
code.o:     file format elf64-littleriscv


Disassembly of section .text.main_dispatch_118_pooling_nhwc_sum_1x7x7x960x3x3_i8xi32xi32:

0000000000000000 <main_dispatch_118_pooling_nhwc_sum_1x7x7x960x3x3_i8xi32xi32>:
   0:	d4010113          	addi	sp,sp,-704
   4:	2a113c23          	sd	ra,696(sp)
   8:	2a813823          	sd	s0,688(sp)
   c:	2a913423          	sd	s1,680(sp)
  10:	2b213023          	sd	s2,672(sp)
  14:	29313c23          	sd	s3,664(sp)
  18:	29413823          	sd	s4,656(sp)
  1c:	29513423          	sd	s5,648(sp)
  20:	29613023          	sd	s6,640(sp)
  24:	27713c23          	sd	s7,632(sp)
  28:	27813823          	sd	s8,624(sp)
  2c:	27913423          	sd	s9,616(sp)
  30:	27a13023          	sd	s10,608(sp)
  34:	25b13c23          	sd	s11,600(sp)
  38:	2c010413          	addi	s0,sp,704
  3c:	0185b503          	ld	a0,24(a1)
  40:	0205b583          	ld	a1,32(a1)
  44:	00056603          	lwu	a2,0(a0)
  48:	0005b683          	ld	a3,0(a1)
  4c:	00456503          	lwu	a0,4(a0)
  50:	0085b583          	ld	a1,8(a1)
  54:	00000713          	li	a4,0
  58:	00c682b3          	add	t0,a3,a2
  5c:	ffc57513          	andi	a0,a0,-4
  60:	00a58533          	add	a0,a1,a0
  64:	d6a43823          	sd	a0,-656(s0)
  68:	7ff28513          	addi	a0,t0,2047
  6c:	70150893          	addi	a7,a0,1793
  70:	78088813          	addi	a6,a7,1920
  74:	00007537          	lui	a0,0x7
  78:	9005051b          	addiw	a0,a0,-1792 # 6900 <.LBB95_284>
  7c:	d6a43423          	sd	a0,-664(s0)
  80:	00f00513          	li	a0,15
  84:	00951593          	slli	a1,a0,0x9
  88:	d6b43023          	sd	a1,-672(s0)
  8c:	000035b7          	lui	a1,0x3
  90:	d005859b          	addiw	a1,a1,-768 # 2d00 <.LBB87_10>
  94:	d4b43c23          	sd	a1,-680(s0)
  98:	00a51513          	slli	a0,a0,0xa
  9c:	d4a43823          	sd	a0,-688(s0)
  a0:	00005537          	lui	a0,0x5
  a4:	b005051b          	addiw	a0,a0,-1280 # 4b00 <.LBB66_82>
  a8:	d4a43423          	sd	a0,-696(s0)
  ac:	00006537          	lui	a0,0x6
  b0:	a005051b          	addiw	a0,a0,-1536 # 5a00 <.LBB28_32>
  b4:	d4a43023          	sd	a0,-704(s0)
  b8:	00002537          	lui	a0,0x2
  bc:	1c05031b          	addiw	t1,a0,448 # 21c0 <.LBB28_4+0x4ac>
  c0:	de643823          	sd	t1,-528(s0)

00000000000000c4 <.LBB92_1>:
  c4:	00000513          	li	a0,0
  c8:	d8e43823          	sd	a4,-624(s0)
  cc:	d6843583          	ld	a1,-664(s0)
  d0:	02b705b3          	mul	a1,a4,a1
  d4:	d7043683          	ld	a3,-656(s0)
  d8:	00b686b3          	add	a3,a3,a1
  dc:	7ff68593          	addi	a1,a3,2047
  e0:	70158593          	addi	a1,a1,1793
  e4:	dcb43023          	sd	a1,-576(s0)
  e8:	d6043583          	ld	a1,-672(s0)
  ec:	00b685b3          	add	a1,a3,a1
  f0:	dab43c23          	sd	a1,-584(s0)
  f4:	d5843583          	ld	a1,-680(s0)
  f8:	00b685b3          	add	a1,a3,a1
  fc:	dab43823          	sd	a1,-592(s0)
 100:	d5043583          	ld	a1,-688(s0)
 104:	00b685b3          	add	a1,a3,a1
 108:	dab43423          	sd	a1,-600(s0)
 10c:	d4843583          	ld	a1,-696(s0)
 110:	00b685b3          	add	a1,a3,a1
 114:	dab43023          	sd	a1,-608(s0)
 118:	d4043583          	ld	a1,-704(s0)
 11c:	dcd43423          	sd	a3,-568(s0)
 120:	00b685b3          	add	a1,a3,a1
 124:	d8b43c23          	sd	a1,-616(s0)
 128:	d7043c23          	sd	a6,-648(s0)
 12c:	d9143023          	sd	a7,-640(s0)
 130:	d8543423          	sd	t0,-632(s0)

0000000000000134 <.LBB92_2>:
 134:	00000c93          	li	s9,0
 138:	00000093          	li	ra,0
 13c:	00000c13          	li	s8,0
 140:	e8043023          	sd	zero,-384(s0)
 144:	e6043c23          	sd	zero,-392(s0)
 148:	e6043823          	sd	zero,-400(s0)
 14c:	00000d93          	li	s11,0
 150:	00000613          	li	a2,0
 154:	00000993          	li	s3,0
 158:	00000a93          	li	s5,0
 15c:	e8043423          	sd	zero,-376(s0)
 160:	00000b13          	li	s6,0
 164:	00000b93          	li	s7,0
 168:	ec043823          	sd	zero,-304(s0)
 16c:	ea043023          	sd	zero,-352(s0)
 170:	e8043c23          	sd	zero,-360(s0)
 174:	f6043823          	sd	zero,-144(s0)
 178:	ec043423          	sd	zero,-312(s0)
 17c:	e8043823          	sd	zero,-368(s0)
 180:	ec043023          	sd	zero,-320(s0)
 184:	f0043423          	sd	zero,-248(s0)
 188:	ea043c23          	sd	zero,-328(s0)
 18c:	f0043023          	sd	zero,-256(s0)
 190:	ea043823          	sd	zero,-336(s0)
 194:	f8043023          	sd	zero,-128(s0)
 198:	ee043c23          	sd	zero,-264(s0)
 19c:	ea043423          	sd	zero,-344(s0)
 1a0:	ee043823          	sd	zero,-272(s0)
 1a4:	f4043023          	sd	zero,-192(s0)
 1a8:	ee043423          	sd	zero,-280(s0)
 1ac:	f2043c23          	sd	zero,-200(s0)
 1b0:	ee043023          	sd	zero,-288(s0)
 1b4:	f8043423          	sd	zero,-120(s0)
 1b8:	f2043823          	sd	zero,-208(s0)
 1bc:	ec043c23          	sd	zero,-296(s0)
 1c0:	f2043423          	sd	zero,-216(s0)
 1c4:	f6043423          	sd	zero,-152(s0)
 1c8:	f2043023          	sd	zero,-224(s0)
 1cc:	f6043023          	sd	zero,-160(s0)
 1d0:	f0043c23          	sd	zero,-232(s0)
 1d4:	f8043823          	sd	zero,-112(s0)
 1d8:	f4043c23          	sd	zero,-168(s0)
 1dc:	f0043823          	sd	zero,-240(s0)
 1e0:	f4043823          	sd	zero,-176(s0)
 1e4:	f6043c23          	sd	zero,-136(s0)
 1e8:	f4043423          	sd	zero,-184(s0)
 1ec:	00000a13          	li	s4,0
 1f0:	00000d13          	li	s10,0
 1f4:	00000393          	li	t2,0
 1f8:	00000e93          	li	t4,0
 1fc:	00000493          	li	s1,0
 200:	00000e13          	li	t3,0
 204:	00000f93          	li	t6,0
 208:	00000f13          	li	t5,0
 20c:	00000913          	li	s2,0
 210:	00000713          	li	a4,0
 214:	dca43823          	sd	a0,-560(s0)
 218:	ffd00793          	li	a5,-3
 21c:	df043423          	sd	a6,-536(s0)
 220:	df143023          	sd	a7,-544(s0)
 224:	dc543c23          	sd	t0,-552(s0)

0000000000000228 <.LBB92_3>:
 228:	dfa43c23          	sd	s10,-520(s0)
 22c:	e1f43823          	sd	t6,-496(s0)
 230:	e2943c23          	sd	s1,-456(s0)
 234:	e5243023          	sd	s2,-448(s0)
 238:	e4743423          	sd	t2,-440(s0)
 23c:	e5d43823          	sd	t4,-432(s0)
 240:	e5e43c23          	sd	t5,-424(s0)
 244:	e7c43023          	sd	t3,-416(s0)
 248:	e6e43423          	sd	a4,-408(s0)
 24c:	00228503          	lb	a0,2(t0)
 250:	00ac0c33          	add	s8,s8,a0
 254:	00128503          	lb	a0,1(t0)
 258:	00028583          	lb	a1,0(t0)
 25c:	00328683          	lb	a3,3(t0)
 260:	00428703          	lb	a4,4(t0)
 264:	00a08333          	add	t1,ra,a0
 268:	00bc85b3          	add	a1,s9,a1
 26c:	e8043503          	ld	a0,-384(s0)
 270:	00d506b3          	add	a3,a0,a3
 274:	e7843c83          	ld	s9,-392(s0)
 278:	00ec8cb3          	add	s9,s9,a4
 27c:	00728503          	lb	a0,7(t0)
 280:	00528383          	lb	t2,5(t0)
 284:	00628e03          	lb	t3,6(t0)
 288:	3c028e83          	lb	t4,960(t0)
 28c:	78028703          	lb	a4,1920(t0)
 290:	e7043083          	ld	ra,-400(s0)
 294:	007083b3          	add	t2,ra,t2
 298:	01cd8db3          	add	s11,s11,t3
 29c:	00a60633          	add	a2,a2,a0
 2a0:	01d70eb3          	add	t4,a4,t4
 2a4:	c4088503          	lb	a0,-960(a7)
 2a8:	3c128f03          	lb	t5,961(t0)
 2ac:	78128e03          	lb	t3,1921(t0)
 2b0:	00be85b3          	add	a1,t4,a1
 2b4:	e2b43823          	sd	a1,-464(s0)
 2b8:	00a985b3          	add	a1,s3,a0
 2bc:	00be85b3          	add	a1,t4,a1
 2c0:	e2b43423          	sd	a1,-472(s0)
 2c4:	01ee05b3          	add	a1,t3,t5
 2c8:	c4188f03          	lb	t5,-959(a7)
 2cc:	3c228e83          	lb	t4,962(t0)
 2d0:	78228483          	lb	s1,1922(t0)
 2d4:	00658333          	add	t1,a1,t1
 2d8:	e2643023          	sd	t1,-480(s0)
 2dc:	01ea8333          	add	t1,s5,t5
 2e0:	006585b3          	add	a1,a1,t1
 2e4:	e0b43c23          	sd	a1,-488(s0)
 2e8:	01d48eb3          	add	t4,s1,t4
 2ec:	c4288083          	lb	ra,-958(a7)
 2f0:	3c328583          	lb	a1,963(t0)
 2f4:	78328903          	lb	s2,1923(t0)
 2f8:	018e8c33          	add	s8,t4,s8
 2fc:	e1843423          	sd	s8,-504(s0)
 300:	e8843303          	ld	t1,-376(s0)
 304:	00130333          	add	t1,t1,ra
 308:	006e8333          	add	t1,t4,t1
 30c:	e8643423          	sd	t1,-376(s0)
 310:	00b90333          	add	t1,s2,a1
 314:	c4388583          	lb	a1,-957(a7)
 318:	3c428e83          	lb	t4,964(t0)
 31c:	000a0d13          	mv	s10,s4
 320:	78428a03          	lb	s4,1924(t0)
 324:	00d306b3          	add	a3,t1,a3
 328:	e8d43023          	sd	a3,-384(s0)
 32c:	00bb06b3          	add	a3,s6,a1
 330:	00d306b3          	add	a3,t1,a3
 334:	e0d43023          	sd	a3,-512(s0)
 338:	01da0eb3          	add	t4,s4,t4
 33c:	c4488683          	lb	a3,-956(a7)
 340:	3c528303          	lb	t1,965(t0)
 344:	78528b03          	lb	s6,1925(t0)
 348:	019e8cb3          	add	s9,t4,s9
 34c:	e7943c23          	sd	s9,-392(s0)
 350:	00db8fb3          	add	t6,s7,a3
 354:	01fe8cb3          	add	s9,t4,t6
 358:	006b0eb3          	add	t4,s6,t1
 35c:	c4588303          	lb	t1,-955(a7)
 360:	3c628f83          	lb	t6,966(t0)
 364:	78628b83          	lb	s7,1926(t0)
 368:	007e83b3          	add	t2,t4,t2
 36c:	e6743823          	sd	t2,-400(s0)
 370:	ed043383          	ld	t2,-304(s0)
 374:	006383b3          	add	t2,t2,t1
 378:	007e83b3          	add	t2,t4,t2
 37c:	ec743823          	sd	t2,-304(s0)
 380:	01fb8fb3          	add	t6,s7,t6
 384:	c4688383          	lb	t2,-954(a7)
 388:	01bf8db3          	add	s11,t6,s11
 38c:	3c728983          	lb	s3,967(t0)
 390:	78728c03          	lb	s8,1927(t0)
 394:	ea043a83          	ld	s5,-352(s0)
 398:	007a8ab3          	add	s5,s5,t2
 39c:	c4788e83          	lb	t4,-953(a7)
 3a0:	015f8fb3          	add	t6,t6,s5
 3a4:	ebf43023          	sd	t6,-352(s0)
 3a8:	013c09b3          	add	s3,s8,s3
 3ac:	00c98633          	add	a2,s3,a2
 3b0:	e9843a83          	ld	s5,-360(s0)
 3b4:	01da8ab3          	add	s5,s5,t4
 3b8:	00088f83          	lb	t6,0(a7)
 3bc:	015989b3          	add	s3,s3,s5
 3c0:	e9343c23          	sd	s3,-360(s0)
 3c4:	00e509b3          	add	s3,a0,a4
 3c8:	00188703          	lb	a4,1(a7)
 3cc:	f7043a83          	ld	s5,-144(s0)
 3d0:	01fa8ab3          	add	s5,s5,t6
 3d4:	015989b3          	add	s3,s3,s5
 3d8:	f7343823          	sd	s3,-144(s0)
 3dc:	01cf09b3          	add	s3,t5,t3
 3e0:	ec843a83          	ld	s5,-312(s0)
 3e4:	00ea8ab3          	add	s5,s5,a4
 3e8:	00288e03          	lb	t3,2(a7)
 3ec:	015989b3          	add	s3,s3,s5
 3f0:	ed343423          	sd	s3,-312(s0)
 3f4:	009084b3          	add	s1,ra,s1
 3f8:	00388983          	lb	s3,3(a7)
 3fc:	e9043a83          	ld	s5,-368(s0)
 400:	01ca8ab3          	add	s5,s5,t3
 404:	015484b3          	add	s1,s1,s5
 408:	e8943823          	sd	s1,-368(s0)
 40c:	01258933          	add	s2,a1,s2
 410:	ec043483          	ld	s1,-320(s0)
 414:	013484b3          	add	s1,s1,s3
 418:	00488a83          	lb	s5,4(a7)
 41c:	009904b3          	add	s1,s2,s1
 420:	ec943023          	sd	s1,-320(s0)
 424:	01468a33          	add	s4,a3,s4
 428:	00588903          	lb	s2,5(a7)
 42c:	f0843483          	ld	s1,-248(s0)
 430:	015484b3          	add	s1,s1,s5
 434:	009a04b3          	add	s1,s4,s1
 438:	f0943423          	sd	s1,-248(s0)
 43c:	01630b33          	add	s6,t1,s6
 440:	eb843483          	ld	s1,-328(s0)
 444:	012484b3          	add	s1,s1,s2
 448:	00688a03          	lb	s4,6(a7)
 44c:	009b04b3          	add	s1,s6,s1
 450:	ea943c23          	sd	s1,-328(s0)
 454:	01738bb3          	add	s7,t2,s7
 458:	00788483          	lb	s1,7(a7)
 45c:	f0043b03          	ld	s6,-256(s0)
 460:	014b0b33          	add	s6,s6,s4
 464:	016b8b33          	add	s6,s7,s6
 468:	f1643023          	sd	s6,-256(s0)
 46c:	018e8c33          	add	s8,t4,s8
 470:	eb043b03          	ld	s6,-336(s0)
 474:	009b0b33          	add	s6,s6,s1
 478:	3c088b83          	lb	s7,960(a7)
 47c:	016c0b33          	add	s6,s8,s6
 480:	eb643823          	sd	s6,-336(s0)
 484:	00af8b33          	add	s6,t6,a0
 488:	3c188503          	lb	a0,961(a7)
 48c:	f8043c03          	ld	s8,-128(s0)
 490:	017c0c33          	add	s8,s8,s7
 494:	018b0b33          	add	s6,s6,s8
 498:	f9643023          	sd	s6,-128(s0)
 49c:	01e70f33          	add	t5,a4,t5
 4a0:	ef843c03          	ld	s8,-264(s0)
 4a4:	00ac0c33          	add	s8,s8,a0
 4a8:	3c288b03          	lb	s6,962(a7)
 4ac:	018f0f33          	add	t5,t5,s8
 4b0:	efe43c23          	sd	t5,-264(s0)
 4b4:	001e00b3          	add	ra,t3,ra
 4b8:	3c388f03          	lb	t5,963(a7)
 4bc:	ea843c03          	ld	s8,-344(s0)
 4c0:	016c0c33          	add	s8,s8,s6
 4c4:	01808c33          	add	s8,ra,s8
 4c8:	eb843423          	sd	s8,-344(s0)
 4cc:	00b985b3          	add	a1,s3,a1
 4d0:	ef043c03          	ld	s8,-272(s0)
 4d4:	01ec0c33          	add	s8,s8,t5
 4d8:	3c488083          	lb	ra,964(a7)
 4dc:	018585b3          	add	a1,a1,s8
 4e0:	eeb43823          	sd	a1,-272(s0)
 4e4:	00da85b3          	add	a1,s5,a3
 4e8:	3c588683          	lb	a3,965(a7)
 4ec:	f4043c03          	ld	s8,-192(s0)
 4f0:	001c0c33          	add	s8,s8,ra
 4f4:	018585b3          	add	a1,a1,s8
 4f8:	f4b43023          	sd	a1,-192(s0)
 4fc:	006905b3          	add	a1,s2,t1
 500:	ee843c03          	ld	s8,-280(s0)
 504:	00dc0c33          	add	s8,s8,a3
 508:	3c688303          	lb	t1,966(a7)
 50c:	018585b3          	add	a1,a1,s8
 510:	eeb43423          	sd	a1,-280(s0)
 514:	007a03b3          	add	t2,s4,t2
 518:	3c788583          	lb	a1,967(a7)
 51c:	f3843c03          	ld	s8,-200(s0)
 520:	006c0c33          	add	s8,s8,t1
 524:	018383b3          	add	t2,t2,s8
 528:	f2743c23          	sd	t2,-200(s0)
 52c:	01d48eb3          	add	t4,s1,t4
 530:	ee043c03          	ld	s8,-288(s0)
 534:	00bc0c33          	add	s8,s8,a1
 538:	00080383          	lb	t2,0(a6)
 53c:	018e8eb3          	add	t4,t4,s8
 540:	efd43023          	sd	t4,-288(s0)
 544:	01fb8fb3          	add	t6,s7,t6
 548:	00180e83          	lb	t4,1(a6)
 54c:	f8843c03          	ld	s8,-120(s0)
 550:	007c0c33          	add	s8,s8,t2
 554:	018f8fb3          	add	t6,t6,s8
 558:	f9f43423          	sd	t6,-120(s0)
 55c:	00e50fb3          	add	t6,a0,a4
 560:	f3043c03          	ld	s8,-208(s0)
 564:	01dc0c33          	add	s8,s8,t4
 568:	00280703          	lb	a4,2(a6)
 56c:	018f8fb3          	add	t6,t6,s8
 570:	f3f43823          	sd	t6,-208(s0)
 574:	01cb0fb3          	add	t6,s6,t3
 578:	00380e03          	lb	t3,3(a6)
 57c:	ed843c03          	ld	s8,-296(s0)
 580:	00ec0c33          	add	s8,s8,a4
 584:	018f8fb3          	add	t6,t6,s8
 588:	edf43c23          	sd	t6,-296(s0)
 58c:	013f09b3          	add	s3,t5,s3
 590:	f2843c03          	ld	s8,-216(s0)
 594:	01cc0c33          	add	s8,s8,t3
 598:	00480f83          	lb	t6,4(a6)
 59c:	018989b3          	add	s3,s3,s8
 5a0:	f3343423          	sd	s3,-216(s0)
 5a4:	01508ab3          	add	s5,ra,s5
 5a8:	00580983          	lb	s3,5(a6)
 5ac:	f6843c03          	ld	s8,-152(s0)
 5b0:	01fc0c33          	add	s8,s8,t6
 5b4:	018a8ab3          	add	s5,s5,s8
 5b8:	f7543423          	sd	s5,-152(s0)
 5bc:	01268ab3          	add	s5,a3,s2
 5c0:	f2043c03          	ld	s8,-224(s0)
 5c4:	013c0c33          	add	s8,s8,s3
 5c8:	00680903          	lb	s2,6(a6)
 5cc:	018a8ab3          	add	s5,s5,s8
 5d0:	f3543023          	sd	s5,-224(s0)
 5d4:	01430a33          	add	s4,t1,s4
 5d8:	00780a83          	lb	s5,7(a6)
 5dc:	f6043c03          	ld	s8,-160(s0)
 5e0:	012c0c33          	add	s8,s8,s2
 5e4:	018a0a33          	add	s4,s4,s8
 5e8:	f7443023          	sd	s4,-160(s0)
 5ec:	009584b3          	add	s1,a1,s1
 5f0:	f1843a03          	ld	s4,-232(s0)
 5f4:	015a0a33          	add	s4,s4,s5
 5f8:	3c080c03          	lb	s8,960(a6)
 5fc:	014484b3          	add	s1,s1,s4
 600:	f0943c23          	sd	s1,-232(s0)
 604:	01738bb3          	add	s7,t2,s7
 608:	3c180483          	lb	s1,961(a6)
 60c:	f9043a03          	ld	s4,-112(s0)
 610:	018a0a33          	add	s4,s4,s8
 614:	014b8a33          	add	s4,s7,s4
 618:	f9443823          	sd	s4,-112(s0)
 61c:	00ae8533          	add	a0,t4,a0
 620:	f5843a03          	ld	s4,-168(s0)
 624:	009a0a33          	add	s4,s4,s1
 628:	3c280b83          	lb	s7,962(a6)
 62c:	01450533          	add	a0,a0,s4
 630:	f4a43c23          	sd	a0,-168(s0)
 634:	01670b33          	add	s6,a4,s6
 638:	3c380503          	lb	a0,963(a6)
 63c:	f1043a03          	ld	s4,-240(s0)
 640:	017a0a33          	add	s4,s4,s7
 644:	014b0a33          	add	s4,s6,s4
 648:	f1443823          	sd	s4,-240(s0)
 64c:	01ee0f33          	add	t5,t3,t5
 650:	f5043a03          	ld	s4,-176(s0)
 654:	00aa0a33          	add	s4,s4,a0
 658:	3c480b03          	lb	s6,964(a6)
 65c:	014f0f33          	add	t5,t5,s4
 660:	f5e43823          	sd	t5,-176(s0)
 664:	001f80b3          	add	ra,t6,ra
 668:	3c580f03          	lb	t5,965(a6)
 66c:	f7843a03          	ld	s4,-136(s0)
 670:	016a0a33          	add	s4,s4,s6
 674:	01408a33          	add	s4,ra,s4
 678:	f7443c23          	sd	s4,-136(s0)
 67c:	00d986b3          	add	a3,s3,a3
 680:	f4843a03          	ld	s4,-184(s0)
 684:	01ea0a33          	add	s4,s4,t5
 688:	3c680083          	lb	ra,966(a6)
 68c:	014686b3          	add	a3,a3,s4
 690:	f4d43423          	sd	a3,-184(s0)
 694:	00690333          	add	t1,s2,t1
 698:	3c780683          	lb	a3,967(a6)
 69c:	001d0a33          	add	s4,s10,ra
 6a0:	01430a33          	add	s4,t1,s4
 6a4:	00ba85b3          	add	a1,s5,a1
 6a8:	df843303          	ld	t1,-520(s0)
 6ac:	00d30333          	add	t1,t1,a3
 6b0:	00658d33          	add	s10,a1,t1
 6b4:	007c03b3          	add	t2,s8,t2
 6b8:	e0843c03          	ld	s8,-504(s0)
 6bc:	01d48eb3          	add	t4,s1,t4
 6c0:	00eb8733          	add	a4,s7,a4
 6c4:	000c8b93          	mv	s7,s9
 6c8:	e3043c83          	ld	s9,-464(s0)
 6cc:	01c50533          	add	a0,a0,t3
 6d0:	01fb0fb3          	add	t6,s6,t6
 6d4:	e0043b03          	ld	s6,-512(s0)
 6d8:	013f0f33          	add	t5,t5,s3
 6dc:	e2843983          	ld	s3,-472(s0)
 6e0:	78080583          	lb	a1,1920(a6)
 6e4:	01208933          	add	s2,ra,s2
 6e8:	e2043083          	ld	ra,-480(s0)
 6ec:	015686b3          	add	a3,a3,s5
 6f0:	e1843a83          	ld	s5,-488(s0)
 6f4:	78180303          	lb	t1,1921(a6)
 6f8:	e4843e03          	ld	t3,-440(s0)
 6fc:	00be05b3          	add	a1,t3,a1
 700:	00b383b3          	add	t2,t2,a1
 704:	78280583          	lb	a1,1922(a6)
 708:	e5043e03          	ld	t3,-432(s0)
 70c:	006e0333          	add	t1,t3,t1
 710:	006e8eb3          	add	t4,t4,t1
 714:	78380303          	lb	t1,1923(a6)
 718:	e3843e03          	ld	t3,-456(s0)
 71c:	00be05b3          	add	a1,t3,a1
 720:	00b704b3          	add	s1,a4,a1
 724:	78480583          	lb	a1,1924(a6)
 728:	e6043703          	ld	a4,-416(s0)
 72c:	00670333          	add	t1,a4,t1
 730:	00650e33          	add	t3,a0,t1
 734:	df043303          	ld	t1,-528(s0)
 738:	78580503          	lb	a0,1925(a6)
 73c:	e1043703          	ld	a4,-496(s0)
 740:	00b705b3          	add	a1,a4,a1
 744:	00bf8fb3          	add	t6,t6,a1
 748:	78680583          	lb	a1,1926(a6)
 74c:	e5843703          	ld	a4,-424(s0)
 750:	00a70533          	add	a0,a4,a0
 754:	78780703          	lb	a4,1927(a6)
 758:	00af0f33          	add	t5,t5,a0
 75c:	e4043503          	ld	a0,-448(s0)
 760:	00b505b3          	add	a1,a0,a1
 764:	00b90933          	add	s2,s2,a1
 768:	e6843503          	ld	a0,-408(s0)
 76c:	00e50733          	add	a4,a0,a4
 770:	00e68733          	add	a4,a3,a4
 774:	006282b3          	add	t0,t0,t1
 778:	006888b3          	add	a7,a7,t1
 77c:	00178793          	addi	a5,a5,1
 780:	00680833          	add	a6,a6,t1
 784:	aa0792e3          	bnez	a5,228 <.LBB92_3>
 788:	dd043683          	ld	a3,-560(s0)
 78c:	00269513          	slli	a0,a3,0x2
 790:	dc843583          	ld	a1,-568(s0)
 794:	00a585b3          	add	a1,a1,a0
 798:	0185a423          	sw	s8,8(a1)
 79c:	0015a223          	sw	ra,4(a1)
 7a0:	0195a023          	sw	s9,0(a1)
 7a4:	e8043783          	ld	a5,-384(s0)
 7a8:	00f5a623          	sw	a5,12(a1)
 7ac:	e7843783          	ld	a5,-392(s0)
 7b0:	00f5a823          	sw	a5,16(a1)
 7b4:	e7043783          	ld	a5,-400(s0)
 7b8:	00f5aa23          	sw	a5,20(a1)
 7bc:	01b5ac23          	sw	s11,24(a1)
 7c0:	00c5ae23          	sw	a2,28(a1)
 7c4:	dc043583          	ld	a1,-576(s0)
 7c8:	00a585b3          	add	a1,a1,a0
 7cc:	e8843603          	ld	a2,-376(s0)
 7d0:	00c5a423          	sw	a2,8(a1)
 7d4:	0155a223          	sw	s5,4(a1)
 7d8:	0135a023          	sw	s3,0(a1)
 7dc:	0165a623          	sw	s6,12(a1)
 7e0:	0175a823          	sw	s7,16(a1)
 7e4:	ed043603          	ld	a2,-304(s0)
 7e8:	00c5aa23          	sw	a2,20(a1)
 7ec:	ea043603          	ld	a2,-352(s0)
 7f0:	00c5ac23          	sw	a2,24(a1)
 7f4:	e9843603          	ld	a2,-360(s0)
 7f8:	00c5ae23          	sw	a2,28(a1)
 7fc:	db843583          	ld	a1,-584(s0)
 800:	00a585b3          	add	a1,a1,a0
 804:	e9043603          	ld	a2,-368(s0)
 808:	00c5a423          	sw	a2,8(a1)
 80c:	ec843603          	ld	a2,-312(s0)
 810:	00c5a223          	sw	a2,4(a1)
 814:	f7043603          	ld	a2,-144(s0)
 818:	00c5a023          	sw	a2,0(a1)
 81c:	ec043603          	ld	a2,-320(s0)
 820:	00c5a623          	sw	a2,12(a1)
 824:	f0843603          	ld	a2,-248(s0)
 828:	00c5a823          	sw	a2,16(a1)
 82c:	eb843603          	ld	a2,-328(s0)
 830:	00c5aa23          	sw	a2,20(a1)
 834:	f0043603          	ld	a2,-256(s0)
 838:	00c5ac23          	sw	a2,24(a1)
 83c:	eb043603          	ld	a2,-336(s0)
 840:	00c5ae23          	sw	a2,28(a1)
 844:	db043583          	ld	a1,-592(s0)
 848:	00a585b3          	add	a1,a1,a0
 84c:	ea843603          	ld	a2,-344(s0)
 850:	00c5a423          	sw	a2,8(a1)
 854:	ef843603          	ld	a2,-264(s0)
 858:	00c5a223          	sw	a2,4(a1)
 85c:	f8043603          	ld	a2,-128(s0)
 860:	00c5a023          	sw	a2,0(a1)
 864:	ef043603          	ld	a2,-272(s0)
 868:	00c5a623          	sw	a2,12(a1)
 86c:	f4043603          	ld	a2,-192(s0)
 870:	00c5a823          	sw	a2,16(a1)
 874:	ee843603          	ld	a2,-280(s0)
 878:	00c5aa23          	sw	a2,20(a1)
 87c:	f3843603          	ld	a2,-200(s0)
 880:	00c5ac23          	sw	a2,24(a1)
 884:	ee043603          	ld	a2,-288(s0)
 888:	00c5ae23          	sw	a2,28(a1)
 88c:	da843583          	ld	a1,-600(s0)
 890:	00a585b3          	add	a1,a1,a0
 894:	ed843603          	ld	a2,-296(s0)
 898:	00c5a423          	sw	a2,8(a1)
 89c:	f3043603          	ld	a2,-208(s0)
 8a0:	00c5a223          	sw	a2,4(a1)
 8a4:	f8843603          	ld	a2,-120(s0)
 8a8:	00c5a023          	sw	a2,0(a1)
 8ac:	f2843603          	ld	a2,-216(s0)
 8b0:	00c5a623          	sw	a2,12(a1)
 8b4:	f6843603          	ld	a2,-152(s0)
 8b8:	00c5a823          	sw	a2,16(a1)
 8bc:	f2043603          	ld	a2,-224(s0)
 8c0:	00c5aa23          	sw	a2,20(a1)
 8c4:	f6043603          	ld	a2,-160(s0)
 8c8:	00c5ac23          	sw	a2,24(a1)
 8cc:	f1843603          	ld	a2,-232(s0)
 8d0:	00c5ae23          	sw	a2,28(a1)
 8d4:	da043583          	ld	a1,-608(s0)
 8d8:	00a585b3          	add	a1,a1,a0
 8dc:	f1043603          	ld	a2,-240(s0)
 8e0:	00c5a423          	sw	a2,8(a1)
 8e4:	f5843603          	ld	a2,-168(s0)
 8e8:	00c5a223          	sw	a2,4(a1)
 8ec:	f9043603          	ld	a2,-112(s0)
 8f0:	00c5a023          	sw	a2,0(a1)
 8f4:	f5043603          	ld	a2,-176(s0)
 8f8:	00c5a623          	sw	a2,12(a1)
 8fc:	f7843603          	ld	a2,-136(s0)
 900:	00c5a823          	sw	a2,16(a1)
 904:	f4843603          	ld	a2,-184(s0)
 908:	00c5aa23          	sw	a2,20(a1)
 90c:	0145ac23          	sw	s4,24(a1)
 910:	01a5ae23          	sw	s10,28(a1)
 914:	d9843583          	ld	a1,-616(s0)
 918:	00a58533          	add	a0,a1,a0
 91c:	00952423          	sw	s1,8(a0)
 920:	01d52223          	sw	t4,4(a0)
 924:	00752023          	sw	t2,0(a0)
 928:	01c52623          	sw	t3,12(a0)
 92c:	01f52823          	sw	t6,16(a0)
 930:	01e52a23          	sw	t5,20(a0)
 934:	01252c23          	sw	s2,24(a0)
 938:	00e52e23          	sw	a4,28(a0)
 93c:	00868513          	addi	a0,a3,8
 940:	dd843283          	ld	t0,-552(s0)
 944:	00828293          	addi	t0,t0,8
 948:	de043883          	ld	a7,-544(s0)
 94c:	00888893          	addi	a7,a7,8
 950:	de843803          	ld	a6,-536(s0)
 954:	00880813          	addi	a6,a6,8
 958:	3b800593          	li	a1,952
 95c:	fcb6ec63          	bltu	a3,a1,134 <.LBB92_2>
 960:	d9043703          	ld	a4,-624(s0)
 964:	00170713          	addi	a4,a4,1
 968:	d8843283          	ld	t0,-632(s0)
 96c:	006282b3          	add	t0,t0,t1
 970:	d8043883          	ld	a7,-640(s0)
 974:	006888b3          	add	a7,a7,t1
 978:	d7843803          	ld	a6,-648(s0)
 97c:	00680833          	add	a6,a6,t1
 980:	00700513          	li	a0,7
 984:	f4a71063          	bne	a4,a0,c4 <.LBB92_1>
 988:	00000513          	li	a0,0
 98c:	2b813083          	ld	ra,696(sp)
 990:	2b013403          	ld	s0,688(sp)
 994:	2a813483          	ld	s1,680(sp)
 998:	2a013903          	ld	s2,672(sp)
 99c:	29813983          	ld	s3,664(sp)
 9a0:	29013a03          	ld	s4,656(sp)
 9a4:	28813a83          	ld	s5,648(sp)
 9a8:	28013b03          	ld	s6,640(sp)
 9ac:	27813b83          	ld	s7,632(sp)
 9b0:	27013c03          	ld	s8,624(sp)
 9b4:	26813c83          	ld	s9,616(sp)
 9b8:	26013d03          	ld	s10,608(sp)
 9bc:	25813d83          	ld	s11,600(sp)
 9c0:	2c010113          	addi	sp,sp,704
 9c4:	00008067          	ret
