
code.o:     file format elf64-littleriscv


Disassembly of section .text.main_dispatch_36_matmul_784x192x32_i8xi8xi32:

0000000000000000 <main_dispatch_36_matmul_784x192x32_i8xi8xi32>:
       0:	81010113          	addi	sp,sp,-2032
       4:	7e113423          	sd	ra,2024(sp)
       8:	7e813023          	sd	s0,2016(sp)
       c:	7c913c23          	sd	s1,2008(sp)
      10:	7d213823          	sd	s2,2000(sp)
      14:	7d313423          	sd	s3,1992(sp)
      18:	7d413023          	sd	s4,1984(sp)
      1c:	7b513c23          	sd	s5,1976(sp)
      20:	7b613823          	sd	s6,1968(sp)
      24:	7b713423          	sd	s7,1960(sp)
      28:	7b813023          	sd	s8,1952(sp)
      2c:	79913c23          	sd	s9,1944(sp)
      30:	79a13823          	sd	s10,1936(sp)
      34:	79b13423          	sd	s11,1928(sp)
      38:	7f010413          	addi	s0,sp,2032
      3c:	80010113          	addi	sp,sp,-2048
      40:	d6010113          	addi	sp,sp,-672
      44:	0205b583          	ld	a1,32(a1)
      48:	00000513          	li	a0,0
      4c:	0085b603          	ld	a2,8(a1)
      50:	0005b683          	ld	a3,0(a1)
      54:	00027737          	lui	a4,0x27
      58:	b807071b          	addiw	a4,a4,-1152 # 26b80 <.LBB63_5166>
      5c:	00e60733          	add	a4,a2,a4
      60:	000017b7          	lui	a5,0x1
      64:	40f407b3          	sub	a5,s0,a5
      68:	d8e7b023          	sd	a4,-640(a5) # d80 <.LBB35_3+0xb84>
      6c:	0001f737          	lui	a4,0x1f
      70:	f807071b          	addiw	a4,a4,-128 # 1ef80 <.LBB80_3738+0xc>
      74:	00e60733          	add	a4,a2,a4
      78:	000017b7          	lui	a5,0x1
      7c:	40f407b3          	sub	a5,s0,a5
      80:	dae7b423          	sd	a4,-600(a5) # da8 <.LBB35_3+0xbac>
      84:	00028737          	lui	a4,0x28
      88:	3807071b          	addiw	a4,a4,896 # 28380 <.LBB60_5368+0x4>
      8c:	0105b583          	ld	a1,16(a1)
      90:	00e60633          	add	a2,a2,a4
      94:	00001737          	lui	a4,0x1
      98:	40e40733          	sub	a4,s0,a4
      9c:	dac73023          	sd	a2,-608(a4) # da0 <.LBB35_3+0xba4>
      a0:	00007637          	lui	a2,0x7
      a4:	e406061b          	addiw	a2,a2,-448 # 6e40 <.LBB35_646+0x24>
      a8:	00c585b3          	add	a1,a1,a2
      ac:	00001637          	lui	a2,0x1
      b0:	40c40633          	sub	a2,s0,a2
      b4:	d6b63c23          	sd	a1,-648(a2) # d78 <.LBB35_3+0xb7c>
      b8:	7ff68593          	addi	a1,a3,2047
      bc:	52158593          	addi	a1,a1,1313
      c0:	00001637          	lui	a2,0x1
      c4:	40c40633          	sub	a2,s0,a2
      c8:	deb63823          	sd	a1,-528(a2) # df0 <.LBB35_3+0xbf4>
      cc:	00300593          	li	a1,3
      d0:	00b59593          	slli	a1,a1,0xb
      d4:	00001637          	lui	a2,0x1
      d8:	40c40633          	sub	a2,s0,a2
      dc:	d8b63c23          	sd	a1,-616(a2) # d98 <.LBB35_3+0xb9c>
      e0:	4927b5b7          	lui	a1,0x4927b
      e4:	3b15859b          	addiw	a1,a1,945 # 4927b3b1 <.Lfunc_end80+0x492529e9>
      e8:	00001637          	lui	a2,0x1
      ec:	40c40633          	sub	a2,s0,a2
      f0:	d8b63823          	sd	a1,-624(a2) # d90 <.LBB35_3+0xb94>
      f4:	00100593          	li	a1,1
      f8:	02359593          	slli	a1,a1,0x23
      fc:	00001637          	lui	a2,0x1
     100:	40c40633          	sub	a2,s0,a2
     104:	66b63023          	sd	a1,1632(a2) # 1660 <.LBB35_4+0x530>
     108:	03c0006f          	j	144 <.LBB35_2>

000000000000010c <.LBB35_1>:
     10c:	00001537          	lui	a0,0x1
     110:	40a40533          	sub	a0,s0,a0
     114:	d8853603          	ld	a2,-632(a0) # d88 <.LBB35_3+0xb8c>
     118:	00860513          	addi	a0,a2,8
     11c:	000015b7          	lui	a1,0x1
     120:	40b405b3          	sub	a1,s0,a1
     124:	df05b583          	ld	a1,-528(a1) # df0 <.LBB35_3+0xbf4>
     128:	10058593          	addi	a1,a1,256
     12c:	000016b7          	lui	a3,0x1
     130:	40d406b3          	sub	a3,s0,a3
     134:	deb6b823          	sd	a1,-528(a3) # df0 <.LBB35_3+0xbf4>
     138:	30800593          	li	a1,776
     13c:	00b66463          	bltu	a2,a1,144 <.LBB35_2>
     140:	1990906f          	j	9ad8 <.LBB35_1030>

0000000000000144 <.LBB35_2>:
     144:	00000593          	li	a1,0
     148:	00050613          	mv	a2,a0
     14c:	0c000513          	li	a0,192
     150:	000016b7          	lui	a3,0x1
     154:	40d406b3          	sub	a3,s0,a3
     158:	d8c6b423          	sd	a2,-632(a3) # d88 <.LBB35_3+0xb8c>
     15c:	02a60533          	mul	a0,a2,a0
     160:	00001637          	lui	a2,0x1
     164:	40c40633          	sub	a2,s0,a2
     168:	d7863603          	ld	a2,-648(a2) # d78 <.LBB35_3+0xb7c>
     16c:	00a60533          	add	a0,a2,a0
     170:	0c050613          	addi	a2,a0,192
     174:	000016b7          	lui	a3,0x1
     178:	40d406b3          	sub	a3,s0,a3
     17c:	dec6b023          	sd	a2,-544(a3) # de0 <.LBB35_3+0xbe4>
     180:	18050613          	addi	a2,a0,384
     184:	000016b7          	lui	a3,0x1
     188:	40d406b3          	sub	a3,s0,a3
     18c:	dcc6bc23          	sd	a2,-552(a3) # dd8 <.LBB35_3+0xbdc>
     190:	24050613          	addi	a2,a0,576
     194:	000016b7          	lui	a3,0x1
     198:	40d406b3          	sub	a3,s0,a3
     19c:	dcc6b823          	sd	a2,-560(a3) # dd0 <.LBB35_3+0xbd4>
     1a0:	30050613          	addi	a2,a0,768
     1a4:	000016b7          	lui	a3,0x1
     1a8:	40d406b3          	sub	a3,s0,a3
     1ac:	dcc6b423          	sd	a2,-568(a3) # dc8 <.LBB35_3+0xbcc>
     1b0:	3c050613          	addi	a2,a0,960
     1b4:	000016b7          	lui	a3,0x1
     1b8:	40d406b3          	sub	a3,s0,a3
     1bc:	dcc6b023          	sd	a2,-576(a3) # dc0 <.LBB35_3+0xbc4>
     1c0:	48050613          	addi	a2,a0,1152
     1c4:	000016b7          	lui	a3,0x1
     1c8:	40d406b3          	sub	a3,s0,a3
     1cc:	dac6bc23          	sd	a2,-584(a3) # db8 <.LBB35_3+0xbbc>
     1d0:	00001637          	lui	a2,0x1
     1d4:	40c40633          	sub	a2,s0,a2
     1d8:	dea63423          	sd	a0,-536(a2) # de8 <.LBB35_3+0xbec>
     1dc:	54050513          	addi	a0,a0,1344
     1e0:	00001637          	lui	a2,0x1
     1e4:	40c40633          	sub	a2,s0,a2
     1e8:	daa63823          	sd	a0,-592(a2) # db0 <.LBB35_3+0xbb4>
     1ec:	00001537          	lui	a0,0x1
     1f0:	40a40533          	sub	a0,s0,a0
     1f4:	d8053603          	ld	a2,-640(a0) # d80 <.LBB35_3+0xb84>
     1f8:	7390006f          	j	1130 <.LBB35_4>

00000000000001fc <.LBB35_3>:
     1fc:	0802cc93          	xori	s9,t0,128
     200:	000018b7          	lui	a7,0x1
     204:	411408b3          	sub	a7,s0,a7
     208:	de88bb83          	ld	s7,-536(a7) # de8 <.LBB35_3+0xbec>
     20c:	000018b7          	lui	a7,0x1
     210:	411408b3          	sub	a7,s0,a7
     214:	6588b283          	ld	t0,1624(a7) # 1658 <.LBB35_4+0x528>
     218:	005b8bb3          	add	s7,s7,t0
     21c:	019b8223          	sb	s9,4(s7)
     220:	f8843c83          	ld	s9,-120(s0)
     224:	080ccc93          	xori	s9,s9,128
     228:	019b81a3          	sb	s9,3(s7)
     22c:	f8043c83          	ld	s9,-128(s0)
     230:	080ccc93          	xori	s9,s9,128
     234:	019b8123          	sb	s9,2(s7)
     238:	f7843c83          	ld	s9,-136(s0)
     23c:	080ccc93          	xori	s9,s9,128
     240:	019b80a3          	sb	s9,1(s7)
     244:	f7043c83          	ld	s9,-144(s0)
     248:	080ccc93          	xori	s9,s9,128
     24c:	019b8023          	sb	s9,0(s7)
     250:	f6843c83          	ld	s9,-152(s0)
     254:	080ccc93          	xori	s9,s9,128
     258:	019b82a3          	sb	s9,5(s7)
     25c:	f6043c83          	ld	s9,-160(s0)
     260:	080ccc93          	xori	s9,s9,128
     264:	019b8323          	sb	s9,6(s7)
     268:	f5843c83          	ld	s9,-168(s0)
     26c:	080ccc93          	xori	s9,s9,128
     270:	019b83a3          	sb	s9,7(s7)
     274:	f5043c83          	ld	s9,-176(s0)
     278:	080ccc93          	xori	s9,s9,128
     27c:	019b8423          	sb	s9,8(s7)
     280:	f4843c83          	ld	s9,-184(s0)
     284:	080ccc93          	xori	s9,s9,128
     288:	019b84a3          	sb	s9,9(s7)
     28c:	f4043c83          	ld	s9,-192(s0)
     290:	080ccc93          	xori	s9,s9,128
     294:	019b8523          	sb	s9,10(s7)
     298:	f3843c83          	ld	s9,-200(s0)
     29c:	080ccc93          	xori	s9,s9,128
     2a0:	019b85a3          	sb	s9,11(s7)
     2a4:	f3043c83          	ld	s9,-208(s0)
     2a8:	080ccc93          	xori	s9,s9,128
     2ac:	019b8623          	sb	s9,12(s7)
     2b0:	f2843c83          	ld	s9,-216(s0)
     2b4:	080ccc93          	xori	s9,s9,128
     2b8:	019b86a3          	sb	s9,13(s7)
     2bc:	f2043c83          	ld	s9,-224(s0)
     2c0:	080ccc93          	xori	s9,s9,128
     2c4:	019b8723          	sb	s9,14(s7)
     2c8:	f1843c83          	ld	s9,-232(s0)
     2cc:	080ccc93          	xori	s9,s9,128
     2d0:	019b87a3          	sb	s9,15(s7)
     2d4:	f1043c83          	ld	s9,-240(s0)
     2d8:	080ccc93          	xori	s9,s9,128
     2dc:	019b8823          	sb	s9,16(s7)
     2e0:	f0843c83          	ld	s9,-248(s0)
     2e4:	080ccc93          	xori	s9,s9,128
     2e8:	019b88a3          	sb	s9,17(s7)
     2ec:	f0043c83          	ld	s9,-256(s0)
     2f0:	080ccc93          	xori	s9,s9,128
     2f4:	019b8923          	sb	s9,18(s7)
     2f8:	ef843c83          	ld	s9,-264(s0)
     2fc:	080ccc93          	xori	s9,s9,128
     300:	019b89a3          	sb	s9,19(s7)
     304:	ef043c83          	ld	s9,-272(s0)
     308:	080ccc93          	xori	s9,s9,128
     30c:	019b8a23          	sb	s9,20(s7)
     310:	ee043883          	ld	a7,-288(s0)
     314:	0808cc93          	xori	s9,a7,128
     318:	019b8aa3          	sb	s9,21(s7)
     31c:	ed843883          	ld	a7,-296(s0)
     320:	0808cc93          	xori	s9,a7,128
     324:	019b8b23          	sb	s9,22(s7)
     328:	ed043883          	ld	a7,-304(s0)
     32c:	0808cc93          	xori	s9,a7,128
     330:	019b8ba3          	sb	s9,23(s7)
     334:	eb043883          	ld	a7,-336(s0)
     338:	0808cc93          	xori	s9,a7,128
     33c:	019b8c23          	sb	s9,24(s7)
     340:	e9043883          	ld	a7,-368(s0)
     344:	0808cc93          	xori	s9,a7,128
     348:	019b8ca3          	sb	s9,25(s7)
     34c:	e8043883          	ld	a7,-384(s0)
     350:	0808cc93          	xori	s9,a7,128
     354:	019b8d23          	sb	s9,26(s7)
     358:	e6043883          	ld	a7,-416(s0)
     35c:	0808cc93          	xori	s9,a7,128
     360:	019b8da3          	sb	s9,27(s7)
     364:	e3843883          	ld	a7,-456(s0)
     368:	0808cc93          	xori	s9,a7,128
     36c:	019b8e23          	sb	s9,28(s7)
     370:	e1843883          	ld	a7,-488(s0)
     374:	0808cc93          	xori	s9,a7,128
     378:	019b8ea3          	sb	s9,29(s7)
     37c:	e1043883          	ld	a7,-496(s0)
     380:	0808cc93          	xori	s9,a7,128
     384:	019b8f23          	sb	s9,30(s7)
     388:	e0843883          	ld	a7,-504(s0)
     38c:	0808cc93          	xori	s9,a7,128
     390:	019b8fa3          	sb	s9,31(s7)
     394:	e0043883          	ld	a7,-512(s0)
     398:	0808cc93          	xori	s9,a7,128
     39c:	000018b7          	lui	a7,0x1
     3a0:	411408b3          	sub	a7,s0,a7
     3a4:	de08bb83          	ld	s7,-544(a7) # de0 <.LBB35_3+0xbe4>
     3a8:	005b8bb3          	add	s7,s7,t0
     3ac:	019b8223          	sb	s9,4(s7)
     3b0:	df843883          	ld	a7,-520(s0)
     3b4:	0808cc93          	xori	s9,a7,128
     3b8:	019b81a3          	sb	s9,3(s7)
     3bc:	df043883          	ld	a7,-528(s0)
     3c0:	0808cc93          	xori	s9,a7,128
     3c4:	019b8123          	sb	s9,2(s7)
     3c8:	de843883          	ld	a7,-536(s0)
     3cc:	0808cc93          	xori	s9,a7,128
     3d0:	019b80a3          	sb	s9,1(s7)
     3d4:	de043883          	ld	a7,-544(s0)
     3d8:	0808cc93          	xori	s9,a7,128
     3dc:	019b8023          	sb	s9,0(s7)
     3e0:	d1843883          	ld	a7,-744(s0)
     3e4:	0808cc93          	xori	s9,a7,128
     3e8:	019b82a3          	sb	s9,5(s7)
     3ec:	cf043883          	ld	a7,-784(s0)
     3f0:	0808cc93          	xori	s9,a7,128
     3f4:	019b8323          	sb	s9,6(s7)
     3f8:	cc843883          	ld	a7,-824(s0)
     3fc:	0808cc93          	xori	s9,a7,128
     400:	019b83a3          	sb	s9,7(s7)
     404:	ca843883          	ld	a7,-856(s0)
     408:	0808cc93          	xori	s9,a7,128
     40c:	019b8423          	sb	s9,8(s7)
     410:	c8843883          	ld	a7,-888(s0)
     414:	0808cc93          	xori	s9,a7,128
     418:	019b84a3          	sb	s9,9(s7)
     41c:	c6043883          	ld	a7,-928(s0)
     420:	0808cc93          	xori	s9,a7,128
     424:	019b8523          	sb	s9,10(s7)
     428:	c3843883          	ld	a7,-968(s0)
     42c:	0808cc93          	xori	s9,a7,128
     430:	019b85a3          	sb	s9,11(s7)
     434:	c1043883          	ld	a7,-1008(s0)
     438:	0808cc93          	xori	s9,a7,128
     43c:	019b8623          	sb	s9,12(s7)
     440:	be843883          	ld	a7,-1048(s0)
     444:	0808cc93          	xori	s9,a7,128
     448:	019b86a3          	sb	s9,13(s7)
     44c:	bc843883          	ld	a7,-1080(s0)
     450:	0808cc93          	xori	s9,a7,128
     454:	019b8723          	sb	s9,14(s7)
     458:	ba843883          	ld	a7,-1112(s0)
     45c:	0808cc93          	xori	s9,a7,128
     460:	019b87a3          	sb	s9,15(s7)
     464:	b8043883          	ld	a7,-1152(s0)
     468:	0808cc93          	xori	s9,a7,128
     46c:	019b8823          	sb	s9,16(s7)
     470:	b5843883          	ld	a7,-1192(s0)
     474:	0808cc93          	xori	s9,a7,128
     478:	019b88a3          	sb	s9,17(s7)
     47c:	b3043883          	ld	a7,-1232(s0)
     480:	0808cc93          	xori	s9,a7,128
     484:	019b8923          	sb	s9,18(s7)
     488:	b0843883          	ld	a7,-1272(s0)
     48c:	0808cc93          	xori	s9,a7,128
     490:	019b89a3          	sb	s9,19(s7)
     494:	ae843883          	ld	a7,-1304(s0)
     498:	0808cc93          	xori	s9,a7,128
     49c:	019b8a23          	sb	s9,20(s7)
     4a0:	ac843883          	ld	a7,-1336(s0)
     4a4:	0808cc93          	xori	s9,a7,128
     4a8:	019b8aa3          	sb	s9,21(s7)
     4ac:	aa043883          	ld	a7,-1376(s0)
     4b0:	0808cc93          	xori	s9,a7,128
     4b4:	019b8b23          	sb	s9,22(s7)
     4b8:	a7843883          	ld	a7,-1416(s0)
     4bc:	0808cc93          	xori	s9,a7,128
     4c0:	019b8ba3          	sb	s9,23(s7)
     4c4:	a5043883          	ld	a7,-1456(s0)
     4c8:	0808cc93          	xori	s9,a7,128
     4cc:	019b8c23          	sb	s9,24(s7)
     4d0:	a2843883          	ld	a7,-1496(s0)
     4d4:	0808cc93          	xori	s9,a7,128
     4d8:	019b8ca3          	sb	s9,25(s7)
     4dc:	a0843883          	ld	a7,-1528(s0)
     4e0:	0808cc93          	xori	s9,a7,128
     4e4:	019b8d23          	sb	s9,26(s7)
     4e8:	9e843883          	ld	a7,-1560(s0)
     4ec:	0808cc93          	xori	s9,a7,128
     4f0:	019b8da3          	sb	s9,27(s7)
     4f4:	9c043883          	ld	a7,-1600(s0)
     4f8:	0808cc93          	xori	s9,a7,128
     4fc:	019b8e23          	sb	s9,28(s7)
     500:	99843883          	ld	a7,-1640(s0)
     504:	0808cc93          	xori	s9,a7,128
     508:	019b8ea3          	sb	s9,29(s7)
     50c:	97043883          	ld	a7,-1680(s0)
     510:	0808cc93          	xori	s9,a7,128
     514:	019b8f23          	sb	s9,30(s7)
     518:	94843883          	ld	a7,-1720(s0)
     51c:	0808cc93          	xori	s9,a7,128
     520:	019b8fa3          	sb	s9,31(s7)
     524:	92843883          	ld	a7,-1752(s0)
     528:	0808cc93          	xori	s9,a7,128
     52c:	000018b7          	lui	a7,0x1
     530:	411408b3          	sub	a7,s0,a7
     534:	dd88bb83          	ld	s7,-552(a7) # dd8 <.LBB35_3+0xbdc>
     538:	005b8bb3          	add	s7,s7,t0
     53c:	019b8223          	sb	s9,4(s7)
     540:	90843883          	ld	a7,-1784(s0)
     544:	0808cc93          	xori	s9,a7,128
     548:	019b81a3          	sb	s9,3(s7)
     54c:	8e043883          	ld	a7,-1824(s0)
     550:	0808cc93          	xori	s9,a7,128
     554:	019b8123          	sb	s9,2(s7)
     558:	8b843883          	ld	a7,-1864(s0)
     55c:	0808cc93          	xori	s9,a7,128
     560:	019b80a3          	sb	s9,1(s7)
     564:	89043883          	ld	a7,-1904(s0)
     568:	0808cc93          	xori	s9,a7,128
     56c:	019b8023          	sb	s9,0(s7)
     570:	87043883          	ld	a7,-1936(s0)
     574:	0808cc93          	xori	s9,a7,128
     578:	019b82a3          	sb	s9,5(s7)
     57c:	85043883          	ld	a7,-1968(s0)
     580:	0808cc93          	xori	s9,a7,128
     584:	019b8323          	sb	s9,6(s7)
     588:	82843883          	ld	a7,-2008(s0)
     58c:	0808cc93          	xori	s9,a7,128
     590:	019b83a3          	sb	s9,7(s7)
     594:	80043883          	ld	a7,-2048(s0)
     598:	0808cc93          	xori	s9,a7,128
     59c:	019b8423          	sb	s9,8(s7)
     5a0:	000018b7          	lui	a7,0x1
     5a4:	411408b3          	sub	a7,s0,a7
     5a8:	7d88b883          	ld	a7,2008(a7) # 17d8 <.LBB35_5+0x104>
     5ac:	0808cc93          	xori	s9,a7,128
     5b0:	019b84a3          	sb	s9,9(s7)
     5b4:	000018b7          	lui	a7,0x1
     5b8:	411408b3          	sub	a7,s0,a7
     5bc:	7b08b883          	ld	a7,1968(a7) # 17b0 <.LBB35_5+0xdc>
     5c0:	0808cc93          	xori	s9,a7,128
     5c4:	019b8523          	sb	s9,10(s7)
     5c8:	000018b7          	lui	a7,0x1
     5cc:	411408b3          	sub	a7,s0,a7
     5d0:	7908b883          	ld	a7,1936(a7) # 1790 <.LBB35_5+0xbc>
     5d4:	0808cc93          	xori	s9,a7,128
     5d8:	019b85a3          	sb	s9,11(s7)
     5dc:	000018b7          	lui	a7,0x1
     5e0:	411408b3          	sub	a7,s0,a7
     5e4:	7708b883          	ld	a7,1904(a7) # 1770 <.LBB35_5+0x9c>
     5e8:	0808cc93          	xori	s9,a7,128
     5ec:	019b8623          	sb	s9,12(s7)
     5f0:	000018b7          	lui	a7,0x1
     5f4:	411408b3          	sub	a7,s0,a7
     5f8:	7488b883          	ld	a7,1864(a7) # 1748 <.LBB35_5+0x74>
     5fc:	0808cc93          	xori	s9,a7,128
     600:	019b86a3          	sb	s9,13(s7)
     604:	000018b7          	lui	a7,0x1
     608:	411408b3          	sub	a7,s0,a7
     60c:	7208b883          	ld	a7,1824(a7) # 1720 <.LBB35_5+0x4c>
     610:	0808cc93          	xori	s9,a7,128
     614:	019b8723          	sb	s9,14(s7)
     618:	000018b7          	lui	a7,0x1
     61c:	411408b3          	sub	a7,s0,a7
     620:	6f88b883          	ld	a7,1784(a7) # 16f8 <.LBB35_5+0x24>
     624:	0808cc93          	xori	s9,a7,128
     628:	019b87a3          	sb	s9,15(s7)
     62c:	000018b7          	lui	a7,0x1
     630:	411408b3          	sub	a7,s0,a7
     634:	6d08b883          	ld	a7,1744(a7) # 16d0 <.LBB35_4+0x5a0>
     638:	0808cc93          	xori	s9,a7,128
     63c:	019b8823          	sb	s9,16(s7)
     640:	000018b7          	lui	a7,0x1
     644:	411408b3          	sub	a7,s0,a7
     648:	6b08b883          	ld	a7,1712(a7) # 16b0 <.LBB35_4+0x580>
     64c:	0808cc93          	xori	s9,a7,128
     650:	019b88a3          	sb	s9,17(s7)
     654:	000018b7          	lui	a7,0x1
     658:	411408b3          	sub	a7,s0,a7
     65c:	6908b883          	ld	a7,1680(a7) # 1690 <.LBB35_4+0x560>
     660:	0808cc93          	xori	s9,a7,128
     664:	019b8923          	sb	s9,18(s7)
     668:	000018b7          	lui	a7,0x1
     66c:	411408b3          	sub	a7,s0,a7
     670:	6688b883          	ld	a7,1640(a7) # 1668 <.LBB35_4+0x538>
     674:	0808cc93          	xori	s9,a7,128
     678:	019b89a3          	sb	s9,19(s7)
     67c:	000018b7          	lui	a7,0x1
     680:	411408b3          	sub	a7,s0,a7
     684:	6288b883          	ld	a7,1576(a7) # 1628 <.LBB35_4+0x4f8>
     688:	0808cc93          	xori	s9,a7,128
     68c:	019b8a23          	sb	s9,20(s7)
     690:	000018b7          	lui	a7,0x1
     694:	411408b3          	sub	a7,s0,a7
     698:	6008b883          	ld	a7,1536(a7) # 1600 <.LBB35_4+0x4d0>
     69c:	0808cc93          	xori	s9,a7,128
     6a0:	019b8aa3          	sb	s9,21(s7)
     6a4:	000018b7          	lui	a7,0x1
     6a8:	411408b3          	sub	a7,s0,a7
     6ac:	5d88b883          	ld	a7,1496(a7) # 15d8 <.LBB35_4+0x4a8>
     6b0:	0808cc93          	xori	s9,a7,128
     6b4:	019b8b23          	sb	s9,22(s7)
     6b8:	000018b7          	lui	a7,0x1
     6bc:	411408b3          	sub	a7,s0,a7
     6c0:	5b88b883          	ld	a7,1464(a7) # 15b8 <.LBB35_4+0x488>
     6c4:	0808cc93          	xori	s9,a7,128
     6c8:	019b8ba3          	sb	s9,23(s7)
     6cc:	000018b7          	lui	a7,0x1
     6d0:	411408b3          	sub	a7,s0,a7
     6d4:	5988b883          	ld	a7,1432(a7) # 1598 <.LBB35_4+0x468>
     6d8:	0808cc93          	xori	s9,a7,128
     6dc:	019b8c23          	sb	s9,24(s7)
     6e0:	000018b7          	lui	a7,0x1
     6e4:	411408b3          	sub	a7,s0,a7
     6e8:	5708b883          	ld	a7,1392(a7) # 1570 <.LBB35_4+0x440>
     6ec:	0808cc93          	xori	s9,a7,128
     6f0:	019b8ca3          	sb	s9,25(s7)
     6f4:	000018b7          	lui	a7,0x1
     6f8:	411408b3          	sub	a7,s0,a7
     6fc:	5488b883          	ld	a7,1352(a7) # 1548 <.LBB35_4+0x418>
     700:	0808cc93          	xori	s9,a7,128
     704:	019b8d23          	sb	s9,26(s7)
     708:	000018b7          	lui	a7,0x1
     70c:	411408b3          	sub	a7,s0,a7
     710:	5208b883          	ld	a7,1312(a7) # 1520 <.LBB35_4+0x3f0>
     714:	0808cc93          	xori	s9,a7,128
     718:	019b8da3          	sb	s9,27(s7)
     71c:	000018b7          	lui	a7,0x1
     720:	411408b3          	sub	a7,s0,a7
     724:	4f88b883          	ld	a7,1272(a7) # 14f8 <.LBB35_4+0x3c8>
     728:	0808cc93          	xori	s9,a7,128
     72c:	019b8e23          	sb	s9,28(s7)
     730:	000018b7          	lui	a7,0x1
     734:	411408b3          	sub	a7,s0,a7
     738:	4d88b883          	ld	a7,1240(a7) # 14d8 <.LBB35_4+0x3a8>
     73c:	0808cc93          	xori	s9,a7,128
     740:	019b8ea3          	sb	s9,29(s7)
     744:	000018b7          	lui	a7,0x1
     748:	411408b3          	sub	a7,s0,a7
     74c:	4b88b883          	ld	a7,1208(a7) # 14b8 <.LBB35_4+0x388>
     750:	0808cc93          	xori	s9,a7,128
     754:	019b8f23          	sb	s9,30(s7)
     758:	000018b7          	lui	a7,0x1
     75c:	411408b3          	sub	a7,s0,a7
     760:	4908b883          	ld	a7,1168(a7) # 1490 <.LBB35_4+0x360>
     764:	0808cc93          	xori	s9,a7,128
     768:	019b8fa3          	sb	s9,31(s7)
     76c:	000018b7          	lui	a7,0x1
     770:	411408b3          	sub	a7,s0,a7
     774:	4688b883          	ld	a7,1128(a7) # 1468 <.LBB35_4+0x338>
     778:	0808cc93          	xori	s9,a7,128
     77c:	000018b7          	lui	a7,0x1
     780:	411408b3          	sub	a7,s0,a7
     784:	dd08bb83          	ld	s7,-560(a7) # dd0 <.LBB35_3+0xbd4>
     788:	005b8bb3          	add	s7,s7,t0
     78c:	019b8223          	sb	s9,4(s7)
     790:	000018b7          	lui	a7,0x1
     794:	411408b3          	sub	a7,s0,a7
     798:	4408b883          	ld	a7,1088(a7) # 1440 <.LBB35_4+0x310>
     79c:	0808cc93          	xori	s9,a7,128
     7a0:	019b81a3          	sb	s9,3(s7)
     7a4:	000018b7          	lui	a7,0x1
     7a8:	411408b3          	sub	a7,s0,a7
     7ac:	4208b883          	ld	a7,1056(a7) # 1420 <.LBB35_4+0x2f0>
     7b0:	0808cc93          	xori	s9,a7,128
     7b4:	019b8123          	sb	s9,2(s7)
     7b8:	000018b7          	lui	a7,0x1
     7bc:	411408b3          	sub	a7,s0,a7
     7c0:	4008b883          	ld	a7,1024(a7) # 1400 <.LBB35_4+0x2d0>
     7c4:	0808cc93          	xori	s9,a7,128
     7c8:	019b80a3          	sb	s9,1(s7)
     7cc:	000018b7          	lui	a7,0x1
     7d0:	411408b3          	sub	a7,s0,a7
     7d4:	3d88b883          	ld	a7,984(a7) # 13d8 <.LBB35_4+0x2a8>
     7d8:	0808cc93          	xori	s9,a7,128
     7dc:	019b8023          	sb	s9,0(s7)
     7e0:	000018b7          	lui	a7,0x1
     7e4:	411408b3          	sub	a7,s0,a7
     7e8:	3b08b883          	ld	a7,944(a7) # 13b0 <.LBB35_4+0x280>
     7ec:	0808cc93          	xori	s9,a7,128
     7f0:	019b82a3          	sb	s9,5(s7)
     7f4:	000018b7          	lui	a7,0x1
     7f8:	411408b3          	sub	a7,s0,a7
     7fc:	3888b883          	ld	a7,904(a7) # 1388 <.LBB35_4+0x258>
     800:	0808cc93          	xori	s9,a7,128
     804:	019b8323          	sb	s9,6(s7)
     808:	000018b7          	lui	a7,0x1
     80c:	411408b3          	sub	a7,s0,a7
     810:	3608b883          	ld	a7,864(a7) # 1360 <.LBB35_4+0x230>
     814:	0808cc93          	xori	s9,a7,128
     818:	019b83a3          	sb	s9,7(s7)
     81c:	000018b7          	lui	a7,0x1
     820:	411408b3          	sub	a7,s0,a7
     824:	3408b883          	ld	a7,832(a7) # 1340 <.LBB35_4+0x210>
     828:	0808cc93          	xori	s9,a7,128
     82c:	019b8423          	sb	s9,8(s7)
     830:	000018b7          	lui	a7,0x1
     834:	411408b3          	sub	a7,s0,a7
     838:	3208b883          	ld	a7,800(a7) # 1320 <.LBB35_4+0x1f0>
     83c:	0808cc93          	xori	s9,a7,128
     840:	019b84a3          	sb	s9,9(s7)
     844:	000018b7          	lui	a7,0x1
     848:	411408b3          	sub	a7,s0,a7
     84c:	3308b883          	ld	a7,816(a7) # 1330 <.LBB35_4+0x200>
     850:	0808cc93          	xori	s9,a7,128
     854:	019b8523          	sb	s9,10(s7)
     858:	000018b7          	lui	a7,0x1
     85c:	411408b3          	sub	a7,s0,a7
     860:	3488b883          	ld	a7,840(a7) # 1348 <.LBB35_4+0x218>
     864:	0808cc93          	xori	s9,a7,128
     868:	019b85a3          	sb	s9,11(s7)
     86c:	000018b7          	lui	a7,0x1
     870:	411408b3          	sub	a7,s0,a7
     874:	3588b883          	ld	a7,856(a7) # 1358 <.LBB35_4+0x228>
     878:	0808cc93          	xori	s9,a7,128
     87c:	019b8623          	sb	s9,12(s7)
     880:	000018b7          	lui	a7,0x1
     884:	411408b3          	sub	a7,s0,a7
     888:	3708b883          	ld	a7,880(a7) # 1370 <.LBB35_4+0x240>
     88c:	0808cc93          	xori	s9,a7,128
     890:	019b86a3          	sb	s9,13(s7)
     894:	000018b7          	lui	a7,0x1
     898:	411408b3          	sub	a7,s0,a7
     89c:	3808b883          	ld	a7,896(a7) # 1380 <.LBB35_4+0x250>
     8a0:	0808cc93          	xori	s9,a7,128
     8a4:	019b8723          	sb	s9,14(s7)
     8a8:	000018b7          	lui	a7,0x1
     8ac:	411408b3          	sub	a7,s0,a7
     8b0:	3988b883          	ld	a7,920(a7) # 1398 <.LBB35_4+0x268>
     8b4:	0808cc93          	xori	s9,a7,128
     8b8:	019b87a3          	sb	s9,15(s7)
     8bc:	000018b7          	lui	a7,0x1
     8c0:	411408b3          	sub	a7,s0,a7
     8c4:	3a88b883          	ld	a7,936(a7) # 13a8 <.LBB35_4+0x278>
     8c8:	0808cc93          	xori	s9,a7,128
     8cc:	019b8823          	sb	s9,16(s7)
     8d0:	000018b7          	lui	a7,0x1
     8d4:	411408b3          	sub	a7,s0,a7
     8d8:	3c08b883          	ld	a7,960(a7) # 13c0 <.LBB35_4+0x290>
     8dc:	0808cc93          	xori	s9,a7,128
     8e0:	019b88a3          	sb	s9,17(s7)
     8e4:	000018b7          	lui	a7,0x1
     8e8:	411408b3          	sub	a7,s0,a7
     8ec:	3d08b883          	ld	a7,976(a7) # 13d0 <.LBB35_4+0x2a0>
     8f0:	0808cc93          	xori	s9,a7,128
     8f4:	019b8923          	sb	s9,18(s7)
     8f8:	000018b7          	lui	a7,0x1
     8fc:	411408b3          	sub	a7,s0,a7
     900:	3e88b883          	ld	a7,1000(a7) # 13e8 <.LBB35_4+0x2b8>
     904:	0808cc93          	xori	s9,a7,128
     908:	019b89a3          	sb	s9,19(s7)
     90c:	000018b7          	lui	a7,0x1
     910:	411408b3          	sub	a7,s0,a7
     914:	3f88b883          	ld	a7,1016(a7) # 13f8 <.LBB35_4+0x2c8>
     918:	0808cc93          	xori	s9,a7,128
     91c:	019b8a23          	sb	s9,20(s7)
     920:	000018b7          	lui	a7,0x1
     924:	411408b3          	sub	a7,s0,a7
     928:	4108b883          	ld	a7,1040(a7) # 1410 <.LBB35_4+0x2e0>
     92c:	0808cc93          	xori	s9,a7,128
     930:	019b8aa3          	sb	s9,21(s7)
     934:	000018b7          	lui	a7,0x1
     938:	411408b3          	sub	a7,s0,a7
     93c:	4288b883          	ld	a7,1064(a7) # 1428 <.LBB35_4+0x2f8>
     940:	0808cc93          	xori	s9,a7,128
     944:	019b8b23          	sb	s9,22(s7)
     948:	000018b7          	lui	a7,0x1
     94c:	411408b3          	sub	a7,s0,a7
     950:	4388b883          	ld	a7,1080(a7) # 1438 <.LBB35_4+0x308>
     954:	0808cc93          	xori	s9,a7,128
     958:	019b8ba3          	sb	s9,23(s7)
     95c:	000018b7          	lui	a7,0x1
     960:	411408b3          	sub	a7,s0,a7
     964:	4508b883          	ld	a7,1104(a7) # 1450 <.LBB35_4+0x320>
     968:	0808cc93          	xori	s9,a7,128
     96c:	019b8c23          	sb	s9,24(s7)
     970:	000018b7          	lui	a7,0x1
     974:	411408b3          	sub	a7,s0,a7
     978:	4608b883          	ld	a7,1120(a7) # 1460 <.LBB35_4+0x330>
     97c:	0808cc93          	xori	s9,a7,128
     980:	019b8ca3          	sb	s9,25(s7)
     984:	000018b7          	lui	a7,0x1
     988:	411408b3          	sub	a7,s0,a7
     98c:	4788b883          	ld	a7,1144(a7) # 1478 <.LBB35_4+0x348>
     990:	0808cc93          	xori	s9,a7,128
     994:	019b8d23          	sb	s9,26(s7)
     998:	000018b7          	lui	a7,0x1
     99c:	411408b3          	sub	a7,s0,a7
     9a0:	4888b883          	ld	a7,1160(a7) # 1488 <.LBB35_4+0x358>
     9a4:	0808cc93          	xori	s9,a7,128
     9a8:	019b8da3          	sb	s9,27(s7)
     9ac:	000018b7          	lui	a7,0x1
     9b0:	411408b3          	sub	a7,s0,a7
     9b4:	4a08b883          	ld	a7,1184(a7) # 14a0 <.LBB35_4+0x370>
     9b8:	0808cc93          	xori	s9,a7,128
     9bc:	019b8e23          	sb	s9,28(s7)
     9c0:	000018b7          	lui	a7,0x1
     9c4:	411408b3          	sub	a7,s0,a7
     9c8:	4b08b883          	ld	a7,1200(a7) # 14b0 <.LBB35_4+0x380>
     9cc:	0808cc93          	xori	s9,a7,128
     9d0:	019b8ea3          	sb	s9,29(s7)
     9d4:	000018b7          	lui	a7,0x1
     9d8:	411408b3          	sub	a7,s0,a7
     9dc:	4c88b883          	ld	a7,1224(a7) # 14c8 <.LBB35_4+0x398>
     9e0:	0808cc93          	xori	s9,a7,128
     9e4:	019b8f23          	sb	s9,30(s7)
     9e8:	000018b7          	lui	a7,0x1
     9ec:	411408b3          	sub	a7,s0,a7
     9f0:	4e08b883          	ld	a7,1248(a7) # 14e0 <.LBB35_4+0x3b0>
     9f4:	0808cc93          	xori	s9,a7,128
     9f8:	019b8fa3          	sb	s9,31(s7)
     9fc:	000018b7          	lui	a7,0x1
     a00:	411408b3          	sub	a7,s0,a7
     a04:	4f08b883          	ld	a7,1264(a7) # 14f0 <.LBB35_4+0x3c0>
     a08:	0808cc93          	xori	s9,a7,128
     a0c:	000018b7          	lui	a7,0x1
     a10:	411408b3          	sub	a7,s0,a7
     a14:	dc88bb83          	ld	s7,-568(a7) # dc8 <.LBB35_3+0xbcc>
     a18:	005b8bb3          	add	s7,s7,t0
     a1c:	019b8223          	sb	s9,4(s7)
     a20:	000018b7          	lui	a7,0x1
     a24:	411408b3          	sub	a7,s0,a7
     a28:	5088b883          	ld	a7,1288(a7) # 1508 <.LBB35_4+0x3d8>
     a2c:	0808cc93          	xori	s9,a7,128
     a30:	019b81a3          	sb	s9,3(s7)
     a34:	000018b7          	lui	a7,0x1
     a38:	411408b3          	sub	a7,s0,a7
     a3c:	5188b883          	ld	a7,1304(a7) # 1518 <.LBB35_4+0x3e8>
     a40:	0808cc93          	xori	s9,a7,128
     a44:	019b8123          	sb	s9,2(s7)
     a48:	000018b7          	lui	a7,0x1
     a4c:	411408b3          	sub	a7,s0,a7
     a50:	5308b883          	ld	a7,1328(a7) # 1530 <.LBB35_4+0x400>
     a54:	0808cc93          	xori	s9,a7,128
     a58:	019b80a3          	sb	s9,1(s7)
     a5c:	000018b7          	lui	a7,0x1
     a60:	411408b3          	sub	a7,s0,a7
     a64:	5408b883          	ld	a7,1344(a7) # 1540 <.LBB35_4+0x410>
     a68:	0808cc93          	xori	s9,a7,128
     a6c:	019b8023          	sb	s9,0(s7)
     a70:	000018b7          	lui	a7,0x1
     a74:	411408b3          	sub	a7,s0,a7
     a78:	5588b883          	ld	a7,1368(a7) # 1558 <.LBB35_4+0x428>
     a7c:	0808cc93          	xori	s9,a7,128
     a80:	019b82a3          	sb	s9,5(s7)
     a84:	000018b7          	lui	a7,0x1
     a88:	411408b3          	sub	a7,s0,a7
     a8c:	5688b883          	ld	a7,1384(a7) # 1568 <.LBB35_4+0x438>
     a90:	0808cc93          	xori	s9,a7,128
     a94:	019b8323          	sb	s9,6(s7)
     a98:	000018b7          	lui	a7,0x1
     a9c:	411408b3          	sub	a7,s0,a7
     aa0:	5808b883          	ld	a7,1408(a7) # 1580 <.LBB35_4+0x450>
     aa4:	0808cc93          	xori	s9,a7,128
     aa8:	019b83a3          	sb	s9,7(s7)
     aac:	000018b7          	lui	a7,0x1
     ab0:	411408b3          	sub	a7,s0,a7
     ab4:	5908b883          	ld	a7,1424(a7) # 1590 <.LBB35_4+0x460>
     ab8:	0808cc93          	xori	s9,a7,128
     abc:	019b8423          	sb	s9,8(s7)
     ac0:	000018b7          	lui	a7,0x1
     ac4:	411408b3          	sub	a7,s0,a7
     ac8:	5a88b883          	ld	a7,1448(a7) # 15a8 <.LBB35_4+0x478>
     acc:	0808cc93          	xori	s9,a7,128
     ad0:	019b84a3          	sb	s9,9(s7)
     ad4:	000018b7          	lui	a7,0x1
     ad8:	411408b3          	sub	a7,s0,a7
     adc:	5c08b883          	ld	a7,1472(a7) # 15c0 <.LBB35_4+0x490>
     ae0:	0808cc93          	xori	s9,a7,128
     ae4:	019b8523          	sb	s9,10(s7)
     ae8:	000018b7          	lui	a7,0x1
     aec:	411408b3          	sub	a7,s0,a7
     af0:	5d08b883          	ld	a7,1488(a7) # 15d0 <.LBB35_4+0x4a0>
     af4:	0808cc93          	xori	s9,a7,128
     af8:	019b85a3          	sb	s9,11(s7)
     afc:	000018b7          	lui	a7,0x1
     b00:	411408b3          	sub	a7,s0,a7
     b04:	5e88b883          	ld	a7,1512(a7) # 15e8 <.LBB35_4+0x4b8>
     b08:	0808cc93          	xori	s9,a7,128
     b0c:	019b8623          	sb	s9,12(s7)
     b10:	000018b7          	lui	a7,0x1
     b14:	411408b3          	sub	a7,s0,a7
     b18:	5f88b883          	ld	a7,1528(a7) # 15f8 <.LBB35_4+0x4c8>
     b1c:	0808cc93          	xori	s9,a7,128
     b20:	019b86a3          	sb	s9,13(s7)
     b24:	000018b7          	lui	a7,0x1
     b28:	411408b3          	sub	a7,s0,a7
     b2c:	6108b883          	ld	a7,1552(a7) # 1610 <.LBB35_4+0x4e0>
     b30:	0808cc93          	xori	s9,a7,128
     b34:	019b8723          	sb	s9,14(s7)
     b38:	000018b7          	lui	a7,0x1
     b3c:	411408b3          	sub	a7,s0,a7
     b40:	6208b883          	ld	a7,1568(a7) # 1620 <.LBB35_4+0x4f0>
     b44:	0808cc93          	xori	s9,a7,128
     b48:	019b87a3          	sb	s9,15(s7)
     b4c:	000018b7          	lui	a7,0x1
     b50:	411408b3          	sub	a7,s0,a7
     b54:	6388b883          	ld	a7,1592(a7) # 1638 <.LBB35_4+0x508>
     b58:	0808cc93          	xori	s9,a7,128
     b5c:	019b8823          	sb	s9,16(s7)
     b60:	000018b7          	lui	a7,0x1
     b64:	411408b3          	sub	a7,s0,a7
     b68:	6488b883          	ld	a7,1608(a7) # 1648 <.LBB35_4+0x518>
     b6c:	0808cc93          	xori	s9,a7,128
     b70:	019b88a3          	sb	s9,17(s7)
     b74:	000018b7          	lui	a7,0x1
     b78:	411408b3          	sub	a7,s0,a7
     b7c:	6788b883          	ld	a7,1656(a7) # 1678 <.LBB35_4+0x548>
     b80:	0808cc93          	xori	s9,a7,128
     b84:	019b8923          	sb	s9,18(s7)
     b88:	000018b7          	lui	a7,0x1
     b8c:	411408b3          	sub	a7,s0,a7
     b90:	6888b883          	ld	a7,1672(a7) # 1688 <.LBB35_4+0x558>
     b94:	0808cc93          	xori	s9,a7,128
     b98:	019b89a3          	sb	s9,19(s7)
     b9c:	000018b7          	lui	a7,0x1
     ba0:	411408b3          	sub	a7,s0,a7
     ba4:	6a08b883          	ld	a7,1696(a7) # 16a0 <.LBB35_4+0x570>
     ba8:	0808cc93          	xori	s9,a7,128
     bac:	019b8a23          	sb	s9,20(s7)
     bb0:	000018b7          	lui	a7,0x1
     bb4:	411408b3          	sub	a7,s0,a7
     bb8:	6b88b883          	ld	a7,1720(a7) # 16b8 <.LBB35_4+0x588>
     bbc:	0808cc93          	xori	s9,a7,128
     bc0:	019b8aa3          	sb	s9,21(s7)
     bc4:	000018b7          	lui	a7,0x1
     bc8:	411408b3          	sub	a7,s0,a7
     bcc:	6c88b883          	ld	a7,1736(a7) # 16c8 <.LBB35_4+0x598>
     bd0:	0808cc93          	xori	s9,a7,128
     bd4:	019b8b23          	sb	s9,22(s7)
     bd8:	000018b7          	lui	a7,0x1
     bdc:	411408b3          	sub	a7,s0,a7
     be0:	6e08b883          	ld	a7,1760(a7) # 16e0 <.LBB35_5+0xc>
     be4:	0808cc93          	xori	s9,a7,128
     be8:	019b8ba3          	sb	s9,23(s7)
     bec:	000018b7          	lui	a7,0x1
     bf0:	411408b3          	sub	a7,s0,a7
     bf4:	6f08b883          	ld	a7,1776(a7) # 16f0 <.LBB35_5+0x1c>
     bf8:	0808cc93          	xori	s9,a7,128
     bfc:	019b8c23          	sb	s9,24(s7)
     c00:	000018b7          	lui	a7,0x1
     c04:	411408b3          	sub	a7,s0,a7
     c08:	7088b883          	ld	a7,1800(a7) # 1708 <.LBB35_5+0x34>
     c0c:	0808cc93          	xori	s9,a7,128
     c10:	019b8ca3          	sb	s9,25(s7)
     c14:	000018b7          	lui	a7,0x1
     c18:	411408b3          	sub	a7,s0,a7
     c1c:	7188b883          	ld	a7,1816(a7) # 1718 <.LBB35_5+0x44>
     c20:	0808cc93          	xori	s9,a7,128
     c24:	019b8d23          	sb	s9,26(s7)
     c28:	000018b7          	lui	a7,0x1
     c2c:	411408b3          	sub	a7,s0,a7
     c30:	7308b883          	ld	a7,1840(a7) # 1730 <.LBB35_5+0x5c>
     c34:	0808cc93          	xori	s9,a7,128
     c38:	019b8da3          	sb	s9,27(s7)
     c3c:	000018b7          	lui	a7,0x1
     c40:	411408b3          	sub	a7,s0,a7
     c44:	7408b883          	ld	a7,1856(a7) # 1740 <.LBB35_5+0x6c>
     c48:	0808cc93          	xori	s9,a7,128
     c4c:	019b8e23          	sb	s9,28(s7)
     c50:	000018b7          	lui	a7,0x1
     c54:	411408b3          	sub	a7,s0,a7
     c58:	7588b883          	ld	a7,1880(a7) # 1758 <.LBB35_5+0x84>
     c5c:	0808cc93          	xori	s9,a7,128
     c60:	019b8ea3          	sb	s9,29(s7)
     c64:	000018b7          	lui	a7,0x1
     c68:	411408b3          	sub	a7,s0,a7
     c6c:	7688b883          	ld	a7,1896(a7) # 1768 <.LBB35_5+0x94>
     c70:	0808cc93          	xori	s9,a7,128
     c74:	019b8f23          	sb	s9,30(s7)
     c78:	000018b7          	lui	a7,0x1
     c7c:	411408b3          	sub	a7,s0,a7
     c80:	7808b883          	ld	a7,1920(a7) # 1780 <.LBB35_5+0xac>
     c84:	0808cc93          	xori	s9,a7,128
     c88:	019b8fa3          	sb	s9,31(s7)
     c8c:	000018b7          	lui	a7,0x1
     c90:	411408b3          	sub	a7,s0,a7
     c94:	7988b883          	ld	a7,1944(a7) # 1798 <.LBB35_5+0xc4>
     c98:	0808cc93          	xori	s9,a7,128
     c9c:	000018b7          	lui	a7,0x1
     ca0:	411408b3          	sub	a7,s0,a7
     ca4:	dc08bb83          	ld	s7,-576(a7) # dc0 <.LBB35_3+0xbc4>
     ca8:	005b8bb3          	add	s7,s7,t0
     cac:	019b8223          	sb	s9,4(s7)
     cb0:	000018b7          	lui	a7,0x1
     cb4:	411408b3          	sub	a7,s0,a7
     cb8:	7a88b883          	ld	a7,1960(a7) # 17a8 <.LBB35_5+0xd4>
     cbc:	0808cc93          	xori	s9,a7,128
     cc0:	019b81a3          	sb	s9,3(s7)
     cc4:	000018b7          	lui	a7,0x1
     cc8:	411408b3          	sub	a7,s0,a7
     ccc:	7c08b883          	ld	a7,1984(a7) # 17c0 <.LBB35_5+0xec>
     cd0:	0808cc93          	xori	s9,a7,128
     cd4:	019b8123          	sb	s9,2(s7)
     cd8:	000018b7          	lui	a7,0x1
     cdc:	411408b3          	sub	a7,s0,a7
     ce0:	7d08b883          	ld	a7,2000(a7) # 17d0 <.LBB35_5+0xfc>
     ce4:	0808cc93          	xori	s9,a7,128
     ce8:	019b80a3          	sb	s9,1(s7)
     cec:	000018b7          	lui	a7,0x1
     cf0:	411408b3          	sub	a7,s0,a7
     cf4:	7e88b883          	ld	a7,2024(a7) # 17e8 <.LBB35_5+0x114>
     cf8:	0808cc93          	xori	s9,a7,128
     cfc:	019b8023          	sb	s9,0(s7)
     d00:	000018b7          	lui	a7,0x1
     d04:	411408b3          	sub	a7,s0,a7
     d08:	7f88b883          	ld	a7,2040(a7) # 17f8 <.LBB35_5+0x124>
     d0c:	0808cc93          	xori	s9,a7,128
     d10:	019b82a3          	sb	s9,5(s7)
     d14:	81043883          	ld	a7,-2032(s0)
     d18:	0808cc93          	xori	s9,a7,128
     d1c:	019b8323          	sb	s9,6(s7)
     d20:	82043883          	ld	a7,-2016(s0)
     d24:	0808cc93          	xori	s9,a7,128
     d28:	019b83a3          	sb	s9,7(s7)
     d2c:	83843883          	ld	a7,-1992(s0)
     d30:	0808cc93          	xori	s9,a7,128
     d34:	019b8423          	sb	s9,8(s7)
     d38:	84843883          	ld	a7,-1976(s0)
     d3c:	0808cc93          	xori	s9,a7,128
     d40:	019b84a3          	sb	s9,9(s7)
     d44:	86043883          	ld	a7,-1952(s0)
     d48:	0808cc93          	xori	s9,a7,128
     d4c:	019b8523          	sb	s9,10(s7)
     d50:	87843883          	ld	a7,-1928(s0)
     d54:	0808cc93          	xori	s9,a7,128
     d58:	019b85a3          	sb	s9,11(s7)
     d5c:	88843883          	ld	a7,-1912(s0)
     d60:	0808cc93          	xori	s9,a7,128
     d64:	019b8623          	sb	s9,12(s7)
     d68:	8a043883          	ld	a7,-1888(s0)
     d6c:	0808cc93          	xori	s9,a7,128
     d70:	019b86a3          	sb	s9,13(s7)
     d74:	8b043883          	ld	a7,-1872(s0)
     d78:	0808cc93          	xori	s9,a7,128
     d7c:	019b8723          	sb	s9,14(s7)
     d80:	8c843883          	ld	a7,-1848(s0)
     d84:	0808cc93          	xori	s9,a7,128
     d88:	019b87a3          	sb	s9,15(s7)
     d8c:	8d843883          	ld	a7,-1832(s0)
     d90:	0808cc93          	xori	s9,a7,128
     d94:	019b8823          	sb	s9,16(s7)
     d98:	8f043883          	ld	a7,-1808(s0)
     d9c:	0808cc93          	xori	s9,a7,128
     da0:	019b88a3          	sb	s9,17(s7)
     da4:	90043883          	ld	a7,-1792(s0)
     da8:	0808cc93          	xori	s9,a7,128
     dac:	019b8923          	sb	s9,18(s7)
     db0:	91843883          	ld	a7,-1768(s0)
     db4:	0808cc93          	xori	s9,a7,128
     db8:	019b89a3          	sb	s9,19(s7)
     dbc:	93043883          	ld	a7,-1744(s0)
     dc0:	0808cc93          	xori	s9,a7,128
     dc4:	019b8a23          	sb	s9,20(s7)
     dc8:	94043883          	ld	a7,-1728(s0)
     dcc:	0808cc93          	xori	s9,a7,128
     dd0:	019b8aa3          	sb	s9,21(s7)
     dd4:	95843883          	ld	a7,-1704(s0)
     dd8:	0808cc93          	xori	s9,a7,128
     ddc:	019b8b23          	sb	s9,22(s7)
     de0:	96843883          	ld	a7,-1688(s0)
     de4:	0808cc93          	xori	s9,a7,128
     de8:	019b8ba3          	sb	s9,23(s7)
     dec:	98043883          	ld	a7,-1664(s0)
     df0:	0808cc93          	xori	s9,a7,128
     df4:	019b8c23          	sb	s9,24(s7)
     df8:	99043883          	ld	a7,-1648(s0)
     dfc:	0808cc93          	xori	s9,a7,128
     e00:	019b8ca3          	sb	s9,25(s7)
     e04:	9a843883          	ld	a7,-1624(s0)
     e08:	0808cc93          	xori	s9,a7,128
     e0c:	019b8d23          	sb	s9,26(s7)
     e10:	9b843883          	ld	a7,-1608(s0)
     e14:	0808cc93          	xori	s9,a7,128
     e18:	019b8da3          	sb	s9,27(s7)
     e1c:	9d043883          	ld	a7,-1584(s0)
     e20:	0808cc93          	xori	s9,a7,128
     e24:	019b8e23          	sb	s9,28(s7)
     e28:	9e043883          	ld	a7,-1568(s0)
     e2c:	0808cc93          	xori	s9,a7,128
     e30:	019b8ea3          	sb	s9,29(s7)
     e34:	9f843883          	ld	a7,-1544(s0)
     e38:	0808cc93          	xori	s9,a7,128
     e3c:	019b8f23          	sb	s9,30(s7)
     e40:	a1043883          	ld	a7,-1520(s0)
     e44:	0808cc93          	xori	s9,a7,128
     e48:	019b8fa3          	sb	s9,31(s7)
     e4c:	a2043883          	ld	a7,-1504(s0)
     e50:	0808cc93          	xori	s9,a7,128
     e54:	000018b7          	lui	a7,0x1
     e58:	411408b3          	sub	a7,s0,a7
     e5c:	db88bb83          	ld	s7,-584(a7) # db8 <.LBB35_3+0xbbc>
     e60:	005b8bb3          	add	s7,s7,t0
     e64:	019b8223          	sb	s9,4(s7)
     e68:	a3843883          	ld	a7,-1480(s0)
     e6c:	0808cc93          	xori	s9,a7,128
     e70:	019b81a3          	sb	s9,3(s7)
     e74:	a4843883          	ld	a7,-1464(s0)
     e78:	0808cc93          	xori	s9,a7,128
     e7c:	019b8123          	sb	s9,2(s7)
     e80:	a6043883          	ld	a7,-1440(s0)
     e84:	0808cc93          	xori	s9,a7,128
     e88:	019b80a3          	sb	s9,1(s7)
     e8c:	a7043883          	ld	a7,-1424(s0)
     e90:	0808cc93          	xori	s9,a7,128
     e94:	019b8023          	sb	s9,0(s7)
     e98:	a8843883          	ld	a7,-1400(s0)
     e9c:	0808cc93          	xori	s9,a7,128
     ea0:	019b82a3          	sb	s9,5(s7)
     ea4:	a9843883          	ld	a7,-1384(s0)
     ea8:	0808cc93          	xori	s9,a7,128
     eac:	019b8323          	sb	s9,6(s7)
     eb0:	ab043883          	ld	a7,-1360(s0)
     eb4:	0808cc93          	xori	s9,a7,128
     eb8:	019b83a3          	sb	s9,7(s7)
     ebc:	ac043883          	ld	a7,-1344(s0)
     ec0:	0808cc93          	xori	s9,a7,128
     ec4:	019b8423          	sb	s9,8(s7)
     ec8:	ad843883          	ld	a7,-1320(s0)
     ecc:	0808cc93          	xori	s9,a7,128
     ed0:	019b84a3          	sb	s9,9(s7)
     ed4:	af043883          	ld	a7,-1296(s0)
     ed8:	0808cc93          	xori	s9,a7,128
     edc:	019b8523          	sb	s9,10(s7)
     ee0:	b0043883          	ld	a7,-1280(s0)
     ee4:	0808cc93          	xori	s9,a7,128
     ee8:	019b85a3          	sb	s9,11(s7)
     eec:	b1843883          	ld	a7,-1256(s0)
     ef0:	0808cc93          	xori	s9,a7,128
     ef4:	019b8623          	sb	s9,12(s7)
     ef8:	b2843883          	ld	a7,-1240(s0)
     efc:	0808cc93          	xori	s9,a7,128
     f00:	019b86a3          	sb	s9,13(s7)
     f04:	b4043883          	ld	a7,-1216(s0)
     f08:	0808cc93          	xori	s9,a7,128
     f0c:	019b8723          	sb	s9,14(s7)
     f10:	b5043883          	ld	a7,-1200(s0)
     f14:	0808cc93          	xori	s9,a7,128
     f18:	019b87a3          	sb	s9,15(s7)
     f1c:	b6843883          	ld	a7,-1176(s0)
     f20:	0808cc93          	xori	s9,a7,128
     f24:	019b8823          	sb	s9,16(s7)
     f28:	b7843883          	ld	a7,-1160(s0)
     f2c:	0808cc93          	xori	s9,a7,128
     f30:	019b88a3          	sb	s9,17(s7)
     f34:	b9043883          	ld	a7,-1136(s0)
     f38:	0808cc93          	xori	s9,a7,128
     f3c:	019b8923          	sb	s9,18(s7)
     f40:	ba043883          	ld	a7,-1120(s0)
     f44:	0808cc93          	xori	s9,a7,128
     f48:	019b89a3          	sb	s9,19(s7)
     f4c:	bb843883          	ld	a7,-1096(s0)
     f50:	0808cc93          	xori	s9,a7,128
     f54:	019b8a23          	sb	s9,20(s7)
     f58:	bd043883          	ld	a7,-1072(s0)
     f5c:	0808cc93          	xori	s9,a7,128
     f60:	019b8aa3          	sb	s9,21(s7)
     f64:	be043883          	ld	a7,-1056(s0)
     f68:	0808cc93          	xori	s9,a7,128
     f6c:	019b8b23          	sb	s9,22(s7)
     f70:	bf843883          	ld	a7,-1032(s0)
     f74:	0808cc93          	xori	s9,a7,128
     f78:	019b8ba3          	sb	s9,23(s7)
     f7c:	c0843883          	ld	a7,-1016(s0)
     f80:	0808cc93          	xori	s9,a7,128
     f84:	019b8c23          	sb	s9,24(s7)
     f88:	c2043883          	ld	a7,-992(s0)
     f8c:	0808cc93          	xori	s9,a7,128
     f90:	019b8ca3          	sb	s9,25(s7)
     f94:	c3043883          	ld	a7,-976(s0)
     f98:	0808cc93          	xori	s9,a7,128
     f9c:	019b8d23          	sb	s9,26(s7)
     fa0:	c4843883          	ld	a7,-952(s0)
     fa4:	0808cc93          	xori	s9,a7,128
     fa8:	019b8da3          	sb	s9,27(s7)
     fac:	c5843883          	ld	a7,-936(s0)
     fb0:	0808cc93          	xori	s9,a7,128
     fb4:	019b8e23          	sb	s9,28(s7)
     fb8:	c7043883          	ld	a7,-912(s0)
     fbc:	0808cc93          	xori	s9,a7,128
     fc0:	019b8ea3          	sb	s9,29(s7)
     fc4:	c8043883          	ld	a7,-896(s0)
     fc8:	0808cc93          	xori	s9,a7,128
     fcc:	019b8f23          	sb	s9,30(s7)
     fd0:	c9843883          	ld	a7,-872(s0)
     fd4:	0808cc93          	xori	s9,a7,128
     fd8:	019b8fa3          	sb	s9,31(s7)
     fdc:	cb043883          	ld	a7,-848(s0)
     fe0:	0808cc93          	xori	s9,a7,128
     fe4:	000018b7          	lui	a7,0x1
     fe8:	411408b3          	sub	a7,s0,a7
     fec:	db08bb83          	ld	s7,-592(a7) # db0 <.LBB35_3+0xbb4>
     ff0:	005b8bb3          	add	s7,s7,t0
     ff4:	019b8223          	sb	s9,4(s7)
     ff8:	cc043883          	ld	a7,-832(s0)
     ffc:	0808cc93          	xori	s9,a7,128
    1000:	019b81a3          	sb	s9,3(s7)
    1004:	cd843883          	ld	a7,-808(s0)
    1008:	0808cc93          	xori	s9,a7,128
    100c:	019b8123          	sb	s9,2(s7)
    1010:	ce843883          	ld	a7,-792(s0)
    1014:	0808cc93          	xori	s9,a7,128
    1018:	019b80a3          	sb	s9,1(s7)
    101c:	d0043883          	ld	a7,-768(s0)
    1020:	0808cc93          	xori	s9,a7,128
    1024:	019b8023          	sb	s9,0(s7)
    1028:	d1043883          	ld	a7,-752(s0)
    102c:	0808cc93          	xori	s9,a7,128
    1030:	019b82a3          	sb	s9,5(s7)
    1034:	d2843883          	ld	a7,-728(s0)
    1038:	0808cc93          	xori	s9,a7,128
    103c:	019b8323          	sb	s9,6(s7)
    1040:	d3843883          	ld	a7,-712(s0)
    1044:	0808c893          	xori	a7,a7,128
    1048:	011b83a3          	sb	a7,7(s7)
    104c:	d4843883          	ld	a7,-696(s0)
    1050:	0808c893          	xori	a7,a7,128
    1054:	011b8423          	sb	a7,8(s7)
    1058:	080dc893          	xori	a7,s11,128
    105c:	011b84a3          	sb	a7,9(s7)
    1060:	0800c893          	xori	a7,ra,128
    1064:	011b8523          	sb	a7,10(s7)
    1068:	0807c793          	xori	a5,a5,128
    106c:	00fb85a3          	sb	a5,11(s7)
    1070:	0803c793          	xori	a5,t2,128
    1074:	00fb8623          	sb	a5,12(s7)
    1078:	0806c693          	xori	a3,a3,128
    107c:	00db86a3          	sb	a3,13(s7)
    1080:	08054513          	xori	a0,a0,128
    1084:	00ab8723          	sb	a0,14(s7)
    1088:	080e4513          	xori	a0,t3,128
    108c:	00ab87a3          	sb	a0,15(s7)
    1090:	08034513          	xori	a0,t1,128
    1094:	00ab8823          	sb	a0,16(s7)
    1098:	0805c513          	xori	a0,a1,128
    109c:	00ab88a3          	sb	a0,17(s7)
    10a0:	08064513          	xori	a0,a2,128
    10a4:	00ab8923          	sb	a0,18(s7)
    10a8:	08084513          	xori	a0,a6,128
    10ac:	00ab89a3          	sb	a0,19(s7)
    10b0:	080f4513          	xori	a0,t5,128
    10b4:	00ab8a23          	sb	a0,20(s7)
    10b8:	080fc513          	xori	a0,t6,128
    10bc:	00ab8aa3          	sb	a0,21(s7)
    10c0:	0804c513          	xori	a0,s1,128
    10c4:	00ab8b23          	sb	a0,22(s7)
    10c8:	08094513          	xori	a0,s2,128
    10cc:	00ab8ba3          	sb	a0,23(s7)
    10d0:	0809c513          	xori	a0,s3,128
    10d4:	00ab8c23          	sb	a0,24(s7)
    10d8:	080a4513          	xori	a0,s4,128
    10dc:	00ab8ca3          	sb	a0,25(s7)
    10e0:	080ac513          	xori	a0,s5,128
    10e4:	00ab8d23          	sb	a0,26(s7)
    10e8:	08074513          	xori	a0,a4,128
    10ec:	00ab8da3          	sb	a0,27(s7)
    10f0:	080ec513          	xori	a0,t4,128
    10f4:	00ab8e23          	sb	a0,28(s7)
    10f8:	080c4513          	xori	a0,s8,128
    10fc:	00ab8ea3          	sb	a0,29(s7)
    1100:	080b4513          	xori	a0,s6,128
    1104:	00ab8f23          	sb	a0,30(s7)
    1108:	080d4513          	xori	a0,s10,128
    110c:	00ab8fa3          	sb	a0,31(s7)
    1110:	02028593          	addi	a1,t0,32
    1114:	00001537          	lui	a0,0x1
    1118:	40a40533          	sub	a0,s0,a0
    111c:	65053603          	ld	a2,1616(a0) # 1650 <.LBB35_4+0x520>
    1120:	02060613          	addi	a2,a2,32
    1124:	0a000513          	li	a0,160
    1128:	00a2e463          	bltu	t0,a0,1130 <.LBB35_4>
    112c:	fe1fe06f          	j	10c <.LBB35_1>

0000000000001130 <.LBB35_4>:
    1130:	00001537          	lui	a0,0x1
    1134:	40a40533          	sub	a0,s0,a0
    1138:	64b53c23          	sd	a1,1624(a0) # 1658 <.LBB35_4+0x528>
    113c:	00001537          	lui	a0,0x1
    1140:	40a40533          	sub	a0,s0,a0
    1144:	d9853803          	ld	a6,-616(a0) # d98 <.LBB35_3+0xb9c>
    1148:	00001537          	lui	a0,0x1
    114c:	40a40533          	sub	a0,s0,a0
    1150:	df053e83          	ld	t4,-528(a0) # df0 <.LBB35_3+0xbf4>
    1154:	00001537          	lui	a0,0x1
    1158:	40a40533          	sub	a0,s0,a0
    115c:	64c53823          	sd	a2,1616(a0) # 1650 <.LBB35_4+0x520>
    1160:	00060f13          	mv	t5,a2
    1164:	00001537          	lui	a0,0x1
    1168:	40a40533          	sub	a0,s0,a0
    116c:	6c053423          	sd	zero,1736(a0) # 16c8 <.LBB35_4+0x598>
    1170:	00001537          	lui	a0,0x1
    1174:	40a40533          	sub	a0,s0,a0
    1178:	6c053023          	sd	zero,1728(a0) # 16c0 <.LBB35_4+0x590>
    117c:	00001537          	lui	a0,0x1
    1180:	40a40533          	sub	a0,s0,a0
    1184:	6a053c23          	sd	zero,1720(a0) # 16b8 <.LBB35_4+0x588>
    1188:	00001537          	lui	a0,0x1
    118c:	40a40533          	sub	a0,s0,a0
    1190:	6a053823          	sd	zero,1712(a0) # 16b0 <.LBB35_4+0x580>
    1194:	00001537          	lui	a0,0x1
    1198:	40a40533          	sub	a0,s0,a0
    119c:	6c053823          	sd	zero,1744(a0) # 16d0 <.LBB35_4+0x5a0>
    11a0:	00001537          	lui	a0,0x1
    11a4:	40a40533          	sub	a0,s0,a0
    11a8:	6a053423          	sd	zero,1704(a0) # 16a8 <.LBB35_4+0x578>
    11ac:	00001537          	lui	a0,0x1
    11b0:	40a40533          	sub	a0,s0,a0
    11b4:	6a053023          	sd	zero,1696(a0) # 16a0 <.LBB35_4+0x570>
    11b8:	00001537          	lui	a0,0x1
    11bc:	40a40533          	sub	a0,s0,a0
    11c0:	68053c23          	sd	zero,1688(a0) # 1698 <.LBB35_4+0x568>
    11c4:	00001537          	lui	a0,0x1
    11c8:	40a40533          	sub	a0,s0,a0
    11cc:	68053823          	sd	zero,1680(a0) # 1690 <.LBB35_4+0x560>
    11d0:	00001537          	lui	a0,0x1
    11d4:	40a40533          	sub	a0,s0,a0
    11d8:	6c053c23          	sd	zero,1752(a0) # 16d8 <.LBB35_5+0x4>
    11dc:	00001537          	lui	a0,0x1
    11e0:	40a40533          	sub	a0,s0,a0
    11e4:	6e053023          	sd	zero,1760(a0) # 16e0 <.LBB35_5+0xc>
    11e8:	00001537          	lui	a0,0x1
    11ec:	40a40533          	sub	a0,s0,a0
    11f0:	6e053423          	sd	zero,1768(a0) # 16e8 <.LBB35_5+0x14>
    11f4:	00001537          	lui	a0,0x1
    11f8:	40a40533          	sub	a0,s0,a0
    11fc:	6e053823          	sd	zero,1776(a0) # 16f0 <.LBB35_5+0x1c>
    1200:	00001537          	lui	a0,0x1
    1204:	40a40533          	sub	a0,s0,a0
    1208:	6e053c23          	sd	zero,1784(a0) # 16f8 <.LBB35_5+0x24>
    120c:	00001537          	lui	a0,0x1
    1210:	40a40533          	sub	a0,s0,a0
    1214:	70053023          	sd	zero,1792(a0) # 1700 <.LBB35_5+0x2c>
    1218:	00001537          	lui	a0,0x1
    121c:	40a40533          	sub	a0,s0,a0
    1220:	70053423          	sd	zero,1800(a0) # 1708 <.LBB35_5+0x34>
    1224:	00001537          	lui	a0,0x1
    1228:	40a40533          	sub	a0,s0,a0
    122c:	70053823          	sd	zero,1808(a0) # 1710 <.LBB35_5+0x3c>
    1230:	00001537          	lui	a0,0x1
    1234:	40a40533          	sub	a0,s0,a0
    1238:	70053c23          	sd	zero,1816(a0) # 1718 <.LBB35_5+0x44>
    123c:	00001537          	lui	a0,0x1
    1240:	40a40533          	sub	a0,s0,a0
    1244:	72053023          	sd	zero,1824(a0) # 1720 <.LBB35_5+0x4c>
    1248:	00001537          	lui	a0,0x1
    124c:	40a40533          	sub	a0,s0,a0
    1250:	72053423          	sd	zero,1832(a0) # 1728 <.LBB35_5+0x54>
    1254:	00001537          	lui	a0,0x1
    1258:	40a40533          	sub	a0,s0,a0
    125c:	72053823          	sd	zero,1840(a0) # 1730 <.LBB35_5+0x5c>
    1260:	00001537          	lui	a0,0x1
    1264:	40a40533          	sub	a0,s0,a0
    1268:	72053c23          	sd	zero,1848(a0) # 1738 <.LBB35_5+0x64>
    126c:	00001537          	lui	a0,0x1
    1270:	40a40533          	sub	a0,s0,a0
    1274:	74053023          	sd	zero,1856(a0) # 1740 <.LBB35_5+0x6c>
    1278:	00001537          	lui	a0,0x1
    127c:	40a40533          	sub	a0,s0,a0
    1280:	74053423          	sd	zero,1864(a0) # 1748 <.LBB35_5+0x74>
    1284:	00001537          	lui	a0,0x1
    1288:	40a40533          	sub	a0,s0,a0
    128c:	74053823          	sd	zero,1872(a0) # 1750 <.LBB35_5+0x7c>
    1290:	00001537          	lui	a0,0x1
    1294:	40a40533          	sub	a0,s0,a0
    1298:	74053c23          	sd	zero,1880(a0) # 1758 <.LBB35_5+0x84>
    129c:	00001537          	lui	a0,0x1
    12a0:	40a40533          	sub	a0,s0,a0
    12a4:	76053023          	sd	zero,1888(a0) # 1760 <.LBB35_5+0x8c>
    12a8:	00001537          	lui	a0,0x1
    12ac:	40a40533          	sub	a0,s0,a0
    12b0:	76053423          	sd	zero,1896(a0) # 1768 <.LBB35_5+0x94>
    12b4:	00001537          	lui	a0,0x1
    12b8:	40a40533          	sub	a0,s0,a0
    12bc:	76053823          	sd	zero,1904(a0) # 1770 <.LBB35_5+0x9c>
    12c0:	00001537          	lui	a0,0x1
    12c4:	40a40533          	sub	a0,s0,a0
    12c8:	76053c23          	sd	zero,1912(a0) # 1778 <.LBB35_5+0xa4>
    12cc:	00001537          	lui	a0,0x1
    12d0:	40a40533          	sub	a0,s0,a0
    12d4:	78053023          	sd	zero,1920(a0) # 1780 <.LBB35_5+0xac>
    12d8:	00001537          	lui	a0,0x1
    12dc:	40a40533          	sub	a0,s0,a0
    12e0:	78053423          	sd	zero,1928(a0) # 1788 <.LBB35_5+0xb4>
    12e4:	00001537          	lui	a0,0x1
    12e8:	40a40533          	sub	a0,s0,a0
    12ec:	7a053823          	sd	zero,1968(a0) # 17b0 <.LBB35_5+0xdc>
    12f0:	00001537          	lui	a0,0x1
    12f4:	40a40533          	sub	a0,s0,a0
    12f8:	7a053423          	sd	zero,1960(a0) # 17a8 <.LBB35_5+0xd4>
    12fc:	00001537          	lui	a0,0x1
    1300:	40a40533          	sub	a0,s0,a0
    1304:	7a053023          	sd	zero,1952(a0) # 17a0 <.LBB35_5+0xcc>
    1308:	00001537          	lui	a0,0x1
    130c:	40a40533          	sub	a0,s0,a0
    1310:	78053c23          	sd	zero,1944(a0) # 1798 <.LBB35_5+0xc4>
    1314:	00001537          	lui	a0,0x1
    1318:	40a40533          	sub	a0,s0,a0
    131c:	78053823          	sd	zero,1936(a0) # 1790 <.LBB35_5+0xbc>
    1320:	00001537          	lui	a0,0x1
    1324:	40a40533          	sub	a0,s0,a0
    1328:	7a053c23          	sd	zero,1976(a0) # 17b8 <.LBB35_5+0xe4>
    132c:	00001537          	lui	a0,0x1
    1330:	40a40533          	sub	a0,s0,a0
    1334:	7c053023          	sd	zero,1984(a0) # 17c0 <.LBB35_5+0xec>
    1338:	00001537          	lui	a0,0x1
    133c:	40a40533          	sub	a0,s0,a0
    1340:	7c053423          	sd	zero,1992(a0) # 17c8 <.LBB35_5+0xf4>
    1344:	00001537          	lui	a0,0x1
    1348:	40a40533          	sub	a0,s0,a0
    134c:	7c053823          	sd	zero,2000(a0) # 17d0 <.LBB35_5+0xfc>
    1350:	00001537          	lui	a0,0x1
    1354:	40a40533          	sub	a0,s0,a0
    1358:	7c053c23          	sd	zero,2008(a0) # 17d8 <.LBB35_5+0x104>
    135c:	00001537          	lui	a0,0x1
    1360:	40a40533          	sub	a0,s0,a0
    1364:	7e053023          	sd	zero,2016(a0) # 17e0 <.LBB35_5+0x10c>
    1368:	00001537          	lui	a0,0x1
    136c:	40a40533          	sub	a0,s0,a0
    1370:	7e053423          	sd	zero,2024(a0) # 17e8 <.LBB35_5+0x114>
    1374:	00001537          	lui	a0,0x1
    1378:	40a40533          	sub	a0,s0,a0
    137c:	7e053823          	sd	zero,2032(a0) # 17f0 <.LBB35_5+0x11c>
    1380:	00001537          	lui	a0,0x1
    1384:	40a40533          	sub	a0,s0,a0
    1388:	7e053c23          	sd	zero,2040(a0) # 17f8 <.LBB35_5+0x124>
    138c:	80043023          	sd	zero,-2048(s0)
    1390:	80043423          	sd	zero,-2040(s0)
    1394:	80043823          	sd	zero,-2032(s0)
    1398:	80043c23          	sd	zero,-2024(s0)
    139c:	82043023          	sd	zero,-2016(s0)
    13a0:	82043423          	sd	zero,-2008(s0)
    13a4:	82043823          	sd	zero,-2000(s0)
    13a8:	82043c23          	sd	zero,-1992(s0)
    13ac:	84043023          	sd	zero,-1984(s0)
    13b0:	84043423          	sd	zero,-1976(s0)
    13b4:	84043823          	sd	zero,-1968(s0)
    13b8:	84043c23          	sd	zero,-1960(s0)
    13bc:	86043023          	sd	zero,-1952(s0)
    13c0:	86043423          	sd	zero,-1944(s0)
    13c4:	86043823          	sd	zero,-1936(s0)
    13c8:	86043c23          	sd	zero,-1928(s0)
    13cc:	88043023          	sd	zero,-1920(s0)
    13d0:	88043423          	sd	zero,-1912(s0)
    13d4:	8a043823          	sd	zero,-1872(s0)
    13d8:	8a043423          	sd	zero,-1880(s0)
    13dc:	8a043023          	sd	zero,-1888(s0)
    13e0:	88043c23          	sd	zero,-1896(s0)
    13e4:	88043823          	sd	zero,-1904(s0)
    13e8:	8a043c23          	sd	zero,-1864(s0)
    13ec:	8c043023          	sd	zero,-1856(s0)
    13f0:	8c043423          	sd	zero,-1848(s0)
    13f4:	8c043823          	sd	zero,-1840(s0)
    13f8:	8c043c23          	sd	zero,-1832(s0)
    13fc:	8e043023          	sd	zero,-1824(s0)
    1400:	8e043423          	sd	zero,-1816(s0)
    1404:	8e043823          	sd	zero,-1808(s0)
    1408:	8e043c23          	sd	zero,-1800(s0)
    140c:	90043023          	sd	zero,-1792(s0)
    1410:	90043423          	sd	zero,-1784(s0)
    1414:	90043823          	sd	zero,-1776(s0)
    1418:	90043c23          	sd	zero,-1768(s0)
    141c:	92043023          	sd	zero,-1760(s0)
    1420:	92043423          	sd	zero,-1752(s0)
    1424:	92043823          	sd	zero,-1744(s0)
    1428:	92043c23          	sd	zero,-1736(s0)
    142c:	94043023          	sd	zero,-1728(s0)
    1430:	94043423          	sd	zero,-1720(s0)
    1434:	94043823          	sd	zero,-1712(s0)
    1438:	94043c23          	sd	zero,-1704(s0)
    143c:	96043023          	sd	zero,-1696(s0)
    1440:	96043423          	sd	zero,-1688(s0)
    1444:	96043823          	sd	zero,-1680(s0)
    1448:	96043c23          	sd	zero,-1672(s0)
    144c:	98043023          	sd	zero,-1664(s0)
    1450:	98043423          	sd	zero,-1656(s0)
    1454:	9a043823          	sd	zero,-1616(s0)
    1458:	9a043423          	sd	zero,-1624(s0)
    145c:	9a043023          	sd	zero,-1632(s0)
    1460:	98043c23          	sd	zero,-1640(s0)
    1464:	98043823          	sd	zero,-1648(s0)
    1468:	9a043c23          	sd	zero,-1608(s0)
    146c:	9c043023          	sd	zero,-1600(s0)
    1470:	9c043423          	sd	zero,-1592(s0)
    1474:	9c043823          	sd	zero,-1584(s0)
    1478:	9c043c23          	sd	zero,-1576(s0)
    147c:	9e043023          	sd	zero,-1568(s0)
    1480:	9e043423          	sd	zero,-1560(s0)
    1484:	9e043823          	sd	zero,-1552(s0)
    1488:	9e043c23          	sd	zero,-1544(s0)
    148c:	a0043023          	sd	zero,-1536(s0)
    1490:	a0043423          	sd	zero,-1528(s0)
    1494:	a0043823          	sd	zero,-1520(s0)
    1498:	a0043c23          	sd	zero,-1512(s0)
    149c:	a2043023          	sd	zero,-1504(s0)
    14a0:	a2043423          	sd	zero,-1496(s0)
    14a4:	a2043823          	sd	zero,-1488(s0)
    14a8:	a2043c23          	sd	zero,-1480(s0)
    14ac:	a4043023          	sd	zero,-1472(s0)
    14b0:	a4043423          	sd	zero,-1464(s0)
    14b4:	a4043823          	sd	zero,-1456(s0)
    14b8:	a4043c23          	sd	zero,-1448(s0)
    14bc:	a6043023          	sd	zero,-1440(s0)
    14c0:	a6043423          	sd	zero,-1432(s0)
    14c4:	a6043823          	sd	zero,-1424(s0)
    14c8:	a6043c23          	sd	zero,-1416(s0)
    14cc:	a8043023          	sd	zero,-1408(s0)
    14d0:	a8043423          	sd	zero,-1400(s0)
    14d4:	aa043823          	sd	zero,-1360(s0)
    14d8:	aa043423          	sd	zero,-1368(s0)
    14dc:	aa043023          	sd	zero,-1376(s0)
    14e0:	a8043c23          	sd	zero,-1384(s0)
    14e4:	a8043823          	sd	zero,-1392(s0)
    14e8:	aa043c23          	sd	zero,-1352(s0)
    14ec:	ac043023          	sd	zero,-1344(s0)
    14f0:	ac043423          	sd	zero,-1336(s0)
    14f4:	ac043823          	sd	zero,-1328(s0)
    14f8:	ac043c23          	sd	zero,-1320(s0)
    14fc:	ae043023          	sd	zero,-1312(s0)
    1500:	ae043423          	sd	zero,-1304(s0)
    1504:	ae043823          	sd	zero,-1296(s0)
    1508:	ae043c23          	sd	zero,-1288(s0)
    150c:	b0043023          	sd	zero,-1280(s0)
    1510:	b0043423          	sd	zero,-1272(s0)
    1514:	b0043823          	sd	zero,-1264(s0)
    1518:	b0043c23          	sd	zero,-1256(s0)
    151c:	b2043023          	sd	zero,-1248(s0)
    1520:	b2043423          	sd	zero,-1240(s0)
    1524:	b2043823          	sd	zero,-1232(s0)
    1528:	b2043c23          	sd	zero,-1224(s0)
    152c:	b4043023          	sd	zero,-1216(s0)
    1530:	b4043423          	sd	zero,-1208(s0)
    1534:	b4043823          	sd	zero,-1200(s0)
    1538:	b4043c23          	sd	zero,-1192(s0)
    153c:	b6043023          	sd	zero,-1184(s0)
    1540:	b6043423          	sd	zero,-1176(s0)
    1544:	b6043823          	sd	zero,-1168(s0)
    1548:	b6043c23          	sd	zero,-1160(s0)
    154c:	b8043023          	sd	zero,-1152(s0)
    1550:	b8043423          	sd	zero,-1144(s0)
    1554:	ba043823          	sd	zero,-1104(s0)
    1558:	ba043423          	sd	zero,-1112(s0)
    155c:	ba043023          	sd	zero,-1120(s0)
    1560:	b8043c23          	sd	zero,-1128(s0)
    1564:	b8043823          	sd	zero,-1136(s0)
    1568:	ba043c23          	sd	zero,-1096(s0)
    156c:	bc043023          	sd	zero,-1088(s0)
    1570:	bc043423          	sd	zero,-1080(s0)
    1574:	bc043823          	sd	zero,-1072(s0)
    1578:	bc043c23          	sd	zero,-1064(s0)
    157c:	be043023          	sd	zero,-1056(s0)
    1580:	be043423          	sd	zero,-1048(s0)
    1584:	be043823          	sd	zero,-1040(s0)
    1588:	be043c23          	sd	zero,-1032(s0)
    158c:	c0043023          	sd	zero,-1024(s0)
    1590:	c0043423          	sd	zero,-1016(s0)
    1594:	c0043823          	sd	zero,-1008(s0)
    1598:	c0043c23          	sd	zero,-1000(s0)
    159c:	c2043023          	sd	zero,-992(s0)
    15a0:	c2043423          	sd	zero,-984(s0)
    15a4:	c2043823          	sd	zero,-976(s0)
    15a8:	c2043c23          	sd	zero,-968(s0)
    15ac:	c4043023          	sd	zero,-960(s0)
    15b0:	c4043423          	sd	zero,-952(s0)
    15b4:	c4043823          	sd	zero,-944(s0)
    15b8:	c4043c23          	sd	zero,-936(s0)
    15bc:	c6043023          	sd	zero,-928(s0)
    15c0:	c6043423          	sd	zero,-920(s0)
    15c4:	c6043823          	sd	zero,-912(s0)
    15c8:	c6043c23          	sd	zero,-904(s0)
    15cc:	c8043023          	sd	zero,-896(s0)
    15d0:	c8043423          	sd	zero,-888(s0)
    15d4:	ca043823          	sd	zero,-848(s0)
    15d8:	ca043423          	sd	zero,-856(s0)
    15dc:	ca043023          	sd	zero,-864(s0)
    15e0:	c8043c23          	sd	zero,-872(s0)
    15e4:	c8043823          	sd	zero,-880(s0)
    15e8:	ca043c23          	sd	zero,-840(s0)
    15ec:	cc043023          	sd	zero,-832(s0)
    15f0:	cc043423          	sd	zero,-824(s0)
    15f4:	cc043823          	sd	zero,-816(s0)
    15f8:	cc043c23          	sd	zero,-808(s0)
    15fc:	ce043023          	sd	zero,-800(s0)
    1600:	ce043423          	sd	zero,-792(s0)
    1604:	ce043823          	sd	zero,-784(s0)
    1608:	ce043c23          	sd	zero,-776(s0)
    160c:	d0043023          	sd	zero,-768(s0)
    1610:	d0043423          	sd	zero,-760(s0)
    1614:	d0043823          	sd	zero,-752(s0)
    1618:	d0043c23          	sd	zero,-744(s0)
    161c:	d2043023          	sd	zero,-736(s0)
    1620:	d2043423          	sd	zero,-728(s0)
    1624:	d2043823          	sd	zero,-720(s0)
    1628:	d2043c23          	sd	zero,-712(s0)
    162c:	d4043023          	sd	zero,-704(s0)
    1630:	d4043423          	sd	zero,-696(s0)
    1634:	d4043823          	sd	zero,-688(s0)
    1638:	d4043c23          	sd	zero,-680(s0)
    163c:	d6043023          	sd	zero,-672(s0)
    1640:	d6043423          	sd	zero,-664(s0)
    1644:	d6043823          	sd	zero,-656(s0)
    1648:	d6043c23          	sd	zero,-648(s0)
    164c:	d8043023          	sd	zero,-640(s0)
    1650:	d8043423          	sd	zero,-632(s0)
    1654:	da043823          	sd	zero,-592(s0)
    1658:	da043423          	sd	zero,-600(s0)
    165c:	da043023          	sd	zero,-608(s0)
    1660:	d8043c23          	sd	zero,-616(s0)
    1664:	d8043823          	sd	zero,-624(s0)
    1668:	00000093          	li	ra,0
    166c:	da043c23          	sd	zero,-584(s0)
    1670:	00000d93          	li	s11,0
    1674:	00000d13          	li	s10,0
    1678:	00000c93          	li	s9,0
    167c:	00000c13          	li	s8,0
    1680:	00000b93          	li	s7,0
    1684:	00000b13          	li	s6,0
    1688:	00000a93          	li	s5,0
    168c:	00000993          	li	s3,0
    1690:	00000913          	li	s2,0
    1694:	00000a13          	li	s4,0
    1698:	dc043423          	sd	zero,-568(s0)
    169c:	dc043823          	sd	zero,-560(s0)
    16a0:	dc043c23          	sd	zero,-552(s0)
    16a4:	00000e13          	li	t3,0
    16a8:	00000393          	li	t2,0
    16ac:	00000613          	li	a2,0
    16b0:	00000593          	li	a1,0
    16b4:	00000513          	li	a0,0
    16b8:	00000313          	li	t1,0
    16bc:	00000293          	li	t0,0
    16c0:	00000893          	li	a7,0
    16c4:	de043c23          	sd	zero,-520(s0)
    16c8:	00000793          	li	a5,0
    16cc:	00000713          	li	a4,0
    16d0:	00000693          	li	a3,0

00000000000016d4 <.LBB35_5>:
    16d4:	dd443023          	sd	s4,-576(s0)
    16d8:	f9e43423          	sd	t5,-120(s0)
    16dc:	f9d43023          	sd	t4,-128(s0)
    16e0:	00001fb7          	lui	t6,0x1
    16e4:	41f40fb3          	sub	t6,s0,t6
    16e8:	690fb423          	sd	a6,1672(t6) # 1688 <.LBB35_4+0x558>
    16ec:	ea143023          	sd	ra,-352(s0)
    16f0:	ebb43423          	sd	s11,-344(s0)
    16f4:	eba43823          	sd	s10,-336(s0)
    16f8:	eb943c23          	sd	s9,-328(s0)
    16fc:	ed843023          	sd	s8,-320(s0)
    1700:	ed743423          	sd	s7,-312(s0)
    1704:	ed643823          	sd	s6,-304(s0)
    1708:	ed543c23          	sd	s5,-296(s0)
    170c:	ef343023          	sd	s3,-288(s0)
    1710:	ef243423          	sd	s2,-280(s0)
    1714:	efc43823          	sd	t3,-272(s0)
    1718:	ee743c23          	sd	t2,-264(s0)
    171c:	f0c43023          	sd	a2,-256(s0)
    1720:	f0b43423          	sd	a1,-248(s0)
    1724:	f0a43823          	sd	a0,-240(s0)
    1728:	de643023          	sd	t1,-544(s0)
    172c:	de543423          	sd	t0,-536(s0)
    1730:	df143823          	sd	a7,-528(s0)
    1734:	e0f43023          	sd	a5,-512(s0)
    1738:	e0e43423          	sd	a4,-504(s0)
    173c:	e0d43823          	sd	a3,-496(s0)
    1740:	f20e8503          	lb	a0,-224(t4)
    1744:	002f0603          	lb	a2,2(t5)
    1748:	f6c43423          	sd	a2,-152(s0)
    174c:	001f0683          	lb	a3,1(t5)
    1750:	f6d43823          	sd	a3,-144(s0)
    1754:	000f0703          	lb	a4,0(t5)
    1758:	003f0783          	lb	a5,3(t5)
    175c:	f6f43c23          	sd	a5,-136(s0)
    1760:	004f0803          	lb	a6,4(t5)
    1764:	f1043c23          	sd	a6,-232(s0)
    1768:	005f0903          	lb	s2,5(t5)
    176c:	006f0983          	lb	s3,6(t5)
    1770:	007f0d83          	lb	s11,7(t5)
    1774:	008f0b83          	lb	s7,8(t5)
    1778:	e9743823          	sd	s7,-368(s0)
    177c:	009f0083          	lb	ra,9(t5)
    1780:	000015b7          	lui	a1,0x1
    1784:	40b405b3          	sub	a1,s0,a1
    1788:	6815b023          	sd	ra,1664(a1) # 1680 <.LBB35_4+0x550>
    178c:	00af0883          	lb	a7,10(t5)
    1790:	00bf0283          	lb	t0,11(t5)
    1794:	f4543023          	sd	t0,-192(s0)
    1798:	00cf0303          	lb	t1,12(t5)
    179c:	f2643823          	sd	t1,-208(s0)
    17a0:	00df0383          	lb	t2,13(t5)
    17a4:	f2743c23          	sd	t2,-200(s0)
    17a8:	00ef0e03          	lb	t3,14(t5)
    17ac:	f5c43823          	sd	t3,-176(s0)
    17b0:	00ff0e83          	lb	t4,15(t5)
    17b4:	f7d43023          	sd	t4,-160(s0)
    17b8:	010f0483          	lb	s1,16(t5)
    17bc:	011f0f83          	lb	t6,17(t5)
    17c0:	f3f43423          	sd	t6,-216(s0)
    17c4:	012f0a03          	lb	s4,18(t5)
    17c8:	013f0b03          	lb	s6,19(t5)
    17cc:	014f0d03          	lb	s10,20(t5)
    17d0:	f5a43c23          	sd	s10,-168(s0)
    17d4:	015f0f03          	lb	t5,21(t5)
    17d8:	e5e43823          	sd	t5,-432(s0)
    17dc:	f8843583          	ld	a1,-120(s0)
    17e0:	01658c83          	lb	s9,22(a1)
    17e4:	e5943c23          	sd	s9,-424(s0)
    17e8:	f8843583          	ld	a1,-120(s0)
    17ec:	01758c03          	lb	s8,23(a1)
    17f0:	f3843023          	sd	s8,-224(s0)
    17f4:	f8843583          	ld	a1,-120(s0)
    17f8:	01858a83          	lb	s5,24(a1)
    17fc:	e9543023          	sd	s5,-384(s0)
    1800:	02c505b3          	mul	a1,a0,a2
    1804:	00001637          	lui	a2,0x1
    1808:	40c40633          	sub	a2,s0,a2
    180c:	6b863603          	ld	a2,1720(a2) # 16b8 <.LBB35_4+0x588>
    1810:	00c58633          	add	a2,a1,a2
    1814:	000015b7          	lui	a1,0x1
    1818:	40b405b3          	sub	a1,s0,a1
    181c:	6ac5bc23          	sd	a2,1720(a1) # 16b8 <.LBB35_4+0x588>
    1820:	02d505b3          	mul	a1,a0,a3
    1824:	00001637          	lui	a2,0x1
    1828:	40c40633          	sub	a2,s0,a2
    182c:	6c063603          	ld	a2,1728(a2) # 16c0 <.LBB35_4+0x590>
    1830:	00c58633          	add	a2,a1,a2
    1834:	000015b7          	lui	a1,0x1
    1838:	40b405b3          	sub	a1,s0,a1
    183c:	6cc5b023          	sd	a2,1728(a1) # 16c0 <.LBB35_4+0x590>
    1840:	02e505b3          	mul	a1,a0,a4
    1844:	00001637          	lui	a2,0x1
    1848:	40c40633          	sub	a2,s0,a2
    184c:	6c863603          	ld	a2,1736(a2) # 16c8 <.LBB35_4+0x598>
    1850:	00c58633          	add	a2,a1,a2
    1854:	000015b7          	lui	a1,0x1
    1858:	40b405b3          	sub	a1,s0,a1
    185c:	6cc5b423          	sd	a2,1736(a1) # 16c8 <.LBB35_4+0x598>
    1860:	02f505b3          	mul	a1,a0,a5
    1864:	00001637          	lui	a2,0x1
    1868:	40c40633          	sub	a2,s0,a2
    186c:	6b063603          	ld	a2,1712(a2) # 16b0 <.LBB35_4+0x580>
    1870:	00c58633          	add	a2,a1,a2
    1874:	000015b7          	lui	a1,0x1
    1878:	40b405b3          	sub	a1,s0,a1
    187c:	6ac5b823          	sd	a2,1712(a1) # 16b0 <.LBB35_4+0x580>
    1880:	030505b3          	mul	a1,a0,a6
    1884:	00001637          	lui	a2,0x1
    1888:	40c40633          	sub	a2,s0,a2
    188c:	6d063603          	ld	a2,1744(a2) # 16d0 <.LBB35_4+0x5a0>
    1890:	00c58633          	add	a2,a1,a2
    1894:	000015b7          	lui	a1,0x1
    1898:	40b405b3          	sub	a1,s0,a1
    189c:	6cc5b823          	sd	a2,1744(a1) # 16d0 <.LBB35_4+0x5a0>
    18a0:	032505b3          	mul	a1,a0,s2
    18a4:	00001637          	lui	a2,0x1
    18a8:	40c40633          	sub	a2,s0,a2
    18ac:	6a863603          	ld	a2,1704(a2) # 16a8 <.LBB35_4+0x578>
    18b0:	00c58633          	add	a2,a1,a2
    18b4:	000015b7          	lui	a1,0x1
    18b8:	40b405b3          	sub	a1,s0,a1
    18bc:	6ac5b423          	sd	a2,1704(a1) # 16a8 <.LBB35_4+0x578>
    18c0:	033505b3          	mul	a1,a0,s3
    18c4:	00098793          	mv	a5,s3
    18c8:	00001637          	lui	a2,0x1
    18cc:	40c40633          	sub	a2,s0,a2
    18d0:	6a063603          	ld	a2,1696(a2) # 16a0 <.LBB35_4+0x570>
    18d4:	00c58633          	add	a2,a1,a2
    18d8:	000015b7          	lui	a1,0x1
    18dc:	40b405b3          	sub	a1,s0,a1
    18e0:	6ac5b023          	sd	a2,1696(a1) # 16a0 <.LBB35_4+0x570>
    18e4:	03b505b3          	mul	a1,a0,s11
    18e8:	000d8813          	mv	a6,s11
    18ec:	00001637          	lui	a2,0x1
    18f0:	40c40633          	sub	a2,s0,a2
    18f4:	69863603          	ld	a2,1688(a2) # 1698 <.LBB35_4+0x568>
    18f8:	00c58633          	add	a2,a1,a2
    18fc:	000015b7          	lui	a1,0x1
    1900:	40b405b3          	sub	a1,s0,a1
    1904:	68c5bc23          	sd	a2,1688(a1) # 1698 <.LBB35_4+0x568>
    1908:	037505b3          	mul	a1,a0,s7
    190c:	00001637          	lui	a2,0x1
    1910:	40c40633          	sub	a2,s0,a2
    1914:	69063603          	ld	a2,1680(a2) # 1690 <.LBB35_4+0x560>
    1918:	00c58633          	add	a2,a1,a2
    191c:	000015b7          	lui	a1,0x1
    1920:	40b405b3          	sub	a1,s0,a1
    1924:	68c5b823          	sd	a2,1680(a1) # 1690 <.LBB35_4+0x560>
    1928:	021505b3          	mul	a1,a0,ra
    192c:	00001637          	lui	a2,0x1
    1930:	40c40633          	sub	a2,s0,a2
    1934:	6d863603          	ld	a2,1752(a2) # 16d8 <.LBB35_5+0x4>
    1938:	00c58633          	add	a2,a1,a2
    193c:	000015b7          	lui	a1,0x1
    1940:	40b405b3          	sub	a1,s0,a1
    1944:	6cc5bc23          	sd	a2,1752(a1) # 16d8 <.LBB35_5+0x4>
    1948:	031505b3          	mul	a1,a0,a7
    194c:	00088b93          	mv	s7,a7
    1950:	00001637          	lui	a2,0x1
    1954:	40c40633          	sub	a2,s0,a2
    1958:	67163c23          	sd	a7,1656(a2) # 1678 <.LBB35_4+0x548>
    195c:	00001637          	lui	a2,0x1
    1960:	40c40633          	sub	a2,s0,a2
    1964:	6e063603          	ld	a2,1760(a2) # 16e0 <.LBB35_5+0xc>
    1968:	00c58633          	add	a2,a1,a2
    196c:	000015b7          	lui	a1,0x1
    1970:	40b405b3          	sub	a1,s0,a1
    1974:	6ec5b023          	sd	a2,1760(a1) # 16e0 <.LBB35_5+0xc>
    1978:	025505b3          	mul	a1,a0,t0
    197c:	00001637          	lui	a2,0x1
    1980:	40c40633          	sub	a2,s0,a2
    1984:	6e863603          	ld	a2,1768(a2) # 16e8 <.LBB35_5+0x14>
    1988:	00c58633          	add	a2,a1,a2
    198c:	000015b7          	lui	a1,0x1
    1990:	40b405b3          	sub	a1,s0,a1
    1994:	6ec5b423          	sd	a2,1768(a1) # 16e8 <.LBB35_5+0x14>
    1998:	026505b3          	mul	a1,a0,t1
    199c:	00001637          	lui	a2,0x1
    19a0:	40c40633          	sub	a2,s0,a2
    19a4:	6f063603          	ld	a2,1776(a2) # 16f0 <.LBB35_5+0x1c>
    19a8:	00c58633          	add	a2,a1,a2
    19ac:	000015b7          	lui	a1,0x1
    19b0:	40b405b3          	sub	a1,s0,a1
    19b4:	6ec5b823          	sd	a2,1776(a1) # 16f0 <.LBB35_5+0x1c>
    19b8:	027505b3          	mul	a1,a0,t2
    19bc:	00001637          	lui	a2,0x1
    19c0:	40c40633          	sub	a2,s0,a2
    19c4:	6f863603          	ld	a2,1784(a2) # 16f8 <.LBB35_5+0x24>
    19c8:	00c58633          	add	a2,a1,a2
    19cc:	000015b7          	lui	a1,0x1
    19d0:	40b405b3          	sub	a1,s0,a1
    19d4:	6ec5bc23          	sd	a2,1784(a1) # 16f8 <.LBB35_5+0x24>
    19d8:	03c505b3          	mul	a1,a0,t3
    19dc:	00001637          	lui	a2,0x1
    19e0:	40c40633          	sub	a2,s0,a2
    19e4:	70063603          	ld	a2,1792(a2) # 1700 <.LBB35_5+0x2c>
    19e8:	00c58633          	add	a2,a1,a2
    19ec:	000015b7          	lui	a1,0x1
    19f0:	40b405b3          	sub	a1,s0,a1
    19f4:	70c5b023          	sd	a2,1792(a1) # 1700 <.LBB35_5+0x2c>
    19f8:	03d505b3          	mul	a1,a0,t4
    19fc:	00001637          	lui	a2,0x1
    1a00:	40c40633          	sub	a2,s0,a2
    1a04:	70863603          	ld	a2,1800(a2) # 1708 <.LBB35_5+0x34>
    1a08:	00c58633          	add	a2,a1,a2
    1a0c:	000015b7          	lui	a1,0x1
    1a10:	40b405b3          	sub	a1,s0,a1
    1a14:	70c5b423          	sd	a2,1800(a1) # 1708 <.LBB35_5+0x34>
    1a18:	029505b3          	mul	a1,a0,s1
    1a1c:	00048293          	mv	t0,s1
    1a20:	e8943423          	sd	s1,-376(s0)
    1a24:	00001637          	lui	a2,0x1
    1a28:	40c40633          	sub	a2,s0,a2
    1a2c:	71063603          	ld	a2,1808(a2) # 1710 <.LBB35_5+0x3c>
    1a30:	00c58633          	add	a2,a1,a2
    1a34:	000015b7          	lui	a1,0x1
    1a38:	40b405b3          	sub	a1,s0,a1
    1a3c:	70c5b823          	sd	a2,1808(a1) # 1710 <.LBB35_5+0x3c>
    1a40:	03f505b3          	mul	a1,a0,t6
    1a44:	00001637          	lui	a2,0x1
    1a48:	40c40633          	sub	a2,s0,a2
    1a4c:	71863603          	ld	a2,1816(a2) # 1718 <.LBB35_5+0x44>
    1a50:	00c58633          	add	a2,a1,a2
    1a54:	000015b7          	lui	a1,0x1
    1a58:	40b405b3          	sub	a1,s0,a1
    1a5c:	70c5bc23          	sd	a2,1816(a1) # 1718 <.LBB35_5+0x44>
    1a60:	034505b3          	mul	a1,a0,s4
    1a64:	000a0e93          	mv	t4,s4
    1a68:	e5443423          	sd	s4,-440(s0)
    1a6c:	00001637          	lui	a2,0x1
    1a70:	40c40633          	sub	a2,s0,a2
    1a74:	72063603          	ld	a2,1824(a2) # 1720 <.LBB35_5+0x4c>
    1a78:	00c58633          	add	a2,a1,a2
    1a7c:	000015b7          	lui	a1,0x1
    1a80:	40b405b3          	sub	a1,s0,a1
    1a84:	72c5b023          	sd	a2,1824(a1) # 1720 <.LBB35_5+0x4c>
    1a88:	000b0093          	mv	ra,s6
    1a8c:	e3643823          	sd	s6,-464(s0)
    1a90:	036505b3          	mul	a1,a0,s6
    1a94:	00001637          	lui	a2,0x1
    1a98:	40c40633          	sub	a2,s0,a2
    1a9c:	72863603          	ld	a2,1832(a2) # 1728 <.LBB35_5+0x54>
    1aa0:	00c58633          	add	a2,a1,a2
    1aa4:	000015b7          	lui	a1,0x1
    1aa8:	40b405b3          	sub	a1,s0,a1
    1aac:	72c5b423          	sd	a2,1832(a1) # 1728 <.LBB35_5+0x54>
    1ab0:	03a505b3          	mul	a1,a0,s10
    1ab4:	00001637          	lui	a2,0x1
    1ab8:	40c40633          	sub	a2,s0,a2
    1abc:	73063603          	ld	a2,1840(a2) # 1730 <.LBB35_5+0x5c>
    1ac0:	00c58633          	add	a2,a1,a2
    1ac4:	000015b7          	lui	a1,0x1
    1ac8:	40b405b3          	sub	a1,s0,a1
    1acc:	72c5b823          	sd	a2,1840(a1) # 1730 <.LBB35_5+0x5c>
    1ad0:	03e505b3          	mul	a1,a0,t5
    1ad4:	00001637          	lui	a2,0x1
    1ad8:	40c40633          	sub	a2,s0,a2
    1adc:	73863603          	ld	a2,1848(a2) # 1738 <.LBB35_5+0x64>
    1ae0:	00c58633          	add	a2,a1,a2
    1ae4:	000015b7          	lui	a1,0x1
    1ae8:	40b405b3          	sub	a1,s0,a1
    1aec:	72c5bc23          	sd	a2,1848(a1) # 1738 <.LBB35_5+0x64>
    1af0:	039505b3          	mul	a1,a0,s9
    1af4:	00001637          	lui	a2,0x1
    1af8:	40c40633          	sub	a2,s0,a2
    1afc:	74063603          	ld	a2,1856(a2) # 1740 <.LBB35_5+0x6c>
    1b00:	00c58633          	add	a2,a1,a2
    1b04:	000015b7          	lui	a1,0x1
    1b08:	40b405b3          	sub	a1,s0,a1
    1b0c:	74c5b023          	sd	a2,1856(a1) # 1740 <.LBB35_5+0x6c>
    1b10:	038505b3          	mul	a1,a0,s8
    1b14:	00001637          	lui	a2,0x1
    1b18:	40c40633          	sub	a2,s0,a2
    1b1c:	74863603          	ld	a2,1864(a2) # 1748 <.LBB35_5+0x74>
    1b20:	00c58633          	add	a2,a1,a2
    1b24:	000015b7          	lui	a1,0x1
    1b28:	40b405b3          	sub	a1,s0,a1
    1b2c:	74c5b423          	sd	a2,1864(a1) # 1748 <.LBB35_5+0x74>
    1b30:	f8843583          	ld	a1,-120(s0)
    1b34:	01958c83          	lb	s9,25(a1)
    1b38:	035505b3          	mul	a1,a0,s5
    1b3c:	00001637          	lui	a2,0x1
    1b40:	40c40633          	sub	a2,s0,a2
    1b44:	75063603          	ld	a2,1872(a2) # 1750 <.LBB35_5+0x7c>
    1b48:	00c58633          	add	a2,a1,a2
    1b4c:	000015b7          	lui	a1,0x1
    1b50:	40b405b3          	sub	a1,s0,a1
    1b54:	74c5b823          	sd	a2,1872(a1) # 1750 <.LBB35_5+0x7c>
    1b58:	f8843583          	ld	a1,-120(s0)
    1b5c:	01a58b03          	lb	s6,26(a1)
    1b60:	039505b3          	mul	a1,a0,s9
    1b64:	e3943423          	sd	s9,-472(s0)
    1b68:	00001637          	lui	a2,0x1
    1b6c:	40c40633          	sub	a2,s0,a2
    1b70:	75863603          	ld	a2,1880(a2) # 1758 <.LBB35_5+0x84>
    1b74:	00c58633          	add	a2,a1,a2
    1b78:	000015b7          	lui	a1,0x1
    1b7c:	40b405b3          	sub	a1,s0,a1
    1b80:	74c5bc23          	sd	a2,1880(a1) # 1758 <.LBB35_5+0x84>
    1b84:	f8843583          	ld	a1,-120(s0)
    1b88:	01b58383          	lb	t2,27(a1)
    1b8c:	036505b3          	mul	a1,a0,s6
    1b90:	e3643c23          	sd	s6,-456(s0)
    1b94:	00001637          	lui	a2,0x1
    1b98:	40c40633          	sub	a2,s0,a2
    1b9c:	76063603          	ld	a2,1888(a2) # 1760 <.LBB35_5+0x8c>
    1ba0:	00c58633          	add	a2,a1,a2
    1ba4:	000015b7          	lui	a1,0x1
    1ba8:	40b405b3          	sub	a1,s0,a1
    1bac:	76c5b023          	sd	a2,1888(a1) # 1760 <.LBB35_5+0x8c>
    1bb0:	f8843583          	ld	a1,-120(s0)
    1bb4:	01c58303          	lb	t1,28(a1)
    1bb8:	027505b3          	mul	a1,a0,t2
    1bbc:	e6743423          	sd	t2,-408(s0)
    1bc0:	00001637          	lui	a2,0x1
    1bc4:	40c40633          	sub	a2,s0,a2
    1bc8:	76863603          	ld	a2,1896(a2) # 1768 <.LBB35_5+0x94>
    1bcc:	00c58633          	add	a2,a1,a2
    1bd0:	000015b7          	lui	a1,0x1
    1bd4:	40b405b3          	sub	a1,s0,a1
    1bd8:	76c5b423          	sd	a2,1896(a1) # 1768 <.LBB35_5+0x94>
    1bdc:	f8843583          	ld	a1,-120(s0)
    1be0:	01d58f03          	lb	t5,29(a1)
    1be4:	026505b3          	mul	a1,a0,t1
    1be8:	e0643c23          	sd	t1,-488(s0)
    1bec:	00001637          	lui	a2,0x1
    1bf0:	40c40633          	sub	a2,s0,a2
    1bf4:	77063603          	ld	a2,1904(a2) # 1770 <.LBB35_5+0x9c>
    1bf8:	00c58633          	add	a2,a1,a2
    1bfc:	000015b7          	lui	a1,0x1
    1c00:	40b405b3          	sub	a1,s0,a1
    1c04:	76c5b823          	sd	a2,1904(a1) # 1770 <.LBB35_5+0x9c>
    1c08:	f8843583          	ld	a1,-120(s0)
    1c0c:	01e58683          	lb	a3,30(a1)
    1c10:	03e505b3          	mul	a1,a0,t5
    1c14:	000f0e13          	mv	t3,t5
    1c18:	e7e43823          	sd	t5,-400(s0)
    1c1c:	00001637          	lui	a2,0x1
    1c20:	40c40633          	sub	a2,s0,a2
    1c24:	77863603          	ld	a2,1912(a2) # 1778 <.LBB35_5+0xa4>
    1c28:	00c58633          	add	a2,a1,a2
    1c2c:	000015b7          	lui	a1,0x1
    1c30:	40b405b3          	sub	a1,s0,a1
    1c34:	76c5bc23          	sd	a2,1912(a1) # 1778 <.LBB35_5+0xa4>
    1c38:	f8843583          	ld	a1,-120(s0)
    1c3c:	01f58583          	lb	a1,31(a1)
    1c40:	f8043603          	ld	a2,-128(s0)
    1c44:	f4060983          	lb	s3,-192(a2)
    1c48:	02d50db3          	mul	s11,a0,a3
    1c4c:	00068f13          	mv	t5,a3
    1c50:	e6d43023          	sd	a3,-416(s0)
    1c54:	00001637          	lui	a2,0x1
    1c58:	40c40633          	sub	a2,s0,a2
    1c5c:	78063603          	ld	a2,1920(a2) # 1780 <.LBB35_5+0xac>
    1c60:	00cd8633          	add	a2,s11,a2
    1c64:	000016b7          	lui	a3,0x1
    1c68:	40d406b3          	sub	a3,s0,a3
    1c6c:	78c6b023          	sd	a2,1920(a3) # 1780 <.LBB35_5+0xac>
    1c70:	02b50533          	mul	a0,a0,a1
    1c74:	00058d13          	mv	s10,a1
    1c78:	000015b7          	lui	a1,0x1
    1c7c:	40b405b3          	sub	a1,s0,a1
    1c80:	7885b603          	ld	a2,1928(a1) # 1788 <.LBB35_5+0xb4>
    1c84:	00c50633          	add	a2,a0,a2
    1c88:	00001537          	lui	a0,0x1
    1c8c:	40a40533          	sub	a0,s0,a0
    1c90:	78c53423          	sd	a2,1928(a0) # 1788 <.LBB35_5+0xb4>
    1c94:	e6e43c23          	sd	a4,-392(s0)
    1c98:	02e98533          	mul	a0,s3,a4
    1c9c:	000015b7          	lui	a1,0x1
    1ca0:	40b405b3          	sub	a1,s0,a1
    1ca4:	7b05b603          	ld	a2,1968(a1) # 17b0 <.LBB35_5+0xdc>
    1ca8:	00c50633          	add	a2,a0,a2
    1cac:	00001537          	lui	a0,0x1
    1cb0:	40a40533          	sub	a0,s0,a0
    1cb4:	7ac53823          	sd	a2,1968(a0) # 17b0 <.LBB35_5+0xdc>
    1cb8:	f7043c03          	ld	s8,-144(s0)
    1cbc:	03898533          	mul	a0,s3,s8
    1cc0:	000015b7          	lui	a1,0x1
    1cc4:	40b405b3          	sub	a1,s0,a1
    1cc8:	7a85b603          	ld	a2,1960(a1) # 17a8 <.LBB35_5+0xd4>
    1ccc:	00c50633          	add	a2,a0,a2
    1cd0:	00001537          	lui	a0,0x1
    1cd4:	40a40533          	sub	a0,s0,a0
    1cd8:	7ac53423          	sd	a2,1960(a0) # 17a8 <.LBB35_5+0xd4>
    1cdc:	f6843883          	ld	a7,-152(s0)
    1ce0:	03198533          	mul	a0,s3,a7
    1ce4:	000015b7          	lui	a1,0x1
    1ce8:	40b405b3          	sub	a1,s0,a1
    1cec:	7a05b603          	ld	a2,1952(a1) # 17a0 <.LBB35_5+0xcc>
    1cf0:	00c50633          	add	a2,a0,a2
    1cf4:	00001537          	lui	a0,0x1
    1cf8:	40a40533          	sub	a0,s0,a0
    1cfc:	7ac53023          	sd	a2,1952(a0) # 17a0 <.LBB35_5+0xcc>
    1d00:	f7843483          	ld	s1,-136(s0)
    1d04:	02998533          	mul	a0,s3,s1
    1d08:	000015b7          	lui	a1,0x1
    1d0c:	40b405b3          	sub	a1,s0,a1
    1d10:	7985b603          	ld	a2,1944(a1) # 1798 <.LBB35_5+0xc4>
    1d14:	00c50633          	add	a2,a0,a2
    1d18:	00001537          	lui	a0,0x1
    1d1c:	40a40533          	sub	a0,s0,a0
    1d20:	78c53c23          	sd	a2,1944(a0) # 1798 <.LBB35_5+0xc4>
    1d24:	f1843683          	ld	a3,-232(s0)
    1d28:	02d98533          	mul	a0,s3,a3
    1d2c:	000015b7          	lui	a1,0x1
    1d30:	40b405b3          	sub	a1,s0,a1
    1d34:	7905b603          	ld	a2,1936(a1) # 1790 <.LBB35_5+0xbc>
    1d38:	00c50633          	add	a2,a0,a2
    1d3c:	00001537          	lui	a0,0x1
    1d40:	40a40533          	sub	a0,s0,a0
    1d44:	78c53823          	sd	a2,1936(a0) # 1790 <.LBB35_5+0xbc>
    1d48:	03298533          	mul	a0,s3,s2
    1d4c:	00090f93          	mv	t6,s2
    1d50:	e3243023          	sd	s2,-480(s0)
    1d54:	000015b7          	lui	a1,0x1
    1d58:	40b405b3          	sub	a1,s0,a1
    1d5c:	7b85b603          	ld	a2,1976(a1) # 17b8 <.LBB35_5+0xe4>
    1d60:	00c50633          	add	a2,a0,a2
    1d64:	00001537          	lui	a0,0x1
    1d68:	40a40533          	sub	a0,s0,a0
    1d6c:	7ac53c23          	sd	a2,1976(a0) # 17b8 <.LBB35_5+0xe4>
    1d70:	e8f43c23          	sd	a5,-360(s0)
    1d74:	02f98533          	mul	a0,s3,a5
    1d78:	000015b7          	lui	a1,0x1
    1d7c:	40b405b3          	sub	a1,s0,a1
    1d80:	7c05b603          	ld	a2,1984(a1) # 17c0 <.LBB35_5+0xec>
    1d84:	00c50633          	add	a2,a0,a2
    1d88:	00001537          	lui	a0,0x1
    1d8c:	40a40533          	sub	a0,s0,a0
    1d90:	7cc53023          	sd	a2,1984(a0) # 17c0 <.LBB35_5+0xec>
    1d94:	f5043423          	sd	a6,-184(s0)
    1d98:	03098533          	mul	a0,s3,a6
    1d9c:	000015b7          	lui	a1,0x1
    1da0:	40b405b3          	sub	a1,s0,a1
    1da4:	7c85b603          	ld	a2,1992(a1) # 17c8 <.LBB35_5+0xf4>
    1da8:	00c50633          	add	a2,a0,a2
    1dac:	00001537          	lui	a0,0x1
    1db0:	40a40533          	sub	a0,s0,a0
    1db4:	7cc53423          	sd	a2,1992(a0) # 17c8 <.LBB35_5+0xf4>
    1db8:	e9043503          	ld	a0,-368(s0)
    1dbc:	02a98533          	mul	a0,s3,a0
    1dc0:	000015b7          	lui	a1,0x1
    1dc4:	40b405b3          	sub	a1,s0,a1
    1dc8:	7d05b603          	ld	a2,2000(a1) # 17d0 <.LBB35_5+0xfc>
    1dcc:	00c50633          	add	a2,a0,a2
    1dd0:	00001537          	lui	a0,0x1
    1dd4:	40a40533          	sub	a0,s0,a0
    1dd8:	7cc53823          	sd	a2,2000(a0) # 17d0 <.LBB35_5+0xfc>
    1ddc:	00001537          	lui	a0,0x1
    1de0:	40a40533          	sub	a0,s0,a0
    1de4:	68053a03          	ld	s4,1664(a0) # 1680 <.LBB35_4+0x550>
    1de8:	03498533          	mul	a0,s3,s4
    1dec:	000015b7          	lui	a1,0x1
    1df0:	40b405b3          	sub	a1,s0,a1
    1df4:	7d85b603          	ld	a2,2008(a1) # 17d8 <.LBB35_5+0x104>
    1df8:	00c50633          	add	a2,a0,a2
    1dfc:	00001537          	lui	a0,0x1
    1e00:	40a40533          	sub	a0,s0,a0
    1e04:	7cc53c23          	sd	a2,2008(a0) # 17d8 <.LBB35_5+0x104>
    1e08:	03798533          	mul	a0,s3,s7
    1e0c:	000015b7          	lui	a1,0x1
    1e10:	40b405b3          	sub	a1,s0,a1
    1e14:	7e05b603          	ld	a2,2016(a1) # 17e0 <.LBB35_5+0x10c>
    1e18:	00c50633          	add	a2,a0,a2
    1e1c:	00001537          	lui	a0,0x1
    1e20:	40a40533          	sub	a0,s0,a0
    1e24:	7ec53023          	sd	a2,2016(a0) # 17e0 <.LBB35_5+0x10c>
    1e28:	f4043b83          	ld	s7,-192(s0)
    1e2c:	03798533          	mul	a0,s3,s7
    1e30:	000015b7          	lui	a1,0x1
    1e34:	40b405b3          	sub	a1,s0,a1
    1e38:	7e85b603          	ld	a2,2024(a1) # 17e8 <.LBB35_5+0x114>
    1e3c:	00c50633          	add	a2,a0,a2
    1e40:	00001537          	lui	a0,0x1
    1e44:	40a40533          	sub	a0,s0,a0
    1e48:	7ec53423          	sd	a2,2024(a0) # 17e8 <.LBB35_5+0x114>
    1e4c:	f3043503          	ld	a0,-208(s0)
    1e50:	02a98533          	mul	a0,s3,a0
    1e54:	000015b7          	lui	a1,0x1
    1e58:	40b405b3          	sub	a1,s0,a1
    1e5c:	7f05b603          	ld	a2,2032(a1) # 17f0 <.LBB35_5+0x11c>
    1e60:	00c50633          	add	a2,a0,a2
    1e64:	00001537          	lui	a0,0x1
    1e68:	40a40533          	sub	a0,s0,a0
    1e6c:	7ec53823          	sd	a2,2032(a0) # 17f0 <.LBB35_5+0x11c>
    1e70:	f3843a83          	ld	s5,-200(s0)
    1e74:	03598533          	mul	a0,s3,s5
    1e78:	000015b7          	lui	a1,0x1
    1e7c:	40b405b3          	sub	a1,s0,a1
    1e80:	7f85b603          	ld	a2,2040(a1) # 17f8 <.LBB35_5+0x124>
    1e84:	00c50633          	add	a2,a0,a2
    1e88:	00001537          	lui	a0,0x1
    1e8c:	40a40533          	sub	a0,s0,a0
    1e90:	7ec53c23          	sd	a2,2040(a0) # 17f8 <.LBB35_5+0x124>
    1e94:	f5043503          	ld	a0,-176(s0)
    1e98:	02a98533          	mul	a0,s3,a0
    1e9c:	80043603          	ld	a2,-2048(s0)
    1ea0:	00c50633          	add	a2,a0,a2
    1ea4:	80c43023          	sd	a2,-2048(s0)
    1ea8:	f6043503          	ld	a0,-160(s0)
    1eac:	02a98533          	mul	a0,s3,a0
    1eb0:	80843603          	ld	a2,-2040(s0)
    1eb4:	00c50633          	add	a2,a0,a2
    1eb8:	80c43423          	sd	a2,-2040(s0)
    1ebc:	02598533          	mul	a0,s3,t0
    1ec0:	81043603          	ld	a2,-2032(s0)
    1ec4:	00c50633          	add	a2,a0,a2
    1ec8:	80c43823          	sd	a2,-2032(s0)
    1ecc:	f2843903          	ld	s2,-216(s0)
    1ed0:	03298533          	mul	a0,s3,s2
    1ed4:	81843603          	ld	a2,-2024(s0)
    1ed8:	00c50633          	add	a2,a0,a2
    1edc:	80c43c23          	sd	a2,-2024(s0)
    1ee0:	03d98533          	mul	a0,s3,t4
    1ee4:	82043603          	ld	a2,-2016(s0)
    1ee8:	00c50633          	add	a2,a0,a2
    1eec:	82c43023          	sd	a2,-2016(s0)
    1ef0:	02198533          	mul	a0,s3,ra
    1ef4:	82843603          	ld	a2,-2008(s0)
    1ef8:	00c50633          	add	a2,a0,a2
    1efc:	82c43423          	sd	a2,-2008(s0)
    1f00:	f5843503          	ld	a0,-168(s0)
    1f04:	02a98533          	mul	a0,s3,a0
    1f08:	83043603          	ld	a2,-2000(s0)
    1f0c:	00c50633          	add	a2,a0,a2
    1f10:	82c43823          	sd	a2,-2000(s0)
    1f14:	e5043e83          	ld	t4,-432(s0)
    1f18:	03d98533          	mul	a0,s3,t4
    1f1c:	83843603          	ld	a2,-1992(s0)
    1f20:	00c50633          	add	a2,a0,a2
    1f24:	82c43c23          	sd	a2,-1992(s0)
    1f28:	e5843283          	ld	t0,-424(s0)
    1f2c:	02598533          	mul	a0,s3,t0
    1f30:	84043603          	ld	a2,-1984(s0)
    1f34:	00c50633          	add	a2,a0,a2
    1f38:	84c43023          	sd	a2,-1984(s0)
    1f3c:	f2043583          	ld	a1,-224(s0)
    1f40:	02b98533          	mul	a0,s3,a1
    1f44:	84843603          	ld	a2,-1976(s0)
    1f48:	00c50633          	add	a2,a0,a2
    1f4c:	84c43423          	sd	a2,-1976(s0)
    1f50:	e8043083          	ld	ra,-384(s0)
    1f54:	02198533          	mul	a0,s3,ra
    1f58:	85043603          	ld	a2,-1968(s0)
    1f5c:	00c50633          	add	a2,a0,a2
    1f60:	84c43823          	sd	a2,-1968(s0)
    1f64:	03998533          	mul	a0,s3,s9
    1f68:	85843603          	ld	a2,-1960(s0)
    1f6c:	00c50633          	add	a2,a0,a2
    1f70:	84c43c23          	sd	a2,-1960(s0)
    1f74:	03698533          	mul	a0,s3,s6
    1f78:	86043603          	ld	a2,-1952(s0)
    1f7c:	00c50633          	add	a2,a0,a2
    1f80:	86c43023          	sd	a2,-1952(s0)
    1f84:	02798533          	mul	a0,s3,t2
    1f88:	86843603          	ld	a2,-1944(s0)
    1f8c:	00c50633          	add	a2,a0,a2
    1f90:	86c43423          	sd	a2,-1944(s0)
    1f94:	02698533          	mul	a0,s3,t1
    1f98:	87043603          	ld	a2,-1936(s0)
    1f9c:	00c50633          	add	a2,a0,a2
    1fa0:	86c43823          	sd	a2,-1936(s0)
    1fa4:	03c98533          	mul	a0,s3,t3
    1fa8:	87843603          	ld	a2,-1928(s0)
    1fac:	00c50633          	add	a2,a0,a2
    1fb0:	86c43c23          	sd	a2,-1928(s0)
    1fb4:	f8043503          	ld	a0,-128(s0)
    1fb8:	f6050503          	lb	a0,-160(a0)
    1fbc:	03e98db3          	mul	s11,s3,t5
    1fc0:	88043603          	ld	a2,-1920(s0)
    1fc4:	00cd8633          	add	a2,s11,a2
    1fc8:	88c43023          	sd	a2,-1920(s0)
    1fcc:	03a989b3          	mul	s3,s3,s10
    1fd0:	e5a43023          	sd	s10,-448(s0)
    1fd4:	88843603          	ld	a2,-1912(s0)
    1fd8:	00c98633          	add	a2,s3,a2
    1fdc:	88c43423          	sd	a2,-1912(s0)
    1fe0:	02e509b3          	mul	s3,a0,a4
    1fe4:	8b043603          	ld	a2,-1872(s0)
    1fe8:	00c98633          	add	a2,s3,a2
    1fec:	8ac43823          	sd	a2,-1872(s0)
    1ff0:	038509b3          	mul	s3,a0,s8
    1ff4:	8a843603          	ld	a2,-1880(s0)
    1ff8:	00c98633          	add	a2,s3,a2
    1ffc:	8ac43423          	sd	a2,-1880(s0)
    2000:	031509b3          	mul	s3,a0,a7
    2004:	8a043603          	ld	a2,-1888(s0)
    2008:	00c98633          	add	a2,s3,a2
    200c:	8ac43023          	sd	a2,-1888(s0)
    2010:	029509b3          	mul	s3,a0,s1
    2014:	89843603          	ld	a2,-1896(s0)
    2018:	00c98633          	add	a2,s3,a2
    201c:	88c43c23          	sd	a2,-1896(s0)
    2020:	02d509b3          	mul	s3,a0,a3
    2024:	89043603          	ld	a2,-1904(s0)
    2028:	00c98633          	add	a2,s3,a2
    202c:	88c43823          	sd	a2,-1904(s0)
    2030:	03f509b3          	mul	s3,a0,t6
    2034:	8b843603          	ld	a2,-1864(s0)
    2038:	00c98633          	add	a2,s3,a2
    203c:	8ac43c23          	sd	a2,-1864(s0)
    2040:	02f509b3          	mul	s3,a0,a5
    2044:	8c043603          	ld	a2,-1856(s0)
    2048:	00c98633          	add	a2,s3,a2
    204c:	8cc43023          	sd	a2,-1856(s0)
    2050:	030509b3          	mul	s3,a0,a6
    2054:	8c843603          	ld	a2,-1848(s0)
    2058:	00c98633          	add	a2,s3,a2
    205c:	8cc43423          	sd	a2,-1848(s0)
    2060:	e9043683          	ld	a3,-368(s0)
    2064:	02d509b3          	mul	s3,a0,a3
    2068:	8d043603          	ld	a2,-1840(s0)
    206c:	00c98633          	add	a2,s3,a2
    2070:	8cc43823          	sd	a2,-1840(s0)
    2074:	000a0c93          	mv	s9,s4
    2078:	034509b3          	mul	s3,a0,s4
    207c:	8d843603          	ld	a2,-1832(s0)
    2080:	00c98633          	add	a2,s3,a2
    2084:	8cc43c23          	sd	a2,-1832(s0)
    2088:	00001637          	lui	a2,0x1
    208c:	40c40633          	sub	a2,s0,a2
    2090:	67863c03          	ld	s8,1656(a2) # 1678 <.LBB35_4+0x548>
    2094:	038509b3          	mul	s3,a0,s8
    2098:	8e043603          	ld	a2,-1824(s0)
    209c:	00c98633          	add	a2,s3,a2
    20a0:	8ec43023          	sd	a2,-1824(s0)
    20a4:	037509b3          	mul	s3,a0,s7
    20a8:	8e843603          	ld	a2,-1816(s0)
    20ac:	00c98633          	add	a2,s3,a2
    20b0:	8ec43423          	sd	a2,-1816(s0)
    20b4:	f3043b03          	ld	s6,-208(s0)
    20b8:	036509b3          	mul	s3,a0,s6
    20bc:	8f043603          	ld	a2,-1808(s0)
    20c0:	00c98633          	add	a2,s3,a2
    20c4:	8ec43823          	sd	a2,-1808(s0)
    20c8:	035509b3          	mul	s3,a0,s5
    20cc:	8f843603          	ld	a2,-1800(s0)
    20d0:	00c98633          	add	a2,s3,a2
    20d4:	8ec43c23          	sd	a2,-1800(s0)
    20d8:	f5043a03          	ld	s4,-176(s0)
    20dc:	034509b3          	mul	s3,a0,s4
    20e0:	90043603          	ld	a2,-1792(s0)
    20e4:	00c98633          	add	a2,s3,a2
    20e8:	90c43023          	sd	a2,-1792(s0)
    20ec:	f6043883          	ld	a7,-160(s0)
    20f0:	031509b3          	mul	s3,a0,a7
    20f4:	90843603          	ld	a2,-1784(s0)
    20f8:	00c98633          	add	a2,s3,a2
    20fc:	90c43423          	sd	a2,-1784(s0)
    2100:	e8843303          	ld	t1,-376(s0)
    2104:	026509b3          	mul	s3,a0,t1
    2108:	91043603          	ld	a2,-1776(s0)
    210c:	00c98633          	add	a2,s3,a2
    2110:	90c43823          	sd	a2,-1776(s0)
    2114:	032509b3          	mul	s3,a0,s2
    2118:	91843603          	ld	a2,-1768(s0)
    211c:	00c98633          	add	a2,s3,a2
    2120:	90c43c23          	sd	a2,-1768(s0)
    2124:	e4843383          	ld	t2,-440(s0)
    2128:	027509b3          	mul	s3,a0,t2
    212c:	92043603          	ld	a2,-1760(s0)
    2130:	00c98633          	add	a2,s3,a2
    2134:	92c43023          	sd	a2,-1760(s0)
    2138:	e3043803          	ld	a6,-464(s0)
    213c:	030509b3          	mul	s3,a0,a6
    2140:	92843603          	ld	a2,-1752(s0)
    2144:	00c98633          	add	a2,s3,a2
    2148:	92c43423          	sd	a2,-1752(s0)
    214c:	f5843703          	ld	a4,-168(s0)
    2150:	02e509b3          	mul	s3,a0,a4
    2154:	93043603          	ld	a2,-1744(s0)
    2158:	00c98633          	add	a2,s3,a2
    215c:	92c43823          	sd	a2,-1744(s0)
    2160:	03d509b3          	mul	s3,a0,t4
    2164:	000e8493          	mv	s1,t4
    2168:	93843603          	ld	a2,-1736(s0)
    216c:	00c98633          	add	a2,s3,a2
    2170:	92c43c23          	sd	a2,-1736(s0)
    2174:	025509b3          	mul	s3,a0,t0
    2178:	00028e93          	mv	t4,t0
    217c:	94043603          	ld	a2,-1728(s0)
    2180:	00c98633          	add	a2,s3,a2
    2184:	94c43023          	sd	a2,-1728(s0)
    2188:	02b509b3          	mul	s3,a0,a1
    218c:	94843603          	ld	a2,-1720(s0)
    2190:	00c98633          	add	a2,s3,a2
    2194:	94c43423          	sd	a2,-1720(s0)
    2198:	00008f93          	mv	t6,ra
    219c:	021509b3          	mul	s3,a0,ra
    21a0:	95043603          	ld	a2,-1712(s0)
    21a4:	00c98633          	add	a2,s3,a2
    21a8:	94c43823          	sd	a2,-1712(s0)
    21ac:	e2843f03          	ld	t5,-472(s0)
    21b0:	03e509b3          	mul	s3,a0,t5
    21b4:	95843603          	ld	a2,-1704(s0)
    21b8:	00c98633          	add	a2,s3,a2
    21bc:	94c43c23          	sd	a2,-1704(s0)
    21c0:	e3843083          	ld	ra,-456(s0)
    21c4:	021509b3          	mul	s3,a0,ra
    21c8:	96043603          	ld	a2,-1696(s0)
    21cc:	00c98633          	add	a2,s3,a2
    21d0:	96c43023          	sd	a2,-1696(s0)
    21d4:	e6843903          	ld	s2,-408(s0)
    21d8:	032509b3          	mul	s3,a0,s2
    21dc:	96843603          	ld	a2,-1688(s0)
    21e0:	00c98633          	add	a2,s3,a2
    21e4:	96c43423          	sd	a2,-1688(s0)
    21e8:	e1843e03          	ld	t3,-488(s0)
    21ec:	03c509b3          	mul	s3,a0,t3
    21f0:	97043603          	ld	a2,-1680(s0)
    21f4:	00c98633          	add	a2,s3,a2
    21f8:	96c43823          	sd	a2,-1680(s0)
    21fc:	e7043583          	ld	a1,-400(s0)
    2200:	02b509b3          	mul	s3,a0,a1
    2204:	97843603          	ld	a2,-1672(s0)
    2208:	00c98633          	add	a2,s3,a2
    220c:	96c43c23          	sd	a2,-1672(s0)
    2210:	f8043603          	ld	a2,-128(s0)
    2214:	f8060983          	lb	s3,-128(a2)
    2218:	e6043583          	ld	a1,-416(s0)
    221c:	02b50db3          	mul	s11,a0,a1
    2220:	98043603          	ld	a2,-1664(s0)
    2224:	00cd8633          	add	a2,s11,a2
    2228:	98c43023          	sd	a2,-1664(s0)
    222c:	03a50533          	mul	a0,a0,s10
    2230:	98843603          	ld	a2,-1656(s0)
    2234:	00c50633          	add	a2,a0,a2
    2238:	98c43423          	sd	a2,-1656(s0)
    223c:	e7843583          	ld	a1,-392(s0)
    2240:	02b98533          	mul	a0,s3,a1
    2244:	9b043603          	ld	a2,-1616(s0)
    2248:	00c50633          	add	a2,a0,a2
    224c:	9ac43823          	sd	a2,-1616(s0)
    2250:	f7043503          	ld	a0,-144(s0)
    2254:	02a98533          	mul	a0,s3,a0
    2258:	9a843603          	ld	a2,-1624(s0)
    225c:	00c50633          	add	a2,a0,a2
    2260:	9ac43423          	sd	a2,-1624(s0)
    2264:	f6843503          	ld	a0,-152(s0)
    2268:	02a98533          	mul	a0,s3,a0
    226c:	9a043603          	ld	a2,-1632(s0)
    2270:	00c50633          	add	a2,a0,a2
    2274:	9ac43023          	sd	a2,-1632(s0)
    2278:	f7843503          	ld	a0,-136(s0)
    227c:	02a98533          	mul	a0,s3,a0
    2280:	99843603          	ld	a2,-1640(s0)
    2284:	00c50633          	add	a2,a0,a2
    2288:	98c43c23          	sd	a2,-1640(s0)
    228c:	f1843783          	ld	a5,-232(s0)
    2290:	02f98533          	mul	a0,s3,a5
    2294:	99043603          	ld	a2,-1648(s0)
    2298:	00c50633          	add	a2,a0,a2
    229c:	98c43823          	sd	a2,-1648(s0)
    22a0:	e2043d03          	ld	s10,-480(s0)
    22a4:	03a98533          	mul	a0,s3,s10
    22a8:	9b843603          	ld	a2,-1608(s0)
    22ac:	00c50633          	add	a2,a0,a2
    22b0:	9ac43c23          	sd	a2,-1608(s0)
    22b4:	e9843503          	ld	a0,-360(s0)
    22b8:	02a98533          	mul	a0,s3,a0
    22bc:	9c043603          	ld	a2,-1600(s0)
    22c0:	00c50633          	add	a2,a0,a2
    22c4:	9cc43023          	sd	a2,-1600(s0)
    22c8:	f4843503          	ld	a0,-184(s0)
    22cc:	02a98533          	mul	a0,s3,a0
    22d0:	9c843603          	ld	a2,-1592(s0)
    22d4:	00c50633          	add	a2,a0,a2
    22d8:	9cc43423          	sd	a2,-1592(s0)
    22dc:	02d98533          	mul	a0,s3,a3
    22e0:	9d043603          	ld	a2,-1584(s0)
    22e4:	00c50633          	add	a2,a0,a2
    22e8:	9cc43823          	sd	a2,-1584(s0)
    22ec:	03998533          	mul	a0,s3,s9
    22f0:	9d843603          	ld	a2,-1576(s0)
    22f4:	00c50633          	add	a2,a0,a2
    22f8:	9cc43c23          	sd	a2,-1576(s0)
    22fc:	03898533          	mul	a0,s3,s8
    2300:	9e043603          	ld	a2,-1568(s0)
    2304:	00c50633          	add	a2,a0,a2
    2308:	9ec43023          	sd	a2,-1568(s0)
    230c:	03798533          	mul	a0,s3,s7
    2310:	9e843603          	ld	a2,-1560(s0)
    2314:	00c50633          	add	a2,a0,a2
    2318:	9ec43423          	sd	a2,-1560(s0)
    231c:	03698533          	mul	a0,s3,s6
    2320:	9f043603          	ld	a2,-1552(s0)
    2324:	00c50633          	add	a2,a0,a2
    2328:	9ec43823          	sd	a2,-1552(s0)
    232c:	03598533          	mul	a0,s3,s5
    2330:	9f843603          	ld	a2,-1544(s0)
    2334:	00c50633          	add	a2,a0,a2
    2338:	9ec43c23          	sd	a2,-1544(s0)
    233c:	03498533          	mul	a0,s3,s4
    2340:	a0043603          	ld	a2,-1536(s0)
    2344:	00c50633          	add	a2,a0,a2
    2348:	a0c43023          	sd	a2,-1536(s0)
    234c:	03198533          	mul	a0,s3,a7
    2350:	00088a13          	mv	s4,a7
    2354:	a0843603          	ld	a2,-1528(s0)
    2358:	00c50633          	add	a2,a0,a2
    235c:	a0c43423          	sd	a2,-1528(s0)
    2360:	00030293          	mv	t0,t1
    2364:	02698533          	mul	a0,s3,t1
    2368:	a1043603          	ld	a2,-1520(s0)
    236c:	00c50633          	add	a2,a0,a2
    2370:	a0c43823          	sd	a2,-1520(s0)
    2374:	f2843303          	ld	t1,-216(s0)
    2378:	02698533          	mul	a0,s3,t1
    237c:	a1843603          	ld	a2,-1512(s0)
    2380:	00c50633          	add	a2,a0,a2
    2384:	a0c43c23          	sd	a2,-1512(s0)
    2388:	02798533          	mul	a0,s3,t2
    238c:	a2043603          	ld	a2,-1504(s0)
    2390:	00c50633          	add	a2,a0,a2
    2394:	a2c43023          	sd	a2,-1504(s0)
    2398:	03098533          	mul	a0,s3,a6
    239c:	00080a93          	mv	s5,a6
    23a0:	a2843603          	ld	a2,-1496(s0)
    23a4:	00c50633          	add	a2,a0,a2
    23a8:	a2c43423          	sd	a2,-1496(s0)
    23ac:	02e98533          	mul	a0,s3,a4
    23b0:	a3043603          	ld	a2,-1488(s0)
    23b4:	00c50633          	add	a2,a0,a2
    23b8:	a2c43823          	sd	a2,-1488(s0)
    23bc:	02998533          	mul	a0,s3,s1
    23c0:	a3843603          	ld	a2,-1480(s0)
    23c4:	00c50633          	add	a2,a0,a2
    23c8:	a2c43c23          	sd	a2,-1480(s0)
    23cc:	03d98533          	mul	a0,s3,t4
    23d0:	a4043603          	ld	a2,-1472(s0)
    23d4:	00c50633          	add	a2,a0,a2
    23d8:	a4c43023          	sd	a2,-1472(s0)
    23dc:	f2043e83          	ld	t4,-224(s0)
    23e0:	03d98533          	mul	a0,s3,t4
    23e4:	a4843603          	ld	a2,-1464(s0)
    23e8:	00c50633          	add	a2,a0,a2
    23ec:	a4c43423          	sd	a2,-1464(s0)
    23f0:	03f98533          	mul	a0,s3,t6
    23f4:	a5043603          	ld	a2,-1456(s0)
    23f8:	00c50633          	add	a2,a0,a2
    23fc:	a4c43823          	sd	a2,-1456(s0)
    2400:	000f0813          	mv	a6,t5
    2404:	03e98533          	mul	a0,s3,t5
    2408:	a5843603          	ld	a2,-1448(s0)
    240c:	00c50633          	add	a2,a0,a2
    2410:	a4c43c23          	sd	a2,-1448(s0)
    2414:	02198533          	mul	a0,s3,ra
    2418:	00008f93          	mv	t6,ra
    241c:	a6043603          	ld	a2,-1440(s0)
    2420:	00c50633          	add	a2,a0,a2
    2424:	a6c43023          	sd	a2,-1440(s0)
    2428:	03298533          	mul	a0,s3,s2
    242c:	a6843603          	ld	a2,-1432(s0)
    2430:	00c50633          	add	a2,a0,a2
    2434:	a6c43423          	sd	a2,-1432(s0)
    2438:	000e0393          	mv	t2,t3
    243c:	03c98533          	mul	a0,s3,t3
    2440:	a7043603          	ld	a2,-1424(s0)
    2444:	00c50633          	add	a2,a0,a2
    2448:	a6c43823          	sd	a2,-1424(s0)
    244c:	e7043b83          	ld	s7,-400(s0)
    2450:	03798533          	mul	a0,s3,s7
    2454:	a7843603          	ld	a2,-1416(s0)
    2458:	00c50633          	add	a2,a0,a2
    245c:	a6c43c23          	sd	a2,-1416(s0)
    2460:	f8043503          	ld	a0,-128(s0)
    2464:	fa050503          	lb	a0,-96(a0)
    2468:	e6043883          	ld	a7,-416(s0)
    246c:	03198db3          	mul	s11,s3,a7
    2470:	a8043603          	ld	a2,-1408(s0)
    2474:	00cd8633          	add	a2,s11,a2
    2478:	a8c43023          	sd	a2,-1408(s0)
    247c:	e4043b03          	ld	s6,-448(s0)
    2480:	036989b3          	mul	s3,s3,s6
    2484:	a8843603          	ld	a2,-1400(s0)
    2488:	00c98633          	add	a2,s3,a2
    248c:	a8c43423          	sd	a2,-1400(s0)
    2490:	02b509b3          	mul	s3,a0,a1
    2494:	ab043603          	ld	a2,-1360(s0)
    2498:	00c98633          	add	a2,s3,a2
    249c:	aac43823          	sd	a2,-1360(s0)
    24a0:	f7043583          	ld	a1,-144(s0)
    24a4:	02b509b3          	mul	s3,a0,a1
    24a8:	aa843603          	ld	a2,-1368(s0)
    24ac:	00c98633          	add	a2,s3,a2
    24b0:	aac43423          	sd	a2,-1368(s0)
    24b4:	f6843f03          	ld	t5,-152(s0)
    24b8:	03e509b3          	mul	s3,a0,t5
    24bc:	aa043603          	ld	a2,-1376(s0)
    24c0:	00c98633          	add	a2,s3,a2
    24c4:	aac43023          	sd	a2,-1376(s0)
    24c8:	f7843483          	ld	s1,-136(s0)
    24cc:	029509b3          	mul	s3,a0,s1
    24d0:	a9843603          	ld	a2,-1384(s0)
    24d4:	00c98633          	add	a2,s3,a2
    24d8:	a8c43c23          	sd	a2,-1384(s0)
    24dc:	02f509b3          	mul	s3,a0,a5
    24e0:	a9043603          	ld	a2,-1392(s0)
    24e4:	00c98633          	add	a2,s3,a2
    24e8:	a8c43823          	sd	a2,-1392(s0)
    24ec:	000d0093          	mv	ra,s10
    24f0:	03a509b3          	mul	s3,a0,s10
    24f4:	ab843603          	ld	a2,-1352(s0)
    24f8:	00c98633          	add	a2,s3,a2
    24fc:	aac43c23          	sd	a2,-1352(s0)
    2500:	e9843703          	ld	a4,-360(s0)
    2504:	02e509b3          	mul	s3,a0,a4
    2508:	ac043603          	ld	a2,-1344(s0)
    250c:	00c98633          	add	a2,s3,a2
    2510:	acc43023          	sd	a2,-1344(s0)
    2514:	f4843683          	ld	a3,-184(s0)
    2518:	02d509b3          	mul	s3,a0,a3
    251c:	ac843603          	ld	a2,-1336(s0)
    2520:	00c98633          	add	a2,s3,a2
    2524:	acc43423          	sd	a2,-1336(s0)
    2528:	e9043d03          	ld	s10,-368(s0)
    252c:	03a509b3          	mul	s3,a0,s10
    2530:	ad043603          	ld	a2,-1328(s0)
    2534:	00c98633          	add	a2,s3,a2
    2538:	acc43823          	sd	a2,-1328(s0)
    253c:	039509b3          	mul	s3,a0,s9
    2540:	ad843603          	ld	a2,-1320(s0)
    2544:	00c98633          	add	a2,s3,a2
    2548:	acc43c23          	sd	a2,-1320(s0)
    254c:	038509b3          	mul	s3,a0,s8
    2550:	ae043603          	ld	a2,-1312(s0)
    2554:	00c98633          	add	a2,s3,a2
    2558:	aec43023          	sd	a2,-1312(s0)
    255c:	f4043603          	ld	a2,-192(s0)
    2560:	02c509b3          	mul	s3,a0,a2
    2564:	ae843603          	ld	a2,-1304(s0)
    2568:	00c98633          	add	a2,s3,a2
    256c:	aec43423          	sd	a2,-1304(s0)
    2570:	f3043783          	ld	a5,-208(s0)
    2574:	02f509b3          	mul	s3,a0,a5
    2578:	af043603          	ld	a2,-1296(s0)
    257c:	00c98633          	add	a2,s3,a2
    2580:	aec43823          	sd	a2,-1296(s0)
    2584:	f3843603          	ld	a2,-200(s0)
    2588:	02c509b3          	mul	s3,a0,a2
    258c:	af843603          	ld	a2,-1288(s0)
    2590:	00c98633          	add	a2,s3,a2
    2594:	aec43c23          	sd	a2,-1288(s0)
    2598:	f5043603          	ld	a2,-176(s0)
    259c:	02c509b3          	mul	s3,a0,a2
    25a0:	b0043603          	ld	a2,-1280(s0)
    25a4:	00c98633          	add	a2,s3,a2
    25a8:	b0c43023          	sd	a2,-1280(s0)
    25ac:	034509b3          	mul	s3,a0,s4
    25b0:	b0843603          	ld	a2,-1272(s0)
    25b4:	00c98633          	add	a2,s3,a2
    25b8:	b0c43423          	sd	a2,-1272(s0)
    25bc:	025509b3          	mul	s3,a0,t0
    25c0:	b1043603          	ld	a2,-1264(s0)
    25c4:	00c98633          	add	a2,s3,a2
    25c8:	b0c43823          	sd	a2,-1264(s0)
    25cc:	026509b3          	mul	s3,a0,t1
    25d0:	b1843603          	ld	a2,-1256(s0)
    25d4:	00c98633          	add	a2,s3,a2
    25d8:	b0c43c23          	sd	a2,-1256(s0)
    25dc:	e4843303          	ld	t1,-440(s0)
    25e0:	026509b3          	mul	s3,a0,t1
    25e4:	b2043603          	ld	a2,-1248(s0)
    25e8:	00c98633          	add	a2,s3,a2
    25ec:	b2c43023          	sd	a2,-1248(s0)
    25f0:	035509b3          	mul	s3,a0,s5
    25f4:	b2843603          	ld	a2,-1240(s0)
    25f8:	00c98633          	add	a2,s3,a2
    25fc:	b2c43423          	sd	a2,-1240(s0)
    2600:	f5843a83          	ld	s5,-168(s0)
    2604:	035509b3          	mul	s3,a0,s5
    2608:	b3043603          	ld	a2,-1232(s0)
    260c:	00c98633          	add	a2,s3,a2
    2610:	b2c43823          	sd	a2,-1232(s0)
    2614:	e5043903          	ld	s2,-432(s0)
    2618:	032509b3          	mul	s3,a0,s2
    261c:	b3843603          	ld	a2,-1224(s0)
    2620:	00c98633          	add	a2,s3,a2
    2624:	b2c43c23          	sd	a2,-1224(s0)
    2628:	e5843a03          	ld	s4,-424(s0)
    262c:	034509b3          	mul	s3,a0,s4
    2630:	b4043603          	ld	a2,-1216(s0)
    2634:	00c98633          	add	a2,s3,a2
    2638:	b4c43023          	sd	a2,-1216(s0)
    263c:	03d509b3          	mul	s3,a0,t4
    2640:	b4843603          	ld	a2,-1208(s0)
    2644:	00c98633          	add	a2,s3,a2
    2648:	b4c43423          	sd	a2,-1208(s0)
    264c:	e8043e03          	ld	t3,-384(s0)
    2650:	03c509b3          	mul	s3,a0,t3
    2654:	b5043603          	ld	a2,-1200(s0)
    2658:	00c98633          	add	a2,s3,a2
    265c:	b4c43823          	sd	a2,-1200(s0)
    2660:	030509b3          	mul	s3,a0,a6
    2664:	b5843603          	ld	a2,-1192(s0)
    2668:	00c98633          	add	a2,s3,a2
    266c:	b4c43c23          	sd	a2,-1192(s0)
    2670:	03f509b3          	mul	s3,a0,t6
    2674:	b6043603          	ld	a2,-1184(s0)
    2678:	00c98633          	add	a2,s3,a2
    267c:	b6c43023          	sd	a2,-1184(s0)
    2680:	e6843283          	ld	t0,-408(s0)
    2684:	025509b3          	mul	s3,a0,t0
    2688:	b6843603          	ld	a2,-1176(s0)
    268c:	00c98633          	add	a2,s3,a2
    2690:	b6c43423          	sd	a2,-1176(s0)
    2694:	027509b3          	mul	s3,a0,t2
    2698:	b7043603          	ld	a2,-1168(s0)
    269c:	00c98633          	add	a2,s3,a2
    26a0:	b6c43823          	sd	a2,-1168(s0)
    26a4:	000b8e93          	mv	t4,s7
    26a8:	037509b3          	mul	s3,a0,s7
    26ac:	b7843603          	ld	a2,-1160(s0)
    26b0:	00c98633          	add	a2,s3,a2
    26b4:	b6c43c23          	sd	a2,-1160(s0)
    26b8:	f8043603          	ld	a2,-128(s0)
    26bc:	fc060983          	lb	s3,-64(a2)
    26c0:	03150db3          	mul	s11,a0,a7
    26c4:	b8043603          	ld	a2,-1152(s0)
    26c8:	00cd8633          	add	a2,s11,a2
    26cc:	b8c43023          	sd	a2,-1152(s0)
    26d0:	03650533          	mul	a0,a0,s6
    26d4:	b8843603          	ld	a2,-1144(s0)
    26d8:	00c50633          	add	a2,a0,a2
    26dc:	b8c43423          	sd	a2,-1144(s0)
    26e0:	e7843803          	ld	a6,-392(s0)
    26e4:	03098533          	mul	a0,s3,a6
    26e8:	bb043603          	ld	a2,-1104(s0)
    26ec:	00c50633          	add	a2,a0,a2
    26f0:	bac43823          	sd	a2,-1104(s0)
    26f4:	02b98533          	mul	a0,s3,a1
    26f8:	ba843603          	ld	a2,-1112(s0)
    26fc:	00c50633          	add	a2,a0,a2
    2700:	bac43423          	sd	a2,-1112(s0)
    2704:	03e98533          	mul	a0,s3,t5
    2708:	ba043603          	ld	a2,-1120(s0)
    270c:	00c50633          	add	a2,a0,a2
    2710:	bac43023          	sd	a2,-1120(s0)
    2714:	02998533          	mul	a0,s3,s1
    2718:	b9843603          	ld	a2,-1128(s0)
    271c:	00c50633          	add	a2,a0,a2
    2720:	b8c43c23          	sd	a2,-1128(s0)
    2724:	f1843483          	ld	s1,-232(s0)
    2728:	02998533          	mul	a0,s3,s1
    272c:	b9043603          	ld	a2,-1136(s0)
    2730:	00c50633          	add	a2,a0,a2
    2734:	b8c43823          	sd	a2,-1136(s0)
    2738:	02198533          	mul	a0,s3,ra
    273c:	bb843603          	ld	a2,-1096(s0)
    2740:	00c50633          	add	a2,a0,a2
    2744:	bac43c23          	sd	a2,-1096(s0)
    2748:	02e98533          	mul	a0,s3,a4
    274c:	bc043603          	ld	a2,-1088(s0)
    2750:	00c50633          	add	a2,a0,a2
    2754:	bcc43023          	sd	a2,-1088(s0)
    2758:	02d98533          	mul	a0,s3,a3
    275c:	bc843603          	ld	a2,-1080(s0)
    2760:	00c50633          	add	a2,a0,a2
    2764:	bcc43423          	sd	a2,-1080(s0)
    2768:	03a98533          	mul	a0,s3,s10
    276c:	bd043603          	ld	a2,-1072(s0)
    2770:	00c50633          	add	a2,a0,a2
    2774:	bcc43823          	sd	a2,-1072(s0)
    2778:	03998533          	mul	a0,s3,s9
    277c:	bd843603          	ld	a2,-1064(s0)
    2780:	00c50633          	add	a2,a0,a2
    2784:	bcc43c23          	sd	a2,-1064(s0)
    2788:	03898533          	mul	a0,s3,s8
    278c:	be043603          	ld	a2,-1056(s0)
    2790:	00c50633          	add	a2,a0,a2
    2794:	bec43023          	sd	a2,-1056(s0)
    2798:	f4043b83          	ld	s7,-192(s0)
    279c:	03798533          	mul	a0,s3,s7
    27a0:	be843603          	ld	a2,-1048(s0)
    27a4:	00c50633          	add	a2,a0,a2
    27a8:	bec43423          	sd	a2,-1048(s0)
    27ac:	02f98533          	mul	a0,s3,a5
    27b0:	bf043603          	ld	a2,-1040(s0)
    27b4:	00c50633          	add	a2,a0,a2
    27b8:	bec43823          	sd	a2,-1040(s0)
    27bc:	f3843783          	ld	a5,-200(s0)
    27c0:	02f98533          	mul	a0,s3,a5
    27c4:	bf843603          	ld	a2,-1032(s0)
    27c8:	00c50633          	add	a2,a0,a2
    27cc:	bec43c23          	sd	a2,-1032(s0)
    27d0:	f5043883          	ld	a7,-176(s0)
    27d4:	03198533          	mul	a0,s3,a7
    27d8:	c0043603          	ld	a2,-1024(s0)
    27dc:	00c50633          	add	a2,a0,a2
    27e0:	c0c43023          	sd	a2,-1024(s0)
    27e4:	f6043503          	ld	a0,-160(s0)
    27e8:	02a98533          	mul	a0,s3,a0
    27ec:	c0843603          	ld	a2,-1016(s0)
    27f0:	00c50633          	add	a2,a0,a2
    27f4:	c0c43423          	sd	a2,-1016(s0)
    27f8:	e8843503          	ld	a0,-376(s0)
    27fc:	02a98533          	mul	a0,s3,a0
    2800:	c1043603          	ld	a2,-1008(s0)
    2804:	00c50633          	add	a2,a0,a2
    2808:	c0c43823          	sd	a2,-1008(s0)
    280c:	f2843503          	ld	a0,-216(s0)
    2810:	02a98533          	mul	a0,s3,a0
    2814:	c1843603          	ld	a2,-1000(s0)
    2818:	00c50633          	add	a2,a0,a2
    281c:	c0c43c23          	sd	a2,-1000(s0)
    2820:	02698533          	mul	a0,s3,t1
    2824:	c2043603          	ld	a2,-992(s0)
    2828:	00c50633          	add	a2,a0,a2
    282c:	c2c43023          	sd	a2,-992(s0)
    2830:	e3043583          	ld	a1,-464(s0)
    2834:	02b98533          	mul	a0,s3,a1
    2838:	c2843603          	ld	a2,-984(s0)
    283c:	00c50633          	add	a2,a0,a2
    2840:	c2c43423          	sd	a2,-984(s0)
    2844:	03598533          	mul	a0,s3,s5
    2848:	c3043603          	ld	a2,-976(s0)
    284c:	00c50633          	add	a2,a0,a2
    2850:	c2c43823          	sd	a2,-976(s0)
    2854:	00090713          	mv	a4,s2
    2858:	03298533          	mul	a0,s3,s2
    285c:	c3843603          	ld	a2,-968(s0)
    2860:	00c50633          	add	a2,a0,a2
    2864:	c2c43c23          	sd	a2,-968(s0)
    2868:	000a0693          	mv	a3,s4
    286c:	03498533          	mul	a0,s3,s4
    2870:	c4043603          	ld	a2,-960(s0)
    2874:	00c50633          	add	a2,a0,a2
    2878:	c4c43023          	sd	a2,-960(s0)
    287c:	f2043503          	ld	a0,-224(s0)
    2880:	02a98533          	mul	a0,s3,a0
    2884:	c4843603          	ld	a2,-952(s0)
    2888:	00c50633          	add	a2,a0,a2
    288c:	c4c43423          	sd	a2,-952(s0)
    2890:	03c98533          	mul	a0,s3,t3
    2894:	c5043603          	ld	a2,-944(s0)
    2898:	00c50633          	add	a2,a0,a2
    289c:	c4c43823          	sd	a2,-944(s0)
    28a0:	e2843383          	ld	t2,-472(s0)
    28a4:	02798533          	mul	a0,s3,t2
    28a8:	c5843603          	ld	a2,-936(s0)
    28ac:	00c50633          	add	a2,a0,a2
    28b0:	c4c43c23          	sd	a2,-936(s0)
    28b4:	03f98533          	mul	a0,s3,t6
    28b8:	c6043603          	ld	a2,-928(s0)
    28bc:	00c50633          	add	a2,a0,a2
    28c0:	c6c43023          	sd	a2,-928(s0)
    28c4:	02598533          	mul	a0,s3,t0
    28c8:	c6843603          	ld	a2,-920(s0)
    28cc:	00c50633          	add	a2,a0,a2
    28d0:	c6c43423          	sd	a2,-920(s0)
    28d4:	e1843e03          	ld	t3,-488(s0)
    28d8:	03c98533          	mul	a0,s3,t3
    28dc:	c7043603          	ld	a2,-912(s0)
    28e0:	00c50633          	add	a2,a0,a2
    28e4:	c6c43823          	sd	a2,-912(s0)
    28e8:	03d98533          	mul	a0,s3,t4
    28ec:	c7843603          	ld	a2,-904(s0)
    28f0:	00c50633          	add	a2,a0,a2
    28f4:	c6c43c23          	sd	a2,-904(s0)
    28f8:	f8043503          	ld	a0,-128(s0)
    28fc:	fe050503          	lb	a0,-32(a0)
    2900:	e6043f03          	ld	t5,-416(s0)
    2904:	03e98db3          	mul	s11,s3,t5
    2908:	c8043603          	ld	a2,-896(s0)
    290c:	00cd8633          	add	a2,s11,a2
    2910:	c8c43023          	sd	a2,-896(s0)
    2914:	036989b3          	mul	s3,s3,s6
    2918:	c8843603          	ld	a2,-888(s0)
    291c:	00c98633          	add	a2,s3,a2
    2920:	c8c43423          	sd	a2,-888(s0)
    2924:	030509b3          	mul	s3,a0,a6
    2928:	cb043603          	ld	a2,-848(s0)
    292c:	00c98633          	add	a2,s3,a2
    2930:	cac43823          	sd	a2,-848(s0)
    2934:	f7043603          	ld	a2,-144(s0)
    2938:	02c509b3          	mul	s3,a0,a2
    293c:	ca843603          	ld	a2,-856(s0)
    2940:	00c98633          	add	a2,s3,a2
    2944:	cac43423          	sd	a2,-856(s0)
    2948:	f6843603          	ld	a2,-152(s0)
    294c:	02c509b3          	mul	s3,a0,a2
    2950:	ca043603          	ld	a2,-864(s0)
    2954:	00c98633          	add	a2,s3,a2
    2958:	cac43023          	sd	a2,-864(s0)
    295c:	f7843603          	ld	a2,-136(s0)
    2960:	02c509b3          	mul	s3,a0,a2
    2964:	c9843603          	ld	a2,-872(s0)
    2968:	00c98633          	add	a2,s3,a2
    296c:	c8c43c23          	sd	a2,-872(s0)
    2970:	029509b3          	mul	s3,a0,s1
    2974:	c9043603          	ld	a2,-880(s0)
    2978:	00c98633          	add	a2,s3,a2
    297c:	c8c43823          	sd	a2,-880(s0)
    2980:	021509b3          	mul	s3,a0,ra
    2984:	cb843603          	ld	a2,-840(s0)
    2988:	00c98633          	add	a2,s3,a2
    298c:	cac43c23          	sd	a2,-840(s0)
    2990:	e9843083          	ld	ra,-360(s0)
    2994:	021509b3          	mul	s3,a0,ra
    2998:	cc043603          	ld	a2,-832(s0)
    299c:	00c98633          	add	a2,s3,a2
    29a0:	ccc43023          	sd	a2,-832(s0)
    29a4:	f4843603          	ld	a2,-184(s0)
    29a8:	02c509b3          	mul	s3,a0,a2
    29ac:	cc843603          	ld	a2,-824(s0)
    29b0:	00c98633          	add	a2,s3,a2
    29b4:	ccc43423          	sd	a2,-824(s0)
    29b8:	03a509b3          	mul	s3,a0,s10
    29bc:	cd043603          	ld	a2,-816(s0)
    29c0:	00c98633          	add	a2,s3,a2
    29c4:	ccc43823          	sd	a2,-816(s0)
    29c8:	039509b3          	mul	s3,a0,s9
    29cc:	cd843603          	ld	a2,-808(s0)
    29d0:	00c98633          	add	a2,s3,a2
    29d4:	ccc43c23          	sd	a2,-808(s0)
    29d8:	038509b3          	mul	s3,a0,s8
    29dc:	ce043603          	ld	a2,-800(s0)
    29e0:	00c98633          	add	a2,s3,a2
    29e4:	cec43023          	sd	a2,-800(s0)
    29e8:	037509b3          	mul	s3,a0,s7
    29ec:	ce843603          	ld	a2,-792(s0)
    29f0:	00c98633          	add	a2,s3,a2
    29f4:	cec43423          	sd	a2,-792(s0)
    29f8:	f3043b03          	ld	s6,-208(s0)
    29fc:	036509b3          	mul	s3,a0,s6
    2a00:	cf043603          	ld	a2,-784(s0)
    2a04:	00c98633          	add	a2,s3,a2
    2a08:	cec43823          	sd	a2,-784(s0)
    2a0c:	02f509b3          	mul	s3,a0,a5
    2a10:	cf843603          	ld	a2,-776(s0)
    2a14:	00c98633          	add	a2,s3,a2
    2a18:	cec43c23          	sd	a2,-776(s0)
    2a1c:	031509b3          	mul	s3,a0,a7
    2a20:	00088b93          	mv	s7,a7
    2a24:	d0043603          	ld	a2,-768(s0)
    2a28:	00c98633          	add	a2,s3,a2
    2a2c:	d0c43023          	sd	a2,-768(s0)
    2a30:	f6043a03          	ld	s4,-160(s0)
    2a34:	034509b3          	mul	s3,a0,s4
    2a38:	d0843603          	ld	a2,-760(s0)
    2a3c:	00c98633          	add	a2,s3,a2
    2a40:	d0c43423          	sd	a2,-760(s0)
    2a44:	e8843903          	ld	s2,-376(s0)
    2a48:	032509b3          	mul	s3,a0,s2
    2a4c:	d1043603          	ld	a2,-752(s0)
    2a50:	00c98633          	add	a2,s3,a2
    2a54:	d0c43823          	sd	a2,-752(s0)
    2a58:	f2843f83          	ld	t6,-216(s0)
    2a5c:	03f509b3          	mul	s3,a0,t6
    2a60:	d1843603          	ld	a2,-744(s0)
    2a64:	00c98633          	add	a2,s3,a2
    2a68:	d0c43c23          	sd	a2,-744(s0)
    2a6c:	026509b3          	mul	s3,a0,t1
    2a70:	d2043603          	ld	a2,-736(s0)
    2a74:	00c98633          	add	a2,s3,a2
    2a78:	d2c43023          	sd	a2,-736(s0)
    2a7c:	02b509b3          	mul	s3,a0,a1
    2a80:	00058a93          	mv	s5,a1
    2a84:	d2843603          	ld	a2,-728(s0)
    2a88:	00c98633          	add	a2,s3,a2
    2a8c:	d2c43423          	sd	a2,-728(s0)
    2a90:	f5843283          	ld	t0,-168(s0)
    2a94:	025509b3          	mul	s3,a0,t0
    2a98:	d3043603          	ld	a2,-720(s0)
    2a9c:	00c98633          	add	a2,s3,a2
    2aa0:	d2c43823          	sd	a2,-720(s0)
    2aa4:	00070793          	mv	a5,a4
    2aa8:	02e509b3          	mul	s3,a0,a4
    2aac:	d3843603          	ld	a2,-712(s0)
    2ab0:	00c98633          	add	a2,s3,a2
    2ab4:	d2c43c23          	sd	a2,-712(s0)
    2ab8:	00068713          	mv	a4,a3
    2abc:	02d509b3          	mul	s3,a0,a3
    2ac0:	d4043603          	ld	a2,-704(s0)
    2ac4:	00c98633          	add	a2,s3,a2
    2ac8:	d4c43023          	sd	a2,-704(s0)
    2acc:	f2043683          	ld	a3,-224(s0)
    2ad0:	02d509b3          	mul	s3,a0,a3
    2ad4:	d4843603          	ld	a2,-696(s0)
    2ad8:	00c98633          	add	a2,s3,a2
    2adc:	d4c43423          	sd	a2,-696(s0)
    2ae0:	e8043583          	ld	a1,-384(s0)
    2ae4:	02b509b3          	mul	s3,a0,a1
    2ae8:	d5043603          	ld	a2,-688(s0)
    2aec:	00c98633          	add	a2,s3,a2
    2af0:	d4c43823          	sd	a2,-688(s0)
    2af4:	00038813          	mv	a6,t2
    2af8:	027509b3          	mul	s3,a0,t2
    2afc:	d5843603          	ld	a2,-680(s0)
    2b00:	00c98633          	add	a2,s3,a2
    2b04:	d4c43c23          	sd	a2,-680(s0)
    2b08:	e3843e83          	ld	t4,-456(s0)
    2b0c:	03d509b3          	mul	s3,a0,t4
    2b10:	d6043603          	ld	a2,-672(s0)
    2b14:	00c98633          	add	a2,s3,a2
    2b18:	d6c43023          	sd	a2,-672(s0)
    2b1c:	e6843883          	ld	a7,-408(s0)
    2b20:	031509b3          	mul	s3,a0,a7
    2b24:	d6843603          	ld	a2,-664(s0)
    2b28:	00c98633          	add	a2,s3,a2
    2b2c:	d6c43423          	sd	a2,-664(s0)
    2b30:	000e0393          	mv	t2,t3
    2b34:	03c509b3          	mul	s3,a0,t3
    2b38:	d7043603          	ld	a2,-656(s0)
    2b3c:	00c98633          	add	a2,s3,a2
    2b40:	d6c43823          	sd	a2,-656(s0)
    2b44:	e7043e03          	ld	t3,-400(s0)
    2b48:	03c509b3          	mul	s3,a0,t3
    2b4c:	d7843603          	ld	a2,-648(s0)
    2b50:	00c98633          	add	a2,s3,a2
    2b54:	d6c43c23          	sd	a2,-648(s0)
    2b58:	f8043603          	ld	a2,-128(s0)
    2b5c:	00060983          	lb	s3,0(a2)
    2b60:	03e50db3          	mul	s11,a0,t5
    2b64:	d8043603          	ld	a2,-640(s0)
    2b68:	00cd8633          	add	a2,s11,a2
    2b6c:	d8c43023          	sd	a2,-640(s0)
    2b70:	e4043483          	ld	s1,-448(s0)
    2b74:	02950533          	mul	a0,a0,s1
    2b78:	d8843603          	ld	a2,-632(s0)
    2b7c:	00c50633          	add	a2,a0,a2
    2b80:	d8c43423          	sd	a2,-632(s0)
    2b84:	02998533          	mul	a0,s3,s1
    2b88:	e4a43023          	sd	a0,-448(s0)
    2b8c:	03e98533          	mul	a0,s3,t5
    2b90:	e6a43023          	sd	a0,-416(s0)
    2b94:	03c98533          	mul	a0,s3,t3
    2b98:	00001637          	lui	a2,0x1
    2b9c:	40c40633          	sub	a2,s0,a2
    2ba0:	66a63823          	sd	a0,1648(a2) # 1670 <.LBB35_4+0x540>
    2ba4:	02798533          	mul	a0,s3,t2
    2ba8:	e0a43c23          	sd	a0,-488(s0)
    2bac:	03198533          	mul	a0,s3,a7
    2bb0:	00001637          	lui	a2,0x1
    2bb4:	40c40633          	sub	a2,s0,a2
    2bb8:	66a63423          	sd	a0,1640(a2) # 1668 <.LBB35_4+0x538>
    2bbc:	03d98533          	mul	a0,s3,t4
    2bc0:	e6a43823          	sd	a0,-400(s0)
    2bc4:	03098533          	mul	a0,s3,a6
    2bc8:	e6a43423          	sd	a0,-408(s0)
    2bcc:	02b98533          	mul	a0,s3,a1
    2bd0:	e8a43023          	sd	a0,-384(s0)
    2bd4:	02d98533          	mul	a0,s3,a3
    2bd8:	f2a43023          	sd	a0,-224(s0)
    2bdc:	02e984b3          	mul	s1,s3,a4
    2be0:	02f98f33          	mul	t5,s3,a5
    2be4:	02598eb3          	mul	t4,s3,t0
    2be8:	03598e33          	mul	t3,s3,s5
    2bec:	026983b3          	mul	t2,s3,t1
    2bf0:	03f988b3          	mul	a7,s3,t6
    2bf4:	03298833          	mul	a6,s3,s2
    2bf8:	034982b3          	mul	t0,s3,s4
    2bfc:	03798a33          	mul	s4,s3,s7
    2c00:	f3843503          	ld	a0,-200(s0)
    2c04:	02a98ab3          	mul	s5,s3,a0
    2c08:	03698b33          	mul	s6,s3,s6
    2c0c:	f4043503          	ld	a0,-192(s0)
    2c10:	02a98bb3          	mul	s7,s3,a0
    2c14:	03898c33          	mul	s8,s3,s8
    2c18:	03998cb3          	mul	s9,s3,s9
    2c1c:	03a98d33          	mul	s10,s3,s10
    2c20:	f4843503          	ld	a0,-184(s0)
    2c24:	02a98db3          	mul	s11,s3,a0
    2c28:	02198733          	mul	a4,s3,ra
    2c2c:	e2043503          	ld	a0,-480(s0)
    2c30:	02a980b3          	mul	ra,s3,a0
    2c34:	f1843503          	ld	a0,-232(s0)
    2c38:	02a986b3          	mul	a3,s3,a0
    2c3c:	f7843503          	ld	a0,-136(s0)
    2c40:	02a98633          	mul	a2,s3,a0
    2c44:	f6843503          	ld	a0,-152(s0)
    2c48:	02a985b3          	mul	a1,s3,a0
    2c4c:	f7043503          	ld	a0,-144(s0)
    2c50:	02a98533          	mul	a0,s3,a0
    2c54:	e7843783          	ld	a5,-392(s0)
    2c58:	02f989b3          	mul	s3,s3,a5
    2c5c:	db043783          	ld	a5,-592(s0)
    2c60:	00f987b3          	add	a5,s3,a5
    2c64:	daf43823          	sd	a5,-592(s0)
    2c68:	da843783          	ld	a5,-600(s0)
    2c6c:	00f507b3          	add	a5,a0,a5
    2c70:	daf43423          	sd	a5,-600(s0)
    2c74:	da043503          	ld	a0,-608(s0)
    2c78:	00a58533          	add	a0,a1,a0
    2c7c:	daa43023          	sd	a0,-608(s0)
    2c80:	d9843503          	ld	a0,-616(s0)
    2c84:	00a60533          	add	a0,a2,a0
    2c88:	d8a43c23          	sd	a0,-616(s0)
    2c8c:	d9043503          	ld	a0,-624(s0)
    2c90:	00a68533          	add	a0,a3,a0
    2c94:	d8a43823          	sd	a0,-624(s0)
    2c98:	e1043683          	ld	a3,-496(s0)
    2c9c:	ea043503          	ld	a0,-352(s0)
    2ca0:	00a08533          	add	a0,ra,a0
    2ca4:	eaa43023          	sd	a0,-352(s0)
    2ca8:	ea043083          	ld	ra,-352(s0)
    2cac:	db843503          	ld	a0,-584(s0)
    2cb0:	00a70533          	add	a0,a4,a0
    2cb4:	daa43c23          	sd	a0,-584(s0)
    2cb8:	e0843703          	ld	a4,-504(s0)
    2cbc:	ea843503          	ld	a0,-344(s0)
    2cc0:	00ad8533          	add	a0,s11,a0
    2cc4:	eaa43423          	sd	a0,-344(s0)
    2cc8:	ea843d83          	ld	s11,-344(s0)
    2ccc:	eb043503          	ld	a0,-336(s0)
    2cd0:	00ad0533          	add	a0,s10,a0
    2cd4:	eaa43823          	sd	a0,-336(s0)
    2cd8:	eb043d03          	ld	s10,-336(s0)
    2cdc:	eb843503          	ld	a0,-328(s0)
    2ce0:	00ac8533          	add	a0,s9,a0
    2ce4:	eaa43c23          	sd	a0,-328(s0)
    2ce8:	eb843c83          	ld	s9,-328(s0)
    2cec:	ec043503          	ld	a0,-320(s0)
    2cf0:	00ac0533          	add	a0,s8,a0
    2cf4:	eca43023          	sd	a0,-320(s0)
    2cf8:	ec043c03          	ld	s8,-320(s0)
    2cfc:	ec843503          	ld	a0,-312(s0)
    2d00:	00ab8533          	add	a0,s7,a0
    2d04:	eca43423          	sd	a0,-312(s0)
    2d08:	ec843b83          	ld	s7,-312(s0)
    2d0c:	ed043503          	ld	a0,-304(s0)
    2d10:	00ab0533          	add	a0,s6,a0
    2d14:	eca43823          	sd	a0,-304(s0)
    2d18:	ed043b03          	ld	s6,-304(s0)
    2d1c:	ed843503          	ld	a0,-296(s0)
    2d20:	00aa8533          	add	a0,s5,a0
    2d24:	eca43c23          	sd	a0,-296(s0)
    2d28:	ed843a83          	ld	s5,-296(s0)
    2d2c:	ee043503          	ld	a0,-288(s0)
    2d30:	00aa0533          	add	a0,s4,a0
    2d34:	dc043a03          	ld	s4,-576(s0)
    2d38:	eea43023          	sd	a0,-288(s0)
    2d3c:	ee043983          	ld	s3,-288(s0)
    2d40:	ee843503          	ld	a0,-280(s0)
    2d44:	00a28533          	add	a0,t0,a0
    2d48:	eea43423          	sd	a0,-280(s0)
    2d4c:	ee843903          	ld	s2,-280(s0)
    2d50:	01480a33          	add	s4,a6,s4
    2d54:	de843283          	ld	t0,-536(s0)
    2d58:	dc843503          	ld	a0,-568(s0)
    2d5c:	00a88533          	add	a0,a7,a0
    2d60:	dca43423          	sd	a0,-568(s0)
    2d64:	df043883          	ld	a7,-528(s0)
    2d68:	dd043503          	ld	a0,-560(s0)
    2d6c:	00a38533          	add	a0,t2,a0
    2d70:	dca43823          	sd	a0,-560(s0)
    2d74:	de043303          	ld	t1,-544(s0)
    2d78:	dd843503          	ld	a0,-552(s0)
    2d7c:	00ae0533          	add	a0,t3,a0
    2d80:	dca43c23          	sd	a0,-552(s0)
    2d84:	ef043503          	ld	a0,-272(s0)
    2d88:	00ae8533          	add	a0,t4,a0
    2d8c:	eea43823          	sd	a0,-272(s0)
    2d90:	ef043e03          	ld	t3,-272(s0)
    2d94:	ef843503          	ld	a0,-264(s0)
    2d98:	00af0533          	add	a0,t5,a0
    2d9c:	f8043e83          	ld	t4,-128(s0)
    2da0:	eea43c23          	sd	a0,-264(s0)
    2da4:	ef843383          	ld	t2,-264(s0)
    2da8:	f0043503          	ld	a0,-256(s0)
    2dac:	00a48533          	add	a0,s1,a0
    2db0:	f8843f03          	ld	t5,-120(s0)
    2db4:	f0a43023          	sd	a0,-256(s0)
    2db8:	f0043603          	ld	a2,-256(s0)
    2dbc:	f0843503          	ld	a0,-248(s0)
    2dc0:	f2043583          	ld	a1,-224(s0)
    2dc4:	00a58533          	add	a0,a1,a0
    2dc8:	f0a43423          	sd	a0,-248(s0)
    2dcc:	f0843583          	ld	a1,-248(s0)
    2dd0:	f1043503          	ld	a0,-240(s0)
    2dd4:	e8043783          	ld	a5,-384(s0)
    2dd8:	00a78533          	add	a0,a5,a0
    2ddc:	f0a43823          	sd	a0,-240(s0)
    2de0:	f1043503          	ld	a0,-240(s0)
    2de4:	e6843783          	ld	a5,-408(s0)
    2de8:	00678333          	add	t1,a5,t1
    2dec:	000017b7          	lui	a5,0x1
    2df0:	40f407b3          	sub	a5,s0,a5
    2df4:	6887b803          	ld	a6,1672(a5) # 1688 <.LBB35_4+0x558>
    2df8:	e7043783          	ld	a5,-400(s0)
    2dfc:	005782b3          	add	t0,a5,t0
    2e00:	e0043783          	ld	a5,-512(s0)
    2e04:	00001fb7          	lui	t6,0x1
    2e08:	41f40fb3          	sub	t6,s0,t6
    2e0c:	668fbf83          	ld	t6,1640(t6) # 1668 <.LBB35_4+0x538>
    2e10:	011f88b3          	add	a7,t6,a7
    2e14:	df843f83          	ld	t6,-520(s0)
    2e18:	e1843483          	ld	s1,-488(s0)
    2e1c:	01f48fb3          	add	t6,s1,t6
    2e20:	dff43c23          	sd	t6,-520(s0)
    2e24:	00001fb7          	lui	t6,0x1
    2e28:	41f40fb3          	sub	t6,s0,t6
    2e2c:	670fbf83          	ld	t6,1648(t6) # 1670 <.LBB35_4+0x540>
    2e30:	00ff87b3          	add	a5,t6,a5
    2e34:	e6043f83          	ld	t6,-416(s0)
    2e38:	00ef8733          	add	a4,t6,a4
    2e3c:	e4043f83          	ld	t6,-448(s0)
    2e40:	00df86b3          	add	a3,t6,a3
    2e44:	f4080813          	addi	a6,a6,-192
    2e48:	0c0f0f13          	addi	t5,t5,192
    2e4c:	001e8e93          	addi	t4,t4,1
    2e50:	00080463          	beqz	a6,2e58 <.LBB35_6>
    2e54:	881fe06f          	j	16d4 <.LBB35_5>

0000000000002e58 <.LBB35_6>:
    2e58:	00001537          	lui	a0,0x1
    2e5c:	40a40533          	sub	a0,s0,a0
    2e60:	6b053983          	ld	s3,1712(a0) # 16b0 <.LBB35_4+0x580>
    2e64:	00001537          	lui	a0,0x1
    2e68:	40a40533          	sub	a0,s0,a0
    2e6c:	6b853903          	ld	s2,1720(a0) # 16b8 <.LBB35_4+0x588>
    2e70:	00001537          	lui	a0,0x1
    2e74:	40a40533          	sub	a0,s0,a0
    2e78:	6c053483          	ld	s1,1728(a0) # 16c0 <.LBB35_4+0x590>
    2e7c:	00001537          	lui	a0,0x1
    2e80:	40a40533          	sub	a0,s0,a0
    2e84:	6c853f83          	ld	t6,1736(a0) # 16c8 <.LBB35_4+0x598>
    2e88:	00001537          	lui	a0,0x1
    2e8c:	40a40533          	sub	a0,s0,a0
    2e90:	6a853f03          	ld	t5,1704(a0) # 16a8 <.LBB35_4+0x578>
    2e94:	00001537          	lui	a0,0x1
    2e98:	40a40533          	sub	a0,s0,a0
    2e9c:	6a053e83          	ld	t4,1696(a0) # 16a0 <.LBB35_4+0x570>
    2ea0:	00001537          	lui	a0,0x1
    2ea4:	40a40533          	sub	a0,s0,a0
    2ea8:	69853e03          	ld	t3,1688(a0) # 1698 <.LBB35_4+0x568>
    2eac:	00001537          	lui	a0,0x1
    2eb0:	40a40533          	sub	a0,s0,a0
    2eb4:	69053383          	ld	t2,1680(a0) # 1690 <.LBB35_4+0x560>
    2eb8:	dd443023          	sd	s4,-576(s0)
    2ebc:	00001537          	lui	a0,0x1
    2ec0:	40a40533          	sub	a0,s0,a0
    2ec4:	65853503          	ld	a0,1624(a0) # 1658 <.LBB35_4+0x528>
    2ec8:	00251513          	slli	a0,a0,0x2
    2ecc:	000015b7          	lui	a1,0x1
    2ed0:	40b405b3          	sub	a1,s0,a1
    2ed4:	da85b803          	ld	a6,-600(a1) # da8 <.LBB35_3+0xbac>
    2ed8:	00a80833          	add	a6,a6,a0
    2edc:	01082583          	lw	a1,16(a6)
    2ee0:	00001637          	lui	a2,0x1
    2ee4:	40c40633          	sub	a2,s0,a2
    2ee8:	da063603          	ld	a2,-608(a2) # da0 <.LBB35_3+0xba4>
    2eec:	00a60533          	add	a0,a2,a0
    2ef0:	01052603          	lw	a2,16(a0)
    2ef4:	00b605b3          	add	a1,a2,a1
    2ef8:	f8b43423          	sd	a1,-120(s0)
    2efc:	00001637          	lui	a2,0x1
    2f00:	40c40633          	sub	a2,s0,a2
    2f04:	6d063603          	ld	a2,1744(a2) # 16d0 <.LBB35_4+0x5a0>
    2f08:	00c585bb          	addw	a1,a1,a2
    2f0c:	40000637          	lui	a2,0x40000
    2f10:	00001a37          	lui	s4,0x1
    2f14:	41440a33          	sub	s4,s0,s4
    2f18:	e4ba3023          	sd	a1,-448(s4) # e40 <.LBB35_3+0xc44>
    2f1c:	0005d463          	bgez	a1,2f24 <.LBB35_8>
    2f20:	c0000637          	lui	a2,0xc0000

0000000000002f24 <.LBB35_8>:
    2f24:	000015b7          	lui	a1,0x1
    2f28:	40b405b3          	sub	a1,s0,a1
    2f2c:	e2c5b823          	sd	a2,-464(a1) # e30 <.LBB35_3+0xc34>
    2f30:	00c82583          	lw	a1,12(a6)
    2f34:	00c52603          	lw	a2,12(a0)
    2f38:	00b605b3          	add	a1,a2,a1
    2f3c:	f8b43023          	sd	a1,-128(s0)
    2f40:	013585bb          	addw	a1,a1,s3
    2f44:	40000637          	lui	a2,0x40000
    2f48:	000019b7          	lui	s3,0x1
    2f4c:	413409b3          	sub	s3,s0,s3
    2f50:	e6b9b023          	sd	a1,-416(s3) # e60 <.LBB35_3+0xc64>
    2f54:	0005d463          	bgez	a1,2f5c <.LBB35_10>
    2f58:	c0000637          	lui	a2,0xc0000

0000000000002f5c <.LBB35_10>:
    2f5c:	000015b7          	lui	a1,0x1
    2f60:	40b405b3          	sub	a1,s0,a1
    2f64:	e4c5b823          	sd	a2,-432(a1) # e50 <.LBB35_3+0xc54>
    2f68:	00882583          	lw	a1,8(a6)
    2f6c:	00852603          	lw	a2,8(a0)
    2f70:	00b605b3          	add	a1,a2,a1
    2f74:	f6b43c23          	sd	a1,-136(s0)
    2f78:	012585bb          	addw	a1,a1,s2
    2f7c:	40000637          	lui	a2,0x40000
    2f80:	00001937          	lui	s2,0x1
    2f84:	41240933          	sub	s2,s0,s2
    2f88:	e6b93823          	sd	a1,-400(s2) # e70 <.LBB35_3+0xc74>
    2f8c:	0005d463          	bgez	a1,2f94 <.LBB35_12>
    2f90:	c0000637          	lui	a2,0xc0000

0000000000002f94 <.LBB35_12>:
    2f94:	000015b7          	lui	a1,0x1
    2f98:	40b405b3          	sub	a1,s0,a1
    2f9c:	e6c5b423          	sd	a2,-408(a1) # e68 <.LBB35_3+0xc6c>
    2fa0:	00482583          	lw	a1,4(a6)
    2fa4:	00452603          	lw	a2,4(a0)
    2fa8:	00b605b3          	add	a1,a2,a1
    2fac:	f6b43823          	sd	a1,-144(s0)
    2fb0:	009585bb          	addw	a1,a1,s1
    2fb4:	40000637          	lui	a2,0x40000
    2fb8:	000014b7          	lui	s1,0x1
    2fbc:	409404b3          	sub	s1,s0,s1
    2fc0:	e8b4b823          	sd	a1,-368(s1) # e90 <.LBB35_3+0xc94>
    2fc4:	0005d463          	bgez	a1,2fcc <.LBB35_14>
    2fc8:	c0000637          	lui	a2,0xc0000

0000000000002fcc <.LBB35_14>:
    2fcc:	000015b7          	lui	a1,0x1
    2fd0:	40b405b3          	sub	a1,s0,a1
    2fd4:	e8c5b023          	sd	a2,-384(a1) # e80 <.LBB35_3+0xc84>
    2fd8:	00082583          	lw	a1,0(a6)
    2fdc:	00052603          	lw	a2,0(a0)
    2fe0:	00b605b3          	add	a1,a2,a1
    2fe4:	f6b43423          	sd	a1,-152(s0)
    2fe8:	01f585bb          	addw	a1,a1,t6
    2fec:	40000637          	lui	a2,0x40000
    2ff0:	00001fb7          	lui	t6,0x1
    2ff4:	41f40fb3          	sub	t6,s0,t6
    2ff8:	eabfb423          	sd	a1,-344(t6) # ea8 <.LBB35_3+0xcac>
    2ffc:	0005d463          	bgez	a1,3004 <.LBB35_16>
    3000:	c0000637          	lui	a2,0xc0000

0000000000003004 <.LBB35_16>:
    3004:	000015b7          	lui	a1,0x1
    3008:	40b405b3          	sub	a1,s0,a1
    300c:	e8c5bc23          	sd	a2,-360(a1) # e98 <.LBB35_3+0xc9c>
    3010:	01482583          	lw	a1,20(a6)
    3014:	01452603          	lw	a2,20(a0)
    3018:	00b605b3          	add	a1,a2,a1
    301c:	f6b43023          	sd	a1,-160(s0)
    3020:	01e585bb          	addw	a1,a1,t5
    3024:	40000637          	lui	a2,0x40000
    3028:	00001f37          	lui	t5,0x1
    302c:	41e40f33          	sub	t5,s0,t5
    3030:	ecbf3023          	sd	a1,-320(t5) # ec0 <.LBB35_3+0xcc4>
    3034:	0005d463          	bgez	a1,303c <.LBB35_18>
    3038:	c0000637          	lui	a2,0xc0000

000000000000303c <.LBB35_18>:
    303c:	000015b7          	lui	a1,0x1
    3040:	40b405b3          	sub	a1,s0,a1
    3044:	eac5bc23          	sd	a2,-328(a1) # eb8 <.LBB35_3+0xcbc>
    3048:	01882583          	lw	a1,24(a6)
    304c:	01852603          	lw	a2,24(a0)
    3050:	00b605b3          	add	a1,a2,a1
    3054:	f4b43c23          	sd	a1,-168(s0)
    3058:	01d585bb          	addw	a1,a1,t4
    305c:	40000637          	lui	a2,0x40000
    3060:	00001eb7          	lui	t4,0x1
    3064:	41d40eb3          	sub	t4,s0,t4
    3068:	eebeb023          	sd	a1,-288(t4) # ee0 <.LBB35_3+0xce4>
    306c:	0005d463          	bgez	a1,3074 <.LBB35_20>
    3070:	c0000637          	lui	a2,0xc0000

0000000000003074 <.LBB35_20>:
    3074:	000015b7          	lui	a1,0x1
    3078:	40b405b3          	sub	a1,s0,a1
    307c:	ecc5b823          	sd	a2,-304(a1) # ed0 <.LBB35_3+0xcd4>
    3080:	01c82583          	lw	a1,28(a6)
    3084:	01c52603          	lw	a2,28(a0)
    3088:	00b605b3          	add	a1,a2,a1
    308c:	f4b43823          	sd	a1,-176(s0)
    3090:	01c585bb          	addw	a1,a1,t3
    3094:	40000637          	lui	a2,0x40000
    3098:	f0b43c23          	sd	a1,-232(s0)
    309c:	0005d463          	bgez	a1,30a4 <.LBB35_22>
    30a0:	c0000637          	lui	a2,0xc0000

00000000000030a4 <.LBB35_22>:
    30a4:	000015b7          	lui	a1,0x1
    30a8:	40b405b3          	sub	a1,s0,a1
    30ac:	eec5b423          	sd	a2,-280(a1) # ee8 <.LBB35_3+0xcec>
    30b0:	de643023          	sd	t1,-544(s0)
    30b4:	00028a93          	mv	s5,t0
    30b8:	df143823          	sd	a7,-528(s0)
    30bc:	e0f43023          	sd	a5,-512(s0)
    30c0:	e0e43423          	sd	a4,-504(s0)
    30c4:	e0d43823          	sd	a3,-496(s0)
    30c8:	02082583          	lw	a1,32(a6)
    30cc:	02052603          	lw	a2,32(a0)
    30d0:	00b605b3          	add	a1,a2,a1
    30d4:	f4b43423          	sd	a1,-184(s0)
    30d8:	007585bb          	addw	a1,a1,t2
    30dc:	40000637          	lui	a2,0x40000
    30e0:	f2b43423          	sd	a1,-216(s0)
    30e4:	0005d463          	bgez	a1,30ec <.LBB35_24>
    30e8:	c0000637          	lui	a2,0xc0000

00000000000030ec <.LBB35_24>:
    30ec:	f2c43023          	sd	a2,-224(s0)
    30f0:	02482a03          	lw	s4,36(a6)
    30f4:	02882783          	lw	a5,40(a6)
    30f8:	02c82583          	lw	a1,44(a6)
    30fc:	03082603          	lw	a2,48(a6)
    3100:	03482d83          	lw	s11,52(a6)
    3104:	03882d03          	lw	s10,56(a6)
    3108:	03c82683          	lw	a3,60(a6)
    310c:	04082b03          	lw	s6,64(a6)
    3110:	04482c03          	lw	s8,68(a6)
    3114:	04882703          	lw	a4,72(a6)
    3118:	04c82883          	lw	a7,76(a6)
    311c:	000012b7          	lui	t0,0x1
    3120:	405402b3          	sub	t0,s0,t0
    3124:	6b12bc23          	sd	a7,1720(t0) # 16b8 <.LBB35_4+0x588>
    3128:	05082883          	lw	a7,80(a6)
    312c:	000012b7          	lui	t0,0x1
    3130:	405402b3          	sub	t0,s0,t0
    3134:	6d12b423          	sd	a7,1736(t0) # 16c8 <.LBB35_4+0x598>
    3138:	05482883          	lw	a7,84(a6)
    313c:	e1143c23          	sd	a7,-488(s0)
    3140:	05882883          	lw	a7,88(a6)
    3144:	e3143423          	sd	a7,-472(s0)
    3148:	05c82883          	lw	a7,92(a6)
    314c:	e3143c23          	sd	a7,-456(s0)
    3150:	06082883          	lw	a7,96(a6)
    3154:	e7143023          	sd	a7,-416(s0)
    3158:	06482883          	lw	a7,100(a6)
    315c:	e9143823          	sd	a7,-368(s0)
    3160:	06882883          	lw	a7,104(a6)
    3164:	e9143023          	sd	a7,-384(s0)
    3168:	06c82883          	lw	a7,108(a6)
    316c:	e7143423          	sd	a7,-408(s0)
    3170:	07082883          	lw	a7,112(a6)
    3174:	e7143823          	sd	a7,-400(s0)
    3178:	07482883          	lw	a7,116(a6)
    317c:	e7143c23          	sd	a7,-392(s0)
    3180:	07882883          	lw	a7,120(a6)
    3184:	e9143423          	sd	a7,-376(s0)
    3188:	07c82803          	lw	a6,124(a6)
    318c:	e9043c23          	sd	a6,-360(s0)
    3190:	02452b83          	lw	s7,36(a0)
    3194:	02852283          	lw	t0,40(a0)
    3198:	02c52983          	lw	s3,44(a0)
    319c:	03052883          	lw	a7,48(a0)
    31a0:	03452903          	lw	s2,52(a0)
    31a4:	03852483          	lw	s1,56(a0)
    31a8:	03c52083          	lw	ra,60(a0)
    31ac:	04052803          	lw	a6,64(a0)
    31b0:	04452c83          	lw	s9,68(a0)
    31b4:	04852303          	lw	t1,72(a0)
    31b8:	04c52383          	lw	t2,76(a0)
    31bc:	05052e03          	lw	t3,80(a0)
    31c0:	05452e83          	lw	t4,84(a0)
    31c4:	05852f03          	lw	t5,88(a0)
    31c8:	05c52f83          	lw	t6,92(a0)
    31cc:	f8b43823          	sd	a1,-112(s0)
    31d0:	000015b7          	lui	a1,0x1
    31d4:	40b405b3          	sub	a1,s0,a1
    31d8:	6df5b023          	sd	t6,1728(a1) # 16c0 <.LBB35_4+0x590>
    31dc:	06052f83          	lw	t6,96(a0)
    31e0:	000015b7          	lui	a1,0x1
    31e4:	40b405b3          	sub	a1,s0,a1
    31e8:	6df5b823          	sd	t6,1744(a1) # 16d0 <.LBB35_4+0x5a0>
    31ec:	f9043583          	ld	a1,-112(s0)
    31f0:	06452f83          	lw	t6,100(a0)
    31f4:	e3f43023          	sd	t6,-480(s0)
    31f8:	06852f83          	lw	t6,104(a0)
    31fc:	e3f43823          	sd	t6,-464(s0)
    3200:	06c52f83          	lw	t6,108(a0)
    3204:	e5f43023          	sd	t6,-448(s0)
    3208:	07052f83          	lw	t6,112(a0)
    320c:	e5f43423          	sd	t6,-440(s0)
    3210:	07452f83          	lw	t6,116(a0)
    3214:	e5f43823          	sd	t6,-432(s0)
    3218:	07852f83          	lw	t6,120(a0)
    321c:	e5f43c23          	sd	t6,-424(s0)
    3220:	07c52503          	lw	a0,124(a0)
    3224:	014b8bb3          	add	s7,s7,s4
    3228:	00001fb7          	lui	t6,0x1
    322c:	41f40fb3          	sub	t6,s0,t6
    3230:	6d8fba03          	ld	s4,1752(t6) # 16d8 <.LBB35_5+0x4>
    3234:	f5743023          	sd	s7,-192(s0)
    3238:	014b8a3b          	addw	s4,s7,s4
    323c:	40000bb7          	lui	s7,0x40000
    3240:	00001fb7          	lui	t6,0x1
    3244:	41f40fb3          	sub	t6,s0,t6
    3248:	e14fb023          	sd	s4,-512(t6) # e00 <.LBB35_3+0xc04>
    324c:	000a5463          	bgez	s4,3254 <.LBB35_26>
    3250:	c0000bb7          	lui	s7,0xc0000

0000000000003254 <.LBB35_26>:
    3254:	00f282b3          	add	t0,t0,a5
    3258:	000017b7          	lui	a5,0x1
    325c:	40f407b3          	sub	a5,s0,a5
    3260:	6e07b783          	ld	a5,1760(a5) # 16e0 <.LBB35_5+0xc>
    3264:	f2543c23          	sd	t0,-200(s0)
    3268:	00f287bb          	addw	a5,t0,a5
    326c:	400002b7          	lui	t0,0x40000
    3270:	00001fb7          	lui	t6,0x1
    3274:	41f40fb3          	sub	t6,s0,t6
    3278:	e0ffb823          	sd	a5,-496(t6) # e10 <.LBB35_3+0xc14>
    327c:	0007d463          	bgez	a5,3284 <.LBB35_28>
    3280:	c00002b7          	lui	t0,0xc0000

0000000000003284 <.LBB35_28>:
    3284:	000017b7          	lui	a5,0x1
    3288:	40f407b3          	sub	a5,s0,a5
    328c:	e057b423          	sd	t0,-504(a5) # e08 <.LBB35_3+0xc0c>
    3290:	00b987b3          	add	a5,s3,a1
    3294:	000015b7          	lui	a1,0x1
    3298:	40b405b3          	sub	a1,s0,a1
    329c:	6e85b583          	ld	a1,1768(a1) # 16e8 <.LBB35_5+0x14>
    32a0:	f2f43823          	sd	a5,-208(s0)
    32a4:	00b787bb          	addw	a5,a5,a1
    32a8:	400002b7          	lui	t0,0x40000
    32ac:	df543423          	sd	s5,-536(s0)
    32b0:	000015b7          	lui	a1,0x1
    32b4:	40b405b3          	sub	a1,s0,a1
    32b8:	e2f5b023          	sd	a5,-480(a1) # e20 <.LBB35_3+0xc24>
    32bc:	000015b7          	lui	a1,0x1
    32c0:	40b405b3          	sub	a1,s0,a1
    32c4:	7485ba03          	ld	s4,1864(a1) # 1748 <.LBB35_5+0x74>
    32c8:	0007d463          	bgez	a5,32d0 <.LBB35_30>
    32cc:	c00002b7          	lui	t0,0xc0000

00000000000032d0 <.LBB35_30>:
    32d0:	00c888b3          	add	a7,a7,a2
    32d4:	000015b7          	lui	a1,0x1
    32d8:	40b405b3          	sub	a1,s0,a1
    32dc:	6f05b603          	ld	a2,1776(a1) # 16f0 <.LBB35_5+0x1c>
    32e0:	00088593          	mv	a1,a7
    32e4:	00c8863b          	addw	a2,a7,a2
    32e8:	400007b7          	lui	a5,0x40000
    32ec:	000018b7          	lui	a7,0x1
    32f0:	411408b3          	sub	a7,s0,a7
    32f4:	e2c8bc23          	sd	a2,-456(a7) # e38 <.LBB35_3+0xc3c>
    32f8:	000018b7          	lui	a7,0x1
    32fc:	411408b3          	sub	a7,s0,a7
    3300:	7508b983          	ld	s3,1872(a7) # 1750 <.LBB35_5+0x7c>
    3304:	000018b7          	lui	a7,0x1
    3308:	411408b3          	sub	a7,s0,a7
    330c:	7408ba83          	ld	s5,1856(a7) # 1740 <.LBB35_5+0x6c>
    3310:	00065463          	bgez	a2,3318 <.LBB35_32>
    3314:	c00007b7          	lui	a5,0xc0000

0000000000003318 <.LBB35_32>:
    3318:	00001637          	lui	a2,0x1
    331c:	40c40633          	sub	a2,s0,a2
    3320:	e0563c23          	sd	t0,-488(a2) # e18 <.LBB35_3+0xc1c>
    3324:	00001637          	lui	a2,0x1
    3328:	40c40633          	sub	a2,s0,a2
    332c:	e2f63423          	sd	a5,-472(a2) # e28 <.LBB35_3+0xc2c>
    3330:	01b90933          	add	s2,s2,s11
    3334:	00001637          	lui	a2,0x1
    3338:	40c40633          	sub	a2,s0,a2
    333c:	6f863603          	ld	a2,1784(a2) # 16f8 <.LBB35_5+0x24>
    3340:	00090793          	mv	a5,s2
    3344:	00c9063b          	addw	a2,s2,a2
    3348:	400008b7          	lui	a7,0x40000
    334c:	000012b7          	lui	t0,0x1
    3350:	405402b3          	sub	t0,s0,t0
    3354:	e4c2bc23          	sd	a2,-424(t0) # e58 <.LBB35_3+0xc5c>
    3358:	00065463          	bgez	a2,3360 <.LBB35_34>
    335c:	c00008b7          	lui	a7,0xc0000

0000000000003360 <.LBB35_34>:
    3360:	00001637          	lui	a2,0x1
    3364:	40c40633          	sub	a2,s0,a2
    3368:	e5163423          	sd	a7,-440(a2) # e48 <.LBB35_3+0xc4c>
    336c:	01a484b3          	add	s1,s1,s10
    3370:	00001637          	lui	a2,0x1
    3374:	40c40633          	sub	a2,s0,a2
    3378:	70063603          	ld	a2,1792(a2) # 1700 <.LBB35_5+0x2c>
    337c:	00048893          	mv	a7,s1
    3380:	00c4863b          	addw	a2,s1,a2
    3384:	400002b7          	lui	t0,0x40000
    3388:	00001fb7          	lui	t6,0x1
    338c:	41f40fb3          	sub	t6,s0,t6
    3390:	e8cfb423          	sd	a2,-376(t6) # e88 <.LBB35_3+0xc8c>
    3394:	00001fb7          	lui	t6,0x1
    3398:	41f40fb3          	sub	t6,s0,t6
    339c:	758fb903          	ld	s2,1880(t6) # 1758 <.LBB35_5+0x84>
    33a0:	00065463          	bgez	a2,33a8 <.LBB35_36>
    33a4:	c00002b7          	lui	t0,0xc0000

00000000000033a8 <.LBB35_36>:
    33a8:	00d086b3          	add	a3,ra,a3
    33ac:	00001637          	lui	a2,0x1
    33b0:	40c40633          	sub	a2,s0,a2
    33b4:	70863603          	ld	a2,1800(a2) # 1708 <.LBB35_5+0x34>
    33b8:	00068d93          	mv	s11,a3
    33bc:	00c6863b          	addw	a2,a3,a2
    33c0:	400006b7          	lui	a3,0x40000
    33c4:	00001fb7          	lui	t6,0x1
    33c8:	41f40fb3          	sub	t6,s0,t6
    33cc:	d90fbd03          	ld	s10,-624(t6) # d90 <.LBB35_3+0xb94>
    33d0:	00001fb7          	lui	t6,0x1
    33d4:	41f40fb3          	sub	t6,s0,t6
    33d8:	eacfb823          	sd	a2,-336(t6) # eb0 <.LBB35_3+0xcb4>
    33dc:	00001fb7          	lui	t6,0x1
    33e0:	41f40fb3          	sub	t6,s0,t6
    33e4:	760fb483          	ld	s1,1888(t6) # 1760 <.LBB35_5+0x8c>
    33e8:	00065463          	bgez	a2,33f0 <.LBB35_38>
    33ec:	c00006b7          	lui	a3,0xc0000

00000000000033f0 <.LBB35_38>:
    33f0:	00001637          	lui	a2,0x1
    33f4:	40c40633          	sub	a2,s0,a2
    33f8:	e6563c23          	sd	t0,-392(a2) # e78 <.LBB35_3+0xc7c>
    33fc:	00001637          	lui	a2,0x1
    3400:	40c40633          	sub	a2,s0,a2
    3404:	ead63023          	sd	a3,-352(a2) # ea0 <.LBB35_3+0xca4>
    3408:	01680833          	add	a6,a6,s6
    340c:	00001637          	lui	a2,0x1
    3410:	40c40633          	sub	a2,s0,a2
    3414:	71063603          	ld	a2,1808(a2) # 1710 <.LBB35_5+0x3c>
    3418:	00080693          	mv	a3,a6
    341c:	00c8063b          	addw	a2,a6,a2
    3420:	40000837          	lui	a6,0x40000
    3424:	ea043083          	ld	ra,-352(s0)
    3428:	000012b7          	lui	t0,0x1
    342c:	405402b3          	sub	t0,s0,t0
    3430:	ecc2bc23          	sd	a2,-296(t0) # ed8 <.LBB35_3+0xcdc>
    3434:	00065463          	bgez	a2,343c <.LBB35_40>
    3438:	c0000837          	lui	a6,0xc0000

000000000000343c <.LBB35_40>:
    343c:	00001637          	lui	a2,0x1
    3440:	40c40633          	sub	a2,s0,a2
    3444:	ed063423          	sd	a6,-312(a2) # ec8 <.LBB35_3+0xccc>
    3448:	018c8cb3          	add	s9,s9,s8
    344c:	00001637          	lui	a2,0x1
    3450:	40c40633          	sub	a2,s0,a2
    3454:	71863603          	ld	a2,1816(a2) # 1718 <.LBB35_5+0x44>
    3458:	00cc863b          	addw	a2,s9,a2
    345c:	400002b7          	lui	t0,0x40000
    3460:	dc043803          	ld	a6,-576(s0)
    3464:	00001fb7          	lui	t6,0x1
    3468:	41f40fb3          	sub	t6,s0,t6
    346c:	eecfbc23          	sd	a2,-264(t6) # ef8 <.LBB35_3+0xcfc>
    3470:	00001fb7          	lui	t6,0x1
    3474:	41f40fb3          	sub	t6,s0,t6
    3478:	770fbb03          	ld	s6,1904(t6) # 1770 <.LBB35_5+0x9c>
    347c:	00065463          	bgez	a2,3484 <.LBB35_42>
    3480:	c00002b7          	lui	t0,0xc0000

0000000000003484 <.LBB35_42>:
    3484:	00001637          	lui	a2,0x1
    3488:	40c40633          	sub	a2,s0,a2
    348c:	ee563823          	sd	t0,-272(a2) # ef0 <.LBB35_3+0xcf4>
    3490:	00e30333          	add	t1,t1,a4
    3494:	00001637          	lui	a2,0x1
    3498:	40c40633          	sub	a2,s0,a2
    349c:	72063603          	ld	a2,1824(a2) # 1720 <.LBB35_5+0x4c>
    34a0:	00c3063b          	addw	a2,t1,a2
    34a4:	40000737          	lui	a4,0x40000
    34a8:	000012b7          	lui	t0,0x1
    34ac:	405402b3          	sub	t0,s0,t0
    34b0:	f0c2b423          	sd	a2,-248(t0) # f08 <.LBB35_3+0xd0c>
    34b4:	000012b7          	lui	t0,0x1
    34b8:	405402b3          	sub	t0,s0,t0
    34bc:	7802bc03          	ld	s8,1920(t0) # 1780 <.LBB35_5+0xac>
    34c0:	00065463          	bgez	a2,34c8 <.LBB35_44>
    34c4:	c0000737          	lui	a4,0xc0000

00000000000034c8 <.LBB35_44>:
    34c8:	00001637          	lui	a2,0x1
    34cc:	40c40633          	sub	a2,s0,a2
    34d0:	f0e63023          	sd	a4,-256(a2) # f00 <.LBB35_3+0xd04>
    34d4:	00001637          	lui	a2,0x1
    34d8:	40c40633          	sub	a2,s0,a2
    34dc:	6b863603          	ld	a2,1720(a2) # 16b8 <.LBB35_4+0x588>
    34e0:	00c383b3          	add	t2,t2,a2
    34e4:	00001637          	lui	a2,0x1
    34e8:	40c40633          	sub	a2,s0,a2
    34ec:	72863603          	ld	a2,1832(a2) # 1728 <.LBB35_5+0x54>
    34f0:	00c3863b          	addw	a2,t2,a2
    34f4:	400002b7          	lui	t0,0x40000
    34f8:	dd043703          	ld	a4,-560(s0)
    34fc:	00001fb7          	lui	t6,0x1
    3500:	41f40fb3          	sub	t6,s0,t6
    3504:	f0cfbc23          	sd	a2,-232(t6) # f18 <.LBB35_3+0xd1c>
    3508:	00065463          	bgez	a2,3510 <.LBB35_46>
    350c:	c00002b7          	lui	t0,0xc0000

0000000000003510 <.LBB35_46>:
    3510:	00001637          	lui	a2,0x1
    3514:	40c40633          	sub	a2,s0,a2
    3518:	f0563823          	sd	t0,-240(a2) # f10 <.LBB35_3+0xd14>
    351c:	00001637          	lui	a2,0x1
    3520:	40c40633          	sub	a2,s0,a2
    3524:	6c863603          	ld	a2,1736(a2) # 16c8 <.LBB35_4+0x598>
    3528:	00ce0e33          	add	t3,t3,a2
    352c:	00001637          	lui	a2,0x1
    3530:	40c40633          	sub	a2,s0,a2
    3534:	73063603          	ld	a2,1840(a2) # 1730 <.LBB35_5+0x5c>
    3538:	00ce063b          	addw	a2,t3,a2
    353c:	400002b7          	lui	t0,0x40000
    3540:	00001fb7          	lui	t6,0x1
    3544:	41f40fb3          	sub	t6,s0,t6
    3548:	f2cfb423          	sd	a2,-216(t6) # f28 <.LBB35_3+0xd2c>
    354c:	00001fb7          	lui	t6,0x1
    3550:	41f40fb3          	sub	t6,s0,t6
    3554:	768fbf83          	ld	t6,1896(t6) # 1768 <.LBB35_5+0x94>
    3558:	00065463          	bgez	a2,3560 <.LBB35_48>
    355c:	c00002b7          	lui	t0,0xc0000

0000000000003560 <.LBB35_48>:
    3560:	f8a43823          	sd	a0,-112(s0)
    3564:	00001537          	lui	a0,0x1
    3568:	40a40533          	sub	a0,s0,a0
    356c:	f2553023          	sd	t0,-224(a0) # f20 <.LBB35_3+0xd24>
    3570:	e1843603          	ld	a2,-488(s0)
    3574:	00ce8eb3          	add	t4,t4,a2
    3578:	00001537          	lui	a0,0x1
    357c:	40a40533          	sub	a0,s0,a0
    3580:	73853603          	ld	a2,1848(a0) # 1738 <.LBB35_5+0x64>
    3584:	00ce863b          	addw	a2,t4,a2
    3588:	400002b7          	lui	t0,0x40000
    358c:	00001537          	lui	a0,0x1
    3590:	40a40533          	sub	a0,s0,a0
    3594:	f2c53c23          	sd	a2,-200(a0) # f38 <.LBB35_3+0xd3c>
    3598:	f9043503          	ld	a0,-112(s0)
    359c:	00065463          	bgez	a2,35a4 <.LBB35_50>
    35a0:	c00002b7          	lui	t0,0xc0000

00000000000035a4 <.LBB35_50>:
    35a4:	00001637          	lui	a2,0x1
    35a8:	40c40633          	sub	a2,s0,a2
    35ac:	f2563823          	sd	t0,-208(a2) # f30 <.LBB35_3+0xd34>
    35b0:	e2843603          	ld	a2,-472(s0)
    35b4:	00cf0f33          	add	t5,t5,a2
    35b8:	015f063b          	addw	a2,t5,s5
    35bc:	400002b7          	lui	t0,0x40000
    35c0:	00001ab7          	lui	s5,0x1
    35c4:	41540ab3          	sub	s5,s0,s5
    35c8:	f4cab423          	sd	a2,-184(s5) # f48 <.LBB35_3+0xd4c>
    35cc:	00065463          	bgez	a2,35d4 <.LBB35_52>
    35d0:	c00002b7          	lui	t0,0xc0000

00000000000035d4 <.LBB35_52>:
    35d4:	00001637          	lui	a2,0x1
    35d8:	40c40633          	sub	a2,s0,a2
    35dc:	f4563023          	sd	t0,-192(a2) # f40 <.LBB35_3+0xd44>
    35e0:	e3843a83          	ld	s5,-456(s0)
    35e4:	00001637          	lui	a2,0x1
    35e8:	40c40633          	sub	a2,s0,a2
    35ec:	6c063603          	ld	a2,1728(a2) # 16c0 <.LBB35_4+0x590>
    35f0:	01560ab3          	add	s5,a2,s5
    35f4:	014a863b          	addw	a2,s5,s4
    35f8:	400002b7          	lui	t0,0x40000
    35fc:	00001a37          	lui	s4,0x1
    3600:	41440a33          	sub	s4,s0,s4
    3604:	f4ca3c23          	sd	a2,-168(s4) # f58 <.LBB35_3+0xd5c>
    3608:	00065463          	bgez	a2,3610 <.LBB35_54>
    360c:	c00002b7          	lui	t0,0xc0000

0000000000003610 <.LBB35_54>:
    3610:	00001637          	lui	a2,0x1
    3614:	40c40633          	sub	a2,s0,a2
    3618:	f4563823          	sd	t0,-176(a2) # f50 <.LBB35_3+0xd54>
    361c:	e6043a03          	ld	s4,-416(s0)
    3620:	00001637          	lui	a2,0x1
    3624:	40c40633          	sub	a2,s0,a2
    3628:	6d063603          	ld	a2,1744(a2) # 16d0 <.LBB35_4+0x5a0>
    362c:	01460a33          	add	s4,a2,s4
    3630:	013a063b          	addw	a2,s4,s3
    3634:	400002b7          	lui	t0,0x40000
    3638:	000019b7          	lui	s3,0x1
    363c:	413409b3          	sub	s3,s0,s3
    3640:	f6c9b423          	sd	a2,-152(s3) # f68 <.LBB35_3+0xd6c>
    3644:	00065463          	bgez	a2,364c <.LBB35_56>
    3648:	c00002b7          	lui	t0,0xc0000

000000000000364c <.LBB35_56>:
    364c:	00001637          	lui	a2,0x1
    3650:	40c40633          	sub	a2,s0,a2
    3654:	f6563023          	sd	t0,-160(a2) # f60 <.LBB35_3+0xd64>
    3658:	e9043983          	ld	s3,-368(s0)
    365c:	e2043603          	ld	a2,-480(s0)
    3660:	013609b3          	add	s3,a2,s3
    3664:	0129863b          	addw	a2,s3,s2
    3668:	400002b7          	lui	t0,0x40000
    366c:	e8c43823          	sd	a2,-368(s0)
    3670:	00065463          	bgez	a2,3678 <.LBB35_58>
    3674:	c00002b7          	lui	t0,0xc0000

0000000000003678 <.LBB35_58>:
    3678:	00001637          	lui	a2,0x1
    367c:	40c40633          	sub	a2,s0,a2
    3680:	f6563823          	sd	t0,-144(a2) # f70 <.LBB35_3+0xd74>
    3684:	e8043903          	ld	s2,-384(s0)
    3688:	e3043603          	ld	a2,-464(s0)
    368c:	01260933          	add	s2,a2,s2
    3690:	0099063b          	addw	a2,s2,s1
    3694:	400002b7          	lui	t0,0x40000
    3698:	e8c43023          	sd	a2,-384(s0)
    369c:	00065463          	bgez	a2,36a4 <.LBB35_60>
    36a0:	c00002b7          	lui	t0,0xc0000

00000000000036a4 <.LBB35_60>:
    36a4:	00001637          	lui	a2,0x1
    36a8:	40c40633          	sub	a2,s0,a2
    36ac:	f6563c23          	sd	t0,-136(a2) # f78 <.LBB35_3+0xd7c>
    36b0:	e6843483          	ld	s1,-408(s0)
    36b4:	e4043603          	ld	a2,-448(s0)
    36b8:	009604b3          	add	s1,a2,s1
    36bc:	01f4863b          	addw	a2,s1,t6
    36c0:	400002b7          	lui	t0,0x40000
    36c4:	e6c43023          	sd	a2,-416(s0)
    36c8:	00065463          	bgez	a2,36d0 <.LBB35_62>
    36cc:	c00002b7          	lui	t0,0xc0000

00000000000036d0 <.LBB35_62>:
    36d0:	00001637          	lui	a2,0x1
    36d4:	40c40633          	sub	a2,s0,a2
    36d8:	df763c23          	sd	s7,-520(a2) # df8 <.LBB35_3+0xbfc>
    36dc:	00001637          	lui	a2,0x1
    36e0:	40c40633          	sub	a2,s0,a2
    36e4:	f8563023          	sd	t0,-128(a2) # f80 <.LBB35_3+0xd84>
    36e8:	e7043f83          	ld	t6,-400(s0)
    36ec:	e4843603          	ld	a2,-440(s0)
    36f0:	01f60fb3          	add	t6,a2,t6
    36f4:	016f863b          	addw	a2,t6,s6
    36f8:	400002b7          	lui	t0,0x40000
    36fc:	e2c43c23          	sd	a2,-456(s0)
    3700:	00065463          	bgez	a2,3708 <.LBB35_64>
    3704:	c00002b7          	lui	t0,0xc0000

0000000000003708 <.LBB35_64>:
    3708:	e7843b03          	ld	s6,-392(s0)
    370c:	e5043603          	ld	a2,-432(s0)
    3710:	01660b33          	add	s6,a2,s6
    3714:	00001637          	lui	a2,0x1
    3718:	40c40633          	sub	a2,s0,a2
    371c:	77863603          	ld	a2,1912(a2) # 1778 <.LBB35_5+0xa4>
    3720:	00cb063b          	addw	a2,s6,a2
    3724:	40000bb7          	lui	s7,0x40000
    3728:	e0c43c23          	sd	a2,-488(s0)
    372c:	00065463          	bgez	a2,3734 <.LBB35_66>
    3730:	c0000bb7          	lui	s7,0xc0000

0000000000003734 <.LBB35_66>:
    3734:	f8a43823          	sd	a0,-112(s0)
    3738:	00001537          	lui	a0,0x1
    373c:	40a40533          	sub	a0,s0,a0
    3740:	f9753423          	sd	s7,-120(a0) # f88 <.LBB35_3+0xd8c>
    3744:	e8843b83          	ld	s7,-376(s0)
    3748:	e5843603          	ld	a2,-424(s0)
    374c:	01760bb3          	add	s7,a2,s7
    3750:	018b863b          	addw	a2,s7,s8
    3754:	40000c37          	lui	s8,0x40000
    3758:	00001537          	lui	a0,0x1
    375c:	40a40533          	sub	a0,s0,a0
    3760:	f8c53c23          	sd	a2,-104(a0) # f98 <.LBB35_3+0xd9c>
    3764:	f9043503          	ld	a0,-112(s0)
    3768:	00065463          	bgez	a2,3770 <.LBB35_68>
    376c:	c0000c37          	lui	s8,0xc0000

0000000000003770 <.LBB35_68>:
    3770:	f8b43823          	sd	a1,-112(s0)
    3774:	000015b7          	lui	a1,0x1
    3778:	40b405b3          	sub	a1,s0,a1
    377c:	f985b823          	sd	s8,-112(a1) # f90 <.LBB35_3+0xd94>
    3780:	e9843c03          	ld	s8,-360(s0)
    3784:	01850c33          	add	s8,a0,s8
    3788:	00001537          	lui	a0,0x1
    378c:	40a40533          	sub	a0,s0,a0
    3790:	78853503          	ld	a0,1928(a0) # 1788 <.LBB35_5+0xb4>
    3794:	00ac053b          	addw	a0,s8,a0
    3798:	40000637          	lui	a2,0x40000
    379c:	000015b7          	lui	a1,0x1
    37a0:	40b405b3          	sub	a1,s0,a1
    37a4:	faa5b423          	sd	a0,-88(a1) # fa8 <.LBB35_3+0xdac>
    37a8:	f9043583          	ld	a1,-112(s0)
    37ac:	00055463          	bgez	a0,37b4 <.LBB35_70>
    37b0:	c0000637          	lui	a2,0xc0000

00000000000037b4 <.LBB35_70>:
    37b4:	f8b43823          	sd	a1,-112(s0)
    37b8:	00001537          	lui	a0,0x1
    37bc:	40a40533          	sub	a0,s0,a0
    37c0:	fac53023          	sd	a2,-96(a0) # fa0 <.LBB35_3+0xda4>
    37c4:	00001537          	lui	a0,0x1
    37c8:	40a40533          	sub	a0,s0,a0
    37cc:	79053503          	ld	a0,1936(a0) # 1790 <.LBB35_5+0xbc>
    37d0:	f8843603          	ld	a2,-120(s0)
    37d4:	00a6053b          	addw	a0,a2,a0
    37d8:	40000637          	lui	a2,0x40000
    37dc:	000015b7          	lui	a1,0x1
    37e0:	40b405b3          	sub	a1,s0,a1
    37e4:	faa5bc23          	sd	a0,-72(a1) # fb8 <.LBB35_3+0xdbc>
    37e8:	f9043583          	ld	a1,-112(s0)
    37ec:	00055463          	bgez	a0,37f4 <.LBB35_72>
    37f0:	c0000637          	lui	a2,0xc0000

00000000000037f4 <.LBB35_72>:
    37f4:	f8b43823          	sd	a1,-112(s0)
    37f8:	00001537          	lui	a0,0x1
    37fc:	40a40533          	sub	a0,s0,a0
    3800:	fac53823          	sd	a2,-80(a0) # fb0 <.LBB35_3+0xdb4>
    3804:	00001537          	lui	a0,0x1
    3808:	40a40533          	sub	a0,s0,a0
    380c:	79853503          	ld	a0,1944(a0) # 1798 <.LBB35_5+0xc4>
    3810:	f8043603          	ld	a2,-128(s0)
    3814:	00a6053b          	addw	a0,a2,a0
    3818:	40000637          	lui	a2,0x40000
    381c:	000015b7          	lui	a1,0x1
    3820:	40b405b3          	sub	a1,s0,a1
    3824:	fca5b423          	sd	a0,-56(a1) # fc8 <.LBB35_3+0xdcc>
    3828:	f9043583          	ld	a1,-112(s0)
    382c:	00055463          	bgez	a0,3834 <.LBB35_74>
    3830:	c0000637          	lui	a2,0xc0000

0000000000003834 <.LBB35_74>:
    3834:	f8b43823          	sd	a1,-112(s0)
    3838:	00001537          	lui	a0,0x1
    383c:	40a40533          	sub	a0,s0,a0
    3840:	fcc53023          	sd	a2,-64(a0) # fc0 <.LBB35_3+0xdc4>
    3844:	00001537          	lui	a0,0x1
    3848:	40a40533          	sub	a0,s0,a0
    384c:	7a053503          	ld	a0,1952(a0) # 17a0 <.LBB35_5+0xcc>
    3850:	f7843603          	ld	a2,-136(s0)
    3854:	00a6053b          	addw	a0,a2,a0
    3858:	40000637          	lui	a2,0x40000
    385c:	000015b7          	lui	a1,0x1
    3860:	40b405b3          	sub	a1,s0,a1
    3864:	fca5bc23          	sd	a0,-40(a1) # fd8 <.LBB35_3+0xddc>
    3868:	f9043583          	ld	a1,-112(s0)
    386c:	00055463          	bgez	a0,3874 <.LBB35_76>
    3870:	c0000637          	lui	a2,0xc0000

0000000000003874 <.LBB35_76>:
    3874:	f8b43823          	sd	a1,-112(s0)
    3878:	00001537          	lui	a0,0x1
    387c:	40a40533          	sub	a0,s0,a0
    3880:	fcc53823          	sd	a2,-48(a0) # fd0 <.LBB35_3+0xdd4>
    3884:	00001537          	lui	a0,0x1
    3888:	40a40533          	sub	a0,s0,a0
    388c:	7a853503          	ld	a0,1960(a0) # 17a8 <.LBB35_5+0xd4>
    3890:	f7043603          	ld	a2,-144(s0)
    3894:	00a6053b          	addw	a0,a2,a0
    3898:	40000637          	lui	a2,0x40000
    389c:	000015b7          	lui	a1,0x1
    38a0:	40b405b3          	sub	a1,s0,a1
    38a4:	fea5b423          	sd	a0,-24(a1) # fe8 <.LBB35_3+0xdec>
    38a8:	f9043583          	ld	a1,-112(s0)
    38ac:	00055463          	bgez	a0,38b4 <.LBB35_78>
    38b0:	c0000637          	lui	a2,0xc0000

00000000000038b4 <.LBB35_78>:
    38b4:	f8b43823          	sd	a1,-112(s0)
    38b8:	00001537          	lui	a0,0x1
    38bc:	40a40533          	sub	a0,s0,a0
    38c0:	fec53023          	sd	a2,-32(a0) # fe0 <.LBB35_3+0xde4>
    38c4:	00001537          	lui	a0,0x1
    38c8:	40a40533          	sub	a0,s0,a0
    38cc:	7b053503          	ld	a0,1968(a0) # 17b0 <.LBB35_5+0xdc>
    38d0:	f6843603          	ld	a2,-152(s0)
    38d4:	00a6053b          	addw	a0,a2,a0
    38d8:	40000637          	lui	a2,0x40000
    38dc:	000015b7          	lui	a1,0x1
    38e0:	40b405b3          	sub	a1,s0,a1
    38e4:	fea5bc23          	sd	a0,-8(a1) # ff8 <.LBB35_3+0xdfc>
    38e8:	f9043583          	ld	a1,-112(s0)
    38ec:	00055463          	bgez	a0,38f4 <.LBB35_80>
    38f0:	c0000637          	lui	a2,0xc0000

00000000000038f4 <.LBB35_80>:
    38f4:	f8b43823          	sd	a1,-112(s0)
    38f8:	00001537          	lui	a0,0x1
    38fc:	40a40533          	sub	a0,s0,a0
    3900:	fec53823          	sd	a2,-16(a0) # ff0 <.LBB35_3+0xdf4>
    3904:	00001537          	lui	a0,0x1
    3908:	40a40533          	sub	a0,s0,a0
    390c:	7b853503          	ld	a0,1976(a0) # 17b8 <.LBB35_5+0xe4>
    3910:	f6043603          	ld	a2,-160(s0)
    3914:	00a6053b          	addw	a0,a2,a0
    3918:	40000637          	lui	a2,0x40000
    391c:	000015b7          	lui	a1,0x1
    3920:	40b405b3          	sub	a1,s0,a1
    3924:	00a5b423          	sd	a0,8(a1) # 1008 <.LBB35_3+0xe0c>
    3928:	f9043583          	ld	a1,-112(s0)
    392c:	00055463          	bgez	a0,3934 <.LBB35_82>
    3930:	c0000637          	lui	a2,0xc0000

0000000000003934 <.LBB35_82>:
    3934:	f8b43823          	sd	a1,-112(s0)
    3938:	00001537          	lui	a0,0x1
    393c:	40a40533          	sub	a0,s0,a0
    3940:	00c53023          	sd	a2,0(a0) # 1000 <.LBB35_3+0xe04>
    3944:	00001537          	lui	a0,0x1
    3948:	40a40533          	sub	a0,s0,a0
    394c:	7c053503          	ld	a0,1984(a0) # 17c0 <.LBB35_5+0xec>
    3950:	f5843603          	ld	a2,-168(s0)
    3954:	00a6053b          	addw	a0,a2,a0
    3958:	40000637          	lui	a2,0x40000
    395c:	000015b7          	lui	a1,0x1
    3960:	40b405b3          	sub	a1,s0,a1
    3964:	00a5bc23          	sd	a0,24(a1) # 1018 <.LBB35_3+0xe1c>
    3968:	f9043583          	ld	a1,-112(s0)
    396c:	00055463          	bgez	a0,3974 <.LBB35_84>
    3970:	c0000637          	lui	a2,0xc0000

0000000000003974 <.LBB35_84>:
    3974:	f8b43823          	sd	a1,-112(s0)
    3978:	00001537          	lui	a0,0x1
    397c:	40a40533          	sub	a0,s0,a0
    3980:	00c53823          	sd	a2,16(a0) # 1010 <.LBB35_3+0xe14>
    3984:	00001537          	lui	a0,0x1
    3988:	40a40533          	sub	a0,s0,a0
    398c:	7c853503          	ld	a0,1992(a0) # 17c8 <.LBB35_5+0xf4>
    3990:	f5043603          	ld	a2,-176(s0)
    3994:	00a6053b          	addw	a0,a2,a0
    3998:	40000637          	lui	a2,0x40000
    399c:	000015b7          	lui	a1,0x1
    39a0:	40b405b3          	sub	a1,s0,a1
    39a4:	02a5b423          	sd	a0,40(a1) # 1028 <.LBB35_3+0xe2c>
    39a8:	f9043583          	ld	a1,-112(s0)
    39ac:	00055463          	bgez	a0,39b4 <.LBB35_86>
    39b0:	c0000637          	lui	a2,0xc0000

00000000000039b4 <.LBB35_86>:
    39b4:	f8b43823          	sd	a1,-112(s0)
    39b8:	00001537          	lui	a0,0x1
    39bc:	40a40533          	sub	a0,s0,a0
    39c0:	02c53023          	sd	a2,32(a0) # 1020 <.LBB35_3+0xe24>
    39c4:	00001537          	lui	a0,0x1
    39c8:	40a40533          	sub	a0,s0,a0
    39cc:	7d053503          	ld	a0,2000(a0) # 17d0 <.LBB35_5+0xfc>
    39d0:	f4843603          	ld	a2,-184(s0)
    39d4:	00a6053b          	addw	a0,a2,a0
    39d8:	40000637          	lui	a2,0x40000
    39dc:	000015b7          	lui	a1,0x1
    39e0:	40b405b3          	sub	a1,s0,a1
    39e4:	02a5bc23          	sd	a0,56(a1) # 1038 <.LBB35_3+0xe3c>
    39e8:	f9043583          	ld	a1,-112(s0)
    39ec:	00055463          	bgez	a0,39f4 <.LBB35_88>
    39f0:	c0000637          	lui	a2,0xc0000

00000000000039f4 <.LBB35_88>:
    39f4:	f8b43823          	sd	a1,-112(s0)
    39f8:	00001537          	lui	a0,0x1
    39fc:	40a40533          	sub	a0,s0,a0
    3a00:	02c53823          	sd	a2,48(a0) # 1030 <.LBB35_3+0xe34>
    3a04:	00001537          	lui	a0,0x1
    3a08:	40a40533          	sub	a0,s0,a0
    3a0c:	7d853503          	ld	a0,2008(a0) # 17d8 <.LBB35_5+0x104>
    3a10:	f4043603          	ld	a2,-192(s0)
    3a14:	00a6053b          	addw	a0,a2,a0
    3a18:	40000637          	lui	a2,0x40000
    3a1c:	000015b7          	lui	a1,0x1
    3a20:	40b405b3          	sub	a1,s0,a1
    3a24:	04a5b423          	sd	a0,72(a1) # 1048 <.LBB35_3+0xe4c>
    3a28:	f9043583          	ld	a1,-112(s0)
    3a2c:	00055463          	bgez	a0,3a34 <.LBB35_90>
    3a30:	c0000637          	lui	a2,0xc0000

0000000000003a34 <.LBB35_90>:
    3a34:	f8b43823          	sd	a1,-112(s0)
    3a38:	00001537          	lui	a0,0x1
    3a3c:	40a40533          	sub	a0,s0,a0
    3a40:	04c53023          	sd	a2,64(a0) # 1040 <.LBB35_3+0xe44>
    3a44:	00001537          	lui	a0,0x1
    3a48:	40a40533          	sub	a0,s0,a0
    3a4c:	7e053503          	ld	a0,2016(a0) # 17e0 <.LBB35_5+0x10c>
    3a50:	f3843603          	ld	a2,-200(s0)
    3a54:	00a6053b          	addw	a0,a2,a0
    3a58:	40000637          	lui	a2,0x40000
    3a5c:	000015b7          	lui	a1,0x1
    3a60:	40b405b3          	sub	a1,s0,a1
    3a64:	04a5bc23          	sd	a0,88(a1) # 1058 <.LBB35_3+0xe5c>
    3a68:	f9043583          	ld	a1,-112(s0)
    3a6c:	00055463          	bgez	a0,3a74 <.LBB35_92>
    3a70:	c0000637          	lui	a2,0xc0000

0000000000003a74 <.LBB35_92>:
    3a74:	f8b43823          	sd	a1,-112(s0)
    3a78:	00001537          	lui	a0,0x1
    3a7c:	40a40533          	sub	a0,s0,a0
    3a80:	04c53823          	sd	a2,80(a0) # 1050 <.LBB35_3+0xe54>
    3a84:	00001537          	lui	a0,0x1
    3a88:	40a40533          	sub	a0,s0,a0
    3a8c:	7e853503          	ld	a0,2024(a0) # 17e8 <.LBB35_5+0x114>
    3a90:	f3043603          	ld	a2,-208(s0)
    3a94:	00a6053b          	addw	a0,a2,a0
    3a98:	40000637          	lui	a2,0x40000
    3a9c:	000015b7          	lui	a1,0x1
    3aa0:	40b405b3          	sub	a1,s0,a1
    3aa4:	06a5b423          	sd	a0,104(a1) # 1068 <.LBB35_3+0xe6c>
    3aa8:	f9043583          	ld	a1,-112(s0)
    3aac:	00055463          	bgez	a0,3ab4 <.LBB35_94>
    3ab0:	c0000637          	lui	a2,0xc0000

0000000000003ab4 <.LBB35_94>:
    3ab4:	f8d43823          	sd	a3,-112(s0)
    3ab8:	00001537          	lui	a0,0x1
    3abc:	40a40533          	sub	a0,s0,a0
    3ac0:	06c53023          	sd	a2,96(a0) # 1060 <.LBB35_3+0xe64>
    3ac4:	00001537          	lui	a0,0x1
    3ac8:	40a40533          	sub	a0,s0,a0
    3acc:	7f053503          	ld	a0,2032(a0) # 17f0 <.LBB35_5+0x11c>
    3ad0:	00a5853b          	addw	a0,a1,a0
    3ad4:	40000637          	lui	a2,0x40000
    3ad8:	000016b7          	lui	a3,0x1
    3adc:	40d406b3          	sub	a3,s0,a3
    3ae0:	06a6bc23          	sd	a0,120(a3) # 1078 <.LBB35_3+0xe7c>
    3ae4:	f9043683          	ld	a3,-112(s0)
    3ae8:	00055463          	bgez	a0,3af0 <.LBB35_96>
    3aec:	c0000637          	lui	a2,0xc0000

0000000000003af0 <.LBB35_96>:
    3af0:	f8b43823          	sd	a1,-112(s0)
    3af4:	00001537          	lui	a0,0x1
    3af8:	40a40533          	sub	a0,s0,a0
    3afc:	06c53823          	sd	a2,112(a0) # 1070 <.LBB35_3+0xe74>
    3b00:	00001537          	lui	a0,0x1
    3b04:	40a40533          	sub	a0,s0,a0
    3b08:	7f853503          	ld	a0,2040(a0) # 17f8 <.LBB35_5+0x124>
    3b0c:	00a7853b          	addw	a0,a5,a0
    3b10:	40000637          	lui	a2,0x40000
    3b14:	000015b7          	lui	a1,0x1
    3b18:	40b405b3          	sub	a1,s0,a1
    3b1c:	08a5b423          	sd	a0,136(a1) # 1088 <.LBB35_3+0xe8c>
    3b20:	f9043583          	ld	a1,-112(s0)
    3b24:	00055463          	bgez	a0,3b2c <.LBB35_98>
    3b28:	c0000637          	lui	a2,0xc0000

0000000000003b2c <.LBB35_98>:
    3b2c:	f8b43823          	sd	a1,-112(s0)
    3b30:	00001537          	lui	a0,0x1
    3b34:	40a40533          	sub	a0,s0,a0
    3b38:	08c53023          	sd	a2,128(a0) # 1080 <.LBB35_3+0xe84>
    3b3c:	80043503          	ld	a0,-2048(s0)
    3b40:	00a8853b          	addw	a0,a7,a0
    3b44:	40000637          	lui	a2,0x40000
    3b48:	000015b7          	lui	a1,0x1
    3b4c:	40b405b3          	sub	a1,s0,a1
    3b50:	08a5bc23          	sd	a0,152(a1) # 1098 <.LBB35_3+0xe9c>
    3b54:	f9043583          	ld	a1,-112(s0)
    3b58:	00055463          	bgez	a0,3b60 <.LBB35_100>
    3b5c:	c0000637          	lui	a2,0xc0000

0000000000003b60 <.LBB35_100>:
    3b60:	f8b43823          	sd	a1,-112(s0)
    3b64:	00001537          	lui	a0,0x1
    3b68:	40a40533          	sub	a0,s0,a0
    3b6c:	08c53823          	sd	a2,144(a0) # 1090 <.LBB35_3+0xe94>
    3b70:	80843503          	ld	a0,-2040(s0)
    3b74:	00ad853b          	addw	a0,s11,a0
    3b78:	40000637          	lui	a2,0x40000
    3b7c:	000015b7          	lui	a1,0x1
    3b80:	40b405b3          	sub	a1,s0,a1
    3b84:	0aa5b423          	sd	a0,168(a1) # 10a8 <.LBB35_3+0xeac>
    3b88:	f9043583          	ld	a1,-112(s0)
    3b8c:	00055463          	bgez	a0,3b94 <.LBB35_102>
    3b90:	c0000637          	lui	a2,0xc0000

0000000000003b94 <.LBB35_102>:
    3b94:	f8b43823          	sd	a1,-112(s0)
    3b98:	00001537          	lui	a0,0x1
    3b9c:	40a40533          	sub	a0,s0,a0
    3ba0:	0ac53023          	sd	a2,160(a0) # 10a0 <.LBB35_3+0xea4>
    3ba4:	81043503          	ld	a0,-2032(s0)
    3ba8:	00a6853b          	addw	a0,a3,a0
    3bac:	40000637          	lui	a2,0x40000
    3bb0:	000015b7          	lui	a1,0x1
    3bb4:	40b405b3          	sub	a1,s0,a1
    3bb8:	0aa5bc23          	sd	a0,184(a1) # 10b8 <.LBB35_3+0xebc>
    3bbc:	f9043583          	ld	a1,-112(s0)
    3bc0:	00055463          	bgez	a0,3bc8 <.LBB35_104>
    3bc4:	c0000637          	lui	a2,0xc0000

0000000000003bc8 <.LBB35_104>:
    3bc8:	f8b43823          	sd	a1,-112(s0)
    3bcc:	00001537          	lui	a0,0x1
    3bd0:	40a40533          	sub	a0,s0,a0
    3bd4:	0ac53823          	sd	a2,176(a0) # 10b0 <.LBB35_3+0xeb4>
    3bd8:	81843503          	ld	a0,-2024(s0)
    3bdc:	00ac853b          	addw	a0,s9,a0
    3be0:	40000637          	lui	a2,0x40000
    3be4:	000015b7          	lui	a1,0x1
    3be8:	40b405b3          	sub	a1,s0,a1
    3bec:	0ca5b423          	sd	a0,200(a1) # 10c8 <.LBB35_3+0xecc>
    3bf0:	f9043583          	ld	a1,-112(s0)
    3bf4:	00055463          	bgez	a0,3bfc <.LBB35_106>
    3bf8:	c0000637          	lui	a2,0xc0000

0000000000003bfc <.LBB35_106>:
    3bfc:	f8b43823          	sd	a1,-112(s0)
    3c00:	00001537          	lui	a0,0x1
    3c04:	40a40533          	sub	a0,s0,a0
    3c08:	0cc53023          	sd	a2,192(a0) # 10c0 <.LBB35_3+0xec4>
    3c0c:	82043503          	ld	a0,-2016(s0)
    3c10:	00a3053b          	addw	a0,t1,a0
    3c14:	40000637          	lui	a2,0x40000
    3c18:	000015b7          	lui	a1,0x1
    3c1c:	40b405b3          	sub	a1,s0,a1
    3c20:	0ca5bc23          	sd	a0,216(a1) # 10d8 <.LBB35_3+0xedc>
    3c24:	f9043583          	ld	a1,-112(s0)
    3c28:	00055463          	bgez	a0,3c30 <.LBB35_108>
    3c2c:	c0000637          	lui	a2,0xc0000

0000000000003c30 <.LBB35_108>:
    3c30:	f8b43823          	sd	a1,-112(s0)
    3c34:	00001537          	lui	a0,0x1
    3c38:	40a40533          	sub	a0,s0,a0
    3c3c:	0cc53823          	sd	a2,208(a0) # 10d0 <.LBB35_3+0xed4>
    3c40:	82843503          	ld	a0,-2008(s0)
    3c44:	00a3853b          	addw	a0,t2,a0
    3c48:	40000637          	lui	a2,0x40000
    3c4c:	000015b7          	lui	a1,0x1
    3c50:	40b405b3          	sub	a1,s0,a1
    3c54:	0ea5b423          	sd	a0,232(a1) # 10e8 <.LBB35_3+0xeec>
    3c58:	f9043583          	ld	a1,-112(s0)
    3c5c:	00055463          	bgez	a0,3c64 <.LBB35_110>
    3c60:	c0000637          	lui	a2,0xc0000

0000000000003c64 <.LBB35_110>:
    3c64:	f8b43823          	sd	a1,-112(s0)
    3c68:	00001537          	lui	a0,0x1
    3c6c:	40a40533          	sub	a0,s0,a0
    3c70:	0ec53023          	sd	a2,224(a0) # 10e0 <.LBB35_3+0xee4>
    3c74:	83043503          	ld	a0,-2000(s0)
    3c78:	00ae053b          	addw	a0,t3,a0
    3c7c:	40000637          	lui	a2,0x40000
    3c80:	000015b7          	lui	a1,0x1
    3c84:	40b405b3          	sub	a1,s0,a1
    3c88:	0ea5bc23          	sd	a0,248(a1) # 10f8 <.LBB35_3+0xefc>
    3c8c:	f9043583          	ld	a1,-112(s0)
    3c90:	00055463          	bgez	a0,3c98 <.LBB35_112>
    3c94:	c0000637          	lui	a2,0xc0000

0000000000003c98 <.LBB35_112>:
    3c98:	f8b43823          	sd	a1,-112(s0)
    3c9c:	00001537          	lui	a0,0x1
    3ca0:	40a40533          	sub	a0,s0,a0
    3ca4:	0ec53823          	sd	a2,240(a0) # 10f0 <.LBB35_3+0xef4>
    3ca8:	83843503          	ld	a0,-1992(s0)
    3cac:	00ae853b          	addw	a0,t4,a0
    3cb0:	40000637          	lui	a2,0x40000
    3cb4:	000015b7          	lui	a1,0x1
    3cb8:	40b405b3          	sub	a1,s0,a1
    3cbc:	10a5b423          	sd	a0,264(a1) # 1108 <.LBB35_3+0xf0c>
    3cc0:	f9043583          	ld	a1,-112(s0)
    3cc4:	00055463          	bgez	a0,3ccc <.LBB35_114>
    3cc8:	c0000637          	lui	a2,0xc0000

0000000000003ccc <.LBB35_114>:
    3ccc:	f8b43823          	sd	a1,-112(s0)
    3cd0:	00001537          	lui	a0,0x1
    3cd4:	40a40533          	sub	a0,s0,a0
    3cd8:	10c53023          	sd	a2,256(a0) # 1100 <.LBB35_3+0xf04>
    3cdc:	84043503          	ld	a0,-1984(s0)
    3ce0:	00af053b          	addw	a0,t5,a0
    3ce4:	40000637          	lui	a2,0x40000
    3ce8:	000015b7          	lui	a1,0x1
    3cec:	40b405b3          	sub	a1,s0,a1
    3cf0:	10a5bc23          	sd	a0,280(a1) # 1118 <.LBB35_3+0xf1c>
    3cf4:	f9043583          	ld	a1,-112(s0)
    3cf8:	00055463          	bgez	a0,3d00 <.LBB35_116>
    3cfc:	c0000637          	lui	a2,0xc0000

0000000000003d00 <.LBB35_116>:
    3d00:	f8b43823          	sd	a1,-112(s0)
    3d04:	00001537          	lui	a0,0x1
    3d08:	40a40533          	sub	a0,s0,a0
    3d0c:	10c53823          	sd	a2,272(a0) # 1110 <.LBB35_3+0xf14>
    3d10:	84843503          	ld	a0,-1976(s0)
    3d14:	00aa853b          	addw	a0,s5,a0
    3d18:	40000637          	lui	a2,0x40000
    3d1c:	000015b7          	lui	a1,0x1
    3d20:	40b405b3          	sub	a1,s0,a1
    3d24:	12a5b423          	sd	a0,296(a1) # 1128 <.LBB35_3+0xf2c>
    3d28:	f9043583          	ld	a1,-112(s0)
    3d2c:	00055463          	bgez	a0,3d34 <.LBB35_118>
    3d30:	c0000637          	lui	a2,0xc0000

0000000000003d34 <.LBB35_118>:
    3d34:	f8b43823          	sd	a1,-112(s0)
    3d38:	00001537          	lui	a0,0x1
    3d3c:	40a40533          	sub	a0,s0,a0
    3d40:	12c53023          	sd	a2,288(a0) # 1120 <.LBB35_3+0xf24>
    3d44:	85043503          	ld	a0,-1968(s0)
    3d48:	00aa053b          	addw	a0,s4,a0
    3d4c:	40000637          	lui	a2,0x40000
    3d50:	000015b7          	lui	a1,0x1
    3d54:	40b405b3          	sub	a1,s0,a1
    3d58:	12a5bc23          	sd	a0,312(a1) # 1138 <.LBB35_4+0x8>
    3d5c:	f9043583          	ld	a1,-112(s0)
    3d60:	00055463          	bgez	a0,3d68 <.LBB35_120>
    3d64:	c0000637          	lui	a2,0xc0000

0000000000003d68 <.LBB35_120>:
    3d68:	f8b43823          	sd	a1,-112(s0)
    3d6c:	00001537          	lui	a0,0x1
    3d70:	40a40533          	sub	a0,s0,a0
    3d74:	12c53823          	sd	a2,304(a0) # 1130 <.LBB35_4>
    3d78:	85843503          	ld	a0,-1960(s0)
    3d7c:	00a9853b          	addw	a0,s3,a0
    3d80:	40000637          	lui	a2,0x40000
    3d84:	000015b7          	lui	a1,0x1
    3d88:	40b405b3          	sub	a1,s0,a1
    3d8c:	14a5b423          	sd	a0,328(a1) # 1148 <.LBB35_4+0x18>
    3d90:	f9043583          	ld	a1,-112(s0)
    3d94:	00055463          	bgez	a0,3d9c <.LBB35_122>
    3d98:	c0000637          	lui	a2,0xc0000

0000000000003d9c <.LBB35_122>:
    3d9c:	f8b43823          	sd	a1,-112(s0)
    3da0:	00001537          	lui	a0,0x1
    3da4:	40a40533          	sub	a0,s0,a0
    3da8:	14c53023          	sd	a2,320(a0) # 1140 <.LBB35_4+0x10>
    3dac:	86043503          	ld	a0,-1952(s0)
    3db0:	00a9053b          	addw	a0,s2,a0
    3db4:	40000637          	lui	a2,0x40000
    3db8:	000015b7          	lui	a1,0x1
    3dbc:	40b405b3          	sub	a1,s0,a1
    3dc0:	14a5bc23          	sd	a0,344(a1) # 1158 <.LBB35_4+0x28>
    3dc4:	f9043583          	ld	a1,-112(s0)
    3dc8:	00055463          	bgez	a0,3dd0 <.LBB35_124>
    3dcc:	c0000637          	lui	a2,0xc0000

0000000000003dd0 <.LBB35_124>:
    3dd0:	f8b43823          	sd	a1,-112(s0)
    3dd4:	00001537          	lui	a0,0x1
    3dd8:	40a40533          	sub	a0,s0,a0
    3ddc:	14c53823          	sd	a2,336(a0) # 1150 <.LBB35_4+0x20>
    3de0:	86843503          	ld	a0,-1944(s0)
    3de4:	00a4853b          	addw	a0,s1,a0
    3de8:	40000637          	lui	a2,0x40000
    3dec:	000015b7          	lui	a1,0x1
    3df0:	40b405b3          	sub	a1,s0,a1
    3df4:	16a5b423          	sd	a0,360(a1) # 1168 <.LBB35_4+0x38>
    3df8:	f9043583          	ld	a1,-112(s0)
    3dfc:	00055463          	bgez	a0,3e04 <.LBB35_126>
    3e00:	c0000637          	lui	a2,0xc0000

0000000000003e04 <.LBB35_126>:
    3e04:	f8b43823          	sd	a1,-112(s0)
    3e08:	00001537          	lui	a0,0x1
    3e0c:	40a40533          	sub	a0,s0,a0
    3e10:	16c53023          	sd	a2,352(a0) # 1160 <.LBB35_4+0x30>
    3e14:	87043503          	ld	a0,-1936(s0)
    3e18:	00af853b          	addw	a0,t6,a0
    3e1c:	40000637          	lui	a2,0x40000
    3e20:	000015b7          	lui	a1,0x1
    3e24:	40b405b3          	sub	a1,s0,a1
    3e28:	16a5bc23          	sd	a0,376(a1) # 1178 <.LBB35_4+0x48>
    3e2c:	f9043583          	ld	a1,-112(s0)
    3e30:	00055463          	bgez	a0,3e38 <.LBB35_128>
    3e34:	c0000637          	lui	a2,0xc0000

0000000000003e38 <.LBB35_128>:
    3e38:	f8b43823          	sd	a1,-112(s0)
    3e3c:	00001537          	lui	a0,0x1
    3e40:	40a40533          	sub	a0,s0,a0
    3e44:	16c53823          	sd	a2,368(a0) # 1170 <.LBB35_4+0x40>
    3e48:	87843503          	ld	a0,-1928(s0)
    3e4c:	00ab053b          	addw	a0,s6,a0
    3e50:	40000637          	lui	a2,0x40000
    3e54:	000015b7          	lui	a1,0x1
    3e58:	40b405b3          	sub	a1,s0,a1
    3e5c:	18a5b423          	sd	a0,392(a1) # 1188 <.LBB35_4+0x58>
    3e60:	f9043583          	ld	a1,-112(s0)
    3e64:	00055463          	bgez	a0,3e6c <.LBB35_130>
    3e68:	c0000637          	lui	a2,0xc0000

0000000000003e6c <.LBB35_130>:
    3e6c:	f8b43823          	sd	a1,-112(s0)
    3e70:	00001537          	lui	a0,0x1
    3e74:	40a40533          	sub	a0,s0,a0
    3e78:	18c53023          	sd	a2,384(a0) # 1180 <.LBB35_4+0x50>
    3e7c:	88043503          	ld	a0,-1920(s0)
    3e80:	00ab853b          	addw	a0,s7,a0
    3e84:	40000637          	lui	a2,0x40000
    3e88:	000015b7          	lui	a1,0x1
    3e8c:	40b405b3          	sub	a1,s0,a1
    3e90:	18a5bc23          	sd	a0,408(a1) # 1198 <.LBB35_4+0x68>
    3e94:	f9043583          	ld	a1,-112(s0)
    3e98:	00055463          	bgez	a0,3ea0 <.LBB35_132>
    3e9c:	c0000637          	lui	a2,0xc0000

0000000000003ea0 <.LBB35_132>:
    3ea0:	f8b43823          	sd	a1,-112(s0)
    3ea4:	00001537          	lui	a0,0x1
    3ea8:	40a40533          	sub	a0,s0,a0
    3eac:	18c53823          	sd	a2,400(a0) # 1190 <.LBB35_4+0x60>
    3eb0:	88843503          	ld	a0,-1912(s0)
    3eb4:	00ac053b          	addw	a0,s8,a0
    3eb8:	40000637          	lui	a2,0x40000
    3ebc:	000015b7          	lui	a1,0x1
    3ec0:	40b405b3          	sub	a1,s0,a1
    3ec4:	1aa5b423          	sd	a0,424(a1) # 11a8 <.LBB35_4+0x78>
    3ec8:	f9043583          	ld	a1,-112(s0)
    3ecc:	00055463          	bgez	a0,3ed4 <.LBB35_134>
    3ed0:	c0000637          	lui	a2,0xc0000

0000000000003ed4 <.LBB35_134>:
    3ed4:	f8b43823          	sd	a1,-112(s0)
    3ed8:	00001537          	lui	a0,0x1
    3edc:	40a40533          	sub	a0,s0,a0
    3ee0:	1ac53023          	sd	a2,416(a0) # 11a0 <.LBB35_4+0x70>
    3ee4:	89043503          	ld	a0,-1904(s0)
    3ee8:	f8843603          	ld	a2,-120(s0)
    3eec:	00a6053b          	addw	a0,a2,a0
    3ef0:	40000637          	lui	a2,0x40000
    3ef4:	000015b7          	lui	a1,0x1
    3ef8:	40b405b3          	sub	a1,s0,a1
    3efc:	1aa5bc23          	sd	a0,440(a1) # 11b8 <.LBB35_4+0x88>
    3f00:	f9043583          	ld	a1,-112(s0)
    3f04:	00055463          	bgez	a0,3f0c <.LBB35_136>
    3f08:	c0000637          	lui	a2,0xc0000

0000000000003f0c <.LBB35_136>:
    3f0c:	f8b43823          	sd	a1,-112(s0)
    3f10:	00001537          	lui	a0,0x1
    3f14:	40a40533          	sub	a0,s0,a0
    3f18:	1ac53823          	sd	a2,432(a0) # 11b0 <.LBB35_4+0x80>
    3f1c:	89843503          	ld	a0,-1896(s0)
    3f20:	f8043603          	ld	a2,-128(s0)
    3f24:	00a6053b          	addw	a0,a2,a0
    3f28:	40000637          	lui	a2,0x40000
    3f2c:	000015b7          	lui	a1,0x1
    3f30:	40b405b3          	sub	a1,s0,a1
    3f34:	1ca5b423          	sd	a0,456(a1) # 11c8 <.LBB35_4+0x98>
    3f38:	f9043583          	ld	a1,-112(s0)
    3f3c:	00055463          	bgez	a0,3f44 <.LBB35_138>
    3f40:	c0000637          	lui	a2,0xc0000

0000000000003f44 <.LBB35_138>:
    3f44:	f8b43823          	sd	a1,-112(s0)
    3f48:	00001537          	lui	a0,0x1
    3f4c:	40a40533          	sub	a0,s0,a0
    3f50:	1cc53023          	sd	a2,448(a0) # 11c0 <.LBB35_4+0x90>
    3f54:	8a043503          	ld	a0,-1888(s0)
    3f58:	f7843603          	ld	a2,-136(s0)
    3f5c:	00a6053b          	addw	a0,a2,a0
    3f60:	40000637          	lui	a2,0x40000
    3f64:	000015b7          	lui	a1,0x1
    3f68:	40b405b3          	sub	a1,s0,a1
    3f6c:	1ca5bc23          	sd	a0,472(a1) # 11d8 <.LBB35_4+0xa8>
    3f70:	f9043583          	ld	a1,-112(s0)
    3f74:	00055463          	bgez	a0,3f7c <.LBB35_140>
    3f78:	c0000637          	lui	a2,0xc0000

0000000000003f7c <.LBB35_140>:
    3f7c:	f8b43823          	sd	a1,-112(s0)
    3f80:	00001537          	lui	a0,0x1
    3f84:	40a40533          	sub	a0,s0,a0
    3f88:	1cc53823          	sd	a2,464(a0) # 11d0 <.LBB35_4+0xa0>
    3f8c:	8a843503          	ld	a0,-1880(s0)
    3f90:	f7043603          	ld	a2,-144(s0)
    3f94:	00a6053b          	addw	a0,a2,a0
    3f98:	40000637          	lui	a2,0x40000
    3f9c:	000015b7          	lui	a1,0x1
    3fa0:	40b405b3          	sub	a1,s0,a1
    3fa4:	1ea5b423          	sd	a0,488(a1) # 11e8 <.LBB35_4+0xb8>
    3fa8:	f9043583          	ld	a1,-112(s0)
    3fac:	00055463          	bgez	a0,3fb4 <.LBB35_142>
    3fb0:	c0000637          	lui	a2,0xc0000

0000000000003fb4 <.LBB35_142>:
    3fb4:	00001537          	lui	a0,0x1
    3fb8:	40a40533          	sub	a0,s0,a0
    3fbc:	1ec53023          	sd	a2,480(a0) # 11e0 <.LBB35_4+0xb0>
    3fc0:	8b043503          	ld	a0,-1872(s0)
    3fc4:	f6843603          	ld	a2,-152(s0)
    3fc8:	00a6053b          	addw	a0,a2,a0
    3fcc:	40000637          	lui	a2,0x40000
    3fd0:	88a43823          	sd	a0,-1904(s0)
    3fd4:	00055463          	bgez	a0,3fdc <.LBB35_144>
    3fd8:	c0000637          	lui	a2,0xc0000

0000000000003fdc <.LBB35_144>:
    3fdc:	00001537          	lui	a0,0x1
    3fe0:	40a40533          	sub	a0,s0,a0
    3fe4:	1ec53823          	sd	a2,496(a0) # 11f0 <.LBB35_4+0xc0>
    3fe8:	8b843503          	ld	a0,-1864(s0)
    3fec:	f6043603          	ld	a2,-160(s0)
    3ff0:	00a6053b          	addw	a0,a2,a0
    3ff4:	40000637          	lui	a2,0x40000
    3ff8:	86a43823          	sd	a0,-1936(s0)
    3ffc:	00055463          	bgez	a0,4004 <.LBB35_146>
    4000:	c0000637          	lui	a2,0xc0000

0000000000004004 <.LBB35_146>:
    4004:	00001537          	lui	a0,0x1
    4008:	40a40533          	sub	a0,s0,a0
    400c:	1ec53c23          	sd	a2,504(a0) # 11f8 <.LBB35_4+0xc8>
    4010:	8c043503          	ld	a0,-1856(s0)
    4014:	f5843603          	ld	a2,-168(s0)
    4018:	00a6053b          	addw	a0,a2,a0
    401c:	40000637          	lui	a2,0x40000
    4020:	84a43823          	sd	a0,-1968(s0)
    4024:	00055463          	bgez	a0,402c <.LBB35_148>
    4028:	c0000637          	lui	a2,0xc0000

000000000000402c <.LBB35_148>:
    402c:	00001537          	lui	a0,0x1
    4030:	40a40533          	sub	a0,s0,a0
    4034:	20c53023          	sd	a2,512(a0) # 1200 <.LBB35_4+0xd0>
    4038:	8c843503          	ld	a0,-1848(s0)
    403c:	f5043603          	ld	a2,-176(s0)
    4040:	00a6053b          	addw	a0,a2,a0
    4044:	40000637          	lui	a2,0x40000
    4048:	82a43423          	sd	a0,-2008(s0)
    404c:	00055463          	bgez	a0,4054 <.LBB35_150>
    4050:	c0000637          	lui	a2,0xc0000

0000000000004054 <.LBB35_150>:
    4054:	00001537          	lui	a0,0x1
    4058:	40a40533          	sub	a0,s0,a0
    405c:	20c53423          	sd	a2,520(a0) # 1208 <.LBB35_4+0xd8>
    4060:	8d043503          	ld	a0,-1840(s0)
    4064:	f4843603          	ld	a2,-184(s0)
    4068:	00a6053b          	addw	a0,a2,a0
    406c:	40000637          	lui	a2,0x40000
    4070:	80a43023          	sd	a0,-2048(s0)
    4074:	00055463          	bgez	a0,407c <.LBB35_152>
    4078:	c0000637          	lui	a2,0xc0000

000000000000407c <.LBB35_152>:
    407c:	f8b43823          	sd	a1,-112(s0)
    4080:	00001537          	lui	a0,0x1
    4084:	40a40533          	sub	a0,s0,a0
    4088:	20c53823          	sd	a2,528(a0) # 1210 <.LBB35_4+0xe0>
    408c:	8d843503          	ld	a0,-1832(s0)
    4090:	f4043603          	ld	a2,-192(s0)
    4094:	00a6053b          	addw	a0,a2,a0
    4098:	40000637          	lui	a2,0x40000
    409c:	000015b7          	lui	a1,0x1
    40a0:	40b405b3          	sub	a1,s0,a1
    40a4:	7ca5bc23          	sd	a0,2008(a1) # 17d8 <.LBB35_5+0x104>
    40a8:	f9043583          	ld	a1,-112(s0)
    40ac:	00055463          	bgez	a0,40b4 <.LBB35_154>
    40b0:	c0000637          	lui	a2,0xc0000

00000000000040b4 <.LBB35_154>:
    40b4:	f8b43823          	sd	a1,-112(s0)
    40b8:	00001537          	lui	a0,0x1
    40bc:	40a40533          	sub	a0,s0,a0
    40c0:	20c53c23          	sd	a2,536(a0) # 1218 <.LBB35_4+0xe8>
    40c4:	8e043503          	ld	a0,-1824(s0)
    40c8:	f3843603          	ld	a2,-200(s0)
    40cc:	00a6053b          	addw	a0,a2,a0
    40d0:	40000637          	lui	a2,0x40000
    40d4:	000015b7          	lui	a1,0x1
    40d8:	40b405b3          	sub	a1,s0,a1
    40dc:	7aa5b823          	sd	a0,1968(a1) # 17b0 <.LBB35_5+0xdc>
    40e0:	f9043583          	ld	a1,-112(s0)
    40e4:	00055463          	bgez	a0,40ec <.LBB35_156>
    40e8:	c0000637          	lui	a2,0xc0000

00000000000040ec <.LBB35_156>:
    40ec:	f8b43823          	sd	a1,-112(s0)
    40f0:	00001537          	lui	a0,0x1
    40f4:	40a40533          	sub	a0,s0,a0
    40f8:	22c53023          	sd	a2,544(a0) # 1220 <.LBB35_4+0xf0>
    40fc:	8e843503          	ld	a0,-1816(s0)
    4100:	f3043603          	ld	a2,-208(s0)
    4104:	00a6053b          	addw	a0,a2,a0
    4108:	40000637          	lui	a2,0x40000
    410c:	000015b7          	lui	a1,0x1
    4110:	40b405b3          	sub	a1,s0,a1
    4114:	78a5b823          	sd	a0,1936(a1) # 1790 <.LBB35_5+0xbc>
    4118:	f9043583          	ld	a1,-112(s0)
    411c:	00055463          	bgez	a0,4124 <.LBB35_158>
    4120:	c0000637          	lui	a2,0xc0000

0000000000004124 <.LBB35_158>:
    4124:	f8d43823          	sd	a3,-112(s0)
    4128:	00001537          	lui	a0,0x1
    412c:	40a40533          	sub	a0,s0,a0
    4130:	22c53423          	sd	a2,552(a0) # 1228 <.LBB35_4+0xf8>
    4134:	8f043503          	ld	a0,-1808(s0)
    4138:	00a5853b          	addw	a0,a1,a0
    413c:	40000637          	lui	a2,0x40000
    4140:	000016b7          	lui	a3,0x1
    4144:	40d406b3          	sub	a3,s0,a3
    4148:	76a6b823          	sd	a0,1904(a3) # 1770 <.LBB35_5+0x9c>
    414c:	f9043683          	ld	a3,-112(s0)
    4150:	00055463          	bgez	a0,4158 <.LBB35_160>
    4154:	c0000637          	lui	a2,0xc0000

0000000000004158 <.LBB35_160>:
    4158:	f8b43823          	sd	a1,-112(s0)
    415c:	00001537          	lui	a0,0x1
    4160:	40a40533          	sub	a0,s0,a0
    4164:	22c53823          	sd	a2,560(a0) # 1230 <.LBB35_4+0x100>
    4168:	8f843503          	ld	a0,-1800(s0)
    416c:	00a7853b          	addw	a0,a5,a0
    4170:	40000637          	lui	a2,0x40000
    4174:	000015b7          	lui	a1,0x1
    4178:	40b405b3          	sub	a1,s0,a1
    417c:	74a5b423          	sd	a0,1864(a1) # 1748 <.LBB35_5+0x74>
    4180:	f9043583          	ld	a1,-112(s0)
    4184:	00055463          	bgez	a0,418c <.LBB35_162>
    4188:	c0000637          	lui	a2,0xc0000

000000000000418c <.LBB35_162>:
    418c:	f8b43823          	sd	a1,-112(s0)
    4190:	00001537          	lui	a0,0x1
    4194:	40a40533          	sub	a0,s0,a0
    4198:	22c53c23          	sd	a2,568(a0) # 1238 <.LBB35_4+0x108>
    419c:	90043503          	ld	a0,-1792(s0)
    41a0:	00a8853b          	addw	a0,a7,a0
    41a4:	40000637          	lui	a2,0x40000
    41a8:	000015b7          	lui	a1,0x1
    41ac:	40b405b3          	sub	a1,s0,a1
    41b0:	72a5b023          	sd	a0,1824(a1) # 1720 <.LBB35_5+0x4c>
    41b4:	f9043583          	ld	a1,-112(s0)
    41b8:	00055463          	bgez	a0,41c0 <.LBB35_164>
    41bc:	c0000637          	lui	a2,0xc0000

00000000000041c0 <.LBB35_164>:
    41c0:	f8b43823          	sd	a1,-112(s0)
    41c4:	00001537          	lui	a0,0x1
    41c8:	40a40533          	sub	a0,s0,a0
    41cc:	24c53023          	sd	a2,576(a0) # 1240 <.LBB35_4+0x110>
    41d0:	90843503          	ld	a0,-1784(s0)
    41d4:	00ad853b          	addw	a0,s11,a0
    41d8:	40000637          	lui	a2,0x40000
    41dc:	000015b7          	lui	a1,0x1
    41e0:	40b405b3          	sub	a1,s0,a1
    41e4:	6ea5bc23          	sd	a0,1784(a1) # 16f8 <.LBB35_5+0x24>
    41e8:	f9043583          	ld	a1,-112(s0)
    41ec:	00055463          	bgez	a0,41f4 <.LBB35_166>
    41f0:	c0000637          	lui	a2,0xc0000

00000000000041f4 <.LBB35_166>:
    41f4:	f8b43823          	sd	a1,-112(s0)
    41f8:	00001537          	lui	a0,0x1
    41fc:	40a40533          	sub	a0,s0,a0
    4200:	24c53423          	sd	a2,584(a0) # 1248 <.LBB35_4+0x118>
    4204:	91043503          	ld	a0,-1776(s0)
    4208:	00a6853b          	addw	a0,a3,a0
    420c:	40000637          	lui	a2,0x40000
    4210:	000015b7          	lui	a1,0x1
    4214:	40b405b3          	sub	a1,s0,a1
    4218:	6ca5b823          	sd	a0,1744(a1) # 16d0 <.LBB35_4+0x5a0>
    421c:	f9043583          	ld	a1,-112(s0)
    4220:	00055463          	bgez	a0,4228 <.LBB35_168>
    4224:	c0000637          	lui	a2,0xc0000

0000000000004228 <.LBB35_168>:
    4228:	f8b43823          	sd	a1,-112(s0)
    422c:	00001537          	lui	a0,0x1
    4230:	40a40533          	sub	a0,s0,a0
    4234:	24c53823          	sd	a2,592(a0) # 1250 <.LBB35_4+0x120>
    4238:	91843503          	ld	a0,-1768(s0)
    423c:	00ac853b          	addw	a0,s9,a0
    4240:	40000637          	lui	a2,0x40000
    4244:	000015b7          	lui	a1,0x1
    4248:	40b405b3          	sub	a1,s0,a1
    424c:	6aa5b823          	sd	a0,1712(a1) # 16b0 <.LBB35_4+0x580>
    4250:	f9043583          	ld	a1,-112(s0)
    4254:	00055463          	bgez	a0,425c <.LBB35_170>
    4258:	c0000637          	lui	a2,0xc0000

000000000000425c <.LBB35_170>:
    425c:	f8b43823          	sd	a1,-112(s0)
    4260:	00001537          	lui	a0,0x1
    4264:	40a40533          	sub	a0,s0,a0
    4268:	24c53c23          	sd	a2,600(a0) # 1258 <.LBB35_4+0x128>
    426c:	92043503          	ld	a0,-1760(s0)
    4270:	00a3053b          	addw	a0,t1,a0
    4274:	40000637          	lui	a2,0x40000
    4278:	000015b7          	lui	a1,0x1
    427c:	40b405b3          	sub	a1,s0,a1
    4280:	68a5b823          	sd	a0,1680(a1) # 1690 <.LBB35_4+0x560>
    4284:	f9043583          	ld	a1,-112(s0)
    4288:	00055463          	bgez	a0,4290 <.LBB35_172>
    428c:	c0000637          	lui	a2,0xc0000

0000000000004290 <.LBB35_172>:
    4290:	f8b43823          	sd	a1,-112(s0)
    4294:	00001537          	lui	a0,0x1
    4298:	40a40533          	sub	a0,s0,a0
    429c:	26c53023          	sd	a2,608(a0) # 1260 <.LBB35_4+0x130>
    42a0:	92843503          	ld	a0,-1752(s0)
    42a4:	00a3853b          	addw	a0,t2,a0
    42a8:	40000637          	lui	a2,0x40000
    42ac:	000015b7          	lui	a1,0x1
    42b0:	40b405b3          	sub	a1,s0,a1
    42b4:	66a5b423          	sd	a0,1640(a1) # 1668 <.LBB35_4+0x538>
    42b8:	f9043583          	ld	a1,-112(s0)
    42bc:	00055463          	bgez	a0,42c4 <.LBB35_174>
    42c0:	c0000637          	lui	a2,0xc0000

00000000000042c4 <.LBB35_174>:
    42c4:	f8b43823          	sd	a1,-112(s0)
    42c8:	00001537          	lui	a0,0x1
    42cc:	40a40533          	sub	a0,s0,a0
    42d0:	26c53423          	sd	a2,616(a0) # 1268 <.LBB35_4+0x138>
    42d4:	93043503          	ld	a0,-1744(s0)
    42d8:	00ae053b          	addw	a0,t3,a0
    42dc:	40000637          	lui	a2,0x40000
    42e0:	000015b7          	lui	a1,0x1
    42e4:	40b405b3          	sub	a1,s0,a1
    42e8:	62a5b423          	sd	a0,1576(a1) # 1628 <.LBB35_4+0x4f8>
    42ec:	f9043583          	ld	a1,-112(s0)
    42f0:	00055463          	bgez	a0,42f8 <.LBB35_176>
    42f4:	c0000637          	lui	a2,0xc0000

00000000000042f8 <.LBB35_176>:
    42f8:	f8b43823          	sd	a1,-112(s0)
    42fc:	00001537          	lui	a0,0x1
    4300:	40a40533          	sub	a0,s0,a0
    4304:	26c53823          	sd	a2,624(a0) # 1270 <.LBB35_4+0x140>
    4308:	93843503          	ld	a0,-1736(s0)
    430c:	00ae853b          	addw	a0,t4,a0
    4310:	40000637          	lui	a2,0x40000
    4314:	000015b7          	lui	a1,0x1
    4318:	40b405b3          	sub	a1,s0,a1
    431c:	60a5b023          	sd	a0,1536(a1) # 1600 <.LBB35_4+0x4d0>
    4320:	f9043583          	ld	a1,-112(s0)
    4324:	00055463          	bgez	a0,432c <.LBB35_178>
    4328:	c0000637          	lui	a2,0xc0000

000000000000432c <.LBB35_178>:
    432c:	f8b43823          	sd	a1,-112(s0)
    4330:	00001537          	lui	a0,0x1
    4334:	40a40533          	sub	a0,s0,a0
    4338:	26c53c23          	sd	a2,632(a0) # 1278 <.LBB35_4+0x148>
    433c:	94043503          	ld	a0,-1728(s0)
    4340:	00af053b          	addw	a0,t5,a0
    4344:	40000637          	lui	a2,0x40000
    4348:	000015b7          	lui	a1,0x1
    434c:	40b405b3          	sub	a1,s0,a1
    4350:	5ca5bc23          	sd	a0,1496(a1) # 15d8 <.LBB35_4+0x4a8>
    4354:	f9043583          	ld	a1,-112(s0)
    4358:	00055463          	bgez	a0,4360 <.LBB35_180>
    435c:	c0000637          	lui	a2,0xc0000

0000000000004360 <.LBB35_180>:
    4360:	f8b43823          	sd	a1,-112(s0)
    4364:	00001537          	lui	a0,0x1
    4368:	40a40533          	sub	a0,s0,a0
    436c:	28c53023          	sd	a2,640(a0) # 1280 <.LBB35_4+0x150>
    4370:	94843503          	ld	a0,-1720(s0)
    4374:	00aa853b          	addw	a0,s5,a0
    4378:	40000637          	lui	a2,0x40000
    437c:	000015b7          	lui	a1,0x1
    4380:	40b405b3          	sub	a1,s0,a1
    4384:	5aa5bc23          	sd	a0,1464(a1) # 15b8 <.LBB35_4+0x488>
    4388:	f9043583          	ld	a1,-112(s0)
    438c:	00055463          	bgez	a0,4394 <.LBB35_182>
    4390:	c0000637          	lui	a2,0xc0000

0000000000004394 <.LBB35_182>:
    4394:	f8b43823          	sd	a1,-112(s0)
    4398:	00001537          	lui	a0,0x1
    439c:	40a40533          	sub	a0,s0,a0
    43a0:	28c53423          	sd	a2,648(a0) # 1288 <.LBB35_4+0x158>
    43a4:	95043503          	ld	a0,-1712(s0)
    43a8:	00aa053b          	addw	a0,s4,a0
    43ac:	40000637          	lui	a2,0x40000
    43b0:	000015b7          	lui	a1,0x1
    43b4:	40b405b3          	sub	a1,s0,a1
    43b8:	58a5bc23          	sd	a0,1432(a1) # 1598 <.LBB35_4+0x468>
    43bc:	f9043583          	ld	a1,-112(s0)
    43c0:	00055463          	bgez	a0,43c8 <.LBB35_184>
    43c4:	c0000637          	lui	a2,0xc0000

00000000000043c8 <.LBB35_184>:
    43c8:	f8b43823          	sd	a1,-112(s0)
    43cc:	00001537          	lui	a0,0x1
    43d0:	40a40533          	sub	a0,s0,a0
    43d4:	28c53823          	sd	a2,656(a0) # 1290 <.LBB35_4+0x160>
    43d8:	95843503          	ld	a0,-1704(s0)
    43dc:	00a9853b          	addw	a0,s3,a0
    43e0:	40000637          	lui	a2,0x40000
    43e4:	000015b7          	lui	a1,0x1
    43e8:	40b405b3          	sub	a1,s0,a1
    43ec:	56a5b823          	sd	a0,1392(a1) # 1570 <.LBB35_4+0x440>
    43f0:	f9043583          	ld	a1,-112(s0)
    43f4:	00055463          	bgez	a0,43fc <.LBB35_186>
    43f8:	c0000637          	lui	a2,0xc0000

00000000000043fc <.LBB35_186>:
    43fc:	f8b43823          	sd	a1,-112(s0)
    4400:	00001537          	lui	a0,0x1
    4404:	40a40533          	sub	a0,s0,a0
    4408:	28c53c23          	sd	a2,664(a0) # 1298 <.LBB35_4+0x168>
    440c:	96043503          	ld	a0,-1696(s0)
    4410:	00a9053b          	addw	a0,s2,a0
    4414:	40000637          	lui	a2,0x40000
    4418:	000015b7          	lui	a1,0x1
    441c:	40b405b3          	sub	a1,s0,a1
    4420:	54a5b423          	sd	a0,1352(a1) # 1548 <.LBB35_4+0x418>
    4424:	f9043583          	ld	a1,-112(s0)
    4428:	00055463          	bgez	a0,4430 <.LBB35_188>
    442c:	c0000637          	lui	a2,0xc0000

0000000000004430 <.LBB35_188>:
    4430:	f8b43823          	sd	a1,-112(s0)
    4434:	00001537          	lui	a0,0x1
    4438:	40a40533          	sub	a0,s0,a0
    443c:	2ac53023          	sd	a2,672(a0) # 12a0 <.LBB35_4+0x170>
    4440:	96843503          	ld	a0,-1688(s0)
    4444:	00a4853b          	addw	a0,s1,a0
    4448:	40000637          	lui	a2,0x40000
    444c:	000015b7          	lui	a1,0x1
    4450:	40b405b3          	sub	a1,s0,a1
    4454:	52a5b023          	sd	a0,1312(a1) # 1520 <.LBB35_4+0x3f0>
    4458:	f9043583          	ld	a1,-112(s0)
    445c:	00055463          	bgez	a0,4464 <.LBB35_190>
    4460:	c0000637          	lui	a2,0xc0000

0000000000004464 <.LBB35_190>:
    4464:	f8b43823          	sd	a1,-112(s0)
    4468:	00001537          	lui	a0,0x1
    446c:	40a40533          	sub	a0,s0,a0
    4470:	2ac53423          	sd	a2,680(a0) # 12a8 <.LBB35_4+0x178>
    4474:	97043503          	ld	a0,-1680(s0)
    4478:	00af853b          	addw	a0,t6,a0
    447c:	40000637          	lui	a2,0x40000
    4480:	000015b7          	lui	a1,0x1
    4484:	40b405b3          	sub	a1,s0,a1
    4488:	4ea5bc23          	sd	a0,1272(a1) # 14f8 <.LBB35_4+0x3c8>
    448c:	f9043583          	ld	a1,-112(s0)
    4490:	00055463          	bgez	a0,4498 <.LBB35_192>
    4494:	c0000637          	lui	a2,0xc0000

0000000000004498 <.LBB35_192>:
    4498:	f8b43823          	sd	a1,-112(s0)
    449c:	00001537          	lui	a0,0x1
    44a0:	40a40533          	sub	a0,s0,a0
    44a4:	2ac53823          	sd	a2,688(a0) # 12b0 <.LBB35_4+0x180>
    44a8:	97843503          	ld	a0,-1672(s0)
    44ac:	00ab053b          	addw	a0,s6,a0
    44b0:	40000637          	lui	a2,0x40000
    44b4:	000015b7          	lui	a1,0x1
    44b8:	40b405b3          	sub	a1,s0,a1
    44bc:	4ca5bc23          	sd	a0,1240(a1) # 14d8 <.LBB35_4+0x3a8>
    44c0:	f9043583          	ld	a1,-112(s0)
    44c4:	00055463          	bgez	a0,44cc <.LBB35_194>
    44c8:	c0000637          	lui	a2,0xc0000

00000000000044cc <.LBB35_194>:
    44cc:	f8b43823          	sd	a1,-112(s0)
    44d0:	00001537          	lui	a0,0x1
    44d4:	40a40533          	sub	a0,s0,a0
    44d8:	2ac53c23          	sd	a2,696(a0) # 12b8 <.LBB35_4+0x188>
    44dc:	98043503          	ld	a0,-1664(s0)
    44e0:	00ab853b          	addw	a0,s7,a0
    44e4:	40000637          	lui	a2,0x40000
    44e8:	000015b7          	lui	a1,0x1
    44ec:	40b405b3          	sub	a1,s0,a1
    44f0:	4aa5bc23          	sd	a0,1208(a1) # 14b8 <.LBB35_4+0x388>
    44f4:	f9043583          	ld	a1,-112(s0)
    44f8:	00055463          	bgez	a0,4500 <.LBB35_196>
    44fc:	c0000637          	lui	a2,0xc0000

0000000000004500 <.LBB35_196>:
    4500:	f8b43823          	sd	a1,-112(s0)
    4504:	00001537          	lui	a0,0x1
    4508:	40a40533          	sub	a0,s0,a0
    450c:	2cc53023          	sd	a2,704(a0) # 12c0 <.LBB35_4+0x190>
    4510:	98843503          	ld	a0,-1656(s0)
    4514:	00ac053b          	addw	a0,s8,a0
    4518:	40000637          	lui	a2,0x40000
    451c:	000015b7          	lui	a1,0x1
    4520:	40b405b3          	sub	a1,s0,a1
    4524:	48a5b823          	sd	a0,1168(a1) # 1490 <.LBB35_4+0x360>
    4528:	f9043583          	ld	a1,-112(s0)
    452c:	00055463          	bgez	a0,4534 <.LBB35_198>
    4530:	c0000637          	lui	a2,0xc0000

0000000000004534 <.LBB35_198>:
    4534:	f8b43823          	sd	a1,-112(s0)
    4538:	00001537          	lui	a0,0x1
    453c:	40a40533          	sub	a0,s0,a0
    4540:	2cc53423          	sd	a2,712(a0) # 12c8 <.LBB35_4+0x198>
    4544:	99043503          	ld	a0,-1648(s0)
    4548:	f8843603          	ld	a2,-120(s0)
    454c:	00a6053b          	addw	a0,a2,a0
    4550:	40000637          	lui	a2,0x40000
    4554:	000015b7          	lui	a1,0x1
    4558:	40b405b3          	sub	a1,s0,a1
    455c:	46a5b423          	sd	a0,1128(a1) # 1468 <.LBB35_4+0x338>
    4560:	f9043583          	ld	a1,-112(s0)
    4564:	00055463          	bgez	a0,456c <.LBB35_200>
    4568:	c0000637          	lui	a2,0xc0000

000000000000456c <.LBB35_200>:
    456c:	f8b43823          	sd	a1,-112(s0)
    4570:	00001537          	lui	a0,0x1
    4574:	40a40533          	sub	a0,s0,a0
    4578:	2cc53823          	sd	a2,720(a0) # 12d0 <.LBB35_4+0x1a0>
    457c:	99843503          	ld	a0,-1640(s0)
    4580:	f8043603          	ld	a2,-128(s0)
    4584:	00a6053b          	addw	a0,a2,a0
    4588:	40000637          	lui	a2,0x40000
    458c:	000015b7          	lui	a1,0x1
    4590:	40b405b3          	sub	a1,s0,a1
    4594:	44a5b023          	sd	a0,1088(a1) # 1440 <.LBB35_4+0x310>
    4598:	f9043583          	ld	a1,-112(s0)
    459c:	00055463          	bgez	a0,45a4 <.LBB35_202>
    45a0:	c0000637          	lui	a2,0xc0000

00000000000045a4 <.LBB35_202>:
    45a4:	f8b43823          	sd	a1,-112(s0)
    45a8:	00001537          	lui	a0,0x1
    45ac:	40a40533          	sub	a0,s0,a0
    45b0:	2cc53c23          	sd	a2,728(a0) # 12d8 <.LBB35_4+0x1a8>
    45b4:	9a043503          	ld	a0,-1632(s0)
    45b8:	f7843603          	ld	a2,-136(s0)
    45bc:	00a6053b          	addw	a0,a2,a0
    45c0:	40000637          	lui	a2,0x40000
    45c4:	000015b7          	lui	a1,0x1
    45c8:	40b405b3          	sub	a1,s0,a1
    45cc:	42a5b023          	sd	a0,1056(a1) # 1420 <.LBB35_4+0x2f0>
    45d0:	f9043583          	ld	a1,-112(s0)
    45d4:	00055463          	bgez	a0,45dc <.LBB35_204>
    45d8:	c0000637          	lui	a2,0xc0000

00000000000045dc <.LBB35_204>:
    45dc:	f8b43823          	sd	a1,-112(s0)
    45e0:	00001537          	lui	a0,0x1
    45e4:	40a40533          	sub	a0,s0,a0
    45e8:	2ec53023          	sd	a2,736(a0) # 12e0 <.LBB35_4+0x1b0>
    45ec:	9a843503          	ld	a0,-1624(s0)
    45f0:	f7043603          	ld	a2,-144(s0)
    45f4:	00a6053b          	addw	a0,a2,a0
    45f8:	40000637          	lui	a2,0x40000
    45fc:	000015b7          	lui	a1,0x1
    4600:	40b405b3          	sub	a1,s0,a1
    4604:	40a5b023          	sd	a0,1024(a1) # 1400 <.LBB35_4+0x2d0>
    4608:	f9043583          	ld	a1,-112(s0)
    460c:	00055463          	bgez	a0,4614 <.LBB35_206>
    4610:	c0000637          	lui	a2,0xc0000

0000000000004614 <.LBB35_206>:
    4614:	f8b43823          	sd	a1,-112(s0)
    4618:	00001537          	lui	a0,0x1
    461c:	40a40533          	sub	a0,s0,a0
    4620:	2ec53423          	sd	a2,744(a0) # 12e8 <.LBB35_4+0x1b8>
    4624:	9b043503          	ld	a0,-1616(s0)
    4628:	f6843603          	ld	a2,-152(s0)
    462c:	00a6053b          	addw	a0,a2,a0
    4630:	40000637          	lui	a2,0x40000
    4634:	000015b7          	lui	a1,0x1
    4638:	40b405b3          	sub	a1,s0,a1
    463c:	3ca5bc23          	sd	a0,984(a1) # 13d8 <.LBB35_4+0x2a8>
    4640:	f9043583          	ld	a1,-112(s0)
    4644:	00055463          	bgez	a0,464c <.LBB35_208>
    4648:	c0000637          	lui	a2,0xc0000

000000000000464c <.LBB35_208>:
    464c:	f8b43823          	sd	a1,-112(s0)
    4650:	00001537          	lui	a0,0x1
    4654:	40a40533          	sub	a0,s0,a0
    4658:	2ec53823          	sd	a2,752(a0) # 12f0 <.LBB35_4+0x1c0>
    465c:	9b843503          	ld	a0,-1608(s0)
    4660:	f6043603          	ld	a2,-160(s0)
    4664:	00a6053b          	addw	a0,a2,a0
    4668:	40000637          	lui	a2,0x40000
    466c:	000015b7          	lui	a1,0x1
    4670:	40b405b3          	sub	a1,s0,a1
    4674:	3aa5b823          	sd	a0,944(a1) # 13b0 <.LBB35_4+0x280>
    4678:	f9043583          	ld	a1,-112(s0)
    467c:	00055463          	bgez	a0,4684 <.LBB35_210>
    4680:	c0000637          	lui	a2,0xc0000

0000000000004684 <.LBB35_210>:
    4684:	f8b43823          	sd	a1,-112(s0)
    4688:	00001537          	lui	a0,0x1
    468c:	40a40533          	sub	a0,s0,a0
    4690:	2ec53c23          	sd	a2,760(a0) # 12f8 <.LBB35_4+0x1c8>
    4694:	9c043503          	ld	a0,-1600(s0)
    4698:	f5843603          	ld	a2,-168(s0)
    469c:	00a6053b          	addw	a0,a2,a0
    46a0:	40000637          	lui	a2,0x40000
    46a4:	000015b7          	lui	a1,0x1
    46a8:	40b405b3          	sub	a1,s0,a1
    46ac:	38a5b423          	sd	a0,904(a1) # 1388 <.LBB35_4+0x258>
    46b0:	f9043583          	ld	a1,-112(s0)
    46b4:	00055463          	bgez	a0,46bc <.LBB35_212>
    46b8:	c0000637          	lui	a2,0xc0000

00000000000046bc <.LBB35_212>:
    46bc:	f8b43823          	sd	a1,-112(s0)
    46c0:	00001537          	lui	a0,0x1
    46c4:	40a40533          	sub	a0,s0,a0
    46c8:	30c53023          	sd	a2,768(a0) # 1300 <.LBB35_4+0x1d0>
    46cc:	9c843503          	ld	a0,-1592(s0)
    46d0:	f5043603          	ld	a2,-176(s0)
    46d4:	00a6053b          	addw	a0,a2,a0
    46d8:	40000637          	lui	a2,0x40000
    46dc:	000015b7          	lui	a1,0x1
    46e0:	40b405b3          	sub	a1,s0,a1
    46e4:	36a5b023          	sd	a0,864(a1) # 1360 <.LBB35_4+0x230>
    46e8:	f9043583          	ld	a1,-112(s0)
    46ec:	00055463          	bgez	a0,46f4 <.LBB35_214>
    46f0:	c0000637          	lui	a2,0xc0000

00000000000046f4 <.LBB35_214>:
    46f4:	f8b43823          	sd	a1,-112(s0)
    46f8:	00001537          	lui	a0,0x1
    46fc:	40a40533          	sub	a0,s0,a0
    4700:	30c53423          	sd	a2,776(a0) # 1308 <.LBB35_4+0x1d8>
    4704:	9d043503          	ld	a0,-1584(s0)
    4708:	f4843603          	ld	a2,-184(s0)
    470c:	00a6053b          	addw	a0,a2,a0
    4710:	40000637          	lui	a2,0x40000
    4714:	000015b7          	lui	a1,0x1
    4718:	40b405b3          	sub	a1,s0,a1
    471c:	34a5b023          	sd	a0,832(a1) # 1340 <.LBB35_4+0x210>
    4720:	f9043583          	ld	a1,-112(s0)
    4724:	00055463          	bgez	a0,472c <.LBB35_216>
    4728:	c0000637          	lui	a2,0xc0000

000000000000472c <.LBB35_216>:
    472c:	f8b43823          	sd	a1,-112(s0)
    4730:	00001537          	lui	a0,0x1
    4734:	40a40533          	sub	a0,s0,a0
    4738:	30c53823          	sd	a2,784(a0) # 1310 <.LBB35_4+0x1e0>
    473c:	9d843503          	ld	a0,-1576(s0)
    4740:	f4043603          	ld	a2,-192(s0)
    4744:	00a6053b          	addw	a0,a2,a0
    4748:	40000637          	lui	a2,0x40000
    474c:	000015b7          	lui	a1,0x1
    4750:	40b405b3          	sub	a1,s0,a1
    4754:	32a5b023          	sd	a0,800(a1) # 1320 <.LBB35_4+0x1f0>
    4758:	f9043583          	ld	a1,-112(s0)
    475c:	00055463          	bgez	a0,4764 <.LBB35_218>
    4760:	c0000637          	lui	a2,0xc0000

0000000000004764 <.LBB35_218>:
    4764:	f8b43823          	sd	a1,-112(s0)
    4768:	00001537          	lui	a0,0x1
    476c:	40a40533          	sub	a0,s0,a0
    4770:	30c53c23          	sd	a2,792(a0) # 1318 <.LBB35_4+0x1e8>
    4774:	9e043503          	ld	a0,-1568(s0)
    4778:	f3843603          	ld	a2,-200(s0)
    477c:	00a6053b          	addw	a0,a2,a0
    4780:	40000637          	lui	a2,0x40000
    4784:	000015b7          	lui	a1,0x1
    4788:	40b405b3          	sub	a1,s0,a1
    478c:	32a5b823          	sd	a0,816(a1) # 1330 <.LBB35_4+0x200>
    4790:	f9043583          	ld	a1,-112(s0)
    4794:	00055463          	bgez	a0,479c <.LBB35_220>
    4798:	c0000637          	lui	a2,0xc0000

000000000000479c <.LBB35_220>:
    479c:	f8b43823          	sd	a1,-112(s0)
    47a0:	00001537          	lui	a0,0x1
    47a4:	40a40533          	sub	a0,s0,a0
    47a8:	32c53423          	sd	a2,808(a0) # 1328 <.LBB35_4+0x1f8>
    47ac:	9e843503          	ld	a0,-1560(s0)
    47b0:	f3043603          	ld	a2,-208(s0)
    47b4:	00a6053b          	addw	a0,a2,a0
    47b8:	40000637          	lui	a2,0x40000
    47bc:	000015b7          	lui	a1,0x1
    47c0:	40b405b3          	sub	a1,s0,a1
    47c4:	34a5b423          	sd	a0,840(a1) # 1348 <.LBB35_4+0x218>
    47c8:	f9043583          	ld	a1,-112(s0)
    47cc:	00055463          	bgez	a0,47d4 <.LBB35_222>
    47d0:	c0000637          	lui	a2,0xc0000

00000000000047d4 <.LBB35_222>:
    47d4:	f8d43823          	sd	a3,-112(s0)
    47d8:	00001537          	lui	a0,0x1
    47dc:	40a40533          	sub	a0,s0,a0
    47e0:	32c53c23          	sd	a2,824(a0) # 1338 <.LBB35_4+0x208>
    47e4:	9f043503          	ld	a0,-1552(s0)
    47e8:	00a5853b          	addw	a0,a1,a0
    47ec:	40000637          	lui	a2,0x40000
    47f0:	000016b7          	lui	a3,0x1
    47f4:	40d406b3          	sub	a3,s0,a3
    47f8:	34a6bc23          	sd	a0,856(a3) # 1358 <.LBB35_4+0x228>
    47fc:	f9043683          	ld	a3,-112(s0)
    4800:	00055463          	bgez	a0,4808 <.LBB35_224>
    4804:	c0000637          	lui	a2,0xc0000

0000000000004808 <.LBB35_224>:
    4808:	f8b43823          	sd	a1,-112(s0)
    480c:	00001537          	lui	a0,0x1
    4810:	40a40533          	sub	a0,s0,a0
    4814:	34c53823          	sd	a2,848(a0) # 1350 <.LBB35_4+0x220>
    4818:	9f843503          	ld	a0,-1544(s0)
    481c:	00a7853b          	addw	a0,a5,a0
    4820:	40000637          	lui	a2,0x40000
    4824:	000015b7          	lui	a1,0x1
    4828:	40b405b3          	sub	a1,s0,a1
    482c:	36a5b823          	sd	a0,880(a1) # 1370 <.LBB35_4+0x240>
    4830:	f9043583          	ld	a1,-112(s0)
    4834:	00055463          	bgez	a0,483c <.LBB35_226>
    4838:	c0000637          	lui	a2,0xc0000

000000000000483c <.LBB35_226>:
    483c:	f8b43823          	sd	a1,-112(s0)
    4840:	00001537          	lui	a0,0x1
    4844:	40a40533          	sub	a0,s0,a0
    4848:	36c53423          	sd	a2,872(a0) # 1368 <.LBB35_4+0x238>
    484c:	a0043503          	ld	a0,-1536(s0)
    4850:	00a8853b          	addw	a0,a7,a0
    4854:	40000637          	lui	a2,0x40000
    4858:	000015b7          	lui	a1,0x1
    485c:	40b405b3          	sub	a1,s0,a1
    4860:	38a5b023          	sd	a0,896(a1) # 1380 <.LBB35_4+0x250>
    4864:	f9043583          	ld	a1,-112(s0)
    4868:	00055463          	bgez	a0,4870 <.LBB35_228>
    486c:	c0000637          	lui	a2,0xc0000

0000000000004870 <.LBB35_228>:
    4870:	f8b43823          	sd	a1,-112(s0)
    4874:	00001537          	lui	a0,0x1
    4878:	40a40533          	sub	a0,s0,a0
    487c:	36c53c23          	sd	a2,888(a0) # 1378 <.LBB35_4+0x248>
    4880:	a0843503          	ld	a0,-1528(s0)
    4884:	00ad853b          	addw	a0,s11,a0
    4888:	40000637          	lui	a2,0x40000
    488c:	000015b7          	lui	a1,0x1
    4890:	40b405b3          	sub	a1,s0,a1
    4894:	38a5bc23          	sd	a0,920(a1) # 1398 <.LBB35_4+0x268>
    4898:	f9043583          	ld	a1,-112(s0)
    489c:	00055463          	bgez	a0,48a4 <.LBB35_230>
    48a0:	c0000637          	lui	a2,0xc0000

00000000000048a4 <.LBB35_230>:
    48a4:	f8b43823          	sd	a1,-112(s0)
    48a8:	00001537          	lui	a0,0x1
    48ac:	40a40533          	sub	a0,s0,a0
    48b0:	38c53823          	sd	a2,912(a0) # 1390 <.LBB35_4+0x260>
    48b4:	a1043503          	ld	a0,-1520(s0)
    48b8:	00a6853b          	addw	a0,a3,a0
    48bc:	40000637          	lui	a2,0x40000
    48c0:	000015b7          	lui	a1,0x1
    48c4:	40b405b3          	sub	a1,s0,a1
    48c8:	3aa5b423          	sd	a0,936(a1) # 13a8 <.LBB35_4+0x278>
    48cc:	f9043583          	ld	a1,-112(s0)
    48d0:	00055463          	bgez	a0,48d8 <.LBB35_232>
    48d4:	c0000637          	lui	a2,0xc0000

00000000000048d8 <.LBB35_232>:
    48d8:	f8b43823          	sd	a1,-112(s0)
    48dc:	00001537          	lui	a0,0x1
    48e0:	40a40533          	sub	a0,s0,a0
    48e4:	3ac53023          	sd	a2,928(a0) # 13a0 <.LBB35_4+0x270>
    48e8:	a1843503          	ld	a0,-1512(s0)
    48ec:	00ac853b          	addw	a0,s9,a0
    48f0:	40000637          	lui	a2,0x40000
    48f4:	000015b7          	lui	a1,0x1
    48f8:	40b405b3          	sub	a1,s0,a1
    48fc:	3ca5b023          	sd	a0,960(a1) # 13c0 <.LBB35_4+0x290>
    4900:	f9043583          	ld	a1,-112(s0)
    4904:	00055463          	bgez	a0,490c <.LBB35_234>
    4908:	c0000637          	lui	a2,0xc0000

000000000000490c <.LBB35_234>:
    490c:	f8b43823          	sd	a1,-112(s0)
    4910:	00001537          	lui	a0,0x1
    4914:	40a40533          	sub	a0,s0,a0
    4918:	3ac53c23          	sd	a2,952(a0) # 13b8 <.LBB35_4+0x288>
    491c:	a2043503          	ld	a0,-1504(s0)
    4920:	00a3053b          	addw	a0,t1,a0
    4924:	40000637          	lui	a2,0x40000
    4928:	000015b7          	lui	a1,0x1
    492c:	40b405b3          	sub	a1,s0,a1
    4930:	3ca5b823          	sd	a0,976(a1) # 13d0 <.LBB35_4+0x2a0>
    4934:	f9043583          	ld	a1,-112(s0)
    4938:	00055463          	bgez	a0,4940 <.LBB35_236>
    493c:	c0000637          	lui	a2,0xc0000

0000000000004940 <.LBB35_236>:
    4940:	f8b43823          	sd	a1,-112(s0)
    4944:	00001537          	lui	a0,0x1
    4948:	40a40533          	sub	a0,s0,a0
    494c:	3cc53423          	sd	a2,968(a0) # 13c8 <.LBB35_4+0x298>
    4950:	a2843503          	ld	a0,-1496(s0)
    4954:	00a3853b          	addw	a0,t2,a0
    4958:	40000637          	lui	a2,0x40000
    495c:	000015b7          	lui	a1,0x1
    4960:	40b405b3          	sub	a1,s0,a1
    4964:	3ea5b423          	sd	a0,1000(a1) # 13e8 <.LBB35_4+0x2b8>
    4968:	f9043583          	ld	a1,-112(s0)
    496c:	00055463          	bgez	a0,4974 <.LBB35_238>
    4970:	c0000637          	lui	a2,0xc0000

0000000000004974 <.LBB35_238>:
    4974:	f8b43823          	sd	a1,-112(s0)
    4978:	00001537          	lui	a0,0x1
    497c:	40a40533          	sub	a0,s0,a0
    4980:	3ec53023          	sd	a2,992(a0) # 13e0 <.LBB35_4+0x2b0>
    4984:	a3043503          	ld	a0,-1488(s0)
    4988:	00ae053b          	addw	a0,t3,a0
    498c:	40000637          	lui	a2,0x40000
    4990:	000015b7          	lui	a1,0x1
    4994:	40b405b3          	sub	a1,s0,a1
    4998:	3ea5bc23          	sd	a0,1016(a1) # 13f8 <.LBB35_4+0x2c8>
    499c:	f9043583          	ld	a1,-112(s0)
    49a0:	00055463          	bgez	a0,49a8 <.LBB35_240>
    49a4:	c0000637          	lui	a2,0xc0000

00000000000049a8 <.LBB35_240>:
    49a8:	f8b43823          	sd	a1,-112(s0)
    49ac:	00001537          	lui	a0,0x1
    49b0:	40a40533          	sub	a0,s0,a0
    49b4:	3ec53823          	sd	a2,1008(a0) # 13f0 <.LBB35_4+0x2c0>
    49b8:	a3843503          	ld	a0,-1480(s0)
    49bc:	00ae853b          	addw	a0,t4,a0
    49c0:	40000637          	lui	a2,0x40000
    49c4:	000015b7          	lui	a1,0x1
    49c8:	40b405b3          	sub	a1,s0,a1
    49cc:	40a5b823          	sd	a0,1040(a1) # 1410 <.LBB35_4+0x2e0>
    49d0:	f9043583          	ld	a1,-112(s0)
    49d4:	00055463          	bgez	a0,49dc <.LBB35_242>
    49d8:	c0000637          	lui	a2,0xc0000

00000000000049dc <.LBB35_242>:
    49dc:	f8b43823          	sd	a1,-112(s0)
    49e0:	00001537          	lui	a0,0x1
    49e4:	40a40533          	sub	a0,s0,a0
    49e8:	40c53423          	sd	a2,1032(a0) # 1408 <.LBB35_4+0x2d8>
    49ec:	a4043503          	ld	a0,-1472(s0)
    49f0:	00af053b          	addw	a0,t5,a0
    49f4:	40000637          	lui	a2,0x40000
    49f8:	000015b7          	lui	a1,0x1
    49fc:	40b405b3          	sub	a1,s0,a1
    4a00:	42a5b423          	sd	a0,1064(a1) # 1428 <.LBB35_4+0x2f8>
    4a04:	f9043583          	ld	a1,-112(s0)
    4a08:	00055463          	bgez	a0,4a10 <.LBB35_244>
    4a0c:	c0000637          	lui	a2,0xc0000

0000000000004a10 <.LBB35_244>:
    4a10:	f8b43823          	sd	a1,-112(s0)
    4a14:	00001537          	lui	a0,0x1
    4a18:	40a40533          	sub	a0,s0,a0
    4a1c:	40c53c23          	sd	a2,1048(a0) # 1418 <.LBB35_4+0x2e8>
    4a20:	a4843503          	ld	a0,-1464(s0)
    4a24:	00aa853b          	addw	a0,s5,a0
    4a28:	40000637          	lui	a2,0x40000
    4a2c:	000015b7          	lui	a1,0x1
    4a30:	40b405b3          	sub	a1,s0,a1
    4a34:	42a5bc23          	sd	a0,1080(a1) # 1438 <.LBB35_4+0x308>
    4a38:	f9043583          	ld	a1,-112(s0)
    4a3c:	00055463          	bgez	a0,4a44 <.LBB35_246>
    4a40:	c0000637          	lui	a2,0xc0000

0000000000004a44 <.LBB35_246>:
    4a44:	f8b43823          	sd	a1,-112(s0)
    4a48:	00001537          	lui	a0,0x1
    4a4c:	40a40533          	sub	a0,s0,a0
    4a50:	42c53823          	sd	a2,1072(a0) # 1430 <.LBB35_4+0x300>
    4a54:	a5043503          	ld	a0,-1456(s0)
    4a58:	00aa053b          	addw	a0,s4,a0
    4a5c:	40000637          	lui	a2,0x40000
    4a60:	000015b7          	lui	a1,0x1
    4a64:	40b405b3          	sub	a1,s0,a1
    4a68:	44a5b823          	sd	a0,1104(a1) # 1450 <.LBB35_4+0x320>
    4a6c:	f9043583          	ld	a1,-112(s0)
    4a70:	00055463          	bgez	a0,4a78 <.LBB35_248>
    4a74:	c0000637          	lui	a2,0xc0000

0000000000004a78 <.LBB35_248>:
    4a78:	f8b43823          	sd	a1,-112(s0)
    4a7c:	00001537          	lui	a0,0x1
    4a80:	40a40533          	sub	a0,s0,a0
    4a84:	44c53423          	sd	a2,1096(a0) # 1448 <.LBB35_4+0x318>
    4a88:	a5843503          	ld	a0,-1448(s0)
    4a8c:	00a9853b          	addw	a0,s3,a0
    4a90:	40000637          	lui	a2,0x40000
    4a94:	000015b7          	lui	a1,0x1
    4a98:	40b405b3          	sub	a1,s0,a1
    4a9c:	46a5b023          	sd	a0,1120(a1) # 1460 <.LBB35_4+0x330>
    4aa0:	f9043583          	ld	a1,-112(s0)
    4aa4:	00055463          	bgez	a0,4aac <.LBB35_250>
    4aa8:	c0000637          	lui	a2,0xc0000

0000000000004aac <.LBB35_250>:
    4aac:	f8b43823          	sd	a1,-112(s0)
    4ab0:	00001537          	lui	a0,0x1
    4ab4:	40a40533          	sub	a0,s0,a0
    4ab8:	44c53c23          	sd	a2,1112(a0) # 1458 <.LBB35_4+0x328>
    4abc:	a6043503          	ld	a0,-1440(s0)
    4ac0:	00a9053b          	addw	a0,s2,a0
    4ac4:	40000637          	lui	a2,0x40000
    4ac8:	000015b7          	lui	a1,0x1
    4acc:	40b405b3          	sub	a1,s0,a1
    4ad0:	46a5bc23          	sd	a0,1144(a1) # 1478 <.LBB35_4+0x348>
    4ad4:	f9043583          	ld	a1,-112(s0)
    4ad8:	00055463          	bgez	a0,4ae0 <.LBB35_252>
    4adc:	c0000637          	lui	a2,0xc0000

0000000000004ae0 <.LBB35_252>:
    4ae0:	f8b43823          	sd	a1,-112(s0)
    4ae4:	00001537          	lui	a0,0x1
    4ae8:	40a40533          	sub	a0,s0,a0
    4aec:	46c53823          	sd	a2,1136(a0) # 1470 <.LBB35_4+0x340>
    4af0:	a6843503          	ld	a0,-1432(s0)
    4af4:	00a4853b          	addw	a0,s1,a0
    4af8:	40000637          	lui	a2,0x40000
    4afc:	000015b7          	lui	a1,0x1
    4b00:	40b405b3          	sub	a1,s0,a1
    4b04:	48a5b423          	sd	a0,1160(a1) # 1488 <.LBB35_4+0x358>
    4b08:	f9043583          	ld	a1,-112(s0)
    4b0c:	00055463          	bgez	a0,4b14 <.LBB35_254>
    4b10:	c0000637          	lui	a2,0xc0000

0000000000004b14 <.LBB35_254>:
    4b14:	f8b43823          	sd	a1,-112(s0)
    4b18:	00001537          	lui	a0,0x1
    4b1c:	40a40533          	sub	a0,s0,a0
    4b20:	48c53023          	sd	a2,1152(a0) # 1480 <.LBB35_4+0x350>
    4b24:	a7043503          	ld	a0,-1424(s0)
    4b28:	00af853b          	addw	a0,t6,a0
    4b2c:	40000637          	lui	a2,0x40000
    4b30:	000015b7          	lui	a1,0x1
    4b34:	40b405b3          	sub	a1,s0,a1
    4b38:	4aa5b023          	sd	a0,1184(a1) # 14a0 <.LBB35_4+0x370>
    4b3c:	f9043583          	ld	a1,-112(s0)
    4b40:	00055463          	bgez	a0,4b48 <.LBB35_256>
    4b44:	c0000637          	lui	a2,0xc0000

0000000000004b48 <.LBB35_256>:
    4b48:	f8b43823          	sd	a1,-112(s0)
    4b4c:	00001537          	lui	a0,0x1
    4b50:	40a40533          	sub	a0,s0,a0
    4b54:	48c53c23          	sd	a2,1176(a0) # 1498 <.LBB35_4+0x368>
    4b58:	a7843503          	ld	a0,-1416(s0)
    4b5c:	00ab053b          	addw	a0,s6,a0
    4b60:	40000637          	lui	a2,0x40000
    4b64:	000015b7          	lui	a1,0x1
    4b68:	40b405b3          	sub	a1,s0,a1
    4b6c:	4aa5b823          	sd	a0,1200(a1) # 14b0 <.LBB35_4+0x380>
    4b70:	f9043583          	ld	a1,-112(s0)
    4b74:	00055463          	bgez	a0,4b7c <.LBB35_258>
    4b78:	c0000637          	lui	a2,0xc0000

0000000000004b7c <.LBB35_258>:
    4b7c:	f8b43823          	sd	a1,-112(s0)
    4b80:	00001537          	lui	a0,0x1
    4b84:	40a40533          	sub	a0,s0,a0
    4b88:	4ac53423          	sd	a2,1192(a0) # 14a8 <.LBB35_4+0x378>
    4b8c:	a8043503          	ld	a0,-1408(s0)
    4b90:	00ab853b          	addw	a0,s7,a0
    4b94:	40000637          	lui	a2,0x40000
    4b98:	000015b7          	lui	a1,0x1
    4b9c:	40b405b3          	sub	a1,s0,a1
    4ba0:	4ca5b423          	sd	a0,1224(a1) # 14c8 <.LBB35_4+0x398>
    4ba4:	f9043583          	ld	a1,-112(s0)
    4ba8:	00055463          	bgez	a0,4bb0 <.LBB35_260>
    4bac:	c0000637          	lui	a2,0xc0000

0000000000004bb0 <.LBB35_260>:
    4bb0:	f8b43823          	sd	a1,-112(s0)
    4bb4:	00001537          	lui	a0,0x1
    4bb8:	40a40533          	sub	a0,s0,a0
    4bbc:	4cc53023          	sd	a2,1216(a0) # 14c0 <.LBB35_4+0x390>
    4bc0:	a8843503          	ld	a0,-1400(s0)
    4bc4:	00ac053b          	addw	a0,s8,a0
    4bc8:	40000637          	lui	a2,0x40000
    4bcc:	000015b7          	lui	a1,0x1
    4bd0:	40b405b3          	sub	a1,s0,a1
    4bd4:	4ea5b023          	sd	a0,1248(a1) # 14e0 <.LBB35_4+0x3b0>
    4bd8:	f9043583          	ld	a1,-112(s0)
    4bdc:	00055463          	bgez	a0,4be4 <.LBB35_262>
    4be0:	c0000637          	lui	a2,0xc0000

0000000000004be4 <.LBB35_262>:
    4be4:	f8b43823          	sd	a1,-112(s0)
    4be8:	00001537          	lui	a0,0x1
    4bec:	40a40533          	sub	a0,s0,a0
    4bf0:	4cc53823          	sd	a2,1232(a0) # 14d0 <.LBB35_4+0x3a0>
    4bf4:	a9043503          	ld	a0,-1392(s0)
    4bf8:	f8843603          	ld	a2,-120(s0)
    4bfc:	00a6053b          	addw	a0,a2,a0
    4c00:	40000637          	lui	a2,0x40000
    4c04:	000015b7          	lui	a1,0x1
    4c08:	40b405b3          	sub	a1,s0,a1
    4c0c:	4ea5b823          	sd	a0,1264(a1) # 14f0 <.LBB35_4+0x3c0>
    4c10:	f9043583          	ld	a1,-112(s0)
    4c14:	00055463          	bgez	a0,4c1c <.LBB35_264>
    4c18:	c0000637          	lui	a2,0xc0000

0000000000004c1c <.LBB35_264>:
    4c1c:	f8b43823          	sd	a1,-112(s0)
    4c20:	00001537          	lui	a0,0x1
    4c24:	40a40533          	sub	a0,s0,a0
    4c28:	4ec53423          	sd	a2,1256(a0) # 14e8 <.LBB35_4+0x3b8>
    4c2c:	a9843503          	ld	a0,-1384(s0)
    4c30:	f8043603          	ld	a2,-128(s0)
    4c34:	00a6053b          	addw	a0,a2,a0
    4c38:	40000637          	lui	a2,0x40000
    4c3c:	000015b7          	lui	a1,0x1
    4c40:	40b405b3          	sub	a1,s0,a1
    4c44:	50a5b423          	sd	a0,1288(a1) # 1508 <.LBB35_4+0x3d8>
    4c48:	f9043583          	ld	a1,-112(s0)
    4c4c:	00055463          	bgez	a0,4c54 <.LBB35_266>
    4c50:	c0000637          	lui	a2,0xc0000

0000000000004c54 <.LBB35_266>:
    4c54:	f8b43823          	sd	a1,-112(s0)
    4c58:	00001537          	lui	a0,0x1
    4c5c:	40a40533          	sub	a0,s0,a0
    4c60:	50c53023          	sd	a2,1280(a0) # 1500 <.LBB35_4+0x3d0>
    4c64:	aa043503          	ld	a0,-1376(s0)
    4c68:	f7843603          	ld	a2,-136(s0)
    4c6c:	00a6053b          	addw	a0,a2,a0
    4c70:	40000637          	lui	a2,0x40000
    4c74:	000015b7          	lui	a1,0x1
    4c78:	40b405b3          	sub	a1,s0,a1
    4c7c:	50a5bc23          	sd	a0,1304(a1) # 1518 <.LBB35_4+0x3e8>
    4c80:	f9043583          	ld	a1,-112(s0)
    4c84:	00055463          	bgez	a0,4c8c <.LBB35_268>
    4c88:	c0000637          	lui	a2,0xc0000

0000000000004c8c <.LBB35_268>:
    4c8c:	f8b43823          	sd	a1,-112(s0)
    4c90:	00001537          	lui	a0,0x1
    4c94:	40a40533          	sub	a0,s0,a0
    4c98:	50c53823          	sd	a2,1296(a0) # 1510 <.LBB35_4+0x3e0>
    4c9c:	aa843503          	ld	a0,-1368(s0)
    4ca0:	f7043603          	ld	a2,-144(s0)
    4ca4:	00a6053b          	addw	a0,a2,a0
    4ca8:	40000637          	lui	a2,0x40000
    4cac:	000015b7          	lui	a1,0x1
    4cb0:	40b405b3          	sub	a1,s0,a1
    4cb4:	52a5b823          	sd	a0,1328(a1) # 1530 <.LBB35_4+0x400>
    4cb8:	f9043583          	ld	a1,-112(s0)
    4cbc:	00055463          	bgez	a0,4cc4 <.LBB35_270>
    4cc0:	c0000637          	lui	a2,0xc0000

0000000000004cc4 <.LBB35_270>:
    4cc4:	f8b43823          	sd	a1,-112(s0)
    4cc8:	00001537          	lui	a0,0x1
    4ccc:	40a40533          	sub	a0,s0,a0
    4cd0:	52c53423          	sd	a2,1320(a0) # 1528 <.LBB35_4+0x3f8>
    4cd4:	ab043503          	ld	a0,-1360(s0)
    4cd8:	f6843603          	ld	a2,-152(s0)
    4cdc:	00a6053b          	addw	a0,a2,a0
    4ce0:	40000637          	lui	a2,0x40000
    4ce4:	000015b7          	lui	a1,0x1
    4ce8:	40b405b3          	sub	a1,s0,a1
    4cec:	54a5b023          	sd	a0,1344(a1) # 1540 <.LBB35_4+0x410>
    4cf0:	f9043583          	ld	a1,-112(s0)
    4cf4:	00055463          	bgez	a0,4cfc <.LBB35_272>
    4cf8:	c0000637          	lui	a2,0xc0000

0000000000004cfc <.LBB35_272>:
    4cfc:	f8b43823          	sd	a1,-112(s0)
    4d00:	00001537          	lui	a0,0x1
    4d04:	40a40533          	sub	a0,s0,a0
    4d08:	52c53c23          	sd	a2,1336(a0) # 1538 <.LBB35_4+0x408>
    4d0c:	ab843503          	ld	a0,-1352(s0)
    4d10:	f6043603          	ld	a2,-160(s0)
    4d14:	00a6053b          	addw	a0,a2,a0
    4d18:	40000637          	lui	a2,0x40000
    4d1c:	000015b7          	lui	a1,0x1
    4d20:	40b405b3          	sub	a1,s0,a1
    4d24:	54a5bc23          	sd	a0,1368(a1) # 1558 <.LBB35_4+0x428>
    4d28:	f9043583          	ld	a1,-112(s0)
    4d2c:	00055463          	bgez	a0,4d34 <.LBB35_274>
    4d30:	c0000637          	lui	a2,0xc0000

0000000000004d34 <.LBB35_274>:
    4d34:	f8b43823          	sd	a1,-112(s0)
    4d38:	00001537          	lui	a0,0x1
    4d3c:	40a40533          	sub	a0,s0,a0
    4d40:	54c53823          	sd	a2,1360(a0) # 1550 <.LBB35_4+0x420>
    4d44:	ac043503          	ld	a0,-1344(s0)
    4d48:	f5843603          	ld	a2,-168(s0)
    4d4c:	00a6053b          	addw	a0,a2,a0
    4d50:	40000637          	lui	a2,0x40000
    4d54:	000015b7          	lui	a1,0x1
    4d58:	40b405b3          	sub	a1,s0,a1
    4d5c:	56a5b423          	sd	a0,1384(a1) # 1568 <.LBB35_4+0x438>
    4d60:	f9043583          	ld	a1,-112(s0)
    4d64:	00055463          	bgez	a0,4d6c <.LBB35_276>
    4d68:	c0000637          	lui	a2,0xc0000

0000000000004d6c <.LBB35_276>:
    4d6c:	f8b43823          	sd	a1,-112(s0)
    4d70:	00001537          	lui	a0,0x1
    4d74:	40a40533          	sub	a0,s0,a0
    4d78:	56c53023          	sd	a2,1376(a0) # 1560 <.LBB35_4+0x430>
    4d7c:	ac843503          	ld	a0,-1336(s0)
    4d80:	f5043603          	ld	a2,-176(s0)
    4d84:	00a6053b          	addw	a0,a2,a0
    4d88:	40000637          	lui	a2,0x40000
    4d8c:	000015b7          	lui	a1,0x1
    4d90:	40b405b3          	sub	a1,s0,a1
    4d94:	58a5b023          	sd	a0,1408(a1) # 1580 <.LBB35_4+0x450>
    4d98:	f9043583          	ld	a1,-112(s0)
    4d9c:	00055463          	bgez	a0,4da4 <.LBB35_278>
    4da0:	c0000637          	lui	a2,0xc0000

0000000000004da4 <.LBB35_278>:
    4da4:	f8b43823          	sd	a1,-112(s0)
    4da8:	00001537          	lui	a0,0x1
    4dac:	40a40533          	sub	a0,s0,a0
    4db0:	56c53c23          	sd	a2,1400(a0) # 1578 <.LBB35_4+0x448>
    4db4:	ad043503          	ld	a0,-1328(s0)
    4db8:	f4843603          	ld	a2,-184(s0)
    4dbc:	00a6053b          	addw	a0,a2,a0
    4dc0:	40000637          	lui	a2,0x40000
    4dc4:	000015b7          	lui	a1,0x1
    4dc8:	40b405b3          	sub	a1,s0,a1
    4dcc:	58a5b823          	sd	a0,1424(a1) # 1590 <.LBB35_4+0x460>
    4dd0:	f9043583          	ld	a1,-112(s0)
    4dd4:	00055463          	bgez	a0,4ddc <.LBB35_280>
    4dd8:	c0000637          	lui	a2,0xc0000

0000000000004ddc <.LBB35_280>:
    4ddc:	f8b43823          	sd	a1,-112(s0)
    4de0:	00001537          	lui	a0,0x1
    4de4:	40a40533          	sub	a0,s0,a0
    4de8:	58c53423          	sd	a2,1416(a0) # 1588 <.LBB35_4+0x458>
    4dec:	ad843503          	ld	a0,-1320(s0)
    4df0:	f4043603          	ld	a2,-192(s0)
    4df4:	00a6053b          	addw	a0,a2,a0
    4df8:	40000637          	lui	a2,0x40000
    4dfc:	000015b7          	lui	a1,0x1
    4e00:	40b405b3          	sub	a1,s0,a1
    4e04:	5aa5b423          	sd	a0,1448(a1) # 15a8 <.LBB35_4+0x478>
    4e08:	f9043583          	ld	a1,-112(s0)
    4e0c:	00055463          	bgez	a0,4e14 <.LBB35_282>
    4e10:	c0000637          	lui	a2,0xc0000

0000000000004e14 <.LBB35_282>:
    4e14:	f8b43823          	sd	a1,-112(s0)
    4e18:	00001537          	lui	a0,0x1
    4e1c:	40a40533          	sub	a0,s0,a0
    4e20:	5ac53023          	sd	a2,1440(a0) # 15a0 <.LBB35_4+0x470>
    4e24:	ae043503          	ld	a0,-1312(s0)
    4e28:	f3843603          	ld	a2,-200(s0)
    4e2c:	00a6053b          	addw	a0,a2,a0
    4e30:	40000637          	lui	a2,0x40000
    4e34:	000015b7          	lui	a1,0x1
    4e38:	40b405b3          	sub	a1,s0,a1
    4e3c:	5ca5b023          	sd	a0,1472(a1) # 15c0 <.LBB35_4+0x490>
    4e40:	f9043583          	ld	a1,-112(s0)
    4e44:	00055463          	bgez	a0,4e4c <.LBB35_284>
    4e48:	c0000637          	lui	a2,0xc0000

0000000000004e4c <.LBB35_284>:
    4e4c:	f8b43823          	sd	a1,-112(s0)
    4e50:	00001537          	lui	a0,0x1
    4e54:	40a40533          	sub	a0,s0,a0
    4e58:	5ac53823          	sd	a2,1456(a0) # 15b0 <.LBB35_4+0x480>
    4e5c:	ae843503          	ld	a0,-1304(s0)
    4e60:	f3043603          	ld	a2,-208(s0)
    4e64:	00a6053b          	addw	a0,a2,a0
    4e68:	40000637          	lui	a2,0x40000
    4e6c:	000015b7          	lui	a1,0x1
    4e70:	40b405b3          	sub	a1,s0,a1
    4e74:	5ca5b823          	sd	a0,1488(a1) # 15d0 <.LBB35_4+0x4a0>
    4e78:	f9043583          	ld	a1,-112(s0)
    4e7c:	00055463          	bgez	a0,4e84 <.LBB35_286>
    4e80:	c0000637          	lui	a2,0xc0000

0000000000004e84 <.LBB35_286>:
    4e84:	f8d43823          	sd	a3,-112(s0)
    4e88:	00001537          	lui	a0,0x1
    4e8c:	40a40533          	sub	a0,s0,a0
    4e90:	5cc53423          	sd	a2,1480(a0) # 15c8 <.LBB35_4+0x498>
    4e94:	af043503          	ld	a0,-1296(s0)
    4e98:	00a5853b          	addw	a0,a1,a0
    4e9c:	40000637          	lui	a2,0x40000
    4ea0:	000016b7          	lui	a3,0x1
    4ea4:	40d406b3          	sub	a3,s0,a3
    4ea8:	5ea6b423          	sd	a0,1512(a3) # 15e8 <.LBB35_4+0x4b8>
    4eac:	f9043683          	ld	a3,-112(s0)
    4eb0:	00055463          	bgez	a0,4eb8 <.LBB35_288>
    4eb4:	c0000637          	lui	a2,0xc0000

0000000000004eb8 <.LBB35_288>:
    4eb8:	f8b43823          	sd	a1,-112(s0)
    4ebc:	00001537          	lui	a0,0x1
    4ec0:	40a40533          	sub	a0,s0,a0
    4ec4:	5ec53023          	sd	a2,1504(a0) # 15e0 <.LBB35_4+0x4b0>
    4ec8:	af843503          	ld	a0,-1288(s0)
    4ecc:	00a7853b          	addw	a0,a5,a0
    4ed0:	40000637          	lui	a2,0x40000
    4ed4:	000015b7          	lui	a1,0x1
    4ed8:	40b405b3          	sub	a1,s0,a1
    4edc:	5ea5bc23          	sd	a0,1528(a1) # 15f8 <.LBB35_4+0x4c8>
    4ee0:	f9043583          	ld	a1,-112(s0)
    4ee4:	00055463          	bgez	a0,4eec <.LBB35_290>
    4ee8:	c0000637          	lui	a2,0xc0000

0000000000004eec <.LBB35_290>:
    4eec:	f8b43823          	sd	a1,-112(s0)
    4ef0:	00001537          	lui	a0,0x1
    4ef4:	40a40533          	sub	a0,s0,a0
    4ef8:	5ec53823          	sd	a2,1520(a0) # 15f0 <.LBB35_4+0x4c0>
    4efc:	b0043503          	ld	a0,-1280(s0)
    4f00:	00a8853b          	addw	a0,a7,a0
    4f04:	40000637          	lui	a2,0x40000
    4f08:	000015b7          	lui	a1,0x1
    4f0c:	40b405b3          	sub	a1,s0,a1
    4f10:	60a5b823          	sd	a0,1552(a1) # 1610 <.LBB35_4+0x4e0>
    4f14:	f9043583          	ld	a1,-112(s0)
    4f18:	00055463          	bgez	a0,4f20 <.LBB35_292>
    4f1c:	c0000637          	lui	a2,0xc0000

0000000000004f20 <.LBB35_292>:
    4f20:	f8b43823          	sd	a1,-112(s0)
    4f24:	00001537          	lui	a0,0x1
    4f28:	40a40533          	sub	a0,s0,a0
    4f2c:	60c53423          	sd	a2,1544(a0) # 1608 <.LBB35_4+0x4d8>
    4f30:	b0843503          	ld	a0,-1272(s0)
    4f34:	00ad853b          	addw	a0,s11,a0
    4f38:	40000637          	lui	a2,0x40000
    4f3c:	000015b7          	lui	a1,0x1
    4f40:	40b405b3          	sub	a1,s0,a1
    4f44:	62a5b023          	sd	a0,1568(a1) # 1620 <.LBB35_4+0x4f0>
    4f48:	f9043583          	ld	a1,-112(s0)
    4f4c:	00055463          	bgez	a0,4f54 <.LBB35_294>
    4f50:	c0000637          	lui	a2,0xc0000

0000000000004f54 <.LBB35_294>:
    4f54:	f8b43823          	sd	a1,-112(s0)
    4f58:	00001537          	lui	a0,0x1
    4f5c:	40a40533          	sub	a0,s0,a0
    4f60:	60c53c23          	sd	a2,1560(a0) # 1618 <.LBB35_4+0x4e8>
    4f64:	b1043503          	ld	a0,-1264(s0)
    4f68:	00a6853b          	addw	a0,a3,a0
    4f6c:	40000637          	lui	a2,0x40000
    4f70:	000015b7          	lui	a1,0x1
    4f74:	40b405b3          	sub	a1,s0,a1
    4f78:	62a5bc23          	sd	a0,1592(a1) # 1638 <.LBB35_4+0x508>
    4f7c:	f9043583          	ld	a1,-112(s0)
    4f80:	00055463          	bgez	a0,4f88 <.LBB35_296>
    4f84:	c0000637          	lui	a2,0xc0000

0000000000004f88 <.LBB35_296>:
    4f88:	f8b43823          	sd	a1,-112(s0)
    4f8c:	00001537          	lui	a0,0x1
    4f90:	40a40533          	sub	a0,s0,a0
    4f94:	62c53823          	sd	a2,1584(a0) # 1630 <.LBB35_4+0x500>
    4f98:	b1843503          	ld	a0,-1256(s0)
    4f9c:	00ac853b          	addw	a0,s9,a0
    4fa0:	40000637          	lui	a2,0x40000
    4fa4:	000015b7          	lui	a1,0x1
    4fa8:	40b405b3          	sub	a1,s0,a1
    4fac:	64a5b423          	sd	a0,1608(a1) # 1648 <.LBB35_4+0x518>
    4fb0:	f9043583          	ld	a1,-112(s0)
    4fb4:	00055463          	bgez	a0,4fbc <.LBB35_298>
    4fb8:	c0000637          	lui	a2,0xc0000

0000000000004fbc <.LBB35_298>:
    4fbc:	f8b43823          	sd	a1,-112(s0)
    4fc0:	00001537          	lui	a0,0x1
    4fc4:	40a40533          	sub	a0,s0,a0
    4fc8:	64c53023          	sd	a2,1600(a0) # 1640 <.LBB35_4+0x510>
    4fcc:	b2043503          	ld	a0,-1248(s0)
    4fd0:	00a3053b          	addw	a0,t1,a0
    4fd4:	40000637          	lui	a2,0x40000
    4fd8:	000015b7          	lui	a1,0x1
    4fdc:	40b405b3          	sub	a1,s0,a1
    4fe0:	66a5bc23          	sd	a0,1656(a1) # 1678 <.LBB35_4+0x548>
    4fe4:	f9043583          	ld	a1,-112(s0)
    4fe8:	00055463          	bgez	a0,4ff0 <.LBB35_300>
    4fec:	c0000637          	lui	a2,0xc0000

0000000000004ff0 <.LBB35_300>:
    4ff0:	f8b43823          	sd	a1,-112(s0)
    4ff4:	00001537          	lui	a0,0x1
    4ff8:	40a40533          	sub	a0,s0,a0
    4ffc:	66c53823          	sd	a2,1648(a0) # 1670 <.LBB35_4+0x540>
    5000:	b2843503          	ld	a0,-1240(s0)
    5004:	00a3853b          	addw	a0,t2,a0
    5008:	40000637          	lui	a2,0x40000
    500c:	000015b7          	lui	a1,0x1
    5010:	40b405b3          	sub	a1,s0,a1
    5014:	68a5b423          	sd	a0,1672(a1) # 1688 <.LBB35_4+0x558>
    5018:	f9043583          	ld	a1,-112(s0)
    501c:	00055463          	bgez	a0,5024 <.LBB35_302>
    5020:	c0000637          	lui	a2,0xc0000

0000000000005024 <.LBB35_302>:
    5024:	f8b43823          	sd	a1,-112(s0)
    5028:	00001537          	lui	a0,0x1
    502c:	40a40533          	sub	a0,s0,a0
    5030:	68c53023          	sd	a2,1664(a0) # 1680 <.LBB35_4+0x550>
    5034:	b3043503          	ld	a0,-1232(s0)
    5038:	00ae053b          	addw	a0,t3,a0
    503c:	40000637          	lui	a2,0x40000
    5040:	000015b7          	lui	a1,0x1
    5044:	40b405b3          	sub	a1,s0,a1
    5048:	6aa5b023          	sd	a0,1696(a1) # 16a0 <.LBB35_4+0x570>
    504c:	f9043583          	ld	a1,-112(s0)
    5050:	00055463          	bgez	a0,5058 <.LBB35_304>
    5054:	c0000637          	lui	a2,0xc0000

0000000000005058 <.LBB35_304>:
    5058:	f8b43823          	sd	a1,-112(s0)
    505c:	00001537          	lui	a0,0x1
    5060:	40a40533          	sub	a0,s0,a0
    5064:	68c53c23          	sd	a2,1688(a0) # 1698 <.LBB35_4+0x568>
    5068:	b3843503          	ld	a0,-1224(s0)
    506c:	00ae853b          	addw	a0,t4,a0
    5070:	40000637          	lui	a2,0x40000
    5074:	000015b7          	lui	a1,0x1
    5078:	40b405b3          	sub	a1,s0,a1
    507c:	6aa5bc23          	sd	a0,1720(a1) # 16b8 <.LBB35_4+0x588>
    5080:	f9043583          	ld	a1,-112(s0)
    5084:	00055463          	bgez	a0,508c <.LBB35_306>
    5088:	c0000637          	lui	a2,0xc0000

000000000000508c <.LBB35_306>:
    508c:	f8b43823          	sd	a1,-112(s0)
    5090:	00001537          	lui	a0,0x1
    5094:	40a40533          	sub	a0,s0,a0
    5098:	6ac53423          	sd	a2,1704(a0) # 16a8 <.LBB35_4+0x578>
    509c:	b4043503          	ld	a0,-1216(s0)
    50a0:	00af053b          	addw	a0,t5,a0
    50a4:	40000637          	lui	a2,0x40000
    50a8:	000015b7          	lui	a1,0x1
    50ac:	40b405b3          	sub	a1,s0,a1
    50b0:	6ca5b423          	sd	a0,1736(a1) # 16c8 <.LBB35_4+0x598>
    50b4:	f9043583          	ld	a1,-112(s0)
    50b8:	00055463          	bgez	a0,50c0 <.LBB35_308>
    50bc:	c0000637          	lui	a2,0xc0000

00000000000050c0 <.LBB35_308>:
    50c0:	f8b43823          	sd	a1,-112(s0)
    50c4:	00001537          	lui	a0,0x1
    50c8:	40a40533          	sub	a0,s0,a0
    50cc:	6cc53023          	sd	a2,1728(a0) # 16c0 <.LBB35_4+0x590>
    50d0:	b4843503          	ld	a0,-1208(s0)
    50d4:	00aa853b          	addw	a0,s5,a0
    50d8:	40000637          	lui	a2,0x40000
    50dc:	000015b7          	lui	a1,0x1
    50e0:	40b405b3          	sub	a1,s0,a1
    50e4:	6ea5b023          	sd	a0,1760(a1) # 16e0 <.LBB35_5+0xc>
    50e8:	f9043583          	ld	a1,-112(s0)
    50ec:	00055463          	bgez	a0,50f4 <.LBB35_310>
    50f0:	c0000637          	lui	a2,0xc0000

00000000000050f4 <.LBB35_310>:
    50f4:	f8b43823          	sd	a1,-112(s0)
    50f8:	00001537          	lui	a0,0x1
    50fc:	40a40533          	sub	a0,s0,a0
    5100:	6cc53c23          	sd	a2,1752(a0) # 16d8 <.LBB35_5+0x4>
    5104:	b5043503          	ld	a0,-1200(s0)
    5108:	00aa053b          	addw	a0,s4,a0
    510c:	40000637          	lui	a2,0x40000
    5110:	000015b7          	lui	a1,0x1
    5114:	40b405b3          	sub	a1,s0,a1
    5118:	6ea5b823          	sd	a0,1776(a1) # 16f0 <.LBB35_5+0x1c>
    511c:	f9043583          	ld	a1,-112(s0)
    5120:	00055463          	bgez	a0,5128 <.LBB35_312>
    5124:	c0000637          	lui	a2,0xc0000

0000000000005128 <.LBB35_312>:
    5128:	f8b43823          	sd	a1,-112(s0)
    512c:	00001537          	lui	a0,0x1
    5130:	40a40533          	sub	a0,s0,a0
    5134:	6ec53423          	sd	a2,1768(a0) # 16e8 <.LBB35_5+0x14>
    5138:	b5843503          	ld	a0,-1192(s0)
    513c:	00a9853b          	addw	a0,s3,a0
    5140:	40000637          	lui	a2,0x40000
    5144:	000015b7          	lui	a1,0x1
    5148:	40b405b3          	sub	a1,s0,a1
    514c:	70a5b423          	sd	a0,1800(a1) # 1708 <.LBB35_5+0x34>
    5150:	f9043583          	ld	a1,-112(s0)
    5154:	00055463          	bgez	a0,515c <.LBB35_314>
    5158:	c0000637          	lui	a2,0xc0000

000000000000515c <.LBB35_314>:
    515c:	f8b43823          	sd	a1,-112(s0)
    5160:	00001537          	lui	a0,0x1
    5164:	40a40533          	sub	a0,s0,a0
    5168:	70c53023          	sd	a2,1792(a0) # 1700 <.LBB35_5+0x2c>
    516c:	b6043503          	ld	a0,-1184(s0)
    5170:	00a9053b          	addw	a0,s2,a0
    5174:	40000637          	lui	a2,0x40000
    5178:	000015b7          	lui	a1,0x1
    517c:	40b405b3          	sub	a1,s0,a1
    5180:	70a5bc23          	sd	a0,1816(a1) # 1718 <.LBB35_5+0x44>
    5184:	f9043583          	ld	a1,-112(s0)
    5188:	00055463          	bgez	a0,5190 <.LBB35_316>
    518c:	c0000637          	lui	a2,0xc0000

0000000000005190 <.LBB35_316>:
    5190:	f8b43823          	sd	a1,-112(s0)
    5194:	00001537          	lui	a0,0x1
    5198:	40a40533          	sub	a0,s0,a0
    519c:	70c53823          	sd	a2,1808(a0) # 1710 <.LBB35_5+0x3c>
    51a0:	b6843503          	ld	a0,-1176(s0)
    51a4:	00a4853b          	addw	a0,s1,a0
    51a8:	40000637          	lui	a2,0x40000
    51ac:	000015b7          	lui	a1,0x1
    51b0:	40b405b3          	sub	a1,s0,a1
    51b4:	72a5b823          	sd	a0,1840(a1) # 1730 <.LBB35_5+0x5c>
    51b8:	f9043583          	ld	a1,-112(s0)
    51bc:	00055463          	bgez	a0,51c4 <.LBB35_318>
    51c0:	c0000637          	lui	a2,0xc0000

00000000000051c4 <.LBB35_318>:
    51c4:	f8b43823          	sd	a1,-112(s0)
    51c8:	00001537          	lui	a0,0x1
    51cc:	40a40533          	sub	a0,s0,a0
    51d0:	72c53423          	sd	a2,1832(a0) # 1728 <.LBB35_5+0x54>
    51d4:	b7043503          	ld	a0,-1168(s0)
    51d8:	00af853b          	addw	a0,t6,a0
    51dc:	40000637          	lui	a2,0x40000
    51e0:	000015b7          	lui	a1,0x1
    51e4:	40b405b3          	sub	a1,s0,a1
    51e8:	74a5b023          	sd	a0,1856(a1) # 1740 <.LBB35_5+0x6c>
    51ec:	f9043583          	ld	a1,-112(s0)
    51f0:	00055463          	bgez	a0,51f8 <.LBB35_320>
    51f4:	c0000637          	lui	a2,0xc0000

00000000000051f8 <.LBB35_320>:
    51f8:	f8b43823          	sd	a1,-112(s0)
    51fc:	00001537          	lui	a0,0x1
    5200:	40a40533          	sub	a0,s0,a0
    5204:	72c53c23          	sd	a2,1848(a0) # 1738 <.LBB35_5+0x64>
    5208:	b7843503          	ld	a0,-1160(s0)
    520c:	00ab053b          	addw	a0,s6,a0
    5210:	40000637          	lui	a2,0x40000
    5214:	000015b7          	lui	a1,0x1
    5218:	40b405b3          	sub	a1,s0,a1
    521c:	74a5bc23          	sd	a0,1880(a1) # 1758 <.LBB35_5+0x84>
    5220:	f9043583          	ld	a1,-112(s0)
    5224:	00055463          	bgez	a0,522c <.LBB35_322>
    5228:	c0000637          	lui	a2,0xc0000

000000000000522c <.LBB35_322>:
    522c:	f8b43823          	sd	a1,-112(s0)
    5230:	00001537          	lui	a0,0x1
    5234:	40a40533          	sub	a0,s0,a0
    5238:	74c53823          	sd	a2,1872(a0) # 1750 <.LBB35_5+0x7c>
    523c:	b8043503          	ld	a0,-1152(s0)
    5240:	00ab853b          	addw	a0,s7,a0
    5244:	40000637          	lui	a2,0x40000
    5248:	000015b7          	lui	a1,0x1
    524c:	40b405b3          	sub	a1,s0,a1
    5250:	76a5b423          	sd	a0,1896(a1) # 1768 <.LBB35_5+0x94>
    5254:	f9043583          	ld	a1,-112(s0)
    5258:	00055463          	bgez	a0,5260 <.LBB35_324>
    525c:	c0000637          	lui	a2,0xc0000

0000000000005260 <.LBB35_324>:
    5260:	f8b43823          	sd	a1,-112(s0)
    5264:	00001537          	lui	a0,0x1
    5268:	40a40533          	sub	a0,s0,a0
    526c:	76c53023          	sd	a2,1888(a0) # 1760 <.LBB35_5+0x8c>
    5270:	b8843503          	ld	a0,-1144(s0)
    5274:	00ac053b          	addw	a0,s8,a0
    5278:	40000637          	lui	a2,0x40000
    527c:	000015b7          	lui	a1,0x1
    5280:	40b405b3          	sub	a1,s0,a1
    5284:	78a5b023          	sd	a0,1920(a1) # 1780 <.LBB35_5+0xac>
    5288:	f9043583          	ld	a1,-112(s0)
    528c:	00055463          	bgez	a0,5294 <.LBB35_326>
    5290:	c0000637          	lui	a2,0xc0000

0000000000005294 <.LBB35_326>:
    5294:	f8b43823          	sd	a1,-112(s0)
    5298:	00001537          	lui	a0,0x1
    529c:	40a40533          	sub	a0,s0,a0
    52a0:	76c53c23          	sd	a2,1912(a0) # 1778 <.LBB35_5+0xa4>
    52a4:	b9043503          	ld	a0,-1136(s0)
    52a8:	f8843603          	ld	a2,-120(s0)
    52ac:	00a6053b          	addw	a0,a2,a0
    52b0:	40000637          	lui	a2,0x40000
    52b4:	000015b7          	lui	a1,0x1
    52b8:	40b405b3          	sub	a1,s0,a1
