
code.o:     file format elf64-littleriscv


Disassembly of section .text.main_dispatch_53_depthwise_conv_2d_nhwc_hwc_1x14x14x192x3x3_i8xi8xi32:

0000000000000000 <main_dispatch_53_depthwise_conv_2d_nhwc_hwc_1x14x14x192x3x3_i8xi8xi32>:
   0:	f1501173          	csrrw	sp,0xf15,zero

0000000000000004 <.Lfunc_begin48>:
   4:	d0010113          	addi	sp,sp,-768
   8:	2e113c23          	sd	ra,760(sp)
   c:	2e813823          	sd	s0,752(sp)
  10:	2e913423          	sd	s1,744(sp)
  14:	2f213023          	sd	s2,736(sp)
  18:	2d313c23          	sd	s3,728(sp)
  1c:	2d413823          	sd	s4,720(sp)
  20:	2d513423          	sd	s5,712(sp)
  24:	2d613023          	sd	s6,704(sp)
  28:	2b713c23          	sd	s7,696(sp)
  2c:	2b813823          	sd	s8,688(sp)
  30:	2b913423          	sd	s9,680(sp)
  34:	2ba13023          	sd	s10,672(sp)
  38:	29b13c23          	sd	s11,664(sp)
  3c:	30010413          	addi	s0,sp,768
  40:	0205b503          	ld	a0,32(a1)
  44:	00000713          	li	a4,0
  48:	00853583          	ld	a1,8(a0)
  4c:	00053603          	ld	a2,0(a0)
  50:	01b00693          	li	a3,27
  54:	00b69693          	slli	a3,a3,0xb
  58:	00d585b3          	add	a1,a1,a3
  5c:	d2b43c23          	sd	a1,-712(s0)
  60:	01053503          	ld	a0,16(a0)
  64:	d0a43c23          	sd	a0,-744(s0)
  68:	0002c537          	lui	a0,0x2c
  6c:	f805051b          	addiw	a0,a0,-128 # 2bf80 <.Lfunc_end80+0x35b4>
  70:	00a60cb3          	add	s9,a2,a0
  74:	01500513          	li	a0,21
  78:	00951513          	slli	a0,a0,0x9
  7c:	d0a43823          	sd	a0,-752(s0)
  80:	00900513          	li	a0,9
  84:	00951513          	slli	a0,a0,0x9
  88:	d2a43823          	sd	a0,-720(s0)
  8c:	00001537          	lui	a0,0x1
  90:	5c05079b          	addiw	a5,a0,1472 # 15c0 <.LBB107_231>
  94:	00003537          	lui	a0,0x3
  98:	b805051b          	addiw	a0,a0,-1152 # 2b80 <.LBB101_6+0x4>
  9c:	d0a43423          	sd	a0,-760(s0)
  a0:	daf43423          	sd	a5,-600(s0)

00000000000000a4 <.LBB48_1>:
  a4:	00000593          	li	a1,0
  a8:	d2e43423          	sd	a4,-728(s0)
  ac:	d1043503          	ld	a0,-752(s0)
  b0:	02a70533          	mul	a0,a4,a0
  b4:	d1843603          	ld	a2,-744(s0)
  b8:	00a60533          	add	a0,a2,a0
  bc:	d4a43023          	sd	a0,-704(s0)
  c0:	d3943023          	sd	s9,-736(s0)

00000000000000c4 <.LBB48_2>:
  c4:	00000513          	li	a0,0
  c8:	00058613          	mv	a2,a1
  cc:	30000593          	li	a1,768
  d0:	d4c43423          	sd	a2,-696(s0)
  d4:	02b605b3          	mul	a1,a2,a1
  d8:	d4043603          	ld	a2,-704(s0)
  dc:	00b60633          	add	a2,a2,a1
  e0:	30060593          	addi	a1,a2,768
  e4:	d8b43023          	sd	a1,-640(s0)
  e8:	60060593          	addi	a1,a2,1536
  ec:	d6b43c23          	sd	a1,-648(s0)
  f0:	7ff60593          	addi	a1,a2,2047
  f4:	10158713          	addi	a4,a1,257
  f8:	d6e43823          	sd	a4,-656(s0)
  fc:	40158713          	addi	a4,a1,1025
 100:	d6e43423          	sd	a4,-664(s0)
 104:	70158593          	addi	a1,a1,1793
 108:	d6b43023          	sd	a1,-672(s0)
 10c:	d3043583          	ld	a1,-720(s0)
 110:	d8c43423          	sd	a2,-632(s0)
 114:	00b605b3          	add	a1,a2,a1
 118:	d4b43c23          	sd	a1,-680(s0)
 11c:	d3843083          	ld	ra,-712(s0)
 120:	d5943823          	sd	s9,-688(s0)

0000000000000124 <.LBB48_3>:
 124:	00000693          	li	a3,0
 128:	f6043423          	sd	zero,-152(s0)
 12c:	f4043823          	sd	zero,-176(s0)
 130:	f6043023          	sd	zero,-160(s0)
 134:	00000993          	li	s3,0
 138:	f6043c23          	sd	zero,-136(s0)
 13c:	00000893          	li	a7,0
 140:	f6043823          	sd	zero,-144(s0)
 144:	00000e93          	li	t4,0
 148:	f8043423          	sd	zero,-120(s0)
 14c:	f4043c23          	sd	zero,-168(s0)
 150:	f8043023          	sd	zero,-128(s0)
 154:	00000293          	li	t0,0
 158:	00000393          	li	t2,0
 15c:	00000b93          	li	s7,0
 160:	00000b13          	li	s6,0
 164:	00000c13          	li	s8,0
 168:	00000313          	li	t1,0
 16c:	00000a13          	li	s4,0
 170:	00000f13          	li	t5,0
 174:	00000613          	li	a2,0
 178:	f8043823          	sd	zero,-112(s0)
 17c:	00000f93          	li	t6,0
 180:	00000a93          	li	s5,0
 184:	00000493          	li	s1,0
 188:	00000913          	li	s2,0
 18c:	00000e13          	li	t3,0
 190:	00000d13          	li	s10,0
 194:	d8a43823          	sd	a0,-624(s0)
 198:	ffd00513          	li	a0,-3
 19c:	da143023          	sd	ra,-608(s0)
 1a0:	d9943c23          	sd	s9,-616(s0)

00000000000001a4 <.LBB48_4>:
 1a4:	f4a43423          	sd	a0,-184(s0)
 1a8:	ac2c8503          	lb	a0,-1342(s9)
 1ac:	00208d83          	lb	s11,2(ra)
 1b0:	ac1c8583          	lb	a1,-1343(s9)
 1b4:	000d0713          	mv	a4,s10
 1b8:	000e0d13          	mv	s10,t3
 1bc:	00108e03          	lb	t3,1(ra)
 1c0:	02ad8533          	mul	a0,s11,a0
 1c4:	f5043783          	ld	a5,-176(s0)
 1c8:	00f50533          	add	a0,a0,a5
 1cc:	f4a43823          	sd	a0,-176(s0)
 1d0:	02be0533          	mul	a0,t3,a1
 1d4:	ac0c8783          	lb	a5,-1344(s9)
 1d8:	00030813          	mv	a6,t1
 1dc:	00008303          	lb	t1,0(ra)
 1e0:	f6843583          	ld	a1,-152(s0)
 1e4:	00b50533          	add	a0,a0,a1
 1e8:	f6a43423          	sd	a0,-152(s0)
 1ec:	ac3c8503          	lb	a0,-1341(s9)
 1f0:	00308583          	lb	a1,3(ra)
 1f4:	02f307b3          	mul	a5,t1,a5
 1f8:	00d786b3          	add	a3,a5,a3
 1fc:	f2d43023          	sd	a3,-224(s0)
 200:	c40c8783          	lb	a5,-960(s9)
 204:	eaf43423          	sd	a5,-344(s0)
 208:	02a58533          	mul	a0,a1,a0
 20c:	f6043683          	ld	a3,-160(s0)
 210:	00d50533          	add	a0,a0,a3
 214:	f6a43023          	sd	a0,-160(s0)
 218:	c41c8683          	lb	a3,-959(s9)
 21c:	ded43c23          	sd	a3,-520(s0)
 220:	02f30533          	mul	a0,t1,a5
 224:	01350533          	add	a0,a0,s3
 228:	f0a43c23          	sd	a0,-232(s0)
 22c:	c42c8983          	lb	s3,-958(s9)
 230:	02de07b3          	mul	a5,t3,a3
 234:	f7843503          	ld	a0,-136(s0)
 238:	00a78533          	add	a0,a5,a0
 23c:	f6a43c23          	sd	a0,-136(s0)
 240:	c43c8503          	lb	a0,-957(s9)
 244:	e8a43423          	sd	a0,-376(s0)
 248:	033d87b3          	mul	a5,s11,s3
 24c:	011787b3          	add	a5,a5,a7
 250:	f0f43823          	sd	a5,-240(s0)
 254:	dc0c8683          	lb	a3,-576(s9)
 258:	e6d43823          	sd	a3,-400(s0)
 25c:	02a587b3          	mul	a5,a1,a0
 260:	f7043503          	ld	a0,-144(s0)
 264:	00a78533          	add	a0,a5,a0
 268:	f6a43823          	sd	a0,-144(s0)
 26c:	dc1c8503          	lb	a0,-575(s9)
 270:	e8a43c23          	sd	a0,-360(s0)
 274:	02d307b3          	mul	a5,t1,a3
 278:	01d787b3          	add	a5,a5,t4
 27c:	f0f43423          	sd	a5,-248(s0)
 280:	dc2c8683          	lb	a3,-574(s9)
 284:	e8d43023          	sd	a3,-384(s0)
 288:	02ae07b3          	mul	a5,t3,a0
 28c:	f8843503          	ld	a0,-120(s0)
 290:	00a78533          	add	a0,a5,a0
 294:	f8a43423          	sd	a0,-120(s0)
 298:	dc3c8883          	lb	a7,-573(s9)
 29c:	e7143c23          	sd	a7,-392(s0)
 2a0:	02dd87b3          	mul	a5,s11,a3
 2a4:	f5843503          	ld	a0,-168(s0)
 2a8:	00a78533          	add	a0,a5,a0
 2ac:	f4a43c23          	sd	a0,-168(s0)
 2b0:	f40c8683          	lb	a3,-192(s9)
 2b4:	e6d43423          	sd	a3,-408(s0)
 2b8:	031587b3          	mul	a5,a1,a7
 2bc:	f8043503          	ld	a0,-128(s0)
 2c0:	00a78533          	add	a0,a5,a0
 2c4:	f8a43023          	sd	a0,-128(s0)
 2c8:	f41c8503          	lb	a0,-191(s9)
 2cc:	e6a43023          	sd	a0,-416(s0)
 2d0:	02d307b3          	mul	a5,t1,a3
 2d4:	005787b3          	add	a5,a5,t0
 2d8:	f0f43023          	sd	a5,-256(s0)
 2dc:	f42c8683          	lb	a3,-190(s9)
 2e0:	e2d43823          	sd	a3,-464(s0)
 2e4:	02ae07b3          	mul	a5,t3,a0
 2e8:	007787b3          	add	a5,a5,t2
 2ec:	eef43c23          	sd	a5,-264(s0)
 2f0:	f43c8883          	lb	a7,-189(s9)
 2f4:	e3143423          	sd	a7,-472(s0)
 2f8:	02dd87b3          	mul	a5,s11,a3
 2fc:	017787b3          	add	a5,a5,s7
 300:	eef43823          	sd	a5,-272(s0)
 304:	0c0c8503          	lb	a0,192(s9)
 308:	e4a43c23          	sd	a0,-424(s0)
 30c:	031586b3          	mul	a3,a1,a7
 310:	016686b3          	add	a3,a3,s6
 314:	eed43423          	sd	a3,-280(s0)
 318:	0c1c8783          	lb	a5,193(s9)
 31c:	e4f43823          	sd	a5,-432(s0)
 320:	02a306b3          	mul	a3,t1,a0
 324:	018686b3          	add	a3,a3,s8
 328:	eed43023          	sd	a3,-288(s0)
 32c:	0c2c8503          	lb	a0,194(s9)
 330:	e2a43023          	sd	a0,-480(s0)
 334:	02fe06b3          	mul	a3,t3,a5
 338:	010686b3          	add	a3,a3,a6
 33c:	ecd43c23          	sd	a3,-296(s0)
 340:	0c3c8783          	lb	a5,195(s9)
 344:	e0f43c23          	sd	a5,-488(s0)
 348:	02ad86b3          	mul	a3,s11,a0
 34c:	014686b3          	add	a3,a3,s4
 350:	ecd43823          	sd	a3,-304(s0)
 354:	240c8503          	lb	a0,576(s9)
 358:	e4a43423          	sd	a0,-440(s0)
 35c:	02f586b3          	mul	a3,a1,a5
 360:	01e686b3          	add	a3,a3,t5
 364:	ecd43423          	sd	a3,-312(s0)
 368:	241c8783          	lb	a5,577(s9)
 36c:	e8f43823          	sd	a5,-368(s0)
 370:	02a306b3          	mul	a3,t1,a0
 374:	00c68633          	add	a2,a3,a2
 378:	ecc43023          	sd	a2,-320(s0)
 37c:	242c8603          	lb	a2,578(s9)
 380:	e0c43823          	sd	a2,-496(s0)
 384:	02fe06b3          	mul	a3,t3,a5
 388:	f9043503          	ld	a0,-112(s0)
 38c:	00a68533          	add	a0,a3,a0
 390:	f8a43823          	sd	a0,-112(s0)
 394:	243c8783          	lb	a5,579(s9)
 398:	e0f43423          	sd	a5,-504(s0)
 39c:	02cd86b3          	mul	a3,s11,a2
 3a0:	01f686b3          	add	a3,a3,t6
 3a4:	ead43c23          	sd	a3,-328(s0)
 3a8:	3c0c8503          	lb	a0,960(s9)
 3ac:	e4a43023          	sd	a0,-448(s0)
 3b0:	02f58633          	mul	a2,a1,a5
 3b4:	01560633          	add	a2,a2,s5
 3b8:	eac43823          	sd	a2,-336(s0)
 3bc:	3c1c8683          	lb	a3,961(s9)
 3c0:	e2d43c23          	sd	a3,-456(s0)
 3c4:	02a30633          	mul	a2,t1,a0
 3c8:	00960633          	add	a2,a2,s1
 3cc:	f4c43023          	sd	a2,-192(s0)
 3d0:	3c2c8783          	lb	a5,962(s9)
 3d4:	e0f43023          	sd	a5,-512(s0)
 3d8:	02de0633          	mul	a2,t3,a3
 3dc:	3c3c8503          	lb	a0,963(s9)
 3e0:	eaa43023          	sd	a0,-352(s0)
 3e4:	01260633          	add	a2,a2,s2
 3e8:	f2c43c23          	sd	a2,-200(s0)
 3ec:	02fd8633          	mul	a2,s11,a5
 3f0:	01a60633          	add	a2,a2,s10
 3f4:	f2c43823          	sd	a2,-208(s0)
 3f8:	02a585b3          	mul	a1,a1,a0
 3fc:	00e585b3          	add	a1,a1,a4
 400:	f2b43423          	sd	a1,-216(s0)
 404:	b80c8583          	lb	a1,-1152(s9)
 408:	0c008603          	lb	a2,192(ra)
 40c:	d00c8683          	lb	a3,-768(s9)
 410:	e80c8703          	lb	a4,-384(s9)
 414:	000c8783          	lb	a5,0(s9)
 418:	02b60c33          	mul	s8,a2,a1
 41c:	02d60b33          	mul	s6,a2,a3
 420:	02e60d33          	mul	s10,a2,a4
 424:	02f60533          	mul	a0,a2,a5
 428:	dca43023          	sd	a0,-576(s0)
 42c:	b81c8583          	lb	a1,-1151(s9)
 430:	180c8683          	lb	a3,384(s9)
 434:	300c8703          	lb	a4,768(s9)
 438:	480c8783          	lb	a5,1152(s9)
 43c:	0c108803          	lb	a6,193(ra)
 440:	02d60533          	mul	a0,a2,a3
 444:	dca43c23          	sd	a0,-552(s0)
 448:	02e60533          	mul	a0,a2,a4
 44c:	dea43023          	sd	a0,-544(s0)
 450:	02f60533          	mul	a0,a2,a5
 454:	dea43823          	sd	a0,-528(s0)
 458:	02b803b3          	mul	t2,a6,a1
 45c:	d01c8583          	lb	a1,-767(s9)
 460:	e81c8603          	lb	a2,-383(s9)
 464:	001c8683          	lb	a3,1(s9)
 468:	181c8783          	lb	a5,385(s9)
 46c:	02b808b3          	mul	a7,a6,a1
 470:	02c80733          	mul	a4,a6,a2
 474:	02d80bb3          	mul	s7,a6,a3
 478:	02f80533          	mul	a0,a6,a5
 47c:	daa43823          	sd	a0,-592(s0)
 480:	301c8603          	lb	a2,769(s9)
 484:	b82c8683          	lb	a3,-1150(s9)
 488:	481c8783          	lb	a5,1153(s9)
 48c:	0c208283          	lb	t0,194(ra)
 490:	02c80533          	mul	a0,a6,a2
 494:	dca43423          	sd	a0,-568(s0)
 498:	d02c8603          	lb	a2,-766(s9)
 49c:	02f80533          	mul	a0,a6,a5
 4a0:	dea43423          	sd	a0,-536(s0)
 4a4:	02d28eb3          	mul	t4,t0,a3
 4a8:	e82c8683          	lb	a3,-382(s9)
 4ac:	02c28f33          	mul	t5,t0,a2
 4b0:	002c8603          	lb	a2,2(s9)
 4b4:	182c8783          	lb	a5,386(s9)
 4b8:	02d28833          	mul	a6,t0,a3
 4bc:	302c8e03          	lb	t3,770(s9)
 4c0:	02c28333          	mul	t1,t0,a2
 4c4:	02f28a33          	mul	s4,t0,a5
 4c8:	482c8783          	lb	a5,1154(s9)
 4cc:	03c28db3          	mul	s11,t0,t3
 4d0:	b83c8e03          	lb	t3,-1149(s9)
 4d4:	0c308903          	lb	s2,195(ra)
 4d8:	02f28533          	mul	a0,t0,a5
 4dc:	dca43823          	sd	a0,-560(s0)
 4e0:	d03c8783          	lb	a5,-765(s9)
 4e4:	e83c8283          	lb	t0,-381(s9)
 4e8:	03c905b3          	mul	a1,s2,t3
 4ec:	003c8e03          	lb	t3,3(s9)
 4f0:	02f90633          	mul	a2,s2,a5
 4f4:	025902b3          	mul	t0,s2,t0
 4f8:	183c8f83          	lb	t6,387(s9)
 4fc:	03c907b3          	mul	a5,s2,t3
 500:	303c8e03          	lb	t3,771(s9)
 504:	483c8503          	lb	a0,1155(s9)
 508:	03f90fb3          	mul	t6,s2,t6
 50c:	18208483          	lb	s1,386(ra)
 510:	03c90ab3          	mul	s5,s2,t3
 514:	02a90533          	mul	a0,s2,a0
 518:	daa43c23          	sd	a0,-584(s0)
 51c:	18108903          	lb	s2,385(ra)
 520:	03348533          	mul	a0,s1,s3
 524:	00ae8533          	add	a0,t4,a0
 528:	f5043683          	ld	a3,-176(s0)
 52c:	00a68533          	add	a0,a3,a0
 530:	f4a43823          	sd	a0,-176(s0)
 534:	df843503          	ld	a0,-520(s0)
 538:	02a90533          	mul	a0,s2,a0
 53c:	18008983          	lb	s3,384(ra)
 540:	00a38533          	add	a0,t2,a0
 544:	f6843683          	ld	a3,-152(s0)
 548:	00a68533          	add	a0,a3,a0
 54c:	f6a43423          	sd	a0,-152(s0)
 550:	18308503          	lb	a0,387(ra)
 554:	ea843683          	ld	a3,-344(s0)
 558:	02d983b3          	mul	t2,s3,a3
 55c:	007c03b3          	add	t2,s8,t2
 560:	f2043e03          	ld	t3,-224(s0)
 564:	007e0e33          	add	t3,t3,t2
 568:	e8843683          	ld	a3,-376(s0)
 56c:	02d503b3          	mul	t2,a0,a3
 570:	007585b3          	add	a1,a1,t2
 574:	f6043683          	ld	a3,-160(s0)
 578:	00b685b3          	add	a1,a3,a1
 57c:	f6b43023          	sd	a1,-160(s0)
 580:	e7043583          	ld	a1,-400(s0)
 584:	02b985b3          	mul	a1,s3,a1
 588:	00bb05b3          	add	a1,s6,a1
 58c:	f1843683          	ld	a3,-232(s0)
 590:	00b686b3          	add	a3,a3,a1
 594:	e9843583          	ld	a1,-360(s0)
 598:	02b905b3          	mul	a1,s2,a1
 59c:	00b885b3          	add	a1,a7,a1
 5a0:	f7843883          	ld	a7,-136(s0)
 5a4:	00b885b3          	add	a1,a7,a1
 5a8:	f6b43c23          	sd	a1,-136(s0)
 5ac:	e8043583          	ld	a1,-384(s0)
 5b0:	02b485b3          	mul	a1,s1,a1
 5b4:	00bf05b3          	add	a1,t5,a1
 5b8:	f1043883          	ld	a7,-240(s0)
 5bc:	00b888b3          	add	a7,a7,a1
 5c0:	e7843583          	ld	a1,-392(s0)
 5c4:	02b505b3          	mul	a1,a0,a1
 5c8:	00b605b3          	add	a1,a2,a1
 5cc:	f7043603          	ld	a2,-144(s0)
 5d0:	00b605b3          	add	a1,a2,a1
 5d4:	f6b43823          	sd	a1,-144(s0)
 5d8:	e6843583          	ld	a1,-408(s0)
 5dc:	02b985b3          	mul	a1,s3,a1
 5e0:	00bd05b3          	add	a1,s10,a1
 5e4:	f0843d03          	ld	s10,-248(s0)
 5e8:	00bd0d33          	add	s10,s10,a1
 5ec:	e6043583          	ld	a1,-416(s0)
 5f0:	02b905b3          	mul	a1,s2,a1
 5f4:	00b705b3          	add	a1,a4,a1
 5f8:	f8843603          	ld	a2,-120(s0)
 5fc:	00b605b3          	add	a1,a2,a1
 600:	f8b43423          	sd	a1,-120(s0)
 604:	e3043583          	ld	a1,-464(s0)
 608:	02b485b3          	mul	a1,s1,a1
 60c:	00b805b3          	add	a1,a6,a1
 610:	f5843603          	ld	a2,-168(s0)
 614:	00b605b3          	add	a1,a2,a1
 618:	f4b43c23          	sd	a1,-168(s0)
 61c:	e2843583          	ld	a1,-472(s0)
 620:	02b505b3          	mul	a1,a0,a1
 624:	00b285b3          	add	a1,t0,a1
 628:	f8043603          	ld	a2,-128(s0)
 62c:	00b605b3          	add	a1,a2,a1
 630:	f8b43023          	sd	a1,-128(s0)
 634:	e5843583          	ld	a1,-424(s0)
 638:	02b985b3          	mul	a1,s3,a1
 63c:	dc043603          	ld	a2,-576(s0)
 640:	00b605b3          	add	a1,a2,a1
 644:	f0043e83          	ld	t4,-256(s0)
 648:	00be8eb3          	add	t4,t4,a1
 64c:	e5043583          	ld	a1,-432(s0)
 650:	02b905b3          	mul	a1,s2,a1
 654:	00bb85b3          	add	a1,s7,a1
 658:	ef843383          	ld	t2,-264(s0)
 65c:	00b383b3          	add	t2,t2,a1
 660:	e2043583          	ld	a1,-480(s0)
 664:	02b485b3          	mul	a1,s1,a1
 668:	00b305b3          	add	a1,t1,a1
 66c:	ef043b83          	ld	s7,-272(s0)
 670:	00bb8bb3          	add	s7,s7,a1
 674:	e1843583          	ld	a1,-488(s0)
 678:	02b505b3          	mul	a1,a0,a1
 67c:	00b785b3          	add	a1,a5,a1
 680:	ee843b03          	ld	s6,-280(s0)
 684:	00bb0b33          	add	s6,s6,a1
 688:	e4843583          	ld	a1,-440(s0)
 68c:	02b985b3          	mul	a1,s3,a1
 690:	dd843603          	ld	a2,-552(s0)
 694:	00b605b3          	add	a1,a2,a1
 698:	ee043c03          	ld	s8,-288(s0)
 69c:	00bc0c33          	add	s8,s8,a1
 6a0:	e9043583          	ld	a1,-368(s0)
 6a4:	02b905b3          	mul	a1,s2,a1
 6a8:	db043603          	ld	a2,-592(s0)
 6ac:	00b605b3          	add	a1,a2,a1
 6b0:	ed843303          	ld	t1,-296(s0)
 6b4:	00b30333          	add	t1,t1,a1
 6b8:	e1043583          	ld	a1,-496(s0)
 6bc:	02b485b3          	mul	a1,s1,a1
 6c0:	00ba05b3          	add	a1,s4,a1
 6c4:	ed043a03          	ld	s4,-304(s0)
 6c8:	00ba0a33          	add	s4,s4,a1
 6cc:	e0843583          	ld	a1,-504(s0)
 6d0:	02b505b3          	mul	a1,a0,a1
 6d4:	00bf85b3          	add	a1,t6,a1
 6d8:	ec843f03          	ld	t5,-312(s0)
 6dc:	00bf0f33          	add	t5,t5,a1
 6e0:	e4043583          	ld	a1,-448(s0)
 6e4:	02b985b3          	mul	a1,s3,a1
 6e8:	de043603          	ld	a2,-544(s0)
 6ec:	00b605b3          	add	a1,a2,a1
 6f0:	ec043603          	ld	a2,-320(s0)
 6f4:	00b60633          	add	a2,a2,a1
 6f8:	e3843583          	ld	a1,-456(s0)
 6fc:	02b905b3          	mul	a1,s2,a1
 700:	dc843703          	ld	a4,-568(s0)
 704:	00b705b3          	add	a1,a4,a1
 708:	f9043703          	ld	a4,-112(s0)
 70c:	00b705b3          	add	a1,a4,a1
 710:	f8b43823          	sd	a1,-112(s0)
 714:	e0043583          	ld	a1,-512(s0)
 718:	02b485b3          	mul	a1,s1,a1
 71c:	00bd85b3          	add	a1,s11,a1
 720:	eb843f83          	ld	t6,-328(s0)
 724:	00bf8fb3          	add	t6,t6,a1
 728:	ea043583          	ld	a1,-352(s0)
 72c:	02b505b3          	mul	a1,a0,a1
 730:	00ba85b3          	add	a1,s5,a1
 734:	eb043a83          	ld	s5,-336(s0)
 738:	00ba8ab3          	add	s5,s5,a1
 73c:	543c8583          	lb	a1,1347(s9)
 740:	542c8783          	lb	a5,1346(s9)
 744:	541c8803          	lb	a6,1345(s9)
 748:	540c8283          	lb	t0,1344(s9)
 74c:	02b50533          	mul	a0,a0,a1
 750:	02f485b3          	mul	a1,s1,a5
 754:	030907b3          	mul	a5,s2,a6
 758:	02598833          	mul	a6,s3,t0
 75c:	00068993          	mv	s3,a3
 760:	000e0693          	mv	a3,t3
 764:	000e8293          	mv	t0,t4
 768:	000d0e93          	mv	t4,s10
 76c:	df043703          	ld	a4,-528(s0)
 770:	01070833          	add	a6,a4,a6
 774:	f4043483          	ld	s1,-192(s0)
 778:	010484b3          	add	s1,s1,a6
 77c:	de843703          	ld	a4,-536(s0)
 780:	00f707b3          	add	a5,a4,a5
 784:	f3843903          	ld	s2,-200(s0)
 788:	00f90933          	add	s2,s2,a5
 78c:	da843783          	ld	a5,-600(s0)
 790:	dd043703          	ld	a4,-560(s0)
 794:	00b705b3          	add	a1,a4,a1
 798:	f3043e03          	ld	t3,-208(s0)
 79c:	00be0e33          	add	t3,t3,a1
 7a0:	db843583          	ld	a1,-584(s0)
 7a4:	00a58533          	add	a0,a1,a0
 7a8:	f2843d03          	ld	s10,-216(s0)
 7ac:	00ad0d33          	add	s10,s10,a0
 7b0:	f4843503          	ld	a0,-184(s0)
 7b4:	00fc8cb3          	add	s9,s9,a5
 7b8:	00150513          	addi	a0,a0,1
 7bc:	24008093          	addi	ra,ra,576
 7c0:	9e0512e3          	bnez	a0,1a4 <.LBB48_4>
 7c4:	d9043803          	ld	a6,-624(s0)
 7c8:	00281513          	slli	a0,a6,0x2
 7cc:	d8843583          	ld	a1,-632(s0)
 7d0:	00a585b3          	add	a1,a1,a0
 7d4:	f5043703          	ld	a4,-176(s0)
 7d8:	00e5a423          	sw	a4,8(a1)
 7dc:	f6843703          	ld	a4,-152(s0)
 7e0:	00e5a223          	sw	a4,4(a1)
 7e4:	00d5a023          	sw	a3,0(a1)
 7e8:	f6043683          	ld	a3,-160(s0)
 7ec:	00d5a623          	sw	a3,12(a1)
 7f0:	d8043583          	ld	a1,-640(s0)
 7f4:	00a585b3          	add	a1,a1,a0
 7f8:	0115a423          	sw	a7,8(a1)
 7fc:	f7843683          	ld	a3,-136(s0)
 800:	00d5a223          	sw	a3,4(a1)
 804:	0135a023          	sw	s3,0(a1)
 808:	f7043683          	ld	a3,-144(s0)
 80c:	00d5a623          	sw	a3,12(a1)
 810:	d7843583          	ld	a1,-648(s0)
 814:	00a585b3          	add	a1,a1,a0
 818:	f5843683          	ld	a3,-168(s0)
 81c:	00d5a423          	sw	a3,8(a1)
 820:	f8843683          	ld	a3,-120(s0)
 824:	00d5a223          	sw	a3,4(a1)
 828:	01d5a023          	sw	t4,0(a1)
 82c:	f8043683          	ld	a3,-128(s0)
 830:	00d5a623          	sw	a3,12(a1)
 834:	d7043583          	ld	a1,-656(s0)
 838:	00a585b3          	add	a1,a1,a0
 83c:	0175a423          	sw	s7,8(a1)
 840:	0075a223          	sw	t2,4(a1)
 844:	0055a023          	sw	t0,0(a1)
 848:	0165a623          	sw	s6,12(a1)
 84c:	d6843583          	ld	a1,-664(s0)
 850:	00a585b3          	add	a1,a1,a0
 854:	0145a423          	sw	s4,8(a1)
 858:	0065a223          	sw	t1,4(a1)
 85c:	0185a023          	sw	s8,0(a1)
 860:	01e5a623          	sw	t5,12(a1)
 864:	d6043583          	ld	a1,-672(s0)
 868:	00a585b3          	add	a1,a1,a0
 86c:	01f5a423          	sw	t6,8(a1)
 870:	f9043683          	ld	a3,-112(s0)
 874:	00d5a223          	sw	a3,4(a1)
 878:	00c5a023          	sw	a2,0(a1)
 87c:	0155a623          	sw	s5,12(a1)
 880:	d5843583          	ld	a1,-680(s0)
 884:	00a58533          	add	a0,a1,a0
 888:	01c52423          	sw	t3,8(a0)
 88c:	01252223          	sw	s2,4(a0)
 890:	00952023          	sw	s1,0(a0)
 894:	01a52623          	sw	s10,12(a0)
 898:	00480513          	addi	a0,a6,4
 89c:	d9843c83          	ld	s9,-616(s0)
 8a0:	004c8c93          	addi	s9,s9,4
 8a4:	da043083          	ld	ra,-608(s0)
 8a8:	00408093          	addi	ra,ra,4
 8ac:	0bc00593          	li	a1,188
 8b0:	86b86ae3          	bltu	a6,a1,124 <.LBB48_3>
 8b4:	d4843603          	ld	a2,-696(s0)
 8b8:	00760593          	addi	a1,a2,7
 8bc:	d5043503          	ld	a0,-688(s0)
 8c0:	7ff50513          	addi	a0,a0,2047
 8c4:	28150c93          	addi	s9,a0,641
 8c8:	00700513          	li	a0,7
 8cc:	fea66c63          	bltu	a2,a0,c4 <.LBB48_2>
 8d0:	d2843703          	ld	a4,-728(s0)
 8d4:	00170713          	addi	a4,a4,1
 8d8:	d2043c83          	ld	s9,-736(s0)
 8dc:	d0843503          	ld	a0,-760(s0)
 8e0:	00ac8cb3          	add	s9,s9,a0
 8e4:	00e00513          	li	a0,14
 8e8:	faa71e63          	bne	a4,a0,a4 <.LBB48_1>
 8ec:	00000513          	li	a0,0
 8f0:	2f813083          	ld	ra,760(sp)
 8f4:	2f013403          	ld	s0,752(sp)
 8f8:	2e813483          	ld	s1,744(sp)
 8fc:	2e013903          	ld	s2,736(sp)
 900:	2d813983          	ld	s3,728(sp)
 904:	2d013a03          	ld	s4,720(sp)
 908:	2c813a83          	ld	s5,712(sp)
 90c:	2c013b03          	ld	s6,704(sp)
 910:	2b813b83          	ld	s7,696(sp)
 914:	2b013c03          	ld	s8,688(sp)
 918:	2a813c83          	ld	s9,680(sp)
 91c:	2a013d03          	ld	s10,672(sp)
 920:	29813d83          	ld	s11,664(sp)
 924:	30010113          	addi	sp,sp,768
 928:	00008067          	ret
