
code.o:     file format elf64-littleriscv


Disassembly of section .text.main_dispatch_11_matmul_12544x16x32_i8xi8xi32:

0000000000000000 <main_dispatch_11_matmul_12544x16x32_i8xi8xi32>:
       0:	81010113          	addi	sp,sp,-2032
       4:	7e113423          	sd	ra,2024(sp)
       8:	7e813023          	sd	s0,2016(sp)
       c:	7c913c23          	sd	s1,2008(sp)
      10:	7d213823          	sd	s2,2000(sp)
      14:	7d313423          	sd	s3,1992(sp)
      18:	7d413023          	sd	s4,1984(sp)
      1c:	7b513c23          	sd	s5,1976(sp)
      20:	7b613823          	sd	s6,1968(sp)
      24:	7b713423          	sd	s7,1960(sp)
      28:	7b813023          	sd	s8,1952(sp)
      2c:	79913c23          	sd	s9,1944(sp)
      30:	79a13823          	sd	s10,1936(sp)
      34:	79b13423          	sd	s11,1928(sp)
      38:	7f010413          	addi	s0,sp,2032
      3c:	c3010113          	addi	sp,sp,-976
      40:	fc017113          	andi	sp,sp,-64
      44:	0205b503          	ld	a0,32(a1)
      48:	54013423          	sd	zero,1352(sp)
      4c:	00853583          	ld	a1,8(a0)
      50:	00053703          	ld	a4,0(a0)
      54:	00021637          	lui	a2,0x21
      58:	2406069b          	addiw	a3,a2,576 # 21240 <.LBB63_4282>
      5c:	00d586b3          	add	a3,a1,a3
      60:	08d13423          	sd	a3,136(sp)
      64:	4406061b          	addiw	a2,a2,1088
      68:	01053503          	ld	a0,16(a0)
      6c:	00c585b3          	add	a1,a1,a2
      70:	08b13023          	sd	a1,128(sp)
      74:	0000c5b7          	lui	a1,0xc
      78:	4005859b          	addiw	a1,a1,1024 # c400 <.LBB19_797>
      7c:	00b50533          	add	a0,a0,a1
      80:	06a13c23          	sd	a0,120(sp)

0000000000000084 <.Lpcrel_hi3>:
      84:	00000517          	auipc	a0,0x0
      88:	00050513          	mv	a0,a0
      8c:	03c52583          	lw	a1,60(a0) # c0 <.Lpcrel_hi3+0x3c>
      90:	06b13823          	sd	a1,112(sp)
      94:	03852583          	lw	a1,56(a0)
      98:	06b13423          	sd	a1,104(sp)
      9c:	03452583          	lw	a1,52(a0)
      a0:	06b13023          	sd	a1,96(sp)
      a4:	03052583          	lw	a1,48(a0)
      a8:	04b13c23          	sd	a1,88(sp)
      ac:	02c52583          	lw	a1,44(a0)
      b0:	04b13823          	sd	a1,80(sp)
      b4:	02852583          	lw	a1,40(a0)
      b8:	04b13423          	sd	a1,72(sp)
      bc:	02452583          	lw	a1,36(a0)
      c0:	04b13023          	sd	a1,64(sp)
      c4:	02052583          	lw	a1,32(a0)
      c8:	02b13c23          	sd	a1,56(sp)
      cc:	01c52583          	lw	a1,28(a0)
      d0:	02b13823          	sd	a1,48(sp)
      d4:	01852583          	lw	a1,24(a0)
      d8:	02b13423          	sd	a1,40(sp)
      dc:	01452583          	lw	a1,20(a0)
      e0:	02b13023          	sd	a1,32(sp)
      e4:	01052583          	lw	a1,16(a0)
      e8:	52b13823          	sd	a1,1328(sp)
      ec:	00c52583          	lw	a1,12(a0)
      f0:	52b13423          	sd	a1,1320(sp)
      f4:	00852583          	lw	a1,8(a0)
      f8:	52b13023          	sd	a1,1312(sp)
      fc:	00452583          	lw	a1,4(a0)
     100:	54b13023          	sd	a1,1344(sp)
     104:	00052503          	lw	a0,0(a0)
     108:	52a13c23          	sd	a0,1336(sp)
     10c:	00188537          	lui	a0,0x188
     110:	0e05051b          	addiw	a0,a0,224 # 1880e0 <.Lfunc_end80+0x15f718>
     114:	08e13823          	sd	a4,144(sp)
     118:	00a707b3          	add	a5,a4,a0
     11c:	514c3537          	lui	a0,0x514c3
     120:	9025051b          	addiw	a0,a0,-1790 # 514c2902 <.Lfunc_end80+0x51499f3a>
     124:	00a13c23          	sd	a0,24(sp)
     128:	00100513          	li	a0,1
     12c:	02651513          	slli	a0,a0,0x26
     130:	00a13823          	sd	a0,16(sp)
     134:	7180006f          	j	84c <.LBB11_2>

0000000000000138 <.LBB11_1>:
     138:	63b13823          	sd	s11,1584(sp)
     13c:	001b8b93          	addi	s7,s7,1
     140:	54813d83          	ld	s11,1352(sp)
     144:	004d9893          	slli	a7,s11,0x4
     148:	07813083          	ld	ra,120(sp)
     14c:	011088b3          	add	a7,ra,a7
     150:	01788023          	sb	s7,0(a7)
     154:	00001bb7          	lui	s7,0x1
     158:	01710bb3          	add	s7,sp,s7
     15c:	8f0bbb83          	ld	s7,-1808(s7) # 8f0 <.LBB11_2+0xa4>
     160:	001b8b93          	addi	s7,s7,1
     164:	017880a3          	sb	s7,1(a7)
     168:	00001bb7          	lui	s7,0x1
     16c:	01710bb3          	add	s7,sp,s7
     170:	900bbb83          	ld	s7,-1792(s7) # 900 <.LBB11_2+0xb4>
     174:	001b8b93          	addi	s7,s7,1
     178:	01788123          	sb	s7,2(a7)
     17c:	00001bb7          	lui	s7,0x1
     180:	01710bb3          	add	s7,sp,s7
     184:	910bbb83          	ld	s7,-1776(s7) # 910 <.LBB11_2+0xc4>
     188:	001b8b93          	addi	s7,s7,1
     18c:	017881a3          	sb	s7,3(a7)
     190:	00001bb7          	lui	s7,0x1
     194:	01710bb3          	add	s7,sp,s7
     198:	920bbb83          	ld	s7,-1760(s7) # 920 <.LBB11_2+0xd4>
     19c:	001b8b93          	addi	s7,s7,1
     1a0:	01788223          	sb	s7,4(a7)
     1a4:	00001bb7          	lui	s7,0x1
     1a8:	01710bb3          	add	s7,sp,s7
     1ac:	930bbb83          	ld	s7,-1744(s7) # 930 <.LBB11_2+0xe4>
     1b0:	001b8b93          	addi	s7,s7,1
     1b4:	017882a3          	sb	s7,5(a7)
     1b8:	00001bb7          	lui	s7,0x1
     1bc:	01710bb3          	add	s7,sp,s7
     1c0:	938bbb83          	ld	s7,-1736(s7) # 938 <.LBB11_2+0xec>
     1c4:	001b8b93          	addi	s7,s7,1
     1c8:	01788323          	sb	s7,6(a7)
     1cc:	00168b93          	addi	s7,a3,1
     1d0:	017883a3          	sb	s7,7(a7)
     1d4:	001b0b93          	addi	s7,s6,1
     1d8:	01788423          	sb	s7,8(a7)
     1dc:	001a8b93          	addi	s7,s5,1
     1e0:	017884a3          	sb	s7,9(a7)
     1e4:	001a0b93          	addi	s7,s4,1
     1e8:	01788523          	sb	s7,10(a7)
     1ec:	00198b93          	addi	s7,s3,1
     1f0:	017885a3          	sb	s7,11(a7)
     1f4:	001d0b93          	addi	s7,s10,1
     1f8:	01788623          	sb	s7,12(a7)
     1fc:	00190b93          	addi	s7,s2,1
     200:	017886a3          	sb	s7,13(a7)
     204:	00148b93          	addi	s7,s1,1
     208:	01788723          	sb	s7,14(a7)
     20c:	001f8b93          	addi	s7,t6,1
     210:	017887a3          	sb	s7,15(a7)
     214:	000016b7          	lui	a3,0x1
     218:	00d106b3          	add	a3,sp,a3
     21c:	8686bb83          	ld	s7,-1944(a3) # 868 <.LBB11_2+0x1c>
     220:	001b8b93          	addi	s7,s7,1
     224:	01788823          	sb	s7,16(a7)
     228:	000016b7          	lui	a3,0x1
     22c:	00d106b3          	add	a3,sp,a3
     230:	8786bb83          	ld	s7,-1928(a3) # 878 <.LBB11_2+0x2c>
     234:	001b8b93          	addi	s7,s7,1
     238:	017888a3          	sb	s7,17(a7)
     23c:	000016b7          	lui	a3,0x1
     240:	00d106b3          	add	a3,sp,a3
     244:	8886bb83          	ld	s7,-1912(a3) # 888 <.LBB11_2+0x3c>
     248:	001b8b93          	addi	s7,s7,1
     24c:	01788923          	sb	s7,18(a7)
     250:	000016b7          	lui	a3,0x1
     254:	00d106b3          	add	a3,sp,a3
     258:	8986bb83          	ld	s7,-1896(a3) # 898 <.LBB11_2+0x4c>
     25c:	001b8b93          	addi	s7,s7,1
     260:	017889a3          	sb	s7,19(a7)
     264:	000016b7          	lui	a3,0x1
     268:	00d106b3          	add	a3,sp,a3
     26c:	8a86bb83          	ld	s7,-1880(a3) # 8a8 <.LBB11_2+0x5c>
     270:	001b8b93          	addi	s7,s7,1
     274:	01788a23          	sb	s7,20(a7)
     278:	000016b7          	lui	a3,0x1
     27c:	00d106b3          	add	a3,sp,a3
     280:	8b86bb83          	ld	s7,-1864(a3) # 8b8 <.LBB11_2+0x6c>
     284:	001b8b93          	addi	s7,s7,1
     288:	01788aa3          	sb	s7,21(a7)
     28c:	000016b7          	lui	a3,0x1
     290:	00d106b3          	add	a3,sp,a3
     294:	8c06bb83          	ld	s7,-1856(a3) # 8c0 <.LBB11_2+0x74>
     298:	001b8b93          	addi	s7,s7,1
     29c:	01788b23          	sb	s7,22(a7)
     2a0:	000016b7          	lui	a3,0x1
     2a4:	00d106b3          	add	a3,sp,a3
     2a8:	8c86bb83          	ld	s7,-1848(a3) # 8c8 <.LBB11_2+0x7c>
     2ac:	001b8b93          	addi	s7,s7,1
     2b0:	01788ba3          	sb	s7,23(a7)
     2b4:	000016b7          	lui	a3,0x1
     2b8:	00d106b3          	add	a3,sp,a3
     2bc:	8d06bb83          	ld	s7,-1840(a3) # 8d0 <.LBB11_2+0x84>
     2c0:	001b8b93          	addi	s7,s7,1
     2c4:	01788c23          	sb	s7,24(a7)
     2c8:	000016b7          	lui	a3,0x1
     2cc:	00d106b3          	add	a3,sp,a3
     2d0:	8d86bb83          	ld	s7,-1832(a3) # 8d8 <.LBB11_2+0x8c>
     2d4:	001b8b93          	addi	s7,s7,1
     2d8:	01788ca3          	sb	s7,25(a7)
     2dc:	000016b7          	lui	a3,0x1
     2e0:	00d106b3          	add	a3,sp,a3
     2e4:	8e06bb83          	ld	s7,-1824(a3) # 8e0 <.LBB11_2+0x94>
     2e8:	001b8b93          	addi	s7,s7,1
     2ec:	01788d23          	sb	s7,26(a7)
     2f0:	000016b7          	lui	a3,0x1
     2f4:	00d106b3          	add	a3,sp,a3
     2f8:	8e86bb83          	ld	s7,-1816(a3) # 8e8 <.LBB11_2+0x9c>
     2fc:	001b8b93          	addi	s7,s7,1
     300:	01788da3          	sb	s7,27(a7)
     304:	000016b7          	lui	a3,0x1
     308:	00d106b3          	add	a3,sp,a3
     30c:	8f86bb83          	ld	s7,-1800(a3) # 8f8 <.LBB11_2+0xac>
     310:	001b8b93          	addi	s7,s7,1
     314:	01788e23          	sb	s7,28(a7)
     318:	000016b7          	lui	a3,0x1
     31c:	00d106b3          	add	a3,sp,a3
     320:	9086bb83          	ld	s7,-1784(a3) # 908 <.LBB11_2+0xbc>
     324:	001b8b93          	addi	s7,s7,1
     328:	01788ea3          	sb	s7,29(a7)
     32c:	000016b7          	lui	a3,0x1
     330:	00d106b3          	add	a3,sp,a3
     334:	9186bb83          	ld	s7,-1768(a3) # 918 <.LBB11_2+0xcc>
     338:	001b8b93          	addi	s7,s7,1
     33c:	01788f23          	sb	s7,30(a7)
     340:	000016b7          	lui	a3,0x1
     344:	00d106b3          	add	a3,sp,a3
     348:	9286bb83          	ld	s7,-1752(a3) # 928 <.LBB11_2+0xdc>
     34c:	001b8b93          	addi	s7,s7,1
     350:	01788fa3          	sb	s7,31(a7)
     354:	7e813b83          	ld	s7,2024(sp)
     358:	001b8b93          	addi	s7,s7,1
     35c:	03788023          	sb	s7,32(a7)
     360:	7f813b83          	ld	s7,2040(sp)
     364:	001b8b93          	addi	s7,s7,1
     368:	037880a3          	sb	s7,33(a7)
     36c:	000016b7          	lui	a3,0x1
     370:	00d106b3          	add	a3,sp,a3
     374:	8086bb83          	ld	s7,-2040(a3) # 808 <.LBB11_1+0x6d0>
     378:	001b8b93          	addi	s7,s7,1
     37c:	03788123          	sb	s7,34(a7)
     380:	000016b7          	lui	a3,0x1
     384:	00d106b3          	add	a3,sp,a3
     388:	8186bb83          	ld	s7,-2024(a3) # 818 <.LBB11_1+0x6e0>
     38c:	001b8b93          	addi	s7,s7,1
     390:	037881a3          	sb	s7,35(a7)
     394:	000016b7          	lui	a3,0x1
     398:	00d106b3          	add	a3,sp,a3
     39c:	8286bb83          	ld	s7,-2008(a3) # 828 <.LBB11_1+0x6f0>
     3a0:	001b8b93          	addi	s7,s7,1
     3a4:	03788223          	sb	s7,36(a7)
     3a8:	000016b7          	lui	a3,0x1
     3ac:	00d106b3          	add	a3,sp,a3
     3b0:	8386bb83          	ld	s7,-1992(a3) # 838 <.LBB11_1+0x700>
     3b4:	001b8b93          	addi	s7,s7,1
     3b8:	037882a3          	sb	s7,37(a7)
     3bc:	000016b7          	lui	a3,0x1
     3c0:	00d106b3          	add	a3,sp,a3
     3c4:	8406bb83          	ld	s7,-1984(a3) # 840 <.LBB11_1+0x708>
     3c8:	001b8b93          	addi	s7,s7,1
     3cc:	03788323          	sb	s7,38(a7)
     3d0:	000016b7          	lui	a3,0x1
     3d4:	00d106b3          	add	a3,sp,a3
     3d8:	8486bb83          	ld	s7,-1976(a3) # 848 <.LBB11_1+0x710>
     3dc:	001b8b93          	addi	s7,s7,1
     3e0:	037883a3          	sb	s7,39(a7)
     3e4:	000016b7          	lui	a3,0x1
     3e8:	00d106b3          	add	a3,sp,a3
     3ec:	8506bb83          	ld	s7,-1968(a3) # 850 <.LBB11_2+0x4>
     3f0:	001b8b93          	addi	s7,s7,1
     3f4:	03788423          	sb	s7,40(a7)
     3f8:	000016b7          	lui	a3,0x1
     3fc:	00d106b3          	add	a3,sp,a3
     400:	8586bb83          	ld	s7,-1960(a3) # 858 <.LBB11_2+0xc>
     404:	001b8b93          	addi	s7,s7,1
     408:	037884a3          	sb	s7,41(a7)
     40c:	000016b7          	lui	a3,0x1
     410:	00d106b3          	add	a3,sp,a3
     414:	8606bb83          	ld	s7,-1952(a3) # 860 <.LBB11_2+0x14>
     418:	001b8b93          	addi	s7,s7,1
     41c:	03788523          	sb	s7,42(a7)
     420:	000016b7          	lui	a3,0x1
     424:	00d106b3          	add	a3,sp,a3
     428:	8706bb83          	ld	s7,-1936(a3) # 870 <.LBB11_2+0x24>
     42c:	001b8b93          	addi	s7,s7,1
     430:	037885a3          	sb	s7,43(a7)
     434:	000016b7          	lui	a3,0x1
     438:	00d106b3          	add	a3,sp,a3
     43c:	8806bb83          	ld	s7,-1920(a3) # 880 <.LBB11_2+0x34>
     440:	001b8b93          	addi	s7,s7,1
     444:	03788623          	sb	s7,44(a7)
     448:	000016b7          	lui	a3,0x1
     44c:	00d106b3          	add	a3,sp,a3
     450:	8906bb83          	ld	s7,-1904(a3) # 890 <.LBB11_2+0x44>
     454:	001b8b93          	addi	s7,s7,1
     458:	037886a3          	sb	s7,45(a7)
     45c:	000016b7          	lui	a3,0x1
     460:	00d106b3          	add	a3,sp,a3
     464:	8a06bb83          	ld	s7,-1888(a3) # 8a0 <.LBB11_2+0x54>
     468:	001b8b93          	addi	s7,s7,1
     46c:	03788723          	sb	s7,46(a7)
     470:	000016b7          	lui	a3,0x1
     474:	00d106b3          	add	a3,sp,a3
     478:	8b06bb83          	ld	s7,-1872(a3) # 8b0 <.LBB11_2+0x64>
     47c:	001b8b93          	addi	s7,s7,1
     480:	037887a3          	sb	s7,47(a7)
     484:	76813b83          	ld	s7,1896(sp)
     488:	001b8b93          	addi	s7,s7,1
     48c:	03788823          	sb	s7,48(a7)
     490:	77813b83          	ld	s7,1912(sp)
     494:	001b8b93          	addi	s7,s7,1
     498:	037888a3          	sb	s7,49(a7)
     49c:	78813b83          	ld	s7,1928(sp)
     4a0:	001b8b93          	addi	s7,s7,1
     4a4:	03788923          	sb	s7,50(a7)
     4a8:	79813b83          	ld	s7,1944(sp)
     4ac:	001b8b93          	addi	s7,s7,1
     4b0:	037889a3          	sb	s7,51(a7)
     4b4:	7a813b83          	ld	s7,1960(sp)
     4b8:	001b8b93          	addi	s7,s7,1
     4bc:	03788a23          	sb	s7,52(a7)
     4c0:	7b813b83          	ld	s7,1976(sp)
     4c4:	001b8b93          	addi	s7,s7,1
     4c8:	03788aa3          	sb	s7,53(a7)
     4cc:	7c013b83          	ld	s7,1984(sp)
     4d0:	001b8b93          	addi	s7,s7,1
     4d4:	03788b23          	sb	s7,54(a7)
     4d8:	7c813b83          	ld	s7,1992(sp)
     4dc:	001b8b93          	addi	s7,s7,1
     4e0:	03788ba3          	sb	s7,55(a7)
     4e4:	7d013b83          	ld	s7,2000(sp)
     4e8:	001b8b93          	addi	s7,s7,1
     4ec:	03788c23          	sb	s7,56(a7)
     4f0:	7d813b83          	ld	s7,2008(sp)
     4f4:	001b8b93          	addi	s7,s7,1
     4f8:	03788ca3          	sb	s7,57(a7)
     4fc:	7e013b83          	ld	s7,2016(sp)
     500:	001b8b93          	addi	s7,s7,1
     504:	03788d23          	sb	s7,58(a7)
     508:	7f013b83          	ld	s7,2032(sp)
     50c:	001b8b93          	addi	s7,s7,1
     510:	03788da3          	sb	s7,59(a7)
     514:	000016b7          	lui	a3,0x1
     518:	00d106b3          	add	a3,sp,a3
     51c:	8006bb83          	ld	s7,-2048(a3) # 800 <.LBB11_1+0x6c8>
     520:	001b8b93          	addi	s7,s7,1
     524:	03788e23          	sb	s7,60(a7)
     528:	000016b7          	lui	a3,0x1
     52c:	00d106b3          	add	a3,sp,a3
     530:	8106bb83          	ld	s7,-2032(a3) # 810 <.LBB11_1+0x6d8>
     534:	001b8b93          	addi	s7,s7,1
     538:	03788ea3          	sb	s7,61(a7)
     53c:	000016b7          	lui	a3,0x1
     540:	00d106b3          	add	a3,sp,a3
     544:	8206bb83          	ld	s7,-2016(a3) # 820 <.LBB11_1+0x6e8>
     548:	001b8b93          	addi	s7,s7,1
     54c:	03788f23          	sb	s7,62(a7)
     550:	000016b7          	lui	a3,0x1
     554:	00d106b3          	add	a3,sp,a3
     558:	8306bb83          	ld	s7,-2000(a3) # 830 <.LBB11_1+0x6f8>
     55c:	001b8b93          	addi	s7,s7,1
     560:	03788fa3          	sb	s7,63(a7)
     564:	6e813b83          	ld	s7,1768(sp)
     568:	001b8b93          	addi	s7,s7,1
     56c:	05788023          	sb	s7,64(a7)
     570:	6f813b83          	ld	s7,1784(sp)
     574:	001b8b93          	addi	s7,s7,1
     578:	057880a3          	sb	s7,65(a7)
     57c:	70813b83          	ld	s7,1800(sp)
     580:	001b8b93          	addi	s7,s7,1
     584:	05788123          	sb	s7,66(a7)
     588:	71813b83          	ld	s7,1816(sp)
     58c:	001b8b93          	addi	s7,s7,1
     590:	057881a3          	sb	s7,67(a7)
     594:	72813b83          	ld	s7,1832(sp)
     598:	001b8b93          	addi	s7,s7,1
     59c:	05788223          	sb	s7,68(a7)
     5a0:	73813b83          	ld	s7,1848(sp)
     5a4:	001b8b93          	addi	s7,s7,1
     5a8:	057882a3          	sb	s7,69(a7)
     5ac:	74013b83          	ld	s7,1856(sp)
     5b0:	001b8b93          	addi	s7,s7,1
     5b4:	05788323          	sb	s7,70(a7)
     5b8:	74813b83          	ld	s7,1864(sp)
     5bc:	001b8b93          	addi	s7,s7,1
     5c0:	057883a3          	sb	s7,71(a7)
     5c4:	75013b83          	ld	s7,1872(sp)
     5c8:	001b8b93          	addi	s7,s7,1
     5cc:	05788423          	sb	s7,72(a7)
     5d0:	75813b83          	ld	s7,1880(sp)
     5d4:	001b8b93          	addi	s7,s7,1
     5d8:	057884a3          	sb	s7,73(a7)
     5dc:	76013b83          	ld	s7,1888(sp)
     5e0:	001b8b93          	addi	s7,s7,1
     5e4:	05788523          	sb	s7,74(a7)
     5e8:	77013b83          	ld	s7,1904(sp)
     5ec:	001b8b93          	addi	s7,s7,1
     5f0:	057885a3          	sb	s7,75(a7)
     5f4:	78013b83          	ld	s7,1920(sp)
     5f8:	001b8b93          	addi	s7,s7,1
     5fc:	05788623          	sb	s7,76(a7)
     600:	79013b83          	ld	s7,1936(sp)
     604:	001b8b93          	addi	s7,s7,1
     608:	057886a3          	sb	s7,77(a7)
     60c:	7a013b83          	ld	s7,1952(sp)
     610:	001b8b93          	addi	s7,s7,1
     614:	05788723          	sb	s7,78(a7)
     618:	7b013b83          	ld	s7,1968(sp)
     61c:	001b8b93          	addi	s7,s7,1
     620:	057887a3          	sb	s7,79(a7)
     624:	66813b83          	ld	s7,1640(sp)
     628:	001b8b93          	addi	s7,s7,1
     62c:	05788823          	sb	s7,80(a7)
     630:	67813b83          	ld	s7,1656(sp)
     634:	001b8b93          	addi	s7,s7,1
     638:	057888a3          	sb	s7,81(a7)
     63c:	68813b83          	ld	s7,1672(sp)
     640:	001b8b93          	addi	s7,s7,1
     644:	05788923          	sb	s7,82(a7)
     648:	69813b83          	ld	s7,1688(sp)
     64c:	001b8b93          	addi	s7,s7,1
     650:	057889a3          	sb	s7,83(a7)
     654:	6a813b83          	ld	s7,1704(sp)
     658:	001b8b93          	addi	s7,s7,1
     65c:	05788a23          	sb	s7,84(a7)
     660:	6b813b83          	ld	s7,1720(sp)
     664:	001b8b93          	addi	s7,s7,1
     668:	05788aa3          	sb	s7,85(a7)
     66c:	6c013b83          	ld	s7,1728(sp)
     670:	001b8b93          	addi	s7,s7,1
     674:	05788b23          	sb	s7,86(a7)
     678:	6c813b83          	ld	s7,1736(sp)
     67c:	001b8b93          	addi	s7,s7,1
     680:	05788ba3          	sb	s7,87(a7)
     684:	6d013b83          	ld	s7,1744(sp)
     688:	001b8b93          	addi	s7,s7,1
     68c:	05788c23          	sb	s7,88(a7)
     690:	6d813b83          	ld	s7,1752(sp)
     694:	001b8b93          	addi	s7,s7,1
     698:	05788ca3          	sb	s7,89(a7)
     69c:	6e013b83          	ld	s7,1760(sp)
     6a0:	001b8b93          	addi	s7,s7,1
     6a4:	05788d23          	sb	s7,90(a7)
     6a8:	6f013b83          	ld	s7,1776(sp)
     6ac:	001b8b93          	addi	s7,s7,1
     6b0:	05788da3          	sb	s7,91(a7)
     6b4:	70013b83          	ld	s7,1792(sp)
     6b8:	001b8b93          	addi	s7,s7,1
     6bc:	05788e23          	sb	s7,92(a7)
     6c0:	71013b83          	ld	s7,1808(sp)
     6c4:	001b8b93          	addi	s7,s7,1
     6c8:	05788ea3          	sb	s7,93(a7)
     6cc:	72013b83          	ld	s7,1824(sp)
     6d0:	001b8b93          	addi	s7,s7,1
     6d4:	05788f23          	sb	s7,94(a7)
     6d8:	73013b83          	ld	s7,1840(sp)
     6dc:	001b8b93          	addi	s7,s7,1
     6e0:	05788fa3          	sb	s7,95(a7)
     6e4:	00150513          	addi	a0,a0,1
     6e8:	06a88023          	sb	a0,96(a7)
     6ec:	001c0c13          	addi	s8,s8,1
     6f0:	078880a3          	sb	s8,97(a7)
     6f4:	60813b03          	ld	s6,1544(sp)
     6f8:	001b0b13          	addi	s6,s6,1
     6fc:	07688123          	sb	s6,98(a7)
     700:	61813a03          	ld	s4,1560(sp)
     704:	001a0a13          	addi	s4,s4,1
     708:	074881a3          	sb	s4,99(a7)
     70c:	62813d03          	ld	s10,1576(sp)
     710:	001d0d13          	addi	s10,s10,1
     714:	07a88223          	sb	s10,100(a7)
     718:	63813483          	ld	s1,1592(sp)
     71c:	00148493          	addi	s1,s1,1
     720:	069882a3          	sb	s1,101(a7)
     724:	64013f83          	ld	t6,1600(sp)
     728:	001f8f93          	addi	t6,t6,1
     72c:	07f88323          	sb	t6,102(a7)
     730:	64813503          	ld	a0,1608(sp)
     734:	00150513          	addi	a0,a0,1
     738:	06a883a3          	sb	a0,103(a7)
     73c:	65013503          	ld	a0,1616(sp)
     740:	00150513          	addi	a0,a0,1
     744:	06a88423          	sb	a0,104(a7)
     748:	65813503          	ld	a0,1624(sp)
     74c:	00150513          	addi	a0,a0,1
     750:	06a884a3          	sb	a0,105(a7)
     754:	66013503          	ld	a0,1632(sp)
     758:	00150513          	addi	a0,a0,1
     75c:	06a88523          	sb	a0,106(a7)
     760:	67013503          	ld	a0,1648(sp)
     764:	00150513          	addi	a0,a0,1
     768:	06a885a3          	sb	a0,107(a7)
     76c:	68013503          	ld	a0,1664(sp)
     770:	00150513          	addi	a0,a0,1
     774:	06a88623          	sb	a0,108(a7)
     778:	69013503          	ld	a0,1680(sp)
     77c:	00150513          	addi	a0,a0,1
     780:	06a886a3          	sb	a0,109(a7)
     784:	6a013503          	ld	a0,1696(sp)
     788:	00150513          	addi	a0,a0,1
     78c:	06a88723          	sb	a0,110(a7)
     790:	6b013503          	ld	a0,1712(sp)
     794:	00150513          	addi	a0,a0,1
     798:	06a887a3          	sb	a0,111(a7)
     79c:	001f0f13          	addi	t5,t5,1
     7a0:	07e88823          	sb	t5,112(a7)
     7a4:	001e8e93          	addi	t4,t4,1
     7a8:	07d888a3          	sb	t4,113(a7)
     7ac:	001e0e13          	addi	t3,t3,1
     7b0:	07c88923          	sb	t3,114(a7)
     7b4:	00138393          	addi	t2,t2,1
     7b8:	067889a3          	sb	t2,115(a7)
     7bc:	00130313          	addi	t1,t1,1
     7c0:	06688a23          	sb	t1,116(a7)
     7c4:	00128293          	addi	t0,t0,1
     7c8:	06588aa3          	sb	t0,117(a7)
     7cc:	00180813          	addi	a6,a6,1
     7d0:	07088b23          	sb	a6,118(a7)
     7d4:	00178793          	addi	a5,a5,1
     7d8:	06f88ba3          	sb	a5,119(a7)
     7dc:	00170713          	addi	a4,a4,1
     7e0:	06e88c23          	sb	a4,120(a7)
     7e4:	00160613          	addi	a2,a2,1
     7e8:	06c88ca3          	sb	a2,121(a7)
     7ec:	00158593          	addi	a1,a1,1
     7f0:	06b88d23          	sb	a1,122(a7)
     7f4:	001c8c93          	addi	s9,s9,1
     7f8:	07988da3          	sb	s9,123(a7)
     7fc:	60013683          	ld	a3,1536(sp)
     800:	00168693          	addi	a3,a3,1
     804:	06d88e23          	sb	a3,124(a7)
     808:	61013a83          	ld	s5,1552(sp)
     80c:	001a8a93          	addi	s5,s5,1
     810:	07588ea3          	sb	s5,125(a7)
     814:	62013983          	ld	s3,1568(sp)
     818:	00198993          	addi	s3,s3,1
     81c:	07388f23          	sb	s3,126(a7)
     820:	63013903          	ld	s2,1584(sp)
     824:	00190913          	addi	s2,s2,1
     828:	07288fa3          	sb	s2,127(a7)
     82c:	003dd513          	srli	a0,s11,0x3
     830:	008d8593          	addi	a1,s11,8
     834:	51813783          	ld	a5,1304(sp)
     838:	10078793          	addi	a5,a5,256
     83c:	54b13423          	sd	a1,1352(sp)
     840:	61f00593          	li	a1,1567
     844:	00b56463          	bltu	a0,a1,84c <.LBB11_2>
     848:	7d40606f          	j	701c <.LBB11_772>

000000000000084c <.LBB11_2>:
     84c:	00001537          	lui	a0,0x1
     850:	00a10533          	add	a0,sp,a0
     854:	90053023          	sd	zero,-1792(a0) # 900 <.LBB11_2+0xb4>
     858:	00001537          	lui	a0,0x1
     85c:	00a10533          	add	a0,sp,a0
     860:	90053423          	sd	zero,-1784(a0) # 908 <.LBB11_2+0xbc>
     864:	00001537          	lui	a0,0x1
     868:	00a10533          	add	a0,sp,a0
     86c:	90053823          	sd	zero,-1776(a0) # 910 <.LBB11_2+0xc4>
     870:	00000093          	li	ra,0
     874:	00000d93          	li	s11,0
     878:	00000d13          	li	s10,0
     87c:	00000c13          	li	s8,0
     880:	00000b93          	li	s7,0
     884:	00000b13          	li	s6,0
     888:	00000f13          	li	t5,0
     88c:	00000e93          	li	t4,0
     890:	00000293          	li	t0,0
     894:	00000893          	li	a7,0
     898:	00000813          	li	a6,0
     89c:	00000693          	li	a3,0
     8a0:	00000593          	li	a1,0
     8a4:	00001537          	lui	a0,0x1
     8a8:	00a10533          	add	a0,sp,a0
     8ac:	94053023          	sd	zero,-1728(a0) # 940 <.LBB11_2+0xf4>
     8b0:	00001537          	lui	a0,0x1
     8b4:	00a10533          	add	a0,sp,a0
     8b8:	94053423          	sd	zero,-1720(a0) # 948 <.LBB11_2+0xfc>
     8bc:	00001537          	lui	a0,0x1
     8c0:	00a10533          	add	a0,sp,a0
     8c4:	94053823          	sd	zero,-1712(a0) # 950 <.LBB11_2+0x104>
     8c8:	00001537          	lui	a0,0x1
     8cc:	00a10533          	add	a0,sp,a0
     8d0:	94053c23          	sd	zero,-1704(a0) # 958 <.LBB11_2+0x10c>
     8d4:	00001537          	lui	a0,0x1
     8d8:	00a10533          	add	a0,sp,a0
     8dc:	96053023          	sd	zero,-1696(a0) # 960 <.LBB11_2+0x114>
     8e0:	00001537          	lui	a0,0x1
     8e4:	00a10533          	add	a0,sp,a0
     8e8:	96053423          	sd	zero,-1688(a0) # 968 <.LBB11_2+0x11c>
     8ec:	00001537          	lui	a0,0x1
     8f0:	00a10533          	add	a0,sp,a0
     8f4:	96053823          	sd	zero,-1680(a0) # 970 <.LBB11_2+0x124>
     8f8:	00001537          	lui	a0,0x1
     8fc:	00a10533          	add	a0,sp,a0
     900:	96053c23          	sd	zero,-1672(a0) # 978 <.LBB11_2+0x12c>
     904:	7ff10513          	addi	a0,sp,2047
     908:	18150513          	addi	a0,a0,385
     90c:	00052023          	sw	zero,0(a0)
     910:	00001537          	lui	a0,0x1
     914:	00a10533          	add	a0,sp,a0
     918:	98052223          	sw	zero,-1660(a0) # 984 <.LBB11_2+0x138>
     91c:	00001537          	lui	a0,0x1
     920:	00a10533          	add	a0,sp,a0
     924:	98053423          	sd	zero,-1656(a0) # 988 <.LBB11_2+0x13c>
     928:	00001537          	lui	a0,0x1
     92c:	00a10533          	add	a0,sp,a0
     930:	98053823          	sd	zero,-1648(a0) # 990 <.LBB11_2+0x144>
     934:	00001537          	lui	a0,0x1
     938:	00a10533          	add	a0,sp,a0
     93c:	98053c23          	sd	zero,-1640(a0) # 998 <.LBB11_2+0x14c>
     940:	00001537          	lui	a0,0x1
     944:	00a10533          	add	a0,sp,a0
     948:	9a053023          	sd	zero,-1632(a0) # 9a0 <.LBB11_2+0x154>
     94c:	00001537          	lui	a0,0x1
     950:	00a10533          	add	a0,sp,a0
     954:	9a053423          	sd	zero,-1624(a0) # 9a8 <.LBB11_2+0x15c>
     958:	00001537          	lui	a0,0x1
     95c:	00a10533          	add	a0,sp,a0
     960:	9a053823          	sd	zero,-1616(a0) # 9b0 <.LBB11_2+0x164>
     964:	00001537          	lui	a0,0x1
     968:	00a10533          	add	a0,sp,a0
     96c:	9a053c23          	sd	zero,-1608(a0) # 9b8 <.LBB11_2+0x16c>
     970:	7ff10513          	addi	a0,sp,2047
     974:	1c150513          	addi	a0,a0,449
     978:	00052023          	sw	zero,0(a0)
     97c:	00001537          	lui	a0,0x1
     980:	00a10533          	add	a0,sp,a0
     984:	9c052223          	sw	zero,-1596(a0) # 9c4 <.LBB11_2+0x178>
     988:	00001537          	lui	a0,0x1
     98c:	00a10533          	add	a0,sp,a0
     990:	9c053423          	sd	zero,-1592(a0) # 9c8 <.LBB11_2+0x17c>
     994:	00001537          	lui	a0,0x1
     998:	00a10533          	add	a0,sp,a0
     99c:	9c053823          	sd	zero,-1584(a0) # 9d0 <.LBB11_2+0x184>
     9a0:	00001537          	lui	a0,0x1
     9a4:	00a10533          	add	a0,sp,a0
     9a8:	9c053c23          	sd	zero,-1576(a0) # 9d8 <.LBB11_2+0x18c>
     9ac:	00001537          	lui	a0,0x1
     9b0:	00a10533          	add	a0,sp,a0
     9b4:	9e053023          	sd	zero,-1568(a0) # 9e0 <.LBB11_2+0x194>
     9b8:	00001537          	lui	a0,0x1
     9bc:	00a10533          	add	a0,sp,a0
     9c0:	9e053423          	sd	zero,-1560(a0) # 9e8 <.LBB11_2+0x19c>
     9c4:	00001537          	lui	a0,0x1
     9c8:	00a10533          	add	a0,sp,a0
     9cc:	9e053823          	sd	zero,-1552(a0) # 9f0 <.LBB11_2+0x1a4>
     9d0:	00001537          	lui	a0,0x1
     9d4:	00a10533          	add	a0,sp,a0
     9d8:	9e053c23          	sd	zero,-1544(a0) # 9f8 <.LBB11_2+0x1ac>
     9dc:	7ff10513          	addi	a0,sp,2047
     9e0:	20150513          	addi	a0,a0,513
     9e4:	00052023          	sw	zero,0(a0)
     9e8:	00001537          	lui	a0,0x1
     9ec:	00a10533          	add	a0,sp,a0
     9f0:	a0052223          	sw	zero,-1532(a0) # a04 <.LBB11_2+0x1b8>
     9f4:	00001537          	lui	a0,0x1
     9f8:	00a10533          	add	a0,sp,a0
     9fc:	a0053423          	sd	zero,-1528(a0) # a08 <.LBB11_2+0x1bc>
     a00:	00001537          	lui	a0,0x1
     a04:	00a10533          	add	a0,sp,a0
     a08:	a0053823          	sd	zero,-1520(a0) # a10 <.LBB11_2+0x1c4>
     a0c:	00001537          	lui	a0,0x1
     a10:	00a10533          	add	a0,sp,a0
     a14:	a0053c23          	sd	zero,-1512(a0) # a18 <.LBB11_2+0x1cc>
     a18:	00001537          	lui	a0,0x1
     a1c:	00a10533          	add	a0,sp,a0
     a20:	a2053023          	sd	zero,-1504(a0) # a20 <.LBB11_2+0x1d4>
     a24:	00001537          	lui	a0,0x1
     a28:	00a10533          	add	a0,sp,a0
     a2c:	a2053423          	sd	zero,-1496(a0) # a28 <.LBB11_2+0x1dc>
     a30:	00001537          	lui	a0,0x1
     a34:	00a10533          	add	a0,sp,a0
     a38:	a2053823          	sd	zero,-1488(a0) # a30 <.LBB11_2+0x1e4>
     a3c:	00001537          	lui	a0,0x1
     a40:	00a10533          	add	a0,sp,a0
     a44:	a2053c23          	sd	zero,-1480(a0) # a38 <.LBB11_2+0x1ec>
     a48:	7ff10513          	addi	a0,sp,2047
     a4c:	24150513          	addi	a0,a0,577
     a50:	00052023          	sw	zero,0(a0)
     a54:	00001537          	lui	a0,0x1
     a58:	00a10533          	add	a0,sp,a0
     a5c:	a4052223          	sw	zero,-1468(a0) # a44 <.LBB11_2+0x1f8>
     a60:	00001537          	lui	a0,0x1
     a64:	00a10533          	add	a0,sp,a0
     a68:	a4053423          	sd	zero,-1464(a0) # a48 <.LBB11_2+0x1fc>
     a6c:	00001537          	lui	a0,0x1
     a70:	00a10533          	add	a0,sp,a0
     a74:	a4053823          	sd	zero,-1456(a0) # a50 <.LBB11_2+0x204>
     a78:	00001537          	lui	a0,0x1
     a7c:	00a10533          	add	a0,sp,a0
     a80:	a4053c23          	sd	zero,-1448(a0) # a58 <.LBB11_2+0x20c>
     a84:	00001537          	lui	a0,0x1
     a88:	00a10533          	add	a0,sp,a0
     a8c:	a6053023          	sd	zero,-1440(a0) # a60 <.LBB11_2+0x214>
     a90:	00001537          	lui	a0,0x1
     a94:	00a10533          	add	a0,sp,a0
     a98:	a6053423          	sd	zero,-1432(a0) # a68 <.LBB11_2+0x21c>
     a9c:	00001537          	lui	a0,0x1
     aa0:	00a10533          	add	a0,sp,a0
     aa4:	a6053823          	sd	zero,-1424(a0) # a70 <.LBB11_2+0x224>
     aa8:	00001537          	lui	a0,0x1
     aac:	00a10533          	add	a0,sp,a0
     ab0:	a6053c23          	sd	zero,-1416(a0) # a78 <.LBB11_2+0x22c>
     ab4:	7ff10513          	addi	a0,sp,2047
     ab8:	28150513          	addi	a0,a0,641
     abc:	00052023          	sw	zero,0(a0)
     ac0:	00001537          	lui	a0,0x1
     ac4:	00a10533          	add	a0,sp,a0
     ac8:	a8052223          	sw	zero,-1404(a0) # a84 <.LBB11_2+0x238>
     acc:	00001537          	lui	a0,0x1
     ad0:	00a10533          	add	a0,sp,a0
     ad4:	a8053423          	sd	zero,-1400(a0) # a88 <.LBB11_2+0x23c>
     ad8:	00001537          	lui	a0,0x1
     adc:	00a10533          	add	a0,sp,a0
     ae0:	a8053823          	sd	zero,-1392(a0) # a90 <.LBB11_2+0x244>
     ae4:	00001537          	lui	a0,0x1
     ae8:	00a10533          	add	a0,sp,a0
     aec:	a8053c23          	sd	zero,-1384(a0) # a98 <.LBB11_2+0x24c>
     af0:	00001537          	lui	a0,0x1
     af4:	00a10533          	add	a0,sp,a0
     af8:	aa053023          	sd	zero,-1376(a0) # aa0 <.LBB11_2+0x254>
     afc:	00001537          	lui	a0,0x1
     b00:	00a10533          	add	a0,sp,a0
     b04:	aa053423          	sd	zero,-1368(a0) # aa8 <.LBB11_2+0x25c>
     b08:	00001537          	lui	a0,0x1
     b0c:	00a10533          	add	a0,sp,a0
     b10:	aa053823          	sd	zero,-1360(a0) # ab0 <.LBB11_2+0x264>
     b14:	00001537          	lui	a0,0x1
     b18:	00a10533          	add	a0,sp,a0
     b1c:	aa053c23          	sd	zero,-1352(a0) # ab8 <.LBB11_2+0x26c>
     b20:	7ff10513          	addi	a0,sp,2047
     b24:	2c150513          	addi	a0,a0,705
     b28:	00052023          	sw	zero,0(a0)
     b2c:	00001537          	lui	a0,0x1
     b30:	00a10533          	add	a0,sp,a0
     b34:	ac052223          	sw	zero,-1340(a0) # ac4 <.LBB11_2+0x278>
     b38:	00001537          	lui	a0,0x1
     b3c:	00a10533          	add	a0,sp,a0
     b40:	ac053423          	sd	zero,-1336(a0) # ac8 <.LBB11_2+0x27c>
     b44:	00001537          	lui	a0,0x1
     b48:	00a10533          	add	a0,sp,a0
     b4c:	ac053823          	sd	zero,-1328(a0) # ad0 <.LBB11_2+0x284>
     b50:	00001537          	lui	a0,0x1
     b54:	00a10533          	add	a0,sp,a0
     b58:	ac053c23          	sd	zero,-1320(a0) # ad8 <.LBB11_2+0x28c>
     b5c:	00001537          	lui	a0,0x1
     b60:	00a10533          	add	a0,sp,a0
     b64:	ae053023          	sd	zero,-1312(a0) # ae0 <.LBB11_2+0x294>
     b68:	00001537          	lui	a0,0x1
     b6c:	00a10533          	add	a0,sp,a0
     b70:	ae053423          	sd	zero,-1304(a0) # ae8 <.LBB11_2+0x29c>
     b74:	00001537          	lui	a0,0x1
     b78:	00a10533          	add	a0,sp,a0
     b7c:	ae053823          	sd	zero,-1296(a0) # af0 <.LBB11_2+0x2a4>
     b80:	00001537          	lui	a0,0x1
     b84:	00a10533          	add	a0,sp,a0
     b88:	ae053c23          	sd	zero,-1288(a0) # af8 <.LBB11_2+0x2ac>
     b8c:	7ff10513          	addi	a0,sp,2047
     b90:	30150513          	addi	a0,a0,769
     b94:	00052023          	sw	zero,0(a0)
     b98:	00001537          	lui	a0,0x1
     b9c:	00a10533          	add	a0,sp,a0
     ba0:	b0052223          	sw	zero,-1276(a0) # b04 <.LBB11_2+0x2b8>
     ba4:	00001537          	lui	a0,0x1
     ba8:	00a10533          	add	a0,sp,a0
     bac:	b0053423          	sd	zero,-1272(a0) # b08 <.LBB11_2+0x2bc>
     bb0:	00001537          	lui	a0,0x1
     bb4:	00a10533          	add	a0,sp,a0
     bb8:	b0053823          	sd	zero,-1264(a0) # b10 <.LBB11_2+0x2c4>
     bbc:	00001537          	lui	a0,0x1
     bc0:	00a10533          	add	a0,sp,a0
     bc4:	b0053c23          	sd	zero,-1256(a0) # b18 <.LBB11_2+0x2cc>
     bc8:	00001537          	lui	a0,0x1
     bcc:	00a10533          	add	a0,sp,a0
     bd0:	b2053023          	sd	zero,-1248(a0) # b20 <.LBB11_2+0x2d4>
     bd4:	00001537          	lui	a0,0x1
     bd8:	00a10533          	add	a0,sp,a0
     bdc:	b2053423          	sd	zero,-1240(a0) # b28 <.LBB11_2+0x2dc>
     be0:	00001537          	lui	a0,0x1
     be4:	00a10533          	add	a0,sp,a0
     be8:	97c52f83          	lw	t6,-1668(a0) # 97c <.LBB11_2+0x130>
     bec:	00001537          	lui	a0,0x1
     bf0:	00a10533          	add	a0,sp,a0
     bf4:	97852503          	lw	a0,-1672(a0) # 978 <.LBB11_2+0x12c>
     bf8:	00001637          	lui	a2,0x1
     bfc:	00c10633          	add	a2,sp,a2
     c00:	88a63023          	sd	a0,-1920(a2) # 880 <.LBB11_2+0x34>
     c04:	00001537          	lui	a0,0x1
     c08:	00a10533          	add	a0,sp,a0
     c0c:	97452483          	lw	s1,-1676(a0) # 974 <.LBB11_2+0x128>
     c10:	00001537          	lui	a0,0x1
     c14:	00a10533          	add	a0,sp,a0
     c18:	97052503          	lw	a0,-1680(a0) # 970 <.LBB11_2+0x124>
     c1c:	00001637          	lui	a2,0x1
     c20:	00c10633          	add	a2,sp,a2
     c24:	80a63c23          	sd	a0,-2024(a2) # 818 <.LBB11_1+0x6e0>
     c28:	00001537          	lui	a0,0x1
     c2c:	00a10533          	add	a0,sp,a0
     c30:	96c52503          	lw	a0,-1684(a0) # 96c <.LBB11_2+0x120>
     c34:	7ea13023          	sd	a0,2016(sp)
     c38:	00001537          	lui	a0,0x1
     c3c:	00a10533          	add	a0,sp,a0
     c40:	96852503          	lw	a0,-1688(a0) # 968 <.LBB11_2+0x11c>
     c44:	7aa13423          	sd	a0,1960(sp)
     c48:	00001537          	lui	a0,0x1
     c4c:	00a10533          	add	a0,sp,a0
     c50:	96452503          	lw	a0,-1692(a0) # 964 <.LBB11_2+0x118>
     c54:	76a13823          	sd	a0,1904(sp)
     c58:	00001537          	lui	a0,0x1
     c5c:	00a10533          	add	a0,sp,a0
     c60:	96052503          	lw	a0,-1696(a0) # 960 <.LBB11_2+0x114>
     c64:	72a13c23          	sd	a0,1848(sp)
     c68:	00001537          	lui	a0,0x1
     c6c:	00a10533          	add	a0,sp,a0
     c70:	95c52503          	lw	a0,-1700(a0) # 95c <.LBB11_2+0x110>
     c74:	6ea13c23          	sd	a0,1784(sp)
     c78:	00001537          	lui	a0,0x1
     c7c:	00a10533          	add	a0,sp,a0
     c80:	95852503          	lw	a0,-1704(a0) # 958 <.LBB11_2+0x10c>
     c84:	6ca13023          	sd	a0,1728(sp)
     c88:	00001537          	lui	a0,0x1
     c8c:	00a10533          	add	a0,sp,a0
     c90:	95452503          	lw	a0,-1708(a0) # 954 <.LBB11_2+0x108>
     c94:	68a13423          	sd	a0,1672(sp)
     c98:	00001537          	lui	a0,0x1
     c9c:	00a10533          	add	a0,sp,a0
     ca0:	95052503          	lw	a0,-1712(a0) # 950 <.LBB11_2+0x104>
     ca4:	64a13823          	sd	a0,1616(sp)
     ca8:	00001537          	lui	a0,0x1
     cac:	00a10533          	add	a0,sp,a0
     cb0:	94c52503          	lw	a0,-1716(a0) # 94c <.LBB11_2+0x100>
     cb4:	60a13c23          	sd	a0,1560(sp)
     cb8:	00001537          	lui	a0,0x1
     cbc:	00a10533          	add	a0,sp,a0
     cc0:	94852503          	lw	a0,-1720(a0) # 948 <.LBB11_2+0xfc>
     cc4:	5ea13023          	sd	a0,1504(sp)
     cc8:	00001537          	lui	a0,0x1
     ccc:	00a10533          	add	a0,sp,a0
     cd0:	94452503          	lw	a0,-1724(a0) # 944 <.LBB11_2+0xf8>
     cd4:	5aa13423          	sd	a0,1448(sp)
     cd8:	00001537          	lui	a0,0x1
     cdc:	00a10533          	add	a0,sp,a0
     ce0:	94052503          	lw	a0,-1728(a0) # 940 <.LBB11_2+0xf4>
     ce4:	56a13823          	sd	a0,1392(sp)
     ce8:	00001537          	lui	a0,0x1
     cec:	00a10533          	add	a0,sp,a0
     cf0:	9bc52503          	lw	a0,-1604(a0) # 9bc <.LBB11_2+0x170>
     cf4:	00001637          	lui	a2,0x1
     cf8:	00c10633          	add	a2,sp,a2
     cfc:	8aa63c23          	sd	a0,-1864(a2) # 8b8 <.LBB11_2+0x6c>
     d00:	00001537          	lui	a0,0x1
     d04:	00a10533          	add	a0,sp,a0
     d08:	9b852503          	lw	a0,-1608(a0) # 9b8 <.LBB11_2+0x16c>
     d0c:	00001637          	lui	a2,0x1
     d10:	00c10633          	add	a2,sp,a2
     d14:	88a63423          	sd	a0,-1912(a2) # 888 <.LBB11_2+0x3c>
     d18:	00001537          	lui	a0,0x1
     d1c:	00a10533          	add	a0,sp,a0
     d20:	9b452503          	lw	a0,-1612(a0) # 9b4 <.LBB11_2+0x168>
     d24:	00001637          	lui	a2,0x1
     d28:	00c10633          	add	a2,sp,a2
     d2c:	84a63823          	sd	a0,-1968(a2) # 850 <.LBB11_2+0x4>
     d30:	00001537          	lui	a0,0x1
     d34:	00a10533          	add	a0,sp,a0
     d38:	9b052503          	lw	a0,-1616(a0) # 9b0 <.LBB11_2+0x164>
     d3c:	00001637          	lui	a2,0x1
     d40:	00c10633          	add	a2,sp,a2
     d44:	82a63023          	sd	a0,-2016(a2) # 820 <.LBB11_1+0x6e8>
     d48:	00001537          	lui	a0,0x1
     d4c:	00a10533          	add	a0,sp,a0
     d50:	9ac52503          	lw	a0,-1620(a0) # 9ac <.LBB11_2+0x160>
     d54:	7ea13423          	sd	a0,2024(sp)
     d58:	00001537          	lui	a0,0x1
     d5c:	00a10533          	add	a0,sp,a0
     d60:	9a852503          	lw	a0,-1624(a0) # 9a8 <.LBB11_2+0x15c>
     d64:	7aa13823          	sd	a0,1968(sp)
     d68:	00001537          	lui	a0,0x1
     d6c:	00a10533          	add	a0,sp,a0
     d70:	9a452503          	lw	a0,-1628(a0) # 9a4 <.LBB11_2+0x158>
     d74:	76a13c23          	sd	a0,1912(sp)
     d78:	00001537          	lui	a0,0x1
     d7c:	00a10533          	add	a0,sp,a0
     d80:	9a052503          	lw	a0,-1632(a0) # 9a0 <.LBB11_2+0x154>
     d84:	74a13023          	sd	a0,1856(sp)
     d88:	00001537          	lui	a0,0x1
     d8c:	00a10533          	add	a0,sp,a0
     d90:	99c52503          	lw	a0,-1636(a0) # 99c <.LBB11_2+0x150>
     d94:	70a13023          	sd	a0,1792(sp)
     d98:	00001537          	lui	a0,0x1
     d9c:	00a10533          	add	a0,sp,a0
     da0:	99852503          	lw	a0,-1640(a0) # 998 <.LBB11_2+0x14c>
     da4:	6ca13423          	sd	a0,1736(sp)
     da8:	00001537          	lui	a0,0x1
     dac:	00a10533          	add	a0,sp,a0
     db0:	99452503          	lw	a0,-1644(a0) # 994 <.LBB11_2+0x148>
     db4:	68a13823          	sd	a0,1680(sp)
     db8:	00001537          	lui	a0,0x1
     dbc:	00a10533          	add	a0,sp,a0
     dc0:	99052503          	lw	a0,-1648(a0) # 990 <.LBB11_2+0x144>
     dc4:	64a13c23          	sd	a0,1624(sp)
     dc8:	00001537          	lui	a0,0x1
     dcc:	00a10533          	add	a0,sp,a0
     dd0:	98c52503          	lw	a0,-1652(a0) # 98c <.LBB11_2+0x140>
     dd4:	62a13023          	sd	a0,1568(sp)
     dd8:	00001537          	lui	a0,0x1
     ddc:	00a10533          	add	a0,sp,a0
     de0:	98852503          	lw	a0,-1656(a0) # 988 <.LBB11_2+0x13c>
     de4:	5ea13423          	sd	a0,1512(sp)
     de8:	00001537          	lui	a0,0x1
     dec:	00a10533          	add	a0,sp,a0
     df0:	98452503          	lw	a0,-1660(a0) # 984 <.LBB11_2+0x138>
     df4:	5aa13823          	sd	a0,1456(sp)
     df8:	00001537          	lui	a0,0x1
     dfc:	00a10533          	add	a0,sp,a0
     e00:	98052503          	lw	a0,-1664(a0) # 980 <.LBB11_2+0x134>
     e04:	56a13c23          	sd	a0,1400(sp)
     e08:	00001537          	lui	a0,0x1
     e0c:	00a10533          	add	a0,sp,a0
     e10:	9fc52503          	lw	a0,-1540(a0) # 9fc <.LBB11_2+0x1b0>
     e14:	7ea13c23          	sd	a0,2040(sp)
     e18:	00001537          	lui	a0,0x1
     e1c:	00a10533          	add	a0,sp,a0
     e20:	9f852503          	lw	a0,-1544(a0) # 9f8 <.LBB11_2+0x1ac>
     e24:	00001637          	lui	a2,0x1
     e28:	00c10633          	add	a2,sp,a2
     e2c:	88a63823          	sd	a0,-1904(a2) # 890 <.LBB11_2+0x44>
     e30:	00001537          	lui	a0,0x1
     e34:	00a10533          	add	a0,sp,a0
     e38:	9f452503          	lw	a0,-1548(a0) # 9f4 <.LBB11_2+0x1a8>
     e3c:	00001637          	lui	a2,0x1
     e40:	00c10633          	add	a2,sp,a2
     e44:	84a63c23          	sd	a0,-1960(a2) # 858 <.LBB11_2+0xc>
     e48:	00001537          	lui	a0,0x1
     e4c:	00a10533          	add	a0,sp,a0
     e50:	9f052503          	lw	a0,-1552(a0) # 9f0 <.LBB11_2+0x1a4>
     e54:	00001637          	lui	a2,0x1
     e58:	00c10633          	add	a2,sp,a2
     e5c:	82a63423          	sd	a0,-2008(a2) # 828 <.LBB11_1+0x6f0>
     e60:	00001537          	lui	a0,0x1
     e64:	00a10533          	add	a0,sp,a0
     e68:	9ec52503          	lw	a0,-1556(a0) # 9ec <.LBB11_2+0x1a0>
     e6c:	7ea13823          	sd	a0,2032(sp)
     e70:	00001537          	lui	a0,0x1
     e74:	00a10533          	add	a0,sp,a0
     e78:	9e852503          	lw	a0,-1560(a0) # 9e8 <.LBB11_2+0x19c>
     e7c:	7aa13c23          	sd	a0,1976(sp)
     e80:	00001537          	lui	a0,0x1
     e84:	00a10533          	add	a0,sp,a0
     e88:	9e452503          	lw	a0,-1564(a0) # 9e4 <.LBB11_2+0x198>
     e8c:	78a13023          	sd	a0,1920(sp)
     e90:	00001537          	lui	a0,0x1
     e94:	00a10533          	add	a0,sp,a0
     e98:	9e052503          	lw	a0,-1568(a0) # 9e0 <.LBB11_2+0x194>
     e9c:	74a13423          	sd	a0,1864(sp)
     ea0:	00001537          	lui	a0,0x1
     ea4:	00a10533          	add	a0,sp,a0
     ea8:	9dc52503          	lw	a0,-1572(a0) # 9dc <.LBB11_2+0x190>
     eac:	70a13423          	sd	a0,1800(sp)
     eb0:	00001537          	lui	a0,0x1
     eb4:	00a10533          	add	a0,sp,a0
     eb8:	9d852503          	lw	a0,-1576(a0) # 9d8 <.LBB11_2+0x18c>
     ebc:	6ca13823          	sd	a0,1744(sp)
     ec0:	00001537          	lui	a0,0x1
     ec4:	00a10533          	add	a0,sp,a0
     ec8:	9d452503          	lw	a0,-1580(a0) # 9d4 <.LBB11_2+0x188>
     ecc:	68a13c23          	sd	a0,1688(sp)
     ed0:	00001537          	lui	a0,0x1
     ed4:	00a10533          	add	a0,sp,a0
     ed8:	9d052503          	lw	a0,-1584(a0) # 9d0 <.LBB11_2+0x184>
     edc:	66a13023          	sd	a0,1632(sp)
     ee0:	00001537          	lui	a0,0x1
     ee4:	00a10533          	add	a0,sp,a0
     ee8:	9cc52503          	lw	a0,-1588(a0) # 9cc <.LBB11_2+0x180>
     eec:	62a13423          	sd	a0,1576(sp)
     ef0:	00001537          	lui	a0,0x1
     ef4:	00a10533          	add	a0,sp,a0
     ef8:	9c852503          	lw	a0,-1592(a0) # 9c8 <.LBB11_2+0x17c>
     efc:	5ea13823          	sd	a0,1520(sp)
     f00:	00001537          	lui	a0,0x1
     f04:	00a10533          	add	a0,sp,a0
     f08:	9c452503          	lw	a0,-1596(a0) # 9c4 <.LBB11_2+0x178>
     f0c:	5aa13c23          	sd	a0,1464(sp)
     f10:	00001537          	lui	a0,0x1
     f14:	00a10533          	add	a0,sp,a0
     f18:	9c052503          	lw	a0,-1600(a0) # 9c0 <.LBB11_2+0x174>
     f1c:	58a13023          	sd	a0,1408(sp)
     f20:	00001537          	lui	a0,0x1
     f24:	00a10533          	add	a0,sp,a0
     f28:	a3c52503          	lw	a0,-1476(a0) # a3c <.LBB11_2+0x1f0>
     f2c:	00001637          	lui	a2,0x1
     f30:	00c10633          	add	a2,sp,a2
     f34:	80a63023          	sd	a0,-2048(a2) # 800 <.LBB11_1+0x6c8>
     f38:	00001537          	lui	a0,0x1
     f3c:	00a10533          	add	a0,sp,a0
     f40:	a3852503          	lw	a0,-1480(a0) # a38 <.LBB11_2+0x1ec>
     f44:	00001637          	lui	a2,0x1
     f48:	00c10633          	add	a2,sp,a2
     f4c:	88a63c23          	sd	a0,-1896(a2) # 898 <.LBB11_2+0x4c>
     f50:	00001537          	lui	a0,0x1
     f54:	00a10533          	add	a0,sp,a0
     f58:	a3452503          	lw	a0,-1484(a0) # a34 <.LBB11_2+0x1e8>
     f5c:	00001637          	lui	a2,0x1
     f60:	00c10633          	add	a2,sp,a2
     f64:	86a63023          	sd	a0,-1952(a2) # 860 <.LBB11_2+0x14>
     f68:	00001537          	lui	a0,0x1
     f6c:	00a10533          	add	a0,sp,a0
     f70:	a3052503          	lw	a0,-1488(a0) # a30 <.LBB11_2+0x1e4>
     f74:	00001637          	lui	a2,0x1
     f78:	00c10633          	add	a2,sp,a2
     f7c:	82a63823          	sd	a0,-2000(a2) # 830 <.LBB11_1+0x6f8>
     f80:	00001537          	lui	a0,0x1
     f84:	00a10533          	add	a0,sp,a0
     f88:	a2c52703          	lw	a4,-1492(a0) # a2c <.LBB11_2+0x1e0>
     f8c:	00001537          	lui	a0,0x1
     f90:	00a10533          	add	a0,sp,a0
     f94:	a2852503          	lw	a0,-1496(a0) # a28 <.LBB11_2+0x1dc>
     f98:	7ca13023          	sd	a0,1984(sp)
     f9c:	00001537          	lui	a0,0x1
     fa0:	00a10533          	add	a0,sp,a0
     fa4:	a2452503          	lw	a0,-1500(a0) # a24 <.LBB11_2+0x1d8>
     fa8:	78a13423          	sd	a0,1928(sp)
     fac:	00001537          	lui	a0,0x1
     fb0:	00a10533          	add	a0,sp,a0
     fb4:	a2052503          	lw	a0,-1504(a0) # a20 <.LBB11_2+0x1d4>
     fb8:	74a13823          	sd	a0,1872(sp)
     fbc:	00001537          	lui	a0,0x1
     fc0:	00a10533          	add	a0,sp,a0
     fc4:	a1c52503          	lw	a0,-1508(a0) # a1c <.LBB11_2+0x1d0>
     fc8:	70a13823          	sd	a0,1808(sp)
     fcc:	00001537          	lui	a0,0x1
     fd0:	00a10533          	add	a0,sp,a0
     fd4:	a1852503          	lw	a0,-1512(a0) # a18 <.LBB11_2+0x1cc>
     fd8:	6ca13c23          	sd	a0,1752(sp)
     fdc:	00001537          	lui	a0,0x1
     fe0:	00a10533          	add	a0,sp,a0
     fe4:	a1452503          	lw	a0,-1516(a0) # a14 <.LBB11_2+0x1c8>
     fe8:	6aa13023          	sd	a0,1696(sp)
     fec:	00001537          	lui	a0,0x1
     ff0:	00a10533          	add	a0,sp,a0
     ff4:	a1052503          	lw	a0,-1520(a0) # a10 <.LBB11_2+0x1c4>
     ff8:	66a13423          	sd	a0,1640(sp)
     ffc:	00001537          	lui	a0,0x1
    1000:	00a10533          	add	a0,sp,a0
    1004:	a0c52503          	lw	a0,-1524(a0) # a0c <.LBB11_2+0x1c0>
    1008:	62a13823          	sd	a0,1584(sp)
    100c:	00001537          	lui	a0,0x1
    1010:	00a10533          	add	a0,sp,a0
    1014:	a0852503          	lw	a0,-1528(a0) # a08 <.LBB11_2+0x1bc>
    1018:	5ea13c23          	sd	a0,1528(sp)
    101c:	00001537          	lui	a0,0x1
    1020:	00a10533          	add	a0,sp,a0
    1024:	a0452503          	lw	a0,-1532(a0) # a04 <.LBB11_2+0x1b8>
    1028:	5ca13023          	sd	a0,1472(sp)
    102c:	00001537          	lui	a0,0x1
    1030:	00a10533          	add	a0,sp,a0
    1034:	a0052503          	lw	a0,-1536(a0) # a00 <.LBB11_2+0x1b4>
    1038:	58a13423          	sd	a0,1416(sp)
    103c:	00001537          	lui	a0,0x1
    1040:	00a10533          	add	a0,sp,a0
    1044:	a7c52503          	lw	a0,-1412(a0) # a7c <.LBB11_2+0x230>
    1048:	00001637          	lui	a2,0x1
    104c:	00c10633          	add	a2,sp,a2
    1050:	80a63423          	sd	a0,-2040(a2) # 808 <.LBB11_1+0x6d0>
    1054:	00001537          	lui	a0,0x1
    1058:	00a10533          	add	a0,sp,a0
    105c:	a7852503          	lw	a0,-1416(a0) # a78 <.LBB11_2+0x22c>
    1060:	00001637          	lui	a2,0x1
    1064:	00c10633          	add	a2,sp,a2
    1068:	8aa63023          	sd	a0,-1888(a2) # 8a0 <.LBB11_2+0x54>
    106c:	00001537          	lui	a0,0x1
    1070:	00a10533          	add	a0,sp,a0
    1074:	a7452503          	lw	a0,-1420(a0) # a74 <.LBB11_2+0x228>
    1078:	00001637          	lui	a2,0x1
    107c:	00c10633          	add	a2,sp,a2
    1080:	86a63423          	sd	a0,-1944(a2) # 868 <.LBB11_2+0x1c>
    1084:	00001537          	lui	a0,0x1
    1088:	00a10533          	add	a0,sp,a0
    108c:	a7052503          	lw	a0,-1424(a0) # a70 <.LBB11_2+0x224>
    1090:	00001637          	lui	a2,0x1
    1094:	00c10633          	add	a2,sp,a2
    1098:	82a63c23          	sd	a0,-1992(a2) # 838 <.LBB11_1+0x700>
    109c:	00001537          	lui	a0,0x1
    10a0:	00a10533          	add	a0,sp,a0
    10a4:	a6c52a03          	lw	s4,-1428(a0) # a6c <.LBB11_2+0x220>
    10a8:	00001537          	lui	a0,0x1
    10ac:	00a10533          	add	a0,sp,a0
    10b0:	a6852503          	lw	a0,-1432(a0) # a68 <.LBB11_2+0x21c>
    10b4:	7ca13423          	sd	a0,1992(sp)
    10b8:	00001537          	lui	a0,0x1
    10bc:	00a10533          	add	a0,sp,a0
    10c0:	a6452503          	lw	a0,-1436(a0) # a64 <.LBB11_2+0x218>
    10c4:	78a13823          	sd	a0,1936(sp)
    10c8:	00001537          	lui	a0,0x1
    10cc:	00a10533          	add	a0,sp,a0
    10d0:	a6052503          	lw	a0,-1440(a0) # a60 <.LBB11_2+0x214>
    10d4:	74a13c23          	sd	a0,1880(sp)
    10d8:	00001537          	lui	a0,0x1
    10dc:	00a10533          	add	a0,sp,a0
    10e0:	a5c52503          	lw	a0,-1444(a0) # a5c <.LBB11_2+0x210>
    10e4:	70a13c23          	sd	a0,1816(sp)
    10e8:	00001537          	lui	a0,0x1
    10ec:	00a10533          	add	a0,sp,a0
    10f0:	a5852503          	lw	a0,-1448(a0) # a58 <.LBB11_2+0x20c>
    10f4:	6ea13023          	sd	a0,1760(sp)
    10f8:	00001537          	lui	a0,0x1
    10fc:	00a10533          	add	a0,sp,a0
    1100:	a5452503          	lw	a0,-1452(a0) # a54 <.LBB11_2+0x208>
    1104:	6aa13423          	sd	a0,1704(sp)
    1108:	00001537          	lui	a0,0x1
    110c:	00a10533          	add	a0,sp,a0
    1110:	a5052503          	lw	a0,-1456(a0) # a50 <.LBB11_2+0x204>
    1114:	66a13823          	sd	a0,1648(sp)
    1118:	00001537          	lui	a0,0x1
    111c:	00a10533          	add	a0,sp,a0
    1120:	a4c52503          	lw	a0,-1460(a0) # a4c <.LBB11_2+0x200>
    1124:	62a13c23          	sd	a0,1592(sp)
    1128:	00001537          	lui	a0,0x1
    112c:	00a10533          	add	a0,sp,a0
    1130:	a4852503          	lw	a0,-1464(a0) # a48 <.LBB11_2+0x1fc>
    1134:	60a13023          	sd	a0,1536(sp)
    1138:	00001537          	lui	a0,0x1
    113c:	00a10533          	add	a0,sp,a0
    1140:	a4452503          	lw	a0,-1468(a0) # a44 <.LBB11_2+0x1f8>
    1144:	5ca13423          	sd	a0,1480(sp)
    1148:	00001537          	lui	a0,0x1
    114c:	00a10533          	add	a0,sp,a0
    1150:	a4052503          	lw	a0,-1472(a0) # a40 <.LBB11_2+0x1f4>
    1154:	58a13823          	sd	a0,1424(sp)
    1158:	00001537          	lui	a0,0x1
    115c:	00a10533          	add	a0,sp,a0
    1160:	abc52503          	lw	a0,-1348(a0) # abc <.LBB11_2+0x270>
    1164:	00001637          	lui	a2,0x1
    1168:	00c10633          	add	a2,sp,a2
    116c:	80a63823          	sd	a0,-2032(a2) # 810 <.LBB11_1+0x6d8>
    1170:	00001537          	lui	a0,0x1
    1174:	00a10533          	add	a0,sp,a0
    1178:	ab852503          	lw	a0,-1352(a0) # ab8 <.LBB11_2+0x26c>
    117c:	00001637          	lui	a2,0x1
    1180:	00c10633          	add	a2,sp,a2
    1184:	8aa63423          	sd	a0,-1880(a2) # 8a8 <.LBB11_2+0x5c>
    1188:	00001537          	lui	a0,0x1
    118c:	00a10533          	add	a0,sp,a0
    1190:	ab452503          	lw	a0,-1356(a0) # ab4 <.LBB11_2+0x268>
    1194:	00001637          	lui	a2,0x1
    1198:	00c10633          	add	a2,sp,a2
    119c:	86a63823          	sd	a0,-1936(a2) # 870 <.LBB11_2+0x24>
    11a0:	00001537          	lui	a0,0x1
    11a4:	00a10533          	add	a0,sp,a0
    11a8:	ab052503          	lw	a0,-1360(a0) # ab0 <.LBB11_2+0x264>
    11ac:	00001637          	lui	a2,0x1
    11b0:	00c10633          	add	a2,sp,a2
    11b4:	84a63023          	sd	a0,-1984(a2) # 840 <.LBB11_1+0x708>
    11b8:	00001537          	lui	a0,0x1
    11bc:	00a10533          	add	a0,sp,a0
    11c0:	aac52983          	lw	s3,-1364(a0) # aac <.LBB11_2+0x260>
    11c4:	00001537          	lui	a0,0x1
    11c8:	00a10533          	add	a0,sp,a0
    11cc:	aa852503          	lw	a0,-1368(a0) # aa8 <.LBB11_2+0x25c>
    11d0:	7ca13823          	sd	a0,2000(sp)
    11d4:	00001537          	lui	a0,0x1
    11d8:	00a10533          	add	a0,sp,a0
    11dc:	aa452503          	lw	a0,-1372(a0) # aa4 <.LBB11_2+0x258>
    11e0:	78a13c23          	sd	a0,1944(sp)
    11e4:	00001537          	lui	a0,0x1
    11e8:	00a10533          	add	a0,sp,a0
    11ec:	aa052503          	lw	a0,-1376(a0) # aa0 <.LBB11_2+0x254>
    11f0:	76a13023          	sd	a0,1888(sp)
    11f4:	00001537          	lui	a0,0x1
    11f8:	00a10533          	add	a0,sp,a0
    11fc:	a9c52503          	lw	a0,-1380(a0) # a9c <.LBB11_2+0x250>
    1200:	72a13023          	sd	a0,1824(sp)
    1204:	00001537          	lui	a0,0x1
    1208:	00a10533          	add	a0,sp,a0
    120c:	a9852503          	lw	a0,-1384(a0) # a98 <.LBB11_2+0x24c>
    1210:	6ea13423          	sd	a0,1768(sp)
    1214:	00001537          	lui	a0,0x1
    1218:	00a10533          	add	a0,sp,a0
    121c:	a9452503          	lw	a0,-1388(a0) # a94 <.LBB11_2+0x248>
    1220:	6aa13823          	sd	a0,1712(sp)
    1224:	00001537          	lui	a0,0x1
    1228:	00a10533          	add	a0,sp,a0
    122c:	a9052503          	lw	a0,-1392(a0) # a90 <.LBB11_2+0x244>
    1230:	66a13c23          	sd	a0,1656(sp)
    1234:	00001537          	lui	a0,0x1
    1238:	00a10533          	add	a0,sp,a0
    123c:	a8c52503          	lw	a0,-1396(a0) # a8c <.LBB11_2+0x240>
    1240:	64a13023          	sd	a0,1600(sp)
    1244:	00001537          	lui	a0,0x1
    1248:	00a10533          	add	a0,sp,a0
    124c:	a8852503          	lw	a0,-1400(a0) # a88 <.LBB11_2+0x23c>
    1250:	60a13423          	sd	a0,1544(sp)
    1254:	00001537          	lui	a0,0x1
    1258:	00a10533          	add	a0,sp,a0
    125c:	a8452503          	lw	a0,-1404(a0) # a84 <.LBB11_2+0x238>
    1260:	5ca13823          	sd	a0,1488(sp)
    1264:	00001537          	lui	a0,0x1
    1268:	00a10533          	add	a0,sp,a0
    126c:	a8052503          	lw	a0,-1408(a0) # a80 <.LBB11_2+0x234>
    1270:	58a13c23          	sd	a0,1432(sp)
    1274:	00001537          	lui	a0,0x1
    1278:	00a10533          	add	a0,sp,a0
    127c:	ac052503          	lw	a0,-1344(a0) # ac0 <.LBB11_2+0x274>
    1280:	72a13823          	sd	a0,1840(sp)
    1284:	00001537          	lui	a0,0x1
    1288:	00a10533          	add	a0,sp,a0
    128c:	afc52503          	lw	a0,-1284(a0) # afc <.LBB11_2+0x2b0>
    1290:	00001637          	lui	a2,0x1
    1294:	00c10633          	add	a2,sp,a2
    1298:	8aa63823          	sd	a0,-1872(a2) # 8b0 <.LBB11_2+0x64>
    129c:	00001537          	lui	a0,0x1
    12a0:	00a10533          	add	a0,sp,a0
    12a4:	af852503          	lw	a0,-1288(a0) # af8 <.LBB11_2+0x2ac>
    12a8:	00001637          	lui	a2,0x1
    12ac:	00c10633          	add	a2,sp,a2
    12b0:	86a63c23          	sd	a0,-1928(a2) # 878 <.LBB11_2+0x2c>
    12b4:	00001537          	lui	a0,0x1
    12b8:	00a10533          	add	a0,sp,a0
    12bc:	af452503          	lw	a0,-1292(a0) # af4 <.LBB11_2+0x2a8>
    12c0:	00001637          	lui	a2,0x1
    12c4:	00c10633          	add	a2,sp,a2
    12c8:	84a63423          	sd	a0,-1976(a2) # 848 <.LBB11_1+0x710>
    12cc:	00001537          	lui	a0,0x1
    12d0:	00a10533          	add	a0,sp,a0
    12d4:	af052903          	lw	s2,-1296(a0) # af0 <.LBB11_2+0x2a4>
    12d8:	00001537          	lui	a0,0x1
    12dc:	00a10533          	add	a0,sp,a0
    12e0:	aec52503          	lw	a0,-1300(a0) # aec <.LBB11_2+0x2a0>
    12e4:	7ca13c23          	sd	a0,2008(sp)
    12e8:	00001537          	lui	a0,0x1
    12ec:	00a10533          	add	a0,sp,a0
    12f0:	ae852503          	lw	a0,-1304(a0) # ae8 <.LBB11_2+0x29c>
    12f4:	7aa13023          	sd	a0,1952(sp)
    12f8:	00001537          	lui	a0,0x1
    12fc:	00a10533          	add	a0,sp,a0
    1300:	ae452503          	lw	a0,-1308(a0) # ae4 <.LBB11_2+0x298>
    1304:	76a13423          	sd	a0,1896(sp)
    1308:	00001537          	lui	a0,0x1
    130c:	00a10533          	add	a0,sp,a0
    1310:	ae052503          	lw	a0,-1312(a0) # ae0 <.LBB11_2+0x294>
    1314:	72a13423          	sd	a0,1832(sp)
    1318:	00001537          	lui	a0,0x1
    131c:	00a10533          	add	a0,sp,a0
    1320:	adc52503          	lw	a0,-1316(a0) # adc <.LBB11_2+0x290>
    1324:	6ea13823          	sd	a0,1776(sp)
    1328:	00001537          	lui	a0,0x1
    132c:	00a10533          	add	a0,sp,a0
    1330:	ad852503          	lw	a0,-1320(a0) # ad8 <.LBB11_2+0x28c>
    1334:	6aa13c23          	sd	a0,1720(sp)
    1338:	00001537          	lui	a0,0x1
    133c:	00a10533          	add	a0,sp,a0
    1340:	ad452503          	lw	a0,-1324(a0) # ad4 <.LBB11_2+0x288>
    1344:	68a13023          	sd	a0,1664(sp)
    1348:	00001537          	lui	a0,0x1
    134c:	00a10533          	add	a0,sp,a0
    1350:	ad052503          	lw	a0,-1328(a0) # ad0 <.LBB11_2+0x284>
    1354:	64a13423          	sd	a0,1608(sp)
    1358:	00001537          	lui	a0,0x1
    135c:	00a10533          	add	a0,sp,a0
    1360:	acc52503          	lw	a0,-1332(a0) # acc <.LBB11_2+0x280>
    1364:	60a13823          	sd	a0,1552(sp)
    1368:	00001537          	lui	a0,0x1
    136c:	00a10533          	add	a0,sp,a0
    1370:	ac852503          	lw	a0,-1336(a0) # ac8 <.LBB11_2+0x27c>
    1374:	5ca13c23          	sd	a0,1496(sp)
    1378:	00001537          	lui	a0,0x1
    137c:	00a10533          	add	a0,sp,a0
    1380:	ac452503          	lw	a0,-1340(a0) # ac4 <.LBB11_2+0x278>
    1384:	5aa13023          	sd	a0,1440(sp)
    1388:	00001537          	lui	a0,0x1
    138c:	00a10533          	add	a0,sp,a0
    1390:	b2053823          	sd	zero,-1232(a0) # b30 <.LBB11_2+0x2e4>
    1394:	00001537          	lui	a0,0x1
    1398:	00a10533          	add	a0,sp,a0
    139c:	b2053c23          	sd	zero,-1224(a0) # b38 <.LBB11_2+0x2ec>
    13a0:	02000513          	li	a0,32
    13a4:	50f13c23          	sd	a5,1304(sp)
    13a8:	08813a83          	ld	s5,136(sp)

00000000000013ac <.LBB11_3>:
    13ac:	54a13823          	sd	a0,1360(sp)
    13b0:	54e13c23          	sd	a4,1368(sp)
    13b4:	00001537          	lui	a0,0x1
    13b8:	00a10533          	add	a0,sp,a0
    13bc:	8c153023          	sd	ra,-1856(a0) # 8c0 <.LBB11_2+0x74>
    13c0:	00001537          	lui	a0,0x1
    13c4:	00a10533          	add	a0,sp,a0
    13c8:	8db53423          	sd	s11,-1848(a0) # 8c8 <.LBB11_2+0x7c>
    13cc:	00001537          	lui	a0,0x1
    13d0:	00a10533          	add	a0,sp,a0
    13d4:	8da53823          	sd	s10,-1840(a0) # 8d0 <.LBB11_2+0x84>
    13d8:	00001537          	lui	a0,0x1
    13dc:	00a10533          	add	a0,sp,a0
    13e0:	8d853c23          	sd	s8,-1832(a0) # 8d8 <.LBB11_2+0x8c>
    13e4:	00001537          	lui	a0,0x1
    13e8:	00a10533          	add	a0,sp,a0
    13ec:	91753c23          	sd	s7,-1768(a0) # 918 <.LBB11_2+0xcc>
    13f0:	00001537          	lui	a0,0x1
    13f4:	00a10533          	add	a0,sp,a0
    13f8:	8f653023          	sd	s6,-1824(a0) # 8e0 <.LBB11_2+0x94>
    13fc:	00001537          	lui	a0,0x1
    1400:	00a10533          	add	a0,sp,a0
    1404:	8fe53423          	sd	t5,-1816(a0) # 8e8 <.LBB11_2+0x9c>
    1408:	00001537          	lui	a0,0x1
    140c:	00a10533          	add	a0,sp,a0
    1410:	8fd53823          	sd	t4,-1808(a0) # 8f0 <.LBB11_2+0xa4>
    1414:	00001537          	lui	a0,0x1
    1418:	00a10533          	add	a0,sp,a0
    141c:	92553023          	sd	t0,-1760(a0) # 920 <.LBB11_2+0xd4>
    1420:	00001537          	lui	a0,0x1
    1424:	00a10533          	add	a0,sp,a0
    1428:	93153423          	sd	a7,-1752(a0) # 928 <.LBB11_2+0xdc>
    142c:	00001537          	lui	a0,0x1
    1430:	00a10533          	add	a0,sp,a0
    1434:	93053823          	sd	a6,-1744(a0) # 930 <.LBB11_2+0xe4>
    1438:	00001537          	lui	a0,0x1
    143c:	00a10533          	add	a0,sp,a0
    1440:	8ed53c23          	sd	a3,-1800(a0) # 8f8 <.LBB11_2+0xac>
    1444:	00001537          	lui	a0,0x1
    1448:	00a10533          	add	a0,sp,a0
    144c:	92b53c23          	sd	a1,-1736(a0) # 938 <.LBB11_2+0xec>
    1450:	f2078603          	lb	a2,-224(a5)
    1454:	f4078d03          	lb	s10,-192(a5)
    1458:	000a8b03          	lb	s6,0(s5)
    145c:	001a8b83          	lb	s7,1(s5)
    1460:	002a8c03          	lb	s8,2(s5)
    1464:	003a8503          	lb	a0,3(s5)
    1468:	004a8583          	lb	a1,4(s5)
    146c:	005a8803          	lb	a6,5(s5)
    1470:	006a8883          	lb	a7,6(s5)
    1474:	007a8c83          	lb	s9,7(s5)
    1478:	008a8d83          	lb	s11,8(s5)
    147c:	009a8083          	lb	ra,9(s5)
    1480:	00aa8683          	lb	a3,10(s5)
    1484:	00ba8283          	lb	t0,11(s5)
    1488:	00ca8303          	lb	t1,12(s5)
    148c:	00da8383          	lb	t2,13(s5)
    1490:	00ea8e03          	lb	t3,14(s5)
    1494:	00fa8e83          	lb	t4,15(s5)
    1498:	03860f33          	mul	t5,a2,s8
    149c:	5e013703          	ld	a4,1504(sp)
    14a0:	00ef0733          	add	a4,t5,a4
    14a4:	5ee13023          	sd	a4,1504(sp)
    14a8:	03760f33          	mul	t5,a2,s7
    14ac:	5a813703          	ld	a4,1448(sp)
    14b0:	00ef0733          	add	a4,t5,a4
    14b4:	5ae13423          	sd	a4,1448(sp)
    14b8:	03660f33          	mul	t5,a2,s6
    14bc:	57013703          	ld	a4,1392(sp)
    14c0:	00ef0733          	add	a4,t5,a4
    14c4:	56e13823          	sd	a4,1392(sp)
    14c8:	02a60f33          	mul	t5,a2,a0
    14cc:	61813703          	ld	a4,1560(sp)
    14d0:	00ef0733          	add	a4,t5,a4
    14d4:	60e13c23          	sd	a4,1560(sp)
    14d8:	02b60f33          	mul	t5,a2,a1
    14dc:	65013703          	ld	a4,1616(sp)
    14e0:	00ef0733          	add	a4,t5,a4
    14e4:	64e13823          	sd	a4,1616(sp)
    14e8:	03060f33          	mul	t5,a2,a6
    14ec:	68813703          	ld	a4,1672(sp)
    14f0:	00ef0733          	add	a4,t5,a4
    14f4:	68e13423          	sd	a4,1672(sp)
    14f8:	03160f33          	mul	t5,a2,a7
    14fc:	6c013703          	ld	a4,1728(sp)
    1500:	00ef0733          	add	a4,t5,a4
    1504:	6ce13023          	sd	a4,1728(sp)
    1508:	03960f33          	mul	t5,a2,s9
    150c:	6f813703          	ld	a4,1784(sp)
    1510:	00ef0733          	add	a4,t5,a4
    1514:	6ee13c23          	sd	a4,1784(sp)
    1518:	03b60f33          	mul	t5,a2,s11
    151c:	73813703          	ld	a4,1848(sp)
    1520:	00ef0733          	add	a4,t5,a4
    1524:	72e13c23          	sd	a4,1848(sp)
    1528:	02160f33          	mul	t5,a2,ra
    152c:	77013703          	ld	a4,1904(sp)
    1530:	00ef0733          	add	a4,t5,a4
    1534:	76e13823          	sd	a4,1904(sp)
    1538:	02d60f33          	mul	t5,a2,a3
    153c:	7a813703          	ld	a4,1960(sp)
    1540:	00ef0733          	add	a4,t5,a4
    1544:	7ae13423          	sd	a4,1960(sp)
    1548:	02560f33          	mul	t5,a2,t0
    154c:	7e013703          	ld	a4,2016(sp)
    1550:	00ef0733          	add	a4,t5,a4
    1554:	7ee13023          	sd	a4,2016(sp)
    1558:	02660f33          	mul	t5,a2,t1
    155c:	000a0713          	mv	a4,s4
    1560:	00098a13          	mv	s4,s3
    1564:	00090993          	mv	s3,s2
    1568:	00001937          	lui	s2,0x1
    156c:	01210933          	add	s2,sp,s2
    1570:	81893903          	ld	s2,-2024(s2) # 818 <.LBB11_1+0x6e0>
    1574:	012f0933          	add	s2,t5,s2
    1578:	00001f37          	lui	t5,0x1
    157c:	01e10f33          	add	t5,sp,t5
    1580:	812f3c23          	sd	s2,-2024(t5) # 818 <.LBB11_1+0x6e0>
    1584:	00098913          	mv	s2,s3
    1588:	000a0993          	mv	s3,s4
    158c:	00070a13          	mv	s4,a4
    1590:	02760f33          	mul	t5,a2,t2
    1594:	009f04b3          	add	s1,t5,s1
    1598:	56913023          	sd	s1,1376(sp)
    159c:	03c60f33          	mul	t5,a2,t3
    15a0:	00001737          	lui	a4,0x1
    15a4:	00e10733          	add	a4,sp,a4
    15a8:	88073483          	ld	s1,-1920(a4) # 880 <.LBB11_2+0x34>
    15ac:	009f04b3          	add	s1,t5,s1
    15b0:	00001737          	lui	a4,0x1
    15b4:	00e10733          	add	a4,sp,a4
    15b8:	88973023          	sd	s1,-1920(a4) # 880 <.LBB11_2+0x34>
    15bc:	f6078f03          	lb	t5,-160(a5)
    15c0:	03d60633          	mul	a2,a2,t4
    15c4:	01f60fb3          	add	t6,a2,t6
    15c8:	57f13423          	sd	t6,1384(sp)
    15cc:	038d0633          	mul	a2,s10,s8
    15d0:	5e813703          	ld	a4,1512(sp)
    15d4:	00e60733          	add	a4,a2,a4
    15d8:	5ee13423          	sd	a4,1512(sp)
    15dc:	037d0633          	mul	a2,s10,s7
    15e0:	5b013703          	ld	a4,1456(sp)
    15e4:	00e60733          	add	a4,a2,a4
    15e8:	5ae13823          	sd	a4,1456(sp)
    15ec:	036d0633          	mul	a2,s10,s6
    15f0:	57813703          	ld	a4,1400(sp)
    15f4:	00e60733          	add	a4,a2,a4
    15f8:	56e13c23          	sd	a4,1400(sp)
    15fc:	02ad0633          	mul	a2,s10,a0
    1600:	62013703          	ld	a4,1568(sp)
    1604:	00e60733          	add	a4,a2,a4
    1608:	62e13023          	sd	a4,1568(sp)
    160c:	02bd0633          	mul	a2,s10,a1
    1610:	65813703          	ld	a4,1624(sp)
    1614:	00e60733          	add	a4,a2,a4
    1618:	64e13c23          	sd	a4,1624(sp)
    161c:	030d0633          	mul	a2,s10,a6
    1620:	69013703          	ld	a4,1680(sp)
    1624:	00e60733          	add	a4,a2,a4
    1628:	68e13823          	sd	a4,1680(sp)
    162c:	031d0633          	mul	a2,s10,a7
    1630:	6c813703          	ld	a4,1736(sp)
    1634:	00e60733          	add	a4,a2,a4
    1638:	6ce13423          	sd	a4,1736(sp)
    163c:	039d0633          	mul	a2,s10,s9
    1640:	70013703          	ld	a4,1792(sp)
    1644:	00e60733          	add	a4,a2,a4
    1648:	70e13023          	sd	a4,1792(sp)
    164c:	03bd0633          	mul	a2,s10,s11
    1650:	74013703          	ld	a4,1856(sp)
    1654:	00e60733          	add	a4,a2,a4
    1658:	74e13023          	sd	a4,1856(sp)
    165c:	021d0633          	mul	a2,s10,ra
    1660:	77813703          	ld	a4,1912(sp)
    1664:	00e60733          	add	a4,a2,a4
    1668:	76e13c23          	sd	a4,1912(sp)
    166c:	02dd0633          	mul	a2,s10,a3
    1670:	7b013703          	ld	a4,1968(sp)
    1674:	00e60733          	add	a4,a2,a4
    1678:	7ae13823          	sd	a4,1968(sp)
    167c:	025d0633          	mul	a2,s10,t0
    1680:	7e813703          	ld	a4,2024(sp)
    1684:	00e60733          	add	a4,a2,a4
    1688:	7ee13423          	sd	a4,2024(sp)
    168c:	026d0633          	mul	a2,s10,t1
    1690:	00001737          	lui	a4,0x1
    1694:	00e10733          	add	a4,sp,a4
    1698:	82073f83          	ld	t6,-2016(a4) # 820 <.LBB11_1+0x6e8>
    169c:	01f60fb3          	add	t6,a2,t6
    16a0:	00001637          	lui	a2,0x1
    16a4:	00c10633          	add	a2,sp,a2
    16a8:	83f63023          	sd	t6,-2016(a2) # 820 <.LBB11_1+0x6e8>
    16ac:	027d0633          	mul	a2,s10,t2
    16b0:	00001737          	lui	a4,0x1
    16b4:	00e10733          	add	a4,sp,a4
    16b8:	85073f83          	ld	t6,-1968(a4) # 850 <.LBB11_2+0x4>
    16bc:	01f60fb3          	add	t6,a2,t6
    16c0:	00001637          	lui	a2,0x1
    16c4:	00c10633          	add	a2,sp,a2
    16c8:	85f63823          	sd	t6,-1968(a2) # 850 <.LBB11_2+0x4>
    16cc:	03cd0633          	mul	a2,s10,t3
    16d0:	00001737          	lui	a4,0x1
    16d4:	00e10733          	add	a4,sp,a4
    16d8:	88873f83          	ld	t6,-1912(a4) # 888 <.LBB11_2+0x3c>
    16dc:	01f60fb3          	add	t6,a2,t6
    16e0:	00001637          	lui	a2,0x1
    16e4:	00c10633          	add	a2,sp,a2
    16e8:	89f63423          	sd	t6,-1912(a2) # 888 <.LBB11_2+0x3c>
    16ec:	f8078603          	lb	a2,-128(a5)
    16f0:	03dd0d33          	mul	s10,s10,t4
    16f4:	00001737          	lui	a4,0x1
    16f8:	00e10733          	add	a4,sp,a4
    16fc:	8b873f83          	ld	t6,-1864(a4) # 8b8 <.LBB11_2+0x6c>
    1700:	01fd0fb3          	add	t6,s10,t6
    1704:	00001737          	lui	a4,0x1
    1708:	00e10733          	add	a4,sp,a4
    170c:	8bf73c23          	sd	t6,-1864(a4) # 8b8 <.LBB11_2+0x6c>
    1710:	038f0d33          	mul	s10,t5,s8
    1714:	5f013703          	ld	a4,1520(sp)
    1718:	00ed0733          	add	a4,s10,a4
    171c:	5ee13823          	sd	a4,1520(sp)
    1720:	037f0d33          	mul	s10,t5,s7
    1724:	5b813703          	ld	a4,1464(sp)
    1728:	00ed0733          	add	a4,s10,a4
    172c:	5ae13c23          	sd	a4,1464(sp)
    1730:	036f0d33          	mul	s10,t5,s6
    1734:	58013703          	ld	a4,1408(sp)
    1738:	00ed0733          	add	a4,s10,a4
    173c:	58e13023          	sd	a4,1408(sp)
    1740:	02af0d33          	mul	s10,t5,a0
    1744:	62813703          	ld	a4,1576(sp)
    1748:	00ed0733          	add	a4,s10,a4
    174c:	62e13423          	sd	a4,1576(sp)
    1750:	02bf0d33          	mul	s10,t5,a1
    1754:	66013703          	ld	a4,1632(sp)
    1758:	00ed0733          	add	a4,s10,a4
    175c:	66e13023          	sd	a4,1632(sp)
    1760:	030f0d33          	mul	s10,t5,a6
    1764:	69813703          	ld	a4,1688(sp)
    1768:	00ed0733          	add	a4,s10,a4
    176c:	68e13c23          	sd	a4,1688(sp)
    1770:	031f0d33          	mul	s10,t5,a7
    1774:	6d013703          	ld	a4,1744(sp)
    1778:	00ed0733          	add	a4,s10,a4
    177c:	6ce13823          	sd	a4,1744(sp)
    1780:	039f0d33          	mul	s10,t5,s9
    1784:	70813703          	ld	a4,1800(sp)
    1788:	00ed0733          	add	a4,s10,a4
    178c:	70e13423          	sd	a4,1800(sp)
    1790:	03bf0d33          	mul	s10,t5,s11
    1794:	74813703          	ld	a4,1864(sp)
    1798:	00ed0733          	add	a4,s10,a4
    179c:	74e13423          	sd	a4,1864(sp)
    17a0:	021f0d33          	mul	s10,t5,ra
    17a4:	78013703          	ld	a4,1920(sp)
    17a8:	00ed0733          	add	a4,s10,a4
    17ac:	78e13023          	sd	a4,1920(sp)
    17b0:	02df0d33          	mul	s10,t5,a3
    17b4:	7b813703          	ld	a4,1976(sp)
    17b8:	00ed0733          	add	a4,s10,a4
    17bc:	7ae13c23          	sd	a4,1976(sp)
    17c0:	025f0d33          	mul	s10,t5,t0
    17c4:	7f013703          	ld	a4,2032(sp)
    17c8:	00ed0733          	add	a4,s10,a4
    17cc:	7ee13823          	sd	a4,2032(sp)
    17d0:	026f0d33          	mul	s10,t5,t1
    17d4:	00001737          	lui	a4,0x1
    17d8:	00e10733          	add	a4,sp,a4
    17dc:	82873f83          	ld	t6,-2008(a4) # 828 <.LBB11_1+0x6f0>
    17e0:	01fd0fb3          	add	t6,s10,t6
    17e4:	00001737          	lui	a4,0x1
    17e8:	00e10733          	add	a4,sp,a4
    17ec:	83f73423          	sd	t6,-2008(a4) # 828 <.LBB11_1+0x6f0>
    17f0:	027f0d33          	mul	s10,t5,t2
    17f4:	00001737          	lui	a4,0x1
    17f8:	00e10733          	add	a4,sp,a4
    17fc:	85873f83          	ld	t6,-1960(a4) # 858 <.LBB11_2+0xc>
    1800:	01fd0fb3          	add	t6,s10,t6
    1804:	00001737          	lui	a4,0x1
    1808:	00e10733          	add	a4,sp,a4
    180c:	85f73c23          	sd	t6,-1960(a4) # 858 <.LBB11_2+0xc>
    1810:	03cf0d33          	mul	s10,t5,t3
    1814:	00001737          	lui	a4,0x1
    1818:	00e10733          	add	a4,sp,a4
    181c:	89073f83          	ld	t6,-1904(a4) # 890 <.LBB11_2+0x44>
    1820:	01fd0fb3          	add	t6,s10,t6
    1824:	00001737          	lui	a4,0x1
    1828:	00e10733          	add	a4,sp,a4
    182c:	89f73823          	sd	t6,-1904(a4) # 890 <.LBB11_2+0x44>
    1830:	fa078d03          	lb	s10,-96(a5)
    1834:	03df0f33          	mul	t5,t5,t4
    1838:	7f813703          	ld	a4,2040(sp)
    183c:	00ef0733          	add	a4,t5,a4
    1840:	7ee13c23          	sd	a4,2040(sp)
    1844:	55813703          	ld	a4,1368(sp)
    1848:	03860f33          	mul	t5,a2,s8
    184c:	5f813f83          	ld	t6,1528(sp)
    1850:	01ff0fb3          	add	t6,t5,t6
    1854:	5ff13c23          	sd	t6,1528(sp)
    1858:	03760f33          	mul	t5,a2,s7
    185c:	5c013f83          	ld	t6,1472(sp)
    1860:	01ff0fb3          	add	t6,t5,t6
    1864:	5df13023          	sd	t6,1472(sp)
    1868:	03660f33          	mul	t5,a2,s6
    186c:	58813f83          	ld	t6,1416(sp)
    1870:	01ff0fb3          	add	t6,t5,t6
    1874:	59f13423          	sd	t6,1416(sp)
    1878:	02a60f33          	mul	t5,a2,a0
    187c:	63013f83          	ld	t6,1584(sp)
    1880:	01ff0fb3          	add	t6,t5,t6
    1884:	63f13823          	sd	t6,1584(sp)
    1888:	02b60f33          	mul	t5,a2,a1
    188c:	66813f83          	ld	t6,1640(sp)
    1890:	01ff0fb3          	add	t6,t5,t6
    1894:	67f13423          	sd	t6,1640(sp)
    1898:	03060f33          	mul	t5,a2,a6
    189c:	6a013f83          	ld	t6,1696(sp)
    18a0:	01ff0fb3          	add	t6,t5,t6
    18a4:	6bf13023          	sd	t6,1696(sp)
    18a8:	03160f33          	mul	t5,a2,a7
    18ac:	6d813f83          	ld	t6,1752(sp)
    18b0:	01ff0fb3          	add	t6,t5,t6
    18b4:	6df13c23          	sd	t6,1752(sp)
    18b8:	03960f33          	mul	t5,a2,s9
    18bc:	71013f83          	ld	t6,1808(sp)
    18c0:	01ff0fb3          	add	t6,t5,t6
    18c4:	71f13823          	sd	t6,1808(sp)
    18c8:	03b60f33          	mul	t5,a2,s11
    18cc:	75013f83          	ld	t6,1872(sp)
    18d0:	01ff0fb3          	add	t6,t5,t6
    18d4:	75f13823          	sd	t6,1872(sp)
    18d8:	02160f33          	mul	t5,a2,ra
    18dc:	78813f83          	ld	t6,1928(sp)
    18e0:	01ff0fb3          	add	t6,t5,t6
    18e4:	79f13423          	sd	t6,1928(sp)
    18e8:	02d60f33          	mul	t5,a2,a3
    18ec:	7c013f83          	ld	t6,1984(sp)
    18f0:	01ff0fb3          	add	t6,t5,t6
    18f4:	7df13023          	sd	t6,1984(sp)
    18f8:	02560f33          	mul	t5,a2,t0
    18fc:	00ef0733          	add	a4,t5,a4
    1900:	02660f33          	mul	t5,a2,t1
    1904:	00001fb7          	lui	t6,0x1
    1908:	01f10fb3          	add	t6,sp,t6
    190c:	830fbf83          	ld	t6,-2000(t6) # 830 <.LBB11_1+0x6f8>
    1910:	01ff0fb3          	add	t6,t5,t6
    1914:	00001f37          	lui	t5,0x1
    1918:	01e10f33          	add	t5,sp,t5
    191c:	83ff3823          	sd	t6,-2000(t5) # 830 <.LBB11_1+0x6f8>
    1920:	02760f33          	mul	t5,a2,t2
    1924:	00001fb7          	lui	t6,0x1
    1928:	01f10fb3          	add	t6,sp,t6
    192c:	860fbf83          	ld	t6,-1952(t6) # 860 <.LBB11_2+0x14>
    1930:	01ff0fb3          	add	t6,t5,t6
    1934:	00001f37          	lui	t5,0x1
    1938:	01e10f33          	add	t5,sp,t5
    193c:	87ff3023          	sd	t6,-1952(t5) # 860 <.LBB11_2+0x14>
    1940:	03c60f33          	mul	t5,a2,t3
    1944:	00001fb7          	lui	t6,0x1
    1948:	01f10fb3          	add	t6,sp,t6
    194c:	898fbf83          	ld	t6,-1896(t6) # 898 <.LBB11_2+0x4c>
    1950:	01ff0fb3          	add	t6,t5,t6
    1954:	00001f37          	lui	t5,0x1
    1958:	01e10f33          	add	t5,sp,t5
    195c:	89ff3c23          	sd	t6,-1896(t5) # 898 <.LBB11_2+0x4c>
    1960:	fc078f03          	lb	t5,-64(a5)
    1964:	03d60633          	mul	a2,a2,t4
    1968:	00001fb7          	lui	t6,0x1
    196c:	01f10fb3          	add	t6,sp,t6
    1970:	800fbf83          	ld	t6,-2048(t6) # 800 <.LBB11_1+0x6c8>
    1974:	01f60fb3          	add	t6,a2,t6
    1978:	00001637          	lui	a2,0x1
    197c:	00c10633          	add	a2,sp,a2
    1980:	81f63023          	sd	t6,-2048(a2) # 800 <.LBB11_1+0x6c8>
    1984:	038d0633          	mul	a2,s10,s8
    1988:	60013f83          	ld	t6,1536(sp)
    198c:	01f60fb3          	add	t6,a2,t6
    1990:	61f13023          	sd	t6,1536(sp)
    1994:	037d0633          	mul	a2,s10,s7
    1998:	5c813f83          	ld	t6,1480(sp)
    199c:	01f60fb3          	add	t6,a2,t6
    19a0:	5df13423          	sd	t6,1480(sp)
    19a4:	036d0633          	mul	a2,s10,s6
    19a8:	59013f83          	ld	t6,1424(sp)
    19ac:	01f60fb3          	add	t6,a2,t6
    19b0:	59f13823          	sd	t6,1424(sp)
    19b4:	02ad0633          	mul	a2,s10,a0
    19b8:	63813f83          	ld	t6,1592(sp)
    19bc:	01f60fb3          	add	t6,a2,t6
    19c0:	63f13c23          	sd	t6,1592(sp)
    19c4:	02bd0633          	mul	a2,s10,a1
    19c8:	67013f83          	ld	t6,1648(sp)
    19cc:	01f60fb3          	add	t6,a2,t6
    19d0:	67f13823          	sd	t6,1648(sp)
    19d4:	030d0633          	mul	a2,s10,a6
    19d8:	6a813f83          	ld	t6,1704(sp)
    19dc:	01f60fb3          	add	t6,a2,t6
    19e0:	6bf13423          	sd	t6,1704(sp)
    19e4:	031d0633          	mul	a2,s10,a7
    19e8:	6e013f83          	ld	t6,1760(sp)
    19ec:	01f60fb3          	add	t6,a2,t6
    19f0:	6ff13023          	sd	t6,1760(sp)
    19f4:	039d0633          	mul	a2,s10,s9
    19f8:	71813f83          	ld	t6,1816(sp)
    19fc:	01f60fb3          	add	t6,a2,t6
    1a00:	71f13c23          	sd	t6,1816(sp)
    1a04:	03bd0633          	mul	a2,s10,s11
    1a08:	75813f83          	ld	t6,1880(sp)
    1a0c:	01f60fb3          	add	t6,a2,t6
    1a10:	75f13c23          	sd	t6,1880(sp)
    1a14:	021d0633          	mul	a2,s10,ra
    1a18:	79013f83          	ld	t6,1936(sp)
    1a1c:	01f60fb3          	add	t6,a2,t6
    1a20:	79f13823          	sd	t6,1936(sp)
    1a24:	02dd0633          	mul	a2,s10,a3
    1a28:	7c813f83          	ld	t6,1992(sp)
    1a2c:	01f60fb3          	add	t6,a2,t6
    1a30:	7df13423          	sd	t6,1992(sp)
    1a34:	025d0633          	mul	a2,s10,t0
    1a38:	01460a33          	add	s4,a2,s4
    1a3c:	026d0633          	mul	a2,s10,t1
    1a40:	00001fb7          	lui	t6,0x1
    1a44:	01f10fb3          	add	t6,sp,t6
    1a48:	838fbf83          	ld	t6,-1992(t6) # 838 <.LBB11_1+0x700>
    1a4c:	01f60fb3          	add	t6,a2,t6
    1a50:	00001637          	lui	a2,0x1
    1a54:	00c10633          	add	a2,sp,a2
    1a58:	83f63c23          	sd	t6,-1992(a2) # 838 <.LBB11_1+0x700>
    1a5c:	027d0633          	mul	a2,s10,t2
    1a60:	00001fb7          	lui	t6,0x1
    1a64:	01f10fb3          	add	t6,sp,t6
    1a68:	868fbf83          	ld	t6,-1944(t6) # 868 <.LBB11_2+0x1c>
    1a6c:	01f60fb3          	add	t6,a2,t6
    1a70:	00001637          	lui	a2,0x1
    1a74:	00c10633          	add	a2,sp,a2
    1a78:	87f63423          	sd	t6,-1944(a2) # 868 <.LBB11_2+0x1c>
    1a7c:	03cd0633          	mul	a2,s10,t3
    1a80:	00001fb7          	lui	t6,0x1
    1a84:	01f10fb3          	add	t6,sp,t6
    1a88:	8a0fbf83          	ld	t6,-1888(t6) # 8a0 <.LBB11_2+0x54>
    1a8c:	01f60fb3          	add	t6,a2,t6
    1a90:	00001637          	lui	a2,0x1
    1a94:	00c10633          	add	a2,sp,a2
    1a98:	8bf63023          	sd	t6,-1888(a2) # 8a0 <.LBB11_2+0x54>
    1a9c:	fe078603          	lb	a2,-32(a5)
    1aa0:	03dd0d33          	mul	s10,s10,t4
    1aa4:	00001fb7          	lui	t6,0x1
    1aa8:	01f10fb3          	add	t6,sp,t6
    1aac:	808fbf83          	ld	t6,-2040(t6) # 808 <.LBB11_1+0x6d0>
    1ab0:	01fd0fb3          	add	t6,s10,t6
    1ab4:	000014b7          	lui	s1,0x1
    1ab8:	009104b3          	add	s1,sp,s1
    1abc:	81f4b423          	sd	t6,-2040(s1) # 808 <.LBB11_1+0x6d0>
    1ac0:	038f0d33          	mul	s10,t5,s8
    1ac4:	60813f83          	ld	t6,1544(sp)
    1ac8:	01fd0fb3          	add	t6,s10,t6
    1acc:	61f13423          	sd	t6,1544(sp)
    1ad0:	037f0d33          	mul	s10,t5,s7
    1ad4:	5d013f83          	ld	t6,1488(sp)
    1ad8:	01fd0fb3          	add	t6,s10,t6
    1adc:	5df13823          	sd	t6,1488(sp)
    1ae0:	036f0d33          	mul	s10,t5,s6
    1ae4:	59813f83          	ld	t6,1432(sp)
    1ae8:	01fd0fb3          	add	t6,s10,t6
    1aec:	59f13c23          	sd	t6,1432(sp)
    1af0:	02af0d33          	mul	s10,t5,a0
    1af4:	64013f83          	ld	t6,1600(sp)
    1af8:	01fd0fb3          	add	t6,s10,t6
    1afc:	65f13023          	sd	t6,1600(sp)
    1b00:	02bf0d33          	mul	s10,t5,a1
    1b04:	67813f83          	ld	t6,1656(sp)
    1b08:	01fd0fb3          	add	t6,s10,t6
    1b0c:	67f13c23          	sd	t6,1656(sp)
    1b10:	030f0d33          	mul	s10,t5,a6
    1b14:	6b013f83          	ld	t6,1712(sp)
    1b18:	01fd0fb3          	add	t6,s10,t6
    1b1c:	6bf13823          	sd	t6,1712(sp)
    1b20:	031f0d33          	mul	s10,t5,a7
    1b24:	6e813f83          	ld	t6,1768(sp)
    1b28:	01fd0fb3          	add	t6,s10,t6
    1b2c:	6ff13423          	sd	t6,1768(sp)
    1b30:	039f0d33          	mul	s10,t5,s9
    1b34:	72013f83          	ld	t6,1824(sp)
    1b38:	01fd0fb3          	add	t6,s10,t6
    1b3c:	73f13023          	sd	t6,1824(sp)
    1b40:	03bf0d33          	mul	s10,t5,s11
    1b44:	76013f83          	ld	t6,1888(sp)
    1b48:	01fd0fb3          	add	t6,s10,t6
    1b4c:	77f13023          	sd	t6,1888(sp)
    1b50:	021f0d33          	mul	s10,t5,ra
    1b54:	79813f83          	ld	t6,1944(sp)
    1b58:	01fd0fb3          	add	t6,s10,t6
    1b5c:	79f13c23          	sd	t6,1944(sp)
    1b60:	02df0d33          	mul	s10,t5,a3
    1b64:	7d013f83          	ld	t6,2000(sp)
    1b68:	01fd0fb3          	add	t6,s10,t6
    1b6c:	7df13823          	sd	t6,2000(sp)
    1b70:	025f0d33          	mul	s10,t5,t0
    1b74:	013d09b3          	add	s3,s10,s3
    1b78:	026f0d33          	mul	s10,t5,t1
    1b7c:	00001fb7          	lui	t6,0x1
    1b80:	01f10fb3          	add	t6,sp,t6
    1b84:	840fbf83          	ld	t6,-1984(t6) # 840 <.LBB11_1+0x708>
    1b88:	01fd0fb3          	add	t6,s10,t6
    1b8c:	000014b7          	lui	s1,0x1
    1b90:	009104b3          	add	s1,sp,s1
    1b94:	85f4b023          	sd	t6,-1984(s1) # 840 <.LBB11_1+0x708>
    1b98:	027f0d33          	mul	s10,t5,t2
    1b9c:	00001fb7          	lui	t6,0x1
    1ba0:	01f10fb3          	add	t6,sp,t6
    1ba4:	870fbf83          	ld	t6,-1936(t6) # 870 <.LBB11_2+0x24>
    1ba8:	01fd0fb3          	add	t6,s10,t6
    1bac:	000014b7          	lui	s1,0x1
    1bb0:	009104b3          	add	s1,sp,s1
    1bb4:	87f4b823          	sd	t6,-1936(s1) # 870 <.LBB11_2+0x24>
    1bb8:	03cf0d33          	mul	s10,t5,t3
    1bbc:	00001fb7          	lui	t6,0x1
    1bc0:	01f10fb3          	add	t6,sp,t6
    1bc4:	8a8fbf83          	ld	t6,-1880(t6) # 8a8 <.LBB11_2+0x5c>
    1bc8:	01fd0fb3          	add	t6,s10,t6
    1bcc:	000014b7          	lui	s1,0x1
    1bd0:	009104b3          	add	s1,sp,s1
    1bd4:	8bf4b423          	sd	t6,-1880(s1) # 8a8 <.LBB11_2+0x5c>
    1bd8:	00078d03          	lb	s10,0(a5)
    1bdc:	03df0f33          	mul	t5,t5,t4
    1be0:	00001fb7          	lui	t6,0x1
    1be4:	01f10fb3          	add	t6,sp,t6
    1be8:	810fbf83          	ld	t6,-2032(t6) # 810 <.LBB11_1+0x6d8>
    1bec:	01ff0fb3          	add	t6,t5,t6
    1bf0:	00001f37          	lui	t5,0x1
    1bf4:	01e10f33          	add	t5,sp,t5
    1bf8:	81ff3823          	sd	t6,-2032(t5) # 810 <.LBB11_1+0x6d8>
    1bfc:	03860f33          	mul	t5,a2,s8
    1c00:	5d813f83          	ld	t6,1496(sp)
    1c04:	01ff0fb3          	add	t6,t5,t6
    1c08:	5df13c23          	sd	t6,1496(sp)
    1c0c:	03760f33          	mul	t5,a2,s7
    1c10:	5a013f83          	ld	t6,1440(sp)
    1c14:	01ff0fb3          	add	t6,t5,t6
    1c18:	5bf13023          	sd	t6,1440(sp)
    1c1c:	03660f33          	mul	t5,a2,s6
    1c20:	73013f83          	ld	t6,1840(sp)
    1c24:	01ff0fb3          	add	t6,t5,t6
    1c28:	73f13823          	sd	t6,1840(sp)
    1c2c:	02a60f33          	mul	t5,a2,a0
    1c30:	61013f83          	ld	t6,1552(sp)
    1c34:	01ff0fb3          	add	t6,t5,t6
    1c38:	61f13823          	sd	t6,1552(sp)
    1c3c:	02b60f33          	mul	t5,a2,a1
    1c40:	64813f83          	ld	t6,1608(sp)
    1c44:	01ff0fb3          	add	t6,t5,t6
    1c48:	65f13423          	sd	t6,1608(sp)
    1c4c:	03060f33          	mul	t5,a2,a6
    1c50:	68013f83          	ld	t6,1664(sp)
    1c54:	01ff0fb3          	add	t6,t5,t6
    1c58:	69f13023          	sd	t6,1664(sp)
    1c5c:	03160f33          	mul	t5,a2,a7
    1c60:	6b813f83          	ld	t6,1720(sp)
    1c64:	01ff0fb3          	add	t6,t5,t6
    1c68:	6bf13c23          	sd	t6,1720(sp)
    1c6c:	03960f33          	mul	t5,a2,s9
    1c70:	6f013f83          	ld	t6,1776(sp)
    1c74:	01ff0fb3          	add	t6,t5,t6
    1c78:	6ff13823          	sd	t6,1776(sp)
    1c7c:	03b60f33          	mul	t5,a2,s11
    1c80:	72813f83          	ld	t6,1832(sp)
    1c84:	01ff0fb3          	add	t6,t5,t6
    1c88:	73f13423          	sd	t6,1832(sp)
    1c8c:	02160f33          	mul	t5,a2,ra
    1c90:	76813f83          	ld	t6,1896(sp)
    1c94:	01ff0fb3          	add	t6,t5,t6
    1c98:	77f13423          	sd	t6,1896(sp)
    1c9c:	02d60f33          	mul	t5,a2,a3
    1ca0:	7a013f83          	ld	t6,1952(sp)
    1ca4:	01ff0fb3          	add	t6,t5,t6
    1ca8:	7bf13023          	sd	t6,1952(sp)
    1cac:	02560f33          	mul	t5,a2,t0
    1cb0:	7d813f83          	ld	t6,2008(sp)
    1cb4:	01ff0fb3          	add	t6,t5,t6
    1cb8:	7df13c23          	sd	t6,2008(sp)
    1cbc:	02660f33          	mul	t5,a2,t1
    1cc0:	012f0933          	add	s2,t5,s2
    1cc4:	02760f33          	mul	t5,a2,t2
    1cc8:	00001fb7          	lui	t6,0x1
    1ccc:	01f10fb3          	add	t6,sp,t6
    1cd0:	848fbf83          	ld	t6,-1976(t6) # 848 <.LBB11_1+0x710>
    1cd4:	01ff0fb3          	add	t6,t5,t6
    1cd8:	00001f37          	lui	t5,0x1
    1cdc:	01e10f33          	add	t5,sp,t5
    1ce0:	85ff3423          	sd	t6,-1976(t5) # 848 <.LBB11_1+0x710>
    1ce4:	03c60f33          	mul	t5,a2,t3
    1ce8:	00001fb7          	lui	t6,0x1
    1cec:	01f10fb3          	add	t6,sp,t6
    1cf0:	878fbf83          	ld	t6,-1928(t6) # 878 <.LBB11_2+0x2c>
    1cf4:	01ff0fb3          	add	t6,t5,t6
    1cf8:	00001f37          	lui	t5,0x1
    1cfc:	01e10f33          	add	t5,sp,t5
    1d00:	87ff3c23          	sd	t6,-1928(t5) # 878 <.LBB11_2+0x2c>
    1d04:	03d60633          	mul	a2,a2,t4
    1d08:	00001f37          	lui	t5,0x1
    1d0c:	01e10f33          	add	t5,sp,t5
    1d10:	8b0f3f03          	ld	t5,-1872(t5) # 8b0 <.LBB11_2+0x64>
    1d14:	01e60f33          	add	t5,a2,t5
    1d18:	00001637          	lui	a2,0x1
    1d1c:	00c10633          	add	a2,sp,a2
    1d20:	8be63823          	sd	t5,-1872(a2) # 8b0 <.LBB11_2+0x64>
    1d24:	03dd0633          	mul	a2,s10,t4
    1d28:	03cd0e33          	mul	t3,s10,t3
    1d2c:	027d03b3          	mul	t2,s10,t2
    1d30:	026d0333          	mul	t1,s10,t1
    1d34:	025d02b3          	mul	t0,s10,t0
    1d38:	02dd06b3          	mul	a3,s10,a3
    1d3c:	021d0eb3          	mul	t4,s10,ra
    1d40:	00001f37          	lui	t5,0x1
    1d44:	01e10f33          	add	t5,sp,t5
    1d48:	8c0f3083          	ld	ra,-1856(t5) # 8c0 <.LBB11_2+0x74>
    1d4c:	03bd0f33          	mul	t5,s10,s11
    1d50:	00001fb7          	lui	t6,0x1
    1d54:	01f10fb3          	add	t6,sp,t6
    1d58:	8c8fbd83          	ld	s11,-1848(t6) # 8c8 <.LBB11_2+0x7c>
    1d5c:	039d0cb3          	mul	s9,s10,s9
    1d60:	031d08b3          	mul	a7,s10,a7
    1d64:	030d0833          	mul	a6,s10,a6
    1d68:	02bd05b3          	mul	a1,s10,a1
    1d6c:	02ad0533          	mul	a0,s10,a0
    1d70:	036d0b33          	mul	s6,s10,s6
    1d74:	037d0bb3          	mul	s7,s10,s7
    1d78:	038d0c33          	mul	s8,s10,s8
    1d7c:	00001fb7          	lui	t6,0x1
    1d80:	01f10fb3          	add	t6,sp,t6
    1d84:	8d0fbd03          	ld	s10,-1840(t6) # 8d0 <.LBB11_2+0x84>
    1d88:	00001fb7          	lui	t6,0x1
    1d8c:	01f10fb3          	add	t6,sp,t6
    1d90:	910fbf83          	ld	t6,-1776(t6) # 910 <.LBB11_2+0xc4>
    1d94:	01fc0fb3          	add	t6,s8,t6
    1d98:	000014b7          	lui	s1,0x1
    1d9c:	009104b3          	add	s1,sp,s1
    1da0:	91f4b823          	sd	t6,-1776(s1) # 910 <.LBB11_2+0xc4>
    1da4:	00001fb7          	lui	t6,0x1
    1da8:	01f10fb3          	add	t6,sp,t6
    1dac:	908fbf83          	ld	t6,-1784(t6) # 908 <.LBB11_2+0xbc>
    1db0:	000014b7          	lui	s1,0x1
    1db4:	009104b3          	add	s1,sp,s1
    1db8:	9004b483          	ld	s1,-1792(s1) # 900 <.LBB11_2+0xb4>
    1dbc:	00001c37          	lui	s8,0x1
    1dc0:	01810c33          	add	s8,sp,s8
    1dc4:	8d8c3c03          	ld	s8,-1832(s8) # 8d8 <.LBB11_2+0x8c>
    1dc8:	01fb8fb3          	add	t6,s7,t6
    1dcc:	00001bb7          	lui	s7,0x1
    1dd0:	01710bb3          	add	s7,sp,s7
    1dd4:	91fbb423          	sd	t6,-1784(s7) # 908 <.LBB11_2+0xbc>
    1dd8:	56813f83          	ld	t6,1384(sp)
    1ddc:	009b04b3          	add	s1,s6,s1
    1de0:	00001b37          	lui	s6,0x1
    1de4:	01610b33          	add	s6,sp,s6
    1de8:	909b3023          	sd	s1,-1792(s6) # 900 <.LBB11_2+0xb4>
    1dec:	56013483          	ld	s1,1376(sp)
    1df0:	00001b37          	lui	s6,0x1
    1df4:	01610b33          	add	s6,sp,s6
    1df8:	8e0b3b03          	ld	s6,-1824(s6) # 8e0 <.LBB11_2+0x94>
    1dfc:	001500b3          	add	ra,a0,ra
    1e00:	01b58db3          	add	s11,a1,s11
    1e04:	01a80d33          	add	s10,a6,s10
    1e08:	01888c33          	add	s8,a7,s8
    1e0c:	00001537          	lui	a0,0x1
    1e10:	00a10533          	add	a0,sp,a0
    1e14:	91853503          	ld	a0,-1768(a0) # 918 <.LBB11_2+0xcc>
    1e18:	00ac8533          	add	a0,s9,a0
    1e1c:	000015b7          	lui	a1,0x1
    1e20:	00b105b3          	add	a1,sp,a1
    1e24:	90a5bc23          	sd	a0,-1768(a1) # 918 <.LBB11_2+0xcc>
    1e28:	00001537          	lui	a0,0x1
    1e2c:	00a10533          	add	a0,sp,a0
    1e30:	91853b83          	ld	s7,-1768(a0) # 918 <.LBB11_2+0xcc>
    1e34:	016f0b33          	add	s6,t5,s6
    1e38:	00001537          	lui	a0,0x1
    1e3c:	00a10533          	add	a0,sp,a0
    1e40:	8e853f03          	ld	t5,-1816(a0) # 8e8 <.LBB11_2+0x9c>
    1e44:	01ee8f33          	add	t5,t4,t5
    1e48:	00001537          	lui	a0,0x1
    1e4c:	00a10533          	add	a0,sp,a0
    1e50:	8f053e83          	ld	t4,-1808(a0) # 8f0 <.LBB11_2+0xa4>
    1e54:	01d68eb3          	add	t4,a3,t4
    1e58:	00001537          	lui	a0,0x1
    1e5c:	00a10533          	add	a0,sp,a0
    1e60:	8f853683          	ld	a3,-1800(a0) # 8f8 <.LBB11_2+0xac>
    1e64:	00001537          	lui	a0,0x1
    1e68:	00a10533          	add	a0,sp,a0
    1e6c:	92053503          	ld	a0,-1760(a0) # 920 <.LBB11_2+0xd4>
    1e70:	00a28533          	add	a0,t0,a0
    1e74:	000015b7          	lui	a1,0x1
    1e78:	00b105b3          	add	a1,sp,a1
    1e7c:	92a5b023          	sd	a0,-1760(a1) # 920 <.LBB11_2+0xd4>
    1e80:	00001537          	lui	a0,0x1
    1e84:	00a10533          	add	a0,sp,a0
    1e88:	92053283          	ld	t0,-1760(a0) # 920 <.LBB11_2+0xd4>
    1e8c:	00001537          	lui	a0,0x1
    1e90:	00a10533          	add	a0,sp,a0
    1e94:	92853503          	ld	a0,-1752(a0) # 928 <.LBB11_2+0xdc>
    1e98:	00a30533          	add	a0,t1,a0
    1e9c:	000015b7          	lui	a1,0x1
    1ea0:	00b105b3          	add	a1,sp,a1
    1ea4:	92a5b423          	sd	a0,-1752(a1) # 928 <.LBB11_2+0xdc>
    1ea8:	00001537          	lui	a0,0x1
    1eac:	00a10533          	add	a0,sp,a0
    1eb0:	92853883          	ld	a7,-1752(a0) # 928 <.LBB11_2+0xdc>
    1eb4:	00001537          	lui	a0,0x1
    1eb8:	00a10533          	add	a0,sp,a0
    1ebc:	93053503          	ld	a0,-1744(a0) # 930 <.LBB11_2+0xe4>
    1ec0:	00a38533          	add	a0,t2,a0
    1ec4:	000015b7          	lui	a1,0x1
    1ec8:	00b105b3          	add	a1,sp,a1
    1ecc:	92a5b823          	sd	a0,-1744(a1) # 930 <.LBB11_2+0xe4>
    1ed0:	00001537          	lui	a0,0x1
    1ed4:	00a10533          	add	a0,sp,a0
    1ed8:	93053803          	ld	a6,-1744(a0) # 930 <.LBB11_2+0xe4>
    1edc:	00de06b3          	add	a3,t3,a3
    1ee0:	00001537          	lui	a0,0x1
    1ee4:	00a10533          	add	a0,sp,a0
    1ee8:	93853503          	ld	a0,-1736(a0) # 938 <.LBB11_2+0xec>
    1eec:	00a60533          	add	a0,a2,a0
    1ef0:	000015b7          	lui	a1,0x1
    1ef4:	00b105b3          	add	a1,sp,a1
    1ef8:	92a5bc23          	sd	a0,-1736(a1) # 938 <.LBB11_2+0xec>
    1efc:	55013503          	ld	a0,1360(sp)
    1f00:	000015b7          	lui	a1,0x1
    1f04:	00b105b3          	add	a1,sp,a1
    1f08:	9385b583          	ld	a1,-1736(a1) # 938 <.LBB11_2+0xec>
    1f0c:	010a8a93          	addi	s5,s5,16
    1f10:	fff50513          	addi	a0,a0,-1
    1f14:	00178793          	addi	a5,a5,1
    1f18:	c8051a63          	bnez	a0,13ac <.LBB11_3>
    1f1c:	57013503          	ld	a0,1392(sp)
    1f20:	00001637          	lui	a2,0x1
    1f24:	00c10633          	add	a2,sp,a2
    1f28:	94a62023          	sw	a0,-1728(a2) # 940 <.LBB11_2+0xf4>
    1f2c:	5a813503          	ld	a0,1448(sp)
    1f30:	00001637          	lui	a2,0x1
    1f34:	00c10633          	add	a2,sp,a2
    1f38:	94a62223          	sw	a0,-1724(a2) # 944 <.LBB11_2+0xf8>
    1f3c:	5e013503          	ld	a0,1504(sp)
    1f40:	00001637          	lui	a2,0x1
    1f44:	00c10633          	add	a2,sp,a2
    1f48:	94a62423          	sw	a0,-1720(a2) # 948 <.LBB11_2+0xfc>
    1f4c:	61813503          	ld	a0,1560(sp)
    1f50:	00001637          	lui	a2,0x1
    1f54:	00c10633          	add	a2,sp,a2
    1f58:	94a62623          	sw	a0,-1716(a2) # 94c <.LBB11_2+0x100>
    1f5c:	65013503          	ld	a0,1616(sp)
    1f60:	00001637          	lui	a2,0x1
    1f64:	00c10633          	add	a2,sp,a2
    1f68:	94a62823          	sw	a0,-1712(a2) # 950 <.LBB11_2+0x104>
    1f6c:	68813503          	ld	a0,1672(sp)
    1f70:	00001637          	lui	a2,0x1
    1f74:	00c10633          	add	a2,sp,a2
    1f78:	94a62a23          	sw	a0,-1708(a2) # 954 <.LBB11_2+0x108>
    1f7c:	6c013503          	ld	a0,1728(sp)
    1f80:	00001637          	lui	a2,0x1
    1f84:	00c10633          	add	a2,sp,a2
    1f88:	94a62c23          	sw	a0,-1704(a2) # 958 <.LBB11_2+0x10c>
    1f8c:	6f813503          	ld	a0,1784(sp)
    1f90:	00001637          	lui	a2,0x1
    1f94:	00c10633          	add	a2,sp,a2
    1f98:	94a62e23          	sw	a0,-1700(a2) # 95c <.LBB11_2+0x110>
    1f9c:	73813503          	ld	a0,1848(sp)
    1fa0:	00001637          	lui	a2,0x1
    1fa4:	00c10633          	add	a2,sp,a2
    1fa8:	96a62023          	sw	a0,-1696(a2) # 960 <.LBB11_2+0x114>
    1fac:	77013503          	ld	a0,1904(sp)
    1fb0:	00001637          	lui	a2,0x1
    1fb4:	00c10633          	add	a2,sp,a2
    1fb8:	96a62223          	sw	a0,-1692(a2) # 964 <.LBB11_2+0x118>
    1fbc:	7a813503          	ld	a0,1960(sp)
    1fc0:	00001637          	lui	a2,0x1
    1fc4:	00c10633          	add	a2,sp,a2
    1fc8:	96a62423          	sw	a0,-1688(a2) # 968 <.LBB11_2+0x11c>
    1fcc:	7e013503          	ld	a0,2016(sp)
    1fd0:	00001637          	lui	a2,0x1
    1fd4:	00c10633          	add	a2,sp,a2
    1fd8:	96a62623          	sw	a0,-1684(a2) # 96c <.LBB11_2+0x120>
    1fdc:	00001537          	lui	a0,0x1
    1fe0:	00a10533          	add	a0,sp,a0
    1fe4:	81853503          	ld	a0,-2024(a0) # 818 <.LBB11_1+0x6e0>
    1fe8:	00001637          	lui	a2,0x1
    1fec:	00c10633          	add	a2,sp,a2
    1ff0:	96a62823          	sw	a0,-1680(a2) # 970 <.LBB11_2+0x124>
    1ff4:	00001537          	lui	a0,0x1
    1ff8:	00a10533          	add	a0,sp,a0
    1ffc:	96952a23          	sw	s1,-1676(a0) # 974 <.LBB11_2+0x128>
    2000:	00001537          	lui	a0,0x1
    2004:	00a10533          	add	a0,sp,a0
    2008:	88053503          	ld	a0,-1920(a0) # 880 <.LBB11_2+0x34>
    200c:	00001637          	lui	a2,0x1
    2010:	00c10633          	add	a2,sp,a2
    2014:	96a62c23          	sw	a0,-1672(a2) # 978 <.LBB11_2+0x12c>
    2018:	00001537          	lui	a0,0x1
    201c:	00a10533          	add	a0,sp,a0
    2020:	97f52e23          	sw	t6,-1668(a0) # 97c <.LBB11_2+0x130>
    2024:	7ff10513          	addi	a0,sp,2047
    2028:	18150513          	addi	a0,a0,385
    202c:	57813603          	ld	a2,1400(sp)
    2030:	00c52023          	sw	a2,0(a0)
    2034:	5b013503          	ld	a0,1456(sp)
    2038:	00001637          	lui	a2,0x1
    203c:	00c10633          	add	a2,sp,a2
    2040:	98a62223          	sw	a0,-1660(a2) # 984 <.LBB11_2+0x138>
    2044:	5e813503          	ld	a0,1512(sp)
    2048:	00001637          	lui	a2,0x1
    204c:	00c10633          	add	a2,sp,a2
    2050:	98a62423          	sw	a0,-1656(a2) # 988 <.LBB11_2+0x13c>
    2054:	62013503          	ld	a0,1568(sp)
    2058:	00001637          	lui	a2,0x1
    205c:	00c10633          	add	a2,sp,a2
    2060:	98a62623          	sw	a0,-1652(a2) # 98c <.LBB11_2+0x140>
    2064:	65813503          	ld	a0,1624(sp)
    2068:	00001637          	lui	a2,0x1
    206c:	00c10633          	add	a2,sp,a2
    2070:	98a62823          	sw	a0,-1648(a2) # 990 <.LBB11_2+0x144>
    2074:	69013503          	ld	a0,1680(sp)
    2078:	00001637          	lui	a2,0x1
    207c:	00c10633          	add	a2,sp,a2
    2080:	98a62a23          	sw	a0,-1644(a2) # 994 <.LBB11_2+0x148>
    2084:	6c813503          	ld	a0,1736(sp)
    2088:	00001637          	lui	a2,0x1
    208c:	00c10633          	add	a2,sp,a2
    2090:	98a62c23          	sw	a0,-1640(a2) # 998 <.LBB11_2+0x14c>
    2094:	70013503          	ld	a0,1792(sp)
    2098:	00001637          	lui	a2,0x1
    209c:	00c10633          	add	a2,sp,a2
    20a0:	98a62e23          	sw	a0,-1636(a2) # 99c <.LBB11_2+0x150>
    20a4:	74013503          	ld	a0,1856(sp)
    20a8:	00001637          	lui	a2,0x1
    20ac:	00c10633          	add	a2,sp,a2
    20b0:	9aa62023          	sw	a0,-1632(a2) # 9a0 <.LBB11_2+0x154>
    20b4:	77813503          	ld	a0,1912(sp)
    20b8:	00001637          	lui	a2,0x1
    20bc:	00c10633          	add	a2,sp,a2
    20c0:	9aa62223          	sw	a0,-1628(a2) # 9a4 <.LBB11_2+0x158>
    20c4:	7b013503          	ld	a0,1968(sp)
    20c8:	00001637          	lui	a2,0x1
    20cc:	00c10633          	add	a2,sp,a2
    20d0:	9aa62423          	sw	a0,-1624(a2) # 9a8 <.LBB11_2+0x15c>
    20d4:	7e813503          	ld	a0,2024(sp)
    20d8:	00001637          	lui	a2,0x1
    20dc:	00c10633          	add	a2,sp,a2
    20e0:	9aa62623          	sw	a0,-1620(a2) # 9ac <.LBB11_2+0x160>
    20e4:	00001537          	lui	a0,0x1
    20e8:	00a10533          	add	a0,sp,a0
    20ec:	82053503          	ld	a0,-2016(a0) # 820 <.LBB11_1+0x6e8>
    20f0:	00001637          	lui	a2,0x1
    20f4:	00c10633          	add	a2,sp,a2
    20f8:	9aa62823          	sw	a0,-1616(a2) # 9b0 <.LBB11_2+0x164>
    20fc:	00001537          	lui	a0,0x1
    2100:	00a10533          	add	a0,sp,a0
    2104:	85053503          	ld	a0,-1968(a0) # 850 <.LBB11_2+0x4>
    2108:	00001637          	lui	a2,0x1
    210c:	00c10633          	add	a2,sp,a2
    2110:	9aa62a23          	sw	a0,-1612(a2) # 9b4 <.LBB11_2+0x168>
    2114:	00001537          	lui	a0,0x1
    2118:	00a10533          	add	a0,sp,a0
    211c:	88853503          	ld	a0,-1912(a0) # 888 <.LBB11_2+0x3c>
    2120:	00001637          	lui	a2,0x1
    2124:	00c10633          	add	a2,sp,a2
    2128:	9aa62c23          	sw	a0,-1608(a2) # 9b8 <.LBB11_2+0x16c>
    212c:	00001537          	lui	a0,0x1
    2130:	00a10533          	add	a0,sp,a0
    2134:	8b853503          	ld	a0,-1864(a0) # 8b8 <.LBB11_2+0x6c>
    2138:	00001637          	lui	a2,0x1
    213c:	00c10633          	add	a2,sp,a2
    2140:	9aa62e23          	sw	a0,-1604(a2) # 9bc <.LBB11_2+0x170>
    2144:	7ff10513          	addi	a0,sp,2047
    2148:	1c150513          	addi	a0,a0,449
    214c:	58013603          	ld	a2,1408(sp)
    2150:	00c52023          	sw	a2,0(a0)
    2154:	5b813503          	ld	a0,1464(sp)
    2158:	00001637          	lui	a2,0x1
    215c:	00c10633          	add	a2,sp,a2
    2160:	9ca62223          	sw	a0,-1596(a2) # 9c4 <.LBB11_2+0x178>
    2164:	5f013503          	ld	a0,1520(sp)
    2168:	00001637          	lui	a2,0x1
    216c:	00c10633          	add	a2,sp,a2
    2170:	9ca62423          	sw	a0,-1592(a2) # 9c8 <.LBB11_2+0x17c>
    2174:	62813503          	ld	a0,1576(sp)
    2178:	00001637          	lui	a2,0x1
    217c:	00c10633          	add	a2,sp,a2
    2180:	9ca62623          	sw	a0,-1588(a2) # 9cc <.LBB11_2+0x180>
    2184:	66013503          	ld	a0,1632(sp)
    2188:	00001637          	lui	a2,0x1
    218c:	00c10633          	add	a2,sp,a2
    2190:	9ca62823          	sw	a0,-1584(a2) # 9d0 <.LBB11_2+0x184>
    2194:	69813503          	ld	a0,1688(sp)
    2198:	00001637          	lui	a2,0x1
    219c:	00c10633          	add	a2,sp,a2
    21a0:	9ca62a23          	sw	a0,-1580(a2) # 9d4 <.LBB11_2+0x188>
    21a4:	6d013503          	ld	a0,1744(sp)
    21a8:	00001637          	lui	a2,0x1
    21ac:	00c10633          	add	a2,sp,a2
    21b0:	9ca62c23          	sw	a0,-1576(a2) # 9d8 <.LBB11_2+0x18c>
    21b4:	70813503          	ld	a0,1800(sp)
    21b8:	00001637          	lui	a2,0x1
    21bc:	00c10633          	add	a2,sp,a2
    21c0:	9ca62e23          	sw	a0,-1572(a2) # 9dc <.LBB11_2+0x190>
    21c4:	74813503          	ld	a0,1864(sp)
    21c8:	00001637          	lui	a2,0x1
    21cc:	00c10633          	add	a2,sp,a2
    21d0:	9ea62023          	sw	a0,-1568(a2) # 9e0 <.LBB11_2+0x194>
    21d4:	78013503          	ld	a0,1920(sp)
    21d8:	00001637          	lui	a2,0x1
    21dc:	00c10633          	add	a2,sp,a2
    21e0:	9ea62223          	sw	a0,-1564(a2) # 9e4 <.LBB11_2+0x198>
    21e4:	7b813503          	ld	a0,1976(sp)
    21e8:	00001637          	lui	a2,0x1
    21ec:	00c10633          	add	a2,sp,a2
    21f0:	9ea62423          	sw	a0,-1560(a2) # 9e8 <.LBB11_2+0x19c>
    21f4:	7f013503          	ld	a0,2032(sp)
    21f8:	00001637          	lui	a2,0x1
    21fc:	00c10633          	add	a2,sp,a2
    2200:	9ea62623          	sw	a0,-1556(a2) # 9ec <.LBB11_2+0x1a0>
    2204:	00001537          	lui	a0,0x1
    2208:	00a10533          	add	a0,sp,a0
    220c:	82853503          	ld	a0,-2008(a0) # 828 <.LBB11_1+0x6f0>
    2210:	00001637          	lui	a2,0x1
    2214:	00c10633          	add	a2,sp,a2
    2218:	9ea62823          	sw	a0,-1552(a2) # 9f0 <.LBB11_2+0x1a4>
    221c:	00001537          	lui	a0,0x1
    2220:	00a10533          	add	a0,sp,a0
    2224:	85853503          	ld	a0,-1960(a0) # 858 <.LBB11_2+0xc>
    2228:	00001637          	lui	a2,0x1
    222c:	00c10633          	add	a2,sp,a2
    2230:	9ea62a23          	sw	a0,-1548(a2) # 9f4 <.LBB11_2+0x1a8>
    2234:	00001537          	lui	a0,0x1
    2238:	00a10533          	add	a0,sp,a0
    223c:	89053503          	ld	a0,-1904(a0) # 890 <.LBB11_2+0x44>
    2240:	00001637          	lui	a2,0x1
    2244:	00c10633          	add	a2,sp,a2
    2248:	9ea62c23          	sw	a0,-1544(a2) # 9f8 <.LBB11_2+0x1ac>
    224c:	7f813503          	ld	a0,2040(sp)
    2250:	00001637          	lui	a2,0x1
    2254:	00c10633          	add	a2,sp,a2
    2258:	9ea62e23          	sw	a0,-1540(a2) # 9fc <.LBB11_2+0x1b0>
    225c:	7ff10513          	addi	a0,sp,2047
    2260:	20150513          	addi	a0,a0,513
    2264:	58813603          	ld	a2,1416(sp)
    2268:	00c52023          	sw	a2,0(a0)
    226c:	5c013503          	ld	a0,1472(sp)
    2270:	00001637          	lui	a2,0x1
    2274:	00c10633          	add	a2,sp,a2
    2278:	a0a62223          	sw	a0,-1532(a2) # a04 <.LBB11_2+0x1b8>
    227c:	5f813503          	ld	a0,1528(sp)
    2280:	00001637          	lui	a2,0x1
    2284:	00c10633          	add	a2,sp,a2
    2288:	a0a62423          	sw	a0,-1528(a2) # a08 <.LBB11_2+0x1bc>
    228c:	63013503          	ld	a0,1584(sp)
    2290:	00001637          	lui	a2,0x1
    2294:	00c10633          	add	a2,sp,a2
    2298:	a0a62623          	sw	a0,-1524(a2) # a0c <.LBB11_2+0x1c0>
    229c:	66813503          	ld	a0,1640(sp)
    22a0:	00001637          	lui	a2,0x1
    22a4:	00c10633          	add	a2,sp,a2
    22a8:	a0a62823          	sw	a0,-1520(a2) # a10 <.LBB11_2+0x1c4>
    22ac:	6a013503          	ld	a0,1696(sp)
    22b0:	00001637          	lui	a2,0x1
    22b4:	00c10633          	add	a2,sp,a2
    22b8:	a0a62a23          	sw	a0,-1516(a2) # a14 <.LBB11_2+0x1c8>
    22bc:	6d813503          	ld	a0,1752(sp)
    22c0:	00001637          	lui	a2,0x1
    22c4:	00c10633          	add	a2,sp,a2
    22c8:	a0a62c23          	sw	a0,-1512(a2) # a18 <.LBB11_2+0x1cc>
    22cc:	71013503          	ld	a0,1808(sp)
    22d0:	00001637          	lui	a2,0x1
    22d4:	00c10633          	add	a2,sp,a2
    22d8:	a0a62e23          	sw	a0,-1508(a2) # a1c <.LBB11_2+0x1d0>
    22dc:	75013503          	ld	a0,1872(sp)
    22e0:	00001637          	lui	a2,0x1
    22e4:	00c10633          	add	a2,sp,a2
    22e8:	a2a62023          	sw	a0,-1504(a2) # a20 <.LBB11_2+0x1d4>
    22ec:	78813503          	ld	a0,1928(sp)
    22f0:	00001637          	lui	a2,0x1
    22f4:	00c10633          	add	a2,sp,a2
    22f8:	a2a62223          	sw	a0,-1500(a2) # a24 <.LBB11_2+0x1d8>
    22fc:	7c013503          	ld	a0,1984(sp)
    2300:	00001637          	lui	a2,0x1
    2304:	00c10633          	add	a2,sp,a2
    2308:	a2a62423          	sw	a0,-1496(a2) # a28 <.LBB11_2+0x1dc>
    230c:	00001537          	lui	a0,0x1
    2310:	00a10533          	add	a0,sp,a0
    2314:	a2e52623          	sw	a4,-1492(a0) # a2c <.LBB11_2+0x1e0>
    2318:	00001537          	lui	a0,0x1
    231c:	00a10533          	add	a0,sp,a0
    2320:	83053503          	ld	a0,-2000(a0) # 830 <.LBB11_1+0x6f8>
    2324:	00001637          	lui	a2,0x1
    2328:	00c10633          	add	a2,sp,a2
    232c:	a2a62823          	sw	a0,-1488(a2) # a30 <.LBB11_2+0x1e4>
    2330:	00001537          	lui	a0,0x1
    2334:	00a10533          	add	a0,sp,a0
    2338:	86053503          	ld	a0,-1952(a0) # 860 <.LBB11_2+0x14>
    233c:	00001637          	lui	a2,0x1
    2340:	00c10633          	add	a2,sp,a2
    2344:	a2a62a23          	sw	a0,-1484(a2) # a34 <.LBB11_2+0x1e8>
    2348:	00001537          	lui	a0,0x1
    234c:	00a10533          	add	a0,sp,a0
    2350:	89853503          	ld	a0,-1896(a0) # 898 <.LBB11_2+0x4c>
    2354:	00001637          	lui	a2,0x1
    2358:	00c10633          	add	a2,sp,a2
    235c:	a2a62c23          	sw	a0,-1480(a2) # a38 <.LBB11_2+0x1ec>
    2360:	00001537          	lui	a0,0x1
    2364:	00a10533          	add	a0,sp,a0
    2368:	80053503          	ld	a0,-2048(a0) # 800 <.LBB11_1+0x6c8>
    236c:	00001637          	lui	a2,0x1
    2370:	00c10633          	add	a2,sp,a2
    2374:	a2a62e23          	sw	a0,-1476(a2) # a3c <.LBB11_2+0x1f0>
    2378:	7ff10513          	addi	a0,sp,2047
    237c:	24150513          	addi	a0,a0,577
    2380:	59013603          	ld	a2,1424(sp)
    2384:	00c52023          	sw	a2,0(a0)
    2388:	5c813503          	ld	a0,1480(sp)
    238c:	00001637          	lui	a2,0x1
    2390:	00c10633          	add	a2,sp,a2
    2394:	a4a62223          	sw	a0,-1468(a2) # a44 <.LBB11_2+0x1f8>
    2398:	60013503          	ld	a0,1536(sp)
    239c:	00001637          	lui	a2,0x1
    23a0:	00c10633          	add	a2,sp,a2
    23a4:	a4a62423          	sw	a0,-1464(a2) # a48 <.LBB11_2+0x1fc>
    23a8:	63813503          	ld	a0,1592(sp)
    23ac:	00001637          	lui	a2,0x1
    23b0:	00c10633          	add	a2,sp,a2
    23b4:	a4a62623          	sw	a0,-1460(a2) # a4c <.LBB11_2+0x200>
    23b8:	67013503          	ld	a0,1648(sp)
    23bc:	00001637          	lui	a2,0x1
    23c0:	00c10633          	add	a2,sp,a2
    23c4:	a4a62823          	sw	a0,-1456(a2) # a50 <.LBB11_2+0x204>
    23c8:	6a813503          	ld	a0,1704(sp)
    23cc:	00001637          	lui	a2,0x1
    23d0:	00c10633          	add	a2,sp,a2
    23d4:	a4a62a23          	sw	a0,-1452(a2) # a54 <.LBB11_2+0x208>
    23d8:	6e013503          	ld	a0,1760(sp)
    23dc:	00001637          	lui	a2,0x1
    23e0:	00c10633          	add	a2,sp,a2
    23e4:	a4a62c23          	sw	a0,-1448(a2) # a58 <.LBB11_2+0x20c>
    23e8:	71813503          	ld	a0,1816(sp)
    23ec:	00001637          	lui	a2,0x1
    23f0:	00c10633          	add	a2,sp,a2
    23f4:	a4a62e23          	sw	a0,-1444(a2) # a5c <.LBB11_2+0x210>
    23f8:	75813503          	ld	a0,1880(sp)
    23fc:	00001637          	lui	a2,0x1
    2400:	00c10633          	add	a2,sp,a2
    2404:	a6a62023          	sw	a0,-1440(a2) # a60 <.LBB11_2+0x214>
    2408:	79013503          	ld	a0,1936(sp)
    240c:	00001637          	lui	a2,0x1
    2410:	00c10633          	add	a2,sp,a2
    2414:	a6a62223          	sw	a0,-1436(a2) # a64 <.LBB11_2+0x218>
    2418:	7c813503          	ld	a0,1992(sp)
    241c:	00001637          	lui	a2,0x1
    2420:	00c10633          	add	a2,sp,a2
    2424:	a6a62423          	sw	a0,-1432(a2) # a68 <.LBB11_2+0x21c>
    2428:	00001537          	lui	a0,0x1
    242c:	00a10533          	add	a0,sp,a0
    2430:	a7452623          	sw	s4,-1428(a0) # a6c <.LBB11_2+0x220>
    2434:	00001537          	lui	a0,0x1
    2438:	00a10533          	add	a0,sp,a0
    243c:	83853503          	ld	a0,-1992(a0) # 838 <.LBB11_1+0x700>
    2440:	00001637          	lui	a2,0x1
    2444:	00c10633          	add	a2,sp,a2
    2448:	a6a62823          	sw	a0,-1424(a2) # a70 <.LBB11_2+0x224>
    244c:	00001537          	lui	a0,0x1
    2450:	00a10533          	add	a0,sp,a0
    2454:	86853503          	ld	a0,-1944(a0) # 868 <.LBB11_2+0x1c>
    2458:	00001637          	lui	a2,0x1
    245c:	00c10633          	add	a2,sp,a2
    2460:	a6a62a23          	sw	a0,-1420(a2) # a74 <.LBB11_2+0x228>
    2464:	00001537          	lui	a0,0x1
    2468:	00a10533          	add	a0,sp,a0
    246c:	8a053503          	ld	a0,-1888(a0) # 8a0 <.LBB11_2+0x54>
    2470:	00001637          	lui	a2,0x1
    2474:	00c10633          	add	a2,sp,a2
    2478:	a6a62c23          	sw	a0,-1416(a2) # a78 <.LBB11_2+0x22c>
    247c:	00001537          	lui	a0,0x1
    2480:	00a10533          	add	a0,sp,a0
    2484:	80853503          	ld	a0,-2040(a0) # 808 <.LBB11_1+0x6d0>
    2488:	00001637          	lui	a2,0x1
    248c:	00c10633          	add	a2,sp,a2
    2490:	a6a62e23          	sw	a0,-1412(a2) # a7c <.LBB11_2+0x230>
    2494:	7ff10513          	addi	a0,sp,2047
    2498:	28150513          	addi	a0,a0,641
    249c:	59813603          	ld	a2,1432(sp)
    24a0:	00c52023          	sw	a2,0(a0)
    24a4:	5d013503          	ld	a0,1488(sp)
    24a8:	00001637          	lui	a2,0x1
    24ac:	00c10633          	add	a2,sp,a2
    24b0:	a8a62223          	sw	a0,-1404(a2) # a84 <.LBB11_2+0x238>
    24b4:	60813503          	ld	a0,1544(sp)
    24b8:	00001637          	lui	a2,0x1
    24bc:	00c10633          	add	a2,sp,a2
    24c0:	a8a62423          	sw	a0,-1400(a2) # a88 <.LBB11_2+0x23c>
    24c4:	64013503          	ld	a0,1600(sp)
    24c8:	00001637          	lui	a2,0x1
    24cc:	00c10633          	add	a2,sp,a2
    24d0:	a8a62623          	sw	a0,-1396(a2) # a8c <.LBB11_2+0x240>
    24d4:	67813503          	ld	a0,1656(sp)
    24d8:	00001637          	lui	a2,0x1
    24dc:	00c10633          	add	a2,sp,a2
    24e0:	a8a62823          	sw	a0,-1392(a2) # a90 <.LBB11_2+0x244>
    24e4:	6b013503          	ld	a0,1712(sp)
    24e8:	00001637          	lui	a2,0x1
    24ec:	00c10633          	add	a2,sp,a2
    24f0:	a8a62a23          	sw	a0,-1388(a2) # a94 <.LBB11_2+0x248>
    24f4:	6e813503          	ld	a0,1768(sp)
    24f8:	00001637          	lui	a2,0x1
    24fc:	00c10633          	add	a2,sp,a2
    2500:	a8a62c23          	sw	a0,-1384(a2) # a98 <.LBB11_2+0x24c>
    2504:	72013503          	ld	a0,1824(sp)
    2508:	00001637          	lui	a2,0x1
    250c:	00c10633          	add	a2,sp,a2
    2510:	a8a62e23          	sw	a0,-1380(a2) # a9c <.LBB11_2+0x250>
    2514:	76013503          	ld	a0,1888(sp)
    2518:	00001637          	lui	a2,0x1
    251c:	00c10633          	add	a2,sp,a2
    2520:	aaa62023          	sw	a0,-1376(a2) # aa0 <.LBB11_2+0x254>
    2524:	79813503          	ld	a0,1944(sp)
    2528:	00001637          	lui	a2,0x1
    252c:	00c10633          	add	a2,sp,a2
    2530:	aaa62223          	sw	a0,-1372(a2) # aa4 <.LBB11_2+0x258>
    2534:	7d013503          	ld	a0,2000(sp)
    2538:	00001637          	lui	a2,0x1
    253c:	00c10633          	add	a2,sp,a2
    2540:	aaa62423          	sw	a0,-1368(a2) # aa8 <.LBB11_2+0x25c>
    2544:	00001537          	lui	a0,0x1
    2548:	00a10533          	add	a0,sp,a0
    254c:	ab352623          	sw	s3,-1364(a0) # aac <.LBB11_2+0x260>
    2550:	00001537          	lui	a0,0x1
    2554:	00a10533          	add	a0,sp,a0
    2558:	84053503          	ld	a0,-1984(a0) # 840 <.LBB11_1+0x708>
    255c:	00001637          	lui	a2,0x1
    2560:	00c10633          	add	a2,sp,a2
    2564:	aaa62823          	sw	a0,-1360(a2) # ab0 <.LBB11_2+0x264>
    2568:	00001537          	lui	a0,0x1
    256c:	00a10533          	add	a0,sp,a0
    2570:	87053503          	ld	a0,-1936(a0) # 870 <.LBB11_2+0x24>
    2574:	00001637          	lui	a2,0x1
    2578:	00c10633          	add	a2,sp,a2
    257c:	aaa62a23          	sw	a0,-1356(a2) # ab4 <.LBB11_2+0x268>
    2580:	00001537          	lui	a0,0x1
    2584:	00a10533          	add	a0,sp,a0
    2588:	8a853503          	ld	a0,-1880(a0) # 8a8 <.LBB11_2+0x5c>
    258c:	00001637          	lui	a2,0x1
    2590:	00c10633          	add	a2,sp,a2
    2594:	aaa62c23          	sw	a0,-1352(a2) # ab8 <.LBB11_2+0x26c>
    2598:	00001537          	lui	a0,0x1
    259c:	00a10533          	add	a0,sp,a0
    25a0:	81053503          	ld	a0,-2032(a0) # 810 <.LBB11_1+0x6d8>
    25a4:	00001637          	lui	a2,0x1
    25a8:	00c10633          	add	a2,sp,a2
    25ac:	aaa62e23          	sw	a0,-1348(a2) # abc <.LBB11_2+0x270>
    25b0:	7ff10513          	addi	a0,sp,2047
    25b4:	2c150513          	addi	a0,a0,705
    25b8:	73013603          	ld	a2,1840(sp)
    25bc:	00c52023          	sw	a2,0(a0)
    25c0:	5a013503          	ld	a0,1440(sp)
    25c4:	00001637          	lui	a2,0x1
    25c8:	00c10633          	add	a2,sp,a2
    25cc:	aca62223          	sw	a0,-1340(a2) # ac4 <.LBB11_2+0x278>
    25d0:	5d813503          	ld	a0,1496(sp)
    25d4:	00001637          	lui	a2,0x1
    25d8:	00c10633          	add	a2,sp,a2
    25dc:	aca62423          	sw	a0,-1336(a2) # ac8 <.LBB11_2+0x27c>
    25e0:	61013503          	ld	a0,1552(sp)
    25e4:	00001637          	lui	a2,0x1
    25e8:	00c10633          	add	a2,sp,a2
    25ec:	aca62623          	sw	a0,-1332(a2) # acc <.LBB11_2+0x280>
    25f0:	64813503          	ld	a0,1608(sp)
    25f4:	00001637          	lui	a2,0x1
    25f8:	00c10633          	add	a2,sp,a2
    25fc:	aca62823          	sw	a0,-1328(a2) # ad0 <.LBB11_2+0x284>
    2600:	68013503          	ld	a0,1664(sp)
    2604:	00001637          	lui	a2,0x1
    2608:	00c10633          	add	a2,sp,a2
    260c:	aca62a23          	sw	a0,-1324(a2) # ad4 <.LBB11_2+0x288>
    2610:	6b813503          	ld	a0,1720(sp)
    2614:	00001637          	lui	a2,0x1
    2618:	00c10633          	add	a2,sp,a2
    261c:	aca62c23          	sw	a0,-1320(a2) # ad8 <.LBB11_2+0x28c>
    2620:	6f013503          	ld	a0,1776(sp)
    2624:	00001637          	lui	a2,0x1
    2628:	00c10633          	add	a2,sp,a2
    262c:	aca62e23          	sw	a0,-1316(a2) # adc <.LBB11_2+0x290>
    2630:	72813503          	ld	a0,1832(sp)
    2634:	00001637          	lui	a2,0x1
    2638:	00c10633          	add	a2,sp,a2
    263c:	aea62023          	sw	a0,-1312(a2) # ae0 <.LBB11_2+0x294>
    2640:	76813503          	ld	a0,1896(sp)
    2644:	00001637          	lui	a2,0x1
    2648:	00c10633          	add	a2,sp,a2
    264c:	aea62223          	sw	a0,-1308(a2) # ae4 <.LBB11_2+0x298>
    2650:	7a013503          	ld	a0,1952(sp)
    2654:	00001637          	lui	a2,0x1
    2658:	00c10633          	add	a2,sp,a2
    265c:	aea62423          	sw	a0,-1304(a2) # ae8 <.LBB11_2+0x29c>
    2660:	7d813503          	ld	a0,2008(sp)
    2664:	00001637          	lui	a2,0x1
    2668:	00c10633          	add	a2,sp,a2
    266c:	aea62623          	sw	a0,-1300(a2) # aec <.LBB11_2+0x2a0>
    2670:	00001537          	lui	a0,0x1
    2674:	00a10533          	add	a0,sp,a0
    2678:	af252823          	sw	s2,-1296(a0) # af0 <.LBB11_2+0x2a4>
    267c:	00001537          	lui	a0,0x1
    2680:	00a10533          	add	a0,sp,a0
    2684:	84853503          	ld	a0,-1976(a0) # 848 <.LBB11_1+0x710>
    2688:	00001637          	lui	a2,0x1
    268c:	00c10633          	add	a2,sp,a2
    2690:	aea62a23          	sw	a0,-1292(a2) # af4 <.LBB11_2+0x2a8>
    2694:	00001537          	lui	a0,0x1
    2698:	00a10533          	add	a0,sp,a0
    269c:	87853503          	ld	a0,-1928(a0) # 878 <.LBB11_2+0x2c>
    26a0:	00001637          	lui	a2,0x1
    26a4:	00c10633          	add	a2,sp,a2
    26a8:	aea62c23          	sw	a0,-1288(a2) # af8 <.LBB11_2+0x2ac>
    26ac:	00001537          	lui	a0,0x1
    26b0:	00a10533          	add	a0,sp,a0
    26b4:	8b053503          	ld	a0,-1872(a0) # 8b0 <.LBB11_2+0x64>
    26b8:	00001637          	lui	a2,0x1
    26bc:	00c10633          	add	a2,sp,a2
    26c0:	aea62e23          	sw	a0,-1284(a2) # afc <.LBB11_2+0x2b0>
    26c4:	7ff10513          	addi	a0,sp,2047
    26c8:	30150513          	addi	a0,a0,769
    26cc:	00001637          	lui	a2,0x1
    26d0:	00c10633          	add	a2,sp,a2
    26d4:	90063603          	ld	a2,-1792(a2) # 900 <.LBB11_2+0xb4>
    26d8:	00c52023          	sw	a2,0(a0)
    26dc:	00001537          	lui	a0,0x1
    26e0:	00a10533          	add	a0,sp,a0
    26e4:	90853503          	ld	a0,-1784(a0) # 908 <.LBB11_2+0xbc>
    26e8:	00001637          	lui	a2,0x1
    26ec:	00c10633          	add	a2,sp,a2
    26f0:	b0a62223          	sw	a0,-1276(a2) # b04 <.LBB11_2+0x2b8>
    26f4:	00001537          	lui	a0,0x1
    26f8:	00a10533          	add	a0,sp,a0
    26fc:	91053503          	ld	a0,-1776(a0) # 910 <.LBB11_2+0xc4>
    2700:	00001637          	lui	a2,0x1
    2704:	00c10633          	add	a2,sp,a2
    2708:	b0a62423          	sw	a0,-1272(a2) # b08 <.LBB11_2+0x2bc>
    270c:	00001537          	lui	a0,0x1
    2710:	00a10533          	add	a0,sp,a0
    2714:	8c153023          	sd	ra,-1856(a0) # 8c0 <.LBB11_2+0x74>
    2718:	00001537          	lui	a0,0x1
    271c:	00a10533          	add	a0,sp,a0
    2720:	b0152623          	sw	ra,-1268(a0) # b0c <.LBB11_2+0x2c0>
    2724:	00001537          	lui	a0,0x1
    2728:	00a10533          	add	a0,sp,a0
    272c:	8db53423          	sd	s11,-1848(a0) # 8c8 <.LBB11_2+0x7c>
    2730:	00001537          	lui	a0,0x1
    2734:	00a10533          	add	a0,sp,a0
    2738:	b1b52823          	sw	s11,-1264(a0) # b10 <.LBB11_2+0x2c4>
    273c:	00001537          	lui	a0,0x1
    2740:	00a10533          	add	a0,sp,a0
    2744:	8da53823          	sd	s10,-1840(a0) # 8d0 <.LBB11_2+0x84>
    2748:	00001537          	lui	a0,0x1
    274c:	00a10533          	add	a0,sp,a0
    2750:	b1a52a23          	sw	s10,-1260(a0) # b14 <.LBB11_2+0x2c8>
    2754:	00001537          	lui	a0,0x1
    2758:	00a10533          	add	a0,sp,a0
    275c:	8d853c23          	sd	s8,-1832(a0) # 8d8 <.LBB11_2+0x8c>
    2760:	00001537          	lui	a0,0x1
    2764:	00a10533          	add	a0,sp,a0
    2768:	b1852c23          	sw	s8,-1256(a0) # b18 <.LBB11_2+0x2cc>
    276c:	00001537          	lui	a0,0x1
    2770:	00a10533          	add	a0,sp,a0
    2774:	b1752e23          	sw	s7,-1252(a0) # b1c <.LBB11_2+0x2d0>
    2778:	00001537          	lui	a0,0x1
    277c:	00a10533          	add	a0,sp,a0
    2780:	8f653023          	sd	s6,-1824(a0) # 8e0 <.LBB11_2+0x94>
    2784:	00001537          	lui	a0,0x1
    2788:	00a10533          	add	a0,sp,a0
    278c:	b3652023          	sw	s6,-1248(a0) # b20 <.LBB11_2+0x2d4>
    2790:	00001537          	lui	a0,0x1
    2794:	00a10533          	add	a0,sp,a0
    2798:	8fe53423          	sd	t5,-1816(a0) # 8e8 <.LBB11_2+0x9c>
    279c:	00001537          	lui	a0,0x1
    27a0:	00a10533          	add	a0,sp,a0
    27a4:	b3e52223          	sw	t5,-1244(a0) # b24 <.LBB11_2+0x2d8>
    27a8:	00001537          	lui	a0,0x1
    27ac:	00a10533          	add	a0,sp,a0
    27b0:	8fd53823          	sd	t4,-1808(a0) # 8f0 <.LBB11_2+0xa4>
    27b4:	00001537          	lui	a0,0x1
    27b8:	00a10533          	add	a0,sp,a0
    27bc:	b3d52423          	sw	t4,-1240(a0) # b28 <.LBB11_2+0x2dc>
    27c0:	00001537          	lui	a0,0x1
    27c4:	00a10533          	add	a0,sp,a0
    27c8:	b2552623          	sw	t0,-1236(a0) # b2c <.LBB11_2+0x2e0>
    27cc:	00001537          	lui	a0,0x1
    27d0:	00a10533          	add	a0,sp,a0
    27d4:	b3152823          	sw	a7,-1232(a0) # b30 <.LBB11_2+0x2e4>
    27d8:	00001537          	lui	a0,0x1
    27dc:	00a10533          	add	a0,sp,a0
    27e0:	b3052a23          	sw	a6,-1228(a0) # b34 <.LBB11_2+0x2e8>
    27e4:	00001537          	lui	a0,0x1
    27e8:	00a10533          	add	a0,sp,a0
    27ec:	8ed53c23          	sd	a3,-1800(a0) # 8f8 <.LBB11_2+0xac>
    27f0:	00001537          	lui	a0,0x1
    27f4:	00a10533          	add	a0,sp,a0
    27f8:	b2d52c23          	sw	a3,-1224(a0) # b38 <.LBB11_2+0x2ec>
    27fc:	00001537          	lui	a0,0x1
    2800:	00a10533          	add	a0,sp,a0
    2804:	b2b52e23          	sw	a1,-1220(a0) # b3c <.LBB11_2+0x2f0>
    2808:	00001537          	lui	a0,0x1
    280c:	00a10533          	add	a0,sp,a0
    2810:	97c52503          	lw	a0,-1668(a0) # 97c <.LBB11_2+0x130>
    2814:	000015b7          	lui	a1,0x1
    2818:	00b105b3          	add	a1,sp,a1
    281c:	86a5b423          	sd	a0,-1944(a1) # 868 <.LBB11_2+0x1c>
    2820:	00001537          	lui	a0,0x1
    2824:	00a10533          	add	a0,sp,a0
    2828:	97852503          	lw	a0,-1672(a0) # 978 <.LBB11_2+0x12c>
    282c:	000015b7          	lui	a1,0x1
    2830:	00b105b3          	add	a1,sp,a1
    2834:	86a5b023          	sd	a0,-1952(a1) # 860 <.LBB11_2+0x14>
    2838:	00001537          	lui	a0,0x1
    283c:	00a10533          	add	a0,sp,a0
    2840:	97452503          	lw	a0,-1676(a0) # 974 <.LBB11_2+0x128>
    2844:	000015b7          	lui	a1,0x1
    2848:	00b105b3          	add	a1,sp,a1
    284c:	84a5b423          	sd	a0,-1976(a1) # 848 <.LBB11_1+0x710>
    2850:	00001537          	lui	a0,0x1
    2854:	00a10533          	add	a0,sp,a0
    2858:	97052503          	lw	a0,-1680(a0) # 970 <.LBB11_2+0x124>
    285c:	000015b7          	lui	a1,0x1
    2860:	00b105b3          	add	a1,sp,a1
    2864:	84a5b023          	sd	a0,-1984(a1) # 840 <.LBB11_1+0x708>
    2868:	00001537          	lui	a0,0x1
    286c:	00a10533          	add	a0,sp,a0
    2870:	96c52503          	lw	a0,-1684(a0) # 96c <.LBB11_2+0x120>
    2874:	000015b7          	lui	a1,0x1
    2878:	00b105b3          	add	a1,sp,a1
    287c:	80a5bc23          	sd	a0,-2024(a1) # 818 <.LBB11_1+0x6e0>
    2880:	00001537          	lui	a0,0x1
    2884:	00a10533          	add	a0,sp,a0
    2888:	96852503          	lw	a0,-1688(a0) # 968 <.LBB11_2+0x11c>
    288c:	7ea13c23          	sd	a0,2040(sp)
    2890:	00001537          	lui	a0,0x1
    2894:	00a10533          	add	a0,sp,a0
    2898:	96452503          	lw	a0,-1692(a0) # 964 <.LBB11_2+0x118>
    289c:	7ca13c23          	sd	a0,2008(sp)
    28a0:	00001537          	lui	a0,0x1
    28a4:	00a10533          	add	a0,sp,a0
    28a8:	96052503          	lw	a0,-1696(a0) # 960 <.LBB11_2+0x114>
    28ac:	7ca13423          	sd	a0,1992(sp)
    28b0:	00001537          	lui	a0,0x1
    28b4:	00a10533          	add	a0,sp,a0
    28b8:	95c52503          	lw	a0,-1700(a0) # 95c <.LBB11_2+0x110>
    28bc:	000015b7          	lui	a1,0x1
    28c0:	00b105b3          	add	a1,sp,a1
    28c4:	88a5b023          	sd	a0,-1920(a1) # 880 <.LBB11_2+0x34>
    28c8:	00001537          	lui	a0,0x1
    28cc:	00a10533          	add	a0,sp,a0
    28d0:	95852f83          	lw	t6,-1704(a0) # 958 <.LBB11_2+0x10c>
    28d4:	01f13023          	sd	t6,0(sp)
    28d8:	00001537          	lui	a0,0x1
    28dc:	00a10533          	add	a0,sp,a0
    28e0:	95452903          	lw	s2,-1708(a0) # 954 <.LBB11_2+0x108>
    28e4:	00001537          	lui	a0,0x1
    28e8:	00a10533          	add	a0,sp,a0
    28ec:	95052d83          	lw	s11,-1712(a0) # 950 <.LBB11_2+0x104>
    28f0:	00001537          	lui	a0,0x1
    28f4:	00a10533          	add	a0,sp,a0
    28f8:	94c52583          	lw	a1,-1716(a0) # 94c <.LBB11_2+0x100>
    28fc:	00001537          	lui	a0,0x1
    2900:	00a10533          	add	a0,sp,a0
    2904:	94852783          	lw	a5,-1720(a0) # 948 <.LBB11_2+0xfc>
    2908:	00001537          	lui	a0,0x1
    290c:	00a10533          	add	a0,sp,a0
    2910:	94452703          	lw	a4,-1724(a0) # 944 <.LBB11_2+0xf8>
    2914:	00001537          	lui	a0,0x1
    2918:	00a10533          	add	a0,sp,a0
    291c:	94052603          	lw	a2,-1728(a0) # 940 <.LBB11_2+0xf4>
    2920:	00001537          	lui	a0,0x1
    2924:	00a10533          	add	a0,sp,a0
    2928:	9bc52503          	lw	a0,-1604(a0) # 9bc <.LBB11_2+0x170>
    292c:	000016b7          	lui	a3,0x1
    2930:	00d106b3          	add	a3,sp,a3
    2934:	82a6b823          	sd	a0,-2000(a3) # 830 <.LBB11_1+0x6f8>
    2938:	00001537          	lui	a0,0x1
    293c:	00a10533          	add	a0,sp,a0
    2940:	9b852503          	lw	a0,-1608(a0) # 9b8 <.LBB11_2+0x16c>
    2944:	000016b7          	lui	a3,0x1
    2948:	00d106b3          	add	a3,sp,a3
    294c:	82a6b023          	sd	a0,-2016(a3) # 820 <.LBB11_1+0x6e8>
    2950:	54813503          	ld	a0,1352(sp)
    2954:	00251513          	slli	a0,a0,0x2
    2958:	09013683          	ld	a3,144(sp)
    295c:	00a68533          	add	a0,a3,a0
    2960:	00052683          	lw	a3,0(a0)
    2964:	00452803          	lw	a6,4(a0)
    2968:	75013c23          	sd	a6,1880(sp)
    296c:	00852803          	lw	a6,8(a0)
    2970:	000018b7          	lui	a7,0x1
    2974:	011108b3          	add	a7,sp,a7
    2978:	8108b823          	sd	a6,-2032(a7) # 810 <.LBB11_1+0x6d8>
    297c:	00c52803          	lw	a6,12(a0)
    2980:	7b013823          	sd	a6,1968(sp)
    2984:	01052803          	lw	a6,16(a0)
    2988:	73013823          	sd	a6,1840(sp)
    298c:	01452803          	lw	a6,20(a0)
    2990:	6b013823          	sd	a6,1712(sp)
    2994:	08013983          	ld	s3,128(sp)
    2998:	0009a803          	lw	a6,0(s3)
    299c:	01852883          	lw	a7,24(a0)
    29a0:	63113c23          	sd	a7,1592(sp)
    29a4:	01c52503          	lw	a0,28(a0)
    29a8:	5ea13823          	sd	a0,1520(sp)
    29ac:	00c00513          	li	a0,12
    29b0:	02a68533          	mul	a0,a3,a0
    29b4:	00781813          	slli	a6,a6,0x7
    29b8:	53813683          	ld	a3,1336(sp)
    29bc:	00d60633          	add	a2,a2,a3
    29c0:	000016b7          	lui	a3,0x1
    29c4:	00d106b3          	add	a3,sp,a3
    29c8:	8b06bc23          	sd	a6,-1864(a3) # 8b8 <.LBB11_2+0x6c>
    29cc:	01060633          	add	a2,a2,a6
    29d0:	ffff42b7          	lui	t0,0xffff4
    29d4:	005602b3          	add	t0,a2,t0
    29d8:	00001637          	lui	a2,0x1
    29dc:	00c10633          	add	a2,sp,a2
    29e0:	9b462603          	lw	a2,-1612(a2) # 9b4 <.LBB11_2+0x168>
    29e4:	7cc13023          	sd	a2,1984(sp)
    29e8:	00001637          	lui	a2,0x1
    29ec:	00c10633          	add	a2,sp,a2
    29f0:	9b062603          	lw	a2,-1616(a2) # 9b0 <.LBB11_2+0x164>
    29f4:	74c13423          	sd	a2,1864(sp)
    29f8:	00001637          	lui	a2,0x1
    29fc:	00c10633          	add	a2,sp,a2
    2a00:	9ac62603          	lw	a2,-1620(a2) # 9ac <.LBB11_2+0x160>
    2a04:	6ac13c23          	sd	a2,1720(sp)
    2a08:	00001637          	lui	a2,0x1
    2a0c:	00c10633          	add	a2,sp,a2
    2a10:	9a862603          	lw	a2,-1624(a2) # 9a8 <.LBB11_2+0x15c>
    2a14:	50c13823          	sd	a2,1296(sp)
    2a18:	00001637          	lui	a2,0x1
    2a1c:	00c10633          	add	a2,sp,a2
    2a20:	9a462603          	lw	a2,-1628(a2) # 9a4 <.LBB11_2+0x158>
    2a24:	48c13823          	sd	a2,1168(sp)
    2a28:	00001637          	lui	a2,0x1
    2a2c:	00c10633          	add	a2,sp,a2
    2a30:	9a062603          	lw	a2,-1632(a2) # 9a0 <.LBB11_2+0x154>
    2a34:	44c13c23          	sd	a2,1112(sp)
    2a38:	00001637          	lui	a2,0x1
    2a3c:	00c10633          	add	a2,sp,a2
    2a40:	99c62603          	lw	a2,-1636(a2) # 99c <.LBB11_2+0x150>
    2a44:	4ac13823          	sd	a2,1200(sp)
    2a48:	00001637          	lui	a2,0x1
    2a4c:	00c10633          	add	a2,sp,a2
    2a50:	99862603          	lw	a2,-1640(a2) # 998 <.LBB11_2+0x14c>
    2a54:	56c13423          	sd	a2,1384(sp)
    2a58:	00001637          	lui	a2,0x1
    2a5c:	00c10633          	add	a2,sp,a2
    2a60:	99462603          	lw	a2,-1644(a2) # 994 <.LBB11_2+0x148>
    2a64:	6cc13c23          	sd	a2,1752(sp)
    2a68:	00001637          	lui	a2,0x1
    2a6c:	00c10633          	add	a2,sp,a2
    2a70:	99062603          	lw	a2,-1648(a2) # 990 <.LBB11_2+0x144>
    2a74:	76c13423          	sd	a2,1896(sp)
    2a78:	00001637          	lui	a2,0x1
    2a7c:	00c10633          	add	a2,sp,a2
    2a80:	98c62603          	lw	a2,-1652(a2) # 98c <.LBB11_2+0x140>
    2a84:	6cc13423          	sd	a2,1736(sp)
    2a88:	00001637          	lui	a2,0x1
    2a8c:	00c10633          	add	a2,sp,a2
    2a90:	98862d03          	lw	s10,-1656(a2) # 988 <.LBB11_2+0x13c>
    2a94:	00001637          	lui	a2,0x1
    2a98:	00c10633          	add	a2,sp,a2
    2a9c:	98462083          	lw	ra,-1660(a2) # 984 <.LBB11_2+0x138>
    2aa0:	00001637          	lui	a2,0x1
    2aa4:	00c10633          	add	a2,sp,a2
    2aa8:	98062603          	lw	a2,-1664(a2) # 980 <.LBB11_2+0x134>
    2aac:	000016b7          	lui	a3,0x1
    2ab0:	00d106b3          	add	a3,sp,a3
    2ab4:	9fc6a683          	lw	a3,-1540(a3) # 9fc <.LBB11_2+0x1b0>
    2ab8:	7ad13023          	sd	a3,1952(sp)
    2abc:	000016b7          	lui	a3,0x1
    2ac0:	00d106b3          	add	a3,sp,a3
    2ac4:	9f86a683          	lw	a3,-1544(a3) # 9f8 <.LBB11_2+0x1ac>
    2ac8:	78d13023          	sd	a3,1920(sp)
    2acc:	000016b7          	lui	a3,0x1
    2ad0:	00d106b3          	add	a3,sp,a3
    2ad4:	9f46a683          	lw	a3,-1548(a3) # 9f4 <.LBB11_2+0x1a8>
    2ad8:	76d13823          	sd	a3,1904(sp)
    2adc:	000016b7          	lui	a3,0x1
    2ae0:	00d106b3          	add	a3,sp,a3
    2ae4:	9f06a683          	lw	a3,-1552(a3) # 9f0 <.LBB11_2+0x1a4>
    2ae8:	74d13023          	sd	a3,1856(sp)
    2aec:	000016b7          	lui	a3,0x1
    2af0:	00d106b3          	add	a3,sp,a3
    2af4:	9ec6a683          	lw	a3,-1556(a3) # 9ec <.LBB11_2+0x1a0>
    2af8:	64d13c23          	sd	a3,1624(sp)
    2afc:	000016b7          	lui	a3,0x1
    2b00:	00d106b3          	add	a3,sp,a3
    2b04:	9e86a683          	lw	a3,-1560(a3) # 9e8 <.LBB11_2+0x19c>
    2b08:	50d13023          	sd	a3,1280(sp)
    2b0c:	000016b7          	lui	a3,0x1
    2b10:	00d106b3          	add	a3,sp,a3
    2b14:	9e46a683          	lw	a3,-1564(a3) # 9e4 <.LBB11_2+0x198>
    2b18:	48d13023          	sd	a3,1152(sp)
    2b1c:	000016b7          	lui	a3,0x1
    2b20:	00d106b3          	add	a3,sp,a3
    2b24:	9e06a683          	lw	a3,-1568(a3) # 9e0 <.LBB11_2+0x194>
    2b28:	46d13023          	sd	a3,1120(sp)
    2b2c:	000016b7          	lui	a3,0x1
    2b30:	00d106b3          	add	a3,sp,a3
    2b34:	9dc6a683          	lw	a3,-1572(a3) # 9dc <.LBB11_2+0x190>
    2b38:	4ad13423          	sd	a3,1192(sp)
    2b3c:	000016b7          	lui	a3,0x1
    2b40:	00d106b3          	add	a3,sp,a3
    2b44:	9d86a683          	lw	a3,-1576(a3) # 9d8 <.LBB11_2+0x18c>
    2b48:	56d13023          	sd	a3,1376(sp)
    2b4c:	000016b7          	lui	a3,0x1
    2b50:	00d106b3          	add	a3,sp,a3
    2b54:	9d46a683          	lw	a3,-1580(a3) # 9d4 <.LBB11_2+0x188>
    2b58:	6cd13823          	sd	a3,1744(sp)
    2b5c:	000016b7          	lui	a3,0x1
    2b60:	00d106b3          	add	a3,sp,a3
    2b64:	9d06a683          	lw	a3,-1584(a3) # 9d0 <.LBB11_2+0x184>
    2b68:	76d13023          	sd	a3,1888(sp)
    2b6c:	000016b7          	lui	a3,0x1
    2b70:	00d106b3          	add	a3,sp,a3
    2b74:	9cc6a683          	lw	a3,-1588(a3) # 9cc <.LBB11_2+0x180>
    2b78:	7cd13823          	sd	a3,2000(sp)
    2b7c:	000016b7          	lui	a3,0x1
    2b80:	00d106b3          	add	a3,sp,a3
    2b84:	9c86a683          	lw	a3,-1592(a3) # 9c8 <.LBB11_2+0x17c>
    2b88:	00001837          	lui	a6,0x1
    2b8c:	01010833          	add	a6,sp,a6
    2b90:	80d83423          	sd	a3,-2040(a6) # 808 <.LBB11_1+0x6d0>
    2b94:	000016b7          	lui	a3,0x1
    2b98:	00d106b3          	add	a3,sp,a3
    2b9c:	9c46a683          	lw	a3,-1596(a3) # 9c4 <.LBB11_2+0x178>
    2ba0:	00001837          	lui	a6,0x1
    2ba4:	01010833          	add	a6,sp,a6
    2ba8:	80d83023          	sd	a3,-2048(a6) # 800 <.LBB11_1+0x6c8>
    2bac:	000016b7          	lui	a3,0x1
    2bb0:	00d106b3          	add	a3,sp,a3
    2bb4:	9c06a683          	lw	a3,-1600(a3) # 9c0 <.LBB11_2+0x174>
    2bb8:	7ed13823          	sd	a3,2032(sp)
    2bbc:	000016b7          	lui	a3,0x1
    2bc0:	00d106b3          	add	a3,sp,a3
    2bc4:	a3c6a683          	lw	a3,-1476(a3) # a3c <.LBB11_2+0x1f0>
    2bc8:	72d13023          	sd	a3,1824(sp)
    2bcc:	000016b7          	lui	a3,0x1
    2bd0:	00d106b3          	add	a3,sp,a3
    2bd4:	a386a683          	lw	a3,-1480(a3) # a38 <.LBB11_2+0x1ec>
    2bd8:	70d13023          	sd	a3,1792(sp)
    2bdc:	000016b7          	lui	a3,0x1
    2be0:	00d106b3          	add	a3,sp,a3
    2be4:	a346a683          	lw	a3,-1484(a3) # a34 <.LBB11_2+0x1e8>
    2be8:	6ed13823          	sd	a3,1776(sp)
    2bec:	000016b7          	lui	a3,0x1
    2bf0:	00d106b3          	add	a3,sp,a3
    2bf4:	a306a683          	lw	a3,-1488(a3) # a30 <.LBB11_2+0x1e4>
    2bf8:	6ed13423          	sd	a3,1768(sp)
    2bfc:	000016b7          	lui	a3,0x1
    2c00:	00d106b3          	add	a3,sp,a3
    2c04:	a2c6a683          	lw	a3,-1492(a3) # a2c <.LBB11_2+0x1e0>
    2c08:	64d13423          	sd	a3,1608(sp)
    2c0c:	000016b7          	lui	a3,0x1
    2c10:	00d106b3          	add	a3,sp,a3
    2c14:	a286a683          	lw	a3,-1496(a3) # a28 <.LBB11_2+0x1dc>
    2c18:	4ed13823          	sd	a3,1264(sp)
    2c1c:	000016b7          	lui	a3,0x1
    2c20:	00d106b3          	add	a3,sp,a3
    2c24:	a246a683          	lw	a3,-1500(a3) # a24 <.LBB11_2+0x1d8>
    2c28:	46d13823          	sd	a3,1136(sp)
    2c2c:	000016b7          	lui	a3,0x1
    2c30:	00d106b3          	add	a3,sp,a3
    2c34:	a206a683          	lw	a3,-1504(a3) # a20 <.LBB11_2+0x1d4>
    2c38:	46d13423          	sd	a3,1128(sp)
    2c3c:	000016b7          	lui	a3,0x1
    2c40:	00d106b3          	add	a3,sp,a3
    2c44:	a1c6a683          	lw	a3,-1508(a3) # a1c <.LBB11_2+0x1d0>
    2c48:	48d13c23          	sd	a3,1176(sp)
    2c4c:	000016b7          	lui	a3,0x1
    2c50:	00d106b3          	add	a3,sp,a3
    2c54:	a186a683          	lw	a3,-1512(a3) # a18 <.LBB11_2+0x1cc>
    2c58:	54d13823          	sd	a3,1360(sp)
    2c5c:	000016b7          	lui	a3,0x1
    2c60:	00d106b3          	add	a3,sp,a3
    2c64:	a146a683          	lw	a3,-1516(a3) # a14 <.LBB11_2+0x1c8>
    2c68:	6cd13023          	sd	a3,1728(sp)
    2c6c:	000016b7          	lui	a3,0x1
    2c70:	00d106b3          	add	a3,sp,a3
    2c74:	a106a683          	lw	a3,-1520(a3) # a10 <.LBB11_2+0x1c4>
    2c78:	74d13823          	sd	a3,1872(sp)
    2c7c:	000016b7          	lui	a3,0x1
    2c80:	00d106b3          	add	a3,sp,a3
    2c84:	a0c6a683          	lw	a3,-1524(a3) # a0c <.LBB11_2+0x1c0>
    2c88:	78d13c23          	sd	a3,1944(sp)
    2c8c:	000016b7          	lui	a3,0x1
    2c90:	00d106b3          	add	a3,sp,a3
    2c94:	a086a683          	lw	a3,-1528(a3) # a08 <.LBB11_2+0x1bc>
    2c98:	78d13423          	sd	a3,1928(sp)
    2c9c:	000016b7          	lui	a3,0x1
    2ca0:	00d106b3          	add	a3,sp,a3
    2ca4:	a046a683          	lw	a3,-1532(a3) # a04 <.LBB11_2+0x1b8>
    2ca8:	78d13823          	sd	a3,1936(sp)
    2cac:	000016b7          	lui	a3,0x1
    2cb0:	00d106b3          	add	a3,sp,a3
    2cb4:	a006a683          	lw	a3,-1536(a3) # a00 <.LBB11_2+0x1b4>
    2cb8:	76d13c23          	sd	a3,1912(sp)
    2cbc:	000016b7          	lui	a3,0x1
    2cc0:	00d106b3          	add	a3,sp,a3
    2cc4:	a7c6a683          	lw	a3,-1412(a3) # a7c <.LBB11_2+0x230>
    2cc8:	6ad13023          	sd	a3,1696(sp)
    2ccc:	000016b7          	lui	a3,0x1
    2cd0:	00d106b3          	add	a3,sp,a3
    2cd4:	a786a683          	lw	a3,-1416(a3) # a78 <.LBB11_2+0x22c>
    2cd8:	68d13023          	sd	a3,1664(sp)
    2cdc:	000016b7          	lui	a3,0x1
    2ce0:	00d106b3          	add	a3,sp,a3
    2ce4:	a746a683          	lw	a3,-1420(a3) # a74 <.LBB11_2+0x228>
    2ce8:	66d13823          	sd	a3,1648(sp)
    2cec:	000016b7          	lui	a3,0x1
    2cf0:	00d106b3          	add	a3,sp,a3
    2cf4:	a706a683          	lw	a3,-1424(a3) # a70 <.LBB11_2+0x224>
    2cf8:	66d13423          	sd	a3,1640(sp)
    2cfc:	000016b7          	lui	a3,0x1
    2d00:	00d106b3          	add	a3,sp,a3
    2d04:	a6c6a683          	lw	a3,-1428(a3) # a6c <.LBB11_2+0x220>
    2d08:	64d13023          	sd	a3,1600(sp)
    2d0c:	000016b7          	lui	a3,0x1
    2d10:	00d106b3          	add	a3,sp,a3
    2d14:	a686a683          	lw	a3,-1432(a3) # a68 <.LBB11_2+0x21c>
    2d18:	4ed13023          	sd	a3,1248(sp)
    2d1c:	000016b7          	lui	a3,0x1
    2d20:	00d106b3          	add	a3,sp,a3
    2d24:	a646a683          	lw	a3,-1436(a3) # a64 <.LBB11_2+0x218>
    2d28:	4cd13423          	sd	a3,1224(sp)
    2d2c:	000016b7          	lui	a3,0x1
    2d30:	00d106b3          	add	a3,sp,a3
    2d34:	a606a683          	lw	a3,-1440(a3) # a60 <.LBB11_2+0x214>
    2d38:	46d13c23          	sd	a3,1144(sp)
    2d3c:	000016b7          	lui	a3,0x1
    2d40:	00d106b3          	add	a3,sp,a3
    2d44:	a5c6a683          	lw	a3,-1444(a3) # a5c <.LBB11_2+0x210>
    2d48:	48d13423          	sd	a3,1160(sp)
    2d4c:	000016b7          	lui	a3,0x1
    2d50:	00d106b3          	add	a3,sp,a3
    2d54:	a586a683          	lw	a3,-1448(a3) # a58 <.LBB11_2+0x20c>
    2d58:	50d13423          	sd	a3,1288(sp)
    2d5c:	000016b7          	lui	a3,0x1
    2d60:	00d106b3          	add	a3,sp,a3
    2d64:	a546a683          	lw	a3,-1452(a3) # a54 <.LBB11_2+0x208>
    2d68:	66d13023          	sd	a3,1632(sp)
    2d6c:	000016b7          	lui	a3,0x1
    2d70:	00d106b3          	add	a3,sp,a3
    2d74:	a506a683          	lw	a3,-1456(a3) # a50 <.LBB11_2+0x204>
    2d78:	72d13423          	sd	a3,1832(sp)
    2d7c:	000016b7          	lui	a3,0x1
    2d80:	00d106b3          	add	a3,sp,a3
    2d84:	a4c6a683          	lw	a3,-1460(a3) # a4c <.LBB11_2+0x200>
    2d88:	70d13c23          	sd	a3,1816(sp)
    2d8c:	000016b7          	lui	a3,0x1
    2d90:	00d106b3          	add	a3,sp,a3
    2d94:	a486a683          	lw	a3,-1464(a3) # a48 <.LBB11_2+0x1fc>
    2d98:	70d13423          	sd	a3,1800(sp)
    2d9c:	000016b7          	lui	a3,0x1
    2da0:	00d106b3          	add	a3,sp,a3
    2da4:	a446a683          	lw	a3,-1468(a3) # a44 <.LBB11_2+0x1f8>
    2da8:	70d13823          	sd	a3,1808(sp)
    2dac:	000016b7          	lui	a3,0x1
    2db0:	00d106b3          	add	a3,sp,a3
    2db4:	a406a683          	lw	a3,-1472(a3) # a40 <.LBB11_2+0x1f4>
    2db8:	6ed13c23          	sd	a3,1784(sp)
    2dbc:	000016b7          	lui	a3,0x1
    2dc0:	00d106b3          	add	a3,sp,a3
    2dc4:	abc6a683          	lw	a3,-1348(a3) # abc <.LBB11_2+0x270>
    2dc8:	62d13823          	sd	a3,1584(sp)
    2dcc:	000016b7          	lui	a3,0x1
    2dd0:	00d106b3          	add	a3,sp,a3
    2dd4:	ab86a683          	lw	a3,-1352(a3) # ab8 <.LBB11_2+0x26c>
    2dd8:	62d13023          	sd	a3,1568(sp)
    2ddc:	000016b7          	lui	a3,0x1
    2de0:	00d106b3          	add	a3,sp,a3
    2de4:	ab46a683          	lw	a3,-1356(a3) # ab4 <.LBB11_2+0x268>
    2de8:	5cd13423          	sd	a3,1480(sp)
    2dec:	000016b7          	lui	a3,0x1
    2df0:	00d106b3          	add	a3,sp,a3
    2df4:	ab06a683          	lw	a3,-1360(a3) # ab0 <.LBB11_2+0x264>
    2df8:	5ad13823          	sd	a3,1456(sp)
    2dfc:	000016b7          	lui	a3,0x1
    2e00:	00d106b3          	add	a3,sp,a3
    2e04:	aac6a683          	lw	a3,-1364(a3) # aac <.LBB11_2+0x260>
    2e08:	58d13c23          	sd	a3,1432(sp)
    2e0c:	000016b7          	lui	a3,0x1
    2e10:	00d106b3          	add	a3,sp,a3
    2e14:	aa86a683          	lw	a3,-1368(a3) # aa8 <.LBB11_2+0x25c>
    2e18:	56d13c23          	sd	a3,1400(sp)
    2e1c:	000016b7          	lui	a3,0x1
    2e20:	00d106b3          	add	a3,sp,a3
    2e24:	aa46a683          	lw	a3,-1372(a3) # aa4 <.LBB11_2+0x258>
    2e28:	4ed13423          	sd	a3,1256(sp)
    2e2c:	000016b7          	lui	a3,0x1
    2e30:	00d106b3          	add	a3,sp,a3
    2e34:	aa06a683          	lw	a3,-1376(a3) # aa0 <.LBB11_2+0x254>
    2e38:	4cd13c23          	sd	a3,1240(sp)
    2e3c:	000016b7          	lui	a3,0x1
    2e40:	00d106b3          	add	a3,sp,a3
    2e44:	a9c6a683          	lw	a3,-1380(a3) # a9c <.LBB11_2+0x250>
    2e48:	4cd13823          	sd	a3,1232(sp)
    2e4c:	000016b7          	lui	a3,0x1
    2e50:	00d106b3          	add	a3,sp,a3
    2e54:	a986a683          	lw	a3,-1384(a3) # a98 <.LBB11_2+0x24c>
    2e58:	4ed13c23          	sd	a3,1272(sp)
    2e5c:	000016b7          	lui	a3,0x1
    2e60:	00d106b3          	add	a3,sp,a3
    2e64:	a946a683          	lw	a3,-1388(a3) # a94 <.LBB11_2+0x248>
    2e68:	64d13823          	sd	a3,1616(sp)
    2e6c:	000016b7          	lui	a3,0x1
    2e70:	00d106b3          	add	a3,sp,a3
    2e74:	a906a683          	lw	a3,-1392(a3) # a90 <.LBB11_2+0x244>
    2e78:	6ad13423          	sd	a3,1704(sp)
    2e7c:	000016b7          	lui	a3,0x1
    2e80:	00d106b3          	add	a3,sp,a3
    2e84:	a8c6a683          	lw	a3,-1396(a3) # a8c <.LBB11_2+0x240>
    2e88:	68d13c23          	sd	a3,1688(sp)
    2e8c:	000016b7          	lui	a3,0x1
    2e90:	00d106b3          	add	a3,sp,a3
    2e94:	a886a683          	lw	a3,-1400(a3) # a88 <.LBB11_2+0x23c>
    2e98:	68d13423          	sd	a3,1672(sp)
    2e9c:	000016b7          	lui	a3,0x1
    2ea0:	00d106b3          	add	a3,sp,a3
    2ea4:	a846a683          	lw	a3,-1404(a3) # a84 <.LBB11_2+0x238>
    2ea8:	68d13823          	sd	a3,1680(sp)
    2eac:	000016b7          	lui	a3,0x1
    2eb0:	00d106b3          	add	a3,sp,a3
    2eb4:	a806a683          	lw	a3,-1408(a3) # a80 <.LBB11_2+0x234>
    2eb8:	66d13c23          	sd	a3,1656(sp)
    2ebc:	000016b7          	lui	a3,0x1
    2ec0:	00d106b3          	add	a3,sp,a3
    2ec4:	afc6a683          	lw	a3,-1284(a3) # afc <.LBB11_2+0x2b0>
    2ec8:	5ed13423          	sd	a3,1512(sp)
    2ecc:	000016b7          	lui	a3,0x1
    2ed0:	00d106b3          	add	a3,sp,a3
    2ed4:	af86a683          	lw	a3,-1288(a3) # af8 <.LBB11_2+0x2ac>
    2ed8:	5ed13023          	sd	a3,1504(sp)
    2edc:	000016b7          	lui	a3,0x1
    2ee0:	00d106b3          	add	a3,sp,a3
    2ee4:	af46a683          	lw	a3,-1292(a3) # af4 <.LBB11_2+0x2a8>
    2ee8:	5cd13c23          	sd	a3,1496(sp)
    2eec:	000016b7          	lui	a3,0x1
    2ef0:	00d106b3          	add	a3,sp,a3
    2ef4:	af06a683          	lw	a3,-1296(a3) # af0 <.LBB11_2+0x2a4>
    2ef8:	5cd13823          	sd	a3,1488(sp)
    2efc:	000016b7          	lui	a3,0x1
    2f00:	00d106b3          	add	a3,sp,a3
    2f04:	aec6a683          	lw	a3,-1300(a3) # aec <.LBB11_2+0x2a0>
    2f08:	5cd13023          	sd	a3,1472(sp)
    2f0c:	000016b7          	lui	a3,0x1
    2f10:	00d106b3          	add	a3,sp,a3
    2f14:	ae86a683          	lw	a3,-1304(a3) # ae8 <.LBB11_2+0x29c>
    2f18:	5ad13c23          	sd	a3,1464(sp)
    2f1c:	000016b7          	lui	a3,0x1
    2f20:	00d106b3          	add	a3,sp,a3
    2f24:	ae46a683          	lw	a3,-1308(a3) # ae4 <.LBB11_2+0x298>
    2f28:	5ad13423          	sd	a3,1448(sp)
    2f2c:	000016b7          	lui	a3,0x1
    2f30:	00d106b3          	add	a3,sp,a3
    2f34:	ae06a683          	lw	a3,-1312(a3) # ae0 <.LBB11_2+0x294>
    2f38:	5ad13023          	sd	a3,1440(sp)
    2f3c:	000016b7          	lui	a3,0x1
    2f40:	00d106b3          	add	a3,sp,a3
    2f44:	adc6a683          	lw	a3,-1316(a3) # adc <.LBB11_2+0x290>
    2f48:	58d13823          	sd	a3,1424(sp)
    2f4c:	000016b7          	lui	a3,0x1
    2f50:	00d106b3          	add	a3,sp,a3
    2f54:	ad86a683          	lw	a3,-1320(a3) # ad8 <.LBB11_2+0x28c>
    2f58:	58d13423          	sd	a3,1416(sp)
    2f5c:	000016b7          	lui	a3,0x1
    2f60:	00d106b3          	add	a3,sp,a3
    2f64:	ad46a683          	lw	a3,-1324(a3) # ad4 <.LBB11_2+0x288>
    2f68:	58d13023          	sd	a3,1408(sp)
    2f6c:	000016b7          	lui	a3,0x1
    2f70:	00d106b3          	add	a3,sp,a3
    2f74:	ad06a683          	lw	a3,-1328(a3) # ad0 <.LBB11_2+0x284>
    2f78:	62d13423          	sd	a3,1576(sp)
    2f7c:	000016b7          	lui	a3,0x1
    2f80:	00d106b3          	add	a3,sp,a3
    2f84:	acc6a683          	lw	a3,-1332(a3) # acc <.LBB11_2+0x280>
    2f88:	60d13c23          	sd	a3,1560(sp)
    2f8c:	000016b7          	lui	a3,0x1
    2f90:	00d106b3          	add	a3,sp,a3
    2f94:	ac86a683          	lw	a3,-1336(a3) # ac8 <.LBB11_2+0x27c>
    2f98:	60d13423          	sd	a3,1544(sp)
    2f9c:	000016b7          	lui	a3,0x1
    2fa0:	00d106b3          	add	a3,sp,a3
    2fa4:	ac46a683          	lw	a3,-1340(a3) # ac4 <.LBB11_2+0x278>
    2fa8:	60d13823          	sd	a3,1552(sp)
    2fac:	000016b7          	lui	a3,0x1
    2fb0:	00d106b3          	add	a3,sp,a3
    2fb4:	ac06a683          	lw	a3,-1344(a3) # ac0 <.LBB11_2+0x274>
    2fb8:	60d13023          	sd	a3,1536(sp)
    2fbc:	0049af03          	lw	t5,4(s3)
    2fc0:	0089ae83          	lw	t4,8(s3)
    2fc4:	00c9a303          	lw	t1,12(s3)
    2fc8:	0109ae03          	lw	t3,16(s3)
    2fcc:	0149a803          	lw	a6,20(s3)
    2fd0:	0189a383          	lw	t2,24(s3)
    2fd4:	01c9a883          	lw	a7,28(s3)
    2fd8:	0209ab83          	lw	s7,32(s3)
    2fdc:	0249a683          	lw	a3,36(s3)
    2fe0:	0289ab03          	lw	s6,40(s3)
    2fe4:	02c9ac83          	lw	s9,44(s3)
    2fe8:	0309aa83          	lw	s5,48(s3)
    2fec:	0349aa03          	lw	s4,52(s3)
    2ff0:	0389ac03          	lw	s8,56(s3)
    2ff4:	03c9a983          	lw	s3,60(s3)
    2ff8:	40a282bb          	subw	t0,t0,a0
    2ffc:	400004b7          	lui	s1,0x40000
    3000:	00001fb7          	lui	t6,0x1
    3004:	01f10fb3          	add	t6,sp,t6
    3008:	869fbc23          	sd	s1,-1928(t6) # 878 <.LBB11_2+0x2c>
    300c:	00013f83          	ld	t6,0(sp)
    3010:	000014b7          	lui	s1,0x1
    3014:	009104b3          	add	s1,sp,s1
    3018:	8654b823          	sd	t0,-1936(s1) # 870 <.LBB11_2+0x24>
    301c:	0002da63          	bgez	t0,3030 <.LBB11_6>
    3020:	c00002b7          	lui	t0,0xc0000
    3024:	000014b7          	lui	s1,0x1
    3028:	009104b3          	add	s1,sp,s1
    302c:	8654bc23          	sd	t0,-1928(s1) # 878 <.LBB11_2+0x2c>

0000000000003030 <.LBB11_6>:
    3030:	007f1f13          	slli	t5,t5,0x7
    3034:	54013283          	ld	t0,1344(sp)
    3038:	00570733          	add	a4,a4,t0
    303c:	000012b7          	lui	t0,0x1
    3040:	005102b3          	add	t0,sp,t0
    3044:	8be2b823          	sd	t5,-1872(t0) # 8b0 <.LBB11_2+0x64>
    3048:	01e70733          	add	a4,a4,t5
    304c:	ffff42b7          	lui	t0,0xffff4
    3050:	00570733          	add	a4,a4,t0
    3054:	40a7073b          	subw	a4,a4,a0
    3058:	400002b7          	lui	t0,0x40000
    305c:	00001f37          	lui	t5,0x1
    3060:	01e10f33          	add	t5,sp,t5
    3064:	84ef3c23          	sd	a4,-1960(t5) # 858 <.LBB11_2+0xc>
    3068:	00075463          	bgez	a4,3070 <.LBB11_8>
    306c:	c00002b7          	lui	t0,0xc0000

0000000000003070 <.LBB11_8>:
    3070:	00001737          	lui	a4,0x1
    3074:	00e10733          	add	a4,sp,a4
    3078:	84573823          	sd	t0,-1968(a4) # 850 <.LBB11_2+0x4>
    307c:	007e9e93          	slli	t4,t4,0x7
    3080:	52013703          	ld	a4,1312(sp)
    3084:	00e787b3          	add	a5,a5,a4
    3088:	00001737          	lui	a4,0x1
    308c:	00e10733          	add	a4,sp,a4
    3090:	8bd73423          	sd	t4,-1880(a4) # 8a8 <.LBB11_2+0x5c>
    3094:	01d787b3          	add	a5,a5,t4
    3098:	ffff4737          	lui	a4,0xffff4
    309c:	00e787b3          	add	a5,a5,a4
    30a0:	40a787bb          	subw	a5,a5,a0
    30a4:	40000eb7          	lui	t4,0x40000
    30a8:	06813703          	ld	a4,104(sp)
    30ac:	05013283          	ld	t0,80(sp)
    30b0:	02813f03          	ld	t5,40(sp)
    30b4:	000014b7          	lui	s1,0x1
    30b8:	009104b3          	add	s1,sp,s1
    30bc:	82f4bc23          	sd	a5,-1992(s1) # 838 <.LBB11_1+0x700>
    30c0:	0007d463          	bgez	a5,30c8 <.LBB11_10>
    30c4:	c0000eb7          	lui	t4,0xc0000

00000000000030c8 <.LBB11_10>:
    30c8:	000017b7          	lui	a5,0x1
    30cc:	00f107b3          	add	a5,sp,a5
    30d0:	83d7b423          	sd	t4,-2008(a5) # 828 <.LBB11_1+0x6f0>
    30d4:	00731313          	slli	t1,t1,0x7
    30d8:	52813783          	ld	a5,1320(sp)
    30dc:	00f585b3          	add	a1,a1,a5
    30e0:	000017b7          	lui	a5,0x1
    30e4:	00f107b3          	add	a5,sp,a5
    30e8:	8a67b023          	sd	t1,-1888(a5) # 8a0 <.LBB11_2+0x54>
    30ec:	006585b3          	add	a1,a1,t1
    30f0:	ffff47b7          	lui	a5,0xffff4
    30f4:	00f585b3          	add	a1,a1,a5
    30f8:	40a585bb          	subw	a1,a1,a0
    30fc:	40000337          	lui	t1,0x40000
    3100:	07013783          	ld	a5,112(sp)
    3104:	03013e83          	ld	t4,48(sp)
    3108:	7eb13423          	sd	a1,2024(sp)
    310c:	0005d463          	bgez	a1,3114 <.LBB11_12>
    3110:	c0000337          	lui	t1,0xc0000

0000000000003114 <.LBB11_12>:
    3114:	7e613023          	sd	t1,2016(sp)
    3118:	007e1e13          	slli	t3,t3,0x7
    311c:	53013583          	ld	a1,1328(sp)
    3120:	00bd8db3          	add	s11,s11,a1
    3124:	000015b7          	lui	a1,0x1
    3128:	00b105b3          	add	a1,sp,a1
    312c:	89c5bc23          	sd	t3,-1896(a1) # 898 <.LBB11_2+0x4c>
    3130:	01cd8db3          	add	s11,s11,t3
    3134:	ffff45b7          	lui	a1,0xffff4
    3138:	00bd8db3          	add	s11,s11,a1
    313c:	40ad85bb          	subw	a1,s11,a0
    3140:	40000e37          	lui	t3,0x40000
    3144:	04813303          	ld	t1,72(sp)
    3148:	7ab13c23          	sd	a1,1976(sp)
    314c:	0005d463          	bgez	a1,3154 <.LBB11_14>
    3150:	c0000e37          	lui	t3,0xc0000

0000000000003154 <.LBB11_14>:
    3154:	7bc13423          	sd	t3,1960(sp)
    3158:	00781813          	slli	a6,a6,0x7
    315c:	02013d83          	ld	s11,32(sp)
    3160:	01b90933          	add	s2,s2,s11
    3164:	000015b7          	lui	a1,0x1
    3168:	00b105b3          	add	a1,sp,a1
    316c:	8905b823          	sd	a6,-1904(a1) # 890 <.LBB11_2+0x44>
    3170:	01090933          	add	s2,s2,a6
    3174:	ffff45b7          	lui	a1,0xffff4
    3178:	00b90933          	add	s2,s2,a1
    317c:	40a905bb          	subw	a1,s2,a0
    3180:	40000837          	lui	a6,0x40000
    3184:	03813e03          	ld	t3,56(sp)
    3188:	72b13c23          	sd	a1,1848(sp)
    318c:	0005d463          	bgez	a1,3194 <.LBB11_16>
    3190:	c0000837          	lui	a6,0xc0000

0000000000003194 <.LBB11_16>:
    3194:	6f013023          	sd	a6,1760(sp)
    3198:	00739393          	slli	t2,t2,0x7
    319c:	01ef8fb3          	add	t6,t6,t5
    31a0:	000015b7          	lui	a1,0x1
    31a4:	00b105b3          	add	a1,sp,a1
    31a8:	8875b423          	sd	t2,-1912(a1) # 888 <.LBB11_2+0x3c>
    31ac:	007f8fb3          	add	t6,t6,t2
    31b0:	ffff45b7          	lui	a1,0xffff4
    31b4:	00bf8fb3          	add	t6,t6,a1
    31b8:	40af85bb          	subw	a1,t6,a0
    31bc:	400003b7          	lui	t2,0x40000
    31c0:	05813803          	ld	a6,88(sp)
    31c4:	52813903          	ld	s2,1320(sp)
    31c8:	5eb13c23          	sd	a1,1528(sp)
    31cc:	0005d463          	bgez	a1,31d4 <.LBB11_18>
    31d0:	c00003b7          	lui	t2,0xc0000

00000000000031d4 <.LBB11_18>:
    31d4:	56713823          	sd	t2,1392(sp)
    31d8:	00789893          	slli	a7,a7,0x7
    31dc:	000015b7          	lui	a1,0x1
    31e0:	00b105b3          	add	a1,sp,a1
    31e4:	8805b583          	ld	a1,-1920(a1) # 880 <.LBB11_2+0x34>
    31e8:	01d585b3          	add	a1,a1,t4
    31ec:	000013b7          	lui	t2,0x1
    31f0:	007103b3          	add	t2,sp,t2
    31f4:	8913b023          	sd	a7,-1920(t2) # 880 <.LBB11_2+0x34>
    31f8:	011585b3          	add	a1,a1,a7
    31fc:	ffff48b7          	lui	a7,0xffff4
    3200:	011585b3          	add	a1,a1,a7
    3204:	40a585bb          	subw	a1,a1,a0
    3208:	400008b7          	lui	a7,0x40000
    320c:	04013383          	ld	t2,64(sp)
    3210:	53013f83          	ld	t6,1328(sp)
    3214:	4cb13023          	sd	a1,1216(sp)
    3218:	0005d463          	bgez	a1,3220 <.LBB11_20>
    321c:	c00008b7          	lui	a7,0xc0000

0000000000003220 <.LBB11_20>:
    3220:	4b113c23          	sd	a7,1208(sp)
    3224:	007b9b93          	slli	s7,s7,0x7
    3228:	7c813583          	ld	a1,1992(sp)
    322c:	01c585b3          	add	a1,a1,t3
    3230:	017585b3          	add	a1,a1,s7
    3234:	ffff48b7          	lui	a7,0xffff4
    3238:	011585b3          	add	a1,a1,a7
    323c:	40a585bb          	subw	a1,a1,a0
    3240:	400004b7          	lui	s1,0x40000
    3244:	06013883          	ld	a7,96(sp)
    3248:	44b13023          	sd	a1,1088(sp)
    324c:	0005d463          	bgez	a1,3254 <.LBB11_22>
    3250:	c00004b7          	lui	s1,0xc0000

0000000000003254 <.LBB11_22>:
    3254:	42913c23          	sd	s1,1080(sp)
    3258:	00769693          	slli	a3,a3,0x7
    325c:	7d813583          	ld	a1,2008(sp)
    3260:	007585b3          	add	a1,a1,t2
    3264:	00d585b3          	add	a1,a1,a3
    3268:	ffff44b7          	lui	s1,0xffff4
    326c:	009585b3          	add	a1,a1,s1
    3270:	40a585bb          	subw	a1,a1,a0
    3274:	400004b7          	lui	s1,0x40000
    3278:	3cb13023          	sd	a1,960(sp)
    327c:	0005d463          	bgez	a1,3284 <.LBB11_24>
    3280:	c00004b7          	lui	s1,0xc0000

0000000000003284 <.LBB11_24>:
    3284:	3a913c23          	sd	s1,952(sp)
    3288:	007b1b13          	slli	s6,s6,0x7
    328c:	7f813583          	ld	a1,2040(sp)
    3290:	006585b3          	add	a1,a1,t1
    3294:	016585b3          	add	a1,a1,s6
    3298:	ffff44b7          	lui	s1,0xffff4
    329c:	009585b3          	add	a1,a1,s1
    32a0:	40a585bb          	subw	a1,a1,a0
    32a4:	400004b7          	lui	s1,0x40000
    32a8:	34b13023          	sd	a1,832(sp)
    32ac:	0005d463          	bgez	a1,32b4 <.LBB11_26>
    32b0:	c00004b7          	lui	s1,0xc0000

00000000000032b4 <.LBB11_26>:
    32b4:	32913c23          	sd	s1,824(sp)
    32b8:	007c9c93          	slli	s9,s9,0x7
    32bc:	000015b7          	lui	a1,0x1
    32c0:	00b105b3          	add	a1,sp,a1
    32c4:	8185b583          	ld	a1,-2024(a1) # 818 <.LBB11_1+0x6e0>
    32c8:	005585b3          	add	a1,a1,t0
    32cc:	019585b3          	add	a1,a1,s9
    32d0:	ffff44b7          	lui	s1,0xffff4
    32d4:	009585b3          	add	a1,a1,s1
    32d8:	40a585bb          	subw	a1,a1,a0
    32dc:	400004b7          	lui	s1,0x40000
    32e0:	2cb13423          	sd	a1,712(sp)
    32e4:	0005d463          	bgez	a1,32ec <.LBB11_28>
    32e8:	c00004b7          	lui	s1,0xc0000

00000000000032ec <.LBB11_28>:
    32ec:	2c913023          	sd	s1,704(sp)
    32f0:	007a9a93          	slli	s5,s5,0x7
    32f4:	000015b7          	lui	a1,0x1
    32f8:	00b105b3          	add	a1,sp,a1
    32fc:	8405b583          	ld	a1,-1984(a1) # 840 <.LBB11_1+0x708>
    3300:	010585b3          	add	a1,a1,a6
    3304:	015585b3          	add	a1,a1,s5
    3308:	ffff44b7          	lui	s1,0xffff4
    330c:	009585b3          	add	a1,a1,s1
    3310:	40a585bb          	subw	a1,a1,a0
    3314:	400004b7          	lui	s1,0x40000
    3318:	24b13c23          	sd	a1,600(sp)
    331c:	0005d463          	bgez	a1,3324 <.LBB11_30>
    3320:	c00004b7          	lui	s1,0xc0000

0000000000003324 <.LBB11_30>:
    3324:	24913823          	sd	s1,592(sp)
    3328:	007a1a13          	slli	s4,s4,0x7
    332c:	000015b7          	lui	a1,0x1
    3330:	00b105b3          	add	a1,sp,a1
    3334:	8485b583          	ld	a1,-1976(a1) # 848 <.LBB11_1+0x710>
    3338:	011585b3          	add	a1,a1,a7
    333c:	014585b3          	add	a1,a1,s4
    3340:	ffff44b7          	lui	s1,0xffff4
    3344:	009585b3          	add	a1,a1,s1
    3348:	40a585bb          	subw	a1,a1,a0
    334c:	400004b7          	lui	s1,0x40000
    3350:	1eb13023          	sd	a1,480(sp)
    3354:	0005d463          	bgez	a1,335c <.LBB11_32>
    3358:	c00004b7          	lui	s1,0xc0000

000000000000335c <.LBB11_32>:
    335c:	1c913c23          	sd	s1,472(sp)
    3360:	007c1c13          	slli	s8,s8,0x7
    3364:	000015b7          	lui	a1,0x1
    3368:	00b105b3          	add	a1,sp,a1
    336c:	8605b583          	ld	a1,-1952(a1) # 860 <.LBB11_2+0x14>
    3370:	00e585b3          	add	a1,a1,a4
    3374:	018585b3          	add	a1,a1,s8
    3378:	ffff44b7          	lui	s1,0xffff4
    337c:	009585b3          	add	a1,a1,s1
    3380:	40a585bb          	subw	a1,a1,a0
    3384:	400004b7          	lui	s1,0x40000
    3388:	16b13823          	sd	a1,368(sp)
    338c:	0005d463          	bgez	a1,3394 <.LBB11_34>
    3390:	c00004b7          	lui	s1,0xc0000

0000000000003394 <.LBB11_34>:
    3394:	16913423          	sd	s1,360(sp)
    3398:	00799993          	slli	s3,s3,0x7
    339c:	000015b7          	lui	a1,0x1
    33a0:	00b105b3          	add	a1,sp,a1
    33a4:	8685b583          	ld	a1,-1944(a1) # 868 <.LBB11_2+0x1c>
    33a8:	00f585b3          	add	a1,a1,a5
    33ac:	013585b3          	add	a1,a1,s3
    33b0:	ffff44b7          	lui	s1,0xffff4
    33b4:	009585b3          	add	a1,a1,s1
    33b8:	40a585bb          	subw	a1,a1,a0
    33bc:	40000537          	lui	a0,0x40000
    33c0:	10b13023          	sd	a1,256(sp)
    33c4:	0005d463          	bgez	a1,33cc <.LBB11_36>
    33c8:	c0000537          	lui	a0,0xc0000

00000000000033cc <.LBB11_36>:
    33cc:	0ea13423          	sd	a0,232(sp)
    33d0:	00c00513          	li	a0,12
    33d4:	75813583          	ld	a1,1880(sp)
    33d8:	02a58533          	mul	a0,a1,a0
    33dc:	53813583          	ld	a1,1336(sp)
    33e0:	00b60633          	add	a2,a2,a1
    33e4:	000015b7          	lui	a1,0x1
    33e8:	00b105b3          	add	a1,sp,a1
    33ec:	8b85b583          	ld	a1,-1864(a1) # 8b8 <.LBB11_2+0x6c>
    33f0:	00b60633          	add	a2,a2,a1
    33f4:	ffff45b7          	lui	a1,0xffff4
    33f8:	00b60633          	add	a2,a2,a1
    33fc:	40a6063b          	subw	a2,a2,a0
    3400:	400005b7          	lui	a1,0x40000
    3404:	000014b7          	lui	s1,0x1
    3408:	009104b3          	add	s1,sp,s1
    340c:	86c4b423          	sd	a2,-1944(s1) # 868 <.LBB11_2+0x1c>
    3410:	00065463          	bgez	a2,3418 <.LBB11_38>
    3414:	c00005b7          	lui	a1,0xc0000

0000000000003418 <.LBB11_38>:
    3418:	00001637          	lui	a2,0x1
    341c:	00c10633          	add	a2,sp,a2
    3420:	86b63023          	sd	a1,-1952(a2) # 860 <.LBB11_2+0x14>
    3424:	54013603          	ld	a2,1344(sp)
    3428:	00c080b3          	add	ra,ra,a2
    342c:	000015b7          	lui	a1,0x1
    3430:	00b105b3          	add	a1,sp,a1
    3434:	8b05b583          	ld	a1,-1872(a1) # 8b0 <.LBB11_2+0x64>
    3438:	00b080b3          	add	ra,ra,a1
    343c:	ffff45b7          	lui	a1,0xffff4
    3440:	00b080b3          	add	ra,ra,a1
    3444:	40a085bb          	subw	a1,ra,a0
    3448:	400004b7          	lui	s1,0x40000
    344c:	000010b7          	lui	ra,0x1
    3450:	001100b3          	add	ra,sp,ra
    3454:	84b0b423          	sd	a1,-1976(ra) # 848 <.LBB11_1+0x710>
    3458:	0005d463          	bgez	a1,3460 <.LBB11_40>
    345c:	c00004b7          	lui	s1,0xc0000

0000000000003460 <.LBB11_40>:
    3460:	000015b7          	lui	a1,0x1
    3464:	00b105b3          	add	a1,sp,a1
    3468:	8495b023          	sd	s1,-1984(a1) # 840 <.LBB11_1+0x708>
    346c:	52013083          	ld	ra,1312(sp)
    3470:	001d0d33          	add	s10,s10,ra
    3474:	000015b7          	lui	a1,0x1
    3478:	00b105b3          	add	a1,sp,a1
    347c:	8a85b583          	ld	a1,-1880(a1) # 8a8 <.LBB11_2+0x5c>
    3480:	00bd0d33          	add	s10,s10,a1
    3484:	ffff45b7          	lui	a1,0xffff4
    3488:	00bd0d33          	add	s10,s10,a1
    348c:	40ad05bb          	subw	a1,s10,a0
    3490:	400004b7          	lui	s1,0x40000
    3494:	00001d37          	lui	s10,0x1
    3498:	01a10d33          	add	s10,sp,s10
    349c:	80bd3c23          	sd	a1,-2024(s10) # 818 <.LBB11_1+0x6e0>
    34a0:	0005d463          	bgez	a1,34a8 <.LBB11_42>
    34a4:	c00004b7          	lui	s1,0xc0000

00000000000034a8 <.LBB11_42>:
    34a8:	7e913c23          	sd	s1,2040(sp)
    34ac:	6c813483          	ld	s1,1736(sp)
    34b0:	012484b3          	add	s1,s1,s2
    34b4:	000015b7          	lui	a1,0x1
    34b8:	00b105b3          	add	a1,sp,a1
    34bc:	8a05b583          	ld	a1,-1888(a1) # 8a0 <.LBB11_2+0x54>
    34c0:	00b484b3          	add	s1,s1,a1
    34c4:	ffff45b7          	lui	a1,0xffff4
    34c8:	00b484b3          	add	s1,s1,a1
    34cc:	40a484bb          	subw	s1,s1,a0
    34d0:	400005b7          	lui	a1,0x40000
    34d4:	7c913c23          	sd	s1,2008(sp)
    34d8:	0004d463          	bgez	s1,34e0 <.LBB11_44>
    34dc:	c00005b7          	lui	a1,0xc0000

00000000000034e0 <.LBB11_44>:
    34e0:	7cb13423          	sd	a1,1992(sp)
    34e4:	76813583          	ld	a1,1896(sp)
    34e8:	01f585b3          	add	a1,a1,t6
    34ec:	000014b7          	lui	s1,0x1
    34f0:	009104b3          	add	s1,sp,s1
    34f4:	8984b483          	ld	s1,-1896(s1) # 898 <.LBB11_2+0x4c>
    34f8:	009585b3          	add	a1,a1,s1
    34fc:	ffff44b7          	lui	s1,0xffff4
    3500:	009585b3          	add	a1,a1,s1
    3504:	40a585bb          	subw	a1,a1,a0
    3508:	40000d37          	lui	s10,0x40000
    350c:	53813483          	ld	s1,1336(sp)
    3510:	76b13423          	sd	a1,1896(sp)
    3514:	0005d463          	bgez	a1,351c <.LBB11_46>
    3518:	c0000d37          	lui	s10,0xc0000

000000000000351c <.LBB11_46>:
    351c:	75a13c23          	sd	s10,1880(sp)
    3520:	6d813583          	ld	a1,1752(sp)
    3524:	01b585b3          	add	a1,a1,s11
    3528:	00001d37          	lui	s10,0x1
    352c:	01a10d33          	add	s10,sp,s10
    3530:	890d3d03          	ld	s10,-1904(s10) # 890 <.LBB11_2+0x44>
    3534:	01a585b3          	add	a1,a1,s10
    3538:	ffff4d37          	lui	s10,0xffff4
    353c:	01a585b3          	add	a1,a1,s10
    3540:	40a585bb          	subw	a1,a1,a0
    3544:	40000d37          	lui	s10,0x40000
    3548:	6cb13c23          	sd	a1,1752(sp)
    354c:	0005d463          	bgez	a1,3554 <.LBB11_48>
    3550:	c0000d37          	lui	s10,0xc0000

0000000000003554 <.LBB11_48>:
    3554:	6da13423          	sd	s10,1736(sp)
    3558:	56813583          	ld	a1,1384(sp)
    355c:	01e585b3          	add	a1,a1,t5
    3560:	00001d37          	lui	s10,0x1
    3564:	01a10d33          	add	s10,sp,s10
    3568:	888d3d03          	ld	s10,-1912(s10) # 888 <.LBB11_2+0x3c>
    356c:	01a585b3          	add	a1,a1,s10
    3570:	ffff4d37          	lui	s10,0xffff4
    3574:	01a585b3          	add	a1,a1,s10
    3578:	40a585bb          	subw	a1,a1,a0
    357c:	40000d37          	lui	s10,0x40000
    3580:	56b13423          	sd	a1,1384(sp)
    3584:	0005d463          	bgez	a1,358c <.LBB11_50>
    3588:	c0000d37          	lui	s10,0xc0000

000000000000358c <.LBB11_50>:
    358c:	55a13c23          	sd	s10,1368(sp)
    3590:	4b013583          	ld	a1,1200(sp)
    3594:	01d585b3          	add	a1,a1,t4
    3598:	00001d37          	lui	s10,0x1
    359c:	01a10d33          	add	s10,sp,s10
    35a0:	880d3d03          	ld	s10,-1920(s10) # 880 <.LBB11_2+0x34>
    35a4:	01a585b3          	add	a1,a1,s10
    35a8:	ffff4d37          	lui	s10,0xffff4
    35ac:	01a585b3          	add	a1,a1,s10
    35b0:	40a585bb          	subw	a1,a1,a0
    35b4:	40000d37          	lui	s10,0x40000
    35b8:	4ab13823          	sd	a1,1200(sp)
    35bc:	0005d463          	bgez	a1,35c4 <.LBB11_52>
    35c0:	c0000d37          	lui	s10,0xc0000

00000000000035c4 <.LBB11_52>:
    35c4:	4ba13023          	sd	s10,1184(sp)
    35c8:	45813583          	ld	a1,1112(sp)
    35cc:	01c585b3          	add	a1,a1,t3
    35d0:	017585b3          	add	a1,a1,s7
    35d4:	ffff4d37          	lui	s10,0xffff4
    35d8:	01a585b3          	add	a1,a1,s10
    35dc:	40a585bb          	subw	a1,a1,a0
    35e0:	40000d37          	lui	s10,0x40000
    35e4:	42b13823          	sd	a1,1072(sp)
    35e8:	0005d463          	bgez	a1,35f0 <.LBB11_54>
    35ec:	c0000d37          	lui	s10,0xc0000

00000000000035f0 <.LBB11_54>:
    35f0:	43a13023          	sd	s10,1056(sp)
    35f4:	49013583          	ld	a1,1168(sp)
    35f8:	007585b3          	add	a1,a1,t2
    35fc:	00d585b3          	add	a1,a1,a3
    3600:	ffff4d37          	lui	s10,0xffff4
    3604:	01a585b3          	add	a1,a1,s10
    3608:	40a585bb          	subw	a1,a1,a0
    360c:	40000d37          	lui	s10,0x40000
    3610:	3ab13823          	sd	a1,944(sp)
    3614:	0005d463          	bgez	a1,361c <.LBB11_56>
    3618:	c0000d37          	lui	s10,0xc0000

000000000000361c <.LBB11_56>:
    361c:	3ba13023          	sd	s10,928(sp)
    3620:	51013583          	ld	a1,1296(sp)
    3624:	006585b3          	add	a1,a1,t1
    3628:	016585b3          	add	a1,a1,s6
    362c:	ffff4d37          	lui	s10,0xffff4
    3630:	01a585b3          	add	a1,a1,s10
    3634:	40a585bb          	subw	a1,a1,a0
    3638:	40000d37          	lui	s10,0x40000
    363c:	32b13823          	sd	a1,816(sp)
    3640:	0005d463          	bgez	a1,3648 <.LBB11_58>
    3644:	c0000d37          	lui	s10,0xc0000

0000000000003648 <.LBB11_58>:
    3648:	33a13023          	sd	s10,800(sp)
    364c:	6b813583          	ld	a1,1720(sp)
    3650:	005585b3          	add	a1,a1,t0
    3654:	019585b3          	add	a1,a1,s9
    3658:	ffff4d37          	lui	s10,0xffff4
    365c:	01a585b3          	add	a1,a1,s10
    3660:	40a585bb          	subw	a1,a1,a0
    3664:	40000d37          	lui	s10,0x40000
    3668:	2ab13c23          	sd	a1,696(sp)
    366c:	0005d463          	bgez	a1,3674 <.LBB11_60>
    3670:	c0000d37          	lui	s10,0xc0000

0000000000003674 <.LBB11_60>:
    3674:	2ba13423          	sd	s10,680(sp)
    3678:	74813583          	ld	a1,1864(sp)
    367c:	010585b3          	add	a1,a1,a6
    3680:	015585b3          	add	a1,a1,s5
    3684:	ffff4d37          	lui	s10,0xffff4
    3688:	01a585b3          	add	a1,a1,s10
    368c:	40a585bb          	subw	a1,a1,a0
    3690:	40000d37          	lui	s10,0x40000
    3694:	24b13423          	sd	a1,584(sp)
    3698:	0005d463          	bgez	a1,36a0 <.LBB11_62>
    369c:	c0000d37          	lui	s10,0xc0000

00000000000036a0 <.LBB11_62>:
    36a0:	23a13c23          	sd	s10,568(sp)
    36a4:	7c013583          	ld	a1,1984(sp)
    36a8:	011585b3          	add	a1,a1,a7
    36ac:	014585b3          	add	a1,a1,s4
    36b0:	ffff4d37          	lui	s10,0xffff4
    36b4:	01a585b3          	add	a1,a1,s10
    36b8:	40a585bb          	subw	a1,a1,a0
    36bc:	40000d37          	lui	s10,0x40000
    36c0:	1cb13823          	sd	a1,464(sp)
    36c4:	0005d463          	bgez	a1,36cc <.LBB11_64>
    36c8:	c0000d37          	lui	s10,0xc0000

00000000000036cc <.LBB11_64>:
    36cc:	1da13023          	sd	s10,448(sp)
    36d0:	000015b7          	lui	a1,0x1
    36d4:	00b105b3          	add	a1,sp,a1
    36d8:	8205b583          	ld	a1,-2016(a1) # 820 <.LBB11_1+0x6e8>
    36dc:	00e585b3          	add	a1,a1,a4
    36e0:	018585b3          	add	a1,a1,s8
    36e4:	ffff4d37          	lui	s10,0xffff4
    36e8:	01a585b3          	add	a1,a1,s10
    36ec:	40a585bb          	subw	a1,a1,a0
    36f0:	40000d37          	lui	s10,0x40000
    36f4:	16b13023          	sd	a1,352(sp)
    36f8:	0005d463          	bgez	a1,3700 <.LBB11_66>
    36fc:	c0000d37          	lui	s10,0xc0000

0000000000003700 <.LBB11_66>:
    3700:	15a13823          	sd	s10,336(sp)
    3704:	000015b7          	lui	a1,0x1
    3708:	00b105b3          	add	a1,sp,a1
    370c:	8305b583          	ld	a1,-2000(a1) # 830 <.LBB11_1+0x6f8>
    3710:	00f585b3          	add	a1,a1,a5
    3714:	013585b3          	add	a1,a1,s3
    3718:	ffff4d37          	lui	s10,0xffff4
    371c:	01a585b3          	add	a1,a1,s10
    3720:	40a585bb          	subw	a1,a1,a0
    3724:	40000537          	lui	a0,0x40000
    3728:	0eb13c23          	sd	a1,248(sp)
    372c:	0005d463          	bgez	a1,3734 <.LBB11_68>
    3730:	c0000537          	lui	a0,0xc0000

0000000000003734 <.LBB11_68>:
    3734:	0ea13023          	sd	a0,224(sp)
    3738:	00c00513          	li	a0,12
    373c:	00c13023          	sd	a2,0(sp)
    3740:	000015b7          	lui	a1,0x1
    3744:	00b105b3          	add	a1,sp,a1
    3748:	8105b583          	ld	a1,-2032(a1) # 810 <.LBB11_1+0x6d8>
    374c:	02a58533          	mul	a0,a1,a0
    3750:	7f013583          	ld	a1,2032(sp)
    3754:	009585b3          	add	a1,a1,s1
    3758:	00001637          	lui	a2,0x1
    375c:	00c10633          	add	a2,sp,a2
    3760:	8b863d03          	ld	s10,-1864(a2) # 8b8 <.LBB11_2+0x6c>
    3764:	01a585b3          	add	a1,a1,s10
    3768:	ffff4d37          	lui	s10,0xffff4
    376c:	01a585b3          	add	a1,a1,s10
    3770:	40a585bb          	subw	a1,a1,a0
    3774:	40000d37          	lui	s10,0x40000
    3778:	00001637          	lui	a2,0x1
    377c:	00c10633          	add	a2,sp,a2
    3780:	82b63823          	sd	a1,-2000(a2) # 830 <.LBB11_1+0x6f8>
    3784:	00013603          	ld	a2,0(sp)
    3788:	0005d463          	bgez	a1,3790 <.LBB11_70>
    378c:	c0000d37          	lui	s10,0xc0000

0000000000003790 <.LBB11_70>:
    3790:	00d13023          	sd	a3,0(sp)
    3794:	000015b7          	lui	a1,0x1
    3798:	00b105b3          	add	a1,sp,a1
    379c:	83a5b023          	sd	s10,-2016(a1) # 820 <.LBB11_1+0x6e8>
    37a0:	000015b7          	lui	a1,0x1
    37a4:	00b105b3          	add	a1,sp,a1
    37a8:	8005b583          	ld	a1,-2048(a1) # 800 <.LBB11_1+0x6c8>
    37ac:	00c585b3          	add	a1,a1,a2
    37b0:	000016b7          	lui	a3,0x1
    37b4:	00d106b3          	add	a3,sp,a3
    37b8:	8b06bd03          	ld	s10,-1872(a3) # 8b0 <.LBB11_2+0x64>
    37bc:	01a585b3          	add	a1,a1,s10
    37c0:	ffff4d37          	lui	s10,0xffff4
    37c4:	01a585b3          	add	a1,a1,s10
    37c8:	40a585bb          	subw	a1,a1,a0
    37cc:	40000d37          	lui	s10,0x40000
    37d0:	000016b7          	lui	a3,0x1
    37d4:	00d106b3          	add	a3,sp,a3
    37d8:	80b6b823          	sd	a1,-2032(a3) # 810 <.LBB11_1+0x6d8>
    37dc:	00013683          	ld	a3,0(sp)
    37e0:	0005d463          	bgez	a1,37e8 <.LBB11_72>
    37e4:	c0000d37          	lui	s10,0xc0000

00000000000037e8 <.LBB11_72>:
    37e8:	00c13023          	sd	a2,0(sp)
    37ec:	000015b7          	lui	a1,0x1
    37f0:	00b105b3          	add	a1,sp,a1
    37f4:	81a5b023          	sd	s10,-2048(a1) # 800 <.LBB11_1+0x6c8>
    37f8:	000015b7          	lui	a1,0x1
    37fc:	00b105b3          	add	a1,sp,a1
    3800:	8085b583          	ld	a1,-2040(a1) # 808 <.LBB11_1+0x6d0>
    3804:	001585b3          	add	a1,a1,ra
    3808:	00001637          	lui	a2,0x1
    380c:	00c10633          	add	a2,sp,a2
    3810:	8a863d03          	ld	s10,-1880(a2) # 8a8 <.LBB11_2+0x5c>
    3814:	01a585b3          	add	a1,a1,s10
    3818:	ffff4d37          	lui	s10,0xffff4
    381c:	01a585b3          	add	a1,a1,s10
    3820:	40a585bb          	subw	a1,a1,a0
    3824:	40000d37          	lui	s10,0x40000
    3828:	00001637          	lui	a2,0x1
    382c:	00c10633          	add	a2,sp,a2
    3830:	80b63423          	sd	a1,-2040(a2) # 808 <.LBB11_1+0x6d0>
    3834:	00013603          	ld	a2,0(sp)
    3838:	0005d463          	bgez	a1,3840 <.LBB11_74>
    383c:	c0000d37          	lui	s10,0xc0000

0000000000003840 <.LBB11_74>:
    3840:	7fa13823          	sd	s10,2032(sp)
    3844:	7d013583          	ld	a1,2000(sp)
    3848:	012585b3          	add	a1,a1,s2
    384c:	00001d37          	lui	s10,0x1
    3850:	01a10d33          	add	s10,sp,s10
    3854:	8a0d3d03          	ld	s10,-1888(s10) # 8a0 <.LBB11_2+0x54>
    3858:	01a585b3          	add	a1,a1,s10
    385c:	ffff4d37          	lui	s10,0xffff4
    3860:	01a585b3          	add	a1,a1,s10
    3864:	40a585bb          	subw	a1,a1,a0
    3868:	40000d37          	lui	s10,0x40000
    386c:	7cb13823          	sd	a1,2000(sp)
    3870:	0005d463          	bgez	a1,3878 <.LBB11_76>
    3874:	c0000d37          	lui	s10,0xc0000

0000000000003878 <.LBB11_76>:
    3878:	7da13023          	sd	s10,1984(sp)
    387c:	76013583          	ld	a1,1888(sp)
    3880:	01f585b3          	add	a1,a1,t6
    3884:	00001d37          	lui	s10,0x1
    3888:	01a10d33          	add	s10,sp,s10
    388c:	898d3d03          	ld	s10,-1896(s10) # 898 <.LBB11_2+0x4c>
    3890:	01a585b3          	add	a1,a1,s10
    3894:	ffff4d37          	lui	s10,0xffff4
    3898:	01a585b3          	add	a1,a1,s10
    389c:	40a585bb          	subw	a1,a1,a0
    38a0:	40000d37          	lui	s10,0x40000
    38a4:	76b13023          	sd	a1,1888(sp)
    38a8:	0005d463          	bgez	a1,38b0 <.LBB11_78>
    38ac:	c0000d37          	lui	s10,0xc0000

00000000000038b0 <.LBB11_78>:
    38b0:	75a13423          	sd	s10,1864(sp)
    38b4:	6d013583          	ld	a1,1744(sp)
    38b8:	01b585b3          	add	a1,a1,s11
    38bc:	00001d37          	lui	s10,0x1
    38c0:	01a10d33          	add	s10,sp,s10
    38c4:	890d3d03          	ld	s10,-1904(s10) # 890 <.LBB11_2+0x44>
    38c8:	01a585b3          	add	a1,a1,s10
    38cc:	ffff4d37          	lui	s10,0xffff4
    38d0:	01a585b3          	add	a1,a1,s10
    38d4:	40a585bb          	subw	a1,a1,a0
    38d8:	40000d37          	lui	s10,0x40000
    38dc:	6cb13823          	sd	a1,1744(sp)
    38e0:	0005d463          	bgez	a1,38e8 <.LBB11_80>
    38e4:	c0000d37          	lui	s10,0xc0000

00000000000038e8 <.LBB11_80>:
    38e8:	6ba13c23          	sd	s10,1720(sp)
    38ec:	56013583          	ld	a1,1376(sp)
    38f0:	01e585b3          	add	a1,a1,t5
    38f4:	00001d37          	lui	s10,0x1
    38f8:	01a10d33          	add	s10,sp,s10
    38fc:	888d3d03          	ld	s10,-1912(s10) # 888 <.LBB11_2+0x3c>
    3900:	01a585b3          	add	a1,a1,s10
    3904:	ffff4d37          	lui	s10,0xffff4
    3908:	01a585b3          	add	a1,a1,s10
    390c:	40a585bb          	subw	a1,a1,a0
    3910:	40000d37          	lui	s10,0x40000
    3914:	56b13023          	sd	a1,1376(sp)
    3918:	0005d463          	bgez	a1,3920 <.LBB11_82>
    391c:	c0000d37          	lui	s10,0xc0000

0000000000003920 <.LBB11_82>:
    3920:	51a13823          	sd	s10,1296(sp)
    3924:	4a813583          	ld	a1,1192(sp)
    3928:	01d585b3          	add	a1,a1,t4
    392c:	00001d37          	lui	s10,0x1
    3930:	01a10d33          	add	s10,sp,s10
    3934:	880d3d03          	ld	s10,-1920(s10) # 880 <.LBB11_2+0x34>
    3938:	01a585b3          	add	a1,a1,s10
    393c:	ffff4d37          	lui	s10,0xffff4
    3940:	01a585b3          	add	a1,a1,s10
    3944:	40a585bb          	subw	a1,a1,a0
    3948:	40000d37          	lui	s10,0x40000
    394c:	4ab13423          	sd	a1,1192(sp)
    3950:	0005d463          	bgez	a1,3958 <.LBB11_84>
    3954:	c0000d37          	lui	s10,0xc0000

0000000000003958 <.LBB11_84>:
    3958:	49a13823          	sd	s10,1168(sp)
    395c:	46013583          	ld	a1,1120(sp)
    3960:	01c585b3          	add	a1,a1,t3
    3964:	017585b3          	add	a1,a1,s7
    3968:	ffff4d37          	lui	s10,0xffff4
    396c:	01a585b3          	add	a1,a1,s10
    3970:	40a585bb          	subw	a1,a1,a0
    3974:	40000d37          	lui	s10,0x40000
    3978:	42b13423          	sd	a1,1064(sp)
    397c:	0005d463          	bgez	a1,3984 <.LBB11_86>
    3980:	c0000d37          	lui	s10,0xc0000

0000000000003984 <.LBB11_86>:
    3984:	41a13823          	sd	s10,1040(sp)
    3988:	48013583          	ld	a1,1152(sp)
    398c:	007585b3          	add	a1,a1,t2
    3990:	00d585b3          	add	a1,a1,a3
    3994:	ffff4d37          	lui	s10,0xffff4
    3998:	01a585b3          	add	a1,a1,s10
    399c:	40a585bb          	subw	a1,a1,a0
    39a0:	40000d37          	lui	s10,0x40000
    39a4:	3ab13423          	sd	a1,936(sp)
    39a8:	0005d463          	bgez	a1,39b0 <.LBB11_88>
    39ac:	c0000d37          	lui	s10,0xc0000

00000000000039b0 <.LBB11_88>:
    39b0:	39a13823          	sd	s10,912(sp)
    39b4:	50013583          	ld	a1,1280(sp)
    39b8:	006585b3          	add	a1,a1,t1
    39bc:	016585b3          	add	a1,a1,s6
    39c0:	ffff4d37          	lui	s10,0xffff4
    39c4:	01a585b3          	add	a1,a1,s10
    39c8:	40a585bb          	subw	a1,a1,a0
    39cc:	40000d37          	lui	s10,0x40000
    39d0:	32b13423          	sd	a1,808(sp)
    39d4:	0005d463          	bgez	a1,39dc <.LBB11_90>
    39d8:	c0000d37          	lui	s10,0xc0000

00000000000039dc <.LBB11_90>:
    39dc:	31a13823          	sd	s10,784(sp)
    39e0:	65813583          	ld	a1,1624(sp)
    39e4:	005585b3          	add	a1,a1,t0
    39e8:	019585b3          	add	a1,a1,s9
    39ec:	ffff4d37          	lui	s10,0xffff4
    39f0:	01a585b3          	add	a1,a1,s10
    39f4:	40a585bb          	subw	a1,a1,a0
    39f8:	40000d37          	lui	s10,0x40000
    39fc:	2ab13823          	sd	a1,688(sp)
    3a00:	0005d463          	bgez	a1,3a08 <.LBB11_92>
    3a04:	c0000d37          	lui	s10,0xc0000

0000000000003a08 <.LBB11_92>:
    3a08:	29a13c23          	sd	s10,664(sp)
    3a0c:	74013583          	ld	a1,1856(sp)
    3a10:	010585b3          	add	a1,a1,a6
    3a14:	015585b3          	add	a1,a1,s5
    3a18:	ffff4d37          	lui	s10,0xffff4
    3a1c:	01a585b3          	add	a1,a1,s10
    3a20:	40a585bb          	subw	a1,a1,a0
    3a24:	40000d37          	lui	s10,0x40000
    3a28:	24b13023          	sd	a1,576(sp)
    3a2c:	0005d463          	bgez	a1,3a34 <.LBB11_94>
    3a30:	c0000d37          	lui	s10,0xc0000

0000000000003a34 <.LBB11_94>:
    3a34:	23a13423          	sd	s10,552(sp)
    3a38:	77013583          	ld	a1,1904(sp)
    3a3c:	011585b3          	add	a1,a1,a7
    3a40:	014585b3          	add	a1,a1,s4
    3a44:	ffff4d37          	lui	s10,0xffff4
    3a48:	01a585b3          	add	a1,a1,s10
    3a4c:	40a585bb          	subw	a1,a1,a0
    3a50:	40000d37          	lui	s10,0x40000
    3a54:	1cb13423          	sd	a1,456(sp)
    3a58:	0005d463          	bgez	a1,3a60 <.LBB11_96>
    3a5c:	c0000d37          	lui	s10,0xc0000

0000000000003a60 <.LBB11_96>:
    3a60:	1ba13823          	sd	s10,432(sp)
    3a64:	78013583          	ld	a1,1920(sp)
    3a68:	00e585b3          	add	a1,a1,a4
    3a6c:	018585b3          	add	a1,a1,s8
    3a70:	ffff4d37          	lui	s10,0xffff4
    3a74:	01a585b3          	add	a1,a1,s10
    3a78:	40a585bb          	subw	a1,a1,a0
    3a7c:	40000d37          	lui	s10,0x40000
    3a80:	14b13c23          	sd	a1,344(sp)
    3a84:	0005d463          	bgez	a1,3a8c <.LBB11_98>
    3a88:	c0000d37          	lui	s10,0xc0000

0000000000003a8c <.LBB11_98>:
    3a8c:	15a13023          	sd	s10,320(sp)
    3a90:	7a013583          	ld	a1,1952(sp)
    3a94:	00f585b3          	add	a1,a1,a5
    3a98:	013585b3          	add	a1,a1,s3
    3a9c:	ffff4d37          	lui	s10,0xffff4
    3aa0:	01a585b3          	add	a1,a1,s10
    3aa4:	40a585bb          	subw	a1,a1,a0
    3aa8:	40000537          	lui	a0,0x40000
    3aac:	0eb13823          	sd	a1,240(sp)
    3ab0:	0005d463          	bgez	a1,3ab8 <.LBB11_100>
    3ab4:	c0000537          	lui	a0,0xc0000

0000000000003ab8 <.LBB11_100>:
    3ab8:	0ca13823          	sd	a0,208(sp)
    3abc:	00c00513          	li	a0,12
    3ac0:	7b013583          	ld	a1,1968(sp)
    3ac4:	02a58533          	mul	a0,a1,a0
    3ac8:	77813583          	ld	a1,1912(sp)
    3acc:	009585b3          	add	a1,a1,s1
    3ad0:	00001d37          	lui	s10,0x1
    3ad4:	01a10d33          	add	s10,sp,s10
    3ad8:	8b8d3d03          	ld	s10,-1864(s10) # 8b8 <.LBB11_2+0x6c>
    3adc:	01a585b3          	add	a1,a1,s10
    3ae0:	ffff4d37          	lui	s10,0xffff4
    3ae4:	01a585b3          	add	a1,a1,s10
    3ae8:	40a585bb          	subw	a1,a1,a0
    3aec:	40000d37          	lui	s10,0x40000
    3af0:	7ab13823          	sd	a1,1968(sp)
    3af4:	0005d463          	bgez	a1,3afc <.LBB11_102>
    3af8:	c0000d37          	lui	s10,0xc0000

0000000000003afc <.LBB11_102>:
    3afc:	7ba13023          	sd	s10,1952(sp)
    3b00:	79013583          	ld	a1,1936(sp)
    3b04:	00c585b3          	add	a1,a1,a2
    3b08:	00001d37          	lui	s10,0x1
    3b0c:	01a10d33          	add	s10,sp,s10
    3b10:	8b0d3d03          	ld	s10,-1872(s10) # 8b0 <.LBB11_2+0x64>
    3b14:	01a585b3          	add	a1,a1,s10
    3b18:	ffff4d37          	lui	s10,0xffff4
    3b1c:	01a585b3          	add	a1,a1,s10
    3b20:	40a585bb          	subw	a1,a1,a0
    3b24:	40000d37          	lui	s10,0x40000
    3b28:	78b13823          	sd	a1,1936(sp)
    3b2c:	0005d463          	bgez	a1,3b34 <.LBB11_104>
    3b30:	c0000d37          	lui	s10,0xc0000

0000000000003b34 <.LBB11_104>:
    3b34:	79a13023          	sd	s10,1920(sp)
    3b38:	78813583          	ld	a1,1928(sp)
    3b3c:	001585b3          	add	a1,a1,ra
    3b40:	00001d37          	lui	s10,0x1
    3b44:	01a10d33          	add	s10,sp,s10
    3b48:	8a8d3d03          	ld	s10,-1880(s10) # 8a8 <.LBB11_2+0x5c>
    3b4c:	01a585b3          	add	a1,a1,s10
    3b50:	ffff4d37          	lui	s10,0xffff4
    3b54:	01a585b3          	add	a1,a1,s10
    3b58:	40a585bb          	subw	a1,a1,a0
    3b5c:	40000d37          	lui	s10,0x40000
    3b60:	78b13423          	sd	a1,1928(sp)
    3b64:	0005d463          	bgez	a1,3b6c <.LBB11_106>
    3b68:	c0000d37          	lui	s10,0xc0000

0000000000003b6c <.LBB11_106>:
    3b6c:	77a13c23          	sd	s10,1912(sp)
    3b70:	79813583          	ld	a1,1944(sp)
    3b74:	012585b3          	add	a1,a1,s2
    3b78:	00001d37          	lui	s10,0x1
    3b7c:	01a10d33          	add	s10,sp,s10
    3b80:	8a0d3d03          	ld	s10,-1888(s10) # 8a0 <.LBB11_2+0x54>
    3b84:	01a585b3          	add	a1,a1,s10
    3b88:	ffff4d37          	lui	s10,0xffff4
    3b8c:	01a585b3          	add	a1,a1,s10
    3b90:	40a585bb          	subw	a1,a1,a0
    3b94:	40000d37          	lui	s10,0x40000
    3b98:	78b13c23          	sd	a1,1944(sp)
    3b9c:	0005d463          	bgez	a1,3ba4 <.LBB11_108>
    3ba0:	c0000d37          	lui	s10,0xc0000

0000000000003ba4 <.LBB11_108>:
    3ba4:	77a13823          	sd	s10,1904(sp)
    3ba8:	75013583          	ld	a1,1872(sp)
    3bac:	01f585b3          	add	a1,a1,t6
    3bb0:	00001d37          	lui	s10,0x1
    3bb4:	01a10d33          	add	s10,sp,s10
    3bb8:	898d3d03          	ld	s10,-1896(s10) # 898 <.LBB11_2+0x4c>
    3bbc:	01a585b3          	add	a1,a1,s10
    3bc0:	ffff4d37          	lui	s10,0xffff4
    3bc4:	01a585b3          	add	a1,a1,s10
    3bc8:	40a585bb          	subw	a1,a1,a0
    3bcc:	40000d37          	lui	s10,0x40000
    3bd0:	74b13823          	sd	a1,1872(sp)
    3bd4:	0005d463          	bgez	a1,3bdc <.LBB11_110>
    3bd8:	c0000d37          	lui	s10,0xc0000

0000000000003bdc <.LBB11_110>:
    3bdc:	75a13023          	sd	s10,1856(sp)
    3be0:	6c013583          	ld	a1,1728(sp)
    3be4:	01b585b3          	add	a1,a1,s11
    3be8:	00001d37          	lui	s10,0x1
    3bec:	01a10d33          	add	s10,sp,s10
    3bf0:	890d3d03          	ld	s10,-1904(s10) # 890 <.LBB11_2+0x44>
    3bf4:	01a585b3          	add	a1,a1,s10
    3bf8:	ffff4d37          	lui	s10,0xffff4
    3bfc:	01a585b3          	add	a1,a1,s10
    3c00:	40a585bb          	subw	a1,a1,a0
    3c04:	40000d37          	lui	s10,0x40000
    3c08:	6cb13023          	sd	a1,1728(sp)
    3c0c:	0005d463          	bgez	a1,3c14 <.LBB11_112>
    3c10:	c0000d37          	lui	s10,0xc0000

0000000000003c14 <.LBB11_112>:
    3c14:	65a13c23          	sd	s10,1624(sp)
    3c18:	55013583          	ld	a1,1360(sp)
    3c1c:	01e585b3          	add	a1,a1,t5
    3c20:	00001d37          	lui	s10,0x1
    3c24:	01a10d33          	add	s10,sp,s10
    3c28:	888d3d03          	ld	s10,-1912(s10) # 888 <.LBB11_2+0x3c>
    3c2c:	01a585b3          	add	a1,a1,s10
    3c30:	ffff4d37          	lui	s10,0xffff4
    3c34:	01a585b3          	add	a1,a1,s10
    3c38:	40a585bb          	subw	a1,a1,a0
    3c3c:	40000d37          	lui	s10,0x40000
    3c40:	54b13823          	sd	a1,1360(sp)
    3c44:	0005d463          	bgez	a1,3c4c <.LBB11_114>
    3c48:	c0000d37          	lui	s10,0xc0000

0000000000003c4c <.LBB11_114>:
    3c4c:	51a13023          	sd	s10,1280(sp)
    3c50:	49813583          	ld	a1,1176(sp)
    3c54:	01d585b3          	add	a1,a1,t4
    3c58:	00001d37          	lui	s10,0x1
    3c5c:	01a10d33          	add	s10,sp,s10
    3c60:	880d3d03          	ld	s10,-1920(s10) # 880 <.LBB11_2+0x34>
    3c64:	01a585b3          	add	a1,a1,s10
    3c68:	ffff4d37          	lui	s10,0xffff4
    3c6c:	01a585b3          	add	a1,a1,s10
    3c70:	40a585bb          	subw	a1,a1,a0
    3c74:	40000d37          	lui	s10,0x40000
    3c78:	48b13c23          	sd	a1,1176(sp)
    3c7c:	0005d463          	bgez	a1,3c84 <.LBB11_116>
    3c80:	c0000d37          	lui	s10,0xc0000

0000000000003c84 <.LBB11_116>:
    3c84:	49a13023          	sd	s10,1152(sp)
    3c88:	46813583          	ld	a1,1128(sp)
    3c8c:	01c585b3          	add	a1,a1,t3
    3c90:	017585b3          	add	a1,a1,s7
    3c94:	ffff4d37          	lui	s10,0xffff4
    3c98:	01a585b3          	add	a1,a1,s10
    3c9c:	40a585bb          	subw	a1,a1,a0
    3ca0:	40000d37          	lui	s10,0x40000
    3ca4:	40b13c23          	sd	a1,1048(sp)
    3ca8:	0005d463          	bgez	a1,3cb0 <.LBB11_118>
    3cac:	c0000d37          	lui	s10,0xc0000

0000000000003cb0 <.LBB11_118>:
    3cb0:	41a13023          	sd	s10,1024(sp)
    3cb4:	47013583          	ld	a1,1136(sp)
    3cb8:	007585b3          	add	a1,a1,t2
    3cbc:	00d585b3          	add	a1,a1,a3
    3cc0:	ffff4d37          	lui	s10,0xffff4
    3cc4:	01a585b3          	add	a1,a1,s10
    3cc8:	40a585bb          	subw	a1,a1,a0
    3ccc:	40000d37          	lui	s10,0x40000
    3cd0:	38b13c23          	sd	a1,920(sp)
    3cd4:	0005d463          	bgez	a1,3cdc <.LBB11_120>
    3cd8:	c0000d37          	lui	s10,0xc0000

0000000000003cdc <.LBB11_120>:
    3cdc:	39a13023          	sd	s10,896(sp)
    3ce0:	4f013583          	ld	a1,1264(sp)
    3ce4:	006585b3          	add	a1,a1,t1
    3ce8:	016585b3          	add	a1,a1,s6
    3cec:	ffff4d37          	lui	s10,0xffff4
    3cf0:	01a585b3          	add	a1,a1,s10
    3cf4:	40a585bb          	subw	a1,a1,a0
    3cf8:	40000d37          	lui	s10,0x40000
    3cfc:	30b13c23          	sd	a1,792(sp)
    3d00:	0005d463          	bgez	a1,3d08 <.LBB11_122>
    3d04:	c0000d37          	lui	s10,0xc0000

0000000000003d08 <.LBB11_122>:
    3d08:	31a13023          	sd	s10,768(sp)
    3d0c:	64813583          	ld	a1,1608(sp)
    3d10:	005585b3          	add	a1,a1,t0
    3d14:	019585b3          	add	a1,a1,s9
    3d18:	ffff4d37          	lui	s10,0xffff4
    3d1c:	01a585b3          	add	a1,a1,s10
    3d20:	40a585bb          	subw	a1,a1,a0
    3d24:	40000d37          	lui	s10,0x40000
    3d28:	2ab13023          	sd	a1,672(sp)
    3d2c:	0005d463          	bgez	a1,3d34 <.LBB11_124>
    3d30:	c0000d37          	lui	s10,0xc0000

0000000000003d34 <.LBB11_124>:
    3d34:	29a13423          	sd	s10,648(sp)
    3d38:	6e813583          	ld	a1,1768(sp)
    3d3c:	010585b3          	add	a1,a1,a6
    3d40:	015585b3          	add	a1,a1,s5
    3d44:	ffff4d37          	lui	s10,0xffff4
    3d48:	01a585b3          	add	a1,a1,s10
    3d4c:	40a585bb          	subw	a1,a1,a0
    3d50:	40000d37          	lui	s10,0x40000
    3d54:	22b13823          	sd	a1,560(sp)
    3d58:	0005d463          	bgez	a1,3d60 <.LBB11_126>
    3d5c:	c0000d37          	lui	s10,0xc0000

0000000000003d60 <.LBB11_126>:
    3d60:	21a13c23          	sd	s10,536(sp)
    3d64:	6f013583          	ld	a1,1776(sp)
    3d68:	011585b3          	add	a1,a1,a7
    3d6c:	014585b3          	add	a1,a1,s4
    3d70:	ffff4d37          	lui	s10,0xffff4
    3d74:	01a585b3          	add	a1,a1,s10
    3d78:	40a585bb          	subw	a1,a1,a0
    3d7c:	40000d37          	lui	s10,0x40000
    3d80:	1ab13c23          	sd	a1,440(sp)
    3d84:	0005d463          	bgez	a1,3d8c <.LBB11_128>
    3d88:	c0000d37          	lui	s10,0xc0000

0000000000003d8c <.LBB11_128>:
    3d8c:	1ba13023          	sd	s10,416(sp)
    3d90:	70013583          	ld	a1,1792(sp)
    3d94:	00e585b3          	add	a1,a1,a4
    3d98:	018585b3          	add	a1,a1,s8
    3d9c:	ffff4d37          	lui	s10,0xffff4
    3da0:	01a585b3          	add	a1,a1,s10
    3da4:	40a585bb          	subw	a1,a1,a0
    3da8:	40000d37          	lui	s10,0x40000
    3dac:	14b13423          	sd	a1,328(sp)
    3db0:	0005d463          	bgez	a1,3db8 <.LBB11_130>
    3db4:	c0000d37          	lui	s10,0xc0000

0000000000003db8 <.LBB11_130>:
    3db8:	13a13823          	sd	s10,304(sp)
    3dbc:	72013583          	ld	a1,1824(sp)
    3dc0:	00f585b3          	add	a1,a1,a5
    3dc4:	013585b3          	add	a1,a1,s3
    3dc8:	ffff4d37          	lui	s10,0xffff4
    3dcc:	01a585b3          	add	a1,a1,s10
    3dd0:	40a585bb          	subw	a1,a1,a0
    3dd4:	40000537          	lui	a0,0x40000
    3dd8:	0cb13c23          	sd	a1,216(sp)
    3ddc:	0005d463          	bgez	a1,3de4 <.LBB11_132>
    3de0:	c0000537          	lui	a0,0xc0000

0000000000003de4 <.LBB11_132>:
    3de4:	0ca13023          	sd	a0,192(sp)
    3de8:	00c00513          	li	a0,12
    3dec:	73013583          	ld	a1,1840(sp)
    3df0:	02a58533          	mul	a0,a1,a0
    3df4:	6f813583          	ld	a1,1784(sp)
    3df8:	009585b3          	add	a1,a1,s1
    3dfc:	00001d37          	lui	s10,0x1
    3e00:	01a10d33          	add	s10,sp,s10
    3e04:	8b8d3d03          	ld	s10,-1864(s10) # 8b8 <.LBB11_2+0x6c>
    3e08:	01a585b3          	add	a1,a1,s10
    3e0c:	ffff4d37          	lui	s10,0xffff4
    3e10:	01a585b3          	add	a1,a1,s10
    3e14:	40a585bb          	subw	a1,a1,a0
    3e18:	40000d37          	lui	s10,0x40000
    3e1c:	72b13823          	sd	a1,1840(sp)
    3e20:	0005d463          	bgez	a1,3e28 <.LBB11_134>
    3e24:	c0000d37          	lui	s10,0xc0000

0000000000003e28 <.LBB11_134>:
    3e28:	73a13023          	sd	s10,1824(sp)
    3e2c:	71013583          	ld	a1,1808(sp)
    3e30:	00c585b3          	add	a1,a1,a2
    3e34:	00001d37          	lui	s10,0x1
    3e38:	01a10d33          	add	s10,sp,s10
    3e3c:	8b0d3d03          	ld	s10,-1872(s10) # 8b0 <.LBB11_2+0x64>
    3e40:	01a585b3          	add	a1,a1,s10
    3e44:	ffff4d37          	lui	s10,0xffff4
    3e48:	01a585b3          	add	a1,a1,s10
    3e4c:	40a585bb          	subw	a1,a1,a0
    3e50:	40000d37          	lui	s10,0x40000
    3e54:	70b13823          	sd	a1,1808(sp)
    3e58:	0005d463          	bgez	a1,3e60 <.LBB11_136>
    3e5c:	c0000d37          	lui	s10,0xc0000

0000000000003e60 <.LBB11_136>:
    3e60:	71a13023          	sd	s10,1792(sp)
    3e64:	70813583          	ld	a1,1800(sp)
    3e68:	001585b3          	add	a1,a1,ra
    3e6c:	00001d37          	lui	s10,0x1
    3e70:	01a10d33          	add	s10,sp,s10
    3e74:	8a8d3d03          	ld	s10,-1880(s10) # 8a8 <.LBB11_2+0x5c>
    3e78:	01a585b3          	add	a1,a1,s10
    3e7c:	ffff4d37          	lui	s10,0xffff4
    3e80:	01a585b3          	add	a1,a1,s10
    3e84:	40a585bb          	subw	a1,a1,a0
    3e88:	40000d37          	lui	s10,0x40000
    3e8c:	70b13423          	sd	a1,1800(sp)
    3e90:	0005d463          	bgez	a1,3e98 <.LBB11_138>
    3e94:	c0000d37          	lui	s10,0xc0000

0000000000003e98 <.LBB11_138>:
    3e98:	6fa13c23          	sd	s10,1784(sp)
    3e9c:	71813583          	ld	a1,1816(sp)
    3ea0:	012585b3          	add	a1,a1,s2
    3ea4:	00001d37          	lui	s10,0x1
    3ea8:	01a10d33          	add	s10,sp,s10
    3eac:	8a0d3d03          	ld	s10,-1888(s10) # 8a0 <.LBB11_2+0x54>
    3eb0:	01a585b3          	add	a1,a1,s10
    3eb4:	ffff4d37          	lui	s10,0xffff4
    3eb8:	01a585b3          	add	a1,a1,s10
    3ebc:	40a585bb          	subw	a1,a1,a0
    3ec0:	40000d37          	lui	s10,0x40000
    3ec4:	70b13c23          	sd	a1,1816(sp)
    3ec8:	0005d463          	bgez	a1,3ed0 <.LBB11_140>
    3ecc:	c0000d37          	lui	s10,0xc0000

0000000000003ed0 <.LBB11_140>:
    3ed0:	6fa13823          	sd	s10,1776(sp)
    3ed4:	72813583          	ld	a1,1832(sp)
    3ed8:	01f585b3          	add	a1,a1,t6
    3edc:	00001d37          	lui	s10,0x1
    3ee0:	01a10d33          	add	s10,sp,s10
    3ee4:	898d3d03          	ld	s10,-1896(s10) # 898 <.LBB11_2+0x4c>
    3ee8:	01a585b3          	add	a1,a1,s10
    3eec:	ffff4d37          	lui	s10,0xffff4
    3ef0:	01a585b3          	add	a1,a1,s10
    3ef4:	40a585bb          	subw	a1,a1,a0
    3ef8:	40000d37          	lui	s10,0x40000
    3efc:	72b13423          	sd	a1,1832(sp)
    3f00:	0005d463          	bgez	a1,3f08 <.LBB11_142>
    3f04:	c0000d37          	lui	s10,0xc0000

0000000000003f08 <.LBB11_142>:
    3f08:	6fa13423          	sd	s10,1768(sp)
    3f0c:	66013583          	ld	a1,1632(sp)
    3f10:	01b585b3          	add	a1,a1,s11
    3f14:	00001d37          	lui	s10,0x1
    3f18:	01a10d33          	add	s10,sp,s10
    3f1c:	890d3d03          	ld	s10,-1904(s10) # 890 <.LBB11_2+0x44>
    3f20:	01a585b3          	add	a1,a1,s10
    3f24:	ffff4d37          	lui	s10,0xffff4
    3f28:	01a585b3          	add	a1,a1,s10
    3f2c:	40a585bb          	subw	a1,a1,a0
    3f30:	40000d37          	lui	s10,0x40000
    3f34:	66b13023          	sd	a1,1632(sp)
    3f38:	0005d463          	bgez	a1,3f40 <.LBB11_144>
    3f3c:	c0000d37          	lui	s10,0xc0000

0000000000003f40 <.LBB11_144>:
    3f40:	65a13423          	sd	s10,1608(sp)
    3f44:	50813583          	ld	a1,1288(sp)
    3f48:	01e585b3          	add	a1,a1,t5
    3f4c:	00001d37          	lui	s10,0x1
    3f50:	01a10d33          	add	s10,sp,s10
    3f54:	888d3d03          	ld	s10,-1912(s10) # 888 <.LBB11_2+0x3c>
    3f58:	01a585b3          	add	a1,a1,s10
    3f5c:	ffff4d37          	lui	s10,0xffff4
    3f60:	01a585b3          	add	a1,a1,s10
    3f64:	40a585bb          	subw	a1,a1,a0
    3f68:	40000d37          	lui	s10,0x40000
    3f6c:	50b13423          	sd	a1,1288(sp)
    3f70:	0005d463          	bgez	a1,3f78 <.LBB11_146>
    3f74:	c0000d37          	lui	s10,0xc0000

0000000000003f78 <.LBB11_146>:
    3f78:	4fa13823          	sd	s10,1264(sp)
    3f7c:	48813583          	ld	a1,1160(sp)
    3f80:	01d585b3          	add	a1,a1,t4
    3f84:	00001d37          	lui	s10,0x1
    3f88:	01a10d33          	add	s10,sp,s10
    3f8c:	880d3d03          	ld	s10,-1920(s10) # 880 <.LBB11_2+0x34>
    3f90:	01a585b3          	add	a1,a1,s10
    3f94:	ffff4d37          	lui	s10,0xffff4
    3f98:	01a585b3          	add	a1,a1,s10
    3f9c:	40a585bb          	subw	a1,a1,a0
    3fa0:	40000d37          	lui	s10,0x40000
    3fa4:	48b13423          	sd	a1,1160(sp)
    3fa8:	0005d463          	bgez	a1,3fb0 <.LBB11_148>
    3fac:	c0000d37          	lui	s10,0xc0000

0000000000003fb0 <.LBB11_148>:
    3fb0:	47a13823          	sd	s10,1136(sp)
    3fb4:	47813583          	ld	a1,1144(sp)
    3fb8:	01c585b3          	add	a1,a1,t3
    3fbc:	017585b3          	add	a1,a1,s7
    3fc0:	ffff4d37          	lui	s10,0xffff4
    3fc4:	01a585b3          	add	a1,a1,s10
    3fc8:	40a585bb          	subw	a1,a1,a0
    3fcc:	40000d37          	lui	s10,0x40000
    3fd0:	40b13423          	sd	a1,1032(sp)
    3fd4:	0005d463          	bgez	a1,3fdc <.LBB11_150>
    3fd8:	c0000d37          	lui	s10,0xc0000

0000000000003fdc <.LBB11_150>:
    3fdc:	3fa13823          	sd	s10,1008(sp)
    3fe0:	4c813583          	ld	a1,1224(sp)
    3fe4:	007585b3          	add	a1,a1,t2
    3fe8:	00d585b3          	add	a1,a1,a3
    3fec:	ffff4d37          	lui	s10,0xffff4
    3ff0:	01a585b3          	add	a1,a1,s10
    3ff4:	40a585bb          	subw	a1,a1,a0
    3ff8:	40000d37          	lui	s10,0x40000
    3ffc:	38b13423          	sd	a1,904(sp)
    4000:	0005d463          	bgez	a1,4008 <.LBB11_152>
    4004:	c0000d37          	lui	s10,0xc0000

0000000000004008 <.LBB11_152>:
    4008:	37a13823          	sd	s10,880(sp)
    400c:	4e013583          	ld	a1,1248(sp)
    4010:	006585b3          	add	a1,a1,t1
    4014:	016585b3          	add	a1,a1,s6
    4018:	ffff4d37          	lui	s10,0xffff4
    401c:	01a585b3          	add	a1,a1,s10
    4020:	40a585bb          	subw	a1,a1,a0
    4024:	40000d37          	lui	s10,0x40000
    4028:	30b13423          	sd	a1,776(sp)
    402c:	0005d463          	bgez	a1,4034 <.LBB11_154>
    4030:	c0000d37          	lui	s10,0xc0000

0000000000004034 <.LBB11_154>:
    4034:	2fa13823          	sd	s10,752(sp)
    4038:	64013583          	ld	a1,1600(sp)
    403c:	005585b3          	add	a1,a1,t0
    4040:	019585b3          	add	a1,a1,s9
    4044:	ffff4d37          	lui	s10,0xffff4
    4048:	01a585b3          	add	a1,a1,s10
    404c:	40a585bb          	subw	a1,a1,a0
    4050:	40000d37          	lui	s10,0x40000
    4054:	28b13823          	sd	a1,656(sp)
    4058:	0005d463          	bgez	a1,4060 <.LBB11_156>
    405c:	c0000d37          	lui	s10,0xc0000

0000000000004060 <.LBB11_156>:
    4060:	27a13c23          	sd	s10,632(sp)
    4064:	66813583          	ld	a1,1640(sp)
    4068:	010585b3          	add	a1,a1,a6
    406c:	015585b3          	add	a1,a1,s5
    4070:	ffff4d37          	lui	s10,0xffff4
    4074:	01a585b3          	add	a1,a1,s10
    4078:	40a585bb          	subw	a1,a1,a0
    407c:	40000d37          	lui	s10,0x40000
    4080:	22b13023          	sd	a1,544(sp)
    4084:	0005d463          	bgez	a1,408c <.LBB11_158>
    4088:	c0000d37          	lui	s10,0xc0000

000000000000408c <.LBB11_158>:
    408c:	21a13423          	sd	s10,520(sp)
    4090:	67013583          	ld	a1,1648(sp)
    4094:	011585b3          	add	a1,a1,a7
    4098:	014585b3          	add	a1,a1,s4
    409c:	ffff4d37          	lui	s10,0xffff4
    40a0:	01a585b3          	add	a1,a1,s10
    40a4:	40a585bb          	subw	a1,a1,a0
    40a8:	40000d37          	lui	s10,0x40000
    40ac:	1ab13423          	sd	a1,424(sp)
    40b0:	0005d463          	bgez	a1,40b8 <.LBB11_160>
    40b4:	c0000d37          	lui	s10,0xc0000

00000000000040b8 <.LBB11_160>:
    40b8:	19a13823          	sd	s10,400(sp)
    40bc:	68013583          	ld	a1,1664(sp)
    40c0:	00e585b3          	add	a1,a1,a4
    40c4:	018585b3          	add	a1,a1,s8
    40c8:	ffff4d37          	lui	s10,0xffff4
    40cc:	01a585b3          	add	a1,a1,s10
    40d0:	40a585bb          	subw	a1,a1,a0
    40d4:	40000d37          	lui	s10,0x40000
    40d8:	12b13c23          	sd	a1,312(sp)
    40dc:	0005d463          	bgez	a1,40e4 <.LBB11_162>
    40e0:	c0000d37          	lui	s10,0xc0000

00000000000040e4 <.LBB11_162>:
    40e4:	13a13023          	sd	s10,288(sp)
    40e8:	6a013583          	ld	a1,1696(sp)
    40ec:	00f585b3          	add	a1,a1,a5
    40f0:	013585b3          	add	a1,a1,s3
    40f4:	ffff4d37          	lui	s10,0xffff4
    40f8:	01a585b3          	add	a1,a1,s10
    40fc:	40a585bb          	subw	a1,a1,a0
    4100:	40000537          	lui	a0,0x40000
    4104:	0cb13423          	sd	a1,200(sp)
    4108:	0005d463          	bgez	a1,4110 <.LBB11_164>
    410c:	c0000537          	lui	a0,0xc0000

0000000000004110 <.LBB11_164>:
    4110:	0aa13823          	sd	a0,176(sp)
    4114:	6b013503          	ld	a0,1712(sp)
    4118:	00c00593          	li	a1,12
    411c:	02b50533          	mul	a0,a0,a1
    4120:	67813583          	ld	a1,1656(sp)
    4124:	009585b3          	add	a1,a1,s1
    4128:	00001d37          	lui	s10,0x1
    412c:	01a10d33          	add	s10,sp,s10
    4130:	8b8d3d03          	ld	s10,-1864(s10) # 8b8 <.LBB11_2+0x6c>
    4134:	01a585b3          	add	a1,a1,s10
    4138:	ffff4d37          	lui	s10,0xffff4
    413c:	01a585b3          	add	a1,a1,s10
    4140:	40a585bb          	subw	a1,a1,a0
    4144:	40000d37          	lui	s10,0x40000
    4148:	6ab13823          	sd	a1,1712(sp)
    414c:	0005d463          	bgez	a1,4154 <.LBB11_166>
    4150:	c0000d37          	lui	s10,0xc0000

0000000000004154 <.LBB11_166>:
    4154:	6ba13023          	sd	s10,1696(sp)
    4158:	69013583          	ld	a1,1680(sp)
    415c:	00c585b3          	add	a1,a1,a2
    4160:	00001d37          	lui	s10,0x1
    4164:	01a10d33          	add	s10,sp,s10
    4168:	8b0d3d03          	ld	s10,-1872(s10) # 8b0 <.LBB11_2+0x64>
    416c:	01a585b3          	add	a1,a1,s10
    4170:	ffff4d37          	lui	s10,0xffff4
    4174:	01a585b3          	add	a1,a1,s10
    4178:	40a585bb          	subw	a1,a1,a0
    417c:	40000d37          	lui	s10,0x40000
    4180:	68b13823          	sd	a1,1680(sp)
    4184:	0005d463          	bgez	a1,418c <.LBB11_168>
    4188:	c0000d37          	lui	s10,0xc0000

000000000000418c <.LBB11_168>:
    418c:	69a13023          	sd	s10,1664(sp)
    4190:	68813583          	ld	a1,1672(sp)
    4194:	001585b3          	add	a1,a1,ra
    4198:	00001d37          	lui	s10,0x1
    419c:	01a10d33          	add	s10,sp,s10
    41a0:	8a8d3d03          	ld	s10,-1880(s10) # 8a8 <.LBB11_2+0x5c>
    41a4:	01a585b3          	add	a1,a1,s10
    41a8:	ffff4d37          	lui	s10,0xffff4
    41ac:	01a585b3          	add	a1,a1,s10
    41b0:	40a585bb          	subw	a1,a1,a0
    41b4:	40000d37          	lui	s10,0x40000
    41b8:	68b13423          	sd	a1,1672(sp)
    41bc:	0005d463          	bgez	a1,41c4 <.LBB11_170>
    41c0:	c0000d37          	lui	s10,0xc0000

00000000000041c4 <.LBB11_170>:
    41c4:	67a13c23          	sd	s10,1656(sp)
    41c8:	69813583          	ld	a1,1688(sp)
    41cc:	012585b3          	add	a1,a1,s2
    41d0:	00001d37          	lui	s10,0x1
    41d4:	01a10d33          	add	s10,sp,s10
    41d8:	8a0d3d03          	ld	s10,-1888(s10) # 8a0 <.LBB11_2+0x54>
    41dc:	01a585b3          	add	a1,a1,s10
    41e0:	ffff4d37          	lui	s10,0xffff4
    41e4:	01a585b3          	add	a1,a1,s10
    41e8:	40a585bb          	subw	a1,a1,a0
    41ec:	40000d37          	lui	s10,0x40000
    41f0:	68b13c23          	sd	a1,1688(sp)
    41f4:	0005d463          	bgez	a1,41fc <.LBB11_172>
    41f8:	c0000d37          	lui	s10,0xc0000

00000000000041fc <.LBB11_172>:
    41fc:	67a13823          	sd	s10,1648(sp)
    4200:	6a813583          	ld	a1,1704(sp)
    4204:	01f585b3          	add	a1,a1,t6
    4208:	00001d37          	lui	s10,0x1
    420c:	01a10d33          	add	s10,sp,s10
    4210:	898d3d03          	ld	s10,-1896(s10) # 898 <.LBB11_2+0x4c>
    4214:	01a585b3          	add	a1,a1,s10
    4218:	ffff4d37          	lui	s10,0xffff4
    421c:	01a585b3          	add	a1,a1,s10
    4220:	40a585bb          	subw	a1,a1,a0
    4224:	40000d37          	lui	s10,0x40000
    4228:	6ab13423          	sd	a1,1704(sp)
    422c:	0005d463          	bgez	a1,4234 <.LBB11_174>
    4230:	c0000d37          	lui	s10,0xc0000

0000000000004234 <.LBB11_174>:
    4234:	67a13423          	sd	s10,1640(sp)
    4238:	65013583          	ld	a1,1616(sp)
    423c:	01b585b3          	add	a1,a1,s11
    4240:	00001d37          	lui	s10,0x1
    4244:	01a10d33          	add	s10,sp,s10
    4248:	890d3d03          	ld	s10,-1904(s10) # 890 <.LBB11_2+0x44>
    424c:	01a585b3          	add	a1,a1,s10
    4250:	ffff4d37          	lui	s10,0xffff4
    4254:	01a585b3          	add	a1,a1,s10
    4258:	40a585bb          	subw	a1,a1,a0
    425c:	40000d37          	lui	s10,0x40000
    4260:	64b13823          	sd	a1,1616(sp)
    4264:	0005d463          	bgez	a1,426c <.LBB11_176>
    4268:	c0000d37          	lui	s10,0xc0000

000000000000426c <.LBB11_176>:
    426c:	65a13023          	sd	s10,1600(sp)
    4270:	4f813583          	ld	a1,1272(sp)
    4274:	01e585b3          	add	a1,a1,t5
    4278:	00001d37          	lui	s10,0x1
    427c:	01a10d33          	add	s10,sp,s10
    4280:	888d3d03          	ld	s10,-1912(s10) # 888 <.LBB11_2+0x3c>
    4284:	01a585b3          	add	a1,a1,s10
    4288:	ffff4d37          	lui	s10,0xffff4
    428c:	01a585b3          	add	a1,a1,s10
    4290:	40a585bb          	subw	a1,a1,a0
    4294:	40000d37          	lui	s10,0x40000
    4298:	4eb13c23          	sd	a1,1272(sp)
    429c:	0005d463          	bgez	a1,42a4 <.LBB11_178>
    42a0:	c0000d37          	lui	s10,0xc0000

00000000000042a4 <.LBB11_178>:
    42a4:	4fa13023          	sd	s10,1248(sp)
    42a8:	4d013583          	ld	a1,1232(sp)
    42ac:	01d585b3          	add	a1,a1,t4
    42b0:	00001d37          	lui	s10,0x1
    42b4:	01a10d33          	add	s10,sp,s10
    42b8:	880d3d03          	ld	s10,-1920(s10) # 880 <.LBB11_2+0x34>
    42bc:	01a585b3          	add	a1,a1,s10
    42c0:	ffff4d37          	lui	s10,0xffff4
    42c4:	01a585b3          	add	a1,a1,s10
    42c8:	40a585bb          	subw	a1,a1,a0
    42cc:	40000d37          	lui	s10,0x40000
    42d0:	46b13c23          	sd	a1,1144(sp)
    42d4:	0005d463          	bgez	a1,42dc <.LBB11_180>
    42d8:	c0000d37          	lui	s10,0xc0000

00000000000042dc <.LBB11_180>:
    42dc:	47a13023          	sd	s10,1120(sp)
    42e0:	4d813583          	ld	a1,1240(sp)
    42e4:	01c585b3          	add	a1,a1,t3
    42e8:	017585b3          	add	a1,a1,s7
    42ec:	ffff4d37          	lui	s10,0xffff4
    42f0:	01a585b3          	add	a1,a1,s10
    42f4:	40a585bb          	subw	a1,a1,a0
    42f8:	40000d37          	lui	s10,0x40000
    42fc:	3eb13c23          	sd	a1,1016(sp)
    4300:	0005d463          	bgez	a1,4308 <.LBB11_182>
    4304:	c0000d37          	lui	s10,0xc0000

0000000000004308 <.LBB11_182>:
    4308:	3fa13023          	sd	s10,992(sp)
    430c:	4e813583          	ld	a1,1256(sp)
    4310:	007585b3          	add	a1,a1,t2
    4314:	00d585b3          	add	a1,a1,a3
    4318:	ffff4d37          	lui	s10,0xffff4
    431c:	01a585b3          	add	a1,a1,s10
    4320:	40a585bb          	subw	a1,a1,a0
    4324:	40000d37          	lui	s10,0x40000
    4328:	36b13c23          	sd	a1,888(sp)
    432c:	0005d463          	bgez	a1,4334 <.LBB11_184>
    4330:	c0000d37          	lui	s10,0xc0000

0000000000004334 <.LBB11_184>:
    4334:	37a13023          	sd	s10,864(sp)
    4338:	57813583          	ld	a1,1400(sp)
    433c:	006585b3          	add	a1,a1,t1
    4340:	016585b3          	add	a1,a1,s6
    4344:	ffff4d37          	lui	s10,0xffff4
    4348:	01a585b3          	add	a1,a1,s10
    434c:	40a585bb          	subw	a1,a1,a0
    4350:	40000d37          	lui	s10,0x40000
    4354:	2eb13c23          	sd	a1,760(sp)
    4358:	0005d463          	bgez	a1,4360 <.LBB11_186>
    435c:	c0000d37          	lui	s10,0xc0000

0000000000004360 <.LBB11_186>:
    4360:	2fa13023          	sd	s10,736(sp)
    4364:	59813583          	ld	a1,1432(sp)
    4368:	005585b3          	add	a1,a1,t0
    436c:	019585b3          	add	a1,a1,s9
    4370:	ffff4d37          	lui	s10,0xffff4
    4374:	01a585b3          	add	a1,a1,s10
    4378:	40a585bb          	subw	a1,a1,a0
    437c:	40000d37          	lui	s10,0x40000
    4380:	28b13023          	sd	a1,640(sp)
    4384:	0005d463          	bgez	a1,438c <.LBB11_188>
    4388:	c0000d37          	lui	s10,0xc0000

000000000000438c <.LBB11_188>:
    438c:	27a13423          	sd	s10,616(sp)
    4390:	5b013583          	ld	a1,1456(sp)
    4394:	010585b3          	add	a1,a1,a6
    4398:	015585b3          	add	a1,a1,s5
    439c:	ffff4d37          	lui	s10,0xffff4
    43a0:	01a585b3          	add	a1,a1,s10
    43a4:	40a585bb          	subw	a1,a1,a0
    43a8:	40000d37          	lui	s10,0x40000
    43ac:	20b13823          	sd	a1,528(sp)
    43b0:	0005d463          	bgez	a1,43b8 <.LBB11_190>
    43b4:	c0000d37          	lui	s10,0xc0000

00000000000043b8 <.LBB11_190>:
    43b8:	1fa13c23          	sd	s10,504(sp)
    43bc:	5c813583          	ld	a1,1480(sp)
    43c0:	011585b3          	add	a1,a1,a7
    43c4:	014585b3          	add	a1,a1,s4
    43c8:	ffff4d37          	lui	s10,0xffff4
    43cc:	01a585b3          	add	a1,a1,s10
    43d0:	40a585bb          	subw	a1,a1,a0
    43d4:	40000d37          	lui	s10,0x40000
    43d8:	18b13c23          	sd	a1,408(sp)
    43dc:	0005d463          	bgez	a1,43e4 <.LBB11_192>
    43e0:	c0000d37          	lui	s10,0xc0000

00000000000043e4 <.LBB11_192>:
    43e4:	19a13023          	sd	s10,384(sp)
    43e8:	62013583          	ld	a1,1568(sp)
    43ec:	00e585b3          	add	a1,a1,a4
    43f0:	018585b3          	add	a1,a1,s8
    43f4:	ffff4d37          	lui	s10,0xffff4
    43f8:	01a585b3          	add	a1,a1,s10
    43fc:	40a585bb          	subw	a1,a1,a0
    4400:	40000d37          	lui	s10,0x40000
    4404:	12b13423          	sd	a1,296(sp)
    4408:	0005d463          	bgez	a1,4410 <.LBB11_194>
    440c:	c0000d37          	lui	s10,0xc0000

0000000000004410 <.LBB11_194>:
    4410:	11a13823          	sd	s10,272(sp)
    4414:	63013583          	ld	a1,1584(sp)
    4418:	00f585b3          	add	a1,a1,a5
    441c:	013585b3          	add	a1,a1,s3
    4420:	ffff4d37          	lui	s10,0xffff4
    4424:	01a585b3          	add	a1,a1,s10
    4428:	40a585bb          	subw	a1,a1,a0
    442c:	40000537          	lui	a0,0x40000
    4430:	0ab13c23          	sd	a1,184(sp)
    4434:	0005d463          	bgez	a1,443c <.LBB11_196>
    4438:	c0000537          	lui	a0,0xc0000

000000000000443c <.LBB11_196>:
    443c:	0aa13023          	sd	a0,160(sp)
    4440:	63813503          	ld	a0,1592(sp)
    4444:	00c00593          	li	a1,12
    4448:	02b50533          	mul	a0,a0,a1
    444c:	60013583          	ld	a1,1536(sp)
    4450:	009585b3          	add	a1,a1,s1
    4454:	00001d37          	lui	s10,0x1
    4458:	01a10d33          	add	s10,sp,s10
    445c:	8b8d3d03          	ld	s10,-1864(s10) # 8b8 <.LBB11_2+0x6c>
    4460:	01a585b3          	add	a1,a1,s10
    4464:	ffff4d37          	lui	s10,0xffff4
    4468:	01a585b3          	add	a1,a1,s10
    446c:	40a585bb          	subw	a1,a1,a0
    4470:	40000d37          	lui	s10,0x40000
    4474:	62b13823          	sd	a1,1584(sp)
    4478:	0005d463          	bgez	a1,4480 <.LBB11_198>
    447c:	c0000d37          	lui	s10,0xc0000

0000000000004480 <.LBB11_198>:
    4480:	63a13023          	sd	s10,1568(sp)
    4484:	61013583          	ld	a1,1552(sp)
    4488:	00c585b3          	add	a1,a1,a2
    448c:	00001637          	lui	a2,0x1
    4490:	00c10633          	add	a2,sp,a2
    4494:	8b063603          	ld	a2,-1872(a2) # 8b0 <.LBB11_2+0x64>
    4498:	00c585b3          	add	a1,a1,a2
    449c:	ffff4637          	lui	a2,0xffff4
    44a0:	00c585b3          	add	a1,a1,a2
    44a4:	40a585bb          	subw	a1,a1,a0
    44a8:	40000637          	lui	a2,0x40000
    44ac:	00001d37          	lui	s10,0x1
    44b0:	01a10d33          	add	s10,sp,s10
    44b4:	8d0d3d03          	ld	s10,-1840(s10) # 8d0 <.LBB11_2+0x84>
    44b8:	60b13823          	sd	a1,1552(sp)
    44bc:	0005d463          	bgez	a1,44c4 <.LBB11_200>
    44c0:	c0000637          	lui	a2,0xc0000

00000000000044c4 <.LBB11_200>:
    44c4:	60c13023          	sd	a2,1536(sp)
    44c8:	60813583          	ld	a1,1544(sp)
    44cc:	001585b3          	add	a1,a1,ra
    44d0:	00001637          	lui	a2,0x1
    44d4:	00c10633          	add	a2,sp,a2
    44d8:	8a863603          	ld	a2,-1880(a2) # 8a8 <.LBB11_2+0x5c>
    44dc:	00c585b3          	add	a1,a1,a2
    44e0:	ffff4637          	lui	a2,0xffff4
    44e4:	00c585b3          	add	a1,a1,a2
    44e8:	40a585bb          	subw	a1,a1,a0
    44ec:	40000637          	lui	a2,0x40000
    44f0:	60b13423          	sd	a1,1544(sp)
    44f4:	0005d463          	bgez	a1,44fc <.LBB11_202>
    44f8:	c0000637          	lui	a2,0xc0000

00000000000044fc <.LBB11_202>:
    44fc:	5cc13423          	sd	a2,1480(sp)
    4500:	61813583          	ld	a1,1560(sp)
    4504:	012585b3          	add	a1,a1,s2
    4508:	00001637          	lui	a2,0x1
    450c:	00c10633          	add	a2,sp,a2
    4510:	8a063603          	ld	a2,-1888(a2) # 8a0 <.LBB11_2+0x54>
    4514:	00c585b3          	add	a1,a1,a2
    4518:	ffff4637          	lui	a2,0xffff4
    451c:	00c585b3          	add	a1,a1,a2
    4520:	40a585bb          	subw	a1,a1,a0
    4524:	40000637          	lui	a2,0x40000
    4528:	60b13c23          	sd	a1,1560(sp)
    452c:	0005d463          	bgez	a1,4534 <.LBB11_204>
    4530:	c0000637          	lui	a2,0xc0000

0000000000004534 <.LBB11_204>:
    4534:	5ac13823          	sd	a2,1456(sp)
    4538:	62813583          	ld	a1,1576(sp)
    453c:	01f585b3          	add	a1,a1,t6
    4540:	00001637          	lui	a2,0x1
    4544:	00c10633          	add	a2,sp,a2
    4548:	89863603          	ld	a2,-1896(a2) # 898 <.LBB11_2+0x4c>
    454c:	00c585b3          	add	a1,a1,a2
    4550:	ffff4637          	lui	a2,0xffff4
    4554:	00c585b3          	add	a1,a1,a2
    4558:	40a585bb          	subw	a1,a1,a0
    455c:	40000637          	lui	a2,0x40000
    4560:	62b13423          	sd	a1,1576(sp)
    4564:	0005d463          	bgez	a1,456c <.LBB11_206>
    4568:	c0000637          	lui	a2,0xc0000

000000000000456c <.LBB11_206>:
    456c:	58c13c23          	sd	a2,1432(sp)
    4570:	58013583          	ld	a1,1408(sp)
    4574:	01b585b3          	add	a1,a1,s11
    4578:	00001637          	lui	a2,0x1
    457c:	00c10633          	add	a2,sp,a2
    4580:	89063603          	ld	a2,-1904(a2) # 890 <.LBB11_2+0x44>
    4584:	00c585b3          	add	a1,a1,a2
    4588:	ffff4637          	lui	a2,0xffff4
    458c:	00c585b3          	add	a1,a1,a2
    4590:	40a585bb          	subw	a1,a1,a0
    4594:	40000637          	lui	a2,0x40000
    4598:	62b13c23          	sd	a1,1592(sp)
    459c:	0005d463          	bgez	a1,45a4 <.LBB11_208>
    45a0:	c0000637          	lui	a2,0xc0000

00000000000045a4 <.LBB11_208>:
    45a4:	58c13023          	sd	a2,1408(sp)
    45a8:	58813583          	ld	a1,1416(sp)
    45ac:	01e585b3          	add	a1,a1,t5
    45b0:	00001637          	lui	a2,0x1
    45b4:	00c10633          	add	a2,sp,a2
    45b8:	88863603          	ld	a2,-1912(a2) # 888 <.LBB11_2+0x3c>
    45bc:	00c585b3          	add	a1,a1,a2
    45c0:	ffff4637          	lui	a2,0xffff4
    45c4:	00c585b3          	add	a1,a1,a2
    45c8:	40a585bb          	subw	a1,a1,a0
    45cc:	40000637          	lui	a2,0x40000
    45d0:	4eb13423          	sd	a1,1256(sp)
    45d4:	0005d463          	bgez	a1,45dc <.LBB11_210>
    45d8:	c0000637          	lui	a2,0xc0000

00000000000045dc <.LBB11_210>:
    45dc:	4cc13823          	sd	a2,1232(sp)
    45e0:	59013583          	ld	a1,1424(sp)
    45e4:	01d585b3          	add	a1,a1,t4
    45e8:	00001637          	lui	a2,0x1
    45ec:	00c10633          	add	a2,sp,a2
    45f0:	88063603          	ld	a2,-1920(a2) # 880 <.LBB11_2+0x34>
    45f4:	00c585b3          	add	a1,a1,a2
    45f8:	ffff4637          	lui	a2,0xffff4
    45fc:	00c585b3          	add	a1,a1,a2
    4600:	40a585bb          	subw	a1,a1,a0
    4604:	40000637          	lui	a2,0x40000
    4608:	46b13423          	sd	a1,1128(sp)
    460c:	0005d463          	bgez	a1,4614 <.LBB11_212>
    4610:	c0000637          	lui	a2,0xc0000

0000000000004614 <.LBB11_212>:
    4614:	44c13823          	sd	a2,1104(sp)
    4618:	5a013583          	ld	a1,1440(sp)
    461c:	01c585b3          	add	a1,a1,t3
    4620:	017585b3          	add	a1,a1,s7
    4624:	ffff4637          	lui	a2,0xffff4
    4628:	00c585b3          	add	a1,a1,a2
    462c:	40a585bb          	subw	a1,a1,a0
    4630:	40000637          	lui	a2,0x40000
    4634:	3eb13423          	sd	a1,1000(sp)
    4638:	0005d463          	bgez	a1,4640 <.LBB11_214>
    463c:	c0000637          	lui	a2,0xc0000

0000000000004640 <.LBB11_214>:
    4640:	3cc13823          	sd	a2,976(sp)
    4644:	5a813583          	ld	a1,1448(sp)
    4648:	007585b3          	add	a1,a1,t2
    464c:	00d585b3          	add	a1,a1,a3
    4650:	ffff4637          	lui	a2,0xffff4
    4654:	00c585b3          	add	a1,a1,a2
    4658:	40a585bb          	subw	a1,a1,a0
    465c:	40000637          	lui	a2,0x40000
    4660:	36b13423          	sd	a1,872(sp)
    4664:	0005d463          	bgez	a1,466c <.LBB11_216>
    4668:	c0000637          	lui	a2,0xc0000

000000000000466c <.LBB11_216>:
    466c:	34c13823          	sd	a2,848(sp)
    4670:	5b813583          	ld	a1,1464(sp)
    4674:	006585b3          	add	a1,a1,t1
    4678:	016585b3          	add	a1,a1,s6
    467c:	ffff4637          	lui	a2,0xffff4
    4680:	00c585b3          	add	a1,a1,a2
    4684:	40a585bb          	subw	a1,a1,a0
    4688:	40000637          	lui	a2,0x40000
    468c:	2eb13423          	sd	a1,744(sp)
    4690:	0005d463          	bgez	a1,4698 <.LBB11_218>
    4694:	c0000637          	lui	a2,0xc0000

0000000000004698 <.LBB11_218>:
    4698:	2cc13c23          	sd	a2,728(sp)
    469c:	5c013583          	ld	a1,1472(sp)
    46a0:	005585b3          	add	a1,a1,t0
    46a4:	019585b3          	add	a1,a1,s9
    46a8:	ffff4637          	lui	a2,0xffff4
    46ac:	00c585b3          	add	a1,a1,a2
    46b0:	40a585bb          	subw	a1,a1,a0
    46b4:	40000637          	lui	a2,0x40000
    46b8:	26b13823          	sd	a1,624(sp)
    46bc:	0005d463          	bgez	a1,46c4 <.LBB11_220>
    46c0:	c0000637          	lui	a2,0xc0000

00000000000046c4 <.LBB11_220>:
    46c4:	26c13023          	sd	a2,608(sp)
    46c8:	5d013583          	ld	a1,1488(sp)
    46cc:	010585b3          	add	a1,a1,a6
    46d0:	015585b3          	add	a1,a1,s5
    46d4:	ffff4637          	lui	a2,0xffff4
    46d8:	00c585b3          	add	a1,a1,a2
    46dc:	40a585bb          	subw	a1,a1,a0
    46e0:	40000637          	lui	a2,0x40000
    46e4:	20b13023          	sd	a1,512(sp)
    46e8:	0005d463          	bgez	a1,46f0 <.LBB11_222>
    46ec:	c0000637          	lui	a2,0xc0000

00000000000046f0 <.LBB11_222>:
    46f0:	1ec13823          	sd	a2,496(sp)
    46f4:	5d813583          	ld	a1,1496(sp)
    46f8:	011585b3          	add	a1,a1,a7
    46fc:	014585b3          	add	a1,a1,s4
    4700:	ffff4637          	lui	a2,0xffff4
    4704:	00c585b3          	add	a1,a1,a2
    4708:	40a585bb          	subw	a1,a1,a0
    470c:	40000637          	lui	a2,0x40000
    4710:	18b13423          	sd	a1,392(sp)
    4714:	0005d463          	bgez	a1,471c <.LBB11_224>
    4718:	c0000637          	lui	a2,0xc0000

000000000000471c <.LBB11_224>:
    471c:	16c13c23          	sd	a2,376(sp)
    4720:	5e013583          	ld	a1,1504(sp)
    4724:	00e585b3          	add	a1,a1,a4
    4728:	018585b3          	add	a1,a1,s8
    472c:	ffff4637          	lui	a2,0xffff4
    4730:	00c585b3          	add	a1,a1,a2
    4734:	40a585bb          	subw	a1,a1,a0
    4738:	40000637          	lui	a2,0x40000
    473c:	10b13c23          	sd	a1,280(sp)
    4740:	0005d463          	bgez	a1,4748 <.LBB11_226>
    4744:	c0000637          	lui	a2,0xc0000

0000000000004748 <.LBB11_226>:
    4748:	10c13423          	sd	a2,264(sp)
    474c:	5e813583          	ld	a1,1512(sp)
    4750:	00f585b3          	add	a1,a1,a5
    4754:	013585b3          	add	a1,a1,s3
    4758:	ffff4637          	lui	a2,0xffff4
    475c:	00c585b3          	add	a1,a1,a2
    4760:	40a585bb          	subw	a1,a1,a0
    4764:	40000537          	lui	a0,0x40000
    4768:	0ab13423          	sd	a1,168(sp)
    476c:	0005d463          	bgez	a1,4774 <.LBB11_228>
    4770:	c0000537          	lui	a0,0xc0000

0000000000004774 <.LBB11_228>:
    4774:	08a13c23          	sd	a0,152(sp)
    4778:	5f013503          	ld	a0,1520(sp)
    477c:	00c00593          	li	a1,12
    4780:	02b50533          	mul	a0,a0,a1
    4784:	000015b7          	lui	a1,0x1
    4788:	00b105b3          	add	a1,sp,a1
    478c:	9005b583          	ld	a1,-1792(a1) # 900 <.LBB11_2+0xb4>
    4790:	009585b3          	add	a1,a1,s1
    4794:	00001637          	lui	a2,0x1
    4798:	00c10633          	add	a2,sp,a2
    479c:	8b863603          	ld	a2,-1864(a2) # 8b8 <.LBB11_2+0x6c>
    47a0:	00c585b3          	add	a1,a1,a2
    47a4:	ffff4637          	lui	a2,0xffff4
    47a8:	40c5063b          	subw	a2,a0,a2
    47ac:	40c585bb          	subw	a1,a1,a2
    47b0:	40000637          	lui	a2,0x40000
    47b4:	5eb13823          	sd	a1,1520(sp)
    47b8:	0005d463          	bgez	a1,47c0 <.LBB11_230>
    47bc:	c0000637          	lui	a2,0xc0000

00000000000047c0 <.LBB11_230>:
    47c0:	5ec13423          	sd	a2,1512(sp)
    47c4:	54013583          	ld	a1,1344(sp)
    47c8:	00001637          	lui	a2,0x1
    47cc:	00c10633          	add	a2,sp,a2
    47d0:	90863603          	ld	a2,-1784(a2) # 908 <.LBB11_2+0xbc>
    47d4:	00b605b3          	add	a1,a2,a1
    47d8:	00001637          	lui	a2,0x1
    47dc:	00c10633          	add	a2,sp,a2
    47e0:	8b063603          	ld	a2,-1872(a2) # 8b0 <.LBB11_2+0x64>
    47e4:	00c585b3          	add	a1,a1,a2
    47e8:	ffff4637          	lui	a2,0xffff4
    47ec:	40c5063b          	subw	a2,a0,a2
    47f0:	40c5863b          	subw	a2,a1,a2
    47f4:	400004b7          	lui	s1,0x40000
    47f8:	000015b7          	lui	a1,0x1
    47fc:	00b105b3          	add	a1,sp,a1
    4800:	9105b583          	ld	a1,-1776(a1) # 910 <.LBB11_2+0xc4>
    4804:	5ec13023          	sd	a2,1504(sp)
    4808:	00065463          	bgez	a2,4810 <.LBB11_232>
    480c:	c00004b7          	lui	s1,0xc0000

0000000000004810 <.LBB11_232>:
    4810:	001585b3          	add	a1,a1,ra
    4814:	00001637          	lui	a2,0x1
    4818:	00c10633          	add	a2,sp,a2
    481c:	8a863603          	ld	a2,-1880(a2) # 8a8 <.LBB11_2+0x5c>
    4820:	00c585b3          	add	a1,a1,a2
    4824:	ffff4637          	lui	a2,0xffff4
    4828:	40c5063b          	subw	a2,a0,a2
    482c:	40c585bb          	subw	a1,a1,a2
    4830:	40000637          	lui	a2,0x40000
    4834:	5cb13823          	sd	a1,1488(sp)
    4838:	0005d463          	bgez	a1,4840 <.LBB11_234>
    483c:	c0000637          	lui	a2,0xc0000

0000000000004840 <.LBB11_234>:
    4840:	5cc13023          	sd	a2,1472(sp)
    4844:	000015b7          	lui	a1,0x1
    4848:	00b105b3          	add	a1,sp,a1
    484c:	8c05b583          	ld	a1,-1856(a1) # 8c0 <.LBB11_2+0x74>
    4850:	012585b3          	add	a1,a1,s2
    4854:	00001637          	lui	a2,0x1
    4858:	00c10633          	add	a2,sp,a2
    485c:	8a063603          	ld	a2,-1888(a2) # 8a0 <.LBB11_2+0x54>
    4860:	00c585b3          	add	a1,a1,a2
    4864:	ffff4637          	lui	a2,0xffff4
    4868:	40c5063b          	subw	a2,a0,a2
    486c:	40c585bb          	subw	a1,a1,a2
    4870:	40000637          	lui	a2,0x40000
    4874:	5ab13c23          	sd	a1,1464(sp)
    4878:	0005d463          	bgez	a1,4880 <.LBB11_236>
    487c:	c0000637          	lui	a2,0xc0000

0000000000004880 <.LBB11_236>:
    4880:	5ac13423          	sd	a2,1448(sp)
    4884:	000015b7          	lui	a1,0x1
    4888:	00b105b3          	add	a1,sp,a1
    488c:	8c85b583          	ld	a1,-1848(a1) # 8c8 <.LBB11_2+0x7c>
    4890:	01f585b3          	add	a1,a1,t6
    4894:	00001637          	lui	a2,0x1
    4898:	00c10633          	add	a2,sp,a2
    489c:	89863603          	ld	a2,-1896(a2) # 898 <.LBB11_2+0x4c>
    48a0:	00c585b3          	add	a1,a1,a2
    48a4:	ffff4637          	lui	a2,0xffff4
    48a8:	40c5063b          	subw	a2,a0,a2
    48ac:	40c585bb          	subw	a1,a1,a2
    48b0:	40000637          	lui	a2,0x40000
    48b4:	5ab13023          	sd	a1,1440(sp)
    48b8:	0005d463          	bgez	a1,48c0 <.LBB11_238>
    48bc:	c0000637          	lui	a2,0xc0000

00000000000048c0 <.LBB11_238>:
    48c0:	58c13823          	sd	a2,1424(sp)
    48c4:	01bd05b3          	add	a1,s10,s11
    48c8:	00001637          	lui	a2,0x1
    48cc:	00c10633          	add	a2,sp,a2
    48d0:	89063603          	ld	a2,-1904(a2) # 890 <.LBB11_2+0x44>
    48d4:	00c585b3          	add	a1,a1,a2
    48d8:	ffff4637          	lui	a2,0xffff4
    48dc:	40c5063b          	subw	a2,a0,a2
    48e0:	40c585bb          	subw	a1,a1,a2
    48e4:	40000637          	lui	a2,0x40000
    48e8:	58b13423          	sd	a1,1416(sp)
    48ec:	0005d463          	bgez	a1,48f4 <.LBB11_240>
    48f0:	c0000637          	lui	a2,0xc0000

00000000000048f4 <.LBB11_240>:
    48f4:	56c13c23          	sd	a2,1400(sp)
    48f8:	000015b7          	lui	a1,0x1
    48fc:	00b105b3          	add	a1,sp,a1
    4900:	8d85b583          	ld	a1,-1832(a1) # 8d8 <.LBB11_2+0x8c>
    4904:	01e585b3          	add	a1,a1,t5
    4908:	00001637          	lui	a2,0x1
    490c:	00c10633          	add	a2,sp,a2
    4910:	88863603          	ld	a2,-1912(a2) # 888 <.LBB11_2+0x3c>
    4914:	00c585b3          	add	a1,a1,a2
    4918:	ffff4637          	lui	a2,0xffff4
    491c:	40c5063b          	subw	a2,a0,a2
    4920:	40c585bb          	subw	a1,a1,a2
    4924:	40000637          	lui	a2,0x40000
    4928:	01013d83          	ld	s11,16(sp)
    492c:	4cb13c23          	sd	a1,1240(sp)
    4930:	0005d463          	bgez	a1,4938 <.LBB11_242>
    4934:	c0000637          	lui	a2,0xc0000

0000000000004938 <.LBB11_242>:
    4938:	4cc13423          	sd	a2,1224(sp)
    493c:	000015b7          	lui	a1,0x1
    4940:	00b105b3          	add	a1,sp,a1
    4944:	9185b583          	ld	a1,-1768(a1) # 918 <.LBB11_2+0xcc>
    4948:	01d585b3          	add	a1,a1,t4
    494c:	00001637          	lui	a2,0x1
    4950:	00c10633          	add	a2,sp,a2
    4954:	88063603          	ld	a2,-1920(a2) # 880 <.LBB11_2+0x34>
    4958:	00c585b3          	add	a1,a1,a2
    495c:	ffff4637          	lui	a2,0xffff4
    4960:	40c5063b          	subw	a2,a0,a2
    4964:	40c585bb          	subw	a1,a1,a2
    4968:	40000637          	lui	a2,0x40000
    496c:	01813f03          	ld	t5,24(sp)
    4970:	44b13c23          	sd	a1,1112(sp)
    4974:	0005d463          	bgez	a1,497c <.LBB11_244>
    4978:	c0000637          	lui	a2,0xc0000

000000000000497c <.LBB11_244>:
    497c:	44c13423          	sd	a2,1096(sp)
    4980:	000015b7          	lui	a1,0x1
    4984:	00b105b3          	add	a1,sp,a1
    4988:	8e05b583          	ld	a1,-1824(a1) # 8e0 <.LBB11_2+0x94>
    498c:	01c585b3          	add	a1,a1,t3
    4990:	017585b3          	add	a1,a1,s7
    4994:	ffff4637          	lui	a2,0xffff4
    4998:	40c5063b          	subw	a2,a0,a2
    499c:	40c585bb          	subw	a1,a1,a2
    49a0:	40000637          	lui	a2,0x40000
    49a4:	00001e37          	lui	t3,0x1
    49a8:	01c10e33          	add	t3,sp,t3
    49ac:	8f0e3e03          	ld	t3,-1808(t3) # 8f0 <.LBB11_2+0xa4>
    49b0:	00001eb7          	lui	t4,0x1
    49b4:	01d10eb3          	add	t4,sp,t4
    49b8:	828ebe83          	ld	t4,-2008(t4) # 828 <.LBB11_1+0x6f0>
    49bc:	3cb13c23          	sd	a1,984(sp)
    49c0:	0005d463          	bgez	a1,49c8 <.LBB11_246>
    49c4:	c0000637          	lui	a2,0xc0000

00000000000049c8 <.LBB11_246>:
    49c8:	3cc13423          	sd	a2,968(sp)
    49cc:	000015b7          	lui	a1,0x1
    49d0:	00b105b3          	add	a1,sp,a1
    49d4:	8e85b583          	ld	a1,-1816(a1) # 8e8 <.LBB11_2+0x9c>
    49d8:	007585b3          	add	a1,a1,t2
    49dc:	00d585b3          	add	a1,a1,a3
    49e0:	ffff4637          	lui	a2,0xffff4
    49e4:	40c5063b          	subw	a2,a0,a2
    49e8:	40c585bb          	subw	a1,a1,a2
    49ec:	40000637          	lui	a2,0x40000
    49f0:	34b13c23          	sd	a1,856(sp)
    49f4:	0005d463          	bgez	a1,49fc <.LBB11_248>
    49f8:	c0000637          	lui	a2,0xc0000

00000000000049fc <.LBB11_248>:
    49fc:	34c13423          	sd	a2,840(sp)
    4a00:	006e05b3          	add	a1,t3,t1
    4a04:	016585b3          	add	a1,a1,s6
    4a08:	ffff4637          	lui	a2,0xffff4
    4a0c:	40c5063b          	subw	a2,a0,a2
    4a10:	40c58e3b          	subw	t3,a1,a2
    4a14:	400005b7          	lui	a1,0x40000
    4a18:	00001637          	lui	a2,0x1
    4a1c:	00c10633          	add	a2,sp,a2
    4a20:	93063303          	ld	t1,-1744(a2) # 930 <.LBB11_2+0xe4>
    4a24:	000e5463          	bgez	t3,4a2c <.LBB11_250>
    4a28:	c00005b7          	lui	a1,0xc0000

0000000000004a2c <.LBB11_250>:
    4a2c:	2cb13823          	sd	a1,720(sp)
    4a30:	000015b7          	lui	a1,0x1
    4a34:	00b105b3          	add	a1,sp,a1
    4a38:	9205b583          	ld	a1,-1760(a1) # 920 <.LBB11_2+0xd4>
    4a3c:	005585b3          	add	a1,a1,t0
    4a40:	019585b3          	add	a1,a1,s9
    4a44:	ffff4637          	lui	a2,0xffff4
    4a48:	40c5063b          	subw	a2,a0,a2
    4a4c:	40c585bb          	subw	a1,a1,a2
    4a50:	40000cb7          	lui	s9,0x40000
    4a54:	7a813383          	ld	t2,1960(sp)
    4a58:	0005d463          	bgez	a1,4a60 <.LBB11_252>
    4a5c:	c0000cb7          	lui	s9,0xc0000

0000000000004a60 <.LBB11_252>:
    4a60:	00001637          	lui	a2,0x1
    4a64:	00c10633          	add	a2,sp,a2
    4a68:	92863603          	ld	a2,-1752(a2) # 928 <.LBB11_2+0xdc>
    4a6c:	01060633          	add	a2,a2,a6
    4a70:	01560633          	add	a2,a2,s5
    4a74:	ffff46b7          	lui	a3,0xffff4
    4a78:	40d506bb          	subw	a3,a0,a3
    4a7c:	40d6083b          	subw	a6,a2,a3
    4a80:	40000637          	lui	a2,0x40000
    4a84:	00085463          	bgez	a6,4a8c <.LBB11_254>
    4a88:	c0000637          	lui	a2,0xc0000

0000000000004a8c <.LBB11_254>:
    4a8c:	1ec13423          	sd	a2,488(sp)
    4a90:	01130633          	add	a2,t1,a7
    4a94:	01460633          	add	a2,a2,s4
    4a98:	ffff46b7          	lui	a3,0xffff4
    4a9c:	40d506bb          	subw	a3,a0,a3
    4aa0:	40d6063b          	subw	a2,a2,a3
    4aa4:	400002b7          	lui	t0,0x40000
    4aa8:	00065463          	bgez	a2,4ab0 <.LBB11_256>
    4aac:	c00002b7          	lui	t0,0xc0000

0000000000004ab0 <.LBB11_256>:
    4ab0:	000016b7          	lui	a3,0x1
    4ab4:	00d106b3          	add	a3,sp,a3
    4ab8:	8f86b683          	ld	a3,-1800(a3) # 8f8 <.LBB11_2+0xac>
    4abc:	00e686b3          	add	a3,a3,a4
    4ac0:	018686b3          	add	a3,a3,s8
    4ac4:	ffff4737          	lui	a4,0xffff4
    4ac8:	40e5073b          	subw	a4,a0,a4
    4acc:	40e6873b          	subw	a4,a3,a4
    4ad0:	40000337          	lui	t1,0x40000
    4ad4:	400008b7          	lui	a7,0x40000
    4ad8:	00075463          	bgez	a4,4ae0 <.LBB11_258>
    4adc:	c0000337          	lui	t1,0xc0000

0000000000004ae0 <.LBB11_258>:
    4ae0:	000016b7          	lui	a3,0x1
    4ae4:	00d106b3          	add	a3,sp,a3
    4ae8:	9386b683          	ld	a3,-1736(a3) # 938 <.LBB11_2+0xec>
    4aec:	00f686b3          	add	a3,a3,a5
    4af0:	013686b3          	add	a3,a3,s3
    4af4:	ffff47b7          	lui	a5,0xffff4
    4af8:	40f5053b          	subw	a0,a0,a5
    4afc:	40a686bb          	subw	a3,a3,a0
    4b00:	0006d463          	bgez	a3,4b08 <.LBB11_260>
    4b04:	c00008b7          	lui	a7,0xc0000

0000000000004b08 <.LBB11_260>:
    4b08:	10013503          	ld	a0,256(sp)
    4b0c:	03e50533          	mul	a0,a0,t5
    4b10:	0e813783          	ld	a5,232(sp)
    4b14:	01b787b3          	add	a5,a5,s11
    4b18:	00f50533          	add	a0,a0,a5
    4b1c:	42755093          	srai	ra,a0,0x27
    4b20:	f7f00b93          	li	s7,-129
    4b24:	001bc463          	blt	s7,ra,4b2c <.LBB11_262>
    4b28:	f7f00093          	li	ra,-129

0000000000004b2c <.LBB11_262>:
    4b2c:	5c913c23          	sd	s1,1496(sp)
    4b30:	17013503          	ld	a0,368(sp)
    4b34:	03e50533          	mul	a0,a0,t5
    4b38:	16813783          	ld	a5,360(sp)
    4b3c:	01b787b3          	add	a5,a5,s11
    4b40:	00f50533          	add	a0,a0,a5
    4b44:	42755f93          	srai	t6,a0,0x27
    4b48:	01fbc463          	blt	s7,t6,4b50 <.LBB11_264>
    4b4c:	f7f00f93          	li	t6,-129

0000000000004b50 <.LBB11_264>:
    4b50:	1e013503          	ld	a0,480(sp)
    4b54:	03e50533          	mul	a0,a0,t5
    4b58:	1d813783          	ld	a5,472(sp)
    4b5c:	01b787b3          	add	a5,a5,s11
    4b60:	00f50533          	add	a0,a0,a5
    4b64:	42755493          	srai	s1,a0,0x27
    4b68:	009bc463          	blt	s7,s1,4b70 <.LBB11_266>
    4b6c:	f7f00493          	li	s1,-129

0000000000004b70 <.LBB11_266>:
    4b70:	25813503          	ld	a0,600(sp)
    4b74:	03e50533          	mul	a0,a0,t5
    4b78:	25013783          	ld	a5,592(sp)
    4b7c:	01b787b3          	add	a5,a5,s11
    4b80:	00f50533          	add	a0,a0,a5
    4b84:	42755913          	srai	s2,a0,0x27
    4b88:	012bc463          	blt	s7,s2,4b90 <.LBB11_268>
    4b8c:	f7f00913          	li	s2,-129

0000000000004b90 <.LBB11_268>:
    4b90:	2c813503          	ld	a0,712(sp)
    4b94:	03e50533          	mul	a0,a0,t5
    4b98:	2c013783          	ld	a5,704(sp)
    4b9c:	01b787b3          	add	a5,a5,s11
    4ba0:	00f50533          	add	a0,a0,a5
    4ba4:	42755d13          	srai	s10,a0,0x27
    4ba8:	01abc463          	blt	s7,s10,4bb0 <.LBB11_270>
    4bac:	f7f00d13          	li	s10,-129

0000000000004bb0 <.LBB11_270>:
    4bb0:	34013503          	ld	a0,832(sp)
    4bb4:	03e50533          	mul	a0,a0,t5
    4bb8:	33813783          	ld	a5,824(sp)
    4bbc:	01b787b3          	add	a5,a5,s11
    4bc0:	00f50533          	add	a0,a0,a5
    4bc4:	42755993          	srai	s3,a0,0x27
    4bc8:	013bc463          	blt	s7,s3,4bd0 <.LBB11_272>
    4bcc:	f7f00993          	li	s3,-129

0000000000004bd0 <.LBB11_272>:
    4bd0:	3c013503          	ld	a0,960(sp)
    4bd4:	03e50533          	mul	a0,a0,t5
    4bd8:	3b813783          	ld	a5,952(sp)
    4bdc:	01b787b3          	add	a5,a5,s11
    4be0:	00f50533          	add	a0,a0,a5
    4be4:	42755a13          	srai	s4,a0,0x27
    4be8:	014bc463          	blt	s7,s4,4bf0 <.LBB11_274>
    4bec:	f7f00a13          	li	s4,-129

0000000000004bf0 <.LBB11_274>:
    4bf0:	44013503          	ld	a0,1088(sp)
    4bf4:	03e50533          	mul	a0,a0,t5
    4bf8:	43813783          	ld	a5,1080(sp)
    4bfc:	01b787b3          	add	a5,a5,s11
    4c00:	00f50533          	add	a0,a0,a5
    4c04:	42755a93          	srai	s5,a0,0x27
    4c08:	015bc463          	blt	s7,s5,4c10 <.LBB11_276>
    4c0c:	f7f00a93          	li	s5,-129

0000000000004c10 <.LBB11_276>:
    4c10:	4c013503          	ld	a0,1216(sp)
    4c14:	03e50533          	mul	a0,a0,t5
    4c18:	4b813783          	ld	a5,1208(sp)
    4c1c:	01b787b3          	add	a5,a5,s11
    4c20:	00f50533          	add	a0,a0,a5
    4c24:	42755b13          	srai	s6,a0,0x27
    4c28:	016bc463          	blt	s7,s6,4c30 <.LBB11_278>
    4c2c:	f7f00b13          	li	s6,-129

0000000000004c30 <.LBB11_278>:
    4c30:	5f813503          	ld	a0,1528(sp)
    4c34:	03e50533          	mul	a0,a0,t5
    4c38:	57013783          	ld	a5,1392(sp)
    4c3c:	01b787b3          	add	a5,a5,s11
    4c40:	00f50533          	add	a0,a0,a5
    4c44:	42755513          	srai	a0,a0,0x27
    4c48:	000017b7          	lui	a5,0x1
    4c4c:	00f107b3          	add	a5,sp,a5
    4c50:	92a7bc23          	sd	a0,-1736(a5) # 938 <.LBB11_2+0xec>
    4c54:	00abca63          	blt	s7,a0,4c68 <.LBB11_280>
    4c58:	f7f00513          	li	a0,-129
    4c5c:	000017b7          	lui	a5,0x1
    4c60:	00f107b3          	add	a5,sp,a5
    4c64:	92a7bc23          	sd	a0,-1736(a5) # 938 <.LBB11_2+0xec>

0000000000004c68 <.LBB11_280>:
    4c68:	73813503          	ld	a0,1848(sp)
    4c6c:	03e50533          	mul	a0,a0,t5
    4c70:	6e013783          	ld	a5,1760(sp)
    4c74:	01b787b3          	add	a5,a5,s11
    4c78:	00f50533          	add	a0,a0,a5
    4c7c:	42755513          	srai	a0,a0,0x27
    4c80:	000017b7          	lui	a5,0x1
    4c84:	00f107b3          	add	a5,sp,a5
    4c88:	92a7b823          	sd	a0,-1744(a5) # 930 <.LBB11_2+0xe4>
    4c8c:	00abca63          	blt	s7,a0,4ca0 <.LBB11_282>
    4c90:	f7f00513          	li	a0,-129
    4c94:	000017b7          	lui	a5,0x1
    4c98:	00f107b3          	add	a5,sp,a5
    4c9c:	92a7b823          	sd	a0,-1744(a5) # 930 <.LBB11_2+0xe4>

0000000000004ca0 <.LBB11_282>:
    4ca0:	7b813503          	ld	a0,1976(sp)
    4ca4:	03e50533          	mul	a0,a0,t5
    4ca8:	01b387b3          	add	a5,t2,s11
    4cac:	00f50533          	add	a0,a0,a5
    4cb0:	42755513          	srai	a0,a0,0x27
    4cb4:	000017b7          	lui	a5,0x1
    4cb8:	00f107b3          	add	a5,sp,a5
    4cbc:	92a7b023          	sd	a0,-1760(a5) # 920 <.LBB11_2+0xd4>
    4cc0:	00abca63          	blt	s7,a0,4cd4 <.LBB11_284>
    4cc4:	f7f00513          	li	a0,-129
    4cc8:	000017b7          	lui	a5,0x1
    4ccc:	00f107b3          	add	a5,sp,a5
    4cd0:	92a7b023          	sd	a0,-1760(a5) # 920 <.LBB11_2+0xd4>

0000000000004cd4 <.LBB11_284>:
    4cd4:	7e813503          	ld	a0,2024(sp)
    4cd8:	03e50533          	mul	a0,a0,t5
    4cdc:	7e013783          	ld	a5,2016(sp)
    4ce0:	01b787b3          	add	a5,a5,s11
    4ce4:	00f50533          	add	a0,a0,a5
    4ce8:	42755513          	srai	a0,a0,0x27
    4cec:	000017b7          	lui	a5,0x1
    4cf0:	00f107b3          	add	a5,sp,a5
    4cf4:	90a7b823          	sd	a0,-1776(a5) # 910 <.LBB11_2+0xc4>
    4cf8:	00abca63          	blt	s7,a0,4d0c <.LBB11_286>
    4cfc:	f7f00513          	li	a0,-129
    4d00:	000017b7          	lui	a5,0x1
    4d04:	00f107b3          	add	a5,sp,a5
    4d08:	90a7b823          	sd	a0,-1776(a5) # 910 <.LBB11_2+0xc4>

0000000000004d0c <.LBB11_286>:
    4d0c:	00001537          	lui	a0,0x1
    4d10:	00a10533          	add	a0,sp,a0
    4d14:	83853503          	ld	a0,-1992(a0) # 838 <.LBB11_1+0x700>
    4d18:	03e50533          	mul	a0,a0,t5
    4d1c:	01be87b3          	add	a5,t4,s11
    4d20:	00f50533          	add	a0,a0,a5
    4d24:	42755513          	srai	a0,a0,0x27
    4d28:	000017b7          	lui	a5,0x1
    4d2c:	00f107b3          	add	a5,sp,a5
    4d30:	90a7b023          	sd	a0,-1792(a5) # 900 <.LBB11_2+0xb4>
    4d34:	00abca63          	blt	s7,a0,4d48 <.LBB11_288>
    4d38:	f7f00513          	li	a0,-129
    4d3c:	000017b7          	lui	a5,0x1
    4d40:	00f107b3          	add	a5,sp,a5
    4d44:	90a7b023          	sd	a0,-1792(a5) # 900 <.LBB11_2+0xb4>

0000000000004d48 <.LBB11_288>:
    4d48:	00001537          	lui	a0,0x1
    4d4c:	00a10533          	add	a0,sp,a0
    4d50:	85853503          	ld	a0,-1960(a0) # 858 <.LBB11_2+0xc>
    4d54:	03e50533          	mul	a0,a0,t5
    4d58:	000017b7          	lui	a5,0x1
    4d5c:	00f107b3          	add	a5,sp,a5
    4d60:	8507b783          	ld	a5,-1968(a5) # 850 <.LBB11_2+0x4>
    4d64:	01b787b3          	add	a5,a5,s11
    4d68:	00f50533          	add	a0,a0,a5
    4d6c:	42755513          	srai	a0,a0,0x27
    4d70:	000017b7          	lui	a5,0x1
    4d74:	00f107b3          	add	a5,sp,a5
    4d78:	8ea7b823          	sd	a0,-1808(a5) # 8f0 <.LBB11_2+0xa4>
    4d7c:	00abca63          	blt	s7,a0,4d90 <.LBB11_290>
    4d80:	f7f00513          	li	a0,-129
    4d84:	000017b7          	lui	a5,0x1
    4d88:	00f107b3          	add	a5,sp,a5
    4d8c:	8ea7b823          	sd	a0,-1808(a5) # 8f0 <.LBB11_2+0xa4>

0000000000004d90 <.LBB11_290>:
    4d90:	00001537          	lui	a0,0x1
    4d94:	00a10533          	add	a0,sp,a0
    4d98:	87053503          	ld	a0,-1936(a0) # 870 <.LBB11_2+0x24>
    4d9c:	03e50533          	mul	a0,a0,t5
    4da0:	000017b7          	lui	a5,0x1
    4da4:	00f107b3          	add	a5,sp,a5
    4da8:	8787b783          	ld	a5,-1928(a5) # 878 <.LBB11_2+0x2c>
    4dac:	01b787b3          	add	a5,a5,s11
    4db0:	00f50533          	add	a0,a0,a5
    4db4:	42755513          	srai	a0,a0,0x27
    4db8:	5ea13c23          	sd	a0,1528(sp)
    4dbc:	00abc663          	blt	s7,a0,4dc8 <.LBB11_292>
    4dc0:	f7f00513          	li	a0,-129
    4dc4:	5ea13c23          	sd	a0,1528(sp)

0000000000004dc8 <.LBB11_292>:
    4dc8:	0f813503          	ld	a0,248(sp)
    4dcc:	03e50533          	mul	a0,a0,t5
    4dd0:	0e013783          	ld	a5,224(sp)
    4dd4:	01b787b3          	add	a5,a5,s11
    4dd8:	00f50533          	add	a0,a0,a5
    4ddc:	42755513          	srai	a0,a0,0x27
    4de0:	000017b7          	lui	a5,0x1
    4de4:	00f107b3          	add	a5,sp,a5
    4de8:	92a7b423          	sd	a0,-1752(a5) # 928 <.LBB11_2+0xdc>
    4dec:	00abca63          	blt	s7,a0,4e00 <.LBB11_294>
    4df0:	f7f00513          	li	a0,-129
    4df4:	000017b7          	lui	a5,0x1
    4df8:	00f107b3          	add	a5,sp,a5
    4dfc:	92a7b423          	sd	a0,-1752(a5) # 928 <.LBB11_2+0xdc>

0000000000004e00 <.LBB11_294>:
    4e00:	16013503          	ld	a0,352(sp)
    4e04:	03e50533          	mul	a0,a0,t5
    4e08:	15013783          	ld	a5,336(sp)
    4e0c:	01b787b3          	add	a5,a5,s11
    4e10:	00f50533          	add	a0,a0,a5
    4e14:	42755513          	srai	a0,a0,0x27
    4e18:	000017b7          	lui	a5,0x1
    4e1c:	00f107b3          	add	a5,sp,a5
    4e20:	90a7bc23          	sd	a0,-1768(a5) # 918 <.LBB11_2+0xcc>
    4e24:	00abca63          	blt	s7,a0,4e38 <.LBB11_296>
    4e28:	f7f00513          	li	a0,-129
    4e2c:	000017b7          	lui	a5,0x1
    4e30:	00f107b3          	add	a5,sp,a5
    4e34:	90a7bc23          	sd	a0,-1768(a5) # 918 <.LBB11_2+0xcc>

0000000000004e38 <.LBB11_296>:
    4e38:	1d013503          	ld	a0,464(sp)
    4e3c:	03e50533          	mul	a0,a0,t5
    4e40:	1c013783          	ld	a5,448(sp)
    4e44:	01b787b3          	add	a5,a5,s11
    4e48:	00f50533          	add	a0,a0,a5
    4e4c:	42755513          	srai	a0,a0,0x27
    4e50:	000017b7          	lui	a5,0x1
    4e54:	00f107b3          	add	a5,sp,a5
    4e58:	90a7b423          	sd	a0,-1784(a5) # 908 <.LBB11_2+0xbc>
    4e5c:	00abca63          	blt	s7,a0,4e70 <.LBB11_298>
    4e60:	f7f00513          	li	a0,-129
    4e64:	000017b7          	lui	a5,0x1
    4e68:	00f107b3          	add	a5,sp,a5
    4e6c:	90a7b423          	sd	a0,-1784(a5) # 908 <.LBB11_2+0xbc>

0000000000004e70 <.LBB11_298>:
    4e70:	24813503          	ld	a0,584(sp)
    4e74:	03e50533          	mul	a0,a0,t5
    4e78:	23813783          	ld	a5,568(sp)
    4e7c:	01b787b3          	add	a5,a5,s11
    4e80:	00f50533          	add	a0,a0,a5
    4e84:	42755513          	srai	a0,a0,0x27
    4e88:	000017b7          	lui	a5,0x1
    4e8c:	00f107b3          	add	a5,sp,a5
    4e90:	8ea7bc23          	sd	a0,-1800(a5) # 8f8 <.LBB11_2+0xac>
    4e94:	00abca63          	blt	s7,a0,4ea8 <.LBB11_300>
    4e98:	f7f00513          	li	a0,-129
    4e9c:	000017b7          	lui	a5,0x1
    4ea0:	00f107b3          	add	a5,sp,a5
    4ea4:	8ea7bc23          	sd	a0,-1800(a5) # 8f8 <.LBB11_2+0xac>

0000000000004ea8 <.LBB11_300>:
    4ea8:	2b813503          	ld	a0,696(sp)
    4eac:	03e50533          	mul	a0,a0,t5
    4eb0:	2a813783          	ld	a5,680(sp)
    4eb4:	01b787b3          	add	a5,a5,s11
    4eb8:	00f50533          	add	a0,a0,a5
    4ebc:	42755513          	srai	a0,a0,0x27
    4ec0:	000017b7          	lui	a5,0x1
    4ec4:	00f107b3          	add	a5,sp,a5
    4ec8:	8ea7b423          	sd	a0,-1816(a5) # 8e8 <.LBB11_2+0x9c>
    4ecc:	00abca63          	blt	s7,a0,4ee0 <.LBB11_302>
    4ed0:	f7f00513          	li	a0,-129
    4ed4:	000017b7          	lui	a5,0x1
    4ed8:	00f107b3          	add	a5,sp,a5
    4edc:	8ea7b423          	sd	a0,-1816(a5) # 8e8 <.LBB11_2+0x9c>

0000000000004ee0 <.LBB11_302>:
    4ee0:	33013503          	ld	a0,816(sp)
    4ee4:	03e50533          	mul	a0,a0,t5
    4ee8:	32013783          	ld	a5,800(sp)
    4eec:	01b787b3          	add	a5,a5,s11
    4ef0:	00f50533          	add	a0,a0,a5
    4ef4:	42755513          	srai	a0,a0,0x27
    4ef8:	000017b7          	lui	a5,0x1
    4efc:	00f107b3          	add	a5,sp,a5
    4f00:	8ea7b023          	sd	a0,-1824(a5) # 8e0 <.LBB11_2+0x94>
    4f04:	00abca63          	blt	s7,a0,4f18 <.LBB11_304>
    4f08:	f7f00513          	li	a0,-129
    4f0c:	000017b7          	lui	a5,0x1
    4f10:	00f107b3          	add	a5,sp,a5
    4f14:	8ea7b023          	sd	a0,-1824(a5) # 8e0 <.LBB11_2+0x94>

0000000000004f18 <.LBB11_304>:
    4f18:	3b013503          	ld	a0,944(sp)
    4f1c:	03e50533          	mul	a0,a0,t5
    4f20:	3a013783          	ld	a5,928(sp)
    4f24:	01b787b3          	add	a5,a5,s11
    4f28:	00f50533          	add	a0,a0,a5
    4f2c:	42755513          	srai	a0,a0,0x27
    4f30:	000017b7          	lui	a5,0x1
    4f34:	00f107b3          	add	a5,sp,a5
    4f38:	8ca7bc23          	sd	a0,-1832(a5) # 8d8 <.LBB11_2+0x8c>
    4f3c:	00abca63          	blt	s7,a0,4f50 <.LBB11_306>
    4f40:	f7f00513          	li	a0,-129
    4f44:	000017b7          	lui	a5,0x1
    4f48:	00f107b3          	add	a5,sp,a5
    4f4c:	8ca7bc23          	sd	a0,-1832(a5) # 8d8 <.LBB11_2+0x8c>

0000000000004f50 <.LBB11_306>:
    4f50:	43013503          	ld	a0,1072(sp)
    4f54:	03e50533          	mul	a0,a0,t5
    4f58:	42013783          	ld	a5,1056(sp)
    4f5c:	01b787b3          	add	a5,a5,s11
    4f60:	00f50533          	add	a0,a0,a5
    4f64:	42755513          	srai	a0,a0,0x27
    4f68:	000017b7          	lui	a5,0x1
    4f6c:	00f107b3          	add	a5,sp,a5
    4f70:	8ca7b823          	sd	a0,-1840(a5) # 8d0 <.LBB11_2+0x84>
    4f74:	00abca63          	blt	s7,a0,4f88 <.LBB11_308>
    4f78:	f7f00513          	li	a0,-129
    4f7c:	000017b7          	lui	a5,0x1
    4f80:	00f107b3          	add	a5,sp,a5
    4f84:	8ca7b823          	sd	a0,-1840(a5) # 8d0 <.LBB11_2+0x84>

0000000000004f88 <.LBB11_308>:
    4f88:	4b013503          	ld	a0,1200(sp)
    4f8c:	03e50533          	mul	a0,a0,t5
    4f90:	4a013783          	ld	a5,1184(sp)
    4f94:	01b787b3          	add	a5,a5,s11
    4f98:	00f50533          	add	a0,a0,a5
    4f9c:	42755513          	srai	a0,a0,0x27
    4fa0:	000017b7          	lui	a5,0x1
    4fa4:	00f107b3          	add	a5,sp,a5
    4fa8:	8ca7b423          	sd	a0,-1848(a5) # 8c8 <.LBB11_2+0x7c>
    4fac:	00abca63          	blt	s7,a0,4fc0 <.LBB11_310>
    4fb0:	f7f00513          	li	a0,-129
    4fb4:	000017b7          	lui	a5,0x1
    4fb8:	00f107b3          	add	a5,sp,a5
    4fbc:	8ca7b423          	sd	a0,-1848(a5) # 8c8 <.LBB11_2+0x7c>

0000000000004fc0 <.LBB11_310>:
    4fc0:	56813503          	ld	a0,1384(sp)
    4fc4:	03e50533          	mul	a0,a0,t5
    4fc8:	55813783          	ld	a5,1368(sp)
    4fcc:	01b787b3          	add	a5,a5,s11
    4fd0:	00f50533          	add	a0,a0,a5
    4fd4:	42755513          	srai	a0,a0,0x27
    4fd8:	000017b7          	lui	a5,0x1
    4fdc:	00f107b3          	add	a5,sp,a5
    4fe0:	8ca7b023          	sd	a0,-1856(a5) # 8c0 <.LBB11_2+0x74>
    4fe4:	00abca63          	blt	s7,a0,4ff8 <.LBB11_312>
    4fe8:	f7f00513          	li	a0,-129
    4fec:	000017b7          	lui	a5,0x1
    4ff0:	00f107b3          	add	a5,sp,a5
    4ff4:	8ca7b023          	sd	a0,-1856(a5) # 8c0 <.LBB11_2+0x74>

0000000000004ff8 <.LBB11_312>:
    4ff8:	6d813503          	ld	a0,1752(sp)
    4ffc:	03e50533          	mul	a0,a0,t5
    5000:	6c813783          	ld	a5,1736(sp)
    5004:	01b787b3          	add	a5,a5,s11
    5008:	00f50533          	add	a0,a0,a5
    500c:	42755513          	srai	a0,a0,0x27
    5010:	000017b7          	lui	a5,0x1
    5014:	00f107b3          	add	a5,sp,a5
    5018:	8aa7bc23          	sd	a0,-1864(a5) # 8b8 <.LBB11_2+0x6c>
    501c:	00abca63          	blt	s7,a0,5030 <.LBB11_314>
    5020:	f7f00513          	li	a0,-129
    5024:	000017b7          	lui	a5,0x1
    5028:	00f107b3          	add	a5,sp,a5
    502c:	8aa7bc23          	sd	a0,-1864(a5) # 8b8 <.LBB11_2+0x6c>

0000000000005030 <.LBB11_314>:
    5030:	76813503          	ld	a0,1896(sp)
    5034:	03e50533          	mul	a0,a0,t5
    5038:	75813783          	ld	a5,1880(sp)
    503c:	01b787b3          	add	a5,a5,s11
    5040:	00f50533          	add	a0,a0,a5
    5044:	42755513          	srai	a0,a0,0x27
    5048:	000017b7          	lui	a5,0x1
    504c:	00f107b3          	add	a5,sp,a5
    5050:	8aa7b423          	sd	a0,-1880(a5) # 8a8 <.LBB11_2+0x5c>
    5054:	00abca63          	blt	s7,a0,5068 <.LBB11_316>
    5058:	f7f00513          	li	a0,-129
    505c:	000017b7          	lui	a5,0x1
    5060:	00f107b3          	add	a5,sp,a5
    5064:	8aa7b423          	sd	a0,-1880(a5) # 8a8 <.LBB11_2+0x5c>

0000000000005068 <.LBB11_316>:
    5068:	7d813503          	ld	a0,2008(sp)
    506c:	03e50533          	mul	a0,a0,t5
    5070:	7c813783          	ld	a5,1992(sp)
    5074:	01b787b3          	add	a5,a5,s11
    5078:	00f50533          	add	a0,a0,a5
    507c:	42755513          	srai	a0,a0,0x27
    5080:	000017b7          	lui	a5,0x1
    5084:	00f107b3          	add	a5,sp,a5
    5088:	88a7bc23          	sd	a0,-1896(a5) # 898 <.LBB11_2+0x4c>
    508c:	00abca63          	blt	s7,a0,50a0 <.LBB11_318>
    5090:	f7f00513          	li	a0,-129
    5094:	000017b7          	lui	a5,0x1
    5098:	00f107b3          	add	a5,sp,a5
    509c:	88a7bc23          	sd	a0,-1896(a5) # 898 <.LBB11_2+0x4c>

00000000000050a0 <.LBB11_318>:
    50a0:	00001537          	lui	a0,0x1
    50a4:	00a10533          	add	a0,sp,a0
    50a8:	81853503          	ld	a0,-2024(a0) # 818 <.LBB11_1+0x6e0>
    50ac:	03e50533          	mul	a0,a0,t5
    50b0:	7f813783          	ld	a5,2040(sp)
    50b4:	01b787b3          	add	a5,a5,s11
    50b8:	00f50533          	add	a0,a0,a5
    50bc:	42755513          	srai	a0,a0,0x27
    50c0:	000017b7          	lui	a5,0x1
    50c4:	00f107b3          	add	a5,sp,a5
    50c8:	88a7b423          	sd	a0,-1912(a5) # 888 <.LBB11_2+0x3c>
    50cc:	00abca63          	blt	s7,a0,50e0 <.LBB11_320>
    50d0:	f7f00513          	li	a0,-129
    50d4:	000017b7          	lui	a5,0x1
    50d8:	00f107b3          	add	a5,sp,a5
    50dc:	88a7b423          	sd	a0,-1912(a5) # 888 <.LBB11_2+0x3c>

00000000000050e0 <.LBB11_320>:
    50e0:	00001537          	lui	a0,0x1
    50e4:	00a10533          	add	a0,sp,a0
    50e8:	84853503          	ld	a0,-1976(a0) # 848 <.LBB11_1+0x710>
    50ec:	03e50533          	mul	a0,a0,t5
    50f0:	000017b7          	lui	a5,0x1
    50f4:	00f107b3          	add	a5,sp,a5
    50f8:	8407b783          	ld	a5,-1984(a5) # 840 <.LBB11_1+0x708>
    50fc:	01b787b3          	add	a5,a5,s11
    5100:	00f50533          	add	a0,a0,a5
    5104:	42755513          	srai	a0,a0,0x27
    5108:	000017b7          	lui	a5,0x1
    510c:	00f107b3          	add	a5,sp,a5
    5110:	86a7bc23          	sd	a0,-1928(a5) # 878 <.LBB11_2+0x2c>
    5114:	00abca63          	blt	s7,a0,5128 <.LBB11_322>
    5118:	f7f00513          	li	a0,-129
    511c:	000017b7          	lui	a5,0x1
    5120:	00f107b3          	add	a5,sp,a5
    5124:	86a7bc23          	sd	a0,-1928(a5) # 878 <.LBB11_2+0x2c>

0000000000005128 <.LBB11_322>:
    5128:	00001537          	lui	a0,0x1
    512c:	00a10533          	add	a0,sp,a0
    5130:	86853503          	ld	a0,-1944(a0) # 868 <.LBB11_2+0x1c>
    5134:	03e50533          	mul	a0,a0,t5
    5138:	000017b7          	lui	a5,0x1
    513c:	00f107b3          	add	a5,sp,a5
    5140:	8607b783          	ld	a5,-1952(a5) # 860 <.LBB11_2+0x14>
    5144:	01b787b3          	add	a5,a5,s11
    5148:	00f50533          	add	a0,a0,a5
    514c:	42755513          	srai	a0,a0,0x27
    5150:	000017b7          	lui	a5,0x1
    5154:	00f107b3          	add	a5,sp,a5
    5158:	86a7b423          	sd	a0,-1944(a5) # 868 <.LBB11_2+0x1c>
    515c:	00abca63          	blt	s7,a0,5170 <.LBB11_324>
    5160:	f7f00513          	li	a0,-129
    5164:	000017b7          	lui	a5,0x1
    5168:	00f107b3          	add	a5,sp,a5
    516c:	86a7b423          	sd	a0,-1944(a5) # 868 <.LBB11_2+0x1c>

0000000000005170 <.LBB11_324>:
    5170:	0f013503          	ld	a0,240(sp)
    5174:	03e50533          	mul	a0,a0,t5
    5178:	0d013783          	ld	a5,208(sp)
    517c:	01b787b3          	add	a5,a5,s11
    5180:	00f50533          	add	a0,a0,a5
    5184:	42755513          	srai	a0,a0,0x27
    5188:	000017b7          	lui	a5,0x1
    518c:	00f107b3          	add	a5,sp,a5
    5190:	8aa7b823          	sd	a0,-1872(a5) # 8b0 <.LBB11_2+0x64>
    5194:	00abca63          	blt	s7,a0,51a8 <.LBB11_326>
    5198:	f7f00513          	li	a0,-129
    519c:	000017b7          	lui	a5,0x1
    51a0:	00f107b3          	add	a5,sp,a5
    51a4:	8aa7b823          	sd	a0,-1872(a5) # 8b0 <.LBB11_2+0x64>

00000000000051a8 <.LBB11_326>:
    51a8:	15813503          	ld	a0,344(sp)
    51ac:	03e50533          	mul	a0,a0,t5
    51b0:	14013783          	ld	a5,320(sp)
    51b4:	01b787b3          	add	a5,a5,s11
    51b8:	00f50533          	add	a0,a0,a5
    51bc:	42755513          	srai	a0,a0,0x27
    51c0:	000017b7          	lui	a5,0x1
    51c4:	00f107b3          	add	a5,sp,a5
    51c8:	8aa7b023          	sd	a0,-1888(a5) # 8a0 <.LBB11_2+0x54>
    51cc:	00abca63          	blt	s7,a0,51e0 <.LBB11_328>
    51d0:	f7f00513          	li	a0,-129
    51d4:	000017b7          	lui	a5,0x1
    51d8:	00f107b3          	add	a5,sp,a5
    51dc:	8aa7b023          	sd	a0,-1888(a5) # 8a0 <.LBB11_2+0x54>

00000000000051e0 <.LBB11_328>:
    51e0:	1c813503          	ld	a0,456(sp)
    51e4:	03e50533          	mul	a0,a0,t5
    51e8:	1b013783          	ld	a5,432(sp)
    51ec:	01b787b3          	add	a5,a5,s11
