
code.o:     file format elf64-littleriscv


Disassembly of section .text.main_dispatch_94_pooling_nhwc_sum_1x14x14x576x3x3_i8xi32xi32:

0000000000000000 <main_dispatch_94_pooling_nhwc_sum_1x14x14x576x3x3_i8xi32xi32>:
   0:	f1501173          	csrrw	sp,0xf15,zero

0000000000000004 <.Lfunc_begin74>:
   4:	d1010113          	addi	sp,sp,-752
   8:	2e113423          	sd	ra,744(sp)
   c:	2e813023          	sd	s0,736(sp)
  10:	2c913c23          	sd	s1,728(sp)
  14:	2d213823          	sd	s2,720(sp)
  18:	2d313423          	sd	s3,712(sp)
  1c:	2d413023          	sd	s4,704(sp)
  20:	2b513c23          	sd	s5,696(sp)
  24:	2b613823          	sd	s6,688(sp)
  28:	2b713423          	sd	s7,680(sp)
  2c:	2b813023          	sd	s8,672(sp)
  30:	29913c23          	sd	s9,664(sp)
  34:	29a13823          	sd	s10,656(sp)
  38:	29b13423          	sd	s11,648(sp)
  3c:	2f010413          	addi	s0,sp,752
  40:	0185b503          	ld	a0,24(a1)
  44:	0205b583          	ld	a1,32(a1)
  48:	00056603          	lwu	a2,0(a0)
  4c:	0005b683          	ld	a3,0(a1)
  50:	00456503          	lwu	a0,4(a0)
  54:	0085b583          	ld	a1,8(a1)
  58:	00000713          	li	a4,0
  5c:	00c683b3          	add	t2,a3,a2
  60:	ffc57513          	andi	a0,a0,-4
  64:	00a58533          	add	a0,a1,a0
  68:	d0a43823          	sd	a0,-752(s0)
  6c:	7ff38513          	addi	a0,t2,2047
  70:	10150513          	addi	a0,a0,257
  74:	48050313          	addi	t1,a0,1152
  78:	00900513          	li	a0,9
  7c:	00951593          	slli	a1,a0,0x9
  80:	d6b43023          	sd	a1,-672(s0)
  84:	00b388b3          	add	a7,t2,a1
  88:	00851593          	slli	a1,a0,0x8
  8c:	d4b43c23          	sd	a1,-680(s0)
  90:	01b00593          	li	a1,27
  94:	00859613          	slli	a2,a1,0x8
  98:	d4c43823          	sd	a2,-688(s0)
  9c:	00a51293          	slli	t0,a0,0xa
  a0:	00003537          	lui	a0,0x3
  a4:	d005051b          	addiw	a0,a0,-768 # 2d00 <.LBB63_16+0x4>
  a8:	d4a43423          	sd	a0,-696(s0)
  ac:	00959593          	slli	a1,a1,0x9
  b0:	d4b43023          	sd	a1,-704(s0)
  b4:	00001537          	lui	a0,0x1
  b8:	fc05051b          	addiw	a0,a0,-64 # fc0 <.Lcu_begin59+0xd>
  bc:	d2a43c23          	sd	a0,-712(s0)
  c0:	de543423          	sd	t0,-536(s0)

00000000000000c4 <.LBB74_1>:
  c4:	00000513          	li	a0,0
  c8:	00971593          	slli	a1,a4,0x9
  cc:	d2e43823          	sd	a4,-720(s0)
  d0:	00f71613          	slli	a2,a4,0xf
  d4:	40b60633          	sub	a2,a2,a1
  d8:	d1043583          	ld	a1,-752(s0)
  dc:	00c585b3          	add	a1,a1,a2
  e0:	d6b43423          	sd	a1,-664(s0)
  e4:	d1143c23          	sd	a7,-744(s0)
  e8:	d2643023          	sd	t1,-736(s0)
  ec:	d2743423          	sd	t2,-728(s0)

00000000000000f0 <.LBB74_2>:
  f0:	00000693          	li	a3,0
  f4:	d5843583          	ld	a1,-680(s0)
  f8:	d6a43823          	sd	a0,-656(s0)
  fc:	02b50533          	mul	a0,a0,a1
 100:	d6843603          	ld	a2,-664(s0)
 104:	00a60633          	add	a2,a2,a0
 108:	00b605b3          	add	a1,a2,a1
 10c:	dab43c23          	sd	a1,-584(s0)
 110:	d6043503          	ld	a0,-672(s0)
 114:	00a60533          	add	a0,a2,a0
 118:	daa43823          	sd	a0,-592(s0)
 11c:	d5043503          	ld	a0,-688(s0)
 120:	00a60533          	add	a0,a2,a0
 124:	daa43423          	sd	a0,-600(s0)
 128:	00560533          	add	a0,a2,t0
 12c:	daa43023          	sd	a0,-608(s0)
 130:	d4843503          	ld	a0,-696(s0)
 134:	00a60533          	add	a0,a2,a0
 138:	d8a43c23          	sd	a0,-616(s0)
 13c:	d4043503          	ld	a0,-704(s0)
 140:	dcc43023          	sd	a2,-576(s0)
 144:	00a60533          	add	a0,a2,a0
 148:	d8a43823          	sd	a0,-624(s0)
 14c:	d9143423          	sd	a7,-632(s0)
 150:	d8643023          	sd	t1,-640(s0)
 154:	d6743c23          	sd	t2,-648(s0)

0000000000000158 <.LBB74_3>:
 158:	00000b13          	li	s6,0
 15c:	00000d13          	li	s10,0
 160:	e8043423          	sd	zero,-376(s0)
 164:	e8043823          	sd	zero,-368(s0)
 168:	e8043023          	sd	zero,-384(s0)
 16c:	e6043c23          	sd	zero,-392(s0)
 170:	e6043823          	sd	zero,-400(s0)
 174:	00000513          	li	a0,0
 178:	00000a93          	li	s5,0
 17c:	00000b93          	li	s7,0
 180:	00000c13          	li	s8,0
 184:	00000c93          	li	s9,0
 188:	ee043023          	sd	zero,-288(s0)
 18c:	ec043c23          	sd	zero,-296(s0)
 190:	ea043423          	sd	zero,-344(s0)
 194:	ea043023          	sd	zero,-352(s0)
 198:	f8043023          	sd	zero,-128(s0)
 19c:	ec043823          	sd	zero,-304(s0)
 1a0:	e8043c23          	sd	zero,-360(s0)
 1a4:	ec043423          	sd	zero,-312(s0)
 1a8:	f0043c23          	sd	zero,-232(s0)
 1ac:	ec043023          	sd	zero,-320(s0)
 1b0:	f0043823          	sd	zero,-240(s0)
 1b4:	ea043c23          	sd	zero,-328(s0)
 1b8:	f8043423          	sd	zero,-120(s0)
 1bc:	f0043423          	sd	zero,-248(s0)
 1c0:	ea043823          	sd	zero,-336(s0)
 1c4:	f0043023          	sd	zero,-256(s0)
 1c8:	f4043823          	sd	zero,-176(s0)
 1cc:	ee043c23          	sd	zero,-264(s0)
 1d0:	f4043423          	sd	zero,-184(s0)
 1d4:	ee043823          	sd	zero,-272(s0)
 1d8:	f8043823          	sd	zero,-112(s0)
 1dc:	f4043023          	sd	zero,-192(s0)
 1e0:	ee043423          	sd	zero,-280(s0)
 1e4:	f2043c23          	sd	zero,-200(s0)
 1e8:	f6043c23          	sd	zero,-136(s0)
 1ec:	f2043823          	sd	zero,-208(s0)
 1f0:	f6043823          	sd	zero,-144(s0)
 1f4:	f2043423          	sd	zero,-216(s0)
 1f8:	00000d93          	li	s11,0
 1fc:	f6043423          	sd	zero,-152(s0)
 200:	f2043023          	sd	zero,-224(s0)
 204:	f6043023          	sd	zero,-160(s0)
 208:	00000093          	li	ra,0
 20c:	f4043c23          	sd	zero,-168(s0)
 210:	00000f13          	li	t5,0
 214:	00000e93          	li	t4,0
 218:	00000f93          	li	t6,0
 21c:	00000793          	li	a5,0
 220:	00000a13          	li	s4,0
 224:	00000e13          	li	t3,0
 228:	00000913          	li	s2,0
 22c:	00000993          	li	s3,0
 230:	00000493          	li	s1,0
 234:	00000813          	li	a6,0
 238:	dcd43423          	sd	a3,-568(s0)
 23c:	ffd00713          	li	a4,-3
 240:	df143023          	sd	a7,-544(s0)
 244:	dc643c23          	sd	t1,-552(s0)
 248:	dc743823          	sd	t2,-560(s0)

000000000000024c <.LBB74_4>:
 24c:	e1e43023          	sd	t5,-512(s0)
 250:	e0143c23          	sd	ra,-488(s0)
 254:	e3d43823          	sd	t4,-464(s0)
 258:	e3243c23          	sd	s2,-456(s0)
 25c:	e4943023          	sd	s1,-448(s0)
 260:	e5443423          	sd	s4,-440(s0)
 264:	e5c43823          	sd	t3,-432(s0)
 268:	e4f43c23          	sd	a5,-424(s0)
 26c:	e7043023          	sd	a6,-416(s0)
 270:	e7343423          	sd	s3,-408(s0)
 274:	00238583          	lb	a1,2(t2)
 278:	e8843983          	ld	s3,-376(s0)
 27c:	00b989b3          	add	s3,s3,a1
 280:	00138583          	lb	a1,1(t2)
 284:	00038603          	lb	a2,0(t2)
 288:	00338683          	lb	a3,3(t2)
 28c:	00438783          	lb	a5,4(t2)
 290:	00bd0833          	add	a6,s10,a1
 294:	00cb0633          	add	a2,s6,a2
 298:	e9043e03          	ld	t3,-368(s0)
 29c:	00de0e33          	add	t3,t3,a3
 2a0:	e8043a03          	ld	s4,-384(s0)
 2a4:	00fa0a33          	add	s4,s4,a5
 2a8:	00738583          	lb	a1,7(t2)
 2ac:	00538683          	lb	a3,5(t2)
 2b0:	00638783          	lb	a5,6(t2)
 2b4:	24038e83          	lb	t4,576(t2)
 2b8:	48038283          	lb	t0,1152(t2)
 2bc:	e7843b03          	ld	s6,-392(s0)
 2c0:	00db0b33          	add	s6,s6,a3
 2c4:	e7043083          	ld	ra,-400(s0)
 2c8:	00f080b3          	add	ra,ra,a5
 2cc:	00b50533          	add	a0,a0,a1
 2d0:	01d28eb3          	add	t4,t0,t4
 2d4:	6c038683          	lb	a3,1728(t2)
 2d8:	24138783          	lb	a5,577(t2)
 2dc:	48138583          	lb	a1,1153(t2)
 2e0:	00ce8633          	add	a2,t4,a2
 2e4:	e2c43423          	sd	a2,-472(s0)
 2e8:	00da8633          	add	a2,s5,a3
 2ec:	00ce8633          	add	a2,t4,a2
 2f0:	e2c43023          	sd	a2,-480(s0)
 2f4:	00f587b3          	add	a5,a1,a5
 2f8:	6c138f03          	lb	t5,1729(t2)
 2fc:	24238603          	lb	a2,578(t2)
 300:	48238903          	lb	s2,1154(t2)
 304:	01078833          	add	a6,a5,a6
 308:	e1043423          	sd	a6,-504(s0)
 30c:	01eb8833          	add	a6,s7,t5
 310:	010787b3          	add	a5,a5,a6
 314:	e0f43823          	sd	a5,-496(s0)
 318:	00c90633          	add	a2,s2,a2
 31c:	6c238483          	lb	s1,1730(t2)
 320:	24338783          	lb	a5,579(t2)
 324:	48338b83          	lb	s7,1155(t2)
 328:	013609b3          	add	s3,a2,s3
 32c:	e9343423          	sd	s3,-376(s0)
 330:	009c0833          	add	a6,s8,s1
 334:	01060633          	add	a2,a2,a6
 338:	dec43c23          	sd	a2,-520(s0)
 33c:	00fb8633          	add	a2,s7,a5
 340:	6c338783          	lb	a5,1731(t2)
 344:	24438803          	lb	a6,580(t2)
 348:	48438c03          	lb	s8,1156(t2)
 34c:	01c60e33          	add	t3,a2,t3
 350:	e9c43823          	sd	t3,-368(s0)
 354:	00fc8e33          	add	t3,s9,a5
 358:	01c60633          	add	a2,a2,t3
 35c:	dec43823          	sd	a2,-528(s0)
 360:	010c0633          	add	a2,s8,a6
 364:	6c438803          	lb	a6,1732(t2)
 368:	24538e03          	lb	t3,581(t2)
 36c:	48538d03          	lb	s10,1157(t2)
 370:	01460a33          	add	s4,a2,s4
 374:	e9443023          	sd	s4,-384(s0)
 378:	ee043e83          	ld	t4,-288(s0)
 37c:	010e8eb3          	add	t4,t4,a6
 380:	01d60633          	add	a2,a2,t4
 384:	eec43023          	sd	a2,-288(s0)
 388:	01cd0e33          	add	t3,s10,t3
 38c:	6c538e83          	lb	t4,1733(t2)
 390:	24638603          	lb	a2,582(t2)
 394:	48638983          	lb	s3,1158(t2)
 398:	016e0b33          	add	s6,t3,s6
 39c:	e7643c23          	sd	s6,-392(s0)
 3a0:	000f8b13          	mv	s6,t6
 3a4:	ed843f83          	ld	t6,-296(s0)
 3a8:	01df8fb3          	add	t6,t6,t4
 3ac:	01fe0e33          	add	t3,t3,t6
 3b0:	edc43c23          	sd	t3,-296(s0)
 3b4:	00c98633          	add	a2,s3,a2
 3b8:	6c638f83          	lb	t6,1734(t2)
 3bc:	001600b3          	add	ra,a2,ra
 3c0:	e6143823          	sd	ra,-400(s0)
 3c4:	24738e03          	lb	t3,583(t2)
 3c8:	48738a03          	lb	s4,1159(t2)
 3cc:	ea843c83          	ld	s9,-344(s0)
 3d0:	01fc8cb3          	add	s9,s9,t6
 3d4:	6c738a83          	lb	s5,1735(t2)
 3d8:	01960633          	add	a2,a2,s9
 3dc:	eac43423          	sd	a2,-344(s0)
 3e0:	01ca0e33          	add	t3,s4,t3
 3e4:	00ae0533          	add	a0,t3,a0
 3e8:	ea043c83          	ld	s9,-352(s0)
 3ec:	015c8cb3          	add	s9,s9,s5
 3f0:	b8030603          	lb	a2,-1152(t1)
 3f4:	019e0e33          	add	t3,t3,s9
 3f8:	ebc43023          	sd	t3,-352(s0)
 3fc:	005682b3          	add	t0,a3,t0
 400:	b8130e03          	lb	t3,-1151(t1)
 404:	f8043c83          	ld	s9,-128(s0)
 408:	00cc8cb3          	add	s9,s9,a2
 40c:	019282b3          	add	t0,t0,s9
 410:	f8543023          	sd	t0,-128(s0)
 414:	00bf02b3          	add	t0,t5,a1
 418:	ed043c83          	ld	s9,-304(s0)
 41c:	01cc8cb3          	add	s9,s9,t3
 420:	b8230583          	lb	a1,-1150(t1)
 424:	019282b3          	add	t0,t0,s9
 428:	ec543823          	sd	t0,-304(s0)
 42c:	01248933          	add	s2,s1,s2
 430:	b8330c83          	lb	s9,-1149(t1)
 434:	e9843283          	ld	t0,-360(s0)
 438:	00b282b3          	add	t0,t0,a1
 43c:	005902b3          	add	t0,s2,t0
 440:	e8543c23          	sd	t0,-360(s0)
 444:	01778bb3          	add	s7,a5,s7
 448:	ec843283          	ld	t0,-312(s0)
 44c:	019282b3          	add	t0,t0,s9
 450:	000d8093          	mv	ra,s11
 454:	b8430d83          	lb	s11,-1148(t1)
 458:	005b82b3          	add	t0,s7,t0
 45c:	ec543423          	sd	t0,-312(s0)
 460:	018802b3          	add	t0,a6,s8
 464:	b8530c03          	lb	s8,-1147(t1)
 468:	f1843903          	ld	s2,-232(s0)
 46c:	01b90933          	add	s2,s2,s11
 470:	012282b3          	add	t0,t0,s2
 474:	f0543c23          	sd	t0,-232(s0)
 478:	01ae82b3          	add	t0,t4,s10
 47c:	ec043903          	ld	s2,-320(s0)
 480:	01890933          	add	s2,s2,s8
 484:	b8630d03          	lb	s10,-1146(t1)
 488:	012282b3          	add	t0,t0,s2
 48c:	ec543023          	sd	t0,-320(s0)
 490:	013f89b3          	add	s3,t6,s3
 494:	b8730b83          	lb	s7,-1145(t1)
 498:	f1043283          	ld	t0,-240(s0)
 49c:	01a282b3          	add	t0,t0,s10
 4a0:	005982b3          	add	t0,s3,t0
 4a4:	f0543823          	sd	t0,-240(s0)
 4a8:	014a8a33          	add	s4,s5,s4
 4ac:	eb843283          	ld	t0,-328(s0)
 4b0:	017282b3          	add	t0,t0,s7
 4b4:	94088903          	lb	s2,-1728(a7)
 4b8:	005a02b3          	add	t0,s4,t0
 4bc:	ea543c23          	sd	t0,-328(s0)
 4c0:	00d602b3          	add	t0,a2,a3
 4c4:	94188683          	lb	a3,-1727(a7)
 4c8:	f8843983          	ld	s3,-120(s0)
 4cc:	012989b3          	add	s3,s3,s2
 4d0:	013282b3          	add	t0,t0,s3
 4d4:	f8543423          	sd	t0,-120(s0)
 4d8:	01ee0f33          	add	t5,t3,t5
 4dc:	f0843983          	ld	s3,-248(s0)
 4e0:	00d989b3          	add	s3,s3,a3
 4e4:	94288283          	lb	t0,-1726(a7)
 4e8:	013f0f33          	add	t5,t5,s3
 4ec:	f1e43423          	sd	t5,-248(s0)
 4f0:	009584b3          	add	s1,a1,s1
 4f4:	94388f03          	lb	t5,-1725(a7)
 4f8:	eb043983          	ld	s3,-336(s0)
 4fc:	005989b3          	add	s3,s3,t0
 500:	013484b3          	add	s1,s1,s3
 504:	ea943823          	sd	s1,-336(s0)
 508:	00fc87b3          	add	a5,s9,a5
 50c:	f0043983          	ld	s3,-256(s0)
 510:	01e989b3          	add	s3,s3,t5
 514:	94488483          	lb	s1,-1724(a7)
 518:	013787b3          	add	a5,a5,s3
 51c:	f0f43023          	sd	a5,-256(s0)
 520:	010d87b3          	add	a5,s11,a6
 524:	94588803          	lb	a6,-1723(a7)
 528:	f5043983          	ld	s3,-176(s0)
 52c:	009989b3          	add	s3,s3,s1
 530:	013787b3          	add	a5,a5,s3
 534:	f4f43823          	sd	a5,-176(s0)
 538:	01dc07b3          	add	a5,s8,t4
 53c:	ef843983          	ld	s3,-264(s0)
 540:	010989b3          	add	s3,s3,a6
 544:	94688e83          	lb	t4,-1722(a7)
 548:	013787b3          	add	a5,a5,s3
 54c:	eef43c23          	sd	a5,-264(s0)
 550:	01fd0fb3          	add	t6,s10,t6
 554:	94788783          	lb	a5,-1721(a7)
 558:	f4843983          	ld	s3,-184(s0)
 55c:	01d989b3          	add	s3,s3,t4
 560:	013f8fb3          	add	t6,t6,s3
 564:	f5f43423          	sd	t6,-184(s0)
 568:	015b8ab3          	add	s5,s7,s5
 56c:	ef043983          	ld	s3,-272(s0)
 570:	00f989b3          	add	s3,s3,a5
 574:	00030f83          	lb	t6,0(t1)
 578:	013a89b3          	add	s3,s5,s3
 57c:	ef343823          	sd	s3,-272(s0)
 580:	00c909b3          	add	s3,s2,a2
 584:	00130603          	lb	a2,1(t1)
 588:	f9043a03          	ld	s4,-112(s0)
 58c:	01fa0a33          	add	s4,s4,t6
 590:	014989b3          	add	s3,s3,s4
 594:	f9343823          	sd	s3,-112(s0)
 598:	01c689b3          	add	s3,a3,t3
 59c:	f4043a03          	ld	s4,-192(s0)
 5a0:	00ca0a33          	add	s4,s4,a2
 5a4:	00230e03          	lb	t3,2(t1)
 5a8:	014989b3          	add	s3,s3,s4
 5ac:	f5343023          	sd	s3,-192(s0)
 5b0:	00b289b3          	add	s3,t0,a1
 5b4:	00330583          	lb	a1,3(t1)
 5b8:	ee843a03          	ld	s4,-280(s0)
 5bc:	01ca0a33          	add	s4,s4,t3
 5c0:	014989b3          	add	s3,s3,s4
 5c4:	ef343423          	sd	s3,-280(s0)
 5c8:	019f0cb3          	add	s9,t5,s9
 5cc:	f3843983          	ld	s3,-200(s0)
 5d0:	00b989b3          	add	s3,s3,a1
 5d4:	00430a83          	lb	s5,4(t1)
 5d8:	013c89b3          	add	s3,s9,s3
 5dc:	f3343c23          	sd	s3,-200(s0)
 5e0:	01b48db3          	add	s11,s1,s11
 5e4:	00530c83          	lb	s9,5(t1)
 5e8:	f7843983          	ld	s3,-136(s0)
 5ec:	015989b3          	add	s3,s3,s5
 5f0:	013d89b3          	add	s3,s11,s3
 5f4:	f7343c23          	sd	s3,-136(s0)
 5f8:	018809b3          	add	s3,a6,s8
 5fc:	f3043a03          	ld	s4,-208(s0)
 600:	019a0a33          	add	s4,s4,s9
 604:	00630c03          	lb	s8,6(t1)
 608:	014989b3          	add	s3,s3,s4
 60c:	f3343823          	sd	s3,-208(s0)
 610:	01ae8d33          	add	s10,t4,s10
 614:	00730983          	lb	s3,7(t1)
 618:	f7043a03          	ld	s4,-144(s0)
 61c:	018a0a33          	add	s4,s4,s8
 620:	014d0a33          	add	s4,s10,s4
 624:	f7443823          	sd	s4,-144(s0)
 628:	01778bb3          	add	s7,a5,s7
 62c:	f2843a03          	ld	s4,-216(s0)
 630:	013a0a33          	add	s4,s4,s3
 634:	dc088d03          	lb	s10,-576(a7)
 638:	014b8a33          	add	s4,s7,s4
 63c:	f3443423          	sd	s4,-216(s0)
 640:	012f8933          	add	s2,t6,s2
 644:	dc188a03          	lb	s4,-575(a7)
 648:	01a08bb3          	add	s7,ra,s10
 64c:	01790db3          	add	s11,s2,s7
 650:	00d606b3          	add	a3,a2,a3
 654:	f6843903          	ld	s2,-152(s0)
 658:	01490933          	add	s2,s2,s4
 65c:	dc288b83          	lb	s7,-574(a7)
 660:	012686b3          	add	a3,a3,s2
 664:	f6d43423          	sd	a3,-152(s0)
 668:	005e02b3          	add	t0,t3,t0
 66c:	dc388683          	lb	a3,-573(a7)
 670:	f2043903          	ld	s2,-224(s0)
 674:	01790933          	add	s2,s2,s7
 678:	012282b3          	add	t0,t0,s2
 67c:	f2543023          	sd	t0,-224(s0)
 680:	01e58f33          	add	t5,a1,t5
 684:	f6043283          	ld	t0,-160(s0)
 688:	00d282b3          	add	t0,t0,a3
 68c:	dc488903          	lb	s2,-572(a7)
 690:	005f02b3          	add	t0,t5,t0
 694:	f6543023          	sd	t0,-160(s0)
 698:	009a84b3          	add	s1,s5,s1
 69c:	dc588283          	lb	t0,-571(a7)
 6a0:	e1843f03          	ld	t5,-488(s0)
 6a4:	012f0f33          	add	t5,t5,s2
 6a8:	01e480b3          	add	ra,s1,t5
 6ac:	010c8833          	add	a6,s9,a6
 6b0:	f5843f03          	ld	t5,-168(s0)
 6b4:	005f0f33          	add	t5,t5,t0
 6b8:	dc688483          	lb	s1,-570(a7)
 6bc:	01e80833          	add	a6,a6,t5
 6c0:	f5043c23          	sd	a6,-168(s0)
 6c4:	01dc0eb3          	add	t4,s8,t4
 6c8:	dc788803          	lb	a6,-569(a7)
 6cc:	e0043f03          	ld	t5,-512(s0)
 6d0:	009f0f33          	add	t5,t5,s1
 6d4:	01ee8f33          	add	t5,t4,t5
 6d8:	00f987b3          	add	a5,s3,a5
 6dc:	e3043e83          	ld	t4,-464(s0)
 6e0:	010e8eb3          	add	t4,t4,a6
 6e4:	01d78eb3          	add	t4,a5,t4
 6e8:	01fd0fb3          	add	t6,s10,t6
 6ec:	e0843d03          	ld	s10,-504(s0)
 6f0:	00ca0633          	add	a2,s4,a2
 6f4:	01cb8e33          	add	t3,s7,t3
 6f8:	e1043b83          	ld	s7,-496(s0)
 6fc:	00b685b3          	add	a1,a3,a1
 700:	01590933          	add	s2,s2,s5
 704:	e2043a83          	ld	s5,-480(s0)
 708:	019282b3          	add	t0,t0,s9
 70c:	df043c83          	ld	s9,-528(s0)
 710:	00088683          	lb	a3,0(a7)
 714:	018484b3          	add	s1,s1,s8
 718:	df843c03          	ld	s8,-520(s0)
 71c:	01380833          	add	a6,a6,s3
 720:	00188783          	lb	a5,1(a7)
 724:	00db06b3          	add	a3,s6,a3
 728:	e2843b03          	ld	s6,-472(s0)
 72c:	00df8fb3          	add	t6,t6,a3
 730:	00288683          	lb	a3,2(a7)
 734:	e5843983          	ld	s3,-424(s0)
 738:	00f987b3          	add	a5,s3,a5
 73c:	00f607b3          	add	a5,a2,a5
 740:	00388603          	lb	a2,3(a7)
 744:	e4843983          	ld	s3,-440(s0)
 748:	00d986b3          	add	a3,s3,a3
 74c:	00de0a33          	add	s4,t3,a3
 750:	00488683          	lb	a3,4(a7)
 754:	e5043e03          	ld	t3,-432(s0)
 758:	00ce0633          	add	a2,t3,a2
 75c:	00c58e33          	add	t3,a1,a2
 760:	00588583          	lb	a1,5(a7)
 764:	e3843603          	ld	a2,-456(s0)
 768:	00d606b3          	add	a3,a2,a3
 76c:	00d90933          	add	s2,s2,a3
 770:	00688603          	lb	a2,6(a7)
 774:	e6843683          	ld	a3,-408(s0)
 778:	00b685b3          	add	a1,a3,a1
 77c:	00788683          	lb	a3,7(a7)
 780:	00b289b3          	add	s3,t0,a1
 784:	de843283          	ld	t0,-536(s0)
 788:	e4043583          	ld	a1,-448(s0)
 78c:	00c58633          	add	a2,a1,a2
 790:	00c484b3          	add	s1,s1,a2
 794:	e6043583          	ld	a1,-416(s0)
 798:	00d586b3          	add	a3,a1,a3
 79c:	00d80833          	add	a6,a6,a3
 7a0:	005383b3          	add	t2,t2,t0
 7a4:	00530333          	add	t1,t1,t0
 7a8:	00170713          	addi	a4,a4,1
 7ac:	005888b3          	add	a7,a7,t0
 7b0:	a8071ee3          	bnez	a4,24c <.LBB74_4>
 7b4:	dc843703          	ld	a4,-568(s0)
 7b8:	00271593          	slli	a1,a4,0x2
 7bc:	dc043603          	ld	a2,-576(s0)
 7c0:	00b60633          	add	a2,a2,a1
 7c4:	e8843683          	ld	a3,-376(s0)
 7c8:	00d62423          	sw	a3,8(a2)
 7cc:	01a62223          	sw	s10,4(a2)
 7d0:	01662023          	sw	s6,0(a2)
 7d4:	e9043683          	ld	a3,-368(s0)
 7d8:	00d62623          	sw	a3,12(a2)
 7dc:	e8043683          	ld	a3,-384(s0)
 7e0:	00d62823          	sw	a3,16(a2)
 7e4:	e7843683          	ld	a3,-392(s0)
 7e8:	00d62a23          	sw	a3,20(a2)
 7ec:	e7043683          	ld	a3,-400(s0)
 7f0:	00d62c23          	sw	a3,24(a2)
 7f4:	00a62e23          	sw	a0,28(a2)
 7f8:	db843503          	ld	a0,-584(s0)
 7fc:	00b50533          	add	a0,a0,a1
 800:	01852423          	sw	s8,8(a0)
 804:	01752223          	sw	s7,4(a0)
 808:	01552023          	sw	s5,0(a0)
 80c:	01952623          	sw	s9,12(a0)
 810:	ee043603          	ld	a2,-288(s0)
 814:	00c52823          	sw	a2,16(a0)
 818:	ed843603          	ld	a2,-296(s0)
 81c:	00c52a23          	sw	a2,20(a0)
 820:	ea843603          	ld	a2,-344(s0)
 824:	00c52c23          	sw	a2,24(a0)
 828:	ea043603          	ld	a2,-352(s0)
 82c:	00c52e23          	sw	a2,28(a0)
 830:	db043503          	ld	a0,-592(s0)
 834:	00b50533          	add	a0,a0,a1
 838:	e9843603          	ld	a2,-360(s0)
 83c:	00c52423          	sw	a2,8(a0)
 840:	ed043603          	ld	a2,-304(s0)
 844:	00c52223          	sw	a2,4(a0)
 848:	f8043603          	ld	a2,-128(s0)
 84c:	00c52023          	sw	a2,0(a0)
 850:	ec843603          	ld	a2,-312(s0)
 854:	00c52623          	sw	a2,12(a0)
 858:	f1843603          	ld	a2,-232(s0)
 85c:	00c52823          	sw	a2,16(a0)
 860:	ec043603          	ld	a2,-320(s0)
 864:	00c52a23          	sw	a2,20(a0)
 868:	f1043603          	ld	a2,-240(s0)
 86c:	00c52c23          	sw	a2,24(a0)
 870:	eb843603          	ld	a2,-328(s0)
 874:	00c52e23          	sw	a2,28(a0)
 878:	da843503          	ld	a0,-600(s0)
 87c:	00b50533          	add	a0,a0,a1
 880:	eb043603          	ld	a2,-336(s0)
 884:	00c52423          	sw	a2,8(a0)
 888:	f0843603          	ld	a2,-248(s0)
 88c:	00c52223          	sw	a2,4(a0)
 890:	f8843603          	ld	a2,-120(s0)
 894:	00c52023          	sw	a2,0(a0)
 898:	f0043603          	ld	a2,-256(s0)
 89c:	00c52623          	sw	a2,12(a0)
 8a0:	f5043603          	ld	a2,-176(s0)
 8a4:	00c52823          	sw	a2,16(a0)
 8a8:	ef843603          	ld	a2,-264(s0)
 8ac:	00c52a23          	sw	a2,20(a0)
 8b0:	f4843603          	ld	a2,-184(s0)
 8b4:	00c52c23          	sw	a2,24(a0)
 8b8:	ef043603          	ld	a2,-272(s0)
 8bc:	00c52e23          	sw	a2,28(a0)
 8c0:	da043503          	ld	a0,-608(s0)
 8c4:	00b50533          	add	a0,a0,a1
 8c8:	ee843603          	ld	a2,-280(s0)
 8cc:	00c52423          	sw	a2,8(a0)
 8d0:	f4043603          	ld	a2,-192(s0)
 8d4:	00c52223          	sw	a2,4(a0)
 8d8:	f9043603          	ld	a2,-112(s0)
 8dc:	00c52023          	sw	a2,0(a0)
 8e0:	f3843603          	ld	a2,-200(s0)
 8e4:	00c52623          	sw	a2,12(a0)
 8e8:	f7843603          	ld	a2,-136(s0)
 8ec:	00c52823          	sw	a2,16(a0)
 8f0:	f3043603          	ld	a2,-208(s0)
 8f4:	00c52a23          	sw	a2,20(a0)
 8f8:	f7043603          	ld	a2,-144(s0)
 8fc:	00c52c23          	sw	a2,24(a0)
 900:	f2843603          	ld	a2,-216(s0)
 904:	00c52e23          	sw	a2,28(a0)
 908:	d9843503          	ld	a0,-616(s0)
 90c:	00b50533          	add	a0,a0,a1
 910:	f2043603          	ld	a2,-224(s0)
 914:	00c52423          	sw	a2,8(a0)
 918:	f6843603          	ld	a2,-152(s0)
 91c:	00c52223          	sw	a2,4(a0)
 920:	01b52023          	sw	s11,0(a0)
 924:	f6043603          	ld	a2,-160(s0)
 928:	00c52623          	sw	a2,12(a0)
 92c:	00152823          	sw	ra,16(a0)
 930:	f5843603          	ld	a2,-168(s0)
 934:	00c52a23          	sw	a2,20(a0)
 938:	01e52c23          	sw	t5,24(a0)
 93c:	01d52e23          	sw	t4,28(a0)
 940:	d9043503          	ld	a0,-624(s0)
 944:	00b505b3          	add	a1,a0,a1
 948:	0145a423          	sw	s4,8(a1)
 94c:	00f5a223          	sw	a5,4(a1)
 950:	01f5a023          	sw	t6,0(a1)
 954:	01c5a623          	sw	t3,12(a1)
 958:	0125a823          	sw	s2,16(a1)
 95c:	0135aa23          	sw	s3,20(a1)
 960:	0095ac23          	sw	s1,24(a1)
 964:	0105ae23          	sw	a6,28(a1)
 968:	00870693          	addi	a3,a4,8
 96c:	dd043383          	ld	t2,-560(s0)
 970:	00838393          	addi	t2,t2,8
 974:	dd843303          	ld	t1,-552(s0)
 978:	00830313          	addi	t1,t1,8
 97c:	de043883          	ld	a7,-544(s0)
 980:	00888893          	addi	a7,a7,8
 984:	23800513          	li	a0,568
 988:	fca76863          	bltu	a4,a0,158 <.LBB74_3>
 98c:	d7043603          	ld	a2,-656(s0)
 990:	00760513          	addi	a0,a2,7
 994:	d3843583          	ld	a1,-712(s0)
 998:	d7843383          	ld	t2,-648(s0)
 99c:	00b383b3          	add	t2,t2,a1
 9a0:	d8043303          	ld	t1,-640(s0)
 9a4:	00b30333          	add	t1,t1,a1
 9a8:	d8843883          	ld	a7,-632(s0)
 9ac:	00b888b3          	add	a7,a7,a1
 9b0:	00700593          	li	a1,7
 9b4:	f2b66e63          	bltu	a2,a1,f0 <.LBB74_2>
 9b8:	d3043703          	ld	a4,-720(s0)
 9bc:	00170713          	addi	a4,a4,1
 9c0:	d2843383          	ld	t2,-728(s0)
 9c4:	005383b3          	add	t2,t2,t0
 9c8:	d2043303          	ld	t1,-736(s0)
 9cc:	00530333          	add	t1,t1,t0
 9d0:	d1843883          	ld	a7,-744(s0)
 9d4:	005888b3          	add	a7,a7,t0
 9d8:	00e00513          	li	a0,14
 9dc:	eea71463          	bne	a4,a0,c4 <.LBB74_1>
 9e0:	00000513          	li	a0,0
 9e4:	2e813083          	ld	ra,744(sp)
 9e8:	2e013403          	ld	s0,736(sp)
 9ec:	2d813483          	ld	s1,728(sp)
 9f0:	2d013903          	ld	s2,720(sp)
 9f4:	2c813983          	ld	s3,712(sp)
 9f8:	2c013a03          	ld	s4,704(sp)
 9fc:	2b813a83          	ld	s5,696(sp)
 a00:	2b013b03          	ld	s6,688(sp)
 a04:	2a813b83          	ld	s7,680(sp)
 a08:	2a013c03          	ld	s8,672(sp)
 a0c:	29813c83          	ld	s9,664(sp)
 a10:	29013d03          	ld	s10,656(sp)
 a14:	28813d83          	ld	s11,648(sp)
 a18:	2f010113          	addi	sp,sp,752
 a1c:	00008067          	ret
