
code.o:     file format elf64-littleriscv


Disassembly of section .text.main_dispatch_57_matmul_196x64x192_i8xi8xi32:

0000000000000000 <main_dispatch_57_matmul_196x64x192_i8xi8xi32>:
       0:	f1501173          	csrrw	sp,0xf15,zero

0000000000000004 <.Lfunc_begin52>:
       4:	81010113          	addi	sp,sp,-2032
       8:	7e113423          	sd	ra,2024(sp)
       c:	7e813023          	sd	s0,2016(sp)
      10:	7c913c23          	sd	s1,2008(sp)
      14:	7d213823          	sd	s2,2000(sp)
      18:	7d313423          	sd	s3,1992(sp)
      1c:	7d413023          	sd	s4,1984(sp)
      20:	7b513c23          	sd	s5,1976(sp)
      24:	7b613823          	sd	s6,1968(sp)
      28:	7b713423          	sd	s7,1960(sp)
      2c:	7b813023          	sd	s8,1952(sp)
      30:	79913c23          	sd	s9,1944(sp)
      34:	79a13823          	sd	s10,1936(sp)
      38:	79b13423          	sd	s11,1928(sp)
      3c:	7f010413          	addi	s0,sp,2032
      40:	80010113          	addi	sp,sp,-2048
      44:	b1010113          	addi	sp,sp,-1264
      48:	0205b583          	ld	a1,32(a1)
      4c:	00000513          	li	a0,0
      50:	0085b603          	ld	a2,8(a1)
      54:	0005b703          	ld	a4,0(a1)
      58:	0002f6b7          	lui	a3,0x2f
      5c:	6806869b          	addiw	a3,a3,1664 # 2f680 <.Lfunc_end80+0x6cb4>
      60:	00d606b3          	add	a3,a2,a3
      64:	000017b7          	lui	a5,0x1
      68:	40f407b3          	sub	a5,s0,a5
      6c:	b8d7b823          	sd	a3,-1136(a5) # b90 <.LBB52_3+0x9a8>
      70:	0105b583          	ld	a1,16(a1)
      74:	000326b7          	lui	a3,0x32
      78:	6806869b          	addiw	a3,a3,1664 # 32680 <.Lfunc_end80+0x9cb4>
      7c:	00d60633          	add	a2,a2,a3
      80:	000016b7          	lui	a3,0x1
      84:	40d406b3          	sub	a3,s0,a3
      88:	b8c6b423          	sd	a2,-1144(a3) # b88 <.LBB52_3+0x9a0>
      8c:	34058593          	addi	a1,a1,832
      90:	00001637          	lui	a2,0x1
      94:	40c40633          	sub	a2,s0,a2
      98:	b2b63823          	sd	a1,-1232(a2) # b30 <.LBB52_3+0x948>
      9c:	000255b7          	lui	a1,0x25
      a0:	c005859b          	addiw	a1,a1,-1024 # 24c00 <.LBB77_4710+0xc>
      a4:	00001637          	lui	a2,0x1
      a8:	40c40633          	sub	a2,s0,a2
      ac:	b2e63c23          	sd	a4,-1224(a2) # b38 <.LBB52_3+0x950>
      b0:	00b705b3          	add	a1,a4,a1
      b4:	00001637          	lui	a2,0x1
      b8:	40c40633          	sub	a2,s0,a2
      bc:	b8b63c23          	sd	a1,-1128(a2) # b98 <.LBB52_3+0x9b0>
      c0:	796f45b7          	lui	a1,0x796f4
      c4:	7c85859b          	addiw	a1,a1,1992 # 796f47c8 <.Lfunc_end80+0x796cbdfc>
      c8:	00001637          	lui	a2,0x1
      cc:	40c40633          	sub	a2,s0,a2
      d0:	66b63023          	sd	a1,1632(a2) # 1660 <.LBB52_5+0x284>
      d4:	00100593          	li	a1,1
      d8:	02759593          	slli	a1,a1,0x27
      dc:	e6b43023          	sd	a1,-416(s0)
      e0:	03c0006f          	j	11c <.LBB52_2>

00000000000000e4 <.LBB52_1>:
      e4:	00001537          	lui	a0,0x1
      e8:	40a40533          	sub	a0,s0,a0
      ec:	b2853603          	ld	a2,-1240(a0) # b28 <.LBB52_3+0x940>
      f0:	00860513          	addi	a0,a2,8
      f4:	000015b7          	lui	a1,0x1
      f8:	40b405b3          	sub	a1,s0,a1
      fc:	b985b583          	ld	a1,-1128(a1) # b98 <.LBB52_3+0x9b0>
     100:	60058593          	addi	a1,a1,1536
     104:	000016b7          	lui	a3,0x1
     108:	40d406b3          	sub	a3,s0,a3
     10c:	b8b6bc23          	sd	a1,-1128(a3) # b98 <.LBB52_3+0x9b0>
     110:	0b800593          	li	a1,184
     114:	00b66463          	bltu	a2,a1,11c <.LBB52_2>
     118:	5090b06f          	j	be20 <.LBB52_1542>

000000000000011c <.LBB52_2>:
     11c:	00000693          	li	a3,0
     120:	00050613          	mv	a2,a0
     124:	00251513          	slli	a0,a0,0x2
     128:	000015b7          	lui	a1,0x1
     12c:	40b405b3          	sub	a1,s0,a1
     130:	b385b583          	ld	a1,-1224(a1) # b38 <.LBB52_3+0x950>
     134:	00a58533          	add	a0,a1,a0
     138:	000015b7          	lui	a1,0x1
     13c:	40b405b3          	sub	a1,s0,a1
     140:	64a5b823          	sd	a0,1616(a1) # 1650 <.LBB52_5+0x274>
     144:	00001537          	lui	a0,0x1
     148:	40a40533          	sub	a0,s0,a0
     14c:	b2c53423          	sd	a2,-1240(a0) # b28 <.LBB52_3+0x940>
     150:	00661513          	slli	a0,a2,0x6
     154:	000015b7          	lui	a1,0x1
     158:	40b405b3          	sub	a1,s0,a1
     15c:	b305b583          	ld	a1,-1232(a1) # b30 <.LBB52_3+0x948>
     160:	00a58533          	add	a0,a1,a0
     164:	04050593          	addi	a1,a0,64
     168:	00001637          	lui	a2,0x1
     16c:	40c40633          	sub	a2,s0,a2
     170:	b6b63823          	sd	a1,-1168(a2) # b70 <.LBB52_3+0x988>
     174:	08050593          	addi	a1,a0,128
     178:	00001637          	lui	a2,0x1
     17c:	40c40633          	sub	a2,s0,a2
     180:	b6b63423          	sd	a1,-1176(a2) # b68 <.LBB52_3+0x980>
     184:	0c050593          	addi	a1,a0,192
     188:	00001637          	lui	a2,0x1
     18c:	40c40633          	sub	a2,s0,a2
     190:	b6b63023          	sd	a1,-1184(a2) # b60 <.LBB52_3+0x978>
     194:	10050593          	addi	a1,a0,256
     198:	00001637          	lui	a2,0x1
     19c:	40c40633          	sub	a2,s0,a2
     1a0:	b4b63c23          	sd	a1,-1192(a2) # b58 <.LBB52_3+0x970>
     1a4:	14050593          	addi	a1,a0,320
     1a8:	00001637          	lui	a2,0x1
     1ac:	40c40633          	sub	a2,s0,a2
     1b0:	b4b63823          	sd	a1,-1200(a2) # b50 <.LBB52_3+0x968>
     1b4:	18050593          	addi	a1,a0,384
     1b8:	00001637          	lui	a2,0x1
     1bc:	40c40633          	sub	a2,s0,a2
     1c0:	b4b63423          	sd	a1,-1208(a2) # b48 <.LBB52_3+0x960>
     1c4:	000015b7          	lui	a1,0x1
     1c8:	40b405b3          	sub	a1,s0,a1
     1cc:	b6a5bc23          	sd	a0,-1160(a1) # b78 <.LBB52_3+0x990>
     1d0:	1c050513          	addi	a0,a0,448
     1d4:	000015b7          	lui	a1,0x1
     1d8:	40b405b3          	sub	a1,s0,a1
     1dc:	b4a5b023          	sd	a0,-1216(a1) # b40 <.LBB52_3+0x958>
     1e0:	00100593          	li	a1,1
     1e4:	4510006f          	j	e34 <.LBB52_4>

00000000000001e8 <.LBB52_3>:
     1e8:	8da43c23          	sd	s10,-1832(s0)
     1ec:	84843803          	ld	a6,-1976(s0)
     1f0:	ffe80813          	addi	a6,a6,-2
     1f4:	00001d37          	lui	s10,0x1
     1f8:	41a40d33          	sub	s10,s0,s10
     1fc:	b78d3d03          	ld	s10,-1160(s10) # b78 <.LBB52_3+0x990>
     200:	000010b7          	lui	ra,0x1
     204:	401400b3          	sub	ra,s0,ra
     208:	6580b083          	ld	ra,1624(ra) # 1658 <.LBB52_5+0x27c>
     20c:	001d0d33          	add	s10,s10,ra
     210:	010d01a3          	sb	a6,3(s10)
     214:	e4843803          	ld	a6,-440(s0)
     218:	ffe80813          	addi	a6,a6,-2
     21c:	010d0123          	sb	a6,2(s10)
     220:	e5843803          	ld	a6,-424(s0)
     224:	ffe80813          	addi	a6,a6,-2
     228:	010d00a3          	sb	a6,1(s10)
     22c:	e7043803          	ld	a6,-400(s0)
     230:	ffe80813          	addi	a6,a6,-2
     234:	010d0023          	sb	a6,0(s10)
     238:	e8043803          	ld	a6,-384(s0)
     23c:	ffe80813          	addi	a6,a6,-2
     240:	010d0223          	sb	a6,4(s10)
     244:	e9043803          	ld	a6,-368(s0)
     248:	ffe80813          	addi	a6,a6,-2
     24c:	010d02a3          	sb	a6,5(s10)
     250:	ea043803          	ld	a6,-352(s0)
     254:	ffe80813          	addi	a6,a6,-2
     258:	010d0323          	sb	a6,6(s10)
     25c:	eb043803          	ld	a6,-336(s0)
     260:	ffe80813          	addi	a6,a6,-2
     264:	010d03a3          	sb	a6,7(s10)
     268:	ec043803          	ld	a6,-320(s0)
     26c:	ffe80813          	addi	a6,a6,-2
     270:	010d0423          	sb	a6,8(s10)
     274:	ed043803          	ld	a6,-304(s0)
     278:	ffe80813          	addi	a6,a6,-2
     27c:	010d04a3          	sb	a6,9(s10)
     280:	ee043803          	ld	a6,-288(s0)
     284:	ffe80813          	addi	a6,a6,-2
     288:	010d0523          	sb	a6,10(s10)
     28c:	ee843803          	ld	a6,-280(s0)
     290:	ffe80813          	addi	a6,a6,-2
     294:	010d05a3          	sb	a6,11(s10)
     298:	ef043803          	ld	a6,-272(s0)
     29c:	ffe80813          	addi	a6,a6,-2
     2a0:	010d0623          	sb	a6,12(s10)
     2a4:	ef843803          	ld	a6,-264(s0)
     2a8:	ffe80813          	addi	a6,a6,-2
     2ac:	010d06a3          	sb	a6,13(s10)
     2b0:	f0043803          	ld	a6,-256(s0)
     2b4:	ffe80813          	addi	a6,a6,-2
     2b8:	010d0723          	sb	a6,14(s10)
     2bc:	f0843803          	ld	a6,-248(s0)
     2c0:	ffe80813          	addi	a6,a6,-2
     2c4:	010d07a3          	sb	a6,15(s10)
     2c8:	f1043803          	ld	a6,-240(s0)
     2cc:	ffe80813          	addi	a6,a6,-2
     2d0:	010d0823          	sb	a6,16(s10)
     2d4:	f1843803          	ld	a6,-232(s0)
     2d8:	ffe80813          	addi	a6,a6,-2
     2dc:	010d08a3          	sb	a6,17(s10)
     2e0:	f2043803          	ld	a6,-224(s0)
     2e4:	ffe80813          	addi	a6,a6,-2
     2e8:	010d0923          	sb	a6,18(s10)
     2ec:	f2843803          	ld	a6,-216(s0)
     2f0:	ffe80813          	addi	a6,a6,-2
     2f4:	010d09a3          	sb	a6,19(s10)
     2f8:	f3043803          	ld	a6,-208(s0)
     2fc:	ffe80813          	addi	a6,a6,-2
     300:	010d0a23          	sb	a6,20(s10)
     304:	f3843803          	ld	a6,-200(s0)
     308:	ffe80813          	addi	a6,a6,-2
     30c:	010d0aa3          	sb	a6,21(s10)
     310:	f4043803          	ld	a6,-192(s0)
     314:	ffe80813          	addi	a6,a6,-2
     318:	010d0b23          	sb	a6,22(s10)
     31c:	f4843803          	ld	a6,-184(s0)
     320:	ffe80813          	addi	a6,a6,-2
     324:	010d0ba3          	sb	a6,23(s10)
     328:	f5043803          	ld	a6,-176(s0)
     32c:	ffe80813          	addi	a6,a6,-2
     330:	010d0c23          	sb	a6,24(s10)
     334:	f5843803          	ld	a6,-168(s0)
     338:	ffe80813          	addi	a6,a6,-2
     33c:	010d0ca3          	sb	a6,25(s10)
     340:	f6043803          	ld	a6,-160(s0)
     344:	ffe80813          	addi	a6,a6,-2
     348:	010d0d23          	sb	a6,26(s10)
     34c:	f6843803          	ld	a6,-152(s0)
     350:	ffe80813          	addi	a6,a6,-2
     354:	010d0da3          	sb	a6,27(s10)
     358:	f7043803          	ld	a6,-144(s0)
     35c:	ffe80813          	addi	a6,a6,-2
     360:	010d0e23          	sb	a6,28(s10)
     364:	f7843803          	ld	a6,-136(s0)
     368:	ffe80813          	addi	a6,a6,-2
     36c:	010d0ea3          	sb	a6,29(s10)
     370:	f8043803          	ld	a6,-128(s0)
     374:	ffe80813          	addi	a6,a6,-2
     378:	010d0f23          	sb	a6,30(s10)
     37c:	f8843803          	ld	a6,-120(s0)
     380:	ffe80813          	addi	a6,a6,-2
     384:	010d0fa3          	sb	a6,31(s10)
     388:	d4043d03          	ld	s10,-704(s0)
     38c:	ffed0d13          	addi	s10,s10,-2
     390:	00001837          	lui	a6,0x1
     394:	41040833          	sub	a6,s0,a6
     398:	b7083803          	ld	a6,-1168(a6) # b70 <.LBB52_3+0x988>
     39c:	00180833          	add	a6,a6,ra
     3a0:	01a801a3          	sb	s10,3(a6)
     3a4:	d5043d03          	ld	s10,-688(s0)
     3a8:	ffed0d13          	addi	s10,s10,-2
     3ac:	01a80123          	sb	s10,2(a6)
     3b0:	d6043d03          	ld	s10,-672(s0)
     3b4:	ffed0d13          	addi	s10,s10,-2
     3b8:	01a800a3          	sb	s10,1(a6)
     3bc:	d7043d03          	ld	s10,-656(s0)
     3c0:	ffed0d13          	addi	s10,s10,-2
     3c4:	01a80023          	sb	s10,0(a6)
     3c8:	d8043d03          	ld	s10,-640(s0)
     3cc:	ffed0d13          	addi	s10,s10,-2
     3d0:	01a80223          	sb	s10,4(a6)
     3d4:	d9043d03          	ld	s10,-624(s0)
     3d8:	ffed0d13          	addi	s10,s10,-2
     3dc:	01a802a3          	sb	s10,5(a6)
     3e0:	da043d03          	ld	s10,-608(s0)
     3e4:	ffed0d13          	addi	s10,s10,-2
     3e8:	01a80323          	sb	s10,6(a6)
     3ec:	db043d03          	ld	s10,-592(s0)
     3f0:	ffed0d13          	addi	s10,s10,-2
     3f4:	01a803a3          	sb	s10,7(a6)
     3f8:	dc043d03          	ld	s10,-576(s0)
     3fc:	ffed0d13          	addi	s10,s10,-2
     400:	01a80423          	sb	s10,8(a6)
     404:	dd043d03          	ld	s10,-560(s0)
     408:	ffed0d13          	addi	s10,s10,-2
     40c:	01a804a3          	sb	s10,9(a6)
     410:	de043d03          	ld	s10,-544(s0)
     414:	ffed0d13          	addi	s10,s10,-2
     418:	01a80523          	sb	s10,10(a6)
     41c:	de843d03          	ld	s10,-536(s0)
     420:	ffed0d13          	addi	s10,s10,-2
     424:	01a805a3          	sb	s10,11(a6)
     428:	df043d03          	ld	s10,-528(s0)
     42c:	ffed0d13          	addi	s10,s10,-2
     430:	01a80623          	sb	s10,12(a6)
     434:	df843d03          	ld	s10,-520(s0)
     438:	ffed0d13          	addi	s10,s10,-2
     43c:	01a806a3          	sb	s10,13(a6)
     440:	e0043d03          	ld	s10,-512(s0)
     444:	ffed0d13          	addi	s10,s10,-2
     448:	01a80723          	sb	s10,14(a6)
     44c:	e0843d03          	ld	s10,-504(s0)
     450:	ffed0d13          	addi	s10,s10,-2
     454:	01a807a3          	sb	s10,15(a6)
     458:	e1043d03          	ld	s10,-496(s0)
     45c:	ffed0d13          	addi	s10,s10,-2
     460:	01a80823          	sb	s10,16(a6)
     464:	e1843d03          	ld	s10,-488(s0)
     468:	ffed0d13          	addi	s10,s10,-2
     46c:	01a808a3          	sb	s10,17(a6)
     470:	e2043d03          	ld	s10,-480(s0)
     474:	ffed0d13          	addi	s10,s10,-2
     478:	01a80923          	sb	s10,18(a6)
     47c:	e2843d03          	ld	s10,-472(s0)
     480:	ffed0d13          	addi	s10,s10,-2
     484:	01a809a3          	sb	s10,19(a6)
     488:	e3043d03          	ld	s10,-464(s0)
     48c:	ffed0d13          	addi	s10,s10,-2
     490:	01a80a23          	sb	s10,20(a6)
     494:	e3843d03          	ld	s10,-456(s0)
     498:	ffed0d13          	addi	s10,s10,-2
     49c:	01a80aa3          	sb	s10,21(a6)
     4a0:	e4043d03          	ld	s10,-448(s0)
     4a4:	ffed0d13          	addi	s10,s10,-2
     4a8:	01a80b23          	sb	s10,22(a6)
     4ac:	e5043d03          	ld	s10,-432(s0)
     4b0:	ffed0d13          	addi	s10,s10,-2
     4b4:	01a80ba3          	sb	s10,23(a6)
     4b8:	e6843d03          	ld	s10,-408(s0)
     4bc:	ffed0d13          	addi	s10,s10,-2
     4c0:	01a80c23          	sb	s10,24(a6)
     4c4:	e7843d03          	ld	s10,-392(s0)
     4c8:	ffed0d13          	addi	s10,s10,-2
     4cc:	01a80ca3          	sb	s10,25(a6)
     4d0:	e8843d03          	ld	s10,-376(s0)
     4d4:	ffed0d13          	addi	s10,s10,-2
     4d8:	01a80d23          	sb	s10,26(a6)
     4dc:	e9843d03          	ld	s10,-360(s0)
     4e0:	ffed0d13          	addi	s10,s10,-2
     4e4:	01a80da3          	sb	s10,27(a6)
     4e8:	ea843d03          	ld	s10,-344(s0)
     4ec:	ffed0d13          	addi	s10,s10,-2
     4f0:	01a80e23          	sb	s10,28(a6)
     4f4:	eb843d03          	ld	s10,-328(s0)
     4f8:	ffed0d13          	addi	s10,s10,-2
     4fc:	01a80ea3          	sb	s10,29(a6)
     500:	ec843d03          	ld	s10,-312(s0)
     504:	ffed0d13          	addi	s10,s10,-2
     508:	01a80f23          	sb	s10,30(a6)
     50c:	ed843d03          	ld	s10,-296(s0)
     510:	ffed0d13          	addi	s10,s10,-2
     514:	01a80fa3          	sb	s10,31(a6)
     518:	c4043d03          	ld	s10,-960(s0)
     51c:	ffed0d13          	addi	s10,s10,-2
     520:	00001837          	lui	a6,0x1
     524:	41040833          	sub	a6,s0,a6
     528:	b6883803          	ld	a6,-1176(a6) # b68 <.LBB52_3+0x980>
     52c:	00180833          	add	a6,a6,ra
     530:	01a801a3          	sb	s10,3(a6)
     534:	c5043d03          	ld	s10,-944(s0)
     538:	ffed0d13          	addi	s10,s10,-2
     53c:	01a80123          	sb	s10,2(a6)
     540:	c6043d03          	ld	s10,-928(s0)
     544:	ffed0d13          	addi	s10,s10,-2
     548:	01a800a3          	sb	s10,1(a6)
     54c:	c7043d03          	ld	s10,-912(s0)
     550:	ffed0d13          	addi	s10,s10,-2
     554:	01a80023          	sb	s10,0(a6)
     558:	c8043d03          	ld	s10,-896(s0)
     55c:	ffed0d13          	addi	s10,s10,-2
     560:	01a80223          	sb	s10,4(a6)
     564:	c9043d03          	ld	s10,-880(s0)
     568:	ffed0d13          	addi	s10,s10,-2
     56c:	01a802a3          	sb	s10,5(a6)
     570:	ca043d03          	ld	s10,-864(s0)
     574:	ffed0d13          	addi	s10,s10,-2
     578:	01a80323          	sb	s10,6(a6)
     57c:	cb043d03          	ld	s10,-848(s0)
     580:	ffed0d13          	addi	s10,s10,-2
     584:	01a803a3          	sb	s10,7(a6)
     588:	cc043d03          	ld	s10,-832(s0)
     58c:	ffed0d13          	addi	s10,s10,-2
     590:	01a80423          	sb	s10,8(a6)
     594:	cd043d03          	ld	s10,-816(s0)
     598:	ffed0d13          	addi	s10,s10,-2
     59c:	01a804a3          	sb	s10,9(a6)
     5a0:	ce043d03          	ld	s10,-800(s0)
     5a4:	ffed0d13          	addi	s10,s10,-2
     5a8:	01a80523          	sb	s10,10(a6)
     5ac:	ce843d03          	ld	s10,-792(s0)
     5b0:	ffed0d13          	addi	s10,s10,-2
     5b4:	01a805a3          	sb	s10,11(a6)
     5b8:	cf043d03          	ld	s10,-784(s0)
     5bc:	ffed0d13          	addi	s10,s10,-2
     5c0:	01a80623          	sb	s10,12(a6)
     5c4:	cf843d03          	ld	s10,-776(s0)
     5c8:	ffed0d13          	addi	s10,s10,-2
     5cc:	01a806a3          	sb	s10,13(a6)
     5d0:	d0043d03          	ld	s10,-768(s0)
     5d4:	ffed0d13          	addi	s10,s10,-2
     5d8:	01a80723          	sb	s10,14(a6)
     5dc:	d0843d03          	ld	s10,-760(s0)
     5e0:	ffed0d13          	addi	s10,s10,-2
     5e4:	01a807a3          	sb	s10,15(a6)
     5e8:	d1043d03          	ld	s10,-752(s0)
     5ec:	ffed0d13          	addi	s10,s10,-2
     5f0:	01a80823          	sb	s10,16(a6)
     5f4:	d1843d03          	ld	s10,-744(s0)
     5f8:	ffed0d13          	addi	s10,s10,-2
     5fc:	01a808a3          	sb	s10,17(a6)
     600:	d2043d03          	ld	s10,-736(s0)
     604:	ffed0d13          	addi	s10,s10,-2
     608:	01a80923          	sb	s10,18(a6)
     60c:	d2843d03          	ld	s10,-728(s0)
     610:	ffed0d13          	addi	s10,s10,-2
     614:	01a809a3          	sb	s10,19(a6)
     618:	d3043d03          	ld	s10,-720(s0)
     61c:	ffed0d13          	addi	s10,s10,-2
     620:	01a80a23          	sb	s10,20(a6)
     624:	d3843d03          	ld	s10,-712(s0)
     628:	ffed0d13          	addi	s10,s10,-2
     62c:	01a80aa3          	sb	s10,21(a6)
     630:	d4843d03          	ld	s10,-696(s0)
     634:	ffed0d13          	addi	s10,s10,-2
     638:	01a80b23          	sb	s10,22(a6)
     63c:	d5843d03          	ld	s10,-680(s0)
     640:	ffed0d13          	addi	s10,s10,-2
     644:	01a80ba3          	sb	s10,23(a6)
     648:	d6843d03          	ld	s10,-664(s0)
     64c:	ffed0d13          	addi	s10,s10,-2
     650:	01a80c23          	sb	s10,24(a6)
     654:	d7843d03          	ld	s10,-648(s0)
     658:	ffed0d13          	addi	s10,s10,-2
     65c:	01a80ca3          	sb	s10,25(a6)
     660:	d8843d03          	ld	s10,-632(s0)
     664:	ffed0d13          	addi	s10,s10,-2
     668:	01a80d23          	sb	s10,26(a6)
     66c:	d9843d03          	ld	s10,-616(s0)
     670:	ffed0d13          	addi	s10,s10,-2
     674:	01a80da3          	sb	s10,27(a6)
     678:	da843d03          	ld	s10,-600(s0)
     67c:	ffed0d13          	addi	s10,s10,-2
     680:	01a80e23          	sb	s10,28(a6)
     684:	db843d03          	ld	s10,-584(s0)
     688:	ffed0d13          	addi	s10,s10,-2
     68c:	01a80ea3          	sb	s10,29(a6)
     690:	dc843d03          	ld	s10,-568(s0)
     694:	ffed0d13          	addi	s10,s10,-2
     698:	01a80f23          	sb	s10,30(a6)
     69c:	dd843d03          	ld	s10,-552(s0)
     6a0:	ffed0d13          	addi	s10,s10,-2
     6a4:	01a80fa3          	sb	s10,31(a6)
     6a8:	b4043d03          	ld	s10,-1216(s0)
     6ac:	ffed0d13          	addi	s10,s10,-2
     6b0:	00001837          	lui	a6,0x1
     6b4:	41040833          	sub	a6,s0,a6
     6b8:	b6083803          	ld	a6,-1184(a6) # b60 <.LBB52_3+0x978>
     6bc:	00180833          	add	a6,a6,ra
     6c0:	01a801a3          	sb	s10,3(a6)
     6c4:	b5043d03          	ld	s10,-1200(s0)
     6c8:	ffed0d13          	addi	s10,s10,-2
     6cc:	01a80123          	sb	s10,2(a6)
     6d0:	b6043d03          	ld	s10,-1184(s0)
     6d4:	ffed0d13          	addi	s10,s10,-2
     6d8:	01a800a3          	sb	s10,1(a6)
     6dc:	b7043d03          	ld	s10,-1168(s0)
     6e0:	ffed0d13          	addi	s10,s10,-2
     6e4:	01a80023          	sb	s10,0(a6)
     6e8:	b8043d03          	ld	s10,-1152(s0)
     6ec:	ffed0d13          	addi	s10,s10,-2
     6f0:	01a80223          	sb	s10,4(a6)
     6f4:	b9043d03          	ld	s10,-1136(s0)
     6f8:	ffed0d13          	addi	s10,s10,-2
     6fc:	01a802a3          	sb	s10,5(a6)
     700:	ba043d03          	ld	s10,-1120(s0)
     704:	ffed0d13          	addi	s10,s10,-2
     708:	01a80323          	sb	s10,6(a6)
     70c:	bb043d03          	ld	s10,-1104(s0)
     710:	ffed0d13          	addi	s10,s10,-2
     714:	01a803a3          	sb	s10,7(a6)
     718:	bc043d03          	ld	s10,-1088(s0)
     71c:	ffed0d13          	addi	s10,s10,-2
     720:	01a80423          	sb	s10,8(a6)
     724:	bd043d03          	ld	s10,-1072(s0)
     728:	ffed0d13          	addi	s10,s10,-2
     72c:	01a804a3          	sb	s10,9(a6)
     730:	be043d03          	ld	s10,-1056(s0)
     734:	ffed0d13          	addi	s10,s10,-2
     738:	01a80523          	sb	s10,10(a6)
     73c:	be843d03          	ld	s10,-1048(s0)
     740:	ffed0d13          	addi	s10,s10,-2
     744:	01a805a3          	sb	s10,11(a6)
     748:	bf043d03          	ld	s10,-1040(s0)
     74c:	ffed0d13          	addi	s10,s10,-2
     750:	01a80623          	sb	s10,12(a6)
     754:	bf843d03          	ld	s10,-1032(s0)
     758:	ffed0d13          	addi	s10,s10,-2
     75c:	01a806a3          	sb	s10,13(a6)
     760:	c0043d03          	ld	s10,-1024(s0)
     764:	ffed0d13          	addi	s10,s10,-2
     768:	01a80723          	sb	s10,14(a6)
     76c:	c0843d03          	ld	s10,-1016(s0)
     770:	ffed0d13          	addi	s10,s10,-2
     774:	01a807a3          	sb	s10,15(a6)
     778:	c1043d03          	ld	s10,-1008(s0)
     77c:	ffed0d13          	addi	s10,s10,-2
     780:	01a80823          	sb	s10,16(a6)
     784:	c1843d03          	ld	s10,-1000(s0)
     788:	ffed0d13          	addi	s10,s10,-2
     78c:	01a808a3          	sb	s10,17(a6)
     790:	c2043d03          	ld	s10,-992(s0)
     794:	ffed0d13          	addi	s10,s10,-2
     798:	01a80923          	sb	s10,18(a6)
     79c:	c2843d03          	ld	s10,-984(s0)
     7a0:	ffed0d13          	addi	s10,s10,-2
     7a4:	01a809a3          	sb	s10,19(a6)
     7a8:	c3043d03          	ld	s10,-976(s0)
     7ac:	ffed0d13          	addi	s10,s10,-2
     7b0:	01a80a23          	sb	s10,20(a6)
     7b4:	c3843d03          	ld	s10,-968(s0)
     7b8:	ffed0d13          	addi	s10,s10,-2
     7bc:	01a80aa3          	sb	s10,21(a6)
     7c0:	c4843d03          	ld	s10,-952(s0)
     7c4:	ffed0d13          	addi	s10,s10,-2
     7c8:	01a80b23          	sb	s10,22(a6)
     7cc:	c5843d03          	ld	s10,-936(s0)
     7d0:	ffed0d13          	addi	s10,s10,-2
     7d4:	01a80ba3          	sb	s10,23(a6)
     7d8:	c6843d03          	ld	s10,-920(s0)
     7dc:	ffed0d13          	addi	s10,s10,-2
     7e0:	01a80c23          	sb	s10,24(a6)
     7e4:	c7843d03          	ld	s10,-904(s0)
     7e8:	ffed0d13          	addi	s10,s10,-2
     7ec:	01a80ca3          	sb	s10,25(a6)
     7f0:	c8843d03          	ld	s10,-888(s0)
     7f4:	ffed0d13          	addi	s10,s10,-2
     7f8:	01a80d23          	sb	s10,26(a6)
     7fc:	c9843d03          	ld	s10,-872(s0)
     800:	ffed0d13          	addi	s10,s10,-2
     804:	01a80da3          	sb	s10,27(a6)
     808:	ca843d03          	ld	s10,-856(s0)
     80c:	ffed0d13          	addi	s10,s10,-2
     810:	01a80e23          	sb	s10,28(a6)
     814:	cb843d03          	ld	s10,-840(s0)
     818:	ffed0d13          	addi	s10,s10,-2
     81c:	01a80ea3          	sb	s10,29(a6)
     820:	cc843d03          	ld	s10,-824(s0)
     824:	ffed0d13          	addi	s10,s10,-2
     828:	01a80f23          	sb	s10,30(a6)
     82c:	cd843d03          	ld	s10,-808(s0)
     830:	ffed0d13          	addi	s10,s10,-2
     834:	01a80fa3          	sb	s10,31(a6)
     838:	a4043d03          	ld	s10,-1472(s0)
     83c:	ffed0d13          	addi	s10,s10,-2
     840:	00001837          	lui	a6,0x1
     844:	41040833          	sub	a6,s0,a6
     848:	b5883803          	ld	a6,-1192(a6) # b58 <.LBB52_3+0x970>
     84c:	00180833          	add	a6,a6,ra
     850:	01a801a3          	sb	s10,3(a6)
     854:	a5043d03          	ld	s10,-1456(s0)
     858:	ffed0d13          	addi	s10,s10,-2
     85c:	01a80123          	sb	s10,2(a6)
     860:	a6043d03          	ld	s10,-1440(s0)
     864:	ffed0d13          	addi	s10,s10,-2
     868:	01a800a3          	sb	s10,1(a6)
     86c:	a7043d03          	ld	s10,-1424(s0)
     870:	ffed0d13          	addi	s10,s10,-2
     874:	01a80023          	sb	s10,0(a6)
     878:	a8043d03          	ld	s10,-1408(s0)
     87c:	ffed0d13          	addi	s10,s10,-2
     880:	01a80223          	sb	s10,4(a6)
     884:	a9043d03          	ld	s10,-1392(s0)
     888:	ffed0d13          	addi	s10,s10,-2
     88c:	01a802a3          	sb	s10,5(a6)
     890:	aa043d03          	ld	s10,-1376(s0)
     894:	ffed0d13          	addi	s10,s10,-2
     898:	01a80323          	sb	s10,6(a6)
     89c:	ab043d03          	ld	s10,-1360(s0)
     8a0:	ffed0d13          	addi	s10,s10,-2
     8a4:	01a803a3          	sb	s10,7(a6)
     8a8:	ac043d03          	ld	s10,-1344(s0)
     8ac:	ffed0d13          	addi	s10,s10,-2
     8b0:	01a80423          	sb	s10,8(a6)
     8b4:	ad043d03          	ld	s10,-1328(s0)
     8b8:	ffed0d13          	addi	s10,s10,-2
     8bc:	01a804a3          	sb	s10,9(a6)
     8c0:	ae043d03          	ld	s10,-1312(s0)
     8c4:	ffed0d13          	addi	s10,s10,-2
     8c8:	01a80523          	sb	s10,10(a6)
     8cc:	ae843d03          	ld	s10,-1304(s0)
     8d0:	ffed0d13          	addi	s10,s10,-2
     8d4:	01a805a3          	sb	s10,11(a6)
     8d8:	af043d03          	ld	s10,-1296(s0)
     8dc:	ffed0d13          	addi	s10,s10,-2
     8e0:	01a80623          	sb	s10,12(a6)
     8e4:	af843d03          	ld	s10,-1288(s0)
     8e8:	ffed0d13          	addi	s10,s10,-2
     8ec:	01a806a3          	sb	s10,13(a6)
     8f0:	b0043d03          	ld	s10,-1280(s0)
     8f4:	ffed0d13          	addi	s10,s10,-2
     8f8:	01a80723          	sb	s10,14(a6)
     8fc:	b0843d03          	ld	s10,-1272(s0)
     900:	ffed0d13          	addi	s10,s10,-2
     904:	01a807a3          	sb	s10,15(a6)
     908:	b1043d03          	ld	s10,-1264(s0)
     90c:	ffed0d13          	addi	s10,s10,-2
     910:	01a80823          	sb	s10,16(a6)
     914:	b1843d03          	ld	s10,-1256(s0)
     918:	ffed0d13          	addi	s10,s10,-2
     91c:	01a808a3          	sb	s10,17(a6)
     920:	b2043d03          	ld	s10,-1248(s0)
     924:	ffed0d13          	addi	s10,s10,-2
     928:	01a80923          	sb	s10,18(a6)
     92c:	b2843d03          	ld	s10,-1240(s0)
     930:	ffed0d13          	addi	s10,s10,-2
     934:	01a809a3          	sb	s10,19(a6)
     938:	b3043d03          	ld	s10,-1232(s0)
     93c:	ffed0d13          	addi	s10,s10,-2
     940:	01a80a23          	sb	s10,20(a6)
     944:	b3843d03          	ld	s10,-1224(s0)
     948:	ffed0d13          	addi	s10,s10,-2
     94c:	01a80aa3          	sb	s10,21(a6)
     950:	b4843d03          	ld	s10,-1208(s0)
     954:	ffed0d13          	addi	s10,s10,-2
     958:	01a80b23          	sb	s10,22(a6)
     95c:	b5843d03          	ld	s10,-1192(s0)
     960:	ffed0d13          	addi	s10,s10,-2
     964:	01a80ba3          	sb	s10,23(a6)
     968:	b6843d03          	ld	s10,-1176(s0)
     96c:	ffed0d13          	addi	s10,s10,-2
     970:	01a80c23          	sb	s10,24(a6)
     974:	b7843d03          	ld	s10,-1160(s0)
     978:	ffed0d13          	addi	s10,s10,-2
     97c:	01a80ca3          	sb	s10,25(a6)
     980:	b8843d03          	ld	s10,-1144(s0)
     984:	ffed0d13          	addi	s10,s10,-2
     988:	01a80d23          	sb	s10,26(a6)
     98c:	b9843d03          	ld	s10,-1128(s0)
     990:	ffed0d13          	addi	s10,s10,-2
     994:	01a80da3          	sb	s10,27(a6)
     998:	ba843d03          	ld	s10,-1112(s0)
     99c:	ffed0d13          	addi	s10,s10,-2
     9a0:	01a80e23          	sb	s10,28(a6)
     9a4:	bb843d03          	ld	s10,-1096(s0)
     9a8:	ffed0d13          	addi	s10,s10,-2
     9ac:	01a80ea3          	sb	s10,29(a6)
     9b0:	bc843d03          	ld	s10,-1080(s0)
     9b4:	ffed0d13          	addi	s10,s10,-2
     9b8:	01a80f23          	sb	s10,30(a6)
     9bc:	bd843d03          	ld	s10,-1064(s0)
     9c0:	ffed0d13          	addi	s10,s10,-2
     9c4:	01a80fa3          	sb	s10,31(a6)
     9c8:	94043d03          	ld	s10,-1728(s0)
     9cc:	ffed0d13          	addi	s10,s10,-2
     9d0:	00001837          	lui	a6,0x1
     9d4:	41040833          	sub	a6,s0,a6
     9d8:	b5083803          	ld	a6,-1200(a6) # b50 <.LBB52_3+0x968>
     9dc:	00180833          	add	a6,a6,ra
     9e0:	01a801a3          	sb	s10,3(a6)
     9e4:	95043d03          	ld	s10,-1712(s0)
     9e8:	ffed0d13          	addi	s10,s10,-2
     9ec:	01a80123          	sb	s10,2(a6)
     9f0:	96043d03          	ld	s10,-1696(s0)
     9f4:	ffed0d13          	addi	s10,s10,-2
     9f8:	01a800a3          	sb	s10,1(a6)
     9fc:	97043d03          	ld	s10,-1680(s0)
     a00:	ffed0d13          	addi	s10,s10,-2
     a04:	01a80023          	sb	s10,0(a6)
     a08:	98043d03          	ld	s10,-1664(s0)
     a0c:	ffed0d13          	addi	s10,s10,-2
     a10:	01a80223          	sb	s10,4(a6)
     a14:	99043d03          	ld	s10,-1648(s0)
     a18:	ffed0d13          	addi	s10,s10,-2
     a1c:	01a802a3          	sb	s10,5(a6)
     a20:	9a043d03          	ld	s10,-1632(s0)
     a24:	ffed0d13          	addi	s10,s10,-2
     a28:	01a80323          	sb	s10,6(a6)
     a2c:	9b043d03          	ld	s10,-1616(s0)
     a30:	ffed0d13          	addi	s10,s10,-2
     a34:	01a803a3          	sb	s10,7(a6)
     a38:	9c043d03          	ld	s10,-1600(s0)
     a3c:	ffed0d13          	addi	s10,s10,-2
     a40:	01a80423          	sb	s10,8(a6)
     a44:	9d043d03          	ld	s10,-1584(s0)
     a48:	ffed0d13          	addi	s10,s10,-2
     a4c:	01a804a3          	sb	s10,9(a6)
     a50:	9e043d03          	ld	s10,-1568(s0)
     a54:	ffed0d13          	addi	s10,s10,-2
     a58:	01a80523          	sb	s10,10(a6)
     a5c:	9e843d03          	ld	s10,-1560(s0)
     a60:	ffed0d13          	addi	s10,s10,-2
     a64:	01a805a3          	sb	s10,11(a6)
     a68:	9f043d03          	ld	s10,-1552(s0)
     a6c:	ffed0d13          	addi	s10,s10,-2
     a70:	01a80623          	sb	s10,12(a6)
     a74:	9f843d03          	ld	s10,-1544(s0)
     a78:	ffed0d13          	addi	s10,s10,-2
     a7c:	01a806a3          	sb	s10,13(a6)
     a80:	a0043d03          	ld	s10,-1536(s0)
     a84:	ffed0d13          	addi	s10,s10,-2
     a88:	01a80723          	sb	s10,14(a6)
     a8c:	a0843d03          	ld	s10,-1528(s0)
     a90:	ffed0d13          	addi	s10,s10,-2
     a94:	01a807a3          	sb	s10,15(a6)
     a98:	a1043d03          	ld	s10,-1520(s0)
     a9c:	ffed0d13          	addi	s10,s10,-2
     aa0:	01a80823          	sb	s10,16(a6)
     aa4:	a1843d03          	ld	s10,-1512(s0)
     aa8:	ffed0d13          	addi	s10,s10,-2
     aac:	01a808a3          	sb	s10,17(a6)
     ab0:	a2043d03          	ld	s10,-1504(s0)
     ab4:	ffed0d13          	addi	s10,s10,-2
     ab8:	01a80923          	sb	s10,18(a6)
     abc:	a2843d03          	ld	s10,-1496(s0)
     ac0:	ffed0d13          	addi	s10,s10,-2
     ac4:	01a809a3          	sb	s10,19(a6)
     ac8:	a3043d03          	ld	s10,-1488(s0)
     acc:	ffed0d13          	addi	s10,s10,-2
     ad0:	01a80a23          	sb	s10,20(a6)
     ad4:	a3843d03          	ld	s10,-1480(s0)
     ad8:	ffed0d13          	addi	s10,s10,-2
     adc:	01a80aa3          	sb	s10,21(a6)
     ae0:	a4843d03          	ld	s10,-1464(s0)
     ae4:	ffed0d13          	addi	s10,s10,-2
     ae8:	01a80b23          	sb	s10,22(a6)
     aec:	a5843d03          	ld	s10,-1448(s0)
     af0:	ffed0d13          	addi	s10,s10,-2
     af4:	01a80ba3          	sb	s10,23(a6)
     af8:	a6843d03          	ld	s10,-1432(s0)
     afc:	ffed0d13          	addi	s10,s10,-2
     b00:	01a80c23          	sb	s10,24(a6)
     b04:	a7843d03          	ld	s10,-1416(s0)
     b08:	ffed0d13          	addi	s10,s10,-2
     b0c:	01a80ca3          	sb	s10,25(a6)
     b10:	a8843d03          	ld	s10,-1400(s0)
     b14:	ffed0d13          	addi	s10,s10,-2
     b18:	01a80d23          	sb	s10,26(a6)
     b1c:	a9843d03          	ld	s10,-1384(s0)
     b20:	ffed0d13          	addi	s10,s10,-2
     b24:	01a80da3          	sb	s10,27(a6)
     b28:	aa843d03          	ld	s10,-1368(s0)
     b2c:	ffed0d13          	addi	s10,s10,-2
     b30:	01a80e23          	sb	s10,28(a6)
     b34:	ab843d03          	ld	s10,-1352(s0)
     b38:	ffed0d13          	addi	s10,s10,-2
     b3c:	01a80ea3          	sb	s10,29(a6)
     b40:	ac843d03          	ld	s10,-1336(s0)
     b44:	ffed0d13          	addi	s10,s10,-2
     b48:	01a80f23          	sb	s10,30(a6)
     b4c:	ad843d03          	ld	s10,-1320(s0)
     b50:	ffed0d13          	addi	s10,s10,-2
     b54:	01a80fa3          	sb	s10,31(a6)
     b58:	ffe38393          	addi	t2,t2,-2
     b5c:	00001837          	lui	a6,0x1
     b60:	41040833          	sub	a6,s0,a6
     b64:	b4883803          	ld	a6,-1208(a6) # b48 <.LBB52_3+0x960>
     b68:	00180833          	add	a6,a6,ra
     b6c:	007801a3          	sb	t2,3(a6)
     b70:	ffed8d93          	addi	s11,s11,-2
     b74:	01b80123          	sb	s11,2(a6)
     b78:	86043383          	ld	t2,-1952(s0)
     b7c:	ffe38393          	addi	t2,t2,-2
     b80:	007800a3          	sb	t2,1(a6)
     b84:	87043383          	ld	t2,-1936(s0)
     b88:	ffe38393          	addi	t2,t2,-2
     b8c:	00780023          	sb	t2,0(a6)
     b90:	88043383          	ld	t2,-1920(s0)
     b94:	ffe38393          	addi	t2,t2,-2
     b98:	00780223          	sb	t2,4(a6)
     b9c:	89043383          	ld	t2,-1904(s0)
     ba0:	ffe38393          	addi	t2,t2,-2
     ba4:	007802a3          	sb	t2,5(a6)
     ba8:	8a043383          	ld	t2,-1888(s0)
     bac:	ffe38393          	addi	t2,t2,-2
     bb0:	00780323          	sb	t2,6(a6)
     bb4:	8b043383          	ld	t2,-1872(s0)
     bb8:	ffe38393          	addi	t2,t2,-2
     bbc:	007803a3          	sb	t2,7(a6)
     bc0:	8c043383          	ld	t2,-1856(s0)
     bc4:	ffe38393          	addi	t2,t2,-2
     bc8:	00780423          	sb	t2,8(a6)
     bcc:	8d043383          	ld	t2,-1840(s0)
     bd0:	ffe38393          	addi	t2,t2,-2
     bd4:	007804a3          	sb	t2,9(a6)
     bd8:	8e043383          	ld	t2,-1824(s0)
     bdc:	ffe38393          	addi	t2,t2,-2
     be0:	00780523          	sb	t2,10(a6)
     be4:	8e843383          	ld	t2,-1816(s0)
     be8:	ffe38393          	addi	t2,t2,-2
     bec:	007805a3          	sb	t2,11(a6)
     bf0:	8f043383          	ld	t2,-1808(s0)
     bf4:	ffe38393          	addi	t2,t2,-2
     bf8:	00780623          	sb	t2,12(a6)
     bfc:	8f843383          	ld	t2,-1800(s0)
     c00:	ffe38393          	addi	t2,t2,-2
     c04:	007806a3          	sb	t2,13(a6)
     c08:	90043383          	ld	t2,-1792(s0)
     c0c:	ffe38393          	addi	t2,t2,-2
     c10:	00780723          	sb	t2,14(a6)
     c14:	90843383          	ld	t2,-1784(s0)
     c18:	ffe38393          	addi	t2,t2,-2
     c1c:	007807a3          	sb	t2,15(a6)
     c20:	91043383          	ld	t2,-1776(s0)
     c24:	ffe38393          	addi	t2,t2,-2
     c28:	00780823          	sb	t2,16(a6)
     c2c:	91843383          	ld	t2,-1768(s0)
     c30:	ffe38393          	addi	t2,t2,-2
     c34:	007808a3          	sb	t2,17(a6)
     c38:	92043383          	ld	t2,-1760(s0)
     c3c:	ffe38393          	addi	t2,t2,-2
     c40:	00780923          	sb	t2,18(a6)
     c44:	92843383          	ld	t2,-1752(s0)
     c48:	ffe38393          	addi	t2,t2,-2
     c4c:	007809a3          	sb	t2,19(a6)
     c50:	93043383          	ld	t2,-1744(s0)
     c54:	ffe38393          	addi	t2,t2,-2
     c58:	00780a23          	sb	t2,20(a6)
     c5c:	93843383          	ld	t2,-1736(s0)
     c60:	ffe38393          	addi	t2,t2,-2
     c64:	00780aa3          	sb	t2,21(a6)
     c68:	94843383          	ld	t2,-1720(s0)
     c6c:	ffe38393          	addi	t2,t2,-2
     c70:	00780b23          	sb	t2,22(a6)
     c74:	95843383          	ld	t2,-1704(s0)
     c78:	ffe38393          	addi	t2,t2,-2
     c7c:	00780ba3          	sb	t2,23(a6)
     c80:	96843383          	ld	t2,-1688(s0)
     c84:	ffe38393          	addi	t2,t2,-2
     c88:	00780c23          	sb	t2,24(a6)
     c8c:	97843383          	ld	t2,-1672(s0)
     c90:	ffe38393          	addi	t2,t2,-2
     c94:	00780ca3          	sb	t2,25(a6)
     c98:	98843383          	ld	t2,-1656(s0)
     c9c:	ffe38393          	addi	t2,t2,-2
     ca0:	00780d23          	sb	t2,26(a6)
     ca4:	99843383          	ld	t2,-1640(s0)
     ca8:	ffe38393          	addi	t2,t2,-2
     cac:	00780da3          	sb	t2,27(a6)
     cb0:	9a843383          	ld	t2,-1624(s0)
     cb4:	ffe38393          	addi	t2,t2,-2
     cb8:	00780e23          	sb	t2,28(a6)
     cbc:	9b843383          	ld	t2,-1608(s0)
     cc0:	ffe38393          	addi	t2,t2,-2
     cc4:	00780ea3          	sb	t2,29(a6)
     cc8:	9c843383          	ld	t2,-1592(s0)
     ccc:	ffe38393          	addi	t2,t2,-2
     cd0:	00780f23          	sb	t2,30(a6)
     cd4:	9d843383          	ld	t2,-1576(s0)
     cd8:	ffe38393          	addi	t2,t2,-2
     cdc:	00780fa3          	sb	t2,31(a6)
     ce0:	ffee8e93          	addi	t4,t4,-2
     ce4:	00001837          	lui	a6,0x1
     ce8:	41040833          	sub	a6,s0,a6
     cec:	b4083803          	ld	a6,-1216(a6) # b40 <.LBB52_3+0x958>
     cf0:	00180833          	add	a6,a6,ra
     cf4:	01d801a3          	sb	t4,3(a6)
     cf8:	ffec8c93          	addi	s9,s9,-2
     cfc:	01980123          	sb	s9,2(a6)
     d00:	ffeb8b93          	addi	s7,s7,-2
     d04:	017800a3          	sb	s7,1(a6)
     d08:	ffe70713          	addi	a4,a4,-2
     d0c:	00e80023          	sb	a4,0(a6)
     d10:	ffef0f13          	addi	t5,t5,-2
     d14:	01e80223          	sb	t5,4(a6)
     d18:	ffe78793          	addi	a5,a5,-2
     d1c:	00f802a3          	sb	a5,5(a6)
     d20:	ffeb0b13          	addi	s6,s6,-2
     d24:	01680323          	sb	s6,6(a6)
     d28:	ffea8a93          	addi	s5,s5,-2
     d2c:	015803a3          	sb	s5,7(a6)
     d30:	ffea0a13          	addi	s4,s4,-2
     d34:	01480423          	sb	s4,8(a6)
     d38:	ffe98993          	addi	s3,s3,-2
     d3c:	013804a3          	sb	s3,9(a6)
     d40:	ffe90913          	addi	s2,s2,-2
     d44:	01280523          	sb	s2,10(a6)
     d48:	ffe48493          	addi	s1,s1,-2
     d4c:	009805a3          	sb	s1,11(a6)
     d50:	ffef8f93          	addi	t6,t6,-2
     d54:	01f80623          	sb	t6,12(a6)
     d58:	ffe60613          	addi	a2,a2,-2
     d5c:	00c806a3          	sb	a2,13(a6)
     d60:	ffe58593          	addi	a1,a1,-2
     d64:	00b80723          	sb	a1,14(a6)
     d68:	ffee0e13          	addi	t3,t3,-2
     d6c:	01c807a3          	sb	t3,15(a6)
     d70:	ffe50513          	addi	a0,a0,-2
     d74:	00a80823          	sb	a0,16(a6)
     d78:	ffe68693          	addi	a3,a3,-2
     d7c:	00d808a3          	sb	a3,17(a6)
     d80:	ffe30313          	addi	t1,t1,-2
     d84:	00680923          	sb	t1,18(a6)
     d88:	ffe28293          	addi	t0,t0,-2
     d8c:	005809a3          	sb	t0,19(a6)
     d90:	ffec0c13          	addi	s8,s8,-2
     d94:	01880a23          	sb	s8,20(a6)
     d98:	ffe88893          	addi	a7,a7,-2
     d9c:	01180aa3          	sb	a7,21(a6)
     da0:	85043083          	ld	ra,-1968(s0)
     da4:	ffe08093          	addi	ra,ra,-2
     da8:	00180b23          	sb	ra,22(a6)
     dac:	85843503          	ld	a0,-1960(s0)
     db0:	ffe50513          	addi	a0,a0,-2
     db4:	00a80ba3          	sb	a0,23(a6)
     db8:	86843503          	ld	a0,-1944(s0)
     dbc:	ffe50513          	addi	a0,a0,-2
     dc0:	00a80c23          	sb	a0,24(a6)
     dc4:	87843503          	ld	a0,-1928(s0)
     dc8:	ffe50513          	addi	a0,a0,-2
     dcc:	00a80ca3          	sb	a0,25(a6)
     dd0:	88843503          	ld	a0,-1912(s0)
     dd4:	ffe50513          	addi	a0,a0,-2
     dd8:	00a80d23          	sb	a0,26(a6)
     ddc:	89843503          	ld	a0,-1896(s0)
     de0:	ffe50513          	addi	a0,a0,-2
     de4:	00a80da3          	sb	a0,27(a6)
     de8:	8a843503          	ld	a0,-1880(s0)
     dec:	ffe50513          	addi	a0,a0,-2
     df0:	00a80e23          	sb	a0,28(a6)
     df4:	8b843503          	ld	a0,-1864(s0)
     df8:	ffe50513          	addi	a0,a0,-2
     dfc:	00a80ea3          	sb	a0,29(a6)
     e00:	8c843503          	ld	a0,-1848(s0)
     e04:	ffe50513          	addi	a0,a0,-2
     e08:	00a80f23          	sb	a0,30(a6)
     e0c:	8d843503          	ld	a0,-1832(s0)
     e10:	ffe50513          	addi	a0,a0,-2
     e14:	00a80fa3          	sb	a0,31(a6)
     e18:	00001537          	lui	a0,0x1
     e1c:	40a40533          	sub	a0,s0,a0
     e20:	64853503          	ld	a0,1608(a0) # 1648 <.LBB52_5+0x26c>
     e24:	00157513          	andi	a0,a0,1
     e28:	02000693          	li	a3,32
     e2c:	00000593          	li	a1,0
     e30:	aa050a63          	beqz	a0,e4 <.LBB52_1>

0000000000000e34 <.LBB52_4>:
     e34:	00001537          	lui	a0,0x1
     e38:	40a40533          	sub	a0,s0,a0
     e3c:	64b53423          	sd	a1,1608(a0) # 1648 <.LBB52_5+0x26c>
     e40:	00001537          	lui	a0,0x1
     e44:	40a40533          	sub	a0,s0,a0
     e48:	b9053503          	ld	a0,-1136(a0) # b90 <.LBB52_3+0x9a8>
     e4c:	000015b7          	lui	a1,0x1
     e50:	40b405b3          	sub	a1,s0,a1
     e54:	64d5bc23          	sd	a3,1624(a1) # 1658 <.LBB52_5+0x27c>
     e58:	00d507b3          	add	a5,a0,a3
     e5c:	00003eb7          	lui	t4,0x3
     e60:	00001537          	lui	a0,0x1
     e64:	40a40533          	sub	a0,s0,a0
     e68:	b9853f03          	ld	t5,-1128(a0) # b98 <.LBB52_3+0x9b0>
     e6c:	00001537          	lui	a0,0x1
     e70:	40a40533          	sub	a0,s0,a0
     e74:	6c053423          	sd	zero,1736(a0) # 16c8 <.LBB52_5+0x2ec>
     e78:	00001537          	lui	a0,0x1
     e7c:	40a40533          	sub	a0,s0,a0
     e80:	6a053823          	sd	zero,1712(a0) # 16b0 <.LBB52_5+0x2d4>
     e84:	00001537          	lui	a0,0x1
     e88:	40a40533          	sub	a0,s0,a0
     e8c:	6a053423          	sd	zero,1704(a0) # 16a8 <.LBB52_5+0x2cc>
     e90:	00001537          	lui	a0,0x1
     e94:	40a40533          	sub	a0,s0,a0
     e98:	6a053c23          	sd	zero,1720(a0) # 16b8 <.LBB52_5+0x2dc>
     e9c:	00001537          	lui	a0,0x1
     ea0:	40a40533          	sub	a0,s0,a0
     ea4:	6c053823          	sd	zero,1744(a0) # 16d0 <.LBB52_5+0x2f4>
     ea8:	00001537          	lui	a0,0x1
     eac:	40a40533          	sub	a0,s0,a0
     eb0:	6c053023          	sd	zero,1728(a0) # 16c0 <.LBB52_5+0x2e4>
     eb4:	00001537          	lui	a0,0x1
     eb8:	40a40533          	sub	a0,s0,a0
     ebc:	6a053023          	sd	zero,1696(a0) # 16a0 <.LBB52_5+0x2c4>
     ec0:	00001537          	lui	a0,0x1
     ec4:	40a40533          	sub	a0,s0,a0
     ec8:	68053c23          	sd	zero,1688(a0) # 1698 <.LBB52_5+0x2bc>
     ecc:	00001537          	lui	a0,0x1
     ed0:	40a40533          	sub	a0,s0,a0
     ed4:	68053823          	sd	zero,1680(a0) # 1690 <.LBB52_5+0x2b4>
     ed8:	00001537          	lui	a0,0x1
     edc:	40a40533          	sub	a0,s0,a0
     ee0:	6c053c23          	sd	zero,1752(a0) # 16d8 <.LBB52_5+0x2fc>
     ee4:	00001537          	lui	a0,0x1
     ee8:	40a40533          	sub	a0,s0,a0
     eec:	6e053023          	sd	zero,1760(a0) # 16e0 <.LBB52_5+0x304>
     ef0:	00001537          	lui	a0,0x1
     ef4:	40a40533          	sub	a0,s0,a0
     ef8:	6e053423          	sd	zero,1768(a0) # 16e8 <.LBB52_5+0x30c>
     efc:	00001537          	lui	a0,0x1
     f00:	40a40533          	sub	a0,s0,a0
     f04:	6e053823          	sd	zero,1776(a0) # 16f0 <.LBB52_5+0x314>
     f08:	00001537          	lui	a0,0x1
     f0c:	40a40533          	sub	a0,s0,a0
     f10:	6e053c23          	sd	zero,1784(a0) # 16f8 <.LBB52_5+0x31c>
     f14:	00001537          	lui	a0,0x1
     f18:	40a40533          	sub	a0,s0,a0
     f1c:	70053023          	sd	zero,1792(a0) # 1700 <.LBB52_5+0x324>
     f20:	00001537          	lui	a0,0x1
     f24:	40a40533          	sub	a0,s0,a0
     f28:	70053423          	sd	zero,1800(a0) # 1708 <.LBB52_5+0x32c>
     f2c:	00001537          	lui	a0,0x1
     f30:	40a40533          	sub	a0,s0,a0
     f34:	70053823          	sd	zero,1808(a0) # 1710 <.LBB52_5+0x334>
     f38:	00001537          	lui	a0,0x1
     f3c:	40a40533          	sub	a0,s0,a0
     f40:	70053c23          	sd	zero,1816(a0) # 1718 <.LBB52_5+0x33c>
     f44:	00001537          	lui	a0,0x1
     f48:	40a40533          	sub	a0,s0,a0
     f4c:	72053023          	sd	zero,1824(a0) # 1720 <.LBB52_5+0x344>
     f50:	00001537          	lui	a0,0x1
     f54:	40a40533          	sub	a0,s0,a0
     f58:	72053423          	sd	zero,1832(a0) # 1728 <.LBB52_5+0x34c>
     f5c:	00001537          	lui	a0,0x1
     f60:	40a40533          	sub	a0,s0,a0
     f64:	72053823          	sd	zero,1840(a0) # 1730 <.LBB52_5+0x354>
     f68:	00001537          	lui	a0,0x1
     f6c:	40a40533          	sub	a0,s0,a0
     f70:	72053c23          	sd	zero,1848(a0) # 1738 <.LBB52_5+0x35c>
     f74:	00001537          	lui	a0,0x1
     f78:	40a40533          	sub	a0,s0,a0
     f7c:	74053023          	sd	zero,1856(a0) # 1740 <.LBB52_5+0x364>
     f80:	00001537          	lui	a0,0x1
     f84:	40a40533          	sub	a0,s0,a0
     f88:	74053423          	sd	zero,1864(a0) # 1748 <.LBB52_5+0x36c>
     f8c:	00001537          	lui	a0,0x1
     f90:	40a40533          	sub	a0,s0,a0
     f94:	74053823          	sd	zero,1872(a0) # 1750 <.LBB52_5+0x374>
     f98:	00001537          	lui	a0,0x1
     f9c:	40a40533          	sub	a0,s0,a0
     fa0:	74053c23          	sd	zero,1880(a0) # 1758 <.LBB52_5+0x37c>
     fa4:	00001537          	lui	a0,0x1
     fa8:	40a40533          	sub	a0,s0,a0
     fac:	76053023          	sd	zero,1888(a0) # 1760 <.LBB52_5+0x384>
     fb0:	00001537          	lui	a0,0x1
     fb4:	40a40533          	sub	a0,s0,a0
     fb8:	76053423          	sd	zero,1896(a0) # 1768 <.LBB52_5+0x38c>
     fbc:	00001537          	lui	a0,0x1
     fc0:	40a40533          	sub	a0,s0,a0
     fc4:	76053823          	sd	zero,1904(a0) # 1770 <.LBB52_5+0x394>
     fc8:	00001537          	lui	a0,0x1
     fcc:	40a40533          	sub	a0,s0,a0
     fd0:	76053c23          	sd	zero,1912(a0) # 1778 <.LBB52_5+0x39c>
     fd4:	00001537          	lui	a0,0x1
     fd8:	40a40533          	sub	a0,s0,a0
     fdc:	78053023          	sd	zero,1920(a0) # 1780 <.LBB52_5+0x3a4>
     fe0:	00001537          	lui	a0,0x1
     fe4:	40a40533          	sub	a0,s0,a0
     fe8:	78053423          	sd	zero,1928(a0) # 1788 <.LBB52_5+0x3ac>
     fec:	00001537          	lui	a0,0x1
     ff0:	40a40533          	sub	a0,s0,a0
     ff4:	7a053423          	sd	zero,1960(a0) # 17a8 <.LBB52_5+0x3cc>
     ff8:	00001537          	lui	a0,0x1
     ffc:	40a40533          	sub	a0,s0,a0
    1000:	7a053023          	sd	zero,1952(a0) # 17a0 <.LBB52_5+0x3c4>
    1004:	00001537          	lui	a0,0x1
    1008:	40a40533          	sub	a0,s0,a0
    100c:	78053c23          	sd	zero,1944(a0) # 1798 <.LBB52_5+0x3bc>
    1010:	00001537          	lui	a0,0x1
    1014:	40a40533          	sub	a0,s0,a0
    1018:	78053823          	sd	zero,1936(a0) # 1790 <.LBB52_5+0x3b4>
    101c:	00001537          	lui	a0,0x1
    1020:	40a40533          	sub	a0,s0,a0
    1024:	7a053823          	sd	zero,1968(a0) # 17b0 <.LBB52_5+0x3d4>
    1028:	00001537          	lui	a0,0x1
    102c:	40a40533          	sub	a0,s0,a0
    1030:	7a053c23          	sd	zero,1976(a0) # 17b8 <.LBB52_5+0x3dc>
    1034:	00001537          	lui	a0,0x1
    1038:	40a40533          	sub	a0,s0,a0
    103c:	7c053023          	sd	zero,1984(a0) # 17c0 <.LBB52_5+0x3e4>
    1040:	00001537          	lui	a0,0x1
    1044:	40a40533          	sub	a0,s0,a0
    1048:	7c053423          	sd	zero,1992(a0) # 17c8 <.LBB52_5+0x3ec>
    104c:	00001537          	lui	a0,0x1
    1050:	40a40533          	sub	a0,s0,a0
    1054:	7c053823          	sd	zero,2000(a0) # 17d0 <.LBB52_5+0x3f4>
    1058:	00001537          	lui	a0,0x1
    105c:	40a40533          	sub	a0,s0,a0
    1060:	7c053c23          	sd	zero,2008(a0) # 17d8 <.LBB52_5+0x3fc>
    1064:	00001537          	lui	a0,0x1
    1068:	40a40533          	sub	a0,s0,a0
    106c:	7e053023          	sd	zero,2016(a0) # 17e0 <.LBB52_5+0x404>
    1070:	00001537          	lui	a0,0x1
    1074:	40a40533          	sub	a0,s0,a0
    1078:	7e053423          	sd	zero,2024(a0) # 17e8 <.LBB52_5+0x40c>
    107c:	00001537          	lui	a0,0x1
    1080:	40a40533          	sub	a0,s0,a0
    1084:	7e053823          	sd	zero,2032(a0) # 17f0 <.LBB52_5+0x414>
    1088:	00001537          	lui	a0,0x1
    108c:	40a40533          	sub	a0,s0,a0
    1090:	7e053c23          	sd	zero,2040(a0) # 17f8 <.LBB52_5+0x41c>
    1094:	80043023          	sd	zero,-2048(s0)
    1098:	80043423          	sd	zero,-2040(s0)
    109c:	80043823          	sd	zero,-2032(s0)
    10a0:	80043c23          	sd	zero,-2024(s0)
    10a4:	82043023          	sd	zero,-2016(s0)
    10a8:	82043423          	sd	zero,-2008(s0)
    10ac:	82043823          	sd	zero,-2000(s0)
    10b0:	82043c23          	sd	zero,-1992(s0)
    10b4:	84043023          	sd	zero,-1984(s0)
    10b8:	84043423          	sd	zero,-1976(s0)
    10bc:	84043823          	sd	zero,-1968(s0)
    10c0:	84043c23          	sd	zero,-1960(s0)
    10c4:	86043023          	sd	zero,-1952(s0)
    10c8:	86043423          	sd	zero,-1944(s0)
    10cc:	86043823          	sd	zero,-1936(s0)
    10d0:	86043c23          	sd	zero,-1928(s0)
    10d4:	88043023          	sd	zero,-1920(s0)
    10d8:	88043423          	sd	zero,-1912(s0)
    10dc:	8a043423          	sd	zero,-1880(s0)
    10e0:	8a043023          	sd	zero,-1888(s0)
    10e4:	88043c23          	sd	zero,-1896(s0)
    10e8:	88043823          	sd	zero,-1904(s0)
    10ec:	8a043823          	sd	zero,-1872(s0)
    10f0:	8a043c23          	sd	zero,-1864(s0)
    10f4:	8c043023          	sd	zero,-1856(s0)
    10f8:	8c043423          	sd	zero,-1848(s0)
    10fc:	8c043823          	sd	zero,-1840(s0)
    1100:	8c043c23          	sd	zero,-1832(s0)
    1104:	8e043023          	sd	zero,-1824(s0)
    1108:	8e043423          	sd	zero,-1816(s0)
    110c:	8e043823          	sd	zero,-1808(s0)
    1110:	8e043c23          	sd	zero,-1800(s0)
    1114:	90043023          	sd	zero,-1792(s0)
    1118:	90043423          	sd	zero,-1784(s0)
    111c:	90043823          	sd	zero,-1776(s0)
    1120:	90043c23          	sd	zero,-1768(s0)
    1124:	92043023          	sd	zero,-1760(s0)
    1128:	92043423          	sd	zero,-1752(s0)
    112c:	92043823          	sd	zero,-1744(s0)
    1130:	92043c23          	sd	zero,-1736(s0)
    1134:	94043023          	sd	zero,-1728(s0)
    1138:	94043423          	sd	zero,-1720(s0)
    113c:	94043823          	sd	zero,-1712(s0)
    1140:	94043c23          	sd	zero,-1704(s0)
    1144:	96043023          	sd	zero,-1696(s0)
    1148:	96043423          	sd	zero,-1688(s0)
    114c:	96043823          	sd	zero,-1680(s0)
    1150:	96043c23          	sd	zero,-1672(s0)
    1154:	98043023          	sd	zero,-1664(s0)
    1158:	98043423          	sd	zero,-1656(s0)
    115c:	9a043423          	sd	zero,-1624(s0)
    1160:	9a043023          	sd	zero,-1632(s0)
    1164:	98043c23          	sd	zero,-1640(s0)
    1168:	98043823          	sd	zero,-1648(s0)
    116c:	9a043823          	sd	zero,-1616(s0)
    1170:	9a043c23          	sd	zero,-1608(s0)
    1174:	9c043023          	sd	zero,-1600(s0)
    1178:	9c043423          	sd	zero,-1592(s0)
    117c:	9c043823          	sd	zero,-1584(s0)
    1180:	9c043c23          	sd	zero,-1576(s0)
    1184:	9e043023          	sd	zero,-1568(s0)
    1188:	9e043423          	sd	zero,-1560(s0)
    118c:	9e043823          	sd	zero,-1552(s0)
    1190:	9e043c23          	sd	zero,-1544(s0)
    1194:	a0043023          	sd	zero,-1536(s0)
    1198:	a0043423          	sd	zero,-1528(s0)
    119c:	a0043823          	sd	zero,-1520(s0)
    11a0:	a0043c23          	sd	zero,-1512(s0)
    11a4:	a2043023          	sd	zero,-1504(s0)
    11a8:	a2043423          	sd	zero,-1496(s0)
    11ac:	a2043823          	sd	zero,-1488(s0)
    11b0:	a2043c23          	sd	zero,-1480(s0)
    11b4:	a4043023          	sd	zero,-1472(s0)
    11b8:	a4043423          	sd	zero,-1464(s0)
    11bc:	a4043823          	sd	zero,-1456(s0)
    11c0:	a4043c23          	sd	zero,-1448(s0)
    11c4:	a6043023          	sd	zero,-1440(s0)
    11c8:	a6043423          	sd	zero,-1432(s0)
    11cc:	a6043823          	sd	zero,-1424(s0)
    11d0:	a6043c23          	sd	zero,-1416(s0)
    11d4:	a8043023          	sd	zero,-1408(s0)
    11d8:	a8043423          	sd	zero,-1400(s0)
    11dc:	aa043423          	sd	zero,-1368(s0)
    11e0:	aa043023          	sd	zero,-1376(s0)
    11e4:	a8043c23          	sd	zero,-1384(s0)
    11e8:	a8043823          	sd	zero,-1392(s0)
    11ec:	aa043823          	sd	zero,-1360(s0)
    11f0:	aa043c23          	sd	zero,-1352(s0)
    11f4:	ac043023          	sd	zero,-1344(s0)
    11f8:	ac043423          	sd	zero,-1336(s0)
    11fc:	ac043823          	sd	zero,-1328(s0)
    1200:	ac043c23          	sd	zero,-1320(s0)
    1204:	ae043023          	sd	zero,-1312(s0)
    1208:	ae043423          	sd	zero,-1304(s0)
    120c:	ae043823          	sd	zero,-1296(s0)
    1210:	ae043c23          	sd	zero,-1288(s0)
    1214:	b0043023          	sd	zero,-1280(s0)
    1218:	b0043423          	sd	zero,-1272(s0)
    121c:	b0043823          	sd	zero,-1264(s0)
    1220:	b0043c23          	sd	zero,-1256(s0)
    1224:	b2043023          	sd	zero,-1248(s0)
    1228:	b2043423          	sd	zero,-1240(s0)
    122c:	b2043823          	sd	zero,-1232(s0)
    1230:	b2043c23          	sd	zero,-1224(s0)
    1234:	b4043023          	sd	zero,-1216(s0)
    1238:	b4043423          	sd	zero,-1208(s0)
    123c:	b4043823          	sd	zero,-1200(s0)
    1240:	b4043c23          	sd	zero,-1192(s0)
    1244:	b6043023          	sd	zero,-1184(s0)
    1248:	b6043423          	sd	zero,-1176(s0)
    124c:	b6043823          	sd	zero,-1168(s0)
    1250:	b6043c23          	sd	zero,-1160(s0)
    1254:	b8043023          	sd	zero,-1152(s0)
    1258:	b8043423          	sd	zero,-1144(s0)
    125c:	ba043423          	sd	zero,-1112(s0)
    1260:	ba043023          	sd	zero,-1120(s0)
    1264:	b8043c23          	sd	zero,-1128(s0)
    1268:	b8043823          	sd	zero,-1136(s0)
    126c:	ba043823          	sd	zero,-1104(s0)
    1270:	ba043c23          	sd	zero,-1096(s0)
    1274:	bc043023          	sd	zero,-1088(s0)
    1278:	bc043423          	sd	zero,-1080(s0)
    127c:	bc043823          	sd	zero,-1072(s0)
    1280:	bc043c23          	sd	zero,-1064(s0)
    1284:	be043023          	sd	zero,-1056(s0)
    1288:	be043423          	sd	zero,-1048(s0)
    128c:	be043823          	sd	zero,-1040(s0)
    1290:	be043c23          	sd	zero,-1032(s0)
    1294:	c0043023          	sd	zero,-1024(s0)
    1298:	c0043423          	sd	zero,-1016(s0)
    129c:	c0043823          	sd	zero,-1008(s0)
    12a0:	c0043c23          	sd	zero,-1000(s0)
    12a4:	c2043023          	sd	zero,-992(s0)
    12a8:	c2043423          	sd	zero,-984(s0)
    12ac:	c2043823          	sd	zero,-976(s0)
    12b0:	c2043c23          	sd	zero,-968(s0)
    12b4:	c4043023          	sd	zero,-960(s0)
    12b8:	c4043423          	sd	zero,-952(s0)
    12bc:	c4043823          	sd	zero,-944(s0)
    12c0:	c4043c23          	sd	zero,-936(s0)
    12c4:	c6043023          	sd	zero,-928(s0)
    12c8:	c6043423          	sd	zero,-920(s0)
    12cc:	c6043823          	sd	zero,-912(s0)
    12d0:	c6043c23          	sd	zero,-904(s0)
    12d4:	c8043023          	sd	zero,-896(s0)
    12d8:	c8043423          	sd	zero,-888(s0)
    12dc:	ca043423          	sd	zero,-856(s0)
    12e0:	ca043023          	sd	zero,-864(s0)
    12e4:	c8043c23          	sd	zero,-872(s0)
    12e8:	c8043823          	sd	zero,-880(s0)
    12ec:	ca043823          	sd	zero,-848(s0)
    12f0:	ca043c23          	sd	zero,-840(s0)
    12f4:	cc043023          	sd	zero,-832(s0)
    12f8:	cc043423          	sd	zero,-824(s0)
    12fc:	cc043823          	sd	zero,-816(s0)
    1300:	cc043c23          	sd	zero,-808(s0)
    1304:	ce043023          	sd	zero,-800(s0)
    1308:	ce043423          	sd	zero,-792(s0)
    130c:	ce043823          	sd	zero,-784(s0)
    1310:	ce043c23          	sd	zero,-776(s0)
    1314:	d0043023          	sd	zero,-768(s0)
    1318:	d0043423          	sd	zero,-760(s0)
    131c:	d0043823          	sd	zero,-752(s0)
    1320:	d0043c23          	sd	zero,-744(s0)
    1324:	d2043023          	sd	zero,-736(s0)
    1328:	d2043423          	sd	zero,-728(s0)
    132c:	d2043823          	sd	zero,-720(s0)
    1330:	d2043c23          	sd	zero,-712(s0)
    1334:	d4043023          	sd	zero,-704(s0)
    1338:	d4043423          	sd	zero,-696(s0)
    133c:	d4043823          	sd	zero,-688(s0)
    1340:	d4043c23          	sd	zero,-680(s0)
    1344:	d6043023          	sd	zero,-672(s0)
    1348:	d6043423          	sd	zero,-664(s0)
    134c:	d6043823          	sd	zero,-656(s0)
    1350:	d6043c23          	sd	zero,-648(s0)
    1354:	d8043023          	sd	zero,-640(s0)
    1358:	d8043423          	sd	zero,-632(s0)
    135c:	da043423          	sd	zero,-600(s0)
    1360:	da043023          	sd	zero,-608(s0)
    1364:	d8043c23          	sd	zero,-616(s0)
    1368:	d8043823          	sd	zero,-624(s0)
    136c:	da043823          	sd	zero,-592(s0)
    1370:	da043c23          	sd	zero,-584(s0)
    1374:	dc043023          	sd	zero,-576(s0)
    1378:	dc043423          	sd	zero,-568(s0)
    137c:	dc043823          	sd	zero,-560(s0)
    1380:	00000093          	li	ra,0
    1384:	de043023          	sd	zero,-544(s0)
    1388:	00000d93          	li	s11,0
    138c:	00000d13          	li	s10,0
    1390:	00000c93          	li	s9,0
    1394:	00000c13          	li	s8,0
    1398:	00000b93          	li	s7,0
    139c:	00000b13          	li	s6,0
    13a0:	00000a93          	li	s5,0
    13a4:	00000a13          	li	s4,0
    13a8:	00000e13          	li	t3,0
    13ac:	00000713          	li	a4,0
    13b0:	00000693          	li	a3,0
    13b4:	00000613          	li	a2,0
    13b8:	00000593          	li	a1,0
    13bc:	00000513          	li	a0,0
    13c0:	00000393          	li	t2,0
    13c4:	00000313          	li	t1,0
    13c8:	00000293          	li	t0,0
    13cc:	00000813          	li	a6,0
    13d0:	e4043423          	sd	zero,-440(s0)
    13d4:	00000893          	li	a7,0
    13d8:	00000913          	li	s2,0

00000000000013dc <.LBB52_5>:
    13dc:	f9e43423          	sd	t5,-120(s0)
    13e0:	00001fb7          	lui	t6,0x1
    13e4:	41f40fb3          	sub	t6,s0,t6
    13e8:	69dfb423          	sd	t4,1672(t6) # 1688 <.LBB52_5+0x2ac>
    13ec:	f8f43023          	sd	a5,-128(s0)
    13f0:	dc143c23          	sd	ra,-552(s0)
    13f4:	dfb43423          	sd	s11,-536(s0)
    13f8:	dfa43823          	sd	s10,-528(s0)
    13fc:	df943c23          	sd	s9,-520(s0)
    1400:	e1843023          	sd	s8,-512(s0)
    1404:	e1743423          	sd	s7,-504(s0)
    1408:	e1643823          	sd	s6,-496(s0)
    140c:	e1543c23          	sd	s5,-488(s0)
    1410:	e3443023          	sd	s4,-480(s0)
    1414:	f1c43423          	sd	t3,-248(s0)
    1418:	f0e43823          	sd	a4,-240(s0)
    141c:	f0d43c23          	sd	a3,-232(s0)
    1420:	f2c43023          	sd	a2,-224(s0)
    1424:	f2b43423          	sd	a1,-216(s0)
    1428:	f2a43823          	sd	a0,-208(s0)
    142c:	e2743423          	sd	t2,-472(s0)
    1430:	e2643823          	sd	t1,-464(s0)
    1434:	e2543c23          	sd	t0,-456(s0)
    1438:	e5043023          	sd	a6,-448(s0)
    143c:	e5143823          	sd	a7,-432(s0)
    1440:	e5243c23          	sd	s2,-424(s0)
    1444:	000f0503          	lb	a0,0(t5)
    1448:	00278583          	lb	a1,2(a5)
    144c:	f4b43023          	sd	a1,-192(s0)
    1450:	00178683          	lb	a3,1(a5)
    1454:	00078703          	lb	a4,0(a5)
    1458:	00378803          	lb	a6,3(a5)
    145c:	f5043c23          	sd	a6,-168(s0)
    1460:	00478903          	lb	s2,4(a5)
    1464:	f7243c23          	sd	s2,-136(s0)
    1468:	00578a03          	lb	s4,5(a5)
    146c:	00678383          	lb	t2,6(a5)
    1470:	f4743823          	sd	t2,-176(s0)
    1474:	00778083          	lb	ra,7(a5)
    1478:	00878883          	lb	a7,8(a5)
    147c:	eb143c23          	sd	a7,-328(s0)
    1480:	00978c83          	lb	s9,9(a5)
    1484:	00a78c03          	lb	s8,10(a5)
    1488:	00b78b83          	lb	s7,11(a5)
    148c:	00c78b03          	lb	s6,12(a5)
    1490:	00d78a83          	lb	s5,13(a5)
    1494:	00e78d03          	lb	s10,14(a5)
    1498:	00f78d83          	lb	s11,15(a5)
    149c:	e9b43023          	sd	s11,-384(s0)
    14a0:	01078283          	lb	t0,16(a5)
    14a4:	01178e83          	lb	t4,17(a5)
    14a8:	edd43023          	sd	t4,-320(s0)
    14ac:	01278483          	lb	s1,18(a5)
    14b0:	01378f83          	lb	t6,19(a5)
    14b4:	01478983          	lb	s3,20(a5)
    14b8:	f7343823          	sd	s3,-144(s0)
    14bc:	01578603          	lb	a2,21(a5)
    14c0:	f2c43c23          	sd	a2,-200(s0)
    14c4:	01678e03          	lb	t3,22(a5)
    14c8:	f5c43423          	sd	t3,-184(s0)
    14cc:	01778303          	lb	t1,23(a5)
    14d0:	e8643423          	sd	t1,-376(s0)
    14d4:	01878f03          	lb	t5,24(a5)
    14d8:	02b505b3          	mul	a1,a0,a1
    14dc:	00001637          	lui	a2,0x1
    14e0:	40c40633          	sub	a2,s0,a2
    14e4:	6a863603          	ld	a2,1704(a2) # 16a8 <.LBB52_5+0x2cc>
    14e8:	00c58633          	add	a2,a1,a2
    14ec:	000015b7          	lui	a1,0x1
    14f0:	40b405b3          	sub	a1,s0,a1
    14f4:	6ac5b423          	sd	a2,1704(a1) # 16a8 <.LBB52_5+0x2cc>
    14f8:	02d505b3          	mul	a1,a0,a3
    14fc:	00001637          	lui	a2,0x1
    1500:	40c40633          	sub	a2,s0,a2
    1504:	6b063603          	ld	a2,1712(a2) # 16b0 <.LBB52_5+0x2d4>
    1508:	00c58633          	add	a2,a1,a2
    150c:	000015b7          	lui	a1,0x1
    1510:	40b405b3          	sub	a1,s0,a1
    1514:	6ac5b823          	sd	a2,1712(a1) # 16b0 <.LBB52_5+0x2d4>
    1518:	02e505b3          	mul	a1,a0,a4
    151c:	f6e43023          	sd	a4,-160(s0)
    1520:	00001637          	lui	a2,0x1
    1524:	40c40633          	sub	a2,s0,a2
    1528:	6c863603          	ld	a2,1736(a2) # 16c8 <.LBB52_5+0x2ec>
    152c:	00c58633          	add	a2,a1,a2
    1530:	000015b7          	lui	a1,0x1
    1534:	40b405b3          	sub	a1,s0,a1
    1538:	6cc5b423          	sd	a2,1736(a1) # 16c8 <.LBB52_5+0x2ec>
    153c:	030505b3          	mul	a1,a0,a6
    1540:	00001637          	lui	a2,0x1
    1544:	40c40633          	sub	a2,s0,a2
    1548:	6b863603          	ld	a2,1720(a2) # 16b8 <.LBB52_5+0x2dc>
    154c:	00c58633          	add	a2,a1,a2
    1550:	000015b7          	lui	a1,0x1
    1554:	40b405b3          	sub	a1,s0,a1
    1558:	6ac5bc23          	sd	a2,1720(a1) # 16b8 <.LBB52_5+0x2dc>
    155c:	032505b3          	mul	a1,a0,s2
    1560:	00001637          	lui	a2,0x1
    1564:	40c40633          	sub	a2,s0,a2
    1568:	6d063603          	ld	a2,1744(a2) # 16d0 <.LBB52_5+0x2f4>
    156c:	00c58633          	add	a2,a1,a2
    1570:	000015b7          	lui	a1,0x1
    1574:	40b405b3          	sub	a1,s0,a1
    1578:	6cc5b823          	sd	a2,1744(a1) # 16d0 <.LBB52_5+0x2f4>
    157c:	034505b3          	mul	a1,a0,s4
    1580:	00001637          	lui	a2,0x1
    1584:	40c40633          	sub	a2,s0,a2
    1588:	6c063603          	ld	a2,1728(a2) # 16c0 <.LBB52_5+0x2e4>
    158c:	00c58633          	add	a2,a1,a2
    1590:	000015b7          	lui	a1,0x1
    1594:	40b405b3          	sub	a1,s0,a1
    1598:	6cc5b023          	sd	a2,1728(a1) # 16c0 <.LBB52_5+0x2e4>
    159c:	027505b3          	mul	a1,a0,t2
    15a0:	00001637          	lui	a2,0x1
    15a4:	40c40633          	sub	a2,s0,a2
    15a8:	6a063603          	ld	a2,1696(a2) # 16a0 <.LBB52_5+0x2c4>
    15ac:	00c58633          	add	a2,a1,a2
    15b0:	000015b7          	lui	a1,0x1
    15b4:	40b405b3          	sub	a1,s0,a1
    15b8:	6ac5b023          	sd	a2,1696(a1) # 16a0 <.LBB52_5+0x2c4>
    15bc:	021505b3          	mul	a1,a0,ra
    15c0:	00008393          	mv	t2,ra
    15c4:	e6143823          	sd	ra,-400(s0)
    15c8:	00001637          	lui	a2,0x1
    15cc:	40c40633          	sub	a2,s0,a2
    15d0:	69863603          	ld	a2,1688(a2) # 1698 <.LBB52_5+0x2bc>
    15d4:	00c58633          	add	a2,a1,a2
    15d8:	000015b7          	lui	a1,0x1
    15dc:	40b405b3          	sub	a1,s0,a1
    15e0:	68c5bc23          	sd	a2,1688(a1) # 1698 <.LBB52_5+0x2bc>
    15e4:	031505b3          	mul	a1,a0,a7
    15e8:	00001637          	lui	a2,0x1
    15ec:	40c40633          	sub	a2,s0,a2
    15f0:	69063603          	ld	a2,1680(a2) # 1690 <.LBB52_5+0x2b4>
    15f4:	00c58633          	add	a2,a1,a2
    15f8:	000015b7          	lui	a1,0x1
    15fc:	40b405b3          	sub	a1,s0,a1
    1600:	68c5b823          	sd	a2,1680(a1) # 1690 <.LBB52_5+0x2b4>
    1604:	039505b3          	mul	a1,a0,s9
    1608:	00001637          	lui	a2,0x1
    160c:	40c40633          	sub	a2,s0,a2
    1610:	6d863603          	ld	a2,1752(a2) # 16d8 <.LBB52_5+0x2fc>
    1614:	00c58633          	add	a2,a1,a2
    1618:	000015b7          	lui	a1,0x1
    161c:	40b405b3          	sub	a1,s0,a1
    1620:	6cc5bc23          	sd	a2,1752(a1) # 16d8 <.LBB52_5+0x2fc>
    1624:	038505b3          	mul	a1,a0,s8
    1628:	00001637          	lui	a2,0x1
    162c:	40c40633          	sub	a2,s0,a2
    1630:	6e063603          	ld	a2,1760(a2) # 16e0 <.LBB52_5+0x304>
    1634:	00c58633          	add	a2,a1,a2
    1638:	000015b7          	lui	a1,0x1
    163c:	40b405b3          	sub	a1,s0,a1
    1640:	6ec5b023          	sd	a2,1760(a1) # 16e0 <.LBB52_5+0x304>
    1644:	037505b3          	mul	a1,a0,s7
    1648:	00001637          	lui	a2,0x1
    164c:	40c40633          	sub	a2,s0,a2
    1650:	6e863603          	ld	a2,1768(a2) # 16e8 <.LBB52_5+0x30c>
    1654:	00c58633          	add	a2,a1,a2
    1658:	000015b7          	lui	a1,0x1
    165c:	40b405b3          	sub	a1,s0,a1
    1660:	6ec5b423          	sd	a2,1768(a1) # 16e8 <.LBB52_5+0x30c>
    1664:	036505b3          	mul	a1,a0,s6
    1668:	00001637          	lui	a2,0x1
    166c:	40c40633          	sub	a2,s0,a2
    1670:	6f063603          	ld	a2,1776(a2) # 16f0 <.LBB52_5+0x314>
    1674:	00c58633          	add	a2,a1,a2
    1678:	000015b7          	lui	a1,0x1
    167c:	40b405b3          	sub	a1,s0,a1
    1680:	6ec5b823          	sd	a2,1776(a1) # 16f0 <.LBB52_5+0x314>
    1684:	035505b3          	mul	a1,a0,s5
    1688:	00001637          	lui	a2,0x1
    168c:	40c40633          	sub	a2,s0,a2
    1690:	6f863603          	ld	a2,1784(a2) # 16f8 <.LBB52_5+0x31c>
    1694:	00c58633          	add	a2,a1,a2
    1698:	000015b7          	lui	a1,0x1
    169c:	40b405b3          	sub	a1,s0,a1
    16a0:	6ec5bc23          	sd	a2,1784(a1) # 16f8 <.LBB52_5+0x31c>
    16a4:	eda43c23          	sd	s10,-296(s0)
    16a8:	03a505b3          	mul	a1,a0,s10
    16ac:	00001637          	lui	a2,0x1
    16b0:	40c40633          	sub	a2,s0,a2
    16b4:	70063603          	ld	a2,1792(a2) # 1700 <.LBB52_5+0x324>
    16b8:	00c58633          	add	a2,a1,a2
    16bc:	000015b7          	lui	a1,0x1
    16c0:	40b405b3          	sub	a1,s0,a1
    16c4:	70c5b023          	sd	a2,1792(a1) # 1700 <.LBB52_5+0x324>
    16c8:	03b505b3          	mul	a1,a0,s11
    16cc:	00001637          	lui	a2,0x1
    16d0:	40c40633          	sub	a2,s0,a2
    16d4:	70863603          	ld	a2,1800(a2) # 1708 <.LBB52_5+0x32c>
    16d8:	00c58633          	add	a2,a1,a2
    16dc:	000015b7          	lui	a1,0x1
    16e0:	40b405b3          	sub	a1,s0,a1
    16e4:	70c5b423          	sd	a2,1800(a1) # 1708 <.LBB52_5+0x32c>
    16e8:	025505b3          	mul	a1,a0,t0
    16ec:	00001637          	lui	a2,0x1
    16f0:	40c40633          	sub	a2,s0,a2
    16f4:	71063603          	ld	a2,1808(a2) # 1710 <.LBB52_5+0x334>
    16f8:	00c58633          	add	a2,a1,a2
    16fc:	000015b7          	lui	a1,0x1
    1700:	40b405b3          	sub	a1,s0,a1
    1704:	70c5b823          	sd	a2,1808(a1) # 1710 <.LBB52_5+0x334>
    1708:	03d505b3          	mul	a1,a0,t4
    170c:	00001637          	lui	a2,0x1
    1710:	40c40633          	sub	a2,s0,a2
    1714:	71863603          	ld	a2,1816(a2) # 1718 <.LBB52_5+0x33c>
    1718:	00c58633          	add	a2,a1,a2
    171c:	000015b7          	lui	a1,0x1
    1720:	40b405b3          	sub	a1,s0,a1
    1724:	70c5bc23          	sd	a2,1816(a1) # 1718 <.LBB52_5+0x33c>
    1728:	029505b3          	mul	a1,a0,s1
    172c:	00048e93          	mv	t4,s1
    1730:	ee943023          	sd	s1,-288(s0)
    1734:	00001637          	lui	a2,0x1
    1738:	40c40633          	sub	a2,s0,a2
    173c:	72063603          	ld	a2,1824(a2) # 1720 <.LBB52_5+0x344>
    1740:	00c58633          	add	a2,a1,a2
    1744:	000015b7          	lui	a1,0x1
    1748:	40b405b3          	sub	a1,s0,a1
    174c:	72c5b023          	sd	a2,1824(a1) # 1720 <.LBB52_5+0x344>
    1750:	03f505b3          	mul	a1,a0,t6
    1754:	00001637          	lui	a2,0x1
    1758:	40c40633          	sub	a2,s0,a2
    175c:	72863603          	ld	a2,1832(a2) # 1728 <.LBB52_5+0x34c>
    1760:	00c58633          	add	a2,a1,a2
    1764:	000015b7          	lui	a1,0x1
    1768:	40b405b3          	sub	a1,s0,a1
    176c:	72c5b423          	sd	a2,1832(a1) # 1728 <.LBB52_5+0x34c>
    1770:	033505b3          	mul	a1,a0,s3
    1774:	00001637          	lui	a2,0x1
    1778:	40c40633          	sub	a2,s0,a2
    177c:	73063603          	ld	a2,1840(a2) # 1730 <.LBB52_5+0x354>
    1780:	00c58633          	add	a2,a1,a2
    1784:	000015b7          	lui	a1,0x1
    1788:	40b405b3          	sub	a1,s0,a1
    178c:	72c5b823          	sd	a2,1840(a1) # 1730 <.LBB52_5+0x354>
    1790:	f3843983          	ld	s3,-200(s0)
    1794:	033505b3          	mul	a1,a0,s3
    1798:	00001637          	lui	a2,0x1
    179c:	40c40633          	sub	a2,s0,a2
    17a0:	73863603          	ld	a2,1848(a2) # 1738 <.LBB52_5+0x35c>
    17a4:	00c58633          	add	a2,a1,a2
    17a8:	000015b7          	lui	a1,0x1
    17ac:	40b405b3          	sub	a1,s0,a1
    17b0:	72c5bc23          	sd	a2,1848(a1) # 1738 <.LBB52_5+0x35c>
    17b4:	03c505b3          	mul	a1,a0,t3
    17b8:	00001637          	lui	a2,0x1
    17bc:	40c40633          	sub	a2,s0,a2
    17c0:	74063603          	ld	a2,1856(a2) # 1740 <.LBB52_5+0x364>
    17c4:	00c58633          	add	a2,a1,a2
    17c8:	000015b7          	lui	a1,0x1
    17cc:	40b405b3          	sub	a1,s0,a1
    17d0:	74c5b023          	sd	a2,1856(a1) # 1740 <.LBB52_5+0x364>
    17d4:	026505b3          	mul	a1,a0,t1
    17d8:	00001637          	lui	a2,0x1
    17dc:	40c40633          	sub	a2,s0,a2
    17e0:	74863603          	ld	a2,1864(a2) # 1748 <.LBB52_5+0x36c>
    17e4:	00c58633          	add	a2,a1,a2
    17e8:	000015b7          	lui	a1,0x1
    17ec:	40b405b3          	sub	a1,s0,a1
    17f0:	74c5b423          	sd	a2,1864(a1) # 1748 <.LBB52_5+0x36c>
    17f4:	01978803          	lb	a6,25(a5)
    17f8:	03e505b3          	mul	a1,a0,t5
    17fc:	000f0493          	mv	s1,t5
    1800:	ebe43023          	sd	t5,-352(s0)
    1804:	00001637          	lui	a2,0x1
    1808:	40c40633          	sub	a2,s0,a2
    180c:	75063603          	ld	a2,1872(a2) # 1750 <.LBB52_5+0x374>
    1810:	00c58633          	add	a2,a1,a2
    1814:	000015b7          	lui	a1,0x1
    1818:	40b405b3          	sub	a1,s0,a1
    181c:	74c5b823          	sd	a2,1872(a1) # 1750 <.LBB52_5+0x374>
    1820:	01a78883          	lb	a7,26(a5)
    1824:	e7143c23          	sd	a7,-392(s0)
    1828:	030505b3          	mul	a1,a0,a6
    182c:	00080793          	mv	a5,a6
    1830:	00001637          	lui	a2,0x1
    1834:	40c40633          	sub	a2,s0,a2
    1838:	75863603          	ld	a2,1880(a2) # 1758 <.LBB52_5+0x37c>
    183c:	00c58633          	add	a2,a1,a2
    1840:	000015b7          	lui	a1,0x1
    1844:	40b405b3          	sub	a1,s0,a1
    1848:	74c5bc23          	sd	a2,1880(a1) # 1758 <.LBB52_5+0x37c>
    184c:	f8043583          	ld	a1,-128(s0)
    1850:	01b58803          	lb	a6,27(a1)
    1854:	eb043823          	sd	a6,-336(s0)
    1858:	031505b3          	mul	a1,a0,a7
    185c:	00001637          	lui	a2,0x1
    1860:	40c40633          	sub	a2,s0,a2
    1864:	76063603          	ld	a2,1888(a2) # 1760 <.LBB52_5+0x384>
    1868:	00c58633          	add	a2,a1,a2
    186c:	000015b7          	lui	a1,0x1
    1870:	40b405b3          	sub	a1,s0,a1
    1874:	76c5b023          	sd	a2,1888(a1) # 1760 <.LBB52_5+0x384>
    1878:	f8043583          	ld	a1,-128(s0)
    187c:	01c58883          	lb	a7,28(a1)
    1880:	f1143023          	sd	a7,-256(s0)
    1884:	030505b3          	mul	a1,a0,a6
    1888:	00001637          	lui	a2,0x1
    188c:	40c40633          	sub	a2,s0,a2
    1890:	76863603          	ld	a2,1896(a2) # 1768 <.LBB52_5+0x38c>
    1894:	00c58633          	add	a2,a1,a2
    1898:	000015b7          	lui	a1,0x1
    189c:	40b405b3          	sub	a1,s0,a1
    18a0:	76c5b423          	sd	a2,1896(a1) # 1768 <.LBB52_5+0x38c>
    18a4:	f8043583          	ld	a1,-128(s0)
    18a8:	01d58803          	lb	a6,29(a1)
    18ac:	e7043423          	sd	a6,-408(s0)
    18b0:	031505b3          	mul	a1,a0,a7
    18b4:	00001637          	lui	a2,0x1
    18b8:	40c40633          	sub	a2,s0,a2
    18bc:	77063603          	ld	a2,1904(a2) # 1770 <.LBB52_5+0x394>
    18c0:	00c58633          	add	a2,a1,a2
    18c4:	000015b7          	lui	a1,0x1
    18c8:	40b405b3          	sub	a1,s0,a1
    18cc:	76c5b823          	sd	a2,1904(a1) # 1770 <.LBB52_5+0x394>
    18d0:	f8043583          	ld	a1,-128(s0)
    18d4:	01e58e03          	lb	t3,30(a1)
    18d8:	030505b3          	mul	a1,a0,a6
    18dc:	00001637          	lui	a2,0x1
    18e0:	40c40633          	sub	a2,s0,a2
    18e4:	77863603          	ld	a2,1912(a2) # 1778 <.LBB52_5+0x39c>
    18e8:	00c58633          	add	a2,a1,a2
    18ec:	000015b7          	lui	a1,0x1
    18f0:	40b405b3          	sub	a1,s0,a1
    18f4:	76c5bc23          	sd	a2,1912(a1) # 1778 <.LBB52_5+0x39c>
    18f8:	f8043583          	ld	a1,-128(s0)
    18fc:	01f58583          	lb	a1,31(a1)
    1900:	f8843603          	ld	a2,-120(s0)
    1904:	0c060903          	lb	s2,192(a2)
    1908:	03c50db3          	mul	s11,a0,t3
    190c:	edc43423          	sd	t3,-312(s0)
    1910:	00001637          	lui	a2,0x1
    1914:	40c40633          	sub	a2,s0,a2
    1918:	78063603          	ld	a2,1920(a2) # 1780 <.LBB52_5+0x3a4>
    191c:	00cd8633          	add	a2,s11,a2
    1920:	00001837          	lui	a6,0x1
    1924:	41040833          	sub	a6,s0,a6
    1928:	78c83023          	sd	a2,1920(a6) # 1780 <.LBB52_5+0x3a4>
    192c:	02b50533          	mul	a0,a0,a1
    1930:	00058093          	mv	ra,a1
    1934:	000015b7          	lui	a1,0x1
    1938:	40b405b3          	sub	a1,s0,a1
    193c:	7885b603          	ld	a2,1928(a1) # 1788 <.LBB52_5+0x3ac>
    1940:	00c50633          	add	a2,a0,a2
    1944:	00001537          	lui	a0,0x1
    1948:	40a40533          	sub	a0,s0,a0
    194c:	78c53423          	sd	a2,1928(a0) # 1788 <.LBB52_5+0x3ac>
    1950:	02e90533          	mul	a0,s2,a4
    1954:	000015b7          	lui	a1,0x1
    1958:	40b405b3          	sub	a1,s0,a1
    195c:	7a85b603          	ld	a2,1960(a1) # 17a8 <.LBB52_5+0x3cc>
    1960:	00c50633          	add	a2,a0,a2
    1964:	00001537          	lui	a0,0x1
    1968:	40a40533          	sub	a0,s0,a0
    196c:	7ac53423          	sd	a2,1960(a0) # 17a8 <.LBB52_5+0x3cc>
    1970:	ead43423          	sd	a3,-344(s0)
    1974:	02d90533          	mul	a0,s2,a3
    1978:	000015b7          	lui	a1,0x1
    197c:	40b405b3          	sub	a1,s0,a1
    1980:	7a05b603          	ld	a2,1952(a1) # 17a0 <.LBB52_5+0x3c4>
    1984:	00c50633          	add	a2,a0,a2
    1988:	00001537          	lui	a0,0x1
    198c:	40a40533          	sub	a0,s0,a0
    1990:	7ac53023          	sd	a2,1952(a0) # 17a0 <.LBB52_5+0x3c4>
    1994:	f4043583          	ld	a1,-192(s0)
    1998:	02b90533          	mul	a0,s2,a1
    199c:	00001637          	lui	a2,0x1
    19a0:	40c40633          	sub	a2,s0,a2
    19a4:	79863603          	ld	a2,1944(a2) # 1798 <.LBB52_5+0x3bc>
    19a8:	00c50633          	add	a2,a0,a2
    19ac:	00001537          	lui	a0,0x1
    19b0:	40a40533          	sub	a0,s0,a0
    19b4:	78c53c23          	sd	a2,1944(a0) # 1798 <.LBB52_5+0x3bc>
    19b8:	f5843883          	ld	a7,-168(s0)
    19bc:	03190533          	mul	a0,s2,a7
    19c0:	00001637          	lui	a2,0x1
    19c4:	40c40633          	sub	a2,s0,a2
    19c8:	79063603          	ld	a2,1936(a2) # 1790 <.LBB52_5+0x3b4>
    19cc:	00c50633          	add	a2,a0,a2
    19d0:	00001537          	lui	a0,0x1
    19d4:	40a40533          	sub	a0,s0,a0
    19d8:	78c53823          	sd	a2,1936(a0) # 1790 <.LBB52_5+0x3b4>
    19dc:	f7843803          	ld	a6,-136(s0)
    19e0:	03090533          	mul	a0,s2,a6
    19e4:	00001637          	lui	a2,0x1
    19e8:	40c40633          	sub	a2,s0,a2
    19ec:	7b063603          	ld	a2,1968(a2) # 17b0 <.LBB52_5+0x3d4>
    19f0:	00c50633          	add	a2,a0,a2
    19f4:	00001537          	lui	a0,0x1
    19f8:	40a40533          	sub	a0,s0,a0
    19fc:	7ac53823          	sd	a2,1968(a0) # 17b0 <.LBB52_5+0x3d4>
    1a00:	f7443423          	sd	s4,-152(s0)
    1a04:	03490533          	mul	a0,s2,s4
    1a08:	00001637          	lui	a2,0x1
    1a0c:	40c40633          	sub	a2,s0,a2
    1a10:	7b863603          	ld	a2,1976(a2) # 17b8 <.LBB52_5+0x3dc>
    1a14:	00c50633          	add	a2,a0,a2
    1a18:	00001537          	lui	a0,0x1
    1a1c:	40a40533          	sub	a0,s0,a0
    1a20:	7ac53c23          	sd	a2,1976(a0) # 17b8 <.LBB52_5+0x3dc>
    1a24:	f5043503          	ld	a0,-176(s0)
    1a28:	02a90533          	mul	a0,s2,a0
    1a2c:	00001637          	lui	a2,0x1
    1a30:	40c40633          	sub	a2,s0,a2
    1a34:	7c063603          	ld	a2,1984(a2) # 17c0 <.LBB52_5+0x3e4>
    1a38:	00c50633          	add	a2,a0,a2
    1a3c:	00001537          	lui	a0,0x1
    1a40:	40a40533          	sub	a0,s0,a0
    1a44:	7cc53023          	sd	a2,1984(a0) # 17c0 <.LBB52_5+0x3e4>
    1a48:	02790533          	mul	a0,s2,t2
    1a4c:	00001637          	lui	a2,0x1
    1a50:	40c40633          	sub	a2,s0,a2
    1a54:	7c863603          	ld	a2,1992(a2) # 17c8 <.LBB52_5+0x3ec>
    1a58:	00c50633          	add	a2,a0,a2
    1a5c:	00001537          	lui	a0,0x1
    1a60:	40a40533          	sub	a0,s0,a0
    1a64:	7cc53423          	sd	a2,1992(a0) # 17c8 <.LBB52_5+0x3ec>
    1a68:	eb843703          	ld	a4,-328(s0)
    1a6c:	02e90533          	mul	a0,s2,a4
    1a70:	00001637          	lui	a2,0x1
    1a74:	40c40633          	sub	a2,s0,a2
    1a78:	7d063603          	ld	a2,2000(a2) # 17d0 <.LBB52_5+0x3f4>
    1a7c:	00c50633          	add	a2,a0,a2
    1a80:	00001537          	lui	a0,0x1
    1a84:	40a40533          	sub	a0,s0,a0
    1a88:	7cc53823          	sd	a2,2000(a0) # 17d0 <.LBB52_5+0x3f4>
    1a8c:	03990533          	mul	a0,s2,s9
    1a90:	00001637          	lui	a2,0x1
    1a94:	40c40633          	sub	a2,s0,a2
    1a98:	7d863603          	ld	a2,2008(a2) # 17d8 <.LBB52_5+0x3fc>
    1a9c:	00c50633          	add	a2,a0,a2
    1aa0:	00001537          	lui	a0,0x1
    1aa4:	40a40533          	sub	a0,s0,a0
    1aa8:	7cc53c23          	sd	a2,2008(a0) # 17d8 <.LBB52_5+0x3fc>
    1aac:	03890533          	mul	a0,s2,s8
    1ab0:	00001637          	lui	a2,0x1
    1ab4:	40c40633          	sub	a2,s0,a2
    1ab8:	7e063603          	ld	a2,2016(a2) # 17e0 <.LBB52_5+0x404>
    1abc:	00c50633          	add	a2,a0,a2
    1ac0:	00001537          	lui	a0,0x1
    1ac4:	40a40533          	sub	a0,s0,a0
    1ac8:	7ec53023          	sd	a2,2016(a0) # 17e0 <.LBB52_5+0x404>
    1acc:	03790533          	mul	a0,s2,s7
    1ad0:	00001637          	lui	a2,0x1
    1ad4:	40c40633          	sub	a2,s0,a2
    1ad8:	7e863603          	ld	a2,2024(a2) # 17e8 <.LBB52_5+0x40c>
    1adc:	00c50633          	add	a2,a0,a2
    1ae0:	00001537          	lui	a0,0x1
    1ae4:	40a40533          	sub	a0,s0,a0
    1ae8:	7ec53423          	sd	a2,2024(a0) # 17e8 <.LBB52_5+0x40c>
    1aec:	03690533          	mul	a0,s2,s6
    1af0:	00001637          	lui	a2,0x1
    1af4:	40c40633          	sub	a2,s0,a2
    1af8:	7f063603          	ld	a2,2032(a2) # 17f0 <.LBB52_5+0x414>
    1afc:	00c50633          	add	a2,a0,a2
    1b00:	00001537          	lui	a0,0x1
    1b04:	40a40533          	sub	a0,s0,a0
    1b08:	7ec53823          	sd	a2,2032(a0) # 17f0 <.LBB52_5+0x414>
    1b0c:	03590533          	mul	a0,s2,s5
    1b10:	00001637          	lui	a2,0x1
    1b14:	40c40633          	sub	a2,s0,a2
    1b18:	7f863603          	ld	a2,2040(a2) # 17f8 <.LBB52_5+0x41c>
    1b1c:	00c50633          	add	a2,a0,a2
    1b20:	00001537          	lui	a0,0x1
    1b24:	40a40533          	sub	a0,s0,a0
    1b28:	7ec53c23          	sd	a2,2040(a0) # 17f8 <.LBB52_5+0x41c>
    1b2c:	03a90533          	mul	a0,s2,s10
    1b30:	80043603          	ld	a2,-2048(s0)
    1b34:	00c50633          	add	a2,a0,a2
    1b38:	80c43023          	sd	a2,-2048(s0)
    1b3c:	e8043303          	ld	t1,-384(s0)
    1b40:	02690533          	mul	a0,s2,t1
    1b44:	80843603          	ld	a2,-2040(s0)
    1b48:	00c50633          	add	a2,a0,a2
    1b4c:	80c43423          	sd	a2,-2040(s0)
    1b50:	02590533          	mul	a0,s2,t0
    1b54:	81043603          	ld	a2,-2032(s0)
    1b58:	00c50633          	add	a2,a0,a2
    1b5c:	80c43823          	sd	a2,-2032(s0)
    1b60:	ec043383          	ld	t2,-320(s0)
    1b64:	02790533          	mul	a0,s2,t2
    1b68:	81843603          	ld	a2,-2024(s0)
    1b6c:	00c50633          	add	a2,a0,a2
    1b70:	80c43c23          	sd	a2,-2024(s0)
    1b74:	03d90533          	mul	a0,s2,t4
    1b78:	82043603          	ld	a2,-2016(s0)
    1b7c:	00c50633          	add	a2,a0,a2
    1b80:	82c43023          	sd	a2,-2016(s0)
    1b84:	eff43423          	sd	t6,-280(s0)
    1b88:	03f90533          	mul	a0,s2,t6
    1b8c:	82843603          	ld	a2,-2008(s0)
    1b90:	00c50633          	add	a2,a0,a2
    1b94:	82c43423          	sd	a2,-2008(s0)
    1b98:	f7043503          	ld	a0,-144(s0)
    1b9c:	02a90533          	mul	a0,s2,a0
    1ba0:	83043603          	ld	a2,-2000(s0)
    1ba4:	00c50633          	add	a2,a0,a2
    1ba8:	82c43823          	sd	a2,-2000(s0)
    1bac:	03390533          	mul	a0,s2,s3
    1bb0:	83843603          	ld	a2,-1992(s0)
    1bb4:	00c50633          	add	a2,a0,a2
    1bb8:	82c43c23          	sd	a2,-1992(s0)
    1bbc:	f4843983          	ld	s3,-184(s0)
    1bc0:	03390533          	mul	a0,s2,s3
    1bc4:	84043603          	ld	a2,-1984(s0)
    1bc8:	00c50633          	add	a2,a0,a2
    1bcc:	84c43023          	sd	a2,-1984(s0)
    1bd0:	e8843e83          	ld	t4,-376(s0)
    1bd4:	03d90533          	mul	a0,s2,t4
    1bd8:	84843603          	ld	a2,-1976(s0)
    1bdc:	00c50633          	add	a2,a0,a2
    1be0:	84c43423          	sd	a2,-1976(s0)
    1be4:	03e90533          	mul	a0,s2,t5
    1be8:	85043603          	ld	a2,-1968(s0)
    1bec:	00c50633          	add	a2,a0,a2
    1bf0:	84c43823          	sd	a2,-1968(s0)
    1bf4:	ecf43823          	sd	a5,-304(s0)
    1bf8:	02f90533          	mul	a0,s2,a5
    1bfc:	85843603          	ld	a2,-1960(s0)
    1c00:	00c50633          	add	a2,a0,a2
    1c04:	84c43c23          	sd	a2,-1960(s0)
    1c08:	e7843483          	ld	s1,-392(s0)
    1c0c:	02990533          	mul	a0,s2,s1
    1c10:	86043603          	ld	a2,-1952(s0)
    1c14:	00c50633          	add	a2,a0,a2
    1c18:	86c43023          	sd	a2,-1952(s0)
    1c1c:	eb043f03          	ld	t5,-336(s0)
    1c20:	03e90533          	mul	a0,s2,t5
    1c24:	86843603          	ld	a2,-1944(s0)
    1c28:	00c50633          	add	a2,a0,a2
    1c2c:	86c43423          	sd	a2,-1944(s0)
    1c30:	f0043503          	ld	a0,-256(s0)
    1c34:	02a90533          	mul	a0,s2,a0
    1c38:	87043603          	ld	a2,-1936(s0)
    1c3c:	00c50633          	add	a2,a0,a2
    1c40:	86c43823          	sd	a2,-1936(s0)
    1c44:	e6843d03          	ld	s10,-408(s0)
    1c48:	03a90533          	mul	a0,s2,s10
    1c4c:	87843603          	ld	a2,-1928(s0)
    1c50:	00c50633          	add	a2,a0,a2
    1c54:	86c43c23          	sd	a2,-1928(s0)
    1c58:	f8843503          	ld	a0,-120(s0)
    1c5c:	18050503          	lb	a0,384(a0)
    1c60:	03c90db3          	mul	s11,s2,t3
    1c64:	88043603          	ld	a2,-1920(s0)
    1c68:	00cd8633          	add	a2,s11,a2
    1c6c:	88c43023          	sd	a2,-1920(s0)
    1c70:	02190933          	mul	s2,s2,ra
    1c74:	88843603          	ld	a2,-1912(s0)
    1c78:	00c90633          	add	a2,s2,a2
    1c7c:	88c43423          	sd	a2,-1912(s0)
    1c80:	f6043603          	ld	a2,-160(s0)
    1c84:	02c50933          	mul	s2,a0,a2
    1c88:	8a843603          	ld	a2,-1880(s0)
    1c8c:	00c90633          	add	a2,s2,a2
    1c90:	8ac43423          	sd	a2,-1880(s0)
    1c94:	02d50933          	mul	s2,a0,a3
    1c98:	8a043603          	ld	a2,-1888(s0)
    1c9c:	00c90633          	add	a2,s2,a2
    1ca0:	8ac43023          	sd	a2,-1888(s0)
    1ca4:	02b50933          	mul	s2,a0,a1
    1ca8:	89843603          	ld	a2,-1896(s0)
    1cac:	00c90633          	add	a2,s2,a2
    1cb0:	88c43c23          	sd	a2,-1896(s0)
    1cb4:	03150933          	mul	s2,a0,a7
    1cb8:	89043603          	ld	a2,-1904(s0)
    1cbc:	00c90633          	add	a2,s2,a2
    1cc0:	88c43823          	sd	a2,-1904(s0)
    1cc4:	03050933          	mul	s2,a0,a6
    1cc8:	8b043603          	ld	a2,-1872(s0)
    1ccc:	00c90633          	add	a2,s2,a2
    1cd0:	8ac43823          	sd	a2,-1872(s0)
    1cd4:	03450933          	mul	s2,a0,s4
    1cd8:	8b843603          	ld	a2,-1864(s0)
    1cdc:	00c90633          	add	a2,s2,a2
    1ce0:	8ac43c23          	sd	a2,-1864(s0)
    1ce4:	f5043683          	ld	a3,-176(s0)
    1ce8:	02d50933          	mul	s2,a0,a3
    1cec:	8c043603          	ld	a2,-1856(s0)
    1cf0:	00c90633          	add	a2,s2,a2
    1cf4:	8cc43023          	sd	a2,-1856(s0)
    1cf8:	e7043583          	ld	a1,-400(s0)
    1cfc:	02b50933          	mul	s2,a0,a1
    1d00:	8c843603          	ld	a2,-1848(s0)
    1d04:	00c90633          	add	a2,s2,a2
    1d08:	8cc43423          	sd	a2,-1848(s0)
    1d0c:	02e50933          	mul	s2,a0,a4
    1d10:	8d043603          	ld	a2,-1840(s0)
    1d14:	00c90633          	add	a2,s2,a2
    1d18:	8cc43823          	sd	a2,-1840(s0)
    1d1c:	ef943c23          	sd	s9,-264(s0)
    1d20:	03950933          	mul	s2,a0,s9
    1d24:	8d843603          	ld	a2,-1832(s0)
    1d28:	00c90633          	add	a2,s2,a2
    1d2c:	8cc43c23          	sd	a2,-1832(s0)
    1d30:	ef843823          	sd	s8,-272(s0)
    1d34:	03850933          	mul	s2,a0,s8
    1d38:	8e043603          	ld	a2,-1824(s0)
    1d3c:	00c90633          	add	a2,s2,a2
    1d40:	8ec43023          	sd	a2,-1824(s0)
    1d44:	e9743c23          	sd	s7,-360(s0)
    1d48:	03750933          	mul	s2,a0,s7
    1d4c:	8e843603          	ld	a2,-1816(s0)
    1d50:	00c90633          	add	a2,s2,a2
    1d54:	8ec43423          	sd	a2,-1816(s0)
    1d58:	e9643823          	sd	s6,-368(s0)
    1d5c:	03650933          	mul	s2,a0,s6
    1d60:	8f043603          	ld	a2,-1808(s0)
    1d64:	00c90633          	add	a2,s2,a2
    1d68:	8ec43823          	sd	a2,-1808(s0)
    1d6c:	03550933          	mul	s2,a0,s5
    1d70:	8f843603          	ld	a2,-1800(s0)
    1d74:	00c90633          	add	a2,s2,a2
    1d78:	8ec43c23          	sd	a2,-1800(s0)
    1d7c:	ed843883          	ld	a7,-296(s0)
    1d80:	03150933          	mul	s2,a0,a7
    1d84:	90043603          	ld	a2,-1792(s0)
    1d88:	00c90633          	add	a2,s2,a2
    1d8c:	90c43023          	sd	a2,-1792(s0)
    1d90:	02650933          	mul	s2,a0,t1
    1d94:	90843603          	ld	a2,-1784(s0)
    1d98:	00c90633          	add	a2,s2,a2
    1d9c:	90c43423          	sd	a2,-1784(s0)
    1da0:	02550933          	mul	s2,a0,t0
    1da4:	91043603          	ld	a2,-1776(s0)
    1da8:	00c90633          	add	a2,s2,a2
    1dac:	90c43823          	sd	a2,-1776(s0)
    1db0:	02750933          	mul	s2,a0,t2
    1db4:	91843603          	ld	a2,-1768(s0)
    1db8:	00c90633          	add	a2,s2,a2
    1dbc:	90c43c23          	sd	a2,-1768(s0)
    1dc0:	ee043e03          	ld	t3,-288(s0)
    1dc4:	03c50933          	mul	s2,a0,t3
    1dc8:	92043603          	ld	a2,-1760(s0)
    1dcc:	00c90633          	add	a2,s2,a2
    1dd0:	92c43023          	sd	a2,-1760(s0)
    1dd4:	03f50933          	mul	s2,a0,t6
    1dd8:	92843603          	ld	a2,-1752(s0)
    1ddc:	00c90633          	add	a2,s2,a2
    1de0:	92c43423          	sd	a2,-1752(s0)
    1de4:	f7043383          	ld	t2,-144(s0)
    1de8:	02750933          	mul	s2,a0,t2
    1dec:	93043603          	ld	a2,-1744(s0)
    1df0:	00c90633          	add	a2,s2,a2
    1df4:	92c43823          	sd	a2,-1744(s0)
    1df8:	f3843f83          	ld	t6,-200(s0)
    1dfc:	03f50933          	mul	s2,a0,t6
    1e00:	93843603          	ld	a2,-1736(s0)
    1e04:	00c90633          	add	a2,s2,a2
    1e08:	92c43c23          	sd	a2,-1736(s0)
    1e0c:	03350933          	mul	s2,a0,s3
    1e10:	94043603          	ld	a2,-1728(s0)
    1e14:	00c90633          	add	a2,s2,a2
    1e18:	94c43023          	sd	a2,-1728(s0)
    1e1c:	03d50933          	mul	s2,a0,t4
    1e20:	94843603          	ld	a2,-1720(s0)
    1e24:	00c90633          	add	a2,s2,a2
    1e28:	94c43423          	sd	a2,-1720(s0)
    1e2c:	ea043983          	ld	s3,-352(s0)
    1e30:	03350933          	mul	s2,a0,s3
    1e34:	95043603          	ld	a2,-1712(s0)
    1e38:	00c90633          	add	a2,s2,a2
    1e3c:	94c43823          	sd	a2,-1712(s0)
    1e40:	02f50933          	mul	s2,a0,a5
    1e44:	95843603          	ld	a2,-1704(s0)
    1e48:	00c90633          	add	a2,s2,a2
    1e4c:	94c43c23          	sd	a2,-1704(s0)
    1e50:	02950933          	mul	s2,a0,s1
    1e54:	96043603          	ld	a2,-1696(s0)
    1e58:	00c90633          	add	a2,s2,a2
    1e5c:	96c43023          	sd	a2,-1696(s0)
    1e60:	03e50933          	mul	s2,a0,t5
    1e64:	96843603          	ld	a2,-1688(s0)
    1e68:	00c90633          	add	a2,s2,a2
    1e6c:	96c43423          	sd	a2,-1688(s0)
    1e70:	f0043a03          	ld	s4,-256(s0)
    1e74:	03450933          	mul	s2,a0,s4
    1e78:	97043603          	ld	a2,-1680(s0)
    1e7c:	00c90633          	add	a2,s2,a2
    1e80:	96c43823          	sd	a2,-1680(s0)
    1e84:	03a50933          	mul	s2,a0,s10
    1e88:	97843603          	ld	a2,-1672(s0)
    1e8c:	00c90633          	add	a2,s2,a2
    1e90:	96c43c23          	sd	a2,-1672(s0)
    1e94:	f8843603          	ld	a2,-120(s0)
    1e98:	24060903          	lb	s2,576(a2)
    1e9c:	ec843d03          	ld	s10,-312(s0)
    1ea0:	03a50db3          	mul	s11,a0,s10
    1ea4:	98043603          	ld	a2,-1664(s0)
    1ea8:	00cd8633          	add	a2,s11,a2
    1eac:	98c43023          	sd	a2,-1664(s0)
    1eb0:	02150533          	mul	a0,a0,ra
    1eb4:	98843603          	ld	a2,-1656(s0)
    1eb8:	00c50633          	add	a2,a0,a2
    1ebc:	98c43423          	sd	a2,-1656(s0)
    1ec0:	f6043483          	ld	s1,-160(s0)
    1ec4:	02990533          	mul	a0,s2,s1
    1ec8:	9a843603          	ld	a2,-1624(s0)
    1ecc:	00c50633          	add	a2,a0,a2
    1ed0:	9ac43423          	sd	a2,-1624(s0)
    1ed4:	ea843803          	ld	a6,-344(s0)
    1ed8:	03090533          	mul	a0,s2,a6
    1edc:	9a043603          	ld	a2,-1632(s0)
    1ee0:	00c50633          	add	a2,a0,a2
    1ee4:	9ac43023          	sd	a2,-1632(s0)
    1ee8:	f4043f03          	ld	t5,-192(s0)
    1eec:	03e90533          	mul	a0,s2,t5
    1ef0:	99843603          	ld	a2,-1640(s0)
    1ef4:	00c50633          	add	a2,a0,a2
    1ef8:	98c43c23          	sd	a2,-1640(s0)
    1efc:	f5843783          	ld	a5,-168(s0)
    1f00:	02f90533          	mul	a0,s2,a5
    1f04:	99043603          	ld	a2,-1648(s0)
    1f08:	00c50633          	add	a2,a0,a2
    1f0c:	98c43823          	sd	a2,-1648(s0)
    1f10:	f7843503          	ld	a0,-136(s0)
    1f14:	02a90533          	mul	a0,s2,a0
    1f18:	9b043603          	ld	a2,-1616(s0)
    1f1c:	00c50633          	add	a2,a0,a2
    1f20:	9ac43823          	sd	a2,-1616(s0)
    1f24:	f6843503          	ld	a0,-152(s0)
    1f28:	02a90533          	mul	a0,s2,a0
    1f2c:	9b843603          	ld	a2,-1608(s0)
    1f30:	00c50633          	add	a2,a0,a2
    1f34:	9ac43c23          	sd	a2,-1608(s0)
    1f38:	02d90533          	mul	a0,s2,a3
    1f3c:	9c043603          	ld	a2,-1600(s0)
    1f40:	00c50633          	add	a2,a0,a2
    1f44:	9cc43023          	sd	a2,-1600(s0)
    1f48:	02b90533          	mul	a0,s2,a1
    1f4c:	9c843603          	ld	a2,-1592(s0)
    1f50:	00c50633          	add	a2,a0,a2
    1f54:	9cc43423          	sd	a2,-1592(s0)
    1f58:	02e90533          	mul	a0,s2,a4
    1f5c:	9d043603          	ld	a2,-1584(s0)
    1f60:	00c50633          	add	a2,a0,a2
    1f64:	9cc43823          	sd	a2,-1584(s0)
    1f68:	03990533          	mul	a0,s2,s9
    1f6c:	9d843603          	ld	a2,-1576(s0)
    1f70:	00c50633          	add	a2,a0,a2
    1f74:	9cc43c23          	sd	a2,-1576(s0)
    1f78:	03890533          	mul	a0,s2,s8
    1f7c:	9e043603          	ld	a2,-1568(s0)
    1f80:	00c50633          	add	a2,a0,a2
    1f84:	9ec43023          	sd	a2,-1568(s0)
    1f88:	03790533          	mul	a0,s2,s7
    1f8c:	9e843603          	ld	a2,-1560(s0)
    1f90:	00c50633          	add	a2,a0,a2
    1f94:	9ec43423          	sd	a2,-1560(s0)
    1f98:	03690533          	mul	a0,s2,s6
    1f9c:	9f043603          	ld	a2,-1552(s0)
    1fa0:	00c50633          	add	a2,a0,a2
    1fa4:	9ec43823          	sd	a2,-1552(s0)
    1fa8:	03590533          	mul	a0,s2,s5
    1fac:	9f843603          	ld	a2,-1544(s0)
    1fb0:	00c50633          	add	a2,a0,a2
    1fb4:	9ec43c23          	sd	a2,-1544(s0)
    1fb8:	03190533          	mul	a0,s2,a7
    1fbc:	a0043603          	ld	a2,-1536(s0)
    1fc0:	00c50633          	add	a2,a0,a2
    1fc4:	a0c43023          	sd	a2,-1536(s0)
    1fc8:	02690533          	mul	a0,s2,t1
    1fcc:	a0843603          	ld	a2,-1528(s0)
    1fd0:	00c50633          	add	a2,a0,a2
    1fd4:	a0c43423          	sd	a2,-1528(s0)
    1fd8:	00001537          	lui	a0,0x1
    1fdc:	40a40533          	sub	a0,s0,a0
    1fe0:	68553023          	sd	t0,1664(a0) # 1680 <.LBB52_5+0x2a4>
    1fe4:	02590533          	mul	a0,s2,t0
    1fe8:	a1043603          	ld	a2,-1520(s0)
    1fec:	00c50633          	add	a2,a0,a2
    1ff0:	a0c43823          	sd	a2,-1520(s0)
    1ff4:	ec043683          	ld	a3,-320(s0)
    1ff8:	02d90533          	mul	a0,s2,a3
    1ffc:	a1843603          	ld	a2,-1512(s0)
    2000:	00c50633          	add	a2,a0,a2
    2004:	a0c43c23          	sd	a2,-1512(s0)
    2008:	03c90533          	mul	a0,s2,t3
    200c:	a2043603          	ld	a2,-1504(s0)
    2010:	00c50633          	add	a2,a0,a2
    2014:	a2c43023          	sd	a2,-1504(s0)
    2018:	ee843e83          	ld	t4,-280(s0)
    201c:	03d90533          	mul	a0,s2,t4
    2020:	a2843603          	ld	a2,-1496(s0)
    2024:	00c50633          	add	a2,a0,a2
    2028:	a2c43423          	sd	a2,-1496(s0)
    202c:	02790533          	mul	a0,s2,t2
    2030:	a3043603          	ld	a2,-1488(s0)
    2034:	00c50633          	add	a2,a0,a2
    2038:	a2c43823          	sd	a2,-1488(s0)
    203c:	03f90533          	mul	a0,s2,t6
    2040:	a3843603          	ld	a2,-1480(s0)
    2044:	00c50633          	add	a2,a0,a2
    2048:	a2c43c23          	sd	a2,-1480(s0)
    204c:	f4843f83          	ld	t6,-184(s0)
    2050:	03f90533          	mul	a0,s2,t6
    2054:	a4043603          	ld	a2,-1472(s0)
    2058:	00c50633          	add	a2,a0,a2
    205c:	a4c43023          	sd	a2,-1472(s0)
    2060:	e8843c83          	ld	s9,-376(s0)
    2064:	03990533          	mul	a0,s2,s9
    2068:	a4843603          	ld	a2,-1464(s0)
    206c:	00c50633          	add	a2,a0,a2
    2070:	a4c43423          	sd	a2,-1464(s0)
    2074:	03390533          	mul	a0,s2,s3
    2078:	a5043603          	ld	a2,-1456(s0)
    207c:	00c50633          	add	a2,a0,a2
    2080:	a4c43823          	sd	a2,-1456(s0)
    2084:	ed043b03          	ld	s6,-304(s0)
    2088:	03690533          	mul	a0,s2,s6
    208c:	a5843603          	ld	a2,-1448(s0)
    2090:	00c50633          	add	a2,a0,a2
    2094:	a4c43c23          	sd	a2,-1448(s0)
    2098:	e7843383          	ld	t2,-392(s0)
    209c:	02790533          	mul	a0,s2,t2
    20a0:	a6043603          	ld	a2,-1440(s0)
    20a4:	00c50633          	add	a2,a0,a2
    20a8:	a6c43023          	sd	a2,-1440(s0)
    20ac:	eb043c03          	ld	s8,-336(s0)
    20b0:	03890533          	mul	a0,s2,s8
    20b4:	a6843603          	ld	a2,-1432(s0)
    20b8:	00c50633          	add	a2,a0,a2
    20bc:	a6c43423          	sd	a2,-1432(s0)
    20c0:	03490533          	mul	a0,s2,s4
    20c4:	a7043603          	ld	a2,-1424(s0)
    20c8:	00c50633          	add	a2,a0,a2
    20cc:	a6c43823          	sd	a2,-1424(s0)
    20d0:	e6843983          	ld	s3,-408(s0)
    20d4:	03390533          	mul	a0,s2,s3
    20d8:	a7843603          	ld	a2,-1416(s0)
    20dc:	00c50633          	add	a2,a0,a2
    20e0:	a6c43c23          	sd	a2,-1416(s0)
    20e4:	f8843503          	ld	a0,-120(s0)
    20e8:	30050503          	lb	a0,768(a0)
    20ec:	03a90db3          	mul	s11,s2,s10
    20f0:	a8043603          	ld	a2,-1408(s0)
    20f4:	00cd8633          	add	a2,s11,a2
    20f8:	a8c43023          	sd	a2,-1408(s0)
    20fc:	02190933          	mul	s2,s2,ra
    2100:	00008a13          	mv	s4,ra
    2104:	a8843603          	ld	a2,-1400(s0)
    2108:	00c90633          	add	a2,s2,a2
    210c:	a8c43423          	sd	a2,-1400(s0)
    2110:	02950933          	mul	s2,a0,s1
    2114:	aa843603          	ld	a2,-1368(s0)
    2118:	00c90633          	add	a2,s2,a2
    211c:	aac43423          	sd	a2,-1368(s0)
    2120:	03050933          	mul	s2,a0,a6
    2124:	aa043603          	ld	a2,-1376(s0)
    2128:	00c90633          	add	a2,s2,a2
    212c:	aac43023          	sd	a2,-1376(s0)
    2130:	03e50933          	mul	s2,a0,t5
    2134:	a9843603          	ld	a2,-1384(s0)
    2138:	00c90633          	add	a2,s2,a2
    213c:	a8c43c23          	sd	a2,-1384(s0)
    2140:	02f50933          	mul	s2,a0,a5
    2144:	a9043603          	ld	a2,-1392(s0)
    2148:	00c90633          	add	a2,s2,a2
    214c:	a8c43823          	sd	a2,-1392(s0)
    2150:	f7843583          	ld	a1,-136(s0)
    2154:	02b50933          	mul	s2,a0,a1
    2158:	ab043603          	ld	a2,-1360(s0)
    215c:	00c90633          	add	a2,s2,a2
    2160:	aac43823          	sd	a2,-1360(s0)
    2164:	f6843483          	ld	s1,-152(s0)
    2168:	02950933          	mul	s2,a0,s1
    216c:	ab843603          	ld	a2,-1352(s0)
    2170:	00c90633          	add	a2,s2,a2
    2174:	aac43c23          	sd	a2,-1352(s0)
    2178:	f5043b83          	ld	s7,-176(s0)
    217c:	03750933          	mul	s2,a0,s7
    2180:	ac043603          	ld	a2,-1344(s0)
    2184:	00c90633          	add	a2,s2,a2
    2188:	acc43023          	sd	a2,-1344(s0)
    218c:	e7043083          	ld	ra,-400(s0)
    2190:	02150933          	mul	s2,a0,ra
    2194:	ac843603          	ld	a2,-1336(s0)
    2198:	00c90633          	add	a2,s2,a2
    219c:	acc43423          	sd	a2,-1336(s0)
    21a0:	02e50933          	mul	s2,a0,a4
    21a4:	ad043603          	ld	a2,-1328(s0)
    21a8:	00c90633          	add	a2,s2,a2
    21ac:	acc43823          	sd	a2,-1328(s0)
    21b0:	ef843603          	ld	a2,-264(s0)
    21b4:	02c50933          	mul	s2,a0,a2
    21b8:	ad843603          	ld	a2,-1320(s0)
    21bc:	00c90633          	add	a2,s2,a2
    21c0:	acc43c23          	sd	a2,-1320(s0)
    21c4:	ef043603          	ld	a2,-272(s0)
    21c8:	02c50933          	mul	s2,a0,a2
    21cc:	ae043603          	ld	a2,-1312(s0)
    21d0:	00c90633          	add	a2,s2,a2
    21d4:	aec43023          	sd	a2,-1312(s0)
    21d8:	e9843603          	ld	a2,-360(s0)
    21dc:	02c50933          	mul	s2,a0,a2
    21e0:	ae843603          	ld	a2,-1304(s0)
    21e4:	00c90633          	add	a2,s2,a2
    21e8:	aec43423          	sd	a2,-1304(s0)
    21ec:	e9043603          	ld	a2,-368(s0)
    21f0:	02c50933          	mul	s2,a0,a2
    21f4:	af043603          	ld	a2,-1296(s0)
    21f8:	00c90633          	add	a2,s2,a2
    21fc:	aec43823          	sd	a2,-1296(s0)
    2200:	03550933          	mul	s2,a0,s5
    2204:	af843603          	ld	a2,-1288(s0)
    2208:	00c90633          	add	a2,s2,a2
    220c:	aec43c23          	sd	a2,-1288(s0)
    2210:	03150933          	mul	s2,a0,a7
    2214:	b0043603          	ld	a2,-1280(s0)
    2218:	00c90633          	add	a2,s2,a2
    221c:	b0c43023          	sd	a2,-1280(s0)
    2220:	02650933          	mul	s2,a0,t1
    2224:	b0843603          	ld	a2,-1272(s0)
    2228:	00c90633          	add	a2,s2,a2
    222c:	b0c43423          	sd	a2,-1272(s0)
    2230:	02550933          	mul	s2,a0,t0
    2234:	b1043603          	ld	a2,-1264(s0)
    2238:	00c90633          	add	a2,s2,a2
    223c:	b0c43823          	sd	a2,-1264(s0)
    2240:	00068713          	mv	a4,a3
    2244:	02d50933          	mul	s2,a0,a3
    2248:	b1843603          	ld	a2,-1256(s0)
    224c:	00c90633          	add	a2,s2,a2
    2250:	b0c43c23          	sd	a2,-1256(s0)
    2254:	03c50933          	mul	s2,a0,t3
    2258:	b2043603          	ld	a2,-1248(s0)
    225c:	00c90633          	add	a2,s2,a2
    2260:	b2c43023          	sd	a2,-1248(s0)
    2264:	03d50933          	mul	s2,a0,t4
    2268:	b2843603          	ld	a2,-1240(s0)
    226c:	00c90633          	add	a2,s2,a2
    2270:	b2c43423          	sd	a2,-1240(s0)
    2274:	f7043e83          	ld	t4,-144(s0)
    2278:	03d50933          	mul	s2,a0,t4
    227c:	b3043603          	ld	a2,-1232(s0)
    2280:	00c90633          	add	a2,s2,a2
    2284:	b2c43823          	sd	a2,-1232(s0)
    2288:	f3843303          	ld	t1,-200(s0)
    228c:	02650933          	mul	s2,a0,t1
    2290:	b3843603          	ld	a2,-1224(s0)
    2294:	00c90633          	add	a2,s2,a2
    2298:	b2c43c23          	sd	a2,-1224(s0)
    229c:	03f50933          	mul	s2,a0,t6
    22a0:	b4043603          	ld	a2,-1216(s0)
    22a4:	00c90633          	add	a2,s2,a2
    22a8:	b4c43023          	sd	a2,-1216(s0)
    22ac:	000c8293          	mv	t0,s9
    22b0:	03950933          	mul	s2,a0,s9
    22b4:	b4843603          	ld	a2,-1208(s0)
    22b8:	00c90633          	add	a2,s2,a2
    22bc:	b4c43423          	sd	a2,-1208(s0)
    22c0:	ea043683          	ld	a3,-352(s0)
    22c4:	02d50933          	mul	s2,a0,a3
    22c8:	b5043603          	ld	a2,-1200(s0)
    22cc:	00c90633          	add	a2,s2,a2
    22d0:	b4c43823          	sd	a2,-1200(s0)
    22d4:	03650933          	mul	s2,a0,s6
    22d8:	b5843603          	ld	a2,-1192(s0)
    22dc:	00c90633          	add	a2,s2,a2
    22e0:	b4c43c23          	sd	a2,-1192(s0)
    22e4:	00038813          	mv	a6,t2
    22e8:	02750933          	mul	s2,a0,t2
    22ec:	b6043603          	ld	a2,-1184(s0)
    22f0:	00c90633          	add	a2,s2,a2
    22f4:	b6c43023          	sd	a2,-1184(s0)
    22f8:	000c0f13          	mv	t5,s8
    22fc:	03850933          	mul	s2,a0,s8
    2300:	b6843603          	ld	a2,-1176(s0)
    2304:	00c90633          	add	a2,s2,a2
    2308:	b6c43423          	sd	a2,-1176(s0)
    230c:	f0043b03          	ld	s6,-256(s0)
    2310:	03650933          	mul	s2,a0,s6
    2314:	b7043603          	ld	a2,-1168(s0)
    2318:	00c90633          	add	a2,s2,a2
    231c:	b6c43823          	sd	a2,-1168(s0)
    2320:	03350933          	mul	s2,a0,s3
    2324:	b7843603          	ld	a2,-1160(s0)
    2328:	00c90633          	add	a2,s2,a2
    232c:	b6c43c23          	sd	a2,-1160(s0)
    2330:	f8843603          	ld	a2,-120(s0)
    2334:	3c060903          	lb	s2,960(a2)
    2338:	03a50db3          	mul	s11,a0,s10
    233c:	b8043603          	ld	a2,-1152(s0)
    2340:	00cd8633          	add	a2,s11,a2
    2344:	b8c43023          	sd	a2,-1152(s0)
    2348:	03450533          	mul	a0,a0,s4
    234c:	b8843603          	ld	a2,-1144(s0)
    2350:	00c50633          	add	a2,a0,a2
    2354:	b8c43423          	sd	a2,-1144(s0)
    2358:	f6043e03          	ld	t3,-160(s0)
    235c:	03c90533          	mul	a0,s2,t3
    2360:	ba843603          	ld	a2,-1112(s0)
    2364:	00c50633          	add	a2,a0,a2
    2368:	bac43423          	sd	a2,-1112(s0)
    236c:	ea843883          	ld	a7,-344(s0)
    2370:	03190533          	mul	a0,s2,a7
    2374:	ba043603          	ld	a2,-1120(s0)
    2378:	00c50633          	add	a2,a0,a2
    237c:	bac43023          	sd	a2,-1120(s0)
    2380:	f4043383          	ld	t2,-192(s0)
    2384:	02790533          	mul	a0,s2,t2
    2388:	b9843603          	ld	a2,-1128(s0)
    238c:	00c50633          	add	a2,a0,a2
    2390:	b8c43c23          	sd	a2,-1128(s0)
    2394:	02f90533          	mul	a0,s2,a5
    2398:	b9043603          	ld	a2,-1136(s0)
    239c:	00c50633          	add	a2,a0,a2
    23a0:	b8c43823          	sd	a2,-1136(s0)
    23a4:	02b90533          	mul	a0,s2,a1
    23a8:	bb043603          	ld	a2,-1104(s0)
    23ac:	00c50633          	add	a2,a0,a2
    23b0:	bac43823          	sd	a2,-1104(s0)
    23b4:	02990533          	mul	a0,s2,s1
    23b8:	bb843603          	ld	a2,-1096(s0)
    23bc:	00c50633          	add	a2,a0,a2
    23c0:	bac43c23          	sd	a2,-1096(s0)
    23c4:	000b8493          	mv	s1,s7
    23c8:	03790533          	mul	a0,s2,s7
    23cc:	bc043603          	ld	a2,-1088(s0)
    23d0:	00c50633          	add	a2,a0,a2
    23d4:	bcc43023          	sd	a2,-1088(s0)
    23d8:	02190533          	mul	a0,s2,ra
    23dc:	bc843603          	ld	a2,-1080(s0)
    23e0:	00c50633          	add	a2,a0,a2
    23e4:	bcc43423          	sd	a2,-1080(s0)
    23e8:	eb843783          	ld	a5,-328(s0)
    23ec:	02f90533          	mul	a0,s2,a5
    23f0:	bd043603          	ld	a2,-1072(s0)
    23f4:	00c50633          	add	a2,a0,a2
    23f8:	bcc43823          	sd	a2,-1072(s0)
    23fc:	ef843c83          	ld	s9,-264(s0)
    2400:	03990533          	mul	a0,s2,s9
    2404:	bd843603          	ld	a2,-1064(s0)
    2408:	00c50633          	add	a2,a0,a2
    240c:	bcc43c23          	sd	a2,-1064(s0)
    2410:	ef043c03          	ld	s8,-272(s0)
    2414:	03890533          	mul	a0,s2,s8
    2418:	be043603          	ld	a2,-1056(s0)
    241c:	00c50633          	add	a2,a0,a2
    2420:	bec43023          	sd	a2,-1056(s0)
    2424:	e9843b83          	ld	s7,-360(s0)
    2428:	03790533          	mul	a0,s2,s7
    242c:	be843603          	ld	a2,-1048(s0)
    2430:	00c50633          	add	a2,a0,a2
    2434:	bec43423          	sd	a2,-1048(s0)
    2438:	e9043583          	ld	a1,-368(s0)
    243c:	02b90533          	mul	a0,s2,a1
    2440:	bf043603          	ld	a2,-1040(s0)
    2444:	00c50633          	add	a2,a0,a2
    2448:	bec43823          	sd	a2,-1040(s0)
    244c:	03590533          	mul	a0,s2,s5
    2450:	000a8f93          	mv	t6,s5
    2454:	bf843603          	ld	a2,-1032(s0)
    2458:	00c50633          	add	a2,a0,a2
    245c:	bec43c23          	sd	a2,-1032(s0)
    2460:	ed843503          	ld	a0,-296(s0)
    2464:	02a90533          	mul	a0,s2,a0
    2468:	c0043603          	ld	a2,-1024(s0)
    246c:	00c50633          	add	a2,a0,a2
    2470:	c0c43023          	sd	a2,-1024(s0)
    2474:	e8043a83          	ld	s5,-384(s0)
    2478:	03590533          	mul	a0,s2,s5
    247c:	c0843603          	ld	a2,-1016(s0)
    2480:	00c50633          	add	a2,a0,a2
    2484:	c0c43423          	sd	a2,-1016(s0)
    2488:	00001537          	lui	a0,0x1
    248c:	40a40533          	sub	a0,s0,a0
    2490:	68053d03          	ld	s10,1664(a0) # 1680 <.LBB52_5+0x2a4>
    2494:	03a90533          	mul	a0,s2,s10
    2498:	c1043603          	ld	a2,-1008(s0)
    249c:	00c50633          	add	a2,a0,a2
    24a0:	c0c43823          	sd	a2,-1008(s0)
    24a4:	02e90533          	mul	a0,s2,a4
    24a8:	c1843603          	ld	a2,-1000(s0)
    24ac:	00c50633          	add	a2,a0,a2
    24b0:	c0c43c23          	sd	a2,-1000(s0)
    24b4:	ee043503          	ld	a0,-288(s0)
    24b8:	02a90533          	mul	a0,s2,a0
    24bc:	c2043603          	ld	a2,-992(s0)
    24c0:	00c50633          	add	a2,a0,a2
    24c4:	c2c43023          	sd	a2,-992(s0)
    24c8:	ee843503          	ld	a0,-280(s0)
    24cc:	02a90533          	mul	a0,s2,a0
    24d0:	c2843603          	ld	a2,-984(s0)
    24d4:	00c50633          	add	a2,a0,a2
    24d8:	c2c43423          	sd	a2,-984(s0)
    24dc:	03d90533          	mul	a0,s2,t4
    24e0:	c3043603          	ld	a2,-976(s0)
    24e4:	00c50633          	add	a2,a0,a2
    24e8:	c2c43823          	sd	a2,-976(s0)
    24ec:	02690533          	mul	a0,s2,t1
    24f0:	c3843603          	ld	a2,-968(s0)
    24f4:	00c50633          	add	a2,a0,a2
    24f8:	c2c43c23          	sd	a2,-968(s0)
    24fc:	f4843503          	ld	a0,-184(s0)
    2500:	02a90533          	mul	a0,s2,a0
    2504:	c4043603          	ld	a2,-960(s0)
    2508:	00c50633          	add	a2,a0,a2
    250c:	c4c43023          	sd	a2,-960(s0)
    2510:	02590533          	mul	a0,s2,t0
    2514:	00028713          	mv	a4,t0
    2518:	c4843603          	ld	a2,-952(s0)
    251c:	00c50633          	add	a2,a0,a2
    2520:	c4c43423          	sd	a2,-952(s0)
    2524:	02d90533          	mul	a0,s2,a3
    2528:	c5043603          	ld	a2,-944(s0)
    252c:	00c50633          	add	a2,a0,a2
    2530:	c4c43823          	sd	a2,-944(s0)
    2534:	ed043503          	ld	a0,-304(s0)
    2538:	02a90533          	mul	a0,s2,a0
    253c:	c5843603          	ld	a2,-936(s0)
    2540:	00c50633          	add	a2,a0,a2
    2544:	c4c43c23          	sd	a2,-936(s0)
    2548:	03090533          	mul	a0,s2,a6
    254c:	00080693          	mv	a3,a6
    2550:	c6043603          	ld	a2,-928(s0)
    2554:	00c50633          	add	a2,a0,a2
    2558:	c6c43023          	sd	a2,-928(s0)
    255c:	03e90533          	mul	a0,s2,t5
    2560:	c6843603          	ld	a2,-920(s0)
    2564:	00c50633          	add	a2,a0,a2
    2568:	c6c43423          	sd	a2,-920(s0)
    256c:	03690533          	mul	a0,s2,s6
    2570:	c7043603          	ld	a2,-912(s0)
    2574:	00c50633          	add	a2,a0,a2
    2578:	c6c43823          	sd	a2,-912(s0)
    257c:	03390533          	mul	a0,s2,s3
    2580:	c7843603          	ld	a2,-904(s0)
    2584:	00c50633          	add	a2,a0,a2
    2588:	c6c43c23          	sd	a2,-904(s0)
    258c:	f8843503          	ld	a0,-120(s0)
    2590:	48050503          	lb	a0,1152(a0)
    2594:	ec843603          	ld	a2,-312(s0)
    2598:	02c90db3          	mul	s11,s2,a2
    259c:	c8043603          	ld	a2,-896(s0)
    25a0:	00cd8633          	add	a2,s11,a2
    25a4:	c8c43023          	sd	a2,-896(s0)
    25a8:	03490933          	mul	s2,s2,s4
    25ac:	c8843603          	ld	a2,-888(s0)
    25b0:	00c90633          	add	a2,s2,a2
    25b4:	c8c43423          	sd	a2,-888(s0)
    25b8:	03c50933          	mul	s2,a0,t3
    25bc:	ca843603          	ld	a2,-856(s0)
    25c0:	00c90633          	add	a2,s2,a2
    25c4:	cac43423          	sd	a2,-856(s0)
    25c8:	03150933          	mul	s2,a0,a7
    25cc:	ca043603          	ld	a2,-864(s0)
    25d0:	00c90633          	add	a2,s2,a2
    25d4:	cac43023          	sd	a2,-864(s0)
    25d8:	02750933          	mul	s2,a0,t2
    25dc:	c9843603          	ld	a2,-872(s0)
    25e0:	00c90633          	add	a2,s2,a2
    25e4:	c8c43c23          	sd	a2,-872(s0)
    25e8:	f5843603          	ld	a2,-168(s0)
    25ec:	02c50933          	mul	s2,a0,a2
    25f0:	c9043603          	ld	a2,-880(s0)
    25f4:	00c90633          	add	a2,s2,a2
    25f8:	c8c43823          	sd	a2,-880(s0)
    25fc:	f7843603          	ld	a2,-136(s0)
    2600:	02c50933          	mul	s2,a0,a2
    2604:	cb043603          	ld	a2,-848(s0)
    2608:	00c90633          	add	a2,s2,a2
    260c:	cac43823          	sd	a2,-848(s0)
    2610:	f6843603          	ld	a2,-152(s0)
    2614:	02c50933          	mul	s2,a0,a2
    2618:	cb843603          	ld	a2,-840(s0)
    261c:	00c90633          	add	a2,s2,a2
    2620:	cac43c23          	sd	a2,-840(s0)
    2624:	02950933          	mul	s2,a0,s1
    2628:	cc043603          	ld	a2,-832(s0)
    262c:	00c90633          	add	a2,s2,a2
    2630:	ccc43023          	sd	a2,-832(s0)
    2634:	02150933          	mul	s2,a0,ra
    2638:	cc843603          	ld	a2,-824(s0)
    263c:	00c90633          	add	a2,s2,a2
    2640:	ccc43423          	sd	a2,-824(s0)
    2644:	02f50933          	mul	s2,a0,a5
    2648:	cd043603          	ld	a2,-816(s0)
    264c:	00c90633          	add	a2,s2,a2
    2650:	ccc43823          	sd	a2,-816(s0)
    2654:	03950933          	mul	s2,a0,s9
    2658:	cd843603          	ld	a2,-808(s0)
    265c:	00c90633          	add	a2,s2,a2
    2660:	ccc43c23          	sd	a2,-808(s0)
    2664:	03850933          	mul	s2,a0,s8
    2668:	ce043603          	ld	a2,-800(s0)
    266c:	00c90633          	add	a2,s2,a2
    2670:	cec43023          	sd	a2,-800(s0)
    2674:	03750933          	mul	s2,a0,s7
    2678:	000b8c93          	mv	s9,s7
    267c:	ce843603          	ld	a2,-792(s0)
    2680:	00c90633          	add	a2,s2,a2
    2684:	cec43423          	sd	a2,-792(s0)
    2688:	02b50933          	mul	s2,a0,a1
    268c:	00058c13          	mv	s8,a1
    2690:	cf043603          	ld	a2,-784(s0)
    2694:	00c90633          	add	a2,s2,a2
    2698:	cec43823          	sd	a2,-784(s0)
    269c:	000f8b93          	mv	s7,t6
    26a0:	03f50933          	mul	s2,a0,t6
    26a4:	cf843603          	ld	a2,-776(s0)
    26a8:	00c90633          	add	a2,s2,a2
    26ac:	cec43c23          	sd	a2,-776(s0)
    26b0:	ed843f83          	ld	t6,-296(s0)
    26b4:	03f50933          	mul	s2,a0,t6
    26b8:	d0043603          	ld	a2,-768(s0)
    26bc:	00c90633          	add	a2,s2,a2
    26c0:	d0c43023          	sd	a2,-768(s0)
    26c4:	000a8e93          	mv	t4,s5
    26c8:	03550933          	mul	s2,a0,s5
    26cc:	d0843603          	ld	a2,-760(s0)
    26d0:	00c90633          	add	a2,s2,a2
    26d4:	d0c43423          	sd	a2,-760(s0)
    26d8:	000d0313          	mv	t1,s10
    26dc:	03a50933          	mul	s2,a0,s10
    26e0:	d1043603          	ld	a2,-752(s0)
    26e4:	00c90633          	add	a2,s2,a2
    26e8:	d0c43823          	sd	a2,-752(s0)
    26ec:	ec043a83          	ld	s5,-320(s0)
    26f0:	03550933          	mul	s2,a0,s5
    26f4:	d1843603          	ld	a2,-744(s0)
    26f8:	00c90633          	add	a2,s2,a2
    26fc:	d0c43c23          	sd	a2,-744(s0)
    2700:	ee043283          	ld	t0,-288(s0)
    2704:	02550933          	mul	s2,a0,t0
    2708:	d2043603          	ld	a2,-736(s0)
    270c:	00c90633          	add	a2,s2,a2
    2710:	d2c43023          	sd	a2,-736(s0)
    2714:	ee843e03          	ld	t3,-280(s0)
    2718:	03c50933          	mul	s2,a0,t3
    271c:	d2843603          	ld	a2,-728(s0)
    2720:	00c90633          	add	a2,s2,a2
    2724:	d2c43423          	sd	a2,-728(s0)
    2728:	f7043883          	ld	a7,-144(s0)
    272c:	03150933          	mul	s2,a0,a7
    2730:	d3043603          	ld	a2,-720(s0)
    2734:	00c90633          	add	a2,s2,a2
    2738:	d2c43823          	sd	a2,-720(s0)
    273c:	f3843383          	ld	t2,-200(s0)
    2740:	02750933          	mul	s2,a0,t2
    2744:	d3843603          	ld	a2,-712(s0)
    2748:	00c90633          	add	a2,s2,a2
    274c:	d2c43c23          	sd	a2,-712(s0)
    2750:	f4843803          	ld	a6,-184(s0)
    2754:	03050933          	mul	s2,a0,a6
    2758:	d4043603          	ld	a2,-704(s0)
    275c:	00c90633          	add	a2,s2,a2
    2760:	d4c43023          	sd	a2,-704(s0)
    2764:	00070493          	mv	s1,a4
    2768:	02e50933          	mul	s2,a0,a4
    276c:	d4843603          	ld	a2,-696(s0)
    2770:	00c90633          	add	a2,s2,a2
    2774:	d4c43423          	sd	a2,-696(s0)
    2778:	ea043703          	ld	a4,-352(s0)
    277c:	02e50933          	mul	s2,a0,a4
    2780:	d5043603          	ld	a2,-688(s0)
    2784:	00c90633          	add	a2,s2,a2
    2788:	d4c43823          	sd	a2,-688(s0)
    278c:	ed043f03          	ld	t5,-304(s0)
    2790:	03e50933          	mul	s2,a0,t5
    2794:	d5843603          	ld	a2,-680(s0)
    2798:	00c90633          	add	a2,s2,a2
    279c:	d4c43c23          	sd	a2,-680(s0)
    27a0:	02d50933          	mul	s2,a0,a3
    27a4:	d6043603          	ld	a2,-672(s0)
    27a8:	00c90633          	add	a2,s2,a2
    27ac:	d6c43023          	sd	a2,-672(s0)
    27b0:	eb043583          	ld	a1,-336(s0)
    27b4:	02b50933          	mul	s2,a0,a1
    27b8:	d6843603          	ld	a2,-664(s0)
    27bc:	00c90633          	add	a2,s2,a2
    27c0:	d6c43423          	sd	a2,-664(s0)
    27c4:	03650933          	mul	s2,a0,s6
    27c8:	d7043603          	ld	a2,-656(s0)
    27cc:	00c90633          	add	a2,s2,a2
    27d0:	d6c43823          	sd	a2,-656(s0)
    27d4:	03350933          	mul	s2,a0,s3
    27d8:	d7843603          	ld	a2,-648(s0)
    27dc:	00c90633          	add	a2,s2,a2
    27e0:	d6c43c23          	sd	a2,-648(s0)
    27e4:	f8843603          	ld	a2,-120(s0)
    27e8:	54060903          	lb	s2,1344(a2)
    27ec:	ec843d03          	ld	s10,-312(s0)
    27f0:	03a50db3          	mul	s11,a0,s10
    27f4:	d8043603          	ld	a2,-640(s0)
    27f8:	00cd8633          	add	a2,s11,a2
    27fc:	d8c43023          	sd	a2,-640(s0)
    2800:	03450533          	mul	a0,a0,s4
    2804:	d8843603          	ld	a2,-632(s0)
    2808:	00c50633          	add	a2,a0,a2
    280c:	d8c43423          	sd	a2,-632(s0)
    2810:	03490533          	mul	a0,s2,s4
    2814:	00001637          	lui	a2,0x1
    2818:	40c40633          	sub	a2,s0,a2
    281c:	66a63c23          	sd	a0,1656(a2) # 1678 <.LBB52_5+0x29c>
    2820:	03a90533          	mul	a0,s2,s10
    2824:	eca43423          	sd	a0,-312(s0)
    2828:	03390533          	mul	a0,s2,s3
    282c:	e6a43423          	sd	a0,-408(s0)
    2830:	03690533          	mul	a0,s2,s6
    2834:	00001637          	lui	a2,0x1
    2838:	40c40633          	sub	a2,s0,a2
    283c:	66a63823          	sd	a0,1648(a2) # 1670 <.LBB52_5+0x294>
    2840:	02b90533          	mul	a0,s2,a1
    2844:	000015b7          	lui	a1,0x1
    2848:	40b405b3          	sub	a1,s0,a1
    284c:	66a5b423          	sd	a0,1640(a1) # 1668 <.LBB52_5+0x28c>
    2850:	02d90533          	mul	a0,s2,a3
    2854:	eaa43823          	sd	a0,-336(s0)
    2858:	03e90533          	mul	a0,s2,t5
    285c:	f0a43023          	sd	a0,-256(s0)
    2860:	02e90533          	mul	a0,s2,a4
    2864:	eca43823          	sd	a0,-304(s0)
    2868:	02990533          	mul	a0,s2,s1
    286c:	eaa43023          	sd	a0,-352(s0)
    2870:	03090533          	mul	a0,s2,a6
    2874:	f4a43423          	sd	a0,-184(s0)
    2878:	027909b3          	mul	s3,s2,t2
    287c:	031904b3          	mul	s1,s2,a7
    2880:	03c90f33          	mul	t5,s2,t3
    2884:	02590e33          	mul	t3,s2,t0
    2888:	035903b3          	mul	t2,s2,s5
    288c:	026908b3          	mul	a7,s2,t1
    2890:	03d90833          	mul	a6,s2,t4
    2894:	03f90a33          	mul	s4,s2,t6
    2898:	03790ab3          	mul	s5,s2,s7
    289c:	03890b33          	mul	s6,s2,s8
    28a0:	03990bb3          	mul	s7,s2,s9
    28a4:	ef043503          	ld	a0,-272(s0)
    28a8:	02a90c33          	mul	s8,s2,a0
    28ac:	ef843503          	ld	a0,-264(s0)
    28b0:	02a90cb3          	mul	s9,s2,a0
    28b4:	eb843503          	ld	a0,-328(s0)
    28b8:	02a90d33          	mul	s10,s2,a0
    28bc:	02190db3          	mul	s11,s2,ra
    28c0:	f5043503          	ld	a0,-176(s0)
    28c4:	02a90733          	mul	a4,s2,a0
    28c8:	f6843503          	ld	a0,-152(s0)
    28cc:	02a900b3          	mul	ra,s2,a0
    28d0:	f7843503          	ld	a0,-136(s0)
    28d4:	02a906b3          	mul	a3,s2,a0
    28d8:	f5843503          	ld	a0,-168(s0)
    28dc:	02a90633          	mul	a2,s2,a0
    28e0:	f4043503          	ld	a0,-192(s0)
    28e4:	02a905b3          	mul	a1,s2,a0
    28e8:	ea843503          	ld	a0,-344(s0)
    28ec:	02a90533          	mul	a0,s2,a0
    28f0:	f6043783          	ld	a5,-160(s0)
    28f4:	02f90933          	mul	s2,s2,a5
    28f8:	da843783          	ld	a5,-600(s0)
    28fc:	00f907b3          	add	a5,s2,a5
    2900:	daf43423          	sd	a5,-600(s0)
    2904:	da043783          	ld	a5,-608(s0)
    2908:	00f507b3          	add	a5,a0,a5
    290c:	daf43023          	sd	a5,-608(s0)
    2910:	d9843503          	ld	a0,-616(s0)
    2914:	00a58533          	add	a0,a1,a0
    2918:	d8a43c23          	sd	a0,-616(s0)
    291c:	d9043503          	ld	a0,-624(s0)
    2920:	00a60533          	add	a0,a2,a0
    2924:	d8a43823          	sd	a0,-624(s0)
    2928:	db043503          	ld	a0,-592(s0)
    292c:	00a68533          	add	a0,a3,a0
    2930:	daa43823          	sd	a0,-592(s0)
    2934:	db843503          	ld	a0,-584(s0)
    2938:	00a08533          	add	a0,ra,a0
    293c:	daa43c23          	sd	a0,-584(s0)
    2940:	dd843083          	ld	ra,-552(s0)
    2944:	e5843903          	ld	s2,-424(s0)
    2948:	dc043503          	ld	a0,-576(s0)
    294c:	00a70533          	add	a0,a4,a0
    2950:	dca43023          	sd	a0,-576(s0)
    2954:	dc843503          	ld	a0,-568(s0)
    2958:	00ad8533          	add	a0,s11,a0
    295c:	dca43423          	sd	a0,-568(s0)
    2960:	de843d83          	ld	s11,-536(s0)
    2964:	dd043503          	ld	a0,-560(s0)
    2968:	00ad0533          	add	a0,s10,a0
    296c:	dca43823          	sd	a0,-560(s0)
    2970:	df043d03          	ld	s10,-528(s0)
    2974:	001c80b3          	add	ra,s9,ra
    2978:	df843c83          	ld	s9,-520(s0)
    297c:	de043503          	ld	a0,-544(s0)
    2980:	00ac0533          	add	a0,s8,a0
    2984:	dea43023          	sd	a0,-544(s0)
    2988:	e0043c03          	ld	s8,-512(s0)
    298c:	01bb8db3          	add	s11,s7,s11
    2990:	e0843b83          	ld	s7,-504(s0)
    2994:	01ab0d33          	add	s10,s6,s10
    2998:	e1043b03          	ld	s6,-496(s0)
    299c:	019a8cb3          	add	s9,s5,s9
    29a0:	e1843a83          	ld	s5,-488(s0)
    29a4:	018a0c33          	add	s8,s4,s8
    29a8:	e2043a03          	ld	s4,-480(s0)
    29ac:	01780bb3          	add	s7,a6,s7
    29b0:	e3043303          	ld	t1,-464(s0)
    29b4:	01688b33          	add	s6,a7,s6
    29b8:	e3843283          	ld	t0,-456(s0)
    29bc:	01538ab3          	add	s5,t2,s5
    29c0:	014e0a33          	add	s4,t3,s4
    29c4:	e2843383          	ld	t2,-472(s0)
    29c8:	f0843503          	ld	a0,-248(s0)
    29cc:	00af0533          	add	a0,t5,a0
    29d0:	f0a43423          	sd	a0,-248(s0)
    29d4:	f0843e03          	ld	t3,-248(s0)
    29d8:	f1043503          	ld	a0,-240(s0)
    29dc:	00a48533          	add	a0,s1,a0
    29e0:	000015b7          	lui	a1,0x1
    29e4:	40b405b3          	sub	a1,s0,a1
    29e8:	6885be83          	ld	t4,1672(a1) # 1688 <.LBB52_5+0x2ac>
    29ec:	f0a43823          	sd	a0,-240(s0)
    29f0:	f1043703          	ld	a4,-240(s0)
    29f4:	f1843503          	ld	a0,-232(s0)
    29f8:	00a98533          	add	a0,s3,a0
    29fc:	f8843f03          	ld	t5,-120(s0)
    2a00:	f0a43c23          	sd	a0,-232(s0)
    2a04:	f1843683          	ld	a3,-232(s0)
    2a08:	f2043503          	ld	a0,-224(s0)
    2a0c:	f4843583          	ld	a1,-184(s0)
    2a10:	00a58533          	add	a0,a1,a0
    2a14:	f2a43023          	sd	a0,-224(s0)
    2a18:	f2043603          	ld	a2,-224(s0)
    2a1c:	e5043883          	ld	a7,-432(s0)
    2a20:	f2843503          	ld	a0,-216(s0)
    2a24:	ea043583          	ld	a1,-352(s0)
    2a28:	00a58533          	add	a0,a1,a0
    2a2c:	f2a43423          	sd	a0,-216(s0)
    2a30:	f2843583          	ld	a1,-216(s0)
    2a34:	f3043503          	ld	a0,-208(s0)
    2a38:	ed043783          	ld	a5,-304(s0)
    2a3c:	00a78533          	add	a0,a5,a0
    2a40:	f2a43823          	sd	a0,-208(s0)
    2a44:	f3043503          	ld	a0,-208(s0)
    2a48:	f0043783          	ld	a5,-256(s0)
    2a4c:	007783b3          	add	t2,a5,t2
    2a50:	e4043803          	ld	a6,-448(s0)
    2a54:	eb043783          	ld	a5,-336(s0)
    2a58:	00678333          	add	t1,a5,t1
    2a5c:	f8043783          	ld	a5,-128(s0)
    2a60:	00001fb7          	lui	t6,0x1
    2a64:	41f40fb3          	sub	t6,s0,t6
    2a68:	668fbf83          	ld	t6,1640(t6) # 1668 <.LBB52_5+0x28c>
    2a6c:	005f82b3          	add	t0,t6,t0
    2a70:	00001fb7          	lui	t6,0x1
    2a74:	41f40fb3          	sub	t6,s0,t6
    2a78:	670fbf83          	ld	t6,1648(t6) # 1670 <.LBB52_5+0x294>
    2a7c:	010f8833          	add	a6,t6,a6
    2a80:	e4843f83          	ld	t6,-440(s0)
    2a84:	e6843483          	ld	s1,-408(s0)
    2a88:	01f48fb3          	add	t6,s1,t6
    2a8c:	e5f43423          	sd	t6,-440(s0)
    2a90:	ec843f83          	ld	t6,-312(s0)
    2a94:	011f88b3          	add	a7,t6,a7
    2a98:	00001fb7          	lui	t6,0x1
    2a9c:	41f40fb3          	sub	t6,s0,t6
    2aa0:	678fbf83          	ld	t6,1656(t6) # 1678 <.LBB52_5+0x29c>
    2aa4:	012f8933          	add	s2,t6,s2
    2aa8:	fc0e8e93          	addi	t4,t4,-64 # 2fc0 <.LBB52_24+0x130>
    2aac:	04078793          	addi	a5,a5,64
    2ab0:	001f0f13          	addi	t5,t5,1
    2ab4:	000e8463          	beqz	t4,2abc <.LBB52_6>
    2ab8:	925fe06f          	j	13dc <.LBB52_5>

0000000000002abc <.LBB52_6>:
    2abc:	00001537          	lui	a0,0x1
    2ac0:	40a40533          	sub	a0,s0,a0
    2ac4:	6a853f03          	ld	t5,1704(a0) # 16a8 <.LBB52_5+0x2cc>
    2ac8:	00001537          	lui	a0,0x1
    2acc:	40a40533          	sub	a0,s0,a0
    2ad0:	6b053983          	ld	s3,1712(a0) # 16b0 <.LBB52_5+0x2d4>
    2ad4:	00001537          	lui	a0,0x1
    2ad8:	40a40533          	sub	a0,s0,a0
    2adc:	6a053483          	ld	s1,1696(a0) # 16a0 <.LBB52_5+0x2c4>
    2ae0:	00001537          	lui	a0,0x1
    2ae4:	40a40533          	sub	a0,s0,a0
    2ae8:	69853f83          	ld	t6,1688(a0) # 1698 <.LBB52_5+0x2bc>
    2aec:	00001537          	lui	a0,0x1
    2af0:	40a40533          	sub	a0,s0,a0
    2af4:	69053e83          	ld	t4,1680(a0) # 1690 <.LBB52_5+0x2b4>
    2af8:	00001537          	lui	a0,0x1
    2afc:	40a40533          	sub	a0,s0,a0
    2b00:	65853503          	ld	a0,1624(a0) # 1658 <.LBB52_5+0x27c>
    2b04:	00251513          	slli	a0,a0,0x2

0000000000002b08 <.Lpcrel_hi9>:
    2b08:	00000597          	auipc	a1,0x0
    2b0c:	00058613          	mv	a2,a1
    2b10:	000015b7          	lui	a1,0x1
    2b14:	40b405b3          	sub	a1,s0,a1
    2b18:	b8c5b023          	sd	a2,-1152(a1) # b80 <.LBB52_3+0x998>
    2b1c:	00a60633          	add	a2,a2,a0
    2b20:	000015b7          	lui	a1,0x1
    2b24:	40b405b3          	sub	a1,s0,a1
    2b28:	6505b583          	ld	a1,1616(a1) # 1650 <.LBB52_5+0x274>
    2b2c:	0005a583          	lw	a1,0(a1)
    2b30:	000016b7          	lui	a3,0x1
    2b34:	40d406b3          	sub	a3,s0,a3
    2b38:	b886b683          	ld	a3,-1144(a3) # b88 <.LBB52_3+0x9a0>
    2b3c:	00a68533          	add	a0,a3,a0
    2b40:	00c52683          	lw	a3,12(a0)
    2b44:	00c62783          	lw	a5,12(a2)
    2b48:	01300713          	li	a4,19
    2b4c:	02e585b3          	mul	a1,a1,a4
    2b50:	00769713          	slli	a4,a3,0x7
    2b54:	eaf43423          	sd	a5,-344(s0)
    2b58:	000016b7          	lui	a3,0x1
    2b5c:	40d406b3          	sub	a3,s0,a3
    2b60:	6b86b683          	ld	a3,1720(a3) # 16b8 <.LBB52_5+0x2dc>
    2b64:	00f686b3          	add	a3,a3,a5
    2b68:	eae43023          	sd	a4,-352(s0)
    2b6c:	00e686b3          	add	a3,a3,a4
    2b70:	fff8e7b7          	lui	a5,0xfff8e
    2b74:	40f5873b          	subw	a4,a1,a5
    2b78:	40e6873b          	subw	a4,a3,a4
    2b7c:	400006b7          	lui	a3,0x40000
    2b80:	00001e37          	lui	t3,0x1
    2b84:	41c40e33          	sub	t3,s0,t3
    2b88:	68de3023          	sd	a3,1664(t3) # 1680 <.LBB52_5+0x2a4>
    2b8c:	00001e37          	lui	t3,0x1
    2b90:	41c40e33          	sub	t3,s0,t3
    2b94:	66ee3c23          	sd	a4,1656(t3) # 1678 <.LBB52_5+0x29c>
    2b98:	00075463          	bgez	a4,2ba0 <.LBB52_8>
    2b9c:	c00006b7          	lui	a3,0xc0000

0000000000002ba0 <.LBB52_8>:
    2ba0:	00001737          	lui	a4,0x1
    2ba4:	40e40733          	sub	a4,s0,a4
    2ba8:	66d73823          	sd	a3,1648(a4) # 1670 <.LBB52_5+0x294>
    2bac:	00852683          	lw	a3,8(a0)
    2bb0:	00862703          	lw	a4,8(a2)
    2bb4:	00769e13          	slli	t3,a3,0x7
    2bb8:	e8e43c23          	sd	a4,-360(s0)
    2bbc:	00ef06b3          	add	a3,t5,a4
    2bc0:	e9c43823          	sd	t3,-368(s0)
    2bc4:	01c686b3          	add	a3,a3,t3
    2bc8:	40f5873b          	subw	a4,a1,a5
    2bcc:	40e686bb          	subw	a3,a3,a4
    2bd0:	40000737          	lui	a4,0x40000
    2bd4:	00001e37          	lui	t3,0x1
    2bd8:	41c40e33          	sub	t3,s0,t3
    2bdc:	66de3423          	sd	a3,1640(t3) # 1668 <.LBB52_5+0x28c>
    2be0:	000e8f13          	mv	t5,t4
    2be4:	0006d463          	bgez	a3,2bec <.LBB52_10>
    2be8:	c0000737          	lui	a4,0xc0000

0000000000002bec <.LBB52_10>:
    2bec:	000016b7          	lui	a3,0x1
    2bf0:	40d406b3          	sub	a3,s0,a3
    2bf4:	64e6b023          	sd	a4,1600(a3) # 1640 <.LBB52_5+0x264>
    2bf8:	00452683          	lw	a3,4(a0)
    2bfc:	00462703          	lw	a4,4(a2)
    2c00:	00769e13          	slli	t3,a3,0x7
    2c04:	e8e43423          	sd	a4,-376(s0)
    2c08:	00e986b3          	add	a3,s3,a4
    2c0c:	e9c43023          	sd	t3,-384(s0)
    2c10:	01c686b3          	add	a3,a3,t3
    2c14:	40f5873b          	subw	a4,a1,a5
    2c18:	40e686bb          	subw	a3,a3,a4
    2c1c:	40000737          	lui	a4,0x40000
    2c20:	00001e37          	lui	t3,0x1
    2c24:	41c40e33          	sub	t3,s0,t3
    2c28:	62de3c23          	sd	a3,1592(t3) # 1638 <.LBB52_5+0x25c>
    2c2c:	00001e37          	lui	t3,0x1
    2c30:	41c40e33          	sub	t3,s0,t3
    2c34:	6c0e3983          	ld	s3,1728(t3) # 16c0 <.LBB52_5+0x2e4>
    2c38:	00001e37          	lui	t3,0x1
    2c3c:	41c40e33          	sub	t3,s0,t3
    2c40:	6d0e3e83          	ld	t4,1744(t3) # 16d0 <.LBB52_5+0x2f4>
    2c44:	0006d463          	bgez	a3,2c4c <.LBB52_12>
    2c48:	c0000737          	lui	a4,0xc0000

0000000000002c4c <.LBB52_12>:
    2c4c:	000016b7          	lui	a3,0x1
    2c50:	40d406b3          	sub	a3,s0,a3
    2c54:	62e6b823          	sd	a4,1584(a3) # 1630 <.LBB52_5+0x254>
    2c58:	00052683          	lw	a3,0(a0)
    2c5c:	00062703          	lw	a4,0(a2)
    2c60:	00769e13          	slli	t3,a3,0x7
    2c64:	e6e43c23          	sd	a4,-392(s0)
    2c68:	000016b7          	lui	a3,0x1
    2c6c:	40d406b3          	sub	a3,s0,a3
    2c70:	6c86b683          	ld	a3,1736(a3) # 16c8 <.LBB52_5+0x2ec>
    2c74:	00e686b3          	add	a3,a3,a4
    2c78:	e7c43823          	sd	t3,-400(s0)
    2c7c:	01c686b3          	add	a3,a3,t3
    2c80:	40f5873b          	subw	a4,a1,a5
    2c84:	40e686bb          	subw	a3,a3,a4
    2c88:	40000737          	lui	a4,0x40000
    2c8c:	00001e37          	lui	t3,0x1
    2c90:	41c40e33          	sub	t3,s0,t3
    2c94:	62de3423          	sd	a3,1576(t3) # 1628 <.LBB52_5+0x24c>
    2c98:	0006d463          	bgez	a3,2ca0 <.LBB52_14>
    2c9c:	c0000737          	lui	a4,0xc0000

0000000000002ca0 <.LBB52_14>:
    2ca0:	000016b7          	lui	a3,0x1
    2ca4:	40d406b3          	sub	a3,s0,a3
    2ca8:	62e6b023          	sd	a4,1568(a3) # 1620 <.LBB52_5+0x244>
    2cac:	01052683          	lw	a3,16(a0)
    2cb0:	01062703          	lw	a4,16(a2)
    2cb4:	00769e13          	slli	t3,a3,0x7
    2cb8:	e6e43423          	sd	a4,-408(s0)
    2cbc:	00ee86b3          	add	a3,t4,a4
    2cc0:	00001737          	lui	a4,0x1
    2cc4:	40e40733          	sub	a4,s0,a4
    2cc8:	6dc73823          	sd	t3,1744(a4) # 16d0 <.LBB52_5+0x2f4>
    2ccc:	01c686b3          	add	a3,a3,t3
    2cd0:	40f5873b          	subw	a4,a1,a5
    2cd4:	40e686bb          	subw	a3,a3,a4
    2cd8:	40000737          	lui	a4,0x40000
    2cdc:	00001e37          	lui	t3,0x1
    2ce0:	41c40e33          	sub	t3,s0,t3
    2ce4:	60de3c23          	sd	a3,1560(t3) # 1618 <.LBB52_5+0x23c>
    2ce8:	0006d463          	bgez	a3,2cf0 <.LBB52_16>
    2cec:	c0000737          	lui	a4,0xc0000

0000000000002cf0 <.LBB52_16>:
    2cf0:	000016b7          	lui	a3,0x1
    2cf4:	40d406b3          	sub	a3,s0,a3
    2cf8:	60e6b823          	sd	a4,1552(a3) # 1610 <.LBB52_5+0x234>
    2cfc:	01452683          	lw	a3,20(a0)
    2d00:	01462703          	lw	a4,20(a2)
    2d04:	00769e13          	slli	t3,a3,0x7
    2d08:	000016b7          	lui	a3,0x1
    2d0c:	40d406b3          	sub	a3,s0,a3
    2d10:	6ce6b423          	sd	a4,1736(a3) # 16c8 <.LBB52_5+0x2ec>
    2d14:	00e986b3          	add	a3,s3,a4
    2d18:	00001737          	lui	a4,0x1
    2d1c:	40e40733          	sub	a4,s0,a4
    2d20:	6dc73023          	sd	t3,1728(a4) # 16c0 <.LBB52_5+0x2e4>
    2d24:	01c686b3          	add	a3,a3,t3
    2d28:	40f5873b          	subw	a4,a1,a5
    2d2c:	40e686bb          	subw	a3,a3,a4
    2d30:	40000737          	lui	a4,0x40000
    2d34:	00001e37          	lui	t3,0x1
    2d38:	41c40e33          	sub	t3,s0,t3
    2d3c:	60de3423          	sd	a3,1544(t3) # 1608 <.LBB52_5+0x22c>
    2d40:	0006d463          	bgez	a3,2d48 <.LBB52_18>
    2d44:	c0000737          	lui	a4,0xc0000

0000000000002d48 <.LBB52_18>:
    2d48:	000016b7          	lui	a3,0x1
    2d4c:	40d406b3          	sub	a3,s0,a3
    2d50:	60e6b023          	sd	a4,1536(a3) # 1600 <.LBB52_5+0x224>
    2d54:	01852683          	lw	a3,24(a0)
    2d58:	01862703          	lw	a4,24(a2)
    2d5c:	00769e13          	slli	t3,a3,0x7
    2d60:	000016b7          	lui	a3,0x1
    2d64:	40d406b3          	sub	a3,s0,a3
    2d68:	6ae6bc23          	sd	a4,1720(a3) # 16b8 <.LBB52_5+0x2dc>
    2d6c:	00e486b3          	add	a3,s1,a4
    2d70:	00001737          	lui	a4,0x1
    2d74:	40e40733          	sub	a4,s0,a4
    2d78:	6bc73823          	sd	t3,1712(a4) # 16b0 <.LBB52_5+0x2d4>
    2d7c:	01c686b3          	add	a3,a3,t3
    2d80:	40f5873b          	subw	a4,a1,a5
    2d84:	40e686bb          	subw	a3,a3,a4
    2d88:	40000737          	lui	a4,0x40000
    2d8c:	00001e37          	lui	t3,0x1
    2d90:	41c40e33          	sub	t3,s0,t3
    2d94:	5ede3c23          	sd	a3,1528(t3) # 15f8 <.LBB52_5+0x21c>
    2d98:	0006d463          	bgez	a3,2da0 <.LBB52_20>
    2d9c:	c0000737          	lui	a4,0xc0000

0000000000002da0 <.LBB52_20>:
    2da0:	000016b7          	lui	a3,0x1
    2da4:	40d406b3          	sub	a3,s0,a3
    2da8:	5ee6b823          	sd	a4,1520(a3) # 15f0 <.LBB52_5+0x214>
    2dac:	e5043023          	sd	a6,-448(s0)
    2db0:	01c52683          	lw	a3,28(a0)
    2db4:	01c62703          	lw	a4,28(a2)
    2db8:	00769813          	slli	a6,a3,0x7
    2dbc:	000016b7          	lui	a3,0x1
    2dc0:	40d406b3          	sub	a3,s0,a3
    2dc4:	6ae6b423          	sd	a4,1704(a3) # 16a8 <.LBB52_5+0x2cc>
    2dc8:	00ef86b3          	add	a3,t6,a4
    2dcc:	00001737          	lui	a4,0x1
    2dd0:	40e40733          	sub	a4,s0,a4
    2dd4:	6b073023          	sd	a6,1696(a4) # 16a0 <.LBB52_5+0x2c4>
    2dd8:	010686b3          	add	a3,a3,a6
    2ddc:	40f5873b          	subw	a4,a1,a5
    2de0:	40e686bb          	subw	a3,a3,a4
    2de4:	40000737          	lui	a4,0x40000
    2de8:	00001837          	lui	a6,0x1
    2dec:	41040833          	sub	a6,s0,a6
    2df0:	5ed83423          	sd	a3,1512(a6) # 15e8 <.LBB52_5+0x20c>
    2df4:	0006d463          	bgez	a3,2dfc <.LBB52_22>
    2df8:	c0000737          	lui	a4,0xc0000

0000000000002dfc <.LBB52_22>:
    2dfc:	000016b7          	lui	a3,0x1
    2e00:	40d406b3          	sub	a3,s0,a3
    2e04:	5ee6b023          	sd	a4,1504(a3) # 15e0 <.LBB52_5+0x204>
    2e08:	dc143c23          	sd	ra,-552(s0)
    2e0c:	dfb43423          	sd	s11,-536(s0)
    2e10:	dfa43823          	sd	s10,-528(s0)
    2e14:	df943c23          	sd	s9,-520(s0)
    2e18:	e1843023          	sd	s8,-512(s0)
    2e1c:	e1743423          	sd	s7,-504(s0)
    2e20:	000b0e93          	mv	t4,s6
    2e24:	000a8e13          	mv	t3,s5
    2e28:	e3443023          	sd	s4,-480(s0)
    2e2c:	e2743423          	sd	t2,-472(s0)
    2e30:	e2643823          	sd	t1,-464(s0)
    2e34:	e2543c23          	sd	t0,-456(s0)
    2e38:	e5143823          	sd	a7,-432(s0)
    2e3c:	e5243c23          	sd	s2,-424(s0)
    2e40:	02052683          	lw	a3,32(a0)
    2e44:	02062703          	lw	a4,32(a2)
    2e48:	00769813          	slli	a6,a3,0x7
    2e4c:	000016b7          	lui	a3,0x1
    2e50:	40d406b3          	sub	a3,s0,a3
    2e54:	68e6bc23          	sd	a4,1688(a3) # 1698 <.LBB52_5+0x2bc>
    2e58:	00ef06b3          	add	a3,t5,a4
    2e5c:	00001737          	lui	a4,0x1
    2e60:	40e40733          	sub	a4,s0,a4
    2e64:	69073823          	sd	a6,1680(a4) # 1690 <.LBB52_5+0x2b4>
    2e68:	010686b3          	add	a3,a3,a6
    2e6c:	fff8e837          	lui	a6,0xfff8e
    2e70:	40f5873b          	subw	a4,a1,a5
    2e74:	40e686bb          	subw	a3,a3,a4
    2e78:	40000737          	lui	a4,0x40000
    2e7c:	000017b7          	lui	a5,0x1
    2e80:	40f407b3          	sub	a5,s0,a5
    2e84:	5cd7bc23          	sd	a3,1496(a5) # 15d8 <.LBB52_5+0x1fc>
    2e88:	0006d463          	bgez	a3,2e90 <.LBB52_24>
    2e8c:	c0000737          	lui	a4,0xc0000

0000000000002e90 <.LBB52_24>:
    2e90:	000016b7          	lui	a3,0x1
    2e94:	40d406b3          	sub	a3,s0,a3
    2e98:	5ce6b823          	sd	a4,1488(a3) # 15d0 <.LBB52_5+0x1f4>
    2e9c:	07c62683          	lw	a3,124(a2)
    2ea0:	f8d43423          	sd	a3,-120(s0)
    2ea4:	07862683          	lw	a3,120(a2)
    2ea8:	f8d43023          	sd	a3,-128(s0)
    2eac:	07462683          	lw	a3,116(a2)
    2eb0:	f6d43c23          	sd	a3,-136(s0)
    2eb4:	07062683          	lw	a3,112(a2)
    2eb8:	f6d43823          	sd	a3,-144(s0)
    2ebc:	06c62683          	lw	a3,108(a2)
    2ec0:	f6d43423          	sd	a3,-152(s0)
    2ec4:	06862683          	lw	a3,104(a2)
    2ec8:	f6d43023          	sd	a3,-160(s0)
    2ecc:	06462683          	lw	a3,100(a2)
    2ed0:	f4d43c23          	sd	a3,-168(s0)
    2ed4:	06062683          	lw	a3,96(a2)
    2ed8:	f4d43823          	sd	a3,-176(s0)
    2edc:	05c62683          	lw	a3,92(a2)
    2ee0:	f4d43423          	sd	a3,-184(s0)
    2ee4:	05862683          	lw	a3,88(a2)
    2ee8:	f4d43023          	sd	a3,-192(s0)
    2eec:	05462683          	lw	a3,84(a2)
    2ef0:	f2d43c23          	sd	a3,-200(s0)
    2ef4:	05062683          	lw	a3,80(a2)
    2ef8:	f0d43023          	sd	a3,-256(s0)
    2efc:	04c62683          	lw	a3,76(a2)
    2f00:	eed43c23          	sd	a3,-264(s0)
    2f04:	04862683          	lw	a3,72(a2)
    2f08:	eed43823          	sd	a3,-272(s0)
    2f0c:	04462683          	lw	a3,68(a2)
    2f10:	eed43423          	sd	a3,-280(s0)
    2f14:	04062683          	lw	a3,64(a2)
    2f18:	eed43023          	sd	a3,-288(s0)
    2f1c:	03c62683          	lw	a3,60(a2)
    2f20:	ecd43c23          	sd	a3,-296(s0)
    2f24:	03862683          	lw	a3,56(a2)
    2f28:	ecd43823          	sd	a3,-304(s0)
    2f2c:	03462683          	lw	a3,52(a2)
    2f30:	ecd43423          	sd	a3,-312(s0)
    2f34:	03062683          	lw	a3,48(a2)
    2f38:	ecd43023          	sd	a3,-320(s0)
    2f3c:	02c62683          	lw	a3,44(a2)
    2f40:	ead43c23          	sd	a3,-328(s0)
    2f44:	02862683          	lw	a3,40(a2)
    2f48:	ead43823          	sd	a3,-336(s0)
    2f4c:	02462383          	lw	t2,36(a2)
    2f50:	07c52603          	lw	a2,124(a0)
    2f54:	f8b43823          	sd	a1,-112(s0)
    2f58:	000015b7          	lui	a1,0x1
    2f5c:	40b405b3          	sub	a1,s0,a1
    2f60:	5cc5b423          	sd	a2,1480(a1) # 15c8 <.LBB52_5+0x1ec>
    2f64:	07852603          	lw	a2,120(a0)
    2f68:	000015b7          	lui	a1,0x1
    2f6c:	40b405b3          	sub	a1,s0,a1
    2f70:	5ac5bc23          	sd	a2,1464(a1) # 15b8 <.LBB52_5+0x1dc>
    2f74:	07452883          	lw	a7,116(a0)
    2f78:	07052283          	lw	t0,112(a0)
    2f7c:	06c52303          	lw	t1,108(a0)
    2f80:	06852603          	lw	a2,104(a0)
    2f84:	06452683          	lw	a3,100(a0)
    2f88:	06052f03          	lw	t5,96(a0)
    2f8c:	05c52f83          	lw	t6,92(a0)
    2f90:	05852483          	lw	s1,88(a0)
    2f94:	05452903          	lw	s2,84(a0)
    2f98:	05052983          	lw	s3,80(a0)
    2f9c:	04c52a03          	lw	s4,76(a0)
    2fa0:	04852a83          	lw	s5,72(a0)
    2fa4:	04452b03          	lw	s6,68(a0)
    2fa8:	04052b83          	lw	s7,64(a0)
    2fac:	03c52c03          	lw	s8,60(a0)
    2fb0:	03852c83          	lw	s9,56(a0)
    2fb4:	03452d03          	lw	s10,52(a0)
    2fb8:	02452783          	lw	a5,36(a0)
    2fbc:	03052d83          	lw	s11,48(a0)
    2fc0:	02c52083          	lw	ra,44(a0)
    2fc4:	02852703          	lw	a4,40(a0)
    2fc8:	00779793          	slli	a5,a5,0x7
    2fcc:	00001537          	lui	a0,0x1
    2fd0:	40a40533          	sub	a0,s0,a0
    2fd4:	68753423          	sd	t2,1672(a0) # 1688 <.LBB52_5+0x2ac>
    2fd8:	00001537          	lui	a0,0x1
    2fdc:	40a40533          	sub	a0,s0,a0
    2fe0:	6d853503          	ld	a0,1752(a0) # 16d8 <.LBB52_5+0x2fc>
    2fe4:	00750533          	add	a0,a0,t2
    2fe8:	000015b7          	lui	a1,0x1
    2fec:	40b405b3          	sub	a1,s0,a1
    2ff0:	6cf5bc23          	sd	a5,1752(a1) # 16d8 <.LBB52_5+0x2fc>
    2ff4:	00f50533          	add	a0,a0,a5
    2ff8:	000015b7          	lui	a1,0x1
    2ffc:	40b405b3          	sub	a1,s0,a1
    3000:	6505b383          	ld	t2,1616(a1) # 1650 <.LBB52_5+0x274>
    3004:	0043a783          	lw	a5,4(t2)
    3008:	000015b7          	lui	a1,0x1
    300c:	40b405b3          	sub	a1,s0,a1
    3010:	5af5b823          	sd	a5,1456(a1) # 15b0 <.LBB52_5+0x1d4>
    3014:	0083a783          	lw	a5,8(t2)
    3018:	000015b7          	lui	a1,0x1
    301c:	40b405b3          	sub	a1,s0,a1
    3020:	5cf5b023          	sd	a5,1472(a1) # 15c0 <.LBB52_5+0x1e4>
    3024:	00c3a783          	lw	a5,12(t2)
    3028:	000015b7          	lui	a1,0x1
    302c:	40b405b3          	sub	a1,s0,a1
    3030:	56f5b423          	sd	a5,1384(a1) # 1568 <.LBB52_5+0x18c>
    3034:	0103a783          	lw	a5,16(t2)
    3038:	000015b7          	lui	a1,0x1
    303c:	40b405b3          	sub	a1,s0,a1
    3040:	56f5b023          	sd	a5,1376(a1) # 1560 <.LBB52_5+0x184>
    3044:	0143a783          	lw	a5,20(t2)
    3048:	000015b7          	lui	a1,0x1
    304c:	40b405b3          	sub	a1,s0,a1
    3050:	5af5b023          	sd	a5,1440(a1) # 15a0 <.LBB52_5+0x1c4>
    3054:	0183a783          	lw	a5,24(t2)
    3058:	000015b7          	lui	a1,0x1
    305c:	40b405b3          	sub	a1,s0,a1
    3060:	5af5b423          	sd	a5,1448(a1) # 15a8 <.LBB52_5+0x1cc>
    3064:	f9043583          	ld	a1,-112(s0)
    3068:	01c3a383          	lw	t2,28(t2)
    306c:	000017b7          	lui	a5,0x1
    3070:	40f407b3          	sub	a5,s0,a5
    3074:	3877b423          	sd	t2,904(a5) # 1388 <.LBB52_4+0x554>
    3078:	410583bb          	subw	t2,a1,a6
    307c:	4075053b          	subw	a0,a0,t2
    3080:	400003b7          	lui	t2,0x40000
    3084:	000017b7          	lui	a5,0x1
    3088:	40f407b3          	sub	a5,s0,a5
    308c:	58a7bc23          	sd	a0,1432(a5) # 1598 <.LBB52_5+0x1bc>
    3090:	00055463          	bgez	a0,3098 <.LBB52_26>
    3094:	c00003b7          	lui	t2,0xc0000

0000000000003098 <.LBB52_26>:
    3098:	00001537          	lui	a0,0x1
    309c:	40a40533          	sub	a0,s0,a0
    30a0:	58753823          	sd	t2,1424(a0) # 1590 <.LBB52_5+0x1b4>
    30a4:	00771713          	slli	a4,a4,0x7
    30a8:	eb043503          	ld	a0,-336(s0)
    30ac:	000017b7          	lui	a5,0x1
    30b0:	40f407b3          	sub	a5,s0,a5
    30b4:	6e07b783          	ld	a5,1760(a5) # 16e0 <.LBB52_5+0x304>
    30b8:	00a78533          	add	a0,a5,a0
    30bc:	000017b7          	lui	a5,0x1
    30c0:	40f407b3          	sub	a5,s0,a5
    30c4:	6ee7b023          	sd	a4,1760(a5) # 16e0 <.LBB52_5+0x304>
    30c8:	00e50533          	add	a0,a0,a4
    30cc:	4105873b          	subw	a4,a1,a6
    30d0:	40e5053b          	subw	a0,a0,a4
    30d4:	40000737          	lui	a4,0x40000
    30d8:	000017b7          	lui	a5,0x1
    30dc:	40f407b3          	sub	a5,s0,a5
    30e0:	54a7b023          	sd	a0,1344(a5) # 1540 <.LBB52_5+0x164>
    30e4:	000017b7          	lui	a5,0x1
    30e8:	40f407b3          	sub	a5,s0,a5
    30ec:	7287b783          	ld	a5,1832(a5) # 1728 <.LBB52_5+0x34c>
    30f0:	00055463          	bgez	a0,30f8 <.LBB52_28>
    30f4:	c0000737          	lui	a4,0xc0000

00000000000030f8 <.LBB52_28>:
    30f8:	00001537          	lui	a0,0x1
    30fc:	40a40533          	sub	a0,s0,a0
    3100:	52e53c23          	sd	a4,1336(a0) # 1538 <.LBB52_5+0x15c>
    3104:	00709093          	slli	ra,ra,0x7
    3108:	eb843503          	ld	a0,-328(s0)
    310c:	00001737          	lui	a4,0x1
    3110:	40e40733          	sub	a4,s0,a4
    3114:	6e873703          	ld	a4,1768(a4) # 16e8 <.LBB52_5+0x30c>
    3118:	00a70533          	add	a0,a4,a0
    311c:	00001737          	lui	a4,0x1
    3120:	40e40733          	sub	a4,s0,a4
    3124:	6e173423          	sd	ra,1768(a4) # 16e8 <.LBB52_5+0x30c>
    3128:	00150533          	add	a0,a0,ra
    312c:	fff8e0b7          	lui	ra,0xfff8e
    3130:	4015873b          	subw	a4,a1,ra
    3134:	40e5053b          	subw	a0,a0,a4
    3138:	40000737          	lui	a4,0x40000
    313c:	00001837          	lui	a6,0x1
    3140:	41040833          	sub	a6,s0,a6
    3144:	4ea83023          	sd	a0,1248(a6) # 14e0 <.LBB52_5+0x104>
    3148:	00001837          	lui	a6,0x1
    314c:	41040833          	sub	a6,s0,a6
    3150:	73083803          	ld	a6,1840(a6) # 1730 <.LBB52_5+0x354>
    3154:	000013b7          	lui	t2,0x1
    3158:	407403b3          	sub	t2,s0,t2
    315c:	6f83b383          	ld	t2,1784(t2) # 16f8 <.LBB52_5+0x31c>
    3160:	00055463          	bgez	a0,3168 <.LBB52_30>
    3164:	c0000737          	lui	a4,0xc0000

0000000000003168 <.LBB52_30>:
    3168:	f8c43823          	sd	a2,-112(s0)
    316c:	00001537          	lui	a0,0x1
    3170:	40a40533          	sub	a0,s0,a0
    3174:	4ce53823          	sd	a4,1232(a0) # 14d0 <.LBB52_5+0xf4>
    3178:	007d9713          	slli	a4,s11,0x7
    317c:	ec043503          	ld	a0,-320(s0)
    3180:	00001637          	lui	a2,0x1
    3184:	40c40633          	sub	a2,s0,a2
    3188:	6f063d83          	ld	s11,1776(a2) # 16f0 <.LBB52_5+0x314>
    318c:	00ad8533          	add	a0,s11,a0
    3190:	00070d93          	mv	s11,a4
    3194:	00e50533          	add	a0,a0,a4
    3198:	4015873b          	subw	a4,a1,ra
    319c:	40e5053b          	subw	a0,a0,a4
    31a0:	40000737          	lui	a4,0x40000
    31a4:	00001637          	lui	a2,0x1
    31a8:	40c40633          	sub	a2,s0,a2
    31ac:	48a63423          	sd	a0,1160(a2) # 1488 <.LBB52_5+0xac>
    31b0:	f9043603          	ld	a2,-112(s0)
    31b4:	00055463          	bgez	a0,31bc <.LBB52_32>
    31b8:	c0000737          	lui	a4,0xc0000

00000000000031bc <.LBB52_32>:
    31bc:	00001537          	lui	a0,0x1
    31c0:	40a40533          	sub	a0,s0,a0
    31c4:	46e53823          	sd	a4,1136(a0) # 1470 <.LBB52_5+0x94>
    31c8:	007d1713          	slli	a4,s10,0x7
    31cc:	ec843503          	ld	a0,-312(s0)
    31d0:	00a38533          	add	a0,t2,a0
    31d4:	00070d13          	mv	s10,a4
    31d8:	00e50533          	add	a0,a0,a4
    31dc:	4015873b          	subw	a4,a1,ra
    31e0:	40e5053b          	subw	a0,a0,a4
    31e4:	40000737          	lui	a4,0x40000
    31e8:	000013b7          	lui	t2,0x1
    31ec:	407403b3          	sub	t2,s0,t2
    31f0:	42a3b423          	sd	a0,1064(t2) # 1428 <.LBB52_5+0x4c>
    31f4:	98043383          	ld	t2,-1664(s0)
    31f8:	00055463          	bgez	a0,3200 <.LBB52_34>
    31fc:	c0000737          	lui	a4,0xc0000

0000000000003200 <.LBB52_34>:
    3200:	f8c43823          	sd	a2,-112(s0)
    3204:	00001537          	lui	a0,0x1
    3208:	40a40533          	sub	a0,s0,a0
    320c:	40e53823          	sd	a4,1040(a0) # 1410 <.LBB52_5+0x34>
    3210:	007c9713          	slli	a4,s9,0x7
    3214:	ed043503          	ld	a0,-304(s0)
    3218:	00001637          	lui	a2,0x1
    321c:	40c40633          	sub	a2,s0,a2
    3220:	70063c83          	ld	s9,1792(a2) # 1700 <.LBB52_5+0x324>
    3224:	00ac8533          	add	a0,s9,a0
    3228:	00070c93          	mv	s9,a4
    322c:	00e50533          	add	a0,a0,a4
    3230:	4015873b          	subw	a4,a1,ra
    3234:	40e5053b          	subw	a0,a0,a4
    3238:	40000737          	lui	a4,0x40000
    323c:	00001637          	lui	a2,0x1
    3240:	40c40633          	sub	a2,s0,a2
    3244:	3ca63023          	sd	a0,960(a2) # 13c0 <.LBB52_4+0x58c>
    3248:	f9043603          	ld	a2,-112(s0)
    324c:	00055463          	bgez	a0,3254 <.LBB52_36>
    3250:	c0000737          	lui	a4,0xc0000

0000000000003254 <.LBB52_36>:
    3254:	f8c43823          	sd	a2,-112(s0)
    3258:	00001537          	lui	a0,0x1
    325c:	40a40533          	sub	a0,s0,a0
    3260:	3ae53823          	sd	a4,944(a0) # 13b0 <.LBB52_4+0x57c>
    3264:	007c1713          	slli	a4,s8,0x7
    3268:	ed843503          	ld	a0,-296(s0)
    326c:	00001637          	lui	a2,0x1
    3270:	40c40633          	sub	a2,s0,a2
    3274:	70863c03          	ld	s8,1800(a2) # 1708 <.LBB52_5+0x32c>
    3278:	00ac0533          	add	a0,s8,a0
    327c:	00070c13          	mv	s8,a4
    3280:	00e50533          	add	a0,a0,a4
    3284:	4015873b          	subw	a4,a1,ra
    3288:	40e5053b          	subw	a0,a0,a4
    328c:	40000737          	lui	a4,0x40000
    3290:	00001637          	lui	a2,0x1
    3294:	40c40633          	sub	a2,s0,a2
    3298:	34a63823          	sd	a0,848(a2) # 1350 <.LBB52_4+0x51c>
    329c:	f9043603          	ld	a2,-112(s0)
    32a0:	00055463          	bgez	a0,32a8 <.LBB52_38>
    32a4:	c0000737          	lui	a4,0xc0000

00000000000032a8 <.LBB52_38>:
    32a8:	f8c43823          	sd	a2,-112(s0)
    32ac:	00001537          	lui	a0,0x1
    32b0:	40a40533          	sub	a0,s0,a0
    32b4:	32e53c23          	sd	a4,824(a0) # 1338 <.LBB52_4+0x504>
    32b8:	007b9713          	slli	a4,s7,0x7
    32bc:	ee043503          	ld	a0,-288(s0)
    32c0:	00001637          	lui	a2,0x1
    32c4:	40c40633          	sub	a2,s0,a2
    32c8:	71063b83          	ld	s7,1808(a2) # 1710 <.LBB52_5+0x334>
    32cc:	00ab8533          	add	a0,s7,a0
    32d0:	00070b93          	mv	s7,a4
    32d4:	00e50533          	add	a0,a0,a4
    32d8:	4015873b          	subw	a4,a1,ra
    32dc:	40e5053b          	subw	a0,a0,a4
    32e0:	40000737          	lui	a4,0x40000
    32e4:	00001637          	lui	a2,0x1
    32e8:	40c40633          	sub	a2,s0,a2
    32ec:	2ea63023          	sd	a0,736(a2) # 12e0 <.LBB52_4+0x4ac>
    32f0:	f9043603          	ld	a2,-112(s0)
    32f4:	00055463          	bgez	a0,32fc <.LBB52_40>
    32f8:	c0000737          	lui	a4,0xc0000

00000000000032fc <.LBB52_40>:
    32fc:	f8c43823          	sd	a2,-112(s0)
    3300:	00001537          	lui	a0,0x1
    3304:	40a40533          	sub	a0,s0,a0
    3308:	2ce53423          	sd	a4,712(a0) # 12c8 <.LBB52_4+0x494>
    330c:	007b1713          	slli	a4,s6,0x7
    3310:	ee843503          	ld	a0,-280(s0)
    3314:	00001637          	lui	a2,0x1
    3318:	40c40633          	sub	a2,s0,a2
    331c:	71863b03          	ld	s6,1816(a2) # 1718 <.LBB52_5+0x33c>
    3320:	00ab0533          	add	a0,s6,a0
    3324:	00070b13          	mv	s6,a4
    3328:	00e50533          	add	a0,a0,a4
    332c:	4015873b          	subw	a4,a1,ra
    3330:	40e5053b          	subw	a0,a0,a4
    3334:	40000737          	lui	a4,0x40000
    3338:	00001637          	lui	a2,0x1
    333c:	40c40633          	sub	a2,s0,a2
    3340:	26a63023          	sd	a0,608(a2) # 1260 <.LBB52_4+0x42c>
    3344:	f9043603          	ld	a2,-112(s0)
    3348:	00055463          	bgez	a0,3350 <.LBB52_42>
    334c:	c0000737          	lui	a4,0xc0000

0000000000003350 <.LBB52_42>:
    3350:	00001537          	lui	a0,0x1
    3354:	40a40533          	sub	a0,s0,a0
    3358:	24e53023          	sd	a4,576(a0) # 1240 <.LBB52_4+0x40c>
    335c:	007a9713          	slli	a4,s5,0x7
    3360:	ef043503          	ld	a0,-272(s0)
    3364:	00001ab7          	lui	s5,0x1
    3368:	41540ab3          	sub	s5,s0,s5
    336c:	720aba83          	ld	s5,1824(s5) # 1720 <.LBB52_5+0x344>
    3370:	00aa8533          	add	a0,s5,a0
    3374:	00070a93          	mv	s5,a4
    3378:	00e50533          	add	a0,a0,a4
    337c:	4015873b          	subw	a4,a1,ra
    3380:	40e5053b          	subw	a0,a0,a4
    3384:	40000737          	lui	a4,0x40000
    3388:	e1d43823          	sd	t4,-496(s0)
    338c:	00001eb7          	lui	t4,0x1
    3390:	41d40eb3          	sub	t4,s0,t4
    3394:	1caebc23          	sd	a0,472(t4) # 11d8 <.LBB52_4+0x3a4>
    3398:	00055463          	bgez	a0,33a0 <.LBB52_44>
    339c:	c0000737          	lui	a4,0xc0000

00000000000033a0 <.LBB52_44>:
    33a0:	00001537          	lui	a0,0x1
    33a4:	40a40533          	sub	a0,s0,a0
    33a8:	1ce53023          	sd	a4,448(a0) # 11c0 <.LBB52_4+0x38c>
    33ac:	007a1713          	slli	a4,s4,0x7
    33b0:	ef843503          	ld	a0,-264(s0)
    33b4:	00a78533          	add	a0,a5,a0
    33b8:	00070a13          	mv	s4,a4
    33bc:	00e50533          	add	a0,a0,a4
    33c0:	4015873b          	subw	a4,a1,ra
    33c4:	40e5053b          	subw	a0,a0,a4
    33c8:	40000737          	lui	a4,0x40000
    33cc:	e1c43c23          	sd	t3,-488(s0)
    33d0:	000017b7          	lui	a5,0x1
    33d4:	40f407b3          	sub	a5,s0,a5
    33d8:	14a7b823          	sd	a0,336(a5) # 1150 <.LBB52_4+0x31c>
    33dc:	000017b7          	lui	a5,0x1
    33e0:	40f407b3          	sub	a5,s0,a5
    33e4:	7807be83          	ld	t4,1920(a5) # 1780 <.LBB52_5+0x3a4>
    33e8:	00055463          	bgez	a0,33f0 <.LBB52_46>
    33ec:	c0000737          	lui	a4,0xc0000

00000000000033f0 <.LBB52_46>:
    33f0:	00001537          	lui	a0,0x1
    33f4:	40a40533          	sub	a0,s0,a0
    33f8:	14e53023          	sd	a4,320(a0) # 1140 <.LBB52_4+0x30c>
    33fc:	00799713          	slli	a4,s3,0x7
    3400:	f0043503          	ld	a0,-256(s0)
    3404:	00a80533          	add	a0,a6,a0
    3408:	00070993          	mv	s3,a4
    340c:	00e50533          	add	a0,a0,a4
    3410:	4015873b          	subw	a4,a1,ra
    3414:	40e5053b          	subw	a0,a0,a4
    3418:	40000737          	lui	a4,0x40000
    341c:	98843803          	ld	a6,-1656(s0)
    3420:	000017b7          	lui	a5,0x1
    3424:	40f407b3          	sub	a5,s0,a5
    3428:	0ca7b823          	sd	a0,208(a5) # 10d0 <.LBB52_4+0x29c>
    342c:	000017b7          	lui	a5,0x1
    3430:	40f407b3          	sub	a5,s0,a5
    3434:	7787be03          	ld	t3,1912(a5) # 1778 <.LBB52_5+0x39c>
    3438:	00055463          	bgez	a0,3440 <.LBB52_48>
    343c:	c0000737          	lui	a4,0xc0000

0000000000003440 <.LBB52_48>:
    3440:	00001537          	lui	a0,0x1
    3444:	40a40533          	sub	a0,s0,a0
    3448:	0ce53423          	sd	a4,200(a0) # 10c8 <.LBB52_4+0x294>
    344c:	00791713          	slli	a4,s2,0x7
    3450:	f3843503          	ld	a0,-200(s0)
    3454:	000017b7          	lui	a5,0x1
    3458:	40f407b3          	sub	a5,s0,a5
    345c:	7387b903          	ld	s2,1848(a5) # 1738 <.LBB52_5+0x35c>
    3460:	00a90533          	add	a0,s2,a0
    3464:	00070913          	mv	s2,a4
    3468:	00e50533          	add	a0,a0,a4
    346c:	4015873b          	subw	a4,a1,ra
    3470:	40e5053b          	subw	a0,a0,a4
    3474:	40000737          	lui	a4,0x40000
    3478:	000017b7          	lui	a5,0x1
    347c:	40f407b3          	sub	a5,s0,a5
    3480:	04a7bc23          	sd	a0,88(a5) # 1058 <.LBB52_4+0x224>
    3484:	00055463          	bgez	a0,348c <.LBB52_50>
    3488:	c0000737          	lui	a4,0xc0000

000000000000348c <.LBB52_50>:
    348c:	00001537          	lui	a0,0x1
    3490:	40a40533          	sub	a0,s0,a0
    3494:	04e53823          	sd	a4,80(a0) # 1050 <.LBB52_4+0x21c>
    3498:	00749713          	slli	a4,s1,0x7
    349c:	f4043503          	ld	a0,-192(s0)
    34a0:	000017b7          	lui	a5,0x1
    34a4:	40f407b3          	sub	a5,s0,a5
    34a8:	7407b483          	ld	s1,1856(a5) # 1740 <.LBB52_5+0x364>
    34ac:	00a48533          	add	a0,s1,a0
    34b0:	000017b7          	lui	a5,0x1
    34b4:	40f407b3          	sub	a5,s0,a5
    34b8:	74e7b023          	sd	a4,1856(a5) # 1740 <.LBB52_5+0x364>
    34bc:	00e50533          	add	a0,a0,a4
    34c0:	4015873b          	subw	a4,a1,ra
    34c4:	40e5053b          	subw	a0,a0,a4
    34c8:	40000737          	lui	a4,0x40000
    34cc:	000017b7          	lui	a5,0x1
    34d0:	40f407b3          	sub	a5,s0,a5
    34d4:	fea7b023          	sd	a0,-32(a5) # fe0 <.LBB52_4+0x1ac>
    34d8:	00055463          	bgez	a0,34e0 <.LBB52_52>
    34dc:	c0000737          	lui	a4,0xc0000

00000000000034e0 <.LBB52_52>:
    34e0:	00001537          	lui	a0,0x1
    34e4:	40a40533          	sub	a0,s0,a0
    34e8:	fce53c23          	sd	a4,-40(a0) # fd8 <.LBB52_4+0x1a4>
    34ec:	007f9f93          	slli	t6,t6,0x7
    34f0:	f4843503          	ld	a0,-184(s0)
    34f4:	00001737          	lui	a4,0x1
    34f8:	40e40733          	sub	a4,s0,a4
    34fc:	74873703          	ld	a4,1864(a4) # 1748 <.LBB52_5+0x36c>
    3500:	00a70533          	add	a0,a4,a0
    3504:	00001737          	lui	a4,0x1
    3508:	40e40733          	sub	a4,s0,a4
    350c:	75f73423          	sd	t6,1864(a4) # 1748 <.LBB52_5+0x36c>
    3510:	01f50533          	add	a0,a0,t6
    3514:	4015873b          	subw	a4,a1,ra
    3518:	40e5053b          	subw	a0,a0,a4
    351c:	40000737          	lui	a4,0x40000
    3520:	000017b7          	lui	a5,0x1
    3524:	40f407b3          	sub	a5,s0,a5
    3528:	f6a7b423          	sd	a0,-152(a5) # f68 <.LBB52_4+0x134>
    352c:	000017b7          	lui	a5,0x1
    3530:	40f407b3          	sub	a5,s0,a5
    3534:	7687b483          	ld	s1,1896(a5) # 1768 <.LBB52_5+0x38c>
    3538:	00055463          	bgez	a0,3540 <.LBB52_54>
    353c:	c0000737          	lui	a4,0xc0000

0000000000003540 <.LBB52_54>:
    3540:	00001537          	lui	a0,0x1
    3544:	40a40533          	sub	a0,s0,a0
    3548:	f6e53023          	sd	a4,-160(a0) # f60 <.LBB52_4+0x12c>
    354c:	007f1713          	slli	a4,t5,0x7
    3550:	f5043503          	ld	a0,-176(s0)
    3554:	000017b7          	lui	a5,0x1
    3558:	40f407b3          	sub	a5,s0,a5
    355c:	7507bf03          	ld	t5,1872(a5) # 1750 <.LBB52_5+0x374>
    3560:	00af0533          	add	a0,t5,a0
    3564:	000017b7          	lui	a5,0x1
    3568:	40f407b3          	sub	a5,s0,a5
    356c:	74e7b823          	sd	a4,1872(a5) # 1750 <.LBB52_5+0x374>
    3570:	00e50533          	add	a0,a0,a4
    3574:	4015873b          	subw	a4,a1,ra
    3578:	40e5053b          	subw	a0,a0,a4
    357c:	40000737          	lui	a4,0x40000
    3580:	000017b7          	lui	a5,0x1
    3584:	40f407b3          	sub	a5,s0,a5
    3588:	eea7bc23          	sd	a0,-264(a5) # ef8 <.LBB52_4+0xc4>
    358c:	000017b7          	lui	a5,0x1
    3590:	40f407b3          	sub	a5,s0,a5
    3594:	7707bf83          	ld	t6,1904(a5) # 1770 <.LBB52_5+0x394>
    3598:	00055463          	bgez	a0,35a0 <.LBB52_56>
    359c:	c0000737          	lui	a4,0xc0000

00000000000035a0 <.LBB52_56>:
    35a0:	00001537          	lui	a0,0x1
    35a4:	40a40533          	sub	a0,s0,a0
    35a8:	eee53823          	sd	a4,-272(a0) # ef0 <.LBB52_4+0xbc>
    35ac:	00769693          	slli	a3,a3,0x7
    35b0:	f5843503          	ld	a0,-168(s0)
    35b4:	00001737          	lui	a4,0x1
    35b8:	40e40733          	sub	a4,s0,a4
    35bc:	75873703          	ld	a4,1880(a4) # 1758 <.LBB52_5+0x37c>
    35c0:	00a70533          	add	a0,a4,a0
    35c4:	00001737          	lui	a4,0x1
    35c8:	40e40733          	sub	a4,s0,a4
    35cc:	74d73c23          	sd	a3,1880(a4) # 1758 <.LBB52_5+0x37c>
    35d0:	00d50533          	add	a0,a0,a3
    35d4:	4015873b          	subw	a4,a1,ra
    35d8:	40e5053b          	subw	a0,a0,a4
    35dc:	400006b7          	lui	a3,0x40000
    35e0:	00001737          	lui	a4,0x1
    35e4:	40e40733          	sub	a4,s0,a4
    35e8:	e8a73023          	sd	a0,-384(a4) # e80 <.LBB52_4+0x4c>
    35ec:	00001737          	lui	a4,0x1
    35f0:	40e40733          	sub	a4,s0,a4
    35f4:	78873f03          	ld	t5,1928(a4) # 1788 <.LBB52_5+0x3ac>
    35f8:	00055463          	bgez	a0,3600 <.LBB52_58>
    35fc:	c00006b7          	lui	a3,0xc0000

0000000000003600 <.LBB52_58>:
    3600:	00761613          	slli	a2,a2,0x7
    3604:	f6043503          	ld	a0,-160(s0)
    3608:	00001737          	lui	a4,0x1
    360c:	40e40733          	sub	a4,s0,a4
    3610:	76073703          	ld	a4,1888(a4) # 1760 <.LBB52_5+0x384>
    3614:	00a70533          	add	a0,a4,a0
    3618:	00001737          	lui	a4,0x1
    361c:	40e40733          	sub	a4,s0,a4
    3620:	76c73023          	sd	a2,1888(a4) # 1760 <.LBB52_5+0x384>
    3624:	00c50533          	add	a0,a0,a2
    3628:	4015873b          	subw	a4,a1,ra
    362c:	40e5053b          	subw	a0,a0,a4
    3630:	40000637          	lui	a2,0x40000
    3634:	00001737          	lui	a4,0x1
    3638:	40e40733          	sub	a4,s0,a4
    363c:	e0a73823          	sd	a0,-496(a4) # e10 <.LBB52_3+0xc28>
    3640:	00055463          	bgez	a0,3648 <.LBB52_60>
    3644:	c0000637          	lui	a2,0xc0000

0000000000003648 <.LBB52_60>:
    3648:	00731713          	slli	a4,t1,0x7
    364c:	f6843503          	ld	a0,-152(s0)
    3650:	00a48533          	add	a0,s1,a0
    3654:	00070313          	mv	t1,a4
    3658:	00e50533          	add	a0,a0,a4
    365c:	4015873b          	subw	a4,a1,ra
    3660:	40e5053b          	subw	a0,a0,a4
    3664:	40000737          	lui	a4,0x40000
    3668:	000017b7          	lui	a5,0x1
    366c:	40f407b3          	sub	a5,s0,a5
    3670:	d8a7bc23          	sd	a0,-616(a5) # d98 <.LBB52_3+0xbb0>
    3674:	00055463          	bgez	a0,367c <.LBB52_62>
    3678:	c0000737          	lui	a4,0xc0000

000000000000367c <.LBB52_62>:
    367c:	00001537          	lui	a0,0x1
    3680:	40a40533          	sub	a0,s0,a0
    3684:	d8e53823          	sd	a4,-624(a0) # d90 <.LBB52_3+0xba8>
    3688:	00729293          	slli	t0,t0,0x7
    368c:	f7043503          	ld	a0,-144(s0)
    3690:	00af8533          	add	a0,t6,a0
    3694:	00028493          	mv	s1,t0
    3698:	00550533          	add	a0,a0,t0
    369c:	4015873b          	subw	a4,a1,ra
    36a0:	40e5053b          	subw	a0,a0,a4
    36a4:	40000737          	lui	a4,0x40000
    36a8:	c8843283          	ld	t0,-888(s0)
    36ac:	000017b7          	lui	a5,0x1
    36b0:	40f407b3          	sub	a5,s0,a5
    36b4:	d2a7b023          	sd	a0,-736(a5) # d20 <.LBB52_3+0xb38>
    36b8:	00055463          	bgez	a0,36c0 <.LBB52_64>
    36bc:	c0000737          	lui	a4,0xc0000

00000000000036c0 <.LBB52_64>:
    36c0:	00001537          	lui	a0,0x1
    36c4:	40a40533          	sub	a0,s0,a0
    36c8:	d0e53c23          	sd	a4,-744(a0) # d18 <.LBB52_3+0xb30>
    36cc:	00001537          	lui	a0,0x1
    36d0:	40a40533          	sub	a0,s0,a0
    36d4:	e6d53c23          	sd	a3,-392(a0) # e78 <.LBB52_4+0x44>
    36d8:	00789893          	slli	a7,a7,0x7
    36dc:	f7843503          	ld	a0,-136(s0)
    36e0:	00ae0533          	add	a0,t3,a0
    36e4:	00088e13          	mv	t3,a7
    36e8:	01150533          	add	a0,a0,a7
    36ec:	4015873b          	subw	a4,a1,ra
    36f0:	40e5053b          	subw	a0,a0,a4
    36f4:	400006b7          	lui	a3,0x40000
    36f8:	00001737          	lui	a4,0x1
    36fc:	40e40733          	sub	a4,s0,a4
    3700:	caa73c23          	sd	a0,-840(a4) # cb8 <.LBB52_3+0xad0>
    3704:	00055463          	bgez	a0,370c <.LBB52_66>
    3708:	c00006b7          	lui	a3,0xc0000

000000000000370c <.LBB52_66>:
    370c:	00001537          	lui	a0,0x1
    3710:	40a40533          	sub	a0,s0,a0
    3714:	cad53823          	sd	a3,-848(a0) # cb0 <.LBB52_3+0xac8>
    3718:	00001537          	lui	a0,0x1
    371c:	40a40533          	sub	a0,s0,a0
    3720:	5b853683          	ld	a3,1464(a0) # 15b8 <.LBB52_5+0x1dc>
    3724:	00769693          	slli	a3,a3,0x7
    3728:	f8043503          	ld	a0,-128(s0)
    372c:	00ae8533          	add	a0,t4,a0
    3730:	00001737          	lui	a4,0x1
    3734:	40e40733          	sub	a4,s0,a4
    3738:	78d73023          	sd	a3,1920(a4) # 1780 <.LBB52_5+0x3a4>
    373c:	00d50533          	add	a0,a0,a3
    3740:	401586bb          	subw	a3,a1,ra
    3744:	40d5053b          	subw	a0,a0,a3
    3748:	40000eb7          	lui	t4,0x40000
    374c:	c8043f83          	ld	t6,-896(s0)
    3750:	97843703          	ld	a4,-1672(s0)
    3754:	000016b7          	lui	a3,0x1
    3758:	40d406b3          	sub	a3,s0,a3
    375c:	c6a6b823          	sd	a0,-912(a3) # c70 <.LBB52_3+0xa88>
    3760:	88043883          	ld	a7,-1920(s0)
    3764:	00055463          	bgez	a0,376c <.LBB52_68>
    3768:	c0000eb7          	lui	t4,0xc0000

000000000000376c <.LBB52_68>:
    376c:	00001537          	lui	a0,0x1
    3770:	40a40533          	sub	a0,s0,a0
    3774:	e0c53423          	sd	a2,-504(a0) # e08 <.LBB52_3+0xc20>
    3778:	00001537          	lui	a0,0x1
    377c:	40a40533          	sub	a0,s0,a0
    3780:	5c853603          	ld	a2,1480(a0) # 15c8 <.LBB52_5+0x1ec>
    3784:	00761613          	slli	a2,a2,0x7
    3788:	f8843503          	ld	a0,-120(s0)
    378c:	00af0533          	add	a0,t5,a0
    3790:	00060f13          	mv	t5,a2
    3794:	00c50533          	add	a0,a0,a2
    3798:	401585bb          	subw	a1,a1,ra
    379c:	40b5053b          	subw	a0,a0,a1
    37a0:	400005b7          	lui	a1,0x40000
    37a4:	88843683          	ld	a3,-1912(s0)
    37a8:	00001637          	lui	a2,0x1
    37ac:	40c40633          	sub	a2,s0,a2
    37b0:	bea63023          	sd	a0,-1056(a2) # be0 <.LBB52_3+0x9f8>
    37b4:	00055463          	bgez	a0,37bc <.LBB52_70>
    37b8:	c00005b7          	lui	a1,0xc0000

00000000000037bc <.LBB52_70>:
    37bc:	f8d43823          	sd	a3,-112(s0)
    37c0:	00001537          	lui	a0,0x1
    37c4:	40a40533          	sub	a0,s0,a0
    37c8:	bcb53c23          	sd	a1,-1064(a0) # bd8 <.LBB52_3+0x9f0>
    37cc:	ea843503          	ld	a0,-344(s0)
    37d0:	000015b7          	lui	a1,0x1
    37d4:	40b405b3          	sub	a1,s0,a1
    37d8:	7905b583          	ld	a1,1936(a1) # 1790 <.LBB52_5+0x3b4>
    37dc:	00a58533          	add	a0,a1,a0
    37e0:	01300593          	li	a1,19
    37e4:	00001637          	lui	a2,0x1
    37e8:	40c40633          	sub	a2,s0,a2
    37ec:	5b063603          	ld	a2,1456(a2) # 15b0 <.LBB52_5+0x1d4>
    37f0:	02b605b3          	mul	a1,a2,a1
    37f4:	01300793          	li	a5,19
    37f8:	ea043603          	ld	a2,-352(s0)
    37fc:	00c50533          	add	a0,a0,a2
    3800:	4015863b          	subw	a2,a1,ra
    3804:	40c5053b          	subw	a0,a0,a2
    3808:	40000637          	lui	a2,0x40000
    380c:	000016b7          	lui	a3,0x1
    3810:	40d406b3          	sub	a3,s0,a3
    3814:	78a6b823          	sd	a0,1936(a3) # 1790 <.LBB52_5+0x3b4>
    3818:	f9043683          	ld	a3,-112(s0)
    381c:	00055463          	bgez	a0,3824 <.LBB52_72>
    3820:	c0000637          	lui	a2,0xc0000

0000000000003824 <.LBB52_72>:
    3824:	f8d43823          	sd	a3,-112(s0)
    3828:	00001537          	lui	a0,0x1
    382c:	40a40533          	sub	a0,s0,a0
    3830:	78c53423          	sd	a2,1928(a0) # 1788 <.LBB52_5+0x3ac>
    3834:	e9843503          	ld	a0,-360(s0)
    3838:	00001637          	lui	a2,0x1
    383c:	40c40633          	sub	a2,s0,a2
    3840:	79863603          	ld	a2,1944(a2) # 1798 <.LBB52_5+0x3bc>
    3844:	00a60533          	add	a0,a2,a0
    3848:	e9043603          	ld	a2,-368(s0)
    384c:	00c50533          	add	a0,a0,a2
    3850:	4015863b          	subw	a2,a1,ra
    3854:	40c5053b          	subw	a0,a0,a2
    3858:	40000637          	lui	a2,0x40000
    385c:	000016b7          	lui	a3,0x1
    3860:	40d406b3          	sub	a3,s0,a3
    3864:	78a6bc23          	sd	a0,1944(a3) # 1798 <.LBB52_5+0x3bc>
    3868:	f9043683          	ld	a3,-112(s0)
    386c:	00055463          	bgez	a0,3874 <.LBB52_74>
    3870:	c0000637          	lui	a2,0xc0000

0000000000003874 <.LBB52_74>:
    3874:	f8d43823          	sd	a3,-112(s0)
    3878:	00001537          	lui	a0,0x1
    387c:	40a40533          	sub	a0,s0,a0
    3880:	76c53c23          	sd	a2,1912(a0) # 1778 <.LBB52_5+0x39c>
    3884:	e8843503          	ld	a0,-376(s0)
    3888:	00001637          	lui	a2,0x1
    388c:	40c40633          	sub	a2,s0,a2
    3890:	7a063603          	ld	a2,1952(a2) # 17a0 <.LBB52_5+0x3c4>
    3894:	00a60533          	add	a0,a2,a0
    3898:	e8043603          	ld	a2,-384(s0)
    389c:	00c50533          	add	a0,a0,a2
    38a0:	4015863b          	subw	a2,a1,ra
    38a4:	40c5053b          	subw	a0,a0,a2
    38a8:	40000637          	lui	a2,0x40000
    38ac:	000016b7          	lui	a3,0x1
    38b0:	40d406b3          	sub	a3,s0,a3
    38b4:	7aa6b023          	sd	a0,1952(a3) # 17a0 <.LBB52_5+0x3c4>
    38b8:	f9043683          	ld	a3,-112(s0)
    38bc:	00055463          	bgez	a0,38c4 <.LBB52_76>
    38c0:	c0000637          	lui	a2,0xc0000

00000000000038c4 <.LBB52_76>:
    38c4:	f8d43823          	sd	a3,-112(s0)
    38c8:	00001537          	lui	a0,0x1
    38cc:	40a40533          	sub	a0,s0,a0
    38d0:	76c53823          	sd	a2,1904(a0) # 1770 <.LBB52_5+0x394>
    38d4:	e7843503          	ld	a0,-392(s0)
    38d8:	00001637          	lui	a2,0x1
    38dc:	40c40633          	sub	a2,s0,a2
    38e0:	7a863603          	ld	a2,1960(a2) # 17a8 <.LBB52_5+0x3cc>
    38e4:	00a60533          	add	a0,a2,a0
    38e8:	e7043603          	ld	a2,-400(s0)
    38ec:	00c50533          	add	a0,a0,a2
    38f0:	4015863b          	subw	a2,a1,ra
    38f4:	40c5053b          	subw	a0,a0,a2
    38f8:	40000637          	lui	a2,0x40000
    38fc:	000016b7          	lui	a3,0x1
    3900:	40d406b3          	sub	a3,s0,a3
    3904:	7aa6b423          	sd	a0,1960(a3) # 17a8 <.LBB52_5+0x3cc>
    3908:	f9043683          	ld	a3,-112(s0)
    390c:	00055463          	bgez	a0,3914 <.LBB52_78>
    3910:	c0000637          	lui	a2,0xc0000

0000000000003914 <.LBB52_78>:
    3914:	f8d43823          	sd	a3,-112(s0)
    3918:	00001537          	lui	a0,0x1
    391c:	40a40533          	sub	a0,s0,a0
    3920:	76c53423          	sd	a2,1896(a0) # 1768 <.LBB52_5+0x38c>
    3924:	e6843503          	ld	a0,-408(s0)
    3928:	00001637          	lui	a2,0x1
    392c:	40c40633          	sub	a2,s0,a2
    3930:	7b063603          	ld	a2,1968(a2) # 17b0 <.LBB52_5+0x3d4>
    3934:	00a60533          	add	a0,a2,a0
    3938:	00001637          	lui	a2,0x1
    393c:	40c40633          	sub	a2,s0,a2
    3940:	6d063603          	ld	a2,1744(a2) # 16d0 <.LBB52_5+0x2f4>
    3944:	00c50533          	add	a0,a0,a2
    3948:	4015863b          	subw	a2,a1,ra
    394c:	40c5053b          	subw	a0,a0,a2
    3950:	40000637          	lui	a2,0x40000
    3954:	000016b7          	lui	a3,0x1
    3958:	40d406b3          	sub	a3,s0,a3
    395c:	7aa6b823          	sd	a0,1968(a3) # 17b0 <.LBB52_5+0x3d4>
    3960:	f9043683          	ld	a3,-112(s0)
    3964:	00055463          	bgez	a0,396c <.LBB52_80>
    3968:	c0000637          	lui	a2,0xc0000

000000000000396c <.LBB52_80>:
    396c:	f8d43823          	sd	a3,-112(s0)
    3970:	00001537          	lui	a0,0x1
    3974:	40a40533          	sub	a0,s0,a0
    3978:	72c53c23          	sd	a2,1848(a0) # 1738 <.LBB52_5+0x35c>
    397c:	00001537          	lui	a0,0x1
    3980:	40a40533          	sub	a0,s0,a0
    3984:	6c853503          	ld	a0,1736(a0) # 16c8 <.LBB52_5+0x2ec>
    3988:	00001637          	lui	a2,0x1
    398c:	40c40633          	sub	a2,s0,a2
    3990:	7b863603          	ld	a2,1976(a2) # 17b8 <.LBB52_5+0x3dc>
    3994:	00a60533          	add	a0,a2,a0
    3998:	00001637          	lui	a2,0x1
    399c:	40c40633          	sub	a2,s0,a2
    39a0:	6c063603          	ld	a2,1728(a2) # 16c0 <.LBB52_5+0x2e4>
    39a4:	00c50533          	add	a0,a0,a2
    39a8:	4015863b          	subw	a2,a1,ra
    39ac:	40c5053b          	subw	a0,a0,a2
    39b0:	40000637          	lui	a2,0x40000
    39b4:	000016b7          	lui	a3,0x1
    39b8:	40d406b3          	sub	a3,s0,a3
    39bc:	7aa6bc23          	sd	a0,1976(a3) # 17b8 <.LBB52_5+0x3dc>
    39c0:	f9043683          	ld	a3,-112(s0)
    39c4:	00055463          	bgez	a0,39cc <.LBB52_82>
    39c8:	c0000637          	lui	a2,0xc0000

00000000000039cc <.LBB52_82>:
    39cc:	f8d43823          	sd	a3,-112(s0)
    39d0:	00001537          	lui	a0,0x1
    39d4:	40a40533          	sub	a0,s0,a0
    39d8:	72c53823          	sd	a2,1840(a0) # 1730 <.LBB52_5+0x354>
    39dc:	00001537          	lui	a0,0x1
    39e0:	40a40533          	sub	a0,s0,a0
    39e4:	6b853503          	ld	a0,1720(a0) # 16b8 <.LBB52_5+0x2dc>
    39e8:	00001637          	lui	a2,0x1
    39ec:	40c40633          	sub	a2,s0,a2
    39f0:	7c063603          	ld	a2,1984(a2) # 17c0 <.LBB52_5+0x3e4>
    39f4:	00a60533          	add	a0,a2,a0
    39f8:	00001637          	lui	a2,0x1
    39fc:	40c40633          	sub	a2,s0,a2
    3a00:	6b063603          	ld	a2,1712(a2) # 16b0 <.LBB52_5+0x2d4>
    3a04:	00c50533          	add	a0,a0,a2
    3a08:	4015863b          	subw	a2,a1,ra
    3a0c:	40c5053b          	subw	a0,a0,a2
    3a10:	40000637          	lui	a2,0x40000
    3a14:	000016b7          	lui	a3,0x1
    3a18:	40d406b3          	sub	a3,s0,a3
    3a1c:	70a6bc23          	sd	a0,1816(a3) # 1718 <.LBB52_5+0x33c>
    3a20:	f9043683          	ld	a3,-112(s0)
    3a24:	00055463          	bgez	a0,3a2c <.LBB52_84>
    3a28:	c0000637          	lui	a2,0xc0000

0000000000003a2c <.LBB52_84>:
    3a2c:	f8d43823          	sd	a3,-112(s0)
    3a30:	00001537          	lui	a0,0x1
    3a34:	40a40533          	sub	a0,s0,a0
    3a38:	70c53823          	sd	a2,1808(a0) # 1710 <.LBB52_5+0x334>
    3a3c:	00001537          	lui	a0,0x1
    3a40:	40a40533          	sub	a0,s0,a0
    3a44:	6a853503          	ld	a0,1704(a0) # 16a8 <.LBB52_5+0x2cc>
    3a48:	00001637          	lui	a2,0x1
    3a4c:	40c40633          	sub	a2,s0,a2
    3a50:	7c863603          	ld	a2,1992(a2) # 17c8 <.LBB52_5+0x3ec>
    3a54:	00a60533          	add	a0,a2,a0
    3a58:	00001637          	lui	a2,0x1
    3a5c:	40c40633          	sub	a2,s0,a2
    3a60:	6a063603          	ld	a2,1696(a2) # 16a0 <.LBB52_5+0x2c4>
    3a64:	00c50533          	add	a0,a0,a2
    3a68:	4015863b          	subw	a2,a1,ra
    3a6c:	40c5053b          	subw	a0,a0,a2
    3a70:	40000637          	lui	a2,0x40000
    3a74:	000016b7          	lui	a3,0x1
    3a78:	40d406b3          	sub	a3,s0,a3
    3a7c:	5ca6b423          	sd	a0,1480(a3) # 15c8 <.LBB52_5+0x1ec>
    3a80:	f9043683          	ld	a3,-112(s0)
    3a84:	00055463          	bgez	a0,3a8c <.LBB52_86>
    3a88:	c0000637          	lui	a2,0xc0000

0000000000003a8c <.LBB52_86>:
    3a8c:	f8d43823          	sd	a3,-112(s0)
    3a90:	00001537          	lui	a0,0x1
    3a94:	40a40533          	sub	a0,s0,a0
    3a98:	5ac53c23          	sd	a2,1464(a0) # 15b8 <.LBB52_5+0x1dc>
    3a9c:	00001537          	lui	a0,0x1
    3aa0:	40a40533          	sub	a0,s0,a0
    3aa4:	69853503          	ld	a0,1688(a0) # 1698 <.LBB52_5+0x2bc>
    3aa8:	00001637          	lui	a2,0x1
    3aac:	40c40633          	sub	a2,s0,a2
    3ab0:	7d063603          	ld	a2,2000(a2) # 17d0 <.LBB52_5+0x3f4>
    3ab4:	00a60533          	add	a0,a2,a0
    3ab8:	00001637          	lui	a2,0x1
    3abc:	40c40633          	sub	a2,s0,a2
    3ac0:	69063603          	ld	a2,1680(a2) # 1690 <.LBB52_5+0x2b4>
    3ac4:	00c50533          	add	a0,a0,a2
    3ac8:	4015863b          	subw	a2,a1,ra
    3acc:	40c5053b          	subw	a0,a0,a2
    3ad0:	40000637          	lui	a2,0x40000
    3ad4:	000016b7          	lui	a3,0x1
    3ad8:	40d406b3          	sub	a3,s0,a3
    3adc:	58a6b423          	sd	a0,1416(a3) # 1588 <.LBB52_5+0x1ac>
    3ae0:	f9043683          	ld	a3,-112(s0)
    3ae4:	00055463          	bgez	a0,3aec <.LBB52_88>
    3ae8:	c0000637          	lui	a2,0xc0000

0000000000003aec <.LBB52_88>:
    3aec:	f8d43823          	sd	a3,-112(s0)
    3af0:	00001537          	lui	a0,0x1
    3af4:	40a40533          	sub	a0,s0,a0
    3af8:	56c53c23          	sd	a2,1400(a0) # 1578 <.LBB52_5+0x19c>
    3afc:	00001537          	lui	a0,0x1
    3b00:	40a40533          	sub	a0,s0,a0
    3b04:	68853503          	ld	a0,1672(a0) # 1688 <.LBB52_5+0x2ac>
    3b08:	00001637          	lui	a2,0x1
    3b0c:	40c40633          	sub	a2,s0,a2
    3b10:	7d863603          	ld	a2,2008(a2) # 17d8 <.LBB52_5+0x3fc>
    3b14:	00a60533          	add	a0,a2,a0
    3b18:	00001637          	lui	a2,0x1
    3b1c:	40c40633          	sub	a2,s0,a2
    3b20:	6d863603          	ld	a2,1752(a2) # 16d8 <.LBB52_5+0x2fc>
    3b24:	00c50533          	add	a0,a0,a2
    3b28:	4015863b          	subw	a2,a1,ra
    3b2c:	40c5053b          	subw	a0,a0,a2
    3b30:	40000637          	lui	a2,0x40000
    3b34:	000016b7          	lui	a3,0x1
    3b38:	40d406b3          	sub	a3,s0,a3
    3b3c:	52a6b823          	sd	a0,1328(a3) # 1530 <.LBB52_5+0x154>
    3b40:	f9043683          	ld	a3,-112(s0)
    3b44:	00055463          	bgez	a0,3b4c <.LBB52_90>
    3b48:	c0000637          	lui	a2,0xc0000

0000000000003b4c <.LBB52_90>:
    3b4c:	f8d43823          	sd	a3,-112(s0)
    3b50:	00001537          	lui	a0,0x1
    3b54:	40a40533          	sub	a0,s0,a0
    3b58:	52c53023          	sd	a2,1312(a0) # 1520 <.LBB52_5+0x144>
    3b5c:	eb043503          	ld	a0,-336(s0)
    3b60:	00001637          	lui	a2,0x1
    3b64:	40c40633          	sub	a2,s0,a2
    3b68:	7e063603          	ld	a2,2016(a2) # 17e0 <.LBB52_5+0x404>
    3b6c:	00a60533          	add	a0,a2,a0
    3b70:	00001637          	lui	a2,0x1
    3b74:	40c40633          	sub	a2,s0,a2
    3b78:	6e063603          	ld	a2,1760(a2) # 16e0 <.LBB52_5+0x304>
    3b7c:	00c50533          	add	a0,a0,a2
    3b80:	4015863b          	subw	a2,a1,ra
    3b84:	40c5053b          	subw	a0,a0,a2
    3b88:	40000637          	lui	a2,0x40000
    3b8c:	000016b7          	lui	a3,0x1
    3b90:	40d406b3          	sub	a3,s0,a3
    3b94:	4ca6bc23          	sd	a0,1240(a3) # 14d8 <.LBB52_5+0xfc>
    3b98:	f9043683          	ld	a3,-112(s0)
    3b9c:	00055463          	bgez	a0,3ba4 <.LBB52_92>
    3ba0:	c0000637          	lui	a2,0xc0000

0000000000003ba4 <.LBB52_92>:
    3ba4:	f8d43823          	sd	a3,-112(s0)
    3ba8:	00001537          	lui	a0,0x1
    3bac:	40a40533          	sub	a0,s0,a0
    3bb0:	4cc53023          	sd	a2,1216(a0) # 14c0 <.LBB52_5+0xe4>
    3bb4:	eb843503          	ld	a0,-328(s0)
    3bb8:	00001637          	lui	a2,0x1
    3bbc:	40c40633          	sub	a2,s0,a2
    3bc0:	7e863603          	ld	a2,2024(a2) # 17e8 <.LBB52_5+0x40c>
    3bc4:	00a60533          	add	a0,a2,a0
    3bc8:	00001637          	lui	a2,0x1
    3bcc:	40c40633          	sub	a2,s0,a2
    3bd0:	6e863603          	ld	a2,1768(a2) # 16e8 <.LBB52_5+0x30c>
    3bd4:	00c50533          	add	a0,a0,a2
    3bd8:	4015863b          	subw	a2,a1,ra
    3bdc:	40c5053b          	subw	a0,a0,a2
    3be0:	40000637          	lui	a2,0x40000
    3be4:	000016b7          	lui	a3,0x1
    3be8:	40d406b3          	sub	a3,s0,a3
    3bec:	48a6b023          	sd	a0,1152(a3) # 1480 <.LBB52_5+0xa4>
    3bf0:	f9043683          	ld	a3,-112(s0)
    3bf4:	00055463          	bgez	a0,3bfc <.LBB52_94>
    3bf8:	c0000637          	lui	a2,0xc0000

0000000000003bfc <.LBB52_94>:
    3bfc:	f8d43823          	sd	a3,-112(s0)
    3c00:	00001537          	lui	a0,0x1
    3c04:	40a40533          	sub	a0,s0,a0
    3c08:	46c53423          	sd	a2,1128(a0) # 1468 <.LBB52_5+0x8c>
    3c0c:	ec043503          	ld	a0,-320(s0)
    3c10:	00001637          	lui	a2,0x1
    3c14:	40c40633          	sub	a2,s0,a2
    3c18:	7f063603          	ld	a2,2032(a2) # 17f0 <.LBB52_5+0x414>
    3c1c:	00a60533          	add	a0,a2,a0
    3c20:	01b50533          	add	a0,a0,s11
    3c24:	4015863b          	subw	a2,a1,ra
    3c28:	40c5053b          	subw	a0,a0,a2
    3c2c:	40000637          	lui	a2,0x40000
    3c30:	000016b7          	lui	a3,0x1
    3c34:	40d406b3          	sub	a3,s0,a3
    3c38:	42a6b823          	sd	a0,1072(a3) # 1430 <.LBB52_5+0x54>
    3c3c:	f9043683          	ld	a3,-112(s0)
    3c40:	00055463          	bgez	a0,3c48 <.LBB52_96>
    3c44:	c0000637          	lui	a2,0xc0000

0000000000003c48 <.LBB52_96>:
    3c48:	f8d43823          	sd	a3,-112(s0)
    3c4c:	00001537          	lui	a0,0x1
    3c50:	40a40533          	sub	a0,s0,a0
    3c54:	40c53c23          	sd	a2,1048(a0) # 1418 <.LBB52_5+0x3c>
    3c58:	ec843503          	ld	a0,-312(s0)
    3c5c:	00001637          	lui	a2,0x1
    3c60:	40c40633          	sub	a2,s0,a2
    3c64:	7f863603          	ld	a2,2040(a2) # 17f8 <.LBB52_5+0x41c>
    3c68:	00a60533          	add	a0,a2,a0
    3c6c:	01a50533          	add	a0,a0,s10
    3c70:	4015863b          	subw	a2,a1,ra
    3c74:	40c5053b          	subw	a0,a0,a2
    3c78:	40000637          	lui	a2,0x40000
    3c7c:	000016b7          	lui	a3,0x1
    3c80:	40d406b3          	sub	a3,s0,a3
    3c84:	3ca6bc23          	sd	a0,984(a3) # 13d8 <.LBB52_4+0x5a4>
    3c88:	f9043683          	ld	a3,-112(s0)
    3c8c:	00055463          	bgez	a0,3c94 <.LBB52_98>
    3c90:	c0000637          	lui	a2,0xc0000

0000000000003c94 <.LBB52_98>:
    3c94:	f8d43823          	sd	a3,-112(s0)
    3c98:	00001537          	lui	a0,0x1
    3c9c:	40a40533          	sub	a0,s0,a0
    3ca0:	3cc53423          	sd	a2,968(a0) # 13c8 <.LBB52_4+0x594>
    3ca4:	ed043503          	ld	a0,-304(s0)
    3ca8:	80043603          	ld	a2,-2048(s0)
    3cac:	00a60533          	add	a0,a2,a0
    3cb0:	01950533          	add	a0,a0,s9
    3cb4:	4015863b          	subw	a2,a1,ra
    3cb8:	40c5053b          	subw	a0,a0,a2
    3cbc:	40000637          	lui	a2,0x40000
    3cc0:	000016b7          	lui	a3,0x1
    3cc4:	40d406b3          	sub	a3,s0,a3
    3cc8:	36a6b823          	sd	a0,880(a3) # 1370 <.LBB52_4+0x53c>
    3ccc:	f9043683          	ld	a3,-112(s0)
    3cd0:	00055463          	bgez	a0,3cd8 <.LBB52_100>
    3cd4:	c0000637          	lui	a2,0xc0000

0000000000003cd8 <.LBB52_100>:
    3cd8:	f8d43823          	sd	a3,-112(s0)
    3cdc:	00001537          	lui	a0,0x1
    3ce0:	40a40533          	sub	a0,s0,a0
    3ce4:	36c53023          	sd	a2,864(a0) # 1360 <.LBB52_4+0x52c>
    3ce8:	ed843503          	ld	a0,-296(s0)
    3cec:	80843603          	ld	a2,-2040(s0)
    3cf0:	00a60533          	add	a0,a2,a0
    3cf4:	01850533          	add	a0,a0,s8
    3cf8:	4015863b          	subw	a2,a1,ra
    3cfc:	40c5053b          	subw	a0,a0,a2
    3d00:	40000637          	lui	a2,0x40000
    3d04:	000016b7          	lui	a3,0x1
    3d08:	40d406b3          	sub	a3,s0,a3
    3d0c:	30a6b423          	sd	a0,776(a3) # 1308 <.LBB52_4+0x4d4>
    3d10:	f9043683          	ld	a3,-112(s0)
    3d14:	00055463          	bgez	a0,3d1c <.LBB52_102>
    3d18:	c0000637          	lui	a2,0xc0000

0000000000003d1c <.LBB52_102>:
    3d1c:	f8d43823          	sd	a3,-112(s0)
    3d20:	00001537          	lui	a0,0x1
    3d24:	40a40533          	sub	a0,s0,a0
    3d28:	2ec53c23          	sd	a2,760(a0) # 12f8 <.LBB52_4+0x4c4>
    3d2c:	ee043503          	ld	a0,-288(s0)
    3d30:	81043603          	ld	a2,-2032(s0)
    3d34:	00a60533          	add	a0,a2,a0
    3d38:	01750533          	add	a0,a0,s7
    3d3c:	4015863b          	subw	a2,a1,ra
    3d40:	40c5053b          	subw	a0,a0,a2
    3d44:	40000637          	lui	a2,0x40000
    3d48:	000016b7          	lui	a3,0x1
    3d4c:	40d406b3          	sub	a3,s0,a3
    3d50:	2aa6b023          	sd	a0,672(a3) # 12a0 <.LBB52_4+0x46c>
    3d54:	f9043683          	ld	a3,-112(s0)
    3d58:	00055463          	bgez	a0,3d60 <.LBB52_104>
    3d5c:	c0000637          	lui	a2,0xc0000

0000000000003d60 <.LBB52_104>:
    3d60:	f8d43823          	sd	a3,-112(s0)
    3d64:	00001537          	lui	a0,0x1
    3d68:	40a40533          	sub	a0,s0,a0
    3d6c:	28c53823          	sd	a2,656(a0) # 1290 <.LBB52_4+0x45c>
    3d70:	ee843503          	ld	a0,-280(s0)
    3d74:	81843603          	ld	a2,-2024(s0)
    3d78:	00a60533          	add	a0,a2,a0
    3d7c:	01650533          	add	a0,a0,s6
    3d80:	4015863b          	subw	a2,a1,ra
    3d84:	40c5053b          	subw	a0,a0,a2
    3d88:	40000637          	lui	a2,0x40000
    3d8c:	000016b7          	lui	a3,0x1
    3d90:	40d406b3          	sub	a3,s0,a3
    3d94:	22a6b423          	sd	a0,552(a3) # 1228 <.LBB52_4+0x3f4>
    3d98:	f9043683          	ld	a3,-112(s0)
    3d9c:	00055463          	bgez	a0,3da4 <.LBB52_106>
    3da0:	c0000637          	lui	a2,0xc0000

0000000000003da4 <.LBB52_106>:
    3da4:	f8d43823          	sd	a3,-112(s0)
    3da8:	00001537          	lui	a0,0x1
    3dac:	40a40533          	sub	a0,s0,a0
    3db0:	20c53c23          	sd	a2,536(a0) # 1218 <.LBB52_4+0x3e4>
    3db4:	ef043503          	ld	a0,-272(s0)
    3db8:	82043603          	ld	a2,-2016(s0)
    3dbc:	00a60533          	add	a0,a2,a0
    3dc0:	01550533          	add	a0,a0,s5
    3dc4:	4015863b          	subw	a2,a1,ra
    3dc8:	40c5053b          	subw	a0,a0,a2
    3dcc:	40000637          	lui	a2,0x40000
    3dd0:	000016b7          	lui	a3,0x1
    3dd4:	40d406b3          	sub	a3,s0,a3
    3dd8:	1aa6b823          	sd	a0,432(a3) # 11b0 <.LBB52_4+0x37c>
    3ddc:	f9043683          	ld	a3,-112(s0)
    3de0:	00055463          	bgez	a0,3de8 <.LBB52_108>
    3de4:	c0000637          	lui	a2,0xc0000

0000000000003de8 <.LBB52_108>:
    3de8:	f8d43823          	sd	a3,-112(s0)
    3dec:	00001537          	lui	a0,0x1
    3df0:	40a40533          	sub	a0,s0,a0
    3df4:	1ac53023          	sd	a2,416(a0) # 11a0 <.LBB52_4+0x36c>
    3df8:	ef843503          	ld	a0,-264(s0)
    3dfc:	82843603          	ld	a2,-2008(s0)
    3e00:	00a60533          	add	a0,a2,a0
    3e04:	01450533          	add	a0,a0,s4
    3e08:	4015863b          	subw	a2,a1,ra
    3e0c:	40c5053b          	subw	a0,a0,a2
    3e10:	40000637          	lui	a2,0x40000
    3e14:	000016b7          	lui	a3,0x1
    3e18:	40d406b3          	sub	a3,s0,a3
    3e1c:	12a6bc23          	sd	a0,312(a3) # 1138 <.LBB52_4+0x304>
    3e20:	f9043683          	ld	a3,-112(s0)
    3e24:	00055463          	bgez	a0,3e2c <.LBB52_110>
    3e28:	c0000637          	lui	a2,0xc0000

0000000000003e2c <.LBB52_110>:
    3e2c:	f8d43823          	sd	a3,-112(s0)
    3e30:	00001537          	lui	a0,0x1
    3e34:	40a40533          	sub	a0,s0,a0
    3e38:	12c53423          	sd	a2,296(a0) # 1128 <.LBB52_4+0x2f4>
    3e3c:	f0043503          	ld	a0,-256(s0)
    3e40:	83043603          	ld	a2,-2000(s0)
    3e44:	00a60533          	add	a0,a2,a0
    3e48:	01350533          	add	a0,a0,s3
    3e4c:	4015863b          	subw	a2,a1,ra
    3e50:	40c5053b          	subw	a0,a0,a2
    3e54:	40000637          	lui	a2,0x40000
    3e58:	000016b7          	lui	a3,0x1
    3e5c:	40d406b3          	sub	a3,s0,a3
    3e60:	0ca6b023          	sd	a0,192(a3) # 10c0 <.LBB52_4+0x28c>
    3e64:	f9043683          	ld	a3,-112(s0)
    3e68:	00055463          	bgez	a0,3e70 <.LBB52_112>
    3e6c:	c0000637          	lui	a2,0xc0000

0000000000003e70 <.LBB52_112>:
    3e70:	f8d43823          	sd	a3,-112(s0)
    3e74:	00001537          	lui	a0,0x1
    3e78:	40a40533          	sub	a0,s0,a0
    3e7c:	0ac53823          	sd	a2,176(a0) # 10b0 <.LBB52_4+0x27c>
    3e80:	f3843503          	ld	a0,-200(s0)
    3e84:	83843603          	ld	a2,-1992(s0)
    3e88:	00a60533          	add	a0,a2,a0
    3e8c:	01250533          	add	a0,a0,s2
    3e90:	4015863b          	subw	a2,a1,ra
    3e94:	40c5053b          	subw	a0,a0,a2
    3e98:	40000637          	lui	a2,0x40000
    3e9c:	000016b7          	lui	a3,0x1
    3ea0:	40d406b3          	sub	a3,s0,a3
    3ea4:	04a6b423          	sd	a0,72(a3) # 1048 <.LBB52_4+0x214>
    3ea8:	f9043683          	ld	a3,-112(s0)
    3eac:	00055463          	bgez	a0,3eb4 <.LBB52_114>
    3eb0:	c0000637          	lui	a2,0xc0000

0000000000003eb4 <.LBB52_114>:
    3eb4:	f8d43823          	sd	a3,-112(s0)
    3eb8:	00001537          	lui	a0,0x1
    3ebc:	40a40533          	sub	a0,s0,a0
    3ec0:	02c53c23          	sd	a2,56(a0) # 1038 <.LBB52_4+0x204>
    3ec4:	f4043503          	ld	a0,-192(s0)
    3ec8:	84043603          	ld	a2,-1984(s0)
    3ecc:	00a60533          	add	a0,a2,a0
    3ed0:	00001637          	lui	a2,0x1
    3ed4:	40c40633          	sub	a2,s0,a2
    3ed8:	74063603          	ld	a2,1856(a2) # 1740 <.LBB52_5+0x364>
    3edc:	00c50533          	add	a0,a0,a2
    3ee0:	4015863b          	subw	a2,a1,ra
    3ee4:	40c5053b          	subw	a0,a0,a2
    3ee8:	40000637          	lui	a2,0x40000
    3eec:	000016b7          	lui	a3,0x1
    3ef0:	40d406b3          	sub	a3,s0,a3
    3ef4:	fca6b823          	sd	a0,-48(a3) # fd0 <.LBB52_4+0x19c>
    3ef8:	f9043683          	ld	a3,-112(s0)
    3efc:	00055463          	bgez	a0,3f04 <.LBB52_116>
    3f00:	c0000637          	lui	a2,0xc0000

0000000000003f04 <.LBB52_116>:
    3f04:	f8d43823          	sd	a3,-112(s0)
    3f08:	00001537          	lui	a0,0x1
    3f0c:	40a40533          	sub	a0,s0,a0
    3f10:	fcc53023          	sd	a2,-64(a0) # fc0 <.LBB52_4+0x18c>
    3f14:	f4843503          	ld	a0,-184(s0)
    3f18:	84843603          	ld	a2,-1976(s0)
    3f1c:	00a60533          	add	a0,a2,a0
    3f20:	00001637          	lui	a2,0x1
    3f24:	40c40633          	sub	a2,s0,a2
    3f28:	74863603          	ld	a2,1864(a2) # 1748 <.LBB52_5+0x36c>
    3f2c:	00c50533          	add	a0,a0,a2
    3f30:	4015863b          	subw	a2,a1,ra
    3f34:	40c5053b          	subw	a0,a0,a2
    3f38:	40000637          	lui	a2,0x40000
    3f3c:	000016b7          	lui	a3,0x1
    3f40:	40d406b3          	sub	a3,s0,a3
    3f44:	f4a6bc23          	sd	a0,-168(a3) # f58 <.LBB52_4+0x124>
    3f48:	f9043683          	ld	a3,-112(s0)
    3f4c:	00055463          	bgez	a0,3f54 <.LBB52_118>
    3f50:	c0000637          	lui	a2,0xc0000

0000000000003f54 <.LBB52_118>:
    3f54:	f8d43823          	sd	a3,-112(s0)
    3f58:	00001537          	lui	a0,0x1
    3f5c:	40a40533          	sub	a0,s0,a0
    3f60:	f4c53423          	sd	a2,-184(a0) # f48 <.LBB52_4+0x114>
    3f64:	f5043503          	ld	a0,-176(s0)
    3f68:	85043603          	ld	a2,-1968(s0)
    3f6c:	00a60533          	add	a0,a2,a0
    3f70:	00001637          	lui	a2,0x1
    3f74:	40c40633          	sub	a2,s0,a2
    3f78:	75063603          	ld	a2,1872(a2) # 1750 <.LBB52_5+0x374>
    3f7c:	00c50533          	add	a0,a0,a2
    3f80:	4015863b          	subw	a2,a1,ra
    3f84:	40c5053b          	subw	a0,a0,a2
    3f88:	40000637          	lui	a2,0x40000
    3f8c:	000016b7          	lui	a3,0x1
    3f90:	40d406b3          	sub	a3,s0,a3
    3f94:	eea6b423          	sd	a0,-280(a3) # ee8 <.LBB52_4+0xb4>
    3f98:	f9043683          	ld	a3,-112(s0)
    3f9c:	00055463          	bgez	a0,3fa4 <.LBB52_120>
    3fa0:	c0000637          	lui	a2,0xc0000

0000000000003fa4 <.LBB52_120>:
    3fa4:	f8d43823          	sd	a3,-112(s0)
    3fa8:	00001537          	lui	a0,0x1
    3fac:	40a40533          	sub	a0,s0,a0
    3fb0:	ecc53c23          	sd	a2,-296(a0) # ed8 <.LBB52_4+0xa4>
    3fb4:	f5843503          	ld	a0,-168(s0)
    3fb8:	85843603          	ld	a2,-1960(s0)
    3fbc:	00a60533          	add	a0,a2,a0
    3fc0:	00001637          	lui	a2,0x1
    3fc4:	40c40633          	sub	a2,s0,a2
    3fc8:	75863603          	ld	a2,1880(a2) # 1758 <.LBB52_5+0x37c>
    3fcc:	00c50533          	add	a0,a0,a2
    3fd0:	4015863b          	subw	a2,a1,ra
    3fd4:	40c5053b          	subw	a0,a0,a2
    3fd8:	40000637          	lui	a2,0x40000
    3fdc:	000016b7          	lui	a3,0x1
    3fe0:	40d406b3          	sub	a3,s0,a3
    3fe4:	e6a6b823          	sd	a0,-400(a3) # e70 <.LBB52_4+0x3c>
    3fe8:	f9043683          	ld	a3,-112(s0)
    3fec:	00055463          	bgez	a0,3ff4 <.LBB52_122>
    3ff0:	c0000637          	lui	a2,0xc0000

0000000000003ff4 <.LBB52_122>:
    3ff4:	f8d43823          	sd	a3,-112(s0)
    3ff8:	00001537          	lui	a0,0x1
    3ffc:	40a40533          	sub	a0,s0,a0
    4000:	e6c53023          	sd	a2,-416(a0) # e60 <.LBB52_4+0x2c>
    4004:	f6043503          	ld	a0,-160(s0)
    4008:	86043603          	ld	a2,-1952(s0)
    400c:	00a60533          	add	a0,a2,a0
    4010:	00001637          	lui	a2,0x1
    4014:	40c40633          	sub	a2,s0,a2
    4018:	76063603          	ld	a2,1888(a2) # 1760 <.LBB52_5+0x384>
    401c:	00c50533          	add	a0,a0,a2
    4020:	4015863b          	subw	a2,a1,ra
    4024:	40c5053b          	subw	a0,a0,a2
    4028:	40000637          	lui	a2,0x40000
    402c:	000016b7          	lui	a3,0x1
    4030:	40d406b3          	sub	a3,s0,a3
    4034:	e0a6b023          	sd	a0,-512(a3) # e00 <.LBB52_3+0xc18>
    4038:	f9043683          	ld	a3,-112(s0)
    403c:	00055463          	bgez	a0,4044 <.LBB52_124>
    4040:	c0000637          	lui	a2,0xc0000

0000000000004044 <.LBB52_124>:
    4044:	f8d43823          	sd	a3,-112(s0)
    4048:	00001537          	lui	a0,0x1
    404c:	40a40533          	sub	a0,s0,a0
    4050:	dec53823          	sd	a2,-528(a0) # df0 <.LBB52_3+0xc08>
    4054:	f6843503          	ld	a0,-152(s0)
    4058:	86843603          	ld	a2,-1944(s0)
    405c:	00a60533          	add	a0,a2,a0
    4060:	00650533          	add	a0,a0,t1
    4064:	4015863b          	subw	a2,a1,ra
    4068:	40c5053b          	subw	a0,a0,a2
    406c:	40000637          	lui	a2,0x40000
    4070:	000016b7          	lui	a3,0x1
    4074:	40d406b3          	sub	a3,s0,a3
    4078:	d8a6b423          	sd	a0,-632(a3) # d88 <.LBB52_3+0xba0>
    407c:	f9043683          	ld	a3,-112(s0)
    4080:	00055463          	bgez	a0,4088 <.LBB52_126>
    4084:	c0000637          	lui	a2,0xc0000

0000000000004088 <.LBB52_126>:
    4088:	f8d43823          	sd	a3,-112(s0)
    408c:	00001537          	lui	a0,0x1
    4090:	40a40533          	sub	a0,s0,a0
    4094:	d6c53c23          	sd	a2,-648(a0) # d78 <.LBB52_3+0xb90>
    4098:	f7043503          	ld	a0,-144(s0)
    409c:	87043603          	ld	a2,-1936(s0)
    40a0:	00a60533          	add	a0,a2,a0
    40a4:	00950533          	add	a0,a0,s1
    40a8:	4015863b          	subw	a2,a1,ra
    40ac:	40c5053b          	subw	a0,a0,a2
    40b0:	40000637          	lui	a2,0x40000
    40b4:	000016b7          	lui	a3,0x1
    40b8:	40d406b3          	sub	a3,s0,a3
    40bc:	d0a6b823          	sd	a0,-752(a3) # d10 <.LBB52_3+0xb28>
    40c0:	f9043683          	ld	a3,-112(s0)
    40c4:	00055463          	bgez	a0,40cc <.LBB52_128>
    40c8:	c0000637          	lui	a2,0xc0000

00000000000040cc <.LBB52_128>:
    40cc:	f8d43823          	sd	a3,-112(s0)
    40d0:	00001537          	lui	a0,0x1
    40d4:	40a40533          	sub	a0,s0,a0
    40d8:	d0c53023          	sd	a2,-768(a0) # d00 <.LBB52_3+0xb18>
    40dc:	f7843503          	ld	a0,-136(s0)
    40e0:	87843603          	ld	a2,-1928(s0)
    40e4:	00a60533          	add	a0,a2,a0
    40e8:	01c50533          	add	a0,a0,t3
    40ec:	4015863b          	subw	a2,a1,ra
    40f0:	40c5053b          	subw	a0,a0,a2
    40f4:	40000637          	lui	a2,0x40000
    40f8:	000016b7          	lui	a3,0x1
    40fc:	40d406b3          	sub	a3,s0,a3
    4100:	caa6b423          	sd	a0,-856(a3) # ca8 <.LBB52_3+0xac0>
    4104:	f9043683          	ld	a3,-112(s0)
    4108:	00055463          	bgez	a0,4110 <.LBB52_130>
    410c:	c0000637          	lui	a2,0xc0000

0000000000004110 <.LBB52_130>:
    4110:	f8d43823          	sd	a3,-112(s0)
    4114:	00001537          	lui	a0,0x1
    4118:	40a40533          	sub	a0,s0,a0
    411c:	cac53023          	sd	a2,-864(a0) # ca0 <.LBB52_3+0xab8>
    4120:	f8043503          	ld	a0,-128(s0)
    4124:	00a88533          	add	a0,a7,a0
    4128:	00001637          	lui	a2,0x1
    412c:	40c40633          	sub	a2,s0,a2
    4130:	78063883          	ld	a7,1920(a2) # 1780 <.LBB52_5+0x3a4>
    4134:	01150533          	add	a0,a0,a7
    4138:	4015863b          	subw	a2,a1,ra
    413c:	40c5053b          	subw	a0,a0,a2
    4140:	40000637          	lui	a2,0x40000
    4144:	000016b7          	lui	a3,0x1
    4148:	40d406b3          	sub	a3,s0,a3
    414c:	c6a6b423          	sd	a0,-920(a3) # c68 <.LBB52_3+0xa80>
    4150:	f9043683          	ld	a3,-112(s0)
    4154:	00055463          	bgez	a0,415c <.LBB52_132>
    4158:	c0000637          	lui	a2,0xc0000

000000000000415c <.LBB52_132>:
    415c:	00001537          	lui	a0,0x1
    4160:	40a40533          	sub	a0,s0,a0
    4164:	c6c53023          	sd	a2,-928(a0) # c60 <.LBB52_3+0xa78>
    4168:	f8843503          	ld	a0,-120(s0)
    416c:	00a68533          	add	a0,a3,a0
    4170:	01e50533          	add	a0,a0,t5
    4174:	401585bb          	subw	a1,a1,ra
    4178:	40b506bb          	subw	a3,a0,a1
    417c:	40000537          	lui	a0,0x40000
    4180:	0006d463          	bgez	a3,4188 <.LBB52_134>
    4184:	c0000537          	lui	a0,0xc0000

0000000000004188 <.LBB52_134>:
    4188:	000015b7          	lui	a1,0x1
    418c:	40b405b3          	sub	a1,s0,a1
    4190:	bca5b823          	sd	a0,-1072(a1) # bd0 <.LBB52_3+0x9e8>
    4194:	ea843583          	ld	a1,-344(s0)
    4198:	89043503          	ld	a0,-1904(s0)
    419c:	00b505b3          	add	a1,a0,a1
    41a0:	00001537          	lui	a0,0x1
    41a4:	40a40533          	sub	a0,s0,a0
    41a8:	5c053503          	ld	a0,1472(a0) # 15c0 <.LBB52_5+0x1e4>
    41ac:	02f50533          	mul	a0,a0,a5
    41b0:	ea043603          	ld	a2,-352(s0)
    41b4:	00c585b3          	add	a1,a1,a2
    41b8:	4015063b          	subw	a2,a0,ra
    41bc:	40c585bb          	subw	a1,a1,a2
    41c0:	40000637          	lui	a2,0x40000
    41c4:	88b43823          	sd	a1,-1904(s0)
    41c8:	0005d463          	bgez	a1,41d0 <.LBB52_136>
    41cc:	c0000637          	lui	a2,0xc0000

00000000000041d0 <.LBB52_136>:
    41d0:	88c43423          	sd	a2,-1912(s0)
    41d4:	e9843583          	ld	a1,-360(s0)
    41d8:	89843603          	ld	a2,-1896(s0)
    41dc:	00b605b3          	add	a1,a2,a1
    41e0:	e9043603          	ld	a2,-368(s0)
    41e4:	00c585b3          	add	a1,a1,a2
    41e8:	4015063b          	subw	a2,a0,ra
    41ec:	40c585bb          	subw	a1,a1,a2
    41f0:	40000637          	lui	a2,0x40000
    41f4:	88b43c23          	sd	a1,-1896(s0)
    41f8:	0005d463          	bgez	a1,4200 <.LBB52_138>
    41fc:	c0000637          	lui	a2,0xc0000

0000000000004200 <.LBB52_138>:
    4200:	88c43023          	sd	a2,-1920(s0)
    4204:	e8843583          	ld	a1,-376(s0)
    4208:	8a043603          	ld	a2,-1888(s0)
    420c:	00b605b3          	add	a1,a2,a1
    4210:	e8043603          	ld	a2,-384(s0)
    4214:	00c585b3          	add	a1,a1,a2
    4218:	4015063b          	subw	a2,a0,ra
    421c:	40c585bb          	subw	a1,a1,a2
    4220:	40000637          	lui	a2,0x40000
    4224:	8ab43023          	sd	a1,-1888(s0)
    4228:	0005d463          	bgez	a1,4230 <.LBB52_140>
    422c:	c0000637          	lui	a2,0xc0000

0000000000004230 <.LBB52_140>:
    4230:	86c43c23          	sd	a2,-1928(s0)
    4234:	e7843583          	ld	a1,-392(s0)
    4238:	8a843603          	ld	a2,-1880(s0)
    423c:	00b605b3          	add	a1,a2,a1
    4240:	e7043603          	ld	a2,-400(s0)
    4244:	00c585b3          	add	a1,a1,a2
    4248:	4015063b          	subw	a2,a0,ra
    424c:	40c585bb          	subw	a1,a1,a2
    4250:	40000637          	lui	a2,0x40000
    4254:	86b43823          	sd	a1,-1936(s0)
    4258:	0005d463          	bgez	a1,4260 <.LBB52_142>
    425c:	c0000637          	lui	a2,0xc0000

0000000000004260 <.LBB52_142>:
    4260:	84c43c23          	sd	a2,-1960(s0)
    4264:	e6843583          	ld	a1,-408(s0)
    4268:	8b043603          	ld	a2,-1872(s0)
    426c:	00b605b3          	add	a1,a2,a1
    4270:	00001637          	lui	a2,0x1
    4274:	40c40633          	sub	a2,s0,a2
    4278:	6d063603          	ld	a2,1744(a2) # 16d0 <.LBB52_5+0x2f4>
    427c:	00c585b3          	add	a1,a1,a2
    4280:	4015063b          	subw	a2,a0,ra
    4284:	40c585bb          	subw	a1,a1,a2
    4288:	40000637          	lui	a2,0x40000
    428c:	8ab43823          	sd	a1,-1872(s0)
    4290:	0005d463          	bgez	a1,4298 <.LBB52_144>
    4294:	c0000637          	lui	a2,0xc0000

0000000000004298 <.LBB52_144>:
    4298:	80c43023          	sd	a2,-2048(s0)
    429c:	f8d43823          	sd	a3,-112(s0)
    42a0:	000015b7          	lui	a1,0x1
    42a4:	40b405b3          	sub	a1,s0,a1
    42a8:	6c85b583          	ld	a1,1736(a1) # 16c8 <.LBB52_5+0x2ec>
    42ac:	8b843603          	ld	a2,-1864(s0)
    42b0:	00b605b3          	add	a1,a2,a1
    42b4:	00001637          	lui	a2,0x1
    42b8:	40c40633          	sub	a2,s0,a2
    42bc:	6c063603          	ld	a2,1728(a2) # 16c0 <.LBB52_5+0x2e4>
    42c0:	00c585b3          	add	a1,a1,a2
    42c4:	4015063b          	subw	a2,a0,ra
    42c8:	40c585bb          	subw	a1,a1,a2
    42cc:	40000637          	lui	a2,0x40000
    42d0:	000016b7          	lui	a3,0x1
    42d4:	40d406b3          	sub	a3,s0,a3
    42d8:	7cb6bc23          	sd	a1,2008(a3) # 17d8 <.LBB52_5+0x3fc>
    42dc:	f9043683          	ld	a3,-112(s0)
    42e0:	0005d463          	bgez	a1,42e8 <.LBB52_146>
    42e4:	c0000637          	lui	a2,0xc0000

00000000000042e8 <.LBB52_146>:
    42e8:	000015b7          	lui	a1,0x1
    42ec:	40b405b3          	sub	a1,s0,a1
    42f0:	7cc5b823          	sd	a2,2000(a1) # 17d0 <.LBB52_5+0x3f4>
    42f4:	000015b7          	lui	a1,0x1
    42f8:	40b405b3          	sub	a1,s0,a1
    42fc:	6b85b583          	ld	a1,1720(a1) # 16b8 <.LBB52_5+0x2dc>
    4300:	8c043603          	ld	a2,-1856(s0)
    4304:	00b605b3          	add	a1,a2,a1
    4308:	00001637          	lui	a2,0x1
    430c:	40c40633          	sub	a2,s0,a2
    4310:	6b063603          	ld	a2,1712(a2) # 16b0 <.LBB52_5+0x2d4>
    4314:	00c585b3          	add	a1,a1,a2
    4318:	4015063b          	subw	a2,a0,ra
    431c:	40c585bb          	subw	a1,a1,a2
    4320:	40000637          	lui	a2,0x40000
    4324:	8cb43023          	sd	a1,-1856(s0)
    4328:	0005d463          	bgez	a1,4330 <.LBB52_148>
    432c:	c0000637          	lui	a2,0xc0000

0000000000004330 <.LBB52_148>:
    4330:	f8d43823          	sd	a3,-112(s0)
    4334:	000015b7          	lui	a1,0x1
    4338:	40b405b3          	sub	a1,s0,a1
    433c:	70c5b423          	sd	a2,1800(a1) # 1708 <.LBB52_5+0x32c>
    4340:	000015b7          	lui	a1,0x1
    4344:	40b405b3          	sub	a1,s0,a1
    4348:	6a85b583          	ld	a1,1704(a1) # 16a8 <.LBB52_5+0x2cc>
    434c:	8c843603          	ld	a2,-1848(s0)
    4350:	00b605b3          	add	a1,a2,a1
    4354:	00001637          	lui	a2,0x1
    4358:	40c40633          	sub	a2,s0,a2
    435c:	6a063603          	ld	a2,1696(a2) # 16a0 <.LBB52_5+0x2c4>
    4360:	00c585b3          	add	a1,a1,a2
    4364:	4015063b          	subw	a2,a0,ra
    4368:	40c585bb          	subw	a1,a1,a2
    436c:	40000637          	lui	a2,0x40000
    4370:	000016b7          	lui	a3,0x1
    4374:	40d406b3          	sub	a3,s0,a3
    4378:	5cb6b023          	sd	a1,1472(a3) # 15c0 <.LBB52_5+0x1e4>
    437c:	f9043683          	ld	a3,-112(s0)
    4380:	0005d463          	bgez	a1,4388 <.LBB52_150>
    4384:	c0000637          	lui	a2,0xc0000

0000000000004388 <.LBB52_150>:
    4388:	f8d43823          	sd	a3,-112(s0)
    438c:	000015b7          	lui	a1,0x1
    4390:	40b405b3          	sub	a1,s0,a1
    4394:	5ac5b823          	sd	a2,1456(a1) # 15b0 <.LBB52_5+0x1d4>
    4398:	8d043583          	ld	a1,-1840(s0)
    439c:	00001637          	lui	a2,0x1
    43a0:	40c40633          	sub	a2,s0,a2
    43a4:	69863603          	ld	a2,1688(a2) # 1698 <.LBB52_5+0x2bc>
    43a8:	00c585b3          	add	a1,a1,a2
    43ac:	00001637          	lui	a2,0x1
    43b0:	40c40633          	sub	a2,s0,a2
    43b4:	69063603          	ld	a2,1680(a2) # 1690 <.LBB52_5+0x2b4>
    43b8:	00c585b3          	add	a1,a1,a2
    43bc:	4015063b          	subw	a2,a0,ra
    43c0:	40c585bb          	subw	a1,a1,a2
    43c4:	40000637          	lui	a2,0x40000
    43c8:	000016b7          	lui	a3,0x1
    43cc:	40d406b3          	sub	a3,s0,a3
    43d0:	58b6b023          	sd	a1,1408(a3) # 1580 <.LBB52_5+0x1a4>
    43d4:	f9043683          	ld	a3,-112(s0)
    43d8:	0005d463          	bgez	a1,43e0 <.LBB52_152>
    43dc:	c0000637          	lui	a2,0xc0000

00000000000043e0 <.LBB52_152>:
    43e0:	f8d43823          	sd	a3,-112(s0)
    43e4:	000015b7          	lui	a1,0x1
    43e8:	40b405b3          	sub	a1,s0,a1
    43ec:	56c5b823          	sd	a2,1392(a1) # 1570 <.LBB52_5+0x194>
    43f0:	8d843583          	ld	a1,-1832(s0)
    43f4:	00001637          	lui	a2,0x1
    43f8:	40c40633          	sub	a2,s0,a2
    43fc:	68863603          	ld	a2,1672(a2) # 1688 <.LBB52_5+0x2ac>
    4400:	00c585b3          	add	a1,a1,a2
    4404:	00001637          	lui	a2,0x1
    4408:	40c40633          	sub	a2,s0,a2
    440c:	6d863603          	ld	a2,1752(a2) # 16d8 <.LBB52_5+0x2fc>
    4410:	00c585b3          	add	a1,a1,a2
    4414:	4015063b          	subw	a2,a0,ra
    4418:	40c585bb          	subw	a1,a1,a2
    441c:	40000637          	lui	a2,0x40000
    4420:	000016b7          	lui	a3,0x1
    4424:	40d406b3          	sub	a3,s0,a3
    4428:	52b6b423          	sd	a1,1320(a3) # 1528 <.LBB52_5+0x14c>
    442c:	f9043683          	ld	a3,-112(s0)
    4430:	0005d463          	bgez	a1,4438 <.LBB52_154>
    4434:	c0000637          	lui	a2,0xc0000

0000000000004438 <.LBB52_154>:
    4438:	f8d43823          	sd	a3,-112(s0)
    443c:	000015b7          	lui	a1,0x1
    4440:	40b405b3          	sub	a1,s0,a1
    4444:	50c5b823          	sd	a2,1296(a1) # 1510 <.LBB52_5+0x134>
    4448:	8e043583          	ld	a1,-1824(s0)
    444c:	eb043603          	ld	a2,-336(s0)
    4450:	00c585b3          	add	a1,a1,a2
    4454:	00001637          	lui	a2,0x1
    4458:	40c40633          	sub	a2,s0,a2
    445c:	6e063603          	ld	a2,1760(a2) # 16e0 <.LBB52_5+0x304>
    4460:	00c585b3          	add	a1,a1,a2
    4464:	4015063b          	subw	a2,a0,ra
    4468:	40c585bb          	subw	a1,a1,a2
    446c:	40000637          	lui	a2,0x40000
    4470:	000016b7          	lui	a3,0x1
    4474:	40d406b3          	sub	a3,s0,a3
    4478:	4cb6b423          	sd	a1,1224(a3) # 14c8 <.LBB52_5+0xec>
    447c:	f9043683          	ld	a3,-112(s0)
    4480:	0005d463          	bgez	a1,4488 <.LBB52_156>
    4484:	c0000637          	lui	a2,0xc0000

0000000000004488 <.LBB52_156>:
    4488:	f8d43823          	sd	a3,-112(s0)
    448c:	000015b7          	lui	a1,0x1
    4490:	40b405b3          	sub	a1,s0,a1
    4494:	4ac5bc23          	sd	a2,1208(a1) # 14b8 <.LBB52_5+0xdc>
    4498:	8e843583          	ld	a1,-1816(s0)
    449c:	eb843603          	ld	a2,-328(s0)
    44a0:	00c585b3          	add	a1,a1,a2
    44a4:	00001637          	lui	a2,0x1
    44a8:	40c40633          	sub	a2,s0,a2
    44ac:	6e863603          	ld	a2,1768(a2) # 16e8 <.LBB52_5+0x30c>
    44b0:	00c585b3          	add	a1,a1,a2
    44b4:	4015063b          	subw	a2,a0,ra
    44b8:	40c585bb          	subw	a1,a1,a2
    44bc:	40000637          	lui	a2,0x40000
    44c0:	000016b7          	lui	a3,0x1
    44c4:	40d406b3          	sub	a3,s0,a3
    44c8:	46b6bc23          	sd	a1,1144(a3) # 1478 <.LBB52_5+0x9c>
    44cc:	f9043683          	ld	a3,-112(s0)
    44d0:	0005d463          	bgez	a1,44d8 <.LBB52_158>
    44d4:	c0000637          	lui	a2,0xc0000

00000000000044d8 <.LBB52_158>:
    44d8:	f8d43823          	sd	a3,-112(s0)
    44dc:	000015b7          	lui	a1,0x1
    44e0:	40b405b3          	sub	a1,s0,a1
    44e4:	46c5b023          	sd	a2,1120(a1) # 1460 <.LBB52_5+0x84>
    44e8:	8f043583          	ld	a1,-1808(s0)
    44ec:	ec043603          	ld	a2,-320(s0)
    44f0:	00c585b3          	add	a1,a1,a2
    44f4:	01b585b3          	add	a1,a1,s11
    44f8:	4015063b          	subw	a2,a0,ra
    44fc:	40c585bb          	subw	a1,a1,a2
    4500:	40000637          	lui	a2,0x40000
    4504:	000016b7          	lui	a3,0x1
    4508:	40d406b3          	sub	a3,s0,a3
    450c:	42b6b023          	sd	a1,1056(a3) # 1420 <.LBB52_5+0x44>
    4510:	f9043683          	ld	a3,-112(s0)
    4514:	0005d463          	bgez	a1,451c <.LBB52_160>
    4518:	c0000637          	lui	a2,0xc0000

000000000000451c <.LBB52_160>:
    451c:	f8d43823          	sd	a3,-112(s0)
    4520:	000015b7          	lui	a1,0x1
    4524:	40b405b3          	sub	a1,s0,a1
    4528:	40c5b423          	sd	a2,1032(a1) # 1408 <.LBB52_5+0x2c>
    452c:	8f843583          	ld	a1,-1800(s0)
    4530:	ec843603          	ld	a2,-312(s0)
    4534:	00c585b3          	add	a1,a1,a2
    4538:	01a585b3          	add	a1,a1,s10
    453c:	4015063b          	subw	a2,a0,ra
    4540:	40c585bb          	subw	a1,a1,a2
    4544:	40000637          	lui	a2,0x40000
    4548:	000016b7          	lui	a3,0x1
    454c:	40d406b3          	sub	a3,s0,a3
    4550:	3cb6b823          	sd	a1,976(a3) # 13d0 <.LBB52_4+0x59c>
    4554:	f9043683          	ld	a3,-112(s0)
    4558:	0005d463          	bgez	a1,4560 <.LBB52_162>
    455c:	c0000637          	lui	a2,0xc0000

0000000000004560 <.LBB52_162>:
    4560:	f8d43823          	sd	a3,-112(s0)
    4564:	000015b7          	lui	a1,0x1
    4568:	40b405b3          	sub	a1,s0,a1
    456c:	3ac5bc23          	sd	a2,952(a1) # 13b8 <.LBB52_4+0x584>
    4570:	90043583          	ld	a1,-1792(s0)
    4574:	ed043603          	ld	a2,-304(s0)
    4578:	00c585b3          	add	a1,a1,a2
    457c:	019585b3          	add	a1,a1,s9
    4580:	4015063b          	subw	a2,a0,ra
    4584:	40c585bb          	subw	a1,a1,a2
    4588:	40000637          	lui	a2,0x40000
    458c:	000016b7          	lui	a3,0x1
    4590:	40d406b3          	sub	a3,s0,a3
    4594:	36b6b423          	sd	a1,872(a3) # 1368 <.LBB52_4+0x534>
    4598:	f9043683          	ld	a3,-112(s0)
    459c:	0005d463          	bgez	a1,45a4 <.LBB52_164>
    45a0:	c0000637          	lui	a2,0xc0000

00000000000045a4 <.LBB52_164>:
    45a4:	f8d43823          	sd	a3,-112(s0)
    45a8:	000015b7          	lui	a1,0x1
    45ac:	40b405b3          	sub	a1,s0,a1
    45b0:	34c5bc23          	sd	a2,856(a1) # 1358 <.LBB52_4+0x524>
    45b4:	90843583          	ld	a1,-1784(s0)
    45b8:	ed843603          	ld	a2,-296(s0)
    45bc:	00c585b3          	add	a1,a1,a2
    45c0:	018585b3          	add	a1,a1,s8
    45c4:	4015063b          	subw	a2,a0,ra
    45c8:	40c585bb          	subw	a1,a1,a2
    45cc:	40000637          	lui	a2,0x40000
    45d0:	000016b7          	lui	a3,0x1
    45d4:	40d406b3          	sub	a3,s0,a3
    45d8:	30b6b023          	sd	a1,768(a3) # 1300 <.LBB52_4+0x4cc>
    45dc:	f9043683          	ld	a3,-112(s0)
    45e0:	0005d463          	bgez	a1,45e8 <.LBB52_166>
    45e4:	c0000637          	lui	a2,0xc0000

00000000000045e8 <.LBB52_166>:
    45e8:	f8d43823          	sd	a3,-112(s0)
    45ec:	000015b7          	lui	a1,0x1
    45f0:	40b405b3          	sub	a1,s0,a1
    45f4:	2ec5b823          	sd	a2,752(a1) # 12f0 <.LBB52_4+0x4bc>
    45f8:	91043583          	ld	a1,-1776(s0)
    45fc:	ee043603          	ld	a2,-288(s0)
    4600:	00c585b3          	add	a1,a1,a2
    4604:	017585b3          	add	a1,a1,s7
    4608:	4015063b          	subw	a2,a0,ra
    460c:	40c585bb          	subw	a1,a1,a2
    4610:	40000637          	lui	a2,0x40000
    4614:	000016b7          	lui	a3,0x1
    4618:	40d406b3          	sub	a3,s0,a3
    461c:	28b6bc23          	sd	a1,664(a3) # 1298 <.LBB52_4+0x464>
    4620:	f9043683          	ld	a3,-112(s0)
    4624:	0005d463          	bgez	a1,462c <.LBB52_168>
    4628:	c0000637          	lui	a2,0xc0000

000000000000462c <.LBB52_168>:
    462c:	f8d43823          	sd	a3,-112(s0)
    4630:	000015b7          	lui	a1,0x1
    4634:	40b405b3          	sub	a1,s0,a1
    4638:	28c5b023          	sd	a2,640(a1) # 1280 <.LBB52_4+0x44c>
    463c:	91843583          	ld	a1,-1768(s0)
    4640:	ee843603          	ld	a2,-280(s0)
    4644:	00c585b3          	add	a1,a1,a2
    4648:	016585b3          	add	a1,a1,s6
    464c:	4015063b          	subw	a2,a0,ra
    4650:	40c585bb          	subw	a1,a1,a2
    4654:	40000637          	lui	a2,0x40000
    4658:	000016b7          	lui	a3,0x1
    465c:	40d406b3          	sub	a3,s0,a3
    4660:	22b6b023          	sd	a1,544(a3) # 1220 <.LBB52_4+0x3ec>
    4664:	f9043683          	ld	a3,-112(s0)
    4668:	0005d463          	bgez	a1,4670 <.LBB52_170>
    466c:	c0000637          	lui	a2,0xc0000

0000000000004670 <.LBB52_170>:
    4670:	f8d43823          	sd	a3,-112(s0)
    4674:	000015b7          	lui	a1,0x1
    4678:	40b405b3          	sub	a1,s0,a1
    467c:	20c5b423          	sd	a2,520(a1) # 1208 <.LBB52_4+0x3d4>
    4680:	92043583          	ld	a1,-1760(s0)
    4684:	ef043603          	ld	a2,-272(s0)
    4688:	00c585b3          	add	a1,a1,a2
    468c:	015585b3          	add	a1,a1,s5
    4690:	4015063b          	subw	a2,a0,ra
    4694:	40c585bb          	subw	a1,a1,a2
    4698:	40000637          	lui	a2,0x40000
    469c:	000016b7          	lui	a3,0x1
    46a0:	40d406b3          	sub	a3,s0,a3
    46a4:	1ab6b423          	sd	a1,424(a3) # 11a8 <.LBB52_4+0x374>
    46a8:	f9043683          	ld	a3,-112(s0)
    46ac:	0005d463          	bgez	a1,46b4 <.LBB52_172>
    46b0:	c0000637          	lui	a2,0xc0000

00000000000046b4 <.LBB52_172>:
    46b4:	f8d43823          	sd	a3,-112(s0)
    46b8:	000015b7          	lui	a1,0x1
    46bc:	40b405b3          	sub	a1,s0,a1
    46c0:	18c5b823          	sd	a2,400(a1) # 1190 <.LBB52_4+0x35c>
    46c4:	92843583          	ld	a1,-1752(s0)
    46c8:	ef843603          	ld	a2,-264(s0)
    46cc:	00c585b3          	add	a1,a1,a2
    46d0:	014585b3          	add	a1,a1,s4
    46d4:	4015063b          	subw	a2,a0,ra
    46d8:	40c585bb          	subw	a1,a1,a2
    46dc:	40000637          	lui	a2,0x40000
    46e0:	000016b7          	lui	a3,0x1
    46e4:	40d406b3          	sub	a3,s0,a3
    46e8:	12b6b823          	sd	a1,304(a3) # 1130 <.LBB52_4+0x2fc>
    46ec:	f9043683          	ld	a3,-112(s0)
    46f0:	0005d463          	bgez	a1,46f8 <.LBB52_174>
    46f4:	c0000637          	lui	a2,0xc0000

00000000000046f8 <.LBB52_174>:
    46f8:	f8d43823          	sd	a3,-112(s0)
    46fc:	000015b7          	lui	a1,0x1
    4700:	40b405b3          	sub	a1,s0,a1
    4704:	10c5bc23          	sd	a2,280(a1) # 1118 <.LBB52_4+0x2e4>
    4708:	93043583          	ld	a1,-1744(s0)
    470c:	f0043603          	ld	a2,-256(s0)
    4710:	00c585b3          	add	a1,a1,a2
    4714:	013585b3          	add	a1,a1,s3
    4718:	4015063b          	subw	a2,a0,ra
    471c:	40c585bb          	subw	a1,a1,a2
    4720:	40000637          	lui	a2,0x40000
    4724:	000016b7          	lui	a3,0x1
    4728:	40d406b3          	sub	a3,s0,a3
    472c:	0ab6bc23          	sd	a1,184(a3) # 10b8 <.LBB52_4+0x284>
    4730:	f9043683          	ld	a3,-112(s0)
    4734:	0005d463          	bgez	a1,473c <.LBB52_176>
    4738:	c0000637          	lui	a2,0xc0000

000000000000473c <.LBB52_176>:
    473c:	f8d43823          	sd	a3,-112(s0)
    4740:	000015b7          	lui	a1,0x1
    4744:	40b405b3          	sub	a1,s0,a1
    4748:	0ac5b023          	sd	a2,160(a1) # 10a0 <.LBB52_4+0x26c>
    474c:	93843583          	ld	a1,-1736(s0)
    4750:	f3843603          	ld	a2,-200(s0)
    4754:	00c585b3          	add	a1,a1,a2
    4758:	012585b3          	add	a1,a1,s2
    475c:	4015063b          	subw	a2,a0,ra
    4760:	40c585bb          	subw	a1,a1,a2
    4764:	40000637          	lui	a2,0x40000
    4768:	000016b7          	lui	a3,0x1
    476c:	40d406b3          	sub	a3,s0,a3
    4770:	04b6b023          	sd	a1,64(a3) # 1040 <.LBB52_4+0x20c>
    4774:	f9043683          	ld	a3,-112(s0)
    4778:	0005d463          	bgez	a1,4780 <.LBB52_178>
    477c:	c0000637          	lui	a2,0xc0000

0000000000004780 <.LBB52_178>:
    4780:	f8d43823          	sd	a3,-112(s0)
    4784:	000015b7          	lui	a1,0x1
    4788:	40b405b3          	sub	a1,s0,a1
    478c:	02c5b423          	sd	a2,40(a1) # 1028 <.LBB52_4+0x1f4>
    4790:	94043583          	ld	a1,-1728(s0)
    4794:	f4043603          	ld	a2,-192(s0)
    4798:	00c585b3          	add	a1,a1,a2
    479c:	00001637          	lui	a2,0x1
    47a0:	40c40633          	sub	a2,s0,a2
    47a4:	74063603          	ld	a2,1856(a2) # 1740 <.LBB52_5+0x364>
    47a8:	00c585b3          	add	a1,a1,a2
    47ac:	4015063b          	subw	a2,a0,ra
    47b0:	40c585bb          	subw	a1,a1,a2
    47b4:	40000637          	lui	a2,0x40000
    47b8:	000016b7          	lui	a3,0x1
    47bc:	40d406b3          	sub	a3,s0,a3
    47c0:	fcb6b423          	sd	a1,-56(a3) # fc8 <.LBB52_4+0x194>
    47c4:	f9043683          	ld	a3,-112(s0)
    47c8:	0005d463          	bgez	a1,47d0 <.LBB52_180>
    47cc:	c0000637          	lui	a2,0xc0000

00000000000047d0 <.LBB52_180>:
    47d0:	f8d43823          	sd	a3,-112(s0)
    47d4:	000015b7          	lui	a1,0x1
    47d8:	40b405b3          	sub	a1,s0,a1
    47dc:	fac5b823          	sd	a2,-80(a1) # fb0 <.LBB52_4+0x17c>
    47e0:	94843583          	ld	a1,-1720(s0)
    47e4:	f4843603          	ld	a2,-184(s0)
    47e8:	00c585b3          	add	a1,a1,a2
    47ec:	00001637          	lui	a2,0x1
    47f0:	40c40633          	sub	a2,s0,a2
    47f4:	74863603          	ld	a2,1864(a2) # 1748 <.LBB52_5+0x36c>
    47f8:	00c585b3          	add	a1,a1,a2
    47fc:	4015063b          	subw	a2,a0,ra
    4800:	40c585bb          	subw	a1,a1,a2
    4804:	40000637          	lui	a2,0x40000
    4808:	000016b7          	lui	a3,0x1
    480c:	40d406b3          	sub	a3,s0,a3
    4810:	f4b6b823          	sd	a1,-176(a3) # f50 <.LBB52_4+0x11c>
    4814:	f9043683          	ld	a3,-112(s0)
    4818:	0005d463          	bgez	a1,4820 <.LBB52_182>
    481c:	c0000637          	lui	a2,0xc0000

0000000000004820 <.LBB52_182>:
    4820:	f8d43823          	sd	a3,-112(s0)
    4824:	000015b7          	lui	a1,0x1
    4828:	40b405b3          	sub	a1,s0,a1
    482c:	f2c5bc23          	sd	a2,-200(a1) # f38 <.LBB52_4+0x104>
    4830:	95043583          	ld	a1,-1712(s0)
    4834:	f5043603          	ld	a2,-176(s0)
    4838:	00c585b3          	add	a1,a1,a2
    483c:	00001637          	lui	a2,0x1
    4840:	40c40633          	sub	a2,s0,a2
    4844:	75063603          	ld	a2,1872(a2) # 1750 <.LBB52_5+0x374>
    4848:	00c585b3          	add	a1,a1,a2
    484c:	4015063b          	subw	a2,a0,ra
    4850:	40c585bb          	subw	a1,a1,a2
    4854:	40000637          	lui	a2,0x40000
    4858:	000016b7          	lui	a3,0x1
    485c:	40d406b3          	sub	a3,s0,a3
    4860:	eeb6b023          	sd	a1,-288(a3) # ee0 <.LBB52_4+0xac>
    4864:	f9043683          	ld	a3,-112(s0)
    4868:	0005d463          	bgez	a1,4870 <.LBB52_184>
    486c:	c0000637          	lui	a2,0xc0000

0000000000004870 <.LBB52_184>:
    4870:	f8d43823          	sd	a3,-112(s0)
    4874:	000015b7          	lui	a1,0x1
    4878:	40b405b3          	sub	a1,s0,a1
    487c:	ecc5b423          	sd	a2,-312(a1) # ec8 <.LBB52_4+0x94>
    4880:	95843583          	ld	a1,-1704(s0)
    4884:	f5843603          	ld	a2,-168(s0)
    4888:	00c585b3          	add	a1,a1,a2
    488c:	00001637          	lui	a2,0x1
    4890:	40c40633          	sub	a2,s0,a2
    4894:	75863603          	ld	a2,1880(a2) # 1758 <.LBB52_5+0x37c>
    4898:	00c585b3          	add	a1,a1,a2
    489c:	4015063b          	subw	a2,a0,ra
    48a0:	40c585bb          	subw	a1,a1,a2
    48a4:	40000637          	lui	a2,0x40000
    48a8:	000016b7          	lui	a3,0x1
    48ac:	40d406b3          	sub	a3,s0,a3
    48b0:	e6b6b423          	sd	a1,-408(a3) # e68 <.LBB52_4+0x34>
    48b4:	f9043683          	ld	a3,-112(s0)
    48b8:	0005d463          	bgez	a1,48c0 <.LBB52_186>
    48bc:	c0000637          	lui	a2,0xc0000

00000000000048c0 <.LBB52_186>:
    48c0:	f8d43823          	sd	a3,-112(s0)
    48c4:	000015b7          	lui	a1,0x1
    48c8:	40b405b3          	sub	a1,s0,a1
    48cc:	e4c5b823          	sd	a2,-432(a1) # e50 <.LBB52_4+0x1c>
    48d0:	96043583          	ld	a1,-1696(s0)
    48d4:	f6043603          	ld	a2,-160(s0)
    48d8:	00c585b3          	add	a1,a1,a2
    48dc:	00001637          	lui	a2,0x1
    48e0:	40c40633          	sub	a2,s0,a2
    48e4:	76063603          	ld	a2,1888(a2) # 1760 <.LBB52_5+0x384>
    48e8:	00c585b3          	add	a1,a1,a2
    48ec:	4015063b          	subw	a2,a0,ra
    48f0:	40c585bb          	subw	a1,a1,a2
    48f4:	40000637          	lui	a2,0x40000
    48f8:	000016b7          	lui	a3,0x1
    48fc:	40d406b3          	sub	a3,s0,a3
    4900:	deb6bc23          	sd	a1,-520(a3) # df8 <.LBB52_3+0xc10>
    4904:	f9043683          	ld	a3,-112(s0)
    4908:	0005d463          	bgez	a1,4910 <.LBB52_188>
    490c:	c0000637          	lui	a2,0xc0000

0000000000004910 <.LBB52_188>:
    4910:	f8d43823          	sd	a3,-112(s0)
    4914:	000015b7          	lui	a1,0x1
    4918:	40b405b3          	sub	a1,s0,a1
    491c:	dec5b023          	sd	a2,-544(a1) # de0 <.LBB52_3+0xbf8>
    4920:	96843583          	ld	a1,-1688(s0)
    4924:	f6843603          	ld	a2,-152(s0)
    4928:	00c585b3          	add	a1,a1,a2
    492c:	006585b3          	add	a1,a1,t1
    4930:	4015063b          	subw	a2,a0,ra
    4934:	40c585bb          	subw	a1,a1,a2
    4938:	40000637          	lui	a2,0x40000
    493c:	000016b7          	lui	a3,0x1
    4940:	40d406b3          	sub	a3,s0,a3
    4944:	d8b6b023          	sd	a1,-640(a3) # d80 <.LBB52_3+0xb98>
    4948:	f9043683          	ld	a3,-112(s0)
    494c:	0005d463          	bgez	a1,4954 <.LBB52_190>
    4950:	c0000637          	lui	a2,0xc0000

0000000000004954 <.LBB52_190>:
    4954:	f8d43823          	sd	a3,-112(s0)
    4958:	000015b7          	lui	a1,0x1
    495c:	40b405b3          	sub	a1,s0,a1
    4960:	d6c5b423          	sd	a2,-664(a1) # d68 <.LBB52_3+0xb80>
    4964:	97043583          	ld	a1,-1680(s0)
    4968:	f7043603          	ld	a2,-144(s0)
    496c:	00c585b3          	add	a1,a1,a2
    4970:	009585b3          	add	a1,a1,s1
    4974:	4015063b          	subw	a2,a0,ra
    4978:	40c585bb          	subw	a1,a1,a2
    497c:	40000637          	lui	a2,0x40000
    4980:	000016b7          	lui	a3,0x1
    4984:	40d406b3          	sub	a3,s0,a3
    4988:	d0b6b423          	sd	a1,-760(a3) # d08 <.LBB52_3+0xb20>
    498c:	f9043683          	ld	a3,-112(s0)
    4990:	0005d463          	bgez	a1,4998 <.LBB52_192>
    4994:	c0000637          	lui	a2,0xc0000

0000000000004998 <.LBB52_192>:
    4998:	000015b7          	lui	a1,0x1
    499c:	40b405b3          	sub	a1,s0,a1
    49a0:	cec5b823          	sd	a2,-784(a1) # cf0 <.LBB52_3+0xb08>
    49a4:	f7843583          	ld	a1,-136(s0)
    49a8:	00b705b3          	add	a1,a4,a1
    49ac:	01c585b3          	add	a1,a1,t3
    49b0:	4015063b          	subw	a2,a0,ra
    49b4:	40c585bb          	subw	a1,a1,a2
    49b8:	40000637          	lui	a2,0x40000
    49bc:	00001737          	lui	a4,0x1
    49c0:	40e40733          	sub	a4,s0,a4
    49c4:	c2b73023          	sd	a1,-992(a4) # c20 <.LBB52_3+0xa38>
    49c8:	0005d463          	bgez	a1,49d0 <.LBB52_194>
    49cc:	c0000637          	lui	a2,0xc0000

00000000000049d0 <.LBB52_194>:
    49d0:	000015b7          	lui	a1,0x1
    49d4:	40b405b3          	sub	a1,s0,a1
    49d8:	c8c5bc23          	sd	a2,-872(a1) # c98 <.LBB52_3+0xab0>
    49dc:	f8043603          	ld	a2,-128(s0)
    49e0:	00c38633          	add	a2,t2,a2
    49e4:	01160633          	add	a2,a2,a7
    49e8:	4015073b          	subw	a4,a0,ra
    49ec:	40e605bb          	subw	a1,a2,a4
    49f0:	40000637          	lui	a2,0x40000
    49f4:	00001737          	lui	a4,0x1
    49f8:	40e40733          	sub	a4,s0,a4
    49fc:	c0b73423          	sd	a1,-1016(a4) # c08 <.LBB52_3+0xa20>
    4a00:	0005d463          	bgez	a1,4a08 <.LBB52_196>
    4a04:	c0000637          	lui	a2,0xc0000

0000000000004a08 <.LBB52_196>:
    4a08:	000015b7          	lui	a1,0x1
    4a0c:	40b405b3          	sub	a1,s0,a1
    4a10:	c4c5bc23          	sd	a2,-936(a1) # c58 <.LBB52_3+0xa70>
    4a14:	f8843603          	ld	a2,-120(s0)
    4a18:	00c80633          	add	a2,a6,a2
    4a1c:	01e60633          	add	a2,a2,t5
    4a20:	4015053b          	subw	a0,a0,ra
    4a24:	40a605bb          	subw	a1,a2,a0
    4a28:	40000537          	lui	a0,0x40000
    4a2c:	99043603          	ld	a2,-1648(s0)
    4a30:	0005d463          	bgez	a1,4a38 <.LBB52_198>
    4a34:	c0000537          	lui	a0,0xc0000

0000000000004a38 <.LBB52_198>:
    4a38:	00001737          	lui	a4,0x1
    4a3c:	40e40733          	sub	a4,s0,a4
    4a40:	bca73023          	sd	a0,-1088(a4) # bc0 <.LBB52_3+0x9d8>
    4a44:	ea843503          	ld	a0,-344(s0)
    4a48:	00a60633          	add	a2,a2,a0
    4a4c:	00001537          	lui	a0,0x1
    4a50:	40a40533          	sub	a0,s0,a0
    4a54:	56853503          	ld	a0,1384(a0) # 1568 <.LBB52_5+0x18c>
    4a58:	02f50533          	mul	a0,a0,a5
    4a5c:	ea043703          	ld	a4,-352(s0)
    4a60:	00e60633          	add	a2,a2,a4
    4a64:	4015073b          	subw	a4,a0,ra
    4a68:	40e6063b          	subw	a2,a2,a4
    4a6c:	40000737          	lui	a4,0x40000
    4a70:	98c43823          	sd	a2,-1648(s0)
    4a74:	00065463          	bgez	a2,4a7c <.LBB52_200>
    4a78:	c0000737          	lui	a4,0xc0000

0000000000004a7c <.LBB52_200>:
    4a7c:	98e43423          	sd	a4,-1656(s0)
    4a80:	99843603          	ld	a2,-1640(s0)
    4a84:	e9843703          	ld	a4,-360(s0)
    4a88:	00e60633          	add	a2,a2,a4
    4a8c:	e9043703          	ld	a4,-368(s0)
    4a90:	00e60633          	add	a2,a2,a4
    4a94:	4015073b          	subw	a4,a0,ra
    4a98:	40e6063b          	subw	a2,a2,a4
    4a9c:	40000737          	lui	a4,0x40000
    4aa0:	98c43c23          	sd	a2,-1640(s0)
    4aa4:	00065463          	bgez	a2,4aac <.LBB52_202>
    4aa8:	c0000737          	lui	a4,0xc0000

0000000000004aac <.LBB52_202>:
    4aac:	98e43023          	sd	a4,-1664(s0)
    4ab0:	9a043603          	ld	a2,-1632(s0)
    4ab4:	e8843703          	ld	a4,-376(s0)
    4ab8:	00e60633          	add	a2,a2,a4
    4abc:	e8043703          	ld	a4,-384(s0)
    4ac0:	00e60633          	add	a2,a2,a4
    4ac4:	4015073b          	subw	a4,a0,ra
    4ac8:	40e6063b          	subw	a2,a2,a4
    4acc:	40000737          	lui	a4,0x40000
    4ad0:	9ac43023          	sd	a2,-1632(s0)
    4ad4:	00065463          	bgez	a2,4adc <.LBB52_204>
    4ad8:	c0000737          	lui	a4,0xc0000

0000000000004adc <.LBB52_204>:
    4adc:	96e43c23          	sd	a4,-1672(s0)
    4ae0:	9a843603          	ld	a2,-1624(s0)
    4ae4:	e7843703          	ld	a4,-392(s0)
    4ae8:	00e60633          	add	a2,a2,a4
    4aec:	e7043703          	ld	a4,-400(s0)
    4af0:	00e60633          	add	a2,a2,a4
    4af4:	4015073b          	subw	a4,a0,ra
    4af8:	40e6063b          	subw	a2,a2,a4
    4afc:	40000737          	lui	a4,0x40000
    4b00:	96c43823          	sd	a2,-1680(s0)
    4b04:	00065463          	bgez	a2,4b0c <.LBB52_206>
    4b08:	c0000737          	lui	a4,0xc0000

0000000000004b0c <.LBB52_206>:
    4b0c:	94e43c23          	sd	a4,-1704(s0)
    4b10:	9b043603          	ld	a2,-1616(s0)
    4b14:	e6843703          	ld	a4,-408(s0)
    4b18:	00e60633          	add	a2,a2,a4
    4b1c:	00001737          	lui	a4,0x1
    4b20:	40e40733          	sub	a4,s0,a4
    4b24:	6d073703          	ld	a4,1744(a4) # 16d0 <.LBB52_5+0x2f4>
    4b28:	00e60633          	add	a2,a2,a4
    4b2c:	4015073b          	subw	a4,a0,ra
    4b30:	40e6063b          	subw	a2,a2,a4
    4b34:	40000737          	lui	a4,0x40000
    4b38:	9ac43823          	sd	a2,-1616(s0)
    4b3c:	00065463          	bgez	a2,4b44 <.LBB52_208>
    4b40:	c0000737          	lui	a4,0xc0000

0000000000004b44 <.LBB52_208>:
    4b44:	94e43023          	sd	a4,-1728(s0)
    4b48:	9b843603          	ld	a2,-1608(s0)
    4b4c:	00001737          	lui	a4,0x1
    4b50:	40e40733          	sub	a4,s0,a4
    4b54:	6c873703          	ld	a4,1736(a4) # 16c8 <.LBB52_5+0x2ec>
    4b58:	00e60633          	add	a2,a2,a4
    4b5c:	00001737          	lui	a4,0x1
    4b60:	40e40733          	sub	a4,s0,a4
    4b64:	6c073703          	ld	a4,1728(a4) # 16c0 <.LBB52_5+0x2e4>
    4b68:	00e60633          	add	a2,a2,a4
    4b6c:	4015073b          	subw	a4,a0,ra
    4b70:	40e6063b          	subw	a2,a2,a4
    4b74:	40000737          	lui	a4,0x40000
    4b78:	92c43423          	sd	a2,-1752(s0)
    4b7c:	00065463          	bgez	a2,4b84 <.LBB52_210>
    4b80:	c0000737          	lui	a4,0xc0000

0000000000004b84 <.LBB52_210>:
    4b84:	92e43023          	sd	a4,-1760(s0)
    4b88:	9c043603          	ld	a2,-1600(s0)
    4b8c:	00001737          	lui	a4,0x1
    4b90:	40e40733          	sub	a4,s0,a4
    4b94:	6b873703          	ld	a4,1720(a4) # 16b8 <.LBB52_5+0x2dc>
    4b98:	00e60633          	add	a2,a2,a4
    4b9c:	00001737          	lui	a4,0x1
    4ba0:	40e40733          	sub	a4,s0,a4
    4ba4:	6b073703          	ld	a4,1712(a4) # 16b0 <.LBB52_5+0x2d4>
    4ba8:	00e60633          	add	a2,a2,a4
    4bac:	4015073b          	subw	a4,a0,ra
    4bb0:	40e6063b          	subw	a2,a2,a4
    4bb4:	40000737          	lui	a4,0x40000
    4bb8:	9cc43023          	sd	a2,-1600(s0)
    4bbc:	00065463          	bgez	a2,4bc4 <.LBB52_212>
    4bc0:	c0000737          	lui	a4,0xc0000

0000000000004bc4 <.LBB52_212>:
    4bc4:	90e43423          	sd	a4,-1784(s0)
    4bc8:	9c843603          	ld	a2,-1592(s0)
    4bcc:	00001737          	lui	a4,0x1
    4bd0:	40e40733          	sub	a4,s0,a4
    4bd4:	6a873703          	ld	a4,1704(a4) # 16a8 <.LBB52_5+0x2cc>
    4bd8:	00e60633          	add	a2,a2,a4
    4bdc:	00001737          	lui	a4,0x1
    4be0:	40e40733          	sub	a4,s0,a4
    4be4:	6a073703          	ld	a4,1696(a4) # 16a0 <.LBB52_5+0x2c4>
    4be8:	00e60633          	add	a2,a2,a4
    4bec:	4015073b          	subw	a4,a0,ra
    4bf0:	40e6063b          	subw	a2,a2,a4
    4bf4:	40000737          	lui	a4,0x40000
    4bf8:	8ec43823          	sd	a2,-1808(s0)
    4bfc:	00065463          	bgez	a2,4c04 <.LBB52_214>
    4c00:	c0000737          	lui	a4,0xc0000

0000000000004c04 <.LBB52_214>:
    4c04:	8ee43423          	sd	a4,-1816(s0)
    4c08:	9d043603          	ld	a2,-1584(s0)
    4c0c:	00001737          	lui	a4,0x1
    4c10:	40e40733          	sub	a4,s0,a4
    4c14:	69873703          	ld	a4,1688(a4) # 1698 <.LBB52_5+0x2bc>
    4c18:	00e60633          	add	a2,a2,a4
    4c1c:	00001737          	lui	a4,0x1
    4c20:	40e40733          	sub	a4,s0,a4
    4c24:	69073703          	ld	a4,1680(a4) # 1690 <.LBB52_5+0x2b4>
    4c28:	00e60633          	add	a2,a2,a4
    4c2c:	4015073b          	subw	a4,a0,ra
    4c30:	40e6063b          	subw	a2,a2,a4
    4c34:	40000737          	lui	a4,0x40000
    4c38:	9cc43823          	sd	a2,-1584(s0)
    4c3c:	00065463          	bgez	a2,4c44 <.LBB52_216>
    4c40:	c0000737          	lui	a4,0xc0000

0000000000004c44 <.LBB52_216>:
    4c44:	00001637          	lui	a2,0x1
    4c48:	40c40633          	sub	a2,s0,a2
    4c4c:	56e63423          	sd	a4,1384(a2) # 1568 <.LBB52_5+0x18c>
    4c50:	9d843603          	ld	a2,-1576(s0)
    4c54:	00001737          	lui	a4,0x1
    4c58:	40e40733          	sub	a4,s0,a4
    4c5c:	68873703          	ld	a4,1672(a4) # 1688 <.LBB52_5+0x2ac>
    4c60:	00e60633          	add	a2,a2,a4
    4c64:	00001737          	lui	a4,0x1
    4c68:	40e40733          	sub	a4,s0,a4
    4c6c:	6d873703          	ld	a4,1752(a4) # 16d8 <.LBB52_5+0x2fc>
    4c70:	00e60633          	add	a2,a2,a4
    4c74:	4015073b          	subw	a4,a0,ra
    4c78:	40e6063b          	subw	a2,a2,a4
    4c7c:	40000737          	lui	a4,0x40000
    4c80:	00001837          	lui	a6,0x1
    4c84:	41040833          	sub	a6,s0,a6
    4c88:	50c83c23          	sd	a2,1304(a6) # 1518 <.LBB52_5+0x13c>
    4c8c:	00065463          	bgez	a2,4c94 <.LBB52_218>
    4c90:	c0000737          	lui	a4,0xc0000

0000000000004c94 <.LBB52_218>:
    4c94:	00001637          	lui	a2,0x1
    4c98:	40c40633          	sub	a2,s0,a2
    4c9c:	50e63423          	sd	a4,1288(a2) # 1508 <.LBB52_5+0x12c>
    4ca0:	9e043603          	ld	a2,-1568(s0)
    4ca4:	eb043703          	ld	a4,-336(s0)
    4ca8:	00e60633          	add	a2,a2,a4
    4cac:	00001737          	lui	a4,0x1
    4cb0:	40e40733          	sub	a4,s0,a4
    4cb4:	6e073703          	ld	a4,1760(a4) # 16e0 <.LBB52_5+0x304>
    4cb8:	00e60633          	add	a2,a2,a4
    4cbc:	4015073b          	subw	a4,a0,ra
    4cc0:	40e6063b          	subw	a2,a2,a4
    4cc4:	40000737          	lui	a4,0x40000
    4cc8:	9ec43023          	sd	a2,-1568(s0)
    4ccc:	00065463          	bgez	a2,4cd4 <.LBB52_220>
    4cd0:	c0000737          	lui	a4,0xc0000

0000000000004cd4 <.LBB52_220>:
    4cd4:	00001637          	lui	a2,0x1
    4cd8:	40c40633          	sub	a2,s0,a2
    4cdc:	4ae63823          	sd	a4,1200(a2) # 14b0 <.LBB52_5+0xd4>
    4ce0:	9e843603          	ld	a2,-1560(s0)
    4ce4:	eb843703          	ld	a4,-328(s0)
    4ce8:	00e60633          	add	a2,a2,a4
    4cec:	00001737          	lui	a4,0x1
    4cf0:	40e40733          	sub	a4,s0,a4
    4cf4:	6e873703          	ld	a4,1768(a4) # 16e8 <.LBB52_5+0x30c>
    4cf8:	00e60633          	add	a2,a2,a4
    4cfc:	4015073b          	subw	a4,a0,ra
    4d00:	40e6063b          	subw	a2,a2,a4
    4d04:	40000737          	lui	a4,0x40000
    4d08:	9ec43423          	sd	a2,-1560(s0)
    4d0c:	00065463          	bgez	a2,4d14 <.LBB52_222>
    4d10:	c0000737          	lui	a4,0xc0000

0000000000004d14 <.LBB52_222>:
    4d14:	00001637          	lui	a2,0x1
    4d18:	40c40633          	sub	a2,s0,a2
    4d1c:	44e63c23          	sd	a4,1112(a2) # 1458 <.LBB52_5+0x7c>
    4d20:	9f043603          	ld	a2,-1552(s0)
    4d24:	ec043703          	ld	a4,-320(s0)
    4d28:	00e60633          	add	a2,a2,a4
    4d2c:	01b60633          	add	a2,a2,s11
    4d30:	4015073b          	subw	a4,a0,ra
    4d34:	40e6063b          	subw	a2,a2,a4
    4d38:	40000737          	lui	a4,0x40000
    4d3c:	9ec43823          	sd	a2,-1552(s0)
    4d40:	00065463          	bgez	a2,4d48 <.LBB52_224>
    4d44:	c0000737          	lui	a4,0xc0000

0000000000004d48 <.LBB52_224>:
    4d48:	00001637          	lui	a2,0x1
    4d4c:	40c40633          	sub	a2,s0,a2
    4d50:	40e63023          	sd	a4,1024(a2) # 1400 <.LBB52_5+0x24>
    4d54:	9f843603          	ld	a2,-1544(s0)
    4d58:	ec843703          	ld	a4,-312(s0)
    4d5c:	00e60633          	add	a2,a2,a4
    4d60:	01a60633          	add	a2,a2,s10
    4d64:	4015073b          	subw	a4,a0,ra
    4d68:	40e6063b          	subw	a2,a2,a4
    4d6c:	40000737          	lui	a4,0x40000
    4d70:	9ec43c23          	sd	a2,-1544(s0)
    4d74:	00065463          	bgez	a2,4d7c <.LBB52_226>
    4d78:	c0000737          	lui	a4,0xc0000

0000000000004d7c <.LBB52_226>:
    4d7c:	00001637          	lui	a2,0x1
    4d80:	40c40633          	sub	a2,s0,a2
    4d84:	3ae63423          	sd	a4,936(a2) # 13a8 <.LBB52_4+0x574>
    4d88:	a0043603          	ld	a2,-1536(s0)
    4d8c:	ed043703          	ld	a4,-304(s0)
    4d90:	00e60633          	add	a2,a2,a4
    4d94:	01960633          	add	a2,a2,s9
    4d98:	4015073b          	subw	a4,a0,ra
    4d9c:	40e6063b          	subw	a2,a2,a4
    4da0:	40000737          	lui	a4,0x40000
    4da4:	a0c43023          	sd	a2,-1536(s0)
    4da8:	00065463          	bgez	a2,4db0 <.LBB52_228>
    4dac:	c0000737          	lui	a4,0xc0000

0000000000004db0 <.LBB52_228>:
    4db0:	00001637          	lui	a2,0x1
    4db4:	40c40633          	sub	a2,s0,a2
    4db8:	34e63423          	sd	a4,840(a2) # 1348 <.LBB52_4+0x514>
    4dbc:	a0843603          	ld	a2,-1528(s0)
    4dc0:	ed843703          	ld	a4,-296(s0)
    4dc4:	00e60633          	add	a2,a2,a4
    4dc8:	01860633          	add	a2,a2,s8
    4dcc:	4015073b          	subw	a4,a0,ra
    4dd0:	40e6063b          	subw	a2,a2,a4
    4dd4:	40000737          	lui	a4,0x40000
    4dd8:	a0c43423          	sd	a2,-1528(s0)
    4ddc:	00065463          	bgez	a2,4de4 <.LBB52_230>
    4de0:	c0000737          	lui	a4,0xc0000

0000000000004de4 <.LBB52_230>:
    4de4:	00001637          	lui	a2,0x1
    4de8:	40c40633          	sub	a2,s0,a2
    4dec:	2ee63423          	sd	a4,744(a2) # 12e8 <.LBB52_4+0x4b4>
    4df0:	a1043603          	ld	a2,-1520(s0)
    4df4:	ee043703          	ld	a4,-288(s0)
    4df8:	00e60633          	add	a2,a2,a4
    4dfc:	01760633          	add	a2,a2,s7
    4e00:	4015073b          	subw	a4,a0,ra
    4e04:	40e6063b          	subw	a2,a2,a4
    4e08:	40000737          	lui	a4,0x40000
    4e0c:	00001837          	lui	a6,0x1
    4e10:	41040833          	sub	a6,s0,a6
    4e14:	28c83423          	sd	a2,648(a6) # 1288 <.LBB52_4+0x454>
    4e18:	00065463          	bgez	a2,4e20 <.LBB52_232>
    4e1c:	c0000737          	lui	a4,0xc0000

0000000000004e20 <.LBB52_232>:
    4e20:	00001637          	lui	a2,0x1
    4e24:	40c40633          	sub	a2,s0,a2
    4e28:	26e63c23          	sd	a4,632(a2) # 1278 <.LBB52_4+0x444>
    4e2c:	a1843603          	ld	a2,-1512(s0)
    4e30:	ee843703          	ld	a4,-280(s0)
    4e34:	00e60633          	add	a2,a2,a4
    4e38:	01660633          	add	a2,a2,s6
    4e3c:	4015073b          	subw	a4,a0,ra
    4e40:	40e6063b          	subw	a2,a2,a4
    4e44:	40000737          	lui	a4,0x40000
    4e48:	00001837          	lui	a6,0x1
    4e4c:	41040833          	sub	a6,s0,a6
    4e50:	20c83823          	sd	a2,528(a6) # 1210 <.LBB52_4+0x3dc>
    4e54:	00065463          	bgez	a2,4e5c <.LBB52_234>
    4e58:	c0000737          	lui	a4,0xc0000

0000000000004e5c <.LBB52_234>:
    4e5c:	00001637          	lui	a2,0x1
    4e60:	40c40633          	sub	a2,s0,a2
    4e64:	20e63023          	sd	a4,512(a2) # 1200 <.LBB52_4+0x3cc>
    4e68:	a2043603          	ld	a2,-1504(s0)
    4e6c:	ef043703          	ld	a4,-272(s0)
    4e70:	00e60633          	add	a2,a2,a4
    4e74:	01560633          	add	a2,a2,s5
    4e78:	4015073b          	subw	a4,a0,ra
    4e7c:	40e6063b          	subw	a2,a2,a4
    4e80:	40000737          	lui	a4,0x40000
    4e84:	00001837          	lui	a6,0x1
    4e88:	41040833          	sub	a6,s0,a6
    4e8c:	18c83c23          	sd	a2,408(a6) # 1198 <.LBB52_4+0x364>
    4e90:	00065463          	bgez	a2,4e98 <.LBB52_236>
    4e94:	c0000737          	lui	a4,0xc0000

0000000000004e98 <.LBB52_236>:
    4e98:	00001637          	lui	a2,0x1
    4e9c:	40c40633          	sub	a2,s0,a2
    4ea0:	18e63423          	sd	a4,392(a2) # 1188 <.LBB52_4+0x354>
    4ea4:	a2843603          	ld	a2,-1496(s0)
    4ea8:	ef843703          	ld	a4,-264(s0)
    4eac:	00e60633          	add	a2,a2,a4
    4eb0:	01460633          	add	a2,a2,s4
    4eb4:	4015073b          	subw	a4,a0,ra
    4eb8:	40e6063b          	subw	a2,a2,a4
    4ebc:	40000737          	lui	a4,0x40000
    4ec0:	00001837          	lui	a6,0x1
    4ec4:	41040833          	sub	a6,s0,a6
    4ec8:	12c83023          	sd	a2,288(a6) # 1120 <.LBB52_4+0x2ec>
    4ecc:	00065463          	bgez	a2,4ed4 <.LBB52_238>
    4ed0:	c0000737          	lui	a4,0xc0000

0000000000004ed4 <.LBB52_238>:
    4ed4:	00001637          	lui	a2,0x1
    4ed8:	40c40633          	sub	a2,s0,a2
    4edc:	10e63823          	sd	a4,272(a2) # 1110 <.LBB52_4+0x2dc>
    4ee0:	a3043603          	ld	a2,-1488(s0)
    4ee4:	f0043703          	ld	a4,-256(s0)
    4ee8:	00e60633          	add	a2,a2,a4
    4eec:	01360633          	add	a2,a2,s3
    4ef0:	4015073b          	subw	a4,a0,ra
    4ef4:	40e6063b          	subw	a2,a2,a4
    4ef8:	40000737          	lui	a4,0x40000
    4efc:	00001837          	lui	a6,0x1
    4f00:	41040833          	sub	a6,s0,a6
    4f04:	0ac83423          	sd	a2,168(a6) # 10a8 <.LBB52_4+0x274>
    4f08:	00065463          	bgez	a2,4f10 <.LBB52_240>
    4f0c:	c0000737          	lui	a4,0xc0000

0000000000004f10 <.LBB52_240>:
    4f10:	00001637          	lui	a2,0x1
    4f14:	40c40633          	sub	a2,s0,a2
    4f18:	08e63c23          	sd	a4,152(a2) # 1098 <.LBB52_4+0x264>
    4f1c:	a3843603          	ld	a2,-1480(s0)
    4f20:	f3843703          	ld	a4,-200(s0)
    4f24:	00e60633          	add	a2,a2,a4
    4f28:	01260633          	add	a2,a2,s2
    4f2c:	4015073b          	subw	a4,a0,ra
    4f30:	40e6063b          	subw	a2,a2,a4
    4f34:	40000737          	lui	a4,0x40000
    4f38:	00001837          	lui	a6,0x1
    4f3c:	41040833          	sub	a6,s0,a6
    4f40:	02c83823          	sd	a2,48(a6) # 1030 <.LBB52_4+0x1fc>
    4f44:	00065463          	bgez	a2,4f4c <.LBB52_242>
    4f48:	c0000737          	lui	a4,0xc0000

0000000000004f4c <.LBB52_242>:
    4f4c:	00001637          	lui	a2,0x1
    4f50:	40c40633          	sub	a2,s0,a2
    4f54:	02e63023          	sd	a4,32(a2) # 1020 <.LBB52_4+0x1ec>
    4f58:	a4043603          	ld	a2,-1472(s0)
    4f5c:	f4043703          	ld	a4,-192(s0)
    4f60:	00e60633          	add	a2,a2,a4
    4f64:	00001737          	lui	a4,0x1
    4f68:	40e40733          	sub	a4,s0,a4
    4f6c:	74073703          	ld	a4,1856(a4) # 1740 <.LBB52_5+0x364>
    4f70:	00e60633          	add	a2,a2,a4
    4f74:	4015073b          	subw	a4,a0,ra
    4f78:	40e6063b          	subw	a2,a2,a4
    4f7c:	40000737          	lui	a4,0x40000
    4f80:	00001837          	lui	a6,0x1
    4f84:	41040833          	sub	a6,s0,a6
    4f88:	fac83c23          	sd	a2,-72(a6) # fb8 <.LBB52_4+0x184>
    4f8c:	00065463          	bgez	a2,4f94 <.LBB52_244>
    4f90:	c0000737          	lui	a4,0xc0000

0000000000004f94 <.LBB52_244>:
    4f94:	00001637          	lui	a2,0x1
    4f98:	40c40633          	sub	a2,s0,a2
    4f9c:	fae63023          	sd	a4,-96(a2) # fa0 <.LBB52_4+0x16c>
    4fa0:	a4843603          	ld	a2,-1464(s0)
    4fa4:	f4843703          	ld	a4,-184(s0)
    4fa8:	00e60633          	add	a2,a2,a4
    4fac:	00001737          	lui	a4,0x1
    4fb0:	40e40733          	sub	a4,s0,a4
    4fb4:	74873703          	ld	a4,1864(a4) # 1748 <.LBB52_5+0x36c>
    4fb8:	00e60633          	add	a2,a2,a4
    4fbc:	4015073b          	subw	a4,a0,ra
    4fc0:	40e6063b          	subw	a2,a2,a4
    4fc4:	40000737          	lui	a4,0x40000
    4fc8:	00001837          	lui	a6,0x1
    4fcc:	41040833          	sub	a6,s0,a6
    4fd0:	f4c83023          	sd	a2,-192(a6) # f40 <.LBB52_4+0x10c>
    4fd4:	00065463          	bgez	a2,4fdc <.LBB52_246>
    4fd8:	c0000737          	lui	a4,0xc0000

0000000000004fdc <.LBB52_246>:
    4fdc:	00001637          	lui	a2,0x1
    4fe0:	40c40633          	sub	a2,s0,a2
    4fe4:	f2e63823          	sd	a4,-208(a2) # f30 <.LBB52_4+0xfc>
    4fe8:	a5043603          	ld	a2,-1456(s0)
    4fec:	f5043703          	ld	a4,-176(s0)
    4ff0:	00e60633          	add	a2,a2,a4
    4ff4:	00001737          	lui	a4,0x1
    4ff8:	40e40733          	sub	a4,s0,a4
    4ffc:	75073703          	ld	a4,1872(a4) # 1750 <.LBB52_5+0x374>
    5000:	00e60633          	add	a2,a2,a4
    5004:	4015073b          	subw	a4,a0,ra
    5008:	40e6063b          	subw	a2,a2,a4
    500c:	40000737          	lui	a4,0x40000
    5010:	00001837          	lui	a6,0x1
    5014:	41040833          	sub	a6,s0,a6
    5018:	ecc83823          	sd	a2,-304(a6) # ed0 <.LBB52_4+0x9c>
    501c:	00065463          	bgez	a2,5024 <.LBB52_248>
    5020:	c0000737          	lui	a4,0xc0000

0000000000005024 <.LBB52_248>:
    5024:	00001637          	lui	a2,0x1
    5028:	40c40633          	sub	a2,s0,a2
    502c:	eae63c23          	sd	a4,-328(a2) # eb8 <.LBB52_4+0x84>
    5030:	a5843603          	ld	a2,-1448(s0)
    5034:	f5843703          	ld	a4,-168(s0)
    5038:	00e60633          	add	a2,a2,a4
    503c:	00001737          	lui	a4,0x1
    5040:	40e40733          	sub	a4,s0,a4
    5044:	75873703          	ld	a4,1880(a4) # 1758 <.LBB52_5+0x37c>
    5048:	00e60633          	add	a2,a2,a4
    504c:	4015073b          	subw	a4,a0,ra
    5050:	40e6063b          	subw	a2,a2,a4
    5054:	40000737          	lui	a4,0x40000
    5058:	00001837          	lui	a6,0x1
    505c:	41040833          	sub	a6,s0,a6
    5060:	e4c83c23          	sd	a2,-424(a6) # e58 <.LBB52_4+0x24>
    5064:	00065463          	bgez	a2,506c <.LBB52_250>
    5068:	c0000737          	lui	a4,0xc0000

000000000000506c <.LBB52_250>:
    506c:	00001637          	lui	a2,0x1
    5070:	40c40633          	sub	a2,s0,a2
    5074:	e4e63423          	sd	a4,-440(a2) # e48 <.LBB52_4+0x14>
    5078:	a6043603          	ld	a2,-1440(s0)
    507c:	f6043703          	ld	a4,-160(s0)
    5080:	00e60633          	add	a2,a2,a4
    5084:	00001737          	lui	a4,0x1
    5088:	40e40733          	sub	a4,s0,a4
    508c:	76073703          	ld	a4,1888(a4) # 1760 <.LBB52_5+0x384>
    5090:	00e60633          	add	a2,a2,a4
    5094:	4015073b          	subw	a4,a0,ra
    5098:	40e6063b          	subw	a2,a2,a4
    509c:	40000737          	lui	a4,0x40000
    50a0:	00001837          	lui	a6,0x1
    50a4:	41040833          	sub	a6,s0,a6
    50a8:	dec83423          	sd	a2,-536(a6) # de8 <.LBB52_3+0xc00>
    50ac:	00065463          	bgez	a2,50b4 <.LBB52_252>
    50b0:	c0000737          	lui	a4,0xc0000

00000000000050b4 <.LBB52_252>:
    50b4:	00001637          	lui	a2,0x1
    50b8:	40c40633          	sub	a2,s0,a2
    50bc:	dce63823          	sd	a4,-560(a2) # dd0 <.LBB52_3+0xbe8>
    50c0:	a6843603          	ld	a2,-1432(s0)
    50c4:	f6843703          	ld	a4,-152(s0)
    50c8:	00e60633          	add	a2,a2,a4
    50cc:	00660633          	add	a2,a2,t1
    50d0:	4015073b          	subw	a4,a0,ra
    50d4:	40e6063b          	subw	a2,a2,a4
    50d8:	40000737          	lui	a4,0x40000
    50dc:	00001837          	lui	a6,0x1
    50e0:	41040833          	sub	a6,s0,a6
    50e4:	d6c83823          	sd	a2,-656(a6) # d70 <.LBB52_3+0xb88>
    50e8:	00065463          	bgez	a2,50f0 <.LBB52_254>
    50ec:	c0000737          	lui	a4,0xc0000

00000000000050f0 <.LBB52_254>:
    50f0:	00001637          	lui	a2,0x1
    50f4:	40c40633          	sub	a2,s0,a2
    50f8:	d6e63023          	sd	a4,-672(a2) # d60 <.LBB52_3+0xb78>
    50fc:	f7043603          	ld	a2,-144(s0)
    5100:	a7043703          	ld	a4,-1424(s0)
    5104:	00c70633          	add	a2,a4,a2
    5108:	00960633          	add	a2,a2,s1
    510c:	4015073b          	subw	a4,a0,ra
    5110:	40e6063b          	subw	a2,a2,a4
    5114:	40000737          	lui	a4,0x40000
    5118:	00001837          	lui	a6,0x1
    511c:	41040833          	sub	a6,s0,a6
    5120:	cec83c23          	sd	a2,-776(a6) # cf8 <.LBB52_3+0xb10>
    5124:	00065463          	bgez	a2,512c <.LBB52_256>
    5128:	c0000737          	lui	a4,0xc0000

000000000000512c <.LBB52_256>:
    512c:	00001637          	lui	a2,0x1
    5130:	40c40633          	sub	a2,s0,a2
    5134:	cee63023          	sd	a4,-800(a2) # ce0 <.LBB52_3+0xaf8>
    5138:	f7843703          	ld	a4,-136(s0)
    513c:	a7843603          	ld	a2,-1416(s0)
    5140:	00e60733          	add	a4,a2,a4
    5144:	01c70733          	add	a4,a4,t3
    5148:	4015083b          	subw	a6,a0,ra
    514c:	4107083b          	subw	a6,a4,a6
    5150:	40000737          	lui	a4,0x40000
    5154:	a9043603          	ld	a2,-1392(s0)
    5158:	000013b7          	lui	t2,0x1
    515c:	407403b3          	sub	t2,s0,t2
    5160:	c303b423          	sd	a6,-984(t2) # c28 <.LBB52_3+0xa40>
    5164:	00085463          	bgez	a6,516c <.LBB52_258>
    5168:	c0000737          	lui	a4,0xc0000

000000000000516c <.LBB52_258>:
    516c:	00001837          	lui	a6,0x1
    5170:	41040833          	sub	a6,s0,a6
    5174:	c8e83823          	sd	a4,-880(a6) # c90 <.LBB52_3+0xaa8>
    5178:	f8043703          	ld	a4,-128(s0)
    517c:	a8043803          	ld	a6,-1408(s0)
    5180:	00e80733          	add	a4,a6,a4
    5184:	01170733          	add	a4,a4,a7
    5188:	4015083b          	subw	a6,a0,ra
    518c:	4107083b          	subw	a6,a4,a6
    5190:	40000737          	lui	a4,0x40000
    5194:	000013b7          	lui	t2,0x1
    5198:	407403b3          	sub	t2,s0,t2
    519c:	c103b023          	sd	a6,-1024(t2) # c00 <.LBB52_3+0xa18>
    51a0:	00085463          	bgez	a6,51a8 <.LBB52_260>
    51a4:	c0000737          	lui	a4,0xc0000

00000000000051a8 <.LBB52_260>:
    51a8:	00001837          	lui	a6,0x1
    51ac:	41040833          	sub	a6,s0,a6
    51b0:	c4e83823          	sd	a4,-944(a6) # c50 <.LBB52_3+0xa68>
    51b4:	f8843703          	ld	a4,-120(s0)
    51b8:	a8843803          	ld	a6,-1400(s0)
    51bc:	00e80733          	add	a4,a6,a4
    51c0:	01e70733          	add	a4,a4,t5
    51c4:	4015053b          	subw	a0,a0,ra
    51c8:	40a7073b          	subw	a4,a4,a0
    51cc:	40000537          	lui	a0,0x40000
    51d0:	00001837          	lui	a6,0x1
    51d4:	41040833          	sub	a6,s0,a6
    51d8:	bce83423          	sd	a4,-1080(a6) # bc8 <.LBB52_3+0x9e0>
    51dc:	00075463          	bgez	a4,51e4 <.LBB52_262>
    51e0:	c0000537          	lui	a0,0xc0000

00000000000051e4 <.LBB52_262>:
    51e4:	00001737          	lui	a4,0x1
    51e8:	40e40733          	sub	a4,s0,a4
    51ec:	baa73c23          	sd	a0,-1096(a4) # bb8 <.LBB52_3+0x9d0>
    51f0:	ea843703          	ld	a4,-344(s0)
    51f4:	00e60733          	add	a4,a2,a4
    51f8:	00001537          	lui	a0,0x1
    51fc:	40a40533          	sub	a0,s0,a0
    5200:	56053503          	ld	a0,1376(a0) # 1560 <.LBB52_5+0x184>
    5204:	02f50533          	mul	a0,a0,a5
    5208:	ea043603          	ld	a2,-352(s0)
    520c:	00c70733          	add	a4,a4,a2
    5210:	4015083b          	subw	a6,a0,ra
    5214:	4107063b          	subw	a2,a4,a6
    5218:	40000737          	lui	a4,0x40000
    521c:	a8c43423          	sd	a2,-1400(s0)
    5220:	00065463          	bgez	a2,5228 <.LBB52_264>
    5224:	c0000737          	lui	a4,0xc0000

0000000000005228 <.LBB52_264>:
    5228:	a6e43c23          	sd	a4,-1416(s0)
    522c:	a9843703          	ld	a4,-1384(s0)
    5230:	e9843603          	ld	a2,-360(s0)
    5234:	00c70733          	add	a4,a4,a2
    5238:	e9043603          	ld	a2,-368(s0)
    523c:	00c70733          	add	a4,a4,a2
    5240:	4015083b          	subw	a6,a0,ra
    5244:	4107063b          	subw	a2,a4,a6
    5248:	40000737          	lui	a4,0x40000
    524c:	a8c43c23          	sd	a2,-1384(s0)
    5250:	00065463          	bgez	a2,5258 <.LBB52_266>
    5254:	c0000737          	lui	a4,0xc0000

0000000000005258 <.LBB52_266>:
    5258:	a6e43423          	sd	a4,-1432(s0)
    525c:	aa043703          	ld	a4,-1376(s0)
    5260:	e8843603          	ld	a2,-376(s0)
    5264:	00c70733          	add	a4,a4,a2
    5268:	e8043603          	ld	a2,-384(s0)
    526c:	00c70733          	add	a4,a4,a2
    5270:	4015083b          	subw	a6,a0,ra
    5274:	4107063b          	subw	a2,a4,a6
    5278:	40000737          	lui	a4,0x40000
    527c:	a6c43023          	sd	a2,-1440(s0)
    5280:	00065463          	bgez	a2,5288 <.LBB52_268>
    5284:	c0000737          	lui	a4,0xc0000

0000000000005288 <.LBB52_268>:
    5288:	a4e43c23          	sd	a4,-1448(s0)
    528c:	aa843703          	ld	a4,-1368(s0)
    5290:	e7843603          	ld	a2,-392(s0)
    5294:	00c70733          	add	a4,a4,a2
    5298:	e7043603          	ld	a2,-400(s0)
    529c:	00c70733          	add	a4,a4,a2
    52a0:	4015083b          	subw	a6,a0,ra
    52a4:	4107063b          	subw	a2,a4,a6
    52a8:	40000737          	lui	a4,0x40000
    52ac:	aac43423          	sd	a2,-1368(s0)
    52b0:	00065463          	bgez	a2,52b8 <.LBB52_270>
    52b4:	c0000737          	lui	a4,0xc0000

00000000000052b8 <.LBB52_270>:
    52b8:	a6e43823          	sd	a4,-1424(s0)
    52bc:	ab043703          	ld	a4,-1360(s0)
    52c0:	e6843603          	ld	a2,-408(s0)
    52c4:	00c70733          	add	a4,a4,a2
    52c8:	00001637          	lui	a2,0x1
    52cc:	40c40633          	sub	a2,s0,a2
    52d0:	6d063603          	ld	a2,1744(a2) # 16d0 <.LBB52_5+0x2f4>
    52d4:	00c70733          	add	a4,a4,a2
    52d8:	4015083b          	subw	a6,a0,ra
    52dc:	4107063b          	subw	a2,a4,a6
    52e0:	40000737          	lui	a4,0x40000
    52e4:	a8c43023          	sd	a2,-1408(s0)
    52e8:	00065463          	bgez	a2,52f0 <.LBB52_272>
    52ec:	c0000737          	lui	a4,0xc0000

00000000000052f0 <.LBB52_272>:
    52f0:	a4e43823          	sd	a4,-1456(s0)
    52f4:	ab843703          	ld	a4,-1352(s0)
    52f8:	00001637          	lui	a2,0x1
    52fc:	40c40633          	sub	a2,s0,a2
    5300:	6c863603          	ld	a2,1736(a2) # 16c8 <.LBB52_5+0x2ec>
    5304:	00c70733          	add	a4,a4,a2
    5308:	00001637          	lui	a2,0x1
    530c:	40c40633          	sub	a2,s0,a2
    5310:	6c063603          	ld	a2,1728(a2) # 16c0 <.LBB52_5+0x2e4>
    5314:	00c70733          	add	a4,a4,a2
    5318:	4015083b          	subw	a6,a0,ra
    531c:	4107063b          	subw	a2,a4,a6
    5320:	40000737          	lui	a4,0x40000
    5324:	aac43c23          	sd	a2,-1352(s0)
    5328:	00065463          	bgez	a2,5330 <.LBB52_274>
    532c:	c0000737          	lui	a4,0xc0000

0000000000005330 <.LBB52_274>:
    5330:	a8e43823          	sd	a4,-1392(s0)
    5334:	ac043703          	ld	a4,-1344(s0)
    5338:	00001637          	lui	a2,0x1
    533c:	40c40633          	sub	a2,s0,a2
    5340:	6b863603          	ld	a2,1720(a2) # 16b8 <.LBB52_5+0x2dc>
    5344:	00c70733          	add	a4,a4,a2
    5348:	00001637          	lui	a2,0x1
    534c:	40c40633          	sub	a2,s0,a2
    5350:	6b063603          	ld	a2,1712(a2) # 16b0 <.LBB52_5+0x2d4>
    5354:	00c70733          	add	a4,a4,a2
    5358:	4015083b          	subw	a6,a0,ra
    535c:	4107063b          	subw	a2,a4,a6
    5360:	40000737          	lui	a4,0x40000
    5364:	aac43023          	sd	a2,-1376(s0)
    5368:	00065463          	bgez	a2,5370 <.LBB52_276>
    536c:	c0000737          	lui	a4,0xc0000

0000000000005370 <.LBB52_276>:
    5370:	a4e43423          	sd	a4,-1464(s0)
    5374:	ac843703          	ld	a4,-1336(s0)
    5378:	00001637          	lui	a2,0x1
    537c:	40c40633          	sub	a2,s0,a2
    5380:	6a863603          	ld	a2,1704(a2) # 16a8 <.LBB52_5+0x2cc>
    5384:	00c70733          	add	a4,a4,a2
    5388:	00001637          	lui	a2,0x1
    538c:	40c40633          	sub	a2,s0,a2
    5390:	6a063603          	ld	a2,1696(a2) # 16a0 <.LBB52_5+0x2c4>
    5394:	00c70733          	add	a4,a4,a2
    5398:	4015083b          	subw	a6,a0,ra
