
code.o:     file format elf64-littleriscv


Disassembly of section .text.main_dispatch_24_pooling_nhwc_sum_1x56x56x144x3x3_i8xi32xi32:

0000000000000000 <main_dispatch_24_pooling_nhwc_sum_1x56x56x144x3x3_i8xi32xi32>:
   0:	d2010113          	addi	sp,sp,-736
   4:	2c113c23          	sd	ra,728(sp)
   8:	2c813823          	sd	s0,720(sp)
   c:	2c913423          	sd	s1,712(sp)
  10:	2d213023          	sd	s2,704(sp)
  14:	2b313c23          	sd	s3,696(sp)
  18:	2b413823          	sd	s4,688(sp)
  1c:	2b513423          	sd	s5,680(sp)
  20:	2b613023          	sd	s6,672(sp)
  24:	29713c23          	sd	s7,664(sp)
  28:	29813823          	sd	s8,656(sp)
  2c:	29913423          	sd	s9,648(sp)
  30:	29a13023          	sd	s10,640(sp)
  34:	27b13c23          	sd	s11,632(sp)
  38:	2e010413          	addi	s0,sp,736
  3c:	0205b503          	ld	a0,32(a1)
  40:	00000693          	li	a3,0
  44:	00853583          	ld	a1,8(a0)
  48:	00053503          	ld	a0,0(a0)
  4c:	002b3637          	lui	a2,0x2b3
  50:	f406061b          	addiw	a2,a2,-192 # 2b2f40 <.Lfunc_end80+0x28a578>
  54:	00c585b3          	add	a1,a1,a2
  58:	d2b43023          	sd	a1,-736(s0)
  5c:	000845b7          	lui	a1,0x84
  60:	dd05859b          	addiw	a1,a1,-560 # 83dd0 <.Lfunc_end80+0x5b408>
  64:	00b507b3          	add	a5,a0,a1
  68:	00002537          	lui	a0,0x2
  6c:	0a05081b          	addiw	a6,a0,160 # 20a0 <.LBB28_4+0x38c>
  70:	db043023          	sd	a6,-608(s0)

0000000000000074 <.LBB24_1>:
  74:	00000513          	li	a0,0
  78:	00969593          	slli	a1,a3,0x9
  7c:	d2d43823          	sd	a3,-720(s0)
  80:	00f69613          	slli	a2,a3,0xf
  84:	40b60633          	sub	a2,a2,a1
  88:	d2043583          	ld	a1,-736(s0)
  8c:	00c585b3          	add	a1,a1,a2
  90:	d2b43c23          	sd	a1,-712(s0)
  94:	d2f43423          	sd	a5,-728(s0)

0000000000000098 <.LBB24_2>:
  98:	00000693          	li	a3,0
  9c:	00050593          	mv	a1,a0
  a0:	24000513          	li	a0,576
  a4:	d4b43023          	sd	a1,-704(s0)
  a8:	02a58533          	mul	a0,a1,a0
  ac:	d3843583          	ld	a1,-712(s0)
  b0:	00a58533          	add	a0,a1,a0
  b4:	24050593          	addi	a1,a0,576
  b8:	d8b43023          	sd	a1,-640(s0)
  bc:	48050593          	addi	a1,a0,1152
  c0:	d6b43c23          	sd	a1,-648(s0)
  c4:	6c050593          	addi	a1,a0,1728
  c8:	d6b43823          	sd	a1,-656(s0)
  cc:	d8a43423          	sd	a0,-632(s0)
  d0:	7ff50513          	addi	a0,a0,2047
  d4:	10150593          	addi	a1,a0,257
  d8:	d6b43423          	sd	a1,-664(s0)
  dc:	34150593          	addi	a1,a0,833
  e0:	d6b43023          	sd	a1,-672(s0)
  e4:	58150593          	addi	a1,a0,1409
  e8:	d4b43c23          	sd	a1,-680(s0)
  ec:	7c150513          	addi	a0,a0,1985
  f0:	d4a43823          	sd	a0,-688(s0)
  f4:	d4f43423          	sd	a5,-696(s0)

00000000000000f8 <.LBB24_3>:
  f8:	00000613          	li	a2,0
  fc:	e6043823          	sd	zero,-400(s0)
 100:	00000d13          	li	s10,0
 104:	e6043023          	sd	zero,-416(s0)
 108:	e4043c23          	sd	zero,-424(s0)
 10c:	e4043823          	sd	zero,-432(s0)
 110:	e4043423          	sd	zero,-440(s0)
 114:	e4043023          	sd	zero,-448(s0)
 118:	00000993          	li	s3,0
 11c:	00000a13          	li	s4,0
 120:	e6043c23          	sd	zero,-392(s0)
 124:	00000a93          	li	s5,0
 128:	00000b93          	li	s7,0
 12c:	ec043023          	sd	zero,-320(s0)
 130:	e8043823          	sd	zero,-368(s0)
 134:	e8043423          	sd	zero,-376(s0)
 138:	00000b13          	li	s6,0
 13c:	ea043c23          	sd	zero,-328(s0)
 140:	e8043023          	sd	zero,-384(s0)
 144:	ea043823          	sd	zero,-336(s0)
 148:	ee043c23          	sd	zero,-264(s0)
 14c:	ea043423          	sd	zero,-344(s0)
 150:	ee043823          	sd	zero,-272(s0)
 154:	ea043023          	sd	zero,-352(s0)
 158:	f8043423          	sd	zero,-120(s0)
 15c:	ee043423          	sd	zero,-280(s0)
 160:	e8043c23          	sd	zero,-360(s0)
 164:	ee043023          	sd	zero,-288(s0)
 168:	f2043823          	sd	zero,-208(s0)
 16c:	ec043c23          	sd	zero,-296(s0)
 170:	f2043423          	sd	zero,-216(s0)
 174:	ec043823          	sd	zero,-304(s0)
 178:	f8043823          	sd	zero,-112(s0)
 17c:	f2043023          	sd	zero,-224(s0)
 180:	ec043423          	sd	zero,-312(s0)
 184:	f0043c23          	sd	zero,-232(s0)
 188:	f6043423          	sd	zero,-152(s0)
 18c:	f0043823          	sd	zero,-240(s0)
 190:	f6043023          	sd	zero,-160(s0)
 194:	f0043423          	sd	zero,-248(s0)
 198:	00000c93          	li	s9,0
 19c:	f4043c23          	sd	zero,-168(s0)
 1a0:	f0043023          	sd	zero,-256(s0)
 1a4:	f4043823          	sd	zero,-176(s0)
 1a8:	00000093          	li	ra,0
 1ac:	f4043423          	sd	zero,-184(s0)
 1b0:	f8043023          	sd	zero,-128(s0)
 1b4:	f4043023          	sd	zero,-192(s0)
 1b8:	e6043423          	sd	zero,-408(s0)
 1bc:	00000d93          	li	s11,0
 1c0:	f2043c23          	sd	zero,-200(s0)
 1c4:	f6043c23          	sd	zero,-136(s0)
 1c8:	00000c13          	li	s8,0
 1cc:	f6043823          	sd	zero,-144(s0)
 1d0:	00000e93          	li	t4,0
 1d4:	00000393          	li	t2,0
 1d8:	00000493          	li	s1,0
 1dc:	00000893          	li	a7,0
 1e0:	00000913          	li	s2,0
 1e4:	00000313          	li	t1,0
 1e8:	00000f93          	li	t6,0
 1ec:	00000f13          	li	t5,0
 1f0:	00000293          	li	t0,0
 1f4:	00000e13          	li	t3,0
 1f8:	d8d43823          	sd	a3,-624(s0)
 1fc:	ffd00693          	li	a3,-3
 200:	d8f43c23          	sd	a5,-616(s0)

0000000000000204 <.LBB24_4>:
 204:	db843423          	sd	s8,-600(s0)
 208:	da143823          	sd	ra,-592(s0)
 20c:	ddf43423          	sd	t6,-568(s0)
 210:	ddb43823          	sd	s11,-560(s0)
 214:	dfe43023          	sd	t5,-544(s0)
 218:	e1243023          	sd	s2,-512(s0)
 21c:	e0943423          	sd	s1,-504(s0)
 220:	e0743823          	sd	t2,-496(s0)
 224:	e1d43c23          	sd	t4,-488(s0)
 228:	e2643023          	sd	t1,-480(s0)
 22c:	e3143423          	sd	a7,-472(s0)
 230:	e3c43823          	sd	t3,-464(s0)
 234:	e2543c23          	sd	t0,-456(s0)
 238:	d3278703          	lb	a4,-718(a5)
 23c:	00ed0733          	add	a4,s10,a4
 240:	d3178d03          	lb	s10,-719(a5)
 244:	d3078583          	lb	a1,-720(a5)
 248:	d3378803          	lb	a6,-717(a5)
 24c:	d3478883          	lb	a7,-716(a5)
 250:	e7043503          	ld	a0,-400(s0)
 254:	01a50533          	add	a0,a0,s10
 258:	00b602b3          	add	t0,a2,a1
 25c:	e6043e03          	ld	t3,-416(s0)
 260:	010e0e33          	add	t3,t3,a6
 264:	e5843e83          	ld	t4,-424(s0)
 268:	011e8eb3          	add	t4,t4,a7
 26c:	d3778583          	lb	a1,-713(a5)
 270:	d3578803          	lb	a6,-715(a5)
 274:	d3678303          	lb	t1,-714(a5)
 278:	dc078383          	lb	t2,-576(a5)
 27c:	e5078883          	lb	a7,-432(a5)
 280:	e5043d83          	ld	s11,-432(s0)
 284:	010d8db3          	add	s11,s11,a6
 288:	e4843083          	ld	ra,-440(s0)
 28c:	006080b3          	add	ra,ra,t1
 290:	e4043603          	ld	a2,-448(s0)
 294:	00b60633          	add	a2,a2,a1
 298:	007883b3          	add	t2,a7,t2
 29c:	ee078303          	lb	t1,-288(a5)
 2a0:	dc178803          	lb	a6,-575(a5)
 2a4:	e5178583          	lb	a1,-431(a5)
 2a8:	005382b3          	add	t0,t2,t0
 2ac:	de543c23          	sd	t0,-520(s0)
 2b0:	006982b3          	add	t0,s3,t1
 2b4:	005382b3          	add	t0,t2,t0
 2b8:	de543823          	sd	t0,-528(s0)
 2bc:	010582b3          	add	t0,a1,a6
 2c0:	ee178803          	lb	a6,-287(a5)
 2c4:	dc278383          	lb	t2,-574(a5)
 2c8:	e5278483          	lb	s1,-430(a5)
 2cc:	00a28533          	add	a0,t0,a0
 2d0:	e6a43823          	sd	a0,-400(s0)
 2d4:	010a0533          	add	a0,s4,a6
 2d8:	00a28533          	add	a0,t0,a0
 2dc:	dea43423          	sd	a0,-536(s0)
 2e0:	007483b3          	add	t2,s1,t2
 2e4:	ee278283          	lb	t0,-286(a5)
 2e8:	dc378503          	lb	a0,-573(a5)
 2ec:	e5378903          	lb	s2,-429(a5)
 2f0:	00e38733          	add	a4,t2,a4
 2f4:	dae43c23          	sd	a4,-584(s0)
 2f8:	e7843703          	ld	a4,-392(s0)
 2fc:	00570733          	add	a4,a4,t0
 300:	00e38733          	add	a4,t2,a4
 304:	e6e43c23          	sd	a4,-392(s0)
 308:	00a90533          	add	a0,s2,a0
 30c:	ee378383          	lb	t2,-285(a5)
 310:	dc478703          	lb	a4,-572(a5)
 314:	e5478a03          	lb	s4,-428(a5)
 318:	01c50e33          	add	t3,a0,t3
 31c:	e7c43023          	sd	t3,-416(s0)
 320:	007a8e33          	add	t3,s5,t2
 324:	01c50533          	add	a0,a0,t3
 328:	dca43c23          	sd	a0,-552(s0)
 32c:	00ea0533          	add	a0,s4,a4
 330:	ee478703          	lb	a4,-284(a5)
 334:	dc578e03          	lb	t3,-571(a5)
 338:	e5578a83          	lb	s5,-427(a5)
 33c:	01d50eb3          	add	t4,a0,t4
 340:	e5d43c23          	sd	t4,-424(s0)
 344:	00eb8eb3          	add	t4,s7,a4
 348:	01d50533          	add	a0,a0,t4
 34c:	dca43023          	sd	a0,-576(s0)
 350:	01ca8e33          	add	t3,s5,t3
 354:	ee578e83          	lb	t4,-283(a5)
 358:	dc678503          	lb	a0,-570(a5)
 35c:	e5678c03          	lb	s8,-426(a5)
 360:	01be0db3          	add	s11,t3,s11
 364:	e5b43823          	sd	s11,-432(s0)
 368:	ec043f03          	ld	t5,-320(s0)
 36c:	01df0f33          	add	t5,t5,t4
 370:	01ee0e33          	add	t3,t3,t5
 374:	edc43023          	sd	t3,-320(s0)
 378:	00ac0533          	add	a0,s8,a0
 37c:	ee678f03          	lb	t5,-282(a5)
 380:	001500b3          	add	ra,a0,ra
 384:	e4143423          	sd	ra,-440(s0)
 388:	dc778e03          	lb	t3,-569(a5)
 38c:	000c8093          	mv	ra,s9
 390:	e5778c83          	lb	s9,-425(a5)
 394:	e9043983          	ld	s3,-368(s0)
 398:	01e989b3          	add	s3,s3,t5
 39c:	ee778f83          	lb	t6,-281(a5)
 3a0:	01350533          	add	a0,a0,s3
 3a4:	e8a43823          	sd	a0,-368(s0)
 3a8:	01cc8e33          	add	t3,s9,t3
 3ac:	00ce0633          	add	a2,t3,a2
 3b0:	e4c43023          	sd	a2,-448(s0)
 3b4:	e8843983          	ld	s3,-376(s0)
 3b8:	01f989b3          	add	s3,s3,t6
 3bc:	f7078503          	lb	a0,-144(a5)
 3c0:	013e0e33          	add	t3,t3,s3
 3c4:	e9c43423          	sd	t3,-376(s0)
 3c8:	011308b3          	add	a7,t1,a7
 3cc:	f7178e03          	lb	t3,-143(a5)
 3d0:	00ab09b3          	add	s3,s6,a0
 3d4:	01388633          	add	a2,a7,s3
 3d8:	00b805b3          	add	a1,a6,a1
 3dc:	eb843883          	ld	a7,-328(s0)
 3e0:	01c888b3          	add	a7,a7,t3
 3e4:	f7278b83          	lb	s7,-142(a5)
 3e8:	011585b3          	add	a1,a1,a7
 3ec:	eab43c23          	sd	a1,-328(s0)
 3f0:	009284b3          	add	s1,t0,s1
 3f4:	f7378983          	lb	s3,-141(a5)
 3f8:	e8043583          	ld	a1,-384(s0)
 3fc:	017585b3          	add	a1,a1,s7
 400:	00b485b3          	add	a1,s1,a1
 404:	e8b43023          	sd	a1,-384(s0)
 408:	01238933          	add	s2,t2,s2
 40c:	eb043583          	ld	a1,-336(s0)
 410:	013585b3          	add	a1,a1,s3
 414:	f7478b03          	lb	s6,-140(a5)
 418:	00b905b3          	add	a1,s2,a1
 41c:	eab43823          	sd	a1,-336(s0)
 420:	01470a33          	add	s4,a4,s4
 424:	f7578903          	lb	s2,-139(a5)
 428:	ef843583          	ld	a1,-264(s0)
 42c:	016585b3          	add	a1,a1,s6
 430:	00ba05b3          	add	a1,s4,a1
 434:	eeb43c23          	sd	a1,-264(s0)
 438:	015e85b3          	add	a1,t4,s5
 43c:	ea843883          	ld	a7,-344(s0)
 440:	012888b3          	add	a7,a7,s2
 444:	f7678a83          	lb	s5,-138(a5)
 448:	011585b3          	add	a1,a1,a7
 44c:	eab43423          	sd	a1,-344(s0)
 450:	018f0c33          	add	s8,t5,s8
 454:	f7778483          	lb	s1,-137(a5)
 458:	ef043583          	ld	a1,-272(s0)
 45c:	015585b3          	add	a1,a1,s5
 460:	00bc05b3          	add	a1,s8,a1
 464:	eeb43823          	sd	a1,-272(s0)
 468:	019f85b3          	add	a1,t6,s9
 46c:	ea043883          	ld	a7,-352(s0)
 470:	009888b3          	add	a7,a7,s1
 474:	00078c83          	lb	s9,0(a5)
 478:	011585b3          	add	a1,a1,a7
 47c:	eab43023          	sd	a1,-352(s0)
 480:	006505b3          	add	a1,a0,t1
 484:	00178303          	lb	t1,1(a5)
 488:	f8843883          	ld	a7,-120(s0)
 48c:	019888b3          	add	a7,a7,s9
 490:	011585b3          	add	a1,a1,a7
 494:	f8b43423          	sd	a1,-120(s0)
 498:	010e0833          	add	a6,t3,a6
 49c:	ee843583          	ld	a1,-280(s0)
 4a0:	006585b3          	add	a1,a1,t1
 4a4:	00278c03          	lb	s8,2(a5)
 4a8:	00b805b3          	add	a1,a6,a1
 4ac:	eeb43423          	sd	a1,-280(s0)
 4b0:	005b82b3          	add	t0,s7,t0
 4b4:	00378a03          	lb	s4,3(a5)
 4b8:	e9843583          	ld	a1,-360(s0)
 4bc:	018585b3          	add	a1,a1,s8
 4c0:	00b285b3          	add	a1,t0,a1
 4c4:	e8b43c23          	sd	a1,-360(s0)
 4c8:	007983b3          	add	t2,s3,t2
 4cc:	ee043583          	ld	a1,-288(s0)
 4d0:	014585b3          	add	a1,a1,s4
 4d4:	00478883          	lb	a7,4(a5)
 4d8:	00b385b3          	add	a1,t2,a1
 4dc:	eeb43023          	sd	a1,-288(s0)
 4e0:	00eb0733          	add	a4,s6,a4
 4e4:	00578283          	lb	t0,5(a5)
 4e8:	f3043583          	ld	a1,-208(s0)
 4ec:	011585b3          	add	a1,a1,a7
 4f0:	00b705b3          	add	a1,a4,a1
 4f4:	f2b43823          	sd	a1,-208(s0)
 4f8:	01d90eb3          	add	t4,s2,t4
 4fc:	ed843703          	ld	a4,-296(s0)
 500:	00570733          	add	a4,a4,t0
 504:	00678583          	lb	a1,6(a5)
 508:	00ee8733          	add	a4,t4,a4
 50c:	ece43c23          	sd	a4,-296(s0)
 510:	01ea8f33          	add	t5,s5,t5
 514:	00778803          	lb	a6,7(a5)
 518:	f2843703          	ld	a4,-216(s0)
 51c:	00b70733          	add	a4,a4,a1
 520:	00ef0733          	add	a4,t5,a4
 524:	f2e43423          	sd	a4,-216(s0)
 528:	01f48fb3          	add	t6,s1,t6
 52c:	ed043703          	ld	a4,-304(s0)
 530:	01070733          	add	a4,a4,a6
 534:	09078d03          	lb	s10,144(a5)
 538:	00ef8733          	add	a4,t6,a4
 53c:	ece43823          	sd	a4,-304(s0)
 540:	00ac8533          	add	a0,s9,a0
 544:	09178703          	lb	a4,145(a5)
 548:	f9043383          	ld	t2,-112(s0)
 54c:	01a383b3          	add	t2,t2,s10
 550:	00750533          	add	a0,a0,t2
 554:	f8a43823          	sd	a0,-112(s0)
 558:	01c30e33          	add	t3,t1,t3
 55c:	f2043503          	ld	a0,-224(s0)
 560:	00e50533          	add	a0,a0,a4
 564:	09278f83          	lb	t6,146(a5)
 568:	00ae0533          	add	a0,t3,a0
 56c:	f2a43023          	sd	a0,-224(s0)
 570:	017c0bb3          	add	s7,s8,s7
 574:	09378e83          	lb	t4,147(a5)
 578:	ec843503          	ld	a0,-312(s0)
 57c:	01f50533          	add	a0,a0,t6
 580:	00ab8533          	add	a0,s7,a0
 584:	eca43423          	sd	a0,-312(s0)
 588:	013a09b3          	add	s3,s4,s3
 58c:	f1843503          	ld	a0,-232(s0)
 590:	01d50533          	add	a0,a0,t4
 594:	09478f03          	lb	t5,148(a5)
 598:	00a98533          	add	a0,s3,a0
 59c:	f0a43c23          	sd	a0,-232(s0)
 5a0:	01688b33          	add	s6,a7,s6
 5a4:	09578e03          	lb	t3,149(a5)
 5a8:	f6843503          	ld	a0,-152(s0)
 5ac:	01e50533          	add	a0,a0,t5
 5b0:	00ab0533          	add	a0,s6,a0
 5b4:	f6a43423          	sd	a0,-152(s0)
 5b8:	01228933          	add	s2,t0,s2
 5bc:	f1043383          	ld	t2,-240(s0)
 5c0:	01c383b3          	add	t2,t2,t3
 5c4:	09678503          	lb	a0,150(a5)
 5c8:	007903b3          	add	t2,s2,t2
 5cc:	f0743823          	sd	t2,-240(s0)
 5d0:	01558ab3          	add	s5,a1,s5
 5d4:	09778383          	lb	t2,151(a5)
 5d8:	f6043903          	ld	s2,-160(s0)
 5dc:	00a90933          	add	s2,s2,a0
 5e0:	012a8933          	add	s2,s5,s2
 5e4:	f7243023          	sd	s2,-160(s0)
 5e8:	00980933          	add	s2,a6,s1
 5ec:	f0843983          	ld	s3,-248(s0)
 5f0:	007989b3          	add	s3,s3,t2
 5f4:	12078483          	lb	s1,288(a5)
 5f8:	01390933          	add	s2,s2,s3
 5fc:	f1243423          	sd	s2,-248(s0)
 600:	019d0cb3          	add	s9,s10,s9
 604:	12178903          	lb	s2,289(a5)
 608:	009089b3          	add	s3,ra,s1
 60c:	013c8cb3          	add	s9,s9,s3
 610:	006709b3          	add	s3,a4,t1
 614:	f5843a83          	ld	s5,-168(s0)
 618:	012a8ab3          	add	s5,s5,s2
 61c:	12278303          	lb	t1,290(a5)
 620:	015989b3          	add	s3,s3,s5
 624:	f5343c23          	sd	s3,-168(s0)
 628:	018f8c33          	add	s8,t6,s8
 62c:	12378983          	lb	s3,291(a5)
 630:	f0043a83          	ld	s5,-256(s0)
 634:	006a8ab3          	add	s5,s5,t1
 638:	015c0ab3          	add	s5,s8,s5
 63c:	f1543023          	sd	s5,-256(s0)
 640:	014e8ab3          	add	s5,t4,s4
 644:	f5043b03          	ld	s6,-176(s0)
 648:	013b0b33          	add	s6,s6,s3
 64c:	12478a03          	lb	s4,292(a5)
 650:	016a8ab3          	add	s5,s5,s6
 654:	f5543823          	sd	s5,-176(s0)
 658:	011f0ab3          	add	s5,t5,a7
 65c:	12578883          	lb	a7,293(a5)
 660:	db043b03          	ld	s6,-592(s0)
 664:	014b0b33          	add	s6,s6,s4
 668:	016a80b3          	add	ra,s5,s6
 66c:	005e0ab3          	add	s5,t3,t0
 670:	f4843b03          	ld	s6,-184(s0)
 674:	011b0b33          	add	s6,s6,a7
 678:	12678283          	lb	t0,294(a5)
 67c:	016a8ab3          	add	s5,s5,s6
 680:	f5543423          	sd	s5,-184(s0)
 684:	00b505b3          	add	a1,a0,a1
 688:	12778a83          	lb	s5,295(a5)
 68c:	f8043b03          	ld	s6,-128(s0)
 690:	005b0b33          	add	s6,s6,t0
 694:	016585b3          	add	a1,a1,s6
 698:	f8b43023          	sd	a1,-128(s0)
 69c:	01038833          	add	a6,t2,a6
 6a0:	f4043583          	ld	a1,-192(s0)
 6a4:	015585b3          	add	a1,a1,s5
 6a8:	1b078b03          	lb	s6,432(a5)
 6ac:	00b805b3          	add	a1,a6,a1
 6b0:	f4b43023          	sd	a1,-192(s0)
 6b4:	01a48d33          	add	s10,s1,s10
 6b8:	1b178583          	lb	a1,433(a5)
 6bc:	e6843803          	ld	a6,-408(s0)
 6c0:	01680833          	add	a6,a6,s6
 6c4:	010d0833          	add	a6,s10,a6
 6c8:	db843d03          	ld	s10,-584(s0)
 6cc:	e7043423          	sd	a6,-408(s0)
 6d0:	00e90733          	add	a4,s2,a4
 6d4:	dd043803          	ld	a6,-560(s0)
 6d8:	00b80833          	add	a6,a6,a1
 6dc:	1b278b83          	lb	s7,434(a5)
 6e0:	01070db3          	add	s11,a4,a6
 6e4:	01f30fb3          	add	t6,t1,t6
 6e8:	1b378703          	lb	a4,435(a5)
 6ec:	f3843803          	ld	a6,-200(s0)
 6f0:	01780833          	add	a6,a6,s7
 6f4:	010f8833          	add	a6,t6,a6
 6f8:	f3043c23          	sd	a6,-200(s0)
 6fc:	01d98eb3          	add	t4,s3,t4
 700:	f7843803          	ld	a6,-136(s0)
 704:	00e80833          	add	a6,a6,a4
 708:	1b478f83          	lb	t6,436(a5)
 70c:	010e8833          	add	a6,t4,a6
 710:	f7043c23          	sd	a6,-136(s0)
 714:	01ea0f33          	add	t5,s4,t5
 718:	1b578803          	lb	a6,437(a5)
 71c:	da843e83          	ld	t4,-600(s0)
 720:	01fe8eb3          	add	t4,t4,t6
 724:	01df0c33          	add	s8,t5,t4
 728:	01c88e33          	add	t3,a7,t3
 72c:	f7043e83          	ld	t4,-144(s0)
 730:	010e8eb3          	add	t4,t4,a6
 734:	1b678f03          	lb	t5,438(a5)
 738:	01de0e33          	add	t3,t3,t4
 73c:	f7c43823          	sd	t3,-144(s0)
 740:	00a28533          	add	a0,t0,a0
 744:	1b778e03          	lb	t3,439(a5)
 748:	e1843e83          	ld	t4,-488(s0)
 74c:	01ee8eb3          	add	t4,t4,t5
 750:	01d50eb3          	add	t4,a0,t4
 754:	007a83b3          	add	t2,s5,t2
 758:	e1043503          	ld	a0,-496(s0)
 75c:	01c50533          	add	a0,a0,t3
 760:	00a383b3          	add	t2,t2,a0
 764:	009b04b3          	add	s1,s6,s1
 768:	00060b13          	mv	s6,a2
 76c:	df843603          	ld	a2,-520(s0)
 770:	012585b3          	add	a1,a1,s2
 774:	006b8333          	add	t1,s7,t1
 778:	dc043b83          	ld	s7,-576(s0)
 77c:	01370733          	add	a4,a4,s3
 780:	df043983          	ld	s3,-528(s0)
 784:	014f8fb3          	add	t6,t6,s4
 788:	de843a03          	ld	s4,-536(s0)
 78c:	01180833          	add	a6,a6,a7
 790:	24078503          	lb	a0,576(a5)
 794:	005f02b3          	add	t0,t5,t0
 798:	015e0e33          	add	t3,t3,s5
 79c:	dd843a83          	ld	s5,-552(s0)
 7a0:	24178883          	lb	a7,577(a5)
 7a4:	e0843f03          	ld	t5,-504(s0)
 7a8:	00af0533          	add	a0,t5,a0
 7ac:	00a484b3          	add	s1,s1,a0
 7b0:	24278503          	lb	a0,578(a5)
 7b4:	e2843f03          	ld	t5,-472(s0)
 7b8:	011f08b3          	add	a7,t5,a7
 7bc:	011588b3          	add	a7,a1,a7
 7c0:	24378583          	lb	a1,579(a5)
 7c4:	e0043f03          	ld	t5,-512(s0)
 7c8:	00af0533          	add	a0,t5,a0
 7cc:	00a30933          	add	s2,t1,a0
 7d0:	24478503          	lb	a0,580(a5)
 7d4:	e2043303          	ld	t1,-480(s0)
 7d8:	00b305b3          	add	a1,t1,a1
 7dc:	00b70333          	add	t1,a4,a1
 7e0:	24578583          	lb	a1,581(a5)
 7e4:	dc843703          	ld	a4,-568(s0)
 7e8:	00a70533          	add	a0,a4,a0
 7ec:	00af8fb3          	add	t6,t6,a0
 7f0:	24678503          	lb	a0,582(a5)
 7f4:	de043703          	ld	a4,-544(s0)
 7f8:	00b705b3          	add	a1,a4,a1
 7fc:	24778703          	lb	a4,583(a5)
 800:	00b80f33          	add	t5,a6,a1
 804:	da043803          	ld	a6,-608(s0)
 808:	e3843583          	ld	a1,-456(s0)
 80c:	00a58533          	add	a0,a1,a0
 810:	00a282b3          	add	t0,t0,a0
 814:	e3043503          	ld	a0,-464(s0)
 818:	00e50733          	add	a4,a0,a4
 81c:	00ee0e33          	add	t3,t3,a4
 820:	00168693          	addi	a3,a3,1
 824:	010787b3          	add	a5,a5,a6
 828:	9c069ee3          	bnez	a3,204 <.LBB24_4>
 82c:	d9043703          	ld	a4,-624(s0)
 830:	00271513          	slli	a0,a4,0x2
 834:	d8843583          	ld	a1,-632(s0)
 838:	00a585b3          	add	a1,a1,a0
 83c:	01a5a423          	sw	s10,8(a1)
 840:	e7043683          	ld	a3,-400(s0)
 844:	00d5a223          	sw	a3,4(a1)
 848:	00c5a023          	sw	a2,0(a1)
 84c:	e6043603          	ld	a2,-416(s0)
 850:	00c5a623          	sw	a2,12(a1)
 854:	e5843603          	ld	a2,-424(s0)
 858:	00c5a823          	sw	a2,16(a1)
 85c:	e5043603          	ld	a2,-432(s0)
 860:	00c5aa23          	sw	a2,20(a1)
 864:	e4843603          	ld	a2,-440(s0)
 868:	00c5ac23          	sw	a2,24(a1)
 86c:	e4043603          	ld	a2,-448(s0)
 870:	00c5ae23          	sw	a2,28(a1)
 874:	d8043583          	ld	a1,-640(s0)
 878:	00a585b3          	add	a1,a1,a0
 87c:	e7843603          	ld	a2,-392(s0)
 880:	00c5a423          	sw	a2,8(a1)
 884:	0145a223          	sw	s4,4(a1)
 888:	0135a023          	sw	s3,0(a1)
 88c:	0155a623          	sw	s5,12(a1)
 890:	0175a823          	sw	s7,16(a1)
 894:	ec043603          	ld	a2,-320(s0)
 898:	00c5aa23          	sw	a2,20(a1)
 89c:	e9043603          	ld	a2,-368(s0)
 8a0:	00c5ac23          	sw	a2,24(a1)
 8a4:	e8843603          	ld	a2,-376(s0)
 8a8:	00c5ae23          	sw	a2,28(a1)
 8ac:	d7843583          	ld	a1,-648(s0)
 8b0:	00a585b3          	add	a1,a1,a0
 8b4:	e8043603          	ld	a2,-384(s0)
 8b8:	00c5a423          	sw	a2,8(a1)
 8bc:	eb843603          	ld	a2,-328(s0)
 8c0:	00c5a223          	sw	a2,4(a1)
 8c4:	0165a023          	sw	s6,0(a1)
 8c8:	eb043603          	ld	a2,-336(s0)
 8cc:	00c5a623          	sw	a2,12(a1)
 8d0:	ef843603          	ld	a2,-264(s0)
 8d4:	00c5a823          	sw	a2,16(a1)
 8d8:	ea843603          	ld	a2,-344(s0)
 8dc:	00c5aa23          	sw	a2,20(a1)
 8e0:	ef043603          	ld	a2,-272(s0)
 8e4:	00c5ac23          	sw	a2,24(a1)
 8e8:	ea043603          	ld	a2,-352(s0)
 8ec:	00c5ae23          	sw	a2,28(a1)
 8f0:	d7043583          	ld	a1,-656(s0)
 8f4:	00a585b3          	add	a1,a1,a0
 8f8:	e9843603          	ld	a2,-360(s0)
 8fc:	00c5a423          	sw	a2,8(a1)
 900:	ee843603          	ld	a2,-280(s0)
 904:	00c5a223          	sw	a2,4(a1)
 908:	f8843603          	ld	a2,-120(s0)
 90c:	00c5a023          	sw	a2,0(a1)
 910:	ee043603          	ld	a2,-288(s0)
 914:	00c5a623          	sw	a2,12(a1)
 918:	f3043603          	ld	a2,-208(s0)
 91c:	00c5a823          	sw	a2,16(a1)
 920:	ed843603          	ld	a2,-296(s0)
 924:	00c5aa23          	sw	a2,20(a1)
 928:	f2843603          	ld	a2,-216(s0)
 92c:	00c5ac23          	sw	a2,24(a1)
 930:	ed043603          	ld	a2,-304(s0)
 934:	00c5ae23          	sw	a2,28(a1)
 938:	d6843583          	ld	a1,-664(s0)
 93c:	00a585b3          	add	a1,a1,a0
 940:	ec843603          	ld	a2,-312(s0)
 944:	00c5a423          	sw	a2,8(a1)
 948:	f2043603          	ld	a2,-224(s0)
 94c:	00c5a223          	sw	a2,4(a1)
 950:	f9043603          	ld	a2,-112(s0)
 954:	00c5a023          	sw	a2,0(a1)
 958:	f1843603          	ld	a2,-232(s0)
 95c:	00c5a623          	sw	a2,12(a1)
 960:	f6843603          	ld	a2,-152(s0)
 964:	00c5a823          	sw	a2,16(a1)
 968:	f1043603          	ld	a2,-240(s0)
 96c:	00c5aa23          	sw	a2,20(a1)
 970:	f6043603          	ld	a2,-160(s0)
 974:	00c5ac23          	sw	a2,24(a1)
 978:	f0843603          	ld	a2,-248(s0)
 97c:	00c5ae23          	sw	a2,28(a1)
 980:	d6043583          	ld	a1,-672(s0)
 984:	00a585b3          	add	a1,a1,a0
 988:	f0043603          	ld	a2,-256(s0)
 98c:	00c5a423          	sw	a2,8(a1)
 990:	f5843603          	ld	a2,-168(s0)
 994:	00c5a223          	sw	a2,4(a1)
 998:	0195a023          	sw	s9,0(a1)
 99c:	f5043603          	ld	a2,-176(s0)
 9a0:	00c5a623          	sw	a2,12(a1)
 9a4:	0015a823          	sw	ra,16(a1)
 9a8:	f4843603          	ld	a2,-184(s0)
 9ac:	00c5aa23          	sw	a2,20(a1)
 9b0:	f8043603          	ld	a2,-128(s0)
 9b4:	00c5ac23          	sw	a2,24(a1)
 9b8:	f4043603          	ld	a2,-192(s0)
 9bc:	00c5ae23          	sw	a2,28(a1)
 9c0:	d5843583          	ld	a1,-680(s0)
 9c4:	00a585b3          	add	a1,a1,a0
 9c8:	f3843603          	ld	a2,-200(s0)
 9cc:	00c5a423          	sw	a2,8(a1)
 9d0:	01b5a223          	sw	s11,4(a1)
 9d4:	e6843603          	ld	a2,-408(s0)
 9d8:	00c5a023          	sw	a2,0(a1)
 9dc:	f7843603          	ld	a2,-136(s0)
 9e0:	00c5a623          	sw	a2,12(a1)
 9e4:	0185a823          	sw	s8,16(a1)
 9e8:	f7043603          	ld	a2,-144(s0)
 9ec:	00c5aa23          	sw	a2,20(a1)
 9f0:	01d5ac23          	sw	t4,24(a1)
 9f4:	0075ae23          	sw	t2,28(a1)
 9f8:	d5043583          	ld	a1,-688(s0)
 9fc:	00a58533          	add	a0,a1,a0
 a00:	01252423          	sw	s2,8(a0)
 a04:	01152223          	sw	a7,4(a0)
 a08:	00952023          	sw	s1,0(a0)
 a0c:	00652623          	sw	t1,12(a0)
 a10:	01f52823          	sw	t6,16(a0)
 a14:	01e52a23          	sw	t5,20(a0)
 a18:	00552c23          	sw	t0,24(a0)
 a1c:	01c52e23          	sw	t3,28(a0)
 a20:	00870693          	addi	a3,a4,8
 a24:	d9843783          	ld	a5,-616(s0)
 a28:	00878793          	addi	a5,a5,8
 a2c:	08800513          	li	a0,136
 a30:	eca76463          	bltu	a4,a0,f8 <.LBB24_3>
 a34:	d4043603          	ld	a2,-704(s0)
 a38:	00860513          	addi	a0,a2,8
 a3c:	d4843783          	ld	a5,-696(s0)
 a40:	48078793          	addi	a5,a5,1152
 a44:	03000593          	li	a1,48
 a48:	e4b66863          	bltu	a2,a1,98 <.LBB24_2>
 a4c:	d3043683          	ld	a3,-720(s0)
 a50:	00168693          	addi	a3,a3,1
 a54:	d2843783          	ld	a5,-728(s0)
 a58:	010787b3          	add	a5,a5,a6
 a5c:	03800513          	li	a0,56
 a60:	e0a69a63          	bne	a3,a0,74 <.LBB24_1>
 a64:	00000513          	li	a0,0
 a68:	2d813083          	ld	ra,728(sp)
 a6c:	2d013403          	ld	s0,720(sp)
 a70:	2c813483          	ld	s1,712(sp)
 a74:	2c013903          	ld	s2,704(sp)
 a78:	2b813983          	ld	s3,696(sp)
 a7c:	2b013a03          	ld	s4,688(sp)
 a80:	2a813a83          	ld	s5,680(sp)
 a84:	2a013b03          	ld	s6,672(sp)
 a88:	29813b83          	ld	s7,664(sp)
 a8c:	29013c03          	ld	s8,656(sp)
 a90:	28813c83          	ld	s9,648(sp)
 a94:	28013d03          	ld	s10,640(sp)
 a98:	27813d83          	ld	s11,632(sp)
 a9c:	2e010113          	addi	sp,sp,736
 aa0:	00008067          	ret
