
code.o:     file format elf64-littleriscv


Disassembly of section .text.main_dispatch_27_matmul_3136x24x144_i8xi8xi32:

0000000000000000 <main_dispatch_27_matmul_3136x24x144_i8xi8xi32>:
       0:	81010113          	addi	sp,sp,-2032
       4:	7e113423          	sd	ra,2024(sp)
       8:	7e813023          	sd	s0,2016(sp)
       c:	7c913c23          	sd	s1,2008(sp)
      10:	7d213823          	sd	s2,2000(sp)
      14:	7d313423          	sd	s3,1992(sp)
      18:	7d413023          	sd	s4,1984(sp)
      1c:	7b513c23          	sd	s5,1976(sp)
      20:	7b613823          	sd	s6,1968(sp)
      24:	7b713423          	sd	s7,1960(sp)
      28:	7b813023          	sd	s8,1952(sp)
      2c:	79913c23          	sd	s9,1944(sp)
      30:	79a13823          	sd	s10,1936(sp)
      34:	79b13423          	sd	s11,1928(sp)
      38:	7f010413          	addi	s0,sp,2032
      3c:	00001537          	lui	a0,0x1
      40:	0505051b          	addiw	a0,a0,80 # 1050 <.LBB27_2+0x20>
      44:	40a10133          	sub	sp,sp,a0
      48:	fc017113          	andi	sp,sp,-64
      4c:	0205b503          	ld	a0,32(a1)
      50:	000015b7          	lui	a1,0x1
      54:	00b105b3          	add	a1,sp,a1
      58:	de05bc23          	sd	zero,-520(a1) # df8 <.LBB27_1+0xc20>
      5c:	00853583          	ld	a1,8(a0)
      60:	00053703          	ld	a4,0(a0)
      64:	00024637          	lui	a2,0x24
      68:	9006069b          	addiw	a3,a2,-1792 # 23900 <.LBB60_4533+0x8>
      6c:	00d586b3          	add	a3,a1,a3
      70:	0ed13823          	sd	a3,240(sp)
      74:	6806061b          	addiw	a2,a2,1664
      78:	00c585b3          	add	a1,a1,a2
      7c:	0eb13423          	sd	a1,232(sp)
      80:	000035b7          	lui	a1,0x3
      84:	1005859b          	addiw	a1,a1,256 # 3100 <.LBB27_3+0xb9c>
      88:	01053503          	ld	a0,16(a0)
      8c:	00b705b3          	add	a1,a4,a1
      90:	0eb13023          	sd	a1,224(sp)
      94:	000845b7          	lui	a1,0x84
      98:	b005859b          	addiw	a1,a1,-1280 # 83b00 <.Lfunc_end80+0x5b138>
      9c:	00b50533          	add	a0,a0,a1
      a0:	0ca13c23          	sd	a0,216(sp)

00000000000000a4 <.Lpcrel_hi5>:
      a4:	00000517          	auipc	a0,0x0
      a8:	00050513          	mv	a0,a0
      ac:	05c52583          	lw	a1,92(a0) # 100 <.Lpcrel_hi5+0x5c>
      b0:	3eb13423          	sd	a1,1000(sp)
      b4:	05852583          	lw	a1,88(a0)
      b8:	0cb13823          	sd	a1,208(sp)
      bc:	05452583          	lw	a1,84(a0)
      c0:	0cb13423          	sd	a1,200(sp)
      c4:	05052583          	lw	a1,80(a0)
      c8:	0cb13023          	sd	a1,192(sp)
      cc:	04c52583          	lw	a1,76(a0)
      d0:	0ab13c23          	sd	a1,184(sp)
      d4:	04852583          	lw	a1,72(a0)
      d8:	0ab13823          	sd	a1,176(sp)
      dc:	04452583          	lw	a1,68(a0)
      e0:	0ab13423          	sd	a1,168(sp)
      e4:	04052583          	lw	a1,64(a0)
      e8:	0ab13023          	sd	a1,160(sp)
      ec:	03c52583          	lw	a1,60(a0)
      f0:	08b13c23          	sd	a1,152(sp)
      f4:	03852583          	lw	a1,56(a0)
      f8:	08b13823          	sd	a1,144(sp)
      fc:	03452583          	lw	a1,52(a0)
     100:	08b13423          	sd	a1,136(sp)
     104:	03052583          	lw	a1,48(a0)
     108:	08b13023          	sd	a1,128(sp)
     10c:	02c52583          	lw	a1,44(a0)
     110:	06b13c23          	sd	a1,120(sp)
     114:	02852583          	lw	a1,40(a0)
     118:	06b13823          	sd	a1,112(sp)
     11c:	02452583          	lw	a1,36(a0)
     120:	06b13423          	sd	a1,104(sp)
     124:	02052583          	lw	a1,32(a0)
     128:	06b13023          	sd	a1,96(sp)
     12c:	01c52883          	lw	a7,28(a0)
     130:	01852603          	lw	a2,24(a0)
     134:	01452683          	lw	a3,20(a0)
     138:	01052283          	lw	t0,16(a0)
     13c:	00c52583          	lw	a1,12(a0)
     140:	02b13c23          	sd	a1,56(sp)
     144:	00852583          	lw	a1,8(a0)
     148:	3eb13023          	sd	a1,992(sp)
     14c:	00452583          	lw	a1,4(a0)
     150:	3cb13c23          	sd	a1,984(sp)
     154:	00052503          	lw	a0,0(a0)
     158:	3ca13823          	sd	a0,976(sp)
     15c:	00015537          	lui	a0,0x15
     160:	7005051b          	addiw	a0,a0,1792 # 15700 <.LBB27_1851+0x44>
     164:	0ee13c23          	sd	a4,248(sp)
     168:	00a70733          	add	a4,a4,a0
     16c:	69441537          	lui	a0,0x69441
     170:	8d75051b          	addiw	a0,a0,-1833 # 694408d7 <.Lfunc_end80+0x69417f0f>
     174:	02a13823          	sd	a0,48(sp)
     178:	2bf83537          	lui	a0,0x2bf83
     17c:	9a95051b          	addiw	a0,a0,-1623 # 2bf829a9 <.Lfunc_end80+0x2bf59fe1>
     180:	01551513          	slli	a0,a0,0x15
     184:	000015b7          	lui	a1,0x1
     188:	00b105b3          	add	a1,sp,a1
     18c:	e0a5b423          	sd	a0,-504(a1) # e08 <.LBB27_1+0xc30>
     190:	00300513          	li	a0,3
     194:	01e51513          	slli	a0,a0,0x1e
     198:	02a13423          	sd	a0,40(sp)
     19c:	8bb97537          	lui	a0,0x8bb97
     1a0:	6f15051b          	addiw	a0,a0,1777 # ffffffff8bb976f1 <.Lfunc_end80+0xffffffff8bb6ed29>
     1a4:	01f51513          	slli	a0,a0,0x1f
     1a8:	00a55513          	srli	a0,a0,0xa
     1ac:	000015b7          	lui	a1,0x1
     1b0:	00b105b3          	add	a1,sp,a1
     1b4:	e0a5b023          	sd	a0,-512(a1) # e00 <.LBB27_1+0xc28>
     1b8:	76ea1537          	lui	a0,0x76ea1
     1bc:	3e75031b          	addiw	t1,a0,999 # 76ea13e7 <.Lfunc_end80+0x76e78a1f>
     1c0:	05113c23          	sd	a7,88(sp)
     1c4:	04c13823          	sd	a2,80(sp)
     1c8:	04d13423          	sd	a3,72(sp)
     1cc:	04513023          	sd	t0,64(sp)
     1d0:	02613023          	sd	t1,32(sp)
     1d4:	65d0006f          	j	1030 <.LBB27_2>

00000000000001d8 <.LBB27_1>:
     1d8:	00578513          	addi	a0,a5,5
     1dc:	0d813783          	ld	a5,216(sp)
     1e0:	38813703          	ld	a4,904(sp)
     1e4:	00e78733          	add	a4,a5,a4
     1e8:	00a70023          	sb	a0,0(a4)
     1ec:	00001537          	lui	a0,0x1
     1f0:	00a10533          	add	a0,sp,a0
     1f4:	3f853503          	ld	a0,1016(a0) # 13f8 <.LBB27_2+0x3c8>
     1f8:	00550513          	addi	a0,a0,5
     1fc:	00a700a3          	sb	a0,1(a4)
     200:	00001537          	lui	a0,0x1
     204:	00a10533          	add	a0,sp,a0
     208:	40853503          	ld	a0,1032(a0) # 1408 <.LBB27_2+0x3d8>
     20c:	00550513          	addi	a0,a0,5
     210:	00a70123          	sb	a0,2(a4)
     214:	00001537          	lui	a0,0x1
     218:	00a10533          	add	a0,sp,a0
     21c:	41853503          	ld	a0,1048(a0) # 1418 <.LBB27_2+0x3e8>
     220:	00550513          	addi	a0,a0,5
     224:	00a701a3          	sb	a0,3(a4)
     228:	00001537          	lui	a0,0x1
     22c:	00a10533          	add	a0,sp,a0
     230:	42853503          	ld	a0,1064(a0) # 1428 <.LBB27_2+0x3f8>
     234:	00550513          	addi	a0,a0,5
     238:	00a70223          	sb	a0,4(a4)
     23c:	00001537          	lui	a0,0x1
     240:	00a10533          	add	a0,sp,a0
     244:	43853503          	ld	a0,1080(a0) # 1438 <.LBB27_2+0x408>
     248:	00550513          	addi	a0,a0,5
     24c:	00a702a3          	sb	a0,5(a4)
     250:	00001537          	lui	a0,0x1
     254:	00a10533          	add	a0,sp,a0
     258:	44853503          	ld	a0,1096(a0) # 1448 <.LBB27_2+0x418>
     25c:	00550513          	addi	a0,a0,5
     260:	00a70323          	sb	a0,6(a4)
     264:	00001537          	lui	a0,0x1
     268:	00a10533          	add	a0,sp,a0
     26c:	45853503          	ld	a0,1112(a0) # 1458 <.LBB27_2+0x428>
     270:	00550513          	addi	a0,a0,5
     274:	00a703a3          	sb	a0,7(a4)
     278:	00001537          	lui	a0,0x1
     27c:	00a10533          	add	a0,sp,a0
     280:	46853503          	ld	a0,1128(a0) # 1468 <.LBB27_2+0x438>
     284:	00550513          	addi	a0,a0,5
     288:	00a70423          	sb	a0,8(a4)
     28c:	00001537          	lui	a0,0x1
     290:	00a10533          	add	a0,sp,a0
     294:	47053503          	ld	a0,1136(a0) # 1470 <.LBB27_2+0x440>
     298:	00550513          	addi	a0,a0,5
     29c:	00a704a3          	sb	a0,9(a4)
     2a0:	00001537          	lui	a0,0x1
     2a4:	00a10533          	add	a0,sp,a0
     2a8:	47853503          	ld	a0,1144(a0) # 1478 <.LBB27_2+0x448>
     2ac:	00550513          	addi	a0,a0,5
     2b0:	00a70523          	sb	a0,10(a4)
     2b4:	00001537          	lui	a0,0x1
     2b8:	00a10533          	add	a0,sp,a0
     2bc:	48053503          	ld	a0,1152(a0) # 1480 <.LBB27_2+0x450>
     2c0:	00550513          	addi	a0,a0,5
     2c4:	00a705a3          	sb	a0,11(a4)
     2c8:	00001537          	lui	a0,0x1
     2cc:	00a10533          	add	a0,sp,a0
     2d0:	48853503          	ld	a0,1160(a0) # 1488 <.LBB27_2+0x458>
     2d4:	00550513          	addi	a0,a0,5
     2d8:	00a70623          	sb	a0,12(a4)
     2dc:	00001537          	lui	a0,0x1
     2e0:	00a10533          	add	a0,sp,a0
     2e4:	49053503          	ld	a0,1168(a0) # 1490 <.LBB27_2+0x460>
     2e8:	00550513          	addi	a0,a0,5
     2ec:	00a706a3          	sb	a0,13(a4)
     2f0:	00001537          	lui	a0,0x1
     2f4:	00a10533          	add	a0,sp,a0
     2f8:	49853503          	ld	a0,1176(a0) # 1498 <.LBB27_2+0x468>
     2fc:	00550513          	addi	a0,a0,5
     300:	00a70723          	sb	a0,14(a4)
     304:	00001537          	lui	a0,0x1
     308:	00a10533          	add	a0,sp,a0
     30c:	4a053503          	ld	a0,1184(a0) # 14a0 <.LBB27_2+0x470>
     310:	00550513          	addi	a0,a0,5
     314:	00a707a3          	sb	a0,15(a4)
     318:	00001537          	lui	a0,0x1
     31c:	00a10533          	add	a0,sp,a0
     320:	4a853503          	ld	a0,1192(a0) # 14a8 <.LBB27_2+0x478>
     324:	00550513          	addi	a0,a0,5
     328:	00a70823          	sb	a0,16(a4)
     32c:	00001537          	lui	a0,0x1
     330:	00a10533          	add	a0,sp,a0
     334:	4b053503          	ld	a0,1200(a0) # 14b0 <.LBB27_2+0x480>
     338:	00550513          	addi	a0,a0,5
     33c:	00a708a3          	sb	a0,17(a4)
     340:	00001537          	lui	a0,0x1
     344:	00a10533          	add	a0,sp,a0
     348:	4b853503          	ld	a0,1208(a0) # 14b8 <.LBB27_2+0x488>
     34c:	00550513          	addi	a0,a0,5
     350:	00a70923          	sb	a0,18(a4)
     354:	00001537          	lui	a0,0x1
     358:	00a10533          	add	a0,sp,a0
     35c:	f8853503          	ld	a0,-120(a0) # f88 <.LBB27_1+0xdb0>
     360:	00550513          	addi	a0,a0,5
     364:	00a709a3          	sb	a0,19(a4)
     368:	00001537          	lui	a0,0x1
     36c:	00a10533          	add	a0,sp,a0
     370:	f9053503          	ld	a0,-112(a0) # f90 <.LBB27_1+0xdb8>
     374:	00550513          	addi	a0,a0,5
     378:	00a70a23          	sb	a0,20(a4)
     37c:	00001537          	lui	a0,0x1
     380:	00a10533          	add	a0,sp,a0
     384:	f9853503          	ld	a0,-104(a0) # f98 <.LBB27_1+0xdc0>
     388:	00550513          	addi	a0,a0,5
     38c:	00a70aa3          	sb	a0,21(a4)
     390:	00001537          	lui	a0,0x1
     394:	00a10533          	add	a0,sp,a0
     398:	fa053503          	ld	a0,-96(a0) # fa0 <.LBB27_1+0xdc8>
     39c:	00550513          	addi	a0,a0,5
     3a0:	00a70b23          	sb	a0,22(a4)
     3a4:	00001537          	lui	a0,0x1
     3a8:	00a10533          	add	a0,sp,a0
     3ac:	fa853503          	ld	a0,-88(a0) # fa8 <.LBB27_1+0xdd0>
     3b0:	00550513          	addi	a0,a0,5
     3b4:	00a70ba3          	sb	a0,23(a4)
     3b8:	00001537          	lui	a0,0x1
     3bc:	00a10533          	add	a0,sp,a0
     3c0:	33053503          	ld	a0,816(a0) # 1330 <.LBB27_2+0x300>
     3c4:	00550513          	addi	a0,a0,5
     3c8:	39013703          	ld	a4,912(sp)
     3cc:	00e78733          	add	a4,a5,a4
     3d0:	00a70023          	sb	a0,0(a4)
     3d4:	00001537          	lui	a0,0x1
     3d8:	00a10533          	add	a0,sp,a0
     3dc:	34053503          	ld	a0,832(a0) # 1340 <.LBB27_2+0x310>
     3e0:	00550513          	addi	a0,a0,5
     3e4:	00a700a3          	sb	a0,1(a4)
     3e8:	00001537          	lui	a0,0x1
     3ec:	00a10533          	add	a0,sp,a0
     3f0:	35053503          	ld	a0,848(a0) # 1350 <.LBB27_2+0x320>
     3f4:	00550513          	addi	a0,a0,5
     3f8:	00a70123          	sb	a0,2(a4)
     3fc:	00001537          	lui	a0,0x1
     400:	00a10533          	add	a0,sp,a0
     404:	36053503          	ld	a0,864(a0) # 1360 <.LBB27_2+0x330>
     408:	00550513          	addi	a0,a0,5
     40c:	00a701a3          	sb	a0,3(a4)
     410:	00001537          	lui	a0,0x1
     414:	00a10533          	add	a0,sp,a0
     418:	37053503          	ld	a0,880(a0) # 1370 <.LBB27_2+0x340>
     41c:	00550513          	addi	a0,a0,5
     420:	00a70223          	sb	a0,4(a4)
     424:	00001537          	lui	a0,0x1
     428:	00a10533          	add	a0,sp,a0
     42c:	38053503          	ld	a0,896(a0) # 1380 <.LBB27_2+0x350>
     430:	00550513          	addi	a0,a0,5
     434:	00a702a3          	sb	a0,5(a4)
     438:	00001537          	lui	a0,0x1
     43c:	00a10533          	add	a0,sp,a0
     440:	39053503          	ld	a0,912(a0) # 1390 <.LBB27_2+0x360>
     444:	00550513          	addi	a0,a0,5
     448:	00a70323          	sb	a0,6(a4)
     44c:	00001537          	lui	a0,0x1
     450:	00a10533          	add	a0,sp,a0
     454:	3a053503          	ld	a0,928(a0) # 13a0 <.LBB27_2+0x370>
     458:	00550513          	addi	a0,a0,5
     45c:	00a703a3          	sb	a0,7(a4)
     460:	00001537          	lui	a0,0x1
     464:	00a10533          	add	a0,sp,a0
     468:	3b053503          	ld	a0,944(a0) # 13b0 <.LBB27_2+0x380>
     46c:	00550513          	addi	a0,a0,5
     470:	00a70423          	sb	a0,8(a4)
     474:	00001537          	lui	a0,0x1
     478:	00a10533          	add	a0,sp,a0
     47c:	3b853503          	ld	a0,952(a0) # 13b8 <.LBB27_2+0x388>
     480:	00550513          	addi	a0,a0,5
     484:	00a704a3          	sb	a0,9(a4)
     488:	00001537          	lui	a0,0x1
     48c:	00a10533          	add	a0,sp,a0
     490:	3c053503          	ld	a0,960(a0) # 13c0 <.LBB27_2+0x390>
     494:	00550513          	addi	a0,a0,5
     498:	00a70523          	sb	a0,10(a4)
     49c:	00001537          	lui	a0,0x1
     4a0:	00a10533          	add	a0,sp,a0
     4a4:	3c853503          	ld	a0,968(a0) # 13c8 <.LBB27_2+0x398>
     4a8:	00550513          	addi	a0,a0,5
     4ac:	00a705a3          	sb	a0,11(a4)
     4b0:	00001537          	lui	a0,0x1
     4b4:	00a10533          	add	a0,sp,a0
     4b8:	3d053503          	ld	a0,976(a0) # 13d0 <.LBB27_2+0x3a0>
     4bc:	00550513          	addi	a0,a0,5
     4c0:	00a70623          	sb	a0,12(a4)
     4c4:	00001537          	lui	a0,0x1
     4c8:	00a10533          	add	a0,sp,a0
     4cc:	3d853503          	ld	a0,984(a0) # 13d8 <.LBB27_2+0x3a8>
     4d0:	00550513          	addi	a0,a0,5
     4d4:	00a706a3          	sb	a0,13(a4)
     4d8:	00001537          	lui	a0,0x1
     4dc:	00a10533          	add	a0,sp,a0
     4e0:	3e053503          	ld	a0,992(a0) # 13e0 <.LBB27_2+0x3b0>
     4e4:	00550513          	addi	a0,a0,5
     4e8:	00a70723          	sb	a0,14(a4)
     4ec:	00001537          	lui	a0,0x1
     4f0:	00a10533          	add	a0,sp,a0
     4f4:	3e853503          	ld	a0,1000(a0) # 13e8 <.LBB27_2+0x3b8>
     4f8:	00550513          	addi	a0,a0,5
     4fc:	00a707a3          	sb	a0,15(a4)
     500:	00001537          	lui	a0,0x1
     504:	00a10533          	add	a0,sp,a0
     508:	3f053503          	ld	a0,1008(a0) # 13f0 <.LBB27_2+0x3c0>
     50c:	00550513          	addi	a0,a0,5
     510:	00a70823          	sb	a0,16(a4)
     514:	00001537          	lui	a0,0x1
     518:	00a10533          	add	a0,sp,a0
     51c:	40053503          	ld	a0,1024(a0) # 1400 <.LBB27_2+0x3d0>
     520:	00550513          	addi	a0,a0,5
     524:	00a708a3          	sb	a0,17(a4)
     528:	00001537          	lui	a0,0x1
     52c:	00a10533          	add	a0,sp,a0
     530:	41053503          	ld	a0,1040(a0) # 1410 <.LBB27_2+0x3e0>
     534:	00550513          	addi	a0,a0,5
     538:	00a70923          	sb	a0,18(a4)
     53c:	00001537          	lui	a0,0x1
     540:	00a10533          	add	a0,sp,a0
     544:	42053503          	ld	a0,1056(a0) # 1420 <.LBB27_2+0x3f0>
     548:	00550513          	addi	a0,a0,5
     54c:	00a709a3          	sb	a0,19(a4)
     550:	00001537          	lui	a0,0x1
     554:	00a10533          	add	a0,sp,a0
     558:	43053503          	ld	a0,1072(a0) # 1430 <.LBB27_2+0x400>
     55c:	00550513          	addi	a0,a0,5
     560:	00a70a23          	sb	a0,20(a4)
     564:	00001537          	lui	a0,0x1
     568:	00a10533          	add	a0,sp,a0
     56c:	44053503          	ld	a0,1088(a0) # 1440 <.LBB27_2+0x410>
     570:	00550513          	addi	a0,a0,5
     574:	00a70aa3          	sb	a0,21(a4)
     578:	00001537          	lui	a0,0x1
     57c:	00a10533          	add	a0,sp,a0
     580:	45053503          	ld	a0,1104(a0) # 1450 <.LBB27_2+0x420>
     584:	00550513          	addi	a0,a0,5
     588:	00a70b23          	sb	a0,22(a4)
     58c:	00001537          	lui	a0,0x1
     590:	00a10533          	add	a0,sp,a0
     594:	46053503          	ld	a0,1120(a0) # 1460 <.LBB27_2+0x430>
     598:	00550513          	addi	a0,a0,5
     59c:	00a70ba3          	sb	a0,23(a4)
     5a0:	00001537          	lui	a0,0x1
     5a4:	00a10533          	add	a0,sp,a0
     5a8:	27053503          	ld	a0,624(a0) # 1270 <.LBB27_2+0x240>
     5ac:	00550513          	addi	a0,a0,5
     5b0:	39813703          	ld	a4,920(sp)
     5b4:	00e78733          	add	a4,a5,a4
     5b8:	00a70023          	sb	a0,0(a4)
     5bc:	00001537          	lui	a0,0x1
     5c0:	00a10533          	add	a0,sp,a0
     5c4:	28053503          	ld	a0,640(a0) # 1280 <.LBB27_2+0x250>
     5c8:	00550513          	addi	a0,a0,5
     5cc:	00a700a3          	sb	a0,1(a4)
     5d0:	00001537          	lui	a0,0x1
     5d4:	00a10533          	add	a0,sp,a0
     5d8:	29053503          	ld	a0,656(a0) # 1290 <.LBB27_2+0x260>
     5dc:	00550513          	addi	a0,a0,5
     5e0:	00a70123          	sb	a0,2(a4)
     5e4:	00001537          	lui	a0,0x1
     5e8:	00a10533          	add	a0,sp,a0
     5ec:	2a053503          	ld	a0,672(a0) # 12a0 <.LBB27_2+0x270>
     5f0:	00550513          	addi	a0,a0,5
     5f4:	00a701a3          	sb	a0,3(a4)
     5f8:	00001537          	lui	a0,0x1
     5fc:	00a10533          	add	a0,sp,a0
     600:	2b053503          	ld	a0,688(a0) # 12b0 <.LBB27_2+0x280>
     604:	00550513          	addi	a0,a0,5
     608:	00a70223          	sb	a0,4(a4)
     60c:	00001537          	lui	a0,0x1
     610:	00a10533          	add	a0,sp,a0
     614:	2c053503          	ld	a0,704(a0) # 12c0 <.LBB27_2+0x290>
     618:	00550513          	addi	a0,a0,5
     61c:	00a702a3          	sb	a0,5(a4)
     620:	00001537          	lui	a0,0x1
     624:	00a10533          	add	a0,sp,a0
     628:	2d053503          	ld	a0,720(a0) # 12d0 <.LBB27_2+0x2a0>
     62c:	00550513          	addi	a0,a0,5
     630:	00a70323          	sb	a0,6(a4)
     634:	00001537          	lui	a0,0x1
     638:	00a10533          	add	a0,sp,a0
     63c:	2e053503          	ld	a0,736(a0) # 12e0 <.LBB27_2+0x2b0>
     640:	00550513          	addi	a0,a0,5
     644:	00a703a3          	sb	a0,7(a4)
     648:	00001537          	lui	a0,0x1
     64c:	00a10533          	add	a0,sp,a0
     650:	2f053503          	ld	a0,752(a0) # 12f0 <.LBB27_2+0x2c0>
     654:	00550513          	addi	a0,a0,5
     658:	00a70423          	sb	a0,8(a4)
     65c:	00001537          	lui	a0,0x1
     660:	00a10533          	add	a0,sp,a0
     664:	2f853503          	ld	a0,760(a0) # 12f8 <.LBB27_2+0x2c8>
     668:	00550513          	addi	a0,a0,5
     66c:	00a704a3          	sb	a0,9(a4)
     670:	00001537          	lui	a0,0x1
     674:	00a10533          	add	a0,sp,a0
     678:	30053503          	ld	a0,768(a0) # 1300 <.LBB27_2+0x2d0>
     67c:	00550513          	addi	a0,a0,5
     680:	00a70523          	sb	a0,10(a4)
     684:	00001537          	lui	a0,0x1
     688:	00a10533          	add	a0,sp,a0
     68c:	30853503          	ld	a0,776(a0) # 1308 <.LBB27_2+0x2d8>
     690:	00550513          	addi	a0,a0,5
     694:	00a705a3          	sb	a0,11(a4)
     698:	00001537          	lui	a0,0x1
     69c:	00a10533          	add	a0,sp,a0
     6a0:	31053503          	ld	a0,784(a0) # 1310 <.LBB27_2+0x2e0>
     6a4:	00550513          	addi	a0,a0,5
     6a8:	00a70623          	sb	a0,12(a4)
     6ac:	00001537          	lui	a0,0x1
     6b0:	00a10533          	add	a0,sp,a0
     6b4:	31853503          	ld	a0,792(a0) # 1318 <.LBB27_2+0x2e8>
     6b8:	00550513          	addi	a0,a0,5
     6bc:	00a706a3          	sb	a0,13(a4)
     6c0:	00001537          	lui	a0,0x1
     6c4:	00a10533          	add	a0,sp,a0
     6c8:	32053503          	ld	a0,800(a0) # 1320 <.LBB27_2+0x2f0>
     6cc:	00550513          	addi	a0,a0,5
     6d0:	00a70723          	sb	a0,14(a4)
     6d4:	00001537          	lui	a0,0x1
     6d8:	00a10533          	add	a0,sp,a0
     6dc:	32853503          	ld	a0,808(a0) # 1328 <.LBB27_2+0x2f8>
     6e0:	00550513          	addi	a0,a0,5
     6e4:	00a707a3          	sb	a0,15(a4)
     6e8:	00001537          	lui	a0,0x1
     6ec:	00a10533          	add	a0,sp,a0
     6f0:	33853503          	ld	a0,824(a0) # 1338 <.LBB27_2+0x308>
     6f4:	00550513          	addi	a0,a0,5
     6f8:	00a70823          	sb	a0,16(a4)
     6fc:	00001537          	lui	a0,0x1
     700:	00a10533          	add	a0,sp,a0
     704:	34853503          	ld	a0,840(a0) # 1348 <.LBB27_2+0x318>
     708:	00550513          	addi	a0,a0,5
     70c:	00a708a3          	sb	a0,17(a4)
     710:	00001537          	lui	a0,0x1
     714:	00a10533          	add	a0,sp,a0
     718:	35853503          	ld	a0,856(a0) # 1358 <.LBB27_2+0x328>
     71c:	00550513          	addi	a0,a0,5
     720:	00a70923          	sb	a0,18(a4)
     724:	00001537          	lui	a0,0x1
     728:	00a10533          	add	a0,sp,a0
     72c:	36853503          	ld	a0,872(a0) # 1368 <.LBB27_2+0x338>
     730:	00550513          	addi	a0,a0,5
     734:	00a709a3          	sb	a0,19(a4)
     738:	00001537          	lui	a0,0x1
     73c:	00a10533          	add	a0,sp,a0
     740:	37853503          	ld	a0,888(a0) # 1378 <.LBB27_2+0x348>
     744:	00550513          	addi	a0,a0,5
     748:	00a70a23          	sb	a0,20(a4)
     74c:	00001537          	lui	a0,0x1
     750:	00a10533          	add	a0,sp,a0
     754:	38853503          	ld	a0,904(a0) # 1388 <.LBB27_2+0x358>
     758:	00550513          	addi	a0,a0,5
     75c:	00a70aa3          	sb	a0,21(a4)
     760:	00001537          	lui	a0,0x1
     764:	00a10533          	add	a0,sp,a0
     768:	39853503          	ld	a0,920(a0) # 1398 <.LBB27_2+0x368>
     76c:	00550513          	addi	a0,a0,5
     770:	00a70b23          	sb	a0,22(a4)
     774:	00001537          	lui	a0,0x1
     778:	00a10533          	add	a0,sp,a0
     77c:	3a853503          	ld	a0,936(a0) # 13a8 <.LBB27_2+0x378>
     780:	00550513          	addi	a0,a0,5
     784:	00a70ba3          	sb	a0,23(a4)
     788:	00001537          	lui	a0,0x1
     78c:	00a10533          	add	a0,sp,a0
     790:	1b053503          	ld	a0,432(a0) # 11b0 <.LBB27_2+0x180>
     794:	00550513          	addi	a0,a0,5
     798:	3a013703          	ld	a4,928(sp)
     79c:	00e78733          	add	a4,a5,a4
     7a0:	00a70023          	sb	a0,0(a4)
     7a4:	00001537          	lui	a0,0x1
     7a8:	00a10533          	add	a0,sp,a0
     7ac:	1c053503          	ld	a0,448(a0) # 11c0 <.LBB27_2+0x190>
     7b0:	00550513          	addi	a0,a0,5
     7b4:	00a700a3          	sb	a0,1(a4)
     7b8:	00001537          	lui	a0,0x1
     7bc:	00a10533          	add	a0,sp,a0
     7c0:	1d053503          	ld	a0,464(a0) # 11d0 <.LBB27_2+0x1a0>
     7c4:	00550513          	addi	a0,a0,5
     7c8:	00a70123          	sb	a0,2(a4)
     7cc:	00001537          	lui	a0,0x1
     7d0:	00a10533          	add	a0,sp,a0
     7d4:	1e053503          	ld	a0,480(a0) # 11e0 <.LBB27_2+0x1b0>
     7d8:	00550513          	addi	a0,a0,5
     7dc:	00a701a3          	sb	a0,3(a4)
     7e0:	00001537          	lui	a0,0x1
     7e4:	00a10533          	add	a0,sp,a0
     7e8:	1f053503          	ld	a0,496(a0) # 11f0 <.LBB27_2+0x1c0>
     7ec:	00550513          	addi	a0,a0,5
     7f0:	00a70223          	sb	a0,4(a4)
     7f4:	00001537          	lui	a0,0x1
     7f8:	00a10533          	add	a0,sp,a0
     7fc:	20053503          	ld	a0,512(a0) # 1200 <.LBB27_2+0x1d0>
     800:	00550513          	addi	a0,a0,5
     804:	00a702a3          	sb	a0,5(a4)
     808:	00001537          	lui	a0,0x1
     80c:	00a10533          	add	a0,sp,a0
     810:	21053503          	ld	a0,528(a0) # 1210 <.LBB27_2+0x1e0>
     814:	00550513          	addi	a0,a0,5
     818:	00a70323          	sb	a0,6(a4)
     81c:	00001537          	lui	a0,0x1
     820:	00a10533          	add	a0,sp,a0
     824:	22053503          	ld	a0,544(a0) # 1220 <.LBB27_2+0x1f0>
     828:	00550513          	addi	a0,a0,5
     82c:	00a703a3          	sb	a0,7(a4)
     830:	00001537          	lui	a0,0x1
     834:	00a10533          	add	a0,sp,a0
     838:	23053503          	ld	a0,560(a0) # 1230 <.LBB27_2+0x200>
     83c:	00550513          	addi	a0,a0,5
     840:	00a70423          	sb	a0,8(a4)
     844:	00001537          	lui	a0,0x1
     848:	00a10533          	add	a0,sp,a0
     84c:	23853503          	ld	a0,568(a0) # 1238 <.LBB27_2+0x208>
     850:	00550513          	addi	a0,a0,5
     854:	00a704a3          	sb	a0,9(a4)
     858:	00001537          	lui	a0,0x1
     85c:	00a10533          	add	a0,sp,a0
     860:	24053503          	ld	a0,576(a0) # 1240 <.LBB27_2+0x210>
     864:	00550513          	addi	a0,a0,5
     868:	00a70523          	sb	a0,10(a4)
     86c:	00001537          	lui	a0,0x1
     870:	00a10533          	add	a0,sp,a0
     874:	24853503          	ld	a0,584(a0) # 1248 <.LBB27_2+0x218>
     878:	00550513          	addi	a0,a0,5
     87c:	00a705a3          	sb	a0,11(a4)
     880:	00001537          	lui	a0,0x1
     884:	00a10533          	add	a0,sp,a0
     888:	25053503          	ld	a0,592(a0) # 1250 <.LBB27_2+0x220>
     88c:	00550513          	addi	a0,a0,5
     890:	00a70623          	sb	a0,12(a4)
     894:	00001537          	lui	a0,0x1
     898:	00a10533          	add	a0,sp,a0
     89c:	25853503          	ld	a0,600(a0) # 1258 <.LBB27_2+0x228>
     8a0:	00550513          	addi	a0,a0,5
     8a4:	00a706a3          	sb	a0,13(a4)
     8a8:	00001537          	lui	a0,0x1
     8ac:	00a10533          	add	a0,sp,a0
     8b0:	26053503          	ld	a0,608(a0) # 1260 <.LBB27_2+0x230>
     8b4:	00550513          	addi	a0,a0,5
     8b8:	00a70723          	sb	a0,14(a4)
     8bc:	00001537          	lui	a0,0x1
     8c0:	00a10533          	add	a0,sp,a0
     8c4:	26853503          	ld	a0,616(a0) # 1268 <.LBB27_2+0x238>
     8c8:	00550513          	addi	a0,a0,5
     8cc:	00a707a3          	sb	a0,15(a4)
     8d0:	00001537          	lui	a0,0x1
     8d4:	00a10533          	add	a0,sp,a0
     8d8:	27853503          	ld	a0,632(a0) # 1278 <.LBB27_2+0x248>
     8dc:	00550513          	addi	a0,a0,5
     8e0:	00a70823          	sb	a0,16(a4)
     8e4:	00001537          	lui	a0,0x1
     8e8:	00a10533          	add	a0,sp,a0
     8ec:	28853503          	ld	a0,648(a0) # 1288 <.LBB27_2+0x258>
     8f0:	00550513          	addi	a0,a0,5
     8f4:	00a708a3          	sb	a0,17(a4)
     8f8:	00001537          	lui	a0,0x1
     8fc:	00a10533          	add	a0,sp,a0
     900:	29853503          	ld	a0,664(a0) # 1298 <.LBB27_2+0x268>
     904:	00550513          	addi	a0,a0,5
     908:	00a70923          	sb	a0,18(a4)
     90c:	00001537          	lui	a0,0x1
     910:	00a10533          	add	a0,sp,a0
     914:	2a853503          	ld	a0,680(a0) # 12a8 <.LBB27_2+0x278>
     918:	00550513          	addi	a0,a0,5
     91c:	00a709a3          	sb	a0,19(a4)
     920:	00001537          	lui	a0,0x1
     924:	00a10533          	add	a0,sp,a0
     928:	2b853503          	ld	a0,696(a0) # 12b8 <.LBB27_2+0x288>
     92c:	00550513          	addi	a0,a0,5
     930:	00a70a23          	sb	a0,20(a4)
     934:	00001537          	lui	a0,0x1
     938:	00a10533          	add	a0,sp,a0
     93c:	2c853503          	ld	a0,712(a0) # 12c8 <.LBB27_2+0x298>
     940:	00550513          	addi	a0,a0,5
     944:	00a70aa3          	sb	a0,21(a4)
     948:	00001537          	lui	a0,0x1
     94c:	00a10533          	add	a0,sp,a0
     950:	2d853503          	ld	a0,728(a0) # 12d8 <.LBB27_2+0x2a8>
     954:	00550513          	addi	a0,a0,5
     958:	00a70b23          	sb	a0,22(a4)
     95c:	00001537          	lui	a0,0x1
     960:	00a10533          	add	a0,sp,a0
     964:	2e853503          	ld	a0,744(a0) # 12e8 <.LBB27_2+0x2b8>
     968:	00550513          	addi	a0,a0,5
     96c:	00a70ba3          	sb	a0,23(a4)
     970:	00001537          	lui	a0,0x1
     974:	00a10533          	add	a0,sp,a0
     978:	0f053503          	ld	a0,240(a0) # 10f0 <.LBB27_2+0xc0>
     97c:	00550513          	addi	a0,a0,5
     980:	3a813703          	ld	a4,936(sp)
     984:	00e78733          	add	a4,a5,a4
     988:	00a70023          	sb	a0,0(a4)
     98c:	00001537          	lui	a0,0x1
     990:	00a10533          	add	a0,sp,a0
     994:	10053503          	ld	a0,256(a0) # 1100 <.LBB27_2+0xd0>
     998:	00550513          	addi	a0,a0,5
     99c:	00a700a3          	sb	a0,1(a4)
     9a0:	00001537          	lui	a0,0x1
     9a4:	00a10533          	add	a0,sp,a0
     9a8:	11053503          	ld	a0,272(a0) # 1110 <.LBB27_2+0xe0>
     9ac:	00550513          	addi	a0,a0,5
     9b0:	00a70123          	sb	a0,2(a4)
     9b4:	00001537          	lui	a0,0x1
     9b8:	00a10533          	add	a0,sp,a0
     9bc:	12053503          	ld	a0,288(a0) # 1120 <.LBB27_2+0xf0>
     9c0:	00550513          	addi	a0,a0,5
     9c4:	00a701a3          	sb	a0,3(a4)
     9c8:	00001537          	lui	a0,0x1
     9cc:	00a10533          	add	a0,sp,a0
     9d0:	13053503          	ld	a0,304(a0) # 1130 <.LBB27_2+0x100>
     9d4:	00550513          	addi	a0,a0,5
     9d8:	00a70223          	sb	a0,4(a4)
     9dc:	00001537          	lui	a0,0x1
     9e0:	00a10533          	add	a0,sp,a0
     9e4:	14053503          	ld	a0,320(a0) # 1140 <.LBB27_2+0x110>
     9e8:	00550513          	addi	a0,a0,5
     9ec:	00a702a3          	sb	a0,5(a4)
     9f0:	00001537          	lui	a0,0x1
     9f4:	00a10533          	add	a0,sp,a0
     9f8:	15053503          	ld	a0,336(a0) # 1150 <.LBB27_2+0x120>
     9fc:	00550513          	addi	a0,a0,5
     a00:	00a70323          	sb	a0,6(a4)
     a04:	00001537          	lui	a0,0x1
     a08:	00a10533          	add	a0,sp,a0
     a0c:	16053503          	ld	a0,352(a0) # 1160 <.LBB27_2+0x130>
     a10:	00550513          	addi	a0,a0,5
     a14:	00a703a3          	sb	a0,7(a4)
     a18:	00001537          	lui	a0,0x1
     a1c:	00a10533          	add	a0,sp,a0
     a20:	17053503          	ld	a0,368(a0) # 1170 <.LBB27_2+0x140>
     a24:	00550513          	addi	a0,a0,5
     a28:	00a70423          	sb	a0,8(a4)
     a2c:	00001537          	lui	a0,0x1
     a30:	00a10533          	add	a0,sp,a0
     a34:	17853503          	ld	a0,376(a0) # 1178 <.LBB27_2+0x148>
     a38:	00550513          	addi	a0,a0,5
     a3c:	00a704a3          	sb	a0,9(a4)
     a40:	00001537          	lui	a0,0x1
     a44:	00a10533          	add	a0,sp,a0
     a48:	18053503          	ld	a0,384(a0) # 1180 <.LBB27_2+0x150>
     a4c:	00550513          	addi	a0,a0,5
     a50:	00a70523          	sb	a0,10(a4)
     a54:	00001537          	lui	a0,0x1
     a58:	00a10533          	add	a0,sp,a0
     a5c:	18853503          	ld	a0,392(a0) # 1188 <.LBB27_2+0x158>
     a60:	00550513          	addi	a0,a0,5
     a64:	00a705a3          	sb	a0,11(a4)
     a68:	00001537          	lui	a0,0x1
     a6c:	00a10533          	add	a0,sp,a0
     a70:	19053503          	ld	a0,400(a0) # 1190 <.LBB27_2+0x160>
     a74:	00550513          	addi	a0,a0,5
     a78:	00a70623          	sb	a0,12(a4)
     a7c:	00001537          	lui	a0,0x1
     a80:	00a10533          	add	a0,sp,a0
     a84:	19853503          	ld	a0,408(a0) # 1198 <.LBB27_2+0x168>
     a88:	00550513          	addi	a0,a0,5
     a8c:	00a706a3          	sb	a0,13(a4)
     a90:	00001537          	lui	a0,0x1
     a94:	00a10533          	add	a0,sp,a0
     a98:	1a053503          	ld	a0,416(a0) # 11a0 <.LBB27_2+0x170>
     a9c:	00550513          	addi	a0,a0,5
     aa0:	00a70723          	sb	a0,14(a4)
     aa4:	00001537          	lui	a0,0x1
     aa8:	00a10533          	add	a0,sp,a0
     aac:	1a853503          	ld	a0,424(a0) # 11a8 <.LBB27_2+0x178>
     ab0:	00550513          	addi	a0,a0,5
     ab4:	00a707a3          	sb	a0,15(a4)
     ab8:	00001537          	lui	a0,0x1
     abc:	00a10533          	add	a0,sp,a0
     ac0:	1b853503          	ld	a0,440(a0) # 11b8 <.LBB27_2+0x188>
     ac4:	00550513          	addi	a0,a0,5
     ac8:	00a70823          	sb	a0,16(a4)
     acc:	00001537          	lui	a0,0x1
     ad0:	00a10533          	add	a0,sp,a0
     ad4:	1c853503          	ld	a0,456(a0) # 11c8 <.LBB27_2+0x198>
     ad8:	00550513          	addi	a0,a0,5
     adc:	00a708a3          	sb	a0,17(a4)
     ae0:	00001537          	lui	a0,0x1
     ae4:	00a10533          	add	a0,sp,a0
     ae8:	1d853503          	ld	a0,472(a0) # 11d8 <.LBB27_2+0x1a8>
     aec:	00550513          	addi	a0,a0,5
     af0:	00a70923          	sb	a0,18(a4)
     af4:	00001537          	lui	a0,0x1
     af8:	00a10533          	add	a0,sp,a0
     afc:	1e853503          	ld	a0,488(a0) # 11e8 <.LBB27_2+0x1b8>
     b00:	00550513          	addi	a0,a0,5
     b04:	00a709a3          	sb	a0,19(a4)
     b08:	00001537          	lui	a0,0x1
     b0c:	00a10533          	add	a0,sp,a0
     b10:	1f853503          	ld	a0,504(a0) # 11f8 <.LBB27_2+0x1c8>
     b14:	00550513          	addi	a0,a0,5
     b18:	00a70a23          	sb	a0,20(a4)
     b1c:	00001537          	lui	a0,0x1
     b20:	00a10533          	add	a0,sp,a0
     b24:	20853503          	ld	a0,520(a0) # 1208 <.LBB27_2+0x1d8>
     b28:	00550513          	addi	a0,a0,5
     b2c:	00a70aa3          	sb	a0,21(a4)
     b30:	00001537          	lui	a0,0x1
     b34:	00a10533          	add	a0,sp,a0
     b38:	21853503          	ld	a0,536(a0) # 1218 <.LBB27_2+0x1e8>
     b3c:	00550513          	addi	a0,a0,5
     b40:	00a70b23          	sb	a0,22(a4)
     b44:	00001537          	lui	a0,0x1
     b48:	00a10533          	add	a0,sp,a0
     b4c:	22853503          	ld	a0,552(a0) # 1228 <.LBB27_2+0x1f8>
     b50:	00550513          	addi	a0,a0,5
     b54:	00a70ba3          	sb	a0,23(a4)
     b58:	00001537          	lui	a0,0x1
     b5c:	00a10533          	add	a0,sp,a0
     b60:	03053503          	ld	a0,48(a0) # 1030 <.LBB27_2>
     b64:	00550513          	addi	a0,a0,5
     b68:	3b013703          	ld	a4,944(sp)
     b6c:	00e78733          	add	a4,a5,a4
     b70:	00a70023          	sb	a0,0(a4)
     b74:	00001537          	lui	a0,0x1
     b78:	00a10533          	add	a0,sp,a0
     b7c:	04053503          	ld	a0,64(a0) # 1040 <.LBB27_2+0x10>
     b80:	00550513          	addi	a0,a0,5
     b84:	00a700a3          	sb	a0,1(a4)
     b88:	00001537          	lui	a0,0x1
     b8c:	00a10533          	add	a0,sp,a0
     b90:	05053503          	ld	a0,80(a0) # 1050 <.LBB27_2+0x20>
     b94:	00550513          	addi	a0,a0,5
     b98:	00a70123          	sb	a0,2(a4)
     b9c:	00001537          	lui	a0,0x1
     ba0:	00a10533          	add	a0,sp,a0
     ba4:	06053503          	ld	a0,96(a0) # 1060 <.LBB27_2+0x30>
     ba8:	00550513          	addi	a0,a0,5
     bac:	00a701a3          	sb	a0,3(a4)
     bb0:	00001537          	lui	a0,0x1
     bb4:	00a10533          	add	a0,sp,a0
     bb8:	07053503          	ld	a0,112(a0) # 1070 <.LBB27_2+0x40>
     bbc:	00550513          	addi	a0,a0,5
     bc0:	00a70223          	sb	a0,4(a4)
     bc4:	00001537          	lui	a0,0x1
     bc8:	00a10533          	add	a0,sp,a0
     bcc:	08053503          	ld	a0,128(a0) # 1080 <.LBB27_2+0x50>
     bd0:	00550513          	addi	a0,a0,5
     bd4:	00a702a3          	sb	a0,5(a4)
     bd8:	00001537          	lui	a0,0x1
     bdc:	00a10533          	add	a0,sp,a0
     be0:	09053503          	ld	a0,144(a0) # 1090 <.LBB27_2+0x60>
     be4:	00550513          	addi	a0,a0,5
     be8:	00a70323          	sb	a0,6(a4)
     bec:	00001537          	lui	a0,0x1
     bf0:	00a10533          	add	a0,sp,a0
     bf4:	0a053503          	ld	a0,160(a0) # 10a0 <.LBB27_2+0x70>
     bf8:	00550513          	addi	a0,a0,5
     bfc:	00a703a3          	sb	a0,7(a4)
     c00:	00001537          	lui	a0,0x1
     c04:	00a10533          	add	a0,sp,a0
     c08:	0b053503          	ld	a0,176(a0) # 10b0 <.LBB27_2+0x80>
     c0c:	00550513          	addi	a0,a0,5
     c10:	00a70423          	sb	a0,8(a4)
     c14:	00001537          	lui	a0,0x1
     c18:	00a10533          	add	a0,sp,a0
     c1c:	0b853503          	ld	a0,184(a0) # 10b8 <.LBB27_2+0x88>
     c20:	00550513          	addi	a0,a0,5
     c24:	00a704a3          	sb	a0,9(a4)
     c28:	00001537          	lui	a0,0x1
     c2c:	00a10533          	add	a0,sp,a0
     c30:	0c053503          	ld	a0,192(a0) # 10c0 <.LBB27_2+0x90>
     c34:	00550513          	addi	a0,a0,5
     c38:	00a70523          	sb	a0,10(a4)
     c3c:	00001537          	lui	a0,0x1
     c40:	00a10533          	add	a0,sp,a0
     c44:	0c853503          	ld	a0,200(a0) # 10c8 <.LBB27_2+0x98>
     c48:	00550513          	addi	a0,a0,5
     c4c:	00a705a3          	sb	a0,11(a4)
     c50:	00001537          	lui	a0,0x1
     c54:	00a10533          	add	a0,sp,a0
     c58:	0d053503          	ld	a0,208(a0) # 10d0 <.LBB27_2+0xa0>
     c5c:	00550513          	addi	a0,a0,5
     c60:	00a70623          	sb	a0,12(a4)
     c64:	00001537          	lui	a0,0x1
     c68:	00a10533          	add	a0,sp,a0
     c6c:	0d853503          	ld	a0,216(a0) # 10d8 <.LBB27_2+0xa8>
     c70:	00550513          	addi	a0,a0,5
     c74:	00a706a3          	sb	a0,13(a4)
     c78:	00001537          	lui	a0,0x1
     c7c:	00a10533          	add	a0,sp,a0
     c80:	0e053503          	ld	a0,224(a0) # 10e0 <.LBB27_2+0xb0>
     c84:	00550513          	addi	a0,a0,5
     c88:	00a70723          	sb	a0,14(a4)
     c8c:	00001537          	lui	a0,0x1
     c90:	00a10533          	add	a0,sp,a0
     c94:	0e853503          	ld	a0,232(a0) # 10e8 <.LBB27_2+0xb8>
     c98:	00550513          	addi	a0,a0,5
     c9c:	00a707a3          	sb	a0,15(a4)
     ca0:	00001537          	lui	a0,0x1
     ca4:	00a10533          	add	a0,sp,a0
     ca8:	0f853503          	ld	a0,248(a0) # 10f8 <.LBB27_2+0xc8>
     cac:	00550513          	addi	a0,a0,5
     cb0:	00a70823          	sb	a0,16(a4)
     cb4:	00001537          	lui	a0,0x1
     cb8:	00a10533          	add	a0,sp,a0
     cbc:	10853503          	ld	a0,264(a0) # 1108 <.LBB27_2+0xd8>
     cc0:	00550513          	addi	a0,a0,5
     cc4:	00a708a3          	sb	a0,17(a4)
     cc8:	00001537          	lui	a0,0x1
     ccc:	00a10533          	add	a0,sp,a0
     cd0:	11853503          	ld	a0,280(a0) # 1118 <.LBB27_2+0xe8>
     cd4:	00550513          	addi	a0,a0,5
     cd8:	00a70923          	sb	a0,18(a4)
     cdc:	00001537          	lui	a0,0x1
     ce0:	00a10533          	add	a0,sp,a0
     ce4:	12853503          	ld	a0,296(a0) # 1128 <.LBB27_2+0xf8>
     ce8:	00550513          	addi	a0,a0,5
     cec:	00a709a3          	sb	a0,19(a4)
     cf0:	00001537          	lui	a0,0x1
     cf4:	00a10533          	add	a0,sp,a0
     cf8:	13853503          	ld	a0,312(a0) # 1138 <.LBB27_2+0x108>
     cfc:	00550513          	addi	a0,a0,5
     d00:	00a70a23          	sb	a0,20(a4)
     d04:	00001537          	lui	a0,0x1
     d08:	00a10533          	add	a0,sp,a0
     d0c:	14853503          	ld	a0,328(a0) # 1148 <.LBB27_2+0x118>
     d10:	00550513          	addi	a0,a0,5
     d14:	00a70aa3          	sb	a0,21(a4)
     d18:	00001537          	lui	a0,0x1
     d1c:	00a10533          	add	a0,sp,a0
     d20:	15853503          	ld	a0,344(a0) # 1158 <.LBB27_2+0x128>
     d24:	00550513          	addi	a0,a0,5
     d28:	00a70b23          	sb	a0,22(a4)
     d2c:	00001537          	lui	a0,0x1
     d30:	00a10533          	add	a0,sp,a0
     d34:	16853503          	ld	a0,360(a0) # 1168 <.LBB27_2+0x138>
     d38:	00550513          	addi	a0,a0,5
     d3c:	00a70ba3          	sb	a0,23(a4)
     d40:	00548493          	addi	s1,s1,5
     d44:	3b813503          	ld	a0,952(sp)
     d48:	00a78533          	add	a0,a5,a0
     d4c:	00950023          	sb	s1,0(a0)
     d50:	00001737          	lui	a4,0x1
     d54:	00e10733          	add	a4,sp,a4
     d58:	fb073703          	ld	a4,-80(a4) # fb0 <.LBB27_1+0xdd8>
     d5c:	00570713          	addi	a4,a4,5
     d60:	00e500a3          	sb	a4,1(a0)
     d64:	00001737          	lui	a4,0x1
     d68:	00e10733          	add	a4,sp,a4
     d6c:	fc073703          	ld	a4,-64(a4) # fc0 <.LBB27_1+0xde8>
     d70:	00570713          	addi	a4,a4,5
     d74:	00e50123          	sb	a4,2(a0)
     d78:	00001737          	lui	a4,0x1
     d7c:	00e10733          	add	a4,sp,a4
     d80:	fc873703          	ld	a4,-56(a4) # fc8 <.LBB27_1+0xdf0>
     d84:	00570713          	addi	a4,a4,5
     d88:	00e501a3          	sb	a4,3(a0)
     d8c:	00001737          	lui	a4,0x1
     d90:	00e10733          	add	a4,sp,a4
     d94:	fd073703          	ld	a4,-48(a4) # fd0 <.LBB27_1+0xdf8>
     d98:	00570713          	addi	a4,a4,5
     d9c:	00e50223          	sb	a4,4(a0)
     da0:	00001737          	lui	a4,0x1
     da4:	00e10733          	add	a4,sp,a4
     da8:	fd873703          	ld	a4,-40(a4) # fd8 <.LBB27_1+0xe00>
     dac:	00570713          	addi	a4,a4,5
     db0:	00e502a3          	sb	a4,5(a0)
     db4:	00001737          	lui	a4,0x1
     db8:	00e10733          	add	a4,sp,a4
     dbc:	fe073703          	ld	a4,-32(a4) # fe0 <.LBB27_1+0xe08>
     dc0:	00570713          	addi	a4,a4,5
     dc4:	00e50323          	sb	a4,6(a0)
     dc8:	00001737          	lui	a4,0x1
     dcc:	00e10733          	add	a4,sp,a4
     dd0:	fe873703          	ld	a4,-24(a4) # fe8 <.LBB27_1+0xe10>
     dd4:	00570713          	addi	a4,a4,5
     dd8:	00e503a3          	sb	a4,7(a0)
     ddc:	00001737          	lui	a4,0x1
     de0:	00e10733          	add	a4,sp,a4
     de4:	ff073703          	ld	a4,-16(a4) # ff0 <.LBB27_1+0xe18>
     de8:	00570713          	addi	a4,a4,5
     dec:	00e50423          	sb	a4,8(a0)
     df0:	00001737          	lui	a4,0x1
     df4:	00e10733          	add	a4,sp,a4
     df8:	ff873703          	ld	a4,-8(a4) # ff8 <.LBB27_1+0xe20>
     dfc:	00570713          	addi	a4,a4,5
     e00:	00e504a3          	sb	a4,9(a0)
     e04:	00001737          	lui	a4,0x1
     e08:	00e10733          	add	a4,sp,a4
     e0c:	00073703          	ld	a4,0(a4) # 1000 <.LBB27_1+0xe28>
     e10:	00570713          	addi	a4,a4,5
     e14:	00e50523          	sb	a4,10(a0)
     e18:	00001737          	lui	a4,0x1
     e1c:	00e10733          	add	a4,sp,a4
     e20:	00873703          	ld	a4,8(a4) # 1008 <.LBB27_1+0xe30>
     e24:	00570713          	addi	a4,a4,5
     e28:	00e505a3          	sb	a4,11(a0)
     e2c:	00001737          	lui	a4,0x1
     e30:	00e10733          	add	a4,sp,a4
     e34:	01073703          	ld	a4,16(a4) # 1010 <.LBB27_1+0xe38>
     e38:	00570713          	addi	a4,a4,5
     e3c:	00e50623          	sb	a4,12(a0)
     e40:	00001737          	lui	a4,0x1
     e44:	00e10733          	add	a4,sp,a4
     e48:	01873703          	ld	a4,24(a4) # 1018 <.LBB27_1+0xe40>
     e4c:	00570713          	addi	a4,a4,5
     e50:	00e506a3          	sb	a4,13(a0)
     e54:	00001737          	lui	a4,0x1
     e58:	00e10733          	add	a4,sp,a4
     e5c:	02073703          	ld	a4,32(a4) # 1020 <.LBB27_1+0xe48>
     e60:	00570713          	addi	a4,a4,5
     e64:	00e50723          	sb	a4,14(a0)
     e68:	00001737          	lui	a4,0x1
     e6c:	00e10733          	add	a4,sp,a4
     e70:	02873703          	ld	a4,40(a4) # 1028 <.LBB27_1+0xe50>
     e74:	00570713          	addi	a4,a4,5
     e78:	00e507a3          	sb	a4,15(a0)
     e7c:	00001737          	lui	a4,0x1
     e80:	00e10733          	add	a4,sp,a4
     e84:	03873703          	ld	a4,56(a4) # 1038 <.LBB27_2+0x8>
     e88:	00570713          	addi	a4,a4,5
     e8c:	00e50823          	sb	a4,16(a0)
     e90:	00001737          	lui	a4,0x1
     e94:	00e10733          	add	a4,sp,a4
     e98:	04873703          	ld	a4,72(a4) # 1048 <.LBB27_2+0x18>
     e9c:	00570713          	addi	a4,a4,5
     ea0:	00e508a3          	sb	a4,17(a0)
     ea4:	00001737          	lui	a4,0x1
     ea8:	00e10733          	add	a4,sp,a4
     eac:	05873703          	ld	a4,88(a4) # 1058 <.LBB27_2+0x28>
     eb0:	00570713          	addi	a4,a4,5
     eb4:	00e50923          	sb	a4,18(a0)
     eb8:	00001737          	lui	a4,0x1
     ebc:	00e10733          	add	a4,sp,a4
     ec0:	06873703          	ld	a4,104(a4) # 1068 <.LBB27_2+0x38>
     ec4:	00570713          	addi	a4,a4,5
     ec8:	00e509a3          	sb	a4,19(a0)
     ecc:	00001737          	lui	a4,0x1
     ed0:	00e10733          	add	a4,sp,a4
     ed4:	07873703          	ld	a4,120(a4) # 1078 <.LBB27_2+0x48>
     ed8:	00570713          	addi	a4,a4,5
     edc:	00e50a23          	sb	a4,20(a0)
     ee0:	00001737          	lui	a4,0x1
     ee4:	00e10733          	add	a4,sp,a4
     ee8:	08873703          	ld	a4,136(a4) # 1088 <.LBB27_2+0x58>
     eec:	00570713          	addi	a4,a4,5
     ef0:	00e50aa3          	sb	a4,21(a0)
     ef4:	00001737          	lui	a4,0x1
     ef8:	00e10733          	add	a4,sp,a4
     efc:	09873703          	ld	a4,152(a4) # 1098 <.LBB27_2+0x68>
     f00:	00570713          	addi	a4,a4,5
     f04:	00e50b23          	sb	a4,22(a0)
     f08:	00001737          	lui	a4,0x1
     f0c:	00e10733          	add	a4,sp,a4
     f10:	0a873703          	ld	a4,168(a4) # 10a8 <.LBB27_2+0x78>
     f14:	00570713          	addi	a4,a4,5
     f18:	00e50ba3          	sb	a4,23(a0)
     f1c:	005d0d13          	addi	s10,s10,5
     f20:	3c013503          	ld	a0,960(sp)
     f24:	00a78533          	add	a0,a5,a0
     f28:	01a50023          	sb	s10,0(a0)
     f2c:	005f0f13          	addi	t5,t5,5
     f30:	01e500a3          	sb	t5,1(a0)
     f34:	005e8e93          	addi	t4,t4,5
     f38:	01d50123          	sb	t4,2(a0)
     f3c:	00560613          	addi	a2,a2,5
     f40:	00c501a3          	sb	a2,3(a0)
     f44:	00558593          	addi	a1,a1,5
     f48:	00b50223          	sb	a1,4(a0)
     f4c:	00568693          	addi	a3,a3,5
     f50:	00d502a3          	sb	a3,5(a0)
     f54:	005c0c13          	addi	s8,s8,5
     f58:	01850323          	sb	s8,6(a0)
     f5c:	005b0b13          	addi	s6,s6,5
     f60:	016503a3          	sb	s6,7(a0)
     f64:	005b8b93          	addi	s7,s7,5
     f68:	01750423          	sb	s7,8(a0)
     f6c:	005c8c93          	addi	s9,s9,5
     f70:	019504a3          	sb	s9,9(a0)
     f74:	00508093          	addi	ra,ra,5
     f78:	00150523          	sb	ra,10(a0)
     f7c:	005d8d93          	addi	s11,s11,5
     f80:	01b505a3          	sb	s11,11(a0)
     f84:	005a8a93          	addi	s5,s5,5
     f88:	01550623          	sb	s5,12(a0)
     f8c:	005a0a13          	addi	s4,s4,5
     f90:	014506a3          	sb	s4,13(a0)
     f94:	00598993          	addi	s3,s3,5
     f98:	01350723          	sb	s3,14(a0)
     f9c:	00590913          	addi	s2,s2,5
     fa0:	012507a3          	sb	s2,15(a0)
     fa4:	005f8f93          	addi	t6,t6,5
     fa8:	01f50823          	sb	t6,16(a0)
     fac:	000015b7          	lui	a1,0x1
     fb0:	00b105b3          	add	a1,sp,a1
     fb4:	fb85b583          	ld	a1,-72(a1) # fb8 <.LBB27_1+0xde0>
     fb8:	00558593          	addi	a1,a1,5
     fbc:	00b508a3          	sb	a1,17(a0)
     fc0:	000015b7          	lui	a1,0x1
     fc4:	00b105b3          	add	a1,sp,a1
     fc8:	f805b583          	ld	a1,-128(a1) # f80 <.LBB27_1+0xda8>
     fcc:	00558593          	addi	a1,a1,5
     fd0:	00b50923          	sb	a1,18(a0)
     fd4:	00588593          	addi	a1,a7,5
     fd8:	00b509a3          	sb	a1,19(a0)
     fdc:	00528593          	addi	a1,t0,5
     fe0:	00b50a23          	sb	a1,20(a0)
     fe4:	005e0593          	addi	a1,t3,5
     fe8:	00b50aa3          	sb	a1,21(a0)
     fec:	00580593          	addi	a1,a6,5
     ff0:	00b50b23          	sb	a1,22(a0)
     ff4:	00538593          	addi	a1,t2,5
     ff8:	00b50ba3          	sb	a1,23(a0)
     ffc:	00001537          	lui	a0,0x1
    1000:	00a10533          	add	a0,sp,a0
    1004:	df853583          	ld	a1,-520(a0) # df8 <.LBB27_1+0xc20>
    1008:	0035d513          	srli	a0,a1,0x3
    100c:	00858593          	addi	a1,a1,8
    1010:	3c813703          	ld	a4,968(sp)
    1014:	48070713          	addi	a4,a4,1152
    1018:	00001637          	lui	a2,0x1
    101c:	00c10633          	add	a2,sp,a2
    1020:	deb63c23          	sd	a1,-520(a2) # df8 <.LBB27_1+0xc20>
    1024:	18700593          	li	a1,391
    1028:	00b56463          	bltu	a0,a1,1030 <.LBB27_2>
    102c:	7f01a06f          	j	1b81c <.LBB27_2692>

0000000000001030 <.LBB27_2>:
    1030:	00000d93          	li	s11,0
    1034:	00000093          	li	ra,0
    1038:	00001537          	lui	a0,0x1
    103c:	00a10533          	add	a0,sp,a0
    1040:	3a053823          	sd	zero,944(a0) # 13b0 <.LBB27_2+0x380>
    1044:	00001537          	lui	a0,0x1
    1048:	00a10533          	add	a0,sp,a0
    104c:	3a053423          	sd	zero,936(a0) # 13a8 <.LBB27_2+0x378>
    1050:	00001537          	lui	a0,0x1
    1054:	00a10533          	add	a0,sp,a0
    1058:	3a053023          	sd	zero,928(a0) # 13a0 <.LBB27_2+0x370>
    105c:	00000793          	li	a5,0
    1060:	00000e93          	li	t4,0
    1064:	00000f13          	li	t5,0
    1068:	00000f93          	li	t6,0
    106c:	00000493          	li	s1,0
    1070:	00000593          	li	a1,0
    1074:	00000913          	li	s2,0
    1078:	00000993          	li	s3,0
    107c:	00000a13          	li	s4,0
    1080:	00000a93          	li	s5,0
    1084:	00000e13          	li	t3,0
    1088:	00000393          	li	t2,0
    108c:	00000613          	li	a2,0
    1090:	00000693          	li	a3,0
    1094:	00000b13          	li	s6,0
    1098:	00000893          	li	a7,0
    109c:	00000313          	li	t1,0
    10a0:	00000813          	li	a6,0
    10a4:	00000b93          	li	s7,0
    10a8:	00001537          	lui	a0,0x1
    10ac:	00a10533          	add	a0,sp,a0
    10b0:	4c053023          	sd	zero,1216(a0) # 14c0 <.LBB27_2+0x490>
    10b4:	00001537          	lui	a0,0x1
    10b8:	00a10533          	add	a0,sp,a0
    10bc:	4c053423          	sd	zero,1224(a0) # 14c8 <.LBB27_2+0x498>
    10c0:	00001537          	lui	a0,0x1
    10c4:	00a10533          	add	a0,sp,a0
    10c8:	4c053823          	sd	zero,1232(a0) # 14d0 <.LBB27_2+0x4a0>
    10cc:	00001537          	lui	a0,0x1
    10d0:	00a10533          	add	a0,sp,a0
    10d4:	4c053c23          	sd	zero,1240(a0) # 14d8 <.LBB27_2+0x4a8>
    10d8:	00001537          	lui	a0,0x1
    10dc:	00a10533          	add	a0,sp,a0
    10e0:	4e053023          	sd	zero,1248(a0) # 14e0 <.LBB27_2+0x4b0>
    10e4:	00001537          	lui	a0,0x1
    10e8:	00a10533          	add	a0,sp,a0
    10ec:	4e053423          	sd	zero,1256(a0) # 14e8 <.LBB27_2+0x4b8>
    10f0:	00001537          	lui	a0,0x1
    10f4:	00a10533          	add	a0,sp,a0
    10f8:	4e053823          	sd	zero,1264(a0) # 14f0 <.LBB27_2+0x4c0>
    10fc:	00001537          	lui	a0,0x1
    1100:	00a10533          	add	a0,sp,a0
    1104:	4e053c23          	sd	zero,1272(a0) # 14f8 <.LBB27_2+0x4c8>
    1108:	00001537          	lui	a0,0x1
    110c:	00a10533          	add	a0,sp,a0
    1110:	50053023          	sd	zero,1280(a0) # 1500 <.LBB27_2+0x4d0>
    1114:	00001537          	lui	a0,0x1
    1118:	00a10533          	add	a0,sp,a0
    111c:	50053423          	sd	zero,1288(a0) # 1508 <.LBB27_2+0x4d8>
    1120:	00001537          	lui	a0,0x1
    1124:	00a10533          	add	a0,sp,a0
    1128:	50053823          	sd	zero,1296(a0) # 1510 <.LBB27_2+0x4e0>
    112c:	00001537          	lui	a0,0x1
    1130:	00a10533          	add	a0,sp,a0
    1134:	50053c23          	sd	zero,1304(a0) # 1518 <.LBB27_2+0x4e8>
    1138:	00001537          	lui	a0,0x1
    113c:	5205051b          	addiw	a0,a0,1312 # 1520 <.LBB27_2+0x4f0>
    1140:	00a10533          	add	a0,sp,a0
    1144:	00052023          	sw	zero,0(a0)
    1148:	00001537          	lui	a0,0x1
    114c:	00a10533          	add	a0,sp,a0
    1150:	52052223          	sw	zero,1316(a0) # 1524 <.LBB27_2+0x4f4>
    1154:	00001537          	lui	a0,0x1
    1158:	00a10533          	add	a0,sp,a0
    115c:	52053423          	sd	zero,1320(a0) # 1528 <.LBB27_2+0x4f8>
    1160:	00001537          	lui	a0,0x1
    1164:	00a10533          	add	a0,sp,a0
    1168:	52053823          	sd	zero,1328(a0) # 1530 <.LBB27_2+0x500>
    116c:	00001537          	lui	a0,0x1
    1170:	00a10533          	add	a0,sp,a0
    1174:	52053c23          	sd	zero,1336(a0) # 1538 <.LBB27_2+0x508>
    1178:	00001537          	lui	a0,0x1
    117c:	00a10533          	add	a0,sp,a0
    1180:	54053023          	sd	zero,1344(a0) # 1540 <.LBB27_2+0x510>
    1184:	00001537          	lui	a0,0x1
    1188:	00a10533          	add	a0,sp,a0
    118c:	54053423          	sd	zero,1352(a0) # 1548 <.LBB27_2+0x518>
    1190:	00001537          	lui	a0,0x1
    1194:	00a10533          	add	a0,sp,a0
    1198:	54053823          	sd	zero,1360(a0) # 1550 <.LBB27_2+0x520>
    119c:	00001537          	lui	a0,0x1
    11a0:	00a10533          	add	a0,sp,a0
    11a4:	54053c23          	sd	zero,1368(a0) # 1558 <.LBB27_2+0x528>
    11a8:	00001537          	lui	a0,0x1
    11ac:	00a10533          	add	a0,sp,a0
    11b0:	56053023          	sd	zero,1376(a0) # 1560 <.LBB27_2+0x530>
    11b4:	00001537          	lui	a0,0x1
    11b8:	00a10533          	add	a0,sp,a0
    11bc:	56053423          	sd	zero,1384(a0) # 1568 <.LBB27_2+0x538>
    11c0:	00001537          	lui	a0,0x1
    11c4:	00a10533          	add	a0,sp,a0
    11c8:	56053823          	sd	zero,1392(a0) # 1570 <.LBB27_2+0x540>
    11cc:	00001537          	lui	a0,0x1
    11d0:	00a10533          	add	a0,sp,a0
    11d4:	56053c23          	sd	zero,1400(a0) # 1578 <.LBB27_2+0x548>
    11d8:	00001537          	lui	a0,0x1
    11dc:	5805051b          	addiw	a0,a0,1408 # 1580 <.LBB27_2+0x550>
    11e0:	00a10533          	add	a0,sp,a0
    11e4:	00052023          	sw	zero,0(a0)
    11e8:	00001537          	lui	a0,0x1
    11ec:	00a10533          	add	a0,sp,a0
    11f0:	58052223          	sw	zero,1412(a0) # 1584 <.LBB27_2+0x554>
    11f4:	00001537          	lui	a0,0x1
    11f8:	00a10533          	add	a0,sp,a0
    11fc:	58053423          	sd	zero,1416(a0) # 1588 <.LBB27_2+0x558>
    1200:	00001537          	lui	a0,0x1
    1204:	00a10533          	add	a0,sp,a0
    1208:	58053823          	sd	zero,1424(a0) # 1590 <.LBB27_2+0x560>
    120c:	00001537          	lui	a0,0x1
    1210:	00a10533          	add	a0,sp,a0
    1214:	58053c23          	sd	zero,1432(a0) # 1598 <.LBB27_2+0x568>
    1218:	00001537          	lui	a0,0x1
    121c:	00a10533          	add	a0,sp,a0
    1220:	5a053023          	sd	zero,1440(a0) # 15a0 <.LBB27_2+0x570>
    1224:	00001537          	lui	a0,0x1
    1228:	00a10533          	add	a0,sp,a0
    122c:	5a053423          	sd	zero,1448(a0) # 15a8 <.LBB27_2+0x578>
    1230:	00001537          	lui	a0,0x1
    1234:	00a10533          	add	a0,sp,a0
    1238:	5a053823          	sd	zero,1456(a0) # 15b0 <.LBB27_2+0x580>
    123c:	00001537          	lui	a0,0x1
    1240:	00a10533          	add	a0,sp,a0
    1244:	5a053c23          	sd	zero,1464(a0) # 15b8 <.LBB27_2+0x588>
    1248:	00001537          	lui	a0,0x1
    124c:	00a10533          	add	a0,sp,a0
    1250:	5c053023          	sd	zero,1472(a0) # 15c0 <.LBB27_2+0x590>
    1254:	00001537          	lui	a0,0x1
    1258:	00a10533          	add	a0,sp,a0
    125c:	5c053423          	sd	zero,1480(a0) # 15c8 <.LBB27_2+0x598>
    1260:	00001537          	lui	a0,0x1
    1264:	00a10533          	add	a0,sp,a0
    1268:	5c053823          	sd	zero,1488(a0) # 15d0 <.LBB27_2+0x5a0>
    126c:	00001537          	lui	a0,0x1
    1270:	00a10533          	add	a0,sp,a0
    1274:	5c053c23          	sd	zero,1496(a0) # 15d8 <.LBB27_2+0x5a8>
    1278:	00001537          	lui	a0,0x1
    127c:	5e05051b          	addiw	a0,a0,1504 # 15e0 <.LBB27_2+0x5b0>
    1280:	00a10533          	add	a0,sp,a0
    1284:	00052023          	sw	zero,0(a0)
    1288:	00001537          	lui	a0,0x1
    128c:	00a10533          	add	a0,sp,a0
    1290:	5e052223          	sw	zero,1508(a0) # 15e4 <.LBB27_2+0x5b4>
    1294:	00001537          	lui	a0,0x1
    1298:	00a10533          	add	a0,sp,a0
    129c:	5e053423          	sd	zero,1512(a0) # 15e8 <.LBB27_2+0x5b8>
    12a0:	00001537          	lui	a0,0x1
    12a4:	00a10533          	add	a0,sp,a0
    12a8:	5e053823          	sd	zero,1520(a0) # 15f0 <.LBB27_2+0x5c0>
    12ac:	00001537          	lui	a0,0x1
    12b0:	00a10533          	add	a0,sp,a0
    12b4:	5e053c23          	sd	zero,1528(a0) # 15f8 <.LBB27_2+0x5c8>
    12b8:	00001537          	lui	a0,0x1
    12bc:	00a10533          	add	a0,sp,a0
    12c0:	60053023          	sd	zero,1536(a0) # 1600 <.LBB27_2+0x5d0>
    12c4:	00001537          	lui	a0,0x1
    12c8:	00a10533          	add	a0,sp,a0
    12cc:	60053423          	sd	zero,1544(a0) # 1608 <.LBB27_2+0x5d8>
    12d0:	00001537          	lui	a0,0x1
    12d4:	00a10533          	add	a0,sp,a0
    12d8:	60053823          	sd	zero,1552(a0) # 1610 <.LBB27_2+0x5e0>
    12dc:	00001537          	lui	a0,0x1
    12e0:	00a10533          	add	a0,sp,a0
    12e4:	60053c23          	sd	zero,1560(a0) # 1618 <.LBB27_2+0x5e8>
    12e8:	00001537          	lui	a0,0x1
    12ec:	00a10533          	add	a0,sp,a0
    12f0:	62053023          	sd	zero,1568(a0) # 1620 <.LBB27_2+0x5f0>
    12f4:	00001537          	lui	a0,0x1
    12f8:	00a10533          	add	a0,sp,a0
    12fc:	62053423          	sd	zero,1576(a0) # 1628 <.LBB27_2+0x5f8>
    1300:	00001537          	lui	a0,0x1
    1304:	00a10533          	add	a0,sp,a0
    1308:	62053823          	sd	zero,1584(a0) # 1630 <.LBB27_2+0x600>
    130c:	00001537          	lui	a0,0x1
    1310:	00a10533          	add	a0,sp,a0
    1314:	62053c23          	sd	zero,1592(a0) # 1638 <.LBB27_2+0x608>
    1318:	00001537          	lui	a0,0x1
    131c:	6405051b          	addiw	a0,a0,1600 # 1640 <.LBB27_2+0x610>
    1320:	00a10533          	add	a0,sp,a0
    1324:	00052023          	sw	zero,0(a0)
    1328:	00001537          	lui	a0,0x1
    132c:	00a10533          	add	a0,sp,a0
    1330:	64052223          	sw	zero,1604(a0) # 1644 <.LBB27_2+0x614>
    1334:	00001537          	lui	a0,0x1
    1338:	00a10533          	add	a0,sp,a0
    133c:	64053423          	sd	zero,1608(a0) # 1648 <.LBB27_2+0x618>
    1340:	00001537          	lui	a0,0x1
    1344:	00a10533          	add	a0,sp,a0
    1348:	64053823          	sd	zero,1616(a0) # 1650 <.LBB27_2+0x620>
    134c:	00001537          	lui	a0,0x1
    1350:	00a10533          	add	a0,sp,a0
    1354:	64053c23          	sd	zero,1624(a0) # 1658 <.LBB27_2+0x628>
    1358:	00001537          	lui	a0,0x1
    135c:	00a10533          	add	a0,sp,a0
    1360:	66053023          	sd	zero,1632(a0) # 1660 <.LBB27_2+0x630>
    1364:	00001537          	lui	a0,0x1
    1368:	00a10533          	add	a0,sp,a0
    136c:	66053423          	sd	zero,1640(a0) # 1668 <.LBB27_2+0x638>
    1370:	00001537          	lui	a0,0x1
    1374:	00a10533          	add	a0,sp,a0
    1378:	66053823          	sd	zero,1648(a0) # 1670 <.LBB27_2+0x640>
    137c:	00001537          	lui	a0,0x1
    1380:	00a10533          	add	a0,sp,a0
    1384:	66053c23          	sd	zero,1656(a0) # 1678 <.LBB27_2+0x648>
    1388:	00001537          	lui	a0,0x1
    138c:	00a10533          	add	a0,sp,a0
    1390:	68053023          	sd	zero,1664(a0) # 1680 <.LBB27_2+0x650>
    1394:	00001537          	lui	a0,0x1
    1398:	00a10533          	add	a0,sp,a0
    139c:	68053423          	sd	zero,1672(a0) # 1688 <.LBB27_2+0x658>
    13a0:	00001537          	lui	a0,0x1
    13a4:	00a10533          	add	a0,sp,a0
    13a8:	68053823          	sd	zero,1680(a0) # 1690 <.LBB27_2+0x660>
    13ac:	00001537          	lui	a0,0x1
    13b0:	00a10533          	add	a0,sp,a0
    13b4:	68053c23          	sd	zero,1688(a0) # 1698 <.LBB27_2+0x668>
    13b8:	00001537          	lui	a0,0x1
    13bc:	6a05051b          	addiw	a0,a0,1696 # 16a0 <.LBB27_2+0x670>
    13c0:	00a10533          	add	a0,sp,a0
    13c4:	00052023          	sw	zero,0(a0)
    13c8:	00001537          	lui	a0,0x1
    13cc:	00a10533          	add	a0,sp,a0
    13d0:	6a052223          	sw	zero,1700(a0) # 16a4 <.LBB27_2+0x674>
    13d4:	00001537          	lui	a0,0x1
    13d8:	00a10533          	add	a0,sp,a0
    13dc:	6a053423          	sd	zero,1704(a0) # 16a8 <.LBB27_2+0x678>
    13e0:	00001537          	lui	a0,0x1
    13e4:	00a10533          	add	a0,sp,a0
    13e8:	6a053823          	sd	zero,1712(a0) # 16b0 <.LBB27_2+0x680>
    13ec:	00001537          	lui	a0,0x1
    13f0:	00a10533          	add	a0,sp,a0
    13f4:	6a053c23          	sd	zero,1720(a0) # 16b8 <.LBB27_2+0x688>
    13f8:	00001537          	lui	a0,0x1
    13fc:	00a10533          	add	a0,sp,a0
    1400:	6c053023          	sd	zero,1728(a0) # 16c0 <.LBB27_2+0x690>
    1404:	00001537          	lui	a0,0x1
    1408:	00a10533          	add	a0,sp,a0
    140c:	6c053423          	sd	zero,1736(a0) # 16c8 <.LBB27_2+0x698>
    1410:	00001537          	lui	a0,0x1
    1414:	00a10533          	add	a0,sp,a0
    1418:	6c053823          	sd	zero,1744(a0) # 16d0 <.LBB27_2+0x6a0>
    141c:	00001537          	lui	a0,0x1
    1420:	00a10533          	add	a0,sp,a0
    1424:	6c053c23          	sd	zero,1752(a0) # 16d8 <.LBB27_2+0x6a8>
    1428:	00001537          	lui	a0,0x1
    142c:	00a10533          	add	a0,sp,a0
    1430:	6e053023          	sd	zero,1760(a0) # 16e0 <.LBB27_2+0x6b0>
    1434:	00001537          	lui	a0,0x1
    1438:	00a10533          	add	a0,sp,a0
    143c:	6e053423          	sd	zero,1768(a0) # 16e8 <.LBB27_2+0x6b8>
    1440:	00001537          	lui	a0,0x1
    1444:	00a10533          	add	a0,sp,a0
    1448:	6e053823          	sd	zero,1776(a0) # 16f0 <.LBB27_2+0x6c0>
    144c:	00001537          	lui	a0,0x1
    1450:	00a10533          	add	a0,sp,a0
    1454:	6e053c23          	sd	zero,1784(a0) # 16f8 <.LBB27_2+0x6c8>
    1458:	01700513          	li	a0,23
    145c:	00851513          	slli	a0,a0,0x8
    1460:	00a10533          	add	a0,sp,a0
    1464:	00052023          	sw	zero,0(a0)
    1468:	00001537          	lui	a0,0x1
    146c:	00a10533          	add	a0,sp,a0
    1470:	70052223          	sw	zero,1796(a0) # 1704 <.LBB27_2+0x6d4>
    1474:	00001537          	lui	a0,0x1
    1478:	00a10533          	add	a0,sp,a0
    147c:	70053423          	sd	zero,1800(a0) # 1708 <.LBB27_2+0x6d8>
    1480:	00001537          	lui	a0,0x1
    1484:	00a10533          	add	a0,sp,a0
    1488:	70053823          	sd	zero,1808(a0) # 1710 <.LBB27_2+0x6e0>
    148c:	00001537          	lui	a0,0x1
    1490:	00a10533          	add	a0,sp,a0
    1494:	70053c23          	sd	zero,1816(a0) # 1718 <.LBB27_2+0x6e8>
    1498:	00001537          	lui	a0,0x1
    149c:	00a10533          	add	a0,sp,a0
    14a0:	72053023          	sd	zero,1824(a0) # 1720 <.LBB27_2+0x6f0>
    14a4:	00001537          	lui	a0,0x1
    14a8:	00a10533          	add	a0,sp,a0
    14ac:	72053423          	sd	zero,1832(a0) # 1728 <.LBB27_2+0x6f8>
    14b0:	00001537          	lui	a0,0x1
    14b4:	00a10533          	add	a0,sp,a0
    14b8:	72053823          	sd	zero,1840(a0) # 1730 <.LBB27_2+0x700>
    14bc:	00001537          	lui	a0,0x1
    14c0:	00a10533          	add	a0,sp,a0
    14c4:	72053c23          	sd	zero,1848(a0) # 1738 <.LBB27_2+0x708>
    14c8:	00001537          	lui	a0,0x1
    14cc:	00a10533          	add	a0,sp,a0
    14d0:	74053023          	sd	zero,1856(a0) # 1740 <.LBB27_2+0x710>
    14d4:	00001537          	lui	a0,0x1
    14d8:	00a10533          	add	a0,sp,a0
    14dc:	74053423          	sd	zero,1864(a0) # 1748 <.LBB27_2+0x718>
    14e0:	00001537          	lui	a0,0x1
    14e4:	00a10533          	add	a0,sp,a0
    14e8:	74053823          	sd	zero,1872(a0) # 1750 <.LBB27_2+0x720>
    14ec:	00001537          	lui	a0,0x1
    14f0:	00a10533          	add	a0,sp,a0
    14f4:	74053c23          	sd	zero,1880(a0) # 1758 <.LBB27_2+0x728>
    14f8:	00001537          	lui	a0,0x1
    14fc:	7605051b          	addiw	a0,a0,1888 # 1760 <.LBB27_2+0x730>
    1500:	00a10533          	add	a0,sp,a0
    1504:	00052023          	sw	zero,0(a0)
    1508:	00001537          	lui	a0,0x1
    150c:	00a10533          	add	a0,sp,a0
    1510:	76052223          	sw	zero,1892(a0) # 1764 <.LBB27_2+0x734>
    1514:	00001537          	lui	a0,0x1
    1518:	00a10533          	add	a0,sp,a0
    151c:	76053423          	sd	zero,1896(a0) # 1768 <.LBB27_2+0x738>
    1520:	00001537          	lui	a0,0x1
    1524:	00a10533          	add	a0,sp,a0
    1528:	76053823          	sd	zero,1904(a0) # 1770 <.LBB27_2+0x740>
    152c:	00001537          	lui	a0,0x1
    1530:	00a10533          	add	a0,sp,a0
    1534:	76053c23          	sd	zero,1912(a0) # 1778 <.LBB27_2+0x748>
    1538:	00001537          	lui	a0,0x1
    153c:	00a10533          	add	a0,sp,a0
    1540:	78053023          	sd	zero,1920(a0) # 1780 <.LBB27_2+0x750>
    1544:	00001537          	lui	a0,0x1
    1548:	00a10533          	add	a0,sp,a0
    154c:	78053423          	sd	zero,1928(a0) # 1788 <.LBB27_2+0x758>
    1550:	00001537          	lui	a0,0x1
    1554:	00a10533          	add	a0,sp,a0
    1558:	78053823          	sd	zero,1936(a0) # 1790 <.LBB27_2+0x760>
    155c:	00001537          	lui	a0,0x1
    1560:	00a10533          	add	a0,sp,a0
    1564:	78053c23          	sd	zero,1944(a0) # 1798 <.LBB27_2+0x768>
    1568:	00001537          	lui	a0,0x1
    156c:	00a10533          	add	a0,sp,a0
    1570:	7a053023          	sd	zero,1952(a0) # 17a0 <.LBB27_2+0x770>
    1574:	00001537          	lui	a0,0x1
    1578:	00a10533          	add	a0,sp,a0
    157c:	7a053423          	sd	zero,1960(a0) # 17a8 <.LBB27_2+0x778>
    1580:	00001537          	lui	a0,0x1
    1584:	00a10533          	add	a0,sp,a0
    1588:	51c52503          	lw	a0,1308(a0) # 151c <.LBB27_2+0x4ec>
    158c:	000012b7          	lui	t0,0x1
    1590:	005102b3          	add	t0,sp,t0
    1594:	36a2b423          	sd	a0,872(t0) # 1368 <.LBB27_2+0x338>
    1598:	00001537          	lui	a0,0x1
    159c:	00a10533          	add	a0,sp,a0
    15a0:	51852503          	lw	a0,1304(a0) # 1518 <.LBB27_2+0x4e8>
    15a4:	000012b7          	lui	t0,0x1
    15a8:	005102b3          	add	t0,sp,t0
    15ac:	32a2b823          	sd	a0,816(t0) # 1330 <.LBB27_2+0x300>
    15b0:	00001537          	lui	a0,0x1
    15b4:	00a10533          	add	a0,sp,a0
    15b8:	51452503          	lw	a0,1300(a0) # 1514 <.LBB27_2+0x4e4>
    15bc:	000012b7          	lui	t0,0x1
    15c0:	005102b3          	add	t0,sp,t0
    15c4:	2ea2bc23          	sd	a0,760(t0) # 12f8 <.LBB27_2+0x2c8>
    15c8:	00001537          	lui	a0,0x1
    15cc:	00a10533          	add	a0,sp,a0
    15d0:	51052503          	lw	a0,1296(a0) # 1510 <.LBB27_2+0x4e0>
    15d4:	000012b7          	lui	t0,0x1
    15d8:	005102b3          	add	t0,sp,t0
    15dc:	2ca2b023          	sd	a0,704(t0) # 12c0 <.LBB27_2+0x290>
    15e0:	00001537          	lui	a0,0x1
    15e4:	00a10533          	add	a0,sp,a0
    15e8:	50c52503          	lw	a0,1292(a0) # 150c <.LBB27_2+0x4dc>
    15ec:	000012b7          	lui	t0,0x1
    15f0:	005102b3          	add	t0,sp,t0
    15f4:	28a2b423          	sd	a0,648(t0) # 1288 <.LBB27_2+0x258>
    15f8:	00001537          	lui	a0,0x1
    15fc:	00a10533          	add	a0,sp,a0
    1600:	50852503          	lw	a0,1288(a0) # 1508 <.LBB27_2+0x4d8>
    1604:	000012b7          	lui	t0,0x1
    1608:	005102b3          	add	t0,sp,t0
    160c:	24a2b823          	sd	a0,592(t0) # 1250 <.LBB27_2+0x220>
    1610:	00001537          	lui	a0,0x1
    1614:	00a10533          	add	a0,sp,a0
    1618:	50452503          	lw	a0,1284(a0) # 1504 <.LBB27_2+0x4d4>
    161c:	000012b7          	lui	t0,0x1
    1620:	005102b3          	add	t0,sp,t0
    1624:	20a2bc23          	sd	a0,536(t0) # 1218 <.LBB27_2+0x1e8>
    1628:	00001537          	lui	a0,0x1
    162c:	00a10533          	add	a0,sp,a0
    1630:	50052503          	lw	a0,1280(a0) # 1500 <.LBB27_2+0x4d0>
    1634:	000012b7          	lui	t0,0x1
    1638:	005102b3          	add	t0,sp,t0
    163c:	1ea2b023          	sd	a0,480(t0) # 11e0 <.LBB27_2+0x1b0>
    1640:	00001537          	lui	a0,0x1
    1644:	00a10533          	add	a0,sp,a0
    1648:	4fc52503          	lw	a0,1276(a0) # 14fc <.LBB27_2+0x4cc>
    164c:	000012b7          	lui	t0,0x1
    1650:	005102b3          	add	t0,sp,t0
    1654:	1aa2b423          	sd	a0,424(t0) # 11a8 <.LBB27_2+0x178>
    1658:	00001537          	lui	a0,0x1
    165c:	00a10533          	add	a0,sp,a0
    1660:	4f852503          	lw	a0,1272(a0) # 14f8 <.LBB27_2+0x4c8>
    1664:	000012b7          	lui	t0,0x1
    1668:	005102b3          	add	t0,sp,t0
    166c:	16a2b823          	sd	a0,368(t0) # 1170 <.LBB27_2+0x140>
    1670:	00001537          	lui	a0,0x1
    1674:	00a10533          	add	a0,sp,a0
    1678:	4f452503          	lw	a0,1268(a0) # 14f4 <.LBB27_2+0x4c4>
    167c:	000012b7          	lui	t0,0x1
    1680:	005102b3          	add	t0,sp,t0
    1684:	12a2bc23          	sd	a0,312(t0) # 1138 <.LBB27_2+0x108>
    1688:	00001537          	lui	a0,0x1
    168c:	00a10533          	add	a0,sp,a0
    1690:	4f052503          	lw	a0,1264(a0) # 14f0 <.LBB27_2+0x4c0>
    1694:	000012b7          	lui	t0,0x1
    1698:	005102b3          	add	t0,sp,t0
    169c:	10a2b023          	sd	a0,256(t0) # 1100 <.LBB27_2+0xd0>
    16a0:	00001537          	lui	a0,0x1
    16a4:	00a10533          	add	a0,sp,a0
    16a8:	4ec52503          	lw	a0,1260(a0) # 14ec <.LBB27_2+0x4bc>
    16ac:	000012b7          	lui	t0,0x1
    16b0:	005102b3          	add	t0,sp,t0
    16b4:	0ca2b423          	sd	a0,200(t0) # 10c8 <.LBB27_2+0x98>
    16b8:	00001537          	lui	a0,0x1
    16bc:	00a10533          	add	a0,sp,a0
    16c0:	4e852503          	lw	a0,1256(a0) # 14e8 <.LBB27_2+0x4b8>
    16c4:	000012b7          	lui	t0,0x1
    16c8:	005102b3          	add	t0,sp,t0
    16cc:	08a2b823          	sd	a0,144(t0) # 1090 <.LBB27_2+0x60>
    16d0:	00001537          	lui	a0,0x1
    16d4:	00a10533          	add	a0,sp,a0
    16d8:	4e452503          	lw	a0,1252(a0) # 14e4 <.LBB27_2+0x4b4>
    16dc:	000012b7          	lui	t0,0x1
    16e0:	005102b3          	add	t0,sp,t0
    16e4:	04a2bc23          	sd	a0,88(t0) # 1058 <.LBB27_2+0x28>
    16e8:	00001537          	lui	a0,0x1
    16ec:	00a10533          	add	a0,sp,a0
    16f0:	4e052503          	lw	a0,1248(a0) # 14e0 <.LBB27_2+0x4b0>
    16f4:	000012b7          	lui	t0,0x1
    16f8:	005102b3          	add	t0,sp,t0
    16fc:	02a2b023          	sd	a0,32(t0) # 1020 <.LBB27_1+0xe48>
    1700:	00001537          	lui	a0,0x1
    1704:	00a10533          	add	a0,sp,a0
    1708:	4dc52503          	lw	a0,1244(a0) # 14dc <.LBB27_2+0x4ac>
    170c:	000012b7          	lui	t0,0x1
    1710:	005102b3          	add	t0,sp,t0
    1714:	fea2b423          	sd	a0,-24(t0) # fe8 <.LBB27_1+0xe10>
    1718:	00001537          	lui	a0,0x1
    171c:	00a10533          	add	a0,sp,a0
    1720:	4d852503          	lw	a0,1240(a0) # 14d8 <.LBB27_2+0x4a8>
    1724:	000012b7          	lui	t0,0x1
    1728:	005102b3          	add	t0,sp,t0
    172c:	faa2b823          	sd	a0,-80(t0) # fb0 <.LBB27_1+0xdd8>
    1730:	00001537          	lui	a0,0x1
    1734:	00a10533          	add	a0,sp,a0
    1738:	4d452503          	lw	a0,1236(a0) # 14d4 <.LBB27_2+0x4a4>
    173c:	000012b7          	lui	t0,0x1
    1740:	005102b3          	add	t0,sp,t0
    1744:	f6a2bc23          	sd	a0,-136(t0) # f78 <.LBB27_1+0xda0>
    1748:	00001537          	lui	a0,0x1
    174c:	00a10533          	add	a0,sp,a0
    1750:	4d052503          	lw	a0,1232(a0) # 14d0 <.LBB27_2+0x4a0>
    1754:	000012b7          	lui	t0,0x1
    1758:	005102b3          	add	t0,sp,t0
    175c:	f4a2b023          	sd	a0,-192(t0) # f40 <.LBB27_1+0xd68>
    1760:	00001537          	lui	a0,0x1
    1764:	00a10533          	add	a0,sp,a0
    1768:	4cc52503          	lw	a0,1228(a0) # 14cc <.LBB27_2+0x49c>
    176c:	000012b7          	lui	t0,0x1
    1770:	005102b3          	add	t0,sp,t0
    1774:	f0a2b423          	sd	a0,-248(t0) # f08 <.LBB27_1+0xd30>
    1778:	00001537          	lui	a0,0x1
    177c:	00a10533          	add	a0,sp,a0
    1780:	4c852503          	lw	a0,1224(a0) # 14c8 <.LBB27_2+0x498>
    1784:	000012b7          	lui	t0,0x1
    1788:	005102b3          	add	t0,sp,t0
    178c:	eca2b823          	sd	a0,-304(t0) # ed0 <.LBB27_1+0xcf8>
    1790:	00001537          	lui	a0,0x1
    1794:	00a10533          	add	a0,sp,a0
    1798:	4c452503          	lw	a0,1220(a0) # 14c4 <.LBB27_2+0x494>
    179c:	000012b7          	lui	t0,0x1
    17a0:	005102b3          	add	t0,sp,t0
    17a4:	e8a2bc23          	sd	a0,-360(t0) # e98 <.LBB27_1+0xcc0>
    17a8:	00001537          	lui	a0,0x1
    17ac:	00a10533          	add	a0,sp,a0
    17b0:	4c052503          	lw	a0,1216(a0) # 14c0 <.LBB27_2+0x490>
    17b4:	000012b7          	lui	t0,0x1
    17b8:	005102b3          	add	t0,sp,t0
    17bc:	e6a2b023          	sd	a0,-416(t0) # e60 <.LBB27_1+0xc88>
    17c0:	00001537          	lui	a0,0x1
    17c4:	00a10533          	add	a0,sp,a0
    17c8:	57c52503          	lw	a0,1404(a0) # 157c <.LBB27_2+0x54c>
    17cc:	000012b7          	lui	t0,0x1
    17d0:	005102b3          	add	t0,sp,t0
    17d4:	36a2b823          	sd	a0,880(t0) # 1370 <.LBB27_2+0x340>
    17d8:	00001537          	lui	a0,0x1
    17dc:	00a10533          	add	a0,sp,a0
    17e0:	57852503          	lw	a0,1400(a0) # 1578 <.LBB27_2+0x548>
    17e4:	000012b7          	lui	t0,0x1
    17e8:	005102b3          	add	t0,sp,t0
    17ec:	32a2bc23          	sd	a0,824(t0) # 1338 <.LBB27_2+0x308>
    17f0:	00001537          	lui	a0,0x1
    17f4:	00a10533          	add	a0,sp,a0
    17f8:	57452503          	lw	a0,1396(a0) # 1574 <.LBB27_2+0x544>
    17fc:	000012b7          	lui	t0,0x1
    1800:	005102b3          	add	t0,sp,t0
    1804:	30a2b023          	sd	a0,768(t0) # 1300 <.LBB27_2+0x2d0>
    1808:	00001537          	lui	a0,0x1
    180c:	00a10533          	add	a0,sp,a0
    1810:	57052503          	lw	a0,1392(a0) # 1570 <.LBB27_2+0x540>
    1814:	000012b7          	lui	t0,0x1
    1818:	005102b3          	add	t0,sp,t0
    181c:	2ca2b423          	sd	a0,712(t0) # 12c8 <.LBB27_2+0x298>
    1820:	00001537          	lui	a0,0x1
    1824:	00a10533          	add	a0,sp,a0
    1828:	56c52503          	lw	a0,1388(a0) # 156c <.LBB27_2+0x53c>
    182c:	000012b7          	lui	t0,0x1
    1830:	005102b3          	add	t0,sp,t0
    1834:	28a2b823          	sd	a0,656(t0) # 1290 <.LBB27_2+0x260>
    1838:	00001537          	lui	a0,0x1
    183c:	00a10533          	add	a0,sp,a0
    1840:	56852503          	lw	a0,1384(a0) # 1568 <.LBB27_2+0x538>
    1844:	000012b7          	lui	t0,0x1
    1848:	005102b3          	add	t0,sp,t0
    184c:	24a2bc23          	sd	a0,600(t0) # 1258 <.LBB27_2+0x228>
    1850:	00001537          	lui	a0,0x1
    1854:	00a10533          	add	a0,sp,a0
    1858:	56452503          	lw	a0,1380(a0) # 1564 <.LBB27_2+0x534>
    185c:	000012b7          	lui	t0,0x1
    1860:	005102b3          	add	t0,sp,t0
    1864:	22a2b023          	sd	a0,544(t0) # 1220 <.LBB27_2+0x1f0>
    1868:	00001537          	lui	a0,0x1
    186c:	00a10533          	add	a0,sp,a0
    1870:	56052503          	lw	a0,1376(a0) # 1560 <.LBB27_2+0x530>
    1874:	000012b7          	lui	t0,0x1
    1878:	005102b3          	add	t0,sp,t0
    187c:	1ea2b423          	sd	a0,488(t0) # 11e8 <.LBB27_2+0x1b8>
    1880:	00001537          	lui	a0,0x1
    1884:	00a10533          	add	a0,sp,a0
    1888:	55c52503          	lw	a0,1372(a0) # 155c <.LBB27_2+0x52c>
    188c:	000012b7          	lui	t0,0x1
    1890:	005102b3          	add	t0,sp,t0
    1894:	1aa2b823          	sd	a0,432(t0) # 11b0 <.LBB27_2+0x180>
    1898:	00001537          	lui	a0,0x1
    189c:	00a10533          	add	a0,sp,a0
    18a0:	55852503          	lw	a0,1368(a0) # 1558 <.LBB27_2+0x528>
    18a4:	000012b7          	lui	t0,0x1
    18a8:	005102b3          	add	t0,sp,t0
    18ac:	16a2bc23          	sd	a0,376(t0) # 1178 <.LBB27_2+0x148>
    18b0:	00001537          	lui	a0,0x1
    18b4:	00a10533          	add	a0,sp,a0
    18b8:	55452503          	lw	a0,1364(a0) # 1554 <.LBB27_2+0x524>
    18bc:	000012b7          	lui	t0,0x1
    18c0:	005102b3          	add	t0,sp,t0
    18c4:	14a2b023          	sd	a0,320(t0) # 1140 <.LBB27_2+0x110>
    18c8:	00001537          	lui	a0,0x1
    18cc:	00a10533          	add	a0,sp,a0
    18d0:	55052503          	lw	a0,1360(a0) # 1550 <.LBB27_2+0x520>
    18d4:	000012b7          	lui	t0,0x1
    18d8:	005102b3          	add	t0,sp,t0
    18dc:	10a2b423          	sd	a0,264(t0) # 1108 <.LBB27_2+0xd8>
    18e0:	00001537          	lui	a0,0x1
    18e4:	00a10533          	add	a0,sp,a0
    18e8:	54c52503          	lw	a0,1356(a0) # 154c <.LBB27_2+0x51c>
    18ec:	000012b7          	lui	t0,0x1
    18f0:	005102b3          	add	t0,sp,t0
    18f4:	0ca2b823          	sd	a0,208(t0) # 10d0 <.LBB27_2+0xa0>
    18f8:	00001537          	lui	a0,0x1
    18fc:	00a10533          	add	a0,sp,a0
    1900:	54852503          	lw	a0,1352(a0) # 1548 <.LBB27_2+0x518>
    1904:	000012b7          	lui	t0,0x1
    1908:	005102b3          	add	t0,sp,t0
    190c:	08a2bc23          	sd	a0,152(t0) # 1098 <.LBB27_2+0x68>
    1910:	00001537          	lui	a0,0x1
    1914:	00a10533          	add	a0,sp,a0
    1918:	54452503          	lw	a0,1348(a0) # 1544 <.LBB27_2+0x514>
    191c:	000012b7          	lui	t0,0x1
    1920:	005102b3          	add	t0,sp,t0
    1924:	06a2b023          	sd	a0,96(t0) # 1060 <.LBB27_2+0x30>
    1928:	00001537          	lui	a0,0x1
    192c:	00a10533          	add	a0,sp,a0
    1930:	54052503          	lw	a0,1344(a0) # 1540 <.LBB27_2+0x510>
    1934:	000012b7          	lui	t0,0x1
    1938:	005102b3          	add	t0,sp,t0
    193c:	02a2b423          	sd	a0,40(t0) # 1028 <.LBB27_1+0xe50>
    1940:	00001537          	lui	a0,0x1
    1944:	00a10533          	add	a0,sp,a0
    1948:	53c52503          	lw	a0,1340(a0) # 153c <.LBB27_2+0x50c>
    194c:	000012b7          	lui	t0,0x1
    1950:	005102b3          	add	t0,sp,t0
    1954:	fea2b823          	sd	a0,-16(t0) # ff0 <.LBB27_1+0xe18>
    1958:	00001537          	lui	a0,0x1
    195c:	00a10533          	add	a0,sp,a0
    1960:	53852503          	lw	a0,1336(a0) # 1538 <.LBB27_2+0x508>
    1964:	000012b7          	lui	t0,0x1
    1968:	005102b3          	add	t0,sp,t0
    196c:	faa2bc23          	sd	a0,-72(t0) # fb8 <.LBB27_1+0xde0>
    1970:	00001537          	lui	a0,0x1
    1974:	00a10533          	add	a0,sp,a0
    1978:	53452503          	lw	a0,1332(a0) # 1534 <.LBB27_2+0x504>
    197c:	000012b7          	lui	t0,0x1
    1980:	005102b3          	add	t0,sp,t0
    1984:	f8a2b023          	sd	a0,-128(t0) # f80 <.LBB27_1+0xda8>
    1988:	00001537          	lui	a0,0x1
    198c:	00a10533          	add	a0,sp,a0
    1990:	53052503          	lw	a0,1328(a0) # 1530 <.LBB27_2+0x500>
    1994:	000012b7          	lui	t0,0x1
    1998:	005102b3          	add	t0,sp,t0
    199c:	f4a2b423          	sd	a0,-184(t0) # f48 <.LBB27_1+0xd70>
    19a0:	00001537          	lui	a0,0x1
    19a4:	00a10533          	add	a0,sp,a0
    19a8:	52c52503          	lw	a0,1324(a0) # 152c <.LBB27_2+0x4fc>
    19ac:	000012b7          	lui	t0,0x1
    19b0:	005102b3          	add	t0,sp,t0
    19b4:	f0a2b823          	sd	a0,-240(t0) # f10 <.LBB27_1+0xd38>
    19b8:	00001537          	lui	a0,0x1
    19bc:	00a10533          	add	a0,sp,a0
    19c0:	52852503          	lw	a0,1320(a0) # 1528 <.LBB27_2+0x4f8>
    19c4:	000012b7          	lui	t0,0x1
    19c8:	005102b3          	add	t0,sp,t0
    19cc:	eca2bc23          	sd	a0,-296(t0) # ed8 <.LBB27_1+0xd00>
    19d0:	00001537          	lui	a0,0x1
    19d4:	00a10533          	add	a0,sp,a0
    19d8:	52452503          	lw	a0,1316(a0) # 1524 <.LBB27_2+0x4f4>
    19dc:	000012b7          	lui	t0,0x1
    19e0:	005102b3          	add	t0,sp,t0
    19e4:	eaa2b023          	sd	a0,-352(t0) # ea0 <.LBB27_1+0xcc8>
    19e8:	00001537          	lui	a0,0x1
    19ec:	00a10533          	add	a0,sp,a0
    19f0:	52052503          	lw	a0,1312(a0) # 1520 <.LBB27_2+0x4f0>
    19f4:	000012b7          	lui	t0,0x1
    19f8:	005102b3          	add	t0,sp,t0
    19fc:	e6a2b423          	sd	a0,-408(t0) # e68 <.LBB27_1+0xc90>
    1a00:	00001537          	lui	a0,0x1
    1a04:	00a10533          	add	a0,sp,a0
    1a08:	5dc52503          	lw	a0,1500(a0) # 15dc <.LBB27_2+0x5ac>
    1a0c:	000012b7          	lui	t0,0x1
    1a10:	005102b3          	add	t0,sp,t0
    1a14:	36a2bc23          	sd	a0,888(t0) # 1378 <.LBB27_2+0x348>
    1a18:	00001537          	lui	a0,0x1
    1a1c:	00a10533          	add	a0,sp,a0
    1a20:	5d852503          	lw	a0,1496(a0) # 15d8 <.LBB27_2+0x5a8>
    1a24:	000012b7          	lui	t0,0x1
    1a28:	005102b3          	add	t0,sp,t0
    1a2c:	34a2b023          	sd	a0,832(t0) # 1340 <.LBB27_2+0x310>
    1a30:	00001537          	lui	a0,0x1
    1a34:	00a10533          	add	a0,sp,a0
    1a38:	5d452503          	lw	a0,1492(a0) # 15d4 <.LBB27_2+0x5a4>
    1a3c:	000012b7          	lui	t0,0x1
    1a40:	005102b3          	add	t0,sp,t0
    1a44:	30a2b423          	sd	a0,776(t0) # 1308 <.LBB27_2+0x2d8>
    1a48:	00001537          	lui	a0,0x1
    1a4c:	00a10533          	add	a0,sp,a0
    1a50:	5d052503          	lw	a0,1488(a0) # 15d0 <.LBB27_2+0x5a0>
    1a54:	000012b7          	lui	t0,0x1
    1a58:	005102b3          	add	t0,sp,t0
    1a5c:	2ca2b823          	sd	a0,720(t0) # 12d0 <.LBB27_2+0x2a0>
    1a60:	00001537          	lui	a0,0x1
    1a64:	00a10533          	add	a0,sp,a0
    1a68:	5cc52503          	lw	a0,1484(a0) # 15cc <.LBB27_2+0x59c>
    1a6c:	000012b7          	lui	t0,0x1
    1a70:	005102b3          	add	t0,sp,t0
    1a74:	28a2bc23          	sd	a0,664(t0) # 1298 <.LBB27_2+0x268>
    1a78:	00001537          	lui	a0,0x1
    1a7c:	00a10533          	add	a0,sp,a0
    1a80:	5c852503          	lw	a0,1480(a0) # 15c8 <.LBB27_2+0x598>
    1a84:	000012b7          	lui	t0,0x1
    1a88:	005102b3          	add	t0,sp,t0
    1a8c:	26a2b023          	sd	a0,608(t0) # 1260 <.LBB27_2+0x230>
    1a90:	00001537          	lui	a0,0x1
    1a94:	00a10533          	add	a0,sp,a0
    1a98:	5c452503          	lw	a0,1476(a0) # 15c4 <.LBB27_2+0x594>
    1a9c:	000012b7          	lui	t0,0x1
    1aa0:	005102b3          	add	t0,sp,t0
    1aa4:	22a2b423          	sd	a0,552(t0) # 1228 <.LBB27_2+0x1f8>
    1aa8:	00001537          	lui	a0,0x1
    1aac:	00a10533          	add	a0,sp,a0
    1ab0:	5c052503          	lw	a0,1472(a0) # 15c0 <.LBB27_2+0x590>
    1ab4:	000012b7          	lui	t0,0x1
    1ab8:	005102b3          	add	t0,sp,t0
    1abc:	1ea2b823          	sd	a0,496(t0) # 11f0 <.LBB27_2+0x1c0>
    1ac0:	00001537          	lui	a0,0x1
    1ac4:	00a10533          	add	a0,sp,a0
    1ac8:	5bc52503          	lw	a0,1468(a0) # 15bc <.LBB27_2+0x58c>
    1acc:	000012b7          	lui	t0,0x1
    1ad0:	005102b3          	add	t0,sp,t0
    1ad4:	1aa2bc23          	sd	a0,440(t0) # 11b8 <.LBB27_2+0x188>
    1ad8:	00001537          	lui	a0,0x1
    1adc:	00a10533          	add	a0,sp,a0
    1ae0:	5b852503          	lw	a0,1464(a0) # 15b8 <.LBB27_2+0x588>
    1ae4:	000012b7          	lui	t0,0x1
    1ae8:	005102b3          	add	t0,sp,t0
    1aec:	18a2b023          	sd	a0,384(t0) # 1180 <.LBB27_2+0x150>
    1af0:	00001537          	lui	a0,0x1
    1af4:	00a10533          	add	a0,sp,a0
    1af8:	5b452503          	lw	a0,1460(a0) # 15b4 <.LBB27_2+0x584>
    1afc:	000012b7          	lui	t0,0x1
    1b00:	005102b3          	add	t0,sp,t0
    1b04:	14a2b423          	sd	a0,328(t0) # 1148 <.LBB27_2+0x118>
    1b08:	00001537          	lui	a0,0x1
    1b0c:	00a10533          	add	a0,sp,a0
    1b10:	5b052503          	lw	a0,1456(a0) # 15b0 <.LBB27_2+0x580>
    1b14:	000012b7          	lui	t0,0x1
    1b18:	005102b3          	add	t0,sp,t0
    1b1c:	10a2b823          	sd	a0,272(t0) # 1110 <.LBB27_2+0xe0>
    1b20:	00001537          	lui	a0,0x1
    1b24:	00a10533          	add	a0,sp,a0
    1b28:	5ac52503          	lw	a0,1452(a0) # 15ac <.LBB27_2+0x57c>
    1b2c:	000012b7          	lui	t0,0x1
    1b30:	005102b3          	add	t0,sp,t0
    1b34:	0ca2bc23          	sd	a0,216(t0) # 10d8 <.LBB27_2+0xa8>
    1b38:	00001537          	lui	a0,0x1
    1b3c:	00a10533          	add	a0,sp,a0
    1b40:	5a852503          	lw	a0,1448(a0) # 15a8 <.LBB27_2+0x578>
    1b44:	000012b7          	lui	t0,0x1
    1b48:	005102b3          	add	t0,sp,t0
    1b4c:	0aa2b023          	sd	a0,160(t0) # 10a0 <.LBB27_2+0x70>
    1b50:	00001537          	lui	a0,0x1
    1b54:	00a10533          	add	a0,sp,a0
    1b58:	5a452503          	lw	a0,1444(a0) # 15a4 <.LBB27_2+0x574>
    1b5c:	000012b7          	lui	t0,0x1
    1b60:	005102b3          	add	t0,sp,t0
    1b64:	06a2b423          	sd	a0,104(t0) # 1068 <.LBB27_2+0x38>
    1b68:	00001537          	lui	a0,0x1
    1b6c:	00a10533          	add	a0,sp,a0
    1b70:	5a052503          	lw	a0,1440(a0) # 15a0 <.LBB27_2+0x570>
    1b74:	000012b7          	lui	t0,0x1
    1b78:	005102b3          	add	t0,sp,t0
    1b7c:	02a2b823          	sd	a0,48(t0) # 1030 <.LBB27_2>
    1b80:	00001537          	lui	a0,0x1
    1b84:	00a10533          	add	a0,sp,a0
    1b88:	59c52503          	lw	a0,1436(a0) # 159c <.LBB27_2+0x56c>
    1b8c:	000012b7          	lui	t0,0x1
    1b90:	005102b3          	add	t0,sp,t0
    1b94:	fea2bc23          	sd	a0,-8(t0) # ff8 <.LBB27_1+0xe20>
    1b98:	00001537          	lui	a0,0x1
    1b9c:	00a10533          	add	a0,sp,a0
    1ba0:	59852503          	lw	a0,1432(a0) # 1598 <.LBB27_2+0x568>
    1ba4:	000012b7          	lui	t0,0x1
    1ba8:	005102b3          	add	t0,sp,t0
    1bac:	fca2b023          	sd	a0,-64(t0) # fc0 <.LBB27_1+0xde8>
    1bb0:	00001537          	lui	a0,0x1
    1bb4:	00a10533          	add	a0,sp,a0
    1bb8:	59452503          	lw	a0,1428(a0) # 1594 <.LBB27_2+0x564>
    1bbc:	000012b7          	lui	t0,0x1
    1bc0:	005102b3          	add	t0,sp,t0
    1bc4:	f8a2b423          	sd	a0,-120(t0) # f88 <.LBB27_1+0xdb0>
    1bc8:	00001537          	lui	a0,0x1
    1bcc:	00a10533          	add	a0,sp,a0
    1bd0:	59052503          	lw	a0,1424(a0) # 1590 <.LBB27_2+0x560>
    1bd4:	000012b7          	lui	t0,0x1
    1bd8:	005102b3          	add	t0,sp,t0
    1bdc:	f4a2b823          	sd	a0,-176(t0) # f50 <.LBB27_1+0xd78>
    1be0:	00001537          	lui	a0,0x1
    1be4:	00a10533          	add	a0,sp,a0
    1be8:	58c52503          	lw	a0,1420(a0) # 158c <.LBB27_2+0x55c>
    1bec:	000012b7          	lui	t0,0x1
    1bf0:	005102b3          	add	t0,sp,t0
    1bf4:	f0a2bc23          	sd	a0,-232(t0) # f18 <.LBB27_1+0xd40>
    1bf8:	00001537          	lui	a0,0x1
    1bfc:	00a10533          	add	a0,sp,a0
    1c00:	58852503          	lw	a0,1416(a0) # 1588 <.LBB27_2+0x558>
    1c04:	000012b7          	lui	t0,0x1
    1c08:	005102b3          	add	t0,sp,t0
    1c0c:	eea2b023          	sd	a0,-288(t0) # ee0 <.LBB27_1+0xd08>
    1c10:	00001537          	lui	a0,0x1
    1c14:	00a10533          	add	a0,sp,a0
    1c18:	58452503          	lw	a0,1412(a0) # 1584 <.LBB27_2+0x554>
    1c1c:	000012b7          	lui	t0,0x1
    1c20:	005102b3          	add	t0,sp,t0
    1c24:	eaa2b423          	sd	a0,-344(t0) # ea8 <.LBB27_1+0xcd0>
    1c28:	00001537          	lui	a0,0x1
    1c2c:	00a10533          	add	a0,sp,a0
    1c30:	58052503          	lw	a0,1408(a0) # 1580 <.LBB27_2+0x550>
    1c34:	000012b7          	lui	t0,0x1
    1c38:	005102b3          	add	t0,sp,t0
    1c3c:	e6a2b823          	sd	a0,-400(t0) # e70 <.LBB27_1+0xc98>
    1c40:	00001537          	lui	a0,0x1
    1c44:	00a10533          	add	a0,sp,a0
    1c48:	63c52503          	lw	a0,1596(a0) # 163c <.LBB27_2+0x60c>
    1c4c:	000012b7          	lui	t0,0x1
    1c50:	005102b3          	add	t0,sp,t0
    1c54:	38a2b023          	sd	a0,896(t0) # 1380 <.LBB27_2+0x350>
    1c58:	00001537          	lui	a0,0x1
    1c5c:	00a10533          	add	a0,sp,a0
    1c60:	63852503          	lw	a0,1592(a0) # 1638 <.LBB27_2+0x608>
    1c64:	000012b7          	lui	t0,0x1
    1c68:	005102b3          	add	t0,sp,t0
    1c6c:	34a2b423          	sd	a0,840(t0) # 1348 <.LBB27_2+0x318>
    1c70:	00001537          	lui	a0,0x1
    1c74:	00a10533          	add	a0,sp,a0
    1c78:	63452503          	lw	a0,1588(a0) # 1634 <.LBB27_2+0x604>
    1c7c:	000012b7          	lui	t0,0x1
    1c80:	005102b3          	add	t0,sp,t0
    1c84:	30a2b823          	sd	a0,784(t0) # 1310 <.LBB27_2+0x2e0>
    1c88:	00001537          	lui	a0,0x1
    1c8c:	00a10533          	add	a0,sp,a0
    1c90:	63052503          	lw	a0,1584(a0) # 1630 <.LBB27_2+0x600>
    1c94:	000012b7          	lui	t0,0x1
    1c98:	005102b3          	add	t0,sp,t0
    1c9c:	2ca2bc23          	sd	a0,728(t0) # 12d8 <.LBB27_2+0x2a8>
    1ca0:	00001537          	lui	a0,0x1
    1ca4:	00a10533          	add	a0,sp,a0
    1ca8:	62c52503          	lw	a0,1580(a0) # 162c <.LBB27_2+0x5fc>
    1cac:	000012b7          	lui	t0,0x1
    1cb0:	005102b3          	add	t0,sp,t0
    1cb4:	2aa2b023          	sd	a0,672(t0) # 12a0 <.LBB27_2+0x270>
    1cb8:	00001537          	lui	a0,0x1
    1cbc:	00a10533          	add	a0,sp,a0
    1cc0:	62852503          	lw	a0,1576(a0) # 1628 <.LBB27_2+0x5f8>
    1cc4:	000012b7          	lui	t0,0x1
    1cc8:	005102b3          	add	t0,sp,t0
    1ccc:	26a2b423          	sd	a0,616(t0) # 1268 <.LBB27_2+0x238>
    1cd0:	00001537          	lui	a0,0x1
    1cd4:	00a10533          	add	a0,sp,a0
    1cd8:	62452503          	lw	a0,1572(a0) # 1624 <.LBB27_2+0x5f4>
    1cdc:	000012b7          	lui	t0,0x1
    1ce0:	005102b3          	add	t0,sp,t0
    1ce4:	22a2b823          	sd	a0,560(t0) # 1230 <.LBB27_2+0x200>
    1ce8:	00001537          	lui	a0,0x1
    1cec:	00a10533          	add	a0,sp,a0
    1cf0:	62052503          	lw	a0,1568(a0) # 1620 <.LBB27_2+0x5f0>
    1cf4:	000012b7          	lui	t0,0x1
    1cf8:	005102b3          	add	t0,sp,t0
    1cfc:	1ea2bc23          	sd	a0,504(t0) # 11f8 <.LBB27_2+0x1c8>
    1d00:	00001537          	lui	a0,0x1
    1d04:	00a10533          	add	a0,sp,a0
    1d08:	61c52503          	lw	a0,1564(a0) # 161c <.LBB27_2+0x5ec>
    1d0c:	000012b7          	lui	t0,0x1
    1d10:	005102b3          	add	t0,sp,t0
    1d14:	1ca2b023          	sd	a0,448(t0) # 11c0 <.LBB27_2+0x190>
    1d18:	00001537          	lui	a0,0x1
    1d1c:	00a10533          	add	a0,sp,a0
    1d20:	61852503          	lw	a0,1560(a0) # 1618 <.LBB27_2+0x5e8>
    1d24:	000012b7          	lui	t0,0x1
    1d28:	005102b3          	add	t0,sp,t0
    1d2c:	18a2b423          	sd	a0,392(t0) # 1188 <.LBB27_2+0x158>
    1d30:	00001537          	lui	a0,0x1
    1d34:	00a10533          	add	a0,sp,a0
    1d38:	61452503          	lw	a0,1556(a0) # 1614 <.LBB27_2+0x5e4>
    1d3c:	000012b7          	lui	t0,0x1
    1d40:	005102b3          	add	t0,sp,t0
    1d44:	14a2b823          	sd	a0,336(t0) # 1150 <.LBB27_2+0x120>
    1d48:	00001537          	lui	a0,0x1
    1d4c:	00a10533          	add	a0,sp,a0
    1d50:	61052503          	lw	a0,1552(a0) # 1610 <.LBB27_2+0x5e0>
    1d54:	000012b7          	lui	t0,0x1
    1d58:	005102b3          	add	t0,sp,t0
    1d5c:	10a2bc23          	sd	a0,280(t0) # 1118 <.LBB27_2+0xe8>
    1d60:	00001537          	lui	a0,0x1
    1d64:	00a10533          	add	a0,sp,a0
    1d68:	60c52503          	lw	a0,1548(a0) # 160c <.LBB27_2+0x5dc>
    1d6c:	000012b7          	lui	t0,0x1
    1d70:	005102b3          	add	t0,sp,t0
    1d74:	0ea2b023          	sd	a0,224(t0) # 10e0 <.LBB27_2+0xb0>
    1d78:	00001537          	lui	a0,0x1
    1d7c:	00a10533          	add	a0,sp,a0
    1d80:	60852503          	lw	a0,1544(a0) # 1608 <.LBB27_2+0x5d8>
    1d84:	000012b7          	lui	t0,0x1
    1d88:	005102b3          	add	t0,sp,t0
    1d8c:	0aa2b423          	sd	a0,168(t0) # 10a8 <.LBB27_2+0x78>
    1d90:	00001537          	lui	a0,0x1
    1d94:	00a10533          	add	a0,sp,a0
    1d98:	60452503          	lw	a0,1540(a0) # 1604 <.LBB27_2+0x5d4>
    1d9c:	000012b7          	lui	t0,0x1
    1da0:	005102b3          	add	t0,sp,t0
    1da4:	06a2b823          	sd	a0,112(t0) # 1070 <.LBB27_2+0x40>
    1da8:	00001537          	lui	a0,0x1
    1dac:	00a10533          	add	a0,sp,a0
    1db0:	60052503          	lw	a0,1536(a0) # 1600 <.LBB27_2+0x5d0>
    1db4:	000012b7          	lui	t0,0x1
    1db8:	005102b3          	add	t0,sp,t0
    1dbc:	02a2bc23          	sd	a0,56(t0) # 1038 <.LBB27_2+0x8>
    1dc0:	00001537          	lui	a0,0x1
    1dc4:	00a10533          	add	a0,sp,a0
    1dc8:	5fc52503          	lw	a0,1532(a0) # 15fc <.LBB27_2+0x5cc>
    1dcc:	000012b7          	lui	t0,0x1
    1dd0:	005102b3          	add	t0,sp,t0
    1dd4:	00a2b023          	sd	a0,0(t0) # 1000 <.LBB27_1+0xe28>
    1dd8:	00001537          	lui	a0,0x1
    1ddc:	00a10533          	add	a0,sp,a0
    1de0:	5f852503          	lw	a0,1528(a0) # 15f8 <.LBB27_2+0x5c8>
    1de4:	000012b7          	lui	t0,0x1
    1de8:	005102b3          	add	t0,sp,t0
    1dec:	fca2b423          	sd	a0,-56(t0) # fc8 <.LBB27_1+0xdf0>
    1df0:	00001537          	lui	a0,0x1
    1df4:	00a10533          	add	a0,sp,a0
    1df8:	5f452503          	lw	a0,1524(a0) # 15f4 <.LBB27_2+0x5c4>
    1dfc:	000012b7          	lui	t0,0x1
    1e00:	005102b3          	add	t0,sp,t0
    1e04:	f8a2b823          	sd	a0,-112(t0) # f90 <.LBB27_1+0xdb8>
    1e08:	00001537          	lui	a0,0x1
    1e0c:	00a10533          	add	a0,sp,a0
    1e10:	5f052503          	lw	a0,1520(a0) # 15f0 <.LBB27_2+0x5c0>
    1e14:	000012b7          	lui	t0,0x1
    1e18:	005102b3          	add	t0,sp,t0
    1e1c:	f4a2bc23          	sd	a0,-168(t0) # f58 <.LBB27_1+0xd80>
    1e20:	00001537          	lui	a0,0x1
    1e24:	00a10533          	add	a0,sp,a0
    1e28:	5ec52503          	lw	a0,1516(a0) # 15ec <.LBB27_2+0x5bc>
    1e2c:	000012b7          	lui	t0,0x1
    1e30:	005102b3          	add	t0,sp,t0
    1e34:	f2a2b023          	sd	a0,-224(t0) # f20 <.LBB27_1+0xd48>
    1e38:	00001537          	lui	a0,0x1
    1e3c:	00a10533          	add	a0,sp,a0
    1e40:	5e852503          	lw	a0,1512(a0) # 15e8 <.LBB27_2+0x5b8>
    1e44:	000012b7          	lui	t0,0x1
    1e48:	005102b3          	add	t0,sp,t0
    1e4c:	eea2b423          	sd	a0,-280(t0) # ee8 <.LBB27_1+0xd10>
    1e50:	00001537          	lui	a0,0x1
    1e54:	00a10533          	add	a0,sp,a0
    1e58:	5e452503          	lw	a0,1508(a0) # 15e4 <.LBB27_2+0x5b4>
    1e5c:	000012b7          	lui	t0,0x1
    1e60:	005102b3          	add	t0,sp,t0
    1e64:	eaa2b823          	sd	a0,-336(t0) # eb0 <.LBB27_1+0xcd8>
    1e68:	00001537          	lui	a0,0x1
    1e6c:	00a10533          	add	a0,sp,a0
    1e70:	5e052503          	lw	a0,1504(a0) # 15e0 <.LBB27_2+0x5b0>
    1e74:	000012b7          	lui	t0,0x1
    1e78:	005102b3          	add	t0,sp,t0
    1e7c:	e6a2bc23          	sd	a0,-392(t0) # e78 <.LBB27_1+0xca0>
    1e80:	00001537          	lui	a0,0x1
    1e84:	00a10533          	add	a0,sp,a0
    1e88:	69c52503          	lw	a0,1692(a0) # 169c <.LBB27_2+0x66c>
    1e8c:	000012b7          	lui	t0,0x1
    1e90:	005102b3          	add	t0,sp,t0
    1e94:	38a2b423          	sd	a0,904(t0) # 1388 <.LBB27_2+0x358>
    1e98:	00001537          	lui	a0,0x1
    1e9c:	00a10533          	add	a0,sp,a0
    1ea0:	69852503          	lw	a0,1688(a0) # 1698 <.LBB27_2+0x668>
    1ea4:	000012b7          	lui	t0,0x1
    1ea8:	005102b3          	add	t0,sp,t0
    1eac:	34a2b823          	sd	a0,848(t0) # 1350 <.LBB27_2+0x320>
    1eb0:	00001537          	lui	a0,0x1
    1eb4:	00a10533          	add	a0,sp,a0
    1eb8:	69452503          	lw	a0,1684(a0) # 1694 <.LBB27_2+0x664>
    1ebc:	000012b7          	lui	t0,0x1
    1ec0:	005102b3          	add	t0,sp,t0
    1ec4:	30a2bc23          	sd	a0,792(t0) # 1318 <.LBB27_2+0x2e8>
    1ec8:	00001537          	lui	a0,0x1
    1ecc:	00a10533          	add	a0,sp,a0
    1ed0:	69052503          	lw	a0,1680(a0) # 1690 <.LBB27_2+0x660>
    1ed4:	000012b7          	lui	t0,0x1
    1ed8:	005102b3          	add	t0,sp,t0
    1edc:	2ea2b023          	sd	a0,736(t0) # 12e0 <.LBB27_2+0x2b0>
    1ee0:	00001537          	lui	a0,0x1
    1ee4:	00a10533          	add	a0,sp,a0
    1ee8:	68c52503          	lw	a0,1676(a0) # 168c <.LBB27_2+0x65c>
    1eec:	000012b7          	lui	t0,0x1
    1ef0:	005102b3          	add	t0,sp,t0
    1ef4:	2aa2b423          	sd	a0,680(t0) # 12a8 <.LBB27_2+0x278>
    1ef8:	00001537          	lui	a0,0x1
    1efc:	00a10533          	add	a0,sp,a0
    1f00:	68852503          	lw	a0,1672(a0) # 1688 <.LBB27_2+0x658>
    1f04:	000012b7          	lui	t0,0x1
    1f08:	005102b3          	add	t0,sp,t0
    1f0c:	26a2b823          	sd	a0,624(t0) # 1270 <.LBB27_2+0x240>
    1f10:	00001537          	lui	a0,0x1
    1f14:	00a10533          	add	a0,sp,a0
    1f18:	68452503          	lw	a0,1668(a0) # 1684 <.LBB27_2+0x654>
    1f1c:	000012b7          	lui	t0,0x1
    1f20:	005102b3          	add	t0,sp,t0
    1f24:	22a2bc23          	sd	a0,568(t0) # 1238 <.LBB27_2+0x208>
    1f28:	00001537          	lui	a0,0x1
    1f2c:	00a10533          	add	a0,sp,a0
    1f30:	68052503          	lw	a0,1664(a0) # 1680 <.LBB27_2+0x650>
    1f34:	000012b7          	lui	t0,0x1
    1f38:	005102b3          	add	t0,sp,t0
    1f3c:	20a2b023          	sd	a0,512(t0) # 1200 <.LBB27_2+0x1d0>
    1f40:	00001537          	lui	a0,0x1
    1f44:	00a10533          	add	a0,sp,a0
    1f48:	67c52503          	lw	a0,1660(a0) # 167c <.LBB27_2+0x64c>
    1f4c:	000012b7          	lui	t0,0x1
    1f50:	005102b3          	add	t0,sp,t0
    1f54:	1ca2b423          	sd	a0,456(t0) # 11c8 <.LBB27_2+0x198>
    1f58:	00001537          	lui	a0,0x1
    1f5c:	00a10533          	add	a0,sp,a0
    1f60:	67852503          	lw	a0,1656(a0) # 1678 <.LBB27_2+0x648>
    1f64:	000012b7          	lui	t0,0x1
    1f68:	005102b3          	add	t0,sp,t0
    1f6c:	18a2b823          	sd	a0,400(t0) # 1190 <.LBB27_2+0x160>
    1f70:	00001537          	lui	a0,0x1
    1f74:	00a10533          	add	a0,sp,a0
    1f78:	67452503          	lw	a0,1652(a0) # 1674 <.LBB27_2+0x644>
    1f7c:	000012b7          	lui	t0,0x1
    1f80:	005102b3          	add	t0,sp,t0
    1f84:	14a2bc23          	sd	a0,344(t0) # 1158 <.LBB27_2+0x128>
    1f88:	00001537          	lui	a0,0x1
    1f8c:	00a10533          	add	a0,sp,a0
    1f90:	67052503          	lw	a0,1648(a0) # 1670 <.LBB27_2+0x640>
    1f94:	000012b7          	lui	t0,0x1
    1f98:	005102b3          	add	t0,sp,t0
    1f9c:	12a2b023          	sd	a0,288(t0) # 1120 <.LBB27_2+0xf0>
    1fa0:	00001537          	lui	a0,0x1
    1fa4:	00a10533          	add	a0,sp,a0
    1fa8:	66c52503          	lw	a0,1644(a0) # 166c <.LBB27_2+0x63c>
    1fac:	000012b7          	lui	t0,0x1
    1fb0:	005102b3          	add	t0,sp,t0
    1fb4:	0ea2b423          	sd	a0,232(t0) # 10e8 <.LBB27_2+0xb8>
    1fb8:	00001537          	lui	a0,0x1
    1fbc:	00a10533          	add	a0,sp,a0
    1fc0:	66852503          	lw	a0,1640(a0) # 1668 <.LBB27_2+0x638>
    1fc4:	000012b7          	lui	t0,0x1
    1fc8:	005102b3          	add	t0,sp,t0
    1fcc:	0aa2b823          	sd	a0,176(t0) # 10b0 <.LBB27_2+0x80>
    1fd0:	00001537          	lui	a0,0x1
    1fd4:	00a10533          	add	a0,sp,a0
    1fd8:	66452503          	lw	a0,1636(a0) # 1664 <.LBB27_2+0x634>
    1fdc:	000012b7          	lui	t0,0x1
    1fe0:	005102b3          	add	t0,sp,t0
    1fe4:	06a2bc23          	sd	a0,120(t0) # 1078 <.LBB27_2+0x48>
    1fe8:	00001537          	lui	a0,0x1
    1fec:	00a10533          	add	a0,sp,a0
    1ff0:	66052503          	lw	a0,1632(a0) # 1660 <.LBB27_2+0x630>
    1ff4:	000012b7          	lui	t0,0x1
    1ff8:	005102b3          	add	t0,sp,t0
    1ffc:	04a2b023          	sd	a0,64(t0) # 1040 <.LBB27_2+0x10>
    2000:	00001537          	lui	a0,0x1
    2004:	00a10533          	add	a0,sp,a0
    2008:	65c52503          	lw	a0,1628(a0) # 165c <.LBB27_2+0x62c>
    200c:	000012b7          	lui	t0,0x1
    2010:	005102b3          	add	t0,sp,t0
    2014:	00a2b423          	sd	a0,8(t0) # 1008 <.LBB27_1+0xe30>
    2018:	00001537          	lui	a0,0x1
    201c:	00a10533          	add	a0,sp,a0
    2020:	65852503          	lw	a0,1624(a0) # 1658 <.LBB27_2+0x628>
    2024:	000012b7          	lui	t0,0x1
    2028:	005102b3          	add	t0,sp,t0
    202c:	fca2b823          	sd	a0,-48(t0) # fd0 <.LBB27_1+0xdf8>
    2030:	00001537          	lui	a0,0x1
    2034:	00a10533          	add	a0,sp,a0
    2038:	65452503          	lw	a0,1620(a0) # 1654 <.LBB27_2+0x624>
    203c:	000012b7          	lui	t0,0x1
    2040:	005102b3          	add	t0,sp,t0
    2044:	f8a2bc23          	sd	a0,-104(t0) # f98 <.LBB27_1+0xdc0>
    2048:	00001537          	lui	a0,0x1
    204c:	00a10533          	add	a0,sp,a0
    2050:	65052503          	lw	a0,1616(a0) # 1650 <.LBB27_2+0x620>
    2054:	000012b7          	lui	t0,0x1
    2058:	005102b3          	add	t0,sp,t0
    205c:	f6a2b023          	sd	a0,-160(t0) # f60 <.LBB27_1+0xd88>
    2060:	00001537          	lui	a0,0x1
    2064:	00a10533          	add	a0,sp,a0
    2068:	64c52503          	lw	a0,1612(a0) # 164c <.LBB27_2+0x61c>
    206c:	000012b7          	lui	t0,0x1
    2070:	005102b3          	add	t0,sp,t0
    2074:	f2a2b423          	sd	a0,-216(t0) # f28 <.LBB27_1+0xd50>
    2078:	00001537          	lui	a0,0x1
    207c:	00a10533          	add	a0,sp,a0
    2080:	64852503          	lw	a0,1608(a0) # 1648 <.LBB27_2+0x618>
    2084:	000012b7          	lui	t0,0x1
    2088:	005102b3          	add	t0,sp,t0
    208c:	eea2b823          	sd	a0,-272(t0) # ef0 <.LBB27_1+0xd18>
    2090:	00001537          	lui	a0,0x1
    2094:	00a10533          	add	a0,sp,a0
    2098:	64452503          	lw	a0,1604(a0) # 1644 <.LBB27_2+0x614>
    209c:	000012b7          	lui	t0,0x1
    20a0:	005102b3          	add	t0,sp,t0
    20a4:	eaa2bc23          	sd	a0,-328(t0) # eb8 <.LBB27_1+0xce0>
    20a8:	00001537          	lui	a0,0x1
    20ac:	00a10533          	add	a0,sp,a0
    20b0:	64052503          	lw	a0,1600(a0) # 1640 <.LBB27_2+0x610>
    20b4:	000012b7          	lui	t0,0x1
    20b8:	005102b3          	add	t0,sp,t0
    20bc:	e8a2b023          	sd	a0,-384(t0) # e80 <.LBB27_1+0xca8>
    20c0:	00001537          	lui	a0,0x1
    20c4:	00a10533          	add	a0,sp,a0
    20c8:	6fc52503          	lw	a0,1788(a0) # 16fc <.LBB27_2+0x6cc>
    20cc:	000012b7          	lui	t0,0x1
    20d0:	005102b3          	add	t0,sp,t0
    20d4:	38a2b823          	sd	a0,912(t0) # 1390 <.LBB27_2+0x360>
    20d8:	00001537          	lui	a0,0x1
    20dc:	00a10533          	add	a0,sp,a0
    20e0:	6f852503          	lw	a0,1784(a0) # 16f8 <.LBB27_2+0x6c8>
    20e4:	000012b7          	lui	t0,0x1
    20e8:	005102b3          	add	t0,sp,t0
    20ec:	34a2bc23          	sd	a0,856(t0) # 1358 <.LBB27_2+0x328>
    20f0:	00001537          	lui	a0,0x1
    20f4:	00a10533          	add	a0,sp,a0
    20f8:	6f452503          	lw	a0,1780(a0) # 16f4 <.LBB27_2+0x6c4>
    20fc:	000012b7          	lui	t0,0x1
    2100:	005102b3          	add	t0,sp,t0
    2104:	32a2b023          	sd	a0,800(t0) # 1320 <.LBB27_2+0x2f0>
    2108:	00001537          	lui	a0,0x1
    210c:	00a10533          	add	a0,sp,a0
    2110:	6f052503          	lw	a0,1776(a0) # 16f0 <.LBB27_2+0x6c0>
    2114:	000012b7          	lui	t0,0x1
    2118:	005102b3          	add	t0,sp,t0
    211c:	2ea2b423          	sd	a0,744(t0) # 12e8 <.LBB27_2+0x2b8>
    2120:	00001537          	lui	a0,0x1
    2124:	00a10533          	add	a0,sp,a0
    2128:	6ec52503          	lw	a0,1772(a0) # 16ec <.LBB27_2+0x6bc>
    212c:	000012b7          	lui	t0,0x1
    2130:	005102b3          	add	t0,sp,t0
    2134:	2aa2b823          	sd	a0,688(t0) # 12b0 <.LBB27_2+0x280>
    2138:	00001537          	lui	a0,0x1
    213c:	00a10533          	add	a0,sp,a0
    2140:	6e852503          	lw	a0,1768(a0) # 16e8 <.LBB27_2+0x6b8>
    2144:	000012b7          	lui	t0,0x1
    2148:	005102b3          	add	t0,sp,t0
    214c:	26a2bc23          	sd	a0,632(t0) # 1278 <.LBB27_2+0x248>
    2150:	00001537          	lui	a0,0x1
    2154:	00a10533          	add	a0,sp,a0
    2158:	6e452503          	lw	a0,1764(a0) # 16e4 <.LBB27_2+0x6b4>
    215c:	000012b7          	lui	t0,0x1
    2160:	005102b3          	add	t0,sp,t0
    2164:	24a2b023          	sd	a0,576(t0) # 1240 <.LBB27_2+0x210>
    2168:	00001537          	lui	a0,0x1
    216c:	00a10533          	add	a0,sp,a0
    2170:	6e052503          	lw	a0,1760(a0) # 16e0 <.LBB27_2+0x6b0>
    2174:	000012b7          	lui	t0,0x1
    2178:	005102b3          	add	t0,sp,t0
    217c:	20a2b423          	sd	a0,520(t0) # 1208 <.LBB27_2+0x1d8>
    2180:	00001537          	lui	a0,0x1
    2184:	00a10533          	add	a0,sp,a0
    2188:	6dc52503          	lw	a0,1756(a0) # 16dc <.LBB27_2+0x6ac>
    218c:	000012b7          	lui	t0,0x1
    2190:	005102b3          	add	t0,sp,t0
    2194:	1ca2b823          	sd	a0,464(t0) # 11d0 <.LBB27_2+0x1a0>
    2198:	00001537          	lui	a0,0x1
    219c:	00a10533          	add	a0,sp,a0
    21a0:	6d852503          	lw	a0,1752(a0) # 16d8 <.LBB27_2+0x6a8>
    21a4:	000012b7          	lui	t0,0x1
    21a8:	005102b3          	add	t0,sp,t0
    21ac:	18a2bc23          	sd	a0,408(t0) # 1198 <.LBB27_2+0x168>
    21b0:	00001537          	lui	a0,0x1
    21b4:	00a10533          	add	a0,sp,a0
    21b8:	6d452503          	lw	a0,1748(a0) # 16d4 <.LBB27_2+0x6a4>
    21bc:	000012b7          	lui	t0,0x1
    21c0:	005102b3          	add	t0,sp,t0
    21c4:	16a2b023          	sd	a0,352(t0) # 1160 <.LBB27_2+0x130>
    21c8:	00001537          	lui	a0,0x1
    21cc:	00a10533          	add	a0,sp,a0
    21d0:	6d052503          	lw	a0,1744(a0) # 16d0 <.LBB27_2+0x6a0>
    21d4:	000012b7          	lui	t0,0x1
    21d8:	005102b3          	add	t0,sp,t0
    21dc:	12a2b423          	sd	a0,296(t0) # 1128 <.LBB27_2+0xf8>
    21e0:	00001537          	lui	a0,0x1
    21e4:	00a10533          	add	a0,sp,a0
    21e8:	6cc52503          	lw	a0,1740(a0) # 16cc <.LBB27_2+0x69c>
    21ec:	000012b7          	lui	t0,0x1
    21f0:	005102b3          	add	t0,sp,t0
    21f4:	0ea2b823          	sd	a0,240(t0) # 10f0 <.LBB27_2+0xc0>
    21f8:	00001537          	lui	a0,0x1
    21fc:	00a10533          	add	a0,sp,a0
    2200:	6c852503          	lw	a0,1736(a0) # 16c8 <.LBB27_2+0x698>
    2204:	000012b7          	lui	t0,0x1
    2208:	005102b3          	add	t0,sp,t0
    220c:	0aa2bc23          	sd	a0,184(t0) # 10b8 <.LBB27_2+0x88>
    2210:	00001537          	lui	a0,0x1
    2214:	00a10533          	add	a0,sp,a0
    2218:	6c452503          	lw	a0,1732(a0) # 16c4 <.LBB27_2+0x694>
    221c:	000012b7          	lui	t0,0x1
    2220:	005102b3          	add	t0,sp,t0
    2224:	08a2b023          	sd	a0,128(t0) # 1080 <.LBB27_2+0x50>
    2228:	00001537          	lui	a0,0x1
    222c:	00a10533          	add	a0,sp,a0
    2230:	6c052503          	lw	a0,1728(a0) # 16c0 <.LBB27_2+0x690>
    2234:	000012b7          	lui	t0,0x1
    2238:	005102b3          	add	t0,sp,t0
    223c:	04a2b423          	sd	a0,72(t0) # 1048 <.LBB27_2+0x18>
    2240:	00001537          	lui	a0,0x1
    2244:	00a10533          	add	a0,sp,a0
    2248:	6bc52503          	lw	a0,1724(a0) # 16bc <.LBB27_2+0x68c>
    224c:	000012b7          	lui	t0,0x1
    2250:	005102b3          	add	t0,sp,t0
    2254:	00a2b823          	sd	a0,16(t0) # 1010 <.LBB27_1+0xe38>
    2258:	00001537          	lui	a0,0x1
    225c:	00a10533          	add	a0,sp,a0
    2260:	6b852503          	lw	a0,1720(a0) # 16b8 <.LBB27_2+0x688>
    2264:	000012b7          	lui	t0,0x1
    2268:	005102b3          	add	t0,sp,t0
    226c:	fca2bc23          	sd	a0,-40(t0) # fd8 <.LBB27_1+0xe00>
    2270:	00001537          	lui	a0,0x1
    2274:	00a10533          	add	a0,sp,a0
    2278:	6b452503          	lw	a0,1716(a0) # 16b4 <.LBB27_2+0x684>
    227c:	000012b7          	lui	t0,0x1
    2280:	005102b3          	add	t0,sp,t0
    2284:	faa2b023          	sd	a0,-96(t0) # fa0 <.LBB27_1+0xdc8>
    2288:	00001537          	lui	a0,0x1
    228c:	00a10533          	add	a0,sp,a0
    2290:	6b052503          	lw	a0,1712(a0) # 16b0 <.LBB27_2+0x680>
    2294:	000012b7          	lui	t0,0x1
    2298:	005102b3          	add	t0,sp,t0
    229c:	f6a2b423          	sd	a0,-152(t0) # f68 <.LBB27_1+0xd90>
    22a0:	00001537          	lui	a0,0x1
    22a4:	00a10533          	add	a0,sp,a0
    22a8:	6ac52503          	lw	a0,1708(a0) # 16ac <.LBB27_2+0x67c>
    22ac:	000012b7          	lui	t0,0x1
    22b0:	005102b3          	add	t0,sp,t0
    22b4:	f2a2b823          	sd	a0,-208(t0) # f30 <.LBB27_1+0xd58>
    22b8:	00001537          	lui	a0,0x1
    22bc:	00a10533          	add	a0,sp,a0
    22c0:	6a852503          	lw	a0,1704(a0) # 16a8 <.LBB27_2+0x678>
    22c4:	000012b7          	lui	t0,0x1
    22c8:	005102b3          	add	t0,sp,t0
    22cc:	eea2bc23          	sd	a0,-264(t0) # ef8 <.LBB27_1+0xd20>
    22d0:	00001537          	lui	a0,0x1
    22d4:	00a10533          	add	a0,sp,a0
    22d8:	6a452503          	lw	a0,1700(a0) # 16a4 <.LBB27_2+0x674>
    22dc:	000012b7          	lui	t0,0x1
    22e0:	005102b3          	add	t0,sp,t0
    22e4:	eca2b023          	sd	a0,-320(t0) # ec0 <.LBB27_1+0xce8>
    22e8:	00001537          	lui	a0,0x1
    22ec:	00a10533          	add	a0,sp,a0
    22f0:	6a052503          	lw	a0,1696(a0) # 16a0 <.LBB27_2+0x670>
    22f4:	000012b7          	lui	t0,0x1
    22f8:	005102b3          	add	t0,sp,t0
    22fc:	e8a2b423          	sd	a0,-376(t0) # e88 <.LBB27_1+0xcb0>
    2300:	00001537          	lui	a0,0x1
    2304:	00a10533          	add	a0,sp,a0
    2308:	75c52503          	lw	a0,1884(a0) # 175c <.LBB27_2+0x72c>
    230c:	000012b7          	lui	t0,0x1
    2310:	005102b3          	add	t0,sp,t0
    2314:	38a2bc23          	sd	a0,920(t0) # 1398 <.LBB27_2+0x368>
    2318:	00001537          	lui	a0,0x1
    231c:	00a10533          	add	a0,sp,a0
    2320:	75852503          	lw	a0,1880(a0) # 1758 <.LBB27_2+0x728>
    2324:	000012b7          	lui	t0,0x1
    2328:	005102b3          	add	t0,sp,t0
    232c:	36a2b023          	sd	a0,864(t0) # 1360 <.LBB27_2+0x330>
    2330:	00001537          	lui	a0,0x1
    2334:	00a10533          	add	a0,sp,a0
    2338:	75452503          	lw	a0,1876(a0) # 1754 <.LBB27_2+0x724>
    233c:	000012b7          	lui	t0,0x1
    2340:	005102b3          	add	t0,sp,t0
    2344:	32a2b423          	sd	a0,808(t0) # 1328 <.LBB27_2+0x2f8>
    2348:	00001537          	lui	a0,0x1
    234c:	00a10533          	add	a0,sp,a0
    2350:	75052503          	lw	a0,1872(a0) # 1750 <.LBB27_2+0x720>
    2354:	000012b7          	lui	t0,0x1
    2358:	005102b3          	add	t0,sp,t0
    235c:	2ea2b823          	sd	a0,752(t0) # 12f0 <.LBB27_2+0x2c0>
    2360:	00001537          	lui	a0,0x1
    2364:	00a10533          	add	a0,sp,a0
    2368:	74c52503          	lw	a0,1868(a0) # 174c <.LBB27_2+0x71c>
    236c:	000012b7          	lui	t0,0x1
    2370:	005102b3          	add	t0,sp,t0
    2374:	2aa2bc23          	sd	a0,696(t0) # 12b8 <.LBB27_2+0x288>
    2378:	00001537          	lui	a0,0x1
    237c:	00a10533          	add	a0,sp,a0
    2380:	74852503          	lw	a0,1864(a0) # 1748 <.LBB27_2+0x718>
    2384:	000012b7          	lui	t0,0x1
    2388:	005102b3          	add	t0,sp,t0
    238c:	28a2b023          	sd	a0,640(t0) # 1280 <.LBB27_2+0x250>
    2390:	00001537          	lui	a0,0x1
    2394:	00a10533          	add	a0,sp,a0
    2398:	74452503          	lw	a0,1860(a0) # 1744 <.LBB27_2+0x714>
    239c:	000012b7          	lui	t0,0x1
    23a0:	005102b3          	add	t0,sp,t0
    23a4:	24a2b423          	sd	a0,584(t0) # 1248 <.LBB27_2+0x218>
    23a8:	00001537          	lui	a0,0x1
    23ac:	00a10533          	add	a0,sp,a0
    23b0:	74052503          	lw	a0,1856(a0) # 1740 <.LBB27_2+0x710>
    23b4:	000012b7          	lui	t0,0x1
    23b8:	005102b3          	add	t0,sp,t0
    23bc:	20a2b823          	sd	a0,528(t0) # 1210 <.LBB27_2+0x1e0>
    23c0:	00001537          	lui	a0,0x1
    23c4:	00a10533          	add	a0,sp,a0
    23c8:	73c52503          	lw	a0,1852(a0) # 173c <.LBB27_2+0x70c>
    23cc:	000012b7          	lui	t0,0x1
    23d0:	005102b3          	add	t0,sp,t0
    23d4:	1ca2bc23          	sd	a0,472(t0) # 11d8 <.LBB27_2+0x1a8>
    23d8:	00001537          	lui	a0,0x1
    23dc:	00a10533          	add	a0,sp,a0
    23e0:	73852503          	lw	a0,1848(a0) # 1738 <.LBB27_2+0x708>
    23e4:	000012b7          	lui	t0,0x1
    23e8:	005102b3          	add	t0,sp,t0
    23ec:	1aa2b023          	sd	a0,416(t0) # 11a0 <.LBB27_2+0x170>
    23f0:	00001537          	lui	a0,0x1
    23f4:	00a10533          	add	a0,sp,a0
    23f8:	73452503          	lw	a0,1844(a0) # 1734 <.LBB27_2+0x704>
    23fc:	000012b7          	lui	t0,0x1
    2400:	005102b3          	add	t0,sp,t0
    2404:	16a2b423          	sd	a0,360(t0) # 1168 <.LBB27_2+0x138>
    2408:	00001537          	lui	a0,0x1
    240c:	00a10533          	add	a0,sp,a0
    2410:	73052503          	lw	a0,1840(a0) # 1730 <.LBB27_2+0x700>
    2414:	000012b7          	lui	t0,0x1
    2418:	005102b3          	add	t0,sp,t0
    241c:	12a2b823          	sd	a0,304(t0) # 1130 <.LBB27_2+0x100>
    2420:	00001537          	lui	a0,0x1
    2424:	00a10533          	add	a0,sp,a0
    2428:	72c52503          	lw	a0,1836(a0) # 172c <.LBB27_2+0x6fc>
    242c:	000012b7          	lui	t0,0x1
    2430:	005102b3          	add	t0,sp,t0
    2434:	0ea2bc23          	sd	a0,248(t0) # 10f8 <.LBB27_2+0xc8>
    2438:	00001537          	lui	a0,0x1
    243c:	00a10533          	add	a0,sp,a0
    2440:	72852503          	lw	a0,1832(a0) # 1728 <.LBB27_2+0x6f8>
    2444:	000012b7          	lui	t0,0x1
    2448:	005102b3          	add	t0,sp,t0
    244c:	0ca2b023          	sd	a0,192(t0) # 10c0 <.LBB27_2+0x90>
    2450:	00001537          	lui	a0,0x1
    2454:	00a10533          	add	a0,sp,a0
    2458:	72452503          	lw	a0,1828(a0) # 1724 <.LBB27_2+0x6f4>
    245c:	000012b7          	lui	t0,0x1
    2460:	005102b3          	add	t0,sp,t0
    2464:	08a2b423          	sd	a0,136(t0) # 1088 <.LBB27_2+0x58>
    2468:	00001537          	lui	a0,0x1
    246c:	00a10533          	add	a0,sp,a0
    2470:	72052503          	lw	a0,1824(a0) # 1720 <.LBB27_2+0x6f0>
    2474:	000012b7          	lui	t0,0x1
    2478:	005102b3          	add	t0,sp,t0
    247c:	04a2b823          	sd	a0,80(t0) # 1050 <.LBB27_2+0x20>
    2480:	00001537          	lui	a0,0x1
    2484:	00a10533          	add	a0,sp,a0
    2488:	71c52503          	lw	a0,1820(a0) # 171c <.LBB27_2+0x6ec>
    248c:	000012b7          	lui	t0,0x1
    2490:	005102b3          	add	t0,sp,t0
    2494:	00a2bc23          	sd	a0,24(t0) # 1018 <.LBB27_1+0xe40>
    2498:	00001537          	lui	a0,0x1
    249c:	00a10533          	add	a0,sp,a0
    24a0:	71852503          	lw	a0,1816(a0) # 1718 <.LBB27_2+0x6e8>
    24a4:	000012b7          	lui	t0,0x1
    24a8:	005102b3          	add	t0,sp,t0
    24ac:	fea2b023          	sd	a0,-32(t0) # fe0 <.LBB27_1+0xe08>
    24b0:	00001537          	lui	a0,0x1
    24b4:	00a10533          	add	a0,sp,a0
    24b8:	71452503          	lw	a0,1812(a0) # 1714 <.LBB27_2+0x6e4>
    24bc:	000012b7          	lui	t0,0x1
    24c0:	005102b3          	add	t0,sp,t0
    24c4:	faa2b423          	sd	a0,-88(t0) # fa8 <.LBB27_1+0xdd0>
    24c8:	00001537          	lui	a0,0x1
    24cc:	00a10533          	add	a0,sp,a0
    24d0:	71052503          	lw	a0,1808(a0) # 1710 <.LBB27_2+0x6e0>
    24d4:	000012b7          	lui	t0,0x1
    24d8:	005102b3          	add	t0,sp,t0
    24dc:	f6a2b823          	sd	a0,-144(t0) # f70 <.LBB27_1+0xd98>
    24e0:	00001537          	lui	a0,0x1
    24e4:	00a10533          	add	a0,sp,a0
    24e8:	70c52503          	lw	a0,1804(a0) # 170c <.LBB27_2+0x6dc>
    24ec:	000012b7          	lui	t0,0x1
    24f0:	005102b3          	add	t0,sp,t0
    24f4:	f2a2bc23          	sd	a0,-200(t0) # f38 <.LBB27_1+0xd60>
    24f8:	00001537          	lui	a0,0x1
    24fc:	00a10533          	add	a0,sp,a0
    2500:	70852503          	lw	a0,1800(a0) # 1708 <.LBB27_2+0x6d8>
    2504:	000012b7          	lui	t0,0x1
    2508:	005102b3          	add	t0,sp,t0
    250c:	f0a2b023          	sd	a0,-256(t0) # f00 <.LBB27_1+0xd28>
    2510:	00001537          	lui	a0,0x1
    2514:	00a10533          	add	a0,sp,a0
    2518:	70452503          	lw	a0,1796(a0) # 1704 <.LBB27_2+0x6d4>
    251c:	000012b7          	lui	t0,0x1
    2520:	005102b3          	add	t0,sp,t0
    2524:	eca2b423          	sd	a0,-312(t0) # ec8 <.LBB27_1+0xcf0>
    2528:	00001537          	lui	a0,0x1
    252c:	00a10533          	add	a0,sp,a0
    2530:	70052503          	lw	a0,1792(a0) # 1700 <.LBB27_2+0x6d0>
    2534:	000012b7          	lui	t0,0x1
    2538:	005102b3          	add	t0,sp,t0
    253c:	e8a2b823          	sd	a0,-368(t0) # e90 <.LBB27_1+0xcb8>
    2540:	00001537          	lui	a0,0x1
    2544:	00a10533          	add	a0,sp,a0
    2548:	7a053823          	sd	zero,1968(a0) # 17b0 <.LBB27_2+0x780>
    254c:	00001537          	lui	a0,0x1
    2550:	00a10533          	add	a0,sp,a0
    2554:	7a053c23          	sd	zero,1976(a0) # 17b8 <.LBB27_2+0x788>
    2558:	09000513          	li	a0,144
    255c:	3ce13423          	sd	a4,968(sp)
    2560:	0f013283          	ld	t0,240(sp)

0000000000002564 <.LBB27_3>:
    2564:	00001c37          	lui	s8,0x1
    2568:	01810c33          	add	s8,sp,s8
    256c:	4aec3c23          	sd	a4,1208(s8) # 14b8 <.LBB27_2+0x488>
    2570:	00001c37          	lui	s8,0x1
    2574:	01810c33          	add	s8,sp,s8
    2578:	e4ac3823          	sd	a0,-432(s8) # e50 <.LBB27_1+0xc78>
    257c:	00001537          	lui	a0,0x1
    2580:	00a10533          	add	a0,sp,a0
    2584:	e4153c23          	sd	ra,-424(a0) # e58 <.LBB27_1+0xc80>
    2588:	00001537          	lui	a0,0x1
    258c:	00a10533          	add	a0,sp,a0
    2590:	43b53023          	sd	s11,1056(a0) # 1420 <.LBB27_2+0x3f0>
    2594:	00001537          	lui	a0,0x1
    2598:	00a10533          	add	a0,sp,a0
    259c:	3b753c23          	sd	s7,952(a0) # 13b8 <.LBB27_2+0x388>
    25a0:	00001537          	lui	a0,0x1
    25a4:	00a10533          	add	a0,sp,a0
    25a8:	43053423          	sd	a6,1064(a0) # 1428 <.LBB27_2+0x3f8>
    25ac:	00001537          	lui	a0,0x1
    25b0:	00a10533          	add	a0,sp,a0
    25b4:	42653823          	sd	t1,1072(a0) # 1430 <.LBB27_2+0x400>
    25b8:	00001537          	lui	a0,0x1
    25bc:	00a10533          	add	a0,sp,a0
    25c0:	43153c23          	sd	a7,1080(a0) # 1438 <.LBB27_2+0x408>
    25c4:	00001537          	lui	a0,0x1
    25c8:	00a10533          	add	a0,sp,a0
    25cc:	3d653023          	sd	s6,960(a0) # 13c0 <.LBB27_2+0x390>
    25d0:	00001537          	lui	a0,0x1
    25d4:	00a10533          	add	a0,sp,a0
    25d8:	44d53023          	sd	a3,1088(a0) # 1440 <.LBB27_2+0x410>
    25dc:	00001537          	lui	a0,0x1
    25e0:	00a10533          	add	a0,sp,a0
    25e4:	44c53423          	sd	a2,1096(a0) # 1448 <.LBB27_2+0x418>
    25e8:	00001537          	lui	a0,0x1
    25ec:	00a10533          	add	a0,sp,a0
    25f0:	44753823          	sd	t2,1104(a0) # 1450 <.LBB27_2+0x420>
    25f4:	00001537          	lui	a0,0x1
    25f8:	00a10533          	add	a0,sp,a0
    25fc:	45c53c23          	sd	t3,1112(a0) # 1458 <.LBB27_2+0x428>
    2600:	00001537          	lui	a0,0x1
    2604:	00a10533          	add	a0,sp,a0
    2608:	47553023          	sd	s5,1120(a0) # 1460 <.LBB27_2+0x430>
    260c:	00001537          	lui	a0,0x1
    2610:	00a10533          	add	a0,sp,a0
    2614:	47453423          	sd	s4,1128(a0) # 1468 <.LBB27_2+0x438>
    2618:	00001537          	lui	a0,0x1
    261c:	00a10533          	add	a0,sp,a0
    2620:	47353823          	sd	s3,1136(a0) # 1470 <.LBB27_2+0x440>
    2624:	00001537          	lui	a0,0x1
    2628:	00a10533          	add	a0,sp,a0
    262c:	47253c23          	sd	s2,1144(a0) # 1478 <.LBB27_2+0x448>
    2630:	00001537          	lui	a0,0x1
    2634:	00a10533          	add	a0,sp,a0
    2638:	48b53023          	sd	a1,1152(a0) # 1480 <.LBB27_2+0x450>
    263c:	00001537          	lui	a0,0x1
    2640:	00a10533          	add	a0,sp,a0
    2644:	48953423          	sd	s1,1160(a0) # 1488 <.LBB27_2+0x458>
    2648:	00001537          	lui	a0,0x1
    264c:	00a10533          	add	a0,sp,a0
    2650:	49f53823          	sd	t6,1168(a0) # 1490 <.LBB27_2+0x460>
    2654:	00001537          	lui	a0,0x1
    2658:	00a10533          	add	a0,sp,a0
    265c:	49e53c23          	sd	t5,1176(a0) # 1498 <.LBB27_2+0x468>
    2660:	00001537          	lui	a0,0x1
    2664:	00a10533          	add	a0,sp,a0
    2668:	4bd53023          	sd	t4,1184(a0) # 14a0 <.LBB27_2+0x470>
    266c:	00001537          	lui	a0,0x1
    2670:	00a10533          	add	a0,sp,a0
    2674:	4af53423          	sd	a5,1192(a0) # 14a8 <.LBB27_2+0x478>
    2678:	00070503          	lb	a0,0(a4)
    267c:	09070783          	lb	a5,144(a4)
    2680:	00028e93          	mv	t4,t0
    2684:	00028603          	lb	a2,0(t0)
    2688:	000015b7          	lui	a1,0x1
    268c:	00b105b3          	add	a1,sp,a1
    2690:	40c5bc23          	sd	a2,1048(a1) # 1418 <.LBB27_2+0x3e8>
    2694:	00128583          	lb	a1,1(t0)
    2698:	000016b7          	lui	a3,0x1
    269c:	00d106b3          	add	a3,sp,a3
    26a0:	4ab6b823          	sd	a1,1200(a3) # 14b0 <.LBB27_2+0x480>
    26a4:	00228803          	lb	a6,2(t0)
    26a8:	000016b7          	lui	a3,0x1
    26ac:	00d106b3          	add	a3,sp,a3
    26b0:	3f06b823          	sd	a6,1008(a3) # 13f0 <.LBB27_2+0x3c0>
    26b4:	00328683          	lb	a3,3(t0)
    26b8:	00428703          	lb	a4,4(t0)
    26bc:	00528883          	lb	a7,5(t0)
    26c0:	00628303          	lb	t1,6(t0)
    26c4:	00728a03          	lb	s4,7(t0)
    26c8:	00828b83          	lb	s7,8(t0)
    26cc:	00928283          	lb	t0,9(t0)
    26d0:	00ae8383          	lb	t2,10(t4)
    26d4:	00001e37          	lui	t3,0x1
    26d8:	01c10e33          	add	t3,sp,t3
    26dc:	407e3423          	sd	t2,1032(t3) # 1408 <.LBB27_2+0x3d8>
    26e0:	00be8383          	lb	t2,11(t4)
    26e4:	00001e37          	lui	t3,0x1
    26e8:	01c10e33          	add	t3,sp,t3
    26ec:	3e7e3423          	sd	t2,1000(t3) # 13e8 <.LBB27_2+0x3b8>
    26f0:	00ce8e03          	lb	t3,12(t4)
    26f4:	00de8b03          	lb	s6,13(t4)
    26f8:	00ee8f83          	lb	t6,14(t4)
    26fc:	00001f37          	lui	t5,0x1
    2700:	01e10f33          	add	t5,sp,t5
    2704:	e1ff3c23          	sd	t6,-488(t5) # e18 <.LBB27_1+0xc40>
    2708:	00fe8483          	lb	s1,15(t4)
    270c:	00001f37          	lui	t5,0x1
    2710:	01e10f33          	add	t5,sp,t5
    2714:	409f3823          	sd	s1,1040(t5) # 1410 <.LBB27_2+0x3e0>
    2718:	010e8c03          	lb	s8,16(t4)
    271c:	011e8083          	lb	ra,17(t4)
    2720:	012e8983          	lb	s3,18(t4)
    2724:	00001f37          	lui	t5,0x1
    2728:	01e10f33          	add	t5,sp,t5
    272c:	e33f3023          	sd	s3,-480(t5) # e20 <.LBB27_1+0xc48>
    2730:	013e8903          	lb	s2,19(t4)
    2734:	014e8c83          	lb	s9,20(t4)
    2738:	015e8d83          	lb	s11,21(t4)
    273c:	016e8d03          	lb	s10,22(t4)
    2740:	017e8a83          	lb	s5,23(t4)
    2744:	03050833          	mul	a6,a0,a6
    2748:	00001f37          	lui	t5,0x1
    274c:	01e10f33          	add	t5,sp,t5
    2750:	ed0f3f03          	ld	t5,-304(t5) # ed0 <.LBB27_1+0xcf8>
    2754:	01e80f33          	add	t5,a6,t5
    2758:	00001837          	lui	a6,0x1
    275c:	01010833          	add	a6,sp,a6
    2760:	ede83823          	sd	t5,-304(a6) # ed0 <.LBB27_1+0xcf8>
    2764:	02b50833          	mul	a6,a0,a1
    2768:	000015b7          	lui	a1,0x1
    276c:	00b105b3          	add	a1,sp,a1
    2770:	e985bf03          	ld	t5,-360(a1) # e98 <.LBB27_1+0xcc0>
    2774:	01e80f33          	add	t5,a6,t5
    2778:	000015b7          	lui	a1,0x1
    277c:	00b105b3          	add	a1,sp,a1
    2780:	e9e5bc23          	sd	t5,-360(a1) # e98 <.LBB27_1+0xcc0>
    2784:	02c50833          	mul	a6,a0,a2
    2788:	000015b7          	lui	a1,0x1
    278c:	00b105b3          	add	a1,sp,a1
    2790:	e605bf03          	ld	t5,-416(a1) # e60 <.LBB27_1+0xc88>
    2794:	01e80f33          	add	t5,a6,t5
    2798:	000015b7          	lui	a1,0x1
    279c:	00b105b3          	add	a1,sp,a1
    27a0:	e7e5b023          	sd	t5,-416(a1) # e60 <.LBB27_1+0xc88>
    27a4:	00068593          	mv	a1,a3
    27a8:	02d50833          	mul	a6,a0,a3
    27ac:	00001637          	lui	a2,0x1
    27b0:	00c10633          	add	a2,sp,a2
    27b4:	f0863f03          	ld	t5,-248(a2) # f08 <.LBB27_1+0xd30>
    27b8:	01e80f33          	add	t5,a6,t5
    27bc:	00001637          	lui	a2,0x1
    27c0:	00c10633          	add	a2,sp,a2
    27c4:	f1e63423          	sd	t5,-248(a2) # f08 <.LBB27_1+0xd30>
    27c8:	00070613          	mv	a2,a4
    27cc:	000016b7          	lui	a3,0x1
    27d0:	00d106b3          	add	a3,sp,a3
    27d4:	40e6b023          	sd	a4,1024(a3) # 1400 <.LBB27_2+0x3d0>
    27d8:	02e50833          	mul	a6,a0,a4
    27dc:	000016b7          	lui	a3,0x1
    27e0:	00d106b3          	add	a3,sp,a3
    27e4:	f406bf03          	ld	t5,-192(a3) # f40 <.LBB27_1+0xd68>
    27e8:	01e80f33          	add	t5,a6,t5
    27ec:	000016b7          	lui	a3,0x1
    27f0:	00d106b3          	add	a3,sp,a3
    27f4:	f5e6b023          	sd	t5,-192(a3) # f40 <.LBB27_1+0xd68>
    27f8:	00088693          	mv	a3,a7
    27fc:	00001737          	lui	a4,0x1
    2800:	00e10733          	add	a4,sp,a4
    2804:	3f173023          	sd	a7,992(a4) # 13e0 <.LBB27_2+0x3b0>
    2808:	03150833          	mul	a6,a0,a7
    280c:	00001737          	lui	a4,0x1
    2810:	00e10733          	add	a4,sp,a4
    2814:	f7873f03          	ld	t5,-136(a4) # f78 <.LBB27_1+0xda0>
    2818:	01e80f33          	add	t5,a6,t5
    281c:	00001737          	lui	a4,0x1
    2820:	00e10733          	add	a4,sp,a4
    2824:	f7e73c23          	sd	t5,-136(a4) # f78 <.LBB27_1+0xda0>
    2828:	00030713          	mv	a4,t1
    282c:	00001837          	lui	a6,0x1
    2830:	01010833          	add	a6,sp,a6
    2834:	3e683c23          	sd	t1,1016(a6) # 13f8 <.LBB27_2+0x3c8>
    2838:	02650833          	mul	a6,a0,t1
    283c:	000018b7          	lui	a7,0x1
    2840:	011108b3          	add	a7,sp,a7
    2844:	fb08bf03          	ld	t5,-80(a7) # fb0 <.LBB27_1+0xdd8>
    2848:	01e80f33          	add	t5,a6,t5
    284c:	00001837          	lui	a6,0x1
    2850:	01010833          	add	a6,sp,a6
    2854:	fbe83823          	sd	t5,-80(a6) # fb0 <.LBB27_1+0xdd8>
    2858:	03450833          	mul	a6,a0,s4
    285c:	000018b7          	lui	a7,0x1
    2860:	011108b3          	add	a7,sp,a7
    2864:	fe88bf03          	ld	t5,-24(a7) # fe8 <.LBB27_1+0xe10>
    2868:	01e80f33          	add	t5,a6,t5
    286c:	00001837          	lui	a6,0x1
    2870:	01010833          	add	a6,sp,a6
    2874:	ffe83423          	sd	t5,-24(a6) # fe8 <.LBB27_1+0xe10>
    2878:	000b8893          	mv	a7,s7
    287c:	03750833          	mul	a6,a0,s7
    2880:	00001337          	lui	t1,0x1
    2884:	00610333          	add	t1,sp,t1
    2888:	02033f03          	ld	t5,32(t1) # 1020 <.LBB27_1+0xe48>
    288c:	01e80f33          	add	t5,a6,t5
    2890:	00001837          	lui	a6,0x1
    2894:	01010833          	add	a6,sp,a6
    2898:	03e83023          	sd	t5,32(a6) # 1020 <.LBB27_1+0xe48>
    289c:	02550833          	mul	a6,a0,t0
    28a0:	00001337          	lui	t1,0x1
    28a4:	00610333          	add	t1,sp,t1
    28a8:	05833f03          	ld	t5,88(t1) # 1058 <.LBB27_2+0x28>
    28ac:	01e80f33          	add	t5,a6,t5
    28b0:	00001837          	lui	a6,0x1
    28b4:	01010833          	add	a6,sp,a6
    28b8:	05e83c23          	sd	t5,88(a6) # 1058 <.LBB27_2+0x28>
    28bc:	00001837          	lui	a6,0x1
    28c0:	01010833          	add	a6,sp,a6
    28c4:	40883303          	ld	t1,1032(a6) # 1408 <.LBB27_2+0x3d8>
    28c8:	02650833          	mul	a6,a0,t1
    28cc:	00001f37          	lui	t5,0x1
    28d0:	01e10f33          	add	t5,sp,t5
    28d4:	090f3f03          	ld	t5,144(t5) # 1090 <.LBB27_2+0x60>
    28d8:	01e80f33          	add	t5,a6,t5
    28dc:	00001837          	lui	a6,0x1
    28e0:	01010833          	add	a6,sp,a6
    28e4:	09e83823          	sd	t5,144(a6) # 1090 <.LBB27_2+0x60>
    28e8:	02750833          	mul	a6,a0,t2
    28ec:	000013b7          	lui	t2,0x1
    28f0:	007103b3          	add	t2,sp,t2
    28f4:	0c83bf03          	ld	t5,200(t2) # 10c8 <.LBB27_2+0x98>
    28f8:	01e80f33          	add	t5,a6,t5
    28fc:	00001837          	lui	a6,0x1
    2900:	01010833          	add	a6,sp,a6
    2904:	0de83423          	sd	t5,200(a6) # 10c8 <.LBB27_2+0x98>
    2908:	03c50833          	mul	a6,a0,t3
    290c:	000e0b93          	mv	s7,t3
    2910:	000013b7          	lui	t2,0x1
    2914:	007103b3          	add	t2,sp,t2
    2918:	1003bf03          	ld	t5,256(t2) # 1100 <.LBB27_2+0xd0>
    291c:	01e80f33          	add	t5,a6,t5
    2920:	00001837          	lui	a6,0x1
    2924:	01010833          	add	a6,sp,a6
    2928:	11e83023          	sd	t5,256(a6) # 1100 <.LBB27_2+0xd0>
    292c:	03650833          	mul	a6,a0,s6
    2930:	000013b7          	lui	t2,0x1
    2934:	007103b3          	add	t2,sp,t2
    2938:	3d63b423          	sd	s6,968(t2) # 13c8 <.LBB27_2+0x398>
    293c:	000013b7          	lui	t2,0x1
    2940:	007103b3          	add	t2,sp,t2
    2944:	1383bf03          	ld	t5,312(t2) # 1138 <.LBB27_2+0x108>
    2948:	01e80f33          	add	t5,a6,t5
    294c:	00001837          	lui	a6,0x1
    2950:	01010833          	add	a6,sp,a6
    2954:	13e83c23          	sd	t5,312(a6) # 1138 <.LBB27_2+0x108>
    2958:	03f50833          	mul	a6,a0,t6
    295c:	000013b7          	lui	t2,0x1
    2960:	007103b3          	add	t2,sp,t2
    2964:	1703bf03          	ld	t5,368(t2) # 1170 <.LBB27_2+0x140>
    2968:	01e80f33          	add	t5,a6,t5
    296c:	00001837          	lui	a6,0x1
    2970:	01010833          	add	a6,sp,a6
    2974:	17e83823          	sd	t5,368(a6) # 1170 <.LBB27_2+0x140>
    2978:	02950833          	mul	a6,a0,s1
    297c:	000013b7          	lui	t2,0x1
    2980:	007103b3          	add	t2,sp,t2
    2984:	1a83bf03          	ld	t5,424(t2) # 11a8 <.LBB27_2+0x178>
    2988:	01e80f33          	add	t5,a6,t5
    298c:	00001837          	lui	a6,0x1
    2990:	01010833          	add	a6,sp,a6
    2994:	1be83423          	sd	t5,424(a6) # 11a8 <.LBB27_2+0x178>
    2998:	03850833          	mul	a6,a0,s8
    299c:	000c0393          	mv	t2,s8
    29a0:	00001e37          	lui	t3,0x1
    29a4:	01c10e33          	add	t3,sp,t3
    29a8:	1e0e3f03          	ld	t5,480(t3) # 11e0 <.LBB27_2+0x1b0>
    29ac:	01e80f33          	add	t5,a6,t5
    29b0:	00001837          	lui	a6,0x1
    29b4:	01010833          	add	a6,sp,a6
    29b8:	1fe83023          	sd	t5,480(a6) # 11e0 <.LBB27_2+0x1b0>
    29bc:	02150833          	mul	a6,a0,ra
    29c0:	00001e37          	lui	t3,0x1
    29c4:	01c10e33          	add	t3,sp,t3
    29c8:	218e3f03          	ld	t5,536(t3) # 1218 <.LBB27_2+0x1e8>
    29cc:	01e80f33          	add	t5,a6,t5
    29d0:	00001837          	lui	a6,0x1
    29d4:	01010833          	add	a6,sp,a6
    29d8:	21e83c23          	sd	t5,536(a6) # 1218 <.LBB27_2+0x1e8>
    29dc:	03350833          	mul	a6,a0,s3
    29e0:	00001e37          	lui	t3,0x1
    29e4:	01c10e33          	add	t3,sp,t3
    29e8:	250e3f03          	ld	t5,592(t3) # 1250 <.LBB27_2+0x220>
    29ec:	01e80f33          	add	t5,a6,t5
    29f0:	00001837          	lui	a6,0x1
    29f4:	01010833          	add	a6,sp,a6
    29f8:	25e83823          	sd	t5,592(a6) # 1250 <.LBB27_2+0x220>
    29fc:	03250833          	mul	a6,a0,s2
    2a00:	00090c13          	mv	s8,s2
    2a04:	00001e37          	lui	t3,0x1
    2a08:	01c10e33          	add	t3,sp,t3
    2a0c:	288e3f03          	ld	t5,648(t3) # 1288 <.LBB27_2+0x258>
    2a10:	01e80f33          	add	t5,a6,t5
    2a14:	00001837          	lui	a6,0x1
    2a18:	01010833          	add	a6,sp,a6
    2a1c:	29e83423          	sd	t5,648(a6) # 1288 <.LBB27_2+0x258>
    2a20:	03950833          	mul	a6,a0,s9
    2a24:	000c8993          	mv	s3,s9
    2a28:	00001e37          	lui	t3,0x1
    2a2c:	01c10e33          	add	t3,sp,t3
    2a30:	3d9e3823          	sd	s9,976(t3) # 13d0 <.LBB27_2+0x3a0>
    2a34:	00001e37          	lui	t3,0x1
    2a38:	01c10e33          	add	t3,sp,t3
    2a3c:	2c0e3f03          	ld	t5,704(t3) # 12c0 <.LBB27_2+0x290>
    2a40:	01e80f33          	add	t5,a6,t5
    2a44:	00001837          	lui	a6,0x1
    2a48:	01010833          	add	a6,sp,a6
    2a4c:	2de83023          	sd	t5,704(a6) # 12c0 <.LBB27_2+0x290>
    2a50:	03b50833          	mul	a6,a0,s11
    2a54:	00001e37          	lui	t3,0x1
    2a58:	01c10e33          	add	t3,sp,t3
    2a5c:	2f8e3f03          	ld	t5,760(t3) # 12f8 <.LBB27_2+0x2c8>
    2a60:	01e80f33          	add	t5,a6,t5
    2a64:	00001837          	lui	a6,0x1
    2a68:	01010833          	add	a6,sp,a6
    2a6c:	2fe83c23          	sd	t5,760(a6) # 12f8 <.LBB27_2+0x2c8>
    2a70:	03a50833          	mul	a6,a0,s10
    2a74:	00001e37          	lui	t3,0x1
    2a78:	01c10e33          	add	t3,sp,t3
    2a7c:	330e3f03          	ld	t5,816(t3) # 1330 <.LBB27_2+0x300>
    2a80:	01e80f33          	add	t5,a6,t5
    2a84:	00001837          	lui	a6,0x1
    2a88:	01010833          	add	a6,sp,a6
    2a8c:	33e83823          	sd	t5,816(a6) # 1330 <.LBB27_2+0x300>
    2a90:	00001837          	lui	a6,0x1
    2a94:	01010833          	add	a6,sp,a6
    2a98:	4b883803          	ld	a6,1208(a6) # 14b8 <.LBB27_2+0x488>
    2a9c:	12080803          	lb	a6,288(a6)
    2aa0:	03550533          	mul	a0,a0,s5
    2aa4:	00001e37          	lui	t3,0x1
    2aa8:	01c10e33          	add	t3,sp,t3
    2aac:	368e3f03          	ld	t5,872(t3) # 1368 <.LBB27_2+0x338>
    2ab0:	01e50f33          	add	t5,a0,t5
    2ab4:	00001537          	lui	a0,0x1
    2ab8:	00a10533          	add	a0,sp,a0
    2abc:	37e53423          	sd	t5,872(a0) # 1368 <.LBB27_2+0x338>
    2ac0:	00001537          	lui	a0,0x1
    2ac4:	00a10533          	add	a0,sp,a0
    2ac8:	3f053c83          	ld	s9,1008(a0) # 13f0 <.LBB27_2+0x3c0>
    2acc:	03978533          	mul	a0,a5,s9
    2ad0:	00001e37          	lui	t3,0x1
    2ad4:	01c10e33          	add	t3,sp,t3
    2ad8:	ed8e3f03          	ld	t5,-296(t3) # ed8 <.LBB27_1+0xd00>
    2adc:	01e50f33          	add	t5,a0,t5
    2ae0:	00001537          	lui	a0,0x1
    2ae4:	00a10533          	add	a0,sp,a0
    2ae8:	ede53c23          	sd	t5,-296(a0) # ed8 <.LBB27_1+0xd00>
    2aec:	00001537          	lui	a0,0x1
    2af0:	00a10533          	add	a0,sp,a0
    2af4:	4b053f83          	ld	t6,1200(a0) # 14b0 <.LBB27_2+0x480>
    2af8:	03f78533          	mul	a0,a5,t6
    2afc:	00001e37          	lui	t3,0x1
    2b00:	01c10e33          	add	t3,sp,t3
    2b04:	ea0e3f03          	ld	t5,-352(t3) # ea0 <.LBB27_1+0xcc8>
    2b08:	01e50f33          	add	t5,a0,t5
    2b0c:	00001537          	lui	a0,0x1
    2b10:	00a10533          	add	a0,sp,a0
    2b14:	ebe53023          	sd	t5,-352(a0) # ea0 <.LBB27_1+0xcc8>
    2b18:	00001537          	lui	a0,0x1
    2b1c:	00a10533          	add	a0,sp,a0
    2b20:	41853503          	ld	a0,1048(a0) # 1418 <.LBB27_2+0x3e8>
    2b24:	02a78533          	mul	a0,a5,a0
    2b28:	00001e37          	lui	t3,0x1
    2b2c:	01c10e33          	add	t3,sp,t3
    2b30:	e68e3f03          	ld	t5,-408(t3) # e68 <.LBB27_1+0xc90>
    2b34:	01e50f33          	add	t5,a0,t5
    2b38:	00001537          	lui	a0,0x1
    2b3c:	00a10533          	add	a0,sp,a0
    2b40:	e7e53423          	sd	t5,-408(a0) # e68 <.LBB27_1+0xc90>
    2b44:	02b78533          	mul	a0,a5,a1
    2b48:	00058913          	mv	s2,a1
    2b4c:	00001e37          	lui	t3,0x1
    2b50:	01c10e33          	add	t3,sp,t3
    2b54:	e2be3423          	sd	a1,-472(t3) # e28 <.LBB27_1+0xc50>
    2b58:	000015b7          	lui	a1,0x1
    2b5c:	00b105b3          	add	a1,sp,a1
    2b60:	f105bf03          	ld	t5,-240(a1) # f10 <.LBB27_1+0xd38>
    2b64:	01e50f33          	add	t5,a0,t5
    2b68:	00001537          	lui	a0,0x1
    2b6c:	00a10533          	add	a0,sp,a0
    2b70:	f1e53823          	sd	t5,-240(a0) # f10 <.LBB27_1+0xd38>
    2b74:	02c78533          	mul	a0,a5,a2
    2b78:	000015b7          	lui	a1,0x1
    2b7c:	00b105b3          	add	a1,sp,a1
    2b80:	f485bf03          	ld	t5,-184(a1) # f48 <.LBB27_1+0xd70>
    2b84:	01e50f33          	add	t5,a0,t5
    2b88:	00001537          	lui	a0,0x1
    2b8c:	00a10533          	add	a0,sp,a0
    2b90:	f5e53423          	sd	t5,-184(a0) # f48 <.LBB27_1+0xd70>
    2b94:	02d78533          	mul	a0,a5,a3
    2b98:	000015b7          	lui	a1,0x1
    2b9c:	00b105b3          	add	a1,sp,a1
    2ba0:	f805bf03          	ld	t5,-128(a1) # f80 <.LBB27_1+0xda8>
    2ba4:	01e50f33          	add	t5,a0,t5
    2ba8:	00001537          	lui	a0,0x1
    2bac:	00a10533          	add	a0,sp,a0
    2bb0:	f9e53023          	sd	t5,-128(a0) # f80 <.LBB27_1+0xda8>
    2bb4:	02e78533          	mul	a0,a5,a4
    2bb8:	000015b7          	lui	a1,0x1
    2bbc:	00b105b3          	add	a1,sp,a1
    2bc0:	fb85bf03          	ld	t5,-72(a1) # fb8 <.LBB27_1+0xde0>
    2bc4:	01e50f33          	add	t5,a0,t5
    2bc8:	00001537          	lui	a0,0x1
    2bcc:	00a10533          	add	a0,sp,a0
    2bd0:	fbe53c23          	sd	t5,-72(a0) # fb8 <.LBB27_1+0xde0>
    2bd4:	03478533          	mul	a0,a5,s4
    2bd8:	000015b7          	lui	a1,0x1
    2bdc:	00b105b3          	add	a1,sp,a1
    2be0:	ff05bf03          	ld	t5,-16(a1) # ff0 <.LBB27_1+0xe18>
    2be4:	01e50f33          	add	t5,a0,t5
    2be8:	00001537          	lui	a0,0x1
    2bec:	00a10533          	add	a0,sp,a0
    2bf0:	ffe53823          	sd	t5,-16(a0) # ff0 <.LBB27_1+0xe18>
    2bf4:	03178533          	mul	a0,a5,a7
    2bf8:	00088493          	mv	s1,a7
    2bfc:	000015b7          	lui	a1,0x1
    2c00:	00b105b3          	add	a1,sp,a1
    2c04:	0285bf03          	ld	t5,40(a1) # 1028 <.LBB27_1+0xe50>
    2c08:	01e50f33          	add	t5,a0,t5
    2c0c:	00001537          	lui	a0,0x1
    2c10:	00a10533          	add	a0,sp,a0
    2c14:	03e53423          	sd	t5,40(a0) # 1028 <.LBB27_1+0xe50>
    2c18:	02578533          	mul	a0,a5,t0
    2c1c:	000015b7          	lui	a1,0x1
    2c20:	00b105b3          	add	a1,sp,a1
    2c24:	0605bf03          	ld	t5,96(a1) # 1060 <.LBB27_2+0x30>
    2c28:	01e50f33          	add	t5,a0,t5
    2c2c:	00001537          	lui	a0,0x1
    2c30:	00a10533          	add	a0,sp,a0
    2c34:	07e53023          	sd	t5,96(a0) # 1060 <.LBB27_2+0x30>
    2c38:	02678533          	mul	a0,a5,t1
    2c3c:	000015b7          	lui	a1,0x1
    2c40:	00b105b3          	add	a1,sp,a1
    2c44:	0985bf03          	ld	t5,152(a1) # 1098 <.LBB27_2+0x68>
    2c48:	01e50f33          	add	t5,a0,t5
    2c4c:	00001537          	lui	a0,0x1
    2c50:	00a10533          	add	a0,sp,a0
    2c54:	09e53c23          	sd	t5,152(a0) # 1098 <.LBB27_2+0x68>
    2c58:	00001537          	lui	a0,0x1
    2c5c:	00a10533          	add	a0,sp,a0
    2c60:	3e853e03          	ld	t3,1000(a0) # 13e8 <.LBB27_2+0x3b8>
    2c64:	03c78533          	mul	a0,a5,t3
    2c68:	000015b7          	lui	a1,0x1
    2c6c:	00b105b3          	add	a1,sp,a1
    2c70:	0d05bf03          	ld	t5,208(a1) # 10d0 <.LBB27_2+0xa0>
    2c74:	01e50f33          	add	t5,a0,t5
    2c78:	00001537          	lui	a0,0x1
    2c7c:	00a10533          	add	a0,sp,a0
    2c80:	0de53823          	sd	t5,208(a0) # 10d0 <.LBB27_2+0xa0>
    2c84:	03778533          	mul	a0,a5,s7
    2c88:	000015b7          	lui	a1,0x1
    2c8c:	00b105b3          	add	a1,sp,a1
    2c90:	1085bf03          	ld	t5,264(a1) # 1108 <.LBB27_2+0xd8>
    2c94:	01e50f33          	add	t5,a0,t5
    2c98:	00001537          	lui	a0,0x1
    2c9c:	00a10533          	add	a0,sp,a0
    2ca0:	11e53423          	sd	t5,264(a0) # 1108 <.LBB27_2+0xd8>
    2ca4:	03678533          	mul	a0,a5,s6
    2ca8:	000015b7          	lui	a1,0x1
    2cac:	00b105b3          	add	a1,sp,a1
    2cb0:	1405bf03          	ld	t5,320(a1) # 1140 <.LBB27_2+0x110>
    2cb4:	01e50f33          	add	t5,a0,t5
    2cb8:	00001537          	lui	a0,0x1
    2cbc:	00a10533          	add	a0,sp,a0
    2cc0:	15e53023          	sd	t5,320(a0) # 1140 <.LBB27_2+0x110>
    2cc4:	00001537          	lui	a0,0x1
    2cc8:	00a10533          	add	a0,sp,a0
    2ccc:	e1853603          	ld	a2,-488(a0) # e18 <.LBB27_1+0xc40>
    2cd0:	02c78533          	mul	a0,a5,a2
    2cd4:	000015b7          	lui	a1,0x1
    2cd8:	00b105b3          	add	a1,sp,a1
    2cdc:	1785bf03          	ld	t5,376(a1) # 1178 <.LBB27_2+0x148>
    2ce0:	01e50f33          	add	t5,a0,t5
    2ce4:	00001537          	lui	a0,0x1
    2ce8:	00a10533          	add	a0,sp,a0
    2cec:	17e53c23          	sd	t5,376(a0) # 1178 <.LBB27_2+0x148>
    2cf0:	00001537          	lui	a0,0x1
    2cf4:	00a10533          	add	a0,sp,a0
    2cf8:	41053583          	ld	a1,1040(a0) # 1410 <.LBB27_2+0x3e0>
    2cfc:	02b78533          	mul	a0,a5,a1
    2d00:	000016b7          	lui	a3,0x1
    2d04:	00d106b3          	add	a3,sp,a3
    2d08:	1b06bf03          	ld	t5,432(a3) # 11b0 <.LBB27_2+0x180>
    2d0c:	01e50f33          	add	t5,a0,t5
    2d10:	00001537          	lui	a0,0x1
    2d14:	00a10533          	add	a0,sp,a0
    2d18:	1be53823          	sd	t5,432(a0) # 11b0 <.LBB27_2+0x180>
    2d1c:	02778533          	mul	a0,a5,t2
    2d20:	000016b7          	lui	a3,0x1
    2d24:	00d106b3          	add	a3,sp,a3
    2d28:	1e86bf03          	ld	t5,488(a3) # 11e8 <.LBB27_2+0x1b8>
    2d2c:	01e50f33          	add	t5,a0,t5
    2d30:	00001537          	lui	a0,0x1
    2d34:	00a10533          	add	a0,sp,a0
    2d38:	1fe53423          	sd	t5,488(a0) # 11e8 <.LBB27_2+0x1b8>
    2d3c:	02178533          	mul	a0,a5,ra
    2d40:	000016b7          	lui	a3,0x1
    2d44:	00d106b3          	add	a3,sp,a3
    2d48:	2206bf03          	ld	t5,544(a3) # 1220 <.LBB27_2+0x1f0>
    2d4c:	01e50f33          	add	t5,a0,t5
    2d50:	00001537          	lui	a0,0x1
    2d54:	00a10533          	add	a0,sp,a0
    2d58:	23e53023          	sd	t5,544(a0) # 1220 <.LBB27_2+0x1f0>
    2d5c:	00001537          	lui	a0,0x1
    2d60:	00a10533          	add	a0,sp,a0
    2d64:	e2053703          	ld	a4,-480(a0) # e20 <.LBB27_1+0xc48>
    2d68:	02e78533          	mul	a0,a5,a4
    2d6c:	000016b7          	lui	a3,0x1
    2d70:	00d106b3          	add	a3,sp,a3
    2d74:	2586bf03          	ld	t5,600(a3) # 1258 <.LBB27_2+0x228>
    2d78:	01e50f33          	add	t5,a0,t5
    2d7c:	00001537          	lui	a0,0x1
    2d80:	00a10533          	add	a0,sp,a0
    2d84:	25e53c23          	sd	t5,600(a0) # 1258 <.LBB27_2+0x228>
    2d88:	000c0893          	mv	a7,s8
    2d8c:	03878533          	mul	a0,a5,s8
    2d90:	000016b7          	lui	a3,0x1
    2d94:	00d106b3          	add	a3,sp,a3
    2d98:	2906bf03          	ld	t5,656(a3) # 1290 <.LBB27_2+0x260>
    2d9c:	01e50f33          	add	t5,a0,t5
    2da0:	00001537          	lui	a0,0x1
    2da4:	00a10533          	add	a0,sp,a0
    2da8:	29e53823          	sd	t5,656(a0) # 1290 <.LBB27_2+0x260>
    2dac:	03378533          	mul	a0,a5,s3
    2db0:	000016b7          	lui	a3,0x1
    2db4:	00d106b3          	add	a3,sp,a3
    2db8:	2c86bf03          	ld	t5,712(a3) # 12c8 <.LBB27_2+0x298>
    2dbc:	01e50f33          	add	t5,a0,t5
    2dc0:	00001537          	lui	a0,0x1
    2dc4:	00a10533          	add	a0,sp,a0
    2dc8:	2de53423          	sd	t5,712(a0) # 12c8 <.LBB27_2+0x298>
    2dcc:	000d8993          	mv	s3,s11
    2dd0:	00001537          	lui	a0,0x1
    2dd4:	00a10533          	add	a0,sp,a0
    2dd8:	e3b53823          	sd	s11,-464(a0) # e30 <.LBB27_1+0xc58>
    2ddc:	03b78533          	mul	a0,a5,s11
    2de0:	000016b7          	lui	a3,0x1
    2de4:	00d106b3          	add	a3,sp,a3
    2de8:	3006bf03          	ld	t5,768(a3) # 1300 <.LBB27_2+0x2d0>
    2dec:	01e50f33          	add	t5,a0,t5
    2df0:	00001537          	lui	a0,0x1
    2df4:	00a10533          	add	a0,sp,a0
    2df8:	31e53023          	sd	t5,768(a0) # 1300 <.LBB27_2+0x2d0>
    2dfc:	000d0693          	mv	a3,s10
    2e00:	00001537          	lui	a0,0x1
    2e04:	00a10533          	add	a0,sp,a0
    2e08:	e3a53c23          	sd	s10,-456(a0) # e38 <.LBB27_1+0xc60>
    2e0c:	03a78533          	mul	a0,a5,s10
    2e10:	00001f37          	lui	t5,0x1
    2e14:	01e10f33          	add	t5,sp,t5
    2e18:	338f3f03          	ld	t5,824(t5) # 1338 <.LBB27_2+0x308>
    2e1c:	01e50f33          	add	t5,a0,t5
    2e20:	00001537          	lui	a0,0x1
    2e24:	00a10533          	add	a0,sp,a0
    2e28:	33e53c23          	sd	t5,824(a0) # 1338 <.LBB27_2+0x308>
    2e2c:	00001537          	lui	a0,0x1
    2e30:	00a10533          	add	a0,sp,a0
    2e34:	4b853503          	ld	a0,1208(a0) # 14b8 <.LBB27_2+0x488>
    2e38:	1b050503          	lb	a0,432(a0)
    2e3c:	035787b3          	mul	a5,a5,s5
    2e40:	000a8d13          	mv	s10,s5
    2e44:	00001f37          	lui	t5,0x1
    2e48:	01e10f33          	add	t5,sp,t5
    2e4c:	370f3f03          	ld	t5,880(t5) # 1370 <.LBB27_2+0x340>
    2e50:	01e78f33          	add	t5,a5,t5
    2e54:	000017b7          	lui	a5,0x1
    2e58:	00f107b3          	add	a5,sp,a5
    2e5c:	37e7b823          	sd	t5,880(a5) # 1370 <.LBB27_2+0x340>
    2e60:	039807b3          	mul	a5,a6,s9
    2e64:	000c8d93          	mv	s11,s9
    2e68:	00001f37          	lui	t5,0x1
    2e6c:	01e10f33          	add	t5,sp,t5
    2e70:	ee0f3f03          	ld	t5,-288(t5) # ee0 <.LBB27_1+0xd08>
    2e74:	01e78f33          	add	t5,a5,t5
    2e78:	000017b7          	lui	a5,0x1
    2e7c:	00f107b3          	add	a5,sp,a5
    2e80:	efe7b023          	sd	t5,-288(a5) # ee0 <.LBB27_1+0xd08>
    2e84:	03f807b3          	mul	a5,a6,t6
    2e88:	00001f37          	lui	t5,0x1
    2e8c:	01e10f33          	add	t5,sp,t5
    2e90:	ea8f3f03          	ld	t5,-344(t5) # ea8 <.LBB27_1+0xcd0>
    2e94:	01e78f33          	add	t5,a5,t5
    2e98:	000017b7          	lui	a5,0x1
    2e9c:	00f107b3          	add	a5,sp,a5
    2ea0:	ebe7b423          	sd	t5,-344(a5) # ea8 <.LBB27_1+0xcd0>
    2ea4:	000017b7          	lui	a5,0x1
    2ea8:	00f107b3          	add	a5,sp,a5
    2eac:	4187bc03          	ld	s8,1048(a5) # 1418 <.LBB27_2+0x3e8>
    2eb0:	038807b3          	mul	a5,a6,s8
    2eb4:	00001f37          	lui	t5,0x1
    2eb8:	01e10f33          	add	t5,sp,t5
    2ebc:	e70f3f03          	ld	t5,-400(t5) # e70 <.LBB27_1+0xc98>
    2ec0:	01e78f33          	add	t5,a5,t5
    2ec4:	000017b7          	lui	a5,0x1
    2ec8:	00f107b3          	add	a5,sp,a5
    2ecc:	e7e7b823          	sd	t5,-400(a5) # e70 <.LBB27_1+0xc98>
    2ed0:	032807b3          	mul	a5,a6,s2
    2ed4:	00001f37          	lui	t5,0x1
    2ed8:	01e10f33          	add	t5,sp,t5
    2edc:	f18f3f03          	ld	t5,-232(t5) # f18 <.LBB27_1+0xd40>
    2ee0:	01e78f33          	add	t5,a5,t5
    2ee4:	000017b7          	lui	a5,0x1
    2ee8:	00f107b3          	add	a5,sp,a5
    2eec:	f1e7bc23          	sd	t5,-232(a5) # f18 <.LBB27_1+0xd40>
    2ef0:	000017b7          	lui	a5,0x1
    2ef4:	00f107b3          	add	a5,sp,a5
    2ef8:	4007b903          	ld	s2,1024(a5) # 1400 <.LBB27_2+0x3d0>
    2efc:	032807b3          	mul	a5,a6,s2
    2f00:	00001f37          	lui	t5,0x1
    2f04:	01e10f33          	add	t5,sp,t5
    2f08:	f50f3f03          	ld	t5,-176(t5) # f50 <.LBB27_1+0xd78>
    2f0c:	01e78f33          	add	t5,a5,t5
    2f10:	000017b7          	lui	a5,0x1
    2f14:	00f107b3          	add	a5,sp,a5
    2f18:	f5e7b823          	sd	t5,-176(a5) # f50 <.LBB27_1+0xd78>
    2f1c:	000017b7          	lui	a5,0x1
    2f20:	00f107b3          	add	a5,sp,a5
    2f24:	3e07bc83          	ld	s9,992(a5) # 13e0 <.LBB27_2+0x3b0>
    2f28:	039807b3          	mul	a5,a6,s9
    2f2c:	00001f37          	lui	t5,0x1
    2f30:	01e10f33          	add	t5,sp,t5
    2f34:	f88f3f03          	ld	t5,-120(t5) # f88 <.LBB27_1+0xdb0>
    2f38:	01e78f33          	add	t5,a5,t5
    2f3c:	000017b7          	lui	a5,0x1
    2f40:	00f107b3          	add	a5,sp,a5
    2f44:	f9e7b423          	sd	t5,-120(a5) # f88 <.LBB27_1+0xdb0>
    2f48:	000017b7          	lui	a5,0x1
    2f4c:	00f107b3          	add	a5,sp,a5
    2f50:	3f87bb03          	ld	s6,1016(a5) # 13f8 <.LBB27_2+0x3c8>
    2f54:	036807b3          	mul	a5,a6,s6
    2f58:	00001f37          	lui	t5,0x1
    2f5c:	01e10f33          	add	t5,sp,t5
    2f60:	fc0f3f03          	ld	t5,-64(t5) # fc0 <.LBB27_1+0xde8>
    2f64:	01e78f33          	add	t5,a5,t5
    2f68:	000017b7          	lui	a5,0x1
    2f6c:	00f107b3          	add	a5,sp,a5
    2f70:	fde7b023          	sd	t5,-64(a5) # fc0 <.LBB27_1+0xde8>
    2f74:	000017b7          	lui	a5,0x1
    2f78:	00f107b3          	add	a5,sp,a5
    2f7c:	3d47bc23          	sd	s4,984(a5) # 13d8 <.LBB27_2+0x3a8>
    2f80:	034807b3          	mul	a5,a6,s4
    2f84:	00001f37          	lui	t5,0x1
    2f88:	01e10f33          	add	t5,sp,t5
    2f8c:	ff8f3f03          	ld	t5,-8(t5) # ff8 <.LBB27_1+0xe20>
    2f90:	01e78f33          	add	t5,a5,t5
    2f94:	000017b7          	lui	a5,0x1
    2f98:	00f107b3          	add	a5,sp,a5
    2f9c:	ffe7bc23          	sd	t5,-8(a5) # ff8 <.LBB27_1+0xe20>
    2fa0:	029807b3          	mul	a5,a6,s1
    2fa4:	00048a93          	mv	s5,s1
    2fa8:	00001f37          	lui	t5,0x1
    2fac:	01e10f33          	add	t5,sp,t5
    2fb0:	030f3f03          	ld	t5,48(t5) # 1030 <.LBB27_2>
    2fb4:	01e78f33          	add	t5,a5,t5
    2fb8:	000017b7          	lui	a5,0x1
    2fbc:	00f107b3          	add	a5,sp,a5
    2fc0:	03e7b823          	sd	t5,48(a5) # 1030 <.LBB27_2>
    2fc4:	025807b3          	mul	a5,a6,t0
    2fc8:	00028f93          	mv	t6,t0
    2fcc:	000012b7          	lui	t0,0x1
    2fd0:	005102b3          	add	t0,sp,t0
    2fd4:	0682bf03          	ld	t5,104(t0) # 1068 <.LBB27_2+0x38>
    2fd8:	01e78f33          	add	t5,a5,t5
    2fdc:	000017b7          	lui	a5,0x1
    2fe0:	00f107b3          	add	a5,sp,a5
    2fe4:	07e7b423          	sd	t5,104(a5) # 1068 <.LBB27_2+0x38>
    2fe8:	026807b3          	mul	a5,a6,t1
    2fec:	000012b7          	lui	t0,0x1
    2ff0:	005102b3          	add	t0,sp,t0
    2ff4:	0a02bf03          	ld	t5,160(t0) # 10a0 <.LBB27_2+0x70>
    2ff8:	01e78f33          	add	t5,a5,t5
    2ffc:	000017b7          	lui	a5,0x1
    3000:	00f107b3          	add	a5,sp,a5
    3004:	0be7b023          	sd	t5,160(a5) # 10a0 <.LBB27_2+0x70>
    3008:	03c807b3          	mul	a5,a6,t3
    300c:	000012b7          	lui	t0,0x1
    3010:	005102b3          	add	t0,sp,t0
    3014:	0d82bf03          	ld	t5,216(t0) # 10d8 <.LBB27_2+0xa8>
    3018:	01e78f33          	add	t5,a5,t5
    301c:	000017b7          	lui	a5,0x1
    3020:	00f107b3          	add	a5,sp,a5
    3024:	0de7bc23          	sd	t5,216(a5) # 10d8 <.LBB27_2+0xa8>
    3028:	000b8493          	mv	s1,s7
    302c:	037807b3          	mul	a5,a6,s7
    3030:	000012b7          	lui	t0,0x1
    3034:	005102b3          	add	t0,sp,t0
    3038:	1102bf03          	ld	t5,272(t0) # 1110 <.LBB27_2+0xe0>
    303c:	01e78f33          	add	t5,a5,t5
    3040:	000017b7          	lui	a5,0x1
    3044:	00f107b3          	add	a5,sp,a5
    3048:	11e7b823          	sd	t5,272(a5) # 1110 <.LBB27_2+0xe0>
    304c:	000017b7          	lui	a5,0x1
    3050:	00f107b3          	add	a5,sp,a5
    3054:	3c87bb83          	ld	s7,968(a5) # 13c8 <.LBB27_2+0x398>
    3058:	037807b3          	mul	a5,a6,s7
    305c:	000012b7          	lui	t0,0x1
    3060:	005102b3          	add	t0,sp,t0
    3064:	1482bf03          	ld	t5,328(t0) # 1148 <.LBB27_2+0x118>
    3068:	01e78f33          	add	t5,a5,t5
    306c:	000017b7          	lui	a5,0x1
    3070:	00f107b3          	add	a5,sp,a5
    3074:	15e7b423          	sd	t5,328(a5) # 1148 <.LBB27_2+0x118>
    3078:	02c807b3          	mul	a5,a6,a2
    307c:	00060e13          	mv	t3,a2
    3080:	00001637          	lui	a2,0x1
    3084:	00c10633          	add	a2,sp,a2
    3088:	18063f03          	ld	t5,384(a2) # 1180 <.LBB27_2+0x150>
    308c:	01e78f33          	add	t5,a5,t5
    3090:	00001637          	lui	a2,0x1
    3094:	00c10633          	add	a2,sp,a2
    3098:	19e63023          	sd	t5,384(a2) # 1180 <.LBB27_2+0x150>
    309c:	02b807b3          	mul	a5,a6,a1
    30a0:	00058313          	mv	t1,a1
    30a4:	000015b7          	lui	a1,0x1
    30a8:	00b105b3          	add	a1,sp,a1
    30ac:	1b85bf03          	ld	t5,440(a1) # 11b8 <.LBB27_2+0x188>
    30b0:	01e78f33          	add	t5,a5,t5
    30b4:	000015b7          	lui	a1,0x1
    30b8:	00b105b3          	add	a1,sp,a1
    30bc:	1be5bc23          	sd	t5,440(a1) # 11b8 <.LBB27_2+0x188>
    30c0:	027807b3          	mul	a5,a6,t2
    30c4:	000015b7          	lui	a1,0x1
    30c8:	00b105b3          	add	a1,sp,a1
    30cc:	1f05bf03          	ld	t5,496(a1) # 11f0 <.LBB27_2+0x1c0>
    30d0:	01e78f33          	add	t5,a5,t5
    30d4:	000015b7          	lui	a1,0x1
    30d8:	00b105b3          	add	a1,sp,a1
    30dc:	1fe5b823          	sd	t5,496(a1) # 11f0 <.LBB27_2+0x1c0>
    30e0:	021807b3          	mul	a5,a6,ra
    30e4:	00008613          	mv	a2,ra
    30e8:	000015b7          	lui	a1,0x1
    30ec:	00b105b3          	add	a1,sp,a1
    30f0:	2285bf03          	ld	t5,552(a1) # 1228 <.LBB27_2+0x1f8>
    30f4:	01e78f33          	add	t5,a5,t5
    30f8:	000015b7          	lui	a1,0x1
    30fc:	00b105b3          	add	a1,sp,a1
    3100:	23e5b423          	sd	t5,552(a1) # 1228 <.LBB27_2+0x1f8>
    3104:	02e807b3          	mul	a5,a6,a4
    3108:	000015b7          	lui	a1,0x1
    310c:	00b105b3          	add	a1,sp,a1
    3110:	2605bf03          	ld	t5,608(a1) # 1260 <.LBB27_2+0x230>
    3114:	01e78f33          	add	t5,a5,t5
    3118:	000015b7          	lui	a1,0x1
    311c:	00b105b3          	add	a1,sp,a1
    3120:	27e5b023          	sd	t5,608(a1) # 1260 <.LBB27_2+0x230>
    3124:	031807b3          	mul	a5,a6,a7
    3128:	000015b7          	lui	a1,0x1
    312c:	00b105b3          	add	a1,sp,a1
    3130:	2985bf03          	ld	t5,664(a1) # 1298 <.LBB27_2+0x268>
    3134:	01e78f33          	add	t5,a5,t5
    3138:	000015b7          	lui	a1,0x1
    313c:	00b105b3          	add	a1,sp,a1
    3140:	29e5bc23          	sd	t5,664(a1) # 1298 <.LBB27_2+0x268>
    3144:	000015b7          	lui	a1,0x1
    3148:	00b105b3          	add	a1,sp,a1
    314c:	3d05b283          	ld	t0,976(a1) # 13d0 <.LBB27_2+0x3a0>
    3150:	025807b3          	mul	a5,a6,t0
    3154:	000015b7          	lui	a1,0x1
    3158:	00b105b3          	add	a1,sp,a1
    315c:	2d05bf03          	ld	t5,720(a1) # 12d0 <.LBB27_2+0x2a0>
    3160:	01e78f33          	add	t5,a5,t5
    3164:	000015b7          	lui	a1,0x1
    3168:	00b105b3          	add	a1,sp,a1
    316c:	2de5b823          	sd	t5,720(a1) # 12d0 <.LBB27_2+0x2a0>
    3170:	033807b3          	mul	a5,a6,s3
    3174:	000015b7          	lui	a1,0x1
    3178:	00b105b3          	add	a1,sp,a1
    317c:	3085bf03          	ld	t5,776(a1) # 1308 <.LBB27_2+0x2d8>
    3180:	01e78f33          	add	t5,a5,t5
    3184:	000015b7          	lui	a1,0x1
    3188:	00b105b3          	add	a1,sp,a1
    318c:	31e5b423          	sd	t5,776(a1) # 1308 <.LBB27_2+0x2d8>
    3190:	02d807b3          	mul	a5,a6,a3
    3194:	000015b7          	lui	a1,0x1
    3198:	00b105b3          	add	a1,sp,a1
    319c:	3405bf03          	ld	t5,832(a1) # 1340 <.LBB27_2+0x310>
    31a0:	01e78f33          	add	t5,a5,t5
    31a4:	000015b7          	lui	a1,0x1
    31a8:	00b105b3          	add	a1,sp,a1
    31ac:	35e5b023          	sd	t5,832(a1) # 1340 <.LBB27_2+0x310>
    31b0:	000015b7          	lui	a1,0x1
    31b4:	00b105b3          	add	a1,sp,a1
    31b8:	4b85b783          	ld	a5,1208(a1) # 14b8 <.LBB27_2+0x488>
    31bc:	24078783          	lb	a5,576(a5)
    31c0:	03a80833          	mul	a6,a6,s10
    31c4:	000015b7          	lui	a1,0x1
    31c8:	00b105b3          	add	a1,sp,a1
    31cc:	3785bf03          	ld	t5,888(a1) # 1378 <.LBB27_2+0x348>
    31d0:	01e80f33          	add	t5,a6,t5
    31d4:	000015b7          	lui	a1,0x1
    31d8:	00b105b3          	add	a1,sp,a1
    31dc:	37e5bc23          	sd	t5,888(a1) # 1378 <.LBB27_2+0x348>
    31e0:	000d8093          	mv	ra,s11
    31e4:	03b50833          	mul	a6,a0,s11
    31e8:	000015b7          	lui	a1,0x1
    31ec:	00b105b3          	add	a1,sp,a1
    31f0:	ee85bf03          	ld	t5,-280(a1) # ee8 <.LBB27_1+0xd10>
    31f4:	01e80f33          	add	t5,a6,t5
    31f8:	000015b7          	lui	a1,0x1
    31fc:	00b105b3          	add	a1,sp,a1
    3200:	efe5b423          	sd	t5,-280(a1) # ee8 <.LBB27_1+0xd10>
    3204:	000015b7          	lui	a1,0x1
    3208:	00b105b3          	add	a1,sp,a1
    320c:	4b05b583          	ld	a1,1200(a1) # 14b0 <.LBB27_2+0x480>
    3210:	02b50833          	mul	a6,a0,a1
    3214:	000016b7          	lui	a3,0x1
    3218:	00d106b3          	add	a3,sp,a3
    321c:	eb06bf03          	ld	t5,-336(a3) # eb0 <.LBB27_1+0xcd8>
    3220:	01e80f33          	add	t5,a6,t5
    3224:	000016b7          	lui	a3,0x1
    3228:	00d106b3          	add	a3,sp,a3
    322c:	ebe6b823          	sd	t5,-336(a3) # eb0 <.LBB27_1+0xcd8>
    3230:	03850833          	mul	a6,a0,s8
    3234:	000c0693          	mv	a3,s8
    3238:	00001f37          	lui	t5,0x1
    323c:	01e10f33          	add	t5,sp,t5
    3240:	e78f3f03          	ld	t5,-392(t5) # e78 <.LBB27_1+0xca0>
    3244:	01e80f33          	add	t5,a6,t5
    3248:	00001837          	lui	a6,0x1
    324c:	01010833          	add	a6,sp,a6
    3250:	e7e83c23          	sd	t5,-392(a6) # e78 <.LBB27_1+0xca0>
    3254:	00001837          	lui	a6,0x1
    3258:	01010833          	add	a6,sp,a6
    325c:	e2883c03          	ld	s8,-472(a6) # e28 <.LBB27_1+0xc50>
    3260:	03850833          	mul	a6,a0,s8
    3264:	00001f37          	lui	t5,0x1
    3268:	01e10f33          	add	t5,sp,t5
    326c:	f20f3f03          	ld	t5,-224(t5) # f20 <.LBB27_1+0xd48>
    3270:	01e80f33          	add	t5,a6,t5
    3274:	00001837          	lui	a6,0x1
    3278:	01010833          	add	a6,sp,a6
    327c:	f3e83023          	sd	t5,-224(a6) # f20 <.LBB27_1+0xd48>
    3280:	03250833          	mul	a6,a0,s2
    3284:	00001f37          	lui	t5,0x1
    3288:	01e10f33          	add	t5,sp,t5
    328c:	f58f3f03          	ld	t5,-168(t5) # f58 <.LBB27_1+0xd80>
    3290:	01e80f33          	add	t5,a6,t5
    3294:	00001837          	lui	a6,0x1
    3298:	01010833          	add	a6,sp,a6
    329c:	f5e83c23          	sd	t5,-168(a6) # f58 <.LBB27_1+0xd80>
    32a0:	03950833          	mul	a6,a0,s9
    32a4:	00001f37          	lui	t5,0x1
    32a8:	01e10f33          	add	t5,sp,t5
    32ac:	f90f3f03          	ld	t5,-112(t5) # f90 <.LBB27_1+0xdb8>
    32b0:	01e80f33          	add	t5,a6,t5
    32b4:	00001837          	lui	a6,0x1
    32b8:	01010833          	add	a6,sp,a6
    32bc:	f9e83823          	sd	t5,-112(a6) # f90 <.LBB27_1+0xdb8>
    32c0:	03650833          	mul	a6,a0,s6
    32c4:	00001f37          	lui	t5,0x1
    32c8:	01e10f33          	add	t5,sp,t5
    32cc:	fc8f3f03          	ld	t5,-56(t5) # fc8 <.LBB27_1+0xdf0>
    32d0:	01e80f33          	add	t5,a6,t5
    32d4:	00001837          	lui	a6,0x1
    32d8:	01010833          	add	a6,sp,a6
    32dc:	fde83423          	sd	t5,-56(a6) # fc8 <.LBB27_1+0xdf0>
    32e0:	03450833          	mul	a6,a0,s4
    32e4:	00001f37          	lui	t5,0x1
    32e8:	01e10f33          	add	t5,sp,t5
    32ec:	000f3f03          	ld	t5,0(t5) # 1000 <.LBB27_1+0xe28>
    32f0:	01e80f33          	add	t5,a6,t5
    32f4:	00001837          	lui	a6,0x1
    32f8:	01010833          	add	a6,sp,a6
    32fc:	01e83023          	sd	t5,0(a6) # 1000 <.LBB27_1+0xe28>
    3300:	000a8913          	mv	s2,s5
    3304:	03550833          	mul	a6,a0,s5
    3308:	00001f37          	lui	t5,0x1
    330c:	01e10f33          	add	t5,sp,t5
    3310:	038f3f03          	ld	t5,56(t5) # 1038 <.LBB27_2+0x8>
    3314:	01e80f33          	add	t5,a6,t5
    3318:	00001837          	lui	a6,0x1
    331c:	01010833          	add	a6,sp,a6
    3320:	03e83c23          	sd	t5,56(a6) # 1038 <.LBB27_2+0x8>
    3324:	000f8a93          	mv	s5,t6
    3328:	03f50833          	mul	a6,a0,t6
    332c:	00001f37          	lui	t5,0x1
    3330:	01e10f33          	add	t5,sp,t5
    3334:	070f3f03          	ld	t5,112(t5) # 1070 <.LBB27_2+0x40>
    3338:	01e80f33          	add	t5,a6,t5
    333c:	00001837          	lui	a6,0x1
    3340:	01010833          	add	a6,sp,a6
    3344:	07e83823          	sd	t5,112(a6) # 1070 <.LBB27_2+0x40>
    3348:	00001837          	lui	a6,0x1
    334c:	01010833          	add	a6,sp,a6
    3350:	40883983          	ld	s3,1032(a6) # 1408 <.LBB27_2+0x3d8>
    3354:	03350833          	mul	a6,a0,s3
    3358:	00001f37          	lui	t5,0x1
    335c:	01e10f33          	add	t5,sp,t5
    3360:	0a8f3f03          	ld	t5,168(t5) # 10a8 <.LBB27_2+0x78>
    3364:	01e80f33          	add	t5,a6,t5
    3368:	00001837          	lui	a6,0x1
    336c:	01010833          	add	a6,sp,a6
    3370:	0be83423          	sd	t5,168(a6) # 10a8 <.LBB27_2+0x78>
    3374:	00001837          	lui	a6,0x1
    3378:	01010833          	add	a6,sp,a6
    337c:	3e883b03          	ld	s6,1000(a6) # 13e8 <.LBB27_2+0x3b8>
    3380:	03650833          	mul	a6,a0,s6
    3384:	00001f37          	lui	t5,0x1
    3388:	01e10f33          	add	t5,sp,t5
    338c:	0e0f3f03          	ld	t5,224(t5) # 10e0 <.LBB27_2+0xb0>
    3390:	01e80f33          	add	t5,a6,t5
    3394:	00001837          	lui	a6,0x1
    3398:	01010833          	add	a6,sp,a6
    339c:	0fe83023          	sd	t5,224(a6) # 10e0 <.LBB27_2+0xb0>
    33a0:	02950833          	mul	a6,a0,s1
    33a4:	00048d93          	mv	s11,s1
    33a8:	00001f37          	lui	t5,0x1
    33ac:	01e10f33          	add	t5,sp,t5
    33b0:	118f3f03          	ld	t5,280(t5) # 1118 <.LBB27_2+0xe8>
    33b4:	01e80f33          	add	t5,a6,t5
    33b8:	00001837          	lui	a6,0x1
    33bc:	01010833          	add	a6,sp,a6
    33c0:	11e83c23          	sd	t5,280(a6) # 1118 <.LBB27_2+0xe8>
    33c4:	03750833          	mul	a6,a0,s7
    33c8:	00001f37          	lui	t5,0x1
    33cc:	01e10f33          	add	t5,sp,t5
    33d0:	150f3f03          	ld	t5,336(t5) # 1150 <.LBB27_2+0x120>
    33d4:	01e80f33          	add	t5,a6,t5
    33d8:	00001837          	lui	a6,0x1
    33dc:	01010833          	add	a6,sp,a6
    33e0:	15e83823          	sd	t5,336(a6) # 1150 <.LBB27_2+0x120>
    33e4:	03c50833          	mul	a6,a0,t3
    33e8:	00001f37          	lui	t5,0x1
    33ec:	01e10f33          	add	t5,sp,t5
    33f0:	188f3f03          	ld	t5,392(t5) # 1188 <.LBB27_2+0x158>
    33f4:	01e80f33          	add	t5,a6,t5
    33f8:	00001837          	lui	a6,0x1
    33fc:	01010833          	add	a6,sp,a6
    3400:	19e83423          	sd	t5,392(a6) # 1188 <.LBB27_2+0x158>
    3404:	02650833          	mul	a6,a0,t1
    3408:	00001337          	lui	t1,0x1
    340c:	00610333          	add	t1,sp,t1
    3410:	1c033f03          	ld	t5,448(t1) # 11c0 <.LBB27_2+0x190>
    3414:	01e80f33          	add	t5,a6,t5
    3418:	00001837          	lui	a6,0x1
    341c:	01010833          	add	a6,sp,a6
    3420:	1de83023          	sd	t5,448(a6) # 11c0 <.LBB27_2+0x190>
    3424:	02750833          	mul	a6,a0,t2
    3428:	00001337          	lui	t1,0x1
    342c:	00610333          	add	t1,sp,t1
    3430:	1f833f03          	ld	t5,504(t1) # 11f8 <.LBB27_2+0x1c8>
    3434:	01e80f33          	add	t5,a6,t5
    3438:	00001837          	lui	a6,0x1
    343c:	01010833          	add	a6,sp,a6
    3440:	1fe83c23          	sd	t5,504(a6) # 11f8 <.LBB27_2+0x1c8>
    3444:	02c50833          	mul	a6,a0,a2
    3448:	00001337          	lui	t1,0x1
    344c:	00610333          	add	t1,sp,t1
    3450:	23033f03          	ld	t5,560(t1) # 1230 <.LBB27_2+0x200>
    3454:	01e80f33          	add	t5,a6,t5
    3458:	00001837          	lui	a6,0x1
    345c:	01010833          	add	a6,sp,a6
    3460:	23e83823          	sd	t5,560(a6) # 1230 <.LBB27_2+0x200>
    3464:	02e50833          	mul	a6,a0,a4
    3468:	00001337          	lui	t1,0x1
    346c:	00610333          	add	t1,sp,t1
    3470:	26833f03          	ld	t5,616(t1) # 1268 <.LBB27_2+0x238>
    3474:	01e80f33          	add	t5,a6,t5
    3478:	00001837          	lui	a6,0x1
    347c:	01010833          	add	a6,sp,a6
    3480:	27e83423          	sd	t5,616(a6) # 1268 <.LBB27_2+0x238>
    3484:	03150833          	mul	a6,a0,a7
    3488:	00001337          	lui	t1,0x1
    348c:	00610333          	add	t1,sp,t1
    3490:	2a033f03          	ld	t5,672(t1) # 12a0 <.LBB27_2+0x270>
    3494:	01e80f33          	add	t5,a6,t5
    3498:	00001837          	lui	a6,0x1
    349c:	01010833          	add	a6,sp,a6
    34a0:	2be83023          	sd	t5,672(a6) # 12a0 <.LBB27_2+0x270>
    34a4:	00028a13          	mv	s4,t0
    34a8:	02550833          	mul	a6,a0,t0
    34ac:	000012b7          	lui	t0,0x1
    34b0:	005102b3          	add	t0,sp,t0
    34b4:	2d82bf03          	ld	t5,728(t0) # 12d8 <.LBB27_2+0x2a8>
    34b8:	01e80f33          	add	t5,a6,t5
    34bc:	00001837          	lui	a6,0x1
    34c0:	01010833          	add	a6,sp,a6
    34c4:	2de83c23          	sd	t5,728(a6) # 12d8 <.LBB27_2+0x2a8>
    34c8:	00001837          	lui	a6,0x1
    34cc:	01010833          	add	a6,sp,a6
    34d0:	e3083283          	ld	t0,-464(a6) # e30 <.LBB27_1+0xc58>
    34d4:	02550833          	mul	a6,a0,t0
    34d8:	00001337          	lui	t1,0x1
    34dc:	00610333          	add	t1,sp,t1
    34e0:	31033f03          	ld	t5,784(t1) # 1310 <.LBB27_2+0x2e0>
    34e4:	01e80f33          	add	t5,a6,t5
    34e8:	00001837          	lui	a6,0x1
    34ec:	01010833          	add	a6,sp,a6
    34f0:	31e83823          	sd	t5,784(a6) # 1310 <.LBB27_2+0x2e0>
    34f4:	00001837          	lui	a6,0x1
    34f8:	01010833          	add	a6,sp,a6
    34fc:	e3883483          	ld	s1,-456(a6) # e38 <.LBB27_1+0xc60>
    3500:	02950833          	mul	a6,a0,s1
    3504:	00001337          	lui	t1,0x1
    3508:	00610333          	add	t1,sp,t1
    350c:	34833f03          	ld	t5,840(t1) # 1348 <.LBB27_2+0x318>
    3510:	01e80f33          	add	t5,a6,t5
    3514:	00001837          	lui	a6,0x1
    3518:	01010833          	add	a6,sp,a6
    351c:	35e83423          	sd	t5,840(a6) # 1348 <.LBB27_2+0x318>
    3520:	00001837          	lui	a6,0x1
    3524:	01010833          	add	a6,sp,a6
    3528:	4b883803          	ld	a6,1208(a6) # 14b8 <.LBB27_2+0x488>
    352c:	2d080803          	lb	a6,720(a6)
    3530:	03a50533          	mul	a0,a0,s10
    3534:	00001337          	lui	t1,0x1
    3538:	00610333          	add	t1,sp,t1
    353c:	38033f03          	ld	t5,896(t1) # 1380 <.LBB27_2+0x350>
    3540:	01e50f33          	add	t5,a0,t5
    3544:	00001537          	lui	a0,0x1
    3548:	00a10533          	add	a0,sp,a0
    354c:	39e53023          	sd	t5,896(a0) # 1380 <.LBB27_2+0x350>
    3550:	02178533          	mul	a0,a5,ra
    3554:	00001337          	lui	t1,0x1
    3558:	00610333          	add	t1,sp,t1
    355c:	ef033f03          	ld	t5,-272(t1) # ef0 <.LBB27_1+0xd18>
    3560:	01e50f33          	add	t5,a0,t5
    3564:	00001537          	lui	a0,0x1
    3568:	00a10533          	add	a0,sp,a0
    356c:	efe53823          	sd	t5,-272(a0) # ef0 <.LBB27_1+0xd18>
    3570:	02b78533          	mul	a0,a5,a1
    3574:	00001337          	lui	t1,0x1
    3578:	00610333          	add	t1,sp,t1
    357c:	eb833f03          	ld	t5,-328(t1) # eb8 <.LBB27_1+0xce0>
    3580:	01e50f33          	add	t5,a0,t5
    3584:	00001537          	lui	a0,0x1
    3588:	00a10533          	add	a0,sp,a0
    358c:	ebe53c23          	sd	t5,-328(a0) # eb8 <.LBB27_1+0xce0>
    3590:	00068f93          	mv	t6,a3
    3594:	02d78533          	mul	a0,a5,a3
    3598:	000016b7          	lui	a3,0x1
    359c:	00d106b3          	add	a3,sp,a3
    35a0:	e806bf03          	ld	t5,-384(a3) # e80 <.LBB27_1+0xca8>
    35a4:	01e50f33          	add	t5,a0,t5
    35a8:	00001537          	lui	a0,0x1
    35ac:	00a10533          	add	a0,sp,a0
    35b0:	e9e53023          	sd	t5,-384(a0) # e80 <.LBB27_1+0xca8>
    35b4:	03878533          	mul	a0,a5,s8
    35b8:	000016b7          	lui	a3,0x1
    35bc:	00d106b3          	add	a3,sp,a3
    35c0:	f286bf03          	ld	t5,-216(a3) # f28 <.LBB27_1+0xd50>
    35c4:	01e50f33          	add	t5,a0,t5
    35c8:	00001537          	lui	a0,0x1
    35cc:	00a10533          	add	a0,sp,a0
    35d0:	f3e53423          	sd	t5,-216(a0) # f28 <.LBB27_1+0xd50>
    35d4:	00001537          	lui	a0,0x1
    35d8:	00a10533          	add	a0,sp,a0
    35dc:	40053683          	ld	a3,1024(a0) # 1400 <.LBB27_2+0x3d0>
    35e0:	02d78533          	mul	a0,a5,a3
    35e4:	00001337          	lui	t1,0x1
    35e8:	00610333          	add	t1,sp,t1
    35ec:	f6033f03          	ld	t5,-160(t1) # f60 <.LBB27_1+0xd88>
    35f0:	01e50f33          	add	t5,a0,t5
    35f4:	00001537          	lui	a0,0x1
    35f8:	00a10533          	add	a0,sp,a0
    35fc:	f7e53023          	sd	t5,-160(a0) # f60 <.LBB27_1+0xd88>
    3600:	03978533          	mul	a0,a5,s9
    3604:	00001337          	lui	t1,0x1
    3608:	00610333          	add	t1,sp,t1
    360c:	f9833f03          	ld	t5,-104(t1) # f98 <.LBB27_1+0xdc0>
    3610:	01e50f33          	add	t5,a0,t5
    3614:	00001537          	lui	a0,0x1
    3618:	00a10533          	add	a0,sp,a0
    361c:	f9e53c23          	sd	t5,-104(a0) # f98 <.LBB27_1+0xdc0>
    3620:	00001537          	lui	a0,0x1
    3624:	00a10533          	add	a0,sp,a0
    3628:	3f853303          	ld	t1,1016(a0) # 13f8 <.LBB27_2+0x3c8>
    362c:	02678533          	mul	a0,a5,t1
    3630:	00001f37          	lui	t5,0x1
    3634:	01e10f33          	add	t5,sp,t5
    3638:	fd0f3f03          	ld	t5,-48(t5) # fd0 <.LBB27_1+0xdf8>
    363c:	01e50f33          	add	t5,a0,t5
    3640:	00001537          	lui	a0,0x1
    3644:	00a10533          	add	a0,sp,a0
    3648:	fde53823          	sd	t5,-48(a0) # fd0 <.LBB27_1+0xdf8>
    364c:	00001537          	lui	a0,0x1
    3650:	00a10533          	add	a0,sp,a0
    3654:	3d853083          	ld	ra,984(a0) # 13d8 <.LBB27_2+0x3a8>
    3658:	02178533          	mul	a0,a5,ra
    365c:	00001f37          	lui	t5,0x1
    3660:	01e10f33          	add	t5,sp,t5
    3664:	008f3f03          	ld	t5,8(t5) # 1008 <.LBB27_1+0xe30>
    3668:	01e50f33          	add	t5,a0,t5
    366c:	00001537          	lui	a0,0x1
    3670:	00a10533          	add	a0,sp,a0
    3674:	01e53423          	sd	t5,8(a0) # 1008 <.LBB27_1+0xe30>
    3678:	03278533          	mul	a0,a5,s2
    367c:	00001f37          	lui	t5,0x1
    3680:	01e10f33          	add	t5,sp,t5
    3684:	040f3f03          	ld	t5,64(t5) # 1040 <.LBB27_2+0x10>
    3688:	01e50f33          	add	t5,a0,t5
    368c:	00001537          	lui	a0,0x1
    3690:	00a10533          	add	a0,sp,a0
    3694:	05e53023          	sd	t5,64(a0) # 1040 <.LBB27_2+0x10>
    3698:	03578533          	mul	a0,a5,s5
    369c:	00001f37          	lui	t5,0x1
    36a0:	01e10f33          	add	t5,sp,t5
    36a4:	078f3f03          	ld	t5,120(t5) # 1078 <.LBB27_2+0x48>
    36a8:	01e50f33          	add	t5,a0,t5
    36ac:	00001537          	lui	a0,0x1
    36b0:	00a10533          	add	a0,sp,a0
    36b4:	07e53c23          	sd	t5,120(a0) # 1078 <.LBB27_2+0x48>
    36b8:	03378533          	mul	a0,a5,s3
    36bc:	00001f37          	lui	t5,0x1
    36c0:	01e10f33          	add	t5,sp,t5
    36c4:	0b0f3f03          	ld	t5,176(t5) # 10b0 <.LBB27_2+0x80>
    36c8:	01e50f33          	add	t5,a0,t5
    36cc:	00001537          	lui	a0,0x1
    36d0:	00a10533          	add	a0,sp,a0
    36d4:	0be53823          	sd	t5,176(a0) # 10b0 <.LBB27_2+0x80>
    36d8:	03678533          	mul	a0,a5,s6
    36dc:	00001f37          	lui	t5,0x1
    36e0:	01e10f33          	add	t5,sp,t5
    36e4:	0e8f3f03          	ld	t5,232(t5) # 10e8 <.LBB27_2+0xb8>
    36e8:	01e50f33          	add	t5,a0,t5
    36ec:	00001537          	lui	a0,0x1
    36f0:	00a10533          	add	a0,sp,a0
    36f4:	0fe53423          	sd	t5,232(a0) # 10e8 <.LBB27_2+0xb8>
    36f8:	03b78533          	mul	a0,a5,s11
    36fc:	00001f37          	lui	t5,0x1
    3700:	01e10f33          	add	t5,sp,t5
    3704:	120f3f03          	ld	t5,288(t5) # 1120 <.LBB27_2+0xf0>
    3708:	01e50f33          	add	t5,a0,t5
    370c:	00001537          	lui	a0,0x1
    3710:	00a10533          	add	a0,sp,a0
    3714:	13e53023          	sd	t5,288(a0) # 1120 <.LBB27_2+0xf0>
    3718:	03778533          	mul	a0,a5,s7
    371c:	00001f37          	lui	t5,0x1
    3720:	01e10f33          	add	t5,sp,t5
    3724:	158f3f03          	ld	t5,344(t5) # 1158 <.LBB27_2+0x128>
    3728:	01e50f33          	add	t5,a0,t5
    372c:	00001537          	lui	a0,0x1
    3730:	00a10533          	add	a0,sp,a0
    3734:	15e53c23          	sd	t5,344(a0) # 1158 <.LBB27_2+0x128>
    3738:	000e0b93          	mv	s7,t3
    373c:	03c78533          	mul	a0,a5,t3
    3740:	00001e37          	lui	t3,0x1
    3744:	01c10e33          	add	t3,sp,t3
    3748:	190e3f03          	ld	t5,400(t3) # 1190 <.LBB27_2+0x160>
    374c:	01e50f33          	add	t5,a0,t5
    3750:	00001537          	lui	a0,0x1
    3754:	00a10533          	add	a0,sp,a0
    3758:	19e53823          	sd	t5,400(a0) # 1190 <.LBB27_2+0x160>
    375c:	00001537          	lui	a0,0x1
    3760:	00a10533          	add	a0,sp,a0
    3764:	41053e03          	ld	t3,1040(a0) # 1410 <.LBB27_2+0x3e0>
    3768:	03c78533          	mul	a0,a5,t3
    376c:	00001f37          	lui	t5,0x1
    3770:	01e10f33          	add	t5,sp,t5
    3774:	1c8f3f03          	ld	t5,456(t5) # 11c8 <.LBB27_2+0x198>
    3778:	01e50f33          	add	t5,a0,t5
    377c:	00001537          	lui	a0,0x1
    3780:	00a10533          	add	a0,sp,a0
    3784:	1de53423          	sd	t5,456(a0) # 11c8 <.LBB27_2+0x198>
    3788:	00001537          	lui	a0,0x1
    378c:	00a10533          	add	a0,sp,a0
    3790:	e4753423          	sd	t2,-440(a0) # e48 <.LBB27_1+0xc70>
    3794:	02778533          	mul	a0,a5,t2
    3798:	00001f37          	lui	t5,0x1
    379c:	01e10f33          	add	t5,sp,t5
    37a0:	200f3f03          	ld	t5,512(t5) # 1200 <.LBB27_2+0x1d0>
    37a4:	01e50f33          	add	t5,a0,t5
    37a8:	00001537          	lui	a0,0x1
    37ac:	00a10533          	add	a0,sp,a0
    37b0:	21e53023          	sd	t5,512(a0) # 1200 <.LBB27_2+0x1d0>
    37b4:	00001537          	lui	a0,0x1
    37b8:	00a10533          	add	a0,sp,a0
    37bc:	e4c53023          	sd	a2,-448(a0) # e40 <.LBB27_1+0xc68>
    37c0:	02c78533          	mul	a0,a5,a2
    37c4:	00001f37          	lui	t5,0x1
    37c8:	01e10f33          	add	t5,sp,t5
    37cc:	238f3f03          	ld	t5,568(t5) # 1238 <.LBB27_2+0x208>
    37d0:	01e50f33          	add	t5,a0,t5
    37d4:	00001537          	lui	a0,0x1
    37d8:	00a10533          	add	a0,sp,a0
    37dc:	23e53c23          	sd	t5,568(a0) # 1238 <.LBB27_2+0x208>
    37e0:	02e78533          	mul	a0,a5,a4
    37e4:	00001f37          	lui	t5,0x1
    37e8:	01e10f33          	add	t5,sp,t5
    37ec:	270f3f03          	ld	t5,624(t5) # 1270 <.LBB27_2+0x240>
    37f0:	01e50f33          	add	t5,a0,t5
    37f4:	00001537          	lui	a0,0x1
    37f8:	00a10533          	add	a0,sp,a0
    37fc:	27e53823          	sd	t5,624(a0) # 1270 <.LBB27_2+0x240>
    3800:	03178533          	mul	a0,a5,a7
    3804:	00001f37          	lui	t5,0x1
    3808:	01e10f33          	add	t5,sp,t5
    380c:	2a8f3f03          	ld	t5,680(t5) # 12a8 <.LBB27_2+0x278>
    3810:	01e50f33          	add	t5,a0,t5
    3814:	00001537          	lui	a0,0x1
    3818:	00a10533          	add	a0,sp,a0
    381c:	2be53423          	sd	t5,680(a0) # 12a8 <.LBB27_2+0x278>
    3820:	03478533          	mul	a0,a5,s4
    3824:	00001f37          	lui	t5,0x1
    3828:	01e10f33          	add	t5,sp,t5
    382c:	2e0f3f03          	ld	t5,736(t5) # 12e0 <.LBB27_2+0x2b0>
    3830:	01e50f33          	add	t5,a0,t5
    3834:	00001537          	lui	a0,0x1
    3838:	00a10533          	add	a0,sp,a0
    383c:	2fe53023          	sd	t5,736(a0) # 12e0 <.LBB27_2+0x2b0>
    3840:	02578533          	mul	a0,a5,t0
    3844:	00028a13          	mv	s4,t0
    3848:	000012b7          	lui	t0,0x1
    384c:	005102b3          	add	t0,sp,t0
    3850:	3182bf03          	ld	t5,792(t0) # 1318 <.LBB27_2+0x2e8>
    3854:	01e50f33          	add	t5,a0,t5
    3858:	00001537          	lui	a0,0x1
    385c:	00a10533          	add	a0,sp,a0
    3860:	31e53c23          	sd	t5,792(a0) # 1318 <.LBB27_2+0x2e8>
    3864:	02978533          	mul	a0,a5,s1
    3868:	000012b7          	lui	t0,0x1
    386c:	005102b3          	add	t0,sp,t0
    3870:	3502bf03          	ld	t5,848(t0) # 1350 <.LBB27_2+0x320>
    3874:	01e50f33          	add	t5,a0,t5
    3878:	00001537          	lui	a0,0x1
    387c:	00a10533          	add	a0,sp,a0
    3880:	35e53823          	sd	t5,848(a0) # 1350 <.LBB27_2+0x320>
    3884:	00001537          	lui	a0,0x1
    3888:	00a10533          	add	a0,sp,a0
    388c:	4b853503          	ld	a0,1208(a0) # 14b8 <.LBB27_2+0x488>
    3890:	36050503          	lb	a0,864(a0)
    3894:	03a787b3          	mul	a5,a5,s10
    3898:	000012b7          	lui	t0,0x1
    389c:	005102b3          	add	t0,sp,t0
    38a0:	3882bf03          	ld	t5,904(t0) # 1388 <.LBB27_2+0x358>
    38a4:	01e78f33          	add	t5,a5,t5
    38a8:	000017b7          	lui	a5,0x1
    38ac:	00f107b3          	add	a5,sp,a5
    38b0:	39e7b423          	sd	t5,904(a5) # 1388 <.LBB27_2+0x358>
    38b4:	000017b7          	lui	a5,0x1
    38b8:	00f107b3          	add	a5,sp,a5
    38bc:	3f07b283          	ld	t0,1008(a5) # 13f0 <.LBB27_2+0x3c0>
    38c0:	025807b3          	mul	a5,a6,t0
    38c4:	00001f37          	lui	t5,0x1
    38c8:	01e10f33          	add	t5,sp,t5
    38cc:	ef8f3f03          	ld	t5,-264(t5) # ef8 <.LBB27_1+0xd20>
    38d0:	01e78f33          	add	t5,a5,t5
    38d4:	000017b7          	lui	a5,0x1
    38d8:	00f107b3          	add	a5,sp,a5
    38dc:	efe7bc23          	sd	t5,-264(a5) # ef8 <.LBB27_1+0xd20>
    38e0:	02b807b3          	mul	a5,a6,a1
    38e4:	000015b7          	lui	a1,0x1
    38e8:	00b105b3          	add	a1,sp,a1
    38ec:	ec05bf03          	ld	t5,-320(a1) # ec0 <.LBB27_1+0xce8>
    38f0:	01e78f33          	add	t5,a5,t5
    38f4:	000015b7          	lui	a1,0x1
    38f8:	00b105b3          	add	a1,sp,a1
    38fc:	ede5b023          	sd	t5,-320(a1) # ec0 <.LBB27_1+0xce8>
    3900:	03f807b3          	mul	a5,a6,t6
    3904:	000f8993          	mv	s3,t6
    3908:	000015b7          	lui	a1,0x1
    390c:	00b105b3          	add	a1,sp,a1
    3910:	e885bf03          	ld	t5,-376(a1) # e88 <.LBB27_1+0xcb0>
    3914:	01e78f33          	add	t5,a5,t5
    3918:	000015b7          	lui	a1,0x1
    391c:	00b105b3          	add	a1,sp,a1
    3920:	e9e5b423          	sd	t5,-376(a1) # e88 <.LBB27_1+0xcb0>
    3924:	038807b3          	mul	a5,a6,s8
    3928:	000c0f93          	mv	t6,s8
    392c:	000015b7          	lui	a1,0x1
    3930:	00b105b3          	add	a1,sp,a1
    3934:	f305bf03          	ld	t5,-208(a1) # f30 <.LBB27_1+0xd58>
    3938:	01e78f33          	add	t5,a5,t5
    393c:	000015b7          	lui	a1,0x1
    3940:	00b105b3          	add	a1,sp,a1
    3944:	f3e5b823          	sd	t5,-208(a1) # f30 <.LBB27_1+0xd58>
    3948:	02d807b3          	mul	a5,a6,a3
    394c:	000015b7          	lui	a1,0x1
    3950:	00b105b3          	add	a1,sp,a1
    3954:	f685bf03          	ld	t5,-152(a1) # f68 <.LBB27_1+0xd90>
    3958:	01e78f33          	add	t5,a5,t5
    395c:	000015b7          	lui	a1,0x1
    3960:	00b105b3          	add	a1,sp,a1
    3964:	f7e5b423          	sd	t5,-152(a1) # f68 <.LBB27_1+0xd90>
    3968:	039807b3          	mul	a5,a6,s9
    396c:	000015b7          	lui	a1,0x1
    3970:	00b105b3          	add	a1,sp,a1
    3974:	fa05bf03          	ld	t5,-96(a1) # fa0 <.LBB27_1+0xdc8>
    3978:	01e78f33          	add	t5,a5,t5
    397c:	000015b7          	lui	a1,0x1
    3980:	00b105b3          	add	a1,sp,a1
    3984:	fbe5b023          	sd	t5,-96(a1) # fa0 <.LBB27_1+0xdc8>
    3988:	026807b3          	mul	a5,a6,t1
    398c:	000015b7          	lui	a1,0x1
    3990:	00b105b3          	add	a1,sp,a1
    3994:	fd85bf03          	ld	t5,-40(a1) # fd8 <.LBB27_1+0xe00>
    3998:	01e78f33          	add	t5,a5,t5
    399c:	000015b7          	lui	a1,0x1
    39a0:	00b105b3          	add	a1,sp,a1
    39a4:	fde5bc23          	sd	t5,-40(a1) # fd8 <.LBB27_1+0xe00>
    39a8:	021807b3          	mul	a5,a6,ra
    39ac:	000015b7          	lui	a1,0x1
    39b0:	00b105b3          	add	a1,sp,a1
    39b4:	0105bf03          	ld	t5,16(a1) # 1010 <.LBB27_1+0xe38>
    39b8:	01e78f33          	add	t5,a5,t5
    39bc:	000015b7          	lui	a1,0x1
    39c0:	00b105b3          	add	a1,sp,a1
    39c4:	01e5b823          	sd	t5,16(a1) # 1010 <.LBB27_1+0xe38>
    39c8:	00090313          	mv	t1,s2
    39cc:	032807b3          	mul	a5,a6,s2
    39d0:	000015b7          	lui	a1,0x1
    39d4:	00b105b3          	add	a1,sp,a1
    39d8:	0485bf03          	ld	t5,72(a1) # 1048 <.LBB27_2+0x18>
    39dc:	01e78f33          	add	t5,a5,t5
    39e0:	000015b7          	lui	a1,0x1
    39e4:	00b105b3          	add	a1,sp,a1
    39e8:	05e5b423          	sd	t5,72(a1) # 1048 <.LBB27_2+0x18>
    39ec:	035807b3          	mul	a5,a6,s5
    39f0:	000015b7          	lui	a1,0x1
    39f4:	00b105b3          	add	a1,sp,a1
    39f8:	0805bf03          	ld	t5,128(a1) # 1080 <.LBB27_2+0x50>
    39fc:	01e78f33          	add	t5,a5,t5
    3a00:	000015b7          	lui	a1,0x1
    3a04:	00b105b3          	add	a1,sp,a1
    3a08:	09e5b023          	sd	t5,128(a1) # 1080 <.LBB27_2+0x50>
    3a0c:	000015b7          	lui	a1,0x1
    3a10:	00b105b3          	add	a1,sp,a1
    3a14:	4085bc83          	ld	s9,1032(a1) # 1408 <.LBB27_2+0x3d8>
    3a18:	039807b3          	mul	a5,a6,s9
    3a1c:	000015b7          	lui	a1,0x1
    3a20:	00b105b3          	add	a1,sp,a1
    3a24:	0b85bf03          	ld	t5,184(a1) # 10b8 <.LBB27_2+0x88>
    3a28:	01e78f33          	add	t5,a5,t5
    3a2c:	000015b7          	lui	a1,0x1
    3a30:	00b105b3          	add	a1,sp,a1
    3a34:	0be5bc23          	sd	t5,184(a1) # 10b8 <.LBB27_2+0x88>
    3a38:	036807b3          	mul	a5,a6,s6
    3a3c:	000015b7          	lui	a1,0x1
    3a40:	00b105b3          	add	a1,sp,a1
    3a44:	0f05bf03          	ld	t5,240(a1) # 10f0 <.LBB27_2+0xc0>
    3a48:	01e78f33          	add	t5,a5,t5
    3a4c:	000015b7          	lui	a1,0x1
    3a50:	00b105b3          	add	a1,sp,a1
    3a54:	0fe5b823          	sd	t5,240(a1) # 10f0 <.LBB27_2+0xc0>
    3a58:	000d8913          	mv	s2,s11
    3a5c:	03b807b3          	mul	a5,a6,s11
    3a60:	000015b7          	lui	a1,0x1
    3a64:	00b105b3          	add	a1,sp,a1
    3a68:	1285bf03          	ld	t5,296(a1) # 1128 <.LBB27_2+0xf8>
    3a6c:	01e78f33          	add	t5,a5,t5
    3a70:	000015b7          	lui	a1,0x1
    3a74:	00b105b3          	add	a1,sp,a1
    3a78:	13e5b423          	sd	t5,296(a1) # 1128 <.LBB27_2+0xf8>
    3a7c:	000015b7          	lui	a1,0x1
    3a80:	00b105b3          	add	a1,sp,a1
    3a84:	3c85bc03          	ld	s8,968(a1) # 13c8 <.LBB27_2+0x398>
    3a88:	038807b3          	mul	a5,a6,s8
    3a8c:	000015b7          	lui	a1,0x1
    3a90:	00b105b3          	add	a1,sp,a1
    3a94:	1605bf03          	ld	t5,352(a1) # 1160 <.LBB27_2+0x130>
    3a98:	01e78f33          	add	t5,a5,t5
    3a9c:	000015b7          	lui	a1,0x1
    3aa0:	00b105b3          	add	a1,sp,a1
    3aa4:	17e5b023          	sd	t5,352(a1) # 1160 <.LBB27_2+0x130>
    3aa8:	037807b3          	mul	a5,a6,s7
    3aac:	000b8693          	mv	a3,s7
    3ab0:	000015b7          	lui	a1,0x1
    3ab4:	00b105b3          	add	a1,sp,a1
    3ab8:	1985bf03          	ld	t5,408(a1) # 1198 <.LBB27_2+0x168>
    3abc:	01e78f33          	add	t5,a5,t5
    3ac0:	000015b7          	lui	a1,0x1
    3ac4:	00b105b3          	add	a1,sp,a1
    3ac8:	19e5bc23          	sd	t5,408(a1) # 1198 <.LBB27_2+0x168>
    3acc:	03c807b3          	mul	a5,a6,t3
    3ad0:	000015b7          	lui	a1,0x1
    3ad4:	00b105b3          	add	a1,sp,a1
    3ad8:	1d05bf03          	ld	t5,464(a1) # 11d0 <.LBB27_2+0x1a0>
    3adc:	01e78f33          	add	t5,a5,t5
    3ae0:	000015b7          	lui	a1,0x1
    3ae4:	00b105b3          	add	a1,sp,a1
    3ae8:	1de5b823          	sd	t5,464(a1) # 11d0 <.LBB27_2+0x1a0>
    3aec:	027807b3          	mul	a5,a6,t2
    3af0:	000015b7          	lui	a1,0x1
    3af4:	00b105b3          	add	a1,sp,a1
    3af8:	2085bf03          	ld	t5,520(a1) # 1208 <.LBB27_2+0x1d8>
    3afc:	01e78f33          	add	t5,a5,t5
    3b00:	000015b7          	lui	a1,0x1
    3b04:	00b105b3          	add	a1,sp,a1
    3b08:	21e5b423          	sd	t5,520(a1) # 1208 <.LBB27_2+0x1d8>
    3b0c:	02c807b3          	mul	a5,a6,a2
    3b10:	000015b7          	lui	a1,0x1
    3b14:	00b105b3          	add	a1,sp,a1
    3b18:	2405bf03          	ld	t5,576(a1) # 1240 <.LBB27_2+0x210>
    3b1c:	01e78f33          	add	t5,a5,t5
    3b20:	000015b7          	lui	a1,0x1
    3b24:	00b105b3          	add	a1,sp,a1
    3b28:	25e5b023          	sd	t5,576(a1) # 1240 <.LBB27_2+0x210>
    3b2c:	02e807b3          	mul	a5,a6,a4
    3b30:	00070b93          	mv	s7,a4
    3b34:	000015b7          	lui	a1,0x1
    3b38:	00b105b3          	add	a1,sp,a1
    3b3c:	2785bf03          	ld	t5,632(a1) # 1278 <.LBB27_2+0x248>
    3b40:	01e78f33          	add	t5,a5,t5
    3b44:	000015b7          	lui	a1,0x1
    3b48:	00b105b3          	add	a1,sp,a1
    3b4c:	27e5bc23          	sd	t5,632(a1) # 1278 <.LBB27_2+0x248>
    3b50:	031807b3          	mul	a5,a6,a7
    3b54:	00088e13          	mv	t3,a7
    3b58:	000015b7          	lui	a1,0x1
    3b5c:	00b105b3          	add	a1,sp,a1
    3b60:	2b05bf03          	ld	t5,688(a1) # 12b0 <.LBB27_2+0x280>
    3b64:	01e78f33          	add	t5,a5,t5
    3b68:	000015b7          	lui	a1,0x1
    3b6c:	00b105b3          	add	a1,sp,a1
    3b70:	2be5b823          	sd	t5,688(a1) # 12b0 <.LBB27_2+0x280>
    3b74:	000015b7          	lui	a1,0x1
    3b78:	00b105b3          	add	a1,sp,a1
    3b7c:	3d05b883          	ld	a7,976(a1) # 13d0 <.LBB27_2+0x3a0>
    3b80:	031807b3          	mul	a5,a6,a7
    3b84:	000015b7          	lui	a1,0x1
    3b88:	00b105b3          	add	a1,sp,a1
    3b8c:	2e85bf03          	ld	t5,744(a1) # 12e8 <.LBB27_2+0x2b8>
    3b90:	01e78f33          	add	t5,a5,t5
    3b94:	000015b7          	lui	a1,0x1
    3b98:	00b105b3          	add	a1,sp,a1
    3b9c:	2fe5b423          	sd	t5,744(a1) # 12e8 <.LBB27_2+0x2b8>
    3ba0:	000a0093          	mv	ra,s4
    3ba4:	034807b3          	mul	a5,a6,s4
    3ba8:	000015b7          	lui	a1,0x1
    3bac:	00b105b3          	add	a1,sp,a1
    3bb0:	3205bf03          	ld	t5,800(a1) # 1320 <.LBB27_2+0x2f0>
    3bb4:	01e78f33          	add	t5,a5,t5
    3bb8:	000015b7          	lui	a1,0x1
    3bbc:	00b105b3          	add	a1,sp,a1
    3bc0:	33e5b023          	sd	t5,800(a1) # 1320 <.LBB27_2+0x2f0>
    3bc4:	029807b3          	mul	a5,a6,s1
    3bc8:	00048a13          	mv	s4,s1
    3bcc:	000015b7          	lui	a1,0x1
    3bd0:	00b105b3          	add	a1,sp,a1
    3bd4:	3585bf03          	ld	t5,856(a1) # 1358 <.LBB27_2+0x328>
    3bd8:	01e78f33          	add	t5,a5,t5
    3bdc:	000015b7          	lui	a1,0x1
    3be0:	00b105b3          	add	a1,sp,a1
    3be4:	35e5bc23          	sd	t5,856(a1) # 1358 <.LBB27_2+0x328>
    3be8:	000015b7          	lui	a1,0x1
    3bec:	00b105b3          	add	a1,sp,a1
    3bf0:	4b85b783          	ld	a5,1208(a1) # 14b8 <.LBB27_2+0x488>
    3bf4:	3f078783          	lb	a5,1008(a5)
    3bf8:	03a80833          	mul	a6,a6,s10
    3bfc:	000015b7          	lui	a1,0x1
    3c00:	00b105b3          	add	a1,sp,a1
    3c04:	3905bf03          	ld	t5,912(a1) # 1390 <.LBB27_2+0x360>
    3c08:	01e80f33          	add	t5,a6,t5
    3c0c:	000015b7          	lui	a1,0x1
    3c10:	00b105b3          	add	a1,sp,a1
    3c14:	39e5b823          	sd	t5,912(a1) # 1390 <.LBB27_2+0x360>
    3c18:	02550833          	mul	a6,a0,t0
    3c1c:	000015b7          	lui	a1,0x1
    3c20:	00b105b3          	add	a1,sp,a1
    3c24:	f005bf03          	ld	t5,-256(a1) # f00 <.LBB27_1+0xd28>
    3c28:	01e80f33          	add	t5,a6,t5
    3c2c:	000015b7          	lui	a1,0x1
    3c30:	00b105b3          	add	a1,sp,a1
    3c34:	f1e5b023          	sd	t5,-256(a1) # f00 <.LBB27_1+0xd28>
    3c38:	000015b7          	lui	a1,0x1
    3c3c:	00b105b3          	add	a1,sp,a1
    3c40:	4b05b603          	ld	a2,1200(a1) # 14b0 <.LBB27_2+0x480>
    3c44:	02c50833          	mul	a6,a0,a2
    3c48:	000015b7          	lui	a1,0x1
    3c4c:	00b105b3          	add	a1,sp,a1
    3c50:	ec85bf03          	ld	t5,-312(a1) # ec8 <.LBB27_1+0xcf0>
    3c54:	01e80f33          	add	t5,a6,t5
    3c58:	000015b7          	lui	a1,0x1
    3c5c:	00b105b3          	add	a1,sp,a1
    3c60:	ede5b423          	sd	t5,-312(a1) # ec8 <.LBB27_1+0xcf0>
    3c64:	03350833          	mul	a6,a0,s3
    3c68:	000015b7          	lui	a1,0x1
    3c6c:	00b105b3          	add	a1,sp,a1
    3c70:	e905bf03          	ld	t5,-368(a1) # e90 <.LBB27_1+0xcb8>
    3c74:	01e80f33          	add	t5,a6,t5
    3c78:	000015b7          	lui	a1,0x1
    3c7c:	00b105b3          	add	a1,sp,a1
    3c80:	e9e5b823          	sd	t5,-368(a1) # e90 <.LBB27_1+0xcb8>
    3c84:	03f50833          	mul	a6,a0,t6
    3c88:	000015b7          	lui	a1,0x1
    3c8c:	00b105b3          	add	a1,sp,a1
    3c90:	f385bf03          	ld	t5,-200(a1) # f38 <.LBB27_1+0xd60>
    3c94:	01e80f33          	add	t5,a6,t5
    3c98:	000015b7          	lui	a1,0x1
    3c9c:	00b105b3          	add	a1,sp,a1
    3ca0:	f3e5bc23          	sd	t5,-200(a1) # f38 <.LBB27_1+0xd60>
    3ca4:	000015b7          	lui	a1,0x1
    3ca8:	00b105b3          	add	a1,sp,a1
    3cac:	4005b483          	ld	s1,1024(a1) # 1400 <.LBB27_2+0x3d0>
    3cb0:	02950833          	mul	a6,a0,s1
    3cb4:	000015b7          	lui	a1,0x1
    3cb8:	00b105b3          	add	a1,sp,a1
    3cbc:	f705bf03          	ld	t5,-144(a1) # f70 <.LBB27_1+0xd98>
    3cc0:	01e80f33          	add	t5,a6,t5
    3cc4:	000015b7          	lui	a1,0x1
    3cc8:	00b105b3          	add	a1,sp,a1
    3ccc:	f7e5b823          	sd	t5,-144(a1) # f70 <.LBB27_1+0xd98>
    3cd0:	000015b7          	lui	a1,0x1
    3cd4:	00b105b3          	add	a1,sp,a1
    3cd8:	3e05b383          	ld	t2,992(a1) # 13e0 <.LBB27_2+0x3b0>
    3cdc:	02750833          	mul	a6,a0,t2
    3ce0:	000015b7          	lui	a1,0x1
    3ce4:	00b105b3          	add	a1,sp,a1
    3ce8:	fa85bf03          	ld	t5,-88(a1) # fa8 <.LBB27_1+0xdd0>
    3cec:	01e80f33          	add	t5,a6,t5
    3cf0:	000015b7          	lui	a1,0x1
    3cf4:	00b105b3          	add	a1,sp,a1
    3cf8:	fbe5b423          	sd	t5,-88(a1) # fa8 <.LBB27_1+0xdd0>
    3cfc:	000015b7          	lui	a1,0x1
    3d00:	00b105b3          	add	a1,sp,a1
    3d04:	3f85b703          	ld	a4,1016(a1) # 13f8 <.LBB27_2+0x3c8>
    3d08:	02e50833          	mul	a6,a0,a4
    3d0c:	000015b7          	lui	a1,0x1
    3d10:	00b105b3          	add	a1,sp,a1
    3d14:	fe05bf03          	ld	t5,-32(a1) # fe0 <.LBB27_1+0xe08>
    3d18:	01e80f33          	add	t5,a6,t5
    3d1c:	000015b7          	lui	a1,0x1
    3d20:	00b105b3          	add	a1,sp,a1
    3d24:	ffe5b023          	sd	t5,-32(a1) # fe0 <.LBB27_1+0xe08>
    3d28:	000015b7          	lui	a1,0x1
    3d2c:	00b105b3          	add	a1,sp,a1
    3d30:	3d85b983          	ld	s3,984(a1) # 13d8 <.LBB27_2+0x3a8>
    3d34:	03350833          	mul	a6,a0,s3
    3d38:	000015b7          	lui	a1,0x1
    3d3c:	00b105b3          	add	a1,sp,a1
    3d40:	0185bf03          	ld	t5,24(a1) # 1018 <.LBB27_1+0xe40>
    3d44:	01e80f33          	add	t5,a6,t5
    3d48:	000015b7          	lui	a1,0x1
    3d4c:	00b105b3          	add	a1,sp,a1
    3d50:	01e5bc23          	sd	t5,24(a1) # 1018 <.LBB27_1+0xe40>
    3d54:	02650833          	mul	a6,a0,t1
    3d58:	000e8d93          	mv	s11,t4
    3d5c:	00030e93          	mv	t4,t1
    3d60:	000015b7          	lui	a1,0x1
    3d64:	00b105b3          	add	a1,sp,a1
    3d68:	0505bf03          	ld	t5,80(a1) # 1050 <.LBB27_2+0x20>
    3d6c:	01e80f33          	add	t5,a6,t5
    3d70:	000015b7          	lui	a1,0x1
    3d74:	00b105b3          	add	a1,sp,a1
    3d78:	05e5b823          	sd	t5,80(a1) # 1050 <.LBB27_2+0x20>
    3d7c:	03550833          	mul	a6,a0,s5
    3d80:	000015b7          	lui	a1,0x1
    3d84:	00b105b3          	add	a1,sp,a1
    3d88:	0885bf03          	ld	t5,136(a1) # 1088 <.LBB27_2+0x58>
    3d8c:	01e80f33          	add	t5,a6,t5
    3d90:	000015b7          	lui	a1,0x1
    3d94:	00b105b3          	add	a1,sp,a1
    3d98:	09e5b423          	sd	t5,136(a1) # 1088 <.LBB27_2+0x58>
    3d9c:	03950833          	mul	a6,a0,s9
    3da0:	000c8293          	mv	t0,s9
    3da4:	000015b7          	lui	a1,0x1
    3da8:	00b105b3          	add	a1,sp,a1
    3dac:	0c05bf03          	ld	t5,192(a1) # 10c0 <.LBB27_2+0x90>
    3db0:	01e80f33          	add	t5,a6,t5
    3db4:	000015b7          	lui	a1,0x1
    3db8:	00b105b3          	add	a1,sp,a1
    3dbc:	0de5b023          	sd	t5,192(a1) # 10c0 <.LBB27_2+0x90>
    3dc0:	03650833          	mul	a6,a0,s6
    3dc4:	000015b7          	lui	a1,0x1
    3dc8:	00b105b3          	add	a1,sp,a1
    3dcc:	0f85bf03          	ld	t5,248(a1) # 10f8 <.LBB27_2+0xc8>
    3dd0:	01e80f33          	add	t5,a6,t5
    3dd4:	000015b7          	lui	a1,0x1
    3dd8:	00b105b3          	add	a1,sp,a1
    3ddc:	0fe5bc23          	sd	t5,248(a1) # 10f8 <.LBB27_2+0xc8>
    3de0:	03250833          	mul	a6,a0,s2
    3de4:	000015b7          	lui	a1,0x1
    3de8:	00b105b3          	add	a1,sp,a1
    3dec:	1305bf03          	ld	t5,304(a1) # 1130 <.LBB27_2+0x100>
    3df0:	01e80f33          	add	t5,a6,t5
    3df4:	000015b7          	lui	a1,0x1
    3df8:	00b105b3          	add	a1,sp,a1
    3dfc:	13e5b823          	sd	t5,304(a1) # 1130 <.LBB27_2+0x100>
    3e00:	03850833          	mul	a6,a0,s8
    3e04:	000015b7          	lui	a1,0x1
    3e08:	00b105b3          	add	a1,sp,a1
    3e0c:	1685bf03          	ld	t5,360(a1) # 1168 <.LBB27_2+0x138>
    3e10:	01e80f33          	add	t5,a6,t5
    3e14:	000015b7          	lui	a1,0x1
    3e18:	00b105b3          	add	a1,sp,a1
    3e1c:	17e5b423          	sd	t5,360(a1) # 1168 <.LBB27_2+0x138>
    3e20:	00068c93          	mv	s9,a3
    3e24:	02d50833          	mul	a6,a0,a3
    3e28:	000015b7          	lui	a1,0x1
    3e2c:	00b105b3          	add	a1,sp,a1
    3e30:	1a05bf03          	ld	t5,416(a1) # 11a0 <.LBB27_2+0x170>
    3e34:	01e80f33          	add	t5,a6,t5
    3e38:	000015b7          	lui	a1,0x1
    3e3c:	00b105b3          	add	a1,sp,a1
    3e40:	1be5b023          	sd	t5,416(a1) # 11a0 <.LBB27_2+0x170>
    3e44:	000015b7          	lui	a1,0x1
    3e48:	00b105b3          	add	a1,sp,a1
    3e4c:	4105b683          	ld	a3,1040(a1) # 1410 <.LBB27_2+0x3e0>
    3e50:	02d50833          	mul	a6,a0,a3
    3e54:	000015b7          	lui	a1,0x1
    3e58:	00b105b3          	add	a1,sp,a1
    3e5c:	1d85bf03          	ld	t5,472(a1) # 11d8 <.LBB27_2+0x1a8>
    3e60:	01e80f33          	add	t5,a6,t5
    3e64:	000015b7          	lui	a1,0x1
    3e68:	00b105b3          	add	a1,sp,a1
    3e6c:	1de5bc23          	sd	t5,472(a1) # 11d8 <.LBB27_2+0x1a8>
    3e70:	000015b7          	lui	a1,0x1
    3e74:	00b105b3          	add	a1,sp,a1
    3e78:	e485b603          	ld	a2,-440(a1) # e48 <.LBB27_1+0xc70>
    3e7c:	02c50833          	mul	a6,a0,a2
    3e80:	000015b7          	lui	a1,0x1
    3e84:	00b105b3          	add	a1,sp,a1
    3e88:	2105bf03          	ld	t5,528(a1) # 1210 <.LBB27_2+0x1e0>
    3e8c:	01e80f33          	add	t5,a6,t5
    3e90:	000015b7          	lui	a1,0x1
    3e94:	00b105b3          	add	a1,sp,a1
    3e98:	21e5b823          	sd	t5,528(a1) # 1210 <.LBB27_2+0x1e0>
    3e9c:	000015b7          	lui	a1,0x1
    3ea0:	00b105b3          	add	a1,sp,a1
    3ea4:	e405b583          	ld	a1,-448(a1) # e40 <.LBB27_1+0xc68>
    3ea8:	02b50833          	mul	a6,a0,a1
    3eac:	00001337          	lui	t1,0x1
    3eb0:	00610333          	add	t1,sp,t1
    3eb4:	24833f03          	ld	t5,584(t1) # 1248 <.LBB27_2+0x218>
    3eb8:	01e80f33          	add	t5,a6,t5
    3ebc:	00001837          	lui	a6,0x1
    3ec0:	01010833          	add	a6,sp,a6
    3ec4:	25e83423          	sd	t5,584(a6) # 1248 <.LBB27_2+0x218>
    3ec8:	03750833          	mul	a6,a0,s7
    3ecc:	00001337          	lui	t1,0x1
    3ed0:	00610333          	add	t1,sp,t1
    3ed4:	28033f03          	ld	t5,640(t1) # 1280 <.LBB27_2+0x250>
    3ed8:	01e80f33          	add	t5,a6,t5
    3edc:	00001837          	lui	a6,0x1
    3ee0:	01010833          	add	a6,sp,a6
    3ee4:	29e83023          	sd	t5,640(a6) # 1280 <.LBB27_2+0x250>
    3ee8:	03c50833          	mul	a6,a0,t3
    3eec:	00001337          	lui	t1,0x1
    3ef0:	00610333          	add	t1,sp,t1
    3ef4:	2b833f03          	ld	t5,696(t1) # 12b8 <.LBB27_2+0x288>
    3ef8:	01e80f33          	add	t5,a6,t5
    3efc:	00001837          	lui	a6,0x1
    3f00:	01010833          	add	a6,sp,a6
    3f04:	2be83c23          	sd	t5,696(a6) # 12b8 <.LBB27_2+0x288>
    3f08:	03150833          	mul	a6,a0,a7
    3f0c:	00001337          	lui	t1,0x1
    3f10:	00610333          	add	t1,sp,t1
    3f14:	2f033f03          	ld	t5,752(t1) # 12f0 <.LBB27_2+0x2c0>
    3f18:	01e80f33          	add	t5,a6,t5
    3f1c:	00001837          	lui	a6,0x1
    3f20:	01010833          	add	a6,sp,a6
    3f24:	2fe83823          	sd	t5,752(a6) # 12f0 <.LBB27_2+0x2c0>
    3f28:	00008313          	mv	t1,ra
    3f2c:	02150833          	mul	a6,a0,ra
    3f30:	00001337          	lui	t1,0x1
    3f34:	00610333          	add	t1,sp,t1
    3f38:	32833f03          	ld	t5,808(t1) # 1328 <.LBB27_2+0x2f8>
    3f3c:	01e80f33          	add	t5,a6,t5
    3f40:	00001837          	lui	a6,0x1
    3f44:	01010833          	add	a6,sp,a6
    3f48:	33e83423          	sd	t5,808(a6) # 1328 <.LBB27_2+0x2f8>
    3f4c:	03450833          	mul	a6,a0,s4
    3f50:	00001337          	lui	t1,0x1
    3f54:	00610333          	add	t1,sp,t1
    3f58:	36033f03          	ld	t5,864(t1) # 1360 <.LBB27_2+0x330>
    3f5c:	01e80f33          	add	t5,a6,t5
    3f60:	00001837          	lui	a6,0x1
    3f64:	01010833          	add	a6,sp,a6
    3f68:	37e83023          	sd	t5,864(a6) # 1360 <.LBB27_2+0x330>
    3f6c:	03a50533          	mul	a0,a0,s10
    3f70:	00001837          	lui	a6,0x1
    3f74:	01010833          	add	a6,sp,a6
    3f78:	39883803          	ld	a6,920(a6) # 1398 <.LBB27_2+0x368>
    3f7c:	01050833          	add	a6,a0,a6
    3f80:	00001537          	lui	a0,0x1
    3f84:	00a10533          	add	a0,sp,a0
    3f88:	39053c23          	sd	a6,920(a0) # 1398 <.LBB27_2+0x368>
    3f8c:	03a78533          	mul	a0,a5,s10
    3f90:	00001837          	lui	a6,0x1
    3f94:	01010833          	add	a6,sp,a6
    3f98:	e0a83823          	sd	a0,-496(a6) # e10 <.LBB27_1+0xc38>
    3f9c:	03478533          	mul	a0,a5,s4
    3fa0:	00001837          	lui	a6,0x1
    3fa4:	01010833          	add	a6,sp,a6
    3fa8:	e2a83c23          	sd	a0,-456(a6) # e38 <.LBB27_1+0xc60>
    3fac:	02178533          	mul	a0,a5,ra
    3fb0:	00001837          	lui	a6,0x1
    3fb4:	01010833          	add	a6,sp,a6
    3fb8:	e2a83823          	sd	a0,-464(a6) # e30 <.LBB27_1+0xc58>
    3fbc:	03178533          	mul	a0,a5,a7
    3fc0:	00001837          	lui	a6,0x1
    3fc4:	01010833          	add	a6,sp,a6
    3fc8:	3ca83823          	sd	a0,976(a6) # 13d0 <.LBB27_2+0x3a0>
    3fcc:	03c78333          	mul	t1,a5,t3
    3fd0:	037788b3          	mul	a7,a5,s7
    3fd4:	02b78833          	mul	a6,a5,a1
    3fd8:	02c78533          	mul	a0,a5,a2
    3fdc:	000015b7          	lui	a1,0x1
    3fe0:	00b105b3          	add	a1,sp,a1
    3fe4:	e585b083          	ld	ra,-424(a1) # e58 <.LBB27_1+0xc80>
    3fe8:	02d78e33          	mul	t3,a5,a3
    3fec:	03978d33          	mul	s10,a5,s9
    3ff0:	03878cb3          	mul	s9,a5,s8
    3ff4:	03278c33          	mul	s8,a5,s2
    3ff8:	03678bb3          	mul	s7,a5,s6
    3ffc:	025785b3          	mul	a1,a5,t0
    4000:	03578b33          	mul	s6,a5,s5
    4004:	03d78ab3          	mul	s5,a5,t4
    4008:	000d8293          	mv	t0,s11
    400c:	03378a33          	mul	s4,a5,s3
    4010:	02e789b3          	mul	s3,a5,a4
    4014:	02778933          	mul	s2,a5,t2
    4018:	029784b3          	mul	s1,a5,s1
    401c:	03f78eb3          	mul	t4,a5,t6
    4020:	00001637          	lui	a2,0x1
    4024:	00c10633          	add	a2,sp,a2
    4028:	41863603          	ld	a2,1048(a2) # 1418 <.LBB27_2+0x3e8>
    402c:	02c78db3          	mul	s11,a5,a2
    4030:	00001637          	lui	a2,0x1
    4034:	00c10633          	add	a2,sp,a2
    4038:	4b063603          	ld	a2,1200(a2) # 14b0 <.LBB27_2+0x480>
    403c:	02c78f33          	mul	t5,a5,a2
    4040:	00001637          	lui	a2,0x1
    4044:	00c10633          	add	a2,sp,a2
    4048:	3f063603          	ld	a2,1008(a2) # 13f0 <.LBB27_2+0x3c0>
    404c:	02c787b3          	mul	a5,a5,a2
    4050:	00001637          	lui	a2,0x1
    4054:	00c10633          	add	a2,sp,a2
    4058:	3b063f83          	ld	t6,944(a2) # 13b0 <.LBB27_2+0x380>
    405c:	01f78fb3          	add	t6,a5,t6
    4060:	00001637          	lui	a2,0x1
    4064:	00c10633          	add	a2,sp,a2
    4068:	3bf63823          	sd	t6,944(a2) # 13b0 <.LBB27_2+0x380>
    406c:	001f00b3          	add	ra,t5,ra
    4070:	00001637          	lui	a2,0x1
    4074:	00c10633          	add	a2,sp,a2
    4078:	42063783          	ld	a5,1056(a2) # 1420 <.LBB27_2+0x3f0>
    407c:	00fd87b3          	add	a5,s11,a5
    4080:	00001637          	lui	a2,0x1
    4084:	00c10633          	add	a2,sp,a2
    4088:	42f63023          	sd	a5,1056(a2) # 1420 <.LBB27_2+0x3f0>
    408c:	00001637          	lui	a2,0x1
    4090:	00c10633          	add	a2,sp,a2
    4094:	42063d83          	ld	s11,1056(a2) # 1420 <.LBB27_2+0x3f0>
    4098:	00001637          	lui	a2,0x1
    409c:	00c10633          	add	a2,sp,a2
    40a0:	3a863783          	ld	a5,936(a2) # 13a8 <.LBB27_2+0x378>
    40a4:	00fe87b3          	add	a5,t4,a5
    40a8:	00001637          	lui	a2,0x1
    40ac:	00c10633          	add	a2,sp,a2
    40b0:	3af63423          	sd	a5,936(a2) # 13a8 <.LBB27_2+0x378>
    40b4:	00001637          	lui	a2,0x1
    40b8:	00c10633          	add	a2,sp,a2
    40bc:	3a063783          	ld	a5,928(a2) # 13a0 <.LBB27_2+0x370>
    40c0:	00f487b3          	add	a5,s1,a5
    40c4:	00001637          	lui	a2,0x1
    40c8:	00c10633          	add	a2,sp,a2
    40cc:	3af63023          	sd	a5,928(a2) # 13a0 <.LBB27_2+0x370>
    40d0:	00001637          	lui	a2,0x1
    40d4:	00c10633          	add	a2,sp,a2
    40d8:	4a863783          	ld	a5,1192(a2) # 14a8 <.LBB27_2+0x478>
    40dc:	00f907b3          	add	a5,s2,a5
    40e0:	00001637          	lui	a2,0x1
    40e4:	00c10633          	add	a2,sp,a2
    40e8:	4af63423          	sd	a5,1192(a2) # 14a8 <.LBB27_2+0x478>
    40ec:	00001637          	lui	a2,0x1
    40f0:	00c10633          	add	a2,sp,a2
    40f4:	4a863783          	ld	a5,1192(a2) # 14a8 <.LBB27_2+0x478>
    40f8:	00001637          	lui	a2,0x1
    40fc:	00c10633          	add	a2,sp,a2
    4100:	4a063e83          	ld	t4,1184(a2) # 14a0 <.LBB27_2+0x470>
    4104:	01d98eb3          	add	t4,s3,t4
    4108:	00001637          	lui	a2,0x1
    410c:	00c10633          	add	a2,sp,a2
    4110:	4bd63023          	sd	t4,1184(a2) # 14a0 <.LBB27_2+0x470>
    4114:	00001637          	lui	a2,0x1
    4118:	00c10633          	add	a2,sp,a2
    411c:	4a063e83          	ld	t4,1184(a2) # 14a0 <.LBB27_2+0x470>
    4120:	00001637          	lui	a2,0x1
    4124:	00c10633          	add	a2,sp,a2
    4128:	49863f03          	ld	t5,1176(a2) # 1498 <.LBB27_2+0x468>
    412c:	01ea0f33          	add	t5,s4,t5
    4130:	00001637          	lui	a2,0x1
    4134:	00c10633          	add	a2,sp,a2
    4138:	49e63c23          	sd	t5,1176(a2) # 1498 <.LBB27_2+0x468>
    413c:	00001637          	lui	a2,0x1
    4140:	00c10633          	add	a2,sp,a2
    4144:	49863f03          	ld	t5,1176(a2) # 1498 <.LBB27_2+0x468>
    4148:	00001637          	lui	a2,0x1
    414c:	00c10633          	add	a2,sp,a2
    4150:	49063f83          	ld	t6,1168(a2) # 1490 <.LBB27_2+0x460>
    4154:	01fa8fb3          	add	t6,s5,t6
    4158:	00001637          	lui	a2,0x1
    415c:	00c10633          	add	a2,sp,a2
    4160:	49f63823          	sd	t6,1168(a2) # 1490 <.LBB27_2+0x460>
    4164:	00001637          	lui	a2,0x1
    4168:	00c10633          	add	a2,sp,a2
    416c:	49063f83          	ld	t6,1168(a2) # 1490 <.LBB27_2+0x460>
    4170:	00001637          	lui	a2,0x1
    4174:	00c10633          	add	a2,sp,a2
    4178:	48863483          	ld	s1,1160(a2) # 1488 <.LBB27_2+0x458>
    417c:	009b04b3          	add	s1,s6,s1
    4180:	00001637          	lui	a2,0x1
    4184:	00c10633          	add	a2,sp,a2
    4188:	48963423          	sd	s1,1160(a2) # 1488 <.LBB27_2+0x458>
    418c:	00001637          	lui	a2,0x1
    4190:	00c10633          	add	a2,sp,a2
    4194:	48863483          	ld	s1,1160(a2) # 1488 <.LBB27_2+0x458>
    4198:	00001637          	lui	a2,0x1
    419c:	00c10633          	add	a2,sp,a2
    41a0:	48063903          	ld	s2,1152(a2) # 1480 <.LBB27_2+0x450>
    41a4:	01258933          	add	s2,a1,s2
    41a8:	000015b7          	lui	a1,0x1
    41ac:	00b105b3          	add	a1,sp,a1
    41b0:	4925b023          	sd	s2,1152(a1) # 1480 <.LBB27_2+0x450>
    41b4:	000015b7          	lui	a1,0x1
    41b8:	00b105b3          	add	a1,sp,a1
    41bc:	4805b583          	ld	a1,1152(a1) # 1480 <.LBB27_2+0x450>
    41c0:	00001637          	lui	a2,0x1
    41c4:	00c10633          	add	a2,sp,a2
    41c8:	47863903          	ld	s2,1144(a2) # 1478 <.LBB27_2+0x448>
    41cc:	012b8933          	add	s2,s7,s2
    41d0:	00001637          	lui	a2,0x1
    41d4:	00c10633          	add	a2,sp,a2
    41d8:	3b863b83          	ld	s7,952(a2) # 13b8 <.LBB27_2+0x388>
    41dc:	00001637          	lui	a2,0x1
    41e0:	00c10633          	add	a2,sp,a2
    41e4:	47263c23          	sd	s2,1144(a2) # 1478 <.LBB27_2+0x448>
    41e8:	00001637          	lui	a2,0x1
    41ec:	00c10633          	add	a2,sp,a2
    41f0:	47863903          	ld	s2,1144(a2) # 1478 <.LBB27_2+0x448>
    41f4:	00001637          	lui	a2,0x1
    41f8:	00c10633          	add	a2,sp,a2
    41fc:	47063983          	ld	s3,1136(a2) # 1470 <.LBB27_2+0x440>
    4200:	013c09b3          	add	s3,s8,s3
    4204:	00001637          	lui	a2,0x1
    4208:	00c10633          	add	a2,sp,a2
    420c:	47363823          	sd	s3,1136(a2) # 1470 <.LBB27_2+0x440>
    4210:	00001637          	lui	a2,0x1
    4214:	00c10633          	add	a2,sp,a2
    4218:	47063983          	ld	s3,1136(a2) # 1470 <.LBB27_2+0x440>
    421c:	00001637          	lui	a2,0x1
    4220:	00c10633          	add	a2,sp,a2
    4224:	46863a03          	ld	s4,1128(a2) # 1468 <.LBB27_2+0x438>
    4228:	014c8a33          	add	s4,s9,s4
    422c:	00001637          	lui	a2,0x1
    4230:	00c10633          	add	a2,sp,a2
    4234:	47463423          	sd	s4,1128(a2) # 1468 <.LBB27_2+0x438>
    4238:	00001637          	lui	a2,0x1
    423c:	00c10633          	add	a2,sp,a2
    4240:	46863a03          	ld	s4,1128(a2) # 1468 <.LBB27_2+0x438>
    4244:	00001637          	lui	a2,0x1
    4248:	00c10633          	add	a2,sp,a2
    424c:	46063a83          	ld	s5,1120(a2) # 1460 <.LBB27_2+0x430>
    4250:	015d0ab3          	add	s5,s10,s5
    4254:	00001637          	lui	a2,0x1
    4258:	00c10633          	add	a2,sp,a2
    425c:	47563023          	sd	s5,1120(a2) # 1460 <.LBB27_2+0x430>
    4260:	00001637          	lui	a2,0x1
    4264:	00c10633          	add	a2,sp,a2
    4268:	46063a83          	ld	s5,1120(a2) # 1460 <.LBB27_2+0x430>
    426c:	00001637          	lui	a2,0x1
    4270:	00c10633          	add	a2,sp,a2
    4274:	45863b03          	ld	s6,1112(a2) # 1458 <.LBB27_2+0x428>
    4278:	016e0b33          	add	s6,t3,s6
    427c:	00001637          	lui	a2,0x1
    4280:	00c10633          	add	a2,sp,a2
    4284:	45663c23          	sd	s6,1112(a2) # 1458 <.LBB27_2+0x428>
    4288:	00001637          	lui	a2,0x1
    428c:	00c10633          	add	a2,sp,a2
    4290:	45863e03          	ld	t3,1112(a2) # 1458 <.LBB27_2+0x428>
    4294:	00001637          	lui	a2,0x1
    4298:	00c10633          	add	a2,sp,a2
    429c:	45063b03          	ld	s6,1104(a2) # 1450 <.LBB27_2+0x420>
    42a0:	01650b33          	add	s6,a0,s6
    42a4:	00001537          	lui	a0,0x1
    42a8:	00a10533          	add	a0,sp,a0
    42ac:	45653823          	sd	s6,1104(a0) # 1450 <.LBB27_2+0x420>
    42b0:	00001537          	lui	a0,0x1
    42b4:	00a10533          	add	a0,sp,a0
    42b8:	45053383          	ld	t2,1104(a0) # 1450 <.LBB27_2+0x420>
    42bc:	00001537          	lui	a0,0x1
    42c0:	00a10533          	add	a0,sp,a0
    42c4:	44853b03          	ld	s6,1096(a0) # 1448 <.LBB27_2+0x418>
    42c8:	01680b33          	add	s6,a6,s6
    42cc:	00001537          	lui	a0,0x1
    42d0:	00a10533          	add	a0,sp,a0
    42d4:	45653423          	sd	s6,1096(a0) # 1448 <.LBB27_2+0x418>
    42d8:	00001537          	lui	a0,0x1
    42dc:	00a10533          	add	a0,sp,a0
    42e0:	44853603          	ld	a2,1096(a0) # 1448 <.LBB27_2+0x418>
    42e4:	00001537          	lui	a0,0x1
    42e8:	00a10533          	add	a0,sp,a0
    42ec:	44053b03          	ld	s6,1088(a0) # 1440 <.LBB27_2+0x410>
    42f0:	01688b33          	add	s6,a7,s6
    42f4:	00001537          	lui	a0,0x1
    42f8:	00a10533          	add	a0,sp,a0
    42fc:	45653023          	sd	s6,1088(a0) # 1440 <.LBB27_2+0x410>
    4300:	00001537          	lui	a0,0x1
    4304:	00a10533          	add	a0,sp,a0
    4308:	3c053b03          	ld	s6,960(a0) # 13c0 <.LBB27_2+0x390>
    430c:	00001537          	lui	a0,0x1
    4310:	00a10533          	add	a0,sp,a0
    4314:	44053683          	ld	a3,1088(a0) # 1440 <.LBB27_2+0x410>
    4318:	01630b33          	add	s6,t1,s6
    431c:	00001537          	lui	a0,0x1
    4320:	00a10533          	add	a0,sp,a0
    4324:	43853703          	ld	a4,1080(a0) # 1438 <.LBB27_2+0x408>
    4328:	00001537          	lui	a0,0x1
    432c:	00a10533          	add	a0,sp,a0
    4330:	3d053503          	ld	a0,976(a0) # 13d0 <.LBB27_2+0x3a0>
    4334:	00e50733          	add	a4,a0,a4
    4338:	00001537          	lui	a0,0x1
    433c:	00a10533          	add	a0,sp,a0
    4340:	42e53c23          	sd	a4,1080(a0) # 1438 <.LBB27_2+0x408>
    4344:	00001537          	lui	a0,0x1
    4348:	00a10533          	add	a0,sp,a0
    434c:	43853883          	ld	a7,1080(a0) # 1438 <.LBB27_2+0x408>
    4350:	00001537          	lui	a0,0x1
    4354:	00a10533          	add	a0,sp,a0
    4358:	43053703          	ld	a4,1072(a0) # 1430 <.LBB27_2+0x400>
    435c:	00001537          	lui	a0,0x1
    4360:	00a10533          	add	a0,sp,a0
    4364:	e3053503          	ld	a0,-464(a0) # e30 <.LBB27_1+0xc58>
    4368:	00e50733          	add	a4,a0,a4
    436c:	00001537          	lui	a0,0x1
    4370:	00a10533          	add	a0,sp,a0
    4374:	42e53823          	sd	a4,1072(a0) # 1430 <.LBB27_2+0x400>
    4378:	00001537          	lui	a0,0x1
    437c:	00a10533          	add	a0,sp,a0
    4380:	43053303          	ld	t1,1072(a0) # 1430 <.LBB27_2+0x400>
    4384:	00001537          	lui	a0,0x1
    4388:	00a10533          	add	a0,sp,a0
    438c:	42853703          	ld	a4,1064(a0) # 1428 <.LBB27_2+0x3f8>
    4390:	00001537          	lui	a0,0x1
    4394:	00a10533          	add	a0,sp,a0
    4398:	e3853503          	ld	a0,-456(a0) # e38 <.LBB27_1+0xc60>
    439c:	00e50733          	add	a4,a0,a4
    43a0:	00001537          	lui	a0,0x1
    43a4:	00a10533          	add	a0,sp,a0
    43a8:	42e53423          	sd	a4,1064(a0) # 1428 <.LBB27_2+0x3f8>
    43ac:	00001537          	lui	a0,0x1
    43b0:	00a10533          	add	a0,sp,a0
    43b4:	4b853703          	ld	a4,1208(a0) # 14b8 <.LBB27_2+0x488>
    43b8:	00001537          	lui	a0,0x1
    43bc:	00a10533          	add	a0,sp,a0
    43c0:	42853803          	ld	a6,1064(a0) # 1428 <.LBB27_2+0x3f8>
    43c4:	00001537          	lui	a0,0x1
    43c8:	00a10533          	add	a0,sp,a0
    43cc:	e1053503          	ld	a0,-496(a0) # e10 <.LBB27_1+0xc38>
    43d0:	01750bb3          	add	s7,a0,s7
    43d4:	00001537          	lui	a0,0x1
    43d8:	00a10533          	add	a0,sp,a0
    43dc:	e5053503          	ld	a0,-432(a0) # e50 <.LBB27_1+0xc78>
    43e0:	01828293          	addi	t0,t0,24
    43e4:	fff50513          	addi	a0,a0,-1
    43e8:	00170713          	addi	a4,a4,1
    43ec:	00050463          	beqz	a0,43f4 <.LBB27_4>
    43f0:	974fe06f          	j	2564 <.LBB27_3>

00000000000043f4 <.LBB27_4>:
    43f4:	00001537          	lui	a0,0x1
    43f8:	00a10533          	add	a0,sp,a0
    43fc:	e6053503          	ld	a0,-416(a0) # e60 <.LBB27_1+0xc88>
    4400:	00001737          	lui	a4,0x1
    4404:	00e10733          	add	a4,sp,a4
    4408:	4ca72023          	sw	a0,1216(a4) # 14c0 <.LBB27_2+0x490>
    440c:	00001537          	lui	a0,0x1
    4410:	00a10533          	add	a0,sp,a0
    4414:	e9853503          	ld	a0,-360(a0) # e98 <.LBB27_1+0xcc0>
    4418:	00001737          	lui	a4,0x1
    441c:	00e10733          	add	a4,sp,a4
    4420:	4ca72223          	sw	a0,1220(a4) # 14c4 <.LBB27_2+0x494>
    4424:	00001537          	lui	a0,0x1
    4428:	00a10533          	add	a0,sp,a0
    442c:	ed053503          	ld	a0,-304(a0) # ed0 <.LBB27_1+0xcf8>
    4430:	00001737          	lui	a4,0x1
    4434:	00e10733          	add	a4,sp,a4
    4438:	4ca72423          	sw	a0,1224(a4) # 14c8 <.LBB27_2+0x498>
    443c:	00001537          	lui	a0,0x1
    4440:	00a10533          	add	a0,sp,a0
    4444:	f0853503          	ld	a0,-248(a0) # f08 <.LBB27_1+0xd30>
    4448:	00001737          	lui	a4,0x1
    444c:	00e10733          	add	a4,sp,a4
    4450:	4ca72623          	sw	a0,1228(a4) # 14cc <.LBB27_2+0x49c>
    4454:	00001537          	lui	a0,0x1
    4458:	00a10533          	add	a0,sp,a0
    445c:	f4053503          	ld	a0,-192(a0) # f40 <.LBB27_1+0xd68>
    4460:	00001737          	lui	a4,0x1
    4464:	00e10733          	add	a4,sp,a4
    4468:	4ca72823          	sw	a0,1232(a4) # 14d0 <.LBB27_2+0x4a0>
    446c:	00001537          	lui	a0,0x1
    4470:	00a10533          	add	a0,sp,a0
    4474:	f7853503          	ld	a0,-136(a0) # f78 <.LBB27_1+0xda0>
    4478:	00001737          	lui	a4,0x1
    447c:	00e10733          	add	a4,sp,a4
    4480:	4ca72a23          	sw	a0,1236(a4) # 14d4 <.LBB27_2+0x4a4>
    4484:	00001537          	lui	a0,0x1
    4488:	00a10533          	add	a0,sp,a0
    448c:	fb053503          	ld	a0,-80(a0) # fb0 <.LBB27_1+0xdd8>
    4490:	00001737          	lui	a4,0x1
    4494:	00e10733          	add	a4,sp,a4
    4498:	4ca72c23          	sw	a0,1240(a4) # 14d8 <.LBB27_2+0x4a8>
    449c:	00001537          	lui	a0,0x1
    44a0:	00a10533          	add	a0,sp,a0
    44a4:	fe853503          	ld	a0,-24(a0) # fe8 <.LBB27_1+0xe10>
    44a8:	00001737          	lui	a4,0x1
    44ac:	00e10733          	add	a4,sp,a4
    44b0:	4ca72e23          	sw	a0,1244(a4) # 14dc <.LBB27_2+0x4ac>
    44b4:	00001537          	lui	a0,0x1
    44b8:	00a10533          	add	a0,sp,a0
    44bc:	02053503          	ld	a0,32(a0) # 1020 <.LBB27_1+0xe48>
    44c0:	00001737          	lui	a4,0x1
    44c4:	00e10733          	add	a4,sp,a4
    44c8:	4ea72023          	sw	a0,1248(a4) # 14e0 <.LBB27_2+0x4b0>
    44cc:	00001537          	lui	a0,0x1
    44d0:	00a10533          	add	a0,sp,a0
    44d4:	05853503          	ld	a0,88(a0) # 1058 <.LBB27_2+0x28>
    44d8:	00001737          	lui	a4,0x1
    44dc:	00e10733          	add	a4,sp,a4
    44e0:	4ea72223          	sw	a0,1252(a4) # 14e4 <.LBB27_2+0x4b4>
    44e4:	00001537          	lui	a0,0x1
    44e8:	00a10533          	add	a0,sp,a0
    44ec:	09053503          	ld	a0,144(a0) # 1090 <.LBB27_2+0x60>
    44f0:	00001737          	lui	a4,0x1
    44f4:	00e10733          	add	a4,sp,a4
    44f8:	4ea72423          	sw	a0,1256(a4) # 14e8 <.LBB27_2+0x4b8>
    44fc:	00001537          	lui	a0,0x1
    4500:	00a10533          	add	a0,sp,a0
    4504:	0c853503          	ld	a0,200(a0) # 10c8 <.LBB27_2+0x98>
    4508:	00001737          	lui	a4,0x1
    450c:	00e10733          	add	a4,sp,a4
    4510:	4ea72623          	sw	a0,1260(a4) # 14ec <.LBB27_2+0x4bc>
    4514:	00001537          	lui	a0,0x1
    4518:	00a10533          	add	a0,sp,a0
    451c:	10053503          	ld	a0,256(a0) # 1100 <.LBB27_2+0xd0>
    4520:	00001737          	lui	a4,0x1
    4524:	00e10733          	add	a4,sp,a4
    4528:	4ea72823          	sw	a0,1264(a4) # 14f0 <.LBB27_2+0x4c0>
    452c:	00001537          	lui	a0,0x1
    4530:	00a10533          	add	a0,sp,a0
    4534:	13853503          	ld	a0,312(a0) # 1138 <.LBB27_2+0x108>
    4538:	00001737          	lui	a4,0x1
    453c:	00e10733          	add	a4,sp,a4
    4540:	4ea72a23          	sw	a0,1268(a4) # 14f4 <.LBB27_2+0x4c4>
    4544:	00001537          	lui	a0,0x1
    4548:	00a10533          	add	a0,sp,a0
    454c:	17053503          	ld	a0,368(a0) # 1170 <.LBB27_2+0x140>
    4550:	00001737          	lui	a4,0x1
    4554:	00e10733          	add	a4,sp,a4
    4558:	4ea72c23          	sw	a0,1272(a4) # 14f8 <.LBB27_2+0x4c8>
    455c:	00001537          	lui	a0,0x1
    4560:	00a10533          	add	a0,sp,a0
    4564:	1a853503          	ld	a0,424(a0) # 11a8 <.LBB27_2+0x178>
    4568:	00001737          	lui	a4,0x1
    456c:	00e10733          	add	a4,sp,a4
    4570:	4ea72e23          	sw	a0,1276(a4) # 14fc <.LBB27_2+0x4cc>
    4574:	00001537          	lui	a0,0x1
    4578:	00a10533          	add	a0,sp,a0
    457c:	1e053503          	ld	a0,480(a0) # 11e0 <.LBB27_2+0x1b0>
    4580:	00001737          	lui	a4,0x1
    4584:	00e10733          	add	a4,sp,a4
    4588:	50a72023          	sw	a0,1280(a4) # 1500 <.LBB27_2+0x4d0>
    458c:	00001537          	lui	a0,0x1
    4590:	00a10533          	add	a0,sp,a0
    4594:	21853503          	ld	a0,536(a0) # 1218 <.LBB27_2+0x1e8>
    4598:	00001737          	lui	a4,0x1
    459c:	00e10733          	add	a4,sp,a4
    45a0:	50a72223          	sw	a0,1284(a4) # 1504 <.LBB27_2+0x4d4>
    45a4:	00001537          	lui	a0,0x1
    45a8:	00a10533          	add	a0,sp,a0
    45ac:	25053503          	ld	a0,592(a0) # 1250 <.LBB27_2+0x220>
    45b0:	00001737          	lui	a4,0x1
    45b4:	00e10733          	add	a4,sp,a4
    45b8:	50a72423          	sw	a0,1288(a4) # 1508 <.LBB27_2+0x4d8>
    45bc:	00001537          	lui	a0,0x1
    45c0:	00a10533          	add	a0,sp,a0
    45c4:	28853503          	ld	a0,648(a0) # 1288 <.LBB27_2+0x258>
    45c8:	00001737          	lui	a4,0x1
    45cc:	00e10733          	add	a4,sp,a4
    45d0:	50a72623          	sw	a0,1292(a4) # 150c <.LBB27_2+0x4dc>
    45d4:	00001537          	lui	a0,0x1
    45d8:	00a10533          	add	a0,sp,a0
    45dc:	2c053503          	ld	a0,704(a0) # 12c0 <.LBB27_2+0x290>
    45e0:	00001737          	lui	a4,0x1
    45e4:	00e10733          	add	a4,sp,a4
    45e8:	50a72823          	sw	a0,1296(a4) # 1510 <.LBB27_2+0x4e0>
    45ec:	00001537          	lui	a0,0x1
    45f0:	00a10533          	add	a0,sp,a0
    45f4:	2f853503          	ld	a0,760(a0) # 12f8 <.LBB27_2+0x2c8>
    45f8:	00001737          	lui	a4,0x1
    45fc:	00e10733          	add	a4,sp,a4
    4600:	50a72a23          	sw	a0,1300(a4) # 1514 <.LBB27_2+0x4e4>
    4604:	00001537          	lui	a0,0x1
    4608:	00a10533          	add	a0,sp,a0
    460c:	33053503          	ld	a0,816(a0) # 1330 <.LBB27_2+0x300>
    4610:	00001737          	lui	a4,0x1
    4614:	00e10733          	add	a4,sp,a4
    4618:	50a72c23          	sw	a0,1304(a4) # 1518 <.LBB27_2+0x4e8>
    461c:	00001537          	lui	a0,0x1
    4620:	00a10533          	add	a0,sp,a0
    4624:	36853503          	ld	a0,872(a0) # 1368 <.LBB27_2+0x338>
    4628:	00001737          	lui	a4,0x1
    462c:	00e10733          	add	a4,sp,a4
    4630:	50a72e23          	sw	a0,1308(a4) # 151c <.LBB27_2+0x4ec>
    4634:	00001537          	lui	a0,0x1
    4638:	5205051b          	addiw	a0,a0,1312 # 1520 <.LBB27_2+0x4f0>
    463c:	00a10533          	add	a0,sp,a0
    4640:	00001737          	lui	a4,0x1
    4644:	00e10733          	add	a4,sp,a4
    4648:	e6873703          	ld	a4,-408(a4) # e68 <.LBB27_1+0xc90>
    464c:	00e52023          	sw	a4,0(a0)
    4650:	00001537          	lui	a0,0x1
    4654:	00a10533          	add	a0,sp,a0
    4658:	ea053503          	ld	a0,-352(a0) # ea0 <.LBB27_1+0xcc8>
    465c:	00001737          	lui	a4,0x1
    4660:	00e10733          	add	a4,sp,a4
    4664:	52a72223          	sw	a0,1316(a4) # 1524 <.LBB27_2+0x4f4>
    4668:	00001537          	lui	a0,0x1
    466c:	00a10533          	add	a0,sp,a0
    4670:	ed853503          	ld	a0,-296(a0) # ed8 <.LBB27_1+0xd00>
    4674:	00001737          	lui	a4,0x1
    4678:	00e10733          	add	a4,sp,a4
    467c:	52a72423          	sw	a0,1320(a4) # 1528 <.LBB27_2+0x4f8>
    4680:	00001537          	lui	a0,0x1
    4684:	00a10533          	add	a0,sp,a0
    4688:	f1053503          	ld	a0,-240(a0) # f10 <.LBB27_1+0xd38>
    468c:	00001737          	lui	a4,0x1
    4690:	00e10733          	add	a4,sp,a4
    4694:	52a72623          	sw	a0,1324(a4) # 152c <.LBB27_2+0x4fc>
    4698:	00001537          	lui	a0,0x1
    469c:	00a10533          	add	a0,sp,a0
    46a0:	f4853503          	ld	a0,-184(a0) # f48 <.LBB27_1+0xd70>
    46a4:	00001737          	lui	a4,0x1
    46a8:	00e10733          	add	a4,sp,a4
    46ac:	52a72823          	sw	a0,1328(a4) # 1530 <.LBB27_2+0x500>
    46b0:	00001537          	lui	a0,0x1
    46b4:	00a10533          	add	a0,sp,a0
    46b8:	f8053503          	ld	a0,-128(a0) # f80 <.LBB27_1+0xda8>
    46bc:	00001737          	lui	a4,0x1
    46c0:	00e10733          	add	a4,sp,a4
    46c4:	52a72a23          	sw	a0,1332(a4) # 1534 <.LBB27_2+0x504>
    46c8:	00001537          	lui	a0,0x1
    46cc:	00a10533          	add	a0,sp,a0
    46d0:	fb853503          	ld	a0,-72(a0) # fb8 <.LBB27_1+0xde0>
    46d4:	00001737          	lui	a4,0x1
    46d8:	00e10733          	add	a4,sp,a4
    46dc:	52a72c23          	sw	a0,1336(a4) # 1538 <.LBB27_2+0x508>
    46e0:	00001537          	lui	a0,0x1
    46e4:	00a10533          	add	a0,sp,a0
    46e8:	ff053503          	ld	a0,-16(a0) # ff0 <.LBB27_1+0xe18>
    46ec:	00001737          	lui	a4,0x1
    46f0:	00e10733          	add	a4,sp,a4
    46f4:	52a72e23          	sw	a0,1340(a4) # 153c <.LBB27_2+0x50c>
    46f8:	00001537          	lui	a0,0x1
    46fc:	00a10533          	add	a0,sp,a0
    4700:	02853503          	ld	a0,40(a0) # 1028 <.LBB27_1+0xe50>
    4704:	00001737          	lui	a4,0x1
    4708:	00e10733          	add	a4,sp,a4
    470c:	54a72023          	sw	a0,1344(a4) # 1540 <.LBB27_2+0x510>
    4710:	00001537          	lui	a0,0x1
    4714:	00a10533          	add	a0,sp,a0
    4718:	06053503          	ld	a0,96(a0) # 1060 <.LBB27_2+0x30>
    471c:	00001737          	lui	a4,0x1
    4720:	00e10733          	add	a4,sp,a4
    4724:	54a72223          	sw	a0,1348(a4) # 1544 <.LBB27_2+0x514>
    4728:	00001537          	lui	a0,0x1
    472c:	00a10533          	add	a0,sp,a0
    4730:	09853503          	ld	a0,152(a0) # 1098 <.LBB27_2+0x68>
    4734:	00001737          	lui	a4,0x1
    4738:	00e10733          	add	a4,sp,a4
    473c:	54a72423          	sw	a0,1352(a4) # 1548 <.LBB27_2+0x518>
    4740:	00001537          	lui	a0,0x1
    4744:	00a10533          	add	a0,sp,a0
    4748:	0d053503          	ld	a0,208(a0) # 10d0 <.LBB27_2+0xa0>
    474c:	00001737          	lui	a4,0x1
    4750:	00e10733          	add	a4,sp,a4
    4754:	54a72623          	sw	a0,1356(a4) # 154c <.LBB27_2+0x51c>
    4758:	00001537          	lui	a0,0x1
    475c:	00a10533          	add	a0,sp,a0
    4760:	10853503          	ld	a0,264(a0) # 1108 <.LBB27_2+0xd8>
    4764:	00001737          	lui	a4,0x1
    4768:	00e10733          	add	a4,sp,a4
    476c:	54a72823          	sw	a0,1360(a4) # 1550 <.LBB27_2+0x520>
    4770:	00001537          	lui	a0,0x1
    4774:	00a10533          	add	a0,sp,a0
    4778:	14053503          	ld	a0,320(a0) # 1140 <.LBB27_2+0x110>
    477c:	00001737          	lui	a4,0x1
    4780:	00e10733          	add	a4,sp,a4
    4784:	54a72a23          	sw	a0,1364(a4) # 1554 <.LBB27_2+0x524>
    4788:	00001537          	lui	a0,0x1
    478c:	00a10533          	add	a0,sp,a0
    4790:	17853503          	ld	a0,376(a0) # 1178 <.LBB27_2+0x148>
    4794:	00001737          	lui	a4,0x1
    4798:	00e10733          	add	a4,sp,a4
    479c:	54a72c23          	sw	a0,1368(a4) # 1558 <.LBB27_2+0x528>
    47a0:	00001537          	lui	a0,0x1
    47a4:	00a10533          	add	a0,sp,a0
    47a8:	1b053503          	ld	a0,432(a0) # 11b0 <.LBB27_2+0x180>
    47ac:	00001737          	lui	a4,0x1
    47b0:	00e10733          	add	a4,sp,a4
    47b4:	54a72e23          	sw	a0,1372(a4) # 155c <.LBB27_2+0x52c>
    47b8:	00001537          	lui	a0,0x1
    47bc:	00a10533          	add	a0,sp,a0
    47c0:	1e853503          	ld	a0,488(a0) # 11e8 <.LBB27_2+0x1b8>
    47c4:	00001737          	lui	a4,0x1
    47c8:	00e10733          	add	a4,sp,a4
    47cc:	56a72023          	sw	a0,1376(a4) # 1560 <.LBB27_2+0x530>
    47d0:	00001537          	lui	a0,0x1
    47d4:	00a10533          	add	a0,sp,a0
    47d8:	22053503          	ld	a0,544(a0) # 1220 <.LBB27_2+0x1f0>
    47dc:	00001737          	lui	a4,0x1
    47e0:	00e10733          	add	a4,sp,a4
    47e4:	56a72223          	sw	a0,1380(a4) # 1564 <.LBB27_2+0x534>
    47e8:	00001537          	lui	a0,0x1
    47ec:	00a10533          	add	a0,sp,a0
    47f0:	25853503          	ld	a0,600(a0) # 1258 <.LBB27_2+0x228>
    47f4:	00001737          	lui	a4,0x1
    47f8:	00e10733          	add	a4,sp,a4
    47fc:	56a72423          	sw	a0,1384(a4) # 1568 <.LBB27_2+0x538>
    4800:	00001537          	lui	a0,0x1
    4804:	00a10533          	add	a0,sp,a0
    4808:	29053503          	ld	a0,656(a0) # 1290 <.LBB27_2+0x260>
    480c:	00001737          	lui	a4,0x1
    4810:	00e10733          	add	a4,sp,a4
    4814:	56a72623          	sw	a0,1388(a4) # 156c <.LBB27_2+0x53c>
    4818:	00001537          	lui	a0,0x1
    481c:	00a10533          	add	a0,sp,a0
    4820:	2c853503          	ld	a0,712(a0) # 12c8 <.LBB27_2+0x298>
    4824:	00001737          	lui	a4,0x1
    4828:	00e10733          	add	a4,sp,a4
    482c:	56a72823          	sw	a0,1392(a4) # 1570 <.LBB27_2+0x540>
    4830:	00001537          	lui	a0,0x1
    4834:	00a10533          	add	a0,sp,a0
    4838:	30053503          	ld	a0,768(a0) # 1300 <.LBB27_2+0x2d0>
    483c:	00001737          	lui	a4,0x1
    4840:	00e10733          	add	a4,sp,a4
    4844:	56a72a23          	sw	a0,1396(a4) # 1574 <.LBB27_2+0x544>
    4848:	00001537          	lui	a0,0x1
    484c:	00a10533          	add	a0,sp,a0
    4850:	33853503          	ld	a0,824(a0) # 1338 <.LBB27_2+0x308>
    4854:	00001737          	lui	a4,0x1
    4858:	00e10733          	add	a4,sp,a4
    485c:	56a72c23          	sw	a0,1400(a4) # 1578 <.LBB27_2+0x548>
    4860:	00001537          	lui	a0,0x1
    4864:	00a10533          	add	a0,sp,a0
    4868:	37053503          	ld	a0,880(a0) # 1370 <.LBB27_2+0x340>
    486c:	00001737          	lui	a4,0x1
    4870:	00e10733          	add	a4,sp,a4
    4874:	56a72e23          	sw	a0,1404(a4) # 157c <.LBB27_2+0x54c>
    4878:	00001537          	lui	a0,0x1
    487c:	5805051b          	addiw	a0,a0,1408 # 1580 <.LBB27_2+0x550>
    4880:	00a10533          	add	a0,sp,a0
    4884:	00001737          	lui	a4,0x1
    4888:	00e10733          	add	a4,sp,a4
    488c:	e7073703          	ld	a4,-400(a4) # e70 <.LBB27_1+0xc98>
    4890:	00e52023          	sw	a4,0(a0)
    4894:	00001537          	lui	a0,0x1
    4898:	00a10533          	add	a0,sp,a0
    489c:	ea853503          	ld	a0,-344(a0) # ea8 <.LBB27_1+0xcd0>
    48a0:	00001737          	lui	a4,0x1
    48a4:	00e10733          	add	a4,sp,a4
    48a8:	58a72223          	sw	a0,1412(a4) # 1584 <.LBB27_2+0x554>
    48ac:	00001537          	lui	a0,0x1
    48b0:	00a10533          	add	a0,sp,a0
    48b4:	ee053503          	ld	a0,-288(a0) # ee0 <.LBB27_1+0xd08>
    48b8:	00001737          	lui	a4,0x1
    48bc:	00e10733          	add	a4,sp,a4
    48c0:	58a72423          	sw	a0,1416(a4) # 1588 <.LBB27_2+0x558>
    48c4:	00001537          	lui	a0,0x1
    48c8:	00a10533          	add	a0,sp,a0
    48cc:	f1853503          	ld	a0,-232(a0) # f18 <.LBB27_1+0xd40>
    48d0:	00001737          	lui	a4,0x1
    48d4:	00e10733          	add	a4,sp,a4
    48d8:	58a72623          	sw	a0,1420(a4) # 158c <.LBB27_2+0x55c>
    48dc:	00001537          	lui	a0,0x1
    48e0:	00a10533          	add	a0,sp,a0
    48e4:	f5053503          	ld	a0,-176(a0) # f50 <.LBB27_1+0xd78>
    48e8:	00001737          	lui	a4,0x1
    48ec:	00e10733          	add	a4,sp,a4
    48f0:	58a72823          	sw	a0,1424(a4) # 1590 <.LBB27_2+0x560>
    48f4:	00001537          	lui	a0,0x1
    48f8:	00a10533          	add	a0,sp,a0
    48fc:	f8853503          	ld	a0,-120(a0) # f88 <.LBB27_1+0xdb0>
    4900:	00001737          	lui	a4,0x1
    4904:	00e10733          	add	a4,sp,a4
    4908:	58a72a23          	sw	a0,1428(a4) # 1594 <.LBB27_2+0x564>
    490c:	00001537          	lui	a0,0x1
    4910:	00a10533          	add	a0,sp,a0
    4914:	fc053503          	ld	a0,-64(a0) # fc0 <.LBB27_1+0xde8>
    4918:	00001737          	lui	a4,0x1
    491c:	00e10733          	add	a4,sp,a4
    4920:	58a72c23          	sw	a0,1432(a4) # 1598 <.LBB27_2+0x568>
    4924:	00001537          	lui	a0,0x1
    4928:	00a10533          	add	a0,sp,a0
    492c:	ff853503          	ld	a0,-8(a0) # ff8 <.LBB27_1+0xe20>
    4930:	00001737          	lui	a4,0x1
    4934:	00e10733          	add	a4,sp,a4
    4938:	58a72e23          	sw	a0,1436(a4) # 159c <.LBB27_2+0x56c>
    493c:	00001537          	lui	a0,0x1
    4940:	00a10533          	add	a0,sp,a0
    4944:	03053503          	ld	a0,48(a0) # 1030 <.LBB27_2>
    4948:	00001737          	lui	a4,0x1
    494c:	00e10733          	add	a4,sp,a4
    4950:	5aa72023          	sw	a0,1440(a4) # 15a0 <.LBB27_2+0x570>
    4954:	00001537          	lui	a0,0x1
    4958:	00a10533          	add	a0,sp,a0
    495c:	06853503          	ld	a0,104(a0) # 1068 <.LBB27_2+0x38>
    4960:	00001737          	lui	a4,0x1
    4964:	00e10733          	add	a4,sp,a4
    4968:	5aa72223          	sw	a0,1444(a4) # 15a4 <.LBB27_2+0x574>
    496c:	00001537          	lui	a0,0x1
    4970:	00a10533          	add	a0,sp,a0
    4974:	0a053503          	ld	a0,160(a0) # 10a0 <.LBB27_2+0x70>
    4978:	00001737          	lui	a4,0x1
    497c:	00e10733          	add	a4,sp,a4
    4980:	5aa72423          	sw	a0,1448(a4) # 15a8 <.LBB27_2+0x578>
    4984:	00001537          	lui	a0,0x1
    4988:	00a10533          	add	a0,sp,a0
    498c:	0d853503          	ld	a0,216(a0) # 10d8 <.LBB27_2+0xa8>
    4990:	00001737          	lui	a4,0x1
    4994:	00e10733          	add	a4,sp,a4
    4998:	5aa72623          	sw	a0,1452(a4) # 15ac <.LBB27_2+0x57c>
    499c:	00001537          	lui	a0,0x1
    49a0:	00a10533          	add	a0,sp,a0
    49a4:	11053503          	ld	a0,272(a0) # 1110 <.LBB27_2+0xe0>
    49a8:	00001737          	lui	a4,0x1
    49ac:	00e10733          	add	a4,sp,a4
    49b0:	5aa72823          	sw	a0,1456(a4) # 15b0 <.LBB27_2+0x580>
    49b4:	00001537          	lui	a0,0x1
    49b8:	00a10533          	add	a0,sp,a0
    49bc:	14853503          	ld	a0,328(a0) # 1148 <.LBB27_2+0x118>
    49c0:	00001737          	lui	a4,0x1
    49c4:	00e10733          	add	a4,sp,a4
    49c8:	5aa72a23          	sw	a0,1460(a4) # 15b4 <.LBB27_2+0x584>
    49cc:	00001537          	lui	a0,0x1
    49d0:	00a10533          	add	a0,sp,a0
    49d4:	18053503          	ld	a0,384(a0) # 1180 <.LBB27_2+0x150>
    49d8:	00001737          	lui	a4,0x1
    49dc:	00e10733          	add	a4,sp,a4
    49e0:	5aa72c23          	sw	a0,1464(a4) # 15b8 <.LBB27_2+0x588>
    49e4:	00001537          	lui	a0,0x1
    49e8:	00a10533          	add	a0,sp,a0
    49ec:	1b853503          	ld	a0,440(a0) # 11b8 <.LBB27_2+0x188>
    49f0:	00001737          	lui	a4,0x1
    49f4:	00e10733          	add	a4,sp,a4
    49f8:	5aa72e23          	sw	a0,1468(a4) # 15bc <.LBB27_2+0x58c>
    49fc:	00001537          	lui	a0,0x1
    4a00:	00a10533          	add	a0,sp,a0
    4a04:	1f053503          	ld	a0,496(a0) # 11f0 <.LBB27_2+0x1c0>
    4a08:	00001737          	lui	a4,0x1
    4a0c:	00e10733          	add	a4,sp,a4
    4a10:	5ca72023          	sw	a0,1472(a4) # 15c0 <.LBB27_2+0x590>
    4a14:	00001537          	lui	a0,0x1
    4a18:	00a10533          	add	a0,sp,a0
    4a1c:	22853503          	ld	a0,552(a0) # 1228 <.LBB27_2+0x1f8>
    4a20:	00001737          	lui	a4,0x1
    4a24:	00e10733          	add	a4,sp,a4
    4a28:	5ca72223          	sw	a0,1476(a4) # 15c4 <.LBB27_2+0x594>
    4a2c:	00001537          	lui	a0,0x1
    4a30:	00a10533          	add	a0,sp,a0
    4a34:	26053503          	ld	a0,608(a0) # 1260 <.LBB27_2+0x230>
    4a38:	00001737          	lui	a4,0x1
    4a3c:	00e10733          	add	a4,sp,a4
    4a40:	5ca72423          	sw	a0,1480(a4) # 15c8 <.LBB27_2+0x598>
    4a44:	00001537          	lui	a0,0x1
    4a48:	00a10533          	add	a0,sp,a0
    4a4c:	29853503          	ld	a0,664(a0) # 1298 <.LBB27_2+0x268>
    4a50:	00001737          	lui	a4,0x1
    4a54:	00e10733          	add	a4,sp,a4
    4a58:	5ca72623          	sw	a0,1484(a4) # 15cc <.LBB27_2+0x59c>
    4a5c:	00001537          	lui	a0,0x1
    4a60:	00a10533          	add	a0,sp,a0
    4a64:	2d053503          	ld	a0,720(a0) # 12d0 <.LBB27_2+0x2a0>
    4a68:	00001737          	lui	a4,0x1
    4a6c:	00e10733          	add	a4,sp,a4
    4a70:	5ca72823          	sw	a0,1488(a4) # 15d0 <.LBB27_2+0x5a0>
    4a74:	00001537          	lui	a0,0x1
    4a78:	00a10533          	add	a0,sp,a0
    4a7c:	30853503          	ld	a0,776(a0) # 1308 <.LBB27_2+0x2d8>
    4a80:	00001737          	lui	a4,0x1
    4a84:	00e10733          	add	a4,sp,a4
    4a88:	5ca72a23          	sw	a0,1492(a4) # 15d4 <.LBB27_2+0x5a4>
    4a8c:	00001537          	lui	a0,0x1
    4a90:	00a10533          	add	a0,sp,a0
    4a94:	34053503          	ld	a0,832(a0) # 1340 <.LBB27_2+0x310>
    4a98:	00001737          	lui	a4,0x1
    4a9c:	00e10733          	add	a4,sp,a4
    4aa0:	5ca72c23          	sw	a0,1496(a4) # 15d8 <.LBB27_2+0x5a8>
    4aa4:	00001537          	lui	a0,0x1
    4aa8:	00a10533          	add	a0,sp,a0
    4aac:	37853503          	ld	a0,888(a0) # 1378 <.LBB27_2+0x348>
    4ab0:	00001737          	lui	a4,0x1
    4ab4:	00e10733          	add	a4,sp,a4
    4ab8:	5ca72e23          	sw	a0,1500(a4) # 15dc <.LBB27_2+0x5ac>
    4abc:	00001537          	lui	a0,0x1
    4ac0:	5e05051b          	addiw	a0,a0,1504 # 15e0 <.LBB27_2+0x5b0>
    4ac4:	00a10533          	add	a0,sp,a0
    4ac8:	00001737          	lui	a4,0x1
    4acc:	00e10733          	add	a4,sp,a4
    4ad0:	e7873703          	ld	a4,-392(a4) # e78 <.LBB27_1+0xca0>
    4ad4:	00e52023          	sw	a4,0(a0)
    4ad8:	00001537          	lui	a0,0x1
    4adc:	00a10533          	add	a0,sp,a0
    4ae0:	eb053503          	ld	a0,-336(a0) # eb0 <.LBB27_1+0xcd8>
    4ae4:	00001737          	lui	a4,0x1
    4ae8:	00e10733          	add	a4,sp,a4
    4aec:	5ea72223          	sw	a0,1508(a4) # 15e4 <.LBB27_2+0x5b4>
    4af0:	00001537          	lui	a0,0x1
    4af4:	00a10533          	add	a0,sp,a0
    4af8:	ee853503          	ld	a0,-280(a0) # ee8 <.LBB27_1+0xd10>
    4afc:	00001737          	lui	a4,0x1
    4b00:	00e10733          	add	a4,sp,a4
    4b04:	5ea72423          	sw	a0,1512(a4) # 15e8 <.LBB27_2+0x5b8>
    4b08:	00001537          	lui	a0,0x1
    4b0c:	00a10533          	add	a0,sp,a0
    4b10:	f2053503          	ld	a0,-224(a0) # f20 <.LBB27_1+0xd48>
    4b14:	00001737          	lui	a4,0x1
    4b18:	00e10733          	add	a4,sp,a4
    4b1c:	5ea72623          	sw	a0,1516(a4) # 15ec <.LBB27_2+0x5bc>
    4b20:	00001537          	lui	a0,0x1
    4b24:	00a10533          	add	a0,sp,a0
    4b28:	f5853503          	ld	a0,-168(a0) # f58 <.LBB27_1+0xd80>
    4b2c:	00001737          	lui	a4,0x1
    4b30:	00e10733          	add	a4,sp,a4
    4b34:	5ea72823          	sw	a0,1520(a4) # 15f0 <.LBB27_2+0x5c0>
    4b38:	00001537          	lui	a0,0x1
    4b3c:	00a10533          	add	a0,sp,a0
    4b40:	f9053503          	ld	a0,-112(a0) # f90 <.LBB27_1+0xdb8>
    4b44:	00001737          	lui	a4,0x1
    4b48:	00e10733          	add	a4,sp,a4
    4b4c:	5ea72a23          	sw	a0,1524(a4) # 15f4 <.LBB27_2+0x5c4>
    4b50:	00001537          	lui	a0,0x1
    4b54:	00a10533          	add	a0,sp,a0
    4b58:	fc853503          	ld	a0,-56(a0) # fc8 <.LBB27_1+0xdf0>
    4b5c:	00001737          	lui	a4,0x1
    4b60:	00e10733          	add	a4,sp,a4
    4b64:	5ea72c23          	sw	a0,1528(a4) # 15f8 <.LBB27_2+0x5c8>
    4b68:	00001537          	lui	a0,0x1
    4b6c:	00a10533          	add	a0,sp,a0
    4b70:	00053503          	ld	a0,0(a0) # 1000 <.LBB27_1+0xe28>
    4b74:	00001737          	lui	a4,0x1
    4b78:	00e10733          	add	a4,sp,a4
    4b7c:	5ea72e23          	sw	a0,1532(a4) # 15fc <.LBB27_2+0x5cc>
    4b80:	00001537          	lui	a0,0x1
    4b84:	00a10533          	add	a0,sp,a0
    4b88:	03853503          	ld	a0,56(a0) # 1038 <.LBB27_2+0x8>
    4b8c:	00001737          	lui	a4,0x1
    4b90:	00e10733          	add	a4,sp,a4
    4b94:	60a72023          	sw	a0,1536(a4) # 1600 <.LBB27_2+0x5d0>
    4b98:	00001537          	lui	a0,0x1
    4b9c:	00a10533          	add	a0,sp,a0
    4ba0:	07053503          	ld	a0,112(a0) # 1070 <.LBB27_2+0x40>
    4ba4:	00001737          	lui	a4,0x1
    4ba8:	00e10733          	add	a4,sp,a4
    4bac:	60a72223          	sw	a0,1540(a4) # 1604 <.LBB27_2+0x5d4>
    4bb0:	00001537          	lui	a0,0x1
    4bb4:	00a10533          	add	a0,sp,a0
    4bb8:	0a853503          	ld	a0,168(a0) # 10a8 <.LBB27_2+0x78>
    4bbc:	00001737          	lui	a4,0x1
    4bc0:	00e10733          	add	a4,sp,a4
    4bc4:	60a72423          	sw	a0,1544(a4) # 1608 <.LBB27_2+0x5d8>
    4bc8:	00001537          	lui	a0,0x1
    4bcc:	00a10533          	add	a0,sp,a0
    4bd0:	0e053503          	ld	a0,224(a0) # 10e0 <.LBB27_2+0xb0>
    4bd4:	00001737          	lui	a4,0x1
    4bd8:	00e10733          	add	a4,sp,a4
    4bdc:	60a72623          	sw	a0,1548(a4) # 160c <.LBB27_2+0x5dc>
    4be0:	00001537          	lui	a0,0x1
    4be4:	00a10533          	add	a0,sp,a0
    4be8:	11853503          	ld	a0,280(a0) # 1118 <.LBB27_2+0xe8>
    4bec:	00001737          	lui	a4,0x1
    4bf0:	00e10733          	add	a4,sp,a4
    4bf4:	60a72823          	sw	a0,1552(a4) # 1610 <.LBB27_2+0x5e0>
    4bf8:	00001537          	lui	a0,0x1
    4bfc:	00a10533          	add	a0,sp,a0
    4c00:	15053503          	ld	a0,336(a0) # 1150 <.LBB27_2+0x120>
    4c04:	00001737          	lui	a4,0x1
    4c08:	00e10733          	add	a4,sp,a4
    4c0c:	60a72a23          	sw	a0,1556(a4) # 1614 <.LBB27_2+0x5e4>
    4c10:	00001537          	lui	a0,0x1
    4c14:	00a10533          	add	a0,sp,a0
    4c18:	18853503          	ld	a0,392(a0) # 1188 <.LBB27_2+0x158>
    4c1c:	00001737          	lui	a4,0x1
    4c20:	00e10733          	add	a4,sp,a4
    4c24:	60a72c23          	sw	a0,1560(a4) # 1618 <.LBB27_2+0x5e8>
    4c28:	00001537          	lui	a0,0x1
    4c2c:	00a10533          	add	a0,sp,a0
    4c30:	1c053503          	ld	a0,448(a0) # 11c0 <.LBB27_2+0x190>
    4c34:	00001737          	lui	a4,0x1
    4c38:	00e10733          	add	a4,sp,a4
    4c3c:	60a72e23          	sw	a0,1564(a4) # 161c <.LBB27_2+0x5ec>
    4c40:	00001537          	lui	a0,0x1
    4c44:	00a10533          	add	a0,sp,a0
    4c48:	1f853503          	ld	a0,504(a0) # 11f8 <.LBB27_2+0x1c8>
    4c4c:	00001737          	lui	a4,0x1
    4c50:	00e10733          	add	a4,sp,a4
    4c54:	62a72023          	sw	a0,1568(a4) # 1620 <.LBB27_2+0x5f0>
    4c58:	00001537          	lui	a0,0x1
    4c5c:	00a10533          	add	a0,sp,a0
    4c60:	23053503          	ld	a0,560(a0) # 1230 <.LBB27_2+0x200>
    4c64:	00001737          	lui	a4,0x1
    4c68:	00e10733          	add	a4,sp,a4
    4c6c:	62a72223          	sw	a0,1572(a4) # 1624 <.LBB27_2+0x5f4>
    4c70:	00001537          	lui	a0,0x1
    4c74:	00a10533          	add	a0,sp,a0
    4c78:	26853503          	ld	a0,616(a0) # 1268 <.LBB27_2+0x238>
    4c7c:	00001737          	lui	a4,0x1
    4c80:	00e10733          	add	a4,sp,a4
    4c84:	62a72423          	sw	a0,1576(a4) # 1628 <.LBB27_2+0x5f8>
    4c88:	00001537          	lui	a0,0x1
    4c8c:	00a10533          	add	a0,sp,a0
    4c90:	2a053503          	ld	a0,672(a0) # 12a0 <.LBB27_2+0x270>
    4c94:	00001737          	lui	a4,0x1
    4c98:	00e10733          	add	a4,sp,a4
    4c9c:	62a72623          	sw	a0,1580(a4) # 162c <.LBB27_2+0x5fc>
    4ca0:	00001537          	lui	a0,0x1
    4ca4:	00a10533          	add	a0,sp,a0
    4ca8:	2d853503          	ld	a0,728(a0) # 12d8 <.LBB27_2+0x2a8>
    4cac:	00001737          	lui	a4,0x1
    4cb0:	00e10733          	add	a4,sp,a4
    4cb4:	62a72823          	sw	a0,1584(a4) # 1630 <.LBB27_2+0x600>
    4cb8:	00001537          	lui	a0,0x1
    4cbc:	00a10533          	add	a0,sp,a0
    4cc0:	31053503          	ld	a0,784(a0) # 1310 <.LBB27_2+0x2e0>
    4cc4:	00001737          	lui	a4,0x1
    4cc8:	00e10733          	add	a4,sp,a4
    4ccc:	62a72a23          	sw	a0,1588(a4) # 1634 <.LBB27_2+0x604>
    4cd0:	00001537          	lui	a0,0x1
    4cd4:	00a10533          	add	a0,sp,a0
    4cd8:	34853503          	ld	a0,840(a0) # 1348 <.LBB27_2+0x318>
    4cdc:	00001737          	lui	a4,0x1
    4ce0:	00e10733          	add	a4,sp,a4
    4ce4:	62a72c23          	sw	a0,1592(a4) # 1638 <.LBB27_2+0x608>
    4ce8:	00001537          	lui	a0,0x1
    4cec:	00a10533          	add	a0,sp,a0
    4cf0:	38053503          	ld	a0,896(a0) # 1380 <.LBB27_2+0x350>
    4cf4:	00001737          	lui	a4,0x1
    4cf8:	00e10733          	add	a4,sp,a4
    4cfc:	62a72e23          	sw	a0,1596(a4) # 163c <.LBB27_2+0x60c>
    4d00:	00001537          	lui	a0,0x1
    4d04:	6405051b          	addiw	a0,a0,1600 # 1640 <.LBB27_2+0x610>
    4d08:	00a10533          	add	a0,sp,a0
    4d0c:	00001737          	lui	a4,0x1
    4d10:	00e10733          	add	a4,sp,a4
    4d14:	e8073703          	ld	a4,-384(a4) # e80 <.LBB27_1+0xca8>
    4d18:	00e52023          	sw	a4,0(a0)
    4d1c:	00001537          	lui	a0,0x1
    4d20:	00a10533          	add	a0,sp,a0
    4d24:	eb853503          	ld	a0,-328(a0) # eb8 <.LBB27_1+0xce0>
    4d28:	00001737          	lui	a4,0x1
    4d2c:	00e10733          	add	a4,sp,a4
    4d30:	64a72223          	sw	a0,1604(a4) # 1644 <.LBB27_2+0x614>
    4d34:	00001537          	lui	a0,0x1
    4d38:	00a10533          	add	a0,sp,a0
    4d3c:	ef053503          	ld	a0,-272(a0) # ef0 <.LBB27_1+0xd18>
    4d40:	00001737          	lui	a4,0x1
    4d44:	00e10733          	add	a4,sp,a4
    4d48:	64a72423          	sw	a0,1608(a4) # 1648 <.LBB27_2+0x618>
    4d4c:	00001537          	lui	a0,0x1
    4d50:	00a10533          	add	a0,sp,a0
    4d54:	f2853503          	ld	a0,-216(a0) # f28 <.LBB27_1+0xd50>
    4d58:	00001737          	lui	a4,0x1
    4d5c:	00e10733          	add	a4,sp,a4
    4d60:	64a72623          	sw	a0,1612(a4) # 164c <.LBB27_2+0x61c>
    4d64:	00001537          	lui	a0,0x1
    4d68:	00a10533          	add	a0,sp,a0
    4d6c:	f6053503          	ld	a0,-160(a0) # f60 <.LBB27_1+0xd88>
    4d70:	00001737          	lui	a4,0x1
    4d74:	00e10733          	add	a4,sp,a4
    4d78:	64a72823          	sw	a0,1616(a4) # 1650 <.LBB27_2+0x620>
    4d7c:	00001537          	lui	a0,0x1
    4d80:	00a10533          	add	a0,sp,a0
    4d84:	f9853503          	ld	a0,-104(a0) # f98 <.LBB27_1+0xdc0>
    4d88:	00001737          	lui	a4,0x1
    4d8c:	00e10733          	add	a4,sp,a4
    4d90:	64a72a23          	sw	a0,1620(a4) # 1654 <.LBB27_2+0x624>
    4d94:	00001537          	lui	a0,0x1
    4d98:	00a10533          	add	a0,sp,a0
    4d9c:	fd053503          	ld	a0,-48(a0) # fd0 <.LBB27_1+0xdf8>
    4da0:	00001737          	lui	a4,0x1
    4da4:	00e10733          	add	a4,sp,a4
    4da8:	64a72c23          	sw	a0,1624(a4) # 1658 <.LBB27_2+0x628>
    4dac:	00001537          	lui	a0,0x1
    4db0:	00a10533          	add	a0,sp,a0
    4db4:	00853503          	ld	a0,8(a0) # 1008 <.LBB27_1+0xe30>
    4db8:	00001737          	lui	a4,0x1
    4dbc:	00e10733          	add	a4,sp,a4
    4dc0:	64a72e23          	sw	a0,1628(a4) # 165c <.LBB27_2+0x62c>
    4dc4:	00001537          	lui	a0,0x1
    4dc8:	00a10533          	add	a0,sp,a0
    4dcc:	04053503          	ld	a0,64(a0) # 1040 <.LBB27_2+0x10>
    4dd0:	00001737          	lui	a4,0x1
    4dd4:	00e10733          	add	a4,sp,a4
    4dd8:	66a72023          	sw	a0,1632(a4) # 1660 <.LBB27_2+0x630>
    4ddc:	00001537          	lui	a0,0x1
    4de0:	00a10533          	add	a0,sp,a0
    4de4:	07853503          	ld	a0,120(a0) # 1078 <.LBB27_2+0x48>
    4de8:	00001737          	lui	a4,0x1
    4dec:	00e10733          	add	a4,sp,a4
    4df0:	66a72223          	sw	a0,1636(a4) # 1664 <.LBB27_2+0x634>
    4df4:	00001537          	lui	a0,0x1
    4df8:	00a10533          	add	a0,sp,a0
    4dfc:	0b053503          	ld	a0,176(a0) # 10b0 <.LBB27_2+0x80>
    4e00:	00001737          	lui	a4,0x1
    4e04:	00e10733          	add	a4,sp,a4
    4e08:	66a72423          	sw	a0,1640(a4) # 1668 <.LBB27_2+0x638>
    4e0c:	00001537          	lui	a0,0x1
    4e10:	00a10533          	add	a0,sp,a0
    4e14:	0e853503          	ld	a0,232(a0) # 10e8 <.LBB27_2+0xb8>
    4e18:	00001737          	lui	a4,0x1
    4e1c:	00e10733          	add	a4,sp,a4
    4e20:	66a72623          	sw	a0,1644(a4) # 166c <.LBB27_2+0x63c>
    4e24:	00001537          	lui	a0,0x1
    4e28:	00a10533          	add	a0,sp,a0
    4e2c:	12053503          	ld	a0,288(a0) # 1120 <.LBB27_2+0xf0>
    4e30:	00001737          	lui	a4,0x1
    4e34:	00e10733          	add	a4,sp,a4
    4e38:	66a72823          	sw	a0,1648(a4) # 1670 <.LBB27_2+0x640>
    4e3c:	00001537          	lui	a0,0x1
    4e40:	00a10533          	add	a0,sp,a0
    4e44:	15853503          	ld	a0,344(a0) # 1158 <.LBB27_2+0x128>
    4e48:	00001737          	lui	a4,0x1
    4e4c:	00e10733          	add	a4,sp,a4
    4e50:	66a72a23          	sw	a0,1652(a4) # 1674 <.LBB27_2+0x644>
    4e54:	00001537          	lui	a0,0x1
    4e58:	00a10533          	add	a0,sp,a0
    4e5c:	19053503          	ld	a0,400(a0) # 1190 <.LBB27_2+0x160>
    4e60:	00001737          	lui	a4,0x1
    4e64:	00e10733          	add	a4,sp,a4
    4e68:	66a72c23          	sw	a0,1656(a4) # 1678 <.LBB27_2+0x648>
    4e6c:	00001537          	lui	a0,0x1
    4e70:	00a10533          	add	a0,sp,a0
    4e74:	1c853503          	ld	a0,456(a0) # 11c8 <.LBB27_2+0x198>
    4e78:	00001737          	lui	a4,0x1
    4e7c:	00e10733          	add	a4,sp,a4
    4e80:	66a72e23          	sw	a0,1660(a4) # 167c <.LBB27_2+0x64c>
    4e84:	00001537          	lui	a0,0x1
    4e88:	00a10533          	add	a0,sp,a0
    4e8c:	20053503          	ld	a0,512(a0) # 1200 <.LBB27_2+0x1d0>
    4e90:	00001737          	lui	a4,0x1
    4e94:	00e10733          	add	a4,sp,a4
    4e98:	68a72023          	sw	a0,1664(a4) # 1680 <.LBB27_2+0x650>
    4e9c:	00001537          	lui	a0,0x1
    4ea0:	00a10533          	add	a0,sp,a0
    4ea4:	23853503          	ld	a0,568(a0) # 1238 <.LBB27_2+0x208>
    4ea8:	00001737          	lui	a4,0x1
    4eac:	00e10733          	add	a4,sp,a4
    4eb0:	68a72223          	sw	a0,1668(a4) # 1684 <.LBB27_2+0x654>
    4eb4:	00001537          	lui	a0,0x1
    4eb8:	00a10533          	add	a0,sp,a0
    4ebc:	27053503          	ld	a0,624(a0) # 1270 <.LBB27_2+0x240>
    4ec0:	00001737          	lui	a4,0x1
    4ec4:	00e10733          	add	a4,sp,a4
    4ec8:	68a72423          	sw	a0,1672(a4) # 1688 <.LBB27_2+0x658>
    4ecc:	00001537          	lui	a0,0x1
    4ed0:	00a10533          	add	a0,sp,a0
    4ed4:	2a853503          	ld	a0,680(a0) # 12a8 <.LBB27_2+0x278>
    4ed8:	00001737          	lui	a4,0x1
    4edc:	00e10733          	add	a4,sp,a4
    4ee0:	68a72623          	sw	a0,1676(a4) # 168c <.LBB27_2+0x65c>
    4ee4:	00001537          	lui	a0,0x1
    4ee8:	00a10533          	add	a0,sp,a0
    4eec:	2e053503          	ld	a0,736(a0) # 12e0 <.LBB27_2+0x2b0>
    4ef0:	00001737          	lui	a4,0x1
    4ef4:	00e10733          	add	a4,sp,a4
    4ef8:	68a72823          	sw	a0,1680(a4) # 1690 <.LBB27_2+0x660>
    4efc:	00001537          	lui	a0,0x1
    4f00:	00a10533          	add	a0,sp,a0
    4f04:	31853503          	ld	a0,792(a0) # 1318 <.LBB27_2+0x2e8>
    4f08:	00001737          	lui	a4,0x1
    4f0c:	00e10733          	add	a4,sp,a4
    4f10:	68a72a23          	sw	a0,1684(a4) # 1694 <.LBB27_2+0x664>
    4f14:	00001537          	lui	a0,0x1
    4f18:	00a10533          	add	a0,sp,a0
    4f1c:	35053503          	ld	a0,848(a0) # 1350 <.LBB27_2+0x320>
    4f20:	00001737          	lui	a4,0x1
    4f24:	00e10733          	add	a4,sp,a4
    4f28:	68a72c23          	sw	a0,1688(a4) # 1698 <.LBB27_2+0x668>
    4f2c:	00001537          	lui	a0,0x1
    4f30:	00a10533          	add	a0,sp,a0
    4f34:	38853503          	ld	a0,904(a0) # 1388 <.LBB27_2+0x358>
    4f38:	00001737          	lui	a4,0x1
    4f3c:	00e10733          	add	a4,sp,a4
    4f40:	68a72e23          	sw	a0,1692(a4) # 169c <.LBB27_2+0x66c>
    4f44:	00001537          	lui	a0,0x1
    4f48:	6a05051b          	addiw	a0,a0,1696 # 16a0 <.LBB27_2+0x670>
    4f4c:	00a10533          	add	a0,sp,a0
    4f50:	00001737          	lui	a4,0x1
    4f54:	00e10733          	add	a4,sp,a4
    4f58:	e8873703          	ld	a4,-376(a4) # e88 <.LBB27_1+0xcb0>
    4f5c:	00e52023          	sw	a4,0(a0)
    4f60:	00001537          	lui	a0,0x1
    4f64:	00a10533          	add	a0,sp,a0
    4f68:	ec053503          	ld	a0,-320(a0) # ec0 <.LBB27_1+0xce8>
    4f6c:	00001737          	lui	a4,0x1
    4f70:	00e10733          	add	a4,sp,a4
    4f74:	6aa72223          	sw	a0,1700(a4) # 16a4 <.LBB27_2+0x674>
    4f78:	00001537          	lui	a0,0x1
    4f7c:	00a10533          	add	a0,sp,a0
    4f80:	ef853503          	ld	a0,-264(a0) # ef8 <.LBB27_1+0xd20>
    4f84:	00001737          	lui	a4,0x1
    4f88:	00e10733          	add	a4,sp,a4
    4f8c:	6aa72423          	sw	a0,1704(a4) # 16a8 <.LBB27_2+0x678>
    4f90:	00001537          	lui	a0,0x1
    4f94:	00a10533          	add	a0,sp,a0
    4f98:	f3053503          	ld	a0,-208(a0) # f30 <.LBB27_1+0xd58>
    4f9c:	00001737          	lui	a4,0x1
    4fa0:	00e10733          	add	a4,sp,a4
    4fa4:	6aa72623          	sw	a0,1708(a4) # 16ac <.LBB27_2+0x67c>
    4fa8:	00001537          	lui	a0,0x1
    4fac:	00a10533          	add	a0,sp,a0
    4fb0:	f6853503          	ld	a0,-152(a0) # f68 <.LBB27_1+0xd90>
    4fb4:	00001737          	lui	a4,0x1
    4fb8:	00e10733          	add	a4,sp,a4
    4fbc:	6aa72823          	sw	a0,1712(a4) # 16b0 <.LBB27_2+0x680>
    4fc0:	00001537          	lui	a0,0x1
    4fc4:	00a10533          	add	a0,sp,a0
    4fc8:	fa053503          	ld	a0,-96(a0) # fa0 <.LBB27_1+0xdc8>
    4fcc:	00001737          	lui	a4,0x1
    4fd0:	00e10733          	add	a4,sp,a4
    4fd4:	6aa72a23          	sw	a0,1716(a4) # 16b4 <.LBB27_2+0x684>
    4fd8:	00001537          	lui	a0,0x1
    4fdc:	00a10533          	add	a0,sp,a0
    4fe0:	fd853503          	ld	a0,-40(a0) # fd8 <.LBB27_1+0xe00>
    4fe4:	00001737          	lui	a4,0x1
    4fe8:	00e10733          	add	a4,sp,a4
    4fec:	6aa72c23          	sw	a0,1720(a4) # 16b8 <.LBB27_2+0x688>
    4ff0:	00001537          	lui	a0,0x1
    4ff4:	00a10533          	add	a0,sp,a0
    4ff8:	01053503          	ld	a0,16(a0) # 1010 <.LBB27_1+0xe38>
    4ffc:	00001737          	lui	a4,0x1
    5000:	00e10733          	add	a4,sp,a4
    5004:	6aa72e23          	sw	a0,1724(a4) # 16bc <.LBB27_2+0x68c>
    5008:	00001537          	lui	a0,0x1
    500c:	00a10533          	add	a0,sp,a0
    5010:	04853503          	ld	a0,72(a0) # 1048 <.LBB27_2+0x18>
    5014:	00001737          	lui	a4,0x1
    5018:	00e10733          	add	a4,sp,a4
    501c:	6ca72023          	sw	a0,1728(a4) # 16c0 <.LBB27_2+0x690>
    5020:	00001537          	lui	a0,0x1
    5024:	00a10533          	add	a0,sp,a0
    5028:	08053503          	ld	a0,128(a0) # 1080 <.LBB27_2+0x50>
    502c:	00001737          	lui	a4,0x1
    5030:	00e10733          	add	a4,sp,a4
    5034:	6ca72223          	sw	a0,1732(a4) # 16c4 <.LBB27_2+0x694>
    5038:	00001537          	lui	a0,0x1
    503c:	00a10533          	add	a0,sp,a0
    5040:	0b853503          	ld	a0,184(a0) # 10b8 <.LBB27_2+0x88>
    5044:	00001737          	lui	a4,0x1
    5048:	00e10733          	add	a4,sp,a4
    504c:	6ca72423          	sw	a0,1736(a4) # 16c8 <.LBB27_2+0x698>
    5050:	00001537          	lui	a0,0x1
    5054:	00a10533          	add	a0,sp,a0
    5058:	0f053503          	ld	a0,240(a0) # 10f0 <.LBB27_2+0xc0>
    505c:	00001737          	lui	a4,0x1
    5060:	00e10733          	add	a4,sp,a4
    5064:	6ca72623          	sw	a0,1740(a4) # 16cc <.LBB27_2+0x69c>
    5068:	00001537          	lui	a0,0x1
    506c:	00a10533          	add	a0,sp,a0
    5070:	12853503          	ld	a0,296(a0) # 1128 <.LBB27_2+0xf8>
    5074:	00001737          	lui	a4,0x1
    5078:	00e10733          	add	a4,sp,a4
    507c:	6ca72823          	sw	a0,1744(a4) # 16d0 <.LBB27_2+0x6a0>
    5080:	00001537          	lui	a0,0x1
    5084:	00a10533          	add	a0,sp,a0
    5088:	16053503          	ld	a0,352(a0) # 1160 <.LBB27_2+0x130>
    508c:	00001737          	lui	a4,0x1
    5090:	00e10733          	add	a4,sp,a4
    5094:	6ca72a23          	sw	a0,1748(a4) # 16d4 <.LBB27_2+0x6a4>
    5098:	00001537          	lui	a0,0x1
    509c:	00a10533          	add	a0,sp,a0
    50a0:	19853503          	ld	a0,408(a0) # 1198 <.LBB27_2+0x168>
    50a4:	00001737          	lui	a4,0x1
    50a8:	00e10733          	add	a4,sp,a4
    50ac:	6ca72c23          	sw	a0,1752(a4) # 16d8 <.LBB27_2+0x6a8>
    50b0:	00001537          	lui	a0,0x1
    50b4:	00a10533          	add	a0,sp,a0
    50b8:	1d053503          	ld	a0,464(a0) # 11d0 <.LBB27_2+0x1a0>
    50bc:	00001737          	lui	a4,0x1
    50c0:	00e10733          	add	a4,sp,a4
    50c4:	6ca72e23          	sw	a0,1756(a4) # 16dc <.LBB27_2+0x6ac>
    50c8:	00001537          	lui	a0,0x1
    50cc:	00a10533          	add	a0,sp,a0
    50d0:	20853503          	ld	a0,520(a0) # 1208 <.LBB27_2+0x1d8>
