
code.o:     file format elf64-littleriscv


Disassembly of section .text.main_dispatch_19_matmul_3136x24x96_i8xi8xi32:

0000000000000000 <main_dispatch_19_matmul_3136x24x96_i8xi8xi32>:
       0:	f1501173          	csrrw	sp,0xf15,zero

0000000000000004 <.Lfunc_begin19>:
       4:	81010113          	addi	sp,sp,-2032
       8:	7e113423          	sd	ra,2024(sp)
       c:	7e813023          	sd	s0,2016(sp)
      10:	7c913c23          	sd	s1,2008(sp)
      14:	7d213823          	sd	s2,2000(sp)
      18:	7d313423          	sd	s3,1992(sp)
      1c:	7d413023          	sd	s4,1984(sp)
      20:	7b513c23          	sd	s5,1976(sp)
      24:	7b613823          	sd	s6,1968(sp)
      28:	7b713423          	sd	s7,1960(sp)
      2c:	7b813023          	sd	s8,1952(sp)
      30:	79913c23          	sd	s9,1944(sp)
      34:	79a13823          	sd	s10,1936(sp)
      38:	79b13423          	sd	s11,1928(sp)
      3c:	7f010413          	addi	s0,sp,2032
      40:	80010113          	addi	sp,sp,-2048
      44:	eb010113          	addi	sp,sp,-336
      48:	fc017113          	andi	sp,sp,-64
      4c:	0205b503          	ld	a0,32(a1)
      50:	00000713          	li	a4,0
      54:	6c013423          	sd	zero,1736(sp)
      58:	00853583          	ld	a1,8(a0)
      5c:	00053783          	ld	a5,0(a0)
      60:	00022637          	lui	a2,0x22
      64:	d806069b          	addiw	a3,a2,-640 # 21d80 <.LBB60_4352+0x8>
      68:	00d586b3          	add	a3,a1,a3
      6c:	08d13023          	sd	a3,128(sp)
      70:	6806061b          	addiw	a2,a2,1664
      74:	01053503          	ld	a0,16(a0)
      78:	00c585b3          	add	a1,a1,a2
      7c:	06b13c23          	sd	a1,120(sp)
      80:	000035b7          	lui	a1,0x3
      84:	1005859b          	addiw	a1,a1,256 # 3100 <.LBB19_3+0xcb0>
      88:	00b50533          	add	a0,a0,a1
      8c:	06a13823          	sd	a0,112(sp)

0000000000000090 <.Lpcrel_hi4>:
      90:	00000517          	auipc	a0,0x0
      94:	00050513          	mv	a0,a0
      98:	05c52583          	lw	a1,92(a0) # ec <.Lpcrel_hi4+0x5c>
      9c:	06b13423          	sd	a1,104(sp)
      a0:	05852583          	lw	a1,88(a0)
      a4:	06b13023          	sd	a1,96(sp)
      a8:	05452583          	lw	a1,84(a0)
      ac:	04b13c23          	sd	a1,88(sp)
      b0:	05052583          	lw	a1,80(a0)
      b4:	04b13823          	sd	a1,80(sp)
      b8:	04c52583          	lw	a1,76(a0)
      bc:	04b13423          	sd	a1,72(sp)
      c0:	04852583          	lw	a1,72(a0)
      c4:	04b13023          	sd	a1,64(sp)
      c8:	04452583          	lw	a1,68(a0)
      cc:	6eb13823          	sd	a1,1776(sp)
      d0:	04052583          	lw	a1,64(a0)
      d4:	02b13c23          	sd	a1,56(sp)
      d8:	03c52583          	lw	a1,60(a0)
      dc:	02b13823          	sd	a1,48(sp)
      e0:	03852583          	lw	a1,56(a0)
      e4:	02b13423          	sd	a1,40(sp)
      e8:	03452583          	lw	a1,52(a0)
      ec:	02b13023          	sd	a1,32(sp)
      f0:	03052583          	lw	a1,48(a0)
      f4:	00b13c23          	sd	a1,24(sp)
      f8:	02c52583          	lw	a1,44(a0)
      fc:	6ab13823          	sd	a1,1712(sp)
     100:	02852583          	lw	a1,40(a0)
     104:	6ab13423          	sd	a1,1704(sp)
     108:	02452583          	lw	a1,36(a0)
     10c:	6ab13023          	sd	a1,1696(sp)
     110:	02052583          	lw	a1,32(a0)
     114:	68b13c23          	sd	a1,1688(sp)
     118:	01c52583          	lw	a1,28(a0)
     11c:	68b13823          	sd	a1,1680(sp)
     120:	01852583          	lw	a1,24(a0)
     124:	68b13423          	sd	a1,1672(sp)
     128:	01452583          	lw	a1,20(a0)
     12c:	68b13023          	sd	a1,1664(sp)
     130:	01052583          	lw	a1,16(a0)
     134:	6cb13023          	sd	a1,1728(sp)
     138:	00c52583          	lw	a1,12(a0)
     13c:	6eb13423          	sd	a1,1768(sp)
     140:	00852583          	lw	a1,8(a0)
     144:	6eb13023          	sd	a1,1760(sp)
     148:	00452583          	lw	a1,4(a0)
     14c:	6cb13c23          	sd	a1,1752(sp)
     150:	00052503          	lw	a0,0(a0)
     154:	6ca13823          	sd	a0,1744(sp)
     158:	7dfaf537          	lui	a0,0x7dfaf
     15c:	4d45051b          	addiw	a0,a0,1236 # 7dfaf4d4 <.Lfunc_end80+0x7df86b08>
     160:	00a13823          	sd	a0,16(sp)
     164:	00100513          	li	a0,1
     168:	02751513          	slli	a0,a0,0x27
     16c:	00a13423          	sd	a0,8(sp)
     170:	00126537          	lui	a0,0x126
     174:	6af13c23          	sd	a5,1720(sp)
     178:	00a787b3          	add	a5,a5,a0
     17c:	62d0006f          	j	fa8 <.LBB19_2>

0000000000000180 <.LBB19_1>:
     180:	00001537          	lui	a0,0x1
     184:	00a10533          	add	a0,sp,a0
     188:	8ad53c23          	sd	a3,-1864(a0) # 8b8 <.LBB19_1+0x738>
     18c:	ff780693          	addi	a3,a6,-9
     190:	6c813803          	ld	a6,1736(sp)
     194:	01800513          	li	a0,24
     198:	02a80533          	mul	a0,a6,a0
     19c:	07013903          	ld	s2,112(sp)
     1a0:	00a90533          	add	a0,s2,a0
     1a4:	00d50023          	sb	a3,0(a0)
     1a8:	000016b7          	lui	a3,0x1
     1ac:	00d106b3          	add	a3,sp,a3
     1b0:	cd86b683          	ld	a3,-808(a3) # cd8 <.LBB19_1+0xb58>
     1b4:	ff768693          	addi	a3,a3,-9
     1b8:	00d500a3          	sb	a3,1(a0)
     1bc:	000016b7          	lui	a3,0x1
     1c0:	00d106b3          	add	a3,sp,a3
     1c4:	ce86b683          	ld	a3,-792(a3) # ce8 <.LBB19_1+0xb68>
     1c8:	ff768693          	addi	a3,a3,-9
     1cc:	00d50123          	sb	a3,2(a0)
     1d0:	000016b7          	lui	a3,0x1
     1d4:	00d106b3          	add	a3,sp,a3
     1d8:	cf86b683          	ld	a3,-776(a3) # cf8 <.LBB19_1+0xb78>
     1dc:	ff768693          	addi	a3,a3,-9
     1e0:	00d501a3          	sb	a3,3(a0)
     1e4:	000016b7          	lui	a3,0x1
     1e8:	00d106b3          	add	a3,sp,a3
     1ec:	d086b683          	ld	a3,-760(a3) # d08 <.LBB19_1+0xb88>
     1f0:	ff768693          	addi	a3,a3,-9
     1f4:	00d50223          	sb	a3,4(a0)
     1f8:	000016b7          	lui	a3,0x1
     1fc:	00d106b3          	add	a3,sp,a3
     200:	d186b683          	ld	a3,-744(a3) # d18 <.LBB19_1+0xb98>
     204:	ff768693          	addi	a3,a3,-9
     208:	00d502a3          	sb	a3,5(a0)
     20c:	000016b7          	lui	a3,0x1
     210:	00d106b3          	add	a3,sp,a3
     214:	d286b683          	ld	a3,-728(a3) # d28 <.LBB19_1+0xba8>
     218:	ff768693          	addi	a3,a3,-9
     21c:	00d50323          	sb	a3,6(a0)
     220:	000016b7          	lui	a3,0x1
     224:	00d106b3          	add	a3,sp,a3
     228:	d386b683          	ld	a3,-712(a3) # d38 <.LBB19_1+0xbb8>
     22c:	ff768693          	addi	a3,a3,-9
     230:	00d503a3          	sb	a3,7(a0)
     234:	000016b7          	lui	a3,0x1
     238:	00d106b3          	add	a3,sp,a3
     23c:	d406b683          	ld	a3,-704(a3) # d40 <.LBB19_1+0xbc0>
     240:	ff768693          	addi	a3,a3,-9
     244:	00d50423          	sb	a3,8(a0)
     248:	000016b7          	lui	a3,0x1
     24c:	00d106b3          	add	a3,sp,a3
     250:	d486b683          	ld	a3,-696(a3) # d48 <.LBB19_1+0xbc8>
     254:	ff768693          	addi	a3,a3,-9
     258:	00d504a3          	sb	a3,9(a0)
     25c:	000016b7          	lui	a3,0x1
     260:	00d106b3          	add	a3,sp,a3
     264:	d506b683          	ld	a3,-688(a3) # d50 <.LBB19_1+0xbd0>
     268:	ff768693          	addi	a3,a3,-9
     26c:	00d50523          	sb	a3,10(a0)
     270:	000016b7          	lui	a3,0x1
     274:	00d106b3          	add	a3,sp,a3
     278:	d586b683          	ld	a3,-680(a3) # d58 <.LBB19_1+0xbd8>
     27c:	ff768693          	addi	a3,a3,-9
     280:	00d505a3          	sb	a3,11(a0)
     284:	000016b7          	lui	a3,0x1
     288:	00d106b3          	add	a3,sp,a3
     28c:	d606b683          	ld	a3,-672(a3) # d60 <.LBB19_1+0xbe0>
     290:	ff768693          	addi	a3,a3,-9
     294:	00d50623          	sb	a3,12(a0)
     298:	000016b7          	lui	a3,0x1
     29c:	00d106b3          	add	a3,sp,a3
     2a0:	d686b683          	ld	a3,-664(a3) # d68 <.LBB19_1+0xbe8>
     2a4:	ff768693          	addi	a3,a3,-9
     2a8:	00d506a3          	sb	a3,13(a0)
     2ac:	000016b7          	lui	a3,0x1
     2b0:	00d106b3          	add	a3,sp,a3
     2b4:	d706b683          	ld	a3,-656(a3) # d70 <.LBB19_1+0xbf0>
     2b8:	ff768693          	addi	a3,a3,-9
     2bc:	00d50723          	sb	a3,14(a0)
     2c0:	000016b7          	lui	a3,0x1
     2c4:	00d106b3          	add	a3,sp,a3
     2c8:	d786b683          	ld	a3,-648(a3) # d78 <.LBB19_1+0xbf8>
     2cc:	ff768693          	addi	a3,a3,-9
     2d0:	00d507a3          	sb	a3,15(a0)
     2d4:	000016b7          	lui	a3,0x1
     2d8:	00d106b3          	add	a3,sp,a3
     2dc:	d806b683          	ld	a3,-640(a3) # d80 <.LBB19_1+0xc00>
     2e0:	ff768693          	addi	a3,a3,-9
     2e4:	00d50823          	sb	a3,16(a0)
     2e8:	000016b7          	lui	a3,0x1
     2ec:	00d106b3          	add	a3,sp,a3
     2f0:	d886b683          	ld	a3,-632(a3) # d88 <.LBB19_1+0xc08>
     2f4:	ff768693          	addi	a3,a3,-9
     2f8:	00d508a3          	sb	a3,17(a0)
     2fc:	000016b7          	lui	a3,0x1
     300:	00d106b3          	add	a3,sp,a3
     304:	d906b683          	ld	a3,-624(a3) # d90 <.LBB19_1+0xc10>
     308:	ff768693          	addi	a3,a3,-9
     30c:	00d50923          	sb	a3,18(a0)
     310:	000016b7          	lui	a3,0x1
     314:	00d106b3          	add	a3,sp,a3
     318:	d986b683          	ld	a3,-616(a3) # d98 <.LBB19_1+0xc18>
     31c:	ff768693          	addi	a3,a3,-9
     320:	00d509a3          	sb	a3,19(a0)
     324:	000016b7          	lui	a3,0x1
     328:	00d106b3          	add	a3,sp,a3
     32c:	da06b683          	ld	a3,-608(a3) # da0 <.LBB19_1+0xc20>
     330:	ff768693          	addi	a3,a3,-9
     334:	00d50a23          	sb	a3,20(a0)
     338:	000016b7          	lui	a3,0x1
     33c:	00d106b3          	add	a3,sp,a3
     340:	da86b683          	ld	a3,-600(a3) # da8 <.LBB19_1+0xc28>
     344:	ff768693          	addi	a3,a3,-9
     348:	00d50aa3          	sb	a3,21(a0)
     34c:	000016b7          	lui	a3,0x1
     350:	00d106b3          	add	a3,sp,a3
     354:	db06b683          	ld	a3,-592(a3) # db0 <.LBB19_1+0xc30>
     358:	ff768693          	addi	a3,a3,-9
     35c:	00d50b23          	sb	a3,22(a0)
     360:	000016b7          	lui	a3,0x1
     364:	00d106b3          	add	a3,sp,a3
     368:	db86b683          	ld	a3,-584(a3) # db8 <.LBB19_1+0xc38>
     36c:	ff768693          	addi	a3,a3,-9
     370:	00d50ba3          	sb	a3,23(a0)
     374:	000016b7          	lui	a3,0x1
     378:	00d106b3          	add	a3,sp,a3
     37c:	c106b683          	ld	a3,-1008(a3) # c10 <.LBB19_1+0xa90>
     380:	ff768693          	addi	a3,a3,-9
     384:	00d50c23          	sb	a3,24(a0)
     388:	000016b7          	lui	a3,0x1
     38c:	00d106b3          	add	a3,sp,a3
     390:	c206b683          	ld	a3,-992(a3) # c20 <.LBB19_1+0xaa0>
     394:	ff768693          	addi	a3,a3,-9
     398:	00d50ca3          	sb	a3,25(a0)
     39c:	000016b7          	lui	a3,0x1
     3a0:	00d106b3          	add	a3,sp,a3
     3a4:	c306b683          	ld	a3,-976(a3) # c30 <.LBB19_1+0xab0>
     3a8:	ff768693          	addi	a3,a3,-9
     3ac:	00d50d23          	sb	a3,26(a0)
     3b0:	000016b7          	lui	a3,0x1
     3b4:	00d106b3          	add	a3,sp,a3
     3b8:	c406b683          	ld	a3,-960(a3) # c40 <.LBB19_1+0xac0>
     3bc:	ff768693          	addi	a3,a3,-9
     3c0:	00d50da3          	sb	a3,27(a0)
     3c4:	000016b7          	lui	a3,0x1
     3c8:	00d106b3          	add	a3,sp,a3
     3cc:	c506b683          	ld	a3,-944(a3) # c50 <.LBB19_1+0xad0>
     3d0:	ff768693          	addi	a3,a3,-9
     3d4:	00d50e23          	sb	a3,28(a0)
     3d8:	000016b7          	lui	a3,0x1
     3dc:	00d106b3          	add	a3,sp,a3
     3e0:	c606b683          	ld	a3,-928(a3) # c60 <.LBB19_1+0xae0>
     3e4:	ff768693          	addi	a3,a3,-9
     3e8:	00d50ea3          	sb	a3,29(a0)
     3ec:	000016b7          	lui	a3,0x1
     3f0:	00d106b3          	add	a3,sp,a3
     3f4:	c706b683          	ld	a3,-912(a3) # c70 <.LBB19_1+0xaf0>
     3f8:	ff768693          	addi	a3,a3,-9
     3fc:	00d50f23          	sb	a3,30(a0)
     400:	000016b7          	lui	a3,0x1
     404:	00d106b3          	add	a3,sp,a3
     408:	c806b683          	ld	a3,-896(a3) # c80 <.LBB19_1+0xb00>
     40c:	ff768693          	addi	a3,a3,-9
     410:	00d50fa3          	sb	a3,31(a0)
     414:	000016b7          	lui	a3,0x1
     418:	00d106b3          	add	a3,sp,a3
     41c:	c886b683          	ld	a3,-888(a3) # c88 <.LBB19_1+0xb08>
     420:	ff768693          	addi	a3,a3,-9
     424:	02d50023          	sb	a3,32(a0)
     428:	000016b7          	lui	a3,0x1
     42c:	00d106b3          	add	a3,sp,a3
     430:	c906b683          	ld	a3,-880(a3) # c90 <.LBB19_1+0xb10>
     434:	ff768693          	addi	a3,a3,-9
     438:	02d500a3          	sb	a3,33(a0)
     43c:	000016b7          	lui	a3,0x1
     440:	00d106b3          	add	a3,sp,a3
     444:	c986b683          	ld	a3,-872(a3) # c98 <.LBB19_1+0xb18>
     448:	ff768693          	addi	a3,a3,-9
     44c:	02d50123          	sb	a3,34(a0)
     450:	000016b7          	lui	a3,0x1
     454:	00d106b3          	add	a3,sp,a3
     458:	ca06b683          	ld	a3,-864(a3) # ca0 <.LBB19_1+0xb20>
     45c:	ff768693          	addi	a3,a3,-9
     460:	02d501a3          	sb	a3,35(a0)
     464:	000016b7          	lui	a3,0x1
     468:	00d106b3          	add	a3,sp,a3
     46c:	ca86b683          	ld	a3,-856(a3) # ca8 <.LBB19_1+0xb28>
     470:	ff768693          	addi	a3,a3,-9
     474:	02d50223          	sb	a3,36(a0)
     478:	000016b7          	lui	a3,0x1
     47c:	00d106b3          	add	a3,sp,a3
     480:	cb06b683          	ld	a3,-848(a3) # cb0 <.LBB19_1+0xb30>
     484:	ff768693          	addi	a3,a3,-9
     488:	02d502a3          	sb	a3,37(a0)
     48c:	000016b7          	lui	a3,0x1
     490:	00d106b3          	add	a3,sp,a3
     494:	cb86b683          	ld	a3,-840(a3) # cb8 <.LBB19_1+0xb38>
     498:	ff768693          	addi	a3,a3,-9
     49c:	02d50323          	sb	a3,38(a0)
     4a0:	000016b7          	lui	a3,0x1
     4a4:	00d106b3          	add	a3,sp,a3
     4a8:	cc06b683          	ld	a3,-832(a3) # cc0 <.LBB19_1+0xb40>
     4ac:	ff768693          	addi	a3,a3,-9
     4b0:	02d503a3          	sb	a3,39(a0)
     4b4:	000016b7          	lui	a3,0x1
     4b8:	00d106b3          	add	a3,sp,a3
     4bc:	cc86b683          	ld	a3,-824(a3) # cc8 <.LBB19_1+0xb48>
     4c0:	ff768693          	addi	a3,a3,-9
     4c4:	02d50423          	sb	a3,40(a0)
     4c8:	000016b7          	lui	a3,0x1
     4cc:	00d106b3          	add	a3,sp,a3
     4d0:	cd06b683          	ld	a3,-816(a3) # cd0 <.LBB19_1+0xb50>
     4d4:	ff768693          	addi	a3,a3,-9
     4d8:	02d504a3          	sb	a3,41(a0)
     4dc:	000016b7          	lui	a3,0x1
     4e0:	00d106b3          	add	a3,sp,a3
     4e4:	ce06b683          	ld	a3,-800(a3) # ce0 <.LBB19_1+0xb60>
     4e8:	ff768693          	addi	a3,a3,-9
     4ec:	02d50523          	sb	a3,42(a0)
     4f0:	000016b7          	lui	a3,0x1
     4f4:	00d106b3          	add	a3,sp,a3
     4f8:	cf06b683          	ld	a3,-784(a3) # cf0 <.LBB19_1+0xb70>
     4fc:	ff768693          	addi	a3,a3,-9
     500:	02d505a3          	sb	a3,43(a0)
     504:	000016b7          	lui	a3,0x1
     508:	00d106b3          	add	a3,sp,a3
     50c:	d006b683          	ld	a3,-768(a3) # d00 <.LBB19_1+0xb80>
     510:	ff768693          	addi	a3,a3,-9
     514:	02d50623          	sb	a3,44(a0)
     518:	000016b7          	lui	a3,0x1
     51c:	00d106b3          	add	a3,sp,a3
     520:	d106b683          	ld	a3,-752(a3) # d10 <.LBB19_1+0xb90>
     524:	ff768693          	addi	a3,a3,-9
     528:	02d506a3          	sb	a3,45(a0)
     52c:	000016b7          	lui	a3,0x1
     530:	00d106b3          	add	a3,sp,a3
     534:	d206b683          	ld	a3,-736(a3) # d20 <.LBB19_1+0xba0>
     538:	ff768693          	addi	a3,a3,-9
     53c:	02d50723          	sb	a3,46(a0)
     540:	000016b7          	lui	a3,0x1
     544:	00d106b3          	add	a3,sp,a3
     548:	d306b683          	ld	a3,-720(a3) # d30 <.LBB19_1+0xbb0>
     54c:	ff768693          	addi	a3,a3,-9
     550:	02d507a3          	sb	a3,47(a0)
     554:	000016b7          	lui	a3,0x1
     558:	00d106b3          	add	a3,sp,a3
     55c:	b506b683          	ld	a3,-1200(a3) # b50 <.LBB19_1+0x9d0>
     560:	ff768693          	addi	a3,a3,-9
     564:	02d50823          	sb	a3,48(a0)
     568:	000016b7          	lui	a3,0x1
     56c:	00d106b3          	add	a3,sp,a3
     570:	b606b683          	ld	a3,-1184(a3) # b60 <.LBB19_1+0x9e0>
     574:	ff768693          	addi	a3,a3,-9
     578:	02d508a3          	sb	a3,49(a0)
     57c:	000016b7          	lui	a3,0x1
     580:	00d106b3          	add	a3,sp,a3
     584:	b706b683          	ld	a3,-1168(a3) # b70 <.LBB19_1+0x9f0>
     588:	ff768693          	addi	a3,a3,-9
     58c:	02d50923          	sb	a3,50(a0)
     590:	000016b7          	lui	a3,0x1
     594:	00d106b3          	add	a3,sp,a3
     598:	b806b683          	ld	a3,-1152(a3) # b80 <.LBB19_1+0xa00>
     59c:	ff768693          	addi	a3,a3,-9
     5a0:	02d509a3          	sb	a3,51(a0)
     5a4:	000016b7          	lui	a3,0x1
     5a8:	00d106b3          	add	a3,sp,a3
     5ac:	b906b683          	ld	a3,-1136(a3) # b90 <.LBB19_1+0xa10>
     5b0:	ff768693          	addi	a3,a3,-9
     5b4:	02d50a23          	sb	a3,52(a0)
     5b8:	000016b7          	lui	a3,0x1
     5bc:	00d106b3          	add	a3,sp,a3
     5c0:	ba06b683          	ld	a3,-1120(a3) # ba0 <.LBB19_1+0xa20>
     5c4:	ff768693          	addi	a3,a3,-9
     5c8:	02d50aa3          	sb	a3,53(a0)
     5cc:	000016b7          	lui	a3,0x1
     5d0:	00d106b3          	add	a3,sp,a3
     5d4:	bb06b683          	ld	a3,-1104(a3) # bb0 <.LBB19_1+0xa30>
     5d8:	ff768693          	addi	a3,a3,-9
     5dc:	02d50b23          	sb	a3,54(a0)
     5e0:	000016b7          	lui	a3,0x1
     5e4:	00d106b3          	add	a3,sp,a3
     5e8:	bc06b683          	ld	a3,-1088(a3) # bc0 <.LBB19_1+0xa40>
     5ec:	ff768693          	addi	a3,a3,-9
     5f0:	02d50ba3          	sb	a3,55(a0)
     5f4:	000016b7          	lui	a3,0x1
     5f8:	00d106b3          	add	a3,sp,a3
     5fc:	bc86b683          	ld	a3,-1080(a3) # bc8 <.LBB19_1+0xa48>
     600:	ff768693          	addi	a3,a3,-9
     604:	02d50c23          	sb	a3,56(a0)
     608:	000016b7          	lui	a3,0x1
     60c:	00d106b3          	add	a3,sp,a3
     610:	bd06b683          	ld	a3,-1072(a3) # bd0 <.LBB19_1+0xa50>
     614:	ff768693          	addi	a3,a3,-9
     618:	02d50ca3          	sb	a3,57(a0)
     61c:	000016b7          	lui	a3,0x1
     620:	00d106b3          	add	a3,sp,a3
     624:	bd86b683          	ld	a3,-1064(a3) # bd8 <.LBB19_1+0xa58>
     628:	ff768693          	addi	a3,a3,-9
     62c:	02d50d23          	sb	a3,58(a0)
     630:	000016b7          	lui	a3,0x1
     634:	00d106b3          	add	a3,sp,a3
     638:	be06b683          	ld	a3,-1056(a3) # be0 <.LBB19_1+0xa60>
     63c:	ff768693          	addi	a3,a3,-9
     640:	02d50da3          	sb	a3,59(a0)
     644:	000016b7          	lui	a3,0x1
     648:	00d106b3          	add	a3,sp,a3
     64c:	be86b683          	ld	a3,-1048(a3) # be8 <.LBB19_1+0xa68>
     650:	ff768693          	addi	a3,a3,-9
     654:	02d50e23          	sb	a3,60(a0)
     658:	000016b7          	lui	a3,0x1
     65c:	00d106b3          	add	a3,sp,a3
     660:	bf06b683          	ld	a3,-1040(a3) # bf0 <.LBB19_1+0xa70>
     664:	ff768693          	addi	a3,a3,-9
     668:	02d50ea3          	sb	a3,61(a0)
     66c:	000016b7          	lui	a3,0x1
     670:	00d106b3          	add	a3,sp,a3
     674:	bf86b683          	ld	a3,-1032(a3) # bf8 <.LBB19_1+0xa78>
     678:	ff768693          	addi	a3,a3,-9
     67c:	02d50f23          	sb	a3,62(a0)
     680:	000016b7          	lui	a3,0x1
     684:	00d106b3          	add	a3,sp,a3
     688:	c006b683          	ld	a3,-1024(a3) # c00 <.LBB19_1+0xa80>
     68c:	ff768693          	addi	a3,a3,-9
     690:	02d50fa3          	sb	a3,63(a0)
     694:	000016b7          	lui	a3,0x1
     698:	00d106b3          	add	a3,sp,a3
     69c:	c086b683          	ld	a3,-1016(a3) # c08 <.LBB19_1+0xa88>
     6a0:	ff768693          	addi	a3,a3,-9
     6a4:	04d50023          	sb	a3,64(a0)
     6a8:	000016b7          	lui	a3,0x1
     6ac:	00d106b3          	add	a3,sp,a3
     6b0:	c186b683          	ld	a3,-1000(a3) # c18 <.LBB19_1+0xa98>
     6b4:	ff768693          	addi	a3,a3,-9
     6b8:	04d500a3          	sb	a3,65(a0)
     6bc:	000016b7          	lui	a3,0x1
     6c0:	00d106b3          	add	a3,sp,a3
     6c4:	c286b683          	ld	a3,-984(a3) # c28 <.LBB19_1+0xaa8>
     6c8:	ff768693          	addi	a3,a3,-9
     6cc:	04d50123          	sb	a3,66(a0)
     6d0:	000016b7          	lui	a3,0x1
     6d4:	00d106b3          	add	a3,sp,a3
     6d8:	c386b683          	ld	a3,-968(a3) # c38 <.LBB19_1+0xab8>
     6dc:	ff768693          	addi	a3,a3,-9
     6e0:	04d501a3          	sb	a3,67(a0)
     6e4:	000016b7          	lui	a3,0x1
     6e8:	00d106b3          	add	a3,sp,a3
     6ec:	c486b683          	ld	a3,-952(a3) # c48 <.LBB19_1+0xac8>
     6f0:	ff768693          	addi	a3,a3,-9
     6f4:	04d50223          	sb	a3,68(a0)
     6f8:	000016b7          	lui	a3,0x1
     6fc:	00d106b3          	add	a3,sp,a3
     700:	c586b683          	ld	a3,-936(a3) # c58 <.LBB19_1+0xad8>
     704:	ff768693          	addi	a3,a3,-9
     708:	04d502a3          	sb	a3,69(a0)
     70c:	000016b7          	lui	a3,0x1
     710:	00d106b3          	add	a3,sp,a3
     714:	c686b683          	ld	a3,-920(a3) # c68 <.LBB19_1+0xae8>
     718:	ff768693          	addi	a3,a3,-9
     71c:	04d50323          	sb	a3,70(a0)
     720:	000016b7          	lui	a3,0x1
     724:	00d106b3          	add	a3,sp,a3
     728:	c786b683          	ld	a3,-904(a3) # c78 <.LBB19_1+0xaf8>
     72c:	ff768693          	addi	a3,a3,-9
     730:	04d503a3          	sb	a3,71(a0)
     734:	000016b7          	lui	a3,0x1
     738:	00d106b3          	add	a3,sp,a3
     73c:	a906b683          	ld	a3,-1392(a3) # a90 <.LBB19_1+0x910>
     740:	ff768693          	addi	a3,a3,-9
     744:	04d50423          	sb	a3,72(a0)
     748:	000016b7          	lui	a3,0x1
     74c:	00d106b3          	add	a3,sp,a3
     750:	aa06b683          	ld	a3,-1376(a3) # aa0 <.LBB19_1+0x920>
     754:	ff768693          	addi	a3,a3,-9
     758:	04d504a3          	sb	a3,73(a0)
     75c:	000016b7          	lui	a3,0x1
     760:	00d106b3          	add	a3,sp,a3
     764:	ab06b683          	ld	a3,-1360(a3) # ab0 <.LBB19_1+0x930>
     768:	ff768693          	addi	a3,a3,-9
     76c:	04d50523          	sb	a3,74(a0)
     770:	000016b7          	lui	a3,0x1
     774:	00d106b3          	add	a3,sp,a3
     778:	ac06b683          	ld	a3,-1344(a3) # ac0 <.LBB19_1+0x940>
     77c:	ff768693          	addi	a3,a3,-9
     780:	04d505a3          	sb	a3,75(a0)
     784:	000016b7          	lui	a3,0x1
     788:	00d106b3          	add	a3,sp,a3
     78c:	ad06b683          	ld	a3,-1328(a3) # ad0 <.LBB19_1+0x950>
     790:	ff768693          	addi	a3,a3,-9
     794:	04d50623          	sb	a3,76(a0)
     798:	000016b7          	lui	a3,0x1
     79c:	00d106b3          	add	a3,sp,a3
     7a0:	ae06b683          	ld	a3,-1312(a3) # ae0 <.LBB19_1+0x960>
     7a4:	ff768693          	addi	a3,a3,-9
     7a8:	04d506a3          	sb	a3,77(a0)
     7ac:	000016b7          	lui	a3,0x1
     7b0:	00d106b3          	add	a3,sp,a3
     7b4:	af06b683          	ld	a3,-1296(a3) # af0 <.LBB19_1+0x970>
     7b8:	ff768693          	addi	a3,a3,-9
     7bc:	04d50723          	sb	a3,78(a0)
     7c0:	000016b7          	lui	a3,0x1
     7c4:	00d106b3          	add	a3,sp,a3
     7c8:	b006b683          	ld	a3,-1280(a3) # b00 <.LBB19_1+0x980>
     7cc:	ff768693          	addi	a3,a3,-9
     7d0:	04d507a3          	sb	a3,79(a0)
     7d4:	000016b7          	lui	a3,0x1
     7d8:	00d106b3          	add	a3,sp,a3
     7dc:	b086b683          	ld	a3,-1272(a3) # b08 <.LBB19_1+0x988>
     7e0:	ff768693          	addi	a3,a3,-9
     7e4:	04d50823          	sb	a3,80(a0)
     7e8:	000016b7          	lui	a3,0x1
     7ec:	00d106b3          	add	a3,sp,a3
     7f0:	b106b683          	ld	a3,-1264(a3) # b10 <.LBB19_1+0x990>
     7f4:	ff768693          	addi	a3,a3,-9
     7f8:	04d508a3          	sb	a3,81(a0)
     7fc:	000016b7          	lui	a3,0x1
     800:	00d106b3          	add	a3,sp,a3
     804:	b186b683          	ld	a3,-1256(a3) # b18 <.LBB19_1+0x998>
     808:	ff768693          	addi	a3,a3,-9
     80c:	04d50923          	sb	a3,82(a0)
     810:	000016b7          	lui	a3,0x1
     814:	00d106b3          	add	a3,sp,a3
     818:	b206b683          	ld	a3,-1248(a3) # b20 <.LBB19_1+0x9a0>
     81c:	ff768693          	addi	a3,a3,-9
     820:	04d509a3          	sb	a3,83(a0)
     824:	000016b7          	lui	a3,0x1
     828:	00d106b3          	add	a3,sp,a3
     82c:	b286b683          	ld	a3,-1240(a3) # b28 <.LBB19_1+0x9a8>
     830:	ff768693          	addi	a3,a3,-9
     834:	04d50a23          	sb	a3,84(a0)
     838:	000016b7          	lui	a3,0x1
     83c:	00d106b3          	add	a3,sp,a3
     840:	b306b683          	ld	a3,-1232(a3) # b30 <.LBB19_1+0x9b0>
     844:	ff768693          	addi	a3,a3,-9
     848:	04d50aa3          	sb	a3,85(a0)
     84c:	000016b7          	lui	a3,0x1
     850:	00d106b3          	add	a3,sp,a3
     854:	b386b683          	ld	a3,-1224(a3) # b38 <.LBB19_1+0x9b8>
     858:	ff768693          	addi	a3,a3,-9
     85c:	04d50b23          	sb	a3,86(a0)
     860:	000016b7          	lui	a3,0x1
     864:	00d106b3          	add	a3,sp,a3
     868:	b406b683          	ld	a3,-1216(a3) # b40 <.LBB19_1+0x9c0>
     86c:	ff768693          	addi	a3,a3,-9
     870:	04d50ba3          	sb	a3,87(a0)
     874:	000016b7          	lui	a3,0x1
     878:	00d106b3          	add	a3,sp,a3
     87c:	b486b683          	ld	a3,-1208(a3) # b48 <.LBB19_1+0x9c8>
     880:	ff768693          	addi	a3,a3,-9
     884:	04d50c23          	sb	a3,88(a0)
     888:	000016b7          	lui	a3,0x1
     88c:	00d106b3          	add	a3,sp,a3
     890:	b586b683          	ld	a3,-1192(a3) # b58 <.LBB19_1+0x9d8>
     894:	ff768693          	addi	a3,a3,-9
     898:	04d50ca3          	sb	a3,89(a0)
     89c:	000016b7          	lui	a3,0x1
     8a0:	00d106b3          	add	a3,sp,a3
     8a4:	b686b683          	ld	a3,-1176(a3) # b68 <.LBB19_1+0x9e8>
     8a8:	ff768693          	addi	a3,a3,-9
     8ac:	04d50d23          	sb	a3,90(a0)
     8b0:	000016b7          	lui	a3,0x1
     8b4:	00d106b3          	add	a3,sp,a3
     8b8:	b786b683          	ld	a3,-1160(a3) # b78 <.LBB19_1+0x9f8>
     8bc:	ff768693          	addi	a3,a3,-9
     8c0:	04d50da3          	sb	a3,91(a0)
     8c4:	000016b7          	lui	a3,0x1
     8c8:	00d106b3          	add	a3,sp,a3
     8cc:	b886b683          	ld	a3,-1144(a3) # b88 <.LBB19_1+0xa08>
     8d0:	ff768693          	addi	a3,a3,-9
     8d4:	04d50e23          	sb	a3,92(a0)
     8d8:	000016b7          	lui	a3,0x1
     8dc:	00d106b3          	add	a3,sp,a3
     8e0:	b986b683          	ld	a3,-1128(a3) # b98 <.LBB19_1+0xa18>
     8e4:	ff768693          	addi	a3,a3,-9
     8e8:	04d50ea3          	sb	a3,93(a0)
     8ec:	000016b7          	lui	a3,0x1
     8f0:	00d106b3          	add	a3,sp,a3
     8f4:	ba86b683          	ld	a3,-1112(a3) # ba8 <.LBB19_1+0xa28>
     8f8:	ff768693          	addi	a3,a3,-9
     8fc:	04d50f23          	sb	a3,94(a0)
     900:	000016b7          	lui	a3,0x1
     904:	00d106b3          	add	a3,sp,a3
     908:	bb86b683          	ld	a3,-1096(a3) # bb8 <.LBB19_1+0xa38>
     90c:	ff768693          	addi	a3,a3,-9
     910:	04d50fa3          	sb	a3,95(a0)
     914:	000016b7          	lui	a3,0x1
     918:	00d106b3          	add	a3,sp,a3
     91c:	9d06b683          	ld	a3,-1584(a3) # 9d0 <.LBB19_1+0x850>
     920:	ff768693          	addi	a3,a3,-9
     924:	06d50023          	sb	a3,96(a0)
     928:	000016b7          	lui	a3,0x1
     92c:	00d106b3          	add	a3,sp,a3
     930:	9e06b683          	ld	a3,-1568(a3) # 9e0 <.LBB19_1+0x860>
     934:	ff768693          	addi	a3,a3,-9
     938:	06d500a3          	sb	a3,97(a0)
     93c:	000016b7          	lui	a3,0x1
     940:	00d106b3          	add	a3,sp,a3
     944:	9f06b683          	ld	a3,-1552(a3) # 9f0 <.LBB19_1+0x870>
     948:	ff768693          	addi	a3,a3,-9
     94c:	06d50123          	sb	a3,98(a0)
     950:	000016b7          	lui	a3,0x1
     954:	00d106b3          	add	a3,sp,a3
     958:	a006b683          	ld	a3,-1536(a3) # a00 <.LBB19_1+0x880>
     95c:	ff768693          	addi	a3,a3,-9
     960:	06d501a3          	sb	a3,99(a0)
     964:	000016b7          	lui	a3,0x1
     968:	00d106b3          	add	a3,sp,a3
     96c:	a106b683          	ld	a3,-1520(a3) # a10 <.LBB19_1+0x890>
     970:	ff768693          	addi	a3,a3,-9
     974:	06d50223          	sb	a3,100(a0)
     978:	000016b7          	lui	a3,0x1
     97c:	00d106b3          	add	a3,sp,a3
     980:	a206b683          	ld	a3,-1504(a3) # a20 <.LBB19_1+0x8a0>
     984:	ff768693          	addi	a3,a3,-9
     988:	06d502a3          	sb	a3,101(a0)
     98c:	000016b7          	lui	a3,0x1
     990:	00d106b3          	add	a3,sp,a3
     994:	a306b683          	ld	a3,-1488(a3) # a30 <.LBB19_1+0x8b0>
     998:	ff768693          	addi	a3,a3,-9
     99c:	06d50323          	sb	a3,102(a0)
     9a0:	000016b7          	lui	a3,0x1
     9a4:	00d106b3          	add	a3,sp,a3
     9a8:	a406b683          	ld	a3,-1472(a3) # a40 <.LBB19_1+0x8c0>
     9ac:	ff768693          	addi	a3,a3,-9
     9b0:	06d503a3          	sb	a3,103(a0)
     9b4:	000016b7          	lui	a3,0x1
     9b8:	00d106b3          	add	a3,sp,a3
     9bc:	a486b683          	ld	a3,-1464(a3) # a48 <.LBB19_1+0x8c8>
     9c0:	ff768693          	addi	a3,a3,-9
     9c4:	06d50423          	sb	a3,104(a0)
     9c8:	000016b7          	lui	a3,0x1
     9cc:	00d106b3          	add	a3,sp,a3
     9d0:	a506b683          	ld	a3,-1456(a3) # a50 <.LBB19_1+0x8d0>
     9d4:	ff768693          	addi	a3,a3,-9
     9d8:	06d504a3          	sb	a3,105(a0)
     9dc:	000016b7          	lui	a3,0x1
     9e0:	00d106b3          	add	a3,sp,a3
     9e4:	a586b683          	ld	a3,-1448(a3) # a58 <.LBB19_1+0x8d8>
     9e8:	ff768693          	addi	a3,a3,-9
     9ec:	06d50523          	sb	a3,106(a0)
     9f0:	000016b7          	lui	a3,0x1
     9f4:	00d106b3          	add	a3,sp,a3
     9f8:	a606b683          	ld	a3,-1440(a3) # a60 <.LBB19_1+0x8e0>
     9fc:	ff768693          	addi	a3,a3,-9
     a00:	06d505a3          	sb	a3,107(a0)
     a04:	000016b7          	lui	a3,0x1
     a08:	00d106b3          	add	a3,sp,a3
     a0c:	a686b683          	ld	a3,-1432(a3) # a68 <.LBB19_1+0x8e8>
     a10:	ff768693          	addi	a3,a3,-9
     a14:	06d50623          	sb	a3,108(a0)
     a18:	000016b7          	lui	a3,0x1
     a1c:	00d106b3          	add	a3,sp,a3
     a20:	a706b683          	ld	a3,-1424(a3) # a70 <.LBB19_1+0x8f0>
     a24:	ff768693          	addi	a3,a3,-9
     a28:	06d506a3          	sb	a3,109(a0)
     a2c:	000016b7          	lui	a3,0x1
     a30:	00d106b3          	add	a3,sp,a3
     a34:	a786b683          	ld	a3,-1416(a3) # a78 <.LBB19_1+0x8f8>
     a38:	ff768693          	addi	a3,a3,-9
     a3c:	06d50723          	sb	a3,110(a0)
     a40:	000016b7          	lui	a3,0x1
     a44:	00d106b3          	add	a3,sp,a3
     a48:	a806b683          	ld	a3,-1408(a3) # a80 <.LBB19_1+0x900>
     a4c:	ff768693          	addi	a3,a3,-9
     a50:	06d507a3          	sb	a3,111(a0)
     a54:	000016b7          	lui	a3,0x1
     a58:	00d106b3          	add	a3,sp,a3
     a5c:	a886b683          	ld	a3,-1400(a3) # a88 <.LBB19_1+0x908>
     a60:	ff768693          	addi	a3,a3,-9
     a64:	06d50823          	sb	a3,112(a0)
     a68:	000016b7          	lui	a3,0x1
     a6c:	00d106b3          	add	a3,sp,a3
     a70:	a986b683          	ld	a3,-1384(a3) # a98 <.LBB19_1+0x918>
     a74:	ff768693          	addi	a3,a3,-9
     a78:	06d508a3          	sb	a3,113(a0)
     a7c:	000016b7          	lui	a3,0x1
     a80:	00d106b3          	add	a3,sp,a3
     a84:	aa86b683          	ld	a3,-1368(a3) # aa8 <.LBB19_1+0x928>
     a88:	ff768693          	addi	a3,a3,-9
     a8c:	06d50923          	sb	a3,114(a0)
     a90:	000016b7          	lui	a3,0x1
     a94:	00d106b3          	add	a3,sp,a3
     a98:	ab86b683          	ld	a3,-1352(a3) # ab8 <.LBB19_1+0x938>
     a9c:	ff768693          	addi	a3,a3,-9
     aa0:	06d509a3          	sb	a3,115(a0)
     aa4:	000016b7          	lui	a3,0x1
     aa8:	00d106b3          	add	a3,sp,a3
     aac:	ac86b683          	ld	a3,-1336(a3) # ac8 <.LBB19_1+0x948>
     ab0:	ff768693          	addi	a3,a3,-9
     ab4:	06d50a23          	sb	a3,116(a0)
     ab8:	000016b7          	lui	a3,0x1
     abc:	00d106b3          	add	a3,sp,a3
     ac0:	ad86b683          	ld	a3,-1320(a3) # ad8 <.LBB19_1+0x958>
     ac4:	ff768693          	addi	a3,a3,-9
     ac8:	06d50aa3          	sb	a3,117(a0)
     acc:	000016b7          	lui	a3,0x1
     ad0:	00d106b3          	add	a3,sp,a3
     ad4:	ae86b683          	ld	a3,-1304(a3) # ae8 <.LBB19_1+0x968>
     ad8:	ff768693          	addi	a3,a3,-9
     adc:	06d50b23          	sb	a3,118(a0)
     ae0:	000016b7          	lui	a3,0x1
     ae4:	00d106b3          	add	a3,sp,a3
     ae8:	af86b683          	ld	a3,-1288(a3) # af8 <.LBB19_1+0x978>
     aec:	ff768693          	addi	a3,a3,-9
     af0:	06d50ba3          	sb	a3,119(a0)
     af4:	000016b7          	lui	a3,0x1
     af8:	00d106b3          	add	a3,sp,a3
     afc:	9106b683          	ld	a3,-1776(a3) # 910 <.LBB19_1+0x790>
     b00:	ff768693          	addi	a3,a3,-9
     b04:	06d50c23          	sb	a3,120(a0)
     b08:	000016b7          	lui	a3,0x1
     b0c:	00d106b3          	add	a3,sp,a3
     b10:	9206b683          	ld	a3,-1760(a3) # 920 <.LBB19_1+0x7a0>
     b14:	ff768693          	addi	a3,a3,-9
     b18:	06d50ca3          	sb	a3,121(a0)
     b1c:	000016b7          	lui	a3,0x1
     b20:	00d106b3          	add	a3,sp,a3
     b24:	9306b683          	ld	a3,-1744(a3) # 930 <.LBB19_1+0x7b0>
     b28:	ff768693          	addi	a3,a3,-9
     b2c:	06d50d23          	sb	a3,122(a0)
     b30:	000016b7          	lui	a3,0x1
     b34:	00d106b3          	add	a3,sp,a3
     b38:	9406b683          	ld	a3,-1728(a3) # 940 <.LBB19_1+0x7c0>
     b3c:	ff768693          	addi	a3,a3,-9
     b40:	06d50da3          	sb	a3,123(a0)
     b44:	000016b7          	lui	a3,0x1
     b48:	00d106b3          	add	a3,sp,a3
     b4c:	9506b683          	ld	a3,-1712(a3) # 950 <.LBB19_1+0x7d0>
     b50:	ff768693          	addi	a3,a3,-9
     b54:	06d50e23          	sb	a3,124(a0)
     b58:	000016b7          	lui	a3,0x1
     b5c:	00d106b3          	add	a3,sp,a3
     b60:	9606b683          	ld	a3,-1696(a3) # 960 <.LBB19_1+0x7e0>
     b64:	ff768693          	addi	a3,a3,-9
     b68:	06d50ea3          	sb	a3,125(a0)
     b6c:	000016b7          	lui	a3,0x1
     b70:	00d106b3          	add	a3,sp,a3
     b74:	9706b683          	ld	a3,-1680(a3) # 970 <.LBB19_1+0x7f0>
     b78:	ff768693          	addi	a3,a3,-9
     b7c:	06d50f23          	sb	a3,126(a0)
     b80:	000016b7          	lui	a3,0x1
     b84:	00d106b3          	add	a3,sp,a3
     b88:	9806b683          	ld	a3,-1664(a3) # 980 <.LBB19_1+0x800>
     b8c:	ff768693          	addi	a3,a3,-9
     b90:	06d50fa3          	sb	a3,127(a0)
     b94:	000016b7          	lui	a3,0x1
     b98:	00d106b3          	add	a3,sp,a3
     b9c:	9886b683          	ld	a3,-1656(a3) # 988 <.LBB19_1+0x808>
     ba0:	ff768693          	addi	a3,a3,-9
     ba4:	08d50023          	sb	a3,128(a0)
     ba8:	000016b7          	lui	a3,0x1
     bac:	00d106b3          	add	a3,sp,a3
     bb0:	9906b683          	ld	a3,-1648(a3) # 990 <.LBB19_1+0x810>
     bb4:	ff768693          	addi	a3,a3,-9
     bb8:	08d500a3          	sb	a3,129(a0)
     bbc:	000016b7          	lui	a3,0x1
     bc0:	00d106b3          	add	a3,sp,a3
     bc4:	9986b683          	ld	a3,-1640(a3) # 998 <.LBB19_1+0x818>
     bc8:	ff768693          	addi	a3,a3,-9
     bcc:	08d50123          	sb	a3,130(a0)
     bd0:	000016b7          	lui	a3,0x1
     bd4:	00d106b3          	add	a3,sp,a3
     bd8:	9a06b683          	ld	a3,-1632(a3) # 9a0 <.LBB19_1+0x820>
     bdc:	ff768693          	addi	a3,a3,-9
     be0:	08d501a3          	sb	a3,131(a0)
     be4:	000016b7          	lui	a3,0x1
     be8:	00d106b3          	add	a3,sp,a3
     bec:	9a86b683          	ld	a3,-1624(a3) # 9a8 <.LBB19_1+0x828>
     bf0:	ff768693          	addi	a3,a3,-9
     bf4:	08d50223          	sb	a3,132(a0)
     bf8:	000016b7          	lui	a3,0x1
     bfc:	00d106b3          	add	a3,sp,a3
     c00:	9b06b683          	ld	a3,-1616(a3) # 9b0 <.LBB19_1+0x830>
     c04:	ff768693          	addi	a3,a3,-9
     c08:	08d502a3          	sb	a3,133(a0)
     c0c:	000016b7          	lui	a3,0x1
     c10:	00d106b3          	add	a3,sp,a3
     c14:	9b86b683          	ld	a3,-1608(a3) # 9b8 <.LBB19_1+0x838>
     c18:	ff768693          	addi	a3,a3,-9
     c1c:	08d50323          	sb	a3,134(a0)
     c20:	000016b7          	lui	a3,0x1
     c24:	00d106b3          	add	a3,sp,a3
     c28:	9c06b683          	ld	a3,-1600(a3) # 9c0 <.LBB19_1+0x840>
     c2c:	ff768693          	addi	a3,a3,-9
     c30:	08d503a3          	sb	a3,135(a0)
     c34:	000016b7          	lui	a3,0x1
     c38:	00d106b3          	add	a3,sp,a3
     c3c:	9c86b683          	ld	a3,-1592(a3) # 9c8 <.LBB19_1+0x848>
     c40:	ff768693          	addi	a3,a3,-9
     c44:	08d50423          	sb	a3,136(a0)
     c48:	000016b7          	lui	a3,0x1
     c4c:	00d106b3          	add	a3,sp,a3
     c50:	9d86b683          	ld	a3,-1576(a3) # 9d8 <.LBB19_1+0x858>
     c54:	ff768693          	addi	a3,a3,-9
     c58:	08d504a3          	sb	a3,137(a0)
     c5c:	000016b7          	lui	a3,0x1
     c60:	00d106b3          	add	a3,sp,a3
     c64:	9e86b683          	ld	a3,-1560(a3) # 9e8 <.LBB19_1+0x868>
     c68:	ff768693          	addi	a3,a3,-9
     c6c:	08d50523          	sb	a3,138(a0)
     c70:	000016b7          	lui	a3,0x1
     c74:	00d106b3          	add	a3,sp,a3
     c78:	9f86b683          	ld	a3,-1544(a3) # 9f8 <.LBB19_1+0x878>
     c7c:	ff768693          	addi	a3,a3,-9
     c80:	08d505a3          	sb	a3,139(a0)
     c84:	000016b7          	lui	a3,0x1
     c88:	00d106b3          	add	a3,sp,a3
     c8c:	a086b683          	ld	a3,-1528(a3) # a08 <.LBB19_1+0x888>
     c90:	ff768693          	addi	a3,a3,-9
     c94:	08d50623          	sb	a3,140(a0)
     c98:	000016b7          	lui	a3,0x1
     c9c:	00d106b3          	add	a3,sp,a3
     ca0:	a186b683          	ld	a3,-1512(a3) # a18 <.LBB19_1+0x898>
     ca4:	ff768693          	addi	a3,a3,-9
     ca8:	08d506a3          	sb	a3,141(a0)
     cac:	000016b7          	lui	a3,0x1
     cb0:	00d106b3          	add	a3,sp,a3
     cb4:	a286b683          	ld	a3,-1496(a3) # a28 <.LBB19_1+0x8a8>
     cb8:	ff768693          	addi	a3,a3,-9
     cbc:	08d50723          	sb	a3,142(a0)
     cc0:	000016b7          	lui	a3,0x1
     cc4:	00d106b3          	add	a3,sp,a3
     cc8:	a386b683          	ld	a3,-1480(a3) # a38 <.LBB19_1+0x8b8>
     ccc:	ff768693          	addi	a3,a3,-9
     cd0:	08d507a3          	sb	a3,143(a0)
     cd4:	ff7b8b93          	addi	s7,s7,-9
     cd8:	09750823          	sb	s7,144(a0)
     cdc:	ff7a8a93          	addi	s5,s5,-9
     ce0:	095508a3          	sb	s5,145(a0)
     ce4:	ff798993          	addi	s3,s3,-9
     ce8:	09350923          	sb	s3,146(a0)
     cec:	000016b7          	lui	a3,0x1
     cf0:	00d106b3          	add	a3,sp,a3
     cf4:	8806b683          	ld	a3,-1920(a3) # 880 <.LBB19_1+0x700>
     cf8:	ff768693          	addi	a3,a3,-9
     cfc:	08d509a3          	sb	a3,147(a0)
     d00:	000016b7          	lui	a3,0x1
     d04:	00d106b3          	add	a3,sp,a3
     d08:	8906b683          	ld	a3,-1904(a3) # 890 <.LBB19_1+0x710>
     d0c:	ff768693          	addi	a3,a3,-9
     d10:	08d50a23          	sb	a3,148(a0)
     d14:	000016b7          	lui	a3,0x1
     d18:	00d106b3          	add	a3,sp,a3
     d1c:	8a06b683          	ld	a3,-1888(a3) # 8a0 <.LBB19_1+0x720>
     d20:	ff768693          	addi	a3,a3,-9
     d24:	08d50aa3          	sb	a3,149(a0)
     d28:	000016b7          	lui	a3,0x1
     d2c:	00d106b3          	add	a3,sp,a3
     d30:	8b06b683          	ld	a3,-1872(a3) # 8b0 <.LBB19_1+0x730>
     d34:	ff768693          	addi	a3,a3,-9
     d38:	08d50b23          	sb	a3,150(a0)
     d3c:	000016b7          	lui	a3,0x1
     d40:	00d106b3          	add	a3,sp,a3
     d44:	8c06b683          	ld	a3,-1856(a3) # 8c0 <.LBB19_1+0x740>
     d48:	ff768693          	addi	a3,a3,-9
     d4c:	08d50ba3          	sb	a3,151(a0)
     d50:	000016b7          	lui	a3,0x1
     d54:	00d106b3          	add	a3,sp,a3
     d58:	8c86b683          	ld	a3,-1848(a3) # 8c8 <.LBB19_1+0x748>
     d5c:	ff768693          	addi	a3,a3,-9
     d60:	08d50c23          	sb	a3,152(a0)
     d64:	000016b7          	lui	a3,0x1
     d68:	00d106b3          	add	a3,sp,a3
     d6c:	8d06b683          	ld	a3,-1840(a3) # 8d0 <.LBB19_1+0x750>
     d70:	ff768693          	addi	a3,a3,-9
     d74:	08d50ca3          	sb	a3,153(a0)
     d78:	000016b7          	lui	a3,0x1
     d7c:	00d106b3          	add	a3,sp,a3
     d80:	8d86b683          	ld	a3,-1832(a3) # 8d8 <.LBB19_1+0x758>
     d84:	ff768693          	addi	a3,a3,-9
     d88:	08d50d23          	sb	a3,154(a0)
     d8c:	000016b7          	lui	a3,0x1
     d90:	00d106b3          	add	a3,sp,a3
     d94:	8e06b683          	ld	a3,-1824(a3) # 8e0 <.LBB19_1+0x760>
     d98:	ff768693          	addi	a3,a3,-9
     d9c:	08d50da3          	sb	a3,155(a0)
     da0:	000016b7          	lui	a3,0x1
     da4:	00d106b3          	add	a3,sp,a3
     da8:	8e86b683          	ld	a3,-1816(a3) # 8e8 <.LBB19_1+0x768>
     dac:	ff768693          	addi	a3,a3,-9
     db0:	08d50e23          	sb	a3,156(a0)
     db4:	000016b7          	lui	a3,0x1
     db8:	00d106b3          	add	a3,sp,a3
     dbc:	8f06b683          	ld	a3,-1808(a3) # 8f0 <.LBB19_1+0x770>
     dc0:	ff768693          	addi	a3,a3,-9
     dc4:	08d50ea3          	sb	a3,157(a0)
     dc8:	000016b7          	lui	a3,0x1
     dcc:	00d106b3          	add	a3,sp,a3
     dd0:	8f86b683          	ld	a3,-1800(a3) # 8f8 <.LBB19_1+0x778>
     dd4:	ff768693          	addi	a3,a3,-9
     dd8:	08d50f23          	sb	a3,158(a0)
     ddc:	000016b7          	lui	a3,0x1
     de0:	00d106b3          	add	a3,sp,a3
     de4:	9006b683          	ld	a3,-1792(a3) # 900 <.LBB19_1+0x780>
     de8:	ff768693          	addi	a3,a3,-9
     dec:	08d50fa3          	sb	a3,159(a0)
     df0:	000016b7          	lui	a3,0x1
     df4:	00d106b3          	add	a3,sp,a3
     df8:	9086b683          	ld	a3,-1784(a3) # 908 <.LBB19_1+0x788>
     dfc:	ff768693          	addi	a3,a3,-9
     e00:	0ad50023          	sb	a3,160(a0)
     e04:	000016b7          	lui	a3,0x1
     e08:	00d106b3          	add	a3,sp,a3
     e0c:	9186b683          	ld	a3,-1768(a3) # 918 <.LBB19_1+0x798>
     e10:	ff768693          	addi	a3,a3,-9
     e14:	0ad500a3          	sb	a3,161(a0)
     e18:	000016b7          	lui	a3,0x1
     e1c:	00d106b3          	add	a3,sp,a3
     e20:	9286b683          	ld	a3,-1752(a3) # 928 <.LBB19_1+0x7a8>
     e24:	ff768693          	addi	a3,a3,-9
     e28:	0ad50123          	sb	a3,162(a0)
     e2c:	000016b7          	lui	a3,0x1
     e30:	00d106b3          	add	a3,sp,a3
     e34:	9386b683          	ld	a3,-1736(a3) # 938 <.LBB19_1+0x7b8>
     e38:	ff768693          	addi	a3,a3,-9
     e3c:	0ad501a3          	sb	a3,163(a0)
     e40:	000016b7          	lui	a3,0x1
     e44:	00d106b3          	add	a3,sp,a3
     e48:	9486b683          	ld	a3,-1720(a3) # 948 <.LBB19_1+0x7c8>
     e4c:	ff768693          	addi	a3,a3,-9
     e50:	0ad50223          	sb	a3,164(a0)
     e54:	000016b7          	lui	a3,0x1
     e58:	00d106b3          	add	a3,sp,a3
     e5c:	9586b683          	ld	a3,-1704(a3) # 958 <.LBB19_1+0x7d8>
     e60:	ff768693          	addi	a3,a3,-9
     e64:	0ad502a3          	sb	a3,165(a0)
     e68:	000016b7          	lui	a3,0x1
     e6c:	00d106b3          	add	a3,sp,a3
     e70:	9686b683          	ld	a3,-1688(a3) # 968 <.LBB19_1+0x7e8>
     e74:	ff768693          	addi	a3,a3,-9
     e78:	0ad50323          	sb	a3,166(a0)
     e7c:	000016b7          	lui	a3,0x1
     e80:	00d106b3          	add	a3,sp,a3
     e84:	9786b683          	ld	a3,-1672(a3) # 978 <.LBB19_1+0x7f8>
     e88:	ff768693          	addi	a3,a3,-9
     e8c:	0ad503a3          	sb	a3,167(a0)
     e90:	ff7f8f93          	addi	t6,t6,-9
     e94:	0bf50423          	sb	t6,168(a0)
     e98:	ff770713          	addi	a4,a4,-9
     e9c:	0ae504a3          	sb	a4,169(a0)
     ea0:	ff7f0f13          	addi	t5,t5,-9
     ea4:	0be50523          	sb	t5,170(a0)
     ea8:	ff7e8e93          	addi	t4,t4,-9
     eac:	0bd505a3          	sb	t4,171(a0)
     eb0:	ff7e0e13          	addi	t3,t3,-9
     eb4:	0bc50623          	sb	t3,172(a0)
     eb8:	ff738393          	addi	t2,t2,-9
     ebc:	0a7506a3          	sb	t2,173(a0)
     ec0:	ff730313          	addi	t1,t1,-9
     ec4:	0a650723          	sb	t1,174(a0)
     ec8:	ff728293          	addi	t0,t0,-9
     ecc:	0a5507a3          	sb	t0,175(a0)
     ed0:	ff708093          	addi	ra,ra,-9
     ed4:	0a150823          	sb	ra,176(a0)
     ed8:	ff788893          	addi	a7,a7,-9
     edc:	0b1508a3          	sb	a7,177(a0)
     ee0:	ff778793          	addi	a5,a5,-9
     ee4:	0af50923          	sb	a5,178(a0)
     ee8:	ff758593          	addi	a1,a1,-9
     eec:	0ab509a3          	sb	a1,179(a0)
     ef0:	ff760613          	addi	a2,a2,-9
     ef4:	0ac50a23          	sb	a2,180(a0)
     ef8:	ff7d8d93          	addi	s11,s11,-9
     efc:	0bb50aa3          	sb	s11,181(a0)
     f00:	ff7d0d13          	addi	s10,s10,-9
     f04:	0ba50b23          	sb	s10,182(a0)
     f08:	ff7c8c93          	addi	s9,s9,-9
     f0c:	0b950ba3          	sb	s9,183(a0)
     f10:	ff7c0c13          	addi	s8,s8,-9
     f14:	0b850c23          	sb	s8,184(a0)
     f18:	ff7b0b13          	addi	s6,s6,-9
     f1c:	0b650ca3          	sb	s6,185(a0)
     f20:	ff7a0a13          	addi	s4,s4,-9
     f24:	0b450d23          	sb	s4,186(a0)
     f28:	ff748493          	addi	s1,s1,-9
     f2c:	0a950da3          	sb	s1,187(a0)
     f30:	000015b7          	lui	a1,0x1
     f34:	00b105b3          	add	a1,sp,a1
     f38:	8885b583          	ld	a1,-1912(a1) # 888 <.LBB19_1+0x708>
     f3c:	ff758593          	addi	a1,a1,-9
     f40:	0ab50e23          	sb	a1,188(a0)
     f44:	000015b7          	lui	a1,0x1
     f48:	00b105b3          	add	a1,sp,a1
     f4c:	8985b583          	ld	a1,-1896(a1) # 898 <.LBB19_1+0x718>
     f50:	ff758593          	addi	a1,a1,-9
     f54:	0ab50ea3          	sb	a1,189(a0)
     f58:	000015b7          	lui	a1,0x1
     f5c:	00b105b3          	add	a1,sp,a1
     f60:	8a85b583          	ld	a1,-1880(a1) # 8a8 <.LBB19_1+0x728>
     f64:	ff758593          	addi	a1,a1,-9
     f68:	0ab50f23          	sb	a1,190(a0)
     f6c:	000015b7          	lui	a1,0x1
     f70:	00b105b3          	add	a1,sp,a1
     f74:	8b85b583          	ld	a1,-1864(a1) # 8b8 <.LBB19_1+0x738>
     f78:	ff758593          	addi	a1,a1,-9
     f7c:	0ab50fa3          	sb	a1,191(a0)
     f80:	00385513          	srli	a0,a6,0x3
     f84:	00880593          	addi	a1,a6,8
     f88:	67013783          	ld	a5,1648(sp)
     f8c:	30078793          	addi	a5,a5,768
     f90:	67813703          	ld	a4,1656(sp)
     f94:	00170713          	addi	a4,a4,1
     f98:	6cb13423          	sd	a1,1736(sp)
     f9c:	18700593          	li	a1,391
     fa0:	00b56463          	bltu	a0,a1,fa8 <.LBB19_2>
     fa4:	0150d06f          	j	e7b8 <.LBB19_1156>

0000000000000fa8 <.LBB19_2>:
     fa8:	00001537          	lui	a0,0x1
     fac:	00a10533          	add	a0,sp,a0
     fb0:	ca053023          	sd	zero,-864(a0) # ca0 <.LBB19_1+0xb20>
     fb4:	00001537          	lui	a0,0x1
     fb8:	00a10533          	add	a0,sp,a0
     fbc:	c8053c23          	sd	zero,-872(a0) # c98 <.LBB19_1+0xb18>
     fc0:	00001537          	lui	a0,0x1
     fc4:	00a10533          	add	a0,sp,a0
     fc8:	c8053823          	sd	zero,-880(a0) # c90 <.LBB19_1+0xb10>
     fcc:	00000d93          	li	s11,0
     fd0:	00001537          	lui	a0,0x1
     fd4:	00a10533          	add	a0,sp,a0
     fd8:	c8053423          	sd	zero,-888(a0) # c88 <.LBB19_1+0xb08>
     fdc:	00001537          	lui	a0,0x1
     fe0:	00a10533          	add	a0,sp,a0
     fe4:	ce053c23          	sd	zero,-776(a0) # cf8 <.LBB19_1+0xb78>
     fe8:	00001537          	lui	a0,0x1
     fec:	00a10533          	add	a0,sp,a0
     ff0:	d0053023          	sd	zero,-768(a0) # d00 <.LBB19_1+0xb80>
     ff4:	00001537          	lui	a0,0x1
     ff8:	00a10533          	add	a0,sp,a0
     ffc:	d0053423          	sd	zero,-760(a0) # d08 <.LBB19_1+0xb88>
    1000:	00000093          	li	ra,0
    1004:	00000893          	li	a7,0
    1008:	00000d13          	li	s10,0
    100c:	00000a13          	li	s4,0
    1010:	00000993          	li	s3,0
    1014:	00000913          	li	s2,0
    1018:	00000493          	li	s1,0
    101c:	00000f93          	li	t6,0
    1020:	00000f13          	li	t5,0
    1024:	00000e93          	li	t4,0
    1028:	00000e13          	li	t3,0
    102c:	00000393          	li	t2,0
    1030:	00000313          	li	t1,0
    1034:	00000293          	li	t0,0
    1038:	00000693          	li	a3,0
    103c:	00000613          	li	a2,0
    1040:	66e13c23          	sd	a4,1656(sp)
    1044:	30000513          	li	a0,768
    1048:	02a70533          	mul	a0,a4,a0
    104c:	6b813583          	ld	a1,1720(sp)
    1050:	00b50533          	add	a0,a0,a1
    1054:	001265b7          	lui	a1,0x126
    1058:	0605859b          	addiw	a1,a1,96 # 126060 <.Lfunc_end80+0xfd694>
    105c:	00b50533          	add	a0,a0,a1
    1060:	6ea13c23          	sd	a0,1784(sp)
    1064:	00001537          	lui	a0,0x1
    1068:	00a10533          	add	a0,sp,a0
    106c:	dc053023          	sd	zero,-576(a0) # dc0 <.LBB19_1+0xc40>
    1070:	00001537          	lui	a0,0x1
    1074:	00a10533          	add	a0,sp,a0
    1078:	dc053423          	sd	zero,-568(a0) # dc8 <.LBB19_1+0xc48>
    107c:	00001537          	lui	a0,0x1
    1080:	00a10533          	add	a0,sp,a0
    1084:	dc053823          	sd	zero,-560(a0) # dd0 <.LBB19_1+0xc50>
    1088:	00001537          	lui	a0,0x1
    108c:	00a10533          	add	a0,sp,a0
    1090:	dc053c23          	sd	zero,-552(a0) # dd8 <.LBB19_1+0xc58>
    1094:	00001537          	lui	a0,0x1
    1098:	00a10533          	add	a0,sp,a0
    109c:	de053023          	sd	zero,-544(a0) # de0 <.LBB19_1+0xc60>
    10a0:	00001537          	lui	a0,0x1
    10a4:	00a10533          	add	a0,sp,a0
    10a8:	de053423          	sd	zero,-536(a0) # de8 <.LBB19_1+0xc68>
    10ac:	00001537          	lui	a0,0x1
    10b0:	00a10533          	add	a0,sp,a0
    10b4:	de053823          	sd	zero,-528(a0) # df0 <.LBB19_1+0xc70>
    10b8:	00001537          	lui	a0,0x1
    10bc:	00a10533          	add	a0,sp,a0
    10c0:	de053c23          	sd	zero,-520(a0) # df8 <.LBB19_1+0xc78>
    10c4:	00001537          	lui	a0,0x1
    10c8:	00a10533          	add	a0,sp,a0
    10cc:	e0053023          	sd	zero,-512(a0) # e00 <.LBB19_1+0xc80>
    10d0:	00001537          	lui	a0,0x1
    10d4:	00a10533          	add	a0,sp,a0
    10d8:	e0053423          	sd	zero,-504(a0) # e08 <.LBB19_1+0xc88>
    10dc:	00001537          	lui	a0,0x1
    10e0:	00a10533          	add	a0,sp,a0
    10e4:	e0053823          	sd	zero,-496(a0) # e10 <.LBB19_1+0xc90>
    10e8:	00001537          	lui	a0,0x1
    10ec:	00a10533          	add	a0,sp,a0
    10f0:	e0053c23          	sd	zero,-488(a0) # e18 <.LBB19_1+0xc98>
    10f4:	7ff10513          	addi	a0,sp,2047
    10f8:	62150513          	addi	a0,a0,1569
    10fc:	00052023          	sw	zero,0(a0)
    1100:	00001537          	lui	a0,0x1
    1104:	00a10533          	add	a0,sp,a0
    1108:	e2052223          	sw	zero,-476(a0) # e24 <.LBB19_1+0xca4>
    110c:	00001537          	lui	a0,0x1
    1110:	00a10533          	add	a0,sp,a0
    1114:	e2053423          	sd	zero,-472(a0) # e28 <.LBB19_1+0xca8>
    1118:	00001537          	lui	a0,0x1
    111c:	00a10533          	add	a0,sp,a0
    1120:	e2053823          	sd	zero,-464(a0) # e30 <.LBB19_1+0xcb0>
    1124:	00001537          	lui	a0,0x1
    1128:	00a10533          	add	a0,sp,a0
    112c:	e2053c23          	sd	zero,-456(a0) # e38 <.LBB19_1+0xcb8>
    1130:	00001537          	lui	a0,0x1
    1134:	00a10533          	add	a0,sp,a0
    1138:	e4053023          	sd	zero,-448(a0) # e40 <.LBB19_1+0xcc0>
    113c:	00001537          	lui	a0,0x1
    1140:	00a10533          	add	a0,sp,a0
    1144:	e4053423          	sd	zero,-440(a0) # e48 <.LBB19_1+0xcc8>
    1148:	00001537          	lui	a0,0x1
    114c:	00a10533          	add	a0,sp,a0
    1150:	e4053823          	sd	zero,-432(a0) # e50 <.LBB19_1+0xcd0>
    1154:	00001537          	lui	a0,0x1
    1158:	00a10533          	add	a0,sp,a0
    115c:	e4053c23          	sd	zero,-424(a0) # e58 <.LBB19_1+0xcd8>
    1160:	00001537          	lui	a0,0x1
    1164:	00a10533          	add	a0,sp,a0
    1168:	e6053023          	sd	zero,-416(a0) # e60 <.LBB19_1+0xce0>
    116c:	00001537          	lui	a0,0x1
    1170:	00a10533          	add	a0,sp,a0
    1174:	e6053423          	sd	zero,-408(a0) # e68 <.LBB19_1+0xce8>
    1178:	00001537          	lui	a0,0x1
    117c:	00a10533          	add	a0,sp,a0
    1180:	e6053823          	sd	zero,-400(a0) # e70 <.LBB19_1+0xcf0>
    1184:	00001537          	lui	a0,0x1
    1188:	00a10533          	add	a0,sp,a0
    118c:	e6053c23          	sd	zero,-392(a0) # e78 <.LBB19_1+0xcf8>
    1190:	7ff10513          	addi	a0,sp,2047
    1194:	68150513          	addi	a0,a0,1665
    1198:	00052023          	sw	zero,0(a0)
    119c:	00001537          	lui	a0,0x1
    11a0:	00a10533          	add	a0,sp,a0
    11a4:	e8052223          	sw	zero,-380(a0) # e84 <.LBB19_1+0xd04>
    11a8:	00001537          	lui	a0,0x1
    11ac:	00a10533          	add	a0,sp,a0
    11b0:	e8053423          	sd	zero,-376(a0) # e88 <.LBB19_1+0xd08>
    11b4:	00001537          	lui	a0,0x1
    11b8:	00a10533          	add	a0,sp,a0
    11bc:	e8053823          	sd	zero,-368(a0) # e90 <.LBB19_1+0xd10>
    11c0:	00001537          	lui	a0,0x1
    11c4:	00a10533          	add	a0,sp,a0
    11c8:	e8053c23          	sd	zero,-360(a0) # e98 <.LBB19_1+0xd18>
    11cc:	00001537          	lui	a0,0x1
    11d0:	00a10533          	add	a0,sp,a0
    11d4:	ea053023          	sd	zero,-352(a0) # ea0 <.LBB19_1+0xd20>
    11d8:	00001537          	lui	a0,0x1
    11dc:	00a10533          	add	a0,sp,a0
    11e0:	ea053423          	sd	zero,-344(a0) # ea8 <.LBB19_1+0xd28>
    11e4:	00001537          	lui	a0,0x1
    11e8:	00a10533          	add	a0,sp,a0
    11ec:	ea053823          	sd	zero,-336(a0) # eb0 <.LBB19_1+0xd30>
    11f0:	00001537          	lui	a0,0x1
    11f4:	00a10533          	add	a0,sp,a0
    11f8:	ea053c23          	sd	zero,-328(a0) # eb8 <.LBB19_1+0xd38>
    11fc:	00001537          	lui	a0,0x1
    1200:	00a10533          	add	a0,sp,a0
    1204:	ec053023          	sd	zero,-320(a0) # ec0 <.LBB19_1+0xd40>
    1208:	00001537          	lui	a0,0x1
    120c:	00a10533          	add	a0,sp,a0
    1210:	ec053423          	sd	zero,-312(a0) # ec8 <.LBB19_1+0xd48>
    1214:	00001537          	lui	a0,0x1
    1218:	00a10533          	add	a0,sp,a0
    121c:	ec053823          	sd	zero,-304(a0) # ed0 <.LBB19_1+0xd50>
    1220:	00001537          	lui	a0,0x1
    1224:	00a10533          	add	a0,sp,a0
    1228:	ec053c23          	sd	zero,-296(a0) # ed8 <.LBB19_1+0xd58>
    122c:	7ff10513          	addi	a0,sp,2047
    1230:	6e150513          	addi	a0,a0,1761
    1234:	00052023          	sw	zero,0(a0)
    1238:	00001537          	lui	a0,0x1
    123c:	00a10533          	add	a0,sp,a0
    1240:	ee052223          	sw	zero,-284(a0) # ee4 <.LBB19_1+0xd64>
    1244:	00001537          	lui	a0,0x1
    1248:	00a10533          	add	a0,sp,a0
    124c:	ee053423          	sd	zero,-280(a0) # ee8 <.LBB19_1+0xd68>
    1250:	00001537          	lui	a0,0x1
    1254:	00a10533          	add	a0,sp,a0
    1258:	ee053823          	sd	zero,-272(a0) # ef0 <.LBB19_1+0xd70>
    125c:	00001537          	lui	a0,0x1
    1260:	00a10533          	add	a0,sp,a0
    1264:	ee053c23          	sd	zero,-264(a0) # ef8 <.LBB19_1+0xd78>
    1268:	00001537          	lui	a0,0x1
    126c:	00a10533          	add	a0,sp,a0
    1270:	f0053023          	sd	zero,-256(a0) # f00 <.LBB19_1+0xd80>
    1274:	00001537          	lui	a0,0x1
    1278:	00a10533          	add	a0,sp,a0
    127c:	f0053423          	sd	zero,-248(a0) # f08 <.LBB19_1+0xd88>
    1280:	00001537          	lui	a0,0x1
    1284:	00a10533          	add	a0,sp,a0
    1288:	f0053823          	sd	zero,-240(a0) # f10 <.LBB19_1+0xd90>
    128c:	00001537          	lui	a0,0x1
    1290:	00a10533          	add	a0,sp,a0
    1294:	f0053c23          	sd	zero,-232(a0) # f18 <.LBB19_1+0xd98>
    1298:	00001537          	lui	a0,0x1
    129c:	00a10533          	add	a0,sp,a0
    12a0:	f2053023          	sd	zero,-224(a0) # f20 <.LBB19_1+0xda0>
    12a4:	00001537          	lui	a0,0x1
    12a8:	00a10533          	add	a0,sp,a0
    12ac:	f2053423          	sd	zero,-216(a0) # f28 <.LBB19_1+0xda8>
    12b0:	00001537          	lui	a0,0x1
    12b4:	00a10533          	add	a0,sp,a0
    12b8:	f2053823          	sd	zero,-208(a0) # f30 <.LBB19_1+0xdb0>
    12bc:	00001537          	lui	a0,0x1
    12c0:	00a10533          	add	a0,sp,a0
    12c4:	f2053c23          	sd	zero,-200(a0) # f38 <.LBB19_1+0xdb8>
    12c8:	7ff10513          	addi	a0,sp,2047
    12cc:	74150513          	addi	a0,a0,1857
    12d0:	00052023          	sw	zero,0(a0)
    12d4:	00001537          	lui	a0,0x1
    12d8:	00a10533          	add	a0,sp,a0
    12dc:	f4052223          	sw	zero,-188(a0) # f44 <.LBB19_1+0xdc4>
    12e0:	00001537          	lui	a0,0x1
    12e4:	00a10533          	add	a0,sp,a0
    12e8:	f4053423          	sd	zero,-184(a0) # f48 <.LBB19_1+0xdc8>
    12ec:	00001537          	lui	a0,0x1
    12f0:	00a10533          	add	a0,sp,a0
    12f4:	f4053823          	sd	zero,-176(a0) # f50 <.LBB19_1+0xdd0>
    12f8:	00001537          	lui	a0,0x1
    12fc:	00a10533          	add	a0,sp,a0
    1300:	f4053c23          	sd	zero,-168(a0) # f58 <.LBB19_1+0xdd8>
    1304:	00001537          	lui	a0,0x1
    1308:	00a10533          	add	a0,sp,a0
    130c:	f6053023          	sd	zero,-160(a0) # f60 <.LBB19_1+0xde0>
    1310:	00001537          	lui	a0,0x1
    1314:	00a10533          	add	a0,sp,a0
    1318:	f6053423          	sd	zero,-152(a0) # f68 <.LBB19_1+0xde8>
    131c:	00001537          	lui	a0,0x1
    1320:	00a10533          	add	a0,sp,a0
    1324:	f6053823          	sd	zero,-144(a0) # f70 <.LBB19_1+0xdf0>
    1328:	00001537          	lui	a0,0x1
    132c:	00a10533          	add	a0,sp,a0
    1330:	f6053c23          	sd	zero,-136(a0) # f78 <.LBB19_1+0xdf8>
    1334:	00001537          	lui	a0,0x1
    1338:	00a10533          	add	a0,sp,a0
    133c:	f8053023          	sd	zero,-128(a0) # f80 <.LBB19_1+0xe00>
    1340:	00001537          	lui	a0,0x1
    1344:	00a10533          	add	a0,sp,a0
    1348:	f8053423          	sd	zero,-120(a0) # f88 <.LBB19_1+0xe08>
    134c:	00001537          	lui	a0,0x1
    1350:	00a10533          	add	a0,sp,a0
    1354:	f8053823          	sd	zero,-112(a0) # f90 <.LBB19_1+0xe10>
    1358:	00001537          	lui	a0,0x1
    135c:	00a10533          	add	a0,sp,a0
    1360:	f8053c23          	sd	zero,-104(a0) # f98 <.LBB19_1+0xe18>
    1364:	7ff10513          	addi	a0,sp,2047
    1368:	7a150513          	addi	a0,a0,1953
    136c:	00052023          	sw	zero,0(a0)
    1370:	00001537          	lui	a0,0x1
    1374:	00a10533          	add	a0,sp,a0
    1378:	fa052223          	sw	zero,-92(a0) # fa4 <.LBB19_1+0xe24>
    137c:	00001537          	lui	a0,0x1
    1380:	00a10533          	add	a0,sp,a0
    1384:	fa053423          	sd	zero,-88(a0) # fa8 <.LBB19_2>
    1388:	00001537          	lui	a0,0x1
    138c:	00a10533          	add	a0,sp,a0
    1390:	fa053823          	sd	zero,-80(a0) # fb0 <.LBB19_2+0x8>
    1394:	00001537          	lui	a0,0x1
    1398:	00a10533          	add	a0,sp,a0
    139c:	fa053c23          	sd	zero,-72(a0) # fb8 <.LBB19_2+0x10>
    13a0:	00001537          	lui	a0,0x1
    13a4:	00a10533          	add	a0,sp,a0
    13a8:	fc053023          	sd	zero,-64(a0) # fc0 <.LBB19_2+0x18>
    13ac:	00001537          	lui	a0,0x1
    13b0:	00a10533          	add	a0,sp,a0
    13b4:	fc053423          	sd	zero,-56(a0) # fc8 <.LBB19_2+0x20>
    13b8:	00001537          	lui	a0,0x1
    13bc:	00a10533          	add	a0,sp,a0
    13c0:	fc053823          	sd	zero,-48(a0) # fd0 <.LBB19_2+0x28>
    13c4:	00001537          	lui	a0,0x1
    13c8:	00a10533          	add	a0,sp,a0
    13cc:	fc053c23          	sd	zero,-40(a0) # fd8 <.LBB19_2+0x30>
    13d0:	00001537          	lui	a0,0x1
    13d4:	00a10533          	add	a0,sp,a0
    13d8:	fe053023          	sd	zero,-32(a0) # fe0 <.LBB19_2+0x38>
    13dc:	00001537          	lui	a0,0x1
    13e0:	00a10533          	add	a0,sp,a0
    13e4:	fe053423          	sd	zero,-24(a0) # fe8 <.LBB19_2+0x40>
    13e8:	00001537          	lui	a0,0x1
    13ec:	00a10533          	add	a0,sp,a0
    13f0:	fe053823          	sd	zero,-16(a0) # ff0 <.LBB19_2+0x48>
    13f4:	00001537          	lui	a0,0x1
    13f8:	00a10533          	add	a0,sp,a0
    13fc:	fe053c23          	sd	zero,-8(a0) # ff8 <.LBB19_2+0x50>
    1400:	00001537          	lui	a0,0x1
    1404:	00a10533          	add	a0,sp,a0
    1408:	00052023          	sw	zero,0(a0) # 1000 <.LBB19_2+0x58>
    140c:	00001537          	lui	a0,0x1
    1410:	00a10533          	add	a0,sp,a0
    1414:	00052223          	sw	zero,4(a0) # 1004 <.LBB19_2+0x5c>
    1418:	00001537          	lui	a0,0x1
    141c:	00a10533          	add	a0,sp,a0
    1420:	00053423          	sd	zero,8(a0) # 1008 <.LBB19_2+0x60>
    1424:	00001537          	lui	a0,0x1
    1428:	00a10533          	add	a0,sp,a0
    142c:	00053823          	sd	zero,16(a0) # 1010 <.LBB19_2+0x68>
    1430:	00001537          	lui	a0,0x1
    1434:	00a10533          	add	a0,sp,a0
    1438:	00053c23          	sd	zero,24(a0) # 1018 <.LBB19_2+0x70>
    143c:	00001537          	lui	a0,0x1
    1440:	00a10533          	add	a0,sp,a0
    1444:	02053023          	sd	zero,32(a0) # 1020 <.LBB19_2+0x78>
    1448:	00001537          	lui	a0,0x1
    144c:	00a10533          	add	a0,sp,a0
    1450:	02053423          	sd	zero,40(a0) # 1028 <.LBB19_2+0x80>
    1454:	00001537          	lui	a0,0x1
    1458:	00a10533          	add	a0,sp,a0
    145c:	02053823          	sd	zero,48(a0) # 1030 <.LBB19_2+0x88>
    1460:	00001537          	lui	a0,0x1
    1464:	00a10533          	add	a0,sp,a0
    1468:	02053c23          	sd	zero,56(a0) # 1038 <.LBB19_2+0x90>
    146c:	00001537          	lui	a0,0x1
    1470:	00a10533          	add	a0,sp,a0
    1474:	04053023          	sd	zero,64(a0) # 1040 <.LBB19_2+0x98>
    1478:	00001537          	lui	a0,0x1
    147c:	00a10533          	add	a0,sp,a0
    1480:	04053423          	sd	zero,72(a0) # 1048 <.LBB19_2+0xa0>
    1484:	00001537          	lui	a0,0x1
    1488:	00a10533          	add	a0,sp,a0
    148c:	04053823          	sd	zero,80(a0) # 1050 <.LBB19_2+0xa8>
    1490:	00001537          	lui	a0,0x1
    1494:	00a10533          	add	a0,sp,a0
    1498:	04053c23          	sd	zero,88(a0) # 1058 <.LBB19_2+0xb0>
    149c:	00001537          	lui	a0,0x1
    14a0:	0605051b          	addiw	a0,a0,96 # 1060 <.LBB19_2+0xb8>
    14a4:	00a10533          	add	a0,sp,a0
    14a8:	00052023          	sw	zero,0(a0)
    14ac:	00001537          	lui	a0,0x1
    14b0:	00a10533          	add	a0,sp,a0
    14b4:	06052223          	sw	zero,100(a0) # 1064 <.LBB19_2+0xbc>
    14b8:	00001537          	lui	a0,0x1
    14bc:	00a10533          	add	a0,sp,a0
    14c0:	06053423          	sd	zero,104(a0) # 1068 <.LBB19_2+0xc0>
    14c4:	00001537          	lui	a0,0x1
    14c8:	00a10533          	add	a0,sp,a0
    14cc:	06053823          	sd	zero,112(a0) # 1070 <.LBB19_2+0xc8>
    14d0:	00001537          	lui	a0,0x1
    14d4:	00a10533          	add	a0,sp,a0
    14d8:	06053c23          	sd	zero,120(a0) # 1078 <.LBB19_2+0xd0>
    14dc:	00001537          	lui	a0,0x1
    14e0:	00a10533          	add	a0,sp,a0
    14e4:	08053023          	sd	zero,128(a0) # 1080 <.LBB19_2+0xd8>
    14e8:	00001537          	lui	a0,0x1
    14ec:	00a10533          	add	a0,sp,a0
    14f0:	08053423          	sd	zero,136(a0) # 1088 <.LBB19_2+0xe0>
    14f4:	00001537          	lui	a0,0x1
    14f8:	00a10533          	add	a0,sp,a0
    14fc:	08053823          	sd	zero,144(a0) # 1090 <.LBB19_2+0xe8>
    1500:	00001537          	lui	a0,0x1
    1504:	00a10533          	add	a0,sp,a0
    1508:	08053c23          	sd	zero,152(a0) # 1098 <.LBB19_2+0xf0>
    150c:	00001537          	lui	a0,0x1
    1510:	00a10533          	add	a0,sp,a0
    1514:	0a053023          	sd	zero,160(a0) # 10a0 <.LBB19_2+0xf8>
    1518:	00001537          	lui	a0,0x1
    151c:	00a10533          	add	a0,sp,a0
    1520:	e1c52503          	lw	a0,-484(a0) # e1c <.LBB19_1+0xc9c>
    1524:	000015b7          	lui	a1,0x1
    1528:	00b105b3          	add	a1,sp,a1
    152c:	c4a5b823          	sd	a0,-944(a1) # c50 <.LBB19_1+0xad0>
    1530:	00001537          	lui	a0,0x1
    1534:	00a10533          	add	a0,sp,a0
    1538:	e1852503          	lw	a0,-488(a0) # e18 <.LBB19_1+0xc98>
    153c:	000015b7          	lui	a1,0x1
    1540:	00b105b3          	add	a1,sp,a1
    1544:	c0a5bc23          	sd	a0,-1000(a1) # c18 <.LBB19_1+0xa98>
    1548:	00001537          	lui	a0,0x1
    154c:	00a10533          	add	a0,sp,a0
    1550:	e1452503          	lw	a0,-492(a0) # e14 <.LBB19_1+0xc94>
    1554:	000015b7          	lui	a1,0x1
    1558:	00b105b3          	add	a1,sp,a1
    155c:	bea5b023          	sd	a0,-1056(a1) # be0 <.LBB19_1+0xa60>
    1560:	00001537          	lui	a0,0x1
    1564:	00a10533          	add	a0,sp,a0
    1568:	e1052503          	lw	a0,-496(a0) # e10 <.LBB19_1+0xc90>
    156c:	000015b7          	lui	a1,0x1
    1570:	00b105b3          	add	a1,sp,a1
    1574:	baa5b423          	sd	a0,-1112(a1) # ba8 <.LBB19_1+0xa28>
    1578:	00001537          	lui	a0,0x1
    157c:	00a10533          	add	a0,sp,a0
    1580:	e0c52503          	lw	a0,-500(a0) # e0c <.LBB19_1+0xc8c>
    1584:	000015b7          	lui	a1,0x1
    1588:	00b105b3          	add	a1,sp,a1
    158c:	b6a5b823          	sd	a0,-1168(a1) # b70 <.LBB19_1+0x9f0>
    1590:	00001537          	lui	a0,0x1
    1594:	00a10533          	add	a0,sp,a0
    1598:	e0852503          	lw	a0,-504(a0) # e08 <.LBB19_1+0xc88>
    159c:	000015b7          	lui	a1,0x1
    15a0:	00b105b3          	add	a1,sp,a1
    15a4:	b2a5bc23          	sd	a0,-1224(a1) # b38 <.LBB19_1+0x9b8>
    15a8:	00001537          	lui	a0,0x1
    15ac:	00a10533          	add	a0,sp,a0
    15b0:	e0452503          	lw	a0,-508(a0) # e04 <.LBB19_1+0xc84>
    15b4:	000015b7          	lui	a1,0x1
    15b8:	00b105b3          	add	a1,sp,a1
    15bc:	b0a5b023          	sd	a0,-1280(a1) # b00 <.LBB19_1+0x980>
    15c0:	00001537          	lui	a0,0x1
    15c4:	00a10533          	add	a0,sp,a0
    15c8:	e0052503          	lw	a0,-512(a0) # e00 <.LBB19_1+0xc80>
    15cc:	000015b7          	lui	a1,0x1
    15d0:	00b105b3          	add	a1,sp,a1
    15d4:	aca5b423          	sd	a0,-1336(a1) # ac8 <.LBB19_1+0x948>
    15d8:	00001537          	lui	a0,0x1
    15dc:	00a10533          	add	a0,sp,a0
    15e0:	dfc52503          	lw	a0,-516(a0) # dfc <.LBB19_1+0xc7c>
    15e4:	000015b7          	lui	a1,0x1
    15e8:	00b105b3          	add	a1,sp,a1
    15ec:	a8a5b823          	sd	a0,-1392(a1) # a90 <.LBB19_1+0x910>
    15f0:	00001537          	lui	a0,0x1
    15f4:	00a10533          	add	a0,sp,a0
    15f8:	df852503          	lw	a0,-520(a0) # df8 <.LBB19_1+0xc78>
    15fc:	000015b7          	lui	a1,0x1
    1600:	00b105b3          	add	a1,sp,a1
    1604:	a4a5bc23          	sd	a0,-1448(a1) # a58 <.LBB19_1+0x8d8>
    1608:	00001537          	lui	a0,0x1
    160c:	00a10533          	add	a0,sp,a0
    1610:	df452503          	lw	a0,-524(a0) # df4 <.LBB19_1+0xc74>
    1614:	000015b7          	lui	a1,0x1
    1618:	00b105b3          	add	a1,sp,a1
    161c:	a2a5b023          	sd	a0,-1504(a1) # a20 <.LBB19_1+0x8a0>
    1620:	00001537          	lui	a0,0x1
    1624:	00a10533          	add	a0,sp,a0
    1628:	df052503          	lw	a0,-528(a0) # df0 <.LBB19_1+0xc70>
    162c:	000015b7          	lui	a1,0x1
    1630:	00b105b3          	add	a1,sp,a1
    1634:	9ea5b423          	sd	a0,-1560(a1) # 9e8 <.LBB19_1+0x868>
    1638:	00001537          	lui	a0,0x1
    163c:	00a10533          	add	a0,sp,a0
    1640:	dec52503          	lw	a0,-532(a0) # dec <.LBB19_1+0xc6c>
    1644:	000015b7          	lui	a1,0x1
    1648:	00b105b3          	add	a1,sp,a1
    164c:	9aa5b823          	sd	a0,-1616(a1) # 9b0 <.LBB19_1+0x830>
    1650:	00001537          	lui	a0,0x1
    1654:	00a10533          	add	a0,sp,a0
    1658:	de852503          	lw	a0,-536(a0) # de8 <.LBB19_1+0xc68>
    165c:	000015b7          	lui	a1,0x1
    1660:	00b105b3          	add	a1,sp,a1
    1664:	96a5bc23          	sd	a0,-1672(a1) # 978 <.LBB19_1+0x7f8>
    1668:	00001537          	lui	a0,0x1
    166c:	00a10533          	add	a0,sp,a0
    1670:	de452503          	lw	a0,-540(a0) # de4 <.LBB19_1+0xc64>
    1674:	000015b7          	lui	a1,0x1
    1678:	00b105b3          	add	a1,sp,a1
    167c:	94a5b023          	sd	a0,-1728(a1) # 940 <.LBB19_1+0x7c0>
    1680:	00001537          	lui	a0,0x1
    1684:	00a10533          	add	a0,sp,a0
    1688:	de052503          	lw	a0,-544(a0) # de0 <.LBB19_1+0xc60>
    168c:	000015b7          	lui	a1,0x1
    1690:	00b105b3          	add	a1,sp,a1
    1694:	90a5b423          	sd	a0,-1784(a1) # 908 <.LBB19_1+0x788>
    1698:	00001537          	lui	a0,0x1
    169c:	00a10533          	add	a0,sp,a0
    16a0:	ddc52503          	lw	a0,-548(a0) # ddc <.LBB19_1+0xc5c>
    16a4:	000015b7          	lui	a1,0x1
    16a8:	00b105b3          	add	a1,sp,a1
    16ac:	8ca5b823          	sd	a0,-1840(a1) # 8d0 <.LBB19_1+0x750>
    16b0:	00001537          	lui	a0,0x1
    16b4:	00a10533          	add	a0,sp,a0
    16b8:	dd852503          	lw	a0,-552(a0) # dd8 <.LBB19_1+0xc58>
    16bc:	000015b7          	lui	a1,0x1
    16c0:	00b105b3          	add	a1,sp,a1
    16c4:	88a5bc23          	sd	a0,-1896(a1) # 898 <.LBB19_1+0x718>
    16c8:	00001537          	lui	a0,0x1
    16cc:	00a10533          	add	a0,sp,a0
    16d0:	dd452503          	lw	a0,-556(a0) # dd4 <.LBB19_1+0xc54>
    16d4:	000015b7          	lui	a1,0x1
    16d8:	00b105b3          	add	a1,sp,a1
    16dc:	86a5b023          	sd	a0,-1952(a1) # 860 <.LBB19_1+0x6e0>
    16e0:	00001537          	lui	a0,0x1
    16e4:	00a10533          	add	a0,sp,a0
    16e8:	dd052503          	lw	a0,-560(a0) # dd0 <.LBB19_1+0xc50>
    16ec:	000015b7          	lui	a1,0x1
    16f0:	00b105b3          	add	a1,sp,a1
    16f4:	82a5b423          	sd	a0,-2008(a1) # 828 <.LBB19_1+0x6a8>
    16f8:	00001537          	lui	a0,0x1
    16fc:	00a10533          	add	a0,sp,a0
    1700:	dcc52503          	lw	a0,-564(a0) # dcc <.LBB19_1+0xc4c>
    1704:	7ea13823          	sd	a0,2032(sp)
    1708:	00001537          	lui	a0,0x1
    170c:	00a10533          	add	a0,sp,a0
    1710:	dc852503          	lw	a0,-568(a0) # dc8 <.LBB19_1+0xc48>
    1714:	7aa13c23          	sd	a0,1976(sp)
    1718:	00001537          	lui	a0,0x1
    171c:	00a10533          	add	a0,sp,a0
    1720:	dc452503          	lw	a0,-572(a0) # dc4 <.LBB19_1+0xc44>
    1724:	78a13023          	sd	a0,1920(sp)
    1728:	00001537          	lui	a0,0x1
    172c:	00a10533          	add	a0,sp,a0
    1730:	dc052503          	lw	a0,-576(a0) # dc0 <.LBB19_1+0xc40>
    1734:	74a13423          	sd	a0,1864(sp)
    1738:	00001537          	lui	a0,0x1
    173c:	00a10533          	add	a0,sp,a0
    1740:	e7c52503          	lw	a0,-388(a0) # e7c <.LBB19_1+0xcfc>
    1744:	000015b7          	lui	a1,0x1
    1748:	00b105b3          	add	a1,sp,a1
    174c:	c4a5bc23          	sd	a0,-936(a1) # c58 <.LBB19_1+0xad8>
    1750:	00001537          	lui	a0,0x1
    1754:	00a10533          	add	a0,sp,a0
    1758:	e7852503          	lw	a0,-392(a0) # e78 <.LBB19_1+0xcf8>
    175c:	000015b7          	lui	a1,0x1
    1760:	00b105b3          	add	a1,sp,a1
    1764:	c2a5b023          	sd	a0,-992(a1) # c20 <.LBB19_1+0xaa0>
    1768:	00001537          	lui	a0,0x1
    176c:	00a10533          	add	a0,sp,a0
    1770:	e7452503          	lw	a0,-396(a0) # e74 <.LBB19_1+0xcf4>
    1774:	000015b7          	lui	a1,0x1
    1778:	00b105b3          	add	a1,sp,a1
    177c:	bea5b423          	sd	a0,-1048(a1) # be8 <.LBB19_1+0xa68>
    1780:	00001537          	lui	a0,0x1
    1784:	00a10533          	add	a0,sp,a0
    1788:	e7052503          	lw	a0,-400(a0) # e70 <.LBB19_1+0xcf0>
    178c:	000015b7          	lui	a1,0x1
    1790:	00b105b3          	add	a1,sp,a1
    1794:	baa5b823          	sd	a0,-1104(a1) # bb0 <.LBB19_1+0xa30>
    1798:	00001537          	lui	a0,0x1
    179c:	00a10533          	add	a0,sp,a0
    17a0:	e6c52503          	lw	a0,-404(a0) # e6c <.LBB19_1+0xcec>
    17a4:	000015b7          	lui	a1,0x1
    17a8:	00b105b3          	add	a1,sp,a1
    17ac:	b6a5bc23          	sd	a0,-1160(a1) # b78 <.LBB19_1+0x9f8>
    17b0:	00001537          	lui	a0,0x1
    17b4:	00a10533          	add	a0,sp,a0
    17b8:	e6852503          	lw	a0,-408(a0) # e68 <.LBB19_1+0xce8>
    17bc:	000015b7          	lui	a1,0x1
    17c0:	00b105b3          	add	a1,sp,a1
    17c4:	b4a5b023          	sd	a0,-1216(a1) # b40 <.LBB19_1+0x9c0>
    17c8:	00001537          	lui	a0,0x1
    17cc:	00a10533          	add	a0,sp,a0
    17d0:	e6452503          	lw	a0,-412(a0) # e64 <.LBB19_1+0xce4>
    17d4:	000015b7          	lui	a1,0x1
    17d8:	00b105b3          	add	a1,sp,a1
    17dc:	b0a5b423          	sd	a0,-1272(a1) # b08 <.LBB19_1+0x988>
    17e0:	00001537          	lui	a0,0x1
    17e4:	00a10533          	add	a0,sp,a0
    17e8:	e6052503          	lw	a0,-416(a0) # e60 <.LBB19_1+0xce0>
    17ec:	000015b7          	lui	a1,0x1
    17f0:	00b105b3          	add	a1,sp,a1
    17f4:	aca5b823          	sd	a0,-1328(a1) # ad0 <.LBB19_1+0x950>
    17f8:	00001537          	lui	a0,0x1
    17fc:	00a10533          	add	a0,sp,a0
    1800:	e5c52503          	lw	a0,-420(a0) # e5c <.LBB19_1+0xcdc>
    1804:	000015b7          	lui	a1,0x1
    1808:	00b105b3          	add	a1,sp,a1
    180c:	a8a5bc23          	sd	a0,-1384(a1) # a98 <.LBB19_1+0x918>
    1810:	00001537          	lui	a0,0x1
    1814:	00a10533          	add	a0,sp,a0
    1818:	e5852503          	lw	a0,-424(a0) # e58 <.LBB19_1+0xcd8>
    181c:	000015b7          	lui	a1,0x1
    1820:	00b105b3          	add	a1,sp,a1
    1824:	a6a5b023          	sd	a0,-1440(a1) # a60 <.LBB19_1+0x8e0>
    1828:	00001537          	lui	a0,0x1
    182c:	00a10533          	add	a0,sp,a0
    1830:	e5452503          	lw	a0,-428(a0) # e54 <.LBB19_1+0xcd4>
    1834:	000015b7          	lui	a1,0x1
    1838:	00b105b3          	add	a1,sp,a1
    183c:	a2a5b423          	sd	a0,-1496(a1) # a28 <.LBB19_1+0x8a8>
    1840:	00001537          	lui	a0,0x1
    1844:	00a10533          	add	a0,sp,a0
    1848:	e5052503          	lw	a0,-432(a0) # e50 <.LBB19_1+0xcd0>
    184c:	000015b7          	lui	a1,0x1
    1850:	00b105b3          	add	a1,sp,a1
    1854:	9ea5b823          	sd	a0,-1552(a1) # 9f0 <.LBB19_1+0x870>
    1858:	00001537          	lui	a0,0x1
    185c:	00a10533          	add	a0,sp,a0
    1860:	e4c52503          	lw	a0,-436(a0) # e4c <.LBB19_1+0xccc>
    1864:	000015b7          	lui	a1,0x1
    1868:	00b105b3          	add	a1,sp,a1
    186c:	9aa5bc23          	sd	a0,-1608(a1) # 9b8 <.LBB19_1+0x838>
    1870:	00001537          	lui	a0,0x1
    1874:	00a10533          	add	a0,sp,a0
    1878:	e4852503          	lw	a0,-440(a0) # e48 <.LBB19_1+0xcc8>
    187c:	000015b7          	lui	a1,0x1
    1880:	00b105b3          	add	a1,sp,a1
    1884:	98a5b023          	sd	a0,-1664(a1) # 980 <.LBB19_1+0x800>
    1888:	00001537          	lui	a0,0x1
    188c:	00a10533          	add	a0,sp,a0
    1890:	e4452503          	lw	a0,-444(a0) # e44 <.LBB19_1+0xcc4>
    1894:	000015b7          	lui	a1,0x1
    1898:	00b105b3          	add	a1,sp,a1
    189c:	94a5b423          	sd	a0,-1720(a1) # 948 <.LBB19_1+0x7c8>
    18a0:	00001537          	lui	a0,0x1
    18a4:	00a10533          	add	a0,sp,a0
    18a8:	e4052503          	lw	a0,-448(a0) # e40 <.LBB19_1+0xcc0>
    18ac:	000015b7          	lui	a1,0x1
    18b0:	00b105b3          	add	a1,sp,a1
    18b4:	90a5b823          	sd	a0,-1776(a1) # 910 <.LBB19_1+0x790>
    18b8:	00001537          	lui	a0,0x1
    18bc:	00a10533          	add	a0,sp,a0
    18c0:	e3c52503          	lw	a0,-452(a0) # e3c <.LBB19_1+0xcbc>
    18c4:	000015b7          	lui	a1,0x1
    18c8:	00b105b3          	add	a1,sp,a1
    18cc:	8ca5bc23          	sd	a0,-1832(a1) # 8d8 <.LBB19_1+0x758>
    18d0:	00001537          	lui	a0,0x1
    18d4:	00a10533          	add	a0,sp,a0
    18d8:	e3852503          	lw	a0,-456(a0) # e38 <.LBB19_1+0xcb8>
    18dc:	000015b7          	lui	a1,0x1
    18e0:	00b105b3          	add	a1,sp,a1
    18e4:	8aa5b023          	sd	a0,-1888(a1) # 8a0 <.LBB19_1+0x720>
    18e8:	00001537          	lui	a0,0x1
    18ec:	00a10533          	add	a0,sp,a0
    18f0:	e3452503          	lw	a0,-460(a0) # e34 <.LBB19_1+0xcb4>
    18f4:	000015b7          	lui	a1,0x1
    18f8:	00b105b3          	add	a1,sp,a1
    18fc:	86a5b423          	sd	a0,-1944(a1) # 868 <.LBB19_1+0x6e8>
    1900:	00001537          	lui	a0,0x1
    1904:	00a10533          	add	a0,sp,a0
    1908:	e3052503          	lw	a0,-464(a0) # e30 <.LBB19_1+0xcb0>
    190c:	000015b7          	lui	a1,0x1
    1910:	00b105b3          	add	a1,sp,a1
    1914:	82a5b823          	sd	a0,-2000(a1) # 830 <.LBB19_1+0x6b0>
    1918:	00001537          	lui	a0,0x1
    191c:	00a10533          	add	a0,sp,a0
    1920:	e2c52503          	lw	a0,-468(a0) # e2c <.LBB19_1+0xcac>
    1924:	7ea13c23          	sd	a0,2040(sp)
    1928:	00001537          	lui	a0,0x1
    192c:	00a10533          	add	a0,sp,a0
    1930:	e2852503          	lw	a0,-472(a0) # e28 <.LBB19_1+0xca8>
    1934:	7ca13023          	sd	a0,1984(sp)
    1938:	00001537          	lui	a0,0x1
    193c:	00a10533          	add	a0,sp,a0
    1940:	e2452503          	lw	a0,-476(a0) # e24 <.LBB19_1+0xca4>
    1944:	78a13423          	sd	a0,1928(sp)
    1948:	00001537          	lui	a0,0x1
    194c:	00a10533          	add	a0,sp,a0
    1950:	e2052503          	lw	a0,-480(a0) # e20 <.LBB19_1+0xca0>
    1954:	74a13823          	sd	a0,1872(sp)
    1958:	00001537          	lui	a0,0x1
    195c:	00a10533          	add	a0,sp,a0
    1960:	edc52503          	lw	a0,-292(a0) # edc <.LBB19_1+0xd5c>
    1964:	000015b7          	lui	a1,0x1
    1968:	00b105b3          	add	a1,sp,a1
    196c:	c6a5b023          	sd	a0,-928(a1) # c60 <.LBB19_1+0xae0>
    1970:	00001537          	lui	a0,0x1
    1974:	00a10533          	add	a0,sp,a0
    1978:	ed852503          	lw	a0,-296(a0) # ed8 <.LBB19_1+0xd58>
    197c:	000015b7          	lui	a1,0x1
    1980:	00b105b3          	add	a1,sp,a1
    1984:	c2a5b423          	sd	a0,-984(a1) # c28 <.LBB19_1+0xaa8>
    1988:	00001537          	lui	a0,0x1
    198c:	00a10533          	add	a0,sp,a0
    1990:	ed452503          	lw	a0,-300(a0) # ed4 <.LBB19_1+0xd54>
    1994:	000015b7          	lui	a1,0x1
    1998:	00b105b3          	add	a1,sp,a1
    199c:	bea5b823          	sd	a0,-1040(a1) # bf0 <.LBB19_1+0xa70>
    19a0:	00001537          	lui	a0,0x1
    19a4:	00a10533          	add	a0,sp,a0
    19a8:	ed052503          	lw	a0,-304(a0) # ed0 <.LBB19_1+0xd50>
    19ac:	000015b7          	lui	a1,0x1
    19b0:	00b105b3          	add	a1,sp,a1
    19b4:	baa5bc23          	sd	a0,-1096(a1) # bb8 <.LBB19_1+0xa38>
    19b8:	00001537          	lui	a0,0x1
    19bc:	00a10533          	add	a0,sp,a0
    19c0:	ecc52503          	lw	a0,-308(a0) # ecc <.LBB19_1+0xd4c>
    19c4:	000015b7          	lui	a1,0x1
    19c8:	00b105b3          	add	a1,sp,a1
    19cc:	b8a5b023          	sd	a0,-1152(a1) # b80 <.LBB19_1+0xa00>
    19d0:	00001537          	lui	a0,0x1
    19d4:	00a10533          	add	a0,sp,a0
    19d8:	ec852503          	lw	a0,-312(a0) # ec8 <.LBB19_1+0xd48>
    19dc:	000015b7          	lui	a1,0x1
    19e0:	00b105b3          	add	a1,sp,a1
    19e4:	b4a5b423          	sd	a0,-1208(a1) # b48 <.LBB19_1+0x9c8>
    19e8:	00001537          	lui	a0,0x1
    19ec:	00a10533          	add	a0,sp,a0
    19f0:	ec452503          	lw	a0,-316(a0) # ec4 <.LBB19_1+0xd44>
    19f4:	000015b7          	lui	a1,0x1
    19f8:	00b105b3          	add	a1,sp,a1
    19fc:	b0a5b823          	sd	a0,-1264(a1) # b10 <.LBB19_1+0x990>
    1a00:	00001537          	lui	a0,0x1
    1a04:	00a10533          	add	a0,sp,a0
    1a08:	ec052503          	lw	a0,-320(a0) # ec0 <.LBB19_1+0xd40>
    1a0c:	000015b7          	lui	a1,0x1
    1a10:	00b105b3          	add	a1,sp,a1
    1a14:	aca5bc23          	sd	a0,-1320(a1) # ad8 <.LBB19_1+0x958>
    1a18:	00001537          	lui	a0,0x1
    1a1c:	00a10533          	add	a0,sp,a0
    1a20:	ebc52503          	lw	a0,-324(a0) # ebc <.LBB19_1+0xd3c>
    1a24:	000015b7          	lui	a1,0x1
    1a28:	00b105b3          	add	a1,sp,a1
    1a2c:	aaa5b023          	sd	a0,-1376(a1) # aa0 <.LBB19_1+0x920>
    1a30:	00001537          	lui	a0,0x1
    1a34:	00a10533          	add	a0,sp,a0
    1a38:	eb852503          	lw	a0,-328(a0) # eb8 <.LBB19_1+0xd38>
    1a3c:	000015b7          	lui	a1,0x1
    1a40:	00b105b3          	add	a1,sp,a1
    1a44:	a6a5b423          	sd	a0,-1432(a1) # a68 <.LBB19_1+0x8e8>
    1a48:	00001537          	lui	a0,0x1
    1a4c:	00a10533          	add	a0,sp,a0
    1a50:	eb452503          	lw	a0,-332(a0) # eb4 <.LBB19_1+0xd34>
    1a54:	000015b7          	lui	a1,0x1
    1a58:	00b105b3          	add	a1,sp,a1
    1a5c:	a2a5b823          	sd	a0,-1488(a1) # a30 <.LBB19_1+0x8b0>
    1a60:	00001537          	lui	a0,0x1
    1a64:	00a10533          	add	a0,sp,a0
    1a68:	eb052503          	lw	a0,-336(a0) # eb0 <.LBB19_1+0xd30>
    1a6c:	000015b7          	lui	a1,0x1
    1a70:	00b105b3          	add	a1,sp,a1
    1a74:	9ea5bc23          	sd	a0,-1544(a1) # 9f8 <.LBB19_1+0x878>
    1a78:	00001537          	lui	a0,0x1
    1a7c:	00a10533          	add	a0,sp,a0
    1a80:	eac52503          	lw	a0,-340(a0) # eac <.LBB19_1+0xd2c>
    1a84:	000015b7          	lui	a1,0x1
    1a88:	00b105b3          	add	a1,sp,a1
    1a8c:	9ca5b023          	sd	a0,-1600(a1) # 9c0 <.LBB19_1+0x840>
    1a90:	00001537          	lui	a0,0x1
    1a94:	00a10533          	add	a0,sp,a0
    1a98:	ea852503          	lw	a0,-344(a0) # ea8 <.LBB19_1+0xd28>
    1a9c:	000015b7          	lui	a1,0x1
    1aa0:	00b105b3          	add	a1,sp,a1
    1aa4:	98a5b423          	sd	a0,-1656(a1) # 988 <.LBB19_1+0x808>
    1aa8:	00001537          	lui	a0,0x1
    1aac:	00a10533          	add	a0,sp,a0
    1ab0:	ea452503          	lw	a0,-348(a0) # ea4 <.LBB19_1+0xd24>
    1ab4:	000015b7          	lui	a1,0x1
    1ab8:	00b105b3          	add	a1,sp,a1
    1abc:	94a5b823          	sd	a0,-1712(a1) # 950 <.LBB19_1+0x7d0>
    1ac0:	00001537          	lui	a0,0x1
    1ac4:	00a10533          	add	a0,sp,a0
    1ac8:	ea052503          	lw	a0,-352(a0) # ea0 <.LBB19_1+0xd20>
    1acc:	000015b7          	lui	a1,0x1
    1ad0:	00b105b3          	add	a1,sp,a1
    1ad4:	90a5bc23          	sd	a0,-1768(a1) # 918 <.LBB19_1+0x798>
    1ad8:	00001537          	lui	a0,0x1
    1adc:	00a10533          	add	a0,sp,a0
    1ae0:	e9c52503          	lw	a0,-356(a0) # e9c <.LBB19_1+0xd1c>
    1ae4:	000015b7          	lui	a1,0x1
    1ae8:	00b105b3          	add	a1,sp,a1
    1aec:	8ea5b023          	sd	a0,-1824(a1) # 8e0 <.LBB19_1+0x760>
    1af0:	00001537          	lui	a0,0x1
    1af4:	00a10533          	add	a0,sp,a0
    1af8:	e9852503          	lw	a0,-360(a0) # e98 <.LBB19_1+0xd18>
    1afc:	000015b7          	lui	a1,0x1
    1b00:	00b105b3          	add	a1,sp,a1
    1b04:	8aa5b423          	sd	a0,-1880(a1) # 8a8 <.LBB19_1+0x728>
    1b08:	00001537          	lui	a0,0x1
    1b0c:	00a10533          	add	a0,sp,a0
    1b10:	e9452503          	lw	a0,-364(a0) # e94 <.LBB19_1+0xd14>
    1b14:	000015b7          	lui	a1,0x1
    1b18:	00b105b3          	add	a1,sp,a1
    1b1c:	86a5b823          	sd	a0,-1936(a1) # 870 <.LBB19_1+0x6f0>
    1b20:	00001537          	lui	a0,0x1
    1b24:	00a10533          	add	a0,sp,a0
    1b28:	e9052503          	lw	a0,-368(a0) # e90 <.LBB19_1+0xd10>
    1b2c:	000015b7          	lui	a1,0x1
    1b30:	00b105b3          	add	a1,sp,a1
    1b34:	82a5bc23          	sd	a0,-1992(a1) # 838 <.LBB19_1+0x6b8>
    1b38:	00001537          	lui	a0,0x1
    1b3c:	00a10533          	add	a0,sp,a0
    1b40:	e8c52503          	lw	a0,-372(a0) # e8c <.LBB19_1+0xd0c>
    1b44:	000015b7          	lui	a1,0x1
    1b48:	00b105b3          	add	a1,sp,a1
    1b4c:	80a5b023          	sd	a0,-2048(a1) # 800 <.LBB19_1+0x680>
    1b50:	00001537          	lui	a0,0x1
    1b54:	00a10533          	add	a0,sp,a0
    1b58:	e8852503          	lw	a0,-376(a0) # e88 <.LBB19_1+0xd08>
    1b5c:	7ca13423          	sd	a0,1992(sp)
    1b60:	00001537          	lui	a0,0x1
    1b64:	00a10533          	add	a0,sp,a0
    1b68:	e8452503          	lw	a0,-380(a0) # e84 <.LBB19_1+0xd04>
    1b6c:	78a13823          	sd	a0,1936(sp)
    1b70:	00001537          	lui	a0,0x1
    1b74:	00a10533          	add	a0,sp,a0
    1b78:	e8052503          	lw	a0,-384(a0) # e80 <.LBB19_1+0xd00>
    1b7c:	74a13c23          	sd	a0,1880(sp)
    1b80:	00001537          	lui	a0,0x1
    1b84:	00a10533          	add	a0,sp,a0
    1b88:	f3c52503          	lw	a0,-196(a0) # f3c <.LBB19_1+0xdbc>
    1b8c:	000015b7          	lui	a1,0x1
    1b90:	00b105b3          	add	a1,sp,a1
    1b94:	c6a5b423          	sd	a0,-920(a1) # c68 <.LBB19_1+0xae8>
    1b98:	00001537          	lui	a0,0x1
    1b9c:	00a10533          	add	a0,sp,a0
    1ba0:	f3852503          	lw	a0,-200(a0) # f38 <.LBB19_1+0xdb8>
    1ba4:	000015b7          	lui	a1,0x1
    1ba8:	00b105b3          	add	a1,sp,a1
    1bac:	c2a5b823          	sd	a0,-976(a1) # c30 <.LBB19_1+0xab0>
    1bb0:	00001537          	lui	a0,0x1
    1bb4:	00a10533          	add	a0,sp,a0
    1bb8:	f3452503          	lw	a0,-204(a0) # f34 <.LBB19_1+0xdb4>
    1bbc:	000015b7          	lui	a1,0x1
    1bc0:	00b105b3          	add	a1,sp,a1
    1bc4:	bea5bc23          	sd	a0,-1032(a1) # bf8 <.LBB19_1+0xa78>
    1bc8:	00001537          	lui	a0,0x1
    1bcc:	00a10533          	add	a0,sp,a0
    1bd0:	f3052503          	lw	a0,-208(a0) # f30 <.LBB19_1+0xdb0>
    1bd4:	000015b7          	lui	a1,0x1
    1bd8:	00b105b3          	add	a1,sp,a1
    1bdc:	bca5b023          	sd	a0,-1088(a1) # bc0 <.LBB19_1+0xa40>
    1be0:	00001537          	lui	a0,0x1
    1be4:	00a10533          	add	a0,sp,a0
    1be8:	f2c52503          	lw	a0,-212(a0) # f2c <.LBB19_1+0xdac>
    1bec:	000015b7          	lui	a1,0x1
    1bf0:	00b105b3          	add	a1,sp,a1
    1bf4:	b8a5b423          	sd	a0,-1144(a1) # b88 <.LBB19_1+0xa08>
    1bf8:	00001537          	lui	a0,0x1
    1bfc:	00a10533          	add	a0,sp,a0
    1c00:	f2852503          	lw	a0,-216(a0) # f28 <.LBB19_1+0xda8>
    1c04:	000015b7          	lui	a1,0x1
    1c08:	00b105b3          	add	a1,sp,a1
    1c0c:	b4a5b823          	sd	a0,-1200(a1) # b50 <.LBB19_1+0x9d0>
    1c10:	00001537          	lui	a0,0x1
    1c14:	00a10533          	add	a0,sp,a0
    1c18:	f2452503          	lw	a0,-220(a0) # f24 <.LBB19_1+0xda4>
    1c1c:	000015b7          	lui	a1,0x1
    1c20:	00b105b3          	add	a1,sp,a1
    1c24:	b0a5bc23          	sd	a0,-1256(a1) # b18 <.LBB19_1+0x998>
    1c28:	00001537          	lui	a0,0x1
    1c2c:	00a10533          	add	a0,sp,a0
    1c30:	f2052503          	lw	a0,-224(a0) # f20 <.LBB19_1+0xda0>
    1c34:	000015b7          	lui	a1,0x1
    1c38:	00b105b3          	add	a1,sp,a1
    1c3c:	aea5b023          	sd	a0,-1312(a1) # ae0 <.LBB19_1+0x960>
    1c40:	00001537          	lui	a0,0x1
    1c44:	00a10533          	add	a0,sp,a0
    1c48:	f1c52503          	lw	a0,-228(a0) # f1c <.LBB19_1+0xd9c>
    1c4c:	000015b7          	lui	a1,0x1
    1c50:	00b105b3          	add	a1,sp,a1
    1c54:	aaa5b423          	sd	a0,-1368(a1) # aa8 <.LBB19_1+0x928>
    1c58:	00001537          	lui	a0,0x1
    1c5c:	00a10533          	add	a0,sp,a0
    1c60:	f1852503          	lw	a0,-232(a0) # f18 <.LBB19_1+0xd98>
    1c64:	000015b7          	lui	a1,0x1
    1c68:	00b105b3          	add	a1,sp,a1
    1c6c:	a6a5b823          	sd	a0,-1424(a1) # a70 <.LBB19_1+0x8f0>
    1c70:	00001537          	lui	a0,0x1
    1c74:	00a10533          	add	a0,sp,a0
    1c78:	f1452503          	lw	a0,-236(a0) # f14 <.LBB19_1+0xd94>
    1c7c:	000015b7          	lui	a1,0x1
    1c80:	00b105b3          	add	a1,sp,a1
    1c84:	a2a5bc23          	sd	a0,-1480(a1) # a38 <.LBB19_1+0x8b8>
    1c88:	00001537          	lui	a0,0x1
    1c8c:	00a10533          	add	a0,sp,a0
    1c90:	f1052503          	lw	a0,-240(a0) # f10 <.LBB19_1+0xd90>
    1c94:	000015b7          	lui	a1,0x1
    1c98:	00b105b3          	add	a1,sp,a1
    1c9c:	a0a5b023          	sd	a0,-1536(a1) # a00 <.LBB19_1+0x880>
    1ca0:	00001537          	lui	a0,0x1
    1ca4:	00a10533          	add	a0,sp,a0
    1ca8:	f0c52503          	lw	a0,-244(a0) # f0c <.LBB19_1+0xd8c>
    1cac:	000015b7          	lui	a1,0x1
    1cb0:	00b105b3          	add	a1,sp,a1
    1cb4:	9ca5b423          	sd	a0,-1592(a1) # 9c8 <.LBB19_1+0x848>
    1cb8:	00001537          	lui	a0,0x1
    1cbc:	00a10533          	add	a0,sp,a0
    1cc0:	f0852503          	lw	a0,-248(a0) # f08 <.LBB19_1+0xd88>
    1cc4:	000015b7          	lui	a1,0x1
    1cc8:	00b105b3          	add	a1,sp,a1
    1ccc:	98a5b823          	sd	a0,-1648(a1) # 990 <.LBB19_1+0x810>
    1cd0:	00001537          	lui	a0,0x1
    1cd4:	00a10533          	add	a0,sp,a0
    1cd8:	f0452503          	lw	a0,-252(a0) # f04 <.LBB19_1+0xd84>
    1cdc:	000015b7          	lui	a1,0x1
    1ce0:	00b105b3          	add	a1,sp,a1
    1ce4:	94a5bc23          	sd	a0,-1704(a1) # 958 <.LBB19_1+0x7d8>
    1ce8:	00001537          	lui	a0,0x1
    1cec:	00a10533          	add	a0,sp,a0
    1cf0:	f0052503          	lw	a0,-256(a0) # f00 <.LBB19_1+0xd80>
    1cf4:	000015b7          	lui	a1,0x1
    1cf8:	00b105b3          	add	a1,sp,a1
    1cfc:	92a5b023          	sd	a0,-1760(a1) # 920 <.LBB19_1+0x7a0>
    1d00:	00001537          	lui	a0,0x1
    1d04:	00a10533          	add	a0,sp,a0
    1d08:	efc52503          	lw	a0,-260(a0) # efc <.LBB19_1+0xd7c>
    1d0c:	000015b7          	lui	a1,0x1
    1d10:	00b105b3          	add	a1,sp,a1
    1d14:	8ea5b423          	sd	a0,-1816(a1) # 8e8 <.LBB19_1+0x768>
    1d18:	00001537          	lui	a0,0x1
    1d1c:	00a10533          	add	a0,sp,a0
    1d20:	ef852503          	lw	a0,-264(a0) # ef8 <.LBB19_1+0xd78>
    1d24:	000015b7          	lui	a1,0x1
    1d28:	00b105b3          	add	a1,sp,a1
    1d2c:	8aa5b823          	sd	a0,-1872(a1) # 8b0 <.LBB19_1+0x730>
    1d30:	00001537          	lui	a0,0x1
    1d34:	00a10533          	add	a0,sp,a0
    1d38:	ef452503          	lw	a0,-268(a0) # ef4 <.LBB19_1+0xd74>
    1d3c:	000015b7          	lui	a1,0x1
    1d40:	00b105b3          	add	a1,sp,a1
    1d44:	86a5bc23          	sd	a0,-1928(a1) # 878 <.LBB19_1+0x6f8>
    1d48:	00001537          	lui	a0,0x1
    1d4c:	00a10533          	add	a0,sp,a0
    1d50:	ef052503          	lw	a0,-272(a0) # ef0 <.LBB19_1+0xd70>
    1d54:	000015b7          	lui	a1,0x1
    1d58:	00b105b3          	add	a1,sp,a1
    1d5c:	84a5b023          	sd	a0,-1984(a1) # 840 <.LBB19_1+0x6c0>
    1d60:	00001537          	lui	a0,0x1
    1d64:	00a10533          	add	a0,sp,a0
    1d68:	eec52503          	lw	a0,-276(a0) # eec <.LBB19_1+0xd6c>
    1d6c:	000015b7          	lui	a1,0x1
    1d70:	00b105b3          	add	a1,sp,a1
    1d74:	80a5b423          	sd	a0,-2040(a1) # 808 <.LBB19_1+0x688>
    1d78:	00001537          	lui	a0,0x1
    1d7c:	00a10533          	add	a0,sp,a0
    1d80:	ee852503          	lw	a0,-280(a0) # ee8 <.LBB19_1+0xd68>
    1d84:	7ca13823          	sd	a0,2000(sp)
    1d88:	00001537          	lui	a0,0x1
    1d8c:	00a10533          	add	a0,sp,a0
    1d90:	ee452503          	lw	a0,-284(a0) # ee4 <.LBB19_1+0xd64>
    1d94:	78a13c23          	sd	a0,1944(sp)
    1d98:	00001537          	lui	a0,0x1
    1d9c:	00a10533          	add	a0,sp,a0
    1da0:	ee052503          	lw	a0,-288(a0) # ee0 <.LBB19_1+0xd60>
    1da4:	76a13023          	sd	a0,1888(sp)
    1da8:	00001537          	lui	a0,0x1
    1dac:	00a10533          	add	a0,sp,a0
    1db0:	f9c52503          	lw	a0,-100(a0) # f9c <.LBB19_1+0xe1c>
    1db4:	000015b7          	lui	a1,0x1
    1db8:	00b105b3          	add	a1,sp,a1
    1dbc:	c6a5b823          	sd	a0,-912(a1) # c70 <.LBB19_1+0xaf0>
    1dc0:	00001537          	lui	a0,0x1
    1dc4:	00a10533          	add	a0,sp,a0
    1dc8:	f9852503          	lw	a0,-104(a0) # f98 <.LBB19_1+0xe18>
    1dcc:	000015b7          	lui	a1,0x1
    1dd0:	00b105b3          	add	a1,sp,a1
    1dd4:	c2a5bc23          	sd	a0,-968(a1) # c38 <.LBB19_1+0xab8>
    1dd8:	00001537          	lui	a0,0x1
    1ddc:	00a10533          	add	a0,sp,a0
    1de0:	f9452503          	lw	a0,-108(a0) # f94 <.LBB19_1+0xe14>
    1de4:	000015b7          	lui	a1,0x1
    1de8:	00b105b3          	add	a1,sp,a1
    1dec:	c0a5b023          	sd	a0,-1024(a1) # c00 <.LBB19_1+0xa80>
    1df0:	00001537          	lui	a0,0x1
    1df4:	00a10533          	add	a0,sp,a0
    1df8:	f9052503          	lw	a0,-112(a0) # f90 <.LBB19_1+0xe10>
    1dfc:	000015b7          	lui	a1,0x1
    1e00:	00b105b3          	add	a1,sp,a1
    1e04:	bca5b423          	sd	a0,-1080(a1) # bc8 <.LBB19_1+0xa48>
    1e08:	00001537          	lui	a0,0x1
    1e0c:	00a10533          	add	a0,sp,a0
    1e10:	f8c52503          	lw	a0,-116(a0) # f8c <.LBB19_1+0xe0c>
    1e14:	000015b7          	lui	a1,0x1
    1e18:	00b105b3          	add	a1,sp,a1
    1e1c:	b8a5b823          	sd	a0,-1136(a1) # b90 <.LBB19_1+0xa10>
    1e20:	00001537          	lui	a0,0x1
    1e24:	00a10533          	add	a0,sp,a0
    1e28:	f8852503          	lw	a0,-120(a0) # f88 <.LBB19_1+0xe08>
    1e2c:	000015b7          	lui	a1,0x1
    1e30:	00b105b3          	add	a1,sp,a1
    1e34:	b4a5bc23          	sd	a0,-1192(a1) # b58 <.LBB19_1+0x9d8>
    1e38:	00001537          	lui	a0,0x1
    1e3c:	00a10533          	add	a0,sp,a0
    1e40:	f8452503          	lw	a0,-124(a0) # f84 <.LBB19_1+0xe04>
    1e44:	000015b7          	lui	a1,0x1
    1e48:	00b105b3          	add	a1,sp,a1
    1e4c:	b2a5b023          	sd	a0,-1248(a1) # b20 <.LBB19_1+0x9a0>
    1e50:	00001537          	lui	a0,0x1
    1e54:	00a10533          	add	a0,sp,a0
    1e58:	f8052503          	lw	a0,-128(a0) # f80 <.LBB19_1+0xe00>
    1e5c:	000015b7          	lui	a1,0x1
    1e60:	00b105b3          	add	a1,sp,a1
    1e64:	aea5b423          	sd	a0,-1304(a1) # ae8 <.LBB19_1+0x968>
    1e68:	00001537          	lui	a0,0x1
    1e6c:	00a10533          	add	a0,sp,a0
    1e70:	f7c52503          	lw	a0,-132(a0) # f7c <.LBB19_1+0xdfc>
    1e74:	000015b7          	lui	a1,0x1
    1e78:	00b105b3          	add	a1,sp,a1
    1e7c:	aaa5b823          	sd	a0,-1360(a1) # ab0 <.LBB19_1+0x930>
    1e80:	00001537          	lui	a0,0x1
    1e84:	00a10533          	add	a0,sp,a0
    1e88:	f7852503          	lw	a0,-136(a0) # f78 <.LBB19_1+0xdf8>
    1e8c:	000015b7          	lui	a1,0x1
    1e90:	00b105b3          	add	a1,sp,a1
    1e94:	a6a5bc23          	sd	a0,-1416(a1) # a78 <.LBB19_1+0x8f8>
    1e98:	00001537          	lui	a0,0x1
    1e9c:	00a10533          	add	a0,sp,a0
    1ea0:	f7452503          	lw	a0,-140(a0) # f74 <.LBB19_1+0xdf4>
    1ea4:	000015b7          	lui	a1,0x1
    1ea8:	00b105b3          	add	a1,sp,a1
    1eac:	a4a5b023          	sd	a0,-1472(a1) # a40 <.LBB19_1+0x8c0>
    1eb0:	00001537          	lui	a0,0x1
    1eb4:	00a10533          	add	a0,sp,a0
    1eb8:	f7052503          	lw	a0,-144(a0) # f70 <.LBB19_1+0xdf0>
    1ebc:	000015b7          	lui	a1,0x1
    1ec0:	00b105b3          	add	a1,sp,a1
    1ec4:	a0a5b423          	sd	a0,-1528(a1) # a08 <.LBB19_1+0x888>
    1ec8:	00001537          	lui	a0,0x1
    1ecc:	00a10533          	add	a0,sp,a0
    1ed0:	f6c52503          	lw	a0,-148(a0) # f6c <.LBB19_1+0xdec>
    1ed4:	000015b7          	lui	a1,0x1
    1ed8:	00b105b3          	add	a1,sp,a1
    1edc:	9ca5b823          	sd	a0,-1584(a1) # 9d0 <.LBB19_1+0x850>
    1ee0:	00001537          	lui	a0,0x1
    1ee4:	00a10533          	add	a0,sp,a0
    1ee8:	f6852503          	lw	a0,-152(a0) # f68 <.LBB19_1+0xde8>
    1eec:	000015b7          	lui	a1,0x1
    1ef0:	00b105b3          	add	a1,sp,a1
    1ef4:	98a5bc23          	sd	a0,-1640(a1) # 998 <.LBB19_1+0x818>
    1ef8:	00001537          	lui	a0,0x1
    1efc:	00a10533          	add	a0,sp,a0
    1f00:	f6452503          	lw	a0,-156(a0) # f64 <.LBB19_1+0xde4>
    1f04:	000015b7          	lui	a1,0x1
    1f08:	00b105b3          	add	a1,sp,a1
    1f0c:	96a5b023          	sd	a0,-1696(a1) # 960 <.LBB19_1+0x7e0>
    1f10:	00001537          	lui	a0,0x1
    1f14:	00a10533          	add	a0,sp,a0
    1f18:	f6052503          	lw	a0,-160(a0) # f60 <.LBB19_1+0xde0>
    1f1c:	000015b7          	lui	a1,0x1
    1f20:	00b105b3          	add	a1,sp,a1
    1f24:	92a5b423          	sd	a0,-1752(a1) # 928 <.LBB19_1+0x7a8>
    1f28:	00001537          	lui	a0,0x1
    1f2c:	00a10533          	add	a0,sp,a0
    1f30:	f5c52503          	lw	a0,-164(a0) # f5c <.LBB19_1+0xddc>
    1f34:	000015b7          	lui	a1,0x1
    1f38:	00b105b3          	add	a1,sp,a1
    1f3c:	8ea5b823          	sd	a0,-1808(a1) # 8f0 <.LBB19_1+0x770>
    1f40:	00001537          	lui	a0,0x1
    1f44:	00a10533          	add	a0,sp,a0
    1f48:	f5852503          	lw	a0,-168(a0) # f58 <.LBB19_1+0xdd8>
    1f4c:	000015b7          	lui	a1,0x1
    1f50:	00b105b3          	add	a1,sp,a1
    1f54:	8aa5bc23          	sd	a0,-1864(a1) # 8b8 <.LBB19_1+0x738>
    1f58:	00001537          	lui	a0,0x1
    1f5c:	00a10533          	add	a0,sp,a0
    1f60:	f5452503          	lw	a0,-172(a0) # f54 <.LBB19_1+0xdd4>
    1f64:	000015b7          	lui	a1,0x1
    1f68:	00b105b3          	add	a1,sp,a1
    1f6c:	88a5b023          	sd	a0,-1920(a1) # 880 <.LBB19_1+0x700>
    1f70:	00001537          	lui	a0,0x1
    1f74:	00a10533          	add	a0,sp,a0
    1f78:	f5052503          	lw	a0,-176(a0) # f50 <.LBB19_1+0xdd0>
    1f7c:	000015b7          	lui	a1,0x1
    1f80:	00b105b3          	add	a1,sp,a1
    1f84:	84a5b423          	sd	a0,-1976(a1) # 848 <.LBB19_1+0x6c8>
    1f88:	00001537          	lui	a0,0x1
    1f8c:	00a10533          	add	a0,sp,a0
    1f90:	f4c52503          	lw	a0,-180(a0) # f4c <.LBB19_1+0xdcc>
    1f94:	000015b7          	lui	a1,0x1
    1f98:	00b105b3          	add	a1,sp,a1
    1f9c:	80a5b823          	sd	a0,-2032(a1) # 810 <.LBB19_1+0x690>
    1fa0:	00001537          	lui	a0,0x1
    1fa4:	00a10533          	add	a0,sp,a0
    1fa8:	f4852503          	lw	a0,-184(a0) # f48 <.LBB19_1+0xdc8>
    1fac:	7ca13c23          	sd	a0,2008(sp)
    1fb0:	00001537          	lui	a0,0x1
    1fb4:	00a10533          	add	a0,sp,a0
    1fb8:	f4452503          	lw	a0,-188(a0) # f44 <.LBB19_1+0xdc4>
    1fbc:	7aa13023          	sd	a0,1952(sp)
    1fc0:	00001537          	lui	a0,0x1
    1fc4:	00a10533          	add	a0,sp,a0
    1fc8:	f4052503          	lw	a0,-192(a0) # f40 <.LBB19_1+0xdc0>
    1fcc:	76a13423          	sd	a0,1896(sp)
    1fd0:	00001537          	lui	a0,0x1
    1fd4:	00a10533          	add	a0,sp,a0
    1fd8:	ffc52503          	lw	a0,-4(a0) # ffc <.LBB19_2+0x54>
    1fdc:	000015b7          	lui	a1,0x1
    1fe0:	00b105b3          	add	a1,sp,a1
    1fe4:	c6a5bc23          	sd	a0,-904(a1) # c78 <.LBB19_1+0xaf8>
    1fe8:	00001537          	lui	a0,0x1
    1fec:	00a10533          	add	a0,sp,a0
    1ff0:	ff852503          	lw	a0,-8(a0) # ff8 <.LBB19_2+0x50>
    1ff4:	000015b7          	lui	a1,0x1
    1ff8:	00b105b3          	add	a1,sp,a1
    1ffc:	c4a5b023          	sd	a0,-960(a1) # c40 <.LBB19_1+0xac0>
    2000:	00001537          	lui	a0,0x1
    2004:	00a10533          	add	a0,sp,a0
    2008:	ff452503          	lw	a0,-12(a0) # ff4 <.LBB19_2+0x4c>
    200c:	000015b7          	lui	a1,0x1
    2010:	00b105b3          	add	a1,sp,a1
    2014:	c0a5b423          	sd	a0,-1016(a1) # c08 <.LBB19_1+0xa88>
    2018:	00001537          	lui	a0,0x1
    201c:	00a10533          	add	a0,sp,a0
    2020:	ff052503          	lw	a0,-16(a0) # ff0 <.LBB19_2+0x48>
    2024:	000015b7          	lui	a1,0x1
    2028:	00b105b3          	add	a1,sp,a1
    202c:	bca5b823          	sd	a0,-1072(a1) # bd0 <.LBB19_1+0xa50>
    2030:	00001537          	lui	a0,0x1
    2034:	00a10533          	add	a0,sp,a0
    2038:	fec52503          	lw	a0,-20(a0) # fec <.LBB19_2+0x44>
    203c:	000015b7          	lui	a1,0x1
    2040:	00b105b3          	add	a1,sp,a1
    2044:	b8a5bc23          	sd	a0,-1128(a1) # b98 <.LBB19_1+0xa18>
    2048:	00001537          	lui	a0,0x1
    204c:	00a10533          	add	a0,sp,a0
    2050:	fe852503          	lw	a0,-24(a0) # fe8 <.LBB19_2+0x40>
    2054:	000015b7          	lui	a1,0x1
    2058:	00b105b3          	add	a1,sp,a1
    205c:	b6a5b023          	sd	a0,-1184(a1) # b60 <.LBB19_1+0x9e0>
    2060:	00001537          	lui	a0,0x1
    2064:	00a10533          	add	a0,sp,a0
    2068:	fe452503          	lw	a0,-28(a0) # fe4 <.LBB19_2+0x3c>
    206c:	000015b7          	lui	a1,0x1
    2070:	00b105b3          	add	a1,sp,a1
    2074:	b2a5b423          	sd	a0,-1240(a1) # b28 <.LBB19_1+0x9a8>
    2078:	00001537          	lui	a0,0x1
    207c:	00a10533          	add	a0,sp,a0
    2080:	fe052503          	lw	a0,-32(a0) # fe0 <.LBB19_2+0x38>
    2084:	000015b7          	lui	a1,0x1
    2088:	00b105b3          	add	a1,sp,a1
    208c:	aea5b823          	sd	a0,-1296(a1) # af0 <.LBB19_1+0x970>
    2090:	00001537          	lui	a0,0x1
    2094:	00a10533          	add	a0,sp,a0
    2098:	fdc52503          	lw	a0,-36(a0) # fdc <.LBB19_2+0x34>
    209c:	000015b7          	lui	a1,0x1
    20a0:	00b105b3          	add	a1,sp,a1
    20a4:	aaa5bc23          	sd	a0,-1352(a1) # ab8 <.LBB19_1+0x938>
    20a8:	00001537          	lui	a0,0x1
    20ac:	00a10533          	add	a0,sp,a0
    20b0:	fd852503          	lw	a0,-40(a0) # fd8 <.LBB19_2+0x30>
    20b4:	000015b7          	lui	a1,0x1
    20b8:	00b105b3          	add	a1,sp,a1
    20bc:	a8a5b023          	sd	a0,-1408(a1) # a80 <.LBB19_1+0x900>
    20c0:	00001537          	lui	a0,0x1
    20c4:	00a10533          	add	a0,sp,a0
    20c8:	fd452503          	lw	a0,-44(a0) # fd4 <.LBB19_2+0x2c>
    20cc:	000015b7          	lui	a1,0x1
    20d0:	00b105b3          	add	a1,sp,a1
    20d4:	a4a5b423          	sd	a0,-1464(a1) # a48 <.LBB19_1+0x8c8>
    20d8:	00001537          	lui	a0,0x1
    20dc:	00a10533          	add	a0,sp,a0
    20e0:	fd052503          	lw	a0,-48(a0) # fd0 <.LBB19_2+0x28>
    20e4:	000015b7          	lui	a1,0x1
    20e8:	00b105b3          	add	a1,sp,a1
    20ec:	a0a5b823          	sd	a0,-1520(a1) # a10 <.LBB19_1+0x890>
    20f0:	00001537          	lui	a0,0x1
    20f4:	00a10533          	add	a0,sp,a0
    20f8:	fcc52503          	lw	a0,-52(a0) # fcc <.LBB19_2+0x24>
    20fc:	000015b7          	lui	a1,0x1
    2100:	00b105b3          	add	a1,sp,a1
    2104:	9ca5bc23          	sd	a0,-1576(a1) # 9d8 <.LBB19_1+0x858>
    2108:	00001537          	lui	a0,0x1
    210c:	00a10533          	add	a0,sp,a0
    2110:	fc852503          	lw	a0,-56(a0) # fc8 <.LBB19_2+0x20>
    2114:	000015b7          	lui	a1,0x1
    2118:	00b105b3          	add	a1,sp,a1
    211c:	9aa5b023          	sd	a0,-1632(a1) # 9a0 <.LBB19_1+0x820>
    2120:	00001537          	lui	a0,0x1
    2124:	00a10533          	add	a0,sp,a0
    2128:	fc452503          	lw	a0,-60(a0) # fc4 <.LBB19_2+0x1c>
    212c:	000015b7          	lui	a1,0x1
    2130:	00b105b3          	add	a1,sp,a1
    2134:	96a5b423          	sd	a0,-1688(a1) # 968 <.LBB19_1+0x7e8>
    2138:	00001537          	lui	a0,0x1
    213c:	00a10533          	add	a0,sp,a0
    2140:	fc052503          	lw	a0,-64(a0) # fc0 <.LBB19_2+0x18>
    2144:	000015b7          	lui	a1,0x1
    2148:	00b105b3          	add	a1,sp,a1
    214c:	92a5b823          	sd	a0,-1744(a1) # 930 <.LBB19_1+0x7b0>
    2150:	00001537          	lui	a0,0x1
    2154:	00a10533          	add	a0,sp,a0
    2158:	fbc52503          	lw	a0,-68(a0) # fbc <.LBB19_2+0x14>
    215c:	000015b7          	lui	a1,0x1
    2160:	00b105b3          	add	a1,sp,a1
    2164:	8ea5bc23          	sd	a0,-1800(a1) # 8f8 <.LBB19_1+0x778>
    2168:	00001537          	lui	a0,0x1
    216c:	00a10533          	add	a0,sp,a0
    2170:	fb852503          	lw	a0,-72(a0) # fb8 <.LBB19_2+0x10>
    2174:	000015b7          	lui	a1,0x1
    2178:	00b105b3          	add	a1,sp,a1
    217c:	8ca5b023          	sd	a0,-1856(a1) # 8c0 <.LBB19_1+0x740>
    2180:	00001537          	lui	a0,0x1
    2184:	00a10533          	add	a0,sp,a0
    2188:	fb452503          	lw	a0,-76(a0) # fb4 <.LBB19_2+0xc>
    218c:	000015b7          	lui	a1,0x1
    2190:	00b105b3          	add	a1,sp,a1
    2194:	88a5b423          	sd	a0,-1912(a1) # 888 <.LBB19_1+0x708>
    2198:	00001537          	lui	a0,0x1
    219c:	00a10533          	add	a0,sp,a0
    21a0:	fb052503          	lw	a0,-80(a0) # fb0 <.LBB19_2+0x8>
    21a4:	000015b7          	lui	a1,0x1
    21a8:	00b105b3          	add	a1,sp,a1
    21ac:	84a5b823          	sd	a0,-1968(a1) # 850 <.LBB19_1+0x6d0>
    21b0:	00001537          	lui	a0,0x1
    21b4:	00a10533          	add	a0,sp,a0
    21b8:	fac52503          	lw	a0,-84(a0) # fac <.LBB19_2+0x4>
    21bc:	000015b7          	lui	a1,0x1
    21c0:	00b105b3          	add	a1,sp,a1
    21c4:	80a5bc23          	sd	a0,-2024(a1) # 818 <.LBB19_1+0x698>
    21c8:	00001537          	lui	a0,0x1
    21cc:	00a10533          	add	a0,sp,a0
    21d0:	fa852503          	lw	a0,-88(a0) # fa8 <.LBB19_2>
    21d4:	7ea13023          	sd	a0,2016(sp)
    21d8:	00001537          	lui	a0,0x1
    21dc:	00a10533          	add	a0,sp,a0
    21e0:	fa452503          	lw	a0,-92(a0) # fa4 <.LBB19_1+0xe24>
    21e4:	7aa13423          	sd	a0,1960(sp)
    21e8:	00001537          	lui	a0,0x1
    21ec:	00a10533          	add	a0,sp,a0
    21f0:	fa052503          	lw	a0,-96(a0) # fa0 <.LBB19_1+0xe20>
    21f4:	76a13823          	sd	a0,1904(sp)
    21f8:	00001537          	lui	a0,0x1
    21fc:	00a10533          	add	a0,sp,a0
    2200:	05c52503          	lw	a0,92(a0) # 105c <.LBB19_2+0xb4>
    2204:	000015b7          	lui	a1,0x1
    2208:	00b105b3          	add	a1,sp,a1
    220c:	c8a5b023          	sd	a0,-896(a1) # c80 <.LBB19_1+0xb00>
    2210:	00001537          	lui	a0,0x1
    2214:	00a10533          	add	a0,sp,a0
    2218:	05852503          	lw	a0,88(a0) # 1058 <.LBB19_2+0xb0>
    221c:	000015b7          	lui	a1,0x1
    2220:	00b105b3          	add	a1,sp,a1
    2224:	c4a5b423          	sd	a0,-952(a1) # c48 <.LBB19_1+0xac8>
    2228:	00001537          	lui	a0,0x1
    222c:	00a10533          	add	a0,sp,a0
    2230:	05452503          	lw	a0,84(a0) # 1054 <.LBB19_2+0xac>
    2234:	000015b7          	lui	a1,0x1
    2238:	00b105b3          	add	a1,sp,a1
    223c:	c0a5b823          	sd	a0,-1008(a1) # c10 <.LBB19_1+0xa90>
    2240:	00001537          	lui	a0,0x1
    2244:	00a10533          	add	a0,sp,a0
    2248:	05052503          	lw	a0,80(a0) # 1050 <.LBB19_2+0xa8>
    224c:	000015b7          	lui	a1,0x1
    2250:	00b105b3          	add	a1,sp,a1
    2254:	bca5bc23          	sd	a0,-1064(a1) # bd8 <.LBB19_1+0xa58>
    2258:	00001537          	lui	a0,0x1
    225c:	00a10533          	add	a0,sp,a0
    2260:	04c52503          	lw	a0,76(a0) # 104c <.LBB19_2+0xa4>
    2264:	000015b7          	lui	a1,0x1
    2268:	00b105b3          	add	a1,sp,a1
    226c:	baa5b023          	sd	a0,-1120(a1) # ba0 <.LBB19_1+0xa20>
    2270:	00001537          	lui	a0,0x1
    2274:	00a10533          	add	a0,sp,a0
    2278:	04852503          	lw	a0,72(a0) # 1048 <.LBB19_2+0xa0>
    227c:	000015b7          	lui	a1,0x1
    2280:	00b105b3          	add	a1,sp,a1
    2284:	b6a5b423          	sd	a0,-1176(a1) # b68 <.LBB19_1+0x9e8>
    2288:	00001537          	lui	a0,0x1
    228c:	00a10533          	add	a0,sp,a0
    2290:	04452503          	lw	a0,68(a0) # 1044 <.LBB19_2+0x9c>
    2294:	000015b7          	lui	a1,0x1
    2298:	00b105b3          	add	a1,sp,a1
    229c:	b2a5b823          	sd	a0,-1232(a1) # b30 <.LBB19_1+0x9b0>
    22a0:	00001537          	lui	a0,0x1
    22a4:	00a10533          	add	a0,sp,a0
    22a8:	04052503          	lw	a0,64(a0) # 1040 <.LBB19_2+0x98>
    22ac:	000015b7          	lui	a1,0x1
    22b0:	00b105b3          	add	a1,sp,a1
    22b4:	aea5bc23          	sd	a0,-1288(a1) # af8 <.LBB19_1+0x978>
    22b8:	00001537          	lui	a0,0x1
    22bc:	00a10533          	add	a0,sp,a0
    22c0:	03c52503          	lw	a0,60(a0) # 103c <.LBB19_2+0x94>
    22c4:	000015b7          	lui	a1,0x1
    22c8:	00b105b3          	add	a1,sp,a1
    22cc:	aca5b023          	sd	a0,-1344(a1) # ac0 <.LBB19_1+0x940>
    22d0:	00001537          	lui	a0,0x1
    22d4:	00a10533          	add	a0,sp,a0
    22d8:	03852503          	lw	a0,56(a0) # 1038 <.LBB19_2+0x90>
    22dc:	000015b7          	lui	a1,0x1
    22e0:	00b105b3          	add	a1,sp,a1
    22e4:	a8a5b423          	sd	a0,-1400(a1) # a88 <.LBB19_1+0x908>
    22e8:	00001537          	lui	a0,0x1
    22ec:	00a10533          	add	a0,sp,a0
    22f0:	03452503          	lw	a0,52(a0) # 1034 <.LBB19_2+0x8c>
    22f4:	000015b7          	lui	a1,0x1
    22f8:	00b105b3          	add	a1,sp,a1
    22fc:	a4a5b823          	sd	a0,-1456(a1) # a50 <.LBB19_1+0x8d0>
    2300:	00001537          	lui	a0,0x1
    2304:	00a10533          	add	a0,sp,a0
    2308:	03052503          	lw	a0,48(a0) # 1030 <.LBB19_2+0x88>
    230c:	000015b7          	lui	a1,0x1
    2310:	00b105b3          	add	a1,sp,a1
    2314:	a0a5bc23          	sd	a0,-1512(a1) # a18 <.LBB19_1+0x898>
    2318:	00001537          	lui	a0,0x1
    231c:	00a10533          	add	a0,sp,a0
    2320:	02c52503          	lw	a0,44(a0) # 102c <.LBB19_2+0x84>
    2324:	000015b7          	lui	a1,0x1
    2328:	00b105b3          	add	a1,sp,a1
    232c:	9ea5b023          	sd	a0,-1568(a1) # 9e0 <.LBB19_1+0x860>
    2330:	00001537          	lui	a0,0x1
    2334:	00a10533          	add	a0,sp,a0
    2338:	02852503          	lw	a0,40(a0) # 1028 <.LBB19_2+0x80>
    233c:	000015b7          	lui	a1,0x1
    2340:	00b105b3          	add	a1,sp,a1
    2344:	9aa5b423          	sd	a0,-1624(a1) # 9a8 <.LBB19_1+0x828>
    2348:	00001537          	lui	a0,0x1
    234c:	00a10533          	add	a0,sp,a0
    2350:	02452503          	lw	a0,36(a0) # 1024 <.LBB19_2+0x7c>
    2354:	000015b7          	lui	a1,0x1
    2358:	00b105b3          	add	a1,sp,a1
    235c:	96a5b823          	sd	a0,-1680(a1) # 970 <.LBB19_1+0x7f0>
    2360:	00001537          	lui	a0,0x1
    2364:	00a10533          	add	a0,sp,a0
    2368:	02052503          	lw	a0,32(a0) # 1020 <.LBB19_2+0x78>
    236c:	000015b7          	lui	a1,0x1
    2370:	00b105b3          	add	a1,sp,a1
    2374:	92a5bc23          	sd	a0,-1736(a1) # 938 <.LBB19_1+0x7b8>
    2378:	00001537          	lui	a0,0x1
    237c:	00a10533          	add	a0,sp,a0
    2380:	01c52503          	lw	a0,28(a0) # 101c <.LBB19_2+0x74>
    2384:	000015b7          	lui	a1,0x1
    2388:	00b105b3          	add	a1,sp,a1
    238c:	90a5b023          	sd	a0,-1792(a1) # 900 <.LBB19_1+0x780>
    2390:	00001537          	lui	a0,0x1
    2394:	00a10533          	add	a0,sp,a0
    2398:	01852503          	lw	a0,24(a0) # 1018 <.LBB19_2+0x70>
    239c:	000015b7          	lui	a1,0x1
    23a0:	00b105b3          	add	a1,sp,a1
    23a4:	8ca5b423          	sd	a0,-1848(a1) # 8c8 <.LBB19_1+0x748>
    23a8:	00001537          	lui	a0,0x1
    23ac:	00a10533          	add	a0,sp,a0
    23b0:	01452503          	lw	a0,20(a0) # 1014 <.LBB19_2+0x6c>
    23b4:	000015b7          	lui	a1,0x1
    23b8:	00b105b3          	add	a1,sp,a1
    23bc:	88a5b823          	sd	a0,-1904(a1) # 890 <.LBB19_1+0x710>
    23c0:	00001537          	lui	a0,0x1
    23c4:	00a10533          	add	a0,sp,a0
    23c8:	01052503          	lw	a0,16(a0) # 1010 <.LBB19_2+0x68>
    23cc:	000015b7          	lui	a1,0x1
    23d0:	00b105b3          	add	a1,sp,a1
    23d4:	84a5bc23          	sd	a0,-1960(a1) # 858 <.LBB19_1+0x6d8>
    23d8:	00001537          	lui	a0,0x1
    23dc:	00a10533          	add	a0,sp,a0
    23e0:	00c52503          	lw	a0,12(a0) # 100c <.LBB19_2+0x64>
    23e4:	000015b7          	lui	a1,0x1
    23e8:	00b105b3          	add	a1,sp,a1
    23ec:	82a5b023          	sd	a0,-2016(a1) # 820 <.LBB19_1+0x6a0>
    23f0:	00001537          	lui	a0,0x1
    23f4:	00a10533          	add	a0,sp,a0
    23f8:	00852503          	lw	a0,8(a0) # 1008 <.LBB19_2+0x60>
    23fc:	7ea13423          	sd	a0,2024(sp)
    2400:	00001537          	lui	a0,0x1
    2404:	00a10533          	add	a0,sp,a0
    2408:	00452503          	lw	a0,4(a0) # 1004 <.LBB19_2+0x5c>
    240c:	7aa13823          	sd	a0,1968(sp)
    2410:	00001537          	lui	a0,0x1
    2414:	00a10533          	add	a0,sp,a0
    2418:	00052503          	lw	a0,0(a0) # 1000 <.LBB19_2+0x58>
    241c:	76a13c23          	sd	a0,1912(sp)
    2420:	00001537          	lui	a0,0x1
    2424:	00a10533          	add	a0,sp,a0
    2428:	0a053423          	sd	zero,168(a0) # 10a8 <.LBB19_2+0x100>
    242c:	00001537          	lui	a0,0x1
    2430:	00a10533          	add	a0,sp,a0
    2434:	0a053823          	sd	zero,176(a0) # 10b0 <.LBB19_2+0x108>
    2438:	00001537          	lui	a0,0x1
    243c:	00a10533          	add	a0,sp,a0
    2440:	0a053c23          	sd	zero,184(a0) # 10b8 <.LBB19_2+0x110>
    2444:	08013583          	ld	a1,128(sp)
    2448:	66f13823          	sd	a5,1648(sp)
    244c:	00078713          	mv	a4,a5

0000000000002450 <.LBB19_3>:
    2450:	00001537          	lui	a0,0x1
    2454:	00a10533          	add	a0,sp,a0
    2458:	dae53823          	sd	a4,-592(a0) # db0 <.LBB19_1+0xc30>
    245c:	00001537          	lui	a0,0x1
    2460:	00a10533          	add	a0,sp,a0
    2464:	dab53c23          	sd	a1,-584(a0) # db8 <.LBB19_1+0xc38>
    2468:	75b13023          	sd	s11,1856(sp)
    246c:	00001537          	lui	a0,0x1
    2470:	00a10533          	add	a0,sp,a0
    2474:	ca153423          	sd	ra,-856(a0) # ca8 <.LBB19_1+0xb28>
    2478:	00001537          	lui	a0,0x1
    247c:	00a10533          	add	a0,sp,a0
    2480:	cb153823          	sd	a7,-848(a0) # cb0 <.LBB19_1+0xb30>
    2484:	00001537          	lui	a0,0x1
    2488:	00a10533          	add	a0,sp,a0
    248c:	cba53c23          	sd	s10,-840(a0) # cb8 <.LBB19_1+0xb38>
    2490:	00001537          	lui	a0,0x1
    2494:	00a10533          	add	a0,sp,a0
    2498:	cd453023          	sd	s4,-832(a0) # cc0 <.LBB19_1+0xb40>
    249c:	00001537          	lui	a0,0x1
    24a0:	00a10533          	add	a0,sp,a0
    24a4:	d9353023          	sd	s3,-640(a0) # d80 <.LBB19_1+0xc00>
    24a8:	00001537          	lui	a0,0x1
    24ac:	00a10533          	add	a0,sp,a0
    24b0:	d9253423          	sd	s2,-632(a0) # d88 <.LBB19_1+0xc08>
    24b4:	00001537          	lui	a0,0x1
    24b8:	00a10533          	add	a0,sp,a0
    24bc:	d8953823          	sd	s1,-624(a0) # d90 <.LBB19_1+0xc10>
    24c0:	00001537          	lui	a0,0x1
    24c4:	00a10533          	add	a0,sp,a0
    24c8:	d9f53c23          	sd	t6,-616(a0) # d98 <.LBB19_1+0xc18>
    24cc:	00001537          	lui	a0,0x1
    24d0:	00a10533          	add	a0,sp,a0
    24d4:	dbe53023          	sd	t5,-608(a0) # da0 <.LBB19_1+0xc20>
    24d8:	00001537          	lui	a0,0x1
    24dc:	00a10533          	add	a0,sp,a0
    24e0:	cdd53423          	sd	t4,-824(a0) # cc8 <.LBB19_1+0xb48>
    24e4:	00001537          	lui	a0,0x1
    24e8:	00a10533          	add	a0,sp,a0
    24ec:	cdc53823          	sd	t3,-816(a0) # cd0 <.LBB19_1+0xb50>
    24f0:	00001537          	lui	a0,0x1
    24f4:	00a10533          	add	a0,sp,a0
    24f8:	cc753c23          	sd	t2,-808(a0) # cd8 <.LBB19_1+0xb58>
    24fc:	00001537          	lui	a0,0x1
    2500:	00a10533          	add	a0,sp,a0
    2504:	ce653023          	sd	t1,-800(a0) # ce0 <.LBB19_1+0xb60>
    2508:	00001537          	lui	a0,0x1
    250c:	00a10533          	add	a0,sp,a0
    2510:	ce553423          	sd	t0,-792(a0) # ce8 <.LBB19_1+0xb68>
    2514:	00001537          	lui	a0,0x1
    2518:	00a10533          	add	a0,sp,a0
    251c:	dad53423          	sd	a3,-600(a0) # da8 <.LBB19_1+0xc28>
    2520:	00001537          	lui	a0,0x1
    2524:	00a10533          	add	a0,sp,a0
    2528:	cec53823          	sd	a2,-784(a0) # cf0 <.LBB19_1+0xb70>
    252c:	00070503          	lb	a0,0(a4)
    2530:	06070083          	lb	ra,96(a4)
    2534:	00058983          	lb	s3,0(a1)
    2538:	00158e03          	lb	t3,1(a1)
    253c:	00258283          	lb	t0,2(a1)
    2540:	00001637          	lui	a2,0x1
    2544:	00c10633          	add	a2,sp,a2
    2548:	d4563423          	sd	t0,-696(a2) # d48 <.LBB19_1+0xbc8>
    254c:	00358383          	lb	t2,3(a1)
    2550:	00001637          	lui	a2,0x1
    2554:	00c10633          	add	a2,sp,a2
    2558:	d4763823          	sd	t2,-688(a2) # d50 <.LBB19_1+0xbd0>
    255c:	00458e83          	lb	t4,4(a1)
    2560:	00001637          	lui	a2,0x1
    2564:	00c10633          	add	a2,sp,a2
    2568:	d5d63c23          	sd	t4,-680(a2) # d58 <.LBB19_1+0xbd8>
    256c:	00558903          	lb	s2,5(a1)
    2570:	00658303          	lb	t1,6(a1)
    2574:	00758b03          	lb	s6,7(a1)
    2578:	00858483          	lb	s1,8(a1)
    257c:	00958b83          	lb	s7,9(a1)
    2580:	00a58f03          	lb	t5,10(a1)
    2584:	000015b7          	lui	a1,0x1
    2588:	00b105b3          	add	a1,sp,a1
    258c:	d7e5b823          	sd	t5,-656(a1) # d70 <.LBB19_1+0xbf0>
    2590:	000015b7          	lui	a1,0x1
    2594:	00b105b3          	add	a1,sp,a1
    2598:	db85b583          	ld	a1,-584(a1) # db8 <.LBB19_1+0xc38>
    259c:	00b58583          	lb	a1,11(a1)
    25a0:	00001637          	lui	a2,0x1
    25a4:	00c10633          	add	a2,sp,a2
    25a8:	d6b63c23          	sd	a1,-648(a2) # d78 <.LBB19_1+0xbf8>
    25ac:	00001637          	lui	a2,0x1
    25b0:	00c10633          	add	a2,sp,a2
    25b4:	db863603          	ld	a2,-584(a2) # db8 <.LBB19_1+0xc38>
    25b8:	00c60d83          	lb	s11,12(a2)
    25bc:	00001637          	lui	a2,0x1
    25c0:	00c10633          	add	a2,sp,a2
    25c4:	db863603          	ld	a2,-584(a2) # db8 <.LBB19_1+0xc38>
    25c8:	00d60f83          	lb	t6,13(a2)
    25cc:	00001637          	lui	a2,0x1
    25d0:	00c10633          	add	a2,sp,a2
    25d4:	d5f63023          	sd	t6,-704(a2) # d40 <.LBB19_1+0xbc0>
    25d8:	00001637          	lui	a2,0x1
    25dc:	00c10633          	add	a2,sp,a2
    25e0:	db863603          	ld	a2,-584(a2) # db8 <.LBB19_1+0xc38>
    25e4:	00e60603          	lb	a2,14(a2)
    25e8:	000016b7          	lui	a3,0x1
    25ec:	00d106b3          	add	a3,sp,a3
    25f0:	d6c6b423          	sd	a2,-664(a3) # d68 <.LBB19_1+0xbe8>
    25f4:	00001637          	lui	a2,0x1
    25f8:	00c10633          	add	a2,sp,a2
    25fc:	db863603          	ld	a2,-584(a2) # db8 <.LBB19_1+0xc38>
    2600:	00f60603          	lb	a2,15(a2)
    2604:	000016b7          	lui	a3,0x1
    2608:	00d106b3          	add	a3,sp,a3
    260c:	d2c6bc23          	sd	a2,-712(a3) # d38 <.LBB19_1+0xbb8>
    2610:	00001637          	lui	a2,0x1
    2614:	00c10633          	add	a2,sp,a2
    2618:	db863603          	ld	a2,-584(a2) # db8 <.LBB19_1+0xc38>
    261c:	01060a83          	lb	s5,16(a2)
    2620:	73513823          	sd	s5,1840(sp)
    2624:	00001637          	lui	a2,0x1
    2628:	00c10633          	add	a2,sp,a2
    262c:	db863603          	ld	a2,-584(a2) # db8 <.LBB19_1+0xc38>
    2630:	01160603          	lb	a2,17(a2)
    2634:	72c13c23          	sd	a2,1848(sp)
    2638:	00001637          	lui	a2,0x1
    263c:	00c10633          	add	a2,sp,a2
    2640:	db863603          	ld	a2,-584(a2) # db8 <.LBB19_1+0xc38>
    2644:	01260c03          	lb	s8,18(a2)
    2648:	00001637          	lui	a2,0x1
    264c:	00c10633          	add	a2,sp,a2
    2650:	d7863023          	sd	s8,-672(a2) # d60 <.LBB19_1+0xbe0>
    2654:	00001637          	lui	a2,0x1
    2658:	00c10633          	add	a2,sp,a2
    265c:	db863683          	ld	a3,-584(a2) # db8 <.LBB19_1+0xc38>
    2660:	01368d03          	lb	s10,19(a3)
    2664:	00001637          	lui	a2,0x1
    2668:	00c10633          	add	a2,sp,a2
    266c:	db863703          	ld	a4,-584(a2) # db8 <.LBB19_1+0xc38>
    2670:	01470603          	lb	a2,20(a4)
    2674:	000016b7          	lui	a3,0x1
    2678:	00d106b3          	add	a3,sp,a3
    267c:	db86b783          	ld	a5,-584(a3) # db8 <.LBB19_1+0xc38>
    2680:	01578703          	lb	a4,21(a5)
    2684:	000016b7          	lui	a3,0x1
    2688:	00d106b3          	add	a3,sp,a3
    268c:	db86b803          	ld	a6,-584(a3) # db8 <.LBB19_1+0xc38>
    2690:	01680c83          	lb	s9,22(a6)
    2694:	000016b7          	lui	a3,0x1
    2698:	00d106b3          	add	a3,sp,a3
    269c:	db86b883          	ld	a7,-584(a3) # db8 <.LBB19_1+0xc38>
    26a0:	01788783          	lb	a5,23(a7)
    26a4:	70f13423          	sd	a5,1800(sp)
    26a8:	025502b3          	mul	t0,a0,t0
    26ac:	7b813883          	ld	a7,1976(sp)
    26b0:	011288b3          	add	a7,t0,a7
    26b4:	7b113c23          	sd	a7,1976(sp)
    26b8:	000e0693          	mv	a3,t3
    26bc:	03c502b3          	mul	t0,a0,t3
    26c0:	78013883          	ld	a7,1920(sp)
    26c4:	011288b3          	add	a7,t0,a7
    26c8:	79113023          	sd	a7,1920(sp)
    26cc:	00098e13          	mv	t3,s3
    26d0:	033502b3          	mul	t0,a0,s3
    26d4:	74813883          	ld	a7,1864(sp)
    26d8:	011288b3          	add	a7,t0,a7
    26dc:	75113423          	sd	a7,1864(sp)
    26e0:	027502b3          	mul	t0,a0,t2
    26e4:	7f013883          	ld	a7,2032(sp)
    26e8:	011288b3          	add	a7,t0,a7
    26ec:	7f113823          	sd	a7,2032(sp)
    26f0:	03d502b3          	mul	t0,a0,t4
    26f4:	00001837          	lui	a6,0x1
    26f8:	01010833          	add	a6,sp,a6
    26fc:	82883883          	ld	a7,-2008(a6) # 828 <.LBB19_1+0x6a8>
    2700:	011288b3          	add	a7,t0,a7
    2704:	00001837          	lui	a6,0x1
    2708:	01010833          	add	a6,sp,a6
    270c:	83183423          	sd	a7,-2008(a6) # 828 <.LBB19_1+0x6a8>
    2710:	032502b3          	mul	t0,a0,s2
    2714:	00001837          	lui	a6,0x1
    2718:	01010833          	add	a6,sp,a6
    271c:	86083883          	ld	a7,-1952(a6) # 860 <.LBB19_1+0x6e0>
    2720:	011288b3          	add	a7,t0,a7
    2724:	00001837          	lui	a6,0x1
    2728:	01010833          	add	a6,sp,a6
    272c:	87183023          	sd	a7,-1952(a6) # 860 <.LBB19_1+0x6e0>
    2730:	026502b3          	mul	t0,a0,t1
    2734:	00001837          	lui	a6,0x1
    2738:	01010833          	add	a6,sp,a6
    273c:	89883883          	ld	a7,-1896(a6) # 898 <.LBB19_1+0x718>
    2740:	011288b3          	add	a7,t0,a7
    2744:	00001837          	lui	a6,0x1
    2748:	01010833          	add	a6,sp,a6
    274c:	89183c23          	sd	a7,-1896(a6) # 898 <.LBB19_1+0x718>
    2750:	036502b3          	mul	t0,a0,s6
    2754:	00001837          	lui	a6,0x1
    2758:	01010833          	add	a6,sp,a6
    275c:	8d083883          	ld	a7,-1840(a6) # 8d0 <.LBB19_1+0x750>
    2760:	011288b3          	add	a7,t0,a7
    2764:	00001837          	lui	a6,0x1
    2768:	01010833          	add	a6,sp,a6
    276c:	8d183823          	sd	a7,-1840(a6) # 8d0 <.LBB19_1+0x750>
    2770:	029502b3          	mul	t0,a0,s1
    2774:	00001837          	lui	a6,0x1
    2778:	01010833          	add	a6,sp,a6
    277c:	90883883          	ld	a7,-1784(a6) # 908 <.LBB19_1+0x788>
    2780:	011288b3          	add	a7,t0,a7
    2784:	00001837          	lui	a6,0x1
    2788:	01010833          	add	a6,sp,a6
    278c:	91183423          	sd	a7,-1784(a6) # 908 <.LBB19_1+0x788>
    2790:	000b8e93          	mv	t4,s7
    2794:	00001837          	lui	a6,0x1
    2798:	01010833          	add	a6,sp,a6
    279c:	d3783823          	sd	s7,-720(a6) # d30 <.LBB19_1+0xbb0>
    27a0:	037502b3          	mul	t0,a0,s7
    27a4:	00001837          	lui	a6,0x1
    27a8:	01010833          	add	a6,sp,a6
    27ac:	94083883          	ld	a7,-1728(a6) # 940 <.LBB19_1+0x7c0>
    27b0:	011288b3          	add	a7,t0,a7
    27b4:	00001837          	lui	a6,0x1
    27b8:	01010833          	add	a6,sp,a6
    27bc:	95183023          	sd	a7,-1728(a6) # 940 <.LBB19_1+0x7c0>
    27c0:	03e502b3          	mul	t0,a0,t5
    27c4:	00001837          	lui	a6,0x1
    27c8:	01010833          	add	a6,sp,a6
    27cc:	97883883          	ld	a7,-1672(a6) # 978 <.LBB19_1+0x7f8>
    27d0:	011288b3          	add	a7,t0,a7
    27d4:	00001837          	lui	a6,0x1
    27d8:	01010833          	add	a6,sp,a6
    27dc:	97183c23          	sd	a7,-1672(a6) # 978 <.LBB19_1+0x7f8>
    27e0:	02b502b3          	mul	t0,a0,a1
    27e4:	000015b7          	lui	a1,0x1
    27e8:	00b105b3          	add	a1,sp,a1
    27ec:	9b05b883          	ld	a7,-1616(a1) # 9b0 <.LBB19_1+0x830>
    27f0:	011288b3          	add	a7,t0,a7
    27f4:	000015b7          	lui	a1,0x1
    27f8:	00b105b3          	add	a1,sp,a1
    27fc:	9b15b823          	sd	a7,-1616(a1) # 9b0 <.LBB19_1+0x830>
    2800:	000d8993          	mv	s3,s11
    2804:	03b502b3          	mul	t0,a0,s11
    2808:	000015b7          	lui	a1,0x1
    280c:	00b105b3          	add	a1,sp,a1
    2810:	9e85b883          	ld	a7,-1560(a1) # 9e8 <.LBB19_1+0x868>
    2814:	011288b3          	add	a7,t0,a7
    2818:	000015b7          	lui	a1,0x1
    281c:	00b105b3          	add	a1,sp,a1
    2820:	9f15b423          	sd	a7,-1560(a1) # 9e8 <.LBB19_1+0x868>
    2824:	03f502b3          	mul	t0,a0,t6
    2828:	000015b7          	lui	a1,0x1
    282c:	00b105b3          	add	a1,sp,a1
    2830:	a205b883          	ld	a7,-1504(a1) # a20 <.LBB19_1+0x8a0>
    2834:	011288b3          	add	a7,t0,a7
    2838:	000015b7          	lui	a1,0x1
    283c:	00b105b3          	add	a1,sp,a1
    2840:	a315b023          	sd	a7,-1504(a1) # a20 <.LBB19_1+0x8a0>
    2844:	000015b7          	lui	a1,0x1
    2848:	00b105b3          	add	a1,sp,a1
    284c:	d685b803          	ld	a6,-664(a1) # d68 <.LBB19_1+0xbe8>
    2850:	030502b3          	mul	t0,a0,a6
    2854:	000015b7          	lui	a1,0x1
    2858:	00b105b3          	add	a1,sp,a1
    285c:	a585b883          	ld	a7,-1448(a1) # a58 <.LBB19_1+0x8d8>
    2860:	011288b3          	add	a7,t0,a7
    2864:	000015b7          	lui	a1,0x1
    2868:	00b105b3          	add	a1,sp,a1
    286c:	a515bc23          	sd	a7,-1448(a1) # a58 <.LBB19_1+0x8d8>
    2870:	000015b7          	lui	a1,0x1
    2874:	00b105b3          	add	a1,sp,a1
    2878:	d385ba03          	ld	s4,-712(a1) # d38 <.LBB19_1+0xbb8>
    287c:	034502b3          	mul	t0,a0,s4
    2880:	000015b7          	lui	a1,0x1
    2884:	00b105b3          	add	a1,sp,a1
    2888:	a905b883          	ld	a7,-1392(a1) # a90 <.LBB19_1+0x910>
    288c:	011288b3          	add	a7,t0,a7
    2890:	000015b7          	lui	a1,0x1
    2894:	00b105b3          	add	a1,sp,a1
    2898:	a915b823          	sd	a7,-1392(a1) # a90 <.LBB19_1+0x910>
    289c:	035502b3          	mul	t0,a0,s5
    28a0:	000015b7          	lui	a1,0x1
    28a4:	00b105b3          	add	a1,sp,a1
    28a8:	ac85b883          	ld	a7,-1336(a1) # ac8 <.LBB19_1+0x948>
    28ac:	011288b3          	add	a7,t0,a7
    28b0:	000015b7          	lui	a1,0x1
    28b4:	00b105b3          	add	a1,sp,a1
    28b8:	ad15b423          	sd	a7,-1336(a1) # ac8 <.LBB19_1+0x948>
    28bc:	73813b83          	ld	s7,1848(sp)
    28c0:	037502b3          	mul	t0,a0,s7
    28c4:	000015b7          	lui	a1,0x1
    28c8:	00b105b3          	add	a1,sp,a1
    28cc:	b005b883          	ld	a7,-1280(a1) # b00 <.LBB19_1+0x980>
    28d0:	011288b3          	add	a7,t0,a7
    28d4:	000015b7          	lui	a1,0x1
    28d8:	00b105b3          	add	a1,sp,a1
    28dc:	b115b023          	sd	a7,-1280(a1) # b00 <.LBB19_1+0x980>
    28e0:	038502b3          	mul	t0,a0,s8
    28e4:	000015b7          	lui	a1,0x1
    28e8:	00b105b3          	add	a1,sp,a1
    28ec:	b385b883          	ld	a7,-1224(a1) # b38 <.LBB19_1+0x9b8>
    28f0:	011288b3          	add	a7,t0,a7
    28f4:	000015b7          	lui	a1,0x1
    28f8:	00b105b3          	add	a1,sp,a1
    28fc:	b315bc23          	sd	a7,-1224(a1) # b38 <.LBB19_1+0x9b8>
    2900:	03a502b3          	mul	t0,a0,s10
    2904:	000015b7          	lui	a1,0x1
    2908:	00b105b3          	add	a1,sp,a1
    290c:	b705b883          	ld	a7,-1168(a1) # b70 <.LBB19_1+0x9f0>
    2910:	011288b3          	add	a7,t0,a7
    2914:	000015b7          	lui	a1,0x1
    2918:	00b105b3          	add	a1,sp,a1
    291c:	b715b823          	sd	a7,-1168(a1) # b70 <.LBB19_1+0x9f0>
    2920:	02c502b3          	mul	t0,a0,a2
    2924:	00060f13          	mv	t5,a2
    2928:	000015b7          	lui	a1,0x1
    292c:	00b105b3          	add	a1,sp,a1
    2930:	ba85b883          	ld	a7,-1112(a1) # ba8 <.LBB19_1+0xa28>
    2934:	011288b3          	add	a7,t0,a7
    2938:	000015b7          	lui	a1,0x1
    293c:	00b105b3          	add	a1,sp,a1
    2940:	bb15b423          	sd	a7,-1112(a1) # ba8 <.LBB19_1+0xa28>
    2944:	00070613          	mv	a2,a4
    2948:	000015b7          	lui	a1,0x1
    294c:	00b105b3          	add	a1,sp,a1
    2950:	d0e5bc23          	sd	a4,-744(a1) # d18 <.LBB19_1+0xb98>
    2954:	02e502b3          	mul	t0,a0,a4
    2958:	000015b7          	lui	a1,0x1
    295c:	00b105b3          	add	a1,sp,a1
    2960:	be05b883          	ld	a7,-1056(a1) # be0 <.LBB19_1+0xa60>
    2964:	011288b3          	add	a7,t0,a7
    2968:	000015b7          	lui	a1,0x1
    296c:	00b105b3          	add	a1,sp,a1
    2970:	bf15b023          	sd	a7,-1056(a1) # be0 <.LBB19_1+0xa60>
    2974:	039502b3          	mul	t0,a0,s9
    2978:	000015b7          	lui	a1,0x1
    297c:	00b105b3          	add	a1,sp,a1
    2980:	c185b883          	ld	a7,-1000(a1) # c18 <.LBB19_1+0xa98>
    2984:	011288b3          	add	a7,t0,a7
    2988:	000015b7          	lui	a1,0x1
    298c:	00b105b3          	add	a1,sp,a1
    2990:	c115bc23          	sd	a7,-1000(a1) # c18 <.LBB19_1+0xa98>
    2994:	000015b7          	lui	a1,0x1
    2998:	00b105b3          	add	a1,sp,a1
    299c:	db05b883          	ld	a7,-592(a1) # db0 <.LBB19_1+0xc30>
    29a0:	0c088283          	lb	t0,192(a7)
    29a4:	02f50533          	mul	a0,a0,a5
    29a8:	000015b7          	lui	a1,0x1
    29ac:	00b105b3          	add	a1,sp,a1
    29b0:	c505b883          	ld	a7,-944(a1) # c50 <.LBB19_1+0xad0>
    29b4:	011508b3          	add	a7,a0,a7
    29b8:	00001537          	lui	a0,0x1
    29bc:	00a10533          	add	a0,sp,a0
    29c0:	c5153823          	sd	a7,-944(a0) # c50 <.LBB19_1+0xad0>
    29c4:	00001537          	lui	a0,0x1
    29c8:	00a10533          	add	a0,sp,a0
    29cc:	d4853583          	ld	a1,-696(a0) # d48 <.LBB19_1+0xbc8>
    29d0:	02b08533          	mul	a0,ra,a1
    29d4:	7c013883          	ld	a7,1984(sp)
    29d8:	011508b3          	add	a7,a0,a7
    29dc:	7d113023          	sd	a7,1984(sp)
    29e0:	02d08533          	mul	a0,ra,a3
    29e4:	00068c13          	mv	s8,a3
    29e8:	00001737          	lui	a4,0x1
    29ec:	00e10733          	add	a4,sp,a4
    29f0:	d2d73023          	sd	a3,-736(a4) # d20 <.LBB19_1+0xba0>
    29f4:	78813883          	ld	a7,1928(sp)
    29f8:	011508b3          	add	a7,a0,a7
    29fc:	79113423          	sd	a7,1928(sp)
    2a00:	03c08533          	mul	a0,ra,t3
    2a04:	75013883          	ld	a7,1872(sp)
    2a08:	011508b3          	add	a7,a0,a7
    2a0c:	75113823          	sd	a7,1872(sp)
    2a10:	00001537          	lui	a0,0x1
    2a14:	00a10533          	add	a0,sp,a0
    2a18:	d5053783          	ld	a5,-688(a0) # d50 <.LBB19_1+0xbd0>
    2a1c:	02f08533          	mul	a0,ra,a5
    2a20:	7f813883          	ld	a7,2040(sp)
    2a24:	011508b3          	add	a7,a0,a7
    2a28:	7f113c23          	sd	a7,2040(sp)
    2a2c:	00001537          	lui	a0,0x1
    2a30:	00a10533          	add	a0,sp,a0
    2a34:	d5853703          	ld	a4,-680(a0) # d58 <.LBB19_1+0xbd8>
    2a38:	02e08533          	mul	a0,ra,a4
    2a3c:	000016b7          	lui	a3,0x1
    2a40:	00d106b3          	add	a3,sp,a3
    2a44:	8306b883          	ld	a7,-2000(a3) # 830 <.LBB19_1+0x6b0>
    2a48:	011508b3          	add	a7,a0,a7
    2a4c:	00001537          	lui	a0,0x1
    2a50:	00a10533          	add	a0,sp,a0
    2a54:	83153823          	sd	a7,-2000(a0) # 830 <.LBB19_1+0x6b0>
    2a58:	00090d93          	mv	s11,s2
    2a5c:	73213023          	sd	s2,1824(sp)
    2a60:	03208533          	mul	a0,ra,s2
    2a64:	000016b7          	lui	a3,0x1
    2a68:	00d106b3          	add	a3,sp,a3
    2a6c:	8686b883          	ld	a7,-1944(a3) # 868 <.LBB19_1+0x6e8>
    2a70:	011508b3          	add	a7,a0,a7
    2a74:	00001537          	lui	a0,0x1
    2a78:	00a10533          	add	a0,sp,a0
    2a7c:	87153423          	sd	a7,-1944(a0) # 868 <.LBB19_1+0x6e8>
    2a80:	02608533          	mul	a0,ra,t1
    2a84:	00030913          	mv	s2,t1
    2a88:	000016b7          	lui	a3,0x1
    2a8c:	00d106b3          	add	a3,sp,a3
    2a90:	8a06b883          	ld	a7,-1888(a3) # 8a0 <.LBB19_1+0x720>
    2a94:	011508b3          	add	a7,a0,a7
    2a98:	00001537          	lui	a0,0x1
    2a9c:	00a10533          	add	a0,sp,a0
    2aa0:	8b153023          	sd	a7,-1888(a0) # 8a0 <.LBB19_1+0x720>
    2aa4:	03608533          	mul	a0,ra,s6
    2aa8:	000016b7          	lui	a3,0x1
    2aac:	00d106b3          	add	a3,sp,a3
    2ab0:	8d86b883          	ld	a7,-1832(a3) # 8d8 <.LBB19_1+0x758>
    2ab4:	011508b3          	add	a7,a0,a7
    2ab8:	00001537          	lui	a0,0x1
    2abc:	00a10533          	add	a0,sp,a0
    2ac0:	8d153c23          	sd	a7,-1832(a0) # 8d8 <.LBB19_1+0x758>
    2ac4:	00048f93          	mv	t6,s1
    2ac8:	02908533          	mul	a0,ra,s1
    2acc:	000016b7          	lui	a3,0x1
    2ad0:	00d106b3          	add	a3,sp,a3
    2ad4:	9106b883          	ld	a7,-1776(a3) # 910 <.LBB19_1+0x790>
    2ad8:	011508b3          	add	a7,a0,a7
    2adc:	00001537          	lui	a0,0x1
    2ae0:	00a10533          	add	a0,sp,a0
    2ae4:	91153823          	sd	a7,-1776(a0) # 910 <.LBB19_1+0x790>
    2ae8:	03d08533          	mul	a0,ra,t4
    2aec:	000016b7          	lui	a3,0x1
    2af0:	00d106b3          	add	a3,sp,a3
    2af4:	9486b883          	ld	a7,-1720(a3) # 948 <.LBB19_1+0x7c8>
    2af8:	011508b3          	add	a7,a0,a7
    2afc:	00001537          	lui	a0,0x1
    2b00:	00a10533          	add	a0,sp,a0
    2b04:	95153423          	sd	a7,-1720(a0) # 948 <.LBB19_1+0x7c8>
    2b08:	00001537          	lui	a0,0x1
    2b0c:	00a10533          	add	a0,sp,a0
    2b10:	d7053483          	ld	s1,-656(a0) # d70 <.LBB19_1+0xbf0>
    2b14:	02908533          	mul	a0,ra,s1
    2b18:	000016b7          	lui	a3,0x1
    2b1c:	00d106b3          	add	a3,sp,a3
    2b20:	9806b883          	ld	a7,-1664(a3) # 980 <.LBB19_1+0x800>
    2b24:	011508b3          	add	a7,a0,a7
    2b28:	00001537          	lui	a0,0x1
    2b2c:	00a10533          	add	a0,sp,a0
    2b30:	99153023          	sd	a7,-1664(a0) # 980 <.LBB19_1+0x800>
    2b34:	00001537          	lui	a0,0x1
    2b38:	00a10533          	add	a0,sp,a0
    2b3c:	d7853503          	ld	a0,-648(a0) # d78 <.LBB19_1+0xbf8>
    2b40:	02a08533          	mul	a0,ra,a0
    2b44:	000016b7          	lui	a3,0x1
    2b48:	00d106b3          	add	a3,sp,a3
    2b4c:	9b86b883          	ld	a7,-1608(a3) # 9b8 <.LBB19_1+0x838>
    2b50:	011508b3          	add	a7,a0,a7
    2b54:	00001537          	lui	a0,0x1
    2b58:	00a10533          	add	a0,sp,a0
    2b5c:	9b153c23          	sd	a7,-1608(a0) # 9b8 <.LBB19_1+0x838>
    2b60:	03308533          	mul	a0,ra,s3
    2b64:	000016b7          	lui	a3,0x1
    2b68:	00d106b3          	add	a3,sp,a3
    2b6c:	9f06b883          	ld	a7,-1552(a3) # 9f0 <.LBB19_1+0x870>
    2b70:	011508b3          	add	a7,a0,a7
    2b74:	00001537          	lui	a0,0x1
    2b78:	00a10533          	add	a0,sp,a0
    2b7c:	9f153823          	sd	a7,-1552(a0) # 9f0 <.LBB19_1+0x870>
    2b80:	00001537          	lui	a0,0x1
    2b84:	00a10533          	add	a0,sp,a0
    2b88:	d4053a83          	ld	s5,-704(a0) # d40 <.LBB19_1+0xbc0>
    2b8c:	03508533          	mul	a0,ra,s5
    2b90:	000016b7          	lui	a3,0x1
    2b94:	00d106b3          	add	a3,sp,a3
    2b98:	a286b883          	ld	a7,-1496(a3) # a28 <.LBB19_1+0x8a8>
    2b9c:	011508b3          	add	a7,a0,a7
    2ba0:	00001537          	lui	a0,0x1
    2ba4:	00a10533          	add	a0,sp,a0
    2ba8:	a3153423          	sd	a7,-1496(a0) # a28 <.LBB19_1+0x8a8>
    2bac:	03008533          	mul	a0,ra,a6
    2bb0:	000016b7          	lui	a3,0x1
    2bb4:	00d106b3          	add	a3,sp,a3
    2bb8:	a606b883          	ld	a7,-1440(a3) # a60 <.LBB19_1+0x8e0>
    2bbc:	011508b3          	add	a7,a0,a7
    2bc0:	00001537          	lui	a0,0x1
    2bc4:	00a10533          	add	a0,sp,a0
    2bc8:	a7153023          	sd	a7,-1440(a0) # a60 <.LBB19_1+0x8e0>
    2bcc:	03408533          	mul	a0,ra,s4
    2bd0:	000016b7          	lui	a3,0x1
    2bd4:	00d106b3          	add	a3,sp,a3
    2bd8:	a986b883          	ld	a7,-1384(a3) # a98 <.LBB19_1+0x918>
    2bdc:	011508b3          	add	a7,a0,a7
    2be0:	00001537          	lui	a0,0x1
    2be4:	00a10533          	add	a0,sp,a0
    2be8:	a9153c23          	sd	a7,-1384(a0) # a98 <.LBB19_1+0x918>
    2bec:	73013303          	ld	t1,1840(sp)
    2bf0:	02608533          	mul	a0,ra,t1
    2bf4:	000016b7          	lui	a3,0x1
    2bf8:	00d106b3          	add	a3,sp,a3
    2bfc:	ad06b883          	ld	a7,-1328(a3) # ad0 <.LBB19_1+0x950>
    2c00:	011508b3          	add	a7,a0,a7
    2c04:	00001537          	lui	a0,0x1
    2c08:	00a10533          	add	a0,sp,a0
    2c0c:	ad153823          	sd	a7,-1328(a0) # ad0 <.LBB19_1+0x950>
    2c10:	03708533          	mul	a0,ra,s7
    2c14:	000016b7          	lui	a3,0x1
    2c18:	00d106b3          	add	a3,sp,a3
    2c1c:	b086b883          	ld	a7,-1272(a3) # b08 <.LBB19_1+0x988>
    2c20:	011508b3          	add	a7,a0,a7
    2c24:	00001537          	lui	a0,0x1
    2c28:	00a10533          	add	a0,sp,a0
    2c2c:	b1153423          	sd	a7,-1272(a0) # b08 <.LBB19_1+0x988>
    2c30:	00001537          	lui	a0,0x1
    2c34:	00a10533          	add	a0,sp,a0
    2c38:	d6053803          	ld	a6,-672(a0) # d60 <.LBB19_1+0xbe0>
    2c3c:	03008533          	mul	a0,ra,a6
    2c40:	000016b7          	lui	a3,0x1
    2c44:	00d106b3          	add	a3,sp,a3
    2c48:	b406b883          	ld	a7,-1216(a3) # b40 <.LBB19_1+0x9c0>
    2c4c:	011508b3          	add	a7,a0,a7
    2c50:	00001537          	lui	a0,0x1
    2c54:	00a10533          	add	a0,sp,a0
    2c58:	b5153023          	sd	a7,-1216(a0) # b40 <.LBB19_1+0x9c0>
    2c5c:	03a08533          	mul	a0,ra,s10
    2c60:	000016b7          	lui	a3,0x1
    2c64:	00d106b3          	add	a3,sp,a3
    2c68:	b786b883          	ld	a7,-1160(a3) # b78 <.LBB19_1+0x9f8>
    2c6c:	011508b3          	add	a7,a0,a7
    2c70:	00001537          	lui	a0,0x1
    2c74:	00a10533          	add	a0,sp,a0
    2c78:	b7153c23          	sd	a7,-1160(a0) # b78 <.LBB19_1+0x9f8>
    2c7c:	71e13c23          	sd	t5,1816(sp)
    2c80:	03e08533          	mul	a0,ra,t5
    2c84:	000016b7          	lui	a3,0x1
    2c88:	00d106b3          	add	a3,sp,a3
    2c8c:	bb06b883          	ld	a7,-1104(a3) # bb0 <.LBB19_1+0xa30>
    2c90:	011508b3          	add	a7,a0,a7
    2c94:	00001537          	lui	a0,0x1
    2c98:	00a10533          	add	a0,sp,a0
    2c9c:	bb153823          	sd	a7,-1104(a0) # bb0 <.LBB19_1+0xa30>
    2ca0:	02c08533          	mul	a0,ra,a2
    2ca4:	00001637          	lui	a2,0x1
    2ca8:	00c10633          	add	a2,sp,a2
    2cac:	be863883          	ld	a7,-1048(a2) # be8 <.LBB19_1+0xa68>
    2cb0:	011508b3          	add	a7,a0,a7
    2cb4:	00001537          	lui	a0,0x1
    2cb8:	00a10533          	add	a0,sp,a0
    2cbc:	bf153423          	sd	a7,-1048(a0) # be8 <.LBB19_1+0xa68>
    2cc0:	03908533          	mul	a0,ra,s9
    2cc4:	00001637          	lui	a2,0x1
    2cc8:	00c10633          	add	a2,sp,a2
    2ccc:	c2063883          	ld	a7,-992(a2) # c20 <.LBB19_1+0xaa0>
    2cd0:	011508b3          	add	a7,a0,a7
    2cd4:	00001537          	lui	a0,0x1
    2cd8:	00a10533          	add	a0,sp,a0
    2cdc:	c3153023          	sd	a7,-992(a0) # c20 <.LBB19_1+0xaa0>
    2ce0:	00001537          	lui	a0,0x1
    2ce4:	00a10533          	add	a0,sp,a0
    2ce8:	db053503          	ld	a0,-592(a0) # db0 <.LBB19_1+0xc30>
    2cec:	12050503          	lb	a0,288(a0)
    2cf0:	70813683          	ld	a3,1800(sp)
    2cf4:	02d080b3          	mul	ra,ra,a3
    2cf8:	00001637          	lui	a2,0x1
    2cfc:	00c10633          	add	a2,sp,a2
    2d00:	c5863883          	ld	a7,-936(a2) # c58 <.LBB19_1+0xad8>
    2d04:	011088b3          	add	a7,ra,a7
    2d08:	00001637          	lui	a2,0x1
    2d0c:	00c10633          	add	a2,sp,a2
    2d10:	c5163c23          	sd	a7,-936(a2) # c58 <.LBB19_1+0xad8>
    2d14:	00058393          	mv	t2,a1
    2d18:	02b280b3          	mul	ra,t0,a1
    2d1c:	7c813883          	ld	a7,1992(sp)
    2d20:	011088b3          	add	a7,ra,a7
    2d24:	7d113423          	sd	a7,1992(sp)
    2d28:	038280b3          	mul	ra,t0,s8
    2d2c:	79013883          	ld	a7,1936(sp)
    2d30:	011088b3          	add	a7,ra,a7
    2d34:	79113823          	sd	a7,1936(sp)
    2d38:	03c280b3          	mul	ra,t0,t3
    2d3c:	000e0e93          	mv	t4,t3
    2d40:	000015b7          	lui	a1,0x1
    2d44:	00b105b3          	add	a1,sp,a1
    2d48:	d1c5b823          	sd	t3,-752(a1) # d10 <.LBB19_1+0xb90>
    2d4c:	75813883          	ld	a7,1880(sp)
    2d50:	011088b3          	add	a7,ra,a7
    2d54:	75113c23          	sd	a7,1880(sp)
    2d58:	02f280b3          	mul	ra,t0,a5
    2d5c:	000015b7          	lui	a1,0x1
    2d60:	00b105b3          	add	a1,sp,a1
    2d64:	8005b883          	ld	a7,-2048(a1) # 800 <.LBB19_1+0x680>
    2d68:	011088b3          	add	a7,ra,a7
    2d6c:	000015b7          	lui	a1,0x1
    2d70:	00b105b3          	add	a1,sp,a1
    2d74:	8115b023          	sd	a7,-2048(a1) # 800 <.LBB19_1+0x680>
    2d78:	02e280b3          	mul	ra,t0,a4
    2d7c:	000015b7          	lui	a1,0x1
    2d80:	00b105b3          	add	a1,sp,a1
    2d84:	8385b883          	ld	a7,-1992(a1) # 838 <.LBB19_1+0x6b8>
    2d88:	011088b3          	add	a7,ra,a7
    2d8c:	000015b7          	lui	a1,0x1
    2d90:	00b105b3          	add	a1,sp,a1
    2d94:	8315bc23          	sd	a7,-1992(a1) # 838 <.LBB19_1+0x6b8>
    2d98:	03b280b3          	mul	ra,t0,s11
    2d9c:	000015b7          	lui	a1,0x1
    2da0:	00b105b3          	add	a1,sp,a1
    2da4:	8705b883          	ld	a7,-1936(a1) # 870 <.LBB19_1+0x6f0>
    2da8:	011088b3          	add	a7,ra,a7
    2dac:	000015b7          	lui	a1,0x1
    2db0:	00b105b3          	add	a1,sp,a1
    2db4:	8715b823          	sd	a7,-1936(a1) # 870 <.LBB19_1+0x6f0>
    2db8:	032280b3          	mul	ra,t0,s2
    2dbc:	00090c13          	mv	s8,s2
    2dc0:	000015b7          	lui	a1,0x1
    2dc4:	00b105b3          	add	a1,sp,a1
    2dc8:	8a85b883          	ld	a7,-1880(a1) # 8a8 <.LBB19_1+0x728>
    2dcc:	011088b3          	add	a7,ra,a7
    2dd0:	000015b7          	lui	a1,0x1
    2dd4:	00b105b3          	add	a1,sp,a1
    2dd8:	8b15b423          	sd	a7,-1880(a1) # 8a8 <.LBB19_1+0x728>
    2ddc:	036280b3          	mul	ra,t0,s6
    2de0:	000015b7          	lui	a1,0x1
    2de4:	00b105b3          	add	a1,sp,a1
    2de8:	8e05b883          	ld	a7,-1824(a1) # 8e0 <.LBB19_1+0x760>
    2dec:	011088b3          	add	a7,ra,a7
    2df0:	000015b7          	lui	a1,0x1
    2df4:	00b105b3          	add	a1,sp,a1
    2df8:	8f15b023          	sd	a7,-1824(a1) # 8e0 <.LBB19_1+0x760>
    2dfc:	03f280b3          	mul	ra,t0,t6
    2e00:	000f8793          	mv	a5,t6
    2e04:	000015b7          	lui	a1,0x1
    2e08:	00b105b3          	add	a1,sp,a1
    2e0c:	d3f5b423          	sd	t6,-728(a1) # d28 <.LBB19_1+0xba8>
    2e10:	000015b7          	lui	a1,0x1
    2e14:	00b105b3          	add	a1,sp,a1
    2e18:	9185b883          	ld	a7,-1768(a1) # 918 <.LBB19_1+0x798>
    2e1c:	011088b3          	add	a7,ra,a7
    2e20:	000015b7          	lui	a1,0x1
    2e24:	00b105b3          	add	a1,sp,a1
    2e28:	9115bc23          	sd	a7,-1768(a1) # 918 <.LBB19_1+0x798>
    2e2c:	000015b7          	lui	a1,0x1
    2e30:	00b105b3          	add	a1,sp,a1
    2e34:	d305b903          	ld	s2,-720(a1) # d30 <.LBB19_1+0xbb0>
    2e38:	032280b3          	mul	ra,t0,s2
    2e3c:	000015b7          	lui	a1,0x1
    2e40:	00b105b3          	add	a1,sp,a1
    2e44:	9505b883          	ld	a7,-1712(a1) # 950 <.LBB19_1+0x7d0>
    2e48:	011088b3          	add	a7,ra,a7
    2e4c:	000015b7          	lui	a1,0x1
    2e50:	00b105b3          	add	a1,sp,a1
    2e54:	9515b823          	sd	a7,-1712(a1) # 950 <.LBB19_1+0x7d0>
    2e58:	029280b3          	mul	ra,t0,s1
    2e5c:	00048f93          	mv	t6,s1
    2e60:	000015b7          	lui	a1,0x1
    2e64:	00b105b3          	add	a1,sp,a1
    2e68:	9885b883          	ld	a7,-1656(a1) # 988 <.LBB19_1+0x808>
    2e6c:	011088b3          	add	a7,ra,a7
    2e70:	000015b7          	lui	a1,0x1
    2e74:	00b105b3          	add	a1,sp,a1
    2e78:	9915b423          	sd	a7,-1656(a1) # 988 <.LBB19_1+0x808>
    2e7c:	000015b7          	lui	a1,0x1
    2e80:	00b105b3          	add	a1,sp,a1
    2e84:	d785b583          	ld	a1,-648(a1) # d78 <.LBB19_1+0xbf8>
    2e88:	02b280b3          	mul	ra,t0,a1
    2e8c:	00001637          	lui	a2,0x1
    2e90:	00c10633          	add	a2,sp,a2
    2e94:	9c063883          	ld	a7,-1600(a2) # 9c0 <.LBB19_1+0x840>
    2e98:	011088b3          	add	a7,ra,a7
    2e9c:	00001637          	lui	a2,0x1
    2ea0:	00c10633          	add	a2,sp,a2
    2ea4:	9d163023          	sd	a7,-1600(a2) # 9c0 <.LBB19_1+0x840>
    2ea8:	033280b3          	mul	ra,t0,s3
    2eac:	00001637          	lui	a2,0x1
    2eb0:	00c10633          	add	a2,sp,a2
    2eb4:	9f863883          	ld	a7,-1544(a2) # 9f8 <.LBB19_1+0x878>
    2eb8:	011088b3          	add	a7,ra,a7
    2ebc:	00001637          	lui	a2,0x1
    2ec0:	00c10633          	add	a2,sp,a2
    2ec4:	9f163c23          	sd	a7,-1544(a2) # 9f8 <.LBB19_1+0x878>
    2ec8:	035280b3          	mul	ra,t0,s5
    2ecc:	00001637          	lui	a2,0x1
    2ed0:	00c10633          	add	a2,sp,a2
    2ed4:	a3063883          	ld	a7,-1488(a2) # a30 <.LBB19_1+0x8b0>
    2ed8:	011088b3          	add	a7,ra,a7
    2edc:	00001637          	lui	a2,0x1
    2ee0:	00c10633          	add	a2,sp,a2
    2ee4:	a3163823          	sd	a7,-1488(a2) # a30 <.LBB19_1+0x8b0>
    2ee8:	00001637          	lui	a2,0x1
    2eec:	00c10633          	add	a2,sp,a2
    2ef0:	d6863603          	ld	a2,-664(a2) # d68 <.LBB19_1+0xbe8>
    2ef4:	02c280b3          	mul	ra,t0,a2
    2ef8:	000018b7          	lui	a7,0x1
    2efc:	011108b3          	add	a7,sp,a7
    2f00:	a688b883          	ld	a7,-1432(a7) # a68 <.LBB19_1+0x8e8>
    2f04:	011088b3          	add	a7,ra,a7
    2f08:	00001e37          	lui	t3,0x1
    2f0c:	01c10e33          	add	t3,sp,t3
    2f10:	a71e3423          	sd	a7,-1432(t3) # a68 <.LBB19_1+0x8e8>
    2f14:	034280b3          	mul	ra,t0,s4
    2f18:	000018b7          	lui	a7,0x1
    2f1c:	011108b3          	add	a7,sp,a7
    2f20:	aa08b883          	ld	a7,-1376(a7) # aa0 <.LBB19_1+0x920>
    2f24:	011088b3          	add	a7,ra,a7
    2f28:	00001e37          	lui	t3,0x1
    2f2c:	01c10e33          	add	t3,sp,t3
    2f30:	ab1e3023          	sd	a7,-1376(t3) # aa0 <.LBB19_1+0x920>
    2f34:	026280b3          	mul	ra,t0,t1
    2f38:	000018b7          	lui	a7,0x1
    2f3c:	011108b3          	add	a7,sp,a7
    2f40:	ad88b883          	ld	a7,-1320(a7) # ad8 <.LBB19_1+0x958>
    2f44:	011088b3          	add	a7,ra,a7
    2f48:	00001e37          	lui	t3,0x1
    2f4c:	01c10e33          	add	t3,sp,t3
    2f50:	ad1e3c23          	sd	a7,-1320(t3) # ad8 <.LBB19_1+0x958>
    2f54:	037280b3          	mul	ra,t0,s7
    2f58:	000018b7          	lui	a7,0x1
    2f5c:	011108b3          	add	a7,sp,a7
    2f60:	b108b883          	ld	a7,-1264(a7) # b10 <.LBB19_1+0x990>
    2f64:	011088b3          	add	a7,ra,a7
    2f68:	00001e37          	lui	t3,0x1
    2f6c:	01c10e33          	add	t3,sp,t3
    2f70:	b11e3823          	sd	a7,-1264(t3) # b10 <.LBB19_1+0x990>
    2f74:	00080e13          	mv	t3,a6
    2f78:	030280b3          	mul	ra,t0,a6
    2f7c:	00001837          	lui	a6,0x1
    2f80:	01010833          	add	a6,sp,a6
    2f84:	b4883883          	ld	a7,-1208(a6) # b48 <.LBB19_1+0x9c8>
    2f88:	011088b3          	add	a7,ra,a7
    2f8c:	00001837          	lui	a6,0x1
    2f90:	01010833          	add	a6,sp,a6
    2f94:	b5183423          	sd	a7,-1208(a6) # b48 <.LBB19_1+0x9c8>
    2f98:	03a280b3          	mul	ra,t0,s10
    2f9c:	00001837          	lui	a6,0x1
    2fa0:	01010833          	add	a6,sp,a6
    2fa4:	b8083883          	ld	a7,-1152(a6) # b80 <.LBB19_1+0xa00>
    2fa8:	011088b3          	add	a7,ra,a7
    2fac:	00001837          	lui	a6,0x1
    2fb0:	01010833          	add	a6,sp,a6
    2fb4:	b9183023          	sd	a7,-1152(a6) # b80 <.LBB19_1+0xa00>
    2fb8:	03e280b3          	mul	ra,t0,t5
    2fbc:	00001837          	lui	a6,0x1
    2fc0:	01010833          	add	a6,sp,a6
    2fc4:	bb883883          	ld	a7,-1096(a6) # bb8 <.LBB19_1+0xa38>
    2fc8:	011088b3          	add	a7,ra,a7
    2fcc:	00001837          	lui	a6,0x1
    2fd0:	01010833          	add	a6,sp,a6
    2fd4:	bb183c23          	sd	a7,-1096(a6) # bb8 <.LBB19_1+0xa38>
    2fd8:	00001837          	lui	a6,0x1
    2fdc:	01010833          	add	a6,sp,a6
    2fe0:	d1883f03          	ld	t5,-744(a6) # d18 <.LBB19_1+0xb98>
    2fe4:	03e280b3          	mul	ra,t0,t5
    2fe8:	00001837          	lui	a6,0x1
    2fec:	01010833          	add	a6,sp,a6
    2ff0:	bf083883          	ld	a7,-1040(a6) # bf0 <.LBB19_1+0xa70>
    2ff4:	011088b3          	add	a7,ra,a7
    2ff8:	00001837          	lui	a6,0x1
    2ffc:	01010833          	add	a6,sp,a6
    3000:	bf183823          	sd	a7,-1040(a6) # bf0 <.LBB19_1+0xa70>
    3004:	039280b3          	mul	ra,t0,s9
    3008:	00001837          	lui	a6,0x1
    300c:	01010833          	add	a6,sp,a6
    3010:	c2883883          	ld	a7,-984(a6) # c28 <.LBB19_1+0xaa8>
    3014:	011088b3          	add	a7,ra,a7
    3018:	00001837          	lui	a6,0x1
    301c:	01010833          	add	a6,sp,a6
    3020:	c3183423          	sd	a7,-984(a6) # c28 <.LBB19_1+0xaa8>
    3024:	00001837          	lui	a6,0x1
    3028:	01010833          	add	a6,sp,a6
    302c:	db083883          	ld	a7,-592(a6) # db0 <.LBB19_1+0xc30>
    3030:	18088083          	lb	ra,384(a7)
    3034:	00068d93          	mv	s11,a3
    3038:	02d282b3          	mul	t0,t0,a3
    303c:	000016b7          	lui	a3,0x1
    3040:	00d106b3          	add	a3,sp,a3
    3044:	c606b883          	ld	a7,-928(a3) # c60 <.LBB19_1+0xae0>
    3048:	011288b3          	add	a7,t0,a7
    304c:	000016b7          	lui	a3,0x1
    3050:	00d106b3          	add	a3,sp,a3
    3054:	c716b023          	sd	a7,-928(a3) # c60 <.LBB19_1+0xae0>
    3058:	027502b3          	mul	t0,a0,t2
    305c:	00038693          	mv	a3,t2
    3060:	7d013883          	ld	a7,2000(sp)
    3064:	011288b3          	add	a7,t0,a7
    3068:	7d113823          	sd	a7,2000(sp)
    306c:	00001837          	lui	a6,0x1
    3070:	01010833          	add	a6,sp,a6
    3074:	d2083803          	ld	a6,-736(a6) # d20 <.LBB19_1+0xba0>
    3078:	030502b3          	mul	t0,a0,a6
    307c:	79813883          	ld	a7,1944(sp)
    3080:	011288b3          	add	a7,t0,a7
    3084:	79113c23          	sd	a7,1944(sp)
    3088:	03d502b3          	mul	t0,a0,t4
    308c:	76013883          	ld	a7,1888(sp)
    3090:	011288b3          	add	a7,t0,a7
    3094:	77113023          	sd	a7,1888(sp)
    3098:	000018b7          	lui	a7,0x1
    309c:	011108b3          	add	a7,sp,a7
    30a0:	d508be83          	ld	t4,-688(a7) # d50 <.LBB19_1+0xbd0>
    30a4:	03d502b3          	mul	t0,a0,t4
    30a8:	000018b7          	lui	a7,0x1
    30ac:	011108b3          	add	a7,sp,a7
    30b0:	8088b883          	ld	a7,-2040(a7) # 808 <.LBB19_1+0x688>
    30b4:	011288b3          	add	a7,t0,a7
    30b8:	000012b7          	lui	t0,0x1
    30bc:	005102b3          	add	t0,sp,t0
    30c0:	8112b423          	sd	a7,-2040(t0) # 808 <.LBB19_1+0x688>
    30c4:	02e502b3          	mul	t0,a0,a4
    30c8:	00001737          	lui	a4,0x1
    30cc:	00e10733          	add	a4,sp,a4
    30d0:	84073883          	ld	a7,-1984(a4) # 840 <.LBB19_1+0x6c0>
    30d4:	011288b3          	add	a7,t0,a7
    30d8:	00001737          	lui	a4,0x1
    30dc:	00e10733          	add	a4,sp,a4
    30e0:	85173023          	sd	a7,-1984(a4) # 840 <.LBB19_1+0x6c0>
    30e4:	72013703          	ld	a4,1824(sp)
    30e8:	02e502b3          	mul	t0,a0,a4
    30ec:	000018b7          	lui	a7,0x1
    30f0:	011108b3          	add	a7,sp,a7
    30f4:	8788b883          	ld	a7,-1928(a7) # 878 <.LBB19_1+0x6f8>
    30f8:	011288b3          	add	a7,t0,a7
    30fc:	000012b7          	lui	t0,0x1
    3100:	005102b3          	add	t0,sp,t0
    3104:	8712bc23          	sd	a7,-1928(t0) # 878 <.LBB19_1+0x6f8>
    3108:	000c0393          	mv	t2,s8
    310c:	038502b3          	mul	t0,a0,s8
    3110:	000018b7          	lui	a7,0x1
    3114:	011108b3          	add	a7,sp,a7
    3118:	8b08b883          	ld	a7,-1872(a7) # 8b0 <.LBB19_1+0x730>
    311c:	011288b3          	add	a7,t0,a7
    3120:	000012b7          	lui	t0,0x1
    3124:	005102b3          	add	t0,sp,t0
    3128:	8b12b823          	sd	a7,-1872(t0) # 8b0 <.LBB19_1+0x730>
    312c:	036502b3          	mul	t0,a0,s6
    3130:	000018b7          	lui	a7,0x1
    3134:	011108b3          	add	a7,sp,a7
    3138:	8e88b883          	ld	a7,-1816(a7) # 8e8 <.LBB19_1+0x768>
    313c:	011288b3          	add	a7,t0,a7
    3140:	000012b7          	lui	t0,0x1
    3144:	005102b3          	add	t0,sp,t0
    3148:	8f12b423          	sd	a7,-1816(t0) # 8e8 <.LBB19_1+0x768>
    314c:	02f502b3          	mul	t0,a0,a5
    3150:	000017b7          	lui	a5,0x1
    3154:	00f107b3          	add	a5,sp,a5
    3158:	9207b883          	ld	a7,-1760(a5) # 920 <.LBB19_1+0x7a0>
    315c:	011288b3          	add	a7,t0,a7
    3160:	000017b7          	lui	a5,0x1
    3164:	00f107b3          	add	a5,sp,a5
    3168:	9317b023          	sd	a7,-1760(a5) # 920 <.LBB19_1+0x7a0>
    316c:	032502b3          	mul	t0,a0,s2
    3170:	00090793          	mv	a5,s2
    3174:	000018b7          	lui	a7,0x1
    3178:	011108b3          	add	a7,sp,a7
    317c:	9588b883          	ld	a7,-1704(a7) # 958 <.LBB19_1+0x7d8>
    3180:	011288b3          	add	a7,t0,a7
    3184:	000012b7          	lui	t0,0x1
    3188:	005102b3          	add	t0,sp,t0
    318c:	9512bc23          	sd	a7,-1704(t0) # 958 <.LBB19_1+0x7d8>
    3190:	029502b3          	mul	t0,a0,s1
    3194:	000018b7          	lui	a7,0x1
    3198:	011108b3          	add	a7,sp,a7
    319c:	9908b883          	ld	a7,-1648(a7) # 990 <.LBB19_1+0x810>
    31a0:	011288b3          	add	a7,t0,a7
    31a4:	000012b7          	lui	t0,0x1
    31a8:	005102b3          	add	t0,sp,t0
    31ac:	9912b823          	sd	a7,-1648(t0) # 990 <.LBB19_1+0x810>
    31b0:	02b502b3          	mul	t0,a0,a1
    31b4:	000018b7          	lui	a7,0x1
    31b8:	011108b3          	add	a7,sp,a7
    31bc:	9c88b883          	ld	a7,-1592(a7) # 9c8 <.LBB19_1+0x848>
    31c0:	011288b3          	add	a7,t0,a7
    31c4:	000012b7          	lui	t0,0x1
    31c8:	005102b3          	add	t0,sp,t0
    31cc:	9d12b423          	sd	a7,-1592(t0) # 9c8 <.LBB19_1+0x848>
    31d0:	033502b3          	mul	t0,a0,s3
    31d4:	71313823          	sd	s3,1808(sp)
    31d8:	000018b7          	lui	a7,0x1
    31dc:	011108b3          	add	a7,sp,a7
    31e0:	a008b883          	ld	a7,-1536(a7) # a00 <.LBB19_1+0x880>
    31e4:	011288b3          	add	a7,t0,a7
    31e8:	000012b7          	lui	t0,0x1
    31ec:	005102b3          	add	t0,sp,t0
    31f0:	a112b023          	sd	a7,-1536(t0) # a00 <.LBB19_1+0x880>
    31f4:	035502b3          	mul	t0,a0,s5
    31f8:	000018b7          	lui	a7,0x1
    31fc:	011108b3          	add	a7,sp,a7
    3200:	a388b883          	ld	a7,-1480(a7) # a38 <.LBB19_1+0x8b8>
    3204:	011288b3          	add	a7,t0,a7
    3208:	000012b7          	lui	t0,0x1
    320c:	005102b3          	add	t0,sp,t0
    3210:	a312bc23          	sd	a7,-1480(t0) # a38 <.LBB19_1+0x8b8>
    3214:	02c502b3          	mul	t0,a0,a2
    3218:	00001637          	lui	a2,0x1
    321c:	00c10633          	add	a2,sp,a2
    3220:	a7063883          	ld	a7,-1424(a2) # a70 <.LBB19_1+0x8f0>
    3224:	011288b3          	add	a7,t0,a7
    3228:	00001637          	lui	a2,0x1
    322c:	00c10633          	add	a2,sp,a2
    3230:	a7163823          	sd	a7,-1424(a2) # a70 <.LBB19_1+0x8f0>
    3234:	034502b3          	mul	t0,a0,s4
    3238:	000a0f93          	mv	t6,s4
    323c:	00001637          	lui	a2,0x1
    3240:	00c10633          	add	a2,sp,a2
    3244:	aa863883          	ld	a7,-1368(a2) # aa8 <.LBB19_1+0x928>
    3248:	011288b3          	add	a7,t0,a7
    324c:	00001637          	lui	a2,0x1
    3250:	00c10633          	add	a2,sp,a2
    3254:	ab163423          	sd	a7,-1368(a2) # aa8 <.LBB19_1+0x928>
    3258:	026502b3          	mul	t0,a0,t1
    325c:	00030c13          	mv	s8,t1
    3260:	00001637          	lui	a2,0x1
    3264:	00c10633          	add	a2,sp,a2
    3268:	ae063883          	ld	a7,-1312(a2) # ae0 <.LBB19_1+0x960>
    326c:	011288b3          	add	a7,t0,a7
    3270:	00001637          	lui	a2,0x1
    3274:	00c10633          	add	a2,sp,a2
    3278:	af163023          	sd	a7,-1312(a2) # ae0 <.LBB19_1+0x960>
    327c:	037502b3          	mul	t0,a0,s7
    3280:	00001637          	lui	a2,0x1
    3284:	00c10633          	add	a2,sp,a2
    3288:	b1863883          	ld	a7,-1256(a2) # b18 <.LBB19_1+0x998>
    328c:	011288b3          	add	a7,t0,a7
    3290:	00001637          	lui	a2,0x1
    3294:	00c10633          	add	a2,sp,a2
    3298:	b1163c23          	sd	a7,-1256(a2) # b18 <.LBB19_1+0x998>
    329c:	03c502b3          	mul	t0,a0,t3
    32a0:	00001637          	lui	a2,0x1
    32a4:	00c10633          	add	a2,sp,a2
    32a8:	b5063883          	ld	a7,-1200(a2) # b50 <.LBB19_1+0x9d0>
    32ac:	011288b3          	add	a7,t0,a7
    32b0:	00001637          	lui	a2,0x1
    32b4:	00c10633          	add	a2,sp,a2
    32b8:	b5163823          	sd	a7,-1200(a2) # b50 <.LBB19_1+0x9d0>
    32bc:	03a502b3          	mul	t0,a0,s10
    32c0:	00001637          	lui	a2,0x1
    32c4:	00c10633          	add	a2,sp,a2
    32c8:	b8863883          	ld	a7,-1144(a2) # b88 <.LBB19_1+0xa08>
    32cc:	011288b3          	add	a7,t0,a7
    32d0:	00001637          	lui	a2,0x1
    32d4:	00c10633          	add	a2,sp,a2
    32d8:	b9163423          	sd	a7,-1144(a2) # b88 <.LBB19_1+0xa08>
    32dc:	71813303          	ld	t1,1816(sp)
    32e0:	026502b3          	mul	t0,a0,t1
    32e4:	00001637          	lui	a2,0x1
    32e8:	00c10633          	add	a2,sp,a2
    32ec:	bc063883          	ld	a7,-1088(a2) # bc0 <.LBB19_1+0xa40>
    32f0:	011288b3          	add	a7,t0,a7
    32f4:	00001637          	lui	a2,0x1
    32f8:	00c10633          	add	a2,sp,a2
    32fc:	bd163023          	sd	a7,-1088(a2) # bc0 <.LBB19_1+0xa40>
    3300:	03e502b3          	mul	t0,a0,t5
    3304:	00001637          	lui	a2,0x1
    3308:	00c10633          	add	a2,sp,a2
    330c:	bf863883          	ld	a7,-1032(a2) # bf8 <.LBB19_1+0xa78>
    3310:	011288b3          	add	a7,t0,a7
    3314:	00001637          	lui	a2,0x1
    3318:	00c10633          	add	a2,sp,a2
    331c:	bf163c23          	sd	a7,-1032(a2) # bf8 <.LBB19_1+0xa78>
    3320:	039502b3          	mul	t0,a0,s9
    3324:	00001637          	lui	a2,0x1
    3328:	00c10633          	add	a2,sp,a2
    332c:	c3063883          	ld	a7,-976(a2) # c30 <.LBB19_1+0xab0>
    3330:	011288b3          	add	a7,t0,a7
    3334:	00001637          	lui	a2,0x1
    3338:	00c10633          	add	a2,sp,a2
    333c:	c3163823          	sd	a7,-976(a2) # c30 <.LBB19_1+0xab0>
    3340:	00001637          	lui	a2,0x1
    3344:	00c10633          	add	a2,sp,a2
    3348:	db063883          	ld	a7,-592(a2) # db0 <.LBB19_1+0xc30>
    334c:	1e088283          	lb	t0,480(a7)
    3350:	03b50533          	mul	a0,a0,s11
    3354:	00001637          	lui	a2,0x1
    3358:	00c10633          	add	a2,sp,a2
    335c:	c6863883          	ld	a7,-920(a2) # c68 <.LBB19_1+0xae8>
    3360:	011508b3          	add	a7,a0,a7
    3364:	00001537          	lui	a0,0x1
    3368:	00a10533          	add	a0,sp,a0
    336c:	c7153423          	sd	a7,-920(a0) # c68 <.LBB19_1+0xae8>
    3370:	00068e13          	mv	t3,a3
    3374:	02d08533          	mul	a0,ra,a3
    3378:	7d813883          	ld	a7,2008(sp)
    337c:	011508b3          	add	a7,a0,a7
    3380:	7d113c23          	sd	a7,2008(sp)
    3384:	03008533          	mul	a0,ra,a6
    3388:	00080693          	mv	a3,a6
    338c:	7a013883          	ld	a7,1952(sp)
    3390:	011508b3          	add	a7,a0,a7
    3394:	7b113023          	sd	a7,1952(sp)
    3398:	00001537          	lui	a0,0x1
    339c:	00a10533          	add	a0,sp,a0
    33a0:	d1053803          	ld	a6,-752(a0) # d10 <.LBB19_1+0xb90>
    33a4:	03008533          	mul	a0,ra,a6
    33a8:	76813883          	ld	a7,1896(sp)
    33ac:	011508b3          	add	a7,a0,a7
    33b0:	77113423          	sd	a7,1896(sp)
    33b4:	03d08533          	mul	a0,ra,t4
    33b8:	00001637          	lui	a2,0x1
    33bc:	00c10633          	add	a2,sp,a2
    33c0:	81063883          	ld	a7,-2032(a2) # 810 <.LBB19_1+0x690>
    33c4:	011508b3          	add	a7,a0,a7
    33c8:	00001537          	lui	a0,0x1
    33cc:	00a10533          	add	a0,sp,a0
    33d0:	81153823          	sd	a7,-2032(a0) # 810 <.LBB19_1+0x690>
    33d4:	00001537          	lui	a0,0x1
    33d8:	00a10533          	add	a0,sp,a0
    33dc:	d5853f03          	ld	t5,-680(a0) # d58 <.LBB19_1+0xbd8>
    33e0:	03e08533          	mul	a0,ra,t5
    33e4:	00001637          	lui	a2,0x1
    33e8:	00c10633          	add	a2,sp,a2
    33ec:	84863883          	ld	a7,-1976(a2) # 848 <.LBB19_1+0x6c8>
    33f0:	011508b3          	add	a7,a0,a7
    33f4:	00001537          	lui	a0,0x1
    33f8:	00a10533          	add	a0,sp,a0
    33fc:	85153423          	sd	a7,-1976(a0) # 848 <.LBB19_1+0x6c8>
    3400:	02e08533          	mul	a0,ra,a4
    3404:	00070613          	mv	a2,a4
    3408:	00001737          	lui	a4,0x1
    340c:	00e10733          	add	a4,sp,a4
    3410:	88073883          	ld	a7,-1920(a4) # 880 <.LBB19_1+0x700>
    3414:	011508b3          	add	a7,a0,a7
    3418:	00001537          	lui	a0,0x1
    341c:	00a10533          	add	a0,sp,a0
    3420:	89153023          	sd	a7,-1920(a0) # 880 <.LBB19_1+0x700>
    3424:	02708533          	mul	a0,ra,t2
    3428:	00038913          	mv	s2,t2
    342c:	00001737          	lui	a4,0x1
    3430:	00e10733          	add	a4,sp,a4
    3434:	8b873883          	ld	a7,-1864(a4) # 8b8 <.LBB19_1+0x738>
    3438:	011508b3          	add	a7,a0,a7
    343c:	00001537          	lui	a0,0x1
    3440:	00a10533          	add	a0,sp,a0
    3444:	8b153c23          	sd	a7,-1864(a0) # 8b8 <.LBB19_1+0x738>
    3448:	03608533          	mul	a0,ra,s6
    344c:	00001737          	lui	a4,0x1
    3450:	00e10733          	add	a4,sp,a4
    3454:	8f073883          	ld	a7,-1808(a4) # 8f0 <.LBB19_1+0x770>
    3458:	011508b3          	add	a7,a0,a7
    345c:	00001537          	lui	a0,0x1
    3460:	00a10533          	add	a0,sp,a0
    3464:	8f153823          	sd	a7,-1808(a0) # 8f0 <.LBB19_1+0x770>
    3468:	00001537          	lui	a0,0x1
    346c:	00a10533          	add	a0,sp,a0
    3470:	d2853383          	ld	t2,-728(a0) # d28 <.LBB19_1+0xba8>
    3474:	02708533          	mul	a0,ra,t2
    3478:	00001737          	lui	a4,0x1
    347c:	00e10733          	add	a4,sp,a4
    3480:	92873883          	ld	a7,-1752(a4) # 928 <.LBB19_1+0x7a8>
    3484:	011508b3          	add	a7,a0,a7
    3488:	00001537          	lui	a0,0x1
    348c:	00a10533          	add	a0,sp,a0
    3490:	93153423          	sd	a7,-1752(a0) # 928 <.LBB19_1+0x7a8>
    3494:	02f08533          	mul	a0,ra,a5
    3498:	00001737          	lui	a4,0x1
    349c:	00e10733          	add	a4,sp,a4
    34a0:	96073883          	ld	a7,-1696(a4) # 960 <.LBB19_1+0x7e0>
    34a4:	011508b3          	add	a7,a0,a7
    34a8:	00001537          	lui	a0,0x1
    34ac:	00a10533          	add	a0,sp,a0
    34b0:	97153023          	sd	a7,-1696(a0) # 960 <.LBB19_1+0x7e0>
    34b4:	00001537          	lui	a0,0x1
    34b8:	00a10533          	add	a0,sp,a0
    34bc:	d7053783          	ld	a5,-656(a0) # d70 <.LBB19_1+0xbf0>
    34c0:	02f08533          	mul	a0,ra,a5
    34c4:	00001737          	lui	a4,0x1
    34c8:	00e10733          	add	a4,sp,a4
    34cc:	99873883          	ld	a7,-1640(a4) # 998 <.LBB19_1+0x818>
    34d0:	011508b3          	add	a7,a0,a7
    34d4:	00001537          	lui	a0,0x1
    34d8:	00a10533          	add	a0,sp,a0
    34dc:	99153c23          	sd	a7,-1640(a0) # 998 <.LBB19_1+0x818>
    34e0:	02b08533          	mul	a0,ra,a1
    34e4:	000015b7          	lui	a1,0x1
    34e8:	00b105b3          	add	a1,sp,a1
    34ec:	9d05b883          	ld	a7,-1584(a1) # 9d0 <.LBB19_1+0x850>
    34f0:	011508b3          	add	a7,a0,a7
    34f4:	00001537          	lui	a0,0x1
    34f8:	00a10533          	add	a0,sp,a0
    34fc:	9d153823          	sd	a7,-1584(a0) # 9d0 <.LBB19_1+0x850>
    3500:	03308533          	mul	a0,ra,s3
    3504:	000015b7          	lui	a1,0x1
    3508:	00b105b3          	add	a1,sp,a1
    350c:	a085b883          	ld	a7,-1528(a1) # a08 <.LBB19_1+0x888>
    3510:	011508b3          	add	a7,a0,a7
    3514:	00001537          	lui	a0,0x1
    3518:	00a10533          	add	a0,sp,a0
    351c:	a1153423          	sd	a7,-1528(a0) # a08 <.LBB19_1+0x888>
    3520:	03508533          	mul	a0,ra,s5
    3524:	000015b7          	lui	a1,0x1
    3528:	00b105b3          	add	a1,sp,a1
    352c:	a405b883          	ld	a7,-1472(a1) # a40 <.LBB19_1+0x8c0>
    3530:	011508b3          	add	a7,a0,a7
    3534:	00001537          	lui	a0,0x1
    3538:	00a10533          	add	a0,sp,a0
    353c:	a5153023          	sd	a7,-1472(a0) # a40 <.LBB19_1+0x8c0>
    3540:	00001537          	lui	a0,0x1
    3544:	00a10533          	add	a0,sp,a0
    3548:	d6853a03          	ld	s4,-664(a0) # d68 <.LBB19_1+0xbe8>
    354c:	03408533          	mul	a0,ra,s4
    3550:	000015b7          	lui	a1,0x1
    3554:	00b105b3          	add	a1,sp,a1
    3558:	a785b883          	ld	a7,-1416(a1) # a78 <.LBB19_1+0x8f8>
    355c:	011508b3          	add	a7,a0,a7
    3560:	00001537          	lui	a0,0x1
    3564:	00a10533          	add	a0,sp,a0
    3568:	a7153c23          	sd	a7,-1416(a0) # a78 <.LBB19_1+0x8f8>
    356c:	03f08533          	mul	a0,ra,t6
    3570:	000015b7          	lui	a1,0x1
    3574:	00b105b3          	add	a1,sp,a1
    3578:	ab05b883          	ld	a7,-1360(a1) # ab0 <.LBB19_1+0x930>
    357c:	011508b3          	add	a7,a0,a7
    3580:	00001537          	lui	a0,0x1
    3584:	00a10533          	add	a0,sp,a0
    3588:	ab153823          	sd	a7,-1360(a0) # ab0 <.LBB19_1+0x930>
    358c:	03808533          	mul	a0,ra,s8
    3590:	000015b7          	lui	a1,0x1
    3594:	00b105b3          	add	a1,sp,a1
    3598:	ae85b883          	ld	a7,-1304(a1) # ae8 <.LBB19_1+0x968>
    359c:	011508b3          	add	a7,a0,a7
    35a0:	00001537          	lui	a0,0x1
    35a4:	00a10533          	add	a0,sp,a0
    35a8:	af153423          	sd	a7,-1304(a0) # ae8 <.LBB19_1+0x968>
    35ac:	03708533          	mul	a0,ra,s7
    35b0:	000015b7          	lui	a1,0x1
    35b4:	00b105b3          	add	a1,sp,a1
    35b8:	b205b883          	ld	a7,-1248(a1) # b20 <.LBB19_1+0x9a0>
    35bc:	011508b3          	add	a7,a0,a7
    35c0:	00001537          	lui	a0,0x1
    35c4:	00a10533          	add	a0,sp,a0
    35c8:	b3153023          	sd	a7,-1248(a0) # b20 <.LBB19_1+0x9a0>
    35cc:	00001537          	lui	a0,0x1
    35d0:	00a10533          	add	a0,sp,a0
    35d4:	d6053983          	ld	s3,-672(a0) # d60 <.LBB19_1+0xbe0>
    35d8:	03308533          	mul	a0,ra,s3
    35dc:	000015b7          	lui	a1,0x1
    35e0:	00b105b3          	add	a1,sp,a1
    35e4:	b585b883          	ld	a7,-1192(a1) # b58 <.LBB19_1+0x9d8>
    35e8:	011508b3          	add	a7,a0,a7
    35ec:	00001537          	lui	a0,0x1
    35f0:	00a10533          	add	a0,sp,a0
    35f4:	b5153c23          	sd	a7,-1192(a0) # b58 <.LBB19_1+0x9d8>
    35f8:	73a13423          	sd	s10,1832(sp)
    35fc:	03a08533          	mul	a0,ra,s10
    3600:	000015b7          	lui	a1,0x1
    3604:	00b105b3          	add	a1,sp,a1
    3608:	b905b883          	ld	a7,-1136(a1) # b90 <.LBB19_1+0xa10>
    360c:	011508b3          	add	a7,a0,a7
    3610:	00001537          	lui	a0,0x1
    3614:	00a10533          	add	a0,sp,a0
    3618:	b9153823          	sd	a7,-1136(a0) # b90 <.LBB19_1+0xa10>
    361c:	00030593          	mv	a1,t1
    3620:	02608533          	mul	a0,ra,t1
    3624:	00001737          	lui	a4,0x1
    3628:	00e10733          	add	a4,sp,a4
    362c:	bc873883          	ld	a7,-1080(a4) # bc8 <.LBB19_1+0xa48>
    3630:	011508b3          	add	a7,a0,a7
    3634:	00001537          	lui	a0,0x1
    3638:	00a10533          	add	a0,sp,a0
    363c:	bd153423          	sd	a7,-1080(a0) # bc8 <.LBB19_1+0xa48>
    3640:	00001537          	lui	a0,0x1
    3644:	00a10533          	add	a0,sp,a0
    3648:	d1853703          	ld	a4,-744(a0) # d18 <.LBB19_1+0xb98>
    364c:	02e08533          	mul	a0,ra,a4
    3650:	000018b7          	lui	a7,0x1
    3654:	011108b3          	add	a7,sp,a7
    3658:	c008b883          	ld	a7,-1024(a7) # c00 <.LBB19_1+0xa80>
    365c:	011508b3          	add	a7,a0,a7
    3660:	00001537          	lui	a0,0x1
    3664:	00a10533          	add	a0,sp,a0
    3668:	c1153023          	sd	a7,-1024(a0) # c00 <.LBB19_1+0xa80>
    366c:	03908533          	mul	a0,ra,s9
    3670:	000018b7          	lui	a7,0x1
    3674:	011108b3          	add	a7,sp,a7
    3678:	c388b883          	ld	a7,-968(a7) # c38 <.LBB19_1+0xab8>
    367c:	011508b3          	add	a7,a0,a7
    3680:	00001537          	lui	a0,0x1
    3684:	00a10533          	add	a0,sp,a0
    3688:	c3153c23          	sd	a7,-968(a0) # c38 <.LBB19_1+0xab8>
    368c:	00001537          	lui	a0,0x1
    3690:	00a10533          	add	a0,sp,a0
    3694:	db053503          	ld	a0,-592(a0) # db0 <.LBB19_1+0xc30>
    3698:	24050503          	lb	a0,576(a0)
    369c:	03b080b3          	mul	ra,ra,s11
    36a0:	000018b7          	lui	a7,0x1
    36a4:	011108b3          	add	a7,sp,a7
    36a8:	c708b883          	ld	a7,-912(a7) # c70 <.LBB19_1+0xaf0>
    36ac:	011088b3          	add	a7,ra,a7
    36b0:	00001337          	lui	t1,0x1
    36b4:	00610333          	add	t1,sp,t1
    36b8:	c7133823          	sd	a7,-912(t1) # c70 <.LBB19_1+0xaf0>
    36bc:	03c280b3          	mul	ra,t0,t3
    36c0:	7e013883          	ld	a7,2016(sp)
    36c4:	011088b3          	add	a7,ra,a7
    36c8:	7f113023          	sd	a7,2016(sp)
    36cc:	02d280b3          	mul	ra,t0,a3
    36d0:	7a813883          	ld	a7,1960(sp)
    36d4:	011088b3          	add	a7,ra,a7
    36d8:	7b113423          	sd	a7,1960(sp)
    36dc:	00080a93          	mv	s5,a6
    36e0:	030280b3          	mul	ra,t0,a6
    36e4:	77013883          	ld	a7,1904(sp)
    36e8:	011088b3          	add	a7,ra,a7
    36ec:	77113823          	sd	a7,1904(sp)
    36f0:	03d280b3          	mul	ra,t0,t4
    36f4:	00001837          	lui	a6,0x1
    36f8:	01010833          	add	a6,sp,a6
    36fc:	81883883          	ld	a7,-2024(a6) # 818 <.LBB19_1+0x698>
    3700:	011088b3          	add	a7,ra,a7
    3704:	00001837          	lui	a6,0x1
    3708:	01010833          	add	a6,sp,a6
    370c:	81183c23          	sd	a7,-2024(a6) # 818 <.LBB19_1+0x698>
    3710:	03e280b3          	mul	ra,t0,t5
    3714:	00001837          	lui	a6,0x1
    3718:	01010833          	add	a6,sp,a6
    371c:	85083883          	ld	a7,-1968(a6) # 850 <.LBB19_1+0x6d0>
    3720:	011088b3          	add	a7,ra,a7
    3724:	00001837          	lui	a6,0x1
    3728:	01010833          	add	a6,sp,a6
    372c:	85183823          	sd	a7,-1968(a6) # 850 <.LBB19_1+0x6d0>
    3730:	00060493          	mv	s1,a2
    3734:	02c280b3          	mul	ra,t0,a2
    3738:	00001637          	lui	a2,0x1
    373c:	00c10633          	add	a2,sp,a2
    3740:	88863883          	ld	a7,-1912(a2) # 888 <.LBB19_1+0x708>
    3744:	011088b3          	add	a7,ra,a7
    3748:	00001637          	lui	a2,0x1
    374c:	00c10633          	add	a2,sp,a2
    3750:	89163423          	sd	a7,-1912(a2) # 888 <.LBB19_1+0x708>
    3754:	032280b3          	mul	ra,t0,s2
    3758:	00001637          	lui	a2,0x1
    375c:	00c10633          	add	a2,sp,a2
    3760:	8c063883          	ld	a7,-1856(a2) # 8c0 <.LBB19_1+0x740>
    3764:	011088b3          	add	a7,ra,a7
    3768:	00001637          	lui	a2,0x1
    376c:	00c10633          	add	a2,sp,a2
    3770:	8d163023          	sd	a7,-1856(a2) # 8c0 <.LBB19_1+0x740>
    3774:	036280b3          	mul	ra,t0,s6
    3778:	00001637          	lui	a2,0x1
    377c:	00c10633          	add	a2,sp,a2
    3780:	8f863883          	ld	a7,-1800(a2) # 8f8 <.LBB19_1+0x778>
    3784:	011088b3          	add	a7,ra,a7
    3788:	00001637          	lui	a2,0x1
    378c:	00c10633          	add	a2,sp,a2
    3790:	8f163c23          	sd	a7,-1800(a2) # 8f8 <.LBB19_1+0x778>
    3794:	027280b3          	mul	ra,t0,t2
    3798:	00001637          	lui	a2,0x1
    379c:	00c10633          	add	a2,sp,a2
    37a0:	93063883          	ld	a7,-1744(a2) # 930 <.LBB19_1+0x7b0>
    37a4:	011088b3          	add	a7,ra,a7
    37a8:	00001637          	lui	a2,0x1
    37ac:	00c10633          	add	a2,sp,a2
    37b0:	93163823          	sd	a7,-1744(a2) # 930 <.LBB19_1+0x7b0>
    37b4:	00001637          	lui	a2,0x1
    37b8:	00c10633          	add	a2,sp,a2
    37bc:	d3063303          	ld	t1,-720(a2) # d30 <.LBB19_1+0xbb0>
    37c0:	026280b3          	mul	ra,t0,t1
    37c4:	00001637          	lui	a2,0x1
    37c8:	00c10633          	add	a2,sp,a2
    37cc:	96863883          	ld	a7,-1688(a2) # 968 <.LBB19_1+0x7e8>
    37d0:	011088b3          	add	a7,ra,a7
    37d4:	00001637          	lui	a2,0x1
    37d8:	00c10633          	add	a2,sp,a2
    37dc:	97163423          	sd	a7,-1688(a2) # 968 <.LBB19_1+0x7e8>
    37e0:	02f280b3          	mul	ra,t0,a5
    37e4:	00001637          	lui	a2,0x1
    37e8:	00c10633          	add	a2,sp,a2
    37ec:	9a063883          	ld	a7,-1632(a2) # 9a0 <.LBB19_1+0x820>
    37f0:	011088b3          	add	a7,ra,a7
    37f4:	00001637          	lui	a2,0x1
    37f8:	00c10633          	add	a2,sp,a2
    37fc:	9b163023          	sd	a7,-1632(a2) # 9a0 <.LBB19_1+0x820>
    3800:	00001637          	lui	a2,0x1
    3804:	00c10633          	add	a2,sp,a2
    3808:	d7863783          	ld	a5,-648(a2) # d78 <.LBB19_1+0xbf8>
    380c:	02f280b3          	mul	ra,t0,a5
    3810:	00001637          	lui	a2,0x1
    3814:	00c10633          	add	a2,sp,a2
    3818:	9d863883          	ld	a7,-1576(a2) # 9d8 <.LBB19_1+0x858>
    381c:	011088b3          	add	a7,ra,a7
    3820:	00001637          	lui	a2,0x1
    3824:	00c10633          	add	a2,sp,a2
    3828:	9d163c23          	sd	a7,-1576(a2) # 9d8 <.LBB19_1+0x858>
    382c:	71013603          	ld	a2,1808(sp)
    3830:	02c280b3          	mul	ra,t0,a2
    3834:	00001837          	lui	a6,0x1
    3838:	01010833          	add	a6,sp,a6
    383c:	a1083883          	ld	a7,-1520(a6) # a10 <.LBB19_1+0x890>
    3840:	011088b3          	add	a7,ra,a7
    3844:	00001837          	lui	a6,0x1
    3848:	01010833          	add	a6,sp,a6
    384c:	a1183823          	sd	a7,-1520(a6) # a10 <.LBB19_1+0x890>
    3850:	00001837          	lui	a6,0x1
    3854:	01010833          	add	a6,sp,a6
    3858:	d4083803          	ld	a6,-704(a6) # d40 <.LBB19_1+0xbc0>
    385c:	030280b3          	mul	ra,t0,a6
    3860:	000018b7          	lui	a7,0x1
    3864:	011108b3          	add	a7,sp,a7
    3868:	a488b883          	ld	a7,-1464(a7) # a48 <.LBB19_1+0x8c8>
    386c:	011088b3          	add	a7,ra,a7
    3870:	000013b7          	lui	t2,0x1
    3874:	007103b3          	add	t2,sp,t2
    3878:	a513b423          	sd	a7,-1464(t2) # a48 <.LBB19_1+0x8c8>
    387c:	034280b3          	mul	ra,t0,s4
    3880:	000018b7          	lui	a7,0x1
    3884:	011108b3          	add	a7,sp,a7
    3888:	a808b883          	ld	a7,-1408(a7) # a80 <.LBB19_1+0x900>
    388c:	011088b3          	add	a7,ra,a7
    3890:	000013b7          	lui	t2,0x1
    3894:	007103b3          	add	t2,sp,t2
    3898:	a913b023          	sd	a7,-1408(t2) # a80 <.LBB19_1+0x900>
    389c:	03f280b3          	mul	ra,t0,t6
    38a0:	000018b7          	lui	a7,0x1
    38a4:	011108b3          	add	a7,sp,a7
    38a8:	ab88b883          	ld	a7,-1352(a7) # ab8 <.LBB19_1+0x938>
    38ac:	011088b3          	add	a7,ra,a7
    38b0:	000013b7          	lui	t2,0x1
    38b4:	007103b3          	add	t2,sp,t2
    38b8:	ab13bc23          	sd	a7,-1352(t2) # ab8 <.LBB19_1+0x938>
    38bc:	038280b3          	mul	ra,t0,s8
    38c0:	000018b7          	lui	a7,0x1
    38c4:	011108b3          	add	a7,sp,a7
    38c8:	af08b883          	ld	a7,-1296(a7) # af0 <.LBB19_1+0x970>
    38cc:	011088b3          	add	a7,ra,a7
    38d0:	000013b7          	lui	t2,0x1
    38d4:	007103b3          	add	t2,sp,t2
    38d8:	af13b823          	sd	a7,-1296(t2) # af0 <.LBB19_1+0x970>
    38dc:	037280b3          	mul	ra,t0,s7
    38e0:	000018b7          	lui	a7,0x1
    38e4:	011108b3          	add	a7,sp,a7
    38e8:	b288b883          	ld	a7,-1240(a7) # b28 <.LBB19_1+0x9a8>
    38ec:	011088b3          	add	a7,ra,a7
    38f0:	000013b7          	lui	t2,0x1
    38f4:	007103b3          	add	t2,sp,t2
    38f8:	b313b423          	sd	a7,-1240(t2) # b28 <.LBB19_1+0x9a8>
    38fc:	033280b3          	mul	ra,t0,s3
    3900:	000018b7          	lui	a7,0x1
    3904:	011108b3          	add	a7,sp,a7
    3908:	b608b883          	ld	a7,-1184(a7) # b60 <.LBB19_1+0x9e0>
    390c:	011088b3          	add	a7,ra,a7
    3910:	000013b7          	lui	t2,0x1
    3914:	007103b3          	add	t2,sp,t2
    3918:	b713b023          	sd	a7,-1184(t2) # b60 <.LBB19_1+0x9e0>
    391c:	03a280b3          	mul	ra,t0,s10
    3920:	000018b7          	lui	a7,0x1
    3924:	011108b3          	add	a7,sp,a7
    3928:	b988b883          	ld	a7,-1128(a7) # b98 <.LBB19_1+0xa18>
    392c:	011088b3          	add	a7,ra,a7
    3930:	000013b7          	lui	t2,0x1
    3934:	007103b3          	add	t2,sp,t2
    3938:	b913bc23          	sd	a7,-1128(t2) # b98 <.LBB19_1+0xa18>
    393c:	02b280b3          	mul	ra,t0,a1
    3940:	000018b7          	lui	a7,0x1
    3944:	011108b3          	add	a7,sp,a7
    3948:	bd08b883          	ld	a7,-1072(a7) # bd0 <.LBB19_1+0xa50>
    394c:	011088b3          	add	a7,ra,a7
    3950:	000013b7          	lui	t2,0x1
    3954:	007103b3          	add	t2,sp,t2
    3958:	bd13b823          	sd	a7,-1072(t2) # bd0 <.LBB19_1+0xa50>
    395c:	02e280b3          	mul	ra,t0,a4
    3960:	000018b7          	lui	a7,0x1
    3964:	011108b3          	add	a7,sp,a7
    3968:	c088b883          	ld	a7,-1016(a7) # c08 <.LBB19_1+0xa88>
    396c:	011088b3          	add	a7,ra,a7
    3970:	000013b7          	lui	t2,0x1
    3974:	007103b3          	add	t2,sp,t2
    3978:	c113b423          	sd	a7,-1016(t2) # c08 <.LBB19_1+0xa88>
    397c:	039280b3          	mul	ra,t0,s9
    3980:	000018b7          	lui	a7,0x1
    3984:	011108b3          	add	a7,sp,a7
    3988:	c408b883          	ld	a7,-960(a7) # c40 <.LBB19_1+0xac0>
    398c:	011088b3          	add	a7,ra,a7
    3990:	000013b7          	lui	t2,0x1
    3994:	007103b3          	add	t2,sp,t2
    3998:	c513b023          	sd	a7,-960(t2) # c40 <.LBB19_1+0xac0>
    399c:	000018b7          	lui	a7,0x1
    39a0:	011108b3          	add	a7,sp,a7
    39a4:	db08b883          	ld	a7,-592(a7) # db0 <.LBB19_1+0xc30>
    39a8:	2a088083          	lb	ra,672(a7)
    39ac:	03b282b3          	mul	t0,t0,s11
    39b0:	000d8993          	mv	s3,s11
    39b4:	000018b7          	lui	a7,0x1
    39b8:	011108b3          	add	a7,sp,a7
    39bc:	c788b883          	ld	a7,-904(a7) # c78 <.LBB19_1+0xaf8>
    39c0:	011288b3          	add	a7,t0,a7
    39c4:	000012b7          	lui	t0,0x1
    39c8:	005102b3          	add	t0,sp,t0
    39cc:	c712bc23          	sd	a7,-904(t0) # c78 <.LBB19_1+0xaf8>
    39d0:	03c502b3          	mul	t0,a0,t3
    39d4:	7e813883          	ld	a7,2024(sp)
    39d8:	011288b3          	add	a7,t0,a7
    39dc:	7f113423          	sd	a7,2024(sp)
    39e0:	02d502b3          	mul	t0,a0,a3
    39e4:	7b013883          	ld	a7,1968(sp)
    39e8:	011288b3          	add	a7,t0,a7
    39ec:	7b113823          	sd	a7,1968(sp)
    39f0:	035502b3          	mul	t0,a0,s5
    39f4:	77813883          	ld	a7,1912(sp)
    39f8:	011288b3          	add	a7,t0,a7
    39fc:	77113c23          	sd	a7,1912(sp)
    3a00:	000e8393          	mv	t2,t4
    3a04:	03d502b3          	mul	t0,a0,t4
    3a08:	000016b7          	lui	a3,0x1
    3a0c:	00d106b3          	add	a3,sp,a3
    3a10:	8206b883          	ld	a7,-2016(a3) # 820 <.LBB19_1+0x6a0>
    3a14:	011288b3          	add	a7,t0,a7
    3a18:	000016b7          	lui	a3,0x1
    3a1c:	00d106b3          	add	a3,sp,a3
    3a20:	8316b023          	sd	a7,-2016(a3) # 820 <.LBB19_1+0x6a0>
    3a24:	03e502b3          	mul	t0,a0,t5
    3a28:	000f0d93          	mv	s11,t5
    3a2c:	000016b7          	lui	a3,0x1
    3a30:	00d106b3          	add	a3,sp,a3
    3a34:	8586b883          	ld	a7,-1960(a3) # 858 <.LBB19_1+0x6d8>
    3a38:	011288b3          	add	a7,t0,a7
    3a3c:	000016b7          	lui	a3,0x1
    3a40:	00d106b3          	add	a3,sp,a3
    3a44:	8516bc23          	sd	a7,-1960(a3) # 858 <.LBB19_1+0x6d8>
    3a48:	029502b3          	mul	t0,a0,s1
    3a4c:	00048d13          	mv	s10,s1
    3a50:	000016b7          	lui	a3,0x1
    3a54:	00d106b3          	add	a3,sp,a3
    3a58:	8906b883          	ld	a7,-1904(a3) # 890 <.LBB19_1+0x710>
    3a5c:	011288b3          	add	a7,t0,a7
    3a60:	000016b7          	lui	a3,0x1
    3a64:	00d106b3          	add	a3,sp,a3
    3a68:	8916b823          	sd	a7,-1904(a3) # 890 <.LBB19_1+0x710>
    3a6c:	032502b3          	mul	t0,a0,s2
    3a70:	00090f13          	mv	t5,s2
    3a74:	000016b7          	lui	a3,0x1
    3a78:	00d106b3          	add	a3,sp,a3
    3a7c:	8c86b883          	ld	a7,-1848(a3) # 8c8 <.LBB19_1+0x748>
    3a80:	011288b3          	add	a7,t0,a7
    3a84:	000016b7          	lui	a3,0x1
    3a88:	00d106b3          	add	a3,sp,a3
    3a8c:	8d16b423          	sd	a7,-1848(a3) # 8c8 <.LBB19_1+0x748>
    3a90:	036502b3          	mul	t0,a0,s6
    3a94:	000b0e93          	mv	t4,s6
    3a98:	000016b7          	lui	a3,0x1
    3a9c:	00d106b3          	add	a3,sp,a3
    3aa0:	9006b883          	ld	a7,-1792(a3) # 900 <.LBB19_1+0x780>
    3aa4:	011288b3          	add	a7,t0,a7
    3aa8:	000016b7          	lui	a3,0x1
    3aac:	00d106b3          	add	a3,sp,a3
    3ab0:	9116b023          	sd	a7,-1792(a3) # 900 <.LBB19_1+0x780>
    3ab4:	000016b7          	lui	a3,0x1
    3ab8:	00d106b3          	add	a3,sp,a3
    3abc:	d286bf83          	ld	t6,-728(a3) # d28 <.LBB19_1+0xba8>
    3ac0:	03f502b3          	mul	t0,a0,t6
    3ac4:	000016b7          	lui	a3,0x1
    3ac8:	00d106b3          	add	a3,sp,a3
    3acc:	9386b883          	ld	a7,-1736(a3) # 938 <.LBB19_1+0x7b8>
    3ad0:	011288b3          	add	a7,t0,a7
    3ad4:	000016b7          	lui	a3,0x1
    3ad8:	00d106b3          	add	a3,sp,a3
    3adc:	9316bc23          	sd	a7,-1736(a3) # 938 <.LBB19_1+0x7b8>
    3ae0:	00030493          	mv	s1,t1
    3ae4:	026502b3          	mul	t0,a0,t1
    3ae8:	000016b7          	lui	a3,0x1
    3aec:	00d106b3          	add	a3,sp,a3
    3af0:	9706b883          	ld	a7,-1680(a3) # 970 <.LBB19_1+0x7f0>
    3af4:	011288b3          	add	a7,t0,a7
    3af8:	000016b7          	lui	a3,0x1
    3afc:	00d106b3          	add	a3,sp,a3
    3b00:	9716b823          	sd	a7,-1680(a3) # 970 <.LBB19_1+0x7f0>
    3b04:	000016b7          	lui	a3,0x1
    3b08:	00d106b3          	add	a3,sp,a3
    3b0c:	d706b303          	ld	t1,-656(a3) # d70 <.LBB19_1+0xbf0>
    3b10:	026502b3          	mul	t0,a0,t1
    3b14:	000016b7          	lui	a3,0x1
    3b18:	00d106b3          	add	a3,sp,a3
    3b1c:	9a86b883          	ld	a7,-1624(a3) # 9a8 <.LBB19_1+0x828>
    3b20:	011288b3          	add	a7,t0,a7
    3b24:	000016b7          	lui	a3,0x1
    3b28:	00d106b3          	add	a3,sp,a3
    3b2c:	9b16b423          	sd	a7,-1624(a3) # 9a8 <.LBB19_1+0x828>
    3b30:	02f502b3          	mul	t0,a0,a5
    3b34:	00078e13          	mv	t3,a5
    3b38:	000016b7          	lui	a3,0x1
    3b3c:	00d106b3          	add	a3,sp,a3
    3b40:	9e06b883          	ld	a7,-1568(a3) # 9e0 <.LBB19_1+0x860>
    3b44:	011288b3          	add	a7,t0,a7
    3b48:	000016b7          	lui	a3,0x1
    3b4c:	00d106b3          	add	a3,sp,a3
    3b50:	9f16b023          	sd	a7,-1568(a3) # 9e0 <.LBB19_1+0x860>
    3b54:	00060913          	mv	s2,a2
    3b58:	02c502b3          	mul	t0,a0,a2
    3b5c:	00001637          	lui	a2,0x1
    3b60:	00c10633          	add	a2,sp,a2
    3b64:	a1863883          	ld	a7,-1512(a2) # a18 <.LBB19_1+0x898>
    3b68:	011288b3          	add	a7,t0,a7
    3b6c:	00001637          	lui	a2,0x1
    3b70:	00c10633          	add	a2,sp,a2
    3b74:	a1163c23          	sd	a7,-1512(a2) # a18 <.LBB19_1+0x898>
    3b78:	030502b3          	mul	t0,a0,a6
    3b7c:	00001637          	lui	a2,0x1
    3b80:	00c10633          	add	a2,sp,a2
    3b84:	a5063883          	ld	a7,-1456(a2) # a50 <.LBB19_1+0x8d0>
    3b88:	011288b3          	add	a7,t0,a7
    3b8c:	00001637          	lui	a2,0x1
    3b90:	00c10633          	add	a2,sp,a2
    3b94:	a5163823          	sd	a7,-1456(a2) # a50 <.LBB19_1+0x8d0>
    3b98:	034502b3          	mul	t0,a0,s4
    3b9c:	00001637          	lui	a2,0x1
    3ba0:	00c10633          	add	a2,sp,a2
    3ba4:	a8863883          	ld	a7,-1400(a2) # a88 <.LBB19_1+0x908>
    3ba8:	011288b3          	add	a7,t0,a7
    3bac:	00001637          	lui	a2,0x1
    3bb0:	00c10633          	add	a2,sp,a2
    3bb4:	a9163423          	sd	a7,-1400(a2) # a88 <.LBB19_1+0x908>
    3bb8:	00001637          	lui	a2,0x1
    3bbc:	00c10633          	add	a2,sp,a2
    3bc0:	d3863a83          	ld	s5,-712(a2) # d38 <.LBB19_1+0xbb8>
    3bc4:	035502b3          	mul	t0,a0,s5
    3bc8:	00001637          	lui	a2,0x1
    3bcc:	00c10633          	add	a2,sp,a2
    3bd0:	ac063883          	ld	a7,-1344(a2) # ac0 <.LBB19_1+0x940>
    3bd4:	011288b3          	add	a7,t0,a7
    3bd8:	00001637          	lui	a2,0x1
    3bdc:	00c10633          	add	a2,sp,a2
    3be0:	ad163023          	sd	a7,-1344(a2) # ac0 <.LBB19_1+0x940>
    3be4:	000c0b13          	mv	s6,s8
    3be8:	038502b3          	mul	t0,a0,s8
    3bec:	00001637          	lui	a2,0x1
    3bf0:	00c10633          	add	a2,sp,a2
    3bf4:	af863883          	ld	a7,-1288(a2) # af8 <.LBB19_1+0x978>
    3bf8:	011288b3          	add	a7,t0,a7
    3bfc:	00001637          	lui	a2,0x1
    3c00:	00c10633          	add	a2,sp,a2
    3c04:	af163c23          	sd	a7,-1288(a2) # af8 <.LBB19_1+0x978>
    3c08:	000b8c13          	mv	s8,s7
    3c0c:	037502b3          	mul	t0,a0,s7
    3c10:	00001637          	lui	a2,0x1
    3c14:	00c10633          	add	a2,sp,a2
    3c18:	b3063883          	ld	a7,-1232(a2) # b30 <.LBB19_1+0x9b0>
    3c1c:	011288b3          	add	a7,t0,a7
    3c20:	00001637          	lui	a2,0x1
    3c24:	00c10633          	add	a2,sp,a2
    3c28:	b3163823          	sd	a7,-1232(a2) # b30 <.LBB19_1+0x9b0>
    3c2c:	00001637          	lui	a2,0x1
    3c30:	00c10633          	add	a2,sp,a2
    3c34:	d6063b83          	ld	s7,-672(a2) # d60 <.LBB19_1+0xbe0>
    3c38:	037502b3          	mul	t0,a0,s7
    3c3c:	00001637          	lui	a2,0x1
    3c40:	00c10633          	add	a2,sp,a2
    3c44:	b6863883          	ld	a7,-1176(a2) # b68 <.LBB19_1+0x9e8>
    3c48:	011288b3          	add	a7,t0,a7
    3c4c:	00001637          	lui	a2,0x1
    3c50:	00c10633          	add	a2,sp,a2
    3c54:	b7163423          	sd	a7,-1176(a2) # b68 <.LBB19_1+0x9e8>
    3c58:	72813603          	ld	a2,1832(sp)
    3c5c:	02c502b3          	mul	t0,a0,a2
    3c60:	000016b7          	lui	a3,0x1
    3c64:	00d106b3          	add	a3,sp,a3
    3c68:	ba06b883          	ld	a7,-1120(a3) # ba0 <.LBB19_1+0xa20>
    3c6c:	011288b3          	add	a7,t0,a7
    3c70:	000016b7          	lui	a3,0x1
    3c74:	00d106b3          	add	a3,sp,a3
    3c78:	bb16b023          	sd	a7,-1120(a3) # ba0 <.LBB19_1+0xa20>
    3c7c:	02b502b3          	mul	t0,a0,a1
    3c80:	000016b7          	lui	a3,0x1
    3c84:	00d106b3          	add	a3,sp,a3
    3c88:	bd86b883          	ld	a7,-1064(a3) # bd8 <.LBB19_1+0xa58>
    3c8c:	011288b3          	add	a7,t0,a7
    3c90:	000016b7          	lui	a3,0x1
    3c94:	00d106b3          	add	a3,sp,a3
    3c98:	bd16bc23          	sd	a7,-1064(a3) # bd8 <.LBB19_1+0xa58>
    3c9c:	02e502b3          	mul	t0,a0,a4
    3ca0:	000016b7          	lui	a3,0x1
    3ca4:	00d106b3          	add	a3,sp,a3
    3ca8:	c106b883          	ld	a7,-1008(a3) # c10 <.LBB19_1+0xa90>
    3cac:	011288b3          	add	a7,t0,a7
    3cb0:	000016b7          	lui	a3,0x1
    3cb4:	00d106b3          	add	a3,sp,a3
    3cb8:	c116b823          	sd	a7,-1008(a3) # c10 <.LBB19_1+0xa90>
    3cbc:	039502b3          	mul	t0,a0,s9
    3cc0:	000016b7          	lui	a3,0x1
    3cc4:	00d106b3          	add	a3,sp,a3
    3cc8:	c486b883          	ld	a7,-952(a3) # c48 <.LBB19_1+0xac8>
    3ccc:	011288b3          	add	a7,t0,a7
    3cd0:	000016b7          	lui	a3,0x1
    3cd4:	00d106b3          	add	a3,sp,a3
    3cd8:	c516b423          	sd	a7,-952(a3) # c48 <.LBB19_1+0xac8>
    3cdc:	03350533          	mul	a0,a0,s3
    3ce0:	000016b7          	lui	a3,0x1
    3ce4:	00d106b3          	add	a3,sp,a3
    3ce8:	c806b283          	ld	t0,-896(a3) # c80 <.LBB19_1+0xb00>
    3cec:	005502b3          	add	t0,a0,t0
    3cf0:	00001537          	lui	a0,0x1
    3cf4:	00a10533          	add	a0,sp,a0
    3cf8:	c8553023          	sd	t0,-896(a0) # c80 <.LBB19_1+0xb00>
    3cfc:	03308533          	mul	a0,ra,s3
    3d00:	70a13023          	sd	a0,1792(sp)
    3d04:	00001537          	lui	a0,0x1
    3d08:	00a10533          	add	a0,sp,a0
    3d0c:	cb053683          	ld	a3,-848(a0) # cb0 <.LBB19_1+0xb30>
    3d10:	03908533          	mul	a0,ra,s9
    3d14:	70a13423          	sd	a0,1800(sp)
    3d18:	02e08533          	mul	a0,ra,a4
    3d1c:	00001737          	lui	a4,0x1
    3d20:	00e10733          	add	a4,sp,a4
    3d24:	d0a73c23          	sd	a0,-744(a4) # d18 <.LBB19_1+0xb98>
    3d28:	02b087b3          	mul	a5,ra,a1
    3d2c:	02c08733          	mul	a4,ra,a2
    3d30:	03708633          	mul	a2,ra,s7
    3d34:	038082b3          	mul	t0,ra,s8
    3d38:	03608cb3          	mul	s9,ra,s6
    3d3c:	03508c33          	mul	s8,ra,s5
    3d40:	03408bb3          	mul	s7,ra,s4
    3d44:	03008b33          	mul	s6,ra,a6
    3d48:	03208ab3          	mul	s5,ra,s2
    3d4c:	03c085b3          	mul	a1,ra,t3
    3d50:	02608a33          	mul	s4,ra,t1
    3d54:	029089b3          	mul	s3,ra,s1
    3d58:	03f08933          	mul	s2,ra,t6
    3d5c:	03d084b3          	mul	s1,ra,t4
    3d60:	03e08fb3          	mul	t6,ra,t5
    3d64:	03a08f33          	mul	t5,ra,s10
    3d68:	03b088b3          	mul	a7,ra,s11
    3d6c:	02708eb3          	mul	t4,ra,t2
    3d70:	00001537          	lui	a0,0x1
    3d74:	00a10533          	add	a0,sp,a0
    3d78:	d1053503          	ld	a0,-752(a0) # d10 <.LBB19_1+0xb90>
    3d7c:	02a08db3          	mul	s11,ra,a0
    3d80:	00001537          	lui	a0,0x1
    3d84:	00a10533          	add	a0,sp,a0
    3d88:	d2053503          	ld	a0,-736(a0) # d20 <.LBB19_1+0xba0>
    3d8c:	02a083b3          	mul	t2,ra,a0
    3d90:	00001537          	lui	a0,0x1
    3d94:	00a10533          	add	a0,sp,a0
    3d98:	d4853503          	ld	a0,-696(a0) # d48 <.LBB19_1+0xbc8>
    3d9c:	02a08e33          	mul	t3,ra,a0
    3da0:	00001537          	lui	a0,0x1
    3da4:	00a10533          	add	a0,sp,a0
    3da8:	ca853083          	ld	ra,-856(a0) # ca8 <.LBB19_1+0xb28>
    3dac:	00001537          	lui	a0,0x1
    3db0:	00a10533          	add	a0,sp,a0
    3db4:	c9053d03          	ld	s10,-880(a0) # c90 <.LBB19_1+0xb10>
    3db8:	01ae0d33          	add	s10,t3,s10
    3dbc:	00001537          	lui	a0,0x1
    3dc0:	00a10533          	add	a0,sp,a0
    3dc4:	c9a53823          	sd	s10,-880(a0) # c90 <.LBB19_1+0xb10>
    3dc8:	00001537          	lui	a0,0x1
    3dcc:	00a10533          	add	a0,sp,a0
    3dd0:	cd053e03          	ld	t3,-816(a0) # cd0 <.LBB19_1+0xb50>
    3dd4:	00001537          	lui	a0,0x1
    3dd8:	00a10533          	add	a0,sp,a0
    3ddc:	c9853d03          	ld	s10,-872(a0) # c98 <.LBB19_1+0xb18>
    3de0:	01a38d33          	add	s10,t2,s10
    3de4:	00001537          	lui	a0,0x1
    3de8:	00a10533          	add	a0,sp,a0
    3dec:	c9a53c23          	sd	s10,-872(a0) # c98 <.LBB19_1+0xb18>
    3df0:	00001537          	lui	a0,0x1
    3df4:	00a10533          	add	a0,sp,a0
    3df8:	cd853383          	ld	t2,-808(a0) # cd8 <.LBB19_1+0xb58>
    3dfc:	00001537          	lui	a0,0x1
    3e00:	00a10533          	add	a0,sp,a0
    3e04:	ca053d03          	ld	s10,-864(a0) # ca0 <.LBB19_1+0xb20>
    3e08:	01ad8d33          	add	s10,s11,s10
    3e0c:	74013d83          	ld	s11,1856(sp)
    3e10:	00001537          	lui	a0,0x1
    3e14:	00a10533          	add	a0,sp,a0
    3e18:	cba53023          	sd	s10,-864(a0) # ca0 <.LBB19_1+0xb20>
    3e1c:	00001537          	lui	a0,0x1
    3e20:	00a10533          	add	a0,sp,a0
    3e24:	cb853d03          	ld	s10,-840(a0) # cb8 <.LBB19_1+0xb38>
    3e28:	01be8db3          	add	s11,t4,s11
    3e2c:	00001537          	lui	a0,0x1
    3e30:	00a10533          	add	a0,sp,a0
    3e34:	cc853e83          	ld	t4,-824(a0) # cc8 <.LBB19_1+0xb48>
    3e38:	00001537          	lui	a0,0x1
    3e3c:	00a10533          	add	a0,sp,a0
    3e40:	c8853303          	ld	t1,-888(a0) # c88 <.LBB19_1+0xb08>
    3e44:	00688333          	add	t1,a7,t1
    3e48:	00001537          	lui	a0,0x1
    3e4c:	00a10533          	add	a0,sp,a0
    3e50:	d0853883          	ld	a7,-760(a0) # d08 <.LBB19_1+0xb88>
    3e54:	00001537          	lui	a0,0x1
    3e58:	00a10533          	add	a0,sp,a0
    3e5c:	c8653423          	sd	t1,-888(a0) # c88 <.LBB19_1+0xb08>
    3e60:	00001537          	lui	a0,0x1
    3e64:	00a10533          	add	a0,sp,a0
    3e68:	ce053303          	ld	t1,-800(a0) # ce0 <.LBB19_1+0xb60>
    3e6c:	00001537          	lui	a0,0x1
    3e70:	00a10533          	add	a0,sp,a0
    3e74:	cf853503          	ld	a0,-776(a0) # cf8 <.LBB19_1+0xb78>
    3e78:	00af0533          	add	a0,t5,a0
    3e7c:	00001837          	lui	a6,0x1
    3e80:	01010833          	add	a6,sp,a6
    3e84:	cea83c23          	sd	a0,-776(a6) # cf8 <.LBB19_1+0xb78>
    3e88:	00001537          	lui	a0,0x1
    3e8c:	00a10533          	add	a0,sp,a0
    3e90:	d0053503          	ld	a0,-768(a0) # d00 <.LBB19_1+0xb80>
    3e94:	00af8533          	add	a0,t6,a0
    3e98:	00001837          	lui	a6,0x1
    3e9c:	01010833          	add	a6,sp,a6
    3ea0:	d0a83023          	sd	a0,-768(a6) # d00 <.LBB19_1+0xb80>
    3ea4:	011488b3          	add	a7,s1,a7
    3ea8:	00001537          	lui	a0,0x1
    3eac:	00a10533          	add	a0,sp,a0
    3eb0:	d1153423          	sd	a7,-760(a0) # d08 <.LBB19_1+0xb88>
    3eb4:	00068893          	mv	a7,a3
    3eb8:	001900b3          	add	ra,s2,ra
    3ebc:	00d988b3          	add	a7,s3,a3
    3ec0:	01aa0d33          	add	s10,s4,s10
    3ec4:	00001537          	lui	a0,0x1
    3ec8:	00a10533          	add	a0,sp,a0
    3ecc:	cc053a03          	ld	s4,-832(a0) # cc0 <.LBB19_1+0xb40>
    3ed0:	01458a33          	add	s4,a1,s4
    3ed4:	00001537          	lui	a0,0x1
    3ed8:	00a10533          	add	a0,sp,a0
    3edc:	d8053583          	ld	a1,-640(a0) # d80 <.LBB19_1+0xc00>
    3ee0:	00ba85b3          	add	a1,s5,a1
    3ee4:	00001537          	lui	a0,0x1
    3ee8:	00a10533          	add	a0,sp,a0
    3eec:	d8b53023          	sd	a1,-640(a0) # d80 <.LBB19_1+0xc00>
    3ef0:	00001537          	lui	a0,0x1
    3ef4:	00a10533          	add	a0,sp,a0
    3ef8:	d8053983          	ld	s3,-640(a0) # d80 <.LBB19_1+0xc00>
    3efc:	00001537          	lui	a0,0x1
    3f00:	00a10533          	add	a0,sp,a0
    3f04:	d8853583          	ld	a1,-632(a0) # d88 <.LBB19_1+0xc08>
    3f08:	00bb05b3          	add	a1,s6,a1
    3f0c:	00001537          	lui	a0,0x1
    3f10:	00a10533          	add	a0,sp,a0
    3f14:	d8b53423          	sd	a1,-632(a0) # d88 <.LBB19_1+0xc08>
    3f18:	00001537          	lui	a0,0x1
    3f1c:	00a10533          	add	a0,sp,a0
    3f20:	d8853903          	ld	s2,-632(a0) # d88 <.LBB19_1+0xc08>
    3f24:	00001537          	lui	a0,0x1
    3f28:	00a10533          	add	a0,sp,a0
    3f2c:	d9053583          	ld	a1,-624(a0) # d90 <.LBB19_1+0xc10>
    3f30:	00bb85b3          	add	a1,s7,a1
    3f34:	00001537          	lui	a0,0x1
    3f38:	00a10533          	add	a0,sp,a0
    3f3c:	d8b53823          	sd	a1,-624(a0) # d90 <.LBB19_1+0xc10>
    3f40:	00001537          	lui	a0,0x1
    3f44:	00a10533          	add	a0,sp,a0
    3f48:	d9053483          	ld	s1,-624(a0) # d90 <.LBB19_1+0xc10>
    3f4c:	00001537          	lui	a0,0x1
    3f50:	00a10533          	add	a0,sp,a0
    3f54:	d9853583          	ld	a1,-616(a0) # d98 <.LBB19_1+0xc18>
    3f58:	00bc05b3          	add	a1,s8,a1
    3f5c:	00001537          	lui	a0,0x1
    3f60:	00a10533          	add	a0,sp,a0
    3f64:	d8b53c23          	sd	a1,-616(a0) # d98 <.LBB19_1+0xc18>
    3f68:	00001537          	lui	a0,0x1
    3f6c:	00a10533          	add	a0,sp,a0
    3f70:	d9853f83          	ld	t6,-616(a0) # d98 <.LBB19_1+0xc18>
    3f74:	00001537          	lui	a0,0x1
    3f78:	00a10533          	add	a0,sp,a0
    3f7c:	da053583          	ld	a1,-608(a0) # da0 <.LBB19_1+0xc20>
    3f80:	00bc85b3          	add	a1,s9,a1
    3f84:	00001537          	lui	a0,0x1
    3f88:	00a10533          	add	a0,sp,a0
    3f8c:	dab53023          	sd	a1,-608(a0) # da0 <.LBB19_1+0xc20>
    3f90:	00001537          	lui	a0,0x1
    3f94:	00a10533          	add	a0,sp,a0
    3f98:	da053f03          	ld	t5,-608(a0) # da0 <.LBB19_1+0xc20>
    3f9c:	01d28eb3          	add	t4,t0,t4
    3fa0:	00001537          	lui	a0,0x1
    3fa4:	00a10533          	add	a0,sp,a0
    3fa8:	ce853283          	ld	t0,-792(a0) # ce8 <.LBB19_1+0xb68>
    3fac:	01c60e33          	add	t3,a2,t3
    3fb0:	007703b3          	add	t2,a4,t2
    3fb4:	00001537          	lui	a0,0x1
    3fb8:	00a10533          	add	a0,sp,a0
    3fbc:	cf053603          	ld	a2,-784(a0) # cf0 <.LBB19_1+0xb70>
    3fc0:	00678333          	add	t1,a5,t1
    3fc4:	00001537          	lui	a0,0x1
    3fc8:	00a10533          	add	a0,sp,a0
    3fcc:	db053703          	ld	a4,-592(a0) # db0 <.LBB19_1+0xc30>
    3fd0:	00001537          	lui	a0,0x1
    3fd4:	00a10533          	add	a0,sp,a0
    3fd8:	d1853503          	ld	a0,-744(a0) # d18 <.LBB19_1+0xb98>
    3fdc:	005502b3          	add	t0,a0,t0
    3fe0:	00001537          	lui	a0,0x1
    3fe4:	00a10533          	add	a0,sp,a0
    3fe8:	da853583          	ld	a1,-600(a0) # da8 <.LBB19_1+0xc28>
    3fec:	70813503          	ld	a0,1800(sp)
    3ff0:	00b505b3          	add	a1,a0,a1
    3ff4:	00001537          	lui	a0,0x1
    3ff8:	00a10533          	add	a0,sp,a0
    3ffc:	dab53423          	sd	a1,-600(a0) # da8 <.LBB19_1+0xc28>
    4000:	00001537          	lui	a0,0x1
    4004:	00a10533          	add	a0,sp,a0
    4008:	db853583          	ld	a1,-584(a0) # db8 <.LBB19_1+0xc38>
    400c:	00001537          	lui	a0,0x1
    4010:	00a10533          	add	a0,sp,a0
    4014:	da853683          	ld	a3,-600(a0) # da8 <.LBB19_1+0xc28>
    4018:	70013503          	ld	a0,1792(sp)
    401c:	00c50633          	add	a2,a0,a2
    4020:	00170713          	addi	a4,a4,1
    4024:	01858593          	addi	a1,a1,24
    4028:	6f813503          	ld	a0,1784(sp)
    402c:	00a70463          	beq	a4,a0,4034 <.LBB19_4>
    4030:	c20fe06f          	j	2450 <.LBB19_3>

0000000000004034 <.LBB19_4>:
    4034:	74813503          	ld	a0,1864(sp)
    4038:	000015b7          	lui	a1,0x1
    403c:	00b105b3          	add	a1,sp,a1
    4040:	dca5a023          	sw	a0,-576(a1) # dc0 <.LBB19_1+0xc40>
    4044:	78013503          	ld	a0,1920(sp)
    4048:	000015b7          	lui	a1,0x1
    404c:	00b105b3          	add	a1,sp,a1
    4050:	dca5a223          	sw	a0,-572(a1) # dc4 <.LBB19_1+0xc44>
    4054:	7b813503          	ld	a0,1976(sp)
    4058:	000015b7          	lui	a1,0x1
    405c:	00b105b3          	add	a1,sp,a1
    4060:	dca5a423          	sw	a0,-568(a1) # dc8 <.LBB19_1+0xc48>
    4064:	7f013503          	ld	a0,2032(sp)
    4068:	000015b7          	lui	a1,0x1
    406c:	00b105b3          	add	a1,sp,a1
    4070:	dca5a623          	sw	a0,-564(a1) # dcc <.LBB19_1+0xc4c>
    4074:	00001537          	lui	a0,0x1
    4078:	00a10533          	add	a0,sp,a0
    407c:	82853503          	ld	a0,-2008(a0) # 828 <.LBB19_1+0x6a8>
    4080:	000015b7          	lui	a1,0x1
    4084:	00b105b3          	add	a1,sp,a1
    4088:	dca5a823          	sw	a0,-560(a1) # dd0 <.LBB19_1+0xc50>
    408c:	00001537          	lui	a0,0x1
    4090:	00a10533          	add	a0,sp,a0
    4094:	86053503          	ld	a0,-1952(a0) # 860 <.LBB19_1+0x6e0>
    4098:	000015b7          	lui	a1,0x1
    409c:	00b105b3          	add	a1,sp,a1
    40a0:	dca5aa23          	sw	a0,-556(a1) # dd4 <.LBB19_1+0xc54>
    40a4:	00001537          	lui	a0,0x1
    40a8:	00a10533          	add	a0,sp,a0
    40ac:	89853503          	ld	a0,-1896(a0) # 898 <.LBB19_1+0x718>
    40b0:	000015b7          	lui	a1,0x1
    40b4:	00b105b3          	add	a1,sp,a1
    40b8:	dca5ac23          	sw	a0,-552(a1) # dd8 <.LBB19_1+0xc58>
    40bc:	00001537          	lui	a0,0x1
    40c0:	00a10533          	add	a0,sp,a0
    40c4:	8d053503          	ld	a0,-1840(a0) # 8d0 <.LBB19_1+0x750>
    40c8:	000015b7          	lui	a1,0x1
    40cc:	00b105b3          	add	a1,sp,a1
    40d0:	dca5ae23          	sw	a0,-548(a1) # ddc <.LBB19_1+0xc5c>
    40d4:	00001537          	lui	a0,0x1
    40d8:	00a10533          	add	a0,sp,a0
    40dc:	90853503          	ld	a0,-1784(a0) # 908 <.LBB19_1+0x788>
    40e0:	000015b7          	lui	a1,0x1
    40e4:	00b105b3          	add	a1,sp,a1
    40e8:	dea5a023          	sw	a0,-544(a1) # de0 <.LBB19_1+0xc60>
    40ec:	00001537          	lui	a0,0x1
    40f0:	00a10533          	add	a0,sp,a0
    40f4:	94053503          	ld	a0,-1728(a0) # 940 <.LBB19_1+0x7c0>
    40f8:	000015b7          	lui	a1,0x1
    40fc:	00b105b3          	add	a1,sp,a1
    4100:	dea5a223          	sw	a0,-540(a1) # de4 <.LBB19_1+0xc64>
    4104:	00001537          	lui	a0,0x1
    4108:	00a10533          	add	a0,sp,a0
    410c:	97853503          	ld	a0,-1672(a0) # 978 <.LBB19_1+0x7f8>
    4110:	000015b7          	lui	a1,0x1
    4114:	00b105b3          	add	a1,sp,a1
    4118:	dea5a423          	sw	a0,-536(a1) # de8 <.LBB19_1+0xc68>
    411c:	00001537          	lui	a0,0x1
    4120:	00a10533          	add	a0,sp,a0
    4124:	9b053503          	ld	a0,-1616(a0) # 9b0 <.LBB19_1+0x830>
    4128:	000015b7          	lui	a1,0x1
    412c:	00b105b3          	add	a1,sp,a1
    4130:	dea5a623          	sw	a0,-532(a1) # dec <.LBB19_1+0xc6c>
    4134:	00001537          	lui	a0,0x1
    4138:	00a10533          	add	a0,sp,a0
    413c:	9e853503          	ld	a0,-1560(a0) # 9e8 <.LBB19_1+0x868>
    4140:	000015b7          	lui	a1,0x1
    4144:	00b105b3          	add	a1,sp,a1
    4148:	dea5a823          	sw	a0,-528(a1) # df0 <.LBB19_1+0xc70>
    414c:	00001537          	lui	a0,0x1
    4150:	00a10533          	add	a0,sp,a0
    4154:	a2053503          	ld	a0,-1504(a0) # a20 <.LBB19_1+0x8a0>
    4158:	000015b7          	lui	a1,0x1
    415c:	00b105b3          	add	a1,sp,a1
    4160:	dea5aa23          	sw	a0,-524(a1) # df4 <.LBB19_1+0xc74>
    4164:	00001537          	lui	a0,0x1
    4168:	00a10533          	add	a0,sp,a0
    416c:	a5853503          	ld	a0,-1448(a0) # a58 <.LBB19_1+0x8d8>
    4170:	000015b7          	lui	a1,0x1
    4174:	00b105b3          	add	a1,sp,a1
    4178:	dea5ac23          	sw	a0,-520(a1) # df8 <.LBB19_1+0xc78>
    417c:	00001537          	lui	a0,0x1
    4180:	00a10533          	add	a0,sp,a0
    4184:	a9053503          	ld	a0,-1392(a0) # a90 <.LBB19_1+0x910>
    4188:	000015b7          	lui	a1,0x1
    418c:	00b105b3          	add	a1,sp,a1
    4190:	dea5ae23          	sw	a0,-516(a1) # dfc <.LBB19_1+0xc7c>
    4194:	00001537          	lui	a0,0x1
    4198:	00a10533          	add	a0,sp,a0
    419c:	ac853503          	ld	a0,-1336(a0) # ac8 <.LBB19_1+0x948>
    41a0:	000015b7          	lui	a1,0x1
    41a4:	00b105b3          	add	a1,sp,a1
    41a8:	e0a5a023          	sw	a0,-512(a1) # e00 <.LBB19_1+0xc80>
    41ac:	00001537          	lui	a0,0x1
    41b0:	00a10533          	add	a0,sp,a0
    41b4:	b0053503          	ld	a0,-1280(a0) # b00 <.LBB19_1+0x980>
    41b8:	000015b7          	lui	a1,0x1
    41bc:	00b105b3          	add	a1,sp,a1
    41c0:	e0a5a223          	sw	a0,-508(a1) # e04 <.LBB19_1+0xc84>
    41c4:	00001537          	lui	a0,0x1
    41c8:	00a10533          	add	a0,sp,a0
    41cc:	b3853503          	ld	a0,-1224(a0) # b38 <.LBB19_1+0x9b8>
    41d0:	000015b7          	lui	a1,0x1
    41d4:	00b105b3          	add	a1,sp,a1
    41d8:	e0a5a423          	sw	a0,-504(a1) # e08 <.LBB19_1+0xc88>
    41dc:	00001537          	lui	a0,0x1
    41e0:	00a10533          	add	a0,sp,a0
    41e4:	b7053503          	ld	a0,-1168(a0) # b70 <.LBB19_1+0x9f0>
    41e8:	000015b7          	lui	a1,0x1
    41ec:	00b105b3          	add	a1,sp,a1
    41f0:	e0a5a623          	sw	a0,-500(a1) # e0c <.LBB19_1+0xc8c>
    41f4:	00001537          	lui	a0,0x1
    41f8:	00a10533          	add	a0,sp,a0
    41fc:	ba853503          	ld	a0,-1112(a0) # ba8 <.LBB19_1+0xa28>
    4200:	000015b7          	lui	a1,0x1
    4204:	00b105b3          	add	a1,sp,a1
    4208:	e0a5a823          	sw	a0,-496(a1) # e10 <.LBB19_1+0xc90>
    420c:	00001537          	lui	a0,0x1
    4210:	00a10533          	add	a0,sp,a0
    4214:	be053503          	ld	a0,-1056(a0) # be0 <.LBB19_1+0xa60>
    4218:	000015b7          	lui	a1,0x1
    421c:	00b105b3          	add	a1,sp,a1
    4220:	e0a5aa23          	sw	a0,-492(a1) # e14 <.LBB19_1+0xc94>
    4224:	00001537          	lui	a0,0x1
    4228:	00a10533          	add	a0,sp,a0
    422c:	c1853503          	ld	a0,-1000(a0) # c18 <.LBB19_1+0xa98>
    4230:	000015b7          	lui	a1,0x1
    4234:	00b105b3          	add	a1,sp,a1
    4238:	e0a5ac23          	sw	a0,-488(a1) # e18 <.LBB19_1+0xc98>
    423c:	00001537          	lui	a0,0x1
    4240:	00a10533          	add	a0,sp,a0
    4244:	c5053503          	ld	a0,-944(a0) # c50 <.LBB19_1+0xad0>
    4248:	000015b7          	lui	a1,0x1
    424c:	00b105b3          	add	a1,sp,a1
    4250:	e0a5ae23          	sw	a0,-484(a1) # e1c <.LBB19_1+0xc9c>
    4254:	7ff10513          	addi	a0,sp,2047
    4258:	62150513          	addi	a0,a0,1569
    425c:	75013583          	ld	a1,1872(sp)
    4260:	00b52023          	sw	a1,0(a0)
    4264:	78813503          	ld	a0,1928(sp)
    4268:	000015b7          	lui	a1,0x1
    426c:	00b105b3          	add	a1,sp,a1
    4270:	e2a5a223          	sw	a0,-476(a1) # e24 <.LBB19_1+0xca4>
    4274:	7c013503          	ld	a0,1984(sp)
    4278:	000015b7          	lui	a1,0x1
    427c:	00b105b3          	add	a1,sp,a1
    4280:	e2a5a423          	sw	a0,-472(a1) # e28 <.LBB19_1+0xca8>
    4284:	7f813503          	ld	a0,2040(sp)
    4288:	000015b7          	lui	a1,0x1
    428c:	00b105b3          	add	a1,sp,a1
    4290:	e2a5a623          	sw	a0,-468(a1) # e2c <.LBB19_1+0xcac>
    4294:	00001537          	lui	a0,0x1
    4298:	00a10533          	add	a0,sp,a0
    429c:	83053503          	ld	a0,-2000(a0) # 830 <.LBB19_1+0x6b0>
    42a0:	000015b7          	lui	a1,0x1
    42a4:	00b105b3          	add	a1,sp,a1
    42a8:	e2a5a823          	sw	a0,-464(a1) # e30 <.LBB19_1+0xcb0>
    42ac:	00001537          	lui	a0,0x1
    42b0:	00a10533          	add	a0,sp,a0
    42b4:	86853503          	ld	a0,-1944(a0) # 868 <.LBB19_1+0x6e8>
    42b8:	000015b7          	lui	a1,0x1
    42bc:	00b105b3          	add	a1,sp,a1
    42c0:	e2a5aa23          	sw	a0,-460(a1) # e34 <.LBB19_1+0xcb4>
    42c4:	00001537          	lui	a0,0x1
    42c8:	00a10533          	add	a0,sp,a0
    42cc:	8a053503          	ld	a0,-1888(a0) # 8a0 <.LBB19_1+0x720>
    42d0:	000015b7          	lui	a1,0x1
    42d4:	00b105b3          	add	a1,sp,a1
    42d8:	e2a5ac23          	sw	a0,-456(a1) # e38 <.LBB19_1+0xcb8>
    42dc:	00001537          	lui	a0,0x1
    42e0:	00a10533          	add	a0,sp,a0
    42e4:	8d853503          	ld	a0,-1832(a0) # 8d8 <.LBB19_1+0x758>
    42e8:	000015b7          	lui	a1,0x1
    42ec:	00b105b3          	add	a1,sp,a1
    42f0:	e2a5ae23          	sw	a0,-452(a1) # e3c <.LBB19_1+0xcbc>
    42f4:	00001537          	lui	a0,0x1
    42f8:	00a10533          	add	a0,sp,a0
    42fc:	91053503          	ld	a0,-1776(a0) # 910 <.LBB19_1+0x790>
    4300:	000015b7          	lui	a1,0x1
    4304:	00b105b3          	add	a1,sp,a1
    4308:	e4a5a023          	sw	a0,-448(a1) # e40 <.LBB19_1+0xcc0>
    430c:	00001537          	lui	a0,0x1
    4310:	00a10533          	add	a0,sp,a0
    4314:	94853503          	ld	a0,-1720(a0) # 948 <.LBB19_1+0x7c8>
    4318:	000015b7          	lui	a1,0x1
    431c:	00b105b3          	add	a1,sp,a1
    4320:	e4a5a223          	sw	a0,-444(a1) # e44 <.LBB19_1+0xcc4>
    4324:	00001537          	lui	a0,0x1
    4328:	00a10533          	add	a0,sp,a0
    432c:	98053503          	ld	a0,-1664(a0) # 980 <.LBB19_1+0x800>
    4330:	000015b7          	lui	a1,0x1
    4334:	00b105b3          	add	a1,sp,a1
    4338:	e4a5a423          	sw	a0,-440(a1) # e48 <.LBB19_1+0xcc8>
    433c:	00001537          	lui	a0,0x1
    4340:	00a10533          	add	a0,sp,a0
    4344:	9b853503          	ld	a0,-1608(a0) # 9b8 <.LBB19_1+0x838>
    4348:	000015b7          	lui	a1,0x1
    434c:	00b105b3          	add	a1,sp,a1
    4350:	e4a5a623          	sw	a0,-436(a1) # e4c <.LBB19_1+0xccc>
    4354:	00001537          	lui	a0,0x1
    4358:	00a10533          	add	a0,sp,a0
    435c:	9f053503          	ld	a0,-1552(a0) # 9f0 <.LBB19_1+0x870>
    4360:	000015b7          	lui	a1,0x1
    4364:	00b105b3          	add	a1,sp,a1
    4368:	e4a5a823          	sw	a0,-432(a1) # e50 <.LBB19_1+0xcd0>
    436c:	00001537          	lui	a0,0x1
    4370:	00a10533          	add	a0,sp,a0
    4374:	a2853503          	ld	a0,-1496(a0) # a28 <.LBB19_1+0x8a8>
    4378:	000015b7          	lui	a1,0x1
    437c:	00b105b3          	add	a1,sp,a1
    4380:	e4a5aa23          	sw	a0,-428(a1) # e54 <.LBB19_1+0xcd4>
    4384:	00001537          	lui	a0,0x1
    4388:	00a10533          	add	a0,sp,a0
    438c:	a6053503          	ld	a0,-1440(a0) # a60 <.LBB19_1+0x8e0>
    4390:	000015b7          	lui	a1,0x1
    4394:	00b105b3          	add	a1,sp,a1
    4398:	e4a5ac23          	sw	a0,-424(a1) # e58 <.LBB19_1+0xcd8>
    439c:	00001537          	lui	a0,0x1
    43a0:	00a10533          	add	a0,sp,a0
    43a4:	a9853503          	ld	a0,-1384(a0) # a98 <.LBB19_1+0x918>
    43a8:	000015b7          	lui	a1,0x1
    43ac:	00b105b3          	add	a1,sp,a1
    43b0:	e4a5ae23          	sw	a0,-420(a1) # e5c <.LBB19_1+0xcdc>
    43b4:	00001537          	lui	a0,0x1
    43b8:	00a10533          	add	a0,sp,a0
    43bc:	ad053503          	ld	a0,-1328(a0) # ad0 <.LBB19_1+0x950>
    43c0:	000015b7          	lui	a1,0x1
    43c4:	00b105b3          	add	a1,sp,a1
    43c8:	e6a5a023          	sw	a0,-416(a1) # e60 <.LBB19_1+0xce0>
    43cc:	00001537          	lui	a0,0x1
    43d0:	00a10533          	add	a0,sp,a0
    43d4:	b0853503          	ld	a0,-1272(a0) # b08 <.LBB19_1+0x988>
    43d8:	000015b7          	lui	a1,0x1
    43dc:	00b105b3          	add	a1,sp,a1
    43e0:	e6a5a223          	sw	a0,-412(a1) # e64 <.LBB19_1+0xce4>
    43e4:	00001537          	lui	a0,0x1
    43e8:	00a10533          	add	a0,sp,a0
    43ec:	b4053503          	ld	a0,-1216(a0) # b40 <.LBB19_1+0x9c0>
    43f0:	000015b7          	lui	a1,0x1
    43f4:	00b105b3          	add	a1,sp,a1
    43f8:	e6a5a423          	sw	a0,-408(a1) # e68 <.LBB19_1+0xce8>
    43fc:	00001537          	lui	a0,0x1
    4400:	00a10533          	add	a0,sp,a0
    4404:	b7853503          	ld	a0,-1160(a0) # b78 <.LBB19_1+0x9f8>
    4408:	000015b7          	lui	a1,0x1
    440c:	00b105b3          	add	a1,sp,a1
    4410:	e6a5a623          	sw	a0,-404(a1) # e6c <.LBB19_1+0xcec>
    4414:	00001537          	lui	a0,0x1
    4418:	00a10533          	add	a0,sp,a0
    441c:	bb053503          	ld	a0,-1104(a0) # bb0 <.LBB19_1+0xa30>
    4420:	000015b7          	lui	a1,0x1
    4424:	00b105b3          	add	a1,sp,a1
    4428:	e6a5a823          	sw	a0,-400(a1) # e70 <.LBB19_1+0xcf0>
    442c:	00001537          	lui	a0,0x1
    4430:	00a10533          	add	a0,sp,a0
    4434:	be853503          	ld	a0,-1048(a0) # be8 <.LBB19_1+0xa68>
    4438:	000015b7          	lui	a1,0x1
    443c:	00b105b3          	add	a1,sp,a1
    4440:	e6a5aa23          	sw	a0,-396(a1) # e74 <.LBB19_1+0xcf4>
    4444:	00001537          	lui	a0,0x1
    4448:	00a10533          	add	a0,sp,a0
    444c:	c2053503          	ld	a0,-992(a0) # c20 <.LBB19_1+0xaa0>
    4450:	000015b7          	lui	a1,0x1
    4454:	00b105b3          	add	a1,sp,a1
    4458:	e6a5ac23          	sw	a0,-392(a1) # e78 <.LBB19_1+0xcf8>
    445c:	00001537          	lui	a0,0x1
    4460:	00a10533          	add	a0,sp,a0
    4464:	c5853503          	ld	a0,-936(a0) # c58 <.LBB19_1+0xad8>
    4468:	000015b7          	lui	a1,0x1
    446c:	00b105b3          	add	a1,sp,a1
    4470:	e6a5ae23          	sw	a0,-388(a1) # e7c <.LBB19_1+0xcfc>
    4474:	7ff10513          	addi	a0,sp,2047
    4478:	68150513          	addi	a0,a0,1665
    447c:	75813583          	ld	a1,1880(sp)
    4480:	00b52023          	sw	a1,0(a0)
    4484:	79013503          	ld	a0,1936(sp)
    4488:	000015b7          	lui	a1,0x1
    448c:	00b105b3          	add	a1,sp,a1
    4490:	e8a5a223          	sw	a0,-380(a1) # e84 <.LBB19_1+0xd04>
    4494:	7c813503          	ld	a0,1992(sp)
    4498:	000015b7          	lui	a1,0x1
    449c:	00b105b3          	add	a1,sp,a1
    44a0:	e8a5a423          	sw	a0,-376(a1) # e88 <.LBB19_1+0xd08>
    44a4:	00001537          	lui	a0,0x1
    44a8:	00a10533          	add	a0,sp,a0
    44ac:	80053503          	ld	a0,-2048(a0) # 800 <.LBB19_1+0x680>
    44b0:	000015b7          	lui	a1,0x1
    44b4:	00b105b3          	add	a1,sp,a1
    44b8:	e8a5a623          	sw	a0,-372(a1) # e8c <.LBB19_1+0xd0c>
    44bc:	00001537          	lui	a0,0x1
    44c0:	00a10533          	add	a0,sp,a0
    44c4:	83853503          	ld	a0,-1992(a0) # 838 <.LBB19_1+0x6b8>
    44c8:	000015b7          	lui	a1,0x1
    44cc:	00b105b3          	add	a1,sp,a1
    44d0:	e8a5a823          	sw	a0,-368(a1) # e90 <.LBB19_1+0xd10>
    44d4:	00001537          	lui	a0,0x1
    44d8:	00a10533          	add	a0,sp,a0
    44dc:	87053503          	ld	a0,-1936(a0) # 870 <.LBB19_1+0x6f0>
    44e0:	000015b7          	lui	a1,0x1
    44e4:	00b105b3          	add	a1,sp,a1
    44e8:	e8a5aa23          	sw	a0,-364(a1) # e94 <.LBB19_1+0xd14>
    44ec:	00001537          	lui	a0,0x1
    44f0:	00a10533          	add	a0,sp,a0
    44f4:	8a853503          	ld	a0,-1880(a0) # 8a8 <.LBB19_1+0x728>
    44f8:	000015b7          	lui	a1,0x1
    44fc:	00b105b3          	add	a1,sp,a1
    4500:	e8a5ac23          	sw	a0,-360(a1) # e98 <.LBB19_1+0xd18>
    4504:	00001537          	lui	a0,0x1
    4508:	00a10533          	add	a0,sp,a0
    450c:	8e053503          	ld	a0,-1824(a0) # 8e0 <.LBB19_1+0x760>
    4510:	000015b7          	lui	a1,0x1
    4514:	00b105b3          	add	a1,sp,a1
    4518:	e8a5ae23          	sw	a0,-356(a1) # e9c <.LBB19_1+0xd1c>
    451c:	00001537          	lui	a0,0x1
    4520:	00a10533          	add	a0,sp,a0
    4524:	91853503          	ld	a0,-1768(a0) # 918 <.LBB19_1+0x798>
    4528:	000015b7          	lui	a1,0x1
    452c:	00b105b3          	add	a1,sp,a1
    4530:	eaa5a023          	sw	a0,-352(a1) # ea0 <.LBB19_1+0xd20>
    4534:	00001537          	lui	a0,0x1
    4538:	00a10533          	add	a0,sp,a0
    453c:	95053503          	ld	a0,-1712(a0) # 950 <.LBB19_1+0x7d0>
    4540:	000015b7          	lui	a1,0x1
    4544:	00b105b3          	add	a1,sp,a1
    4548:	eaa5a223          	sw	a0,-348(a1) # ea4 <.LBB19_1+0xd24>
    454c:	00001537          	lui	a0,0x1
    4550:	00a10533          	add	a0,sp,a0
    4554:	98853503          	ld	a0,-1656(a0) # 988 <.LBB19_1+0x808>
    4558:	000015b7          	lui	a1,0x1
    455c:	00b105b3          	add	a1,sp,a1
    4560:	eaa5a423          	sw	a0,-344(a1) # ea8 <.LBB19_1+0xd28>
    4564:	00001537          	lui	a0,0x1
    4568:	00a10533          	add	a0,sp,a0
    456c:	9c053503          	ld	a0,-1600(a0) # 9c0 <.LBB19_1+0x840>
    4570:	000015b7          	lui	a1,0x1
    4574:	00b105b3          	add	a1,sp,a1
    4578:	eaa5a623          	sw	a0,-340(a1) # eac <.LBB19_1+0xd2c>
    457c:	00001537          	lui	a0,0x1
    4580:	00a10533          	add	a0,sp,a0
    4584:	9f853503          	ld	a0,-1544(a0) # 9f8 <.LBB19_1+0x878>
    4588:	000015b7          	lui	a1,0x1
    458c:	00b105b3          	add	a1,sp,a1
    4590:	eaa5a823          	sw	a0,-336(a1) # eb0 <.LBB19_1+0xd30>
    4594:	00001537          	lui	a0,0x1
    4598:	00a10533          	add	a0,sp,a0
    459c:	a3053503          	ld	a0,-1488(a0) # a30 <.LBB19_1+0x8b0>
    45a0:	000015b7          	lui	a1,0x1
    45a4:	00b105b3          	add	a1,sp,a1
    45a8:	eaa5aa23          	sw	a0,-332(a1) # eb4 <.LBB19_1+0xd34>
    45ac:	00001537          	lui	a0,0x1
    45b0:	00a10533          	add	a0,sp,a0
    45b4:	a6853503          	ld	a0,-1432(a0) # a68 <.LBB19_1+0x8e8>
    45b8:	000015b7          	lui	a1,0x1
    45bc:	00b105b3          	add	a1,sp,a1
    45c0:	eaa5ac23          	sw	a0,-328(a1) # eb8 <.LBB19_1+0xd38>
    45c4:	00001537          	lui	a0,0x1
    45c8:	00a10533          	add	a0,sp,a0
    45cc:	aa053503          	ld	a0,-1376(a0) # aa0 <.LBB19_1+0x920>
    45d0:	000015b7          	lui	a1,0x1
    45d4:	00b105b3          	add	a1,sp,a1
    45d8:	eaa5ae23          	sw	a0,-324(a1) # ebc <.LBB19_1+0xd3c>
    45dc:	00001537          	lui	a0,0x1
    45e0:	00a10533          	add	a0,sp,a0
    45e4:	ad853503          	ld	a0,-1320(a0) # ad8 <.LBB19_1+0x958>
    45e8:	000015b7          	lui	a1,0x1
    45ec:	00b105b3          	add	a1,sp,a1
    45f0:	eca5a023          	sw	a0,-320(a1) # ec0 <.LBB19_1+0xd40>
    45f4:	00001537          	lui	a0,0x1
    45f8:	00a10533          	add	a0,sp,a0
    45fc:	b1053503          	ld	a0,-1264(a0) # b10 <.LBB19_1+0x990>
    4600:	000015b7          	lui	a1,0x1
    4604:	00b105b3          	add	a1,sp,a1
    4608:	eca5a223          	sw	a0,-316(a1) # ec4 <.LBB19_1+0xd44>
    460c:	00001537          	lui	a0,0x1
    4610:	00a10533          	add	a0,sp,a0
    4614:	b4853503          	ld	a0,-1208(a0) # b48 <.LBB19_1+0x9c8>
    4618:	000015b7          	lui	a1,0x1
    461c:	00b105b3          	add	a1,sp,a1
    4620:	eca5a423          	sw	a0,-312(a1) # ec8 <.LBB19_1+0xd48>
    4624:	00001537          	lui	a0,0x1
    4628:	00a10533          	add	a0,sp,a0
    462c:	b8053503          	ld	a0,-1152(a0) # b80 <.LBB19_1+0xa00>
    4630:	000015b7          	lui	a1,0x1
    4634:	00b105b3          	add	a1,sp,a1
    4638:	eca5a623          	sw	a0,-308(a1) # ecc <.LBB19_1+0xd4c>
    463c:	00001537          	lui	a0,0x1
    4640:	00a10533          	add	a0,sp,a0
    4644:	bb853503          	ld	a0,-1096(a0) # bb8 <.LBB19_1+0xa38>
    4648:	000015b7          	lui	a1,0x1
    464c:	00b105b3          	add	a1,sp,a1
    4650:	eca5a823          	sw	a0,-304(a1) # ed0 <.LBB19_1+0xd50>
    4654:	00001537          	lui	a0,0x1
    4658:	00a10533          	add	a0,sp,a0
    465c:	bf053503          	ld	a0,-1040(a0) # bf0 <.LBB19_1+0xa70>
    4660:	000015b7          	lui	a1,0x1
    4664:	00b105b3          	add	a1,sp,a1
    4668:	eca5aa23          	sw	a0,-300(a1) # ed4 <.LBB19_1+0xd54>
    466c:	00001537          	lui	a0,0x1
    4670:	00a10533          	add	a0,sp,a0
    4674:	c2853503          	ld	a0,-984(a0) # c28 <.LBB19_1+0xaa8>
    4678:	000015b7          	lui	a1,0x1
    467c:	00b105b3          	add	a1,sp,a1
    4680:	eca5ac23          	sw	a0,-296(a1) # ed8 <.LBB19_1+0xd58>
    4684:	00001537          	lui	a0,0x1
    4688:	00a10533          	add	a0,sp,a0
    468c:	c6053503          	ld	a0,-928(a0) # c60 <.LBB19_1+0xae0>
    4690:	000015b7          	lui	a1,0x1
    4694:	00b105b3          	add	a1,sp,a1
    4698:	eca5ae23          	sw	a0,-292(a1) # edc <.LBB19_1+0xd5c>
    469c:	7ff10513          	addi	a0,sp,2047
    46a0:	6e150513          	addi	a0,a0,1761
    46a4:	76013583          	ld	a1,1888(sp)
    46a8:	00b52023          	sw	a1,0(a0)
    46ac:	79813503          	ld	a0,1944(sp)
    46b0:	000015b7          	lui	a1,0x1
    46b4:	00b105b3          	add	a1,sp,a1
    46b8:	eea5a223          	sw	a0,-284(a1) # ee4 <.LBB19_1+0xd64>
    46bc:	7d013503          	ld	a0,2000(sp)
    46c0:	000015b7          	lui	a1,0x1
    46c4:	00b105b3          	add	a1,sp,a1
    46c8:	eea5a423          	sw	a0,-280(a1) # ee8 <.LBB19_1+0xd68>
    46cc:	00001537          	lui	a0,0x1
    46d0:	00a10533          	add	a0,sp,a0
    46d4:	80853503          	ld	a0,-2040(a0) # 808 <.LBB19_1+0x688>
    46d8:	000015b7          	lui	a1,0x1
    46dc:	00b105b3          	add	a1,sp,a1
    46e0:	eea5a623          	sw	a0,-276(a1) # eec <.LBB19_1+0xd6c>
    46e4:	00001537          	lui	a0,0x1
    46e8:	00a10533          	add	a0,sp,a0
    46ec:	84053503          	ld	a0,-1984(a0) # 840 <.LBB19_1+0x6c0>
    46f0:	000015b7          	lui	a1,0x1
    46f4:	00b105b3          	add	a1,sp,a1
    46f8:	eea5a823          	sw	a0,-272(a1) # ef0 <.LBB19_1+0xd70>
    46fc:	00001537          	lui	a0,0x1
    4700:	00a10533          	add	a0,sp,a0
    4704:	87853503          	ld	a0,-1928(a0) # 878 <.LBB19_1+0x6f8>
    4708:	000015b7          	lui	a1,0x1
    470c:	00b105b3          	add	a1,sp,a1
    4710:	eea5aa23          	sw	a0,-268(a1) # ef4 <.LBB19_1+0xd74>
    4714:	00001537          	lui	a0,0x1
    4718:	00a10533          	add	a0,sp,a0
    471c:	8b053503          	ld	a0,-1872(a0) # 8b0 <.LBB19_1+0x730>
    4720:	000015b7          	lui	a1,0x1
    4724:	00b105b3          	add	a1,sp,a1
    4728:	eea5ac23          	sw	a0,-264(a1) # ef8 <.LBB19_1+0xd78>
    472c:	00001537          	lui	a0,0x1
    4730:	00a10533          	add	a0,sp,a0
    4734:	8e853503          	ld	a0,-1816(a0) # 8e8 <.LBB19_1+0x768>
    4738:	000015b7          	lui	a1,0x1
    473c:	00b105b3          	add	a1,sp,a1
    4740:	eea5ae23          	sw	a0,-260(a1) # efc <.LBB19_1+0xd7c>
    4744:	00001537          	lui	a0,0x1
    4748:	00a10533          	add	a0,sp,a0
    474c:	92053503          	ld	a0,-1760(a0) # 920 <.LBB19_1+0x7a0>
    4750:	000015b7          	lui	a1,0x1
    4754:	00b105b3          	add	a1,sp,a1
    4758:	f0a5a023          	sw	a0,-256(a1) # f00 <.LBB19_1+0xd80>
    475c:	00001537          	lui	a0,0x1
    4760:	00a10533          	add	a0,sp,a0
    4764:	95853503          	ld	a0,-1704(a0) # 958 <.LBB19_1+0x7d8>
    4768:	000015b7          	lui	a1,0x1
    476c:	00b105b3          	add	a1,sp,a1
    4770:	f0a5a223          	sw	a0,-252(a1) # f04 <.LBB19_1+0xd84>
    4774:	00001537          	lui	a0,0x1
    4778:	00a10533          	add	a0,sp,a0
    477c:	99053503          	ld	a0,-1648(a0) # 990 <.LBB19_1+0x810>
    4780:	000015b7          	lui	a1,0x1
    4784:	00b105b3          	add	a1,sp,a1
    4788:	f0a5a423          	sw	a0,-248(a1) # f08 <.LBB19_1+0xd88>
    478c:	00001537          	lui	a0,0x1
    4790:	00a10533          	add	a0,sp,a0
    4794:	9c853503          	ld	a0,-1592(a0) # 9c8 <.LBB19_1+0x848>
    4798:	000015b7          	lui	a1,0x1
    479c:	00b105b3          	add	a1,sp,a1
    47a0:	f0a5a623          	sw	a0,-244(a1) # f0c <.LBB19_1+0xd8c>
    47a4:	00001537          	lui	a0,0x1
    47a8:	00a10533          	add	a0,sp,a0
    47ac:	a0053503          	ld	a0,-1536(a0) # a00 <.LBB19_1+0x880>
    47b0:	000015b7          	lui	a1,0x1
    47b4:	00b105b3          	add	a1,sp,a1
    47b8:	f0a5a823          	sw	a0,-240(a1) # f10 <.LBB19_1+0xd90>
    47bc:	00001537          	lui	a0,0x1
    47c0:	00a10533          	add	a0,sp,a0
    47c4:	a3853503          	ld	a0,-1480(a0) # a38 <.LBB19_1+0x8b8>
    47c8:	000015b7          	lui	a1,0x1
    47cc:	00b105b3          	add	a1,sp,a1
    47d0:	f0a5aa23          	sw	a0,-236(a1) # f14 <.LBB19_1+0xd94>
    47d4:	00001537          	lui	a0,0x1
    47d8:	00a10533          	add	a0,sp,a0
    47dc:	a7053503          	ld	a0,-1424(a0) # a70 <.LBB19_1+0x8f0>
    47e0:	000015b7          	lui	a1,0x1
    47e4:	00b105b3          	add	a1,sp,a1
    47e8:	f0a5ac23          	sw	a0,-232(a1) # f18 <.LBB19_1+0xd98>
    47ec:	00001537          	lui	a0,0x1
    47f0:	00a10533          	add	a0,sp,a0
    47f4:	aa853503          	ld	a0,-1368(a0) # aa8 <.LBB19_1+0x928>
    47f8:	000015b7          	lui	a1,0x1
    47fc:	00b105b3          	add	a1,sp,a1
    4800:	f0a5ae23          	sw	a0,-228(a1) # f1c <.LBB19_1+0xd9c>
    4804:	00001537          	lui	a0,0x1
    4808:	00a10533          	add	a0,sp,a0
    480c:	ae053503          	ld	a0,-1312(a0) # ae0 <.LBB19_1+0x960>
    4810:	000015b7          	lui	a1,0x1
    4814:	00b105b3          	add	a1,sp,a1
    4818:	f2a5a023          	sw	a0,-224(a1) # f20 <.LBB19_1+0xda0>
    481c:	00001537          	lui	a0,0x1
    4820:	00a10533          	add	a0,sp,a0
    4824:	b1853503          	ld	a0,-1256(a0) # b18 <.LBB19_1+0x998>
    4828:	000015b7          	lui	a1,0x1
    482c:	00b105b3          	add	a1,sp,a1
    4830:	f2a5a223          	sw	a0,-220(a1) # f24 <.LBB19_1+0xda4>
    4834:	00001537          	lui	a0,0x1
    4838:	00a10533          	add	a0,sp,a0
    483c:	b5053503          	ld	a0,-1200(a0) # b50 <.LBB19_1+0x9d0>
    4840:	000015b7          	lui	a1,0x1
    4844:	00b105b3          	add	a1,sp,a1
    4848:	f2a5a423          	sw	a0,-216(a1) # f28 <.LBB19_1+0xda8>
    484c:	00001537          	lui	a0,0x1
    4850:	00a10533          	add	a0,sp,a0
    4854:	b8853503          	ld	a0,-1144(a0) # b88 <.LBB19_1+0xa08>
    4858:	000015b7          	lui	a1,0x1
    485c:	00b105b3          	add	a1,sp,a1
    4860:	f2a5a623          	sw	a0,-212(a1) # f2c <.LBB19_1+0xdac>
    4864:	00001537          	lui	a0,0x1
    4868:	00a10533          	add	a0,sp,a0
    486c:	bc053503          	ld	a0,-1088(a0) # bc0 <.LBB19_1+0xa40>
    4870:	000015b7          	lui	a1,0x1
    4874:	00b105b3          	add	a1,sp,a1
    4878:	f2a5a823          	sw	a0,-208(a1) # f30 <.LBB19_1+0xdb0>
    487c:	00001537          	lui	a0,0x1
    4880:	00a10533          	add	a0,sp,a0
    4884:	bf853503          	ld	a0,-1032(a0) # bf8 <.LBB19_1+0xa78>
    4888:	000015b7          	lui	a1,0x1
    488c:	00b105b3          	add	a1,sp,a1
    4890:	f2a5aa23          	sw	a0,-204(a1) # f34 <.LBB19_1+0xdb4>
    4894:	00001537          	lui	a0,0x1
    4898:	00a10533          	add	a0,sp,a0
    489c:	c3053503          	ld	a0,-976(a0) # c30 <.LBB19_1+0xab0>
    48a0:	000015b7          	lui	a1,0x1
    48a4:	00b105b3          	add	a1,sp,a1
    48a8:	f2a5ac23          	sw	a0,-200(a1) # f38 <.LBB19_1+0xdb8>
    48ac:	00001537          	lui	a0,0x1
    48b0:	00a10533          	add	a0,sp,a0
    48b4:	c6853503          	ld	a0,-920(a0) # c68 <.LBB19_1+0xae8>
    48b8:	000015b7          	lui	a1,0x1
    48bc:	00b105b3          	add	a1,sp,a1
    48c0:	f2a5ae23          	sw	a0,-196(a1) # f3c <.LBB19_1+0xdbc>
    48c4:	7ff10513          	addi	a0,sp,2047
    48c8:	74150513          	addi	a0,a0,1857
    48cc:	76813583          	ld	a1,1896(sp)
    48d0:	00b52023          	sw	a1,0(a0)
    48d4:	7a013503          	ld	a0,1952(sp)
    48d8:	000015b7          	lui	a1,0x1
    48dc:	00b105b3          	add	a1,sp,a1
    48e0:	f4a5a223          	sw	a0,-188(a1) # f44 <.LBB19_1+0xdc4>
    48e4:	7d813503          	ld	a0,2008(sp)
    48e8:	000015b7          	lui	a1,0x1
    48ec:	00b105b3          	add	a1,sp,a1
    48f0:	f4a5a423          	sw	a0,-184(a1) # f48 <.LBB19_1+0xdc8>
    48f4:	00001537          	lui	a0,0x1
    48f8:	00a10533          	add	a0,sp,a0
    48fc:	81053503          	ld	a0,-2032(a0) # 810 <.LBB19_1+0x690>
    4900:	000015b7          	lui	a1,0x1
    4904:	00b105b3          	add	a1,sp,a1
    4908:	f4a5a623          	sw	a0,-180(a1) # f4c <.LBB19_1+0xdcc>
    490c:	00001537          	lui	a0,0x1
    4910:	00a10533          	add	a0,sp,a0
    4914:	84853503          	ld	a0,-1976(a0) # 848 <.LBB19_1+0x6c8>
    4918:	000015b7          	lui	a1,0x1
    491c:	00b105b3          	add	a1,sp,a1
    4920:	f4a5a823          	sw	a0,-176(a1) # f50 <.LBB19_1+0xdd0>
    4924:	00001537          	lui	a0,0x1
    4928:	00a10533          	add	a0,sp,a0
    492c:	88053503          	ld	a0,-1920(a0) # 880 <.LBB19_1+0x700>
    4930:	000015b7          	lui	a1,0x1
    4934:	00b105b3          	add	a1,sp,a1
    4938:	f4a5aa23          	sw	a0,-172(a1) # f54 <.LBB19_1+0xdd4>
    493c:	00001537          	lui	a0,0x1
    4940:	00a10533          	add	a0,sp,a0
    4944:	8b853503          	ld	a0,-1864(a0) # 8b8 <.LBB19_1+0x738>
    4948:	000015b7          	lui	a1,0x1
    494c:	00b105b3          	add	a1,sp,a1
    4950:	f4a5ac23          	sw	a0,-168(a1) # f58 <.LBB19_1+0xdd8>
    4954:	00001537          	lui	a0,0x1
    4958:	00a10533          	add	a0,sp,a0
    495c:	8f053503          	ld	a0,-1808(a0) # 8f0 <.LBB19_1+0x770>
    4960:	000015b7          	lui	a1,0x1
    4964:	00b105b3          	add	a1,sp,a1
    4968:	f4a5ae23          	sw	a0,-164(a1) # f5c <.LBB19_1+0xddc>
    496c:	00001537          	lui	a0,0x1
    4970:	00a10533          	add	a0,sp,a0
    4974:	92853503          	ld	a0,-1752(a0) # 928 <.LBB19_1+0x7a8>
    4978:	000015b7          	lui	a1,0x1
    497c:	00b105b3          	add	a1,sp,a1
    4980:	f6a5a023          	sw	a0,-160(a1) # f60 <.LBB19_1+0xde0>
    4984:	00001537          	lui	a0,0x1
    4988:	00a10533          	add	a0,sp,a0
    498c:	96053503          	ld	a0,-1696(a0) # 960 <.LBB19_1+0x7e0>
    4990:	000015b7          	lui	a1,0x1
    4994:	00b105b3          	add	a1,sp,a1
    4998:	f6a5a223          	sw	a0,-156(a1) # f64 <.LBB19_1+0xde4>
    499c:	00001537          	lui	a0,0x1
    49a0:	00a10533          	add	a0,sp,a0
    49a4:	99853503          	ld	a0,-1640(a0) # 998 <.LBB19_1+0x818>
    49a8:	000015b7          	lui	a1,0x1
    49ac:	00b105b3          	add	a1,sp,a1
    49b0:	f6a5a423          	sw	a0,-152(a1) # f68 <.LBB19_1+0xde8>
    49b4:	00001537          	lui	a0,0x1
    49b8:	00a10533          	add	a0,sp,a0
    49bc:	9d053503          	ld	a0,-1584(a0) # 9d0 <.LBB19_1+0x850>
    49c0:	000015b7          	lui	a1,0x1
    49c4:	00b105b3          	add	a1,sp,a1
    49c8:	f6a5a623          	sw	a0,-148(a1) # f6c <.LBB19_1+0xdec>
    49cc:	00001537          	lui	a0,0x1
    49d0:	00a10533          	add	a0,sp,a0
    49d4:	a0853503          	ld	a0,-1528(a0) # a08 <.LBB19_1+0x888>
    49d8:	000015b7          	lui	a1,0x1
    49dc:	00b105b3          	add	a1,sp,a1
    49e0:	f6a5a823          	sw	a0,-144(a1) # f70 <.LBB19_1+0xdf0>
    49e4:	00001537          	lui	a0,0x1
    49e8:	00a10533          	add	a0,sp,a0
    49ec:	a4053503          	ld	a0,-1472(a0) # a40 <.LBB19_1+0x8c0>
    49f0:	000015b7          	lui	a1,0x1
    49f4:	00b105b3          	add	a1,sp,a1
    49f8:	f6a5aa23          	sw	a0,-140(a1) # f74 <.LBB19_1+0xdf4>
    49fc:	00001537          	lui	a0,0x1
    4a00:	00a10533          	add	a0,sp,a0
    4a04:	a7853503          	ld	a0,-1416(a0) # a78 <.LBB19_1+0x8f8>
    4a08:	000015b7          	lui	a1,0x1
    4a0c:	00b105b3          	add	a1,sp,a1
    4a10:	f6a5ac23          	sw	a0,-136(a1) # f78 <.LBB19_1+0xdf8>
    4a14:	00001537          	lui	a0,0x1
    4a18:	00a10533          	add	a0,sp,a0
    4a1c:	ab053503          	ld	a0,-1360(a0) # ab0 <.LBB19_1+0x930>
    4a20:	000015b7          	lui	a1,0x1
    4a24:	00b105b3          	add	a1,sp,a1
    4a28:	f6a5ae23          	sw	a0,-132(a1) # f7c <.LBB19_1+0xdfc>
    4a2c:	00001537          	lui	a0,0x1
    4a30:	00a10533          	add	a0,sp,a0
    4a34:	ae853503          	ld	a0,-1304(a0) # ae8 <.LBB19_1+0x968>
    4a38:	000015b7          	lui	a1,0x1
    4a3c:	00b105b3          	add	a1,sp,a1
    4a40:	f8a5a023          	sw	a0,-128(a1) # f80 <.LBB19_1+0xe00>
    4a44:	00001537          	lui	a0,0x1
    4a48:	00a10533          	add	a0,sp,a0
    4a4c:	b2053503          	ld	a0,-1248(a0) # b20 <.LBB19_1+0x9a0>
    4a50:	000015b7          	lui	a1,0x1
    4a54:	00b105b3          	add	a1,sp,a1
    4a58:	f8a5a223          	sw	a0,-124(a1) # f84 <.LBB19_1+0xe04>
    4a5c:	00001537          	lui	a0,0x1
    4a60:	00a10533          	add	a0,sp,a0
    4a64:	b5853503          	ld	a0,-1192(a0) # b58 <.LBB19_1+0x9d8>
    4a68:	000015b7          	lui	a1,0x1
    4a6c:	00b105b3          	add	a1,sp,a1
    4a70:	f8a5a423          	sw	a0,-120(a1) # f88 <.LBB19_1+0xe08>
    4a74:	00001537          	lui	a0,0x1
    4a78:	00a10533          	add	a0,sp,a0
    4a7c:	b9053503          	ld	a0,-1136(a0) # b90 <.LBB19_1+0xa10>
    4a80:	000015b7          	lui	a1,0x1
    4a84:	00b105b3          	add	a1,sp,a1
    4a88:	f8a5a623          	sw	a0,-116(a1) # f8c <.LBB19_1+0xe0c>
    4a8c:	00001537          	lui	a0,0x1
    4a90:	00a10533          	add	a0,sp,a0
    4a94:	bc853503          	ld	a0,-1080(a0) # bc8 <.LBB19_1+0xa48>
    4a98:	000015b7          	lui	a1,0x1
    4a9c:	00b105b3          	add	a1,sp,a1
    4aa0:	f8a5a823          	sw	a0,-112(a1) # f90 <.LBB19_1+0xe10>
    4aa4:	00001537          	lui	a0,0x1
    4aa8:	00a10533          	add	a0,sp,a0
    4aac:	c0053503          	ld	a0,-1024(a0) # c00 <.LBB19_1+0xa80>
    4ab0:	000015b7          	lui	a1,0x1
    4ab4:	00b105b3          	add	a1,sp,a1
    4ab8:	f8a5aa23          	sw	a0,-108(a1) # f94 <.LBB19_1+0xe14>
    4abc:	00001537          	lui	a0,0x1
    4ac0:	00a10533          	add	a0,sp,a0
    4ac4:	c3853503          	ld	a0,-968(a0) # c38 <.LBB19_1+0xab8>
    4ac8:	000015b7          	lui	a1,0x1
    4acc:	00b105b3          	add	a1,sp,a1
    4ad0:	f8a5ac23          	sw	a0,-104(a1) # f98 <.LBB19_1+0xe18>
    4ad4:	00001537          	lui	a0,0x1
    4ad8:	00a10533          	add	a0,sp,a0
    4adc:	c7053503          	ld	a0,-912(a0) # c70 <.LBB19_1+0xaf0>
    4ae0:	000015b7          	lui	a1,0x1
    4ae4:	00b105b3          	add	a1,sp,a1
    4ae8:	f8a5ae23          	sw	a0,-100(a1) # f9c <.LBB19_1+0xe1c>
    4aec:	7ff10513          	addi	a0,sp,2047
    4af0:	7a150513          	addi	a0,a0,1953
    4af4:	77013583          	ld	a1,1904(sp)
    4af8:	00b52023          	sw	a1,0(a0)
    4afc:	7a813503          	ld	a0,1960(sp)
    4b00:	000015b7          	lui	a1,0x1
    4b04:	00b105b3          	add	a1,sp,a1
    4b08:	faa5a223          	sw	a0,-92(a1) # fa4 <.LBB19_1+0xe24>
    4b0c:	7e013503          	ld	a0,2016(sp)
    4b10:	000015b7          	lui	a1,0x1
    4b14:	00b105b3          	add	a1,sp,a1
    4b18:	faa5a423          	sw	a0,-88(a1) # fa8 <.LBB19_2>
    4b1c:	00001537          	lui	a0,0x1
    4b20:	00a10533          	add	a0,sp,a0
    4b24:	81853503          	ld	a0,-2024(a0) # 818 <.LBB19_1+0x698>
    4b28:	000015b7          	lui	a1,0x1
    4b2c:	00b105b3          	add	a1,sp,a1
    4b30:	faa5a623          	sw	a0,-84(a1) # fac <.LBB19_2+0x4>
    4b34:	00001537          	lui	a0,0x1
    4b38:	00a10533          	add	a0,sp,a0
    4b3c:	85053503          	ld	a0,-1968(a0) # 850 <.LBB19_1+0x6d0>
    4b40:	000015b7          	lui	a1,0x1
    4b44:	00b105b3          	add	a1,sp,a1
    4b48:	faa5a823          	sw	a0,-80(a1) # fb0 <.LBB19_2+0x8>
    4b4c:	00001537          	lui	a0,0x1
    4b50:	00a10533          	add	a0,sp,a0
    4b54:	88853503          	ld	a0,-1912(a0) # 888 <.LBB19_1+0x708>
    4b58:	000015b7          	lui	a1,0x1
    4b5c:	00b105b3          	add	a1,sp,a1
    4b60:	faa5aa23          	sw	a0,-76(a1) # fb4 <.LBB19_2+0xc>
    4b64:	00001537          	lui	a0,0x1
    4b68:	00a10533          	add	a0,sp,a0
    4b6c:	8c053503          	ld	a0,-1856(a0) # 8c0 <.LBB19_1+0x740>
    4b70:	000015b7          	lui	a1,0x1
    4b74:	00b105b3          	add	a1,sp,a1
    4b78:	faa5ac23          	sw	a0,-72(a1) # fb8 <.LBB19_2+0x10>
    4b7c:	00001537          	lui	a0,0x1
    4b80:	00a10533          	add	a0,sp,a0
    4b84:	8f853503          	ld	a0,-1800(a0) # 8f8 <.LBB19_1+0x778>
    4b88:	000015b7          	lui	a1,0x1
    4b8c:	00b105b3          	add	a1,sp,a1
    4b90:	faa5ae23          	sw	a0,-68(a1) # fbc <.LBB19_2+0x14>
    4b94:	00001537          	lui	a0,0x1
    4b98:	00a10533          	add	a0,sp,a0
    4b9c:	93053503          	ld	a0,-1744(a0) # 930 <.LBB19_1+0x7b0>
    4ba0:	000015b7          	lui	a1,0x1
    4ba4:	00b105b3          	add	a1,sp,a1
    4ba8:	fca5a023          	sw	a0,-64(a1) # fc0 <.LBB19_2+0x18>
    4bac:	00001537          	lui	a0,0x1
    4bb0:	00a10533          	add	a0,sp,a0
    4bb4:	96853503          	ld	a0,-1688(a0) # 968 <.LBB19_1+0x7e8>
    4bb8:	000015b7          	lui	a1,0x1
    4bbc:	00b105b3          	add	a1,sp,a1
    4bc0:	fca5a223          	sw	a0,-60(a1) # fc4 <.LBB19_2+0x1c>
    4bc4:	00001537          	lui	a0,0x1
    4bc8:	00a10533          	add	a0,sp,a0
    4bcc:	9a053503          	ld	a0,-1632(a0) # 9a0 <.LBB19_1+0x820>
    4bd0:	000015b7          	lui	a1,0x1
    4bd4:	00b105b3          	add	a1,sp,a1
    4bd8:	fca5a423          	sw	a0,-56(a1) # fc8 <.LBB19_2+0x20>
    4bdc:	00001537          	lui	a0,0x1
    4be0:	00a10533          	add	a0,sp,a0
    4be4:	9d853503          	ld	a0,-1576(a0) # 9d8 <.LBB19_1+0x858>
    4be8:	000015b7          	lui	a1,0x1
    4bec:	00b105b3          	add	a1,sp,a1
    4bf0:	fca5a623          	sw	a0,-52(a1) # fcc <.LBB19_2+0x24>
    4bf4:	00001537          	lui	a0,0x1
    4bf8:	00a10533          	add	a0,sp,a0
    4bfc:	a1053503          	ld	a0,-1520(a0) # a10 <.LBB19_1+0x890>
    4c00:	000015b7          	lui	a1,0x1
    4c04:	00b105b3          	add	a1,sp,a1
    4c08:	fca5a823          	sw	a0,-48(a1) # fd0 <.LBB19_2+0x28>
    4c0c:	00001537          	lui	a0,0x1
    4c10:	00a10533          	add	a0,sp,a0
    4c14:	a4853503          	ld	a0,-1464(a0) # a48 <.LBB19_1+0x8c8>
    4c18:	000015b7          	lui	a1,0x1
    4c1c:	00b105b3          	add	a1,sp,a1
    4c20:	fca5aa23          	sw	a0,-44(a1) # fd4 <.LBB19_2+0x2c>
    4c24:	00001537          	lui	a0,0x1
    4c28:	00a10533          	add	a0,sp,a0
    4c2c:	a8053503          	ld	a0,-1408(a0) # a80 <.LBB19_1+0x900>
    4c30:	000015b7          	lui	a1,0x1
    4c34:	00b105b3          	add	a1,sp,a1
    4c38:	fca5ac23          	sw	a0,-40(a1) # fd8 <.LBB19_2+0x30>
    4c3c:	00001537          	lui	a0,0x1
    4c40:	00a10533          	add	a0,sp,a0
    4c44:	ab853503          	ld	a0,-1352(a0) # ab8 <.LBB19_1+0x938>
    4c48:	000015b7          	lui	a1,0x1
    4c4c:	00b105b3          	add	a1,sp,a1
    4c50:	fca5ae23          	sw	a0,-36(a1) # fdc <.LBB19_2+0x34>
    4c54:	00001537          	lui	a0,0x1
    4c58:	00a10533          	add	a0,sp,a0
    4c5c:	af053503          	ld	a0,-1296(a0) # af0 <.LBB19_1+0x970>
    4c60:	000015b7          	lui	a1,0x1
    4c64:	00b105b3          	add	a1,sp,a1
    4c68:	fea5a023          	sw	a0,-32(a1) # fe0 <.LBB19_2+0x38>
    4c6c:	00001537          	lui	a0,0x1
    4c70:	00a10533          	add	a0,sp,a0
    4c74:	b2853503          	ld	a0,-1240(a0) # b28 <.LBB19_1+0x9a8>
    4c78:	000015b7          	lui	a1,0x1
    4c7c:	00b105b3          	add	a1,sp,a1
    4c80:	fea5a223          	sw	a0,-28(a1) # fe4 <.LBB19_2+0x3c>
    4c84:	00001537          	lui	a0,0x1
    4c88:	00a10533          	add	a0,sp,a0
    4c8c:	b6053503          	ld	a0,-1184(a0) # b60 <.LBB19_1+0x9e0>
    4c90:	000015b7          	lui	a1,0x1
    4c94:	00b105b3          	add	a1,sp,a1
    4c98:	fea5a423          	sw	a0,-24(a1) # fe8 <.LBB19_2+0x40>
    4c9c:	00001537          	lui	a0,0x1
    4ca0:	00a10533          	add	a0,sp,a0
    4ca4:	b9853503          	ld	a0,-1128(a0) # b98 <.LBB19_1+0xa18>
    4ca8:	000015b7          	lui	a1,0x1
    4cac:	00b105b3          	add	a1,sp,a1
    4cb0:	fea5a623          	sw	a0,-20(a1) # fec <.LBB19_2+0x44>
    4cb4:	00001537          	lui	a0,0x1
    4cb8:	00a10533          	add	a0,sp,a0
    4cbc:	bd053503          	ld	a0,-1072(a0) # bd0 <.LBB19_1+0xa50>
    4cc0:	000015b7          	lui	a1,0x1
    4cc4:	00b105b3          	add	a1,sp,a1
    4cc8:	fea5a823          	sw	a0,-16(a1) # ff0 <.LBB19_2+0x48>
    4ccc:	00001537          	lui	a0,0x1
    4cd0:	00a10533          	add	a0,sp,a0
    4cd4:	c0853503          	ld	a0,-1016(a0) # c08 <.LBB19_1+0xa88>
    4cd8:	000015b7          	lui	a1,0x1
    4cdc:	00b105b3          	add	a1,sp,a1
    4ce0:	fea5aa23          	sw	a0,-12(a1) # ff4 <.LBB19_2+0x4c>
    4ce4:	00001537          	lui	a0,0x1
    4ce8:	00a10533          	add	a0,sp,a0
    4cec:	c4053503          	ld	a0,-960(a0) # c40 <.LBB19_1+0xac0>
    4cf0:	000015b7          	lui	a1,0x1
    4cf4:	00b105b3          	add	a1,sp,a1
    4cf8:	fea5ac23          	sw	a0,-8(a1) # ff8 <.LBB19_2+0x50>
    4cfc:	00001537          	lui	a0,0x1
    4d00:	00a10533          	add	a0,sp,a0
    4d04:	c7853503          	ld	a0,-904(a0) # c78 <.LBB19_1+0xaf8>
    4d08:	000015b7          	lui	a1,0x1
    4d0c:	00b105b3          	add	a1,sp,a1
    4d10:	fea5ae23          	sw	a0,-4(a1) # ffc <.LBB19_2+0x54>
    4d14:	00001537          	lui	a0,0x1
    4d18:	00a10533          	add	a0,sp,a0
    4d1c:	77813583          	ld	a1,1912(sp)
    4d20:	00b52023          	sw	a1,0(a0) # 1000 <.LBB19_2+0x58>
    4d24:	7b013503          	ld	a0,1968(sp)
    4d28:	000015b7          	lui	a1,0x1
    4d2c:	00b105b3          	add	a1,sp,a1
    4d30:	00a5a223          	sw	a0,4(a1) # 1004 <.LBB19_2+0x5c>
    4d34:	7e813503          	ld	a0,2024(sp)
    4d38:	000015b7          	lui	a1,0x1
    4d3c:	00b105b3          	add	a1,sp,a1
    4d40:	00a5a423          	sw	a0,8(a1) # 1008 <.LBB19_2+0x60>
    4d44:	00001537          	lui	a0,0x1
    4d48:	00a10533          	add	a0,sp,a0
    4d4c:	82053503          	ld	a0,-2016(a0) # 820 <.LBB19_1+0x6a0>
    4d50:	000015b7          	lui	a1,0x1
    4d54:	00b105b3          	add	a1,sp,a1
    4d58:	00a5a623          	sw	a0,12(a1) # 100c <.LBB19_2+0x64>
    4d5c:	00001537          	lui	a0,0x1
    4d60:	00a10533          	add	a0,sp,a0
    4d64:	85853503          	ld	a0,-1960(a0) # 858 <.LBB19_1+0x6d8>
    4d68:	000015b7          	lui	a1,0x1
    4d6c:	00b105b3          	add	a1,sp,a1
    4d70:	00a5a823          	sw	a0,16(a1) # 1010 <.LBB19_2+0x68>
    4d74:	00001537          	lui	a0,0x1
    4d78:	00a10533          	add	a0,sp,a0
    4d7c:	89053503          	ld	a0,-1904(a0) # 890 <.LBB19_1+0x710>
    4d80:	000015b7          	lui	a1,0x1
    4d84:	00b105b3          	add	a1,sp,a1
    4d88:	00a5aa23          	sw	a0,20(a1) # 1014 <.LBB19_2+0x6c>
    4d8c:	00001537          	lui	a0,0x1
    4d90:	00a10533          	add	a0,sp,a0
    4d94:	8c853503          	ld	a0,-1848(a0) # 8c8 <.LBB19_1+0x748>
    4d98:	000015b7          	lui	a1,0x1
    4d9c:	00b105b3          	add	a1,sp,a1
    4da0:	00a5ac23          	sw	a0,24(a1) # 1018 <.LBB19_2+0x70>
    4da4:	00001537          	lui	a0,0x1
    4da8:	00a10533          	add	a0,sp,a0
    4dac:	90053503          	ld	a0,-1792(a0) # 900 <.LBB19_1+0x780>
    4db0:	000015b7          	lui	a1,0x1
    4db4:	00b105b3          	add	a1,sp,a1
    4db8:	00a5ae23          	sw	a0,28(a1) # 101c <.LBB19_2+0x74>
    4dbc:	00001537          	lui	a0,0x1
    4dc0:	00a10533          	add	a0,sp,a0
    4dc4:	93853503          	ld	a0,-1736(a0) # 938 <.LBB19_1+0x7b8>
    4dc8:	000015b7          	lui	a1,0x1
    4dcc:	00b105b3          	add	a1,sp,a1
    4dd0:	02a5a023          	sw	a0,32(a1) # 1020 <.LBB19_2+0x78>
    4dd4:	00001537          	lui	a0,0x1
    4dd8:	00a10533          	add	a0,sp,a0
    4ddc:	97053503          	ld	a0,-1680(a0) # 970 <.LBB19_1+0x7f0>
    4de0:	000015b7          	lui	a1,0x1
    4de4:	00b105b3          	add	a1,sp,a1
    4de8:	02a5a223          	sw	a0,36(a1) # 1024 <.LBB19_2+0x7c>
    4dec:	00001537          	lui	a0,0x1
    4df0:	00a10533          	add	a0,sp,a0
    4df4:	9a853503          	ld	a0,-1624(a0) # 9a8 <.LBB19_1+0x828>
    4df8:	000015b7          	lui	a1,0x1
    4dfc:	00b105b3          	add	a1,sp,a1
    4e00:	02a5a423          	sw	a0,40(a1) # 1028 <.LBB19_2+0x80>
    4e04:	00001537          	lui	a0,0x1
    4e08:	00a10533          	add	a0,sp,a0
    4e0c:	9e053503          	ld	a0,-1568(a0) # 9e0 <.LBB19_1+0x860>
    4e10:	000015b7          	lui	a1,0x1
    4e14:	00b105b3          	add	a1,sp,a1
    4e18:	02a5a623          	sw	a0,44(a1) # 102c <.LBB19_2+0x84>
    4e1c:	00001537          	lui	a0,0x1
    4e20:	00a10533          	add	a0,sp,a0
    4e24:	a1853503          	ld	a0,-1512(a0) # a18 <.LBB19_1+0x898>
    4e28:	000015b7          	lui	a1,0x1
    4e2c:	00b105b3          	add	a1,sp,a1
    4e30:	02a5a823          	sw	a0,48(a1) # 1030 <.LBB19_2+0x88>
    4e34:	00001537          	lui	a0,0x1
    4e38:	00a10533          	add	a0,sp,a0
    4e3c:	a5053503          	ld	a0,-1456(a0) # a50 <.LBB19_1+0x8d0>
    4e40:	000015b7          	lui	a1,0x1
    4e44:	00b105b3          	add	a1,sp,a1
    4e48:	02a5aa23          	sw	a0,52(a1) # 1034 <.LBB19_2+0x8c>
    4e4c:	00001537          	lui	a0,0x1
    4e50:	00a10533          	add	a0,sp,a0
    4e54:	a8853503          	ld	a0,-1400(a0) # a88 <.LBB19_1+0x908>
    4e58:	000015b7          	lui	a1,0x1
    4e5c:	00b105b3          	add	a1,sp,a1
    4e60:	02a5ac23          	sw	a0,56(a1) # 1038 <.LBB19_2+0x90>
    4e64:	00001537          	lui	a0,0x1
    4e68:	00a10533          	add	a0,sp,a0
    4e6c:	ac053503          	ld	a0,-1344(a0) # ac0 <.LBB19_1+0x940>
    4e70:	000015b7          	lui	a1,0x1
    4e74:	00b105b3          	add	a1,sp,a1
    4e78:	02a5ae23          	sw	a0,60(a1) # 103c <.LBB19_2+0x94>
    4e7c:	00001537          	lui	a0,0x1
    4e80:	00a10533          	add	a0,sp,a0
    4e84:	af853503          	ld	a0,-1288(a0) # af8 <.LBB19_1+0x978>
    4e88:	000015b7          	lui	a1,0x1
    4e8c:	00b105b3          	add	a1,sp,a1
    4e90:	04a5a023          	sw	a0,64(a1) # 1040 <.LBB19_2+0x98>
    4e94:	00001537          	lui	a0,0x1
    4e98:	00a10533          	add	a0,sp,a0
    4e9c:	b3053503          	ld	a0,-1232(a0) # b30 <.LBB19_1+0x9b0>
    4ea0:	000015b7          	lui	a1,0x1
    4ea4:	00b105b3          	add	a1,sp,a1
    4ea8:	04a5a223          	sw	a0,68(a1) # 1044 <.LBB19_2+0x9c>
    4eac:	00001537          	lui	a0,0x1
    4eb0:	00a10533          	add	a0,sp,a0
    4eb4:	b6853503          	ld	a0,-1176(a0) # b68 <.LBB19_1+0x9e8>
    4eb8:	000015b7          	lui	a1,0x1
    4ebc:	00b105b3          	add	a1,sp,a1
    4ec0:	04a5a423          	sw	a0,72(a1) # 1048 <.LBB19_2+0xa0>
    4ec4:	00001537          	lui	a0,0x1
    4ec8:	00a10533          	add	a0,sp,a0
    4ecc:	ba053503          	ld	a0,-1120(a0) # ba0 <.LBB19_1+0xa20>
    4ed0:	000015b7          	lui	a1,0x1
    4ed4:	00b105b3          	add	a1,sp,a1
    4ed8:	04a5a623          	sw	a0,76(a1) # 104c <.LBB19_2+0xa4>
    4edc:	00001537          	lui	a0,0x1
    4ee0:	00a10533          	add	a0,sp,a0
    4ee4:	bd853503          	ld	a0,-1064(a0) # bd8 <.LBB19_1+0xa58>
    4ee8:	000015b7          	lui	a1,0x1
    4eec:	00b105b3          	add	a1,sp,a1
    4ef0:	04a5a823          	sw	a0,80(a1) # 1050 <.LBB19_2+0xa8>
    4ef4:	00001537          	lui	a0,0x1
    4ef8:	00a10533          	add	a0,sp,a0
    4efc:	c1053503          	ld	a0,-1008(a0) # c10 <.LBB19_1+0xa90>
    4f00:	000015b7          	lui	a1,0x1
    4f04:	00b105b3          	add	a1,sp,a1
    4f08:	04a5aa23          	sw	a0,84(a1) # 1054 <.LBB19_2+0xac>
    4f0c:	00001537          	lui	a0,0x1
    4f10:	00a10533          	add	a0,sp,a0
    4f14:	c4853503          	ld	a0,-952(a0) # c48 <.LBB19_1+0xac8>
    4f18:	000015b7          	lui	a1,0x1
    4f1c:	00b105b3          	add	a1,sp,a1
    4f20:	04a5ac23          	sw	a0,88(a1) # 1058 <.LBB19_2+0xb0>
    4f24:	00001537          	lui	a0,0x1
    4f28:	00a10533          	add	a0,sp,a0
    4f2c:	c8053503          	ld	a0,-896(a0) # c80 <.LBB19_1+0xb00>
    4f30:	000015b7          	lui	a1,0x1
    4f34:	00b105b3          	add	a1,sp,a1
    4f38:	04a5ae23          	sw	a0,92(a1) # 105c <.LBB19_2+0xb4>
    4f3c:	00001537          	lui	a0,0x1
    4f40:	0605051b          	addiw	a0,a0,96 # 1060 <.LBB19_2+0xb8>
    4f44:	00a10733          	add	a4,sp,a0
    4f48:	00001537          	lui	a0,0x1
    4f4c:	00a10533          	add	a0,sp,a0
    4f50:	ca053503          	ld	a0,-864(a0) # ca0 <.LBB19_1+0xb20>
    4f54:	00a72023          	sw	a0,0(a4)
    4f58:	00001537          	lui	a0,0x1
    4f5c:	00a10533          	add	a0,sp,a0
    4f60:	c9853503          	ld	a0,-872(a0) # c98 <.LBB19_1+0xb18>
    4f64:	000015b7          	lui	a1,0x1
    4f68:	00b105b3          	add	a1,sp,a1
    4f6c:	06a5a223          	sw	a0,100(a1) # 1064 <.LBB19_2+0xbc>
    4f70:	00001537          	lui	a0,0x1
    4f74:	00a10533          	add	a0,sp,a0
    4f78:	c9053503          	ld	a0,-880(a0) # c90 <.LBB19_1+0xb10>
    4f7c:	000015b7          	lui	a1,0x1
    4f80:	00b105b3          	add	a1,sp,a1
    4f84:	06a5a423          	sw	a0,104(a1) # 1068 <.LBB19_2+0xc0>
    4f88:	00001537          	lui	a0,0x1
    4f8c:	00a10533          	add	a0,sp,a0
    4f90:	07b52623          	sw	s11,108(a0) # 106c <.LBB19_2+0xc4>
    4f94:	00001537          	lui	a0,0x1
    4f98:	00a10533          	add	a0,sp,a0
    4f9c:	c8853503          	ld	a0,-888(a0) # c88 <.LBB19_1+0xb08>
    4fa0:	000015b7          	lui	a1,0x1
    4fa4:	00b105b3          	add	a1,sp,a1
    4fa8:	06a5a823          	sw	a0,112(a1) # 1070 <.LBB19_2+0xc8>
    4fac:	00001537          	lui	a0,0x1
    4fb0:	00a10533          	add	a0,sp,a0
    4fb4:	cf853503          	ld	a0,-776(a0) # cf8 <.LBB19_1+0xb78>
    4fb8:	000015b7          	lui	a1,0x1
    4fbc:	00b105b3          	add	a1,sp,a1
    4fc0:	06a5aa23          	sw	a0,116(a1) # 1074 <.LBB19_2+0xcc>
    4fc4:	00001537          	lui	a0,0x1
    4fc8:	00a10533          	add	a0,sp,a0
    4fcc:	d0053503          	ld	a0,-768(a0) # d00 <.LBB19_1+0xb80>
    4fd0:	000015b7          	lui	a1,0x1
    4fd4:	00b105b3          	add	a1,sp,a1
    4fd8:	06a5ac23          	sw	a0,120(a1) # 1078 <.LBB19_2+0xd0>
    4fdc:	00001537          	lui	a0,0x1
    4fe0:	00a10533          	add	a0,sp,a0
    4fe4:	d0853503          	ld	a0,-760(a0) # d08 <.LBB19_1+0xb88>
    4fe8:	000015b7          	lui	a1,0x1
    4fec:	00b105b3          	add	a1,sp,a1
    4ff0:	06a5ae23          	sw	a0,124(a1) # 107c <.LBB19_2+0xd4>
    4ff4:	00001537          	lui	a0,0x1
    4ff8:	00a10533          	add	a0,sp,a0
    4ffc:	ca153423          	sd	ra,-856(a0) # ca8 <.LBB19_1+0xb28>
    5000:	00001537          	lui	a0,0x1
    5004:	00a10533          	add	a0,sp,a0
    5008:	08152023          	sw	ra,128(a0) # 1080 <.LBB19_2+0xd8>
    500c:	00001537          	lui	a0,0x1
    5010:	00a10533          	add	a0,sp,a0
    5014:	cb153823          	sd	a7,-848(a0) # cb0 <.LBB19_1+0xb30>
    5018:	00001537          	lui	a0,0x1
    501c:	00a10533          	add	a0,sp,a0
    5020:	09152223          	sw	a7,132(a0) # 1084 <.LBB19_2+0xdc>
    5024:	00001537          	lui	a0,0x1
    5028:	00a10533          	add	a0,sp,a0
    502c:	cba53c23          	sd	s10,-840(a0) # cb8 <.LBB19_1+0xb38>
    5030:	00001537          	lui	a0,0x1
    5034:	00a10533          	add	a0,sp,a0
    5038:	09a52423          	sw	s10,136(a0) # 1088 <.LBB19_2+0xe0>
    503c:	00001537          	lui	a0,0x1
    5040:	00a10533          	add	a0,sp,a0
    5044:	cd453023          	sd	s4,-832(a0) # cc0 <.LBB19_1+0xb40>
    5048:	00001537          	lui	a0,0x1
    504c:	00a10533          	add	a0,sp,a0
    5050:	09452623          	sw	s4,140(a0) # 108c <.LBB19_2+0xe4>
    5054:	00001537          	lui	a0,0x1
    5058:	00a10533          	add	a0,sp,a0
    505c:	09352823          	sw	s3,144(a0) # 1090 <.LBB19_2+0xe8>
    5060:	00001537          	lui	a0,0x1
    5064:	00a10533          	add	a0,sp,a0
    5068:	09252a23          	sw	s2,148(a0) # 1094 <.LBB19_2+0xec>
    506c:	00001537          	lui	a0,0x1
    5070:	00a10533          	add	a0,sp,a0
    5074:	08952c23          	sw	s1,152(a0) # 1098 <.LBB19_2+0xf0>
    5078:	00001537          	lui	a0,0x1
    507c:	00a10533          	add	a0,sp,a0
    5080:	09f52e23          	sw	t6,156(a0) # 109c <.LBB19_2+0xf4>
    5084:	00001537          	lui	a0,0x1
    5088:	00a10533          	add	a0,sp,a0
    508c:	0be52023          	sw	t5,160(a0) # 10a0 <.LBB19_2+0xf8>
    5090:	00001537          	lui	a0,0x1
    5094:	00a10533          	add	a0,sp,a0
    5098:	cdd53423          	sd	t4,-824(a0) # cc8 <.LBB19_1+0xb48>
    509c:	00001537          	lui	a0,0x1
    50a0:	00a10533          	add	a0,sp,a0
    50a4:	0bd52223          	sw	t4,164(a0) # 10a4 <.LBB19_2+0xfc>
    50a8:	00001537          	lui	a0,0x1
    50ac:	00a10533          	add	a0,sp,a0
    50b0:	cdc53823          	sd	t3,-816(a0) # cd0 <.LBB19_1+0xb50>
    50b4:	00001537          	lui	a0,0x1
    50b8:	00a10533          	add	a0,sp,a0
    50bc:	0bc52423          	sw	t3,168(a0) # 10a8 <.LBB19_2+0x100>
    50c0:	00001537          	lui	a0,0x1
    50c4:	00a10533          	add	a0,sp,a0
    50c8:	cc753c23          	sd	t2,-808(a0) # cd8 <.LBB19_1+0xb58>
    50cc:	00001537          	lui	a0,0x1
    50d0:	00a10533          	add	a0,sp,a0
    50d4:	0a752623          	sw	t2,172(a0) # 10ac <.LBB19_2+0x104>
    50d8:	00001537          	lui	a0,0x1
    50dc:	00a10533          	add	a0,sp,a0
