
code.o:     file format elf64-littleriscv


Disassembly of section .text.main_dispatch_62_pooling_nhwc_sum_1x14x14x384x3x3_i8xi32xi32:

0000000000000000 <main_dispatch_62_pooling_nhwc_sum_1x14x14x384x3x3_i8xi32xi32>:
   0:	d5010113          	addi	sp,sp,-688
   4:	2a113423          	sd	ra,680(sp)
   8:	2a813023          	sd	s0,672(sp)
   c:	28913c23          	sd	s1,664(sp)
  10:	29213823          	sd	s2,656(sp)
  14:	29313423          	sd	s3,648(sp)
  18:	29413023          	sd	s4,640(sp)
  1c:	27513c23          	sd	s5,632(sp)
  20:	27613823          	sd	s6,624(sp)
  24:	27713423          	sd	s7,616(sp)
  28:	27813023          	sd	s8,608(sp)
  2c:	25913c23          	sd	s9,600(sp)
  30:	25a13823          	sd	s10,592(sp)
  34:	25b13423          	sd	s11,584(sp)
  38:	2b010413          	addi	s0,sp,688
  3c:	0185b503          	ld	a0,24(a1)
  40:	0205b583          	ld	a1,32(a1)
  44:	00056603          	lwu	a2,0(a0)
  48:	00456503          	lwu	a0,4(a0)
  4c:	0085b683          	ld	a3,8(a1)
  50:	0005b583          	ld	a1,0(a1)
  54:	00000713          	li	a4,0
  58:	ffc57513          	andi	a0,a0,-4
  5c:	00a68533          	add	a0,a3,a0
  60:	d6a43023          	sd	a0,-672(s0)
  64:	00b605b3          	add	a1,a2,a1
  68:	60058693          	addi	a3,a1,1536
  6c:	01500513          	li	a0,21
  70:	00a51513          	slli	a0,a0,0xa
  74:	d4a43c23          	sd	a0,-680(s0)
  78:	00900513          	li	a0,9
  7c:	00951593          	slli	a1,a0,0x9
  80:	d8b43423          	sd	a1,-632(s0)
  84:	00300593          	li	a1,3
  88:	00b59793          	slli	a5,a1,0xb
  8c:	00f00593          	li	a1,15
  90:	00959593          	slli	a1,a1,0x9
  94:	d8b43023          	sd	a1,-640(s0)
  98:	00a51513          	slli	a0,a0,0xa
  9c:	d6a43c23          	sd	a0,-648(s0)
  a0:	def43823          	sd	a5,-528(s0)

00000000000000a4 <.LBB57_1>:
  a4:	00000513          	li	a0,0
  a8:	d6e43823          	sd	a4,-656(s0)
  ac:	d5843583          	ld	a1,-680(s0)
  b0:	02b705b3          	mul	a1,a4,a1
  b4:	d6043603          	ld	a2,-672(s0)
  b8:	00b605b3          	add	a1,a2,a1
  bc:	d8b43823          	sd	a1,-624(s0)
  c0:	d6d43423          	sd	a3,-664(s0)

00000000000000c4 <.LBB57_2>:
  c4:	00000593          	li	a1,0
  c8:	00050613          	mv	a2,a0
  cc:	60000513          	li	a0,1536
  d0:	d8c43c23          	sd	a2,-616(s0)
  d4:	02a60533          	mul	a0,a2,a0
  d8:	d9043603          	ld	a2,-624(s0)
  dc:	00a60633          	add	a2,a2,a0
  e0:	60060513          	addi	a0,a2,1536
  e4:	dca43823          	sd	a0,-560(s0)
  e8:	7ff60513          	addi	a0,a2,2047
  ec:	40150513          	addi	a0,a0,1025
  f0:	dca43423          	sd	a0,-568(s0)
  f4:	d8843503          	ld	a0,-632(s0)
  f8:	00a60533          	add	a0,a2,a0
  fc:	dca43023          	sd	a0,-576(s0)
 100:	00f60533          	add	a0,a2,a5
 104:	daa43c23          	sd	a0,-584(s0)
 108:	d8043503          	ld	a0,-640(s0)
 10c:	00a60533          	add	a0,a2,a0
 110:	daa43823          	sd	a0,-592(s0)
 114:	d7843503          	ld	a0,-648(s0)
 118:	dcc43c23          	sd	a2,-552(s0)
 11c:	00a60533          	add	a0,a2,a0
 120:	daa43423          	sd	a0,-600(s0)
 124:	dad43023          	sd	a3,-608(s0)
 128:	00068613          	mv	a2,a3

000000000000012c <.LBB57_3>:
 12c:	00000893          	li	a7,0
 130:	00000a93          	li	s5,0
 134:	00000c13          	li	s8,0
 138:	00000b13          	li	s6,0
 13c:	00000c93          	li	s9,0
 140:	00000d93          	li	s11,0
 144:	00000d13          	li	s10,0
 148:	00000513          	li	a0,0
 14c:	00000493          	li	s1,0
 150:	00000913          	li	s2,0
 154:	e8043823          	sd	zero,-368(s0)
 158:	00000993          	li	s3,0
 15c:	00000a13          	li	s4,0
 160:	ec043c23          	sd	zero,-296(s0)
 164:	ea043423          	sd	zero,-344(s0)
 168:	ea043023          	sd	zero,-352(s0)
 16c:	f6043c23          	sd	zero,-136(s0)
 170:	ec043823          	sd	zero,-304(s0)
 174:	e8043c23          	sd	zero,-360(s0)
 178:	ec043423          	sd	zero,-312(s0)
 17c:	f0043823          	sd	zero,-240(s0)
 180:	ec043023          	sd	zero,-320(s0)
 184:	f0043423          	sd	zero,-248(s0)
 188:	ea043c23          	sd	zero,-328(s0)
 18c:	f8043023          	sd	zero,-128(s0)
 190:	f0043023          	sd	zero,-256(s0)
 194:	ea043823          	sd	zero,-336(s0)
 198:	ee043c23          	sd	zero,-264(s0)
 19c:	f4043423          	sd	zero,-184(s0)
 1a0:	ee043823          	sd	zero,-272(s0)
 1a4:	f4043023          	sd	zero,-192(s0)
 1a8:	ee043423          	sd	zero,-280(s0)
 1ac:	f8043423          	sd	zero,-120(s0)
 1b0:	f2043c23          	sd	zero,-200(s0)
 1b4:	ee043023          	sd	zero,-288(s0)
 1b8:	f2043823          	sd	zero,-208(s0)
 1bc:	f6043823          	sd	zero,-144(s0)
 1c0:	f2043423          	sd	zero,-216(s0)
 1c4:	f6043423          	sd	zero,-152(s0)
 1c8:	f2043023          	sd	zero,-224(s0)
 1cc:	f8043823          	sd	zero,-112(s0)
 1d0:	f6043023          	sd	zero,-160(s0)
 1d4:	f0043c23          	sd	zero,-232(s0)
 1d8:	f4043c23          	sd	zero,-168(s0)
 1dc:	00000093          	li	ra,0
 1e0:	f4043823          	sd	zero,-176(s0)
 1e4:	00000e13          	li	t3,0
 1e8:	00000b93          	li	s7,0
 1ec:	00000293          	li	t0,0
 1f0:	00000313          	li	t1,0
 1f4:	00000393          	li	t2,0
 1f8:	00000f93          	li	t6,0
 1fc:	00000f13          	li	t5,0
 200:	00000813          	li	a6,0
 204:	00000e93          	li	t4,0
 208:	00000713          	li	a4,0
 20c:	deb43023          	sd	a1,-544(s0)
 210:	ffd00593          	li	a1,-3
 214:	dec43423          	sd	a2,-536(s0)

0000000000000218 <.LBB57_4>:
 218:	e1c43423          	sd	t3,-504(s0)
 21c:	e0643823          	sd	t1,-496(s0)
 220:	e1e43c23          	sd	t5,-488(s0)
 224:	e5f43423          	sd	t6,-440(s0)
 228:	e4743c23          	sd	t2,-424(s0)
 22c:	e7d43023          	sd	t4,-416(s0)
 230:	e6543423          	sd	t0,-408(s0)
 234:	e7743823          	sd	s7,-400(s0)
 238:	e9043023          	sd	a6,-384(s0)
 23c:	e8e43423          	sd	a4,-376(s0)
 240:	a0260683          	lb	a3,-1534(a2)
 244:	00dc0bb3          	add	s7,s8,a3
 248:	a0160683          	lb	a3,-1535(a2)
 24c:	a0060703          	lb	a4,-1536(a2)
 250:	a0360783          	lb	a5,-1533(a2)
 254:	a0460803          	lb	a6,-1532(a2)
 258:	00da8ab3          	add	s5,s5,a3
 25c:	00e88733          	add	a4,a7,a4
 260:	00fb0b33          	add	s6,s6,a5
 264:	010c8c33          	add	s8,s9,a6
 268:	a0760683          	lb	a3,-1529(a2)
 26c:	a0560803          	lb	a6,-1531(a2)
 270:	a0660883          	lb	a7,-1530(a2)
 274:	b8060283          	lb	t0,-1152(a2)
 278:	d0060783          	lb	a5,-768(a2)
 27c:	010d8cb3          	add	s9,s11,a6
 280:	011d0d33          	add	s10,s10,a7
 284:	00d50533          	add	a0,a0,a3
 288:	005782b3          	add	t0,a5,t0
 28c:	e8060d83          	lb	s11,-384(a2)
 290:	b8160683          	lb	a3,-1151(a2)
 294:	d0160803          	lb	a6,-767(a2)
 298:	00e28733          	add	a4,t0,a4
 29c:	e6e43c23          	sd	a4,-392(s0)
 2a0:	01b48733          	add	a4,s1,s11
 2a4:	00e28733          	add	a4,t0,a4
 2a8:	e4e43823          	sd	a4,-432(s0)
 2ac:	00d80733          	add	a4,a6,a3
 2b0:	e8160683          	lb	a3,-383(a2)
 2b4:	b8260883          	lb	a7,-1150(a2)
 2b8:	d0260383          	lb	t2,-766(a2)
 2bc:	01570ab3          	add	s5,a4,s5
 2c0:	e3543423          	sd	s5,-472(s0)
 2c4:	00d902b3          	add	t0,s2,a3
 2c8:	00570733          	add	a4,a4,t0
 2cc:	e4e43023          	sd	a4,-448(s0)
 2d0:	011388b3          	add	a7,t2,a7
 2d4:	e8260e03          	lb	t3,-382(a2)
 2d8:	b8360703          	lb	a4,-1149(a2)
 2dc:	d0360e83          	lb	t4,-765(a2)
 2e0:	01788bb3          	add	s7,a7,s7
 2e4:	e3743c23          	sd	s7,-456(s0)
 2e8:	e9043283          	ld	t0,-368(s0)
 2ec:	01c282b3          	add	t0,t0,t3
 2f0:	005888b3          	add	a7,a7,t0
 2f4:	e9143823          	sd	a7,-368(s0)
 2f8:	00ee8733          	add	a4,t4,a4
 2fc:	00008b93          	mv	s7,ra
 300:	e8360083          	lb	ra,-381(a2)
 304:	b8460883          	lb	a7,-1148(a2)
 308:	d0460f83          	lb	t6,-764(a2)
 30c:	01670b33          	add	s6,a4,s6
 310:	e1643023          	sd	s6,-512(s0)
 314:	001982b3          	add	t0,s3,ra
 318:	00570733          	add	a4,a4,t0
 31c:	dee43c23          	sd	a4,-520(s0)
 320:	011f88b3          	add	a7,t6,a7
 324:	e8460703          	lb	a4,-380(a2)
 328:	b8560283          	lb	t0,-1147(a2)
 32c:	d0560483          	lb	s1,-763(a2)
 330:	01888c33          	add	s8,a7,s8
 334:	e3843823          	sd	s8,-464(s0)
 338:	00ea0333          	add	t1,s4,a4
 33c:	00688c33          	add	s8,a7,t1
 340:	005482b3          	add	t0,s1,t0
 344:	e8560883          	lb	a7,-379(a2)
 348:	b8660303          	lb	t1,-1146(a2)
 34c:	d0660a83          	lb	s5,-762(a2)
 350:	01928cb3          	add	s9,t0,s9
 354:	ed843f03          	ld	t5,-296(s0)
 358:	011f0f33          	add	t5,t5,a7
 35c:	01e282b3          	add	t0,t0,t5
 360:	ec543c23          	sd	t0,-296(s0)
 364:	006a8f33          	add	t5,s5,t1
 368:	e8660283          	lb	t0,-378(a2)
 36c:	01af0d33          	add	s10,t5,s10
 370:	e3a43023          	sd	s10,-480(s0)
 374:	b8760903          	lb	s2,-1145(a2)
 378:	d0760b03          	lb	s6,-761(a2)
 37c:	ea843983          	ld	s3,-344(s0)
 380:	005989b3          	add	s3,s3,t0
 384:	e8760303          	lb	t1,-377(a2)
 388:	013f0f33          	add	t5,t5,s3
 38c:	ebe43423          	sd	t5,-344(s0)
 390:	012b0933          	add	s2,s6,s2
 394:	00a90533          	add	a0,s2,a0
 398:	ea043f03          	ld	t5,-352(s0)
 39c:	006f0f33          	add	t5,t5,t1
 3a0:	00060a03          	lb	s4,0(a2)
 3a4:	01e90f33          	add	t5,s2,t5
 3a8:	ebe43023          	sd	t5,-352(s0)
 3ac:	00fd8f33          	add	t5,s11,a5
 3b0:	00160783          	lb	a5,1(a2)
 3b4:	f7843903          	ld	s2,-136(s0)
 3b8:	01490933          	add	s2,s2,s4
 3bc:	012f0f33          	add	t5,t5,s2
 3c0:	f7e43c23          	sd	t5,-136(s0)
 3c4:	01068833          	add	a6,a3,a6
 3c8:	ed043f03          	ld	t5,-304(s0)
 3cc:	00ff0f33          	add	t5,t5,a5
 3d0:	00260983          	lb	s3,2(a2)
 3d4:	01e80833          	add	a6,a6,t5
 3d8:	ed043823          	sd	a6,-304(s0)
 3dc:	007e03b3          	add	t2,t3,t2
 3e0:	00360f03          	lb	t5,3(a2)
 3e4:	e9843803          	ld	a6,-360(s0)
 3e8:	01380833          	add	a6,a6,s3
 3ec:	01038833          	add	a6,t2,a6
 3f0:	e9043c23          	sd	a6,-360(s0)
 3f4:	01d08eb3          	add	t4,ra,t4
 3f8:	ec843803          	ld	a6,-312(s0)
 3fc:	01e80833          	add	a6,a6,t5
 400:	00460903          	lb	s2,4(a2)
 404:	010e8833          	add	a6,t4,a6
 408:	ed043423          	sd	a6,-312(s0)
 40c:	01f70fb3          	add	t6,a4,t6
 410:	00560e83          	lb	t4,5(a2)
 414:	f1043803          	ld	a6,-240(s0)
 418:	01280833          	add	a6,a6,s2
 41c:	010f8833          	add	a6,t6,a6
 420:	f1043823          	sd	a6,-240(s0)
 424:	009884b3          	add	s1,a7,s1
 428:	ec043803          	ld	a6,-320(s0)
 42c:	01d80833          	add	a6,a6,t4
 430:	00660f83          	lb	t6,6(a2)
 434:	01048833          	add	a6,s1,a6
 438:	ed043023          	sd	a6,-320(s0)
 43c:	01528ab3          	add	s5,t0,s5
 440:	00760383          	lb	t2,7(a2)
 444:	f0843803          	ld	a6,-248(s0)
 448:	01f80833          	add	a6,a6,t6
 44c:	010a8833          	add	a6,s5,a6
 450:	f1043423          	sd	a6,-248(s0)
 454:	01630b33          	add	s6,t1,s6
 458:	eb843803          	ld	a6,-328(s0)
 45c:	00780833          	add	a6,a6,t2
 460:	18060483          	lb	s1,384(a2)
 464:	010b0833          	add	a6,s6,a6
 468:	eb043c23          	sd	a6,-328(s0)
 46c:	01ba0833          	add	a6,s4,s11
 470:	18160d83          	lb	s11,385(a2)
 474:	f8043a83          	ld	s5,-128(s0)
 478:	009a8ab3          	add	s5,s5,s1
 47c:	01580833          	add	a6,a6,s5
 480:	f9043023          	sd	a6,-128(s0)
 484:	00d786b3          	add	a3,a5,a3
 488:	f0043a83          	ld	s5,-256(s0)
 48c:	01ba8ab3          	add	s5,s5,s11
 490:	18260803          	lb	a6,386(a2)
 494:	015686b3          	add	a3,a3,s5
 498:	f0d43023          	sd	a3,-256(s0)
 49c:	01c986b3          	add	a3,s3,t3
 4a0:	18360e03          	lb	t3,387(a2)
 4a4:	eb043a83          	ld	s5,-336(s0)
 4a8:	010a8ab3          	add	s5,s5,a6
 4ac:	015686b3          	add	a3,a3,s5
 4b0:	ead43823          	sd	a3,-336(s0)
 4b4:	001f06b3          	add	a3,t5,ra
 4b8:	ef843a83          	ld	s5,-264(s0)
 4bc:	01ca8ab3          	add	s5,s5,t3
 4c0:	18460083          	lb	ra,388(a2)
 4c4:	015686b3          	add	a3,a3,s5
 4c8:	eed43c23          	sd	a3,-264(s0)
 4cc:	00e906b3          	add	a3,s2,a4
 4d0:	18560703          	lb	a4,389(a2)
 4d4:	f4843a83          	ld	s5,-184(s0)
 4d8:	001a8ab3          	add	s5,s5,ra
 4dc:	015686b3          	add	a3,a3,s5
 4e0:	f4d43423          	sd	a3,-184(s0)
 4e4:	011e86b3          	add	a3,t4,a7
 4e8:	ef043a83          	ld	s5,-272(s0)
 4ec:	00ea8ab3          	add	s5,s5,a4
 4f0:	18660883          	lb	a7,390(a2)
 4f4:	015686b3          	add	a3,a3,s5
 4f8:	eed43823          	sd	a3,-272(s0)
 4fc:	005f82b3          	add	t0,t6,t0
 500:	18760683          	lb	a3,391(a2)
 504:	f4043a83          	ld	s5,-192(s0)
 508:	011a8ab3          	add	s5,s5,a7
 50c:	015282b3          	add	t0,t0,s5
 510:	f4543023          	sd	t0,-192(s0)
 514:	00638333          	add	t1,t2,t1
 518:	ee843a83          	ld	s5,-280(s0)
 51c:	00da8ab3          	add	s5,s5,a3
 520:	30060283          	lb	t0,768(a2)
 524:	01530333          	add	t1,t1,s5
 528:	ee643423          	sd	t1,-280(s0)
 52c:	01448a33          	add	s4,s1,s4
 530:	30160303          	lb	t1,769(a2)
 534:	f8843a83          	ld	s5,-120(s0)
 538:	005a8ab3          	add	s5,s5,t0
 53c:	015a0a33          	add	s4,s4,s5
 540:	f9443423          	sd	s4,-120(s0)
 544:	00fd8a33          	add	s4,s11,a5
 548:	f3843a83          	ld	s5,-200(s0)
 54c:	006a8ab3          	add	s5,s5,t1
 550:	30260783          	lb	a5,770(a2)
 554:	015a0a33          	add	s4,s4,s5
 558:	f3443c23          	sd	s4,-200(s0)
 55c:	01380a33          	add	s4,a6,s3
 560:	30360983          	lb	s3,771(a2)
 564:	ee043a83          	ld	s5,-288(s0)
 568:	00fa8ab3          	add	s5,s5,a5
 56c:	015a0a33          	add	s4,s4,s5
 570:	ef443023          	sd	s4,-288(s0)
 574:	01ee0a33          	add	s4,t3,t5
 578:	f3043a83          	ld	s5,-208(s0)
 57c:	013a8ab3          	add	s5,s5,s3
 580:	30460f03          	lb	t5,772(a2)
 584:	015a0a33          	add	s4,s4,s5
 588:	f3443823          	sd	s4,-208(s0)
 58c:	01208a33          	add	s4,ra,s2
 590:	30560903          	lb	s2,773(a2)
 594:	f7043a83          	ld	s5,-144(s0)
 598:	01ea8ab3          	add	s5,s5,t5
 59c:	015a0a33          	add	s4,s4,s5
 5a0:	f7443823          	sd	s4,-144(s0)
 5a4:	01d70a33          	add	s4,a4,t4
 5a8:	f2843a83          	ld	s5,-216(s0)
 5ac:	012a8ab3          	add	s5,s5,s2
 5b0:	30660e83          	lb	t4,774(a2)
 5b4:	015a0a33          	add	s4,s4,s5
 5b8:	f3443423          	sd	s4,-216(s0)
 5bc:	01f88fb3          	add	t6,a7,t6
 5c0:	30760a03          	lb	s4,775(a2)
 5c4:	f6843a83          	ld	s5,-152(s0)
 5c8:	01da8ab3          	add	s5,s5,t4
 5cc:	015f8fb3          	add	t6,t6,s5
 5d0:	f7f43423          	sd	t6,-152(s0)
 5d4:	007683b3          	add	t2,a3,t2
 5d8:	f2043f83          	ld	t6,-224(s0)
 5dc:	014f8fb3          	add	t6,t6,s4
 5e0:	48060a83          	lb	s5,1152(a2)
 5e4:	01f383b3          	add	t2,t2,t6
 5e8:	f2743023          	sd	t2,-224(s0)
 5ec:	009284b3          	add	s1,t0,s1
 5f0:	48160383          	lb	t2,1153(a2)
 5f4:	f9043f83          	ld	t6,-112(s0)
 5f8:	015f8fb3          	add	t6,t6,s5
 5fc:	01f48fb3          	add	t6,s1,t6
 600:	f9f43823          	sd	t6,-112(s0)
 604:	01b30db3          	add	s11,t1,s11
 608:	f6043f83          	ld	t6,-160(s0)
 60c:	007f8fb3          	add	t6,t6,t2
 610:	48260483          	lb	s1,1154(a2)
 614:	01fd8fb3          	add	t6,s11,t6
 618:	f7f43023          	sd	t6,-160(s0)
 61c:	01078833          	add	a6,a5,a6
 620:	48360f83          	lb	t6,1155(a2)
 624:	f1843b03          	ld	s6,-232(s0)
 628:	009b0b33          	add	s6,s6,s1
 62c:	01680833          	add	a6,a6,s6
 630:	f1043c23          	sd	a6,-232(s0)
 634:	01c98e33          	add	t3,s3,t3
 638:	f5843803          	ld	a6,-168(s0)
 63c:	01f80833          	add	a6,a6,t6
 640:	48460b03          	lb	s6,1156(a2)
 644:	010e0833          	add	a6,t3,a6
 648:	f5043c23          	sd	a6,-168(s0)
 64c:	001f00b3          	add	ra,t5,ra
 650:	48560803          	lb	a6,1157(a2)
 654:	016b8e33          	add	t3,s7,s6
 658:	01c080b3          	add	ra,ra,t3
 65c:	00e90733          	add	a4,s2,a4
 660:	f5043e03          	ld	t3,-176(s0)
 664:	010e0e33          	add	t3,t3,a6
 668:	48660d83          	lb	s11,1158(a2)
 66c:	01c70733          	add	a4,a4,t3
 670:	f4e43823          	sd	a4,-176(s0)
 674:	011e88b3          	add	a7,t4,a7
 678:	48760703          	lb	a4,1159(a2)
 67c:	e0843e03          	ld	t3,-504(s0)
 680:	01be0e33          	add	t3,t3,s11
 684:	01c88e33          	add	t3,a7,t3
 688:	00da06b3          	add	a3,s4,a3
 68c:	e7043883          	ld	a7,-400(s0)
 690:	00e888b3          	add	a7,a7,a4
 694:	01168bb3          	add	s7,a3,a7
 698:	005a82b3          	add	t0,s5,t0
 69c:	e2843a83          	ld	s5,-472(s0)
 6a0:	00638333          	add	t1,t2,t1
 6a4:	00f487b3          	add	a5,s1,a5
 6a8:	e5043483          	ld	s1,-432(s0)
 6ac:	013f8fb3          	add	t6,t6,s3
 6b0:	df843983          	ld	s3,-520(s0)
 6b4:	01eb0f33          	add	t5,s6,t5
 6b8:	e0043b03          	ld	s6,-512(s0)
 6bc:	01280833          	add	a6,a6,s2
 6c0:	e4043903          	ld	s2,-448(s0)
 6c4:	60060683          	lb	a3,1536(a2)
 6c8:	01dd8eb3          	add	t4,s11,t4
 6cc:	000c8d93          	mv	s11,s9
 6d0:	01470733          	add	a4,a4,s4
 6d4:	000c0a13          	mv	s4,s8
 6d8:	e3843c03          	ld	s8,-456(s0)
 6dc:	60160883          	lb	a7,1537(a2)
 6e0:	e6843383          	ld	t2,-408(s0)
 6e4:	00d386b3          	add	a3,t2,a3
 6e8:	00d282b3          	add	t0,t0,a3
 6ec:	60260683          	lb	a3,1538(a2)
 6f0:	e1043383          	ld	t2,-496(s0)
 6f4:	011388b3          	add	a7,t2,a7
 6f8:	01130333          	add	t1,t1,a7
 6fc:	60360883          	lb	a7,1539(a2)
 700:	e5843383          	ld	t2,-424(s0)
 704:	00d386b3          	add	a3,t2,a3
 708:	00d783b3          	add	t2,a5,a3
 70c:	60460683          	lb	a3,1540(a2)
 710:	e4843783          	ld	a5,-440(s0)
 714:	011788b3          	add	a7,a5,a7
 718:	011f8fb3          	add	t6,t6,a7
 71c:	60560783          	lb	a5,1541(a2)
 720:	e1843883          	ld	a7,-488(s0)
 724:	00d886b3          	add	a3,a7,a3
 728:	e3043c83          	ld	s9,-464(s0)
 72c:	00df0f33          	add	t5,t5,a3
 730:	60660d03          	lb	s10,1542(a2)
 734:	e8043883          	ld	a7,-384(s0)
 738:	00f887b3          	add	a5,a7,a5
 73c:	60760883          	lb	a7,1543(a2)
 740:	00f80833          	add	a6,a6,a5
 744:	df043783          	ld	a5,-528(s0)
 748:	e6043683          	ld	a3,-416(s0)
 74c:	01a686b3          	add	a3,a3,s10
 750:	e2043d03          	ld	s10,-480(s0)
 754:	00de8eb3          	add	t4,t4,a3
 758:	e8843683          	ld	a3,-376(s0)
 75c:	011688b3          	add	a7,a3,a7
 760:	01170733          	add	a4,a4,a7
 764:	e7843883          	ld	a7,-392(s0)
 768:	00158593          	addi	a1,a1,1
 76c:	00f60633          	add	a2,a2,a5
 770:	aa0594e3          	bnez	a1,218 <.LBB57_4>
 774:	de043683          	ld	a3,-544(s0)
 778:	00269593          	slli	a1,a3,0x2
 77c:	dd843603          	ld	a2,-552(s0)
 780:	00b60633          	add	a2,a2,a1
 784:	01862423          	sw	s8,8(a2)
 788:	01562223          	sw	s5,4(a2)
 78c:	01162023          	sw	a7,0(a2)
 790:	01662623          	sw	s6,12(a2)
 794:	01962823          	sw	s9,16(a2)
 798:	01b62a23          	sw	s11,20(a2)
 79c:	01a62c23          	sw	s10,24(a2)
 7a0:	00a62e23          	sw	a0,28(a2)
 7a4:	dd043503          	ld	a0,-560(s0)
 7a8:	00b50533          	add	a0,a0,a1
 7ac:	e9043603          	ld	a2,-368(s0)
 7b0:	00c52423          	sw	a2,8(a0)
 7b4:	01252223          	sw	s2,4(a0)
 7b8:	00952023          	sw	s1,0(a0)
 7bc:	01352623          	sw	s3,12(a0)
 7c0:	01452823          	sw	s4,16(a0)
 7c4:	ed843603          	ld	a2,-296(s0)
 7c8:	00c52a23          	sw	a2,20(a0)
 7cc:	ea843603          	ld	a2,-344(s0)
 7d0:	00c52c23          	sw	a2,24(a0)
 7d4:	ea043603          	ld	a2,-352(s0)
 7d8:	00c52e23          	sw	a2,28(a0)
 7dc:	dc843503          	ld	a0,-568(s0)
 7e0:	00b50533          	add	a0,a0,a1
 7e4:	e9843603          	ld	a2,-360(s0)
 7e8:	00c52423          	sw	a2,8(a0)
 7ec:	ed043603          	ld	a2,-304(s0)
 7f0:	00c52223          	sw	a2,4(a0)
 7f4:	f7843603          	ld	a2,-136(s0)
 7f8:	00c52023          	sw	a2,0(a0)
 7fc:	ec843603          	ld	a2,-312(s0)
 800:	00c52623          	sw	a2,12(a0)
 804:	f1043603          	ld	a2,-240(s0)
 808:	00c52823          	sw	a2,16(a0)
 80c:	ec043603          	ld	a2,-320(s0)
 810:	00c52a23          	sw	a2,20(a0)
 814:	f0843603          	ld	a2,-248(s0)
 818:	00c52c23          	sw	a2,24(a0)
 81c:	eb843603          	ld	a2,-328(s0)
 820:	00c52e23          	sw	a2,28(a0)
 824:	dc043503          	ld	a0,-576(s0)
 828:	00b50533          	add	a0,a0,a1
 82c:	eb043603          	ld	a2,-336(s0)
 830:	00c52423          	sw	a2,8(a0)
 834:	f0043603          	ld	a2,-256(s0)
 838:	00c52223          	sw	a2,4(a0)
 83c:	f8043603          	ld	a2,-128(s0)
 840:	00c52023          	sw	a2,0(a0)
 844:	ef843603          	ld	a2,-264(s0)
 848:	00c52623          	sw	a2,12(a0)
 84c:	f4843603          	ld	a2,-184(s0)
 850:	00c52823          	sw	a2,16(a0)
 854:	ef043603          	ld	a2,-272(s0)
 858:	00c52a23          	sw	a2,20(a0)
 85c:	f4043603          	ld	a2,-192(s0)
 860:	00c52c23          	sw	a2,24(a0)
 864:	ee843603          	ld	a2,-280(s0)
 868:	00c52e23          	sw	a2,28(a0)
 86c:	db843503          	ld	a0,-584(s0)
 870:	00b50533          	add	a0,a0,a1
 874:	ee043603          	ld	a2,-288(s0)
 878:	00c52423          	sw	a2,8(a0)
 87c:	f3843603          	ld	a2,-200(s0)
 880:	00c52223          	sw	a2,4(a0)
 884:	f8843603          	ld	a2,-120(s0)
 888:	00c52023          	sw	a2,0(a0)
 88c:	f3043603          	ld	a2,-208(s0)
 890:	00c52623          	sw	a2,12(a0)
 894:	f7043603          	ld	a2,-144(s0)
 898:	00c52823          	sw	a2,16(a0)
 89c:	f2843603          	ld	a2,-216(s0)
 8a0:	00c52a23          	sw	a2,20(a0)
 8a4:	f6843603          	ld	a2,-152(s0)
 8a8:	00c52c23          	sw	a2,24(a0)
 8ac:	f2043603          	ld	a2,-224(s0)
 8b0:	00c52e23          	sw	a2,28(a0)
 8b4:	db043503          	ld	a0,-592(s0)
 8b8:	00b50533          	add	a0,a0,a1
 8bc:	f1843603          	ld	a2,-232(s0)
 8c0:	00c52423          	sw	a2,8(a0)
 8c4:	f6043603          	ld	a2,-160(s0)
 8c8:	00c52223          	sw	a2,4(a0)
 8cc:	f9043603          	ld	a2,-112(s0)
 8d0:	00c52023          	sw	a2,0(a0)
 8d4:	f5843603          	ld	a2,-168(s0)
 8d8:	00c52623          	sw	a2,12(a0)
 8dc:	00152823          	sw	ra,16(a0)
 8e0:	f5043603          	ld	a2,-176(s0)
 8e4:	00c52a23          	sw	a2,20(a0)
 8e8:	01c52c23          	sw	t3,24(a0)
 8ec:	01752e23          	sw	s7,28(a0)
 8f0:	da843503          	ld	a0,-600(s0)
 8f4:	00b505b3          	add	a1,a0,a1
 8f8:	0075a423          	sw	t2,8(a1)
 8fc:	0065a223          	sw	t1,4(a1)
 900:	0055a023          	sw	t0,0(a1)
 904:	01f5a623          	sw	t6,12(a1)
 908:	01e5a823          	sw	t5,16(a1)
 90c:	0105aa23          	sw	a6,20(a1)
 910:	01d5ac23          	sw	t4,24(a1)
 914:	00e5ae23          	sw	a4,28(a1)
 918:	00868593          	addi	a1,a3,8
 91c:	de843603          	ld	a2,-536(s0)
 920:	00860613          	addi	a2,a2,8
 924:	17800513          	li	a0,376
 928:	80a6e2e3          	bltu	a3,a0,12c <.LBB57_3>
 92c:	d9843603          	ld	a2,-616(s0)
 930:	00760513          	addi	a0,a2,7
 934:	da043583          	ld	a1,-608(s0)
 938:	7ff58593          	addi	a1,a1,2047
 93c:	28158693          	addi	a3,a1,641
 940:	00700593          	li	a1,7
 944:	f8b66063          	bltu	a2,a1,c4 <.LBB57_2>
 948:	d7043703          	ld	a4,-656(s0)
 94c:	00170713          	addi	a4,a4,1
 950:	d6843683          	ld	a3,-664(s0)
 954:	00f686b3          	add	a3,a3,a5
 958:	00e00513          	li	a0,14
 95c:	f4a71463          	bne	a4,a0,a4 <.LBB57_1>
 960:	00000513          	li	a0,0
 964:	2a813083          	ld	ra,680(sp)
 968:	2a013403          	ld	s0,672(sp)
 96c:	29813483          	ld	s1,664(sp)
 970:	29013903          	ld	s2,656(sp)
 974:	28813983          	ld	s3,648(sp)
 978:	28013a03          	ld	s4,640(sp)
 97c:	27813a83          	ld	s5,632(sp)
 980:	27013b03          	ld	s6,624(sp)
 984:	26813b83          	ld	s7,616(sp)
 988:	26013c03          	ld	s8,608(sp)
 98c:	25813c83          	ld	s9,600(sp)
 990:	25013d03          	ld	s10,592(sp)
 994:	24813d83          	ld	s11,584(sp)
 998:	2b010113          	addi	sp,sp,688
 99c:	00008067          	ret
