
code.o:     file format elf64-littleriscv


Disassembly of section .text.main_dispatch_29_matmul_3136x144x24_i8xi8xi32:

0000000000000000 <main_dispatch_29_matmul_3136x144x24_i8xi8xi32>:
       0:	f1501173          	csrrw	sp,0xf15,zero

0000000000000004 <.Lfunc_begin28>:
       4:	81010113          	addi	sp,sp,-2032
       8:	7e113423          	sd	ra,2024(sp)
       c:	7e813023          	sd	s0,2016(sp)
      10:	7c913c23          	sd	s1,2008(sp)
      14:	7d213823          	sd	s2,2000(sp)
      18:	7d313423          	sd	s3,1992(sp)
      1c:	7d413023          	sd	s4,1984(sp)
      20:	7b513c23          	sd	s5,1976(sp)
      24:	7b613823          	sd	s6,1968(sp)
      28:	7b713423          	sd	s7,1960(sp)
      2c:	7b813023          	sd	s8,1952(sp)
      30:	79913c23          	sd	s9,1944(sp)
      34:	79a13823          	sd	s10,1936(sp)
      38:	79b13423          	sd	s11,1928(sp)
      3c:	7f010413          	addi	s0,sp,2032
      40:	80010113          	addi	sp,sp,-2048
      44:	a7010113          	addi	sp,sp,-1424
      48:	fc017113          	andi	sp,sp,-64
      4c:	0205b503          	ld	a0,32(a1)
      50:	00000813          	li	a6,0
      54:	00000893          	li	a7,0
      58:	000845b7          	lui	a1,0x84
      5c:	00053683          	ld	a3,0(a0)
      60:	b185861b          	addiw	a2,a1,-1256 # 83b18 <.Lfunc_end80+0x5b14c>
      64:	04c13c23          	sd	a2,88(sp)
      68:	b005859b          	addiw	a1,a1,-1280
      6c:	00853603          	ld	a2,8(a0)
      70:	06d13023          	sd	a3,96(sp)
      74:	00b685b3          	add	a1,a3,a1
      78:	0cb13423          	sd	a1,200(sp)
      7c:	000245b7          	lui	a1,0x24
      80:	7005869b          	addiw	a3,a1,1792 # 24700 <.LBB63_4669>
      84:	00d606b3          	add	a3,a2,a3
      88:	04d13823          	sd	a3,80(sp)
      8c:	0001f6b7          	lui	a3,0x1f
      90:	4c06871b          	addiw	a4,a3,1216 # 1f4c0 <.LBB60_3814+0x4>
      94:	00e60733          	add	a4,a2,a4
      98:	08e13023          	sd	a4,128(sp)
      9c:	00025737          	lui	a4,0x25
      a0:	4807079b          	addiw	a5,a4,1152 # 25480 <.LBB80_4690>
      a4:	01053503          	ld	a0,16(a0)
      a8:	00f607b3          	add	a5,a2,a5
      ac:	06f13c23          	sd	a5,120(sp)
      b0:	000037b7          	lui	a5,0x3
      b4:	1007879b          	addiw	a5,a5,256 # 3100 <.LBB28_5+0x864>
      b8:	00f50533          	add	a0,a0,a5
      bc:	04a13423          	sd	a0,72(sp)
      c0:	7805851b          	addiw	a0,a1,1920
      c4:	00a60533          	add	a0,a2,a0
      c8:	04a13023          	sd	a0,64(sp)
      cc:	6c06851b          	addiw	a0,a3,1728
      d0:	00a60533          	add	a0,a2,a0
      d4:	02a13c23          	sd	a0,56(sp)
      d8:	6807051b          	addiw	a0,a4,1664
      dc:	00a60533          	add	a0,a2,a0
      e0:	02a13823          	sd	a0,48(sp)
      e4:	fffff537          	lui	a0,0xfffff
      e8:	4c050513          	addi	a0,a0,1216 # fffffffffffff4c0 <.Lfunc_end80+0xfffffffffffd6af4>
      ec:	000015b7          	lui	a1,0x1
      f0:	00b105b3          	add	a1,sp,a1
      f4:	9ea5b023          	sd	a0,-1568(a1) # 9e0 <.LBB28_1+0x8c4>
      f8:	70cf6537          	lui	a0,0x70cf6
      fc:	41d5051b          	addiw	a0,a0,1053 # 70cf641d <.Lfunc_end80+0x70ccda51>
     100:	0ca13823          	sd	a0,208(sp)
     104:	00100513          	li	a0,1
     108:	02251513          	slli	a0,a0,0x22
     10c:	000015b7          	lui	a1,0x1
     110:	00b105b3          	add	a1,sp,a1
     114:	9ca5b823          	sd	a0,-1584(a1) # 9d0 <.LBB28_1+0x8b4>
     118:	1150006f          	j	a2c <.LBB28_2>

000000000000011c <.LBB28_1>:
     11c:	00001537          	lui	a0,0x1
     120:	00a10533          	add	a0,sp,a0
     124:	2a853503          	ld	a0,680(a0) # 12a8 <.LBB28_3+0x7e4>
     128:	08054993          	xori	s3,a0,128
     12c:	0c013583          	ld	a1,192(sp)
     130:	09358023          	sb	s3,128(a1)
     134:	00001537          	lui	a0,0x1
     138:	00a10533          	add	a0,sp,a0
     13c:	2f853503          	ld	a0,760(a0) # 12f8 <.LBB28_3+0x834>
     140:	08054513          	xori	a0,a0,128
     144:	08a580a3          	sb	a0,129(a1)
     148:	00001537          	lui	a0,0x1
     14c:	00a10533          	add	a0,sp,a0
     150:	2f053503          	ld	a0,752(a0) # 12f0 <.LBB28_3+0x82c>
     154:	08054513          	xori	a0,a0,128
     158:	08a58123          	sb	a0,130(a1)
     15c:	00001537          	lui	a0,0x1
     160:	00a10533          	add	a0,sp,a0
     164:	2e853503          	ld	a0,744(a0) # 12e8 <.LBB28_3+0x824>
     168:	08054513          	xori	a0,a0,128
     16c:	08a581a3          	sb	a0,131(a1)
     170:	00001537          	lui	a0,0x1
     174:	00a10533          	add	a0,sp,a0
     178:	2e053503          	ld	a0,736(a0) # 12e0 <.LBB28_3+0x81c>
     17c:	08054513          	xori	a0,a0,128
     180:	08a58223          	sb	a0,132(a1)
     184:	00001537          	lui	a0,0x1
     188:	00a10533          	add	a0,sp,a0
     18c:	2d853503          	ld	a0,728(a0) # 12d8 <.LBB28_3+0x814>
     190:	08054513          	xori	a0,a0,128
     194:	08a582a3          	sb	a0,133(a1)
     198:	00001537          	lui	a0,0x1
     19c:	00a10533          	add	a0,sp,a0
     1a0:	2d053503          	ld	a0,720(a0) # 12d0 <.LBB28_3+0x80c>
     1a4:	08054513          	xori	a0,a0,128
     1a8:	08a58323          	sb	a0,134(a1)
     1ac:	00001537          	lui	a0,0x1
     1b0:	00a10533          	add	a0,sp,a0
     1b4:	2c853503          	ld	a0,712(a0) # 12c8 <.LBB28_3+0x804>
     1b8:	08054513          	xori	a0,a0,128
     1bc:	08a583a3          	sb	a0,135(a1)
     1c0:	00001537          	lui	a0,0x1
     1c4:	00a10533          	add	a0,sp,a0
     1c8:	2c053503          	ld	a0,704(a0) # 12c0 <.LBB28_3+0x7fc>
     1cc:	08054513          	xori	a0,a0,128
     1d0:	08a58423          	sb	a0,136(a1)
     1d4:	00001537          	lui	a0,0x1
     1d8:	00a10533          	add	a0,sp,a0
     1dc:	2b853503          	ld	a0,696(a0) # 12b8 <.LBB28_3+0x7f4>
     1e0:	08054513          	xori	a0,a0,128
     1e4:	08a584a3          	sb	a0,137(a1)
     1e8:	00001537          	lui	a0,0x1
     1ec:	00a10533          	add	a0,sp,a0
     1f0:	2b053503          	ld	a0,688(a0) # 12b0 <.LBB28_3+0x7ec>
     1f4:	08054513          	xori	a0,a0,128
     1f8:	08a58523          	sb	a0,138(a1)
     1fc:	00001537          	lui	a0,0x1
     200:	00a10533          	add	a0,sp,a0
     204:	2a053503          	ld	a0,672(a0) # 12a0 <.LBB28_3+0x7dc>
     208:	08054513          	xori	a0,a0,128
     20c:	08a585a3          	sb	a0,139(a1)
     210:	00001537          	lui	a0,0x1
     214:	00a10533          	add	a0,sp,a0
     218:	27853503          	ld	a0,632(a0) # 1278 <.LBB28_3+0x7b4>
     21c:	08054513          	xori	a0,a0,128
     220:	08a58623          	sb	a0,140(a1)
     224:	00001537          	lui	a0,0x1
     228:	00a10533          	add	a0,sp,a0
     22c:	23053503          	ld	a0,560(a0) # 1230 <.LBB28_3+0x76c>
     230:	08054513          	xori	a0,a0,128
     234:	08a586a3          	sb	a0,141(a1)
     238:	00001537          	lui	a0,0x1
     23c:	00a10533          	add	a0,sp,a0
     240:	20853503          	ld	a0,520(a0) # 1208 <.LBB28_3+0x744>
     244:	08054513          	xori	a0,a0,128
     248:	08a58723          	sb	a0,142(a1)
     24c:	00001537          	lui	a0,0x1
     250:	00a10533          	add	a0,sp,a0
     254:	1f853503          	ld	a0,504(a0) # 11f8 <.LBB28_3+0x734>
     258:	08054513          	xori	a0,a0,128
     25c:	08a587a3          	sb	a0,143(a1)
     260:	00001537          	lui	a0,0x1
     264:	00a10533          	add	a0,sp,a0
     268:	1f053503          	ld	a0,496(a0) # 11f0 <.LBB28_3+0x72c>
     26c:	08054513          	xori	a0,a0,128
     270:	10a58823          	sb	a0,272(a1)
     274:	00001537          	lui	a0,0x1
     278:	00a10533          	add	a0,sp,a0
     27c:	1e853503          	ld	a0,488(a0) # 11e8 <.LBB28_3+0x724>
     280:	08054513          	xori	a0,a0,128
     284:	10a588a3          	sb	a0,273(a1)
     288:	00001537          	lui	a0,0x1
     28c:	00a10533          	add	a0,sp,a0
     290:	0f853503          	ld	a0,248(a0) # 10f8 <.LBB28_3+0x634>
     294:	08054513          	xori	a0,a0,128
     298:	10a58923          	sb	a0,274(a1)
     29c:	00001537          	lui	a0,0x1
     2a0:	00a10533          	add	a0,sp,a0
     2a4:	0b853503          	ld	a0,184(a0) # 10b8 <.LBB28_3+0x5f4>
     2a8:	08054513          	xori	a0,a0,128
     2ac:	10a589a3          	sb	a0,275(a1)
     2b0:	00001537          	lui	a0,0x1
     2b4:	00a10533          	add	a0,sp,a0
     2b8:	07853503          	ld	a0,120(a0) # 1078 <.LBB28_3+0x5b4>
     2bc:	08054513          	xori	a0,a0,128
     2c0:	10a58a23          	sb	a0,276(a1)
     2c4:	00001537          	lui	a0,0x1
     2c8:	00a10533          	add	a0,sp,a0
     2cc:	03053503          	ld	a0,48(a0) # 1030 <.LBB28_3+0x56c>
     2d0:	08054513          	xori	a0,a0,128
     2d4:	10a58aa3          	sb	a0,277(a1)
     2d8:	00001537          	lui	a0,0x1
     2dc:	00a10533          	add	a0,sp,a0
     2e0:	ff053503          	ld	a0,-16(a0) # ff0 <.LBB28_3+0x52c>
     2e4:	08054513          	xori	a0,a0,128
     2e8:	10a58b23          	sb	a0,278(a1)
     2ec:	00001537          	lui	a0,0x1
     2f0:	00a10533          	add	a0,sp,a0
     2f4:	fb053503          	ld	a0,-80(a0) # fb0 <.LBB28_3+0x4ec>
     2f8:	08054513          	xori	a0,a0,128
     2fc:	10a58ba3          	sb	a0,279(a1)
     300:	00001537          	lui	a0,0x1
     304:	00a10533          	add	a0,sp,a0
     308:	f6853503          	ld	a0,-152(a0) # f68 <.LBB28_3+0x4a4>
     30c:	08054513          	xori	a0,a0,128
     310:	10a58c23          	sb	a0,280(a1)
     314:	00001537          	lui	a0,0x1
     318:	00a10533          	add	a0,sp,a0
     31c:	f2053503          	ld	a0,-224(a0) # f20 <.LBB28_3+0x45c>
     320:	08054513          	xori	a0,a0,128
     324:	10a58ca3          	sb	a0,281(a1)
     328:	00001537          	lui	a0,0x1
     32c:	00a10533          	add	a0,sp,a0
     330:	ee053503          	ld	a0,-288(a0) # ee0 <.LBB28_3+0x41c>
     334:	08054513          	xori	a0,a0,128
     338:	10a58d23          	sb	a0,282(a1)
     33c:	00001537          	lui	a0,0x1
     340:	00a10533          	add	a0,sp,a0
     344:	ea053503          	ld	a0,-352(a0) # ea0 <.LBB28_3+0x3dc>
     348:	08054513          	xori	a0,a0,128
     34c:	10a58da3          	sb	a0,283(a1)
     350:	00001537          	lui	a0,0x1
     354:	00a10533          	add	a0,sp,a0
     358:	e5853503          	ld	a0,-424(a0) # e58 <.LBB28_3+0x394>
     35c:	08054513          	xori	a0,a0,128
     360:	10a58e23          	sb	a0,284(a1)
     364:	00001537          	lui	a0,0x1
     368:	00a10533          	add	a0,sp,a0
     36c:	e1053503          	ld	a0,-496(a0) # e10 <.LBB28_3+0x34c>
     370:	08054513          	xori	a0,a0,128
     374:	10a58ea3          	sb	a0,285(a1)
     378:	00001537          	lui	a0,0x1
     37c:	00a10533          	add	a0,sp,a0
     380:	dd053503          	ld	a0,-560(a0) # dd0 <.LBB28_3+0x30c>
     384:	08054513          	xori	a0,a0,128
     388:	10a58f23          	sb	a0,286(a1)
     38c:	00001537          	lui	a0,0x1
     390:	00a10533          	add	a0,sp,a0
     394:	d9053503          	ld	a0,-624(a0) # d90 <.LBB28_3+0x2cc>
     398:	08054513          	xori	a0,a0,128
     39c:	10a58fa3          	sb	a0,287(a1)
     3a0:	00001537          	lui	a0,0x1
     3a4:	00a10533          	add	a0,sp,a0
     3a8:	d4853503          	ld	a0,-696(a0) # d48 <.LBB28_3+0x284>
     3ac:	08054513          	xori	a0,a0,128
     3b0:	1aa58023          	sb	a0,416(a1)
     3b4:	00001537          	lui	a0,0x1
     3b8:	00a10533          	add	a0,sp,a0
     3bc:	d0053503          	ld	a0,-768(a0) # d00 <.LBB28_3+0x23c>
     3c0:	08054513          	xori	a0,a0,128
     3c4:	1aa580a3          	sb	a0,417(a1)
     3c8:	00001537          	lui	a0,0x1
     3cc:	00a10533          	add	a0,sp,a0
     3d0:	cc053503          	ld	a0,-832(a0) # cc0 <.LBB28_3+0x1fc>
     3d4:	08054513          	xori	a0,a0,128
     3d8:	1aa58123          	sb	a0,418(a1)
     3dc:	00001537          	lui	a0,0x1
     3e0:	00a10533          	add	a0,sp,a0
     3e4:	c8053503          	ld	a0,-896(a0) # c80 <.LBB28_3+0x1bc>
     3e8:	08054513          	xori	a0,a0,128
     3ec:	1aa581a3          	sb	a0,419(a1)
     3f0:	00001537          	lui	a0,0x1
     3f4:	00a10533          	add	a0,sp,a0
     3f8:	c5853503          	ld	a0,-936(a0) # c58 <.LBB28_3+0x194>
     3fc:	08054513          	xori	a0,a0,128
     400:	1aa58223          	sb	a0,420(a1)
     404:	00001537          	lui	a0,0x1
     408:	00a10533          	add	a0,sp,a0
     40c:	c6853503          	ld	a0,-920(a0) # c68 <.LBB28_3+0x1a4>
     410:	08054513          	xori	a0,a0,128
     414:	1aa582a3          	sb	a0,421(a1)
     418:	00001537          	lui	a0,0x1
     41c:	00a10533          	add	a0,sp,a0
     420:	c7853503          	ld	a0,-904(a0) # c78 <.LBB28_3+0x1b4>
     424:	08054513          	xori	a0,a0,128
     428:	1aa58323          	sb	a0,422(a1)
     42c:	00001537          	lui	a0,0x1
     430:	00a10533          	add	a0,sp,a0
     434:	c9053503          	ld	a0,-880(a0) # c90 <.LBB28_3+0x1cc>
     438:	08054513          	xori	a0,a0,128
     43c:	1aa583a3          	sb	a0,423(a1)
     440:	00001537          	lui	a0,0x1
     444:	00a10533          	add	a0,sp,a0
     448:	ca053503          	ld	a0,-864(a0) # ca0 <.LBB28_3+0x1dc>
     44c:	08054513          	xori	a0,a0,128
     450:	1aa58423          	sb	a0,424(a1)
     454:	00001537          	lui	a0,0x1
     458:	00a10533          	add	a0,sp,a0
     45c:	cb053503          	ld	a0,-848(a0) # cb0 <.LBB28_3+0x1ec>
     460:	08054513          	xori	a0,a0,128
     464:	1aa584a3          	sb	a0,425(a1)
     468:	00001537          	lui	a0,0x1
     46c:	00a10533          	add	a0,sp,a0
     470:	cc853503          	ld	a0,-824(a0) # cc8 <.LBB28_3+0x204>
     474:	08054513          	xori	a0,a0,128
     478:	1aa58523          	sb	a0,426(a1)
     47c:	00001537          	lui	a0,0x1
     480:	00a10533          	add	a0,sp,a0
     484:	cd853503          	ld	a0,-808(a0) # cd8 <.LBB28_3+0x214>
     488:	08054513          	xori	a0,a0,128
     48c:	1aa585a3          	sb	a0,427(a1)
     490:	00001537          	lui	a0,0x1
     494:	00a10533          	add	a0,sp,a0
     498:	ce853503          	ld	a0,-792(a0) # ce8 <.LBB28_3+0x224>
     49c:	08054513          	xori	a0,a0,128
     4a0:	1aa58623          	sb	a0,428(a1)
     4a4:	00001537          	lui	a0,0x1
     4a8:	00a10533          	add	a0,sp,a0
     4ac:	cf853503          	ld	a0,-776(a0) # cf8 <.LBB28_3+0x234>
     4b0:	08054513          	xori	a0,a0,128
     4b4:	1aa586a3          	sb	a0,429(a1)
     4b8:	00001537          	lui	a0,0x1
     4bc:	00a10533          	add	a0,sp,a0
     4c0:	d1053503          	ld	a0,-752(a0) # d10 <.LBB28_3+0x24c>
     4c4:	08054513          	xori	a0,a0,128
     4c8:	1aa58723          	sb	a0,430(a1)
     4cc:	00001537          	lui	a0,0x1
     4d0:	00a10533          	add	a0,sp,a0
     4d4:	d2053503          	ld	a0,-736(a0) # d20 <.LBB28_3+0x25c>
     4d8:	08054513          	xori	a0,a0,128
     4dc:	1aa587a3          	sb	a0,431(a1)
     4e0:	00001537          	lui	a0,0x1
     4e4:	00a10533          	add	a0,sp,a0
     4e8:	d3053503          	ld	a0,-720(a0) # d30 <.LBB28_3+0x26c>
     4ec:	08054513          	xori	a0,a0,128
     4f0:	22a58823          	sb	a0,560(a1)
     4f4:	00001537          	lui	a0,0x1
     4f8:	00a10533          	add	a0,sp,a0
     4fc:	d4053503          	ld	a0,-704(a0) # d40 <.LBB28_3+0x27c>
     500:	08054513          	xori	a0,a0,128
     504:	22a588a3          	sb	a0,561(a1)
     508:	00001537          	lui	a0,0x1
     50c:	00a10533          	add	a0,sp,a0
     510:	d5853503          	ld	a0,-680(a0) # d58 <.LBB28_3+0x294>
     514:	08054513          	xori	a0,a0,128
     518:	22a58923          	sb	a0,562(a1)
     51c:	00001537          	lui	a0,0x1
     520:	00a10533          	add	a0,sp,a0
     524:	d6853503          	ld	a0,-664(a0) # d68 <.LBB28_3+0x2a4>
     528:	08054513          	xori	a0,a0,128
     52c:	22a589a3          	sb	a0,563(a1)
     530:	00001537          	lui	a0,0x1
     534:	00a10533          	add	a0,sp,a0
     538:	d7853503          	ld	a0,-648(a0) # d78 <.LBB28_3+0x2b4>
     53c:	08054513          	xori	a0,a0,128
     540:	22a58a23          	sb	a0,564(a1)
     544:	00001537          	lui	a0,0x1
     548:	00a10533          	add	a0,sp,a0
     54c:	d8853503          	ld	a0,-632(a0) # d88 <.LBB28_3+0x2c4>
     550:	08054513          	xori	a0,a0,128
     554:	22a58aa3          	sb	a0,565(a1)
     558:	00001537          	lui	a0,0x1
     55c:	00a10533          	add	a0,sp,a0
     560:	da053503          	ld	a0,-608(a0) # da0 <.LBB28_3+0x2dc>
     564:	08054513          	xori	a0,a0,128
     568:	22a58b23          	sb	a0,566(a1)
     56c:	00001537          	lui	a0,0x1
     570:	00a10533          	add	a0,sp,a0
     574:	db053503          	ld	a0,-592(a0) # db0 <.LBB28_3+0x2ec>
     578:	08054513          	xori	a0,a0,128
     57c:	22a58ba3          	sb	a0,567(a1)
     580:	00001537          	lui	a0,0x1
     584:	00a10533          	add	a0,sp,a0
     588:	dc053503          	ld	a0,-576(a0) # dc0 <.LBB28_3+0x2fc>
     58c:	08054513          	xori	a0,a0,128
     590:	22a58c23          	sb	a0,568(a1)
     594:	00001537          	lui	a0,0x1
     598:	00a10533          	add	a0,sp,a0
     59c:	dd853503          	ld	a0,-552(a0) # dd8 <.LBB28_3+0x314>
     5a0:	08054513          	xori	a0,a0,128
     5a4:	22a58ca3          	sb	a0,569(a1)
     5a8:	00001537          	lui	a0,0x1
     5ac:	00a10533          	add	a0,sp,a0
     5b0:	de853503          	ld	a0,-536(a0) # de8 <.LBB28_3+0x324>
     5b4:	08054513          	xori	a0,a0,128
     5b8:	22a58d23          	sb	a0,570(a1)
     5bc:	00001537          	lui	a0,0x1
     5c0:	00a10533          	add	a0,sp,a0
     5c4:	df853503          	ld	a0,-520(a0) # df8 <.LBB28_3+0x334>
     5c8:	08054513          	xori	a0,a0,128
     5cc:	22a58da3          	sb	a0,571(a1)
     5d0:	00001537          	lui	a0,0x1
     5d4:	00a10533          	add	a0,sp,a0
     5d8:	e0853503          	ld	a0,-504(a0) # e08 <.LBB28_3+0x344>
     5dc:	08054513          	xori	a0,a0,128
     5e0:	22a58e23          	sb	a0,572(a1)
     5e4:	00001537          	lui	a0,0x1
     5e8:	00a10533          	add	a0,sp,a0
     5ec:	e2053503          	ld	a0,-480(a0) # e20 <.LBB28_3+0x35c>
     5f0:	08054513          	xori	a0,a0,128
     5f4:	22a58ea3          	sb	a0,573(a1)
     5f8:	00001537          	lui	a0,0x1
     5fc:	00a10533          	add	a0,sp,a0
     600:	e3053503          	ld	a0,-464(a0) # e30 <.LBB28_3+0x36c>
     604:	08054513          	xori	a0,a0,128
     608:	22a58f23          	sb	a0,574(a1)
     60c:	00001537          	lui	a0,0x1
     610:	00a10533          	add	a0,sp,a0
     614:	e4053503          	ld	a0,-448(a0) # e40 <.LBB28_3+0x37c>
     618:	08054513          	xori	a0,a0,128
     61c:	22a58fa3          	sb	a0,575(a1)
     620:	00001537          	lui	a0,0x1
     624:	00a10533          	add	a0,sp,a0
     628:	e5053503          	ld	a0,-432(a0) # e50 <.LBB28_3+0x38c>
     62c:	08054513          	xori	a0,a0,128
     630:	2ca58023          	sb	a0,704(a1)
     634:	00001537          	lui	a0,0x1
     638:	00a10533          	add	a0,sp,a0
     63c:	e6853503          	ld	a0,-408(a0) # e68 <.LBB28_3+0x3a4>
     640:	08054513          	xori	a0,a0,128
     644:	2ca580a3          	sb	a0,705(a1)
     648:	00001537          	lui	a0,0x1
     64c:	00a10533          	add	a0,sp,a0
     650:	e7853503          	ld	a0,-392(a0) # e78 <.LBB28_3+0x3b4>
     654:	08054513          	xori	a0,a0,128
     658:	2ca58123          	sb	a0,706(a1)
     65c:	00001537          	lui	a0,0x1
     660:	00a10533          	add	a0,sp,a0
     664:	e8853503          	ld	a0,-376(a0) # e88 <.LBB28_3+0x3c4>
     668:	08054513          	xori	a0,a0,128
     66c:	2ca581a3          	sb	a0,707(a1)
     670:	00001537          	lui	a0,0x1
     674:	00a10533          	add	a0,sp,a0
     678:	e9853503          	ld	a0,-360(a0) # e98 <.LBB28_3+0x3d4>
     67c:	08054513          	xori	a0,a0,128
     680:	2ca58223          	sb	a0,708(a1)
     684:	00001537          	lui	a0,0x1
     688:	00a10533          	add	a0,sp,a0
     68c:	eb053503          	ld	a0,-336(a0) # eb0 <.LBB28_3+0x3ec>
     690:	08054513          	xori	a0,a0,128
     694:	2ca582a3          	sb	a0,709(a1)
     698:	00001537          	lui	a0,0x1
     69c:	00a10533          	add	a0,sp,a0
     6a0:	ec053503          	ld	a0,-320(a0) # ec0 <.LBB28_3+0x3fc>
     6a4:	08054513          	xori	a0,a0,128
     6a8:	2ca58323          	sb	a0,710(a1)
     6ac:	00001537          	lui	a0,0x1
     6b0:	00a10533          	add	a0,sp,a0
     6b4:	ed053503          	ld	a0,-304(a0) # ed0 <.LBB28_3+0x40c>
     6b8:	08054513          	xori	a0,a0,128
     6bc:	2ca583a3          	sb	a0,711(a1)
     6c0:	00001537          	lui	a0,0x1
     6c4:	00a10533          	add	a0,sp,a0
     6c8:	ee853503          	ld	a0,-280(a0) # ee8 <.LBB28_3+0x424>
     6cc:	08054513          	xori	a0,a0,128
     6d0:	2ca58423          	sb	a0,712(a1)
     6d4:	00001537          	lui	a0,0x1
     6d8:	00a10533          	add	a0,sp,a0
     6dc:	ef853503          	ld	a0,-264(a0) # ef8 <.LBB28_3+0x434>
     6e0:	08054513          	xori	a0,a0,128
     6e4:	2ca584a3          	sb	a0,713(a1)
     6e8:	00001537          	lui	a0,0x1
     6ec:	00a10533          	add	a0,sp,a0
     6f0:	f0853503          	ld	a0,-248(a0) # f08 <.LBB28_3+0x444>
     6f4:	08054513          	xori	a0,a0,128
     6f8:	2ca58523          	sb	a0,714(a1)
     6fc:	00001537          	lui	a0,0x1
     700:	00a10533          	add	a0,sp,a0
     704:	f1853503          	ld	a0,-232(a0) # f18 <.LBB28_3+0x454>
     708:	08054513          	xori	a0,a0,128
     70c:	2ca585a3          	sb	a0,715(a1)
     710:	00001537          	lui	a0,0x1
     714:	00a10533          	add	a0,sp,a0
     718:	f3053503          	ld	a0,-208(a0) # f30 <.LBB28_3+0x46c>
     71c:	08054513          	xori	a0,a0,128
     720:	2ca58623          	sb	a0,716(a1)
     724:	00001537          	lui	a0,0x1
     728:	00a10533          	add	a0,sp,a0
     72c:	f4053503          	ld	a0,-192(a0) # f40 <.LBB28_3+0x47c>
     730:	08054513          	xori	a0,a0,128
     734:	2ca586a3          	sb	a0,717(a1)
     738:	00001537          	lui	a0,0x1
     73c:	00a10533          	add	a0,sp,a0
     740:	f5053503          	ld	a0,-176(a0) # f50 <.LBB28_3+0x48c>
     744:	08054513          	xori	a0,a0,128
     748:	2ca58723          	sb	a0,718(a1)
     74c:	00001537          	lui	a0,0x1
     750:	00a10533          	add	a0,sp,a0
     754:	f6053503          	ld	a0,-160(a0) # f60 <.LBB28_3+0x49c>
     758:	08054513          	xori	a0,a0,128
     75c:	2ca587a3          	sb	a0,719(a1)
     760:	00001537          	lui	a0,0x1
     764:	00a10533          	add	a0,sp,a0
     768:	f7853503          	ld	a0,-136(a0) # f78 <.LBB28_3+0x4b4>
     76c:	08054513          	xori	a0,a0,128
     770:	34a58823          	sb	a0,848(a1)
     774:	00001537          	lui	a0,0x1
     778:	00a10533          	add	a0,sp,a0
     77c:	f8853503          	ld	a0,-120(a0) # f88 <.LBB28_3+0x4c4>
     780:	08054513          	xori	a0,a0,128
     784:	34a588a3          	sb	a0,849(a1)
     788:	00001537          	lui	a0,0x1
     78c:	00a10533          	add	a0,sp,a0
     790:	f9853503          	ld	a0,-104(a0) # f98 <.LBB28_3+0x4d4>
     794:	08054513          	xori	a0,a0,128
     798:	34a58923          	sb	a0,850(a1)
     79c:	00001537          	lui	a0,0x1
     7a0:	00a10533          	add	a0,sp,a0
     7a4:	fa853503          	ld	a0,-88(a0) # fa8 <.LBB28_3+0x4e4>
     7a8:	08054513          	xori	a0,a0,128
     7ac:	34a589a3          	sb	a0,851(a1)
     7b0:	00001537          	lui	a0,0x1
     7b4:	00a10533          	add	a0,sp,a0
     7b8:	fc053503          	ld	a0,-64(a0) # fc0 <.LBB28_3+0x4fc>
     7bc:	08054513          	xori	a0,a0,128
     7c0:	34a58a23          	sb	a0,852(a1)
     7c4:	00001537          	lui	a0,0x1
     7c8:	00a10533          	add	a0,sp,a0
     7cc:	fd053503          	ld	a0,-48(a0) # fd0 <.LBB28_3+0x50c>
     7d0:	08054513          	xori	a0,a0,128
     7d4:	34a58aa3          	sb	a0,853(a1)
     7d8:	00001537          	lui	a0,0x1
     7dc:	00a10533          	add	a0,sp,a0
     7e0:	fe053503          	ld	a0,-32(a0) # fe0 <.LBB28_3+0x51c>
     7e4:	08054513          	xori	a0,a0,128
     7e8:	34a58b23          	sb	a0,854(a1)
     7ec:	00001537          	lui	a0,0x1
     7f0:	00a10533          	add	a0,sp,a0
     7f4:	ff853503          	ld	a0,-8(a0) # ff8 <.LBB28_3+0x534>
     7f8:	08054513          	xori	a0,a0,128
     7fc:	34a58ba3          	sb	a0,855(a1)
     800:	00001537          	lui	a0,0x1
     804:	00a10533          	add	a0,sp,a0
     808:	00853503          	ld	a0,8(a0) # 1008 <.LBB28_3+0x544>
     80c:	08054513          	xori	a0,a0,128
     810:	34a58c23          	sb	a0,856(a1)
     814:	00001537          	lui	a0,0x1
     818:	00a10533          	add	a0,sp,a0
     81c:	01853503          	ld	a0,24(a0) # 1018 <.LBB28_3+0x554>
     820:	08054513          	xori	a0,a0,128
     824:	34a58ca3          	sb	a0,857(a1)
     828:	00001537          	lui	a0,0x1
     82c:	00a10533          	add	a0,sp,a0
     830:	02853503          	ld	a0,40(a0) # 1028 <.LBB28_3+0x564>
     834:	08054513          	xori	a0,a0,128
     838:	34a58d23          	sb	a0,858(a1)
     83c:	00001537          	lui	a0,0x1
     840:	00a10533          	add	a0,sp,a0
     844:	04053503          	ld	a0,64(a0) # 1040 <.LBB28_3+0x57c>
     848:	08054513          	xori	a0,a0,128
     84c:	34a58da3          	sb	a0,859(a1)
     850:	00001537          	lui	a0,0x1
     854:	00a10533          	add	a0,sp,a0
     858:	05053503          	ld	a0,80(a0) # 1050 <.LBB28_3+0x58c>
     85c:	08054513          	xori	a0,a0,128
     860:	34a58e23          	sb	a0,860(a1)
     864:	00001537          	lui	a0,0x1
     868:	00a10533          	add	a0,sp,a0
     86c:	06053503          	ld	a0,96(a0) # 1060 <.LBB28_3+0x59c>
     870:	08054513          	xori	a0,a0,128
     874:	34a58ea3          	sb	a0,861(a1)
     878:	00001537          	lui	a0,0x1
     87c:	00a10533          	add	a0,sp,a0
     880:	07053503          	ld	a0,112(a0) # 1070 <.LBB28_3+0x5ac>
     884:	08054513          	xori	a0,a0,128
     888:	34a58f23          	sb	a0,862(a1)
     88c:	00001537          	lui	a0,0x1
     890:	00a10533          	add	a0,sp,a0
     894:	08053503          	ld	a0,128(a0) # 1080 <.LBB28_3+0x5bc>
     898:	08054513          	xori	a0,a0,128
     89c:	34a58fa3          	sb	a0,863(a1)
     8a0:	00001537          	lui	a0,0x1
     8a4:	00a10533          	add	a0,sp,a0
     8a8:	09053503          	ld	a0,144(a0) # 1090 <.LBB28_3+0x5cc>
     8ac:	08054513          	xori	a0,a0,128
     8b0:	3ea58023          	sb	a0,992(a1)
     8b4:	00001537          	lui	a0,0x1
     8b8:	00a10533          	add	a0,sp,a0
     8bc:	0a053503          	ld	a0,160(a0) # 10a0 <.LBB28_3+0x5dc>
     8c0:	08054513          	xori	a0,a0,128
     8c4:	3ea580a3          	sb	a0,993(a1)
     8c8:	00001537          	lui	a0,0x1
     8cc:	00a10533          	add	a0,sp,a0
     8d0:	0b053503          	ld	a0,176(a0) # 10b0 <.LBB28_3+0x5ec>
     8d4:	08054513          	xori	a0,a0,128
     8d8:	3ea58123          	sb	a0,994(a1)
     8dc:	00001537          	lui	a0,0x1
     8e0:	00a10533          	add	a0,sp,a0
     8e4:	0c853503          	ld	a0,200(a0) # 10c8 <.LBB28_3+0x604>
     8e8:	08054513          	xori	a0,a0,128
     8ec:	3ea581a3          	sb	a0,995(a1)
     8f0:	00001537          	lui	a0,0x1
     8f4:	00a10533          	add	a0,sp,a0
     8f8:	0d853503          	ld	a0,216(a0) # 10d8 <.LBB28_3+0x614>
     8fc:	08054513          	xori	a0,a0,128
     900:	3ea58223          	sb	a0,996(a1)
     904:	00001537          	lui	a0,0x1
     908:	00a10533          	add	a0,sp,a0
     90c:	0e853503          	ld	a0,232(a0) # 10e8 <.LBB28_3+0x624>
     910:	08054513          	xori	a0,a0,128
     914:	3ea582a3          	sb	a0,997(a1)
     918:	00001537          	lui	a0,0x1
     91c:	00a10533          	add	a0,sp,a0
     920:	10053503          	ld	a0,256(a0) # 1100 <.LBB28_3+0x63c>
     924:	08054513          	xori	a0,a0,128
     928:	3ea58323          	sb	a0,998(a1)
     92c:	00001537          	lui	a0,0x1
     930:	00a10533          	add	a0,sp,a0
     934:	18853503          	ld	a0,392(a0) # 1188 <.LBB28_3+0x6c4>
     938:	08054513          	xori	a0,a0,128
     93c:	3ea583a3          	sb	a0,999(a1)
     940:	08064513          	xori	a0,a2,128
     944:	3ea58423          	sb	a0,1000(a1)
     948:	0806c513          	xori	a0,a3,128
     94c:	3ea584a3          	sb	a0,1001(a1)
     950:	08074513          	xori	a0,a4,128
     954:	3ea58523          	sb	a0,1002(a1)
     958:	0807c513          	xori	a0,a5,128
     95c:	3ea585a3          	sb	a0,1003(a1)
     960:	08084513          	xori	a0,a6,128
     964:	3ea58623          	sb	a0,1004(a1)
     968:	0808c513          	xori	a0,a7,128
     96c:	3ea586a3          	sb	a0,1005(a1)
     970:	0802c513          	xori	a0,t0,128
     974:	3ea58723          	sb	a0,1006(a1)
     978:	08034513          	xori	a0,t1,128
     97c:	3ea587a3          	sb	a0,1007(a1)
     980:	0803c513          	xori	a0,t2,128
     984:	46a58823          	sb	a0,1136(a1)
     988:	080ec513          	xori	a0,t4,128
     98c:	46a588a3          	sb	a0,1137(a1)
     990:	080ac513          	xori	a0,s5,128
     994:	46a58923          	sb	a0,1138(a1)
     998:	080bc513          	xori	a0,s7,128
     99c:	46a589a3          	sb	a0,1139(a1)
     9a0:	080b4513          	xori	a0,s6,128
     9a4:	46a58a23          	sb	a0,1140(a1)
     9a8:	080cc513          	xori	a0,s9,128
     9ac:	46a58aa3          	sb	a0,1141(a1)
     9b0:	080dc513          	xori	a0,s11,128
     9b4:	46a58b23          	sb	a0,1142(a1)
     9b8:	0804c513          	xori	a0,s1,128
     9bc:	46a58ba3          	sb	a0,1143(a1)
     9c0:	080e4513          	xori	a0,t3,128
     9c4:	46a58c23          	sb	a0,1144(a1)
     9c8:	080f4513          	xori	a0,t5,128
     9cc:	46a58ca3          	sb	a0,1145(a1)
     9d0:	080fc513          	xori	a0,t6,128
     9d4:	46a58d23          	sb	a0,1146(a1)
     9d8:	08094513          	xori	a0,s2,128
     9dc:	46a58da3          	sb	a0,1147(a1)
     9e0:	080d4513          	xori	a0,s10,128
     9e4:	46a58e23          	sb	a0,1148(a1)
     9e8:	080c4513          	xori	a0,s8,128
     9ec:	46a58ea3          	sb	a0,1149(a1)
     9f0:	0800c513          	xori	a0,ra,128
     9f4:	46a58f23          	sb	a0,1150(a1)
     9f8:	080a4513          	xori	a0,s4,128
     9fc:	46a58fa3          	sb	a0,1151(a1)
     a00:	06813583          	ld	a1,104(sp)
     a04:	0035d513          	srli	a0,a1,0x3
     a08:	00858893          	addi	a7,a1,8
     a0c:	0c813603          	ld	a2,200(sp)
     a10:	0c060613          	addi	a2,a2,192
     a14:	0cc13423          	sd	a2,200(sp)
     a18:	07013803          	ld	a6,112(sp)
     a1c:	00180813          	addi	a6,a6,1
     a20:	18700593          	li	a1,391
     a24:	00b56463          	bltu	a0,a1,a2c <.LBB28_2>
     a28:	2d01606f          	j	16cf8 <.LBB28_1544>

0000000000000a2c <.LBB28_2>:
     a2c:	00000513          	li	a0,0
     a30:	07013823          	sd	a6,112(sp)
     a34:	0c000593          	li	a1,192
     a38:	02b805b3          	mul	a1,a6,a1
     a3c:	05813603          	ld	a2,88(sp)
     a40:	00c585b3          	add	a1,a1,a2
     a44:	06013603          	ld	a2,96(sp)
     a48:	00b606b3          	add	a3,a2,a1
     a4c:	00289593          	slli	a1,a7,0x2
     a50:	00b605b3          	add	a1,a2,a1
     a54:	00001637          	lui	a2,0x1
     a58:	00c10633          	add	a2,sp,a2
     a5c:	9cb63423          	sd	a1,-1592(a2) # 9c8 <.LBB28_1+0x8ac>
     a60:	07113423          	sd	a7,104(sp)
     a64:	09000593          	li	a1,144
     a68:	02b885b3          	mul	a1,a7,a1
     a6c:	04813603          	ld	a2,72(sp)
     a70:	00b605b3          	add	a1,a2,a1
     a74:	09058613          	addi	a2,a1,144
     a78:	0ac13c23          	sd	a2,184(sp)
     a7c:	12058613          	addi	a2,a1,288
     a80:	0ac13823          	sd	a2,176(sp)
     a84:	1b058613          	addi	a2,a1,432
     a88:	0ac13423          	sd	a2,168(sp)
     a8c:	24058613          	addi	a2,a1,576
     a90:	0ac13023          	sd	a2,160(sp)
     a94:	2d058613          	addi	a2,a1,720
     a98:	08c13c23          	sd	a2,152(sp)
     a9c:	36058613          	addi	a2,a1,864
     aa0:	08c13823          	sd	a2,144(sp)
     aa4:	0cb13023          	sd	a1,192(sp)
     aa8:	3f058593          	addi	a1,a1,1008
     aac:	08b13423          	sd	a1,136(sp)
     ab0:	05013083          	ld	ra,80(sp)
     ab4:	000015b7          	lui	a1,0x1
     ab8:	00b105b3          	add	a1,sp,a1
     abc:	9ed5b423          	sd	a3,-1560(a1) # 9e8 <.LBB28_1+0x8cc>
     ac0:	2580106f          	j	1d18 <.LBB28_4>

0000000000000ac4 <.LBB28_3>:
     ac4:	080d4c93          	xori	s9,s10,128
     ac8:	0c013c03          	ld	s8,192(sp)
     acc:	00001d37          	lui	s10,0x1
     ad0:	01a10d33          	add	s10,sp,s10
     ad4:	9d8d3d03          	ld	s10,-1576(s10) # 9d8 <.LBB28_1+0x8bc>
     ad8:	01ac0c33          	add	s8,s8,s10
     adc:	019c0223          	sb	s9,4(s8)
     ae0:	00001cb7          	lui	s9,0x1
     ae4:	01910cb3          	add	s9,sp,s9
     ae8:	2f8cbc83          	ld	s9,760(s9) # 12f8 <.LBB28_3+0x834>
     aec:	080ccc93          	xori	s9,s9,128
     af0:	019c01a3          	sb	s9,3(s8)
     af4:	00001cb7          	lui	s9,0x1
     af8:	01910cb3          	add	s9,sp,s9
     afc:	2f0cbc83          	ld	s9,752(s9) # 12f0 <.LBB28_3+0x82c>
     b00:	080ccc93          	xori	s9,s9,128
     b04:	019c0123          	sb	s9,2(s8)
     b08:	00001cb7          	lui	s9,0x1
     b0c:	01910cb3          	add	s9,sp,s9
     b10:	2e8cbc83          	ld	s9,744(s9) # 12e8 <.LBB28_3+0x824>
     b14:	080ccc93          	xori	s9,s9,128
     b18:	019c00a3          	sb	s9,1(s8)
     b1c:	00001cb7          	lui	s9,0x1
     b20:	01910cb3          	add	s9,sp,s9
     b24:	2e0cbc83          	ld	s9,736(s9) # 12e0 <.LBB28_3+0x81c>
     b28:	080ccc93          	xori	s9,s9,128
     b2c:	019c0023          	sb	s9,0(s8)
     b30:	00001cb7          	lui	s9,0x1
     b34:	01910cb3          	add	s9,sp,s9
     b38:	2d8cbc83          	ld	s9,728(s9) # 12d8 <.LBB28_3+0x814>
     b3c:	080ccc93          	xori	s9,s9,128
     b40:	019c02a3          	sb	s9,5(s8)
     b44:	00001cb7          	lui	s9,0x1
     b48:	01910cb3          	add	s9,sp,s9
     b4c:	2d0cbc83          	ld	s9,720(s9) # 12d0 <.LBB28_3+0x80c>
     b50:	080ccc93          	xori	s9,s9,128
     b54:	019c0323          	sb	s9,6(s8)
     b58:	00001cb7          	lui	s9,0x1
     b5c:	01910cb3          	add	s9,sp,s9
     b60:	2c8cbc83          	ld	s9,712(s9) # 12c8 <.LBB28_3+0x804>
     b64:	080ccc93          	xori	s9,s9,128
     b68:	019c03a3          	sb	s9,7(s8)
     b6c:	00001cb7          	lui	s9,0x1
     b70:	01910cb3          	add	s9,sp,s9
     b74:	2c0cbc83          	ld	s9,704(s9) # 12c0 <.LBB28_3+0x7fc>
     b78:	080ccc93          	xori	s9,s9,128
     b7c:	019c0423          	sb	s9,8(s8)
     b80:	00001cb7          	lui	s9,0x1
     b84:	01910cb3          	add	s9,sp,s9
     b88:	2b8cbc83          	ld	s9,696(s9) # 12b8 <.LBB28_3+0x7f4>
     b8c:	080ccc93          	xori	s9,s9,128
     b90:	019c04a3          	sb	s9,9(s8)
     b94:	00001cb7          	lui	s9,0x1
     b98:	01910cb3          	add	s9,sp,s9
     b9c:	2b0cbc83          	ld	s9,688(s9) # 12b0 <.LBB28_3+0x7ec>
     ba0:	080ccc93          	xori	s9,s9,128
     ba4:	019c0523          	sb	s9,10(s8)
     ba8:	00001cb7          	lui	s9,0x1
     bac:	01910cb3          	add	s9,sp,s9
     bb0:	2a8cbc83          	ld	s9,680(s9) # 12a8 <.LBB28_3+0x7e4>
     bb4:	080ccc93          	xori	s9,s9,128
     bb8:	019c05a3          	sb	s9,11(s8)
     bbc:	00001cb7          	lui	s9,0x1
     bc0:	01910cb3          	add	s9,sp,s9
     bc4:	2a0cbc83          	ld	s9,672(s9) # 12a0 <.LBB28_3+0x7dc>
     bc8:	080ccc93          	xori	s9,s9,128
     bcc:	019c0623          	sb	s9,12(s8)
     bd0:	00001cb7          	lui	s9,0x1
     bd4:	01910cb3          	add	s9,sp,s9
     bd8:	298cbc83          	ld	s9,664(s9) # 1298 <.LBB28_3+0x7d4>
     bdc:	080ccc93          	xori	s9,s9,128
     be0:	019c06a3          	sb	s9,13(s8)
     be4:	00001cb7          	lui	s9,0x1
     be8:	01910cb3          	add	s9,sp,s9
     bec:	290cbc83          	ld	s9,656(s9) # 1290 <.LBB28_3+0x7cc>
     bf0:	080ccc93          	xori	s9,s9,128
     bf4:	019c0723          	sb	s9,14(s8)
     bf8:	00001cb7          	lui	s9,0x1
     bfc:	01910cb3          	add	s9,sp,s9
     c00:	288cbc83          	ld	s9,648(s9) # 1288 <.LBB28_3+0x7c4>
     c04:	080ccc93          	xori	s9,s9,128
     c08:	019c07a3          	sb	s9,15(s8)
     c0c:	00001cb7          	lui	s9,0x1
     c10:	01910cb3          	add	s9,sp,s9
     c14:	280cbc83          	ld	s9,640(s9) # 1280 <.LBB28_3+0x7bc>
     c18:	080ccc93          	xori	s9,s9,128
     c1c:	019c0823          	sb	s9,16(s8)
     c20:	00001cb7          	lui	s9,0x1
     c24:	01910cb3          	add	s9,sp,s9
     c28:	278cbc83          	ld	s9,632(s9) # 1278 <.LBB28_3+0x7b4>
     c2c:	080ccc93          	xori	s9,s9,128
     c30:	019c08a3          	sb	s9,17(s8)
     c34:	00001cb7          	lui	s9,0x1
     c38:	01910cb3          	add	s9,sp,s9
     c3c:	270cbc83          	ld	s9,624(s9) # 1270 <.LBB28_3+0x7ac>
     c40:	080ccc93          	xori	s9,s9,128
     c44:	019c0923          	sb	s9,18(s8)
     c48:	00001cb7          	lui	s9,0x1
     c4c:	01910cb3          	add	s9,sp,s9
     c50:	268cbc83          	ld	s9,616(s9) # 1268 <.LBB28_3+0x7a4>
     c54:	080ccc93          	xori	s9,s9,128
     c58:	019c09a3          	sb	s9,19(s8)
     c5c:	00001cb7          	lui	s9,0x1
     c60:	01910cb3          	add	s9,sp,s9
     c64:	260cbc83          	ld	s9,608(s9) # 1260 <.LBB28_3+0x79c>
     c68:	080ccc93          	xori	s9,s9,128
     c6c:	019c0a23          	sb	s9,20(s8)
     c70:	00001cb7          	lui	s9,0x1
     c74:	01910cb3          	add	s9,sp,s9
     c78:	250cbc83          	ld	s9,592(s9) # 1250 <.LBB28_3+0x78c>
     c7c:	080ccc93          	xori	s9,s9,128
     c80:	019c0aa3          	sb	s9,21(s8)
     c84:	00001cb7          	lui	s9,0x1
     c88:	01910cb3          	add	s9,sp,s9
     c8c:	248cbc83          	ld	s9,584(s9) # 1248 <.LBB28_3+0x784>
     c90:	080ccc93          	xori	s9,s9,128
     c94:	019c0b23          	sb	s9,22(s8)
     c98:	00001cb7          	lui	s9,0x1
     c9c:	01910cb3          	add	s9,sp,s9
     ca0:	240cbc83          	ld	s9,576(s9) # 1240 <.LBB28_3+0x77c>
     ca4:	080ccc93          	xori	s9,s9,128
     ca8:	019c0ba3          	sb	s9,23(s8)
     cac:	00001cb7          	lui	s9,0x1
     cb0:	01910cb3          	add	s9,sp,s9
     cb4:	218cbc83          	ld	s9,536(s9) # 1218 <.LBB28_3+0x754>
     cb8:	080ccc93          	xori	s9,s9,128
     cbc:	019c0c23          	sb	s9,24(s8)
     cc0:	00001cb7          	lui	s9,0x1
     cc4:	01910cb3          	add	s9,sp,s9
     cc8:	1e8cbc83          	ld	s9,488(s9) # 11e8 <.LBB28_3+0x724>
     ccc:	080ccc93          	xori	s9,s9,128
     cd0:	019c0ca3          	sb	s9,25(s8)
     cd4:	00001cb7          	lui	s9,0x1
     cd8:	01910cb3          	add	s9,sp,s9
     cdc:	1c0cbc83          	ld	s9,448(s9) # 11c0 <.LBB28_3+0x6fc>
     ce0:	080ccc93          	xori	s9,s9,128
     ce4:	019c0d23          	sb	s9,26(s8)
     ce8:	00001cb7          	lui	s9,0x1
     cec:	01910cb3          	add	s9,sp,s9
     cf0:	1b8cbc83          	ld	s9,440(s9) # 11b8 <.LBB28_3+0x6f4>
     cf4:	080ccc93          	xori	s9,s9,128
     cf8:	019c0da3          	sb	s9,27(s8)
     cfc:	00001cb7          	lui	s9,0x1
     d00:	01910cb3          	add	s9,sp,s9
     d04:	1b0cbc83          	ld	s9,432(s9) # 11b0 <.LBB28_3+0x6ec>
     d08:	080ccc93          	xori	s9,s9,128
     d0c:	019c0e23          	sb	s9,28(s8)
     d10:	00001cb7          	lui	s9,0x1
     d14:	01910cb3          	add	s9,sp,s9
     d18:	1a8cbc83          	ld	s9,424(s9) # 11a8 <.LBB28_3+0x6e4>
     d1c:	080ccc93          	xori	s9,s9,128
     d20:	019c0ea3          	sb	s9,29(s8)
     d24:	00001cb7          	lui	s9,0x1
     d28:	01910cb3          	add	s9,sp,s9
     d2c:	1a0cbc83          	ld	s9,416(s9) # 11a0 <.LBB28_3+0x6dc>
     d30:	080ccc93          	xori	s9,s9,128
     d34:	019c0f23          	sb	s9,30(s8)
     d38:	00001cb7          	lui	s9,0x1
     d3c:	01910cb3          	add	s9,sp,s9
     d40:	198cbc83          	ld	s9,408(s9) # 1198 <.LBB28_3+0x6d4>
     d44:	080ccc93          	xori	s9,s9,128
     d48:	019c0fa3          	sb	s9,31(s8)
     d4c:	00001c37          	lui	s8,0x1
     d50:	01810c33          	add	s8,sp,s8
     d54:	190c3c03          	ld	s8,400(s8) # 1190 <.LBB28_3+0x6cc>
     d58:	080c4c93          	xori	s9,s8,128
     d5c:	0b813c03          	ld	s8,184(sp)
     d60:	01ac0c33          	add	s8,s8,s10
     d64:	019c0223          	sb	s9,4(s8)
     d68:	00001cb7          	lui	s9,0x1
     d6c:	01910cb3          	add	s9,sp,s9
     d70:	188cbc83          	ld	s9,392(s9) # 1188 <.LBB28_3+0x6c4>
     d74:	080ccc93          	xori	s9,s9,128
     d78:	019c01a3          	sb	s9,3(s8)
     d7c:	00001cb7          	lui	s9,0x1
     d80:	01910cb3          	add	s9,sp,s9
     d84:	ff0cbc83          	ld	s9,-16(s9) # ff0 <.LBB28_3+0x52c>
     d88:	080ccc93          	xori	s9,s9,128
     d8c:	019c0123          	sb	s9,2(s8)
     d90:	00001cb7          	lui	s9,0x1
     d94:	01910cb3          	add	s9,sp,s9
     d98:	fb0cbc83          	ld	s9,-80(s9) # fb0 <.LBB28_3+0x4ec>
     d9c:	080ccc93          	xori	s9,s9,128
     da0:	019c00a3          	sb	s9,1(s8)
     da4:	00001cb7          	lui	s9,0x1
     da8:	01910cb3          	add	s9,sp,s9
     dac:	f70cbc83          	ld	s9,-144(s9) # f70 <.LBB28_3+0x4ac>
     db0:	080ccc93          	xori	s9,s9,128
     db4:	019c0023          	sb	s9,0(s8)
     db8:	00001cb7          	lui	s9,0x1
     dbc:	01910cb3          	add	s9,sp,s9
     dc0:	f28cbc83          	ld	s9,-216(s9) # f28 <.LBB28_3+0x464>
     dc4:	080ccc93          	xori	s9,s9,128
     dc8:	019c02a3          	sb	s9,5(s8)
     dcc:	00001cb7          	lui	s9,0x1
     dd0:	01910cb3          	add	s9,sp,s9
     dd4:	ee8cbc83          	ld	s9,-280(s9) # ee8 <.LBB28_3+0x424>
     dd8:	080ccc93          	xori	s9,s9,128
     ddc:	019c0323          	sb	s9,6(s8)
     de0:	00001cb7          	lui	s9,0x1
     de4:	01910cb3          	add	s9,sp,s9
     de8:	ea8cbc83          	ld	s9,-344(s9) # ea8 <.LBB28_3+0x3e4>
     dec:	080ccc93          	xori	s9,s9,128
     df0:	019c03a3          	sb	s9,7(s8)
     df4:	00001cb7          	lui	s9,0x1
     df8:	01910cb3          	add	s9,sp,s9
     dfc:	e60cbc83          	ld	s9,-416(s9) # e60 <.LBB28_3+0x39c>
     e00:	080ccc93          	xori	s9,s9,128
     e04:	019c0423          	sb	s9,8(s8)
     e08:	00001cb7          	lui	s9,0x1
     e0c:	01910cb3          	add	s9,sp,s9
     e10:	e08cbc83          	ld	s9,-504(s9) # e08 <.LBB28_3+0x344>
     e14:	080ccc93          	xori	s9,s9,128
     e18:	019c04a3          	sb	s9,9(s8)
     e1c:	00001cb7          	lui	s9,0x1
     e20:	01910cb3          	add	s9,sp,s9
     e24:	dc8cbc83          	ld	s9,-568(s9) # dc8 <.LBB28_3+0x304>
     e28:	080ccc93          	xori	s9,s9,128
     e2c:	019c0523          	sb	s9,10(s8)
     e30:	00001cb7          	lui	s9,0x1
     e34:	01910cb3          	add	s9,sp,s9
     e38:	d88cbc83          	ld	s9,-632(s9) # d88 <.LBB28_3+0x2c4>
     e3c:	080ccc93          	xori	s9,s9,128
     e40:	019c05a3          	sb	s9,11(s8)
     e44:	00001cb7          	lui	s9,0x1
     e48:	01910cb3          	add	s9,sp,s9
     e4c:	d40cbc83          	ld	s9,-704(s9) # d40 <.LBB28_3+0x27c>
     e50:	080ccc93          	xori	s9,s9,128
     e54:	019c0623          	sb	s9,12(s8)
     e58:	00001cb7          	lui	s9,0x1
     e5c:	01910cb3          	add	s9,sp,s9
     e60:	d00cbc83          	ld	s9,-768(s9) # d00 <.LBB28_3+0x23c>
     e64:	080ccc93          	xori	s9,s9,128
     e68:	019c06a3          	sb	s9,13(s8)
     e6c:	00001cb7          	lui	s9,0x1
     e70:	01910cb3          	add	s9,sp,s9
     e74:	cc0cbc83          	ld	s9,-832(s9) # cc0 <.LBB28_3+0x1fc>
     e78:	080ccc93          	xori	s9,s9,128
     e7c:	019c0723          	sb	s9,14(s8)
     e80:	00001cb7          	lui	s9,0x1
     e84:	01910cb3          	add	s9,sp,s9
     e88:	c78cbc83          	ld	s9,-904(s9) # c78 <.LBB28_3+0x1b4>
     e8c:	080ccc93          	xori	s9,s9,128
     e90:	019c07a3          	sb	s9,15(s8)
     e94:	00001cb7          	lui	s9,0x1
     e98:	01910cb3          	add	s9,sp,s9
     e9c:	c38cbc83          	ld	s9,-968(s9) # c38 <.LBB28_3+0x174>
     ea0:	080ccc93          	xori	s9,s9,128
     ea4:	019c0823          	sb	s9,16(s8)
     ea8:	00001cb7          	lui	s9,0x1
     eac:	01910cb3          	add	s9,sp,s9
     eb0:	bf8cbc83          	ld	s9,-1032(s9) # bf8 <.LBB28_3+0x134>
     eb4:	080ccc93          	xori	s9,s9,128
     eb8:	019c08a3          	sb	s9,17(s8)
     ebc:	00001cb7          	lui	s9,0x1
     ec0:	01910cb3          	add	s9,sp,s9
     ec4:	bb8cbc83          	ld	s9,-1096(s9) # bb8 <.LBB28_3+0xf4>
     ec8:	080ccc93          	xori	s9,s9,128
     ecc:	019c0923          	sb	s9,18(s8)
     ed0:	00001cb7          	lui	s9,0x1
     ed4:	01910cb3          	add	s9,sp,s9
     ed8:	b70cbc83          	ld	s9,-1168(s9) # b70 <.LBB28_3+0xac>
     edc:	080ccc93          	xori	s9,s9,128
     ee0:	019c09a3          	sb	s9,19(s8)
     ee4:	00001cb7          	lui	s9,0x1
     ee8:	01910cb3          	add	s9,sp,s9
     eec:	b30cbc83          	ld	s9,-1232(s9) # b30 <.LBB28_3+0x6c>
     ef0:	080ccc93          	xori	s9,s9,128
     ef4:	019c0a23          	sb	s9,20(s8)
     ef8:	00001cb7          	lui	s9,0x1
     efc:	01910cb3          	add	s9,sp,s9
     f00:	af0cbc83          	ld	s9,-1296(s9) # af0 <.LBB28_3+0x2c>
     f04:	080ccc93          	xori	s9,s9,128
     f08:	019c0aa3          	sb	s9,21(s8)
     f0c:	00001cb7          	lui	s9,0x1
     f10:	01910cb3          	add	s9,sp,s9
     f14:	ae8cbc83          	ld	s9,-1304(s9) # ae8 <.LBB28_3+0x24>
     f18:	080ccc93          	xori	s9,s9,128
     f1c:	019c0b23          	sb	s9,22(s8)
     f20:	00001cb7          	lui	s9,0x1
     f24:	01910cb3          	add	s9,sp,s9
     f28:	ae0cbc83          	ld	s9,-1312(s9) # ae0 <.LBB28_3+0x1c>
     f2c:	080ccc93          	xori	s9,s9,128
     f30:	019c0ba3          	sb	s9,23(s8)
     f34:	00001cb7          	lui	s9,0x1
     f38:	01910cb3          	add	s9,sp,s9
     f3c:	ad8cbc83          	ld	s9,-1320(s9) # ad8 <.LBB28_3+0x14>
     f40:	080ccc93          	xori	s9,s9,128
     f44:	019c0c23          	sb	s9,24(s8)
     f48:	00001cb7          	lui	s9,0x1
     f4c:	01910cb3          	add	s9,sp,s9
     f50:	ad0cbc83          	ld	s9,-1328(s9) # ad0 <.LBB28_3+0xc>
     f54:	080ccc93          	xori	s9,s9,128
     f58:	019c0ca3          	sb	s9,25(s8)
     f5c:	00001cb7          	lui	s9,0x1
     f60:	01910cb3          	add	s9,sp,s9
     f64:	ac8cbc83          	ld	s9,-1336(s9) # ac8 <.LBB28_3+0x4>
     f68:	080ccc93          	xori	s9,s9,128
     f6c:	019c0d23          	sb	s9,26(s8)
     f70:	00001cb7          	lui	s9,0x1
     f74:	01910cb3          	add	s9,sp,s9
     f78:	ac0cbc83          	ld	s9,-1344(s9) # ac0 <.LBB28_2+0x94>
     f7c:	080ccc93          	xori	s9,s9,128
     f80:	019c0da3          	sb	s9,27(s8)
     f84:	00001cb7          	lui	s9,0x1
     f88:	01910cb3          	add	s9,sp,s9
     f8c:	ab8cbc83          	ld	s9,-1352(s9) # ab8 <.LBB28_2+0x8c>
     f90:	080ccc93          	xori	s9,s9,128
     f94:	019c0e23          	sb	s9,28(s8)
     f98:	00001cb7          	lui	s9,0x1
     f9c:	01910cb3          	add	s9,sp,s9
     fa0:	ab0cbc83          	ld	s9,-1360(s9) # ab0 <.LBB28_2+0x84>
     fa4:	080ccc93          	xori	s9,s9,128
     fa8:	019c0ea3          	sb	s9,29(s8)
     fac:	00001cb7          	lui	s9,0x1
     fb0:	01910cb3          	add	s9,sp,s9
     fb4:	aa8cbc83          	ld	s9,-1368(s9) # aa8 <.LBB28_2+0x7c>
     fb8:	080ccc93          	xori	s9,s9,128
     fbc:	019c0f23          	sb	s9,30(s8)
     fc0:	00001cb7          	lui	s9,0x1
     fc4:	01910cb3          	add	s9,sp,s9
     fc8:	aa0cbc83          	ld	s9,-1376(s9) # aa0 <.LBB28_2+0x74>
     fcc:	080ccc93          	xori	s9,s9,128
     fd0:	019c0fa3          	sb	s9,31(s8)
     fd4:	00001c37          	lui	s8,0x1
     fd8:	01810c33          	add	s8,sp,s8
     fdc:	a98c3c03          	ld	s8,-1384(s8) # a98 <.LBB28_2+0x6c>
     fe0:	080c4c93          	xori	s9,s8,128
     fe4:	0b013c03          	ld	s8,176(sp)
     fe8:	01ac0c33          	add	s8,s8,s10
     fec:	019c0223          	sb	s9,4(s8)
     ff0:	00001cb7          	lui	s9,0x1
     ff4:	01910cb3          	add	s9,sp,s9
     ff8:	a90cbc83          	ld	s9,-1392(s9) # a90 <.LBB28_2+0x64>
     ffc:	080ccc93          	xori	s9,s9,128
    1000:	019c01a3          	sb	s9,3(s8)
    1004:	00001cb7          	lui	s9,0x1
    1008:	01910cb3          	add	s9,sp,s9
    100c:	a88cbc83          	ld	s9,-1400(s9) # a88 <.LBB28_2+0x5c>
    1010:	080ccc93          	xori	s9,s9,128
    1014:	019c0123          	sb	s9,2(s8)
    1018:	00001cb7          	lui	s9,0x1
    101c:	01910cb3          	add	s9,sp,s9
    1020:	a80cbc83          	ld	s9,-1408(s9) # a80 <.LBB28_2+0x54>
    1024:	080ccc93          	xori	s9,s9,128
    1028:	019c00a3          	sb	s9,1(s8)
    102c:	00001cb7          	lui	s9,0x1
    1030:	01910cb3          	add	s9,sp,s9
    1034:	a78cbc83          	ld	s9,-1416(s9) # a78 <.LBB28_2+0x4c>
    1038:	080ccc93          	xori	s9,s9,128
    103c:	019c0023          	sb	s9,0(s8)
    1040:	00001cb7          	lui	s9,0x1
    1044:	01910cb3          	add	s9,sp,s9
    1048:	a70cbc83          	ld	s9,-1424(s9) # a70 <.LBB28_2+0x44>
    104c:	080ccc93          	xori	s9,s9,128
    1050:	019c02a3          	sb	s9,5(s8)
    1054:	00001cb7          	lui	s9,0x1
    1058:	01910cb3          	add	s9,sp,s9
    105c:	a68cbc83          	ld	s9,-1432(s9) # a68 <.LBB28_2+0x3c>
    1060:	080ccc93          	xori	s9,s9,128
    1064:	019c0323          	sb	s9,6(s8)
    1068:	00001cb7          	lui	s9,0x1
    106c:	01910cb3          	add	s9,sp,s9
    1070:	a60cbc83          	ld	s9,-1440(s9) # a60 <.LBB28_2+0x34>
    1074:	080ccc93          	xori	s9,s9,128
    1078:	019c03a3          	sb	s9,7(s8)
    107c:	00001cb7          	lui	s9,0x1
    1080:	01910cb3          	add	s9,sp,s9
    1084:	a58cbc83          	ld	s9,-1448(s9) # a58 <.LBB28_2+0x2c>
    1088:	080ccc93          	xori	s9,s9,128
    108c:	019c0423          	sb	s9,8(s8)
    1090:	00001cb7          	lui	s9,0x1
    1094:	01910cb3          	add	s9,sp,s9
    1098:	a50cbc83          	ld	s9,-1456(s9) # a50 <.LBB28_2+0x24>
    109c:	080ccc93          	xori	s9,s9,128
    10a0:	019c04a3          	sb	s9,9(s8)
    10a4:	00001cb7          	lui	s9,0x1
    10a8:	01910cb3          	add	s9,sp,s9
    10ac:	a48cbc83          	ld	s9,-1464(s9) # a48 <.LBB28_2+0x1c>
    10b0:	080ccc93          	xori	s9,s9,128
    10b4:	019c0523          	sb	s9,10(s8)
    10b8:	00001cb7          	lui	s9,0x1
    10bc:	01910cb3          	add	s9,sp,s9
    10c0:	a40cbc83          	ld	s9,-1472(s9) # a40 <.LBB28_2+0x14>
    10c4:	080ccc93          	xori	s9,s9,128
    10c8:	019c05a3          	sb	s9,11(s8)
    10cc:	00001cb7          	lui	s9,0x1
    10d0:	01910cb3          	add	s9,sp,s9
    10d4:	a38cbc83          	ld	s9,-1480(s9) # a38 <.LBB28_2+0xc>
    10d8:	080ccc93          	xori	s9,s9,128
    10dc:	019c0623          	sb	s9,12(s8)
    10e0:	00001cb7          	lui	s9,0x1
    10e4:	01910cb3          	add	s9,sp,s9
    10e8:	a30cbc83          	ld	s9,-1488(s9) # a30 <.LBB28_2+0x4>
    10ec:	080ccc93          	xori	s9,s9,128
    10f0:	019c06a3          	sb	s9,13(s8)
    10f4:	00001cb7          	lui	s9,0x1
    10f8:	01910cb3          	add	s9,sp,s9
    10fc:	a28cbc83          	ld	s9,-1496(s9) # a28 <.LBB28_1+0x90c>
    1100:	080ccc93          	xori	s9,s9,128
    1104:	019c0723          	sb	s9,14(s8)
    1108:	00001cb7          	lui	s9,0x1
    110c:	01910cb3          	add	s9,sp,s9
    1110:	a20cbc83          	ld	s9,-1504(s9) # a20 <.LBB28_1+0x904>
    1114:	080ccc93          	xori	s9,s9,128
    1118:	019c07a3          	sb	s9,15(s8)
    111c:	00001cb7          	lui	s9,0x1
    1120:	01910cb3          	add	s9,sp,s9
    1124:	a18cbc83          	ld	s9,-1512(s9) # a18 <.LBB28_1+0x8fc>
    1128:	080ccc93          	xori	s9,s9,128
    112c:	019c0823          	sb	s9,16(s8)
    1130:	00001cb7          	lui	s9,0x1
    1134:	01910cb3          	add	s9,sp,s9
    1138:	a10cbc83          	ld	s9,-1520(s9) # a10 <.LBB28_1+0x8f4>
    113c:	080ccc93          	xori	s9,s9,128
    1140:	019c08a3          	sb	s9,17(s8)
    1144:	00001cb7          	lui	s9,0x1
    1148:	01910cb3          	add	s9,sp,s9
    114c:	a08cbc83          	ld	s9,-1528(s9) # a08 <.LBB28_1+0x8ec>
    1150:	080ccc93          	xori	s9,s9,128
    1154:	019c0923          	sb	s9,18(s8)
    1158:	00001cb7          	lui	s9,0x1
    115c:	01910cb3          	add	s9,sp,s9
    1160:	a00cbc83          	ld	s9,-1536(s9) # a00 <.LBB28_1+0x8e4>
    1164:	080ccc93          	xori	s9,s9,128
    1168:	019c09a3          	sb	s9,19(s8)
    116c:	61813c83          	ld	s9,1560(sp)
    1170:	080ccc93          	xori	s9,s9,128
    1174:	019c0a23          	sb	s9,20(s8)
    1178:	62813c83          	ld	s9,1576(sp)
    117c:	080ccc93          	xori	s9,s9,128
    1180:	019c0aa3          	sb	s9,21(s8)
    1184:	63813c83          	ld	s9,1592(sp)
    1188:	080ccc93          	xori	s9,s9,128
    118c:	019c0b23          	sb	s9,22(s8)
    1190:	64813c83          	ld	s9,1608(sp)
    1194:	080ccc93          	xori	s9,s9,128
    1198:	019c0ba3          	sb	s9,23(s8)
    119c:	65813c83          	ld	s9,1624(sp)
    11a0:	080ccc93          	xori	s9,s9,128
    11a4:	019c0c23          	sb	s9,24(s8)
    11a8:	66813c83          	ld	s9,1640(sp)
    11ac:	080ccc93          	xori	s9,s9,128
    11b0:	019c0ca3          	sb	s9,25(s8)
    11b4:	67813c83          	ld	s9,1656(sp)
    11b8:	080ccc93          	xori	s9,s9,128
    11bc:	019c0d23          	sb	s9,26(s8)
    11c0:	68813c83          	ld	s9,1672(sp)
    11c4:	080ccc93          	xori	s9,s9,128
    11c8:	019c0da3          	sb	s9,27(s8)
    11cc:	69813c83          	ld	s9,1688(sp)
    11d0:	080ccc93          	xori	s9,s9,128
    11d4:	019c0e23          	sb	s9,28(s8)
    11d8:	6a813c83          	ld	s9,1704(sp)
    11dc:	080ccc93          	xori	s9,s9,128
    11e0:	019c0ea3          	sb	s9,29(s8)
    11e4:	6b813c83          	ld	s9,1720(sp)
    11e8:	080ccc93          	xori	s9,s9,128
    11ec:	019c0f23          	sb	s9,30(s8)
    11f0:	6c813c83          	ld	s9,1736(sp)
    11f4:	080ccc93          	xori	s9,s9,128
    11f8:	019c0fa3          	sb	s9,31(s8)
    11fc:	6d813c03          	ld	s8,1752(sp)
    1200:	080c4c93          	xori	s9,s8,128
    1204:	0a813c03          	ld	s8,168(sp)
    1208:	01ac0c33          	add	s8,s8,s10
    120c:	019c0223          	sb	s9,4(s8)
    1210:	6e813c83          	ld	s9,1768(sp)
    1214:	080ccc93          	xori	s9,s9,128
    1218:	019c01a3          	sb	s9,3(s8)
    121c:	6f813c83          	ld	s9,1784(sp)
    1220:	080ccc93          	xori	s9,s9,128
    1224:	019c0123          	sb	s9,2(s8)
    1228:	70813c83          	ld	s9,1800(sp)
    122c:	080ccc93          	xori	s9,s9,128
    1230:	019c00a3          	sb	s9,1(s8)
    1234:	71813c83          	ld	s9,1816(sp)
    1238:	080ccc93          	xori	s9,s9,128
    123c:	019c0023          	sb	s9,0(s8)
    1240:	72813c83          	ld	s9,1832(sp)
    1244:	080ccc93          	xori	s9,s9,128
    1248:	019c02a3          	sb	s9,5(s8)
    124c:	73813c83          	ld	s9,1848(sp)
    1250:	080ccc93          	xori	s9,s9,128
    1254:	019c0323          	sb	s9,6(s8)
    1258:	74813c83          	ld	s9,1864(sp)
    125c:	080ccc93          	xori	s9,s9,128
    1260:	019c03a3          	sb	s9,7(s8)
    1264:	75813c83          	ld	s9,1880(sp)
    1268:	080ccc93          	xori	s9,s9,128
    126c:	019c0423          	sb	s9,8(s8)
    1270:	76813c83          	ld	s9,1896(sp)
    1274:	080ccc93          	xori	s9,s9,128
    1278:	019c04a3          	sb	s9,9(s8)
    127c:	77813c83          	ld	s9,1912(sp)
    1280:	080ccc93          	xori	s9,s9,128
    1284:	019c0523          	sb	s9,10(s8)
    1288:	78813c83          	ld	s9,1928(sp)
    128c:	080ccc93          	xori	s9,s9,128
    1290:	019c05a3          	sb	s9,11(s8)
    1294:	79813c83          	ld	s9,1944(sp)
    1298:	080ccc93          	xori	s9,s9,128
    129c:	019c0623          	sb	s9,12(s8)
    12a0:	7a813c83          	ld	s9,1960(sp)
    12a4:	080ccc93          	xori	s9,s9,128
    12a8:	019c06a3          	sb	s9,13(s8)
    12ac:	7b813c83          	ld	s9,1976(sp)
    12b0:	080ccc93          	xori	s9,s9,128
    12b4:	019c0723          	sb	s9,14(s8)
    12b8:	7c813c83          	ld	s9,1992(sp)
    12bc:	080ccc93          	xori	s9,s9,128
    12c0:	019c07a3          	sb	s9,15(s8)
    12c4:	7d813c83          	ld	s9,2008(sp)
    12c8:	080ccc93          	xori	s9,s9,128
    12cc:	019c0823          	sb	s9,16(s8)
    12d0:	7e813c83          	ld	s9,2024(sp)
    12d4:	080ccc93          	xori	s9,s9,128
    12d8:	019c08a3          	sb	s9,17(s8)
    12dc:	7f813c83          	ld	s9,2040(sp)
    12e0:	080ccc93          	xori	s9,s9,128
    12e4:	019c0923          	sb	s9,18(s8)
    12e8:	00001cb7          	lui	s9,0x1
    12ec:	01910cb3          	add	s9,sp,s9
    12f0:	808cbc83          	ld	s9,-2040(s9) # 808 <.LBB28_1+0x6ec>
    12f4:	080ccc93          	xori	s9,s9,128
    12f8:	019c09a3          	sb	s9,19(s8)
    12fc:	00001cb7          	lui	s9,0x1
    1300:	01910cb3          	add	s9,sp,s9
    1304:	818cbc83          	ld	s9,-2024(s9) # 818 <.LBB28_1+0x6fc>
    1308:	080ccc93          	xori	s9,s9,128
    130c:	019c0a23          	sb	s9,20(s8)
    1310:	00001cb7          	lui	s9,0x1
    1314:	01910cb3          	add	s9,sp,s9
    1318:	828cbc83          	ld	s9,-2008(s9) # 828 <.LBB28_1+0x70c>
    131c:	080ccc93          	xori	s9,s9,128
    1320:	019c0aa3          	sb	s9,21(s8)
    1324:	00001cb7          	lui	s9,0x1
    1328:	01910cb3          	add	s9,sp,s9
    132c:	838cbc83          	ld	s9,-1992(s9) # 838 <.LBB28_1+0x71c>
    1330:	080ccc93          	xori	s9,s9,128
    1334:	019c0b23          	sb	s9,22(s8)
    1338:	00001cb7          	lui	s9,0x1
    133c:	01910cb3          	add	s9,sp,s9
    1340:	848cbc83          	ld	s9,-1976(s9) # 848 <.LBB28_1+0x72c>
    1344:	080ccc93          	xori	s9,s9,128
    1348:	019c0ba3          	sb	s9,23(s8)
    134c:	00001cb7          	lui	s9,0x1
    1350:	01910cb3          	add	s9,sp,s9
    1354:	858cbc83          	ld	s9,-1960(s9) # 858 <.LBB28_1+0x73c>
    1358:	080ccc93          	xori	s9,s9,128
    135c:	019c0c23          	sb	s9,24(s8)
    1360:	00001cb7          	lui	s9,0x1
    1364:	01910cb3          	add	s9,sp,s9
    1368:	868cbc83          	ld	s9,-1944(s9) # 868 <.LBB28_1+0x74c>
    136c:	080ccc93          	xori	s9,s9,128
    1370:	019c0ca3          	sb	s9,25(s8)
    1374:	00001cb7          	lui	s9,0x1
    1378:	01910cb3          	add	s9,sp,s9
    137c:	878cbc83          	ld	s9,-1928(s9) # 878 <.LBB28_1+0x75c>
    1380:	080ccc93          	xori	s9,s9,128
    1384:	019c0d23          	sb	s9,26(s8)
    1388:	00001cb7          	lui	s9,0x1
    138c:	01910cb3          	add	s9,sp,s9
    1390:	888cbc83          	ld	s9,-1912(s9) # 888 <.LBB28_1+0x76c>
    1394:	080ccc93          	xori	s9,s9,128
    1398:	019c0da3          	sb	s9,27(s8)
    139c:	00001cb7          	lui	s9,0x1
    13a0:	01910cb3          	add	s9,sp,s9
    13a4:	898cbc83          	ld	s9,-1896(s9) # 898 <.LBB28_1+0x77c>
    13a8:	080ccc93          	xori	s9,s9,128
    13ac:	019c0e23          	sb	s9,28(s8)
    13b0:	00001cb7          	lui	s9,0x1
    13b4:	01910cb3          	add	s9,sp,s9
    13b8:	8a8cbc83          	ld	s9,-1880(s9) # 8a8 <.LBB28_1+0x78c>
    13bc:	080ccc93          	xori	s9,s9,128
    13c0:	019c0ea3          	sb	s9,29(s8)
    13c4:	00001cb7          	lui	s9,0x1
    13c8:	01910cb3          	add	s9,sp,s9
    13cc:	8b8cbc83          	ld	s9,-1864(s9) # 8b8 <.LBB28_1+0x79c>
    13d0:	080ccc93          	xori	s9,s9,128
    13d4:	019c0f23          	sb	s9,30(s8)
    13d8:	00001cb7          	lui	s9,0x1
    13dc:	01910cb3          	add	s9,sp,s9
    13e0:	8c8cbc83          	ld	s9,-1848(s9) # 8c8 <.LBB28_1+0x7ac>
    13e4:	080ccc93          	xori	s9,s9,128
    13e8:	019c0fa3          	sb	s9,31(s8)
    13ec:	00001c37          	lui	s8,0x1
    13f0:	01810c33          	add	s8,sp,s8
    13f4:	8d8c3c03          	ld	s8,-1832(s8) # 8d8 <.LBB28_1+0x7bc>
    13f8:	080c4c93          	xori	s9,s8,128
    13fc:	0a013c03          	ld	s8,160(sp)
    1400:	01ac0c33          	add	s8,s8,s10
    1404:	019c0223          	sb	s9,4(s8)
    1408:	00001cb7          	lui	s9,0x1
    140c:	01910cb3          	add	s9,sp,s9
    1410:	8e8cbc83          	ld	s9,-1816(s9) # 8e8 <.LBB28_1+0x7cc>
    1414:	080ccc93          	xori	s9,s9,128
    1418:	019c01a3          	sb	s9,3(s8)
    141c:	00001cb7          	lui	s9,0x1
    1420:	01910cb3          	add	s9,sp,s9
    1424:	e10cbc83          	ld	s9,-496(s9) # e10 <.LBB28_3+0x34c>
    1428:	080ccc93          	xori	s9,s9,128
    142c:	019c0123          	sb	s9,2(s8)
    1430:	00001cb7          	lui	s9,0x1
    1434:	01910cb3          	add	s9,sp,s9
    1438:	900cbc83          	ld	s9,-1792(s9) # 900 <.LBB28_1+0x7e4>
    143c:	080ccc93          	xori	s9,s9,128
    1440:	019c00a3          	sb	s9,1(s8)
    1444:	00001cb7          	lui	s9,0x1
    1448:	01910cb3          	add	s9,sp,s9
    144c:	910cbc83          	ld	s9,-1776(s9) # 910 <.LBB28_1+0x7f4>
    1450:	080ccc93          	xori	s9,s9,128
    1454:	019c0023          	sb	s9,0(s8)
    1458:	00001cb7          	lui	s9,0x1
    145c:	01910cb3          	add	s9,sp,s9
    1460:	920cbc83          	ld	s9,-1760(s9) # 920 <.LBB28_1+0x804>
    1464:	080ccc93          	xori	s9,s9,128
    1468:	019c02a3          	sb	s9,5(s8)
    146c:	00001cb7          	lui	s9,0x1
    1470:	01910cb3          	add	s9,sp,s9
    1474:	930cbc83          	ld	s9,-1744(s9) # 930 <.LBB28_1+0x814>
    1478:	080ccc93          	xori	s9,s9,128
    147c:	019c0323          	sb	s9,6(s8)
    1480:	00001cb7          	lui	s9,0x1
    1484:	01910cb3          	add	s9,sp,s9
    1488:	940cbc83          	ld	s9,-1728(s9) # 940 <.LBB28_1+0x824>
    148c:	080ccc93          	xori	s9,s9,128
    1490:	019c03a3          	sb	s9,7(s8)
    1494:	00001cb7          	lui	s9,0x1
    1498:	01910cb3          	add	s9,sp,s9
    149c:	950cbc83          	ld	s9,-1712(s9) # 950 <.LBB28_1+0x834>
    14a0:	080ccc93          	xori	s9,s9,128
    14a4:	019c0423          	sb	s9,8(s8)
    14a8:	00001cb7          	lui	s9,0x1
    14ac:	01910cb3          	add	s9,sp,s9
    14b0:	e48cbc83          	ld	s9,-440(s9) # e48 <.LBB28_3+0x384>
    14b4:	080ccc93          	xori	s9,s9,128
    14b8:	019c04a3          	sb	s9,9(s8)
    14bc:	00001cb7          	lui	s9,0x1
    14c0:	01910cb3          	add	s9,sp,s9
    14c4:	968cbc83          	ld	s9,-1688(s9) # 968 <.LBB28_1+0x84c>
    14c8:	080ccc93          	xori	s9,s9,128
    14cc:	019c0523          	sb	s9,10(s8)
    14d0:	00001cb7          	lui	s9,0x1
    14d4:	01910cb3          	add	s9,sp,s9
    14d8:	978cbc83          	ld	s9,-1672(s9) # 978 <.LBB28_1+0x85c>
    14dc:	080ccc93          	xori	s9,s9,128
    14e0:	019c05a3          	sb	s9,11(s8)
    14e4:	00001cb7          	lui	s9,0x1
    14e8:	01910cb3          	add	s9,sp,s9
    14ec:	988cbc83          	ld	s9,-1656(s9) # 988 <.LBB28_1+0x86c>
    14f0:	080ccc93          	xori	s9,s9,128
    14f4:	019c0623          	sb	s9,12(s8)
    14f8:	00001cb7          	lui	s9,0x1
    14fc:	01910cb3          	add	s9,sp,s9
    1500:	998cbc83          	ld	s9,-1640(s9) # 998 <.LBB28_1+0x87c>
    1504:	080ccc93          	xori	s9,s9,128
    1508:	019c06a3          	sb	s9,13(s8)
    150c:	00001cb7          	lui	s9,0x1
    1510:	01910cb3          	add	s9,sp,s9
    1514:	9a8cbc83          	ld	s9,-1624(s9) # 9a8 <.LBB28_1+0x88c>
    1518:	080ccc93          	xori	s9,s9,128
    151c:	019c0723          	sb	s9,14(s8)
    1520:	00001cb7          	lui	s9,0x1
    1524:	01910cb3          	add	s9,sp,s9
    1528:	9b8cbc83          	ld	s9,-1608(s9) # 9b8 <.LBB28_1+0x89c>
    152c:	080ccc93          	xori	s9,s9,128
    1530:	019c07a3          	sb	s9,15(s8)
    1534:	00001cb7          	lui	s9,0x1
    1538:	01910cb3          	add	s9,sp,s9
    153c:	9f8cbc83          	ld	s9,-1544(s9) # 9f8 <.LBB28_1+0x8dc>
    1540:	080ccc93          	xori	s9,s9,128
    1544:	019c0823          	sb	s9,16(s8)
    1548:	00001cb7          	lui	s9,0x1
    154c:	01910cb3          	add	s9,sp,s9
    1550:	b00cbc83          	ld	s9,-1280(s9) # b00 <.LBB28_3+0x3c>
    1554:	080ccc93          	xori	s9,s9,128
    1558:	019c08a3          	sb	s9,17(s8)
    155c:	00001cb7          	lui	s9,0x1
    1560:	01910cb3          	add	s9,sp,s9
    1564:	b10cbc83          	ld	s9,-1264(s9) # b10 <.LBB28_3+0x4c>
    1568:	080ccc93          	xori	s9,s9,128
    156c:	019c0923          	sb	s9,18(s8)
    1570:	00001cb7          	lui	s9,0x1
    1574:	01910cb3          	add	s9,sp,s9
    1578:	b20cbc83          	ld	s9,-1248(s9) # b20 <.LBB28_3+0x5c>
    157c:	080ccc93          	xori	s9,s9,128
    1580:	019c09a3          	sb	s9,19(s8)
    1584:	00001cb7          	lui	s9,0x1
    1588:	01910cb3          	add	s9,sp,s9
    158c:	b38cbc83          	ld	s9,-1224(s9) # b38 <.LBB28_3+0x74>
    1590:	080ccc93          	xori	s9,s9,128
    1594:	019c0a23          	sb	s9,20(s8)
    1598:	00001cb7          	lui	s9,0x1
    159c:	01910cb3          	add	s9,sp,s9
    15a0:	b48cbc83          	ld	s9,-1208(s9) # b48 <.LBB28_3+0x84>
    15a4:	080ccc93          	xori	s9,s9,128
    15a8:	019c0aa3          	sb	s9,21(s8)
    15ac:	00001cb7          	lui	s9,0x1
    15b0:	01910cb3          	add	s9,sp,s9
    15b4:	b58cbc83          	ld	s9,-1192(s9) # b58 <.LBB28_3+0x94>
    15b8:	080ccc93          	xori	s9,s9,128
    15bc:	019c0b23          	sb	s9,22(s8)
    15c0:	00001cb7          	lui	s9,0x1
    15c4:	01910cb3          	add	s9,sp,s9
    15c8:	b68cbc83          	ld	s9,-1176(s9) # b68 <.LBB28_3+0xa4>
    15cc:	080ccc93          	xori	s9,s9,128
    15d0:	019c0ba3          	sb	s9,23(s8)
    15d4:	00001cb7          	lui	s9,0x1
    15d8:	01910cb3          	add	s9,sp,s9
    15dc:	b80cbc83          	ld	s9,-1152(s9) # b80 <.LBB28_3+0xbc>
    15e0:	080ccc93          	xori	s9,s9,128
    15e4:	019c0c23          	sb	s9,24(s8)
    15e8:	00001cb7          	lui	s9,0x1
    15ec:	01910cb3          	add	s9,sp,s9
    15f0:	b90cbc83          	ld	s9,-1136(s9) # b90 <.LBB28_3+0xcc>
    15f4:	080ccc93          	xori	s9,s9,128
    15f8:	019c0ca3          	sb	s9,25(s8)
    15fc:	00001cb7          	lui	s9,0x1
    1600:	01910cb3          	add	s9,sp,s9
    1604:	ba0cbc83          	ld	s9,-1120(s9) # ba0 <.LBB28_3+0xdc>
    1608:	080ccc93          	xori	s9,s9,128
    160c:	019c0d23          	sb	s9,26(s8)
    1610:	00001cb7          	lui	s9,0x1
    1614:	01910cb3          	add	s9,sp,s9
    1618:	bb0cbc83          	ld	s9,-1104(s9) # bb0 <.LBB28_3+0xec>
    161c:	080ccc93          	xori	s9,s9,128
    1620:	019c0da3          	sb	s9,27(s8)
    1624:	00001cb7          	lui	s9,0x1
    1628:	01910cb3          	add	s9,sp,s9
    162c:	bc8cbc83          	ld	s9,-1080(s9) # bc8 <.LBB28_3+0x104>
    1630:	080ccc93          	xori	s9,s9,128
    1634:	019c0e23          	sb	s9,28(s8)
    1638:	00001cb7          	lui	s9,0x1
    163c:	01910cb3          	add	s9,sp,s9
    1640:	bd8cbc83          	ld	s9,-1064(s9) # bd8 <.LBB28_3+0x114>
    1644:	080ccc93          	xori	s9,s9,128
    1648:	019c0ea3          	sb	s9,29(s8)
    164c:	00001cb7          	lui	s9,0x1
    1650:	01910cb3          	add	s9,sp,s9
    1654:	be8cbc83          	ld	s9,-1048(s9) # be8 <.LBB28_3+0x124>
    1658:	080ccc93          	xori	s9,s9,128
    165c:	019c0f23          	sb	s9,30(s8)
    1660:	00001cb7          	lui	s9,0x1
    1664:	01910cb3          	add	s9,sp,s9
    1668:	c00cbc83          	ld	s9,-1024(s9) # c00 <.LBB28_3+0x13c>
    166c:	080ccc93          	xori	s9,s9,128
    1670:	019c0fa3          	sb	s9,31(s8)
    1674:	00001c37          	lui	s8,0x1
    1678:	01810c33          	add	s8,sp,s8
    167c:	c10c3c03          	ld	s8,-1008(s8) # c10 <.LBB28_3+0x14c>
    1680:	080c4c93          	xori	s9,s8,128
    1684:	09813c03          	ld	s8,152(sp)
    1688:	01ac0c33          	add	s8,s8,s10
    168c:	019c0223          	sb	s9,4(s8)
    1690:	00001cb7          	lui	s9,0x1
    1694:	01910cb3          	add	s9,sp,s9
    1698:	c20cbc83          	ld	s9,-992(s9) # c20 <.LBB28_3+0x15c>
    169c:	080ccc93          	xori	s9,s9,128
    16a0:	019c01a3          	sb	s9,3(s8)
    16a4:	00001cb7          	lui	s9,0x1
    16a8:	01910cb3          	add	s9,sp,s9
    16ac:	c28cbc83          	ld	s9,-984(s9) # c28 <.LBB28_3+0x164>
    16b0:	080ccc93          	xori	s9,s9,128
    16b4:	019c0123          	sb	s9,2(s8)
    16b8:	00001cb7          	lui	s9,0x1
    16bc:	01910cb3          	add	s9,sp,s9
    16c0:	c40cbc83          	ld	s9,-960(s9) # c40 <.LBB28_3+0x17c>
    16c4:	080ccc93          	xori	s9,s9,128
    16c8:	019c00a3          	sb	s9,1(s8)
    16cc:	00001cb7          	lui	s9,0x1
    16d0:	01910cb3          	add	s9,sp,s9
    16d4:	c50cbc83          	ld	s9,-944(s9) # c50 <.LBB28_3+0x18c>
    16d8:	080ccc93          	xori	s9,s9,128
    16dc:	019c0023          	sb	s9,0(s8)
    16e0:	00001cb7          	lui	s9,0x1
    16e4:	01910cb3          	add	s9,sp,s9
    16e8:	c60cbc83          	ld	s9,-928(s9) # c60 <.LBB28_3+0x19c>
    16ec:	080ccc93          	xori	s9,s9,128
    16f0:	019c02a3          	sb	s9,5(s8)
    16f4:	00001cb7          	lui	s9,0x1
    16f8:	01910cb3          	add	s9,sp,s9
    16fc:	c70cbc83          	ld	s9,-912(s9) # c70 <.LBB28_3+0x1ac>
    1700:	080ccc93          	xori	s9,s9,128
    1704:	019c0323          	sb	s9,6(s8)
    1708:	00001cb7          	lui	s9,0x1
    170c:	01910cb3          	add	s9,sp,s9
    1710:	c88cbc83          	ld	s9,-888(s9) # c88 <.LBB28_3+0x1c4>
    1714:	080ccc93          	xori	s9,s9,128
    1718:	019c03a3          	sb	s9,7(s8)
    171c:	00001cb7          	lui	s9,0x1
    1720:	01910cb3          	add	s9,sp,s9
    1724:	c98cbc83          	ld	s9,-872(s9) # c98 <.LBB28_3+0x1d4>
    1728:	080ccc93          	xori	s9,s9,128
    172c:	019c0423          	sb	s9,8(s8)
    1730:	00001cb7          	lui	s9,0x1
    1734:	01910cb3          	add	s9,sp,s9
    1738:	ca8cbc83          	ld	s9,-856(s9) # ca8 <.LBB28_3+0x1e4>
    173c:	080ccc93          	xori	s9,s9,128
    1740:	019c04a3          	sb	s9,9(s8)
    1744:	00001cb7          	lui	s9,0x1
    1748:	01910cb3          	add	s9,sp,s9
    174c:	cb8cbc83          	ld	s9,-840(s9) # cb8 <.LBB28_3+0x1f4>
    1750:	080ccc93          	xori	s9,s9,128
    1754:	019c0523          	sb	s9,10(s8)
    1758:	00001cb7          	lui	s9,0x1
    175c:	01910cb3          	add	s9,sp,s9
    1760:	cd0cbc83          	ld	s9,-816(s9) # cd0 <.LBB28_3+0x20c>
    1764:	080ccc93          	xori	s9,s9,128
    1768:	019c05a3          	sb	s9,11(s8)
    176c:	00001cb7          	lui	s9,0x1
    1770:	01910cb3          	add	s9,sp,s9
    1774:	ce0cbc83          	ld	s9,-800(s9) # ce0 <.LBB28_3+0x21c>
    1778:	080ccc93          	xori	s9,s9,128
    177c:	019c0623          	sb	s9,12(s8)
    1780:	00001cb7          	lui	s9,0x1
    1784:	01910cb3          	add	s9,sp,s9
    1788:	cf0cbc83          	ld	s9,-784(s9) # cf0 <.LBB28_3+0x22c>
    178c:	080ccc93          	xori	s9,s9,128
    1790:	019c06a3          	sb	s9,13(s8)
    1794:	00001cb7          	lui	s9,0x1
    1798:	01910cb3          	add	s9,sp,s9
    179c:	d08cbc83          	ld	s9,-760(s9) # d08 <.LBB28_3+0x244>
    17a0:	080ccc93          	xori	s9,s9,128
    17a4:	019c0723          	sb	s9,14(s8)
    17a8:	00001cb7          	lui	s9,0x1
    17ac:	01910cb3          	add	s9,sp,s9
    17b0:	d18cbc83          	ld	s9,-744(s9) # d18 <.LBB28_3+0x254>
    17b4:	080ccc93          	xori	s9,s9,128
    17b8:	019c07a3          	sb	s9,15(s8)
    17bc:	00001cb7          	lui	s9,0x1
    17c0:	01910cb3          	add	s9,sp,s9
    17c4:	d28cbc83          	ld	s9,-728(s9) # d28 <.LBB28_3+0x264>
    17c8:	080ccc93          	xori	s9,s9,128
    17cc:	019c0823          	sb	s9,16(s8)
    17d0:	00001cb7          	lui	s9,0x1
    17d4:	01910cb3          	add	s9,sp,s9
    17d8:	d38cbc83          	ld	s9,-712(s9) # d38 <.LBB28_3+0x274>
    17dc:	080ccc93          	xori	s9,s9,128
    17e0:	019c08a3          	sb	s9,17(s8)
    17e4:	00001cb7          	lui	s9,0x1
    17e8:	01910cb3          	add	s9,sp,s9
    17ec:	d50cbc83          	ld	s9,-688(s9) # d50 <.LBB28_3+0x28c>
    17f0:	080ccc93          	xori	s9,s9,128
    17f4:	019c0923          	sb	s9,18(s8)
    17f8:	00001cb7          	lui	s9,0x1
    17fc:	01910cb3          	add	s9,sp,s9
    1800:	d60cbc83          	ld	s9,-672(s9) # d60 <.LBB28_3+0x29c>
    1804:	080ccc93          	xori	s9,s9,128
    1808:	019c09a3          	sb	s9,19(s8)
    180c:	00001cb7          	lui	s9,0x1
    1810:	01910cb3          	add	s9,sp,s9
    1814:	d70cbc83          	ld	s9,-656(s9) # d70 <.LBB28_3+0x2ac>
    1818:	080ccc93          	xori	s9,s9,128
    181c:	019c0a23          	sb	s9,20(s8)
    1820:	00001cb7          	lui	s9,0x1
    1824:	01910cb3          	add	s9,sp,s9
    1828:	d80cbc83          	ld	s9,-640(s9) # d80 <.LBB28_3+0x2bc>
    182c:	080ccc93          	xori	s9,s9,128
    1830:	019c0aa3          	sb	s9,21(s8)
    1834:	00001cb7          	lui	s9,0x1
    1838:	01910cb3          	add	s9,sp,s9
    183c:	d98cbc83          	ld	s9,-616(s9) # d98 <.LBB28_3+0x2d4>
    1840:	080ccc93          	xori	s9,s9,128
    1844:	019c0b23          	sb	s9,22(s8)
    1848:	00001cb7          	lui	s9,0x1
    184c:	01910cb3          	add	s9,sp,s9
    1850:	da8cbc83          	ld	s9,-600(s9) # da8 <.LBB28_3+0x2e4>
    1854:	080ccc93          	xori	s9,s9,128
    1858:	019c0ba3          	sb	s9,23(s8)
    185c:	00001cb7          	lui	s9,0x1
    1860:	01910cb3          	add	s9,sp,s9
    1864:	db8cbc83          	ld	s9,-584(s9) # db8 <.LBB28_3+0x2f4>
    1868:	080ccc93          	xori	s9,s9,128
    186c:	019c0c23          	sb	s9,24(s8)
    1870:	00001cb7          	lui	s9,0x1
    1874:	01910cb3          	add	s9,sp,s9
    1878:	dd0cbc83          	ld	s9,-560(s9) # dd0 <.LBB28_3+0x30c>
    187c:	080ccc93          	xori	s9,s9,128
    1880:	019c0ca3          	sb	s9,25(s8)
    1884:	00001cb7          	lui	s9,0x1
    1888:	01910cb3          	add	s9,sp,s9
    188c:	de0cbc83          	ld	s9,-544(s9) # de0 <.LBB28_3+0x31c>
    1890:	080ccc93          	xori	s9,s9,128
    1894:	019c0d23          	sb	s9,26(s8)
    1898:	00001cb7          	lui	s9,0x1
    189c:	01910cb3          	add	s9,sp,s9
    18a0:	df0cbc83          	ld	s9,-528(s9) # df0 <.LBB28_3+0x32c>
    18a4:	080ccc93          	xori	s9,s9,128
    18a8:	019c0da3          	sb	s9,27(s8)
    18ac:	00001cb7          	lui	s9,0x1
    18b0:	01910cb3          	add	s9,sp,s9
    18b4:	e00cbc83          	ld	s9,-512(s9) # e00 <.LBB28_3+0x33c>
    18b8:	080ccc93          	xori	s9,s9,128
    18bc:	019c0e23          	sb	s9,28(s8)
    18c0:	00001cb7          	lui	s9,0x1
    18c4:	01910cb3          	add	s9,sp,s9
    18c8:	e20cbc83          	ld	s9,-480(s9) # e20 <.LBB28_3+0x35c>
    18cc:	080ccc93          	xori	s9,s9,128
    18d0:	019c0ea3          	sb	s9,29(s8)
    18d4:	00001cb7          	lui	s9,0x1
    18d8:	01910cb3          	add	s9,sp,s9
    18dc:	e30cbc83          	ld	s9,-464(s9) # e30 <.LBB28_3+0x36c>
    18e0:	080ccc93          	xori	s9,s9,128
    18e4:	019c0f23          	sb	s9,30(s8)
    18e8:	00001cb7          	lui	s9,0x1
    18ec:	01910cb3          	add	s9,sp,s9
    18f0:	e40cbc83          	ld	s9,-448(s9) # e40 <.LBB28_3+0x37c>
    18f4:	080ccc93          	xori	s9,s9,128
    18f8:	019c0fa3          	sb	s9,31(s8)
    18fc:	00001c37          	lui	s8,0x1
    1900:	01810c33          	add	s8,sp,s8
    1904:	e58c3c03          	ld	s8,-424(s8) # e58 <.LBB28_3+0x394>
    1908:	080c4c93          	xori	s9,s8,128
    190c:	09013c03          	ld	s8,144(sp)
    1910:	01ac0c33          	add	s8,s8,s10
    1914:	019c0223          	sb	s9,4(s8)
    1918:	00001cb7          	lui	s9,0x1
    191c:	01910cb3          	add	s9,sp,s9
    1920:	e70cbc83          	ld	s9,-400(s9) # e70 <.LBB28_3+0x3ac>
    1924:	080ccc93          	xori	s9,s9,128
    1928:	019c01a3          	sb	s9,3(s8)
    192c:	00001cb7          	lui	s9,0x1
    1930:	01910cb3          	add	s9,sp,s9
    1934:	e80cbc83          	ld	s9,-384(s9) # e80 <.LBB28_3+0x3bc>
    1938:	080ccc93          	xori	s9,s9,128
    193c:	019c0123          	sb	s9,2(s8)
    1940:	00001cb7          	lui	s9,0x1
    1944:	01910cb3          	add	s9,sp,s9
    1948:	e90cbc83          	ld	s9,-368(s9) # e90 <.LBB28_3+0x3cc>
    194c:	080ccc93          	xori	s9,s9,128
    1950:	019c00a3          	sb	s9,1(s8)
    1954:	00001cb7          	lui	s9,0x1
    1958:	01910cb3          	add	s9,sp,s9
    195c:	ea0cbc83          	ld	s9,-352(s9) # ea0 <.LBB28_3+0x3dc>
    1960:	080ccc93          	xori	s9,s9,128
    1964:	019c0023          	sb	s9,0(s8)
    1968:	00001cb7          	lui	s9,0x1
    196c:	01910cb3          	add	s9,sp,s9
    1970:	eb8cbc83          	ld	s9,-328(s9) # eb8 <.LBB28_3+0x3f4>
    1974:	080ccc93          	xori	s9,s9,128
    1978:	019c02a3          	sb	s9,5(s8)
    197c:	00001cb7          	lui	s9,0x1
    1980:	01910cb3          	add	s9,sp,s9
    1984:	ec8cbc83          	ld	s9,-312(s9) # ec8 <.LBB28_3+0x404>
    1988:	080ccc93          	xori	s9,s9,128
    198c:	019c0323          	sb	s9,6(s8)
    1990:	00001cb7          	lui	s9,0x1
    1994:	01910cb3          	add	s9,sp,s9
    1998:	ed8cbc83          	ld	s9,-296(s9) # ed8 <.LBB28_3+0x414>
    199c:	080ccc93          	xori	s9,s9,128
    19a0:	019c03a3          	sb	s9,7(s8)
    19a4:	00001cb7          	lui	s9,0x1
    19a8:	01910cb3          	add	s9,sp,s9
    19ac:	ef0cbc83          	ld	s9,-272(s9) # ef0 <.LBB28_3+0x42c>
    19b0:	080ccc93          	xori	s9,s9,128
    19b4:	019c0423          	sb	s9,8(s8)
    19b8:	00001cb7          	lui	s9,0x1
    19bc:	01910cb3          	add	s9,sp,s9
    19c0:	f00cbc83          	ld	s9,-256(s9) # f00 <.LBB28_3+0x43c>
    19c4:	080ccc93          	xori	s9,s9,128
    19c8:	019c04a3          	sb	s9,9(s8)
    19cc:	00001cb7          	lui	s9,0x1
    19d0:	01910cb3          	add	s9,sp,s9
    19d4:	f10cbc83          	ld	s9,-240(s9) # f10 <.LBB28_3+0x44c>
    19d8:	080ccc93          	xori	s9,s9,128
    19dc:	019c0523          	sb	s9,10(s8)
    19e0:	00001cb7          	lui	s9,0x1
    19e4:	01910cb3          	add	s9,sp,s9
    19e8:	f20cbc83          	ld	s9,-224(s9) # f20 <.LBB28_3+0x45c>
    19ec:	080ccc93          	xori	s9,s9,128
    19f0:	019c05a3          	sb	s9,11(s8)
    19f4:	00001cb7          	lui	s9,0x1
    19f8:	01910cb3          	add	s9,sp,s9
    19fc:	f38cbc83          	ld	s9,-200(s9) # f38 <.LBB28_3+0x474>
    1a00:	080ccc93          	xori	s9,s9,128
    1a04:	019c0623          	sb	s9,12(s8)
    1a08:	00001cb7          	lui	s9,0x1
    1a0c:	01910cb3          	add	s9,sp,s9
    1a10:	f48cbc83          	ld	s9,-184(s9) # f48 <.LBB28_3+0x484>
    1a14:	080ccc93          	xori	s9,s9,128
    1a18:	019c06a3          	sb	s9,13(s8)
    1a1c:	00001cb7          	lui	s9,0x1
    1a20:	01910cb3          	add	s9,sp,s9
    1a24:	f58cbc83          	ld	s9,-168(s9) # f58 <.LBB28_3+0x494>
    1a28:	080ccc93          	xori	s9,s9,128
    1a2c:	019c0723          	sb	s9,14(s8)
    1a30:	00001cb7          	lui	s9,0x1
    1a34:	01910cb3          	add	s9,sp,s9
    1a38:	f68cbc83          	ld	s9,-152(s9) # f68 <.LBB28_3+0x4a4>
    1a3c:	080ccc93          	xori	s9,s9,128
    1a40:	019c07a3          	sb	s9,15(s8)
    1a44:	00001cb7          	lui	s9,0x1
    1a48:	01910cb3          	add	s9,sp,s9
    1a4c:	f80cbc83          	ld	s9,-128(s9) # f80 <.LBB28_3+0x4bc>
    1a50:	080ccc93          	xori	s9,s9,128
    1a54:	019c0823          	sb	s9,16(s8)
    1a58:	00001cb7          	lui	s9,0x1
    1a5c:	01910cb3          	add	s9,sp,s9
    1a60:	f90cbc83          	ld	s9,-112(s9) # f90 <.LBB28_3+0x4cc>
    1a64:	080ccc93          	xori	s9,s9,128
    1a68:	019c08a3          	sb	s9,17(s8)
    1a6c:	00001cb7          	lui	s9,0x1
    1a70:	01910cb3          	add	s9,sp,s9
    1a74:	fa0cbc83          	ld	s9,-96(s9) # fa0 <.LBB28_3+0x4dc>
    1a78:	080ccc93          	xori	s9,s9,128
    1a7c:	019c0923          	sb	s9,18(s8)
    1a80:	00001cb7          	lui	s9,0x1
    1a84:	01910cb3          	add	s9,sp,s9
    1a88:	fb8cbc83          	ld	s9,-72(s9) # fb8 <.LBB28_3+0x4f4>
    1a8c:	080ccc93          	xori	s9,s9,128
    1a90:	019c09a3          	sb	s9,19(s8)
    1a94:	00001cb7          	lui	s9,0x1
    1a98:	01910cb3          	add	s9,sp,s9
    1a9c:	fc8cbc83          	ld	s9,-56(s9) # fc8 <.LBB28_3+0x504>
    1aa0:	080ccc93          	xori	s9,s9,128
    1aa4:	019c0a23          	sb	s9,20(s8)
    1aa8:	00001cb7          	lui	s9,0x1
    1aac:	01910cb3          	add	s9,sp,s9
    1ab0:	fd8cbc83          	ld	s9,-40(s9) # fd8 <.LBB28_3+0x514>
    1ab4:	080ccc93          	xori	s9,s9,128
    1ab8:	019c0aa3          	sb	s9,21(s8)
    1abc:	00001cb7          	lui	s9,0x1
    1ac0:	01910cb3          	add	s9,sp,s9
    1ac4:	fe8cbc83          	ld	s9,-24(s9) # fe8 <.LBB28_3+0x524>
    1ac8:	080ccc93          	xori	s9,s9,128
    1acc:	019c0b23          	sb	s9,22(s8)
    1ad0:	00001cb7          	lui	s9,0x1
    1ad4:	01910cb3          	add	s9,sp,s9
    1ad8:	000cbc83          	ld	s9,0(s9) # 1000 <.LBB28_3+0x53c>
    1adc:	080ccc93          	xori	s9,s9,128
    1ae0:	019c0ba3          	sb	s9,23(s8)
    1ae4:	00001cb7          	lui	s9,0x1
    1ae8:	01910cb3          	add	s9,sp,s9
    1aec:	010cbc83          	ld	s9,16(s9) # 1010 <.LBB28_3+0x54c>
    1af0:	080ccc93          	xori	s9,s9,128
    1af4:	019c0c23          	sb	s9,24(s8)
    1af8:	00001cb7          	lui	s9,0x1
    1afc:	01910cb3          	add	s9,sp,s9
    1b00:	020cbc83          	ld	s9,32(s9) # 1020 <.LBB28_3+0x55c>
    1b04:	080ccc93          	xori	s9,s9,128
    1b08:	019c0ca3          	sb	s9,25(s8)
    1b0c:	00001cb7          	lui	s9,0x1
    1b10:	01910cb3          	add	s9,sp,s9
    1b14:	030cbc83          	ld	s9,48(s9) # 1030 <.LBB28_3+0x56c>
    1b18:	080ccc93          	xori	s9,s9,128
    1b1c:	019c0d23          	sb	s9,26(s8)
    1b20:	00001cb7          	lui	s9,0x1
    1b24:	01910cb3          	add	s9,sp,s9
    1b28:	040cbc83          	ld	s9,64(s9) # 1040 <.LBB28_3+0x57c>
    1b2c:	080ccc93          	xori	s9,s9,128
    1b30:	019c0da3          	sb	s9,27(s8)
    1b34:	00001cb7          	lui	s9,0x1
    1b38:	01910cb3          	add	s9,sp,s9
    1b3c:	050cbc83          	ld	s9,80(s9) # 1050 <.LBB28_3+0x58c>
    1b40:	080ccc93          	xori	s9,s9,128
    1b44:	019c0e23          	sb	s9,28(s8)
    1b48:	00001cb7          	lui	s9,0x1
    1b4c:	01910cb3          	add	s9,sp,s9
    1b50:	060cbc83          	ld	s9,96(s9) # 1060 <.LBB28_3+0x59c>
    1b54:	080ccc93          	xori	s9,s9,128
    1b58:	019c0ea3          	sb	s9,29(s8)
    1b5c:	00001cb7          	lui	s9,0x1
    1b60:	01910cb3          	add	s9,sp,s9
    1b64:	070cbc83          	ld	s9,112(s9) # 1070 <.LBB28_3+0x5ac>
    1b68:	080ccc93          	xori	s9,s9,128
    1b6c:	019c0f23          	sb	s9,30(s8)
    1b70:	00001cb7          	lui	s9,0x1
    1b74:	01910cb3          	add	s9,sp,s9
    1b78:	080cbc83          	ld	s9,128(s9) # 1080 <.LBB28_3+0x5bc>
    1b7c:	080ccc93          	xori	s9,s9,128
    1b80:	019c0fa3          	sb	s9,31(s8)
    1b84:	00001c37          	lui	s8,0x1
    1b88:	01810c33          	add	s8,sp,s8
    1b8c:	090c3c03          	ld	s8,144(s8) # 1090 <.LBB28_3+0x5cc>
    1b90:	080c4c93          	xori	s9,s8,128
    1b94:	08813c03          	ld	s8,136(sp)
    1b98:	01ac0c33          	add	s8,s8,s10
    1b9c:	019c0223          	sb	s9,4(s8)
    1ba0:	00001cb7          	lui	s9,0x1
    1ba4:	01910cb3          	add	s9,sp,s9
    1ba8:	0a0cbc83          	ld	s9,160(s9) # 10a0 <.LBB28_3+0x5dc>
    1bac:	080ccc93          	xori	s9,s9,128
    1bb0:	019c01a3          	sb	s9,3(s8)
    1bb4:	00001cb7          	lui	s9,0x1
    1bb8:	01910cb3          	add	s9,sp,s9
    1bbc:	0b0cbc83          	ld	s9,176(s9) # 10b0 <.LBB28_3+0x5ec>
    1bc0:	080ccc93          	xori	s9,s9,128
    1bc4:	019c0123          	sb	s9,2(s8)
    1bc8:	00001cb7          	lui	s9,0x1
    1bcc:	01910cb3          	add	s9,sp,s9
    1bd0:	0c0cbc83          	ld	s9,192(s9) # 10c0 <.LBB28_3+0x5fc>
    1bd4:	080ccc93          	xori	s9,s9,128
    1bd8:	019c00a3          	sb	s9,1(s8)
    1bdc:	00001cb7          	lui	s9,0x1
    1be0:	01910cb3          	add	s9,sp,s9
    1be4:	0d0cbc83          	ld	s9,208(s9) # 10d0 <.LBB28_3+0x60c>
    1be8:	080ccc93          	xori	s9,s9,128
    1bec:	019c0023          	sb	s9,0(s8)
    1bf0:	00001cb7          	lui	s9,0x1
    1bf4:	01910cb3          	add	s9,sp,s9
    1bf8:	0e0cbc83          	ld	s9,224(s9) # 10e0 <.LBB28_3+0x61c>
    1bfc:	080ccc93          	xori	s9,s9,128
    1c00:	019c02a3          	sb	s9,5(s8)
    1c04:	00001cb7          	lui	s9,0x1
    1c08:	01910cb3          	add	s9,sp,s9
    1c0c:	0f0cbc83          	ld	s9,240(s9) # 10f0 <.LBB28_3+0x62c>
    1c10:	080ccc93          	xori	s9,s9,128
    1c14:	019c0323          	sb	s9,6(s8)
    1c18:	00001cb7          	lui	s9,0x1
    1c1c:	01910cb3          	add	s9,sp,s9
    1c20:	0f8cbc83          	ld	s9,248(s9) # 10f8 <.LBB28_3+0x634>
    1c24:	080ccc93          	xori	s9,s9,128
    1c28:	019c03a3          	sb	s9,7(s8)
    1c2c:	00001cb7          	lui	s9,0x1
    1c30:	01910cb3          	add	s9,sp,s9
    1c34:	208cbc83          	ld	s9,520(s9) # 1208 <.LBB28_3+0x744>
    1c38:	080ccc93          	xori	s9,s9,128
    1c3c:	019c0423          	sb	s9,8(s8)
    1c40:	080dcc93          	xori	s9,s11,128
    1c44:	019c04a3          	sb	s9,9(s8)
    1c48:	08054513          	xori	a0,a0,128
    1c4c:	00ac0523          	sb	a0,10(s8)
    1c50:	0805c513          	xori	a0,a1,128
    1c54:	00ac05a3          	sb	a0,11(s8)
    1c58:	08064513          	xori	a0,a2,128
    1c5c:	00ac0623          	sb	a0,12(s8)
    1c60:	0806c513          	xori	a0,a3,128
    1c64:	00ac06a3          	sb	a0,13(s8)
    1c68:	08074513          	xori	a0,a4,128
    1c6c:	00ac0723          	sb	a0,14(s8)
    1c70:	0807c513          	xori	a0,a5,128
    1c74:	00ac07a3          	sb	a0,15(s8)
    1c78:	08084513          	xori	a0,a6,128
    1c7c:	00ac0823          	sb	a0,16(s8)
    1c80:	0808c513          	xori	a0,a7,128
    1c84:	00ac08a3          	sb	a0,17(s8)
    1c88:	0802c513          	xori	a0,t0,128
    1c8c:	00ac0923          	sb	a0,18(s8)
    1c90:	08034513          	xori	a0,t1,128
    1c94:	00ac09a3          	sb	a0,19(s8)
    1c98:	0803c513          	xori	a0,t2,128
    1c9c:	00ac0a23          	sb	a0,20(s8)
    1ca0:	080e4513          	xori	a0,t3,128
    1ca4:	00ac0aa3          	sb	a0,21(s8)
    1ca8:	080ec513          	xori	a0,t4,128
    1cac:	00ac0b23          	sb	a0,22(s8)
    1cb0:	080f4513          	xori	a0,t5,128
    1cb4:	00ac0ba3          	sb	a0,23(s8)
    1cb8:	080fc513          	xori	a0,t6,128
    1cbc:	00ac0c23          	sb	a0,24(s8)
    1cc0:	0804c513          	xori	a0,s1,128
    1cc4:	00ac0ca3          	sb	a0,25(s8)
    1cc8:	08094513          	xori	a0,s2,128
    1ccc:	00ac0d23          	sb	a0,26(s8)
    1cd0:	0809c513          	xori	a0,s3,128
    1cd4:	00ac0da3          	sb	a0,27(s8)
    1cd8:	080a4513          	xori	a0,s4,128
    1cdc:	00ac0e23          	sb	a0,28(s8)
    1ce0:	080ac513          	xori	a0,s5,128
    1ce4:	00ac0ea3          	sb	a0,29(s8)
    1ce8:	080b4513          	xori	a0,s6,128
    1cec:	00ac0f23          	sb	a0,30(s8)
    1cf0:	080bc513          	xori	a0,s7,128
    1cf4:	00ac0fa3          	sb	a0,31(s8)
    1cf8:	020d0513          	addi	a0,s10,32
    1cfc:	000015b7          	lui	a1,0x1
    1d00:	00b105b3          	add	a1,sp,a1
    1d04:	9c05b083          	ld	ra,-1600(a1) # 9c0 <.LBB28_1+0x8a4>
    1d08:	02008093          	addi	ra,ra,32
    1d0c:	06000593          	li	a1,96
    1d10:	00bd6463          	bltu	s10,a1,1d18 <.LBB28_4>
    1d14:	7d80c06f          	j	e4ec <.LBB28_1030>

0000000000001d18 <.LBB28_4>:
    1d18:	000015b7          	lui	a1,0x1
    1d1c:	00b105b3          	add	a1,sp,a1
    1d20:	9ca5bc23          	sd	a0,-1576(a1) # 9d8 <.LBB28_1+0x8bc>
    1d24:	00001537          	lui	a0,0x1
    1d28:	00a10533          	add	a0,sp,a0
    1d2c:	9c153023          	sd	ra,-1600(a0) # 9c0 <.LBB28_1+0x8a4>
    1d30:	0c813583          	ld	a1,200(sp)
    1d34:	00001537          	lui	a0,0x1
    1d38:	00a10533          	add	a0,sp,a0
    1d3c:	a2053c23          	sd	zero,-1480(a0) # a38 <.LBB28_2+0xc>
    1d40:	00001537          	lui	a0,0x1
    1d44:	00a10533          	add	a0,sp,a0
    1d48:	a2053823          	sd	zero,-1488(a0) # a30 <.LBB28_2+0x4>
    1d4c:	00001537          	lui	a0,0x1
    1d50:	00a10533          	add	a0,sp,a0
    1d54:	a2053423          	sd	zero,-1496(a0) # a28 <.LBB28_1+0x90c>
    1d58:	00001537          	lui	a0,0x1
    1d5c:	00a10533          	add	a0,sp,a0
    1d60:	a2053023          	sd	zero,-1504(a0) # a20 <.LBB28_1+0x904>
    1d64:	00001537          	lui	a0,0x1
    1d68:	00a10533          	add	a0,sp,a0
    1d6c:	a4053023          	sd	zero,-1472(a0) # a40 <.LBB28_2+0x14>
    1d70:	00001537          	lui	a0,0x1
    1d74:	00a10533          	add	a0,sp,a0
    1d78:	a0053c23          	sd	zero,-1512(a0) # a18 <.LBB28_1+0x8fc>
    1d7c:	00001537          	lui	a0,0x1
    1d80:	00a10533          	add	a0,sp,a0
    1d84:	a0053823          	sd	zero,-1520(a0) # a10 <.LBB28_1+0x8f4>
    1d88:	00001537          	lui	a0,0x1
    1d8c:	00a10533          	add	a0,sp,a0
    1d90:	a0053423          	sd	zero,-1528(a0) # a08 <.LBB28_1+0x8ec>
    1d94:	00001537          	lui	a0,0x1
    1d98:	00a10533          	add	a0,sp,a0
    1d9c:	a0053023          	sd	zero,-1536(a0) # a00 <.LBB28_1+0x8e4>
    1da0:	00001537          	lui	a0,0x1
    1da4:	00a10533          	add	a0,sp,a0
    1da8:	a4053423          	sd	zero,-1464(a0) # a48 <.LBB28_2+0x1c>
    1dac:	00001537          	lui	a0,0x1
    1db0:	00a10533          	add	a0,sp,a0
    1db4:	a4053823          	sd	zero,-1456(a0) # a50 <.LBB28_2+0x24>
    1db8:	00001537          	lui	a0,0x1
    1dbc:	00a10533          	add	a0,sp,a0
    1dc0:	a4053c23          	sd	zero,-1448(a0) # a58 <.LBB28_2+0x2c>
    1dc4:	00001537          	lui	a0,0x1
    1dc8:	00a10533          	add	a0,sp,a0
    1dcc:	a6053023          	sd	zero,-1440(a0) # a60 <.LBB28_2+0x34>
    1dd0:	00001537          	lui	a0,0x1
    1dd4:	00a10533          	add	a0,sp,a0
    1dd8:	a6053423          	sd	zero,-1432(a0) # a68 <.LBB28_2+0x3c>
    1ddc:	00001537          	lui	a0,0x1
    1de0:	00a10533          	add	a0,sp,a0
    1de4:	a6053823          	sd	zero,-1424(a0) # a70 <.LBB28_2+0x44>
    1de8:	00001537          	lui	a0,0x1
    1dec:	00a10533          	add	a0,sp,a0
    1df0:	a6053c23          	sd	zero,-1416(a0) # a78 <.LBB28_2+0x4c>
    1df4:	00001537          	lui	a0,0x1
    1df8:	00a10533          	add	a0,sp,a0
    1dfc:	a8053023          	sd	zero,-1408(a0) # a80 <.LBB28_2+0x54>
    1e00:	00001537          	lui	a0,0x1
    1e04:	00a10533          	add	a0,sp,a0
    1e08:	a8053423          	sd	zero,-1400(a0) # a88 <.LBB28_2+0x5c>
    1e0c:	00001537          	lui	a0,0x1
    1e10:	00a10533          	add	a0,sp,a0
    1e14:	a8053823          	sd	zero,-1392(a0) # a90 <.LBB28_2+0x64>
    1e18:	00001537          	lui	a0,0x1
    1e1c:	00a10533          	add	a0,sp,a0
    1e20:	a8053c23          	sd	zero,-1384(a0) # a98 <.LBB28_2+0x6c>
    1e24:	00001537          	lui	a0,0x1
    1e28:	00a10533          	add	a0,sp,a0
    1e2c:	aa053023          	sd	zero,-1376(a0) # aa0 <.LBB28_2+0x74>
    1e30:	00001537          	lui	a0,0x1
    1e34:	00a10533          	add	a0,sp,a0
    1e38:	aa053423          	sd	zero,-1368(a0) # aa8 <.LBB28_2+0x7c>
    1e3c:	00001537          	lui	a0,0x1
    1e40:	00a10533          	add	a0,sp,a0
    1e44:	aa053823          	sd	zero,-1360(a0) # ab0 <.LBB28_2+0x84>
    1e48:	00001537          	lui	a0,0x1
    1e4c:	00a10533          	add	a0,sp,a0
    1e50:	aa053c23          	sd	zero,-1352(a0) # ab8 <.LBB28_2+0x8c>
    1e54:	00001537          	lui	a0,0x1
    1e58:	00a10533          	add	a0,sp,a0
    1e5c:	ac053023          	sd	zero,-1344(a0) # ac0 <.LBB28_2+0x94>
    1e60:	00001537          	lui	a0,0x1
    1e64:	00a10533          	add	a0,sp,a0
    1e68:	ac053423          	sd	zero,-1336(a0) # ac8 <.LBB28_3+0x4>
    1e6c:	00001537          	lui	a0,0x1
    1e70:	00a10533          	add	a0,sp,a0
    1e74:	ac053823          	sd	zero,-1328(a0) # ad0 <.LBB28_3+0xc>
    1e78:	00001537          	lui	a0,0x1
    1e7c:	00a10533          	add	a0,sp,a0
    1e80:	ac053c23          	sd	zero,-1320(a0) # ad8 <.LBB28_3+0x14>
    1e84:	00001537          	lui	a0,0x1
    1e88:	00a10533          	add	a0,sp,a0
    1e8c:	ae053023          	sd	zero,-1312(a0) # ae0 <.LBB28_3+0x1c>
    1e90:	00001537          	lui	a0,0x1
    1e94:	00a10533          	add	a0,sp,a0
    1e98:	ae053423          	sd	zero,-1304(a0) # ae8 <.LBB28_3+0x24>
    1e9c:	00001537          	lui	a0,0x1
    1ea0:	00a10533          	add	a0,sp,a0
    1ea4:	ae053823          	sd	zero,-1296(a0) # af0 <.LBB28_3+0x2c>
    1ea8:	00001537          	lui	a0,0x1
    1eac:	00a10533          	add	a0,sp,a0
    1eb0:	ae053c23          	sd	zero,-1288(a0) # af8 <.LBB28_3+0x34>
    1eb4:	00001537          	lui	a0,0x1
    1eb8:	00a10533          	add	a0,sp,a0
    1ebc:	b2053023          	sd	zero,-1248(a0) # b20 <.LBB28_3+0x5c>
    1ec0:	00001537          	lui	a0,0x1
    1ec4:	00a10533          	add	a0,sp,a0
    1ec8:	b0053c23          	sd	zero,-1256(a0) # b18 <.LBB28_3+0x54>
    1ecc:	00001537          	lui	a0,0x1
    1ed0:	00a10533          	add	a0,sp,a0
    1ed4:	b0053823          	sd	zero,-1264(a0) # b10 <.LBB28_3+0x4c>
    1ed8:	00001537          	lui	a0,0x1
    1edc:	00a10533          	add	a0,sp,a0
    1ee0:	b0053423          	sd	zero,-1272(a0) # b08 <.LBB28_3+0x44>
    1ee4:	00001537          	lui	a0,0x1
    1ee8:	00a10533          	add	a0,sp,a0
    1eec:	b0053023          	sd	zero,-1280(a0) # b00 <.LBB28_3+0x3c>
    1ef0:	00001537          	lui	a0,0x1
    1ef4:	00a10533          	add	a0,sp,a0
    1ef8:	b2053423          	sd	zero,-1240(a0) # b28 <.LBB28_3+0x64>
    1efc:	00001537          	lui	a0,0x1
    1f00:	00a10533          	add	a0,sp,a0
    1f04:	b2053823          	sd	zero,-1232(a0) # b30 <.LBB28_3+0x6c>
    1f08:	00001537          	lui	a0,0x1
    1f0c:	00a10533          	add	a0,sp,a0
    1f10:	b2053c23          	sd	zero,-1224(a0) # b38 <.LBB28_3+0x74>
    1f14:	00001537          	lui	a0,0x1
    1f18:	00a10533          	add	a0,sp,a0
    1f1c:	b4053023          	sd	zero,-1216(a0) # b40 <.LBB28_3+0x7c>
    1f20:	00001537          	lui	a0,0x1
    1f24:	00a10533          	add	a0,sp,a0
    1f28:	b4053423          	sd	zero,-1208(a0) # b48 <.LBB28_3+0x84>
    1f2c:	00001537          	lui	a0,0x1
    1f30:	00a10533          	add	a0,sp,a0
    1f34:	b4053823          	sd	zero,-1200(a0) # b50 <.LBB28_3+0x8c>
    1f38:	00001537          	lui	a0,0x1
    1f3c:	00a10533          	add	a0,sp,a0
    1f40:	b4053c23          	sd	zero,-1192(a0) # b58 <.LBB28_3+0x94>
    1f44:	00001537          	lui	a0,0x1
    1f48:	00a10533          	add	a0,sp,a0
    1f4c:	b6053023          	sd	zero,-1184(a0) # b60 <.LBB28_3+0x9c>
    1f50:	00001537          	lui	a0,0x1
    1f54:	00a10533          	add	a0,sp,a0
    1f58:	b6053423          	sd	zero,-1176(a0) # b68 <.LBB28_3+0xa4>
    1f5c:	00001537          	lui	a0,0x1
    1f60:	00a10533          	add	a0,sp,a0
    1f64:	b6053823          	sd	zero,-1168(a0) # b70 <.LBB28_3+0xac>
    1f68:	00001537          	lui	a0,0x1
    1f6c:	00a10533          	add	a0,sp,a0
    1f70:	b6053c23          	sd	zero,-1160(a0) # b78 <.LBB28_3+0xb4>
    1f74:	00001537          	lui	a0,0x1
    1f78:	00a10533          	add	a0,sp,a0
    1f7c:	b8053023          	sd	zero,-1152(a0) # b80 <.LBB28_3+0xbc>
    1f80:	00001537          	lui	a0,0x1
    1f84:	00a10533          	add	a0,sp,a0
    1f88:	b8053423          	sd	zero,-1144(a0) # b88 <.LBB28_3+0xc4>
    1f8c:	00001537          	lui	a0,0x1
    1f90:	00a10533          	add	a0,sp,a0
    1f94:	b8053823          	sd	zero,-1136(a0) # b90 <.LBB28_3+0xcc>
    1f98:	00001537          	lui	a0,0x1
    1f9c:	00a10533          	add	a0,sp,a0
    1fa0:	b8053c23          	sd	zero,-1128(a0) # b98 <.LBB28_3+0xd4>
    1fa4:	00001537          	lui	a0,0x1
    1fa8:	00a10533          	add	a0,sp,a0
    1fac:	ba053023          	sd	zero,-1120(a0) # ba0 <.LBB28_3+0xdc>
    1fb0:	00001537          	lui	a0,0x1
    1fb4:	00a10533          	add	a0,sp,a0
    1fb8:	ba053423          	sd	zero,-1112(a0) # ba8 <.LBB28_3+0xe4>
    1fbc:	00001537          	lui	a0,0x1
    1fc0:	00a10533          	add	a0,sp,a0
    1fc4:	ba053823          	sd	zero,-1104(a0) # bb0 <.LBB28_3+0xec>
    1fc8:	00001537          	lui	a0,0x1
    1fcc:	00a10533          	add	a0,sp,a0
    1fd0:	ba053c23          	sd	zero,-1096(a0) # bb8 <.LBB28_3+0xf4>
    1fd4:	00001537          	lui	a0,0x1
    1fd8:	00a10533          	add	a0,sp,a0
    1fdc:	bc053023          	sd	zero,-1088(a0) # bc0 <.LBB28_3+0xfc>
    1fe0:	00001537          	lui	a0,0x1
    1fe4:	00a10533          	add	a0,sp,a0
    1fe8:	bc053423          	sd	zero,-1080(a0) # bc8 <.LBB28_3+0x104>
    1fec:	00001537          	lui	a0,0x1
    1ff0:	00a10533          	add	a0,sp,a0
    1ff4:	bc053823          	sd	zero,-1072(a0) # bd0 <.LBB28_3+0x10c>
    1ff8:	00001537          	lui	a0,0x1
    1ffc:	00a10533          	add	a0,sp,a0
    2000:	bc053c23          	sd	zero,-1064(a0) # bd8 <.LBB28_3+0x114>
    2004:	00001537          	lui	a0,0x1
    2008:	00a10533          	add	a0,sp,a0
    200c:	be053023          	sd	zero,-1056(a0) # be0 <.LBB28_3+0x11c>
    2010:	00001537          	lui	a0,0x1
    2014:	00a10533          	add	a0,sp,a0
    2018:	be053423          	sd	zero,-1048(a0) # be8 <.LBB28_3+0x124>
    201c:	00001537          	lui	a0,0x1
    2020:	00a10533          	add	a0,sp,a0
    2024:	be053823          	sd	zero,-1040(a0) # bf0 <.LBB28_3+0x12c>
    2028:	00001537          	lui	a0,0x1
    202c:	00a10533          	add	a0,sp,a0
    2030:	be053c23          	sd	zero,-1032(a0) # bf8 <.LBB28_3+0x134>
    2034:	00001537          	lui	a0,0x1
    2038:	00a10533          	add	a0,sp,a0
    203c:	c2053023          	sd	zero,-992(a0) # c20 <.LBB28_3+0x15c>
    2040:	00001537          	lui	a0,0x1
    2044:	00a10533          	add	a0,sp,a0
    2048:	c0053c23          	sd	zero,-1000(a0) # c18 <.LBB28_3+0x154>
    204c:	00001537          	lui	a0,0x1
    2050:	00a10533          	add	a0,sp,a0
    2054:	c0053823          	sd	zero,-1008(a0) # c10 <.LBB28_3+0x14c>
    2058:	00001537          	lui	a0,0x1
    205c:	00a10533          	add	a0,sp,a0
    2060:	c0053423          	sd	zero,-1016(a0) # c08 <.LBB28_3+0x144>
    2064:	00001537          	lui	a0,0x1
    2068:	00a10533          	add	a0,sp,a0
    206c:	c0053023          	sd	zero,-1024(a0) # c00 <.LBB28_3+0x13c>
    2070:	00001537          	lui	a0,0x1
    2074:	00a10533          	add	a0,sp,a0
    2078:	c2053423          	sd	zero,-984(a0) # c28 <.LBB28_3+0x164>
    207c:	00001537          	lui	a0,0x1
    2080:	00a10533          	add	a0,sp,a0
    2084:	c2053823          	sd	zero,-976(a0) # c30 <.LBB28_3+0x16c>
    2088:	00001537          	lui	a0,0x1
    208c:	00a10533          	add	a0,sp,a0
    2090:	c2053c23          	sd	zero,-968(a0) # c38 <.LBB28_3+0x174>
    2094:	00001537          	lui	a0,0x1
    2098:	00a10533          	add	a0,sp,a0
    209c:	c4053023          	sd	zero,-960(a0) # c40 <.LBB28_3+0x17c>
    20a0:	00001537          	lui	a0,0x1
    20a4:	00a10533          	add	a0,sp,a0
    20a8:	c4053423          	sd	zero,-952(a0) # c48 <.LBB28_3+0x184>
    20ac:	00001537          	lui	a0,0x1
    20b0:	00a10533          	add	a0,sp,a0
    20b4:	c4053823          	sd	zero,-944(a0) # c50 <.LBB28_3+0x18c>
    20b8:	00001537          	lui	a0,0x1
    20bc:	00a10533          	add	a0,sp,a0
    20c0:	c4053c23          	sd	zero,-936(a0) # c58 <.LBB28_3+0x194>
    20c4:	00001537          	lui	a0,0x1
    20c8:	00a10533          	add	a0,sp,a0
    20cc:	c6053023          	sd	zero,-928(a0) # c60 <.LBB28_3+0x19c>
    20d0:	00001537          	lui	a0,0x1
    20d4:	00a10533          	add	a0,sp,a0
    20d8:	c6053423          	sd	zero,-920(a0) # c68 <.LBB28_3+0x1a4>
    20dc:	00001537          	lui	a0,0x1
    20e0:	00a10533          	add	a0,sp,a0
    20e4:	c6053823          	sd	zero,-912(a0) # c70 <.LBB28_3+0x1ac>
    20e8:	00001537          	lui	a0,0x1
    20ec:	00a10533          	add	a0,sp,a0
    20f0:	c6053c23          	sd	zero,-904(a0) # c78 <.LBB28_3+0x1b4>
    20f4:	00001537          	lui	a0,0x1
    20f8:	00a10533          	add	a0,sp,a0
    20fc:	c8053023          	sd	zero,-896(a0) # c80 <.LBB28_3+0x1bc>
    2100:	00001537          	lui	a0,0x1
    2104:	00a10533          	add	a0,sp,a0
    2108:	c8053423          	sd	zero,-888(a0) # c88 <.LBB28_3+0x1c4>
    210c:	00001537          	lui	a0,0x1
    2110:	00a10533          	add	a0,sp,a0
    2114:	c8053823          	sd	zero,-880(a0) # c90 <.LBB28_3+0x1cc>
    2118:	00001537          	lui	a0,0x1
    211c:	00a10533          	add	a0,sp,a0
    2120:	c8053c23          	sd	zero,-872(a0) # c98 <.LBB28_3+0x1d4>
    2124:	00001537          	lui	a0,0x1
    2128:	00a10533          	add	a0,sp,a0
    212c:	ca053023          	sd	zero,-864(a0) # ca0 <.LBB28_3+0x1dc>
    2130:	00001537          	lui	a0,0x1
    2134:	00a10533          	add	a0,sp,a0
    2138:	ca053423          	sd	zero,-856(a0) # ca8 <.LBB28_3+0x1e4>
    213c:	00001537          	lui	a0,0x1
    2140:	00a10533          	add	a0,sp,a0
    2144:	ca053823          	sd	zero,-848(a0) # cb0 <.LBB28_3+0x1ec>
    2148:	00001537          	lui	a0,0x1
    214c:	00a10533          	add	a0,sp,a0
    2150:	ca053c23          	sd	zero,-840(a0) # cb8 <.LBB28_3+0x1f4>
    2154:	00001537          	lui	a0,0x1
    2158:	00a10533          	add	a0,sp,a0
    215c:	cc053023          	sd	zero,-832(a0) # cc0 <.LBB28_3+0x1fc>
    2160:	00001537          	lui	a0,0x1
    2164:	00a10533          	add	a0,sp,a0
    2168:	cc053423          	sd	zero,-824(a0) # cc8 <.LBB28_3+0x204>
    216c:	00001537          	lui	a0,0x1
    2170:	00a10533          	add	a0,sp,a0
    2174:	cc053823          	sd	zero,-816(a0) # cd0 <.LBB28_3+0x20c>
    2178:	00001537          	lui	a0,0x1
    217c:	00a10533          	add	a0,sp,a0
    2180:	cc053c23          	sd	zero,-808(a0) # cd8 <.LBB28_3+0x214>
    2184:	00001537          	lui	a0,0x1
    2188:	00a10533          	add	a0,sp,a0
    218c:	ce053023          	sd	zero,-800(a0) # ce0 <.LBB28_3+0x21c>
    2190:	00001537          	lui	a0,0x1
    2194:	00a10533          	add	a0,sp,a0
    2198:	ce053423          	sd	zero,-792(a0) # ce8 <.LBB28_3+0x224>
    219c:	00001537          	lui	a0,0x1
    21a0:	00a10533          	add	a0,sp,a0
    21a4:	ce053823          	sd	zero,-784(a0) # cf0 <.LBB28_3+0x22c>
    21a8:	00001537          	lui	a0,0x1
    21ac:	00a10533          	add	a0,sp,a0
    21b0:	ce053c23          	sd	zero,-776(a0) # cf8 <.LBB28_3+0x234>
    21b4:	00001537          	lui	a0,0x1
    21b8:	00a10533          	add	a0,sp,a0
    21bc:	d2053023          	sd	zero,-736(a0) # d20 <.LBB28_3+0x25c>
    21c0:	00001537          	lui	a0,0x1
    21c4:	00a10533          	add	a0,sp,a0
    21c8:	d0053c23          	sd	zero,-744(a0) # d18 <.LBB28_3+0x254>
    21cc:	00001537          	lui	a0,0x1
    21d0:	00a10533          	add	a0,sp,a0
    21d4:	d0053823          	sd	zero,-752(a0) # d10 <.LBB28_3+0x24c>
    21d8:	00001537          	lui	a0,0x1
    21dc:	00a10533          	add	a0,sp,a0
    21e0:	d0053423          	sd	zero,-760(a0) # d08 <.LBB28_3+0x244>
    21e4:	00001537          	lui	a0,0x1
    21e8:	00a10533          	add	a0,sp,a0
    21ec:	d0053023          	sd	zero,-768(a0) # d00 <.LBB28_3+0x23c>
    21f0:	00001537          	lui	a0,0x1
    21f4:	00a10533          	add	a0,sp,a0
    21f8:	d2053423          	sd	zero,-728(a0) # d28 <.LBB28_3+0x264>
    21fc:	00001537          	lui	a0,0x1
    2200:	00a10533          	add	a0,sp,a0
    2204:	d2053823          	sd	zero,-720(a0) # d30 <.LBB28_3+0x26c>
    2208:	00001537          	lui	a0,0x1
    220c:	00a10533          	add	a0,sp,a0
    2210:	d2053c23          	sd	zero,-712(a0) # d38 <.LBB28_3+0x274>
    2214:	00001537          	lui	a0,0x1
    2218:	00a10533          	add	a0,sp,a0
    221c:	d4053023          	sd	zero,-704(a0) # d40 <.LBB28_3+0x27c>
    2220:	00001537          	lui	a0,0x1
    2224:	00a10533          	add	a0,sp,a0
    2228:	d4053423          	sd	zero,-696(a0) # d48 <.LBB28_3+0x284>
    222c:	00001537          	lui	a0,0x1
    2230:	00a10533          	add	a0,sp,a0
    2234:	d4053823          	sd	zero,-688(a0) # d50 <.LBB28_3+0x28c>
    2238:	00001537          	lui	a0,0x1
    223c:	00a10533          	add	a0,sp,a0
    2240:	d4053c23          	sd	zero,-680(a0) # d58 <.LBB28_3+0x294>
    2244:	00001537          	lui	a0,0x1
    2248:	00a10533          	add	a0,sp,a0
    224c:	d6053023          	sd	zero,-672(a0) # d60 <.LBB28_3+0x29c>
    2250:	00001537          	lui	a0,0x1
    2254:	00a10533          	add	a0,sp,a0
    2258:	d6053423          	sd	zero,-664(a0) # d68 <.LBB28_3+0x2a4>
    225c:	00001537          	lui	a0,0x1
    2260:	00a10533          	add	a0,sp,a0
    2264:	d6053823          	sd	zero,-656(a0) # d70 <.LBB28_3+0x2ac>
    2268:	00001537          	lui	a0,0x1
    226c:	00a10533          	add	a0,sp,a0
    2270:	d6053c23          	sd	zero,-648(a0) # d78 <.LBB28_3+0x2b4>
    2274:	00001537          	lui	a0,0x1
    2278:	00a10533          	add	a0,sp,a0
    227c:	d8053023          	sd	zero,-640(a0) # d80 <.LBB28_3+0x2bc>
    2280:	00001537          	lui	a0,0x1
    2284:	00a10533          	add	a0,sp,a0
    2288:	d8053423          	sd	zero,-632(a0) # d88 <.LBB28_3+0x2c4>
    228c:	00001537          	lui	a0,0x1
    2290:	00a10533          	add	a0,sp,a0
    2294:	d8053823          	sd	zero,-624(a0) # d90 <.LBB28_3+0x2cc>
    2298:	00001537          	lui	a0,0x1
    229c:	00a10533          	add	a0,sp,a0
    22a0:	d8053c23          	sd	zero,-616(a0) # d98 <.LBB28_3+0x2d4>
    22a4:	00001537          	lui	a0,0x1
    22a8:	00a10533          	add	a0,sp,a0
    22ac:	da053023          	sd	zero,-608(a0) # da0 <.LBB28_3+0x2dc>
    22b0:	00001537          	lui	a0,0x1
    22b4:	00a10533          	add	a0,sp,a0
    22b8:	da053423          	sd	zero,-600(a0) # da8 <.LBB28_3+0x2e4>
    22bc:	00001537          	lui	a0,0x1
    22c0:	00a10533          	add	a0,sp,a0
    22c4:	da053823          	sd	zero,-592(a0) # db0 <.LBB28_3+0x2ec>
    22c8:	00001537          	lui	a0,0x1
    22cc:	00a10533          	add	a0,sp,a0
    22d0:	da053c23          	sd	zero,-584(a0) # db8 <.LBB28_3+0x2f4>
    22d4:	00001537          	lui	a0,0x1
    22d8:	00a10533          	add	a0,sp,a0
    22dc:	dc053023          	sd	zero,-576(a0) # dc0 <.LBB28_3+0x2fc>
    22e0:	00001537          	lui	a0,0x1
    22e4:	00a10533          	add	a0,sp,a0
    22e8:	dc053423          	sd	zero,-568(a0) # dc8 <.LBB28_3+0x304>
    22ec:	00001537          	lui	a0,0x1
    22f0:	00a10533          	add	a0,sp,a0
    22f4:	dc053823          	sd	zero,-560(a0) # dd0 <.LBB28_3+0x30c>
    22f8:	00001537          	lui	a0,0x1
    22fc:	00a10533          	add	a0,sp,a0
    2300:	dc053c23          	sd	zero,-552(a0) # dd8 <.LBB28_3+0x314>
    2304:	00001537          	lui	a0,0x1
    2308:	00a10533          	add	a0,sp,a0
    230c:	de053023          	sd	zero,-544(a0) # de0 <.LBB28_3+0x31c>
    2310:	00001537          	lui	a0,0x1
    2314:	00a10533          	add	a0,sp,a0
    2318:	de053423          	sd	zero,-536(a0) # de8 <.LBB28_3+0x324>
    231c:	00001537          	lui	a0,0x1
    2320:	00a10533          	add	a0,sp,a0
    2324:	de053823          	sd	zero,-528(a0) # df0 <.LBB28_3+0x32c>
    2328:	00001537          	lui	a0,0x1
    232c:	00a10533          	add	a0,sp,a0
    2330:	de053c23          	sd	zero,-520(a0) # df8 <.LBB28_3+0x334>
    2334:	00001537          	lui	a0,0x1
    2338:	00a10533          	add	a0,sp,a0
    233c:	e2053023          	sd	zero,-480(a0) # e20 <.LBB28_3+0x35c>
    2340:	00001537          	lui	a0,0x1
    2344:	00a10533          	add	a0,sp,a0
    2348:	e0053c23          	sd	zero,-488(a0) # e18 <.LBB28_3+0x354>
    234c:	00001537          	lui	a0,0x1
    2350:	00a10533          	add	a0,sp,a0
    2354:	e0053823          	sd	zero,-496(a0) # e10 <.LBB28_3+0x34c>
    2358:	00001537          	lui	a0,0x1
    235c:	00a10533          	add	a0,sp,a0
    2360:	e0053423          	sd	zero,-504(a0) # e08 <.LBB28_3+0x344>
    2364:	00001537          	lui	a0,0x1
    2368:	00a10533          	add	a0,sp,a0
    236c:	e0053023          	sd	zero,-512(a0) # e00 <.LBB28_3+0x33c>
    2370:	00001537          	lui	a0,0x1
    2374:	00a10533          	add	a0,sp,a0
    2378:	e2053423          	sd	zero,-472(a0) # e28 <.LBB28_3+0x364>
    237c:	00001537          	lui	a0,0x1
    2380:	00a10533          	add	a0,sp,a0
    2384:	e2053823          	sd	zero,-464(a0) # e30 <.LBB28_3+0x36c>
    2388:	00001537          	lui	a0,0x1
    238c:	00a10533          	add	a0,sp,a0
    2390:	e2053c23          	sd	zero,-456(a0) # e38 <.LBB28_3+0x374>
    2394:	00001537          	lui	a0,0x1
    2398:	00a10533          	add	a0,sp,a0
    239c:	e4053023          	sd	zero,-448(a0) # e40 <.LBB28_3+0x37c>
    23a0:	00001537          	lui	a0,0x1
    23a4:	00a10533          	add	a0,sp,a0
    23a8:	e4053423          	sd	zero,-440(a0) # e48 <.LBB28_3+0x384>
    23ac:	00001537          	lui	a0,0x1
    23b0:	00a10533          	add	a0,sp,a0
    23b4:	e4053823          	sd	zero,-432(a0) # e50 <.LBB28_3+0x38c>
    23b8:	00001537          	lui	a0,0x1
    23bc:	00a10533          	add	a0,sp,a0
    23c0:	e4053c23          	sd	zero,-424(a0) # e58 <.LBB28_3+0x394>
    23c4:	00001537          	lui	a0,0x1
    23c8:	00a10533          	add	a0,sp,a0
    23cc:	e6053023          	sd	zero,-416(a0) # e60 <.LBB28_3+0x39c>
    23d0:	00001537          	lui	a0,0x1
    23d4:	00a10533          	add	a0,sp,a0
    23d8:	e6053423          	sd	zero,-408(a0) # e68 <.LBB28_3+0x3a4>
    23dc:	00001537          	lui	a0,0x1
    23e0:	00a10533          	add	a0,sp,a0
    23e4:	e6053823          	sd	zero,-400(a0) # e70 <.LBB28_3+0x3ac>
    23e8:	00001537          	lui	a0,0x1
    23ec:	00a10533          	add	a0,sp,a0
    23f0:	e6053c23          	sd	zero,-392(a0) # e78 <.LBB28_3+0x3b4>
    23f4:	00001537          	lui	a0,0x1
    23f8:	00a10533          	add	a0,sp,a0
    23fc:	e8053023          	sd	zero,-384(a0) # e80 <.LBB28_3+0x3bc>
    2400:	00001537          	lui	a0,0x1
    2404:	00a10533          	add	a0,sp,a0
    2408:	e8053423          	sd	zero,-376(a0) # e88 <.LBB28_3+0x3c4>
    240c:	00001537          	lui	a0,0x1
    2410:	00a10533          	add	a0,sp,a0
    2414:	e8053823          	sd	zero,-368(a0) # e90 <.LBB28_3+0x3cc>
    2418:	00001537          	lui	a0,0x1
    241c:	00a10533          	add	a0,sp,a0
    2420:	e8053c23          	sd	zero,-360(a0) # e98 <.LBB28_3+0x3d4>
    2424:	00001537          	lui	a0,0x1
    2428:	00a10533          	add	a0,sp,a0
    242c:	ea053023          	sd	zero,-352(a0) # ea0 <.LBB28_3+0x3dc>
    2430:	00001537          	lui	a0,0x1
    2434:	00a10533          	add	a0,sp,a0
    2438:	ea053423          	sd	zero,-344(a0) # ea8 <.LBB28_3+0x3e4>
    243c:	00001537          	lui	a0,0x1
    2440:	00a10533          	add	a0,sp,a0
    2444:	ea053823          	sd	zero,-336(a0) # eb0 <.LBB28_3+0x3ec>
    2448:	00001537          	lui	a0,0x1
    244c:	00a10533          	add	a0,sp,a0
    2450:	ea053c23          	sd	zero,-328(a0) # eb8 <.LBB28_3+0x3f4>
    2454:	00001537          	lui	a0,0x1
    2458:	00a10533          	add	a0,sp,a0
    245c:	ec053023          	sd	zero,-320(a0) # ec0 <.LBB28_3+0x3fc>
    2460:	00001537          	lui	a0,0x1
    2464:	00a10533          	add	a0,sp,a0
    2468:	ec053423          	sd	zero,-312(a0) # ec8 <.LBB28_3+0x404>
    246c:	00001537          	lui	a0,0x1
    2470:	00a10533          	add	a0,sp,a0
    2474:	ec053823          	sd	zero,-304(a0) # ed0 <.LBB28_3+0x40c>
    2478:	00001537          	lui	a0,0x1
    247c:	00a10533          	add	a0,sp,a0
    2480:	ec053c23          	sd	zero,-296(a0) # ed8 <.LBB28_3+0x414>
    2484:	00001537          	lui	a0,0x1
    2488:	00a10533          	add	a0,sp,a0
    248c:	ee053023          	sd	zero,-288(a0) # ee0 <.LBB28_3+0x41c>
    2490:	00001537          	lui	a0,0x1
    2494:	00a10533          	add	a0,sp,a0
    2498:	ee053423          	sd	zero,-280(a0) # ee8 <.LBB28_3+0x424>
    249c:	00001537          	lui	a0,0x1
    24a0:	00a10533          	add	a0,sp,a0
    24a4:	ee053823          	sd	zero,-272(a0) # ef0 <.LBB28_3+0x42c>
    24a8:	00001537          	lui	a0,0x1
    24ac:	00a10533          	add	a0,sp,a0
    24b0:	ee053c23          	sd	zero,-264(a0) # ef8 <.LBB28_3+0x434>
    24b4:	00001537          	lui	a0,0x1
    24b8:	00a10533          	add	a0,sp,a0
    24bc:	f2053023          	sd	zero,-224(a0) # f20 <.LBB28_3+0x45c>
    24c0:	00001537          	lui	a0,0x1
    24c4:	00a10533          	add	a0,sp,a0
    24c8:	f0053c23          	sd	zero,-232(a0) # f18 <.LBB28_3+0x454>
    24cc:	00001537          	lui	a0,0x1
    24d0:	00a10533          	add	a0,sp,a0
    24d4:	f0053823          	sd	zero,-240(a0) # f10 <.LBB28_3+0x44c>
    24d8:	00001537          	lui	a0,0x1
    24dc:	00a10533          	add	a0,sp,a0
    24e0:	f0053423          	sd	zero,-248(a0) # f08 <.LBB28_3+0x444>
    24e4:	00001537          	lui	a0,0x1
    24e8:	00a10533          	add	a0,sp,a0
    24ec:	f0053023          	sd	zero,-256(a0) # f00 <.LBB28_3+0x43c>
    24f0:	00001537          	lui	a0,0x1
    24f4:	00a10533          	add	a0,sp,a0
    24f8:	f2053423          	sd	zero,-216(a0) # f28 <.LBB28_3+0x464>
    24fc:	00001537          	lui	a0,0x1
    2500:	00a10533          	add	a0,sp,a0
    2504:	f2053823          	sd	zero,-208(a0) # f30 <.LBB28_3+0x46c>
    2508:	00001537          	lui	a0,0x1
    250c:	00a10533          	add	a0,sp,a0
    2510:	f2053c23          	sd	zero,-200(a0) # f38 <.LBB28_3+0x474>
    2514:	00001537          	lui	a0,0x1
    2518:	00a10533          	add	a0,sp,a0
    251c:	f4053023          	sd	zero,-192(a0) # f40 <.LBB28_3+0x47c>
    2520:	00001537          	lui	a0,0x1
    2524:	00a10533          	add	a0,sp,a0
    2528:	f4053423          	sd	zero,-184(a0) # f48 <.LBB28_3+0x484>
    252c:	00001537          	lui	a0,0x1
    2530:	00a10533          	add	a0,sp,a0
    2534:	f4053823          	sd	zero,-176(a0) # f50 <.LBB28_3+0x48c>
    2538:	00001537          	lui	a0,0x1
    253c:	00a10533          	add	a0,sp,a0
    2540:	f4053c23          	sd	zero,-168(a0) # f58 <.LBB28_3+0x494>
    2544:	00001537          	lui	a0,0x1
    2548:	00a10533          	add	a0,sp,a0
    254c:	f6053023          	sd	zero,-160(a0) # f60 <.LBB28_3+0x49c>
    2550:	00001537          	lui	a0,0x1
    2554:	00a10533          	add	a0,sp,a0
    2558:	f6053423          	sd	zero,-152(a0) # f68 <.LBB28_3+0x4a4>
    255c:	00001537          	lui	a0,0x1
    2560:	00a10533          	add	a0,sp,a0
    2564:	f6053823          	sd	zero,-144(a0) # f70 <.LBB28_3+0x4ac>
    2568:	00001537          	lui	a0,0x1
    256c:	00a10533          	add	a0,sp,a0
    2570:	f6053c23          	sd	zero,-136(a0) # f78 <.LBB28_3+0x4b4>
    2574:	00001537          	lui	a0,0x1
    2578:	00a10533          	add	a0,sp,a0
    257c:	f8053023          	sd	zero,-128(a0) # f80 <.LBB28_3+0x4bc>
    2580:	00001537          	lui	a0,0x1
    2584:	00a10533          	add	a0,sp,a0
    2588:	f8053423          	sd	zero,-120(a0) # f88 <.LBB28_3+0x4c4>
    258c:	00001537          	lui	a0,0x1
    2590:	00a10533          	add	a0,sp,a0
    2594:	f8053823          	sd	zero,-112(a0) # f90 <.LBB28_3+0x4cc>
    2598:	00001537          	lui	a0,0x1
    259c:	00a10533          	add	a0,sp,a0
    25a0:	f8053c23          	sd	zero,-104(a0) # f98 <.LBB28_3+0x4d4>
    25a4:	00001537          	lui	a0,0x1
    25a8:	00a10533          	add	a0,sp,a0
    25ac:	fa053023          	sd	zero,-96(a0) # fa0 <.LBB28_3+0x4dc>
    25b0:	00001537          	lui	a0,0x1
    25b4:	00a10533          	add	a0,sp,a0
    25b8:	fa053423          	sd	zero,-88(a0) # fa8 <.LBB28_3+0x4e4>
    25bc:	00001537          	lui	a0,0x1
    25c0:	00a10533          	add	a0,sp,a0
    25c4:	fa053823          	sd	zero,-80(a0) # fb0 <.LBB28_3+0x4ec>
    25c8:	00001537          	lui	a0,0x1
    25cc:	00a10533          	add	a0,sp,a0
    25d0:	fa053c23          	sd	zero,-72(a0) # fb8 <.LBB28_3+0x4f4>
    25d4:	00001537          	lui	a0,0x1
    25d8:	00a10533          	add	a0,sp,a0
    25dc:	fc053023          	sd	zero,-64(a0) # fc0 <.LBB28_3+0x4fc>
    25e0:	00001537          	lui	a0,0x1
    25e4:	00a10533          	add	a0,sp,a0
    25e8:	fc053423          	sd	zero,-56(a0) # fc8 <.LBB28_3+0x504>
    25ec:	00001537          	lui	a0,0x1
    25f0:	00a10533          	add	a0,sp,a0
    25f4:	fc053823          	sd	zero,-48(a0) # fd0 <.LBB28_3+0x50c>
    25f8:	00001537          	lui	a0,0x1
    25fc:	00a10533          	add	a0,sp,a0
    2600:	fc053c23          	sd	zero,-40(a0) # fd8 <.LBB28_3+0x514>
    2604:	00001537          	lui	a0,0x1
    2608:	00a10533          	add	a0,sp,a0
    260c:	fe053023          	sd	zero,-32(a0) # fe0 <.LBB28_3+0x51c>
    2610:	00001537          	lui	a0,0x1
    2614:	00a10533          	add	a0,sp,a0
    2618:	fe053423          	sd	zero,-24(a0) # fe8 <.LBB28_3+0x524>
    261c:	00001537          	lui	a0,0x1
    2620:	00a10533          	add	a0,sp,a0
    2624:	fe053823          	sd	zero,-16(a0) # ff0 <.LBB28_3+0x52c>
    2628:	00001537          	lui	a0,0x1
    262c:	00a10533          	add	a0,sp,a0
    2630:	fe053c23          	sd	zero,-8(a0) # ff8 <.LBB28_3+0x534>
    2634:	00001537          	lui	a0,0x1
    2638:	00a10533          	add	a0,sp,a0
    263c:	02053023          	sd	zero,32(a0) # 1020 <.LBB28_3+0x55c>
    2640:	00001537          	lui	a0,0x1
    2644:	00a10533          	add	a0,sp,a0
    2648:	00053c23          	sd	zero,24(a0) # 1018 <.LBB28_3+0x554>
    264c:	00001537          	lui	a0,0x1
    2650:	00a10533          	add	a0,sp,a0
    2654:	00053823          	sd	zero,16(a0) # 1010 <.LBB28_3+0x54c>
    2658:	00001537          	lui	a0,0x1
    265c:	00a10533          	add	a0,sp,a0
    2660:	00053423          	sd	zero,8(a0) # 1008 <.LBB28_3+0x544>
    2664:	00001537          	lui	a0,0x1
    2668:	00a10533          	add	a0,sp,a0
    266c:	00053023          	sd	zero,0(a0) # 1000 <.LBB28_3+0x53c>
    2670:	00001537          	lui	a0,0x1
    2674:	00a10533          	add	a0,sp,a0
    2678:	02053423          	sd	zero,40(a0) # 1028 <.LBB28_3+0x564>
    267c:	00001537          	lui	a0,0x1
    2680:	00a10533          	add	a0,sp,a0
    2684:	02053823          	sd	zero,48(a0) # 1030 <.LBB28_3+0x56c>
    2688:	00001537          	lui	a0,0x1
    268c:	00a10533          	add	a0,sp,a0
    2690:	02053c23          	sd	zero,56(a0) # 1038 <.LBB28_3+0x574>
    2694:	00001537          	lui	a0,0x1
    2698:	00a10533          	add	a0,sp,a0
    269c:	04053023          	sd	zero,64(a0) # 1040 <.LBB28_3+0x57c>
    26a0:	00001537          	lui	a0,0x1
    26a4:	00a10533          	add	a0,sp,a0
    26a8:	04053423          	sd	zero,72(a0) # 1048 <.LBB28_3+0x584>
    26ac:	00001537          	lui	a0,0x1
    26b0:	00a10533          	add	a0,sp,a0
    26b4:	04053823          	sd	zero,80(a0) # 1050 <.LBB28_3+0x58c>
    26b8:	00001537          	lui	a0,0x1
    26bc:	00a10533          	add	a0,sp,a0
    26c0:	04053c23          	sd	zero,88(a0) # 1058 <.LBB28_3+0x594>
    26c4:	00001537          	lui	a0,0x1
    26c8:	00a10533          	add	a0,sp,a0
    26cc:	06053023          	sd	zero,96(a0) # 1060 <.LBB28_3+0x59c>
    26d0:	00001537          	lui	a0,0x1
    26d4:	00a10533          	add	a0,sp,a0
    26d8:	06053423          	sd	zero,104(a0) # 1068 <.LBB28_3+0x5a4>
    26dc:	00001537          	lui	a0,0x1
    26e0:	00a10533          	add	a0,sp,a0
    26e4:	06053823          	sd	zero,112(a0) # 1070 <.LBB28_3+0x5ac>
    26e8:	00001537          	lui	a0,0x1
    26ec:	00a10533          	add	a0,sp,a0
    26f0:	06053c23          	sd	zero,120(a0) # 1078 <.LBB28_3+0x5b4>
    26f4:	00001537          	lui	a0,0x1
    26f8:	00a10533          	add	a0,sp,a0
    26fc:	08053023          	sd	zero,128(a0) # 1080 <.LBB28_3+0x5bc>
    2700:	00001537          	lui	a0,0x1
    2704:	00a10533          	add	a0,sp,a0
    2708:	08053423          	sd	zero,136(a0) # 1088 <.LBB28_3+0x5c4>
    270c:	00001537          	lui	a0,0x1
    2710:	00a10533          	add	a0,sp,a0
    2714:	08053823          	sd	zero,144(a0) # 1090 <.LBB28_3+0x5cc>
    2718:	00001537          	lui	a0,0x1
    271c:	00a10533          	add	a0,sp,a0
    2720:	08053c23          	sd	zero,152(a0) # 1098 <.LBB28_3+0x5d4>
    2724:	00001537          	lui	a0,0x1
    2728:	00a10533          	add	a0,sp,a0
    272c:	0a053023          	sd	zero,160(a0) # 10a0 <.LBB28_3+0x5dc>
    2730:	00001537          	lui	a0,0x1
    2734:	00a10533          	add	a0,sp,a0
    2738:	0a053423          	sd	zero,168(a0) # 10a8 <.LBB28_3+0x5e4>
    273c:	00001537          	lui	a0,0x1
    2740:	00a10533          	add	a0,sp,a0
    2744:	0a053823          	sd	zero,176(a0) # 10b0 <.LBB28_3+0x5ec>
    2748:	00001537          	lui	a0,0x1
    274c:	00a10533          	add	a0,sp,a0
    2750:	0a053c23          	sd	zero,184(a0) # 10b8 <.LBB28_3+0x5f4>
    2754:	00001537          	lui	a0,0x1
    2758:	00a10533          	add	a0,sp,a0
    275c:	0c053023          	sd	zero,192(a0) # 10c0 <.LBB28_3+0x5fc>
    2760:	00001537          	lui	a0,0x1
    2764:	00a10533          	add	a0,sp,a0
    2768:	0c053423          	sd	zero,200(a0) # 10c8 <.LBB28_3+0x604>
    276c:	00001537          	lui	a0,0x1
    2770:	00a10533          	add	a0,sp,a0
    2774:	0c053823          	sd	zero,208(a0) # 10d0 <.LBB28_3+0x60c>
    2778:	00001537          	lui	a0,0x1
    277c:	00a10533          	add	a0,sp,a0
    2780:	0c053c23          	sd	zero,216(a0) # 10d8 <.LBB28_3+0x614>
    2784:	00001537          	lui	a0,0x1
    2788:	00a10533          	add	a0,sp,a0
    278c:	0e053023          	sd	zero,224(a0) # 10e0 <.LBB28_3+0x61c>
    2790:	00001537          	lui	a0,0x1
    2794:	00a10533          	add	a0,sp,a0
    2798:	0e053423          	sd	zero,232(a0) # 10e8 <.LBB28_3+0x624>
    279c:	00001537          	lui	a0,0x1
    27a0:	00a10533          	add	a0,sp,a0
    27a4:	0e053823          	sd	zero,240(a0) # 10f0 <.LBB28_3+0x62c>
    27a8:	00001537          	lui	a0,0x1
    27ac:	00a10533          	add	a0,sp,a0
    27b0:	0e053c23          	sd	zero,248(a0) # 10f8 <.LBB28_3+0x634>
    27b4:	00001537          	lui	a0,0x1
    27b8:	00a10533          	add	a0,sp,a0
    27bc:	12053023          	sd	zero,288(a0) # 1120 <.LBB28_3+0x65c>
    27c0:	00001537          	lui	a0,0x1
    27c4:	00a10533          	add	a0,sp,a0
    27c8:	10053c23          	sd	zero,280(a0) # 1118 <.LBB28_3+0x654>
    27cc:	00001537          	lui	a0,0x1
    27d0:	00a10533          	add	a0,sp,a0
    27d4:	10053823          	sd	zero,272(a0) # 1110 <.LBB28_3+0x64c>
    27d8:	00001537          	lui	a0,0x1
    27dc:	00a10533          	add	a0,sp,a0
    27e0:	10053423          	sd	zero,264(a0) # 1108 <.LBB28_3+0x644>
    27e4:	00001537          	lui	a0,0x1
    27e8:	00a10533          	add	a0,sp,a0
    27ec:	10053023          	sd	zero,256(a0) # 1100 <.LBB28_3+0x63c>
    27f0:	00001537          	lui	a0,0x1
    27f4:	00a10533          	add	a0,sp,a0
    27f8:	12053423          	sd	zero,296(a0) # 1128 <.LBB28_3+0x664>
    27fc:	00001537          	lui	a0,0x1
    2800:	00a10533          	add	a0,sp,a0
    2804:	12053823          	sd	zero,304(a0) # 1130 <.LBB28_3+0x66c>
    2808:	00001537          	lui	a0,0x1
    280c:	00a10533          	add	a0,sp,a0
    2810:	12053c23          	sd	zero,312(a0) # 1138 <.LBB28_3+0x674>
    2814:	00001537          	lui	a0,0x1
    2818:	00a10533          	add	a0,sp,a0
    281c:	14053023          	sd	zero,320(a0) # 1140 <.LBB28_3+0x67c>
    2820:	00000e13          	li	t3,0
    2824:	00000c13          	li	s8,0
    2828:	00000b93          	li	s7,0
    282c:	00000c93          	li	s9,0
    2830:	00000b13          	li	s6,0
    2834:	00000a93          	li	s5,0
    2838:	00000d13          	li	s10,0
    283c:	00000913          	li	s2,0
    2840:	00000793          	li	a5,0
    2844:	00000493          	li	s1,0
    2848:	00000713          	li	a4,0
    284c:	00000f13          	li	t5,0
    2850:	00000e93          	li	t4,0
    2854:	00000d93          	li	s11,0
    2858:	00000613          	li	a2,0
    285c:	00000513          	li	a0,0
    2860:	00000313          	li	t1,0
    2864:	00000293          	li	t0,0
    2868:	00000893          	li	a7,0
    286c:	000016b7          	lui	a3,0x1
    2870:	00d106b3          	add	a3,sp,a3
    2874:	1a06b023          	sd	zero,416(a3) # 11a0 <.LBB28_3+0x6dc>
    2878:	000016b7          	lui	a3,0x1
    287c:	00d106b3          	add	a3,sp,a3
    2880:	1a06b423          	sd	zero,424(a3) # 11a8 <.LBB28_3+0x6e4>
    2884:	000016b7          	lui	a3,0x1
    2888:	00d106b3          	add	a3,sp,a3
    288c:	1a06b823          	sd	zero,432(a3) # 11b0 <.LBB28_3+0x6ec>
    2890:	000016b7          	lui	a3,0x1
    2894:	00d106b3          	add	a3,sp,a3
    2898:	1a06bc23          	sd	zero,440(a3) # 11b8 <.LBB28_3+0x6f4>

000000000000289c <.LBB28_5>:
    289c:	000016b7          	lui	a3,0x1
    28a0:	00d106b3          	add	a3,sp,a3
    28a4:	19b6b023          	sd	s11,384(a3) # 1180 <.LBB28_3+0x6bc>
    28a8:	000016b7          	lui	a3,0x1
    28ac:	00d106b3          	add	a3,sp,a3
    28b0:	17a6b023          	sd	s10,352(a3) # 1160 <.LBB28_3+0x69c>
    28b4:	000016b7          	lui	a3,0x1
    28b8:	00d106b3          	add	a3,sp,a3
    28bc:	1596b823          	sd	s9,336(a3) # 1150 <.LBB28_3+0x68c>
    28c0:	000016b7          	lui	a3,0x1
    28c4:	00d106b3          	add	a3,sp,a3
    28c8:	2eb6bc23          	sd	a1,760(a3) # 12f8 <.LBB28_3+0x834>
    28cc:	000016b7          	lui	a3,0x1
    28d0:	00d106b3          	add	a3,sp,a3
    28d4:	15c6b423          	sd	t3,328(a3) # 1148 <.LBB28_3+0x684>
    28d8:	000016b7          	lui	a3,0x1
    28dc:	00d106b3          	add	a3,sp,a3
    28e0:	2586b023          	sd	s8,576(a3) # 1240 <.LBB28_3+0x77c>
    28e4:	000016b7          	lui	a3,0x1
    28e8:	00d106b3          	add	a3,sp,a3
    28ec:	2576b423          	sd	s7,584(a3) # 1248 <.LBB28_3+0x784>
    28f0:	000016b7          	lui	a3,0x1
    28f4:	00d106b3          	add	a3,sp,a3
    28f8:	2566b823          	sd	s6,592(a3) # 1250 <.LBB28_3+0x78c>
    28fc:	000016b7          	lui	a3,0x1
    2900:	00d106b3          	add	a3,sp,a3
    2904:	1556bc23          	sd	s5,344(a3) # 1158 <.LBB28_3+0x694>
    2908:	000016b7          	lui	a3,0x1
    290c:	00d106b3          	add	a3,sp,a3
    2910:	2526bc23          	sd	s2,600(a3) # 1258 <.LBB28_3+0x794>
    2914:	000016b7          	lui	a3,0x1
    2918:	00d106b3          	add	a3,sp,a3
    291c:	26f6b023          	sd	a5,608(a3) # 1260 <.LBB28_3+0x79c>
    2920:	000016b7          	lui	a3,0x1
    2924:	00d106b3          	add	a3,sp,a3
    2928:	1696b423          	sd	s1,360(a3) # 1168 <.LBB28_3+0x6a4>
    292c:	000016b7          	lui	a3,0x1
    2930:	00d106b3          	add	a3,sp,a3
    2934:	26e6b423          	sd	a4,616(a3) # 1268 <.LBB28_3+0x7a4>
    2938:	000016b7          	lui	a3,0x1
    293c:	00d106b3          	add	a3,sp,a3
    2940:	17e6b823          	sd	t5,368(a3) # 1170 <.LBB28_3+0x6ac>
    2944:	000016b7          	lui	a3,0x1
    2948:	00d106b3          	add	a3,sp,a3
    294c:	17d6bc23          	sd	t4,376(a3) # 1178 <.LBB28_3+0x6b4>
    2950:	000016b7          	lui	a3,0x1
    2954:	00d106b3          	add	a3,sp,a3
    2958:	26c6b823          	sd	a2,624(a3) # 1270 <.LBB28_3+0x7ac>
    295c:	00001637          	lui	a2,0x1
    2960:	00c10633          	add	a2,sp,a2
    2964:	26a63c23          	sd	a0,632(a2) # 1278 <.LBB28_3+0x7b4>
    2968:	00001537          	lui	a0,0x1
    296c:	00a10533          	add	a0,sp,a0
    2970:	18653423          	sd	t1,392(a0) # 1188 <.LBB28_3+0x6c4>
    2974:	00001537          	lui	a0,0x1
    2978:	00a10533          	add	a0,sp,a0
    297c:	18553823          	sd	t0,400(a0) # 1190 <.LBB28_3+0x6cc>
    2980:	00001537          	lui	a0,0x1
    2984:	00a10533          	add	a0,sp,a0
    2988:	19153c23          	sd	a7,408(a0) # 1198 <.LBB28_3+0x6d4>
    298c:	00058503          	lb	a0,0(a1)
    2990:	00208583          	lb	a1,2(ra)
    2994:	00001637          	lui	a2,0x1
    2998:	00c10633          	add	a2,sp,a2
    299c:	28b63c23          	sd	a1,664(a2) # 1298 <.LBB28_3+0x7d4>
    29a0:	00108703          	lb	a4,1(ra)
    29a4:	00001637          	lui	a2,0x1
    29a8:	00c10633          	add	a2,sp,a2
    29ac:	28e63823          	sd	a4,656(a2) # 1290 <.LBB28_3+0x7cc>
    29b0:	00008683          	lb	a3,0(ra)
    29b4:	00001637          	lui	a2,0x1
    29b8:	00c10633          	add	a2,sp,a2
    29bc:	2cd63023          	sd	a3,704(a2) # 12c0 <.LBB28_3+0x7fc>
    29c0:	00308783          	lb	a5,3(ra)
    29c4:	00408e83          	lb	t4,4(ra)
    29c8:	00508f03          	lb	t5,5(ra)
    29cc:	00001637          	lui	a2,0x1
    29d0:	00c10633          	add	a2,sp,a2
    29d4:	2be63023          	sd	t5,672(a2) # 12a0 <.LBB28_3+0x7dc>
    29d8:	00608b03          	lb	s6,6(ra)
    29dc:	00001637          	lui	a2,0x1
    29e0:	00c10633          	add	a2,sp,a2
    29e4:	2f663823          	sd	s6,752(a2) # 12f0 <.LBB28_3+0x82c>
    29e8:	00708b83          	lb	s7,7(ra)
    29ec:	00808c03          	lb	s8,8(ra)
    29f0:	00001637          	lui	a2,0x1
    29f4:	00c10633          	add	a2,sp,a2
    29f8:	23863423          	sd	s8,552(a2) # 1228 <.LBB28_3+0x764>
    29fc:	00908803          	lb	a6,9(ra)
    2a00:	00001637          	lui	a2,0x1
    2a04:	00c10633          	add	a2,sp,a2
    2a08:	2b063c23          	sd	a6,696(a2) # 12b8 <.LBB28_3+0x7f4>
    2a0c:	00a08c83          	lb	s9,10(ra)
    2a10:	00b08483          	lb	s1,11(ra)
    2a14:	00c08303          	lb	t1,12(ra)
    2a18:	00001637          	lui	a2,0x1
    2a1c:	00c10633          	add	a2,sp,a2
    2a20:	2a663423          	sd	t1,680(a2) # 12a8 <.LBB28_3+0x7e4>
    2a24:	00d08f83          	lb	t6,13(ra)
    2a28:	00001637          	lui	a2,0x1
    2a2c:	00c10633          	add	a2,sp,a2
    2a30:	29f63023          	sd	t6,640(a2) # 1280 <.LBB28_3+0x7bc>
    2a34:	00e08883          	lb	a7,14(ra)
    2a38:	00001637          	lui	a2,0x1
    2a3c:	00c10633          	add	a2,sp,a2
    2a40:	2d163c23          	sd	a7,728(a2) # 12d8 <.LBB28_3+0x814>
    2a44:	00f08283          	lb	t0,15(ra)
    2a48:	00001637          	lui	a2,0x1
    2a4c:	00c10633          	add	a2,sp,a2
    2a50:	2e563023          	sd	t0,736(a2) # 12e0 <.LBB28_3+0x81c>
    2a54:	01008383          	lb	t2,16(ra)
    2a58:	00001637          	lui	a2,0x1
    2a5c:	00c10633          	add	a2,sp,a2
    2a60:	22763c23          	sd	t2,568(a2) # 1238 <.LBB28_3+0x774>
    2a64:	01108e03          	lb	t3,17(ra)
    2a68:	01208a03          	lb	s4,18(ra)
    2a6c:	00001637          	lui	a2,0x1
    2a70:	00c10633          	add	a2,sp,a2
    2a74:	2b463823          	sd	s4,688(a2) # 12b0 <.LBB28_3+0x7ec>
    2a78:	01308983          	lb	s3,19(ra)
    2a7c:	00001637          	lui	a2,0x1
    2a80:	00c10633          	add	a2,sp,a2
    2a84:	1f363823          	sd	s3,496(a2) # 11f0 <.LBB28_3+0x72c>
    2a88:	01408903          	lb	s2,20(ra)
    2a8c:	00001637          	lui	a2,0x1
    2a90:	00c10633          	add	a2,sp,a2
    2a94:	2f263423          	sd	s2,744(a2) # 12e8 <.LBB28_3+0x824>
    2a98:	01508d03          	lb	s10,21(ra)
    2a9c:	00001637          	lui	a2,0x1
    2aa0:	00c10633          	add	a2,sp,a2
    2aa4:	1fa63423          	sd	s10,488(a2) # 11e8 <.LBB28_3+0x724>
    2aa8:	01608d83          	lb	s11,22(ra)
    2aac:	00001637          	lui	a2,0x1
    2ab0:	00c10633          	add	a2,sp,a2
    2ab4:	1fb63c23          	sd	s11,504(a2) # 11f8 <.LBB28_3+0x734>
    2ab8:	01708603          	lb	a2,23(ra)
    2abc:	00001ab7          	lui	s5,0x1
    2ac0:	01510ab3          	add	s5,sp,s5
    2ac4:	28cab423          	sd	a2,648(s5) # 1288 <.LBB28_3+0x7c4>
    2ac8:	01808a83          	lb	s5,24(ra)
    2acc:	02b505b3          	mul	a1,a0,a1
    2ad0:	00001637          	lui	a2,0x1
    2ad4:	00c10633          	add	a2,sp,a2
    2ad8:	a2863603          	ld	a2,-1496(a2) # a28 <.LBB28_1+0x90c>
    2adc:	00c58633          	add	a2,a1,a2
    2ae0:	000015b7          	lui	a1,0x1
    2ae4:	00b105b3          	add	a1,sp,a1
    2ae8:	a2c5b423          	sd	a2,-1496(a1) # a28 <.LBB28_1+0x90c>
    2aec:	02e505b3          	mul	a1,a0,a4
    2af0:	00001637          	lui	a2,0x1
    2af4:	00c10633          	add	a2,sp,a2
    2af8:	a3063603          	ld	a2,-1488(a2) # a30 <.LBB28_2+0x4>
    2afc:	00c58633          	add	a2,a1,a2
    2b00:	000015b7          	lui	a1,0x1
    2b04:	00b105b3          	add	a1,sp,a1
    2b08:	a2c5b823          	sd	a2,-1488(a1) # a30 <.LBB28_2+0x4>
    2b0c:	02d505b3          	mul	a1,a0,a3
    2b10:	00001637          	lui	a2,0x1
    2b14:	00c10633          	add	a2,sp,a2
    2b18:	a3863603          	ld	a2,-1480(a2) # a38 <.LBB28_2+0xc>
    2b1c:	00c58633          	add	a2,a1,a2
    2b20:	000015b7          	lui	a1,0x1
    2b24:	00b105b3          	add	a1,sp,a1
    2b28:	a2c5bc23          	sd	a2,-1480(a1) # a38 <.LBB28_2+0xc>
    2b2c:	02f505b3          	mul	a1,a0,a5
    2b30:	00078693          	mv	a3,a5
    2b34:	00001637          	lui	a2,0x1
    2b38:	00c10633          	add	a2,sp,a2
    2b3c:	2cf63823          	sd	a5,720(a2) # 12d0 <.LBB28_3+0x80c>
    2b40:	00001637          	lui	a2,0x1
    2b44:	00c10633          	add	a2,sp,a2
    2b48:	a2063603          	ld	a2,-1504(a2) # a20 <.LBB28_1+0x904>
    2b4c:	00c58633          	add	a2,a1,a2
    2b50:	000015b7          	lui	a1,0x1
    2b54:	00b105b3          	add	a1,sp,a1
    2b58:	a2c5b023          	sd	a2,-1504(a1) # a20 <.LBB28_1+0x904>
    2b5c:	03d505b3          	mul	a1,a0,t4
    2b60:	000e8713          	mv	a4,t4
    2b64:	00001637          	lui	a2,0x1
    2b68:	00c10633          	add	a2,sp,a2
    2b6c:	2dd63423          	sd	t4,712(a2) # 12c8 <.LBB28_3+0x804>
    2b70:	00001637          	lui	a2,0x1
    2b74:	00c10633          	add	a2,sp,a2
    2b78:	a4063603          	ld	a2,-1472(a2) # a40 <.LBB28_2+0x14>
    2b7c:	00c58633          	add	a2,a1,a2
    2b80:	000015b7          	lui	a1,0x1
    2b84:	00b105b3          	add	a1,sp,a1
    2b88:	a4c5b023          	sd	a2,-1472(a1) # a40 <.LBB28_2+0x14>
    2b8c:	03e505b3          	mul	a1,a0,t5
    2b90:	00001637          	lui	a2,0x1
    2b94:	00c10633          	add	a2,sp,a2
    2b98:	a1863603          	ld	a2,-1512(a2) # a18 <.LBB28_1+0x8fc>
    2b9c:	00c58633          	add	a2,a1,a2
    2ba0:	000015b7          	lui	a1,0x1
    2ba4:	00b105b3          	add	a1,sp,a1
    2ba8:	a0c5bc23          	sd	a2,-1512(a1) # a18 <.LBB28_1+0x8fc>
    2bac:	036505b3          	mul	a1,a0,s6
    2bb0:	00001637          	lui	a2,0x1
    2bb4:	00c10633          	add	a2,sp,a2
    2bb8:	a1063603          	ld	a2,-1520(a2) # a10 <.LBB28_1+0x8f4>
    2bbc:	00c58633          	add	a2,a1,a2
    2bc0:	000015b7          	lui	a1,0x1
    2bc4:	00b105b3          	add	a1,sp,a1
    2bc8:	a0c5b823          	sd	a2,-1520(a1) # a10 <.LBB28_1+0x8f4>
    2bcc:	037505b3          	mul	a1,a0,s7
    2bd0:	00001637          	lui	a2,0x1
    2bd4:	00c10633          	add	a2,sp,a2
    2bd8:	a0863603          	ld	a2,-1528(a2) # a08 <.LBB28_1+0x8ec>
    2bdc:	00c58633          	add	a2,a1,a2
    2be0:	000015b7          	lui	a1,0x1
    2be4:	00b105b3          	add	a1,sp,a1
    2be8:	a0c5b423          	sd	a2,-1528(a1) # a08 <.LBB28_1+0x8ec>
    2bec:	038505b3          	mul	a1,a0,s8
    2bf0:	00001637          	lui	a2,0x1
    2bf4:	00c10633          	add	a2,sp,a2
    2bf8:	a0063603          	ld	a2,-1536(a2) # a00 <.LBB28_1+0x8e4>
    2bfc:	00c58633          	add	a2,a1,a2
    2c00:	000015b7          	lui	a1,0x1
    2c04:	00b105b3          	add	a1,sp,a1
    2c08:	a0c5b023          	sd	a2,-1536(a1) # a00 <.LBB28_1+0x8e4>
    2c0c:	030505b3          	mul	a1,a0,a6
    2c10:	00001637          	lui	a2,0x1
    2c14:	00c10633          	add	a2,sp,a2
    2c18:	a4863603          	ld	a2,-1464(a2) # a48 <.LBB28_2+0x1c>
    2c1c:	00c58633          	add	a2,a1,a2
    2c20:	000015b7          	lui	a1,0x1
    2c24:	00b105b3          	add	a1,sp,a1
    2c28:	a4c5b423          	sd	a2,-1464(a1) # a48 <.LBB28_2+0x1c>
    2c2c:	039505b3          	mul	a1,a0,s9
    2c30:	00001637          	lui	a2,0x1
    2c34:	00c10633          	add	a2,sp,a2
    2c38:	a5063603          	ld	a2,-1456(a2) # a50 <.LBB28_2+0x24>
    2c3c:	00c58633          	add	a2,a1,a2
    2c40:	000015b7          	lui	a1,0x1
    2c44:	00b105b3          	add	a1,sp,a1
    2c48:	a4c5b823          	sd	a2,-1456(a1) # a50 <.LBB28_2+0x24>
    2c4c:	00048813          	mv	a6,s1
    2c50:	029505b3          	mul	a1,a0,s1
    2c54:	00001637          	lui	a2,0x1
    2c58:	00c10633          	add	a2,sp,a2
    2c5c:	a5863603          	ld	a2,-1448(a2) # a58 <.LBB28_2+0x2c>
    2c60:	00c58633          	add	a2,a1,a2
    2c64:	000015b7          	lui	a1,0x1
    2c68:	00b105b3          	add	a1,sp,a1
    2c6c:	a4c5bc23          	sd	a2,-1448(a1) # a58 <.LBB28_2+0x2c>
    2c70:	026505b3          	mul	a1,a0,t1
    2c74:	00001637          	lui	a2,0x1
    2c78:	00c10633          	add	a2,sp,a2
    2c7c:	a6063603          	ld	a2,-1440(a2) # a60 <.LBB28_2+0x34>
    2c80:	00c58633          	add	a2,a1,a2
    2c84:	000015b7          	lui	a1,0x1
    2c88:	00b105b3          	add	a1,sp,a1
    2c8c:	a6c5b023          	sd	a2,-1440(a1) # a60 <.LBB28_2+0x34>
    2c90:	03f505b3          	mul	a1,a0,t6
    2c94:	00001637          	lui	a2,0x1
    2c98:	00c10633          	add	a2,sp,a2
    2c9c:	a6863603          	ld	a2,-1432(a2) # a68 <.LBB28_2+0x3c>
    2ca0:	00c58633          	add	a2,a1,a2
    2ca4:	000015b7          	lui	a1,0x1
    2ca8:	00b105b3          	add	a1,sp,a1
    2cac:	a6c5b423          	sd	a2,-1432(a1) # a68 <.LBB28_2+0x3c>
    2cb0:	031505b3          	mul	a1,a0,a7
    2cb4:	00001637          	lui	a2,0x1
    2cb8:	00c10633          	add	a2,sp,a2
    2cbc:	a7063603          	ld	a2,-1424(a2) # a70 <.LBB28_2+0x44>
    2cc0:	00c58633          	add	a2,a1,a2
    2cc4:	000015b7          	lui	a1,0x1
    2cc8:	00b105b3          	add	a1,sp,a1
    2ccc:	a6c5b823          	sd	a2,-1424(a1) # a70 <.LBB28_2+0x44>
    2cd0:	025505b3          	mul	a1,a0,t0
    2cd4:	00001637          	lui	a2,0x1
    2cd8:	00c10633          	add	a2,sp,a2
    2cdc:	a7863603          	ld	a2,-1416(a2) # a78 <.LBB28_2+0x4c>
    2ce0:	00c58633          	add	a2,a1,a2
    2ce4:	000015b7          	lui	a1,0x1
    2ce8:	00b105b3          	add	a1,sp,a1
    2cec:	a6c5bc23          	sd	a2,-1416(a1) # a78 <.LBB28_2+0x4c>
    2cf0:	027505b3          	mul	a1,a0,t2
    2cf4:	00001637          	lui	a2,0x1
    2cf8:	00c10633          	add	a2,sp,a2
    2cfc:	a8063603          	ld	a2,-1408(a2) # a80 <.LBB28_2+0x54>
    2d00:	00c58633          	add	a2,a1,a2
    2d04:	000015b7          	lui	a1,0x1
    2d08:	00b105b3          	add	a1,sp,a1
    2d0c:	a8c5b023          	sd	a2,-1408(a1) # a80 <.LBB28_2+0x54>
    2d10:	03c505b3          	mul	a1,a0,t3
    2d14:	000e0f13          	mv	t5,t3
    2d18:	00001637          	lui	a2,0x1
    2d1c:	00c10633          	add	a2,sp,a2
    2d20:	21c63823          	sd	t3,528(a2) # 1210 <.LBB28_3+0x74c>
    2d24:	00001637          	lui	a2,0x1
    2d28:	00c10633          	add	a2,sp,a2
    2d2c:	a8863603          	ld	a2,-1400(a2) # a88 <.LBB28_2+0x5c>
    2d30:	00c58633          	add	a2,a1,a2
    2d34:	000015b7          	lui	a1,0x1
    2d38:	00b105b3          	add	a1,sp,a1
    2d3c:	a8c5b423          	sd	a2,-1400(a1) # a88 <.LBB28_2+0x5c>
    2d40:	034505b3          	mul	a1,a0,s4
    2d44:	00001637          	lui	a2,0x1
    2d48:	00c10633          	add	a2,sp,a2
    2d4c:	a9063603          	ld	a2,-1392(a2) # a90 <.LBB28_2+0x64>
    2d50:	00c58633          	add	a2,a1,a2
    2d54:	000015b7          	lui	a1,0x1
    2d58:	00b105b3          	add	a1,sp,a1
    2d5c:	a8c5b823          	sd	a2,-1392(a1) # a90 <.LBB28_2+0x64>
    2d60:	033505b3          	mul	a1,a0,s3
    2d64:	00001637          	lui	a2,0x1
    2d68:	00c10633          	add	a2,sp,a2
    2d6c:	a9863603          	ld	a2,-1384(a2) # a98 <.LBB28_2+0x6c>
    2d70:	00c58633          	add	a2,a1,a2
    2d74:	000015b7          	lui	a1,0x1
    2d78:	00b105b3          	add	a1,sp,a1
    2d7c:	a8c5bc23          	sd	a2,-1384(a1) # a98 <.LBB28_2+0x6c>
    2d80:	032505b3          	mul	a1,a0,s2
    2d84:	00001637          	lui	a2,0x1
    2d88:	00c10633          	add	a2,sp,a2
    2d8c:	aa063603          	ld	a2,-1376(a2) # aa0 <.LBB28_2+0x74>
    2d90:	00c58633          	add	a2,a1,a2
    2d94:	000015b7          	lui	a1,0x1
    2d98:	00b105b3          	add	a1,sp,a1
    2d9c:	aac5b023          	sd	a2,-1376(a1) # aa0 <.LBB28_2+0x74>
    2da0:	03a505b3          	mul	a1,a0,s10
    2da4:	00001637          	lui	a2,0x1
    2da8:	00c10633          	add	a2,sp,a2
    2dac:	aa863603          	ld	a2,-1368(a2) # aa8 <.LBB28_2+0x7c>
    2db0:	00c58633          	add	a2,a1,a2
    2db4:	000015b7          	lui	a1,0x1
    2db8:	00b105b3          	add	a1,sp,a1
    2dbc:	aac5b423          	sd	a2,-1368(a1) # aa8 <.LBB28_2+0x7c>
    2dc0:	03b505b3          	mul	a1,a0,s11
    2dc4:	00001637          	lui	a2,0x1
    2dc8:	00c10633          	add	a2,sp,a2
    2dcc:	ab063603          	ld	a2,-1360(a2) # ab0 <.LBB28_2+0x84>
    2dd0:	00c58633          	add	a2,a1,a2
    2dd4:	000015b7          	lui	a1,0x1
    2dd8:	00b105b3          	add	a1,sp,a1
    2ddc:	aac5b823          	sd	a2,-1360(a1) # ab0 <.LBB28_2+0x84>
    2de0:	000015b7          	lui	a1,0x1
    2de4:	00b105b3          	add	a1,sp,a1
    2de8:	2885b583          	ld	a1,648(a1) # 1288 <.LBB28_3+0x7c4>
    2dec:	02b505b3          	mul	a1,a0,a1
    2df0:	00001637          	lui	a2,0x1
    2df4:	00c10633          	add	a2,sp,a2
    2df8:	ab863603          	ld	a2,-1352(a2) # ab8 <.LBB28_2+0x8c>
    2dfc:	00c58633          	add	a2,a1,a2
    2e00:	000015b7          	lui	a1,0x1
    2e04:	00b105b3          	add	a1,sp,a1
    2e08:	aac5bc23          	sd	a2,-1352(a1) # ab8 <.LBB28_2+0x8c>
    2e0c:	01908883          	lb	a7,25(ra)
    2e10:	000015b7          	lui	a1,0x1
    2e14:	00b105b3          	add	a1,sp,a1
    2e18:	2315b823          	sd	a7,560(a1) # 1230 <.LBB28_3+0x76c>
    2e1c:	035505b3          	mul	a1,a0,s5
    2e20:	000a8a13          	mv	s4,s5
    2e24:	00001637          	lui	a2,0x1
    2e28:	00c10633          	add	a2,sp,a2
    2e2c:	1d563023          	sd	s5,448(a2) # 11c0 <.LBB28_3+0x6fc>
    2e30:	00001637          	lui	a2,0x1
    2e34:	00c10633          	add	a2,sp,a2
    2e38:	ac063603          	ld	a2,-1344(a2) # ac0 <.LBB28_2+0x94>
    2e3c:	00c58633          	add	a2,a1,a2
    2e40:	000015b7          	lui	a1,0x1
    2e44:	00b105b3          	add	a1,sp,a1
    2e48:	acc5b023          	sd	a2,-1344(a1) # ac0 <.LBB28_2+0x94>
    2e4c:	01a08283          	lb	t0,26(ra)
    2e50:	031505b3          	mul	a1,a0,a7
    2e54:	00001637          	lui	a2,0x1
    2e58:	00c10633          	add	a2,sp,a2
    2e5c:	ac863603          	ld	a2,-1336(a2) # ac8 <.LBB28_3+0x4>
    2e60:	00c58633          	add	a2,a1,a2
    2e64:	000015b7          	lui	a1,0x1
    2e68:	00b105b3          	add	a1,sp,a1
    2e6c:	acc5b423          	sd	a2,-1336(a1) # ac8 <.LBB28_3+0x4>
    2e70:	01b08383          	lb	t2,27(ra)
    2e74:	025505b3          	mul	a1,a0,t0
    2e78:	00001637          	lui	a2,0x1
    2e7c:	00c10633          	add	a2,sp,a2
    2e80:	22563023          	sd	t0,544(a2) # 1220 <.LBB28_3+0x75c>
    2e84:	00001637          	lui	a2,0x1
    2e88:	00c10633          	add	a2,sp,a2
    2e8c:	ad063603          	ld	a2,-1328(a2) # ad0 <.LBB28_3+0xc>
    2e90:	00c58633          	add	a2,a1,a2
    2e94:	000015b7          	lui	a1,0x1
    2e98:	00b105b3          	add	a1,sp,a1
    2e9c:	acc5b823          	sd	a2,-1328(a1) # ad0 <.LBB28_3+0xc>
    2ea0:	01c08783          	lb	a5,28(ra)
    2ea4:	000015b7          	lui	a1,0x1
    2ea8:	00b105b3          	add	a1,sp,a1
    2eac:	1ef5b023          	sd	a5,480(a1) # 11e0 <.LBB28_3+0x71c>
    2eb0:	027505b3          	mul	a1,a0,t2
    2eb4:	00001637          	lui	a2,0x1
    2eb8:	00c10633          	add	a2,sp,a2
    2ebc:	20763423          	sd	t2,520(a2) # 1208 <.LBB28_3+0x744>
    2ec0:	00001637          	lui	a2,0x1
    2ec4:	00c10633          	add	a2,sp,a2
    2ec8:	ad863603          	ld	a2,-1320(a2) # ad8 <.LBB28_3+0x14>
    2ecc:	00c58633          	add	a2,a1,a2
    2ed0:	000015b7          	lui	a1,0x1
    2ed4:	00b105b3          	add	a1,sp,a1
    2ed8:	acc5bc23          	sd	a2,-1320(a1) # ad8 <.LBB28_3+0x14>
    2edc:	01d08603          	lb	a2,29(ra)
    2ee0:	02f505b3          	mul	a1,a0,a5
    2ee4:	000017b7          	lui	a5,0x1
    2ee8:	00f107b3          	add	a5,sp,a5
    2eec:	ae07be83          	ld	t4,-1312(a5) # ae0 <.LBB28_3+0x1c>
    2ef0:	01d58eb3          	add	t4,a1,t4
    2ef4:	000015b7          	lui	a1,0x1
    2ef8:	00b105b3          	add	a1,sp,a1
    2efc:	afd5b023          	sd	t4,-1312(a1) # ae0 <.LBB28_3+0x1c>
    2f00:	01e08d03          	lb	s10,30(ra)
    2f04:	02c505b3          	mul	a1,a0,a2
    2f08:	00060993          	mv	s3,a2
    2f0c:	00001637          	lui	a2,0x1
    2f10:	00c10633          	add	a2,sp,a2
    2f14:	ae863e83          	ld	t4,-1304(a2) # ae8 <.LBB28_3+0x24>
    2f18:	01d58eb3          	add	t4,a1,t4
    2f1c:	000015b7          	lui	a1,0x1
    2f20:	00b105b3          	add	a1,sp,a1
    2f24:	afd5b423          	sd	t4,-1304(a1) # ae8 <.LBB28_3+0x24>
    2f28:	01f08583          	lb	a1,31(ra)
    2f2c:	00001637          	lui	a2,0x1
    2f30:	00c10633          	add	a2,sp,a2
    2f34:	2f863e83          	ld	t4,760(a2) # 12f8 <.LBB28_3+0x834>
    2f38:	018e8e83          	lb	t4,24(t4)
    2f3c:	03a50b33          	mul	s6,a0,s10
    2f40:	00001637          	lui	a2,0x1
    2f44:	00c10633          	add	a2,sp,a2
    2f48:	af063c03          	ld	s8,-1296(a2) # af0 <.LBB28_3+0x2c>
    2f4c:	018b0c33          	add	s8,s6,s8
    2f50:	00001637          	lui	a2,0x1
    2f54:	00c10633          	add	a2,sp,a2
    2f58:	af863823          	sd	s8,-1296(a2) # af0 <.LBB28_3+0x2c>
    2f5c:	02b50533          	mul	a0,a0,a1
    2f60:	00058313          	mv	t1,a1
    2f64:	000015b7          	lui	a1,0x1
    2f68:	00b105b3          	add	a1,sp,a1
    2f6c:	af85bb03          	ld	s6,-1288(a1) # af8 <.LBB28_3+0x34>
    2f70:	01650b33          	add	s6,a0,s6
    2f74:	00001537          	lui	a0,0x1
    2f78:	00a10533          	add	a0,sp,a0
    2f7c:	af653c23          	sd	s6,-1288(a0) # af8 <.LBB28_3+0x34>
    2f80:	00001537          	lui	a0,0x1
    2f84:	00a10533          	add	a0,sp,a0
    2f88:	2c053f83          	ld	t6,704(a0) # 12c0 <.LBB28_3+0x7fc>
    2f8c:	03fe8533          	mul	a0,t4,t6
    2f90:	000015b7          	lui	a1,0x1
    2f94:	00b105b3          	add	a1,sp,a1
    2f98:	b205bb03          	ld	s6,-1248(a1) # b20 <.LBB28_3+0x5c>
    2f9c:	01650b33          	add	s6,a0,s6
    2fa0:	00001537          	lui	a0,0x1
    2fa4:	00a10533          	add	a0,sp,a0
    2fa8:	b3653023          	sd	s6,-1248(a0) # b20 <.LBB28_3+0x5c>
    2fac:	00001537          	lui	a0,0x1
    2fb0:	00a10533          	add	a0,sp,a0
    2fb4:	29053783          	ld	a5,656(a0) # 1290 <.LBB28_3+0x7cc>
    2fb8:	02fe8533          	mul	a0,t4,a5
    2fbc:	000015b7          	lui	a1,0x1
    2fc0:	00b105b3          	add	a1,sp,a1
    2fc4:	b185bb03          	ld	s6,-1256(a1) # b18 <.LBB28_3+0x54>
    2fc8:	01650b33          	add	s6,a0,s6
    2fcc:	00001537          	lui	a0,0x1
    2fd0:	00a10533          	add	a0,sp,a0
    2fd4:	b1653c23          	sd	s6,-1256(a0) # b18 <.LBB28_3+0x54>
    2fd8:	00001537          	lui	a0,0x1
    2fdc:	00a10533          	add	a0,sp,a0
    2fe0:	29853483          	ld	s1,664(a0) # 1298 <.LBB28_3+0x7d4>
    2fe4:	029e8533          	mul	a0,t4,s1
    2fe8:	000015b7          	lui	a1,0x1
    2fec:	00b105b3          	add	a1,sp,a1
    2ff0:	b105bb03          	ld	s6,-1264(a1) # b10 <.LBB28_3+0x4c>
    2ff4:	01650b33          	add	s6,a0,s6
    2ff8:	00001537          	lui	a0,0x1
    2ffc:	00a10533          	add	a0,sp,a0
    3000:	b1653823          	sd	s6,-1264(a0) # b10 <.LBB28_3+0x4c>
    3004:	02de8533          	mul	a0,t4,a3
    3008:	000015b7          	lui	a1,0x1
    300c:	00b105b3          	add	a1,sp,a1
    3010:	b085bb03          	ld	s6,-1272(a1) # b08 <.LBB28_3+0x44>
    3014:	01650b33          	add	s6,a0,s6
    3018:	00001537          	lui	a0,0x1
    301c:	00a10533          	add	a0,sp,a0
    3020:	b1653423          	sd	s6,-1272(a0) # b08 <.LBB28_3+0x44>
    3024:	02ee8533          	mul	a0,t4,a4
    3028:	000015b7          	lui	a1,0x1
    302c:	00b105b3          	add	a1,sp,a1
    3030:	b005bb03          	ld	s6,-1280(a1) # b00 <.LBB28_3+0x3c>
    3034:	01650b33          	add	s6,a0,s6
    3038:	00001537          	lui	a0,0x1
    303c:	00a10533          	add	a0,sp,a0
    3040:	b1653023          	sd	s6,-1280(a0) # b00 <.LBB28_3+0x3c>
    3044:	00001537          	lui	a0,0x1
    3048:	00a10533          	add	a0,sp,a0
    304c:	2a053683          	ld	a3,672(a0) # 12a0 <.LBB28_3+0x7dc>
    3050:	02de8533          	mul	a0,t4,a3
    3054:	000015b7          	lui	a1,0x1
    3058:	00b105b3          	add	a1,sp,a1
    305c:	b285bb03          	ld	s6,-1240(a1) # b28 <.LBB28_3+0x64>
    3060:	01650b33          	add	s6,a0,s6
    3064:	00001537          	lui	a0,0x1
    3068:	00a10533          	add	a0,sp,a0
    306c:	b3653423          	sd	s6,-1240(a0) # b28 <.LBB28_3+0x64>
    3070:	00001537          	lui	a0,0x1
    3074:	00a10533          	add	a0,sp,a0
    3078:	2f053703          	ld	a4,752(a0) # 12f0 <.LBB28_3+0x82c>
    307c:	02ee8533          	mul	a0,t4,a4
    3080:	000015b7          	lui	a1,0x1
    3084:	00b105b3          	add	a1,sp,a1
    3088:	b305bb03          	ld	s6,-1232(a1) # b30 <.LBB28_3+0x6c>
    308c:	01650b33          	add	s6,a0,s6
    3090:	00001537          	lui	a0,0x1
    3094:	00a10533          	add	a0,sp,a0
    3098:	b3653823          	sd	s6,-1232(a0) # b30 <.LBB28_3+0x6c>
    309c:	00001537          	lui	a0,0x1
    30a0:	00a10533          	add	a0,sp,a0
    30a4:	1d753c23          	sd	s7,472(a0) # 11d8 <.LBB28_3+0x714>
    30a8:	037e8533          	mul	a0,t4,s7
    30ac:	000015b7          	lui	a1,0x1
    30b0:	00b105b3          	add	a1,sp,a1
    30b4:	b385bb03          	ld	s6,-1224(a1) # b38 <.LBB28_3+0x74>
    30b8:	01650b33          	add	s6,a0,s6
    30bc:	00001537          	lui	a0,0x1
    30c0:	00a10533          	add	a0,sp,a0
    30c4:	b3653c23          	sd	s6,-1224(a0) # b38 <.LBB28_3+0x74>
    30c8:	00001537          	lui	a0,0x1
    30cc:	00a10533          	add	a0,sp,a0
    30d0:	22853e03          	ld	t3,552(a0) # 1228 <.LBB28_3+0x764>
    30d4:	03ce8533          	mul	a0,t4,t3
    30d8:	000015b7          	lui	a1,0x1
    30dc:	00b105b3          	add	a1,sp,a1
    30e0:	b405bb03          	ld	s6,-1216(a1) # b40 <.LBB28_3+0x7c>
    30e4:	01650b33          	add	s6,a0,s6
    30e8:	00001537          	lui	a0,0x1
    30ec:	00a10533          	add	a0,sp,a0
    30f0:	b5653023          	sd	s6,-1216(a0) # b40 <.LBB28_3+0x7c>
    30f4:	00001537          	lui	a0,0x1
    30f8:	00a10533          	add	a0,sp,a0
    30fc:	2b853503          	ld	a0,696(a0) # 12b8 <.LBB28_3+0x7f4>
    3100:	02ae8533          	mul	a0,t4,a0
    3104:	000015b7          	lui	a1,0x1
    3108:	00b105b3          	add	a1,sp,a1
    310c:	b485bb03          	ld	s6,-1208(a1) # b48 <.LBB28_3+0x84>
    3110:	01650b33          	add	s6,a0,s6
    3114:	00001537          	lui	a0,0x1
    3118:	00a10533          	add	a0,sp,a0
    311c:	b5653423          	sd	s6,-1208(a0) # b48 <.LBB28_3+0x84>
    3120:	039e8533          	mul	a0,t4,s9
    3124:	000015b7          	lui	a1,0x1
    3128:	00b105b3          	add	a1,sp,a1
    312c:	b505bb03          	ld	s6,-1200(a1) # b50 <.LBB28_3+0x8c>
    3130:	01650b33          	add	s6,a0,s6
    3134:	00001537          	lui	a0,0x1
    3138:	00a10533          	add	a0,sp,a0
    313c:	b5653823          	sd	s6,-1200(a0) # b50 <.LBB28_3+0x8c>
    3140:	030e8533          	mul	a0,t4,a6
    3144:	000015b7          	lui	a1,0x1
    3148:	00b105b3          	add	a1,sp,a1
    314c:	b585bb03          	ld	s6,-1192(a1) # b58 <.LBB28_3+0x94>
    3150:	01650b33          	add	s6,a0,s6
    3154:	00001537          	lui	a0,0x1
    3158:	00a10533          	add	a0,sp,a0
    315c:	b5653c23          	sd	s6,-1192(a0) # b58 <.LBB28_3+0x94>
    3160:	00001537          	lui	a0,0x1
    3164:	00a10533          	add	a0,sp,a0
    3168:	2a853a83          	ld	s5,680(a0) # 12a8 <.LBB28_3+0x7e4>
    316c:	035e8533          	mul	a0,t4,s5
    3170:	000015b7          	lui	a1,0x1
    3174:	00b105b3          	add	a1,sp,a1
    3178:	b605bb03          	ld	s6,-1184(a1) # b60 <.LBB28_3+0x9c>
    317c:	01650b33          	add	s6,a0,s6
    3180:	00001537          	lui	a0,0x1
    3184:	00a10533          	add	a0,sp,a0
    3188:	b7653023          	sd	s6,-1184(a0) # b60 <.LBB28_3+0x9c>
    318c:	00001537          	lui	a0,0x1
    3190:	00a10533          	add	a0,sp,a0
    3194:	28053883          	ld	a7,640(a0) # 1280 <.LBB28_3+0x7bc>
    3198:	031e8533          	mul	a0,t4,a7
    319c:	000015b7          	lui	a1,0x1
    31a0:	00b105b3          	add	a1,sp,a1
    31a4:	b685bb03          	ld	s6,-1176(a1) # b68 <.LBB28_3+0xa4>
    31a8:	01650b33          	add	s6,a0,s6
    31ac:	00001537          	lui	a0,0x1
    31b0:	00a10533          	add	a0,sp,a0
    31b4:	b7653423          	sd	s6,-1176(a0) # b68 <.LBB28_3+0xa4>
    31b8:	00001537          	lui	a0,0x1
    31bc:	00a10533          	add	a0,sp,a0
    31c0:	2d853903          	ld	s2,728(a0) # 12d8 <.LBB28_3+0x814>
    31c4:	032e8533          	mul	a0,t4,s2
    31c8:	000015b7          	lui	a1,0x1
    31cc:	00b105b3          	add	a1,sp,a1
    31d0:	b705bb03          	ld	s6,-1168(a1) # b70 <.LBB28_3+0xac>
    31d4:	01650b33          	add	s6,a0,s6
    31d8:	00001537          	lui	a0,0x1
    31dc:	00a10533          	add	a0,sp,a0
    31e0:	b7653823          	sd	s6,-1168(a0) # b70 <.LBB28_3+0xac>
    31e4:	00001537          	lui	a0,0x1
    31e8:	00a10533          	add	a0,sp,a0
    31ec:	2e053503          	ld	a0,736(a0) # 12e0 <.LBB28_3+0x81c>
    31f0:	02ae8533          	mul	a0,t4,a0
    31f4:	000015b7          	lui	a1,0x1
    31f8:	00b105b3          	add	a1,sp,a1
    31fc:	b785bb03          	ld	s6,-1160(a1) # b78 <.LBB28_3+0xb4>
    3200:	01650b33          	add	s6,a0,s6
    3204:	00001537          	lui	a0,0x1
    3208:	00a10533          	add	a0,sp,a0
    320c:	b7653c23          	sd	s6,-1160(a0) # b78 <.LBB28_3+0xb4>
    3210:	00001537          	lui	a0,0x1
    3214:	00a10533          	add	a0,sp,a0
    3218:	23853503          	ld	a0,568(a0) # 1238 <.LBB28_3+0x774>
    321c:	02ae8533          	mul	a0,t4,a0
    3220:	000015b7          	lui	a1,0x1
    3224:	00b105b3          	add	a1,sp,a1
    3228:	b805bb03          	ld	s6,-1152(a1) # b80 <.LBB28_3+0xbc>
    322c:	01650b33          	add	s6,a0,s6
    3230:	00001537          	lui	a0,0x1
    3234:	00a10533          	add	a0,sp,a0
    3238:	b9653023          	sd	s6,-1152(a0) # b80 <.LBB28_3+0xbc>
    323c:	03ee8533          	mul	a0,t4,t5
    3240:	000015b7          	lui	a1,0x1
    3244:	00b105b3          	add	a1,sp,a1
    3248:	b885bb03          	ld	s6,-1144(a1) # b88 <.LBB28_3+0xc4>
    324c:	01650b33          	add	s6,a0,s6
    3250:	00001537          	lui	a0,0x1
    3254:	00a10533          	add	a0,sp,a0
    3258:	b9653423          	sd	s6,-1144(a0) # b88 <.LBB28_3+0xc4>
    325c:	00001537          	lui	a0,0x1
    3260:	00a10533          	add	a0,sp,a0
    3264:	2b053503          	ld	a0,688(a0) # 12b0 <.LBB28_3+0x7ec>
    3268:	02ae8533          	mul	a0,t4,a0
    326c:	000015b7          	lui	a1,0x1
    3270:	00b105b3          	add	a1,sp,a1
    3274:	b905bb03          	ld	s6,-1136(a1) # b90 <.LBB28_3+0xcc>
    3278:	01650b33          	add	s6,a0,s6
    327c:	00001537          	lui	a0,0x1
    3280:	00a10533          	add	a0,sp,a0
    3284:	b9653823          	sd	s6,-1136(a0) # b90 <.LBB28_3+0xcc>
    3288:	00001537          	lui	a0,0x1
    328c:	00a10533          	add	a0,sp,a0
    3290:	1f053603          	ld	a2,496(a0) # 11f0 <.LBB28_3+0x72c>
    3294:	02ce8533          	mul	a0,t4,a2
    3298:	000015b7          	lui	a1,0x1
    329c:	00b105b3          	add	a1,sp,a1
    32a0:	b985bb03          	ld	s6,-1128(a1) # b98 <.LBB28_3+0xd4>
    32a4:	01650b33          	add	s6,a0,s6
    32a8:	00001537          	lui	a0,0x1
    32ac:	00a10533          	add	a0,sp,a0
    32b0:	b9653c23          	sd	s6,-1128(a0) # b98 <.LBB28_3+0xd4>
    32b4:	00001537          	lui	a0,0x1
    32b8:	00a10533          	add	a0,sp,a0
    32bc:	2e853503          	ld	a0,744(a0) # 12e8 <.LBB28_3+0x824>
    32c0:	02ae8533          	mul	a0,t4,a0
    32c4:	000015b7          	lui	a1,0x1
    32c8:	00b105b3          	add	a1,sp,a1
    32cc:	ba05bb03          	ld	s6,-1120(a1) # ba0 <.LBB28_3+0xdc>
    32d0:	01650b33          	add	s6,a0,s6
    32d4:	00001537          	lui	a0,0x1
    32d8:	00a10533          	add	a0,sp,a0
    32dc:	bb653023          	sd	s6,-1120(a0) # ba0 <.LBB28_3+0xdc>
    32e0:	00001537          	lui	a0,0x1
    32e4:	00a10533          	add	a0,sp,a0
    32e8:	1e853d83          	ld	s11,488(a0) # 11e8 <.LBB28_3+0x724>
    32ec:	03be8533          	mul	a0,t4,s11
    32f0:	000015b7          	lui	a1,0x1
    32f4:	00b105b3          	add	a1,sp,a1
    32f8:	ba85bb03          	ld	s6,-1112(a1) # ba8 <.LBB28_3+0xe4>
    32fc:	01650b33          	add	s6,a0,s6
    3300:	00001537          	lui	a0,0x1
    3304:	00a10533          	add	a0,sp,a0
    3308:	bb653423          	sd	s6,-1112(a0) # ba8 <.LBB28_3+0xe4>
    330c:	00001537          	lui	a0,0x1
    3310:	00a10533          	add	a0,sp,a0
    3314:	1f853583          	ld	a1,504(a0) # 11f8 <.LBB28_3+0x734>
    3318:	02be8533          	mul	a0,t4,a1
    331c:	00001f37          	lui	t5,0x1
    3320:	01e10f33          	add	t5,sp,t5
    3324:	bb0f3b03          	ld	s6,-1104(t5) # bb0 <.LBB28_3+0xec>
    3328:	01650b33          	add	s6,a0,s6
    332c:	00001537          	lui	a0,0x1
    3330:	00a10533          	add	a0,sp,a0
    3334:	bb653823          	sd	s6,-1104(a0) # bb0 <.LBB28_3+0xec>
    3338:	00001537          	lui	a0,0x1
    333c:	00a10533          	add	a0,sp,a0
    3340:	28853f03          	ld	t5,648(a0) # 1288 <.LBB28_3+0x7c4>
    3344:	03ee8533          	mul	a0,t4,t5
    3348:	00001b37          	lui	s6,0x1
    334c:	01610b33          	add	s6,sp,s6
    3350:	bb8b3b03          	ld	s6,-1096(s6) # bb8 <.LBB28_3+0xf4>
    3354:	01650b33          	add	s6,a0,s6
    3358:	00001537          	lui	a0,0x1
    335c:	00a10533          	add	a0,sp,a0
    3360:	bb653c23          	sd	s6,-1096(a0) # bb8 <.LBB28_3+0xf4>
    3364:	034e8533          	mul	a0,t4,s4
    3368:	00001a37          	lui	s4,0x1
    336c:	01410a33          	add	s4,sp,s4
    3370:	bc0a3b03          	ld	s6,-1088(s4) # bc0 <.LBB28_3+0xfc>
    3374:	01650b33          	add	s6,a0,s6
    3378:	00001537          	lui	a0,0x1
    337c:	00a10533          	add	a0,sp,a0
    3380:	bd653023          	sd	s6,-1088(a0) # bc0 <.LBB28_3+0xfc>
    3384:	00001537          	lui	a0,0x1
    3388:	00a10533          	add	a0,sp,a0
    338c:	23053503          	ld	a0,560(a0) # 1230 <.LBB28_3+0x76c>
    3390:	02ae8533          	mul	a0,t4,a0
    3394:	00001a37          	lui	s4,0x1
    3398:	01410a33          	add	s4,sp,s4
    339c:	bc8a3b03          	ld	s6,-1080(s4) # bc8 <.LBB28_3+0x104>
    33a0:	01650b33          	add	s6,a0,s6
    33a4:	00001537          	lui	a0,0x1
    33a8:	00a10533          	add	a0,sp,a0
    33ac:	bd653423          	sd	s6,-1080(a0) # bc8 <.LBB28_3+0x104>
    33b0:	025e8533          	mul	a0,t4,t0
    33b4:	000012b7          	lui	t0,0x1
    33b8:	005102b3          	add	t0,sp,t0
    33bc:	bd02bb03          	ld	s6,-1072(t0) # bd0 <.LBB28_3+0x10c>
    33c0:	01650b33          	add	s6,a0,s6
    33c4:	00001537          	lui	a0,0x1
    33c8:	00a10533          	add	a0,sp,a0
    33cc:	bd653823          	sd	s6,-1072(a0) # bd0 <.LBB28_3+0x10c>
    33d0:	027e8533          	mul	a0,t4,t2
    33d4:	000012b7          	lui	t0,0x1
    33d8:	005102b3          	add	t0,sp,t0
    33dc:	bd82bb03          	ld	s6,-1064(t0) # bd8 <.LBB28_3+0x114>
    33e0:	01650b33          	add	s6,a0,s6
    33e4:	00001537          	lui	a0,0x1
    33e8:	00a10533          	add	a0,sp,a0
    33ec:	bd653c23          	sd	s6,-1064(a0) # bd8 <.LBB28_3+0x114>
    33f0:	00001537          	lui	a0,0x1
    33f4:	00a10533          	add	a0,sp,a0
    33f8:	1e053a03          	ld	s4,480(a0) # 11e0 <.LBB28_3+0x71c>
    33fc:	034e8533          	mul	a0,t4,s4
    3400:	000012b7          	lui	t0,0x1
    3404:	005102b3          	add	t0,sp,t0
    3408:	be02bb03          	ld	s6,-1056(t0) # be0 <.LBB28_3+0x11c>
    340c:	01650b33          	add	s6,a0,s6
    3410:	00001537          	lui	a0,0x1
    3414:	00a10533          	add	a0,sp,a0
    3418:	bf653023          	sd	s6,-1056(a0) # be0 <.LBB28_3+0x11c>
    341c:	033e8533          	mul	a0,t4,s3
    3420:	00098393          	mv	t2,s3
    3424:	000012b7          	lui	t0,0x1
    3428:	005102b3          	add	t0,sp,t0
    342c:	2132b023          	sd	s3,512(t0) # 1200 <.LBB28_3+0x73c>
    3430:	000012b7          	lui	t0,0x1
    3434:	005102b3          	add	t0,sp,t0
    3438:	be82bb03          	ld	s6,-1048(t0) # be8 <.LBB28_3+0x124>
    343c:	01650b33          	add	s6,a0,s6
    3440:	00001537          	lui	a0,0x1
    3444:	00a10533          	add	a0,sp,a0
    3448:	bf653423          	sd	s6,-1048(a0) # be8 <.LBB28_3+0x124>
    344c:	00001537          	lui	a0,0x1
    3450:	00a10533          	add	a0,sp,a0
    3454:	2f853503          	ld	a0,760(a0) # 12f8 <.LBB28_3+0x834>
    3458:	03050503          	lb	a0,48(a0)
    345c:	03ae8b33          	mul	s6,t4,s10
    3460:	000012b7          	lui	t0,0x1
    3464:	005102b3          	add	t0,sp,t0
    3468:	bf02bc03          	ld	s8,-1040(t0) # bf0 <.LBB28_3+0x12c>
    346c:	018b0c33          	add	s8,s6,s8
    3470:	000012b7          	lui	t0,0x1
    3474:	005102b3          	add	t0,sp,t0
    3478:	bf82b823          	sd	s8,-1040(t0) # bf0 <.LBB28_3+0x12c>
    347c:	026e8eb3          	mul	t4,t4,t1
    3480:	000012b7          	lui	t0,0x1
    3484:	005102b3          	add	t0,sp,t0
    3488:	bf82bb03          	ld	s6,-1032(t0) # bf8 <.LBB28_3+0x134>
    348c:	016e8b33          	add	s6,t4,s6
    3490:	000012b7          	lui	t0,0x1
    3494:	005102b3          	add	t0,sp,t0
    3498:	bf62bc23          	sd	s6,-1032(t0) # bf8 <.LBB28_3+0x134>
    349c:	03f50eb3          	mul	t4,a0,t6
    34a0:	000012b7          	lui	t0,0x1
    34a4:	005102b3          	add	t0,sp,t0
    34a8:	c202bb03          	ld	s6,-992(t0) # c20 <.LBB28_3+0x15c>
    34ac:	016e8b33          	add	s6,t4,s6
    34b0:	000012b7          	lui	t0,0x1
    34b4:	005102b3          	add	t0,sp,t0
    34b8:	c362b023          	sd	s6,-992(t0) # c20 <.LBB28_3+0x15c>
    34bc:	02f50eb3          	mul	t4,a0,a5
    34c0:	000017b7          	lui	a5,0x1
    34c4:	00f107b3          	add	a5,sp,a5
    34c8:	c187bb03          	ld	s6,-1000(a5) # c18 <.LBB28_3+0x154>
    34cc:	016e8b33          	add	s6,t4,s6
    34d0:	000017b7          	lui	a5,0x1
    34d4:	00f107b3          	add	a5,sp,a5
    34d8:	c167bc23          	sd	s6,-1000(a5) # c18 <.LBB28_3+0x154>
    34dc:	02950eb3          	mul	t4,a0,s1
    34e0:	000017b7          	lui	a5,0x1
    34e4:	00f107b3          	add	a5,sp,a5
    34e8:	c107bb03          	ld	s6,-1008(a5) # c10 <.LBB28_3+0x14c>
    34ec:	016e8b33          	add	s6,t4,s6
    34f0:	000017b7          	lui	a5,0x1
    34f4:	00f107b3          	add	a5,sp,a5
    34f8:	c167b823          	sd	s6,-1008(a5) # c10 <.LBB28_3+0x14c>
    34fc:	000017b7          	lui	a5,0x1
    3500:	00f107b3          	add	a5,sp,a5
    3504:	2d07b783          	ld	a5,720(a5) # 12d0 <.LBB28_3+0x80c>
    3508:	02f50eb3          	mul	t4,a0,a5
    350c:	000017b7          	lui	a5,0x1
    3510:	00f107b3          	add	a5,sp,a5
    3514:	c087bb03          	ld	s6,-1016(a5) # c08 <.LBB28_3+0x144>
    3518:	016e8b33          	add	s6,t4,s6
    351c:	000017b7          	lui	a5,0x1
    3520:	00f107b3          	add	a5,sp,a5
    3524:	c167b423          	sd	s6,-1016(a5) # c08 <.LBB28_3+0x144>
    3528:	000017b7          	lui	a5,0x1
    352c:	00f107b3          	add	a5,sp,a5
    3530:	2c87b783          	ld	a5,712(a5) # 12c8 <.LBB28_3+0x804>
    3534:	02f50eb3          	mul	t4,a0,a5
    3538:	000017b7          	lui	a5,0x1
    353c:	00f107b3          	add	a5,sp,a5
    3540:	c007bb03          	ld	s6,-1024(a5) # c00 <.LBB28_3+0x13c>
    3544:	016e8b33          	add	s6,t4,s6
    3548:	000017b7          	lui	a5,0x1
    354c:	00f107b3          	add	a5,sp,a5
    3550:	c167b023          	sd	s6,-1024(a5) # c00 <.LBB28_3+0x13c>
    3554:	02d50eb3          	mul	t4,a0,a3
    3558:	00068793          	mv	a5,a3
    355c:	000016b7          	lui	a3,0x1
    3560:	00d106b3          	add	a3,sp,a3
    3564:	c286bb03          	ld	s6,-984(a3) # c28 <.LBB28_3+0x164>
    3568:	016e8b33          	add	s6,t4,s6
    356c:	000016b7          	lui	a3,0x1
    3570:	00d106b3          	add	a3,sp,a3
    3574:	c366b423          	sd	s6,-984(a3) # c28 <.LBB28_3+0x164>
    3578:	02e50eb3          	mul	t4,a0,a4
    357c:	000016b7          	lui	a3,0x1
    3580:	00d106b3          	add	a3,sp,a3
    3584:	c306bb03          	ld	s6,-976(a3) # c30 <.LBB28_3+0x16c>
    3588:	016e8b33          	add	s6,t4,s6
    358c:	000016b7          	lui	a3,0x1
    3590:	00d106b3          	add	a3,sp,a3
    3594:	c366b823          	sd	s6,-976(a3) # c30 <.LBB28_3+0x16c>
    3598:	03750eb3          	mul	t4,a0,s7
    359c:	000016b7          	lui	a3,0x1
    35a0:	00d106b3          	add	a3,sp,a3
    35a4:	c386bb03          	ld	s6,-968(a3) # c38 <.LBB28_3+0x174>
    35a8:	016e8b33          	add	s6,t4,s6
    35ac:	000016b7          	lui	a3,0x1
    35b0:	00d106b3          	add	a3,sp,a3
    35b4:	c366bc23          	sd	s6,-968(a3) # c38 <.LBB28_3+0x174>
    35b8:	03c50eb3          	mul	t4,a0,t3
    35bc:	000016b7          	lui	a3,0x1
    35c0:	00d106b3          	add	a3,sp,a3
    35c4:	c406bb03          	ld	s6,-960(a3) # c40 <.LBB28_3+0x17c>
    35c8:	016e8b33          	add	s6,t4,s6
    35cc:	000016b7          	lui	a3,0x1
    35d0:	00d106b3          	add	a3,sp,a3
    35d4:	c566b023          	sd	s6,-960(a3) # c40 <.LBB28_3+0x17c>
    35d8:	000016b7          	lui	a3,0x1
    35dc:	00d106b3          	add	a3,sp,a3
    35e0:	2b86b983          	ld	s3,696(a3) # 12b8 <.LBB28_3+0x7f4>
    35e4:	03350eb3          	mul	t4,a0,s3
    35e8:	000016b7          	lui	a3,0x1
    35ec:	00d106b3          	add	a3,sp,a3
    35f0:	c486bb03          	ld	s6,-952(a3) # c48 <.LBB28_3+0x184>
    35f4:	016e8b33          	add	s6,t4,s6
    35f8:	000016b7          	lui	a3,0x1
    35fc:	00d106b3          	add	a3,sp,a3
    3600:	c566b423          	sd	s6,-952(a3) # c48 <.LBB28_3+0x184>
    3604:	000016b7          	lui	a3,0x1
    3608:	00d106b3          	add	a3,sp,a3
    360c:	2196bc23          	sd	s9,536(a3) # 1218 <.LBB28_3+0x754>
    3610:	03950eb3          	mul	t4,a0,s9
    3614:	000016b7          	lui	a3,0x1
    3618:	00d106b3          	add	a3,sp,a3
    361c:	c506bb03          	ld	s6,-944(a3) # c50 <.LBB28_3+0x18c>
    3620:	016e8b33          	add	s6,t4,s6
    3624:	000016b7          	lui	a3,0x1
    3628:	00d106b3          	add	a3,sp,a3
    362c:	c566b823          	sd	s6,-944(a3) # c50 <.LBB28_3+0x18c>
    3630:	000016b7          	lui	a3,0x1
    3634:	00d106b3          	add	a3,sp,a3
    3638:	1d06b823          	sd	a6,464(a3) # 11d0 <.LBB28_3+0x70c>
    363c:	03050eb3          	mul	t4,a0,a6
    3640:	000016b7          	lui	a3,0x1
    3644:	00d106b3          	add	a3,sp,a3
    3648:	c586bb03          	ld	s6,-936(a3) # c58 <.LBB28_3+0x194>
    364c:	016e8b33          	add	s6,t4,s6
    3650:	000016b7          	lui	a3,0x1
    3654:	00d106b3          	add	a3,sp,a3
    3658:	c566bc23          	sd	s6,-936(a3) # c58 <.LBB28_3+0x194>
    365c:	03550eb3          	mul	t4,a0,s5
    3660:	000016b7          	lui	a3,0x1
    3664:	00d106b3          	add	a3,sp,a3
    3668:	c606bb03          	ld	s6,-928(a3) # c60 <.LBB28_3+0x19c>
    366c:	016e8b33          	add	s6,t4,s6
    3670:	000016b7          	lui	a3,0x1
    3674:	00d106b3          	add	a3,sp,a3
    3678:	c766b023          	sd	s6,-928(a3) # c60 <.LBB28_3+0x19c>
    367c:	03150eb3          	mul	t4,a0,a7
    3680:	000016b7          	lui	a3,0x1
    3684:	00d106b3          	add	a3,sp,a3
    3688:	c686bb03          	ld	s6,-920(a3) # c68 <.LBB28_3+0x1a4>
    368c:	016e8b33          	add	s6,t4,s6
    3690:	000016b7          	lui	a3,0x1
    3694:	00d106b3          	add	a3,sp,a3
    3698:	c766b423          	sd	s6,-920(a3) # c68 <.LBB28_3+0x1a4>
    369c:	03250eb3          	mul	t4,a0,s2
    36a0:	000016b7          	lui	a3,0x1
    36a4:	00d106b3          	add	a3,sp,a3
    36a8:	c706bb03          	ld	s6,-912(a3) # c70 <.LBB28_3+0x1ac>
    36ac:	016e8b33          	add	s6,t4,s6
    36b0:	000016b7          	lui	a3,0x1
    36b4:	00d106b3          	add	a3,sp,a3
    36b8:	c766b823          	sd	s6,-912(a3) # c70 <.LBB28_3+0x1ac>
    36bc:	000016b7          	lui	a3,0x1
    36c0:	00d106b3          	add	a3,sp,a3
    36c4:	2e06b483          	ld	s1,736(a3) # 12e0 <.LBB28_3+0x81c>
    36c8:	02950eb3          	mul	t4,a0,s1
    36cc:	000016b7          	lui	a3,0x1
    36d0:	00d106b3          	add	a3,sp,a3
    36d4:	c786bb03          	ld	s6,-904(a3) # c78 <.LBB28_3+0x1b4>
    36d8:	016e8b33          	add	s6,t4,s6
    36dc:	000016b7          	lui	a3,0x1
    36e0:	00d106b3          	add	a3,sp,a3
    36e4:	c766bc23          	sd	s6,-904(a3) # c78 <.LBB28_3+0x1b4>
    36e8:	000016b7          	lui	a3,0x1
    36ec:	00d106b3          	add	a3,sp,a3
    36f0:	2386b283          	ld	t0,568(a3) # 1238 <.LBB28_3+0x774>
    36f4:	02550eb3          	mul	t4,a0,t0
    36f8:	000016b7          	lui	a3,0x1
    36fc:	00d106b3          	add	a3,sp,a3
    3700:	c806bb03          	ld	s6,-896(a3) # c80 <.LBB28_3+0x1bc>
    3704:	016e8b33          	add	s6,t4,s6
    3708:	000016b7          	lui	a3,0x1
    370c:	00d106b3          	add	a3,sp,a3
    3710:	c966b023          	sd	s6,-896(a3) # c80 <.LBB28_3+0x1bc>
    3714:	000016b7          	lui	a3,0x1
    3718:	00d106b3          	add	a3,sp,a3
    371c:	2106b683          	ld	a3,528(a3) # 1210 <.LBB28_3+0x74c>
    3720:	02d50eb3          	mul	t4,a0,a3
    3724:	000016b7          	lui	a3,0x1
    3728:	00d106b3          	add	a3,sp,a3
    372c:	c886bb03          	ld	s6,-888(a3) # c88 <.LBB28_3+0x1c4>
    3730:	016e8b33          	add	s6,t4,s6
    3734:	000016b7          	lui	a3,0x1
    3738:	00d106b3          	add	a3,sp,a3
    373c:	c966b423          	sd	s6,-888(a3) # c88 <.LBB28_3+0x1c4>
    3740:	000016b7          	lui	a3,0x1
    3744:	00d106b3          	add	a3,sp,a3
    3748:	2b06be03          	ld	t3,688(a3) # 12b0 <.LBB28_3+0x7ec>
    374c:	03c50eb3          	mul	t4,a0,t3
    3750:	000016b7          	lui	a3,0x1
    3754:	00d106b3          	add	a3,sp,a3
    3758:	c906bb03          	ld	s6,-880(a3) # c90 <.LBB28_3+0x1cc>
    375c:	016e8b33          	add	s6,t4,s6
    3760:	000016b7          	lui	a3,0x1
    3764:	00d106b3          	add	a3,sp,a3
    3768:	c966b823          	sd	s6,-880(a3) # c90 <.LBB28_3+0x1cc>
    376c:	02c50eb3          	mul	t4,a0,a2
    3770:	00001637          	lui	a2,0x1
    3774:	00c10633          	add	a2,sp,a2
    3778:	c9863b03          	ld	s6,-872(a2) # c98 <.LBB28_3+0x1d4>
    377c:	016e8b33          	add	s6,t4,s6
    3780:	00001637          	lui	a2,0x1
    3784:	00c10633          	add	a2,sp,a2
    3788:	c9663c23          	sd	s6,-872(a2) # c98 <.LBB28_3+0x1d4>
    378c:	00001637          	lui	a2,0x1
    3790:	00c10633          	add	a2,sp,a2
    3794:	2e863883          	ld	a7,744(a2) # 12e8 <.LBB28_3+0x824>
    3798:	03150eb3          	mul	t4,a0,a7
    379c:	00001637          	lui	a2,0x1
    37a0:	00c10633          	add	a2,sp,a2
    37a4:	ca063b03          	ld	s6,-864(a2) # ca0 <.LBB28_3+0x1dc>
    37a8:	016e8b33          	add	s6,t4,s6
    37ac:	00001637          	lui	a2,0x1
    37b0:	00c10633          	add	a2,sp,a2
    37b4:	cb663023          	sd	s6,-864(a2) # ca0 <.LBB28_3+0x1dc>
    37b8:	000d8713          	mv	a4,s11
    37bc:	03b50eb3          	mul	t4,a0,s11
    37c0:	00001637          	lui	a2,0x1
    37c4:	00c10633          	add	a2,sp,a2
    37c8:	ca863b03          	ld	s6,-856(a2) # ca8 <.LBB28_3+0x1e4>
    37cc:	016e8b33          	add	s6,t4,s6
    37d0:	00001637          	lui	a2,0x1
    37d4:	00c10633          	add	a2,sp,a2
    37d8:	cb663423          	sd	s6,-856(a2) # ca8 <.LBB28_3+0x1e4>
    37dc:	02b50eb3          	mul	t4,a0,a1
    37e0:	000015b7          	lui	a1,0x1
    37e4:	00b105b3          	add	a1,sp,a1
    37e8:	cb05bb03          	ld	s6,-848(a1) # cb0 <.LBB28_3+0x1ec>
    37ec:	016e8b33          	add	s6,t4,s6
    37f0:	000015b7          	lui	a1,0x1
    37f4:	00b105b3          	add	a1,sp,a1
    37f8:	cb65b823          	sd	s6,-848(a1) # cb0 <.LBB28_3+0x1ec>
    37fc:	000f0b93          	mv	s7,t5
    3800:	03e50eb3          	mul	t4,a0,t5
    3804:	000015b7          	lui	a1,0x1
    3808:	00b105b3          	add	a1,sp,a1
    380c:	cb85bb03          	ld	s6,-840(a1) # cb8 <.LBB28_3+0x1f4>
    3810:	016e8b33          	add	s6,t4,s6
    3814:	000015b7          	lui	a1,0x1
    3818:	00b105b3          	add	a1,sp,a1
    381c:	cb65bc23          	sd	s6,-840(a1) # cb8 <.LBB28_3+0x1f4>
    3820:	000015b7          	lui	a1,0x1
    3824:	00b105b3          	add	a1,sp,a1
    3828:	1c05b603          	ld	a2,448(a1) # 11c0 <.LBB28_3+0x6fc>
    382c:	02c50eb3          	mul	t4,a0,a2
    3830:	000015b7          	lui	a1,0x1
    3834:	00b105b3          	add	a1,sp,a1
    3838:	cc05bb03          	ld	s6,-832(a1) # cc0 <.LBB28_3+0x1fc>
    383c:	016e8b33          	add	s6,t4,s6
    3840:	000015b7          	lui	a1,0x1
    3844:	00b105b3          	add	a1,sp,a1
    3848:	cd65b023          	sd	s6,-832(a1) # cc0 <.LBB28_3+0x1fc>
    384c:	000015b7          	lui	a1,0x1
    3850:	00b105b3          	add	a1,sp,a1
    3854:	2305ba83          	ld	s5,560(a1) # 1230 <.LBB28_3+0x76c>
    3858:	03550eb3          	mul	t4,a0,s5
    385c:	000015b7          	lui	a1,0x1
    3860:	00b105b3          	add	a1,sp,a1
    3864:	cc85bb03          	ld	s6,-824(a1) # cc8 <.LBB28_3+0x204>
    3868:	016e8b33          	add	s6,t4,s6
    386c:	000015b7          	lui	a1,0x1
    3870:	00b105b3          	add	a1,sp,a1
    3874:	cd65b423          	sd	s6,-824(a1) # cc8 <.LBB28_3+0x204>
    3878:	000015b7          	lui	a1,0x1
    387c:	00b105b3          	add	a1,sp,a1
    3880:	2205b583          	ld	a1,544(a1) # 1220 <.LBB28_3+0x75c>
    3884:	02b50eb3          	mul	t4,a0,a1
    3888:	000015b7          	lui	a1,0x1
    388c:	00b105b3          	add	a1,sp,a1
    3890:	cd05bb03          	ld	s6,-816(a1) # cd0 <.LBB28_3+0x20c>
    3894:	016e8b33          	add	s6,t4,s6
    3898:	000015b7          	lui	a1,0x1
    389c:	00b105b3          	add	a1,sp,a1
    38a0:	cd65b823          	sd	s6,-816(a1) # cd0 <.LBB28_3+0x20c>
    38a4:	000015b7          	lui	a1,0x1
    38a8:	00b105b3          	add	a1,sp,a1
    38ac:	2085bf03          	ld	t5,520(a1) # 1208 <.LBB28_3+0x744>
    38b0:	03e50eb3          	mul	t4,a0,t5
    38b4:	000015b7          	lui	a1,0x1
    38b8:	00b105b3          	add	a1,sp,a1
    38bc:	cd85bb03          	ld	s6,-808(a1) # cd8 <.LBB28_3+0x214>
    38c0:	016e8b33          	add	s6,t4,s6
    38c4:	000015b7          	lui	a1,0x1
    38c8:	00b105b3          	add	a1,sp,a1
    38cc:	cd65bc23          	sd	s6,-808(a1) # cd8 <.LBB28_3+0x214>
    38d0:	03450eb3          	mul	t4,a0,s4
    38d4:	000015b7          	lui	a1,0x1
    38d8:	00b105b3          	add	a1,sp,a1
    38dc:	ce05bb03          	ld	s6,-800(a1) # ce0 <.LBB28_3+0x21c>
    38e0:	016e8b33          	add	s6,t4,s6
    38e4:	000015b7          	lui	a1,0x1
    38e8:	00b105b3          	add	a1,sp,a1
    38ec:	cf65b023          	sd	s6,-800(a1) # ce0 <.LBB28_3+0x21c>
    38f0:	02750eb3          	mul	t4,a0,t2
    38f4:	000015b7          	lui	a1,0x1
    38f8:	00b105b3          	add	a1,sp,a1
    38fc:	ce85bb03          	ld	s6,-792(a1) # ce8 <.LBB28_3+0x224>
    3900:	016e8b33          	add	s6,t4,s6
    3904:	000015b7          	lui	a1,0x1
    3908:	00b105b3          	add	a1,sp,a1
    390c:	cf65b423          	sd	s6,-792(a1) # ce8 <.LBB28_3+0x224>
    3910:	000015b7          	lui	a1,0x1
    3914:	00b105b3          	add	a1,sp,a1
    3918:	2f85be83          	ld	t4,760(a1) # 12f8 <.LBB28_3+0x834>
    391c:	048e8e83          	lb	t4,72(t4)
    3920:	03a50b33          	mul	s6,a0,s10
    3924:	000015b7          	lui	a1,0x1
    3928:	00b105b3          	add	a1,sp,a1
    392c:	cf05bc03          	ld	s8,-784(a1) # cf0 <.LBB28_3+0x22c>
    3930:	018b0c33          	add	s8,s6,s8
    3934:	000015b7          	lui	a1,0x1
    3938:	00b105b3          	add	a1,sp,a1
    393c:	cf85b823          	sd	s8,-784(a1) # cf0 <.LBB28_3+0x22c>
    3940:	00030f93          	mv	t6,t1
    3944:	000015b7          	lui	a1,0x1
    3948:	00b105b3          	add	a1,sp,a1
    394c:	1c65b423          	sd	t1,456(a1) # 11c8 <.LBB28_3+0x704>
    3950:	02650533          	mul	a0,a0,t1
    3954:	000015b7          	lui	a1,0x1
    3958:	00b105b3          	add	a1,sp,a1
    395c:	cf85bb03          	ld	s6,-776(a1) # cf8 <.LBB28_3+0x234>
    3960:	01650b33          	add	s6,a0,s6
    3964:	00001537          	lui	a0,0x1
    3968:	00a10533          	add	a0,sp,a0
    396c:	cf653c23          	sd	s6,-776(a0) # cf8 <.LBB28_3+0x234>
    3970:	00001537          	lui	a0,0x1
    3974:	00a10533          	add	a0,sp,a0
    3978:	2c053503          	ld	a0,704(a0) # 12c0 <.LBB28_3+0x7fc>
    397c:	02ae8533          	mul	a0,t4,a0
    3980:	000015b7          	lui	a1,0x1
    3984:	00b105b3          	add	a1,sp,a1
    3988:	d205bb03          	ld	s6,-736(a1) # d20 <.LBB28_3+0x25c>
    398c:	01650b33          	add	s6,a0,s6
    3990:	00001537          	lui	a0,0x1
    3994:	00a10533          	add	a0,sp,a0
    3998:	d3653023          	sd	s6,-736(a0) # d20 <.LBB28_3+0x25c>
    399c:	00001537          	lui	a0,0x1
    39a0:	00a10533          	add	a0,sp,a0
    39a4:	29053583          	ld	a1,656(a0) # 1290 <.LBB28_3+0x7cc>
    39a8:	02be8533          	mul	a0,t4,a1
    39ac:	000016b7          	lui	a3,0x1
    39b0:	00d106b3          	add	a3,sp,a3
    39b4:	d186bb03          	ld	s6,-744(a3) # d18 <.LBB28_3+0x254>
    39b8:	01650b33          	add	s6,a0,s6
    39bc:	00001537          	lui	a0,0x1
    39c0:	00a10533          	add	a0,sp,a0
    39c4:	d1653c23          	sd	s6,-744(a0) # d18 <.LBB28_3+0x254>
    39c8:	00001537          	lui	a0,0x1
    39cc:	00a10533          	add	a0,sp,a0
    39d0:	29853d83          	ld	s11,664(a0) # 1298 <.LBB28_3+0x7d4>
    39d4:	03be8533          	mul	a0,t4,s11
    39d8:	000016b7          	lui	a3,0x1
    39dc:	00d106b3          	add	a3,sp,a3
    39e0:	d106bb03          	ld	s6,-752(a3) # d10 <.LBB28_3+0x24c>
    39e4:	01650b33          	add	s6,a0,s6
    39e8:	00001537          	lui	a0,0x1
    39ec:	00a10533          	add	a0,sp,a0
    39f0:	d1653823          	sd	s6,-752(a0) # d10 <.LBB28_3+0x24c>
    39f4:	00001537          	lui	a0,0x1
    39f8:	00a10533          	add	a0,sp,a0
    39fc:	2d053683          	ld	a3,720(a0) # 12d0 <.LBB28_3+0x80c>
    3a00:	02de8533          	mul	a0,t4,a3
    3a04:	00001337          	lui	t1,0x1
    3a08:	00610333          	add	t1,sp,t1
    3a0c:	d0833b03          	ld	s6,-760(t1) # d08 <.LBB28_3+0x244>
    3a10:	01650b33          	add	s6,a0,s6
    3a14:	00001537          	lui	a0,0x1
    3a18:	00a10533          	add	a0,sp,a0
    3a1c:	d1653423          	sd	s6,-760(a0) # d08 <.LBB28_3+0x244>
    3a20:	00001537          	lui	a0,0x1
    3a24:	00a10533          	add	a0,sp,a0
    3a28:	2c853a03          	ld	s4,712(a0) # 12c8 <.LBB28_3+0x804>
    3a2c:	034e8533          	mul	a0,t4,s4
    3a30:	00001337          	lui	t1,0x1
    3a34:	00610333          	add	t1,sp,t1
    3a38:	d0033b03          	ld	s6,-768(t1) # d00 <.LBB28_3+0x23c>
    3a3c:	01650b33          	add	s6,a0,s6
    3a40:	00001537          	lui	a0,0x1
    3a44:	00a10533          	add	a0,sp,a0
    3a48:	d1653023          	sd	s6,-768(a0) # d00 <.LBB28_3+0x23c>
    3a4c:	02fe8533          	mul	a0,t4,a5
    3a50:	000017b7          	lui	a5,0x1
    3a54:	00f107b3          	add	a5,sp,a5
    3a58:	d287bb03          	ld	s6,-728(a5) # d28 <.LBB28_3+0x264>
    3a5c:	01650b33          	add	s6,a0,s6
    3a60:	00001537          	lui	a0,0x1
    3a64:	00a10533          	add	a0,sp,a0
    3a68:	d3653423          	sd	s6,-728(a0) # d28 <.LBB28_3+0x264>
    3a6c:	00001537          	lui	a0,0x1
    3a70:	00a10533          	add	a0,sp,a0
    3a74:	2f053503          	ld	a0,752(a0) # 12f0 <.LBB28_3+0x82c>
    3a78:	02ae8533          	mul	a0,t4,a0
    3a7c:	000017b7          	lui	a5,0x1
    3a80:	00f107b3          	add	a5,sp,a5
    3a84:	d307bb03          	ld	s6,-720(a5) # d30 <.LBB28_3+0x26c>
    3a88:	01650b33          	add	s6,a0,s6
    3a8c:	00001537          	lui	a0,0x1
    3a90:	00a10533          	add	a0,sp,a0
    3a94:	d3653823          	sd	s6,-720(a0) # d30 <.LBB28_3+0x26c>
    3a98:	00001537          	lui	a0,0x1
    3a9c:	00a10533          	add	a0,sp,a0
    3aa0:	1d853503          	ld	a0,472(a0) # 11d8 <.LBB28_3+0x714>
    3aa4:	02ae8533          	mul	a0,t4,a0
    3aa8:	000017b7          	lui	a5,0x1
    3aac:	00f107b3          	add	a5,sp,a5
    3ab0:	d387bb03          	ld	s6,-712(a5) # d38 <.LBB28_3+0x274>
    3ab4:	01650b33          	add	s6,a0,s6
    3ab8:	00001537          	lui	a0,0x1
    3abc:	00a10533          	add	a0,sp,a0
    3ac0:	d3653c23          	sd	s6,-712(a0) # d38 <.LBB28_3+0x274>
    3ac4:	00001537          	lui	a0,0x1
    3ac8:	00a10533          	add	a0,sp,a0
    3acc:	22853503          	ld	a0,552(a0) # 1228 <.LBB28_3+0x764>
    3ad0:	02ae8533          	mul	a0,t4,a0
    3ad4:	000017b7          	lui	a5,0x1
    3ad8:	00f107b3          	add	a5,sp,a5
    3adc:	d407bb03          	ld	s6,-704(a5) # d40 <.LBB28_3+0x27c>
    3ae0:	01650b33          	add	s6,a0,s6
    3ae4:	00001537          	lui	a0,0x1
    3ae8:	00a10533          	add	a0,sp,a0
    3aec:	d5653023          	sd	s6,-704(a0) # d40 <.LBB28_3+0x27c>
    3af0:	033e8533          	mul	a0,t4,s3
    3af4:	000017b7          	lui	a5,0x1
    3af8:	00f107b3          	add	a5,sp,a5
    3afc:	d487bb03          	ld	s6,-696(a5) # d48 <.LBB28_3+0x284>
    3b00:	01650b33          	add	s6,a0,s6
    3b04:	00001537          	lui	a0,0x1
    3b08:	00a10533          	add	a0,sp,a0
    3b0c:	d5653423          	sd	s6,-696(a0) # d48 <.LBB28_3+0x284>
    3b10:	039e8533          	mul	a0,t4,s9
    3b14:	000017b7          	lui	a5,0x1
    3b18:	00f107b3          	add	a5,sp,a5
    3b1c:	d507bb03          	ld	s6,-688(a5) # d50 <.LBB28_3+0x28c>
    3b20:	01650b33          	add	s6,a0,s6
    3b24:	00001537          	lui	a0,0x1
    3b28:	00a10533          	add	a0,sp,a0
    3b2c:	d5653823          	sd	s6,-688(a0) # d50 <.LBB28_3+0x28c>
    3b30:	030e8533          	mul	a0,t4,a6
    3b34:	000017b7          	lui	a5,0x1
    3b38:	00f107b3          	add	a5,sp,a5
    3b3c:	d587bb03          	ld	s6,-680(a5) # d58 <.LBB28_3+0x294>
    3b40:	01650b33          	add	s6,a0,s6
    3b44:	00001537          	lui	a0,0x1
    3b48:	00a10533          	add	a0,sp,a0
    3b4c:	d5653c23          	sd	s6,-680(a0) # d58 <.LBB28_3+0x294>
    3b50:	00001537          	lui	a0,0x1
    3b54:	00a10533          	add	a0,sp,a0
    3b58:	2a853783          	ld	a5,680(a0) # 12a8 <.LBB28_3+0x7e4>
    3b5c:	02fe8533          	mul	a0,t4,a5
    3b60:	00001837          	lui	a6,0x1
    3b64:	01010833          	add	a6,sp,a6
    3b68:	d6083b03          	ld	s6,-672(a6) # d60 <.LBB28_3+0x29c>
    3b6c:	01650b33          	add	s6,a0,s6
    3b70:	00001537          	lui	a0,0x1
    3b74:	00a10533          	add	a0,sp,a0
    3b78:	d7653023          	sd	s6,-672(a0) # d60 <.LBB28_3+0x29c>
    3b7c:	00001537          	lui	a0,0x1
    3b80:	00a10533          	add	a0,sp,a0
    3b84:	28053c83          	ld	s9,640(a0) # 1280 <.LBB28_3+0x7bc>
    3b88:	039e8533          	mul	a0,t4,s9
    3b8c:	00001837          	lui	a6,0x1
    3b90:	01010833          	add	a6,sp,a6
    3b94:	d6883b03          	ld	s6,-664(a6) # d68 <.LBB28_3+0x2a4>
    3b98:	01650b33          	add	s6,a0,s6
    3b9c:	00001537          	lui	a0,0x1
    3ba0:	00a10533          	add	a0,sp,a0
    3ba4:	d7653423          	sd	s6,-664(a0) # d68 <.LBB28_3+0x2a4>
    3ba8:	032e8533          	mul	a0,t4,s2
    3bac:	00001837          	lui	a6,0x1
    3bb0:	01010833          	add	a6,sp,a6
    3bb4:	d7083b03          	ld	s6,-656(a6) # d70 <.LBB28_3+0x2ac>
    3bb8:	01650b33          	add	s6,a0,s6
    3bbc:	00001537          	lui	a0,0x1
    3bc0:	00a10533          	add	a0,sp,a0
    3bc4:	d7653823          	sd	s6,-656(a0) # d70 <.LBB28_3+0x2ac>
    3bc8:	029e8533          	mul	a0,t4,s1
    3bcc:	00048913          	mv	s2,s1
    3bd0:	00001837          	lui	a6,0x1
    3bd4:	01010833          	add	a6,sp,a6
    3bd8:	d7883b03          	ld	s6,-648(a6) # d78 <.LBB28_3+0x2b4>
    3bdc:	01650b33          	add	s6,a0,s6
    3be0:	00001537          	lui	a0,0x1
    3be4:	00a10533          	add	a0,sp,a0
    3be8:	d7653c23          	sd	s6,-648(a0) # d78 <.LBB28_3+0x2b4>
    3bec:	025e8533          	mul	a0,t4,t0
    3bf0:	00001837          	lui	a6,0x1
    3bf4:	01010833          	add	a6,sp,a6
    3bf8:	d8083b03          	ld	s6,-640(a6) # d80 <.LBB28_3+0x2bc>
    3bfc:	01650b33          	add	s6,a0,s6
    3c00:	00001537          	lui	a0,0x1
    3c04:	00a10533          	add	a0,sp,a0
    3c08:	d9653023          	sd	s6,-640(a0) # d80 <.LBB28_3+0x2bc>
    3c0c:	00001537          	lui	a0,0x1
    3c10:	00a10533          	add	a0,sp,a0
    3c14:	21053383          	ld	t2,528(a0) # 1210 <.LBB28_3+0x74c>
    3c18:	027e8533          	mul	a0,t4,t2
    3c1c:	00001837          	lui	a6,0x1
    3c20:	01010833          	add	a6,sp,a6
    3c24:	d8883b03          	ld	s6,-632(a6) # d88 <.LBB28_3+0x2c4>
    3c28:	01650b33          	add	s6,a0,s6
    3c2c:	00001537          	lui	a0,0x1
    3c30:	00a10533          	add	a0,sp,a0
    3c34:	d9653423          	sd	s6,-632(a0) # d88 <.LBB28_3+0x2c4>
    3c38:	03ce8533          	mul	a0,t4,t3
    3c3c:	00001837          	lui	a6,0x1
    3c40:	01010833          	add	a6,sp,a6
    3c44:	d9083b03          	ld	s6,-624(a6) # d90 <.LBB28_3+0x2cc>
    3c48:	01650b33          	add	s6,a0,s6
    3c4c:	00001537          	lui	a0,0x1
    3c50:	00a10533          	add	a0,sp,a0
    3c54:	d9653823          	sd	s6,-624(a0) # d90 <.LBB28_3+0x2cc>
    3c58:	00001537          	lui	a0,0x1
    3c5c:	00a10533          	add	a0,sp,a0
    3c60:	1f053283          	ld	t0,496(a0) # 11f0 <.LBB28_3+0x72c>
    3c64:	025e8533          	mul	a0,t4,t0
    3c68:	00001837          	lui	a6,0x1
    3c6c:	01010833          	add	a6,sp,a6
    3c70:	d9883b03          	ld	s6,-616(a6) # d98 <.LBB28_3+0x2d4>
    3c74:	01650b33          	add	s6,a0,s6
    3c78:	00001537          	lui	a0,0x1
    3c7c:	00a10533          	add	a0,sp,a0
    3c80:	d9653c23          	sd	s6,-616(a0) # d98 <.LBB28_3+0x2d4>
    3c84:	031e8533          	mul	a0,t4,a7
    3c88:	00001837          	lui	a6,0x1
    3c8c:	01010833          	add	a6,sp,a6
    3c90:	da083b03          	ld	s6,-608(a6) # da0 <.LBB28_3+0x2dc>
    3c94:	01650b33          	add	s6,a0,s6
    3c98:	00001537          	lui	a0,0x1
    3c9c:	00a10533          	add	a0,sp,a0
    3ca0:	db653023          	sd	s6,-608(a0) # da0 <.LBB28_3+0x2dc>
    3ca4:	02ee8533          	mul	a0,t4,a4
    3ca8:	00001737          	lui	a4,0x1
    3cac:	00e10733          	add	a4,sp,a4
    3cb0:	da873b03          	ld	s6,-600(a4) # da8 <.LBB28_3+0x2e4>
    3cb4:	01650b33          	add	s6,a0,s6
    3cb8:	00001537          	lui	a0,0x1
    3cbc:	00a10533          	add	a0,sp,a0
    3cc0:	db653423          	sd	s6,-600(a0) # da8 <.LBB28_3+0x2e4>
    3cc4:	00001537          	lui	a0,0x1
    3cc8:	00a10533          	add	a0,sp,a0
    3ccc:	1f853303          	ld	t1,504(a0) # 11f8 <.LBB28_3+0x734>
    3cd0:	026e8533          	mul	a0,t4,t1
    3cd4:	00001737          	lui	a4,0x1
    3cd8:	00e10733          	add	a4,sp,a4
    3cdc:	db073b03          	ld	s6,-592(a4) # db0 <.LBB28_3+0x2ec>
    3ce0:	01650b33          	add	s6,a0,s6
    3ce4:	00001537          	lui	a0,0x1
    3ce8:	00a10533          	add	a0,sp,a0
    3cec:	db653823          	sd	s6,-592(a0) # db0 <.LBB28_3+0x2ec>
    3cf0:	037e8533          	mul	a0,t4,s7
    3cf4:	00001737          	lui	a4,0x1
    3cf8:	00e10733          	add	a4,sp,a4
    3cfc:	db873b03          	ld	s6,-584(a4) # db8 <.LBB28_3+0x2f4>
    3d00:	01650b33          	add	s6,a0,s6
    3d04:	00001537          	lui	a0,0x1
    3d08:	00a10533          	add	a0,sp,a0
    3d0c:	db653c23          	sd	s6,-584(a0) # db8 <.LBB28_3+0x2f4>
    3d10:	02ce8533          	mul	a0,t4,a2
    3d14:	00060493          	mv	s1,a2
    3d18:	00001637          	lui	a2,0x1
    3d1c:	00c10633          	add	a2,sp,a2
    3d20:	dc063b03          	ld	s6,-576(a2) # dc0 <.LBB28_3+0x2fc>
    3d24:	01650b33          	add	s6,a0,s6
    3d28:	00001537          	lui	a0,0x1
    3d2c:	00a10533          	add	a0,sp,a0
    3d30:	dd653023          	sd	s6,-576(a0) # dc0 <.LBB28_3+0x2fc>
    3d34:	035e8533          	mul	a0,t4,s5
    3d38:	00001637          	lui	a2,0x1
    3d3c:	00c10633          	add	a2,sp,a2
    3d40:	dc863b03          	ld	s6,-568(a2) # dc8 <.LBB28_3+0x304>
    3d44:	01650b33          	add	s6,a0,s6
    3d48:	00001537          	lui	a0,0x1
    3d4c:	00a10533          	add	a0,sp,a0
    3d50:	dd653423          	sd	s6,-568(a0) # dc8 <.LBB28_3+0x304>
    3d54:	00001537          	lui	a0,0x1
    3d58:	00a10533          	add	a0,sp,a0
    3d5c:	22053503          	ld	a0,544(a0) # 1220 <.LBB28_3+0x75c>
    3d60:	02ae8533          	mul	a0,t4,a0
    3d64:	00001637          	lui	a2,0x1
    3d68:	00c10633          	add	a2,sp,a2
    3d6c:	dd063b03          	ld	s6,-560(a2) # dd0 <.LBB28_3+0x30c>
    3d70:	01650b33          	add	s6,a0,s6
    3d74:	00001537          	lui	a0,0x1
    3d78:	00a10533          	add	a0,sp,a0
    3d7c:	dd653823          	sd	s6,-560(a0) # dd0 <.LBB28_3+0x30c>
    3d80:	000f0e13          	mv	t3,t5
    3d84:	03ee8533          	mul	a0,t4,t5
    3d88:	00001637          	lui	a2,0x1
    3d8c:	00c10633          	add	a2,sp,a2
    3d90:	dd863b03          	ld	s6,-552(a2) # dd8 <.LBB28_3+0x314>
    3d94:	01650b33          	add	s6,a0,s6
    3d98:	00001537          	lui	a0,0x1
    3d9c:	00a10533          	add	a0,sp,a0
    3da0:	dd653c23          	sd	s6,-552(a0) # dd8 <.LBB28_3+0x314>
    3da4:	00001537          	lui	a0,0x1
    3da8:	00a10533          	add	a0,sp,a0
    3dac:	1e053b83          	ld	s7,480(a0) # 11e0 <.LBB28_3+0x71c>
    3db0:	037e8533          	mul	a0,t4,s7
    3db4:	00001637          	lui	a2,0x1
    3db8:	00c10633          	add	a2,sp,a2
    3dbc:	de063b03          	ld	s6,-544(a2) # de0 <.LBB28_3+0x31c>
    3dc0:	01650b33          	add	s6,a0,s6
    3dc4:	00001537          	lui	a0,0x1
    3dc8:	00a10533          	add	a0,sp,a0
    3dcc:	df653023          	sd	s6,-544(a0) # de0 <.LBB28_3+0x31c>
    3dd0:	00001537          	lui	a0,0x1
    3dd4:	00a10533          	add	a0,sp,a0
    3dd8:	20053983          	ld	s3,512(a0) # 1200 <.LBB28_3+0x73c>
    3ddc:	033e8533          	mul	a0,t4,s3
    3de0:	00001637          	lui	a2,0x1
    3de4:	00c10633          	add	a2,sp,a2
    3de8:	de863b03          	ld	s6,-536(a2) # de8 <.LBB28_3+0x324>
    3dec:	01650b33          	add	s6,a0,s6
    3df0:	00001537          	lui	a0,0x1
    3df4:	00a10533          	add	a0,sp,a0
    3df8:	df653423          	sd	s6,-536(a0) # de8 <.LBB28_3+0x324>
    3dfc:	00001537          	lui	a0,0x1
    3e00:	00a10533          	add	a0,sp,a0
    3e04:	2f853503          	ld	a0,760(a0) # 12f8 <.LBB28_3+0x834>
    3e08:	06050503          	lb	a0,96(a0)
    3e0c:	03ae8b33          	mul	s6,t4,s10
    3e10:	00001637          	lui	a2,0x1
    3e14:	00c10633          	add	a2,sp,a2
    3e18:	df063c03          	ld	s8,-528(a2) # df0 <.LBB28_3+0x32c>
    3e1c:	018b0c33          	add	s8,s6,s8
    3e20:	00001637          	lui	a2,0x1
    3e24:	00c10633          	add	a2,sp,a2
    3e28:	df863823          	sd	s8,-528(a2) # df0 <.LBB28_3+0x32c>
    3e2c:	03fe8eb3          	mul	t4,t4,t6
    3e30:	00001637          	lui	a2,0x1
    3e34:	00c10633          	add	a2,sp,a2
    3e38:	df863b03          	ld	s6,-520(a2) # df8 <.LBB28_3+0x334>
    3e3c:	016e8b33          	add	s6,t4,s6
    3e40:	00001637          	lui	a2,0x1
    3e44:	00c10633          	add	a2,sp,a2
    3e48:	df663c23          	sd	s6,-520(a2) # df8 <.LBB28_3+0x334>
    3e4c:	00001637          	lui	a2,0x1
    3e50:	00c10633          	add	a2,sp,a2
    3e54:	2c063f03          	ld	t5,704(a2) # 12c0 <.LBB28_3+0x7fc>
    3e58:	03e50eb3          	mul	t4,a0,t5
    3e5c:	00001637          	lui	a2,0x1
    3e60:	00c10633          	add	a2,sp,a2
    3e64:	e2063b03          	ld	s6,-480(a2) # e20 <.LBB28_3+0x35c>
    3e68:	016e8b33          	add	s6,t4,s6
    3e6c:	00001637          	lui	a2,0x1
    3e70:	00c10633          	add	a2,sp,a2
    3e74:	e3663023          	sd	s6,-480(a2) # e20 <.LBB28_3+0x35c>
    3e78:	02b50eb3          	mul	t4,a0,a1
    3e7c:	000015b7          	lui	a1,0x1
    3e80:	00b105b3          	add	a1,sp,a1
    3e84:	e185bb03          	ld	s6,-488(a1) # e18 <.LBB28_3+0x354>
    3e88:	016e8b33          	add	s6,t4,s6
    3e8c:	000015b7          	lui	a1,0x1
    3e90:	00b105b3          	add	a1,sp,a1
    3e94:	e165bc23          	sd	s6,-488(a1) # e18 <.LBB28_3+0x354>
    3e98:	03b50eb3          	mul	t4,a0,s11
    3e9c:	000015b7          	lui	a1,0x1
    3ea0:	00b105b3          	add	a1,sp,a1
    3ea4:	e105bb03          	ld	s6,-496(a1) # e10 <.LBB28_3+0x34c>
    3ea8:	016e8b33          	add	s6,t4,s6
    3eac:	000015b7          	lui	a1,0x1
    3eb0:	00b105b3          	add	a1,sp,a1
    3eb4:	e165b823          	sd	s6,-496(a1) # e10 <.LBB28_3+0x34c>
    3eb8:	02d50eb3          	mul	t4,a0,a3
    3ebc:	000015b7          	lui	a1,0x1
    3ec0:	00b105b3          	add	a1,sp,a1
    3ec4:	e085bb03          	ld	s6,-504(a1) # e08 <.LBB28_3+0x344>
    3ec8:	016e8b33          	add	s6,t4,s6
    3ecc:	000015b7          	lui	a1,0x1
    3ed0:	00b105b3          	add	a1,sp,a1
    3ed4:	e165b423          	sd	s6,-504(a1) # e08 <.LBB28_3+0x344>
    3ed8:	03450eb3          	mul	t4,a0,s4
    3edc:	000015b7          	lui	a1,0x1
    3ee0:	00b105b3          	add	a1,sp,a1
    3ee4:	e005bb03          	ld	s6,-512(a1) # e00 <.LBB28_3+0x33c>
    3ee8:	016e8b33          	add	s6,t4,s6
    3eec:	000015b7          	lui	a1,0x1
    3ef0:	00b105b3          	add	a1,sp,a1
    3ef4:	e165b023          	sd	s6,-512(a1) # e00 <.LBB28_3+0x33c>
    3ef8:	000015b7          	lui	a1,0x1
    3efc:	00b105b3          	add	a1,sp,a1
    3f00:	2a05b703          	ld	a4,672(a1) # 12a0 <.LBB28_3+0x7dc>
    3f04:	02e50eb3          	mul	t4,a0,a4
    3f08:	000015b7          	lui	a1,0x1
    3f0c:	00b105b3          	add	a1,sp,a1
    3f10:	e285bb03          	ld	s6,-472(a1) # e28 <.LBB28_3+0x364>
    3f14:	016e8b33          	add	s6,t4,s6
    3f18:	000015b7          	lui	a1,0x1
    3f1c:	00b105b3          	add	a1,sp,a1
    3f20:	e365b423          	sd	s6,-472(a1) # e28 <.LBB28_3+0x364>
    3f24:	000015b7          	lui	a1,0x1
    3f28:	00b105b3          	add	a1,sp,a1
    3f2c:	2f05ba03          	ld	s4,752(a1) # 12f0 <.LBB28_3+0x82c>
    3f30:	03450eb3          	mul	t4,a0,s4
    3f34:	000015b7          	lui	a1,0x1
    3f38:	00b105b3          	add	a1,sp,a1
    3f3c:	e305bb03          	ld	s6,-464(a1) # e30 <.LBB28_3+0x36c>
    3f40:	016e8b33          	add	s6,t4,s6
    3f44:	000015b7          	lui	a1,0x1
    3f48:	00b105b3          	add	a1,sp,a1
    3f4c:	e365b823          	sd	s6,-464(a1) # e30 <.LBB28_3+0x36c>
    3f50:	000015b7          	lui	a1,0x1
    3f54:	00b105b3          	add	a1,sp,a1
    3f58:	1d85b803          	ld	a6,472(a1) # 11d8 <.LBB28_3+0x714>
    3f5c:	03050eb3          	mul	t4,a0,a6
    3f60:	000015b7          	lui	a1,0x1
    3f64:	00b105b3          	add	a1,sp,a1
    3f68:	e385bb03          	ld	s6,-456(a1) # e38 <.LBB28_3+0x374>
    3f6c:	016e8b33          	add	s6,t4,s6
    3f70:	000015b7          	lui	a1,0x1
    3f74:	00b105b3          	add	a1,sp,a1
    3f78:	e365bc23          	sd	s6,-456(a1) # e38 <.LBB28_3+0x374>
    3f7c:	000015b7          	lui	a1,0x1
    3f80:	00b105b3          	add	a1,sp,a1
    3f84:	2285b683          	ld	a3,552(a1) # 1228 <.LBB28_3+0x764>
    3f88:	02d50eb3          	mul	t4,a0,a3
    3f8c:	000015b7          	lui	a1,0x1
    3f90:	00b105b3          	add	a1,sp,a1
    3f94:	e405bb03          	ld	s6,-448(a1) # e40 <.LBB28_3+0x37c>
    3f98:	016e8b33          	add	s6,t4,s6
    3f9c:	000015b7          	lui	a1,0x1
    3fa0:	00b105b3          	add	a1,sp,a1
    3fa4:	e565b023          	sd	s6,-448(a1) # e40 <.LBB28_3+0x37c>
    3fa8:	000015b7          	lui	a1,0x1
    3fac:	00b105b3          	add	a1,sp,a1
    3fb0:	2b85b603          	ld	a2,696(a1) # 12b8 <.LBB28_3+0x7f4>
    3fb4:	02c50eb3          	mul	t4,a0,a2
    3fb8:	000015b7          	lui	a1,0x1
    3fbc:	00b105b3          	add	a1,sp,a1
    3fc0:	e485bb03          	ld	s6,-440(a1) # e48 <.LBB28_3+0x384>
    3fc4:	016e8b33          	add	s6,t4,s6
    3fc8:	000015b7          	lui	a1,0x1
    3fcc:	00b105b3          	add	a1,sp,a1
    3fd0:	e565b423          	sd	s6,-440(a1) # e48 <.LBB28_3+0x384>
    3fd4:	000015b7          	lui	a1,0x1
    3fd8:	00b105b3          	add	a1,sp,a1
    3fdc:	2185b583          	ld	a1,536(a1) # 1218 <.LBB28_3+0x754>
    3fe0:	02b50eb3          	mul	t4,a0,a1
    3fe4:	000015b7          	lui	a1,0x1
    3fe8:	00b105b3          	add	a1,sp,a1
    3fec:	e505bb03          	ld	s6,-432(a1) # e50 <.LBB28_3+0x38c>
    3ff0:	016e8b33          	add	s6,t4,s6
    3ff4:	000015b7          	lui	a1,0x1
    3ff8:	00b105b3          	add	a1,sp,a1
    3ffc:	e565b823          	sd	s6,-432(a1) # e50 <.LBB28_3+0x38c>
    4000:	000015b7          	lui	a1,0x1
    4004:	00b105b3          	add	a1,sp,a1
    4008:	1d05bf83          	ld	t6,464(a1) # 11d0 <.LBB28_3+0x70c>
    400c:	03f50eb3          	mul	t4,a0,t6
    4010:	000015b7          	lui	a1,0x1
    4014:	00b105b3          	add	a1,sp,a1
    4018:	e585bb03          	ld	s6,-424(a1) # e58 <.LBB28_3+0x394>
    401c:	016e8b33          	add	s6,t4,s6
    4020:	000015b7          	lui	a1,0x1
    4024:	00b105b3          	add	a1,sp,a1
    4028:	e565bc23          	sd	s6,-424(a1) # e58 <.LBB28_3+0x394>
    402c:	02f50eb3          	mul	t4,a0,a5
    4030:	000015b7          	lui	a1,0x1
    4034:	00b105b3          	add	a1,sp,a1
    4038:	e605bb03          	ld	s6,-416(a1) # e60 <.LBB28_3+0x39c>
    403c:	016e8b33          	add	s6,t4,s6
    4040:	000015b7          	lui	a1,0x1
    4044:	00b105b3          	add	a1,sp,a1
    4048:	e765b023          	sd	s6,-416(a1) # e60 <.LBB28_3+0x39c>
    404c:	03950eb3          	mul	t4,a0,s9
    4050:	000015b7          	lui	a1,0x1
    4054:	00b105b3          	add	a1,sp,a1
    4058:	e685bb03          	ld	s6,-408(a1) # e68 <.LBB28_3+0x3a4>
    405c:	016e8b33          	add	s6,t4,s6
    4060:	000015b7          	lui	a1,0x1
    4064:	00b105b3          	add	a1,sp,a1
    4068:	e765b423          	sd	s6,-408(a1) # e68 <.LBB28_3+0x3a4>
    406c:	000015b7          	lui	a1,0x1
    4070:	00b105b3          	add	a1,sp,a1
    4074:	2d85b583          	ld	a1,728(a1) # 12d8 <.LBB28_3+0x814>
    4078:	02b50eb3          	mul	t4,a0,a1
    407c:	000015b7          	lui	a1,0x1
    4080:	00b105b3          	add	a1,sp,a1
    4084:	e705bb03          	ld	s6,-400(a1) # e70 <.LBB28_3+0x3ac>
    4088:	016e8b33          	add	s6,t4,s6
    408c:	000015b7          	lui	a1,0x1
    4090:	00b105b3          	add	a1,sp,a1
    4094:	e765b823          	sd	s6,-400(a1) # e70 <.LBB28_3+0x3ac>
    4098:	03250eb3          	mul	t4,a0,s2
    409c:	000015b7          	lui	a1,0x1
    40a0:	00b105b3          	add	a1,sp,a1
    40a4:	e785bb03          	ld	s6,-392(a1) # e78 <.LBB28_3+0x3b4>
    40a8:	016e8b33          	add	s6,t4,s6
    40ac:	000015b7          	lui	a1,0x1
    40b0:	00b105b3          	add	a1,sp,a1
    40b4:	e765bc23          	sd	s6,-392(a1) # e78 <.LBB28_3+0x3b4>
    40b8:	000015b7          	lui	a1,0x1
    40bc:	00b105b3          	add	a1,sp,a1
    40c0:	2385b903          	ld	s2,568(a1) # 1238 <.LBB28_3+0x774>
    40c4:	03250eb3          	mul	t4,a0,s2
    40c8:	000015b7          	lui	a1,0x1
    40cc:	00b105b3          	add	a1,sp,a1
    40d0:	e805bb03          	ld	s6,-384(a1) # e80 <.LBB28_3+0x3bc>
    40d4:	016e8b33          	add	s6,t4,s6
    40d8:	000015b7          	lui	a1,0x1
    40dc:	00b105b3          	add	a1,sp,a1
    40e0:	e965b023          	sd	s6,-384(a1) # e80 <.LBB28_3+0x3bc>
    40e4:	02750eb3          	mul	t4,a0,t2
    40e8:	000015b7          	lui	a1,0x1
    40ec:	00b105b3          	add	a1,sp,a1
    40f0:	e885bb03          	ld	s6,-376(a1) # e88 <.LBB28_3+0x3c4>
    40f4:	016e8b33          	add	s6,t4,s6
    40f8:	000015b7          	lui	a1,0x1
    40fc:	00b105b3          	add	a1,sp,a1
    4100:	e965b423          	sd	s6,-376(a1) # e88 <.LBB28_3+0x3c4>
    4104:	000015b7          	lui	a1,0x1
    4108:	00b105b3          	add	a1,sp,a1
    410c:	2b05b583          	ld	a1,688(a1) # 12b0 <.LBB28_3+0x7ec>
    4110:	02b50eb3          	mul	t4,a0,a1
    4114:	000017b7          	lui	a5,0x1
    4118:	00f107b3          	add	a5,sp,a5
    411c:	e907bb03          	ld	s6,-368(a5) # e90 <.LBB28_3+0x3cc>
    4120:	016e8b33          	add	s6,t4,s6
    4124:	000017b7          	lui	a5,0x1
    4128:	00f107b3          	add	a5,sp,a5
    412c:	e967b823          	sd	s6,-368(a5) # e90 <.LBB28_3+0x3cc>
    4130:	00028893          	mv	a7,t0
    4134:	02550eb3          	mul	t4,a0,t0
    4138:	000017b7          	lui	a5,0x1
    413c:	00f107b3          	add	a5,sp,a5
    4140:	e987bb03          	ld	s6,-360(a5) # e98 <.LBB28_3+0x3d4>
    4144:	016e8b33          	add	s6,t4,s6
    4148:	000017b7          	lui	a5,0x1
    414c:	00f107b3          	add	a5,sp,a5
    4150:	e967bc23          	sd	s6,-360(a5) # e98 <.LBB28_3+0x3d4>
    4154:	000017b7          	lui	a5,0x1
    4158:	00f107b3          	add	a5,sp,a5
    415c:	2e87b283          	ld	t0,744(a5) # 12e8 <.LBB28_3+0x824>
    4160:	02550eb3          	mul	t4,a0,t0
    4164:	000017b7          	lui	a5,0x1
    4168:	00f107b3          	add	a5,sp,a5
    416c:	ea07bb03          	ld	s6,-352(a5) # ea0 <.LBB28_3+0x3dc>
    4170:	016e8b33          	add	s6,t4,s6
    4174:	000017b7          	lui	a5,0x1
    4178:	00f107b3          	add	a5,sp,a5
    417c:	eb67b023          	sd	s6,-352(a5) # ea0 <.LBB28_3+0x3dc>
    4180:	000017b7          	lui	a5,0x1
    4184:	00f107b3          	add	a5,sp,a5
    4188:	1e87b383          	ld	t2,488(a5) # 11e8 <.LBB28_3+0x724>
    418c:	02750eb3          	mul	t4,a0,t2
    4190:	000017b7          	lui	a5,0x1
    4194:	00f107b3          	add	a5,sp,a5
    4198:	ea87bb03          	ld	s6,-344(a5) # ea8 <.LBB28_3+0x3e4>
    419c:	016e8b33          	add	s6,t4,s6
    41a0:	000017b7          	lui	a5,0x1
    41a4:	00f107b3          	add	a5,sp,a5
    41a8:	eb67b423          	sd	s6,-344(a5) # ea8 <.LBB28_3+0x3e4>
    41ac:	02650eb3          	mul	t4,a0,t1
    41b0:	000017b7          	lui	a5,0x1
    41b4:	00f107b3          	add	a5,sp,a5
    41b8:	eb07bb03          	ld	s6,-336(a5) # eb0 <.LBB28_3+0x3ec>
    41bc:	016e8b33          	add	s6,t4,s6
    41c0:	000017b7          	lui	a5,0x1
    41c4:	00f107b3          	add	a5,sp,a5
    41c8:	eb67b823          	sd	s6,-336(a5) # eb0 <.LBB28_3+0x3ec>
    41cc:	000017b7          	lui	a5,0x1
    41d0:	00f107b3          	add	a5,sp,a5
    41d4:	2887bd83          	ld	s11,648(a5) # 1288 <.LBB28_3+0x7c4>
    41d8:	03b50eb3          	mul	t4,a0,s11
    41dc:	000017b7          	lui	a5,0x1
    41e0:	00f107b3          	add	a5,sp,a5
    41e4:	eb87bb03          	ld	s6,-328(a5) # eb8 <.LBB28_3+0x3f4>
    41e8:	016e8b33          	add	s6,t4,s6
    41ec:	000017b7          	lui	a5,0x1
    41f0:	00f107b3          	add	a5,sp,a5
    41f4:	eb67bc23          	sd	s6,-328(a5) # eb8 <.LBB28_3+0x3f4>
    41f8:	02950eb3          	mul	t4,a0,s1
    41fc:	000017b7          	lui	a5,0x1
    4200:	00f107b3          	add	a5,sp,a5
    4204:	ec07bb03          	ld	s6,-320(a5) # ec0 <.LBB28_3+0x3fc>
    4208:	016e8b33          	add	s6,t4,s6
    420c:	000017b7          	lui	a5,0x1
    4210:	00f107b3          	add	a5,sp,a5
    4214:	ed67b023          	sd	s6,-320(a5) # ec0 <.LBB28_3+0x3fc>
    4218:	03550eb3          	mul	t4,a0,s5
    421c:	000017b7          	lui	a5,0x1
    4220:	00f107b3          	add	a5,sp,a5
    4224:	ec87bb03          	ld	s6,-312(a5) # ec8 <.LBB28_3+0x404>
    4228:	016e8b33          	add	s6,t4,s6
    422c:	000017b7          	lui	a5,0x1
    4230:	00f107b3          	add	a5,sp,a5
    4234:	ed67b423          	sd	s6,-312(a5) # ec8 <.LBB28_3+0x404>
    4238:	000017b7          	lui	a5,0x1
    423c:	00f107b3          	add	a5,sp,a5
    4240:	2207b303          	ld	t1,544(a5) # 1220 <.LBB28_3+0x75c>
    4244:	02650eb3          	mul	t4,a0,t1
    4248:	000017b7          	lui	a5,0x1
    424c:	00f107b3          	add	a5,sp,a5
    4250:	ed07bb03          	ld	s6,-304(a5) # ed0 <.LBB28_3+0x40c>
    4254:	016e8b33          	add	s6,t4,s6
    4258:	000017b7          	lui	a5,0x1
    425c:	00f107b3          	add	a5,sp,a5
    4260:	ed67b823          	sd	s6,-304(a5) # ed0 <.LBB28_3+0x40c>
    4264:	03c50eb3          	mul	t4,a0,t3
    4268:	000017b7          	lui	a5,0x1
    426c:	00f107b3          	add	a5,sp,a5
    4270:	ed87bb03          	ld	s6,-296(a5) # ed8 <.LBB28_3+0x414>
    4274:	016e8b33          	add	s6,t4,s6
    4278:	000017b7          	lui	a5,0x1
    427c:	00f107b3          	add	a5,sp,a5
    4280:	ed67bc23          	sd	s6,-296(a5) # ed8 <.LBB28_3+0x414>
    4284:	000b8e13          	mv	t3,s7
    4288:	03750eb3          	mul	t4,a0,s7
    428c:	000017b7          	lui	a5,0x1
    4290:	00f107b3          	add	a5,sp,a5
    4294:	ee07bb03          	ld	s6,-288(a5) # ee0 <.LBB28_3+0x41c>
    4298:	016e8b33          	add	s6,t4,s6
    429c:	000017b7          	lui	a5,0x1
    42a0:	00f107b3          	add	a5,sp,a5
    42a4:	ef67b023          	sd	s6,-288(a5) # ee0 <.LBB28_3+0x41c>
    42a8:	03350eb3          	mul	t4,a0,s3
    42ac:	000017b7          	lui	a5,0x1
    42b0:	00f107b3          	add	a5,sp,a5
    42b4:	ee87bb03          	ld	s6,-280(a5) # ee8 <.LBB28_3+0x424>
    42b8:	016e8b33          	add	s6,t4,s6
    42bc:	000017b7          	lui	a5,0x1
    42c0:	00f107b3          	add	a5,sp,a5
    42c4:	ef67b423          	sd	s6,-280(a5) # ee8 <.LBB28_3+0x424>
    42c8:	000017b7          	lui	a5,0x1
    42cc:	00f107b3          	add	a5,sp,a5
    42d0:	2f87be83          	ld	t4,760(a5) # 12f8 <.LBB28_3+0x834>
    42d4:	078e8e83          	lb	t4,120(t4)
    42d8:	03a50b33          	mul	s6,a0,s10
    42dc:	000017b7          	lui	a5,0x1
    42e0:	00f107b3          	add	a5,sp,a5
    42e4:	ef07bc03          	ld	s8,-272(a5) # ef0 <.LBB28_3+0x42c>
    42e8:	018b0c33          	add	s8,s6,s8
    42ec:	000017b7          	lui	a5,0x1
    42f0:	00f107b3          	add	a5,sp,a5
    42f4:	ef87b823          	sd	s8,-272(a5) # ef0 <.LBB28_3+0x42c>
    42f8:	000017b7          	lui	a5,0x1
    42fc:	00f107b3          	add	a5,sp,a5
    4300:	1c87ba83          	ld	s5,456(a5) # 11c8 <.LBB28_3+0x704>
    4304:	03550533          	mul	a0,a0,s5
    4308:	000017b7          	lui	a5,0x1
    430c:	00f107b3          	add	a5,sp,a5
    4310:	ef87bb03          	ld	s6,-264(a5) # ef8 <.LBB28_3+0x434>
    4314:	01650b33          	add	s6,a0,s6
    4318:	00001537          	lui	a0,0x1
    431c:	00a10533          	add	a0,sp,a0
    4320:	ef653c23          	sd	s6,-264(a0) # ef8 <.LBB28_3+0x434>
    4324:	03ee8533          	mul	a0,t4,t5
    4328:	000f0c93          	mv	s9,t5
    432c:	000017b7          	lui	a5,0x1
    4330:	00f107b3          	add	a5,sp,a5
    4334:	f207bb03          	ld	s6,-224(a5) # f20 <.LBB28_3+0x45c>
    4338:	01650b33          	add	s6,a0,s6
    433c:	00001537          	lui	a0,0x1
    4340:	00a10533          	add	a0,sp,a0
    4344:	f3653023          	sd	s6,-224(a0) # f20 <.LBB28_3+0x45c>
    4348:	00001537          	lui	a0,0x1
    434c:	00a10533          	add	a0,sp,a0
    4350:	29053783          	ld	a5,656(a0) # 1290 <.LBB28_3+0x7cc>
    4354:	02fe8533          	mul	a0,t4,a5
    4358:	00001f37          	lui	t5,0x1
    435c:	01e10f33          	add	t5,sp,t5
    4360:	f18f3b03          	ld	s6,-232(t5) # f18 <.LBB28_3+0x454>
    4364:	01650b33          	add	s6,a0,s6
    4368:	00001537          	lui	a0,0x1
    436c:	00a10533          	add	a0,sp,a0
    4370:	f1653c23          	sd	s6,-232(a0) # f18 <.LBB28_3+0x454>
    4374:	00001537          	lui	a0,0x1
    4378:	00a10533          	add	a0,sp,a0
    437c:	29853483          	ld	s1,664(a0) # 1298 <.LBB28_3+0x7d4>
    4380:	029e8533          	mul	a0,t4,s1
    4384:	00001f37          	lui	t5,0x1
    4388:	01e10f33          	add	t5,sp,t5
    438c:	f10f3b03          	ld	s6,-240(t5) # f10 <.LBB28_3+0x44c>
    4390:	01650b33          	add	s6,a0,s6
    4394:	00001537          	lui	a0,0x1
    4398:	00a10533          	add	a0,sp,a0
    439c:	f1653823          	sd	s6,-240(a0) # f10 <.LBB28_3+0x44c>
    43a0:	00001537          	lui	a0,0x1
    43a4:	00a10533          	add	a0,sp,a0
    43a8:	2d053983          	ld	s3,720(a0) # 12d0 <.LBB28_3+0x80c>
    43ac:	033e8533          	mul	a0,t4,s3
    43b0:	00001f37          	lui	t5,0x1
    43b4:	01e10f33          	add	t5,sp,t5
    43b8:	f08f3b03          	ld	s6,-248(t5) # f08 <.LBB28_3+0x444>
    43bc:	01650b33          	add	s6,a0,s6
    43c0:	00001537          	lui	a0,0x1
    43c4:	00a10533          	add	a0,sp,a0
    43c8:	f1653423          	sd	s6,-248(a0) # f08 <.LBB28_3+0x444>
    43cc:	00001537          	lui	a0,0x1
    43d0:	00a10533          	add	a0,sp,a0
    43d4:	2c853b83          	ld	s7,712(a0) # 12c8 <.LBB28_3+0x804>
    43d8:	037e8533          	mul	a0,t4,s7
    43dc:	00001f37          	lui	t5,0x1
    43e0:	01e10f33          	add	t5,sp,t5
    43e4:	f00f3b03          	ld	s6,-256(t5) # f00 <.LBB28_3+0x43c>
    43e8:	01650b33          	add	s6,a0,s6
    43ec:	00001537          	lui	a0,0x1
    43f0:	00a10533          	add	a0,sp,a0
    43f4:	f1653023          	sd	s6,-256(a0) # f00 <.LBB28_3+0x43c>
    43f8:	02ee8533          	mul	a0,t4,a4
    43fc:	00001737          	lui	a4,0x1
    4400:	00e10733          	add	a4,sp,a4
    4404:	f2873b03          	ld	s6,-216(a4) # f28 <.LBB28_3+0x464>
    4408:	01650b33          	add	s6,a0,s6
    440c:	00001537          	lui	a0,0x1
    4410:	00a10533          	add	a0,sp,a0
    4414:	f3653423          	sd	s6,-216(a0) # f28 <.LBB28_3+0x464>
    4418:	034e8533          	mul	a0,t4,s4
    441c:	00001737          	lui	a4,0x1
    4420:	00e10733          	add	a4,sp,a4
    4424:	f3073b03          	ld	s6,-208(a4) # f30 <.LBB28_3+0x46c>
    4428:	01650b33          	add	s6,a0,s6
    442c:	00001537          	lui	a0,0x1
    4430:	00a10533          	add	a0,sp,a0
    4434:	f3653823          	sd	s6,-208(a0) # f30 <.LBB28_3+0x46c>
    4438:	030e8533          	mul	a0,t4,a6
    443c:	00080713          	mv	a4,a6
    4440:	00001837          	lui	a6,0x1
    4444:	01010833          	add	a6,sp,a6
    4448:	f3883b03          	ld	s6,-200(a6) # f38 <.LBB28_3+0x474>
    444c:	01650b33          	add	s6,a0,s6
    4450:	00001537          	lui	a0,0x1
    4454:	00a10533          	add	a0,sp,a0
    4458:	f3653c23          	sd	s6,-200(a0) # f38 <.LBB28_3+0x474>
    445c:	02de8533          	mul	a0,t4,a3
    4460:	00001837          	lui	a6,0x1
    4464:	01010833          	add	a6,sp,a6
    4468:	f4083b03          	ld	s6,-192(a6) # f40 <.LBB28_3+0x47c>
    446c:	01650b33          	add	s6,a0,s6
    4470:	00001537          	lui	a0,0x1
    4474:	00a10533          	add	a0,sp,a0
    4478:	f5653023          	sd	s6,-192(a0) # f40 <.LBB28_3+0x47c>
    447c:	02ce8533          	mul	a0,t4,a2
    4480:	00001637          	lui	a2,0x1
    4484:	00c10633          	add	a2,sp,a2
    4488:	f4863b03          	ld	s6,-184(a2) # f48 <.LBB28_3+0x484>
    448c:	01650b33          	add	s6,a0,s6
    4490:	00001537          	lui	a0,0x1
    4494:	00a10533          	add	a0,sp,a0
    4498:	f5653423          	sd	s6,-184(a0) # f48 <.LBB28_3+0x484>
    449c:	00001537          	lui	a0,0x1
    44a0:	00a10533          	add	a0,sp,a0
    44a4:	21853f03          	ld	t5,536(a0) # 1218 <.LBB28_3+0x754>
    44a8:	03ee8533          	mul	a0,t4,t5
    44ac:	00001637          	lui	a2,0x1
    44b0:	00c10633          	add	a2,sp,a2
    44b4:	f5063b03          	ld	s6,-176(a2) # f50 <.LBB28_3+0x48c>
    44b8:	01650b33          	add	s6,a0,s6
    44bc:	00001537          	lui	a0,0x1
    44c0:	00a10533          	add	a0,sp,a0
    44c4:	f5653823          	sd	s6,-176(a0) # f50 <.LBB28_3+0x48c>
    44c8:	03fe8533          	mul	a0,t4,t6
    44cc:	00001637          	lui	a2,0x1
    44d0:	00c10633          	add	a2,sp,a2
    44d4:	f5863b03          	ld	s6,-168(a2) # f58 <.LBB28_3+0x494>
    44d8:	01650b33          	add	s6,a0,s6
    44dc:	00001537          	lui	a0,0x1
    44e0:	00a10533          	add	a0,sp,a0
    44e4:	f5653c23          	sd	s6,-168(a0) # f58 <.LBB28_3+0x494>
    44e8:	00001537          	lui	a0,0x1
    44ec:	00a10533          	add	a0,sp,a0
    44f0:	2a853503          	ld	a0,680(a0) # 12a8 <.LBB28_3+0x7e4>
    44f4:	02ae8533          	mul	a0,t4,a0
    44f8:	00001637          	lui	a2,0x1
    44fc:	00c10633          	add	a2,sp,a2
    4500:	f6063b03          	ld	s6,-160(a2) # f60 <.LBB28_3+0x49c>
    4504:	01650b33          	add	s6,a0,s6
    4508:	00001537          	lui	a0,0x1
    450c:	00a10533          	add	a0,sp,a0
    4510:	f7653023          	sd	s6,-160(a0) # f60 <.LBB28_3+0x49c>
    4514:	00001537          	lui	a0,0x1
    4518:	00a10533          	add	a0,sp,a0
    451c:	28053603          	ld	a2,640(a0) # 1280 <.LBB28_3+0x7bc>
    4520:	02ce8533          	mul	a0,t4,a2
    4524:	00001837          	lui	a6,0x1
    4528:	01010833          	add	a6,sp,a6
    452c:	f6883b03          	ld	s6,-152(a6) # f68 <.LBB28_3+0x4a4>
    4530:	01650b33          	add	s6,a0,s6
    4534:	00001537          	lui	a0,0x1
    4538:	00a10533          	add	a0,sp,a0
    453c:	f7653423          	sd	s6,-152(a0) # f68 <.LBB28_3+0x4a4>
    4540:	00001537          	lui	a0,0x1
    4544:	00a10533          	add	a0,sp,a0
    4548:	2d853f83          	ld	t6,728(a0) # 12d8 <.LBB28_3+0x814>
    454c:	03fe8533          	mul	a0,t4,t6
    4550:	00001837          	lui	a6,0x1
    4554:	01010833          	add	a6,sp,a6
    4558:	f7083b03          	ld	s6,-144(a6) # f70 <.LBB28_3+0x4ac>
    455c:	01650b33          	add	s6,a0,s6
    4560:	00001537          	lui	a0,0x1
    4564:	00a10533          	add	a0,sp,a0
    4568:	f7653823          	sd	s6,-144(a0) # f70 <.LBB28_3+0x4ac>
    456c:	00001537          	lui	a0,0x1
    4570:	00a10533          	add	a0,sp,a0
    4574:	2e053503          	ld	a0,736(a0) # 12e0 <.LBB28_3+0x81c>
    4578:	02ae8533          	mul	a0,t4,a0
    457c:	00001837          	lui	a6,0x1
    4580:	01010833          	add	a6,sp,a6
    4584:	f7883b03          	ld	s6,-136(a6) # f78 <.LBB28_3+0x4b4>
    4588:	01650b33          	add	s6,a0,s6
    458c:	00001537          	lui	a0,0x1
    4590:	00a10533          	add	a0,sp,a0
    4594:	f7653c23          	sd	s6,-136(a0) # f78 <.LBB28_3+0x4b4>
    4598:	032e8533          	mul	a0,t4,s2
    459c:	00090813          	mv	a6,s2
    45a0:	00001937          	lui	s2,0x1
    45a4:	01210933          	add	s2,sp,s2
    45a8:	f8093b03          	ld	s6,-128(s2) # f80 <.LBB28_3+0x4bc>
    45ac:	01650b33          	add	s6,a0,s6
    45b0:	00001537          	lui	a0,0x1
    45b4:	00a10533          	add	a0,sp,a0
    45b8:	f9653023          	sd	s6,-128(a0) # f80 <.LBB28_3+0x4bc>
    45bc:	00001537          	lui	a0,0x1
    45c0:	00a10533          	add	a0,sp,a0
    45c4:	21053903          	ld	s2,528(a0) # 1210 <.LBB28_3+0x74c>
    45c8:	032e8533          	mul	a0,t4,s2
    45cc:	00001a37          	lui	s4,0x1
    45d0:	01410a33          	add	s4,sp,s4
    45d4:	f88a3b03          	ld	s6,-120(s4) # f88 <.LBB28_3+0x4c4>
    45d8:	01650b33          	add	s6,a0,s6
    45dc:	00001537          	lui	a0,0x1
    45e0:	00a10533          	add	a0,sp,a0
    45e4:	f9653423          	sd	s6,-120(a0) # f88 <.LBB28_3+0x4c4>
    45e8:	02be8533          	mul	a0,t4,a1
    45ec:	000015b7          	lui	a1,0x1
    45f0:	00b105b3          	add	a1,sp,a1
    45f4:	f905bb03          	ld	s6,-112(a1) # f90 <.LBB28_3+0x4cc>
    45f8:	01650b33          	add	s6,a0,s6
    45fc:	00001537          	lui	a0,0x1
    4600:	00a10533          	add	a0,sp,a0
    4604:	f9653823          	sd	s6,-112(a0) # f90 <.LBB28_3+0x4cc>
    4608:	031e8533          	mul	a0,t4,a7
    460c:	000015b7          	lui	a1,0x1
    4610:	00b105b3          	add	a1,sp,a1
    4614:	f985bb03          	ld	s6,-104(a1) # f98 <.LBB28_3+0x4d4>
    4618:	01650b33          	add	s6,a0,s6
    461c:	00001537          	lui	a0,0x1
    4620:	00a10533          	add	a0,sp,a0
    4624:	f9653c23          	sd	s6,-104(a0) # f98 <.LBB28_3+0x4d4>
    4628:	025e8533          	mul	a0,t4,t0
    462c:	000015b7          	lui	a1,0x1
    4630:	00b105b3          	add	a1,sp,a1
    4634:	fa05bb03          	ld	s6,-96(a1) # fa0 <.LBB28_3+0x4dc>
    4638:	01650b33          	add	s6,a0,s6
    463c:	00001537          	lui	a0,0x1
    4640:	00a10533          	add	a0,sp,a0
    4644:	fb653023          	sd	s6,-96(a0) # fa0 <.LBB28_3+0x4dc>
    4648:	027e8533          	mul	a0,t4,t2
    464c:	000015b7          	lui	a1,0x1
    4650:	00b105b3          	add	a1,sp,a1
    4654:	fa85bb03          	ld	s6,-88(a1) # fa8 <.LBB28_3+0x4e4>
    4658:	01650b33          	add	s6,a0,s6
    465c:	00001537          	lui	a0,0x1
    4660:	00a10533          	add	a0,sp,a0
    4664:	fb653423          	sd	s6,-88(a0) # fa8 <.LBB28_3+0x4e4>
    4668:	00001537          	lui	a0,0x1
    466c:	00a10533          	add	a0,sp,a0
    4670:	1f853283          	ld	t0,504(a0) # 11f8 <.LBB28_3+0x734>
    4674:	025e8533          	mul	a0,t4,t0
    4678:	000015b7          	lui	a1,0x1
    467c:	00b105b3          	add	a1,sp,a1
    4680:	fb05bb03          	ld	s6,-80(a1) # fb0 <.LBB28_3+0x4ec>
    4684:	01650b33          	add	s6,a0,s6
    4688:	00001537          	lui	a0,0x1
    468c:	00a10533          	add	a0,sp,a0
    4690:	fb653823          	sd	s6,-80(a0) # fb0 <.LBB28_3+0x4ec>
    4694:	03be8533          	mul	a0,t4,s11
    4698:	000015b7          	lui	a1,0x1
    469c:	00b105b3          	add	a1,sp,a1
    46a0:	fb85bb03          	ld	s6,-72(a1) # fb8 <.LBB28_3+0x4f4>
    46a4:	01650b33          	add	s6,a0,s6
    46a8:	00001537          	lui	a0,0x1
    46ac:	00a10533          	add	a0,sp,a0
    46b0:	fb653c23          	sd	s6,-72(a0) # fb8 <.LBB28_3+0x4f4>
    46b4:	00001537          	lui	a0,0x1
    46b8:	00a10533          	add	a0,sp,a0
    46bc:	1c053a03          	ld	s4,448(a0) # 11c0 <.LBB28_3+0x6fc>
    46c0:	034e8533          	mul	a0,t4,s4
    46c4:	000015b7          	lui	a1,0x1
    46c8:	00b105b3          	add	a1,sp,a1
    46cc:	fc05bb03          	ld	s6,-64(a1) # fc0 <.LBB28_3+0x4fc>
    46d0:	01650b33          	add	s6,a0,s6
    46d4:	00001537          	lui	a0,0x1
    46d8:	00a10533          	add	a0,sp,a0
    46dc:	fd653023          	sd	s6,-64(a0) # fc0 <.LBB28_3+0x4fc>
    46e0:	00001537          	lui	a0,0x1
    46e4:	00a10533          	add	a0,sp,a0
    46e8:	23053d83          	ld	s11,560(a0) # 1230 <.LBB28_3+0x76c>
    46ec:	03be8533          	mul	a0,t4,s11
    46f0:	000015b7          	lui	a1,0x1
    46f4:	00b105b3          	add	a1,sp,a1
    46f8:	fc85bb03          	ld	s6,-56(a1) # fc8 <.LBB28_3+0x504>
    46fc:	01650b33          	add	s6,a0,s6
    4700:	00001537          	lui	a0,0x1
    4704:	00a10533          	add	a0,sp,a0
    4708:	fd653423          	sd	s6,-56(a0) # fc8 <.LBB28_3+0x504>
    470c:	026e8533          	mul	a0,t4,t1
    4710:	000015b7          	lui	a1,0x1
    4714:	00b105b3          	add	a1,sp,a1
    4718:	fd05bb03          	ld	s6,-48(a1) # fd0 <.LBB28_3+0x50c>
    471c:	01650b33          	add	s6,a0,s6
    4720:	00001537          	lui	a0,0x1
    4724:	00a10533          	add	a0,sp,a0
    4728:	fd653823          	sd	s6,-48(a0) # fd0 <.LBB28_3+0x50c>
    472c:	00001537          	lui	a0,0x1
    4730:	00a10533          	add	a0,sp,a0
    4734:	20853503          	ld	a0,520(a0) # 1208 <.LBB28_3+0x744>
    4738:	02ae8533          	mul	a0,t4,a0
    473c:	000015b7          	lui	a1,0x1
    4740:	00b105b3          	add	a1,sp,a1
    4744:	fd85bb03          	ld	s6,-40(a1) # fd8 <.LBB28_3+0x514>
    4748:	01650b33          	add	s6,a0,s6
    474c:	00001537          	lui	a0,0x1
    4750:	00a10533          	add	a0,sp,a0
    4754:	fd653c23          	sd	s6,-40(a0) # fd8 <.LBB28_3+0x514>
    4758:	03ce8533          	mul	a0,t4,t3
    475c:	000015b7          	lui	a1,0x1
    4760:	00b105b3          	add	a1,sp,a1
    4764:	fe05bb03          	ld	s6,-32(a1) # fe0 <.LBB28_3+0x51c>
    4768:	01650b33          	add	s6,a0,s6
    476c:	00001537          	lui	a0,0x1
    4770:	00a10533          	add	a0,sp,a0
    4774:	ff653023          	sd	s6,-32(a0) # fe0 <.LBB28_3+0x51c>
    4778:	00001537          	lui	a0,0x1
    477c:	00a10533          	add	a0,sp,a0
    4780:	20053503          	ld	a0,512(a0) # 1200 <.LBB28_3+0x73c>
    4784:	02ae8533          	mul	a0,t4,a0
    4788:	000015b7          	lui	a1,0x1
    478c:	00b105b3          	add	a1,sp,a1
    4790:	fe85bb03          	ld	s6,-24(a1) # fe8 <.LBB28_3+0x524>
    4794:	01650b33          	add	s6,a0,s6
    4798:	00001537          	lui	a0,0x1
    479c:	00a10533          	add	a0,sp,a0
    47a0:	ff653423          	sd	s6,-24(a0) # fe8 <.LBB28_3+0x524>
    47a4:	00001537          	lui	a0,0x1
    47a8:	00a10533          	add	a0,sp,a0
    47ac:	2f853503          	ld	a0,760(a0) # 12f8 <.LBB28_3+0x834>
    47b0:	09050503          	lb	a0,144(a0)
    47b4:	03ae8b33          	mul	s6,t4,s10
    47b8:	000015b7          	lui	a1,0x1
    47bc:	00b105b3          	add	a1,sp,a1
    47c0:	ff05bc03          	ld	s8,-16(a1) # ff0 <.LBB28_3+0x52c>
    47c4:	018b0c33          	add	s8,s6,s8
    47c8:	000015b7          	lui	a1,0x1
    47cc:	00b105b3          	add	a1,sp,a1
    47d0:	ff85b823          	sd	s8,-16(a1) # ff0 <.LBB28_3+0x52c>
    47d4:	035e8eb3          	mul	t4,t4,s5
    47d8:	000015b7          	lui	a1,0x1
    47dc:	00b105b3          	add	a1,sp,a1
    47e0:	ff85bb03          	ld	s6,-8(a1) # ff8 <.LBB28_3+0x534>
    47e4:	016e8b33          	add	s6,t4,s6
    47e8:	000015b7          	lui	a1,0x1
    47ec:	00b105b3          	add	a1,sp,a1
    47f0:	ff65bc23          	sd	s6,-8(a1) # ff8 <.LBB28_3+0x534>
    47f4:	03950eb3          	mul	t4,a0,s9
    47f8:	000015b7          	lui	a1,0x1
    47fc:	00b105b3          	add	a1,sp,a1
    4800:	0205bb03          	ld	s6,32(a1) # 1020 <.LBB28_3+0x55c>
    4804:	016e8b33          	add	s6,t4,s6
    4808:	000015b7          	lui	a1,0x1
    480c:	00b105b3          	add	a1,sp,a1
    4810:	0365b023          	sd	s6,32(a1) # 1020 <.LBB28_3+0x55c>
    4814:	02f50eb3          	mul	t4,a0,a5
    4818:	000015b7          	lui	a1,0x1
    481c:	00b105b3          	add	a1,sp,a1
    4820:	0185bb03          	ld	s6,24(a1) # 1018 <.LBB28_3+0x554>
    4824:	016e8b33          	add	s6,t4,s6
    4828:	000015b7          	lui	a1,0x1
    482c:	00b105b3          	add	a1,sp,a1
    4830:	0165bc23          	sd	s6,24(a1) # 1018 <.LBB28_3+0x554>
    4834:	02950eb3          	mul	t4,a0,s1
    4838:	000015b7          	lui	a1,0x1
    483c:	00b105b3          	add	a1,sp,a1
    4840:	0105bb03          	ld	s6,16(a1) # 1010 <.LBB28_3+0x54c>
    4844:	016e8b33          	add	s6,t4,s6
    4848:	000015b7          	lui	a1,0x1
    484c:	00b105b3          	add	a1,sp,a1
    4850:	0165b823          	sd	s6,16(a1) # 1010 <.LBB28_3+0x54c>
    4854:	03350eb3          	mul	t4,a0,s3
    4858:	000015b7          	lui	a1,0x1
    485c:	00b105b3          	add	a1,sp,a1
    4860:	0085bb03          	ld	s6,8(a1) # 1008 <.LBB28_3+0x544>
    4864:	016e8b33          	add	s6,t4,s6
    4868:	000015b7          	lui	a1,0x1
    486c:	00b105b3          	add	a1,sp,a1
    4870:	0165b423          	sd	s6,8(a1) # 1008 <.LBB28_3+0x544>
    4874:	03750eb3          	mul	t4,a0,s7
    4878:	000015b7          	lui	a1,0x1
    487c:	00b105b3          	add	a1,sp,a1
    4880:	0005bb03          	ld	s6,0(a1) # 1000 <.LBB28_3+0x53c>
    4884:	016e8b33          	add	s6,t4,s6
    4888:	000015b7          	lui	a1,0x1
    488c:	00b105b3          	add	a1,sp,a1
    4890:	0165b023          	sd	s6,0(a1) # 1000 <.LBB28_3+0x53c>
    4894:	000015b7          	lui	a1,0x1
    4898:	00b105b3          	add	a1,sp,a1
    489c:	2a05b583          	ld	a1,672(a1) # 12a0 <.LBB28_3+0x7dc>
    48a0:	02b50eb3          	mul	t4,a0,a1
    48a4:	000015b7          	lui	a1,0x1
    48a8:	00b105b3          	add	a1,sp,a1
    48ac:	0285bb03          	ld	s6,40(a1) # 1028 <.LBB28_3+0x564>
    48b0:	016e8b33          	add	s6,t4,s6
    48b4:	000015b7          	lui	a1,0x1
    48b8:	00b105b3          	add	a1,sp,a1
    48bc:	0365b423          	sd	s6,40(a1) # 1028 <.LBB28_3+0x564>
    48c0:	000015b7          	lui	a1,0x1
    48c4:	00b105b3          	add	a1,sp,a1
    48c8:	2f05b583          	ld	a1,752(a1) # 12f0 <.LBB28_3+0x82c>
    48cc:	02b50eb3          	mul	t4,a0,a1
    48d0:	000015b7          	lui	a1,0x1
    48d4:	00b105b3          	add	a1,sp,a1
    48d8:	0305bb03          	ld	s6,48(a1) # 1030 <.LBB28_3+0x56c>
    48dc:	016e8b33          	add	s6,t4,s6
    48e0:	000015b7          	lui	a1,0x1
    48e4:	00b105b3          	add	a1,sp,a1
    48e8:	0365b823          	sd	s6,48(a1) # 1030 <.LBB28_3+0x56c>
    48ec:	00070c93          	mv	s9,a4
    48f0:	02e50eb3          	mul	t4,a0,a4
    48f4:	000015b7          	lui	a1,0x1
    48f8:	00b105b3          	add	a1,sp,a1
    48fc:	0385bb03          	ld	s6,56(a1) # 1038 <.LBB28_3+0x574>
    4900:	016e8b33          	add	s6,t4,s6
    4904:	000015b7          	lui	a1,0x1
    4908:	00b105b3          	add	a1,sp,a1
    490c:	0365bc23          	sd	s6,56(a1) # 1038 <.LBB28_3+0x574>
    4910:	00068a93          	mv	s5,a3
    4914:	02d50eb3          	mul	t4,a0,a3
    4918:	000015b7          	lui	a1,0x1
    491c:	00b105b3          	add	a1,sp,a1
    4920:	0405bb03          	ld	s6,64(a1) # 1040 <.LBB28_3+0x57c>
    4924:	016e8b33          	add	s6,t4,s6
    4928:	000015b7          	lui	a1,0x1
    492c:	00b105b3          	add	a1,sp,a1
    4930:	0565b023          	sd	s6,64(a1) # 1040 <.LBB28_3+0x57c>
    4934:	000015b7          	lui	a1,0x1
    4938:	00b105b3          	add	a1,sp,a1
    493c:	2b85b383          	ld	t2,696(a1) # 12b8 <.LBB28_3+0x7f4>
    4940:	02750eb3          	mul	t4,a0,t2
    4944:	000015b7          	lui	a1,0x1
    4948:	00b105b3          	add	a1,sp,a1
    494c:	0485bb03          	ld	s6,72(a1) # 1048 <.LBB28_3+0x584>
    4950:	016e8b33          	add	s6,t4,s6
    4954:	000015b7          	lui	a1,0x1
    4958:	00b105b3          	add	a1,sp,a1
    495c:	0565b423          	sd	s6,72(a1) # 1048 <.LBB28_3+0x584>
    4960:	03e50eb3          	mul	t4,a0,t5
    4964:	000015b7          	lui	a1,0x1
    4968:	00b105b3          	add	a1,sp,a1
    496c:	0505bb03          	ld	s6,80(a1) # 1050 <.LBB28_3+0x58c>
    4970:	016e8b33          	add	s6,t4,s6
    4974:	000015b7          	lui	a1,0x1
    4978:	00b105b3          	add	a1,sp,a1
    497c:	0565b823          	sd	s6,80(a1) # 1050 <.LBB28_3+0x58c>
    4980:	000015b7          	lui	a1,0x1
    4984:	00b105b3          	add	a1,sp,a1
    4988:	1d05b883          	ld	a7,464(a1) # 11d0 <.LBB28_3+0x70c>
    498c:	03150eb3          	mul	t4,a0,a7
    4990:	000015b7          	lui	a1,0x1
    4994:	00b105b3          	add	a1,sp,a1
    4998:	0585bb03          	ld	s6,88(a1) # 1058 <.LBB28_3+0x594>
    499c:	016e8b33          	add	s6,t4,s6
    49a0:	000015b7          	lui	a1,0x1
    49a4:	00b105b3          	add	a1,sp,a1
    49a8:	0565bc23          	sd	s6,88(a1) # 1058 <.LBB28_3+0x594>
    49ac:	000015b7          	lui	a1,0x1
    49b0:	00b105b3          	add	a1,sp,a1
    49b4:	2a85bb83          	ld	s7,680(a1) # 12a8 <.LBB28_3+0x7e4>
    49b8:	03750eb3          	mul	t4,a0,s7
    49bc:	000015b7          	lui	a1,0x1
    49c0:	00b105b3          	add	a1,sp,a1
    49c4:	0605bb03          	ld	s6,96(a1) # 1060 <.LBB28_3+0x59c>
    49c8:	016e8b33          	add	s6,t4,s6
    49cc:	000015b7          	lui	a1,0x1
    49d0:	00b105b3          	add	a1,sp,a1
    49d4:	0765b023          	sd	s6,96(a1) # 1060 <.LBB28_3+0x59c>
    49d8:	02c50eb3          	mul	t4,a0,a2
    49dc:	000015b7          	lui	a1,0x1
    49e0:	00b105b3          	add	a1,sp,a1
    49e4:	0685bb03          	ld	s6,104(a1) # 1068 <.LBB28_3+0x5a4>
    49e8:	016e8b33          	add	s6,t4,s6
    49ec:	000015b7          	lui	a1,0x1
    49f0:	00b105b3          	add	a1,sp,a1
    49f4:	0765b423          	sd	s6,104(a1) # 1068 <.LBB28_3+0x5a4>
    49f8:	03f50eb3          	mul	t4,a0,t6
    49fc:	000015b7          	lui	a1,0x1
    4a00:	00b105b3          	add	a1,sp,a1
    4a04:	0705bb03          	ld	s6,112(a1) # 1070 <.LBB28_3+0x5ac>
    4a08:	016e8b33          	add	s6,t4,s6
    4a0c:	000015b7          	lui	a1,0x1
    4a10:	00b105b3          	add	a1,sp,a1
    4a14:	0765b823          	sd	s6,112(a1) # 1070 <.LBB28_3+0x5ac>
    4a18:	000015b7          	lui	a1,0x1
    4a1c:	00b105b3          	add	a1,sp,a1
    4a20:	2e05b483          	ld	s1,736(a1) # 12e0 <.LBB28_3+0x81c>
    4a24:	02950eb3          	mul	t4,a0,s1
    4a28:	000015b7          	lui	a1,0x1
    4a2c:	00b105b3          	add	a1,sp,a1
    4a30:	0785bb03          	ld	s6,120(a1) # 1078 <.LBB28_3+0x5b4>
    4a34:	016e8b33          	add	s6,t4,s6
    4a38:	000015b7          	lui	a1,0x1
    4a3c:	00b105b3          	add	a1,sp,a1
    4a40:	0765bc23          	sd	s6,120(a1) # 1078 <.LBB28_3+0x5b4>
    4a44:	03050eb3          	mul	t4,a0,a6
    4a48:	000015b7          	lui	a1,0x1
    4a4c:	00b105b3          	add	a1,sp,a1
    4a50:	0805bb03          	ld	s6,128(a1) # 1080 <.LBB28_3+0x5bc>
    4a54:	016e8b33          	add	s6,t4,s6
    4a58:	000015b7          	lui	a1,0x1
    4a5c:	00b105b3          	add	a1,sp,a1
    4a60:	0965b023          	sd	s6,128(a1) # 1080 <.LBB28_3+0x5bc>
    4a64:	00090793          	mv	a5,s2
    4a68:	03250eb3          	mul	t4,a0,s2
    4a6c:	000015b7          	lui	a1,0x1
    4a70:	00b105b3          	add	a1,sp,a1
    4a74:	0885bb03          	ld	s6,136(a1) # 1088 <.LBB28_3+0x5c4>
    4a78:	016e8b33          	add	s6,t4,s6
    4a7c:	000015b7          	lui	a1,0x1
    4a80:	00b105b3          	add	a1,sp,a1
    4a84:	0965b423          	sd	s6,136(a1) # 1088 <.LBB28_3+0x5c4>
    4a88:	000015b7          	lui	a1,0x1
    4a8c:	00b105b3          	add	a1,sp,a1
    4a90:	2b05b903          	ld	s2,688(a1) # 12b0 <.LBB28_3+0x7ec>
    4a94:	03250eb3          	mul	t4,a0,s2
    4a98:	000015b7          	lui	a1,0x1
    4a9c:	00b105b3          	add	a1,sp,a1
    4aa0:	0905bb03          	ld	s6,144(a1) # 1090 <.LBB28_3+0x5cc>
    4aa4:	016e8b33          	add	s6,t4,s6
    4aa8:	000015b7          	lui	a1,0x1
    4aac:	00b105b3          	add	a1,sp,a1
    4ab0:	0965b823          	sd	s6,144(a1) # 1090 <.LBB28_3+0x5cc>
    4ab4:	000015b7          	lui	a1,0x1
    4ab8:	00b105b3          	add	a1,sp,a1
    4abc:	1f05b703          	ld	a4,496(a1) # 11f0 <.LBB28_3+0x72c>
    4ac0:	02e50eb3          	mul	t4,a0,a4
    4ac4:	000015b7          	lui	a1,0x1
    4ac8:	00b105b3          	add	a1,sp,a1
    4acc:	0985bb03          	ld	s6,152(a1) # 1098 <.LBB28_3+0x5d4>
    4ad0:	016e8b33          	add	s6,t4,s6
    4ad4:	000015b7          	lui	a1,0x1
    4ad8:	00b105b3          	add	a1,sp,a1
    4adc:	0965bc23          	sd	s6,152(a1) # 1098 <.LBB28_3+0x5d4>
    4ae0:	000015b7          	lui	a1,0x1
    4ae4:	00b105b3          	add	a1,sp,a1
    4ae8:	2e85b683          	ld	a3,744(a1) # 12e8 <.LBB28_3+0x824>
    4aec:	02d50eb3          	mul	t4,a0,a3
    4af0:	000015b7          	lui	a1,0x1
    4af4:	00b105b3          	add	a1,sp,a1
    4af8:	0a05bb03          	ld	s6,160(a1) # 10a0 <.LBB28_3+0x5dc>
    4afc:	016e8b33          	add	s6,t4,s6
    4b00:	000015b7          	lui	a1,0x1
    4b04:	00b105b3          	add	a1,sp,a1
    4b08:	0b65b023          	sd	s6,160(a1) # 10a0 <.LBB28_3+0x5dc>
    4b0c:	000015b7          	lui	a1,0x1
    4b10:	00b105b3          	add	a1,sp,a1
    4b14:	1e85b603          	ld	a2,488(a1) # 11e8 <.LBB28_3+0x724>
    4b18:	02c50eb3          	mul	t4,a0,a2
    4b1c:	000015b7          	lui	a1,0x1
    4b20:	00b105b3          	add	a1,sp,a1
    4b24:	0a85bb03          	ld	s6,168(a1) # 10a8 <.LBB28_3+0x5e4>
    4b28:	016e8b33          	add	s6,t4,s6
    4b2c:	000015b7          	lui	a1,0x1
    4b30:	00b105b3          	add	a1,sp,a1
    4b34:	0b65b423          	sd	s6,168(a1) # 10a8 <.LBB28_3+0x5e4>
    4b38:	02550eb3          	mul	t4,a0,t0
    4b3c:	000015b7          	lui	a1,0x1
    4b40:	00b105b3          	add	a1,sp,a1
    4b44:	0b05bb03          	ld	s6,176(a1) # 10b0 <.LBB28_3+0x5ec>
    4b48:	016e8b33          	add	s6,t4,s6
    4b4c:	000015b7          	lui	a1,0x1
    4b50:	00b105b3          	add	a1,sp,a1
    4b54:	0b65b823          	sd	s6,176(a1) # 10b0 <.LBB28_3+0x5ec>
    4b58:	000015b7          	lui	a1,0x1
    4b5c:	00b105b3          	add	a1,sp,a1
    4b60:	2885b583          	ld	a1,648(a1) # 1288 <.LBB28_3+0x7c4>
    4b64:	02b50eb3          	mul	t4,a0,a1
    4b68:	00001f37          	lui	t5,0x1
    4b6c:	01e10f33          	add	t5,sp,t5
    4b70:	0b8f3b03          	ld	s6,184(t5) # 10b8 <.LBB28_3+0x5f4>
    4b74:	016e8b33          	add	s6,t4,s6
    4b78:	00001eb7          	lui	t4,0x1
    4b7c:	01d10eb3          	add	t4,sp,t4
    4b80:	0b6ebc23          	sd	s6,184(t4) # 10b8 <.LBB28_3+0x5f4>
    4b84:	03450eb3          	mul	t4,a0,s4
    4b88:	00001f37          	lui	t5,0x1
    4b8c:	01e10f33          	add	t5,sp,t5
    4b90:	0c0f3b03          	ld	s6,192(t5) # 10c0 <.LBB28_3+0x5fc>
    4b94:	016e8b33          	add	s6,t4,s6
    4b98:	00001eb7          	lui	t4,0x1
    4b9c:	01d10eb3          	add	t4,sp,t4
    4ba0:	0d6eb023          	sd	s6,192(t4) # 10c0 <.LBB28_3+0x5fc>
    4ba4:	03b50eb3          	mul	t4,a0,s11
    4ba8:	00001f37          	lui	t5,0x1
    4bac:	01e10f33          	add	t5,sp,t5
    4bb0:	0c8f3b03          	ld	s6,200(t5) # 10c8 <.LBB28_3+0x604>
    4bb4:	016e8b33          	add	s6,t4,s6
    4bb8:	00001eb7          	lui	t4,0x1
    4bbc:	01d10eb3          	add	t4,sp,t4
    4bc0:	0d6eb423          	sd	s6,200(t4) # 10c8 <.LBB28_3+0x604>
    4bc4:	02650eb3          	mul	t4,a0,t1
    4bc8:	00001f37          	lui	t5,0x1
    4bcc:	01e10f33          	add	t5,sp,t5
    4bd0:	0d0f3b03          	ld	s6,208(t5) # 10d0 <.LBB28_3+0x60c>
    4bd4:	016e8b33          	add	s6,t4,s6
    4bd8:	00001eb7          	lui	t4,0x1
    4bdc:	01d10eb3          	add	t4,sp,t4
    4be0:	0d6eb823          	sd	s6,208(t4) # 10d0 <.LBB28_3+0x60c>
    4be4:	00001eb7          	lui	t4,0x1
    4be8:	01d10eb3          	add	t4,sp,t4
    4bec:	208ebf03          	ld	t5,520(t4) # 1208 <.LBB28_3+0x744>
    4bf0:	03e50eb3          	mul	t4,a0,t5
    4bf4:	00001fb7          	lui	t6,0x1
    4bf8:	01f10fb3          	add	t6,sp,t6
    4bfc:	0d8fbb03          	ld	s6,216(t6) # 10d8 <.LBB28_3+0x614>
    4c00:	016e8b33          	add	s6,t4,s6
    4c04:	00001eb7          	lui	t4,0x1
    4c08:	01d10eb3          	add	t4,sp,t4
    4c0c:	0d6ebc23          	sd	s6,216(t4) # 10d8 <.LBB28_3+0x614>
    4c10:	03c50eb3          	mul	t4,a0,t3
    4c14:	00001fb7          	lui	t6,0x1
    4c18:	01f10fb3          	add	t6,sp,t6
    4c1c:	0e0fbb03          	ld	s6,224(t6) # 10e0 <.LBB28_3+0x61c>
    4c20:	016e8b33          	add	s6,t4,s6
    4c24:	00001eb7          	lui	t4,0x1
    4c28:	01d10eb3          	add	t4,sp,t4
    4c2c:	0f6eb023          	sd	s6,224(t4) # 10e0 <.LBB28_3+0x61c>
    4c30:	00001eb7          	lui	t4,0x1
    4c34:	01d10eb3          	add	t4,sp,t4
    4c38:	200eb983          	ld	s3,512(t4) # 1200 <.LBB28_3+0x73c>
    4c3c:	03350eb3          	mul	t4,a0,s3
    4c40:	00001fb7          	lui	t6,0x1
    4c44:	01f10fb3          	add	t6,sp,t6
    4c48:	0e8fbb03          	ld	s6,232(t6) # 10e8 <.LBB28_3+0x624>
    4c4c:	016e8b33          	add	s6,t4,s6
    4c50:	00001eb7          	lui	t4,0x1
    4c54:	01d10eb3          	add	t4,sp,t4
    4c58:	0f6eb423          	sd	s6,232(t4) # 10e8 <.LBB28_3+0x624>
    4c5c:	00001eb7          	lui	t4,0x1
    4c60:	01d10eb3          	add	t4,sp,t4
    4c64:	2f8ebe83          	ld	t4,760(t4) # 12f8 <.LBB28_3+0x834>
    4c68:	0a8e8e83          	lb	t4,168(t4)
    4c6c:	03a50b33          	mul	s6,a0,s10
    4c70:	00001fb7          	lui	t6,0x1
    4c74:	01f10fb3          	add	t6,sp,t6
    4c78:	0f0fbc03          	ld	s8,240(t6) # 10f0 <.LBB28_3+0x62c>
    4c7c:	018b0c33          	add	s8,s6,s8
    4c80:	00001fb7          	lui	t6,0x1
    4c84:	01f10fb3          	add	t6,sp,t6
    4c88:	0f8fb823          	sd	s8,240(t6) # 10f0 <.LBB28_3+0x62c>
    4c8c:	00001fb7          	lui	t6,0x1
    4c90:	01f10fb3          	add	t6,sp,t6
    4c94:	1c8fbf83          	ld	t6,456(t6) # 11c8 <.LBB28_3+0x704>
    4c98:	03f50533          	mul	a0,a0,t6
    4c9c:	00001b37          	lui	s6,0x1
    4ca0:	01610b33          	add	s6,sp,s6
    4ca4:	0f8b3b03          	ld	s6,248(s6) # 10f8 <.LBB28_3+0x634>
    4ca8:	01650b33          	add	s6,a0,s6
    4cac:	00001537          	lui	a0,0x1
    4cb0:	00a10533          	add	a0,sp,a0
    4cb4:	0f653c23          	sd	s6,248(a0) # 10f8 <.LBB28_3+0x634>
    4cb8:	03fe8533          	mul	a0,t4,t6
    4cbc:	00001fb7          	lui	t6,0x1
    4cc0:	01f10fb3          	add	t6,sp,t6
    4cc4:	1cafb423          	sd	a0,456(t6) # 11c8 <.LBB28_3+0x704>
    4cc8:	03ae8533          	mul	a0,t4,s10
    4ccc:	00001fb7          	lui	t6,0x1
    4cd0:	01f10fb3          	add	t6,sp,t6
    4cd4:	9eafbc23          	sd	a0,-1544(t6) # 9f8 <.LBB28_1+0x8dc>
    4cd8:	033e8533          	mul	a0,t4,s3
    4cdc:	00001fb7          	lui	t6,0x1
    4ce0:	01f10fb3          	add	t6,sp,t6
    4ce4:	20afb023          	sd	a0,512(t6) # 1200 <.LBB28_3+0x73c>
    4ce8:	03ce8533          	mul	a0,t4,t3
    4cec:	00001e37          	lui	t3,0x1
    4cf0:	01c10e33          	add	t3,sp,t3
    4cf4:	1eae3023          	sd	a0,480(t3) # 11e0 <.LBB28_3+0x71c>
    4cf8:	03ee8533          	mul	a0,t4,t5
    4cfc:	00001e37          	lui	t3,0x1
    4d00:	01c10e33          	add	t3,sp,t3
    4d04:	20ae3423          	sd	a0,520(t3) # 1208 <.LBB28_3+0x744>
    4d08:	026e8533          	mul	a0,t4,t1
    4d0c:	00001337          	lui	t1,0x1
    4d10:	00610333          	add	t1,sp,t1
    4d14:	9ea33823          	sd	a0,-1552(t1) # 9f0 <.LBB28_1+0x8d4>
    4d18:	03be8533          	mul	a0,t4,s11
    4d1c:	00001337          	lui	t1,0x1
    4d20:	00610333          	add	t1,sp,t1
    4d24:	22a33823          	sd	a0,560(t1) # 1230 <.LBB28_3+0x76c>
    4d28:	034e8533          	mul	a0,t4,s4
    4d2c:	00001337          	lui	t1,0x1
    4d30:	00610333          	add	t1,sp,t1
    4d34:	22a33023          	sd	a0,544(t1) # 1220 <.LBB28_3+0x75c>
    4d38:	02be8533          	mul	a0,t4,a1
    4d3c:	000015b7          	lui	a1,0x1
    4d40:	00b105b3          	add	a1,sp,a1
    4d44:	28a5b423          	sd	a0,648(a1) # 1288 <.LBB28_3+0x7c4>
    4d48:	025e8533          	mul	a0,t4,t0
    4d4c:	000015b7          	lui	a1,0x1
    4d50:	00b105b3          	add	a1,sp,a1
    4d54:	1ea5bc23          	sd	a0,504(a1) # 11f8 <.LBB28_3+0x734>
    4d58:	02ce8533          	mul	a0,t4,a2
    4d5c:	000015b7          	lui	a1,0x1
    4d60:	00b105b3          	add	a1,sp,a1
    4d64:	1ea5b423          	sd	a0,488(a1) # 11e8 <.LBB28_3+0x724>
    4d68:	02de8fb3          	mul	t6,t4,a3
    4d6c:	02ee8333          	mul	t1,t4,a4
    4d70:	032e8f33          	mul	t5,t4,s2
    4d74:	02fe89b3          	mul	s3,t4,a5
    4d78:	030e8a33          	mul	s4,t4,a6
    4d7c:	029e84b3          	mul	s1,t4,s1
    4d80:	00001537          	lui	a0,0x1
    4d84:	00a10533          	add	a0,sp,a0
    4d88:	2d853503          	ld	a0,728(a0) # 12d8 <.LBB28_3+0x814>
    4d8c:	02ae8933          	mul	s2,t4,a0
    4d90:	00001537          	lui	a0,0x1
    4d94:	00a10533          	add	a0,sp,a0
    4d98:	28053503          	ld	a0,640(a0) # 1280 <.LBB28_3+0x7bc>
    4d9c:	02ae8db3          	mul	s11,t4,a0
    4da0:	037e8833          	mul	a6,t4,s7
    4da4:	031e8d33          	mul	s10,t4,a7
    4da8:	00001537          	lui	a0,0x1
    4dac:	00a10533          	add	a0,sp,a0
    4db0:	21853503          	ld	a0,536(a0) # 1218 <.LBB28_3+0x754>
    4db4:	02ae88b3          	mul	a7,t4,a0
    4db8:	027e8b33          	mul	s6,t4,t2
    4dbc:	035e8c33          	mul	s8,t4,s5
    4dc0:	039e8e33          	mul	t3,t4,s9
    4dc4:	00001537          	lui	a0,0x1
    4dc8:	00a10533          	add	a0,sp,a0
    4dcc:	2f053503          	ld	a0,752(a0) # 12f0 <.LBB28_3+0x82c>
    4dd0:	02ae8533          	mul	a0,t4,a0
    4dd4:	000015b7          	lui	a1,0x1
    4dd8:	00b105b3          	add	a1,sp,a1
    4ddc:	2a05b583          	ld	a1,672(a1) # 12a0 <.LBB28_3+0x7dc>
    4de0:	02be8bb3          	mul	s7,t4,a1
    4de4:	000015b7          	lui	a1,0x1
    4de8:	00b105b3          	add	a1,sp,a1
    4dec:	2c85b583          	ld	a1,712(a1) # 12c8 <.LBB28_3+0x804>
    4df0:	02be8633          	mul	a2,t4,a1
    4df4:	000015b7          	lui	a1,0x1
    4df8:	00b105b3          	add	a1,sp,a1
    4dfc:	2d05b583          	ld	a1,720(a1) # 12d0 <.LBB28_3+0x80c>
    4e00:	02be86b3          	mul	a3,t4,a1
    4e04:	000015b7          	lui	a1,0x1
    4e08:	00b105b3          	add	a1,sp,a1
    4e0c:	2985b583          	ld	a1,664(a1) # 1298 <.LBB28_3+0x7d4>
    4e10:	02be8733          	mul	a4,t4,a1
    4e14:	000015b7          	lui	a1,0x1
    4e18:	00b105b3          	add	a1,sp,a1
    4e1c:	2905b583          	ld	a1,656(a1) # 1290 <.LBB28_3+0x7cc>
    4e20:	02be87b3          	mul	a5,t4,a1
    4e24:	000015b7          	lui	a1,0x1
    4e28:	00b105b3          	add	a1,sp,a1
    4e2c:	2f85b583          	ld	a1,760(a1) # 12f8 <.LBB28_3+0x834>
    4e30:	00158593          	addi	a1,a1,1
    4e34:	000012b7          	lui	t0,0x1
    4e38:	005102b3          	add	t0,sp,t0
    4e3c:	2eb2bc23          	sd	a1,760(t0) # 12f8 <.LBB28_3+0x834>
    4e40:	000015b7          	lui	a1,0x1
    4e44:	00b105b3          	add	a1,sp,a1
    4e48:	2c05b583          	ld	a1,704(a1) # 12c0 <.LBB28_3+0x7fc>
    4e4c:	02be8eb3          	mul	t4,t4,a1
    4e50:	000015b7          	lui	a1,0x1
    4e54:	00b105b3          	add	a1,sp,a1
    4e58:	1205b583          	ld	a1,288(a1) # 1120 <.LBB28_3+0x65c>
    4e5c:	00be85b3          	add	a1,t4,a1
    4e60:	000012b7          	lui	t0,0x1
    4e64:	005102b3          	add	t0,sp,t0
    4e68:	12b2b023          	sd	a1,288(t0) # 1120 <.LBB28_3+0x65c>
    4e6c:	000015b7          	lui	a1,0x1
    4e70:	00b105b3          	add	a1,sp,a1
    4e74:	1785be83          	ld	t4,376(a1) # 1178 <.LBB28_3+0x6b4>
    4e78:	000015b7          	lui	a1,0x1
    4e7c:	00b105b3          	add	a1,sp,a1
    4e80:	1185b583          	ld	a1,280(a1) # 1118 <.LBB28_3+0x654>
    4e84:	00b785b3          	add	a1,a5,a1
    4e88:	000017b7          	lui	a5,0x1
    4e8c:	00f107b3          	add	a5,sp,a5
    4e90:	10b7bc23          	sd	a1,280(a5) # 1118 <.LBB28_3+0x654>
    4e94:	000015b7          	lui	a1,0x1
    4e98:	00b105b3          	add	a1,sp,a1
    4e9c:	1105b583          	ld	a1,272(a1) # 1110 <.LBB28_3+0x64c>
    4ea0:	00b705b3          	add	a1,a4,a1
    4ea4:	00001737          	lui	a4,0x1
    4ea8:	00e10733          	add	a4,sp,a4
    4eac:	10b73823          	sd	a1,272(a4) # 1110 <.LBB28_3+0x64c>
    4eb0:	000015b7          	lui	a1,0x1
    4eb4:	00b105b3          	add	a1,sp,a1
    4eb8:	1085b583          	ld	a1,264(a1) # 1108 <.LBB28_3+0x644>
    4ebc:	00b685b3          	add	a1,a3,a1
    4ec0:	000016b7          	lui	a3,0x1
    4ec4:	00d106b3          	add	a3,sp,a3
    4ec8:	10b6b423          	sd	a1,264(a3) # 1108 <.LBB28_3+0x644>
    4ecc:	000015b7          	lui	a1,0x1
    4ed0:	00b105b3          	add	a1,sp,a1
    4ed4:	1005b583          	ld	a1,256(a1) # 1100 <.LBB28_3+0x63c>
    4ed8:	00b605b3          	add	a1,a2,a1
    4edc:	00001637          	lui	a2,0x1
    4ee0:	00c10633          	add	a2,sp,a2
    4ee4:	10b63023          	sd	a1,256(a2) # 1100 <.LBB28_3+0x63c>
    4ee8:	000015b7          	lui	a1,0x1
    4eec:	00b105b3          	add	a1,sp,a1
    4ef0:	1285b583          	ld	a1,296(a1) # 1128 <.LBB28_3+0x664>
    4ef4:	00bb85b3          	add	a1,s7,a1
    4ef8:	00001637          	lui	a2,0x1
    4efc:	00c10633          	add	a2,sp,a2
    4f00:	12b63423          	sd	a1,296(a2) # 1128 <.LBB28_3+0x664>
    4f04:	000015b7          	lui	a1,0x1
    4f08:	00b105b3          	add	a1,sp,a1
    4f0c:	1305b583          	ld	a1,304(a1) # 1130 <.LBB28_3+0x66c>
    4f10:	00b505b3          	add	a1,a0,a1
    4f14:	00001537          	lui	a0,0x1
    4f18:	00a10533          	add	a0,sp,a0
    4f1c:	12b53823          	sd	a1,304(a0) # 1130 <.LBB28_3+0x66c>
    4f20:	00001537          	lui	a0,0x1
    4f24:	00a10533          	add	a0,sp,a0
    4f28:	13853503          	ld	a0,312(a0) # 1138 <.LBB28_3+0x674>
    4f2c:	00ae0533          	add	a0,t3,a0
    4f30:	000015b7          	lui	a1,0x1
    4f34:	00b105b3          	add	a1,sp,a1
    4f38:	12a5bc23          	sd	a0,312(a1) # 1138 <.LBB28_3+0x674>
    4f3c:	00001537          	lui	a0,0x1
    4f40:	00a10533          	add	a0,sp,a0
    4f44:	14853e03          	ld	t3,328(a0) # 1148 <.LBB28_3+0x684>
    4f48:	00001537          	lui	a0,0x1
    4f4c:	00a10533          	add	a0,sp,a0
    4f50:	14053503          	ld	a0,320(a0) # 1140 <.LBB28_3+0x67c>
    4f54:	00ac0533          	add	a0,s8,a0
    4f58:	000015b7          	lui	a1,0x1
    4f5c:	00b105b3          	add	a1,sp,a1
    4f60:	14a5b023          	sd	a0,320(a1) # 1140 <.LBB28_3+0x67c>
    4f64:	01cb0e33          	add	t3,s6,t3
    4f68:	00001537          	lui	a0,0x1
    4f6c:	00a10533          	add	a0,sp,a0
    4f70:	24053503          	ld	a0,576(a0) # 1240 <.LBB28_3+0x77c>
    4f74:	00a88533          	add	a0,a7,a0
    4f78:	000015b7          	lui	a1,0x1
    4f7c:	00b105b3          	add	a1,sp,a1
    4f80:	1505bc83          	ld	s9,336(a1) # 1150 <.LBB28_3+0x68c>
    4f84:	000015b7          	lui	a1,0x1
    4f88:	00b105b3          	add	a1,sp,a1
    4f8c:	24a5b023          	sd	a0,576(a1) # 1240 <.LBB28_3+0x77c>
    4f90:	00001537          	lui	a0,0x1
    4f94:	00a10533          	add	a0,sp,a0
    4f98:	24053c03          	ld	s8,576(a0) # 1240 <.LBB28_3+0x77c>
    4f9c:	00001537          	lui	a0,0x1
    4fa0:	00a10533          	add	a0,sp,a0
    4fa4:	24853503          	ld	a0,584(a0) # 1248 <.LBB28_3+0x784>
    4fa8:	00ad0533          	add	a0,s10,a0
    4fac:	000015b7          	lui	a1,0x1
    4fb0:	00b105b3          	add	a1,sp,a1
    4fb4:	1605bd03          	ld	s10,352(a1) # 1160 <.LBB28_3+0x69c>
    4fb8:	000015b7          	lui	a1,0x1
    4fbc:	00b105b3          	add	a1,sp,a1
    4fc0:	24a5b423          	sd	a0,584(a1) # 1248 <.LBB28_3+0x784>
    4fc4:	00001537          	lui	a0,0x1
    4fc8:	00a10533          	add	a0,sp,a0
    4fcc:	24853b83          	ld	s7,584(a0) # 1248 <.LBB28_3+0x784>
    4fd0:	01980cb3          	add	s9,a6,s9
    4fd4:	00001537          	lui	a0,0x1
    4fd8:	00a10533          	add	a0,sp,a0
    4fdc:	15853a83          	ld	s5,344(a0) # 1158 <.LBB28_3+0x694>
    4fe0:	00001537          	lui	a0,0x1
    4fe4:	00a10533          	add	a0,sp,a0
    4fe8:	25053503          	ld	a0,592(a0) # 1250 <.LBB28_3+0x78c>
    4fec:	00ad8533          	add	a0,s11,a0
    4ff0:	000015b7          	lui	a1,0x1
    4ff4:	00b105b3          	add	a1,sp,a1
    4ff8:	1805bd83          	ld	s11,384(a1) # 1180 <.LBB28_3+0x6bc>
    4ffc:	000015b7          	lui	a1,0x1
    5000:	00b105b3          	add	a1,sp,a1
    5004:	24a5b823          	sd	a0,592(a1) # 1250 <.LBB28_3+0x78c>
    5008:	00001537          	lui	a0,0x1
    500c:	00a10533          	add	a0,sp,a0
    5010:	25053b03          	ld	s6,592(a0) # 1250 <.LBB28_3+0x78c>
    5014:	01590ab3          	add	s5,s2,s5
    5018:	01a48d33          	add	s10,s1,s10
    501c:	00001537          	lui	a0,0x1
    5020:	00a10533          	add	a0,sp,a0
    5024:	16853483          	ld	s1,360(a0) # 1168 <.LBB28_3+0x6a4>
    5028:	00001537          	lui	a0,0x1
    502c:	00a10533          	add	a0,sp,a0
    5030:	25853503          	ld	a0,600(a0) # 1258 <.LBB28_3+0x794>
    5034:	00aa0533          	add	a0,s4,a0
    5038:	000015b7          	lui	a1,0x1
    503c:	00b105b3          	add	a1,sp,a1
    5040:	24a5bc23          	sd	a0,600(a1) # 1258 <.LBB28_3+0x794>
    5044:	00001537          	lui	a0,0x1
    5048:	00a10533          	add	a0,sp,a0
    504c:	25853903          	ld	s2,600(a0) # 1258 <.LBB28_3+0x794>
    5050:	00001537          	lui	a0,0x1
    5054:	00a10533          	add	a0,sp,a0
    5058:	26053503          	ld	a0,608(a0) # 1260 <.LBB28_3+0x79c>
    505c:	00a98533          	add	a0,s3,a0
    5060:	000015b7          	lui	a1,0x1
    5064:	00b105b3          	add	a1,sp,a1
    5068:	26a5b023          	sd	a0,608(a1) # 1260 <.LBB28_3+0x79c>
    506c:	00001537          	lui	a0,0x1
    5070:	00a10533          	add	a0,sp,a0
    5074:	26053783          	ld	a5,608(a0) # 1260 <.LBB28_3+0x79c>
    5078:	009f04b3          	add	s1,t5,s1
    507c:	00001537          	lui	a0,0x1
    5080:	00a10533          	add	a0,sp,a0
    5084:	17053f03          	ld	t5,368(a0) # 1170 <.LBB28_3+0x6ac>
    5088:	00001537          	lui	a0,0x1
    508c:	00a10533          	add	a0,sp,a0
    5090:	26853503          	ld	a0,616(a0) # 1268 <.LBB28_3+0x7a4>
    5094:	00a30533          	add	a0,t1,a0
    5098:	000015b7          	lui	a1,0x1
    509c:	00b105b3          	add	a1,sp,a1
    50a0:	26a5b423          	sd	a0,616(a1) # 1268 <.LBB28_3+0x7a4>
    50a4:	00001537          	lui	a0,0x1
    50a8:	00a10533          	add	a0,sp,a0
    50ac:	26853703          	ld	a4,616(a0) # 1268 <.LBB28_3+0x7a4>
    50b0:	01ef8f33          	add	t5,t6,t5
    50b4:	00001537          	lui	a0,0x1
    50b8:	00a10533          	add	a0,sp,a0
    50bc:	19053283          	ld	t0,400(a0) # 1190 <.LBB28_3+0x6cc>
    50c0:	00001537          	lui	a0,0x1
    50c4:	00a10533          	add	a0,sp,a0
    50c8:	9e853683          	ld	a3,-1560(a0) # 9e8 <.LBB28_1+0x8cc>
    50cc:	00001537          	lui	a0,0x1
    50d0:	00a10533          	add	a0,sp,a0
    50d4:	1e853503          	ld	a0,488(a0) # 11e8 <.LBB28_3+0x724>
    50d8:	01d50eb3          	add	t4,a0,t4
    50dc:	00001537          	lui	a0,0x1
    50e0:	00a10533          	add	a0,sp,a0
    50e4:	19853883          	ld	a7,408(a0) # 1198 <.LBB28_3+0x6d4>
    50e8:	00001537          	lui	a0,0x1
    50ec:	00a10533          	add	a0,sp,a0
    50f0:	1f853503          	ld	a0,504(a0) # 11f8 <.LBB28_3+0x734>
    50f4:	01b50db3          	add	s11,a0,s11
    50f8:	00001537          	lui	a0,0x1
    50fc:	00a10533          	add	a0,sp,a0
    5100:	18853303          	ld	t1,392(a0) # 1188 <.LBB28_3+0x6c4>
    5104:	00001537          	lui	a0,0x1
    5108:	00a10533          	add	a0,sp,a0
    510c:	27053503          	ld	a0,624(a0) # 1270 <.LBB28_3+0x7ac>
    5110:	000015b7          	lui	a1,0x1
    5114:	00b105b3          	add	a1,sp,a1
    5118:	2885b583          	ld	a1,648(a1) # 1288 <.LBB28_3+0x7c4>
    511c:	00a58533          	add	a0,a1,a0
    5120:	000015b7          	lui	a1,0x1
    5124:	00b105b3          	add	a1,sp,a1
    5128:	26a5b823          	sd	a0,624(a1) # 1270 <.LBB28_3+0x7ac>
    512c:	00001537          	lui	a0,0x1
    5130:	00a10533          	add	a0,sp,a0
    5134:	27053603          	ld	a2,624(a0) # 1270 <.LBB28_3+0x7ac>
    5138:	00001537          	lui	a0,0x1
    513c:	00a10533          	add	a0,sp,a0
    5140:	27853503          	ld	a0,632(a0) # 1278 <.LBB28_3+0x7b4>
    5144:	000015b7          	lui	a1,0x1
    5148:	00b105b3          	add	a1,sp,a1
    514c:	2205b583          	ld	a1,544(a1) # 1220 <.LBB28_3+0x75c>
    5150:	00a58533          	add	a0,a1,a0
    5154:	000015b7          	lui	a1,0x1
    5158:	00b105b3          	add	a1,sp,a1
    515c:	26a5bc23          	sd	a0,632(a1) # 1278 <.LBB28_3+0x7b4>
    5160:	00001537          	lui	a0,0x1
    5164:	00a10533          	add	a0,sp,a0
    5168:	27853503          	ld	a0,632(a0) # 1278 <.LBB28_3+0x7b4>
    516c:	000015b7          	lui	a1,0x1
    5170:	00b105b3          	add	a1,sp,a1
    5174:	2305b583          	ld	a1,560(a1) # 1230 <.LBB28_3+0x76c>
    5178:	00658333          	add	t1,a1,t1
    517c:	000015b7          	lui	a1,0x1
    5180:	00b105b3          	add	a1,sp,a1
    5184:	2f85b583          	ld	a1,760(a1) # 12f8 <.LBB28_3+0x834>
    5188:	00001837          	lui	a6,0x1
    518c:	01010833          	add	a6,sp,a6
    5190:	9f083383          	ld	t2,-1552(a6) # 9f0 <.LBB28_1+0x8d4>
    5194:	005382b3          	add	t0,t2,t0
    5198:	00001837          	lui	a6,0x1
    519c:	01010833          	add	a6,sp,a6
    51a0:	20883383          	ld	t2,520(a6) # 1208 <.LBB28_3+0x744>
    51a4:	011388b3          	add	a7,t2,a7
    51a8:	00001837          	lui	a6,0x1
    51ac:	01010833          	add	a6,sp,a6
