
code.o:     file format elf64-littleriscv


Disassembly of section .text.main_dispatch_57_matmul_196x64x192_i8xi8xi32:

0000000000000000 <main_dispatch_57_matmul_196x64x192_i8xi8xi32>:
       0:	81010113          	addi	sp,sp,-2032
       4:	7e113423          	sd	ra,2024(sp)
       8:	7e813023          	sd	s0,2016(sp)
       c:	7c913c23          	sd	s1,2008(sp)
      10:	7d213823          	sd	s2,2000(sp)
      14:	7d313423          	sd	s3,1992(sp)
      18:	7d413023          	sd	s4,1984(sp)
      1c:	7b513c23          	sd	s5,1976(sp)
      20:	7b613823          	sd	s6,1968(sp)
      24:	7b713423          	sd	s7,1960(sp)
      28:	7b813023          	sd	s8,1952(sp)
      2c:	79913c23          	sd	s9,1944(sp)
      30:	79a13823          	sd	s10,1936(sp)
      34:	79b13423          	sd	s11,1928(sp)
      38:	7f010413          	addi	s0,sp,2032
      3c:	80010113          	addi	sp,sp,-2048
      40:	b1010113          	addi	sp,sp,-1264
      44:	0205b583          	ld	a1,32(a1)
      48:	00000513          	li	a0,0
      4c:	0085b603          	ld	a2,8(a1)
      50:	0005b703          	ld	a4,0(a1)
      54:	0002f6b7          	lui	a3,0x2f
      58:	6806869b          	addiw	a3,a3,1664 # 2f680 <.Lfunc_end80+0x6cb8>
      5c:	00d606b3          	add	a3,a2,a3
      60:	000017b7          	lui	a5,0x1
      64:	40f407b3          	sub	a5,s0,a5
      68:	b8d7b823          	sd	a3,-1136(a5) # b90 <.LBB52_3+0x9ac>
      6c:	0105b583          	ld	a1,16(a1)
      70:	000326b7          	lui	a3,0x32
      74:	6806869b          	addiw	a3,a3,1664 # 32680 <.Lfunc_end80+0x9cb8>
      78:	00d60633          	add	a2,a2,a3
      7c:	000016b7          	lui	a3,0x1
      80:	40d406b3          	sub	a3,s0,a3
      84:	b8c6b423          	sd	a2,-1144(a3) # b88 <.LBB52_3+0x9a4>
      88:	34058593          	addi	a1,a1,832
      8c:	00001637          	lui	a2,0x1
      90:	40c40633          	sub	a2,s0,a2
      94:	b2b63823          	sd	a1,-1232(a2) # b30 <.LBB52_3+0x94c>
      98:	000255b7          	lui	a1,0x25
      9c:	c005859b          	addiw	a1,a1,-1024 # 24c00 <.LBB77_4710+0x10>
      a0:	00001637          	lui	a2,0x1
      a4:	40c40633          	sub	a2,s0,a2
      a8:	b2e63c23          	sd	a4,-1224(a2) # b38 <.LBB52_3+0x954>
      ac:	00b705b3          	add	a1,a4,a1
      b0:	00001637          	lui	a2,0x1
      b4:	40c40633          	sub	a2,s0,a2
      b8:	b8b63c23          	sd	a1,-1128(a2) # b98 <.LBB52_3+0x9b4>
      bc:	796f45b7          	lui	a1,0x796f4
      c0:	7c85859b          	addiw	a1,a1,1992 # 796f47c8 <.Lfunc_end80+0x796cbe00>
      c4:	00001637          	lui	a2,0x1
      c8:	40c40633          	sub	a2,s0,a2
      cc:	66b63023          	sd	a1,1632(a2) # 1660 <.LBB52_5+0x288>
      d0:	00100593          	li	a1,1
      d4:	02759593          	slli	a1,a1,0x27
      d8:	e6b43023          	sd	a1,-416(s0)
      dc:	03c0006f          	j	118 <.LBB52_2>

00000000000000e0 <.LBB52_1>:
      e0:	00001537          	lui	a0,0x1
      e4:	40a40533          	sub	a0,s0,a0
      e8:	b2853603          	ld	a2,-1240(a0) # b28 <.LBB52_3+0x944>
      ec:	00860513          	addi	a0,a2,8
      f0:	000015b7          	lui	a1,0x1
      f4:	40b405b3          	sub	a1,s0,a1
      f8:	b985b583          	ld	a1,-1128(a1) # b98 <.LBB52_3+0x9b4>
      fc:	60058593          	addi	a1,a1,1536
     100:	000016b7          	lui	a3,0x1
     104:	40d406b3          	sub	a3,s0,a3
     108:	b8b6bc23          	sd	a1,-1128(a3) # b98 <.LBB52_3+0x9b4>
     10c:	0b800593          	li	a1,184
     110:	00b66463          	bltu	a2,a1,118 <.LBB52_2>
     114:	5090b06f          	j	be1c <.LBB52_1542>

0000000000000118 <.LBB52_2>:
     118:	00000693          	li	a3,0
     11c:	00050613          	mv	a2,a0
     120:	00251513          	slli	a0,a0,0x2
     124:	000015b7          	lui	a1,0x1
     128:	40b405b3          	sub	a1,s0,a1
     12c:	b385b583          	ld	a1,-1224(a1) # b38 <.LBB52_3+0x954>
     130:	00a58533          	add	a0,a1,a0
     134:	000015b7          	lui	a1,0x1
     138:	40b405b3          	sub	a1,s0,a1
     13c:	64a5b823          	sd	a0,1616(a1) # 1650 <.LBB52_5+0x278>
     140:	00001537          	lui	a0,0x1
     144:	40a40533          	sub	a0,s0,a0
     148:	b2c53423          	sd	a2,-1240(a0) # b28 <.LBB52_3+0x944>
     14c:	00661513          	slli	a0,a2,0x6
     150:	000015b7          	lui	a1,0x1
     154:	40b405b3          	sub	a1,s0,a1
     158:	b305b583          	ld	a1,-1232(a1) # b30 <.LBB52_3+0x94c>
     15c:	00a58533          	add	a0,a1,a0
     160:	04050593          	addi	a1,a0,64
     164:	00001637          	lui	a2,0x1
     168:	40c40633          	sub	a2,s0,a2
     16c:	b6b63823          	sd	a1,-1168(a2) # b70 <.LBB52_3+0x98c>
     170:	08050593          	addi	a1,a0,128
     174:	00001637          	lui	a2,0x1
     178:	40c40633          	sub	a2,s0,a2
     17c:	b6b63423          	sd	a1,-1176(a2) # b68 <.LBB52_3+0x984>
     180:	0c050593          	addi	a1,a0,192
     184:	00001637          	lui	a2,0x1
     188:	40c40633          	sub	a2,s0,a2
     18c:	b6b63023          	sd	a1,-1184(a2) # b60 <.LBB52_3+0x97c>
     190:	10050593          	addi	a1,a0,256
     194:	00001637          	lui	a2,0x1
     198:	40c40633          	sub	a2,s0,a2
     19c:	b4b63c23          	sd	a1,-1192(a2) # b58 <.LBB52_3+0x974>
     1a0:	14050593          	addi	a1,a0,320
     1a4:	00001637          	lui	a2,0x1
     1a8:	40c40633          	sub	a2,s0,a2
     1ac:	b4b63823          	sd	a1,-1200(a2) # b50 <.LBB52_3+0x96c>
     1b0:	18050593          	addi	a1,a0,384
     1b4:	00001637          	lui	a2,0x1
     1b8:	40c40633          	sub	a2,s0,a2
     1bc:	b4b63423          	sd	a1,-1208(a2) # b48 <.LBB52_3+0x964>
     1c0:	000015b7          	lui	a1,0x1
     1c4:	40b405b3          	sub	a1,s0,a1
     1c8:	b6a5bc23          	sd	a0,-1160(a1) # b78 <.LBB52_3+0x994>
     1cc:	1c050513          	addi	a0,a0,448
     1d0:	000015b7          	lui	a1,0x1
     1d4:	40b405b3          	sub	a1,s0,a1
     1d8:	b4a5b023          	sd	a0,-1216(a1) # b40 <.LBB52_3+0x95c>
     1dc:	00100593          	li	a1,1
     1e0:	4510006f          	j	e30 <.LBB52_4>

00000000000001e4 <.LBB52_3>:
     1e4:	8da43c23          	sd	s10,-1832(s0)
     1e8:	84843803          	ld	a6,-1976(s0)
     1ec:	ffe80813          	addi	a6,a6,-2
     1f0:	00001d37          	lui	s10,0x1
     1f4:	41a40d33          	sub	s10,s0,s10
     1f8:	b78d3d03          	ld	s10,-1160(s10) # b78 <.LBB52_3+0x994>
     1fc:	000010b7          	lui	ra,0x1
     200:	401400b3          	sub	ra,s0,ra
     204:	6580b083          	ld	ra,1624(ra) # 1658 <.LBB52_5+0x280>
     208:	001d0d33          	add	s10,s10,ra
     20c:	010d01a3          	sb	a6,3(s10)
     210:	e4843803          	ld	a6,-440(s0)
     214:	ffe80813          	addi	a6,a6,-2
     218:	010d0123          	sb	a6,2(s10)
     21c:	e5843803          	ld	a6,-424(s0)
     220:	ffe80813          	addi	a6,a6,-2
     224:	010d00a3          	sb	a6,1(s10)
     228:	e7043803          	ld	a6,-400(s0)
     22c:	ffe80813          	addi	a6,a6,-2
     230:	010d0023          	sb	a6,0(s10)
     234:	e8043803          	ld	a6,-384(s0)
     238:	ffe80813          	addi	a6,a6,-2
     23c:	010d0223          	sb	a6,4(s10)
     240:	e9043803          	ld	a6,-368(s0)
     244:	ffe80813          	addi	a6,a6,-2
     248:	010d02a3          	sb	a6,5(s10)
     24c:	ea043803          	ld	a6,-352(s0)
     250:	ffe80813          	addi	a6,a6,-2
     254:	010d0323          	sb	a6,6(s10)
     258:	eb043803          	ld	a6,-336(s0)
     25c:	ffe80813          	addi	a6,a6,-2
     260:	010d03a3          	sb	a6,7(s10)
     264:	ec043803          	ld	a6,-320(s0)
     268:	ffe80813          	addi	a6,a6,-2
     26c:	010d0423          	sb	a6,8(s10)
     270:	ed043803          	ld	a6,-304(s0)
     274:	ffe80813          	addi	a6,a6,-2
     278:	010d04a3          	sb	a6,9(s10)
     27c:	ee043803          	ld	a6,-288(s0)
     280:	ffe80813          	addi	a6,a6,-2
     284:	010d0523          	sb	a6,10(s10)
     288:	ee843803          	ld	a6,-280(s0)
     28c:	ffe80813          	addi	a6,a6,-2
     290:	010d05a3          	sb	a6,11(s10)
     294:	ef043803          	ld	a6,-272(s0)
     298:	ffe80813          	addi	a6,a6,-2
     29c:	010d0623          	sb	a6,12(s10)
     2a0:	ef843803          	ld	a6,-264(s0)
     2a4:	ffe80813          	addi	a6,a6,-2
     2a8:	010d06a3          	sb	a6,13(s10)
     2ac:	f0043803          	ld	a6,-256(s0)
     2b0:	ffe80813          	addi	a6,a6,-2
     2b4:	010d0723          	sb	a6,14(s10)
     2b8:	f0843803          	ld	a6,-248(s0)
     2bc:	ffe80813          	addi	a6,a6,-2
     2c0:	010d07a3          	sb	a6,15(s10)
     2c4:	f1043803          	ld	a6,-240(s0)
     2c8:	ffe80813          	addi	a6,a6,-2
     2cc:	010d0823          	sb	a6,16(s10)
     2d0:	f1843803          	ld	a6,-232(s0)
     2d4:	ffe80813          	addi	a6,a6,-2
     2d8:	010d08a3          	sb	a6,17(s10)
     2dc:	f2043803          	ld	a6,-224(s0)
     2e0:	ffe80813          	addi	a6,a6,-2
     2e4:	010d0923          	sb	a6,18(s10)
     2e8:	f2843803          	ld	a6,-216(s0)
     2ec:	ffe80813          	addi	a6,a6,-2
     2f0:	010d09a3          	sb	a6,19(s10)
     2f4:	f3043803          	ld	a6,-208(s0)
     2f8:	ffe80813          	addi	a6,a6,-2
     2fc:	010d0a23          	sb	a6,20(s10)
     300:	f3843803          	ld	a6,-200(s0)
     304:	ffe80813          	addi	a6,a6,-2
     308:	010d0aa3          	sb	a6,21(s10)
     30c:	f4043803          	ld	a6,-192(s0)
     310:	ffe80813          	addi	a6,a6,-2
     314:	010d0b23          	sb	a6,22(s10)
     318:	f4843803          	ld	a6,-184(s0)
     31c:	ffe80813          	addi	a6,a6,-2
     320:	010d0ba3          	sb	a6,23(s10)
     324:	f5043803          	ld	a6,-176(s0)
     328:	ffe80813          	addi	a6,a6,-2
     32c:	010d0c23          	sb	a6,24(s10)
     330:	f5843803          	ld	a6,-168(s0)
     334:	ffe80813          	addi	a6,a6,-2
     338:	010d0ca3          	sb	a6,25(s10)
     33c:	f6043803          	ld	a6,-160(s0)
     340:	ffe80813          	addi	a6,a6,-2
     344:	010d0d23          	sb	a6,26(s10)
     348:	f6843803          	ld	a6,-152(s0)
     34c:	ffe80813          	addi	a6,a6,-2
     350:	010d0da3          	sb	a6,27(s10)
     354:	f7043803          	ld	a6,-144(s0)
     358:	ffe80813          	addi	a6,a6,-2
     35c:	010d0e23          	sb	a6,28(s10)
     360:	f7843803          	ld	a6,-136(s0)
     364:	ffe80813          	addi	a6,a6,-2
     368:	010d0ea3          	sb	a6,29(s10)
     36c:	f8043803          	ld	a6,-128(s0)
     370:	ffe80813          	addi	a6,a6,-2
     374:	010d0f23          	sb	a6,30(s10)
     378:	f8843803          	ld	a6,-120(s0)
     37c:	ffe80813          	addi	a6,a6,-2
     380:	010d0fa3          	sb	a6,31(s10)
     384:	d4043d03          	ld	s10,-704(s0)
     388:	ffed0d13          	addi	s10,s10,-2
     38c:	00001837          	lui	a6,0x1
     390:	41040833          	sub	a6,s0,a6
     394:	b7083803          	ld	a6,-1168(a6) # b70 <.LBB52_3+0x98c>
     398:	00180833          	add	a6,a6,ra
     39c:	01a801a3          	sb	s10,3(a6)
     3a0:	d5043d03          	ld	s10,-688(s0)
     3a4:	ffed0d13          	addi	s10,s10,-2
     3a8:	01a80123          	sb	s10,2(a6)
     3ac:	d6043d03          	ld	s10,-672(s0)
     3b0:	ffed0d13          	addi	s10,s10,-2
     3b4:	01a800a3          	sb	s10,1(a6)
     3b8:	d7043d03          	ld	s10,-656(s0)
     3bc:	ffed0d13          	addi	s10,s10,-2
     3c0:	01a80023          	sb	s10,0(a6)
     3c4:	d8043d03          	ld	s10,-640(s0)
     3c8:	ffed0d13          	addi	s10,s10,-2
     3cc:	01a80223          	sb	s10,4(a6)
     3d0:	d9043d03          	ld	s10,-624(s0)
     3d4:	ffed0d13          	addi	s10,s10,-2
     3d8:	01a802a3          	sb	s10,5(a6)
     3dc:	da043d03          	ld	s10,-608(s0)
     3e0:	ffed0d13          	addi	s10,s10,-2
     3e4:	01a80323          	sb	s10,6(a6)
     3e8:	db043d03          	ld	s10,-592(s0)
     3ec:	ffed0d13          	addi	s10,s10,-2
     3f0:	01a803a3          	sb	s10,7(a6)
     3f4:	dc043d03          	ld	s10,-576(s0)
     3f8:	ffed0d13          	addi	s10,s10,-2
     3fc:	01a80423          	sb	s10,8(a6)
     400:	dd043d03          	ld	s10,-560(s0)
     404:	ffed0d13          	addi	s10,s10,-2
     408:	01a804a3          	sb	s10,9(a6)
     40c:	de043d03          	ld	s10,-544(s0)
     410:	ffed0d13          	addi	s10,s10,-2
     414:	01a80523          	sb	s10,10(a6)
     418:	de843d03          	ld	s10,-536(s0)
     41c:	ffed0d13          	addi	s10,s10,-2
     420:	01a805a3          	sb	s10,11(a6)
     424:	df043d03          	ld	s10,-528(s0)
     428:	ffed0d13          	addi	s10,s10,-2
     42c:	01a80623          	sb	s10,12(a6)
     430:	df843d03          	ld	s10,-520(s0)
     434:	ffed0d13          	addi	s10,s10,-2
     438:	01a806a3          	sb	s10,13(a6)
     43c:	e0043d03          	ld	s10,-512(s0)
     440:	ffed0d13          	addi	s10,s10,-2
     444:	01a80723          	sb	s10,14(a6)
     448:	e0843d03          	ld	s10,-504(s0)
     44c:	ffed0d13          	addi	s10,s10,-2
     450:	01a807a3          	sb	s10,15(a6)
     454:	e1043d03          	ld	s10,-496(s0)
     458:	ffed0d13          	addi	s10,s10,-2
     45c:	01a80823          	sb	s10,16(a6)
     460:	e1843d03          	ld	s10,-488(s0)
     464:	ffed0d13          	addi	s10,s10,-2
     468:	01a808a3          	sb	s10,17(a6)
     46c:	e2043d03          	ld	s10,-480(s0)
     470:	ffed0d13          	addi	s10,s10,-2
     474:	01a80923          	sb	s10,18(a6)
     478:	e2843d03          	ld	s10,-472(s0)
     47c:	ffed0d13          	addi	s10,s10,-2
     480:	01a809a3          	sb	s10,19(a6)
     484:	e3043d03          	ld	s10,-464(s0)
     488:	ffed0d13          	addi	s10,s10,-2
     48c:	01a80a23          	sb	s10,20(a6)
     490:	e3843d03          	ld	s10,-456(s0)
     494:	ffed0d13          	addi	s10,s10,-2
     498:	01a80aa3          	sb	s10,21(a6)
     49c:	e4043d03          	ld	s10,-448(s0)
     4a0:	ffed0d13          	addi	s10,s10,-2
     4a4:	01a80b23          	sb	s10,22(a6)
     4a8:	e5043d03          	ld	s10,-432(s0)
     4ac:	ffed0d13          	addi	s10,s10,-2
     4b0:	01a80ba3          	sb	s10,23(a6)
     4b4:	e6843d03          	ld	s10,-408(s0)
     4b8:	ffed0d13          	addi	s10,s10,-2
     4bc:	01a80c23          	sb	s10,24(a6)
     4c0:	e7843d03          	ld	s10,-392(s0)
     4c4:	ffed0d13          	addi	s10,s10,-2
     4c8:	01a80ca3          	sb	s10,25(a6)
     4cc:	e8843d03          	ld	s10,-376(s0)
     4d0:	ffed0d13          	addi	s10,s10,-2
     4d4:	01a80d23          	sb	s10,26(a6)
     4d8:	e9843d03          	ld	s10,-360(s0)
     4dc:	ffed0d13          	addi	s10,s10,-2
     4e0:	01a80da3          	sb	s10,27(a6)
     4e4:	ea843d03          	ld	s10,-344(s0)
     4e8:	ffed0d13          	addi	s10,s10,-2
     4ec:	01a80e23          	sb	s10,28(a6)
     4f0:	eb843d03          	ld	s10,-328(s0)
     4f4:	ffed0d13          	addi	s10,s10,-2
     4f8:	01a80ea3          	sb	s10,29(a6)
     4fc:	ec843d03          	ld	s10,-312(s0)
     500:	ffed0d13          	addi	s10,s10,-2
     504:	01a80f23          	sb	s10,30(a6)
     508:	ed843d03          	ld	s10,-296(s0)
     50c:	ffed0d13          	addi	s10,s10,-2
     510:	01a80fa3          	sb	s10,31(a6)
     514:	c4043d03          	ld	s10,-960(s0)
     518:	ffed0d13          	addi	s10,s10,-2
     51c:	00001837          	lui	a6,0x1
     520:	41040833          	sub	a6,s0,a6
     524:	b6883803          	ld	a6,-1176(a6) # b68 <.LBB52_3+0x984>
     528:	00180833          	add	a6,a6,ra
     52c:	01a801a3          	sb	s10,3(a6)
     530:	c5043d03          	ld	s10,-944(s0)
     534:	ffed0d13          	addi	s10,s10,-2
     538:	01a80123          	sb	s10,2(a6)
     53c:	c6043d03          	ld	s10,-928(s0)
     540:	ffed0d13          	addi	s10,s10,-2
     544:	01a800a3          	sb	s10,1(a6)
     548:	c7043d03          	ld	s10,-912(s0)
     54c:	ffed0d13          	addi	s10,s10,-2
     550:	01a80023          	sb	s10,0(a6)
     554:	c8043d03          	ld	s10,-896(s0)
     558:	ffed0d13          	addi	s10,s10,-2
     55c:	01a80223          	sb	s10,4(a6)
     560:	c9043d03          	ld	s10,-880(s0)
     564:	ffed0d13          	addi	s10,s10,-2
     568:	01a802a3          	sb	s10,5(a6)
     56c:	ca043d03          	ld	s10,-864(s0)
     570:	ffed0d13          	addi	s10,s10,-2
     574:	01a80323          	sb	s10,6(a6)
     578:	cb043d03          	ld	s10,-848(s0)
     57c:	ffed0d13          	addi	s10,s10,-2
     580:	01a803a3          	sb	s10,7(a6)
     584:	cc043d03          	ld	s10,-832(s0)
     588:	ffed0d13          	addi	s10,s10,-2
     58c:	01a80423          	sb	s10,8(a6)
     590:	cd043d03          	ld	s10,-816(s0)
     594:	ffed0d13          	addi	s10,s10,-2
     598:	01a804a3          	sb	s10,9(a6)
     59c:	ce043d03          	ld	s10,-800(s0)
     5a0:	ffed0d13          	addi	s10,s10,-2
     5a4:	01a80523          	sb	s10,10(a6)
     5a8:	ce843d03          	ld	s10,-792(s0)
     5ac:	ffed0d13          	addi	s10,s10,-2
     5b0:	01a805a3          	sb	s10,11(a6)
     5b4:	cf043d03          	ld	s10,-784(s0)
     5b8:	ffed0d13          	addi	s10,s10,-2
     5bc:	01a80623          	sb	s10,12(a6)
     5c0:	cf843d03          	ld	s10,-776(s0)
     5c4:	ffed0d13          	addi	s10,s10,-2
     5c8:	01a806a3          	sb	s10,13(a6)
     5cc:	d0043d03          	ld	s10,-768(s0)
     5d0:	ffed0d13          	addi	s10,s10,-2
     5d4:	01a80723          	sb	s10,14(a6)
     5d8:	d0843d03          	ld	s10,-760(s0)
     5dc:	ffed0d13          	addi	s10,s10,-2
     5e0:	01a807a3          	sb	s10,15(a6)
     5e4:	d1043d03          	ld	s10,-752(s0)
     5e8:	ffed0d13          	addi	s10,s10,-2
     5ec:	01a80823          	sb	s10,16(a6)
     5f0:	d1843d03          	ld	s10,-744(s0)
     5f4:	ffed0d13          	addi	s10,s10,-2
     5f8:	01a808a3          	sb	s10,17(a6)
     5fc:	d2043d03          	ld	s10,-736(s0)
     600:	ffed0d13          	addi	s10,s10,-2
     604:	01a80923          	sb	s10,18(a6)
     608:	d2843d03          	ld	s10,-728(s0)
     60c:	ffed0d13          	addi	s10,s10,-2
     610:	01a809a3          	sb	s10,19(a6)
     614:	d3043d03          	ld	s10,-720(s0)
     618:	ffed0d13          	addi	s10,s10,-2
     61c:	01a80a23          	sb	s10,20(a6)
     620:	d3843d03          	ld	s10,-712(s0)
     624:	ffed0d13          	addi	s10,s10,-2
     628:	01a80aa3          	sb	s10,21(a6)
     62c:	d4843d03          	ld	s10,-696(s0)
     630:	ffed0d13          	addi	s10,s10,-2
     634:	01a80b23          	sb	s10,22(a6)
     638:	d5843d03          	ld	s10,-680(s0)
     63c:	ffed0d13          	addi	s10,s10,-2
     640:	01a80ba3          	sb	s10,23(a6)
     644:	d6843d03          	ld	s10,-664(s0)
     648:	ffed0d13          	addi	s10,s10,-2
     64c:	01a80c23          	sb	s10,24(a6)
     650:	d7843d03          	ld	s10,-648(s0)
     654:	ffed0d13          	addi	s10,s10,-2
     658:	01a80ca3          	sb	s10,25(a6)
     65c:	d8843d03          	ld	s10,-632(s0)
     660:	ffed0d13          	addi	s10,s10,-2
     664:	01a80d23          	sb	s10,26(a6)
     668:	d9843d03          	ld	s10,-616(s0)
     66c:	ffed0d13          	addi	s10,s10,-2
     670:	01a80da3          	sb	s10,27(a6)
     674:	da843d03          	ld	s10,-600(s0)
     678:	ffed0d13          	addi	s10,s10,-2
     67c:	01a80e23          	sb	s10,28(a6)
     680:	db843d03          	ld	s10,-584(s0)
     684:	ffed0d13          	addi	s10,s10,-2
     688:	01a80ea3          	sb	s10,29(a6)
     68c:	dc843d03          	ld	s10,-568(s0)
     690:	ffed0d13          	addi	s10,s10,-2
     694:	01a80f23          	sb	s10,30(a6)
     698:	dd843d03          	ld	s10,-552(s0)
     69c:	ffed0d13          	addi	s10,s10,-2
     6a0:	01a80fa3          	sb	s10,31(a6)
     6a4:	b4043d03          	ld	s10,-1216(s0)
     6a8:	ffed0d13          	addi	s10,s10,-2
     6ac:	00001837          	lui	a6,0x1
     6b0:	41040833          	sub	a6,s0,a6
     6b4:	b6083803          	ld	a6,-1184(a6) # b60 <.LBB52_3+0x97c>
     6b8:	00180833          	add	a6,a6,ra
     6bc:	01a801a3          	sb	s10,3(a6)
     6c0:	b5043d03          	ld	s10,-1200(s0)
     6c4:	ffed0d13          	addi	s10,s10,-2
     6c8:	01a80123          	sb	s10,2(a6)
     6cc:	b6043d03          	ld	s10,-1184(s0)
     6d0:	ffed0d13          	addi	s10,s10,-2
     6d4:	01a800a3          	sb	s10,1(a6)
     6d8:	b7043d03          	ld	s10,-1168(s0)
     6dc:	ffed0d13          	addi	s10,s10,-2
     6e0:	01a80023          	sb	s10,0(a6)
     6e4:	b8043d03          	ld	s10,-1152(s0)
     6e8:	ffed0d13          	addi	s10,s10,-2
     6ec:	01a80223          	sb	s10,4(a6)
     6f0:	b9043d03          	ld	s10,-1136(s0)
     6f4:	ffed0d13          	addi	s10,s10,-2
     6f8:	01a802a3          	sb	s10,5(a6)
     6fc:	ba043d03          	ld	s10,-1120(s0)
     700:	ffed0d13          	addi	s10,s10,-2
     704:	01a80323          	sb	s10,6(a6)
     708:	bb043d03          	ld	s10,-1104(s0)
     70c:	ffed0d13          	addi	s10,s10,-2
     710:	01a803a3          	sb	s10,7(a6)
     714:	bc043d03          	ld	s10,-1088(s0)
     718:	ffed0d13          	addi	s10,s10,-2
     71c:	01a80423          	sb	s10,8(a6)
     720:	bd043d03          	ld	s10,-1072(s0)
     724:	ffed0d13          	addi	s10,s10,-2
     728:	01a804a3          	sb	s10,9(a6)
     72c:	be043d03          	ld	s10,-1056(s0)
     730:	ffed0d13          	addi	s10,s10,-2
     734:	01a80523          	sb	s10,10(a6)
     738:	be843d03          	ld	s10,-1048(s0)
     73c:	ffed0d13          	addi	s10,s10,-2
     740:	01a805a3          	sb	s10,11(a6)
     744:	bf043d03          	ld	s10,-1040(s0)
     748:	ffed0d13          	addi	s10,s10,-2
     74c:	01a80623          	sb	s10,12(a6)
     750:	bf843d03          	ld	s10,-1032(s0)
     754:	ffed0d13          	addi	s10,s10,-2
     758:	01a806a3          	sb	s10,13(a6)
     75c:	c0043d03          	ld	s10,-1024(s0)
     760:	ffed0d13          	addi	s10,s10,-2
     764:	01a80723          	sb	s10,14(a6)
     768:	c0843d03          	ld	s10,-1016(s0)
     76c:	ffed0d13          	addi	s10,s10,-2
     770:	01a807a3          	sb	s10,15(a6)
     774:	c1043d03          	ld	s10,-1008(s0)
     778:	ffed0d13          	addi	s10,s10,-2
     77c:	01a80823          	sb	s10,16(a6)
     780:	c1843d03          	ld	s10,-1000(s0)
     784:	ffed0d13          	addi	s10,s10,-2
     788:	01a808a3          	sb	s10,17(a6)
     78c:	c2043d03          	ld	s10,-992(s0)
     790:	ffed0d13          	addi	s10,s10,-2
     794:	01a80923          	sb	s10,18(a6)
     798:	c2843d03          	ld	s10,-984(s0)
     79c:	ffed0d13          	addi	s10,s10,-2
     7a0:	01a809a3          	sb	s10,19(a6)
     7a4:	c3043d03          	ld	s10,-976(s0)
     7a8:	ffed0d13          	addi	s10,s10,-2
     7ac:	01a80a23          	sb	s10,20(a6)
     7b0:	c3843d03          	ld	s10,-968(s0)
     7b4:	ffed0d13          	addi	s10,s10,-2
     7b8:	01a80aa3          	sb	s10,21(a6)
     7bc:	c4843d03          	ld	s10,-952(s0)
     7c0:	ffed0d13          	addi	s10,s10,-2
     7c4:	01a80b23          	sb	s10,22(a6)
     7c8:	c5843d03          	ld	s10,-936(s0)
     7cc:	ffed0d13          	addi	s10,s10,-2
     7d0:	01a80ba3          	sb	s10,23(a6)
     7d4:	c6843d03          	ld	s10,-920(s0)
     7d8:	ffed0d13          	addi	s10,s10,-2
     7dc:	01a80c23          	sb	s10,24(a6)
     7e0:	c7843d03          	ld	s10,-904(s0)
     7e4:	ffed0d13          	addi	s10,s10,-2
     7e8:	01a80ca3          	sb	s10,25(a6)
     7ec:	c8843d03          	ld	s10,-888(s0)
     7f0:	ffed0d13          	addi	s10,s10,-2
     7f4:	01a80d23          	sb	s10,26(a6)
     7f8:	c9843d03          	ld	s10,-872(s0)
     7fc:	ffed0d13          	addi	s10,s10,-2
     800:	01a80da3          	sb	s10,27(a6)
     804:	ca843d03          	ld	s10,-856(s0)
     808:	ffed0d13          	addi	s10,s10,-2
     80c:	01a80e23          	sb	s10,28(a6)
     810:	cb843d03          	ld	s10,-840(s0)
     814:	ffed0d13          	addi	s10,s10,-2
     818:	01a80ea3          	sb	s10,29(a6)
     81c:	cc843d03          	ld	s10,-824(s0)
     820:	ffed0d13          	addi	s10,s10,-2
     824:	01a80f23          	sb	s10,30(a6)
     828:	cd843d03          	ld	s10,-808(s0)
     82c:	ffed0d13          	addi	s10,s10,-2
     830:	01a80fa3          	sb	s10,31(a6)
     834:	a4043d03          	ld	s10,-1472(s0)
     838:	ffed0d13          	addi	s10,s10,-2
     83c:	00001837          	lui	a6,0x1
     840:	41040833          	sub	a6,s0,a6
     844:	b5883803          	ld	a6,-1192(a6) # b58 <.LBB52_3+0x974>
     848:	00180833          	add	a6,a6,ra
     84c:	01a801a3          	sb	s10,3(a6)
     850:	a5043d03          	ld	s10,-1456(s0)
     854:	ffed0d13          	addi	s10,s10,-2
     858:	01a80123          	sb	s10,2(a6)
     85c:	a6043d03          	ld	s10,-1440(s0)
     860:	ffed0d13          	addi	s10,s10,-2
     864:	01a800a3          	sb	s10,1(a6)
     868:	a7043d03          	ld	s10,-1424(s0)
     86c:	ffed0d13          	addi	s10,s10,-2
     870:	01a80023          	sb	s10,0(a6)
     874:	a8043d03          	ld	s10,-1408(s0)
     878:	ffed0d13          	addi	s10,s10,-2
     87c:	01a80223          	sb	s10,4(a6)
     880:	a9043d03          	ld	s10,-1392(s0)
     884:	ffed0d13          	addi	s10,s10,-2
     888:	01a802a3          	sb	s10,5(a6)
     88c:	aa043d03          	ld	s10,-1376(s0)
     890:	ffed0d13          	addi	s10,s10,-2
     894:	01a80323          	sb	s10,6(a6)
     898:	ab043d03          	ld	s10,-1360(s0)
     89c:	ffed0d13          	addi	s10,s10,-2
     8a0:	01a803a3          	sb	s10,7(a6)
     8a4:	ac043d03          	ld	s10,-1344(s0)
     8a8:	ffed0d13          	addi	s10,s10,-2
     8ac:	01a80423          	sb	s10,8(a6)
     8b0:	ad043d03          	ld	s10,-1328(s0)
     8b4:	ffed0d13          	addi	s10,s10,-2
     8b8:	01a804a3          	sb	s10,9(a6)
     8bc:	ae043d03          	ld	s10,-1312(s0)
     8c0:	ffed0d13          	addi	s10,s10,-2
     8c4:	01a80523          	sb	s10,10(a6)
     8c8:	ae843d03          	ld	s10,-1304(s0)
     8cc:	ffed0d13          	addi	s10,s10,-2
     8d0:	01a805a3          	sb	s10,11(a6)
     8d4:	af043d03          	ld	s10,-1296(s0)
     8d8:	ffed0d13          	addi	s10,s10,-2
     8dc:	01a80623          	sb	s10,12(a6)
     8e0:	af843d03          	ld	s10,-1288(s0)
     8e4:	ffed0d13          	addi	s10,s10,-2
     8e8:	01a806a3          	sb	s10,13(a6)
     8ec:	b0043d03          	ld	s10,-1280(s0)
     8f0:	ffed0d13          	addi	s10,s10,-2
     8f4:	01a80723          	sb	s10,14(a6)
     8f8:	b0843d03          	ld	s10,-1272(s0)
     8fc:	ffed0d13          	addi	s10,s10,-2
     900:	01a807a3          	sb	s10,15(a6)
     904:	b1043d03          	ld	s10,-1264(s0)
     908:	ffed0d13          	addi	s10,s10,-2
     90c:	01a80823          	sb	s10,16(a6)
     910:	b1843d03          	ld	s10,-1256(s0)
     914:	ffed0d13          	addi	s10,s10,-2
     918:	01a808a3          	sb	s10,17(a6)
     91c:	b2043d03          	ld	s10,-1248(s0)
     920:	ffed0d13          	addi	s10,s10,-2
     924:	01a80923          	sb	s10,18(a6)
     928:	b2843d03          	ld	s10,-1240(s0)
     92c:	ffed0d13          	addi	s10,s10,-2
     930:	01a809a3          	sb	s10,19(a6)
     934:	b3043d03          	ld	s10,-1232(s0)
     938:	ffed0d13          	addi	s10,s10,-2
     93c:	01a80a23          	sb	s10,20(a6)
     940:	b3843d03          	ld	s10,-1224(s0)
     944:	ffed0d13          	addi	s10,s10,-2
     948:	01a80aa3          	sb	s10,21(a6)
     94c:	b4843d03          	ld	s10,-1208(s0)
     950:	ffed0d13          	addi	s10,s10,-2
     954:	01a80b23          	sb	s10,22(a6)
     958:	b5843d03          	ld	s10,-1192(s0)
     95c:	ffed0d13          	addi	s10,s10,-2
     960:	01a80ba3          	sb	s10,23(a6)
     964:	b6843d03          	ld	s10,-1176(s0)
     968:	ffed0d13          	addi	s10,s10,-2
     96c:	01a80c23          	sb	s10,24(a6)
     970:	b7843d03          	ld	s10,-1160(s0)
     974:	ffed0d13          	addi	s10,s10,-2
     978:	01a80ca3          	sb	s10,25(a6)
     97c:	b8843d03          	ld	s10,-1144(s0)
     980:	ffed0d13          	addi	s10,s10,-2
     984:	01a80d23          	sb	s10,26(a6)
     988:	b9843d03          	ld	s10,-1128(s0)
     98c:	ffed0d13          	addi	s10,s10,-2
     990:	01a80da3          	sb	s10,27(a6)
     994:	ba843d03          	ld	s10,-1112(s0)
     998:	ffed0d13          	addi	s10,s10,-2
     99c:	01a80e23          	sb	s10,28(a6)
     9a0:	bb843d03          	ld	s10,-1096(s0)
     9a4:	ffed0d13          	addi	s10,s10,-2
     9a8:	01a80ea3          	sb	s10,29(a6)
     9ac:	bc843d03          	ld	s10,-1080(s0)
     9b0:	ffed0d13          	addi	s10,s10,-2
     9b4:	01a80f23          	sb	s10,30(a6)
     9b8:	bd843d03          	ld	s10,-1064(s0)
     9bc:	ffed0d13          	addi	s10,s10,-2
     9c0:	01a80fa3          	sb	s10,31(a6)
     9c4:	94043d03          	ld	s10,-1728(s0)
     9c8:	ffed0d13          	addi	s10,s10,-2
     9cc:	00001837          	lui	a6,0x1
     9d0:	41040833          	sub	a6,s0,a6
     9d4:	b5083803          	ld	a6,-1200(a6) # b50 <.LBB52_3+0x96c>
     9d8:	00180833          	add	a6,a6,ra
     9dc:	01a801a3          	sb	s10,3(a6)
     9e0:	95043d03          	ld	s10,-1712(s0)
     9e4:	ffed0d13          	addi	s10,s10,-2
     9e8:	01a80123          	sb	s10,2(a6)
     9ec:	96043d03          	ld	s10,-1696(s0)
     9f0:	ffed0d13          	addi	s10,s10,-2
     9f4:	01a800a3          	sb	s10,1(a6)
     9f8:	97043d03          	ld	s10,-1680(s0)
     9fc:	ffed0d13          	addi	s10,s10,-2
     a00:	01a80023          	sb	s10,0(a6)
     a04:	98043d03          	ld	s10,-1664(s0)
     a08:	ffed0d13          	addi	s10,s10,-2
     a0c:	01a80223          	sb	s10,4(a6)
     a10:	99043d03          	ld	s10,-1648(s0)
     a14:	ffed0d13          	addi	s10,s10,-2
     a18:	01a802a3          	sb	s10,5(a6)
     a1c:	9a043d03          	ld	s10,-1632(s0)
     a20:	ffed0d13          	addi	s10,s10,-2
     a24:	01a80323          	sb	s10,6(a6)
     a28:	9b043d03          	ld	s10,-1616(s0)
     a2c:	ffed0d13          	addi	s10,s10,-2
     a30:	01a803a3          	sb	s10,7(a6)
     a34:	9c043d03          	ld	s10,-1600(s0)
     a38:	ffed0d13          	addi	s10,s10,-2
     a3c:	01a80423          	sb	s10,8(a6)
     a40:	9d043d03          	ld	s10,-1584(s0)
     a44:	ffed0d13          	addi	s10,s10,-2
     a48:	01a804a3          	sb	s10,9(a6)
     a4c:	9e043d03          	ld	s10,-1568(s0)
     a50:	ffed0d13          	addi	s10,s10,-2
     a54:	01a80523          	sb	s10,10(a6)
     a58:	9e843d03          	ld	s10,-1560(s0)
     a5c:	ffed0d13          	addi	s10,s10,-2
     a60:	01a805a3          	sb	s10,11(a6)
     a64:	9f043d03          	ld	s10,-1552(s0)
     a68:	ffed0d13          	addi	s10,s10,-2
     a6c:	01a80623          	sb	s10,12(a6)
     a70:	9f843d03          	ld	s10,-1544(s0)
     a74:	ffed0d13          	addi	s10,s10,-2
     a78:	01a806a3          	sb	s10,13(a6)
     a7c:	a0043d03          	ld	s10,-1536(s0)
     a80:	ffed0d13          	addi	s10,s10,-2
     a84:	01a80723          	sb	s10,14(a6)
     a88:	a0843d03          	ld	s10,-1528(s0)
     a8c:	ffed0d13          	addi	s10,s10,-2
     a90:	01a807a3          	sb	s10,15(a6)
     a94:	a1043d03          	ld	s10,-1520(s0)
     a98:	ffed0d13          	addi	s10,s10,-2
     a9c:	01a80823          	sb	s10,16(a6)
     aa0:	a1843d03          	ld	s10,-1512(s0)
     aa4:	ffed0d13          	addi	s10,s10,-2
     aa8:	01a808a3          	sb	s10,17(a6)
     aac:	a2043d03          	ld	s10,-1504(s0)
     ab0:	ffed0d13          	addi	s10,s10,-2
     ab4:	01a80923          	sb	s10,18(a6)
     ab8:	a2843d03          	ld	s10,-1496(s0)
     abc:	ffed0d13          	addi	s10,s10,-2
     ac0:	01a809a3          	sb	s10,19(a6)
     ac4:	a3043d03          	ld	s10,-1488(s0)
     ac8:	ffed0d13          	addi	s10,s10,-2
     acc:	01a80a23          	sb	s10,20(a6)
     ad0:	a3843d03          	ld	s10,-1480(s0)
     ad4:	ffed0d13          	addi	s10,s10,-2
     ad8:	01a80aa3          	sb	s10,21(a6)
     adc:	a4843d03          	ld	s10,-1464(s0)
     ae0:	ffed0d13          	addi	s10,s10,-2
     ae4:	01a80b23          	sb	s10,22(a6)
     ae8:	a5843d03          	ld	s10,-1448(s0)
     aec:	ffed0d13          	addi	s10,s10,-2
     af0:	01a80ba3          	sb	s10,23(a6)
     af4:	a6843d03          	ld	s10,-1432(s0)
     af8:	ffed0d13          	addi	s10,s10,-2
     afc:	01a80c23          	sb	s10,24(a6)
     b00:	a7843d03          	ld	s10,-1416(s0)
     b04:	ffed0d13          	addi	s10,s10,-2
     b08:	01a80ca3          	sb	s10,25(a6)
     b0c:	a8843d03          	ld	s10,-1400(s0)
     b10:	ffed0d13          	addi	s10,s10,-2
     b14:	01a80d23          	sb	s10,26(a6)
     b18:	a9843d03          	ld	s10,-1384(s0)
     b1c:	ffed0d13          	addi	s10,s10,-2
     b20:	01a80da3          	sb	s10,27(a6)
     b24:	aa843d03          	ld	s10,-1368(s0)
     b28:	ffed0d13          	addi	s10,s10,-2
     b2c:	01a80e23          	sb	s10,28(a6)
     b30:	ab843d03          	ld	s10,-1352(s0)
     b34:	ffed0d13          	addi	s10,s10,-2
     b38:	01a80ea3          	sb	s10,29(a6)
     b3c:	ac843d03          	ld	s10,-1336(s0)
     b40:	ffed0d13          	addi	s10,s10,-2
     b44:	01a80f23          	sb	s10,30(a6)
     b48:	ad843d03          	ld	s10,-1320(s0)
     b4c:	ffed0d13          	addi	s10,s10,-2
     b50:	01a80fa3          	sb	s10,31(a6)
     b54:	ffe38393          	addi	t2,t2,-2
     b58:	00001837          	lui	a6,0x1
     b5c:	41040833          	sub	a6,s0,a6
     b60:	b4883803          	ld	a6,-1208(a6) # b48 <.LBB52_3+0x964>
     b64:	00180833          	add	a6,a6,ra
     b68:	007801a3          	sb	t2,3(a6)
     b6c:	ffed8d93          	addi	s11,s11,-2
     b70:	01b80123          	sb	s11,2(a6)
     b74:	86043383          	ld	t2,-1952(s0)
     b78:	ffe38393          	addi	t2,t2,-2
     b7c:	007800a3          	sb	t2,1(a6)
     b80:	87043383          	ld	t2,-1936(s0)
     b84:	ffe38393          	addi	t2,t2,-2
     b88:	00780023          	sb	t2,0(a6)
     b8c:	88043383          	ld	t2,-1920(s0)
     b90:	ffe38393          	addi	t2,t2,-2
     b94:	00780223          	sb	t2,4(a6)
     b98:	89043383          	ld	t2,-1904(s0)
     b9c:	ffe38393          	addi	t2,t2,-2
     ba0:	007802a3          	sb	t2,5(a6)
     ba4:	8a043383          	ld	t2,-1888(s0)
     ba8:	ffe38393          	addi	t2,t2,-2
     bac:	00780323          	sb	t2,6(a6)
     bb0:	8b043383          	ld	t2,-1872(s0)
     bb4:	ffe38393          	addi	t2,t2,-2
     bb8:	007803a3          	sb	t2,7(a6)
     bbc:	8c043383          	ld	t2,-1856(s0)
     bc0:	ffe38393          	addi	t2,t2,-2
     bc4:	00780423          	sb	t2,8(a6)
     bc8:	8d043383          	ld	t2,-1840(s0)
     bcc:	ffe38393          	addi	t2,t2,-2
     bd0:	007804a3          	sb	t2,9(a6)
     bd4:	8e043383          	ld	t2,-1824(s0)
     bd8:	ffe38393          	addi	t2,t2,-2
     bdc:	00780523          	sb	t2,10(a6)
     be0:	8e843383          	ld	t2,-1816(s0)
     be4:	ffe38393          	addi	t2,t2,-2
     be8:	007805a3          	sb	t2,11(a6)
     bec:	8f043383          	ld	t2,-1808(s0)
     bf0:	ffe38393          	addi	t2,t2,-2
     bf4:	00780623          	sb	t2,12(a6)
     bf8:	8f843383          	ld	t2,-1800(s0)
     bfc:	ffe38393          	addi	t2,t2,-2
     c00:	007806a3          	sb	t2,13(a6)
     c04:	90043383          	ld	t2,-1792(s0)
     c08:	ffe38393          	addi	t2,t2,-2
     c0c:	00780723          	sb	t2,14(a6)
     c10:	90843383          	ld	t2,-1784(s0)
     c14:	ffe38393          	addi	t2,t2,-2
     c18:	007807a3          	sb	t2,15(a6)
     c1c:	91043383          	ld	t2,-1776(s0)
     c20:	ffe38393          	addi	t2,t2,-2
     c24:	00780823          	sb	t2,16(a6)
     c28:	91843383          	ld	t2,-1768(s0)
     c2c:	ffe38393          	addi	t2,t2,-2
     c30:	007808a3          	sb	t2,17(a6)
     c34:	92043383          	ld	t2,-1760(s0)
     c38:	ffe38393          	addi	t2,t2,-2
     c3c:	00780923          	sb	t2,18(a6)
     c40:	92843383          	ld	t2,-1752(s0)
     c44:	ffe38393          	addi	t2,t2,-2
     c48:	007809a3          	sb	t2,19(a6)
     c4c:	93043383          	ld	t2,-1744(s0)
     c50:	ffe38393          	addi	t2,t2,-2
     c54:	00780a23          	sb	t2,20(a6)
     c58:	93843383          	ld	t2,-1736(s0)
     c5c:	ffe38393          	addi	t2,t2,-2
     c60:	00780aa3          	sb	t2,21(a6)
     c64:	94843383          	ld	t2,-1720(s0)
     c68:	ffe38393          	addi	t2,t2,-2
     c6c:	00780b23          	sb	t2,22(a6)
     c70:	95843383          	ld	t2,-1704(s0)
     c74:	ffe38393          	addi	t2,t2,-2
     c78:	00780ba3          	sb	t2,23(a6)
     c7c:	96843383          	ld	t2,-1688(s0)
     c80:	ffe38393          	addi	t2,t2,-2
     c84:	00780c23          	sb	t2,24(a6)
     c88:	97843383          	ld	t2,-1672(s0)
     c8c:	ffe38393          	addi	t2,t2,-2
     c90:	00780ca3          	sb	t2,25(a6)
     c94:	98843383          	ld	t2,-1656(s0)
     c98:	ffe38393          	addi	t2,t2,-2
     c9c:	00780d23          	sb	t2,26(a6)
     ca0:	99843383          	ld	t2,-1640(s0)
     ca4:	ffe38393          	addi	t2,t2,-2
     ca8:	00780da3          	sb	t2,27(a6)
     cac:	9a843383          	ld	t2,-1624(s0)
     cb0:	ffe38393          	addi	t2,t2,-2
     cb4:	00780e23          	sb	t2,28(a6)
     cb8:	9b843383          	ld	t2,-1608(s0)
     cbc:	ffe38393          	addi	t2,t2,-2
     cc0:	00780ea3          	sb	t2,29(a6)
     cc4:	9c843383          	ld	t2,-1592(s0)
     cc8:	ffe38393          	addi	t2,t2,-2
     ccc:	00780f23          	sb	t2,30(a6)
     cd0:	9d843383          	ld	t2,-1576(s0)
     cd4:	ffe38393          	addi	t2,t2,-2
     cd8:	00780fa3          	sb	t2,31(a6)
     cdc:	ffee8e93          	addi	t4,t4,-2
     ce0:	00001837          	lui	a6,0x1
     ce4:	41040833          	sub	a6,s0,a6
     ce8:	b4083803          	ld	a6,-1216(a6) # b40 <.LBB52_3+0x95c>
     cec:	00180833          	add	a6,a6,ra
     cf0:	01d801a3          	sb	t4,3(a6)
     cf4:	ffec8c93          	addi	s9,s9,-2
     cf8:	01980123          	sb	s9,2(a6)
     cfc:	ffeb8b93          	addi	s7,s7,-2
     d00:	017800a3          	sb	s7,1(a6)
     d04:	ffe70713          	addi	a4,a4,-2
     d08:	00e80023          	sb	a4,0(a6)
     d0c:	ffef0f13          	addi	t5,t5,-2
     d10:	01e80223          	sb	t5,4(a6)
     d14:	ffe78793          	addi	a5,a5,-2
     d18:	00f802a3          	sb	a5,5(a6)
     d1c:	ffeb0b13          	addi	s6,s6,-2
     d20:	01680323          	sb	s6,6(a6)
     d24:	ffea8a93          	addi	s5,s5,-2
     d28:	015803a3          	sb	s5,7(a6)
     d2c:	ffea0a13          	addi	s4,s4,-2
     d30:	01480423          	sb	s4,8(a6)
     d34:	ffe98993          	addi	s3,s3,-2
     d38:	013804a3          	sb	s3,9(a6)
     d3c:	ffe90913          	addi	s2,s2,-2
     d40:	01280523          	sb	s2,10(a6)
     d44:	ffe48493          	addi	s1,s1,-2
     d48:	009805a3          	sb	s1,11(a6)
     d4c:	ffef8f93          	addi	t6,t6,-2
     d50:	01f80623          	sb	t6,12(a6)
     d54:	ffe60613          	addi	a2,a2,-2
     d58:	00c806a3          	sb	a2,13(a6)
     d5c:	ffe58593          	addi	a1,a1,-2
     d60:	00b80723          	sb	a1,14(a6)
     d64:	ffee0e13          	addi	t3,t3,-2
     d68:	01c807a3          	sb	t3,15(a6)
     d6c:	ffe50513          	addi	a0,a0,-2
     d70:	00a80823          	sb	a0,16(a6)
     d74:	ffe68693          	addi	a3,a3,-2
     d78:	00d808a3          	sb	a3,17(a6)
     d7c:	ffe30313          	addi	t1,t1,-2
     d80:	00680923          	sb	t1,18(a6)
     d84:	ffe28293          	addi	t0,t0,-2
     d88:	005809a3          	sb	t0,19(a6)
     d8c:	ffec0c13          	addi	s8,s8,-2
     d90:	01880a23          	sb	s8,20(a6)
     d94:	ffe88893          	addi	a7,a7,-2
     d98:	01180aa3          	sb	a7,21(a6)
     d9c:	85043083          	ld	ra,-1968(s0)
     da0:	ffe08093          	addi	ra,ra,-2
     da4:	00180b23          	sb	ra,22(a6)
     da8:	85843503          	ld	a0,-1960(s0)
     dac:	ffe50513          	addi	a0,a0,-2
     db0:	00a80ba3          	sb	a0,23(a6)
     db4:	86843503          	ld	a0,-1944(s0)
     db8:	ffe50513          	addi	a0,a0,-2
     dbc:	00a80c23          	sb	a0,24(a6)
     dc0:	87843503          	ld	a0,-1928(s0)
     dc4:	ffe50513          	addi	a0,a0,-2
     dc8:	00a80ca3          	sb	a0,25(a6)
     dcc:	88843503          	ld	a0,-1912(s0)
     dd0:	ffe50513          	addi	a0,a0,-2
     dd4:	00a80d23          	sb	a0,26(a6)
     dd8:	89843503          	ld	a0,-1896(s0)
     ddc:	ffe50513          	addi	a0,a0,-2
     de0:	00a80da3          	sb	a0,27(a6)
     de4:	8a843503          	ld	a0,-1880(s0)
     de8:	ffe50513          	addi	a0,a0,-2
     dec:	00a80e23          	sb	a0,28(a6)
     df0:	8b843503          	ld	a0,-1864(s0)
     df4:	ffe50513          	addi	a0,a0,-2
     df8:	00a80ea3          	sb	a0,29(a6)
     dfc:	8c843503          	ld	a0,-1848(s0)
     e00:	ffe50513          	addi	a0,a0,-2
     e04:	00a80f23          	sb	a0,30(a6)
     e08:	8d843503          	ld	a0,-1832(s0)
     e0c:	ffe50513          	addi	a0,a0,-2
     e10:	00a80fa3          	sb	a0,31(a6)
     e14:	00001537          	lui	a0,0x1
     e18:	40a40533          	sub	a0,s0,a0
     e1c:	64853503          	ld	a0,1608(a0) # 1648 <.LBB52_5+0x270>
     e20:	00157513          	andi	a0,a0,1
     e24:	02000693          	li	a3,32
     e28:	00000593          	li	a1,0
     e2c:	aa050a63          	beqz	a0,e0 <.LBB52_1>

0000000000000e30 <.LBB52_4>:
     e30:	00001537          	lui	a0,0x1
     e34:	40a40533          	sub	a0,s0,a0
     e38:	64b53423          	sd	a1,1608(a0) # 1648 <.LBB52_5+0x270>
     e3c:	00001537          	lui	a0,0x1
     e40:	40a40533          	sub	a0,s0,a0
     e44:	b9053503          	ld	a0,-1136(a0) # b90 <.LBB52_3+0x9ac>
     e48:	000015b7          	lui	a1,0x1
     e4c:	40b405b3          	sub	a1,s0,a1
     e50:	64d5bc23          	sd	a3,1624(a1) # 1658 <.LBB52_5+0x280>
     e54:	00d507b3          	add	a5,a0,a3
     e58:	00003eb7          	lui	t4,0x3
     e5c:	00001537          	lui	a0,0x1
     e60:	40a40533          	sub	a0,s0,a0
     e64:	b9853f03          	ld	t5,-1128(a0) # b98 <.LBB52_3+0x9b4>
     e68:	00001537          	lui	a0,0x1
     e6c:	40a40533          	sub	a0,s0,a0
     e70:	6c053423          	sd	zero,1736(a0) # 16c8 <.LBB52_5+0x2f0>
     e74:	00001537          	lui	a0,0x1
     e78:	40a40533          	sub	a0,s0,a0
     e7c:	6a053823          	sd	zero,1712(a0) # 16b0 <.LBB52_5+0x2d8>
     e80:	00001537          	lui	a0,0x1
     e84:	40a40533          	sub	a0,s0,a0
     e88:	6a053423          	sd	zero,1704(a0) # 16a8 <.LBB52_5+0x2d0>
     e8c:	00001537          	lui	a0,0x1
     e90:	40a40533          	sub	a0,s0,a0
     e94:	6a053c23          	sd	zero,1720(a0) # 16b8 <.LBB52_5+0x2e0>
     e98:	00001537          	lui	a0,0x1
     e9c:	40a40533          	sub	a0,s0,a0
     ea0:	6c053823          	sd	zero,1744(a0) # 16d0 <.LBB52_5+0x2f8>
     ea4:	00001537          	lui	a0,0x1
     ea8:	40a40533          	sub	a0,s0,a0
     eac:	6c053023          	sd	zero,1728(a0) # 16c0 <.LBB52_5+0x2e8>
     eb0:	00001537          	lui	a0,0x1
     eb4:	40a40533          	sub	a0,s0,a0
     eb8:	6a053023          	sd	zero,1696(a0) # 16a0 <.LBB52_5+0x2c8>
     ebc:	00001537          	lui	a0,0x1
     ec0:	40a40533          	sub	a0,s0,a0
     ec4:	68053c23          	sd	zero,1688(a0) # 1698 <.LBB52_5+0x2c0>
     ec8:	00001537          	lui	a0,0x1
     ecc:	40a40533          	sub	a0,s0,a0
     ed0:	68053823          	sd	zero,1680(a0) # 1690 <.LBB52_5+0x2b8>
     ed4:	00001537          	lui	a0,0x1
     ed8:	40a40533          	sub	a0,s0,a0
     edc:	6c053c23          	sd	zero,1752(a0) # 16d8 <.LBB52_5+0x300>
     ee0:	00001537          	lui	a0,0x1
     ee4:	40a40533          	sub	a0,s0,a0
     ee8:	6e053023          	sd	zero,1760(a0) # 16e0 <.LBB52_5+0x308>
     eec:	00001537          	lui	a0,0x1
     ef0:	40a40533          	sub	a0,s0,a0
     ef4:	6e053423          	sd	zero,1768(a0) # 16e8 <.LBB52_5+0x310>
     ef8:	00001537          	lui	a0,0x1
     efc:	40a40533          	sub	a0,s0,a0
     f00:	6e053823          	sd	zero,1776(a0) # 16f0 <.LBB52_5+0x318>
     f04:	00001537          	lui	a0,0x1
     f08:	40a40533          	sub	a0,s0,a0
     f0c:	6e053c23          	sd	zero,1784(a0) # 16f8 <.LBB52_5+0x320>
     f10:	00001537          	lui	a0,0x1
     f14:	40a40533          	sub	a0,s0,a0
     f18:	70053023          	sd	zero,1792(a0) # 1700 <.LBB52_5+0x328>
     f1c:	00001537          	lui	a0,0x1
     f20:	40a40533          	sub	a0,s0,a0
     f24:	70053423          	sd	zero,1800(a0) # 1708 <.LBB52_5+0x330>
     f28:	00001537          	lui	a0,0x1
     f2c:	40a40533          	sub	a0,s0,a0
     f30:	70053823          	sd	zero,1808(a0) # 1710 <.LBB52_5+0x338>
     f34:	00001537          	lui	a0,0x1
     f38:	40a40533          	sub	a0,s0,a0
     f3c:	70053c23          	sd	zero,1816(a0) # 1718 <.LBB52_5+0x340>
     f40:	00001537          	lui	a0,0x1
     f44:	40a40533          	sub	a0,s0,a0
     f48:	72053023          	sd	zero,1824(a0) # 1720 <.LBB52_5+0x348>
     f4c:	00001537          	lui	a0,0x1
     f50:	40a40533          	sub	a0,s0,a0
     f54:	72053423          	sd	zero,1832(a0) # 1728 <.LBB52_5+0x350>
     f58:	00001537          	lui	a0,0x1
     f5c:	40a40533          	sub	a0,s0,a0
     f60:	72053823          	sd	zero,1840(a0) # 1730 <.LBB52_5+0x358>
     f64:	00001537          	lui	a0,0x1
     f68:	40a40533          	sub	a0,s0,a0
     f6c:	72053c23          	sd	zero,1848(a0) # 1738 <.LBB52_5+0x360>
     f70:	00001537          	lui	a0,0x1
     f74:	40a40533          	sub	a0,s0,a0
     f78:	74053023          	sd	zero,1856(a0) # 1740 <.LBB52_5+0x368>
     f7c:	00001537          	lui	a0,0x1
     f80:	40a40533          	sub	a0,s0,a0
     f84:	74053423          	sd	zero,1864(a0) # 1748 <.LBB52_5+0x370>
     f88:	00001537          	lui	a0,0x1
     f8c:	40a40533          	sub	a0,s0,a0
     f90:	74053823          	sd	zero,1872(a0) # 1750 <.LBB52_5+0x378>
     f94:	00001537          	lui	a0,0x1
     f98:	40a40533          	sub	a0,s0,a0
     f9c:	74053c23          	sd	zero,1880(a0) # 1758 <.LBB52_5+0x380>
     fa0:	00001537          	lui	a0,0x1
     fa4:	40a40533          	sub	a0,s0,a0
     fa8:	76053023          	sd	zero,1888(a0) # 1760 <.LBB52_5+0x388>
     fac:	00001537          	lui	a0,0x1
     fb0:	40a40533          	sub	a0,s0,a0
     fb4:	76053423          	sd	zero,1896(a0) # 1768 <.LBB52_5+0x390>
     fb8:	00001537          	lui	a0,0x1
     fbc:	40a40533          	sub	a0,s0,a0
     fc0:	76053823          	sd	zero,1904(a0) # 1770 <.LBB52_5+0x398>
     fc4:	00001537          	lui	a0,0x1
     fc8:	40a40533          	sub	a0,s0,a0
     fcc:	76053c23          	sd	zero,1912(a0) # 1778 <.LBB52_5+0x3a0>
     fd0:	00001537          	lui	a0,0x1
     fd4:	40a40533          	sub	a0,s0,a0
     fd8:	78053023          	sd	zero,1920(a0) # 1780 <.LBB52_5+0x3a8>
     fdc:	00001537          	lui	a0,0x1
     fe0:	40a40533          	sub	a0,s0,a0
     fe4:	78053423          	sd	zero,1928(a0) # 1788 <.LBB52_5+0x3b0>
     fe8:	00001537          	lui	a0,0x1
     fec:	40a40533          	sub	a0,s0,a0
     ff0:	7a053423          	sd	zero,1960(a0) # 17a8 <.LBB52_5+0x3d0>
     ff4:	00001537          	lui	a0,0x1
     ff8:	40a40533          	sub	a0,s0,a0
     ffc:	7a053023          	sd	zero,1952(a0) # 17a0 <.LBB52_5+0x3c8>
    1000:	00001537          	lui	a0,0x1
    1004:	40a40533          	sub	a0,s0,a0
    1008:	78053c23          	sd	zero,1944(a0) # 1798 <.LBB52_5+0x3c0>
    100c:	00001537          	lui	a0,0x1
    1010:	40a40533          	sub	a0,s0,a0
    1014:	78053823          	sd	zero,1936(a0) # 1790 <.LBB52_5+0x3b8>
    1018:	00001537          	lui	a0,0x1
    101c:	40a40533          	sub	a0,s0,a0
    1020:	7a053823          	sd	zero,1968(a0) # 17b0 <.LBB52_5+0x3d8>
    1024:	00001537          	lui	a0,0x1
    1028:	40a40533          	sub	a0,s0,a0
    102c:	7a053c23          	sd	zero,1976(a0) # 17b8 <.LBB52_5+0x3e0>
    1030:	00001537          	lui	a0,0x1
    1034:	40a40533          	sub	a0,s0,a0
    1038:	7c053023          	sd	zero,1984(a0) # 17c0 <.LBB52_5+0x3e8>
    103c:	00001537          	lui	a0,0x1
    1040:	40a40533          	sub	a0,s0,a0
    1044:	7c053423          	sd	zero,1992(a0) # 17c8 <.LBB52_5+0x3f0>
    1048:	00001537          	lui	a0,0x1
    104c:	40a40533          	sub	a0,s0,a0
    1050:	7c053823          	sd	zero,2000(a0) # 17d0 <.LBB52_5+0x3f8>
    1054:	00001537          	lui	a0,0x1
    1058:	40a40533          	sub	a0,s0,a0
    105c:	7c053c23          	sd	zero,2008(a0) # 17d8 <.LBB52_5+0x400>
    1060:	00001537          	lui	a0,0x1
    1064:	40a40533          	sub	a0,s0,a0
    1068:	7e053023          	sd	zero,2016(a0) # 17e0 <.LBB52_5+0x408>
    106c:	00001537          	lui	a0,0x1
    1070:	40a40533          	sub	a0,s0,a0
    1074:	7e053423          	sd	zero,2024(a0) # 17e8 <.LBB52_5+0x410>
    1078:	00001537          	lui	a0,0x1
    107c:	40a40533          	sub	a0,s0,a0
    1080:	7e053823          	sd	zero,2032(a0) # 17f0 <.LBB52_5+0x418>
    1084:	00001537          	lui	a0,0x1
    1088:	40a40533          	sub	a0,s0,a0
    108c:	7e053c23          	sd	zero,2040(a0) # 17f8 <.LBB52_5+0x420>
    1090:	80043023          	sd	zero,-2048(s0)
    1094:	80043423          	sd	zero,-2040(s0)
    1098:	80043823          	sd	zero,-2032(s0)
    109c:	80043c23          	sd	zero,-2024(s0)
    10a0:	82043023          	sd	zero,-2016(s0)
    10a4:	82043423          	sd	zero,-2008(s0)
    10a8:	82043823          	sd	zero,-2000(s0)
    10ac:	82043c23          	sd	zero,-1992(s0)
    10b0:	84043023          	sd	zero,-1984(s0)
    10b4:	84043423          	sd	zero,-1976(s0)
    10b8:	84043823          	sd	zero,-1968(s0)
    10bc:	84043c23          	sd	zero,-1960(s0)
    10c0:	86043023          	sd	zero,-1952(s0)
    10c4:	86043423          	sd	zero,-1944(s0)
    10c8:	86043823          	sd	zero,-1936(s0)
    10cc:	86043c23          	sd	zero,-1928(s0)
    10d0:	88043023          	sd	zero,-1920(s0)
    10d4:	88043423          	sd	zero,-1912(s0)
    10d8:	8a043423          	sd	zero,-1880(s0)
    10dc:	8a043023          	sd	zero,-1888(s0)
    10e0:	88043c23          	sd	zero,-1896(s0)
    10e4:	88043823          	sd	zero,-1904(s0)
    10e8:	8a043823          	sd	zero,-1872(s0)
    10ec:	8a043c23          	sd	zero,-1864(s0)
    10f0:	8c043023          	sd	zero,-1856(s0)
    10f4:	8c043423          	sd	zero,-1848(s0)
    10f8:	8c043823          	sd	zero,-1840(s0)
    10fc:	8c043c23          	sd	zero,-1832(s0)
    1100:	8e043023          	sd	zero,-1824(s0)
    1104:	8e043423          	sd	zero,-1816(s0)
    1108:	8e043823          	sd	zero,-1808(s0)
    110c:	8e043c23          	sd	zero,-1800(s0)
    1110:	90043023          	sd	zero,-1792(s0)
    1114:	90043423          	sd	zero,-1784(s0)
    1118:	90043823          	sd	zero,-1776(s0)
    111c:	90043c23          	sd	zero,-1768(s0)
    1120:	92043023          	sd	zero,-1760(s0)
    1124:	92043423          	sd	zero,-1752(s0)
    1128:	92043823          	sd	zero,-1744(s0)
    112c:	92043c23          	sd	zero,-1736(s0)
    1130:	94043023          	sd	zero,-1728(s0)
    1134:	94043423          	sd	zero,-1720(s0)
    1138:	94043823          	sd	zero,-1712(s0)
    113c:	94043c23          	sd	zero,-1704(s0)
    1140:	96043023          	sd	zero,-1696(s0)
    1144:	96043423          	sd	zero,-1688(s0)
    1148:	96043823          	sd	zero,-1680(s0)
    114c:	96043c23          	sd	zero,-1672(s0)
    1150:	98043023          	sd	zero,-1664(s0)
    1154:	98043423          	sd	zero,-1656(s0)
    1158:	9a043423          	sd	zero,-1624(s0)
    115c:	9a043023          	sd	zero,-1632(s0)
    1160:	98043c23          	sd	zero,-1640(s0)
    1164:	98043823          	sd	zero,-1648(s0)
    1168:	9a043823          	sd	zero,-1616(s0)
    116c:	9a043c23          	sd	zero,-1608(s0)
    1170:	9c043023          	sd	zero,-1600(s0)
    1174:	9c043423          	sd	zero,-1592(s0)
    1178:	9c043823          	sd	zero,-1584(s0)
    117c:	9c043c23          	sd	zero,-1576(s0)
    1180:	9e043023          	sd	zero,-1568(s0)
    1184:	9e043423          	sd	zero,-1560(s0)
    1188:	9e043823          	sd	zero,-1552(s0)
    118c:	9e043c23          	sd	zero,-1544(s0)
    1190:	a0043023          	sd	zero,-1536(s0)
    1194:	a0043423          	sd	zero,-1528(s0)
    1198:	a0043823          	sd	zero,-1520(s0)
    119c:	a0043c23          	sd	zero,-1512(s0)
    11a0:	a2043023          	sd	zero,-1504(s0)
    11a4:	a2043423          	sd	zero,-1496(s0)
    11a8:	a2043823          	sd	zero,-1488(s0)
    11ac:	a2043c23          	sd	zero,-1480(s0)
    11b0:	a4043023          	sd	zero,-1472(s0)
    11b4:	a4043423          	sd	zero,-1464(s0)
    11b8:	a4043823          	sd	zero,-1456(s0)
    11bc:	a4043c23          	sd	zero,-1448(s0)
    11c0:	a6043023          	sd	zero,-1440(s0)
    11c4:	a6043423          	sd	zero,-1432(s0)
    11c8:	a6043823          	sd	zero,-1424(s0)
    11cc:	a6043c23          	sd	zero,-1416(s0)
    11d0:	a8043023          	sd	zero,-1408(s0)
    11d4:	a8043423          	sd	zero,-1400(s0)
    11d8:	aa043423          	sd	zero,-1368(s0)
    11dc:	aa043023          	sd	zero,-1376(s0)
    11e0:	a8043c23          	sd	zero,-1384(s0)
    11e4:	a8043823          	sd	zero,-1392(s0)
    11e8:	aa043823          	sd	zero,-1360(s0)
    11ec:	aa043c23          	sd	zero,-1352(s0)
    11f0:	ac043023          	sd	zero,-1344(s0)
    11f4:	ac043423          	sd	zero,-1336(s0)
    11f8:	ac043823          	sd	zero,-1328(s0)
    11fc:	ac043c23          	sd	zero,-1320(s0)
    1200:	ae043023          	sd	zero,-1312(s0)
    1204:	ae043423          	sd	zero,-1304(s0)
    1208:	ae043823          	sd	zero,-1296(s0)
    120c:	ae043c23          	sd	zero,-1288(s0)
    1210:	b0043023          	sd	zero,-1280(s0)
    1214:	b0043423          	sd	zero,-1272(s0)
    1218:	b0043823          	sd	zero,-1264(s0)
    121c:	b0043c23          	sd	zero,-1256(s0)
    1220:	b2043023          	sd	zero,-1248(s0)
    1224:	b2043423          	sd	zero,-1240(s0)
    1228:	b2043823          	sd	zero,-1232(s0)
    122c:	b2043c23          	sd	zero,-1224(s0)
    1230:	b4043023          	sd	zero,-1216(s0)
    1234:	b4043423          	sd	zero,-1208(s0)
    1238:	b4043823          	sd	zero,-1200(s0)
    123c:	b4043c23          	sd	zero,-1192(s0)
    1240:	b6043023          	sd	zero,-1184(s0)
    1244:	b6043423          	sd	zero,-1176(s0)
    1248:	b6043823          	sd	zero,-1168(s0)
    124c:	b6043c23          	sd	zero,-1160(s0)
    1250:	b8043023          	sd	zero,-1152(s0)
    1254:	b8043423          	sd	zero,-1144(s0)
    1258:	ba043423          	sd	zero,-1112(s0)
    125c:	ba043023          	sd	zero,-1120(s0)
    1260:	b8043c23          	sd	zero,-1128(s0)
    1264:	b8043823          	sd	zero,-1136(s0)
    1268:	ba043823          	sd	zero,-1104(s0)
    126c:	ba043c23          	sd	zero,-1096(s0)
    1270:	bc043023          	sd	zero,-1088(s0)
    1274:	bc043423          	sd	zero,-1080(s0)
    1278:	bc043823          	sd	zero,-1072(s0)
    127c:	bc043c23          	sd	zero,-1064(s0)
    1280:	be043023          	sd	zero,-1056(s0)
    1284:	be043423          	sd	zero,-1048(s0)
    1288:	be043823          	sd	zero,-1040(s0)
    128c:	be043c23          	sd	zero,-1032(s0)
    1290:	c0043023          	sd	zero,-1024(s0)
    1294:	c0043423          	sd	zero,-1016(s0)
    1298:	c0043823          	sd	zero,-1008(s0)
    129c:	c0043c23          	sd	zero,-1000(s0)
    12a0:	c2043023          	sd	zero,-992(s0)
    12a4:	c2043423          	sd	zero,-984(s0)
    12a8:	c2043823          	sd	zero,-976(s0)
    12ac:	c2043c23          	sd	zero,-968(s0)
    12b0:	c4043023          	sd	zero,-960(s0)
    12b4:	c4043423          	sd	zero,-952(s0)
    12b8:	c4043823          	sd	zero,-944(s0)
    12bc:	c4043c23          	sd	zero,-936(s0)
    12c0:	c6043023          	sd	zero,-928(s0)
    12c4:	c6043423          	sd	zero,-920(s0)
    12c8:	c6043823          	sd	zero,-912(s0)
    12cc:	c6043c23          	sd	zero,-904(s0)
    12d0:	c8043023          	sd	zero,-896(s0)
    12d4:	c8043423          	sd	zero,-888(s0)
    12d8:	ca043423          	sd	zero,-856(s0)
    12dc:	ca043023          	sd	zero,-864(s0)
    12e0:	c8043c23          	sd	zero,-872(s0)
    12e4:	c8043823          	sd	zero,-880(s0)
    12e8:	ca043823          	sd	zero,-848(s0)
    12ec:	ca043c23          	sd	zero,-840(s0)
    12f0:	cc043023          	sd	zero,-832(s0)
    12f4:	cc043423          	sd	zero,-824(s0)
    12f8:	cc043823          	sd	zero,-816(s0)
    12fc:	cc043c23          	sd	zero,-808(s0)
    1300:	ce043023          	sd	zero,-800(s0)
    1304:	ce043423          	sd	zero,-792(s0)
    1308:	ce043823          	sd	zero,-784(s0)
    130c:	ce043c23          	sd	zero,-776(s0)
    1310:	d0043023          	sd	zero,-768(s0)
    1314:	d0043423          	sd	zero,-760(s0)
    1318:	d0043823          	sd	zero,-752(s0)
    131c:	d0043c23          	sd	zero,-744(s0)
    1320:	d2043023          	sd	zero,-736(s0)
    1324:	d2043423          	sd	zero,-728(s0)
    1328:	d2043823          	sd	zero,-720(s0)
    132c:	d2043c23          	sd	zero,-712(s0)
    1330:	d4043023          	sd	zero,-704(s0)
    1334:	d4043423          	sd	zero,-696(s0)
    1338:	d4043823          	sd	zero,-688(s0)
    133c:	d4043c23          	sd	zero,-680(s0)
    1340:	d6043023          	sd	zero,-672(s0)
    1344:	d6043423          	sd	zero,-664(s0)
    1348:	d6043823          	sd	zero,-656(s0)
    134c:	d6043c23          	sd	zero,-648(s0)
    1350:	d8043023          	sd	zero,-640(s0)
    1354:	d8043423          	sd	zero,-632(s0)
    1358:	da043423          	sd	zero,-600(s0)
    135c:	da043023          	sd	zero,-608(s0)
    1360:	d8043c23          	sd	zero,-616(s0)
    1364:	d8043823          	sd	zero,-624(s0)
    1368:	da043823          	sd	zero,-592(s0)
    136c:	da043c23          	sd	zero,-584(s0)
    1370:	dc043023          	sd	zero,-576(s0)
    1374:	dc043423          	sd	zero,-568(s0)
    1378:	dc043823          	sd	zero,-560(s0)
    137c:	00000093          	li	ra,0
    1380:	de043023          	sd	zero,-544(s0)
    1384:	00000d93          	li	s11,0
    1388:	00000d13          	li	s10,0
    138c:	00000c93          	li	s9,0
    1390:	00000c13          	li	s8,0
    1394:	00000b93          	li	s7,0
    1398:	00000b13          	li	s6,0
    139c:	00000a93          	li	s5,0
    13a0:	00000a13          	li	s4,0
    13a4:	00000e13          	li	t3,0
    13a8:	00000713          	li	a4,0
    13ac:	00000693          	li	a3,0
    13b0:	00000613          	li	a2,0
    13b4:	00000593          	li	a1,0
    13b8:	00000513          	li	a0,0
    13bc:	00000393          	li	t2,0
    13c0:	00000313          	li	t1,0
    13c4:	00000293          	li	t0,0
    13c8:	00000813          	li	a6,0
    13cc:	e4043423          	sd	zero,-440(s0)
    13d0:	00000893          	li	a7,0
    13d4:	00000913          	li	s2,0

00000000000013d8 <.LBB52_5>:
    13d8:	f9e43423          	sd	t5,-120(s0)
    13dc:	00001fb7          	lui	t6,0x1
    13e0:	41f40fb3          	sub	t6,s0,t6
    13e4:	69dfb423          	sd	t4,1672(t6) # 1688 <.LBB52_5+0x2b0>
    13e8:	f8f43023          	sd	a5,-128(s0)
    13ec:	dc143c23          	sd	ra,-552(s0)
    13f0:	dfb43423          	sd	s11,-536(s0)
    13f4:	dfa43823          	sd	s10,-528(s0)
    13f8:	df943c23          	sd	s9,-520(s0)
    13fc:	e1843023          	sd	s8,-512(s0)
    1400:	e1743423          	sd	s7,-504(s0)
    1404:	e1643823          	sd	s6,-496(s0)
    1408:	e1543c23          	sd	s5,-488(s0)
    140c:	e3443023          	sd	s4,-480(s0)
    1410:	f1c43423          	sd	t3,-248(s0)
    1414:	f0e43823          	sd	a4,-240(s0)
    1418:	f0d43c23          	sd	a3,-232(s0)
    141c:	f2c43023          	sd	a2,-224(s0)
    1420:	f2b43423          	sd	a1,-216(s0)
    1424:	f2a43823          	sd	a0,-208(s0)
    1428:	e2743423          	sd	t2,-472(s0)
    142c:	e2643823          	sd	t1,-464(s0)
    1430:	e2543c23          	sd	t0,-456(s0)
    1434:	e5043023          	sd	a6,-448(s0)
    1438:	e5143823          	sd	a7,-432(s0)
    143c:	e5243c23          	sd	s2,-424(s0)
    1440:	000f0503          	lb	a0,0(t5)
    1444:	00278583          	lb	a1,2(a5)
    1448:	f4b43023          	sd	a1,-192(s0)
    144c:	00178683          	lb	a3,1(a5)
    1450:	00078703          	lb	a4,0(a5)
    1454:	00378803          	lb	a6,3(a5)
    1458:	f5043c23          	sd	a6,-168(s0)
    145c:	00478903          	lb	s2,4(a5)
    1460:	f7243c23          	sd	s2,-136(s0)
    1464:	00578a03          	lb	s4,5(a5)
    1468:	00678383          	lb	t2,6(a5)
    146c:	f4743823          	sd	t2,-176(s0)
    1470:	00778083          	lb	ra,7(a5)
    1474:	00878883          	lb	a7,8(a5)
    1478:	eb143c23          	sd	a7,-328(s0)
    147c:	00978c83          	lb	s9,9(a5)
    1480:	00a78c03          	lb	s8,10(a5)
    1484:	00b78b83          	lb	s7,11(a5)
    1488:	00c78b03          	lb	s6,12(a5)
    148c:	00d78a83          	lb	s5,13(a5)
    1490:	00e78d03          	lb	s10,14(a5)
    1494:	00f78d83          	lb	s11,15(a5)
    1498:	e9b43023          	sd	s11,-384(s0)
    149c:	01078283          	lb	t0,16(a5)
    14a0:	01178e83          	lb	t4,17(a5)
    14a4:	edd43023          	sd	t4,-320(s0)
    14a8:	01278483          	lb	s1,18(a5)
    14ac:	01378f83          	lb	t6,19(a5)
    14b0:	01478983          	lb	s3,20(a5)
    14b4:	f7343823          	sd	s3,-144(s0)
    14b8:	01578603          	lb	a2,21(a5)
    14bc:	f2c43c23          	sd	a2,-200(s0)
    14c0:	01678e03          	lb	t3,22(a5)
    14c4:	f5c43423          	sd	t3,-184(s0)
    14c8:	01778303          	lb	t1,23(a5)
    14cc:	e8643423          	sd	t1,-376(s0)
    14d0:	01878f03          	lb	t5,24(a5)
    14d4:	02b505b3          	mul	a1,a0,a1
    14d8:	00001637          	lui	a2,0x1
    14dc:	40c40633          	sub	a2,s0,a2
    14e0:	6a863603          	ld	a2,1704(a2) # 16a8 <.LBB52_5+0x2d0>
    14e4:	00c58633          	add	a2,a1,a2
    14e8:	000015b7          	lui	a1,0x1
    14ec:	40b405b3          	sub	a1,s0,a1
    14f0:	6ac5b423          	sd	a2,1704(a1) # 16a8 <.LBB52_5+0x2d0>
    14f4:	02d505b3          	mul	a1,a0,a3
    14f8:	00001637          	lui	a2,0x1
    14fc:	40c40633          	sub	a2,s0,a2
    1500:	6b063603          	ld	a2,1712(a2) # 16b0 <.LBB52_5+0x2d8>
    1504:	00c58633          	add	a2,a1,a2
    1508:	000015b7          	lui	a1,0x1
    150c:	40b405b3          	sub	a1,s0,a1
    1510:	6ac5b823          	sd	a2,1712(a1) # 16b0 <.LBB52_5+0x2d8>
    1514:	02e505b3          	mul	a1,a0,a4
    1518:	f6e43023          	sd	a4,-160(s0)
    151c:	00001637          	lui	a2,0x1
    1520:	40c40633          	sub	a2,s0,a2
    1524:	6c863603          	ld	a2,1736(a2) # 16c8 <.LBB52_5+0x2f0>
    1528:	00c58633          	add	a2,a1,a2
    152c:	000015b7          	lui	a1,0x1
    1530:	40b405b3          	sub	a1,s0,a1
    1534:	6cc5b423          	sd	a2,1736(a1) # 16c8 <.LBB52_5+0x2f0>
    1538:	030505b3          	mul	a1,a0,a6
    153c:	00001637          	lui	a2,0x1
    1540:	40c40633          	sub	a2,s0,a2
    1544:	6b863603          	ld	a2,1720(a2) # 16b8 <.LBB52_5+0x2e0>
    1548:	00c58633          	add	a2,a1,a2
    154c:	000015b7          	lui	a1,0x1
    1550:	40b405b3          	sub	a1,s0,a1
    1554:	6ac5bc23          	sd	a2,1720(a1) # 16b8 <.LBB52_5+0x2e0>
    1558:	032505b3          	mul	a1,a0,s2
    155c:	00001637          	lui	a2,0x1
    1560:	40c40633          	sub	a2,s0,a2
    1564:	6d063603          	ld	a2,1744(a2) # 16d0 <.LBB52_5+0x2f8>
    1568:	00c58633          	add	a2,a1,a2
    156c:	000015b7          	lui	a1,0x1
    1570:	40b405b3          	sub	a1,s0,a1
    1574:	6cc5b823          	sd	a2,1744(a1) # 16d0 <.LBB52_5+0x2f8>
    1578:	034505b3          	mul	a1,a0,s4
    157c:	00001637          	lui	a2,0x1
    1580:	40c40633          	sub	a2,s0,a2
    1584:	6c063603          	ld	a2,1728(a2) # 16c0 <.LBB52_5+0x2e8>
    1588:	00c58633          	add	a2,a1,a2
    158c:	000015b7          	lui	a1,0x1
    1590:	40b405b3          	sub	a1,s0,a1
    1594:	6cc5b023          	sd	a2,1728(a1) # 16c0 <.LBB52_5+0x2e8>
    1598:	027505b3          	mul	a1,a0,t2
    159c:	00001637          	lui	a2,0x1
    15a0:	40c40633          	sub	a2,s0,a2
    15a4:	6a063603          	ld	a2,1696(a2) # 16a0 <.LBB52_5+0x2c8>
    15a8:	00c58633          	add	a2,a1,a2
    15ac:	000015b7          	lui	a1,0x1
    15b0:	40b405b3          	sub	a1,s0,a1
    15b4:	6ac5b023          	sd	a2,1696(a1) # 16a0 <.LBB52_5+0x2c8>
    15b8:	021505b3          	mul	a1,a0,ra
    15bc:	00008393          	mv	t2,ra
    15c0:	e6143823          	sd	ra,-400(s0)
    15c4:	00001637          	lui	a2,0x1
    15c8:	40c40633          	sub	a2,s0,a2
    15cc:	69863603          	ld	a2,1688(a2) # 1698 <.LBB52_5+0x2c0>
    15d0:	00c58633          	add	a2,a1,a2
    15d4:	000015b7          	lui	a1,0x1
    15d8:	40b405b3          	sub	a1,s0,a1
    15dc:	68c5bc23          	sd	a2,1688(a1) # 1698 <.LBB52_5+0x2c0>
    15e0:	031505b3          	mul	a1,a0,a7
    15e4:	00001637          	lui	a2,0x1
    15e8:	40c40633          	sub	a2,s0,a2
    15ec:	69063603          	ld	a2,1680(a2) # 1690 <.LBB52_5+0x2b8>
    15f0:	00c58633          	add	a2,a1,a2
    15f4:	000015b7          	lui	a1,0x1
    15f8:	40b405b3          	sub	a1,s0,a1
    15fc:	68c5b823          	sd	a2,1680(a1) # 1690 <.LBB52_5+0x2b8>
    1600:	039505b3          	mul	a1,a0,s9
    1604:	00001637          	lui	a2,0x1
    1608:	40c40633          	sub	a2,s0,a2
    160c:	6d863603          	ld	a2,1752(a2) # 16d8 <.LBB52_5+0x300>
    1610:	00c58633          	add	a2,a1,a2
    1614:	000015b7          	lui	a1,0x1
    1618:	40b405b3          	sub	a1,s0,a1
    161c:	6cc5bc23          	sd	a2,1752(a1) # 16d8 <.LBB52_5+0x300>
    1620:	038505b3          	mul	a1,a0,s8
    1624:	00001637          	lui	a2,0x1
    1628:	40c40633          	sub	a2,s0,a2
    162c:	6e063603          	ld	a2,1760(a2) # 16e0 <.LBB52_5+0x308>
    1630:	00c58633          	add	a2,a1,a2
    1634:	000015b7          	lui	a1,0x1
    1638:	40b405b3          	sub	a1,s0,a1
    163c:	6ec5b023          	sd	a2,1760(a1) # 16e0 <.LBB52_5+0x308>
    1640:	037505b3          	mul	a1,a0,s7
    1644:	00001637          	lui	a2,0x1
    1648:	40c40633          	sub	a2,s0,a2
    164c:	6e863603          	ld	a2,1768(a2) # 16e8 <.LBB52_5+0x310>
    1650:	00c58633          	add	a2,a1,a2
    1654:	000015b7          	lui	a1,0x1
    1658:	40b405b3          	sub	a1,s0,a1
    165c:	6ec5b423          	sd	a2,1768(a1) # 16e8 <.LBB52_5+0x310>
    1660:	036505b3          	mul	a1,a0,s6
    1664:	00001637          	lui	a2,0x1
    1668:	40c40633          	sub	a2,s0,a2
    166c:	6f063603          	ld	a2,1776(a2) # 16f0 <.LBB52_5+0x318>
    1670:	00c58633          	add	a2,a1,a2
    1674:	000015b7          	lui	a1,0x1
    1678:	40b405b3          	sub	a1,s0,a1
    167c:	6ec5b823          	sd	a2,1776(a1) # 16f0 <.LBB52_5+0x318>
    1680:	035505b3          	mul	a1,a0,s5
    1684:	00001637          	lui	a2,0x1
    1688:	40c40633          	sub	a2,s0,a2
    168c:	6f863603          	ld	a2,1784(a2) # 16f8 <.LBB52_5+0x320>
    1690:	00c58633          	add	a2,a1,a2
    1694:	000015b7          	lui	a1,0x1
    1698:	40b405b3          	sub	a1,s0,a1
    169c:	6ec5bc23          	sd	a2,1784(a1) # 16f8 <.LBB52_5+0x320>
    16a0:	eda43c23          	sd	s10,-296(s0)
    16a4:	03a505b3          	mul	a1,a0,s10
    16a8:	00001637          	lui	a2,0x1
    16ac:	40c40633          	sub	a2,s0,a2
    16b0:	70063603          	ld	a2,1792(a2) # 1700 <.LBB52_5+0x328>
    16b4:	00c58633          	add	a2,a1,a2
    16b8:	000015b7          	lui	a1,0x1
    16bc:	40b405b3          	sub	a1,s0,a1
    16c0:	70c5b023          	sd	a2,1792(a1) # 1700 <.LBB52_5+0x328>
    16c4:	03b505b3          	mul	a1,a0,s11
    16c8:	00001637          	lui	a2,0x1
    16cc:	40c40633          	sub	a2,s0,a2
    16d0:	70863603          	ld	a2,1800(a2) # 1708 <.LBB52_5+0x330>
    16d4:	00c58633          	add	a2,a1,a2
    16d8:	000015b7          	lui	a1,0x1
    16dc:	40b405b3          	sub	a1,s0,a1
    16e0:	70c5b423          	sd	a2,1800(a1) # 1708 <.LBB52_5+0x330>
    16e4:	025505b3          	mul	a1,a0,t0
    16e8:	00001637          	lui	a2,0x1
    16ec:	40c40633          	sub	a2,s0,a2
    16f0:	71063603          	ld	a2,1808(a2) # 1710 <.LBB52_5+0x338>
    16f4:	00c58633          	add	a2,a1,a2
    16f8:	000015b7          	lui	a1,0x1
    16fc:	40b405b3          	sub	a1,s0,a1
    1700:	70c5b823          	sd	a2,1808(a1) # 1710 <.LBB52_5+0x338>
    1704:	03d505b3          	mul	a1,a0,t4
    1708:	00001637          	lui	a2,0x1
    170c:	40c40633          	sub	a2,s0,a2
    1710:	71863603          	ld	a2,1816(a2) # 1718 <.LBB52_5+0x340>
    1714:	00c58633          	add	a2,a1,a2
    1718:	000015b7          	lui	a1,0x1
    171c:	40b405b3          	sub	a1,s0,a1
    1720:	70c5bc23          	sd	a2,1816(a1) # 1718 <.LBB52_5+0x340>
    1724:	029505b3          	mul	a1,a0,s1
    1728:	00048e93          	mv	t4,s1
    172c:	ee943023          	sd	s1,-288(s0)
    1730:	00001637          	lui	a2,0x1
    1734:	40c40633          	sub	a2,s0,a2
    1738:	72063603          	ld	a2,1824(a2) # 1720 <.LBB52_5+0x348>
    173c:	00c58633          	add	a2,a1,a2
    1740:	000015b7          	lui	a1,0x1
    1744:	40b405b3          	sub	a1,s0,a1
    1748:	72c5b023          	sd	a2,1824(a1) # 1720 <.LBB52_5+0x348>
    174c:	03f505b3          	mul	a1,a0,t6
    1750:	00001637          	lui	a2,0x1
    1754:	40c40633          	sub	a2,s0,a2
    1758:	72863603          	ld	a2,1832(a2) # 1728 <.LBB52_5+0x350>
    175c:	00c58633          	add	a2,a1,a2
    1760:	000015b7          	lui	a1,0x1
    1764:	40b405b3          	sub	a1,s0,a1
    1768:	72c5b423          	sd	a2,1832(a1) # 1728 <.LBB52_5+0x350>
    176c:	033505b3          	mul	a1,a0,s3
    1770:	00001637          	lui	a2,0x1
    1774:	40c40633          	sub	a2,s0,a2
    1778:	73063603          	ld	a2,1840(a2) # 1730 <.LBB52_5+0x358>
    177c:	00c58633          	add	a2,a1,a2
    1780:	000015b7          	lui	a1,0x1
    1784:	40b405b3          	sub	a1,s0,a1
    1788:	72c5b823          	sd	a2,1840(a1) # 1730 <.LBB52_5+0x358>
    178c:	f3843983          	ld	s3,-200(s0)
    1790:	033505b3          	mul	a1,a0,s3
    1794:	00001637          	lui	a2,0x1
    1798:	40c40633          	sub	a2,s0,a2
    179c:	73863603          	ld	a2,1848(a2) # 1738 <.LBB52_5+0x360>
    17a0:	00c58633          	add	a2,a1,a2
    17a4:	000015b7          	lui	a1,0x1
    17a8:	40b405b3          	sub	a1,s0,a1
    17ac:	72c5bc23          	sd	a2,1848(a1) # 1738 <.LBB52_5+0x360>
    17b0:	03c505b3          	mul	a1,a0,t3
    17b4:	00001637          	lui	a2,0x1
    17b8:	40c40633          	sub	a2,s0,a2
    17bc:	74063603          	ld	a2,1856(a2) # 1740 <.LBB52_5+0x368>
    17c0:	00c58633          	add	a2,a1,a2
    17c4:	000015b7          	lui	a1,0x1
    17c8:	40b405b3          	sub	a1,s0,a1
    17cc:	74c5b023          	sd	a2,1856(a1) # 1740 <.LBB52_5+0x368>
    17d0:	026505b3          	mul	a1,a0,t1
    17d4:	00001637          	lui	a2,0x1
    17d8:	40c40633          	sub	a2,s0,a2
    17dc:	74863603          	ld	a2,1864(a2) # 1748 <.LBB52_5+0x370>
    17e0:	00c58633          	add	a2,a1,a2
    17e4:	000015b7          	lui	a1,0x1
    17e8:	40b405b3          	sub	a1,s0,a1
    17ec:	74c5b423          	sd	a2,1864(a1) # 1748 <.LBB52_5+0x370>
    17f0:	01978803          	lb	a6,25(a5)
    17f4:	03e505b3          	mul	a1,a0,t5
    17f8:	000f0493          	mv	s1,t5
    17fc:	ebe43023          	sd	t5,-352(s0)
    1800:	00001637          	lui	a2,0x1
    1804:	40c40633          	sub	a2,s0,a2
    1808:	75063603          	ld	a2,1872(a2) # 1750 <.LBB52_5+0x378>
    180c:	00c58633          	add	a2,a1,a2
    1810:	000015b7          	lui	a1,0x1
    1814:	40b405b3          	sub	a1,s0,a1
    1818:	74c5b823          	sd	a2,1872(a1) # 1750 <.LBB52_5+0x378>
    181c:	01a78883          	lb	a7,26(a5)
    1820:	e7143c23          	sd	a7,-392(s0)
    1824:	030505b3          	mul	a1,a0,a6
    1828:	00080793          	mv	a5,a6
    182c:	00001637          	lui	a2,0x1
    1830:	40c40633          	sub	a2,s0,a2
    1834:	75863603          	ld	a2,1880(a2) # 1758 <.LBB52_5+0x380>
    1838:	00c58633          	add	a2,a1,a2
    183c:	000015b7          	lui	a1,0x1
    1840:	40b405b3          	sub	a1,s0,a1
    1844:	74c5bc23          	sd	a2,1880(a1) # 1758 <.LBB52_5+0x380>
    1848:	f8043583          	ld	a1,-128(s0)
    184c:	01b58803          	lb	a6,27(a1)
    1850:	eb043823          	sd	a6,-336(s0)
    1854:	031505b3          	mul	a1,a0,a7
    1858:	00001637          	lui	a2,0x1
    185c:	40c40633          	sub	a2,s0,a2
    1860:	76063603          	ld	a2,1888(a2) # 1760 <.LBB52_5+0x388>
    1864:	00c58633          	add	a2,a1,a2
    1868:	000015b7          	lui	a1,0x1
    186c:	40b405b3          	sub	a1,s0,a1
    1870:	76c5b023          	sd	a2,1888(a1) # 1760 <.LBB52_5+0x388>
    1874:	f8043583          	ld	a1,-128(s0)
    1878:	01c58883          	lb	a7,28(a1)
    187c:	f1143023          	sd	a7,-256(s0)
    1880:	030505b3          	mul	a1,a0,a6
    1884:	00001637          	lui	a2,0x1
    1888:	40c40633          	sub	a2,s0,a2
    188c:	76863603          	ld	a2,1896(a2) # 1768 <.LBB52_5+0x390>
    1890:	00c58633          	add	a2,a1,a2
    1894:	000015b7          	lui	a1,0x1
    1898:	40b405b3          	sub	a1,s0,a1
    189c:	76c5b423          	sd	a2,1896(a1) # 1768 <.LBB52_5+0x390>
    18a0:	f8043583          	ld	a1,-128(s0)
    18a4:	01d58803          	lb	a6,29(a1)
    18a8:	e7043423          	sd	a6,-408(s0)
    18ac:	031505b3          	mul	a1,a0,a7
    18b0:	00001637          	lui	a2,0x1
    18b4:	40c40633          	sub	a2,s0,a2
    18b8:	77063603          	ld	a2,1904(a2) # 1770 <.LBB52_5+0x398>
    18bc:	00c58633          	add	a2,a1,a2
    18c0:	000015b7          	lui	a1,0x1
    18c4:	40b405b3          	sub	a1,s0,a1
    18c8:	76c5b823          	sd	a2,1904(a1) # 1770 <.LBB52_5+0x398>
    18cc:	f8043583          	ld	a1,-128(s0)
    18d0:	01e58e03          	lb	t3,30(a1)
    18d4:	030505b3          	mul	a1,a0,a6
    18d8:	00001637          	lui	a2,0x1
    18dc:	40c40633          	sub	a2,s0,a2
    18e0:	77863603          	ld	a2,1912(a2) # 1778 <.LBB52_5+0x3a0>
    18e4:	00c58633          	add	a2,a1,a2
    18e8:	000015b7          	lui	a1,0x1
    18ec:	40b405b3          	sub	a1,s0,a1
    18f0:	76c5bc23          	sd	a2,1912(a1) # 1778 <.LBB52_5+0x3a0>
    18f4:	f8043583          	ld	a1,-128(s0)
    18f8:	01f58583          	lb	a1,31(a1)
    18fc:	f8843603          	ld	a2,-120(s0)
    1900:	0c060903          	lb	s2,192(a2)
    1904:	03c50db3          	mul	s11,a0,t3
    1908:	edc43423          	sd	t3,-312(s0)
    190c:	00001637          	lui	a2,0x1
    1910:	40c40633          	sub	a2,s0,a2
    1914:	78063603          	ld	a2,1920(a2) # 1780 <.LBB52_5+0x3a8>
    1918:	00cd8633          	add	a2,s11,a2
    191c:	00001837          	lui	a6,0x1
    1920:	41040833          	sub	a6,s0,a6
    1924:	78c83023          	sd	a2,1920(a6) # 1780 <.LBB52_5+0x3a8>
    1928:	02b50533          	mul	a0,a0,a1
    192c:	00058093          	mv	ra,a1
    1930:	000015b7          	lui	a1,0x1
    1934:	40b405b3          	sub	a1,s0,a1
    1938:	7885b603          	ld	a2,1928(a1) # 1788 <.LBB52_5+0x3b0>
    193c:	00c50633          	add	a2,a0,a2
    1940:	00001537          	lui	a0,0x1
    1944:	40a40533          	sub	a0,s0,a0
    1948:	78c53423          	sd	a2,1928(a0) # 1788 <.LBB52_5+0x3b0>
    194c:	02e90533          	mul	a0,s2,a4
    1950:	000015b7          	lui	a1,0x1
    1954:	40b405b3          	sub	a1,s0,a1
    1958:	7a85b603          	ld	a2,1960(a1) # 17a8 <.LBB52_5+0x3d0>
    195c:	00c50633          	add	a2,a0,a2
    1960:	00001537          	lui	a0,0x1
    1964:	40a40533          	sub	a0,s0,a0
    1968:	7ac53423          	sd	a2,1960(a0) # 17a8 <.LBB52_5+0x3d0>
    196c:	ead43423          	sd	a3,-344(s0)
    1970:	02d90533          	mul	a0,s2,a3
    1974:	000015b7          	lui	a1,0x1
    1978:	40b405b3          	sub	a1,s0,a1
    197c:	7a05b603          	ld	a2,1952(a1) # 17a0 <.LBB52_5+0x3c8>
    1980:	00c50633          	add	a2,a0,a2
    1984:	00001537          	lui	a0,0x1
    1988:	40a40533          	sub	a0,s0,a0
    198c:	7ac53023          	sd	a2,1952(a0) # 17a0 <.LBB52_5+0x3c8>
    1990:	f4043583          	ld	a1,-192(s0)
    1994:	02b90533          	mul	a0,s2,a1
    1998:	00001637          	lui	a2,0x1
    199c:	40c40633          	sub	a2,s0,a2
    19a0:	79863603          	ld	a2,1944(a2) # 1798 <.LBB52_5+0x3c0>
    19a4:	00c50633          	add	a2,a0,a2
    19a8:	00001537          	lui	a0,0x1
    19ac:	40a40533          	sub	a0,s0,a0
    19b0:	78c53c23          	sd	a2,1944(a0) # 1798 <.LBB52_5+0x3c0>
    19b4:	f5843883          	ld	a7,-168(s0)
    19b8:	03190533          	mul	a0,s2,a7
    19bc:	00001637          	lui	a2,0x1
    19c0:	40c40633          	sub	a2,s0,a2
    19c4:	79063603          	ld	a2,1936(a2) # 1790 <.LBB52_5+0x3b8>
    19c8:	00c50633          	add	a2,a0,a2
    19cc:	00001537          	lui	a0,0x1
    19d0:	40a40533          	sub	a0,s0,a0
    19d4:	78c53823          	sd	a2,1936(a0) # 1790 <.LBB52_5+0x3b8>
    19d8:	f7843803          	ld	a6,-136(s0)
    19dc:	03090533          	mul	a0,s2,a6
    19e0:	00001637          	lui	a2,0x1
    19e4:	40c40633          	sub	a2,s0,a2
    19e8:	7b063603          	ld	a2,1968(a2) # 17b0 <.LBB52_5+0x3d8>
    19ec:	00c50633          	add	a2,a0,a2
    19f0:	00001537          	lui	a0,0x1
    19f4:	40a40533          	sub	a0,s0,a0
    19f8:	7ac53823          	sd	a2,1968(a0) # 17b0 <.LBB52_5+0x3d8>
    19fc:	f7443423          	sd	s4,-152(s0)
    1a00:	03490533          	mul	a0,s2,s4
    1a04:	00001637          	lui	a2,0x1
    1a08:	40c40633          	sub	a2,s0,a2
    1a0c:	7b863603          	ld	a2,1976(a2) # 17b8 <.LBB52_5+0x3e0>
    1a10:	00c50633          	add	a2,a0,a2
    1a14:	00001537          	lui	a0,0x1
    1a18:	40a40533          	sub	a0,s0,a0
    1a1c:	7ac53c23          	sd	a2,1976(a0) # 17b8 <.LBB52_5+0x3e0>
    1a20:	f5043503          	ld	a0,-176(s0)
    1a24:	02a90533          	mul	a0,s2,a0
    1a28:	00001637          	lui	a2,0x1
    1a2c:	40c40633          	sub	a2,s0,a2
    1a30:	7c063603          	ld	a2,1984(a2) # 17c0 <.LBB52_5+0x3e8>
    1a34:	00c50633          	add	a2,a0,a2
    1a38:	00001537          	lui	a0,0x1
    1a3c:	40a40533          	sub	a0,s0,a0
    1a40:	7cc53023          	sd	a2,1984(a0) # 17c0 <.LBB52_5+0x3e8>
    1a44:	02790533          	mul	a0,s2,t2
    1a48:	00001637          	lui	a2,0x1
    1a4c:	40c40633          	sub	a2,s0,a2
    1a50:	7c863603          	ld	a2,1992(a2) # 17c8 <.LBB52_5+0x3f0>
    1a54:	00c50633          	add	a2,a0,a2
    1a58:	00001537          	lui	a0,0x1
    1a5c:	40a40533          	sub	a0,s0,a0
    1a60:	7cc53423          	sd	a2,1992(a0) # 17c8 <.LBB52_5+0x3f0>
    1a64:	eb843703          	ld	a4,-328(s0)
    1a68:	02e90533          	mul	a0,s2,a4
    1a6c:	00001637          	lui	a2,0x1
    1a70:	40c40633          	sub	a2,s0,a2
    1a74:	7d063603          	ld	a2,2000(a2) # 17d0 <.LBB52_5+0x3f8>
    1a78:	00c50633          	add	a2,a0,a2
    1a7c:	00001537          	lui	a0,0x1
    1a80:	40a40533          	sub	a0,s0,a0
    1a84:	7cc53823          	sd	a2,2000(a0) # 17d0 <.LBB52_5+0x3f8>
    1a88:	03990533          	mul	a0,s2,s9
    1a8c:	00001637          	lui	a2,0x1
    1a90:	40c40633          	sub	a2,s0,a2
    1a94:	7d863603          	ld	a2,2008(a2) # 17d8 <.LBB52_5+0x400>
    1a98:	00c50633          	add	a2,a0,a2
    1a9c:	00001537          	lui	a0,0x1
    1aa0:	40a40533          	sub	a0,s0,a0
    1aa4:	7cc53c23          	sd	a2,2008(a0) # 17d8 <.LBB52_5+0x400>
    1aa8:	03890533          	mul	a0,s2,s8
    1aac:	00001637          	lui	a2,0x1
    1ab0:	40c40633          	sub	a2,s0,a2
    1ab4:	7e063603          	ld	a2,2016(a2) # 17e0 <.LBB52_5+0x408>
    1ab8:	00c50633          	add	a2,a0,a2
    1abc:	00001537          	lui	a0,0x1
    1ac0:	40a40533          	sub	a0,s0,a0
    1ac4:	7ec53023          	sd	a2,2016(a0) # 17e0 <.LBB52_5+0x408>
    1ac8:	03790533          	mul	a0,s2,s7
    1acc:	00001637          	lui	a2,0x1
    1ad0:	40c40633          	sub	a2,s0,a2
    1ad4:	7e863603          	ld	a2,2024(a2) # 17e8 <.LBB52_5+0x410>
    1ad8:	00c50633          	add	a2,a0,a2
    1adc:	00001537          	lui	a0,0x1
    1ae0:	40a40533          	sub	a0,s0,a0
    1ae4:	7ec53423          	sd	a2,2024(a0) # 17e8 <.LBB52_5+0x410>
    1ae8:	03690533          	mul	a0,s2,s6
    1aec:	00001637          	lui	a2,0x1
    1af0:	40c40633          	sub	a2,s0,a2
    1af4:	7f063603          	ld	a2,2032(a2) # 17f0 <.LBB52_5+0x418>
    1af8:	00c50633          	add	a2,a0,a2
    1afc:	00001537          	lui	a0,0x1
    1b00:	40a40533          	sub	a0,s0,a0
    1b04:	7ec53823          	sd	a2,2032(a0) # 17f0 <.LBB52_5+0x418>
    1b08:	03590533          	mul	a0,s2,s5
    1b0c:	00001637          	lui	a2,0x1
    1b10:	40c40633          	sub	a2,s0,a2
    1b14:	7f863603          	ld	a2,2040(a2) # 17f8 <.LBB52_5+0x420>
    1b18:	00c50633          	add	a2,a0,a2
    1b1c:	00001537          	lui	a0,0x1
    1b20:	40a40533          	sub	a0,s0,a0
    1b24:	7ec53c23          	sd	a2,2040(a0) # 17f8 <.LBB52_5+0x420>
    1b28:	03a90533          	mul	a0,s2,s10
    1b2c:	80043603          	ld	a2,-2048(s0)
    1b30:	00c50633          	add	a2,a0,a2
    1b34:	80c43023          	sd	a2,-2048(s0)
    1b38:	e8043303          	ld	t1,-384(s0)
    1b3c:	02690533          	mul	a0,s2,t1
    1b40:	80843603          	ld	a2,-2040(s0)
    1b44:	00c50633          	add	a2,a0,a2
    1b48:	80c43423          	sd	a2,-2040(s0)
    1b4c:	02590533          	mul	a0,s2,t0
    1b50:	81043603          	ld	a2,-2032(s0)
    1b54:	00c50633          	add	a2,a0,a2
    1b58:	80c43823          	sd	a2,-2032(s0)
    1b5c:	ec043383          	ld	t2,-320(s0)
    1b60:	02790533          	mul	a0,s2,t2
    1b64:	81843603          	ld	a2,-2024(s0)
    1b68:	00c50633          	add	a2,a0,a2
    1b6c:	80c43c23          	sd	a2,-2024(s0)
    1b70:	03d90533          	mul	a0,s2,t4
    1b74:	82043603          	ld	a2,-2016(s0)
    1b78:	00c50633          	add	a2,a0,a2
    1b7c:	82c43023          	sd	a2,-2016(s0)
    1b80:	eff43423          	sd	t6,-280(s0)
    1b84:	03f90533          	mul	a0,s2,t6
    1b88:	82843603          	ld	a2,-2008(s0)
    1b8c:	00c50633          	add	a2,a0,a2
    1b90:	82c43423          	sd	a2,-2008(s0)
    1b94:	f7043503          	ld	a0,-144(s0)
    1b98:	02a90533          	mul	a0,s2,a0
    1b9c:	83043603          	ld	a2,-2000(s0)
    1ba0:	00c50633          	add	a2,a0,a2
    1ba4:	82c43823          	sd	a2,-2000(s0)
    1ba8:	03390533          	mul	a0,s2,s3
    1bac:	83843603          	ld	a2,-1992(s0)
    1bb0:	00c50633          	add	a2,a0,a2
    1bb4:	82c43c23          	sd	a2,-1992(s0)
    1bb8:	f4843983          	ld	s3,-184(s0)
    1bbc:	03390533          	mul	a0,s2,s3
    1bc0:	84043603          	ld	a2,-1984(s0)
    1bc4:	00c50633          	add	a2,a0,a2
    1bc8:	84c43023          	sd	a2,-1984(s0)
    1bcc:	e8843e83          	ld	t4,-376(s0)
    1bd0:	03d90533          	mul	a0,s2,t4
    1bd4:	84843603          	ld	a2,-1976(s0)
    1bd8:	00c50633          	add	a2,a0,a2
    1bdc:	84c43423          	sd	a2,-1976(s0)
    1be0:	03e90533          	mul	a0,s2,t5
    1be4:	85043603          	ld	a2,-1968(s0)
    1be8:	00c50633          	add	a2,a0,a2
    1bec:	84c43823          	sd	a2,-1968(s0)
    1bf0:	ecf43823          	sd	a5,-304(s0)
    1bf4:	02f90533          	mul	a0,s2,a5
    1bf8:	85843603          	ld	a2,-1960(s0)
    1bfc:	00c50633          	add	a2,a0,a2
    1c00:	84c43c23          	sd	a2,-1960(s0)
    1c04:	e7843483          	ld	s1,-392(s0)
    1c08:	02990533          	mul	a0,s2,s1
    1c0c:	86043603          	ld	a2,-1952(s0)
    1c10:	00c50633          	add	a2,a0,a2
    1c14:	86c43023          	sd	a2,-1952(s0)
    1c18:	eb043f03          	ld	t5,-336(s0)
    1c1c:	03e90533          	mul	a0,s2,t5
    1c20:	86843603          	ld	a2,-1944(s0)
    1c24:	00c50633          	add	a2,a0,a2
    1c28:	86c43423          	sd	a2,-1944(s0)
    1c2c:	f0043503          	ld	a0,-256(s0)
    1c30:	02a90533          	mul	a0,s2,a0
    1c34:	87043603          	ld	a2,-1936(s0)
    1c38:	00c50633          	add	a2,a0,a2
    1c3c:	86c43823          	sd	a2,-1936(s0)
    1c40:	e6843d03          	ld	s10,-408(s0)
    1c44:	03a90533          	mul	a0,s2,s10
    1c48:	87843603          	ld	a2,-1928(s0)
    1c4c:	00c50633          	add	a2,a0,a2
    1c50:	86c43c23          	sd	a2,-1928(s0)
    1c54:	f8843503          	ld	a0,-120(s0)
    1c58:	18050503          	lb	a0,384(a0)
    1c5c:	03c90db3          	mul	s11,s2,t3
    1c60:	88043603          	ld	a2,-1920(s0)
    1c64:	00cd8633          	add	a2,s11,a2
    1c68:	88c43023          	sd	a2,-1920(s0)
    1c6c:	02190933          	mul	s2,s2,ra
    1c70:	88843603          	ld	a2,-1912(s0)
    1c74:	00c90633          	add	a2,s2,a2
    1c78:	88c43423          	sd	a2,-1912(s0)
    1c7c:	f6043603          	ld	a2,-160(s0)
    1c80:	02c50933          	mul	s2,a0,a2
    1c84:	8a843603          	ld	a2,-1880(s0)
    1c88:	00c90633          	add	a2,s2,a2
    1c8c:	8ac43423          	sd	a2,-1880(s0)
    1c90:	02d50933          	mul	s2,a0,a3
    1c94:	8a043603          	ld	a2,-1888(s0)
    1c98:	00c90633          	add	a2,s2,a2
    1c9c:	8ac43023          	sd	a2,-1888(s0)
    1ca0:	02b50933          	mul	s2,a0,a1
    1ca4:	89843603          	ld	a2,-1896(s0)
    1ca8:	00c90633          	add	a2,s2,a2
    1cac:	88c43c23          	sd	a2,-1896(s0)
    1cb0:	03150933          	mul	s2,a0,a7
    1cb4:	89043603          	ld	a2,-1904(s0)
    1cb8:	00c90633          	add	a2,s2,a2
    1cbc:	88c43823          	sd	a2,-1904(s0)
    1cc0:	03050933          	mul	s2,a0,a6
    1cc4:	8b043603          	ld	a2,-1872(s0)
    1cc8:	00c90633          	add	a2,s2,a2
    1ccc:	8ac43823          	sd	a2,-1872(s0)
    1cd0:	03450933          	mul	s2,a0,s4
    1cd4:	8b843603          	ld	a2,-1864(s0)
    1cd8:	00c90633          	add	a2,s2,a2
    1cdc:	8ac43c23          	sd	a2,-1864(s0)
    1ce0:	f5043683          	ld	a3,-176(s0)
    1ce4:	02d50933          	mul	s2,a0,a3
    1ce8:	8c043603          	ld	a2,-1856(s0)
    1cec:	00c90633          	add	a2,s2,a2
    1cf0:	8cc43023          	sd	a2,-1856(s0)
    1cf4:	e7043583          	ld	a1,-400(s0)
    1cf8:	02b50933          	mul	s2,a0,a1
    1cfc:	8c843603          	ld	a2,-1848(s0)
    1d00:	00c90633          	add	a2,s2,a2
    1d04:	8cc43423          	sd	a2,-1848(s0)
    1d08:	02e50933          	mul	s2,a0,a4
    1d0c:	8d043603          	ld	a2,-1840(s0)
    1d10:	00c90633          	add	a2,s2,a2
    1d14:	8cc43823          	sd	a2,-1840(s0)
    1d18:	ef943c23          	sd	s9,-264(s0)
    1d1c:	03950933          	mul	s2,a0,s9
    1d20:	8d843603          	ld	a2,-1832(s0)
    1d24:	00c90633          	add	a2,s2,a2
    1d28:	8cc43c23          	sd	a2,-1832(s0)
    1d2c:	ef843823          	sd	s8,-272(s0)
    1d30:	03850933          	mul	s2,a0,s8
    1d34:	8e043603          	ld	a2,-1824(s0)
    1d38:	00c90633          	add	a2,s2,a2
    1d3c:	8ec43023          	sd	a2,-1824(s0)
    1d40:	e9743c23          	sd	s7,-360(s0)
    1d44:	03750933          	mul	s2,a0,s7
    1d48:	8e843603          	ld	a2,-1816(s0)
    1d4c:	00c90633          	add	a2,s2,a2
    1d50:	8ec43423          	sd	a2,-1816(s0)
    1d54:	e9643823          	sd	s6,-368(s0)
    1d58:	03650933          	mul	s2,a0,s6
    1d5c:	8f043603          	ld	a2,-1808(s0)
    1d60:	00c90633          	add	a2,s2,a2
    1d64:	8ec43823          	sd	a2,-1808(s0)
    1d68:	03550933          	mul	s2,a0,s5
    1d6c:	8f843603          	ld	a2,-1800(s0)
    1d70:	00c90633          	add	a2,s2,a2
    1d74:	8ec43c23          	sd	a2,-1800(s0)
    1d78:	ed843883          	ld	a7,-296(s0)
    1d7c:	03150933          	mul	s2,a0,a7
    1d80:	90043603          	ld	a2,-1792(s0)
    1d84:	00c90633          	add	a2,s2,a2
    1d88:	90c43023          	sd	a2,-1792(s0)
    1d8c:	02650933          	mul	s2,a0,t1
    1d90:	90843603          	ld	a2,-1784(s0)
    1d94:	00c90633          	add	a2,s2,a2
    1d98:	90c43423          	sd	a2,-1784(s0)
    1d9c:	02550933          	mul	s2,a0,t0
    1da0:	91043603          	ld	a2,-1776(s0)
    1da4:	00c90633          	add	a2,s2,a2
    1da8:	90c43823          	sd	a2,-1776(s0)
    1dac:	02750933          	mul	s2,a0,t2
    1db0:	91843603          	ld	a2,-1768(s0)
    1db4:	00c90633          	add	a2,s2,a2
    1db8:	90c43c23          	sd	a2,-1768(s0)
    1dbc:	ee043e03          	ld	t3,-288(s0)
    1dc0:	03c50933          	mul	s2,a0,t3
    1dc4:	92043603          	ld	a2,-1760(s0)
    1dc8:	00c90633          	add	a2,s2,a2
    1dcc:	92c43023          	sd	a2,-1760(s0)
    1dd0:	03f50933          	mul	s2,a0,t6
    1dd4:	92843603          	ld	a2,-1752(s0)
    1dd8:	00c90633          	add	a2,s2,a2
    1ddc:	92c43423          	sd	a2,-1752(s0)
    1de0:	f7043383          	ld	t2,-144(s0)
    1de4:	02750933          	mul	s2,a0,t2
    1de8:	93043603          	ld	a2,-1744(s0)
    1dec:	00c90633          	add	a2,s2,a2
    1df0:	92c43823          	sd	a2,-1744(s0)
    1df4:	f3843f83          	ld	t6,-200(s0)
    1df8:	03f50933          	mul	s2,a0,t6
    1dfc:	93843603          	ld	a2,-1736(s0)
    1e00:	00c90633          	add	a2,s2,a2
    1e04:	92c43c23          	sd	a2,-1736(s0)
    1e08:	03350933          	mul	s2,a0,s3
    1e0c:	94043603          	ld	a2,-1728(s0)
    1e10:	00c90633          	add	a2,s2,a2
    1e14:	94c43023          	sd	a2,-1728(s0)
    1e18:	03d50933          	mul	s2,a0,t4
    1e1c:	94843603          	ld	a2,-1720(s0)
    1e20:	00c90633          	add	a2,s2,a2
    1e24:	94c43423          	sd	a2,-1720(s0)
    1e28:	ea043983          	ld	s3,-352(s0)
    1e2c:	03350933          	mul	s2,a0,s3
    1e30:	95043603          	ld	a2,-1712(s0)
    1e34:	00c90633          	add	a2,s2,a2
    1e38:	94c43823          	sd	a2,-1712(s0)
    1e3c:	02f50933          	mul	s2,a0,a5
    1e40:	95843603          	ld	a2,-1704(s0)
    1e44:	00c90633          	add	a2,s2,a2
    1e48:	94c43c23          	sd	a2,-1704(s0)
    1e4c:	02950933          	mul	s2,a0,s1
    1e50:	96043603          	ld	a2,-1696(s0)
    1e54:	00c90633          	add	a2,s2,a2
    1e58:	96c43023          	sd	a2,-1696(s0)
    1e5c:	03e50933          	mul	s2,a0,t5
    1e60:	96843603          	ld	a2,-1688(s0)
    1e64:	00c90633          	add	a2,s2,a2
    1e68:	96c43423          	sd	a2,-1688(s0)
    1e6c:	f0043a03          	ld	s4,-256(s0)
    1e70:	03450933          	mul	s2,a0,s4
    1e74:	97043603          	ld	a2,-1680(s0)
    1e78:	00c90633          	add	a2,s2,a2
    1e7c:	96c43823          	sd	a2,-1680(s0)
    1e80:	03a50933          	mul	s2,a0,s10
    1e84:	97843603          	ld	a2,-1672(s0)
    1e88:	00c90633          	add	a2,s2,a2
    1e8c:	96c43c23          	sd	a2,-1672(s0)
    1e90:	f8843603          	ld	a2,-120(s0)
    1e94:	24060903          	lb	s2,576(a2)
    1e98:	ec843d03          	ld	s10,-312(s0)
    1e9c:	03a50db3          	mul	s11,a0,s10
    1ea0:	98043603          	ld	a2,-1664(s0)
    1ea4:	00cd8633          	add	a2,s11,a2
    1ea8:	98c43023          	sd	a2,-1664(s0)
    1eac:	02150533          	mul	a0,a0,ra
    1eb0:	98843603          	ld	a2,-1656(s0)
    1eb4:	00c50633          	add	a2,a0,a2
    1eb8:	98c43423          	sd	a2,-1656(s0)
    1ebc:	f6043483          	ld	s1,-160(s0)
    1ec0:	02990533          	mul	a0,s2,s1
    1ec4:	9a843603          	ld	a2,-1624(s0)
    1ec8:	00c50633          	add	a2,a0,a2
    1ecc:	9ac43423          	sd	a2,-1624(s0)
    1ed0:	ea843803          	ld	a6,-344(s0)
    1ed4:	03090533          	mul	a0,s2,a6
    1ed8:	9a043603          	ld	a2,-1632(s0)
    1edc:	00c50633          	add	a2,a0,a2
    1ee0:	9ac43023          	sd	a2,-1632(s0)
    1ee4:	f4043f03          	ld	t5,-192(s0)
    1ee8:	03e90533          	mul	a0,s2,t5
    1eec:	99843603          	ld	a2,-1640(s0)
    1ef0:	00c50633          	add	a2,a0,a2
    1ef4:	98c43c23          	sd	a2,-1640(s0)
    1ef8:	f5843783          	ld	a5,-168(s0)
    1efc:	02f90533          	mul	a0,s2,a5
    1f00:	99043603          	ld	a2,-1648(s0)
    1f04:	00c50633          	add	a2,a0,a2
    1f08:	98c43823          	sd	a2,-1648(s0)
    1f0c:	f7843503          	ld	a0,-136(s0)
    1f10:	02a90533          	mul	a0,s2,a0
    1f14:	9b043603          	ld	a2,-1616(s0)
    1f18:	00c50633          	add	a2,a0,a2
    1f1c:	9ac43823          	sd	a2,-1616(s0)
    1f20:	f6843503          	ld	a0,-152(s0)
    1f24:	02a90533          	mul	a0,s2,a0
    1f28:	9b843603          	ld	a2,-1608(s0)
    1f2c:	00c50633          	add	a2,a0,a2
    1f30:	9ac43c23          	sd	a2,-1608(s0)
    1f34:	02d90533          	mul	a0,s2,a3
    1f38:	9c043603          	ld	a2,-1600(s0)
    1f3c:	00c50633          	add	a2,a0,a2
    1f40:	9cc43023          	sd	a2,-1600(s0)
    1f44:	02b90533          	mul	a0,s2,a1
    1f48:	9c843603          	ld	a2,-1592(s0)
    1f4c:	00c50633          	add	a2,a0,a2
    1f50:	9cc43423          	sd	a2,-1592(s0)
    1f54:	02e90533          	mul	a0,s2,a4
    1f58:	9d043603          	ld	a2,-1584(s0)
    1f5c:	00c50633          	add	a2,a0,a2
    1f60:	9cc43823          	sd	a2,-1584(s0)
    1f64:	03990533          	mul	a0,s2,s9
    1f68:	9d843603          	ld	a2,-1576(s0)
    1f6c:	00c50633          	add	a2,a0,a2
    1f70:	9cc43c23          	sd	a2,-1576(s0)
    1f74:	03890533          	mul	a0,s2,s8
    1f78:	9e043603          	ld	a2,-1568(s0)
    1f7c:	00c50633          	add	a2,a0,a2
    1f80:	9ec43023          	sd	a2,-1568(s0)
    1f84:	03790533          	mul	a0,s2,s7
    1f88:	9e843603          	ld	a2,-1560(s0)
    1f8c:	00c50633          	add	a2,a0,a2
    1f90:	9ec43423          	sd	a2,-1560(s0)
    1f94:	03690533          	mul	a0,s2,s6
    1f98:	9f043603          	ld	a2,-1552(s0)
    1f9c:	00c50633          	add	a2,a0,a2
    1fa0:	9ec43823          	sd	a2,-1552(s0)
    1fa4:	03590533          	mul	a0,s2,s5
    1fa8:	9f843603          	ld	a2,-1544(s0)
    1fac:	00c50633          	add	a2,a0,a2
    1fb0:	9ec43c23          	sd	a2,-1544(s0)
    1fb4:	03190533          	mul	a0,s2,a7
    1fb8:	a0043603          	ld	a2,-1536(s0)
    1fbc:	00c50633          	add	a2,a0,a2
    1fc0:	a0c43023          	sd	a2,-1536(s0)
    1fc4:	02690533          	mul	a0,s2,t1
    1fc8:	a0843603          	ld	a2,-1528(s0)
    1fcc:	00c50633          	add	a2,a0,a2
    1fd0:	a0c43423          	sd	a2,-1528(s0)
    1fd4:	00001537          	lui	a0,0x1
    1fd8:	40a40533          	sub	a0,s0,a0
    1fdc:	68553023          	sd	t0,1664(a0) # 1680 <.LBB52_5+0x2a8>
    1fe0:	02590533          	mul	a0,s2,t0
    1fe4:	a1043603          	ld	a2,-1520(s0)
    1fe8:	00c50633          	add	a2,a0,a2
    1fec:	a0c43823          	sd	a2,-1520(s0)
    1ff0:	ec043683          	ld	a3,-320(s0)
    1ff4:	02d90533          	mul	a0,s2,a3
    1ff8:	a1843603          	ld	a2,-1512(s0)
    1ffc:	00c50633          	add	a2,a0,a2
    2000:	a0c43c23          	sd	a2,-1512(s0)
    2004:	03c90533          	mul	a0,s2,t3
    2008:	a2043603          	ld	a2,-1504(s0)
    200c:	00c50633          	add	a2,a0,a2
    2010:	a2c43023          	sd	a2,-1504(s0)
    2014:	ee843e83          	ld	t4,-280(s0)
    2018:	03d90533          	mul	a0,s2,t4
    201c:	a2843603          	ld	a2,-1496(s0)
    2020:	00c50633          	add	a2,a0,a2
    2024:	a2c43423          	sd	a2,-1496(s0)
    2028:	02790533          	mul	a0,s2,t2
    202c:	a3043603          	ld	a2,-1488(s0)
    2030:	00c50633          	add	a2,a0,a2
    2034:	a2c43823          	sd	a2,-1488(s0)
    2038:	03f90533          	mul	a0,s2,t6
    203c:	a3843603          	ld	a2,-1480(s0)
    2040:	00c50633          	add	a2,a0,a2
    2044:	a2c43c23          	sd	a2,-1480(s0)
    2048:	f4843f83          	ld	t6,-184(s0)
    204c:	03f90533          	mul	a0,s2,t6
    2050:	a4043603          	ld	a2,-1472(s0)
    2054:	00c50633          	add	a2,a0,a2
    2058:	a4c43023          	sd	a2,-1472(s0)
    205c:	e8843c83          	ld	s9,-376(s0)
    2060:	03990533          	mul	a0,s2,s9
    2064:	a4843603          	ld	a2,-1464(s0)
    2068:	00c50633          	add	a2,a0,a2
    206c:	a4c43423          	sd	a2,-1464(s0)
    2070:	03390533          	mul	a0,s2,s3
    2074:	a5043603          	ld	a2,-1456(s0)
    2078:	00c50633          	add	a2,a0,a2
    207c:	a4c43823          	sd	a2,-1456(s0)
    2080:	ed043b03          	ld	s6,-304(s0)
    2084:	03690533          	mul	a0,s2,s6
    2088:	a5843603          	ld	a2,-1448(s0)
    208c:	00c50633          	add	a2,a0,a2
    2090:	a4c43c23          	sd	a2,-1448(s0)
    2094:	e7843383          	ld	t2,-392(s0)
    2098:	02790533          	mul	a0,s2,t2
    209c:	a6043603          	ld	a2,-1440(s0)
    20a0:	00c50633          	add	a2,a0,a2
    20a4:	a6c43023          	sd	a2,-1440(s0)
    20a8:	eb043c03          	ld	s8,-336(s0)
    20ac:	03890533          	mul	a0,s2,s8
    20b0:	a6843603          	ld	a2,-1432(s0)
    20b4:	00c50633          	add	a2,a0,a2
    20b8:	a6c43423          	sd	a2,-1432(s0)
    20bc:	03490533          	mul	a0,s2,s4
    20c0:	a7043603          	ld	a2,-1424(s0)
    20c4:	00c50633          	add	a2,a0,a2
    20c8:	a6c43823          	sd	a2,-1424(s0)
    20cc:	e6843983          	ld	s3,-408(s0)
    20d0:	03390533          	mul	a0,s2,s3
    20d4:	a7843603          	ld	a2,-1416(s0)
    20d8:	00c50633          	add	a2,a0,a2
    20dc:	a6c43c23          	sd	a2,-1416(s0)
    20e0:	f8843503          	ld	a0,-120(s0)
    20e4:	30050503          	lb	a0,768(a0)
    20e8:	03a90db3          	mul	s11,s2,s10
    20ec:	a8043603          	ld	a2,-1408(s0)
    20f0:	00cd8633          	add	a2,s11,a2
    20f4:	a8c43023          	sd	a2,-1408(s0)
    20f8:	02190933          	mul	s2,s2,ra
    20fc:	00008a13          	mv	s4,ra
    2100:	a8843603          	ld	a2,-1400(s0)
    2104:	00c90633          	add	a2,s2,a2
    2108:	a8c43423          	sd	a2,-1400(s0)
    210c:	02950933          	mul	s2,a0,s1
    2110:	aa843603          	ld	a2,-1368(s0)
    2114:	00c90633          	add	a2,s2,a2
    2118:	aac43423          	sd	a2,-1368(s0)
    211c:	03050933          	mul	s2,a0,a6
    2120:	aa043603          	ld	a2,-1376(s0)
    2124:	00c90633          	add	a2,s2,a2
    2128:	aac43023          	sd	a2,-1376(s0)
    212c:	03e50933          	mul	s2,a0,t5
    2130:	a9843603          	ld	a2,-1384(s0)
    2134:	00c90633          	add	a2,s2,a2
    2138:	a8c43c23          	sd	a2,-1384(s0)
    213c:	02f50933          	mul	s2,a0,a5
    2140:	a9043603          	ld	a2,-1392(s0)
    2144:	00c90633          	add	a2,s2,a2
    2148:	a8c43823          	sd	a2,-1392(s0)
    214c:	f7843583          	ld	a1,-136(s0)
    2150:	02b50933          	mul	s2,a0,a1
    2154:	ab043603          	ld	a2,-1360(s0)
    2158:	00c90633          	add	a2,s2,a2
    215c:	aac43823          	sd	a2,-1360(s0)
    2160:	f6843483          	ld	s1,-152(s0)
    2164:	02950933          	mul	s2,a0,s1
    2168:	ab843603          	ld	a2,-1352(s0)
    216c:	00c90633          	add	a2,s2,a2
    2170:	aac43c23          	sd	a2,-1352(s0)
    2174:	f5043b83          	ld	s7,-176(s0)
    2178:	03750933          	mul	s2,a0,s7
    217c:	ac043603          	ld	a2,-1344(s0)
    2180:	00c90633          	add	a2,s2,a2
    2184:	acc43023          	sd	a2,-1344(s0)
    2188:	e7043083          	ld	ra,-400(s0)
    218c:	02150933          	mul	s2,a0,ra
    2190:	ac843603          	ld	a2,-1336(s0)
    2194:	00c90633          	add	a2,s2,a2
    2198:	acc43423          	sd	a2,-1336(s0)
    219c:	02e50933          	mul	s2,a0,a4
    21a0:	ad043603          	ld	a2,-1328(s0)
    21a4:	00c90633          	add	a2,s2,a2
    21a8:	acc43823          	sd	a2,-1328(s0)
    21ac:	ef843603          	ld	a2,-264(s0)
    21b0:	02c50933          	mul	s2,a0,a2
    21b4:	ad843603          	ld	a2,-1320(s0)
    21b8:	00c90633          	add	a2,s2,a2
    21bc:	acc43c23          	sd	a2,-1320(s0)
    21c0:	ef043603          	ld	a2,-272(s0)
    21c4:	02c50933          	mul	s2,a0,a2
    21c8:	ae043603          	ld	a2,-1312(s0)
    21cc:	00c90633          	add	a2,s2,a2
    21d0:	aec43023          	sd	a2,-1312(s0)
    21d4:	e9843603          	ld	a2,-360(s0)
    21d8:	02c50933          	mul	s2,a0,a2
    21dc:	ae843603          	ld	a2,-1304(s0)
    21e0:	00c90633          	add	a2,s2,a2
    21e4:	aec43423          	sd	a2,-1304(s0)
    21e8:	e9043603          	ld	a2,-368(s0)
    21ec:	02c50933          	mul	s2,a0,a2
    21f0:	af043603          	ld	a2,-1296(s0)
    21f4:	00c90633          	add	a2,s2,a2
    21f8:	aec43823          	sd	a2,-1296(s0)
    21fc:	03550933          	mul	s2,a0,s5
    2200:	af843603          	ld	a2,-1288(s0)
    2204:	00c90633          	add	a2,s2,a2
    2208:	aec43c23          	sd	a2,-1288(s0)
    220c:	03150933          	mul	s2,a0,a7
    2210:	b0043603          	ld	a2,-1280(s0)
    2214:	00c90633          	add	a2,s2,a2
    2218:	b0c43023          	sd	a2,-1280(s0)
    221c:	02650933          	mul	s2,a0,t1
    2220:	b0843603          	ld	a2,-1272(s0)
    2224:	00c90633          	add	a2,s2,a2
    2228:	b0c43423          	sd	a2,-1272(s0)
    222c:	02550933          	mul	s2,a0,t0
    2230:	b1043603          	ld	a2,-1264(s0)
    2234:	00c90633          	add	a2,s2,a2
    2238:	b0c43823          	sd	a2,-1264(s0)
    223c:	00068713          	mv	a4,a3
    2240:	02d50933          	mul	s2,a0,a3
    2244:	b1843603          	ld	a2,-1256(s0)
    2248:	00c90633          	add	a2,s2,a2
    224c:	b0c43c23          	sd	a2,-1256(s0)
    2250:	03c50933          	mul	s2,a0,t3
    2254:	b2043603          	ld	a2,-1248(s0)
    2258:	00c90633          	add	a2,s2,a2
    225c:	b2c43023          	sd	a2,-1248(s0)
    2260:	03d50933          	mul	s2,a0,t4
    2264:	b2843603          	ld	a2,-1240(s0)
    2268:	00c90633          	add	a2,s2,a2
    226c:	b2c43423          	sd	a2,-1240(s0)
    2270:	f7043e83          	ld	t4,-144(s0)
    2274:	03d50933          	mul	s2,a0,t4
    2278:	b3043603          	ld	a2,-1232(s0)
    227c:	00c90633          	add	a2,s2,a2
    2280:	b2c43823          	sd	a2,-1232(s0)
    2284:	f3843303          	ld	t1,-200(s0)
    2288:	02650933          	mul	s2,a0,t1
    228c:	b3843603          	ld	a2,-1224(s0)
    2290:	00c90633          	add	a2,s2,a2
    2294:	b2c43c23          	sd	a2,-1224(s0)
    2298:	03f50933          	mul	s2,a0,t6
    229c:	b4043603          	ld	a2,-1216(s0)
    22a0:	00c90633          	add	a2,s2,a2
    22a4:	b4c43023          	sd	a2,-1216(s0)
    22a8:	000c8293          	mv	t0,s9
    22ac:	03950933          	mul	s2,a0,s9
    22b0:	b4843603          	ld	a2,-1208(s0)
    22b4:	00c90633          	add	a2,s2,a2
    22b8:	b4c43423          	sd	a2,-1208(s0)
    22bc:	ea043683          	ld	a3,-352(s0)
    22c0:	02d50933          	mul	s2,a0,a3
    22c4:	b5043603          	ld	a2,-1200(s0)
    22c8:	00c90633          	add	a2,s2,a2
    22cc:	b4c43823          	sd	a2,-1200(s0)
    22d0:	03650933          	mul	s2,a0,s6
    22d4:	b5843603          	ld	a2,-1192(s0)
    22d8:	00c90633          	add	a2,s2,a2
    22dc:	b4c43c23          	sd	a2,-1192(s0)
    22e0:	00038813          	mv	a6,t2
    22e4:	02750933          	mul	s2,a0,t2
    22e8:	b6043603          	ld	a2,-1184(s0)
    22ec:	00c90633          	add	a2,s2,a2
    22f0:	b6c43023          	sd	a2,-1184(s0)
    22f4:	000c0f13          	mv	t5,s8
    22f8:	03850933          	mul	s2,a0,s8
    22fc:	b6843603          	ld	a2,-1176(s0)
    2300:	00c90633          	add	a2,s2,a2
    2304:	b6c43423          	sd	a2,-1176(s0)
    2308:	f0043b03          	ld	s6,-256(s0)
    230c:	03650933          	mul	s2,a0,s6
    2310:	b7043603          	ld	a2,-1168(s0)
    2314:	00c90633          	add	a2,s2,a2
    2318:	b6c43823          	sd	a2,-1168(s0)
    231c:	03350933          	mul	s2,a0,s3
    2320:	b7843603          	ld	a2,-1160(s0)
    2324:	00c90633          	add	a2,s2,a2
    2328:	b6c43c23          	sd	a2,-1160(s0)
    232c:	f8843603          	ld	a2,-120(s0)
    2330:	3c060903          	lb	s2,960(a2)
    2334:	03a50db3          	mul	s11,a0,s10
    2338:	b8043603          	ld	a2,-1152(s0)
    233c:	00cd8633          	add	a2,s11,a2
    2340:	b8c43023          	sd	a2,-1152(s0)
    2344:	03450533          	mul	a0,a0,s4
    2348:	b8843603          	ld	a2,-1144(s0)
    234c:	00c50633          	add	a2,a0,a2
    2350:	b8c43423          	sd	a2,-1144(s0)
    2354:	f6043e03          	ld	t3,-160(s0)
    2358:	03c90533          	mul	a0,s2,t3
    235c:	ba843603          	ld	a2,-1112(s0)
    2360:	00c50633          	add	a2,a0,a2
    2364:	bac43423          	sd	a2,-1112(s0)
    2368:	ea843883          	ld	a7,-344(s0)
    236c:	03190533          	mul	a0,s2,a7
    2370:	ba043603          	ld	a2,-1120(s0)
    2374:	00c50633          	add	a2,a0,a2
    2378:	bac43023          	sd	a2,-1120(s0)
    237c:	f4043383          	ld	t2,-192(s0)
    2380:	02790533          	mul	a0,s2,t2
    2384:	b9843603          	ld	a2,-1128(s0)
    2388:	00c50633          	add	a2,a0,a2
    238c:	b8c43c23          	sd	a2,-1128(s0)
    2390:	02f90533          	mul	a0,s2,a5
    2394:	b9043603          	ld	a2,-1136(s0)
    2398:	00c50633          	add	a2,a0,a2
    239c:	b8c43823          	sd	a2,-1136(s0)
    23a0:	02b90533          	mul	a0,s2,a1
    23a4:	bb043603          	ld	a2,-1104(s0)
    23a8:	00c50633          	add	a2,a0,a2
    23ac:	bac43823          	sd	a2,-1104(s0)
    23b0:	02990533          	mul	a0,s2,s1
    23b4:	bb843603          	ld	a2,-1096(s0)
    23b8:	00c50633          	add	a2,a0,a2
    23bc:	bac43c23          	sd	a2,-1096(s0)
    23c0:	000b8493          	mv	s1,s7
    23c4:	03790533          	mul	a0,s2,s7
    23c8:	bc043603          	ld	a2,-1088(s0)
    23cc:	00c50633          	add	a2,a0,a2
    23d0:	bcc43023          	sd	a2,-1088(s0)
    23d4:	02190533          	mul	a0,s2,ra
    23d8:	bc843603          	ld	a2,-1080(s0)
    23dc:	00c50633          	add	a2,a0,a2
    23e0:	bcc43423          	sd	a2,-1080(s0)
    23e4:	eb843783          	ld	a5,-328(s0)
    23e8:	02f90533          	mul	a0,s2,a5
    23ec:	bd043603          	ld	a2,-1072(s0)
    23f0:	00c50633          	add	a2,a0,a2
    23f4:	bcc43823          	sd	a2,-1072(s0)
    23f8:	ef843c83          	ld	s9,-264(s0)
    23fc:	03990533          	mul	a0,s2,s9
    2400:	bd843603          	ld	a2,-1064(s0)
    2404:	00c50633          	add	a2,a0,a2
    2408:	bcc43c23          	sd	a2,-1064(s0)
    240c:	ef043c03          	ld	s8,-272(s0)
    2410:	03890533          	mul	a0,s2,s8
    2414:	be043603          	ld	a2,-1056(s0)
    2418:	00c50633          	add	a2,a0,a2
    241c:	bec43023          	sd	a2,-1056(s0)
    2420:	e9843b83          	ld	s7,-360(s0)
    2424:	03790533          	mul	a0,s2,s7
    2428:	be843603          	ld	a2,-1048(s0)
    242c:	00c50633          	add	a2,a0,a2
    2430:	bec43423          	sd	a2,-1048(s0)
    2434:	e9043583          	ld	a1,-368(s0)
    2438:	02b90533          	mul	a0,s2,a1
    243c:	bf043603          	ld	a2,-1040(s0)
    2440:	00c50633          	add	a2,a0,a2
    2444:	bec43823          	sd	a2,-1040(s0)
    2448:	03590533          	mul	a0,s2,s5
    244c:	000a8f93          	mv	t6,s5
    2450:	bf843603          	ld	a2,-1032(s0)
    2454:	00c50633          	add	a2,a0,a2
    2458:	bec43c23          	sd	a2,-1032(s0)
    245c:	ed843503          	ld	a0,-296(s0)
    2460:	02a90533          	mul	a0,s2,a0
    2464:	c0043603          	ld	a2,-1024(s0)
    2468:	00c50633          	add	a2,a0,a2
    246c:	c0c43023          	sd	a2,-1024(s0)
    2470:	e8043a83          	ld	s5,-384(s0)
    2474:	03590533          	mul	a0,s2,s5
    2478:	c0843603          	ld	a2,-1016(s0)
    247c:	00c50633          	add	a2,a0,a2
    2480:	c0c43423          	sd	a2,-1016(s0)
    2484:	00001537          	lui	a0,0x1
    2488:	40a40533          	sub	a0,s0,a0
    248c:	68053d03          	ld	s10,1664(a0) # 1680 <.LBB52_5+0x2a8>
    2490:	03a90533          	mul	a0,s2,s10
    2494:	c1043603          	ld	a2,-1008(s0)
    2498:	00c50633          	add	a2,a0,a2
    249c:	c0c43823          	sd	a2,-1008(s0)
    24a0:	02e90533          	mul	a0,s2,a4
    24a4:	c1843603          	ld	a2,-1000(s0)
    24a8:	00c50633          	add	a2,a0,a2
    24ac:	c0c43c23          	sd	a2,-1000(s0)
    24b0:	ee043503          	ld	a0,-288(s0)
    24b4:	02a90533          	mul	a0,s2,a0
    24b8:	c2043603          	ld	a2,-992(s0)
    24bc:	00c50633          	add	a2,a0,a2
    24c0:	c2c43023          	sd	a2,-992(s0)
    24c4:	ee843503          	ld	a0,-280(s0)
    24c8:	02a90533          	mul	a0,s2,a0
    24cc:	c2843603          	ld	a2,-984(s0)
    24d0:	00c50633          	add	a2,a0,a2
    24d4:	c2c43423          	sd	a2,-984(s0)
    24d8:	03d90533          	mul	a0,s2,t4
    24dc:	c3043603          	ld	a2,-976(s0)
    24e0:	00c50633          	add	a2,a0,a2
    24e4:	c2c43823          	sd	a2,-976(s0)
    24e8:	02690533          	mul	a0,s2,t1
    24ec:	c3843603          	ld	a2,-968(s0)
    24f0:	00c50633          	add	a2,a0,a2
    24f4:	c2c43c23          	sd	a2,-968(s0)
    24f8:	f4843503          	ld	a0,-184(s0)
    24fc:	02a90533          	mul	a0,s2,a0
    2500:	c4043603          	ld	a2,-960(s0)
    2504:	00c50633          	add	a2,a0,a2
    2508:	c4c43023          	sd	a2,-960(s0)
    250c:	02590533          	mul	a0,s2,t0
    2510:	00028713          	mv	a4,t0
    2514:	c4843603          	ld	a2,-952(s0)
    2518:	00c50633          	add	a2,a0,a2
    251c:	c4c43423          	sd	a2,-952(s0)
    2520:	02d90533          	mul	a0,s2,a3
    2524:	c5043603          	ld	a2,-944(s0)
    2528:	00c50633          	add	a2,a0,a2
    252c:	c4c43823          	sd	a2,-944(s0)
    2530:	ed043503          	ld	a0,-304(s0)
    2534:	02a90533          	mul	a0,s2,a0
    2538:	c5843603          	ld	a2,-936(s0)
    253c:	00c50633          	add	a2,a0,a2
    2540:	c4c43c23          	sd	a2,-936(s0)
    2544:	03090533          	mul	a0,s2,a6
    2548:	00080693          	mv	a3,a6
    254c:	c6043603          	ld	a2,-928(s0)
    2550:	00c50633          	add	a2,a0,a2
    2554:	c6c43023          	sd	a2,-928(s0)
    2558:	03e90533          	mul	a0,s2,t5
    255c:	c6843603          	ld	a2,-920(s0)
    2560:	00c50633          	add	a2,a0,a2
    2564:	c6c43423          	sd	a2,-920(s0)
    2568:	03690533          	mul	a0,s2,s6
    256c:	c7043603          	ld	a2,-912(s0)
    2570:	00c50633          	add	a2,a0,a2
    2574:	c6c43823          	sd	a2,-912(s0)
    2578:	03390533          	mul	a0,s2,s3
    257c:	c7843603          	ld	a2,-904(s0)
    2580:	00c50633          	add	a2,a0,a2
    2584:	c6c43c23          	sd	a2,-904(s0)
    2588:	f8843503          	ld	a0,-120(s0)
    258c:	48050503          	lb	a0,1152(a0)
    2590:	ec843603          	ld	a2,-312(s0)
    2594:	02c90db3          	mul	s11,s2,a2
    2598:	c8043603          	ld	a2,-896(s0)
    259c:	00cd8633          	add	a2,s11,a2
    25a0:	c8c43023          	sd	a2,-896(s0)
    25a4:	03490933          	mul	s2,s2,s4
    25a8:	c8843603          	ld	a2,-888(s0)
    25ac:	00c90633          	add	a2,s2,a2
    25b0:	c8c43423          	sd	a2,-888(s0)
    25b4:	03c50933          	mul	s2,a0,t3
    25b8:	ca843603          	ld	a2,-856(s0)
    25bc:	00c90633          	add	a2,s2,a2
    25c0:	cac43423          	sd	a2,-856(s0)
    25c4:	03150933          	mul	s2,a0,a7
    25c8:	ca043603          	ld	a2,-864(s0)
    25cc:	00c90633          	add	a2,s2,a2
    25d0:	cac43023          	sd	a2,-864(s0)
    25d4:	02750933          	mul	s2,a0,t2
    25d8:	c9843603          	ld	a2,-872(s0)
    25dc:	00c90633          	add	a2,s2,a2
    25e0:	c8c43c23          	sd	a2,-872(s0)
    25e4:	f5843603          	ld	a2,-168(s0)
    25e8:	02c50933          	mul	s2,a0,a2
    25ec:	c9043603          	ld	a2,-880(s0)
    25f0:	00c90633          	add	a2,s2,a2
    25f4:	c8c43823          	sd	a2,-880(s0)
    25f8:	f7843603          	ld	a2,-136(s0)
    25fc:	02c50933          	mul	s2,a0,a2
    2600:	cb043603          	ld	a2,-848(s0)
    2604:	00c90633          	add	a2,s2,a2
    2608:	cac43823          	sd	a2,-848(s0)
    260c:	f6843603          	ld	a2,-152(s0)
    2610:	02c50933          	mul	s2,a0,a2
    2614:	cb843603          	ld	a2,-840(s0)
    2618:	00c90633          	add	a2,s2,a2
    261c:	cac43c23          	sd	a2,-840(s0)
    2620:	02950933          	mul	s2,a0,s1
    2624:	cc043603          	ld	a2,-832(s0)
    2628:	00c90633          	add	a2,s2,a2
    262c:	ccc43023          	sd	a2,-832(s0)
    2630:	02150933          	mul	s2,a0,ra
    2634:	cc843603          	ld	a2,-824(s0)
    2638:	00c90633          	add	a2,s2,a2
    263c:	ccc43423          	sd	a2,-824(s0)
    2640:	02f50933          	mul	s2,a0,a5
    2644:	cd043603          	ld	a2,-816(s0)
    2648:	00c90633          	add	a2,s2,a2
    264c:	ccc43823          	sd	a2,-816(s0)
    2650:	03950933          	mul	s2,a0,s9
    2654:	cd843603          	ld	a2,-808(s0)
    2658:	00c90633          	add	a2,s2,a2
    265c:	ccc43c23          	sd	a2,-808(s0)
    2660:	03850933          	mul	s2,a0,s8
    2664:	ce043603          	ld	a2,-800(s0)
    2668:	00c90633          	add	a2,s2,a2
    266c:	cec43023          	sd	a2,-800(s0)
    2670:	03750933          	mul	s2,a0,s7
    2674:	000b8c93          	mv	s9,s7
    2678:	ce843603          	ld	a2,-792(s0)
    267c:	00c90633          	add	a2,s2,a2
    2680:	cec43423          	sd	a2,-792(s0)
    2684:	02b50933          	mul	s2,a0,a1
    2688:	00058c13          	mv	s8,a1
    268c:	cf043603          	ld	a2,-784(s0)
    2690:	00c90633          	add	a2,s2,a2
    2694:	cec43823          	sd	a2,-784(s0)
    2698:	000f8b93          	mv	s7,t6
    269c:	03f50933          	mul	s2,a0,t6
    26a0:	cf843603          	ld	a2,-776(s0)
    26a4:	00c90633          	add	a2,s2,a2
    26a8:	cec43c23          	sd	a2,-776(s0)
    26ac:	ed843f83          	ld	t6,-296(s0)
    26b0:	03f50933          	mul	s2,a0,t6
    26b4:	d0043603          	ld	a2,-768(s0)
    26b8:	00c90633          	add	a2,s2,a2
    26bc:	d0c43023          	sd	a2,-768(s0)
    26c0:	000a8e93          	mv	t4,s5
    26c4:	03550933          	mul	s2,a0,s5
    26c8:	d0843603          	ld	a2,-760(s0)
    26cc:	00c90633          	add	a2,s2,a2
    26d0:	d0c43423          	sd	a2,-760(s0)
    26d4:	000d0313          	mv	t1,s10
    26d8:	03a50933          	mul	s2,a0,s10
    26dc:	d1043603          	ld	a2,-752(s0)
    26e0:	00c90633          	add	a2,s2,a2
    26e4:	d0c43823          	sd	a2,-752(s0)
    26e8:	ec043a83          	ld	s5,-320(s0)
    26ec:	03550933          	mul	s2,a0,s5
    26f0:	d1843603          	ld	a2,-744(s0)
    26f4:	00c90633          	add	a2,s2,a2
    26f8:	d0c43c23          	sd	a2,-744(s0)
    26fc:	ee043283          	ld	t0,-288(s0)
    2700:	02550933          	mul	s2,a0,t0
    2704:	d2043603          	ld	a2,-736(s0)
    2708:	00c90633          	add	a2,s2,a2
    270c:	d2c43023          	sd	a2,-736(s0)
    2710:	ee843e03          	ld	t3,-280(s0)
    2714:	03c50933          	mul	s2,a0,t3
    2718:	d2843603          	ld	a2,-728(s0)
    271c:	00c90633          	add	a2,s2,a2
    2720:	d2c43423          	sd	a2,-728(s0)
    2724:	f7043883          	ld	a7,-144(s0)
    2728:	03150933          	mul	s2,a0,a7
    272c:	d3043603          	ld	a2,-720(s0)
    2730:	00c90633          	add	a2,s2,a2
    2734:	d2c43823          	sd	a2,-720(s0)
    2738:	f3843383          	ld	t2,-200(s0)
    273c:	02750933          	mul	s2,a0,t2
    2740:	d3843603          	ld	a2,-712(s0)
    2744:	00c90633          	add	a2,s2,a2
    2748:	d2c43c23          	sd	a2,-712(s0)
    274c:	f4843803          	ld	a6,-184(s0)
    2750:	03050933          	mul	s2,a0,a6
    2754:	d4043603          	ld	a2,-704(s0)
    2758:	00c90633          	add	a2,s2,a2
    275c:	d4c43023          	sd	a2,-704(s0)
    2760:	00070493          	mv	s1,a4
    2764:	02e50933          	mul	s2,a0,a4
    2768:	d4843603          	ld	a2,-696(s0)
    276c:	00c90633          	add	a2,s2,a2
    2770:	d4c43423          	sd	a2,-696(s0)
    2774:	ea043703          	ld	a4,-352(s0)
    2778:	02e50933          	mul	s2,a0,a4
    277c:	d5043603          	ld	a2,-688(s0)
    2780:	00c90633          	add	a2,s2,a2
    2784:	d4c43823          	sd	a2,-688(s0)
    2788:	ed043f03          	ld	t5,-304(s0)
    278c:	03e50933          	mul	s2,a0,t5
    2790:	d5843603          	ld	a2,-680(s0)
    2794:	00c90633          	add	a2,s2,a2
    2798:	d4c43c23          	sd	a2,-680(s0)
    279c:	02d50933          	mul	s2,a0,a3
    27a0:	d6043603          	ld	a2,-672(s0)
    27a4:	00c90633          	add	a2,s2,a2
    27a8:	d6c43023          	sd	a2,-672(s0)
    27ac:	eb043583          	ld	a1,-336(s0)
    27b0:	02b50933          	mul	s2,a0,a1
    27b4:	d6843603          	ld	a2,-664(s0)
    27b8:	00c90633          	add	a2,s2,a2
    27bc:	d6c43423          	sd	a2,-664(s0)
    27c0:	03650933          	mul	s2,a0,s6
    27c4:	d7043603          	ld	a2,-656(s0)
    27c8:	00c90633          	add	a2,s2,a2
    27cc:	d6c43823          	sd	a2,-656(s0)
    27d0:	03350933          	mul	s2,a0,s3
    27d4:	d7843603          	ld	a2,-648(s0)
    27d8:	00c90633          	add	a2,s2,a2
    27dc:	d6c43c23          	sd	a2,-648(s0)
    27e0:	f8843603          	ld	a2,-120(s0)
    27e4:	54060903          	lb	s2,1344(a2)
    27e8:	ec843d03          	ld	s10,-312(s0)
    27ec:	03a50db3          	mul	s11,a0,s10
    27f0:	d8043603          	ld	a2,-640(s0)
    27f4:	00cd8633          	add	a2,s11,a2
    27f8:	d8c43023          	sd	a2,-640(s0)
    27fc:	03450533          	mul	a0,a0,s4
    2800:	d8843603          	ld	a2,-632(s0)
    2804:	00c50633          	add	a2,a0,a2
    2808:	d8c43423          	sd	a2,-632(s0)
    280c:	03490533          	mul	a0,s2,s4
    2810:	00001637          	lui	a2,0x1
    2814:	40c40633          	sub	a2,s0,a2
    2818:	66a63c23          	sd	a0,1656(a2) # 1678 <.LBB52_5+0x2a0>
    281c:	03a90533          	mul	a0,s2,s10
    2820:	eca43423          	sd	a0,-312(s0)
    2824:	03390533          	mul	a0,s2,s3
    2828:	e6a43423          	sd	a0,-408(s0)
    282c:	03690533          	mul	a0,s2,s6
    2830:	00001637          	lui	a2,0x1
    2834:	40c40633          	sub	a2,s0,a2
    2838:	66a63823          	sd	a0,1648(a2) # 1670 <.LBB52_5+0x298>
    283c:	02b90533          	mul	a0,s2,a1
    2840:	000015b7          	lui	a1,0x1
    2844:	40b405b3          	sub	a1,s0,a1
    2848:	66a5b423          	sd	a0,1640(a1) # 1668 <.LBB52_5+0x290>
    284c:	02d90533          	mul	a0,s2,a3
    2850:	eaa43823          	sd	a0,-336(s0)
    2854:	03e90533          	mul	a0,s2,t5
    2858:	f0a43023          	sd	a0,-256(s0)
    285c:	02e90533          	mul	a0,s2,a4
    2860:	eca43823          	sd	a0,-304(s0)
    2864:	02990533          	mul	a0,s2,s1
    2868:	eaa43023          	sd	a0,-352(s0)
    286c:	03090533          	mul	a0,s2,a6
    2870:	f4a43423          	sd	a0,-184(s0)
    2874:	027909b3          	mul	s3,s2,t2
    2878:	031904b3          	mul	s1,s2,a7
    287c:	03c90f33          	mul	t5,s2,t3
    2880:	02590e33          	mul	t3,s2,t0
    2884:	035903b3          	mul	t2,s2,s5
    2888:	026908b3          	mul	a7,s2,t1
    288c:	03d90833          	mul	a6,s2,t4
    2890:	03f90a33          	mul	s4,s2,t6
    2894:	03790ab3          	mul	s5,s2,s7
    2898:	03890b33          	mul	s6,s2,s8
    289c:	03990bb3          	mul	s7,s2,s9
    28a0:	ef043503          	ld	a0,-272(s0)
    28a4:	02a90c33          	mul	s8,s2,a0
    28a8:	ef843503          	ld	a0,-264(s0)
    28ac:	02a90cb3          	mul	s9,s2,a0
    28b0:	eb843503          	ld	a0,-328(s0)
    28b4:	02a90d33          	mul	s10,s2,a0
    28b8:	02190db3          	mul	s11,s2,ra
    28bc:	f5043503          	ld	a0,-176(s0)
    28c0:	02a90733          	mul	a4,s2,a0
    28c4:	f6843503          	ld	a0,-152(s0)
    28c8:	02a900b3          	mul	ra,s2,a0
    28cc:	f7843503          	ld	a0,-136(s0)
    28d0:	02a906b3          	mul	a3,s2,a0
    28d4:	f5843503          	ld	a0,-168(s0)
    28d8:	02a90633          	mul	a2,s2,a0
    28dc:	f4043503          	ld	a0,-192(s0)
    28e0:	02a905b3          	mul	a1,s2,a0
    28e4:	ea843503          	ld	a0,-344(s0)
    28e8:	02a90533          	mul	a0,s2,a0
    28ec:	f6043783          	ld	a5,-160(s0)
    28f0:	02f90933          	mul	s2,s2,a5
    28f4:	da843783          	ld	a5,-600(s0)
    28f8:	00f907b3          	add	a5,s2,a5
    28fc:	daf43423          	sd	a5,-600(s0)
    2900:	da043783          	ld	a5,-608(s0)
    2904:	00f507b3          	add	a5,a0,a5
    2908:	daf43023          	sd	a5,-608(s0)
    290c:	d9843503          	ld	a0,-616(s0)
    2910:	00a58533          	add	a0,a1,a0
    2914:	d8a43c23          	sd	a0,-616(s0)
    2918:	d9043503          	ld	a0,-624(s0)
    291c:	00a60533          	add	a0,a2,a0
    2920:	d8a43823          	sd	a0,-624(s0)
    2924:	db043503          	ld	a0,-592(s0)
    2928:	00a68533          	add	a0,a3,a0
    292c:	daa43823          	sd	a0,-592(s0)
    2930:	db843503          	ld	a0,-584(s0)
    2934:	00a08533          	add	a0,ra,a0
    2938:	daa43c23          	sd	a0,-584(s0)
    293c:	dd843083          	ld	ra,-552(s0)
    2940:	e5843903          	ld	s2,-424(s0)
    2944:	dc043503          	ld	a0,-576(s0)
    2948:	00a70533          	add	a0,a4,a0
    294c:	dca43023          	sd	a0,-576(s0)
    2950:	dc843503          	ld	a0,-568(s0)
    2954:	00ad8533          	add	a0,s11,a0
    2958:	dca43423          	sd	a0,-568(s0)
    295c:	de843d83          	ld	s11,-536(s0)
    2960:	dd043503          	ld	a0,-560(s0)
    2964:	00ad0533          	add	a0,s10,a0
    2968:	dca43823          	sd	a0,-560(s0)
    296c:	df043d03          	ld	s10,-528(s0)
    2970:	001c80b3          	add	ra,s9,ra
    2974:	df843c83          	ld	s9,-520(s0)
    2978:	de043503          	ld	a0,-544(s0)
    297c:	00ac0533          	add	a0,s8,a0
    2980:	dea43023          	sd	a0,-544(s0)
    2984:	e0043c03          	ld	s8,-512(s0)
    2988:	01bb8db3          	add	s11,s7,s11
    298c:	e0843b83          	ld	s7,-504(s0)
    2990:	01ab0d33          	add	s10,s6,s10
    2994:	e1043b03          	ld	s6,-496(s0)
    2998:	019a8cb3          	add	s9,s5,s9
    299c:	e1843a83          	ld	s5,-488(s0)
    29a0:	018a0c33          	add	s8,s4,s8
    29a4:	e2043a03          	ld	s4,-480(s0)
    29a8:	01780bb3          	add	s7,a6,s7
    29ac:	e3043303          	ld	t1,-464(s0)
    29b0:	01688b33          	add	s6,a7,s6
    29b4:	e3843283          	ld	t0,-456(s0)
    29b8:	01538ab3          	add	s5,t2,s5
    29bc:	014e0a33          	add	s4,t3,s4
    29c0:	e2843383          	ld	t2,-472(s0)
    29c4:	f0843503          	ld	a0,-248(s0)
    29c8:	00af0533          	add	a0,t5,a0
    29cc:	f0a43423          	sd	a0,-248(s0)
    29d0:	f0843e03          	ld	t3,-248(s0)
    29d4:	f1043503          	ld	a0,-240(s0)
    29d8:	00a48533          	add	a0,s1,a0
    29dc:	000015b7          	lui	a1,0x1
    29e0:	40b405b3          	sub	a1,s0,a1
    29e4:	6885be83          	ld	t4,1672(a1) # 1688 <.LBB52_5+0x2b0>
    29e8:	f0a43823          	sd	a0,-240(s0)
    29ec:	f1043703          	ld	a4,-240(s0)
    29f0:	f1843503          	ld	a0,-232(s0)
    29f4:	00a98533          	add	a0,s3,a0
    29f8:	f8843f03          	ld	t5,-120(s0)
    29fc:	f0a43c23          	sd	a0,-232(s0)
    2a00:	f1843683          	ld	a3,-232(s0)
    2a04:	f2043503          	ld	a0,-224(s0)
    2a08:	f4843583          	ld	a1,-184(s0)
    2a0c:	00a58533          	add	a0,a1,a0
    2a10:	f2a43023          	sd	a0,-224(s0)
    2a14:	f2043603          	ld	a2,-224(s0)
    2a18:	e5043883          	ld	a7,-432(s0)
    2a1c:	f2843503          	ld	a0,-216(s0)
    2a20:	ea043583          	ld	a1,-352(s0)
    2a24:	00a58533          	add	a0,a1,a0
    2a28:	f2a43423          	sd	a0,-216(s0)
    2a2c:	f2843583          	ld	a1,-216(s0)
    2a30:	f3043503          	ld	a0,-208(s0)
    2a34:	ed043783          	ld	a5,-304(s0)
    2a38:	00a78533          	add	a0,a5,a0
    2a3c:	f2a43823          	sd	a0,-208(s0)
    2a40:	f3043503          	ld	a0,-208(s0)
    2a44:	f0043783          	ld	a5,-256(s0)
    2a48:	007783b3          	add	t2,a5,t2
    2a4c:	e4043803          	ld	a6,-448(s0)
    2a50:	eb043783          	ld	a5,-336(s0)
    2a54:	00678333          	add	t1,a5,t1
    2a58:	f8043783          	ld	a5,-128(s0)
    2a5c:	00001fb7          	lui	t6,0x1
    2a60:	41f40fb3          	sub	t6,s0,t6
    2a64:	668fbf83          	ld	t6,1640(t6) # 1668 <.LBB52_5+0x290>
    2a68:	005f82b3          	add	t0,t6,t0
    2a6c:	00001fb7          	lui	t6,0x1
    2a70:	41f40fb3          	sub	t6,s0,t6
    2a74:	670fbf83          	ld	t6,1648(t6) # 1670 <.LBB52_5+0x298>
    2a78:	010f8833          	add	a6,t6,a6
    2a7c:	e4843f83          	ld	t6,-440(s0)
    2a80:	e6843483          	ld	s1,-408(s0)
    2a84:	01f48fb3          	add	t6,s1,t6
    2a88:	e5f43423          	sd	t6,-440(s0)
    2a8c:	ec843f83          	ld	t6,-312(s0)
    2a90:	011f88b3          	add	a7,t6,a7
    2a94:	00001fb7          	lui	t6,0x1
    2a98:	41f40fb3          	sub	t6,s0,t6
    2a9c:	678fbf83          	ld	t6,1656(t6) # 1678 <.LBB52_5+0x2a0>
    2aa0:	012f8933          	add	s2,t6,s2
    2aa4:	fc0e8e93          	addi	t4,t4,-64 # 2fc0 <.LBB52_24+0x134>
    2aa8:	04078793          	addi	a5,a5,64
    2aac:	001f0f13          	addi	t5,t5,1
    2ab0:	000e8463          	beqz	t4,2ab8 <.LBB52_6>
    2ab4:	925fe06f          	j	13d8 <.LBB52_5>

0000000000002ab8 <.LBB52_6>:
    2ab8:	00001537          	lui	a0,0x1
    2abc:	40a40533          	sub	a0,s0,a0
    2ac0:	6a853f03          	ld	t5,1704(a0) # 16a8 <.LBB52_5+0x2d0>
    2ac4:	00001537          	lui	a0,0x1
    2ac8:	40a40533          	sub	a0,s0,a0
    2acc:	6b053983          	ld	s3,1712(a0) # 16b0 <.LBB52_5+0x2d8>
    2ad0:	00001537          	lui	a0,0x1
    2ad4:	40a40533          	sub	a0,s0,a0
    2ad8:	6a053483          	ld	s1,1696(a0) # 16a0 <.LBB52_5+0x2c8>
    2adc:	00001537          	lui	a0,0x1
    2ae0:	40a40533          	sub	a0,s0,a0
    2ae4:	69853f83          	ld	t6,1688(a0) # 1698 <.LBB52_5+0x2c0>
    2ae8:	00001537          	lui	a0,0x1
    2aec:	40a40533          	sub	a0,s0,a0
    2af0:	69053e83          	ld	t4,1680(a0) # 1690 <.LBB52_5+0x2b8>
    2af4:	00001537          	lui	a0,0x1
    2af8:	40a40533          	sub	a0,s0,a0
    2afc:	65853503          	ld	a0,1624(a0) # 1658 <.LBB52_5+0x280>
    2b00:	00251513          	slli	a0,a0,0x2

0000000000002b04 <.Lpcrel_hi9>:
    2b04:	00000597          	auipc	a1,0x0
    2b08:	00058613          	mv	a2,a1
    2b0c:	000015b7          	lui	a1,0x1
    2b10:	40b405b3          	sub	a1,s0,a1
    2b14:	b8c5b023          	sd	a2,-1152(a1) # b80 <.LBB52_3+0x99c>
    2b18:	00a60633          	add	a2,a2,a0
    2b1c:	000015b7          	lui	a1,0x1
    2b20:	40b405b3          	sub	a1,s0,a1
    2b24:	6505b583          	ld	a1,1616(a1) # 1650 <.LBB52_5+0x278>
    2b28:	0005a583          	lw	a1,0(a1)
    2b2c:	000016b7          	lui	a3,0x1
    2b30:	40d406b3          	sub	a3,s0,a3
    2b34:	b886b683          	ld	a3,-1144(a3) # b88 <.LBB52_3+0x9a4>
    2b38:	00a68533          	add	a0,a3,a0
    2b3c:	00c52683          	lw	a3,12(a0)
    2b40:	00c62783          	lw	a5,12(a2)
    2b44:	01300713          	li	a4,19
    2b48:	02e585b3          	mul	a1,a1,a4
    2b4c:	00769713          	slli	a4,a3,0x7
    2b50:	eaf43423          	sd	a5,-344(s0)
    2b54:	000016b7          	lui	a3,0x1
    2b58:	40d406b3          	sub	a3,s0,a3
    2b5c:	6b86b683          	ld	a3,1720(a3) # 16b8 <.LBB52_5+0x2e0>
    2b60:	00f686b3          	add	a3,a3,a5
    2b64:	eae43023          	sd	a4,-352(s0)
    2b68:	00e686b3          	add	a3,a3,a4
    2b6c:	fff8e7b7          	lui	a5,0xfff8e
    2b70:	40f5873b          	subw	a4,a1,a5
    2b74:	40e6873b          	subw	a4,a3,a4
    2b78:	400006b7          	lui	a3,0x40000
    2b7c:	00001e37          	lui	t3,0x1
    2b80:	41c40e33          	sub	t3,s0,t3
    2b84:	68de3023          	sd	a3,1664(t3) # 1680 <.LBB52_5+0x2a8>
    2b88:	00001e37          	lui	t3,0x1
    2b8c:	41c40e33          	sub	t3,s0,t3
    2b90:	66ee3c23          	sd	a4,1656(t3) # 1678 <.LBB52_5+0x2a0>
    2b94:	00075463          	bgez	a4,2b9c <.LBB52_8>
    2b98:	c00006b7          	lui	a3,0xc0000

0000000000002b9c <.LBB52_8>:
    2b9c:	00001737          	lui	a4,0x1
    2ba0:	40e40733          	sub	a4,s0,a4
    2ba4:	66d73823          	sd	a3,1648(a4) # 1670 <.LBB52_5+0x298>
    2ba8:	00852683          	lw	a3,8(a0)
    2bac:	00862703          	lw	a4,8(a2)
    2bb0:	00769e13          	slli	t3,a3,0x7
    2bb4:	e8e43c23          	sd	a4,-360(s0)
    2bb8:	00ef06b3          	add	a3,t5,a4
    2bbc:	e9c43823          	sd	t3,-368(s0)
    2bc0:	01c686b3          	add	a3,a3,t3
    2bc4:	40f5873b          	subw	a4,a1,a5
    2bc8:	40e686bb          	subw	a3,a3,a4
    2bcc:	40000737          	lui	a4,0x40000
    2bd0:	00001e37          	lui	t3,0x1
    2bd4:	41c40e33          	sub	t3,s0,t3
    2bd8:	66de3423          	sd	a3,1640(t3) # 1668 <.LBB52_5+0x290>
    2bdc:	000e8f13          	mv	t5,t4
    2be0:	0006d463          	bgez	a3,2be8 <.LBB52_10>
    2be4:	c0000737          	lui	a4,0xc0000

0000000000002be8 <.LBB52_10>:
    2be8:	000016b7          	lui	a3,0x1
    2bec:	40d406b3          	sub	a3,s0,a3
    2bf0:	64e6b023          	sd	a4,1600(a3) # 1640 <.LBB52_5+0x268>
    2bf4:	00452683          	lw	a3,4(a0)
    2bf8:	00462703          	lw	a4,4(a2)
    2bfc:	00769e13          	slli	t3,a3,0x7
    2c00:	e8e43423          	sd	a4,-376(s0)
    2c04:	00e986b3          	add	a3,s3,a4
    2c08:	e9c43023          	sd	t3,-384(s0)
    2c0c:	01c686b3          	add	a3,a3,t3
    2c10:	40f5873b          	subw	a4,a1,a5
    2c14:	40e686bb          	subw	a3,a3,a4
    2c18:	40000737          	lui	a4,0x40000
    2c1c:	00001e37          	lui	t3,0x1
    2c20:	41c40e33          	sub	t3,s0,t3
    2c24:	62de3c23          	sd	a3,1592(t3) # 1638 <.LBB52_5+0x260>
    2c28:	00001e37          	lui	t3,0x1
    2c2c:	41c40e33          	sub	t3,s0,t3
    2c30:	6c0e3983          	ld	s3,1728(t3) # 16c0 <.LBB52_5+0x2e8>
    2c34:	00001e37          	lui	t3,0x1
    2c38:	41c40e33          	sub	t3,s0,t3
    2c3c:	6d0e3e83          	ld	t4,1744(t3) # 16d0 <.LBB52_5+0x2f8>
    2c40:	0006d463          	bgez	a3,2c48 <.LBB52_12>
    2c44:	c0000737          	lui	a4,0xc0000

0000000000002c48 <.LBB52_12>:
    2c48:	000016b7          	lui	a3,0x1
    2c4c:	40d406b3          	sub	a3,s0,a3
    2c50:	62e6b823          	sd	a4,1584(a3) # 1630 <.LBB52_5+0x258>
    2c54:	00052683          	lw	a3,0(a0)
    2c58:	00062703          	lw	a4,0(a2)
    2c5c:	00769e13          	slli	t3,a3,0x7
    2c60:	e6e43c23          	sd	a4,-392(s0)
    2c64:	000016b7          	lui	a3,0x1
    2c68:	40d406b3          	sub	a3,s0,a3
    2c6c:	6c86b683          	ld	a3,1736(a3) # 16c8 <.LBB52_5+0x2f0>
    2c70:	00e686b3          	add	a3,a3,a4
    2c74:	e7c43823          	sd	t3,-400(s0)
    2c78:	01c686b3          	add	a3,a3,t3
    2c7c:	40f5873b          	subw	a4,a1,a5
    2c80:	40e686bb          	subw	a3,a3,a4
    2c84:	40000737          	lui	a4,0x40000
    2c88:	00001e37          	lui	t3,0x1
    2c8c:	41c40e33          	sub	t3,s0,t3
    2c90:	62de3423          	sd	a3,1576(t3) # 1628 <.LBB52_5+0x250>
    2c94:	0006d463          	bgez	a3,2c9c <.LBB52_14>
    2c98:	c0000737          	lui	a4,0xc0000

0000000000002c9c <.LBB52_14>:
    2c9c:	000016b7          	lui	a3,0x1
    2ca0:	40d406b3          	sub	a3,s0,a3
    2ca4:	62e6b023          	sd	a4,1568(a3) # 1620 <.LBB52_5+0x248>
    2ca8:	01052683          	lw	a3,16(a0)
    2cac:	01062703          	lw	a4,16(a2)
    2cb0:	00769e13          	slli	t3,a3,0x7
    2cb4:	e6e43423          	sd	a4,-408(s0)
    2cb8:	00ee86b3          	add	a3,t4,a4
    2cbc:	00001737          	lui	a4,0x1
    2cc0:	40e40733          	sub	a4,s0,a4
    2cc4:	6dc73823          	sd	t3,1744(a4) # 16d0 <.LBB52_5+0x2f8>
    2cc8:	01c686b3          	add	a3,a3,t3
    2ccc:	40f5873b          	subw	a4,a1,a5
    2cd0:	40e686bb          	subw	a3,a3,a4
    2cd4:	40000737          	lui	a4,0x40000
    2cd8:	00001e37          	lui	t3,0x1
    2cdc:	41c40e33          	sub	t3,s0,t3
    2ce0:	60de3c23          	sd	a3,1560(t3) # 1618 <.LBB52_5+0x240>
    2ce4:	0006d463          	bgez	a3,2cec <.LBB52_16>
    2ce8:	c0000737          	lui	a4,0xc0000

0000000000002cec <.LBB52_16>:
    2cec:	000016b7          	lui	a3,0x1
    2cf0:	40d406b3          	sub	a3,s0,a3
    2cf4:	60e6b823          	sd	a4,1552(a3) # 1610 <.LBB52_5+0x238>
    2cf8:	01452683          	lw	a3,20(a0)
    2cfc:	01462703          	lw	a4,20(a2)
    2d00:	00769e13          	slli	t3,a3,0x7
    2d04:	000016b7          	lui	a3,0x1
    2d08:	40d406b3          	sub	a3,s0,a3
    2d0c:	6ce6b423          	sd	a4,1736(a3) # 16c8 <.LBB52_5+0x2f0>
    2d10:	00e986b3          	add	a3,s3,a4
    2d14:	00001737          	lui	a4,0x1
    2d18:	40e40733          	sub	a4,s0,a4
    2d1c:	6dc73023          	sd	t3,1728(a4) # 16c0 <.LBB52_5+0x2e8>
    2d20:	01c686b3          	add	a3,a3,t3
    2d24:	40f5873b          	subw	a4,a1,a5
    2d28:	40e686bb          	subw	a3,a3,a4
    2d2c:	40000737          	lui	a4,0x40000
    2d30:	00001e37          	lui	t3,0x1
    2d34:	41c40e33          	sub	t3,s0,t3
    2d38:	60de3423          	sd	a3,1544(t3) # 1608 <.LBB52_5+0x230>
    2d3c:	0006d463          	bgez	a3,2d44 <.LBB52_18>
    2d40:	c0000737          	lui	a4,0xc0000

0000000000002d44 <.LBB52_18>:
    2d44:	000016b7          	lui	a3,0x1
    2d48:	40d406b3          	sub	a3,s0,a3
    2d4c:	60e6b023          	sd	a4,1536(a3) # 1600 <.LBB52_5+0x228>
    2d50:	01852683          	lw	a3,24(a0)
    2d54:	01862703          	lw	a4,24(a2)
    2d58:	00769e13          	slli	t3,a3,0x7
    2d5c:	000016b7          	lui	a3,0x1
    2d60:	40d406b3          	sub	a3,s0,a3
    2d64:	6ae6bc23          	sd	a4,1720(a3) # 16b8 <.LBB52_5+0x2e0>
    2d68:	00e486b3          	add	a3,s1,a4
    2d6c:	00001737          	lui	a4,0x1
    2d70:	40e40733          	sub	a4,s0,a4
    2d74:	6bc73823          	sd	t3,1712(a4) # 16b0 <.LBB52_5+0x2d8>
    2d78:	01c686b3          	add	a3,a3,t3
    2d7c:	40f5873b          	subw	a4,a1,a5
    2d80:	40e686bb          	subw	a3,a3,a4
    2d84:	40000737          	lui	a4,0x40000
    2d88:	00001e37          	lui	t3,0x1
    2d8c:	41c40e33          	sub	t3,s0,t3
    2d90:	5ede3c23          	sd	a3,1528(t3) # 15f8 <.LBB52_5+0x220>
    2d94:	0006d463          	bgez	a3,2d9c <.LBB52_20>
    2d98:	c0000737          	lui	a4,0xc0000

0000000000002d9c <.LBB52_20>:
    2d9c:	000016b7          	lui	a3,0x1
    2da0:	40d406b3          	sub	a3,s0,a3
    2da4:	5ee6b823          	sd	a4,1520(a3) # 15f0 <.LBB52_5+0x218>
    2da8:	e5043023          	sd	a6,-448(s0)
    2dac:	01c52683          	lw	a3,28(a0)
    2db0:	01c62703          	lw	a4,28(a2)
    2db4:	00769813          	slli	a6,a3,0x7
    2db8:	000016b7          	lui	a3,0x1
    2dbc:	40d406b3          	sub	a3,s0,a3
    2dc0:	6ae6b423          	sd	a4,1704(a3) # 16a8 <.LBB52_5+0x2d0>
    2dc4:	00ef86b3          	add	a3,t6,a4
    2dc8:	00001737          	lui	a4,0x1
    2dcc:	40e40733          	sub	a4,s0,a4
    2dd0:	6b073023          	sd	a6,1696(a4) # 16a0 <.LBB52_5+0x2c8>
    2dd4:	010686b3          	add	a3,a3,a6
    2dd8:	40f5873b          	subw	a4,a1,a5
    2ddc:	40e686bb          	subw	a3,a3,a4
    2de0:	40000737          	lui	a4,0x40000
    2de4:	00001837          	lui	a6,0x1
    2de8:	41040833          	sub	a6,s0,a6
    2dec:	5ed83423          	sd	a3,1512(a6) # 15e8 <.LBB52_5+0x210>
    2df0:	0006d463          	bgez	a3,2df8 <.LBB52_22>
    2df4:	c0000737          	lui	a4,0xc0000

0000000000002df8 <.LBB52_22>:
    2df8:	000016b7          	lui	a3,0x1
    2dfc:	40d406b3          	sub	a3,s0,a3
    2e00:	5ee6b023          	sd	a4,1504(a3) # 15e0 <.LBB52_5+0x208>
    2e04:	dc143c23          	sd	ra,-552(s0)
    2e08:	dfb43423          	sd	s11,-536(s0)
    2e0c:	dfa43823          	sd	s10,-528(s0)
    2e10:	df943c23          	sd	s9,-520(s0)
    2e14:	e1843023          	sd	s8,-512(s0)
    2e18:	e1743423          	sd	s7,-504(s0)
    2e1c:	000b0e93          	mv	t4,s6
    2e20:	000a8e13          	mv	t3,s5
    2e24:	e3443023          	sd	s4,-480(s0)
    2e28:	e2743423          	sd	t2,-472(s0)
    2e2c:	e2643823          	sd	t1,-464(s0)
    2e30:	e2543c23          	sd	t0,-456(s0)
    2e34:	e5143823          	sd	a7,-432(s0)
    2e38:	e5243c23          	sd	s2,-424(s0)
    2e3c:	02052683          	lw	a3,32(a0)
    2e40:	02062703          	lw	a4,32(a2)
    2e44:	00769813          	slli	a6,a3,0x7
    2e48:	000016b7          	lui	a3,0x1
    2e4c:	40d406b3          	sub	a3,s0,a3
    2e50:	68e6bc23          	sd	a4,1688(a3) # 1698 <.LBB52_5+0x2c0>
    2e54:	00ef06b3          	add	a3,t5,a4
    2e58:	00001737          	lui	a4,0x1
    2e5c:	40e40733          	sub	a4,s0,a4
    2e60:	69073823          	sd	a6,1680(a4) # 1690 <.LBB52_5+0x2b8>
    2e64:	010686b3          	add	a3,a3,a6
    2e68:	fff8e837          	lui	a6,0xfff8e
    2e6c:	40f5873b          	subw	a4,a1,a5
    2e70:	40e686bb          	subw	a3,a3,a4
    2e74:	40000737          	lui	a4,0x40000
    2e78:	000017b7          	lui	a5,0x1
    2e7c:	40f407b3          	sub	a5,s0,a5
    2e80:	5cd7bc23          	sd	a3,1496(a5) # 15d8 <.LBB52_5+0x200>
    2e84:	0006d463          	bgez	a3,2e8c <.LBB52_24>
    2e88:	c0000737          	lui	a4,0xc0000

0000000000002e8c <.LBB52_24>:
    2e8c:	000016b7          	lui	a3,0x1
    2e90:	40d406b3          	sub	a3,s0,a3
    2e94:	5ce6b823          	sd	a4,1488(a3) # 15d0 <.LBB52_5+0x1f8>
    2e98:	07c62683          	lw	a3,124(a2)
    2e9c:	f8d43423          	sd	a3,-120(s0)
    2ea0:	07862683          	lw	a3,120(a2)
    2ea4:	f8d43023          	sd	a3,-128(s0)
    2ea8:	07462683          	lw	a3,116(a2)
    2eac:	f6d43c23          	sd	a3,-136(s0)
    2eb0:	07062683          	lw	a3,112(a2)
    2eb4:	f6d43823          	sd	a3,-144(s0)
    2eb8:	06c62683          	lw	a3,108(a2)
    2ebc:	f6d43423          	sd	a3,-152(s0)
    2ec0:	06862683          	lw	a3,104(a2)
    2ec4:	f6d43023          	sd	a3,-160(s0)
    2ec8:	06462683          	lw	a3,100(a2)
    2ecc:	f4d43c23          	sd	a3,-168(s0)
    2ed0:	06062683          	lw	a3,96(a2)
    2ed4:	f4d43823          	sd	a3,-176(s0)
    2ed8:	05c62683          	lw	a3,92(a2)
    2edc:	f4d43423          	sd	a3,-184(s0)
    2ee0:	05862683          	lw	a3,88(a2)
    2ee4:	f4d43023          	sd	a3,-192(s0)
    2ee8:	05462683          	lw	a3,84(a2)
    2eec:	f2d43c23          	sd	a3,-200(s0)
    2ef0:	05062683          	lw	a3,80(a2)
    2ef4:	f0d43023          	sd	a3,-256(s0)
    2ef8:	04c62683          	lw	a3,76(a2)
    2efc:	eed43c23          	sd	a3,-264(s0)
    2f00:	04862683          	lw	a3,72(a2)
    2f04:	eed43823          	sd	a3,-272(s0)
    2f08:	04462683          	lw	a3,68(a2)
    2f0c:	eed43423          	sd	a3,-280(s0)
    2f10:	04062683          	lw	a3,64(a2)
    2f14:	eed43023          	sd	a3,-288(s0)
    2f18:	03c62683          	lw	a3,60(a2)
    2f1c:	ecd43c23          	sd	a3,-296(s0)
    2f20:	03862683          	lw	a3,56(a2)
    2f24:	ecd43823          	sd	a3,-304(s0)
    2f28:	03462683          	lw	a3,52(a2)
    2f2c:	ecd43423          	sd	a3,-312(s0)
    2f30:	03062683          	lw	a3,48(a2)
    2f34:	ecd43023          	sd	a3,-320(s0)
    2f38:	02c62683          	lw	a3,44(a2)
    2f3c:	ead43c23          	sd	a3,-328(s0)
    2f40:	02862683          	lw	a3,40(a2)
    2f44:	ead43823          	sd	a3,-336(s0)
    2f48:	02462383          	lw	t2,36(a2)
    2f4c:	07c52603          	lw	a2,124(a0)
    2f50:	f8b43823          	sd	a1,-112(s0)
    2f54:	000015b7          	lui	a1,0x1
    2f58:	40b405b3          	sub	a1,s0,a1
    2f5c:	5cc5b423          	sd	a2,1480(a1) # 15c8 <.LBB52_5+0x1f0>
    2f60:	07852603          	lw	a2,120(a0)
    2f64:	000015b7          	lui	a1,0x1
    2f68:	40b405b3          	sub	a1,s0,a1
    2f6c:	5ac5bc23          	sd	a2,1464(a1) # 15b8 <.LBB52_5+0x1e0>
    2f70:	07452883          	lw	a7,116(a0)
    2f74:	07052283          	lw	t0,112(a0)
    2f78:	06c52303          	lw	t1,108(a0)
    2f7c:	06852603          	lw	a2,104(a0)
    2f80:	06452683          	lw	a3,100(a0)
    2f84:	06052f03          	lw	t5,96(a0)
    2f88:	05c52f83          	lw	t6,92(a0)
    2f8c:	05852483          	lw	s1,88(a0)
    2f90:	05452903          	lw	s2,84(a0)
    2f94:	05052983          	lw	s3,80(a0)
    2f98:	04c52a03          	lw	s4,76(a0)
    2f9c:	04852a83          	lw	s5,72(a0)
    2fa0:	04452b03          	lw	s6,68(a0)
    2fa4:	04052b83          	lw	s7,64(a0)
    2fa8:	03c52c03          	lw	s8,60(a0)
    2fac:	03852c83          	lw	s9,56(a0)
    2fb0:	03452d03          	lw	s10,52(a0)
    2fb4:	02452783          	lw	a5,36(a0)
    2fb8:	03052d83          	lw	s11,48(a0)
    2fbc:	02c52083          	lw	ra,44(a0)
    2fc0:	02852703          	lw	a4,40(a0)
    2fc4:	00779793          	slli	a5,a5,0x7
    2fc8:	00001537          	lui	a0,0x1
    2fcc:	40a40533          	sub	a0,s0,a0
    2fd0:	68753423          	sd	t2,1672(a0) # 1688 <.LBB52_5+0x2b0>
    2fd4:	00001537          	lui	a0,0x1
    2fd8:	40a40533          	sub	a0,s0,a0
    2fdc:	6d853503          	ld	a0,1752(a0) # 16d8 <.LBB52_5+0x300>
    2fe0:	00750533          	add	a0,a0,t2
    2fe4:	000015b7          	lui	a1,0x1
    2fe8:	40b405b3          	sub	a1,s0,a1
    2fec:	6cf5bc23          	sd	a5,1752(a1) # 16d8 <.LBB52_5+0x300>
    2ff0:	00f50533          	add	a0,a0,a5
    2ff4:	000015b7          	lui	a1,0x1
    2ff8:	40b405b3          	sub	a1,s0,a1
    2ffc:	6505b383          	ld	t2,1616(a1) # 1650 <.LBB52_5+0x278>
    3000:	0043a783          	lw	a5,4(t2)
    3004:	000015b7          	lui	a1,0x1
    3008:	40b405b3          	sub	a1,s0,a1
    300c:	5af5b823          	sd	a5,1456(a1) # 15b0 <.LBB52_5+0x1d8>
    3010:	0083a783          	lw	a5,8(t2)
    3014:	000015b7          	lui	a1,0x1
    3018:	40b405b3          	sub	a1,s0,a1
    301c:	5cf5b023          	sd	a5,1472(a1) # 15c0 <.LBB52_5+0x1e8>
    3020:	00c3a783          	lw	a5,12(t2)
    3024:	000015b7          	lui	a1,0x1
    3028:	40b405b3          	sub	a1,s0,a1
    302c:	56f5b423          	sd	a5,1384(a1) # 1568 <.LBB52_5+0x190>
    3030:	0103a783          	lw	a5,16(t2)
    3034:	000015b7          	lui	a1,0x1
    3038:	40b405b3          	sub	a1,s0,a1
    303c:	56f5b023          	sd	a5,1376(a1) # 1560 <.LBB52_5+0x188>
    3040:	0143a783          	lw	a5,20(t2)
    3044:	000015b7          	lui	a1,0x1
    3048:	40b405b3          	sub	a1,s0,a1
    304c:	5af5b023          	sd	a5,1440(a1) # 15a0 <.LBB52_5+0x1c8>
    3050:	0183a783          	lw	a5,24(t2)
    3054:	000015b7          	lui	a1,0x1
    3058:	40b405b3          	sub	a1,s0,a1
    305c:	5af5b423          	sd	a5,1448(a1) # 15a8 <.LBB52_5+0x1d0>
    3060:	f9043583          	ld	a1,-112(s0)
    3064:	01c3a383          	lw	t2,28(t2)
    3068:	000017b7          	lui	a5,0x1
    306c:	40f407b3          	sub	a5,s0,a5
    3070:	3877b423          	sd	t2,904(a5) # 1388 <.LBB52_4+0x558>
    3074:	410583bb          	subw	t2,a1,a6
    3078:	4075053b          	subw	a0,a0,t2
    307c:	400003b7          	lui	t2,0x40000
    3080:	000017b7          	lui	a5,0x1
    3084:	40f407b3          	sub	a5,s0,a5
    3088:	58a7bc23          	sd	a0,1432(a5) # 1598 <.LBB52_5+0x1c0>
    308c:	00055463          	bgez	a0,3094 <.LBB52_26>
    3090:	c00003b7          	lui	t2,0xc0000

0000000000003094 <.LBB52_26>:
    3094:	00001537          	lui	a0,0x1
    3098:	40a40533          	sub	a0,s0,a0
    309c:	58753823          	sd	t2,1424(a0) # 1590 <.LBB52_5+0x1b8>
    30a0:	00771713          	slli	a4,a4,0x7
    30a4:	eb043503          	ld	a0,-336(s0)
    30a8:	000017b7          	lui	a5,0x1
    30ac:	40f407b3          	sub	a5,s0,a5
    30b0:	6e07b783          	ld	a5,1760(a5) # 16e0 <.LBB52_5+0x308>
    30b4:	00a78533          	add	a0,a5,a0
    30b8:	000017b7          	lui	a5,0x1
    30bc:	40f407b3          	sub	a5,s0,a5
    30c0:	6ee7b023          	sd	a4,1760(a5) # 16e0 <.LBB52_5+0x308>
    30c4:	00e50533          	add	a0,a0,a4
    30c8:	4105873b          	subw	a4,a1,a6
    30cc:	40e5053b          	subw	a0,a0,a4
    30d0:	40000737          	lui	a4,0x40000
    30d4:	000017b7          	lui	a5,0x1
    30d8:	40f407b3          	sub	a5,s0,a5
    30dc:	54a7b023          	sd	a0,1344(a5) # 1540 <.LBB52_5+0x168>
    30e0:	000017b7          	lui	a5,0x1
    30e4:	40f407b3          	sub	a5,s0,a5
    30e8:	7287b783          	ld	a5,1832(a5) # 1728 <.LBB52_5+0x350>
    30ec:	00055463          	bgez	a0,30f4 <.LBB52_28>
    30f0:	c0000737          	lui	a4,0xc0000

00000000000030f4 <.LBB52_28>:
    30f4:	00001537          	lui	a0,0x1
    30f8:	40a40533          	sub	a0,s0,a0
    30fc:	52e53c23          	sd	a4,1336(a0) # 1538 <.LBB52_5+0x160>
    3100:	00709093          	slli	ra,ra,0x7
    3104:	eb843503          	ld	a0,-328(s0)
    3108:	00001737          	lui	a4,0x1
    310c:	40e40733          	sub	a4,s0,a4
    3110:	6e873703          	ld	a4,1768(a4) # 16e8 <.LBB52_5+0x310>
    3114:	00a70533          	add	a0,a4,a0
    3118:	00001737          	lui	a4,0x1
    311c:	40e40733          	sub	a4,s0,a4
    3120:	6e173423          	sd	ra,1768(a4) # 16e8 <.LBB52_5+0x310>
    3124:	00150533          	add	a0,a0,ra
    3128:	fff8e0b7          	lui	ra,0xfff8e
    312c:	4015873b          	subw	a4,a1,ra
    3130:	40e5053b          	subw	a0,a0,a4
    3134:	40000737          	lui	a4,0x40000
    3138:	00001837          	lui	a6,0x1
    313c:	41040833          	sub	a6,s0,a6
    3140:	4ea83023          	sd	a0,1248(a6) # 14e0 <.LBB52_5+0x108>
    3144:	00001837          	lui	a6,0x1
    3148:	41040833          	sub	a6,s0,a6
    314c:	73083803          	ld	a6,1840(a6) # 1730 <.LBB52_5+0x358>
    3150:	000013b7          	lui	t2,0x1
    3154:	407403b3          	sub	t2,s0,t2
    3158:	6f83b383          	ld	t2,1784(t2) # 16f8 <.LBB52_5+0x320>
    315c:	00055463          	bgez	a0,3164 <.LBB52_30>
    3160:	c0000737          	lui	a4,0xc0000

0000000000003164 <.LBB52_30>:
    3164:	f8c43823          	sd	a2,-112(s0)
    3168:	00001537          	lui	a0,0x1
    316c:	40a40533          	sub	a0,s0,a0
    3170:	4ce53823          	sd	a4,1232(a0) # 14d0 <.LBB52_5+0xf8>
    3174:	007d9713          	slli	a4,s11,0x7
    3178:	ec043503          	ld	a0,-320(s0)
    317c:	00001637          	lui	a2,0x1
    3180:	40c40633          	sub	a2,s0,a2
    3184:	6f063d83          	ld	s11,1776(a2) # 16f0 <.LBB52_5+0x318>
    3188:	00ad8533          	add	a0,s11,a0
    318c:	00070d93          	mv	s11,a4
    3190:	00e50533          	add	a0,a0,a4
    3194:	4015873b          	subw	a4,a1,ra
    3198:	40e5053b          	subw	a0,a0,a4
    319c:	40000737          	lui	a4,0x40000
    31a0:	00001637          	lui	a2,0x1
    31a4:	40c40633          	sub	a2,s0,a2
    31a8:	48a63423          	sd	a0,1160(a2) # 1488 <.LBB52_5+0xb0>
    31ac:	f9043603          	ld	a2,-112(s0)
    31b0:	00055463          	bgez	a0,31b8 <.LBB52_32>
    31b4:	c0000737          	lui	a4,0xc0000

00000000000031b8 <.LBB52_32>:
    31b8:	00001537          	lui	a0,0x1
    31bc:	40a40533          	sub	a0,s0,a0
    31c0:	46e53823          	sd	a4,1136(a0) # 1470 <.LBB52_5+0x98>
    31c4:	007d1713          	slli	a4,s10,0x7
    31c8:	ec843503          	ld	a0,-312(s0)
    31cc:	00a38533          	add	a0,t2,a0
    31d0:	00070d13          	mv	s10,a4
    31d4:	00e50533          	add	a0,a0,a4
    31d8:	4015873b          	subw	a4,a1,ra
    31dc:	40e5053b          	subw	a0,a0,a4
    31e0:	40000737          	lui	a4,0x40000
    31e4:	000013b7          	lui	t2,0x1
    31e8:	407403b3          	sub	t2,s0,t2
    31ec:	42a3b423          	sd	a0,1064(t2) # 1428 <.LBB52_5+0x50>
    31f0:	98043383          	ld	t2,-1664(s0)
    31f4:	00055463          	bgez	a0,31fc <.LBB52_34>
    31f8:	c0000737          	lui	a4,0xc0000

00000000000031fc <.LBB52_34>:
    31fc:	f8c43823          	sd	a2,-112(s0)
    3200:	00001537          	lui	a0,0x1
    3204:	40a40533          	sub	a0,s0,a0
    3208:	40e53823          	sd	a4,1040(a0) # 1410 <.LBB52_5+0x38>
    320c:	007c9713          	slli	a4,s9,0x7
    3210:	ed043503          	ld	a0,-304(s0)
    3214:	00001637          	lui	a2,0x1
    3218:	40c40633          	sub	a2,s0,a2
    321c:	70063c83          	ld	s9,1792(a2) # 1700 <.LBB52_5+0x328>
    3220:	00ac8533          	add	a0,s9,a0
    3224:	00070c93          	mv	s9,a4
    3228:	00e50533          	add	a0,a0,a4
    322c:	4015873b          	subw	a4,a1,ra
    3230:	40e5053b          	subw	a0,a0,a4
    3234:	40000737          	lui	a4,0x40000
    3238:	00001637          	lui	a2,0x1
    323c:	40c40633          	sub	a2,s0,a2
    3240:	3ca63023          	sd	a0,960(a2) # 13c0 <.LBB52_4+0x590>
    3244:	f9043603          	ld	a2,-112(s0)
    3248:	00055463          	bgez	a0,3250 <.LBB52_36>
    324c:	c0000737          	lui	a4,0xc0000

0000000000003250 <.LBB52_36>:
    3250:	f8c43823          	sd	a2,-112(s0)
    3254:	00001537          	lui	a0,0x1
    3258:	40a40533          	sub	a0,s0,a0
    325c:	3ae53823          	sd	a4,944(a0) # 13b0 <.LBB52_4+0x580>
    3260:	007c1713          	slli	a4,s8,0x7
    3264:	ed843503          	ld	a0,-296(s0)
    3268:	00001637          	lui	a2,0x1
    326c:	40c40633          	sub	a2,s0,a2
    3270:	70863c03          	ld	s8,1800(a2) # 1708 <.LBB52_5+0x330>
    3274:	00ac0533          	add	a0,s8,a0
    3278:	00070c13          	mv	s8,a4
    327c:	00e50533          	add	a0,a0,a4
    3280:	4015873b          	subw	a4,a1,ra
    3284:	40e5053b          	subw	a0,a0,a4
    3288:	40000737          	lui	a4,0x40000
    328c:	00001637          	lui	a2,0x1
    3290:	40c40633          	sub	a2,s0,a2
    3294:	34a63823          	sd	a0,848(a2) # 1350 <.LBB52_4+0x520>
    3298:	f9043603          	ld	a2,-112(s0)
    329c:	00055463          	bgez	a0,32a4 <.LBB52_38>
    32a0:	c0000737          	lui	a4,0xc0000

00000000000032a4 <.LBB52_38>:
    32a4:	f8c43823          	sd	a2,-112(s0)
    32a8:	00001537          	lui	a0,0x1
    32ac:	40a40533          	sub	a0,s0,a0
    32b0:	32e53c23          	sd	a4,824(a0) # 1338 <.LBB52_4+0x508>
    32b4:	007b9713          	slli	a4,s7,0x7
    32b8:	ee043503          	ld	a0,-288(s0)
    32bc:	00001637          	lui	a2,0x1
    32c0:	40c40633          	sub	a2,s0,a2
    32c4:	71063b83          	ld	s7,1808(a2) # 1710 <.LBB52_5+0x338>
    32c8:	00ab8533          	add	a0,s7,a0
    32cc:	00070b93          	mv	s7,a4
    32d0:	00e50533          	add	a0,a0,a4
    32d4:	4015873b          	subw	a4,a1,ra
    32d8:	40e5053b          	subw	a0,a0,a4
    32dc:	40000737          	lui	a4,0x40000
    32e0:	00001637          	lui	a2,0x1
    32e4:	40c40633          	sub	a2,s0,a2
    32e8:	2ea63023          	sd	a0,736(a2) # 12e0 <.LBB52_4+0x4b0>
    32ec:	f9043603          	ld	a2,-112(s0)
    32f0:	00055463          	bgez	a0,32f8 <.LBB52_40>
    32f4:	c0000737          	lui	a4,0xc0000

00000000000032f8 <.LBB52_40>:
    32f8:	f8c43823          	sd	a2,-112(s0)
    32fc:	00001537          	lui	a0,0x1
    3300:	40a40533          	sub	a0,s0,a0
    3304:	2ce53423          	sd	a4,712(a0) # 12c8 <.LBB52_4+0x498>
    3308:	007b1713          	slli	a4,s6,0x7
    330c:	ee843503          	ld	a0,-280(s0)
    3310:	00001637          	lui	a2,0x1
    3314:	40c40633          	sub	a2,s0,a2
    3318:	71863b03          	ld	s6,1816(a2) # 1718 <.LBB52_5+0x340>
    331c:	00ab0533          	add	a0,s6,a0
    3320:	00070b13          	mv	s6,a4
    3324:	00e50533          	add	a0,a0,a4
    3328:	4015873b          	subw	a4,a1,ra
    332c:	40e5053b          	subw	a0,a0,a4
    3330:	40000737          	lui	a4,0x40000
    3334:	00001637          	lui	a2,0x1
    3338:	40c40633          	sub	a2,s0,a2
    333c:	26a63023          	sd	a0,608(a2) # 1260 <.LBB52_4+0x430>
    3340:	f9043603          	ld	a2,-112(s0)
    3344:	00055463          	bgez	a0,334c <.LBB52_42>
    3348:	c0000737          	lui	a4,0xc0000

000000000000334c <.LBB52_42>:
    334c:	00001537          	lui	a0,0x1
    3350:	40a40533          	sub	a0,s0,a0
    3354:	24e53023          	sd	a4,576(a0) # 1240 <.LBB52_4+0x410>
    3358:	007a9713          	slli	a4,s5,0x7
    335c:	ef043503          	ld	a0,-272(s0)
    3360:	00001ab7          	lui	s5,0x1
    3364:	41540ab3          	sub	s5,s0,s5
    3368:	720aba83          	ld	s5,1824(s5) # 1720 <.LBB52_5+0x348>
    336c:	00aa8533          	add	a0,s5,a0
    3370:	00070a93          	mv	s5,a4
    3374:	00e50533          	add	a0,a0,a4
    3378:	4015873b          	subw	a4,a1,ra
    337c:	40e5053b          	subw	a0,a0,a4
    3380:	40000737          	lui	a4,0x40000
    3384:	e1d43823          	sd	t4,-496(s0)
    3388:	00001eb7          	lui	t4,0x1
    338c:	41d40eb3          	sub	t4,s0,t4
    3390:	1caebc23          	sd	a0,472(t4) # 11d8 <.LBB52_4+0x3a8>
    3394:	00055463          	bgez	a0,339c <.LBB52_44>
    3398:	c0000737          	lui	a4,0xc0000

000000000000339c <.LBB52_44>:
    339c:	00001537          	lui	a0,0x1
    33a0:	40a40533          	sub	a0,s0,a0
    33a4:	1ce53023          	sd	a4,448(a0) # 11c0 <.LBB52_4+0x390>
    33a8:	007a1713          	slli	a4,s4,0x7
    33ac:	ef843503          	ld	a0,-264(s0)
    33b0:	00a78533          	add	a0,a5,a0
    33b4:	00070a13          	mv	s4,a4
    33b8:	00e50533          	add	a0,a0,a4
    33bc:	4015873b          	subw	a4,a1,ra
    33c0:	40e5053b          	subw	a0,a0,a4
    33c4:	40000737          	lui	a4,0x40000
    33c8:	e1c43c23          	sd	t3,-488(s0)
    33cc:	000017b7          	lui	a5,0x1
    33d0:	40f407b3          	sub	a5,s0,a5
    33d4:	14a7b823          	sd	a0,336(a5) # 1150 <.LBB52_4+0x320>
    33d8:	000017b7          	lui	a5,0x1
    33dc:	40f407b3          	sub	a5,s0,a5
    33e0:	7807be83          	ld	t4,1920(a5) # 1780 <.LBB52_5+0x3a8>
    33e4:	00055463          	bgez	a0,33ec <.LBB52_46>
    33e8:	c0000737          	lui	a4,0xc0000

00000000000033ec <.LBB52_46>:
    33ec:	00001537          	lui	a0,0x1
    33f0:	40a40533          	sub	a0,s0,a0
    33f4:	14e53023          	sd	a4,320(a0) # 1140 <.LBB52_4+0x310>
    33f8:	00799713          	slli	a4,s3,0x7
    33fc:	f0043503          	ld	a0,-256(s0)
    3400:	00a80533          	add	a0,a6,a0
    3404:	00070993          	mv	s3,a4
    3408:	00e50533          	add	a0,a0,a4
    340c:	4015873b          	subw	a4,a1,ra
    3410:	40e5053b          	subw	a0,a0,a4
    3414:	40000737          	lui	a4,0x40000
    3418:	98843803          	ld	a6,-1656(s0)
    341c:	000017b7          	lui	a5,0x1
    3420:	40f407b3          	sub	a5,s0,a5
    3424:	0ca7b823          	sd	a0,208(a5) # 10d0 <.LBB52_4+0x2a0>
    3428:	000017b7          	lui	a5,0x1
    342c:	40f407b3          	sub	a5,s0,a5
    3430:	7787be03          	ld	t3,1912(a5) # 1778 <.LBB52_5+0x3a0>
    3434:	00055463          	bgez	a0,343c <.LBB52_48>
    3438:	c0000737          	lui	a4,0xc0000

000000000000343c <.LBB52_48>:
    343c:	00001537          	lui	a0,0x1
    3440:	40a40533          	sub	a0,s0,a0
    3444:	0ce53423          	sd	a4,200(a0) # 10c8 <.LBB52_4+0x298>
    3448:	00791713          	slli	a4,s2,0x7
    344c:	f3843503          	ld	a0,-200(s0)
    3450:	000017b7          	lui	a5,0x1
    3454:	40f407b3          	sub	a5,s0,a5
    3458:	7387b903          	ld	s2,1848(a5) # 1738 <.LBB52_5+0x360>
    345c:	00a90533          	add	a0,s2,a0
    3460:	00070913          	mv	s2,a4
    3464:	00e50533          	add	a0,a0,a4
    3468:	4015873b          	subw	a4,a1,ra
    346c:	40e5053b          	subw	a0,a0,a4
    3470:	40000737          	lui	a4,0x40000
    3474:	000017b7          	lui	a5,0x1
    3478:	40f407b3          	sub	a5,s0,a5
    347c:	04a7bc23          	sd	a0,88(a5) # 1058 <.LBB52_4+0x228>
    3480:	00055463          	bgez	a0,3488 <.LBB52_50>
    3484:	c0000737          	lui	a4,0xc0000

0000000000003488 <.LBB52_50>:
    3488:	00001537          	lui	a0,0x1
    348c:	40a40533          	sub	a0,s0,a0
    3490:	04e53823          	sd	a4,80(a0) # 1050 <.LBB52_4+0x220>
    3494:	00749713          	slli	a4,s1,0x7
    3498:	f4043503          	ld	a0,-192(s0)
    349c:	000017b7          	lui	a5,0x1
    34a0:	40f407b3          	sub	a5,s0,a5
    34a4:	7407b483          	ld	s1,1856(a5) # 1740 <.LBB52_5+0x368>
    34a8:	00a48533          	add	a0,s1,a0
    34ac:	000017b7          	lui	a5,0x1
    34b0:	40f407b3          	sub	a5,s0,a5
    34b4:	74e7b023          	sd	a4,1856(a5) # 1740 <.LBB52_5+0x368>
    34b8:	00e50533          	add	a0,a0,a4
    34bc:	4015873b          	subw	a4,a1,ra
    34c0:	40e5053b          	subw	a0,a0,a4
    34c4:	40000737          	lui	a4,0x40000
    34c8:	000017b7          	lui	a5,0x1
    34cc:	40f407b3          	sub	a5,s0,a5
    34d0:	fea7b023          	sd	a0,-32(a5) # fe0 <.LBB52_4+0x1b0>
    34d4:	00055463          	bgez	a0,34dc <.LBB52_52>
    34d8:	c0000737          	lui	a4,0xc0000

00000000000034dc <.LBB52_52>:
    34dc:	00001537          	lui	a0,0x1
    34e0:	40a40533          	sub	a0,s0,a0
    34e4:	fce53c23          	sd	a4,-40(a0) # fd8 <.LBB52_4+0x1a8>
    34e8:	007f9f93          	slli	t6,t6,0x7
    34ec:	f4843503          	ld	a0,-184(s0)
    34f0:	00001737          	lui	a4,0x1
    34f4:	40e40733          	sub	a4,s0,a4
    34f8:	74873703          	ld	a4,1864(a4) # 1748 <.LBB52_5+0x370>
    34fc:	00a70533          	add	a0,a4,a0
    3500:	00001737          	lui	a4,0x1
    3504:	40e40733          	sub	a4,s0,a4
    3508:	75f73423          	sd	t6,1864(a4) # 1748 <.LBB52_5+0x370>
    350c:	01f50533          	add	a0,a0,t6
    3510:	4015873b          	subw	a4,a1,ra
    3514:	40e5053b          	subw	a0,a0,a4
    3518:	40000737          	lui	a4,0x40000
    351c:	000017b7          	lui	a5,0x1
    3520:	40f407b3          	sub	a5,s0,a5
    3524:	f6a7b423          	sd	a0,-152(a5) # f68 <.LBB52_4+0x138>
    3528:	000017b7          	lui	a5,0x1
    352c:	40f407b3          	sub	a5,s0,a5
    3530:	7687b483          	ld	s1,1896(a5) # 1768 <.LBB52_5+0x390>
    3534:	00055463          	bgez	a0,353c <.LBB52_54>
    3538:	c0000737          	lui	a4,0xc0000

000000000000353c <.LBB52_54>:
    353c:	00001537          	lui	a0,0x1
    3540:	40a40533          	sub	a0,s0,a0
    3544:	f6e53023          	sd	a4,-160(a0) # f60 <.LBB52_4+0x130>
    3548:	007f1713          	slli	a4,t5,0x7
    354c:	f5043503          	ld	a0,-176(s0)
    3550:	000017b7          	lui	a5,0x1
    3554:	40f407b3          	sub	a5,s0,a5
    3558:	7507bf03          	ld	t5,1872(a5) # 1750 <.LBB52_5+0x378>
    355c:	00af0533          	add	a0,t5,a0
    3560:	000017b7          	lui	a5,0x1
    3564:	40f407b3          	sub	a5,s0,a5
    3568:	74e7b823          	sd	a4,1872(a5) # 1750 <.LBB52_5+0x378>
    356c:	00e50533          	add	a0,a0,a4
    3570:	4015873b          	subw	a4,a1,ra
    3574:	40e5053b          	subw	a0,a0,a4
    3578:	40000737          	lui	a4,0x40000
    357c:	000017b7          	lui	a5,0x1
    3580:	40f407b3          	sub	a5,s0,a5
    3584:	eea7bc23          	sd	a0,-264(a5) # ef8 <.LBB52_4+0xc8>
    3588:	000017b7          	lui	a5,0x1
    358c:	40f407b3          	sub	a5,s0,a5
    3590:	7707bf83          	ld	t6,1904(a5) # 1770 <.LBB52_5+0x398>
    3594:	00055463          	bgez	a0,359c <.LBB52_56>
    3598:	c0000737          	lui	a4,0xc0000

000000000000359c <.LBB52_56>:
    359c:	00001537          	lui	a0,0x1
    35a0:	40a40533          	sub	a0,s0,a0
    35a4:	eee53823          	sd	a4,-272(a0) # ef0 <.LBB52_4+0xc0>
    35a8:	00769693          	slli	a3,a3,0x7
    35ac:	f5843503          	ld	a0,-168(s0)
    35b0:	00001737          	lui	a4,0x1
    35b4:	40e40733          	sub	a4,s0,a4
    35b8:	75873703          	ld	a4,1880(a4) # 1758 <.LBB52_5+0x380>
    35bc:	00a70533          	add	a0,a4,a0
    35c0:	00001737          	lui	a4,0x1
    35c4:	40e40733          	sub	a4,s0,a4
    35c8:	74d73c23          	sd	a3,1880(a4) # 1758 <.LBB52_5+0x380>
    35cc:	00d50533          	add	a0,a0,a3
    35d0:	4015873b          	subw	a4,a1,ra
    35d4:	40e5053b          	subw	a0,a0,a4
    35d8:	400006b7          	lui	a3,0x40000
    35dc:	00001737          	lui	a4,0x1
    35e0:	40e40733          	sub	a4,s0,a4
    35e4:	e8a73023          	sd	a0,-384(a4) # e80 <.LBB52_4+0x50>
    35e8:	00001737          	lui	a4,0x1
    35ec:	40e40733          	sub	a4,s0,a4
    35f0:	78873f03          	ld	t5,1928(a4) # 1788 <.LBB52_5+0x3b0>
    35f4:	00055463          	bgez	a0,35fc <.LBB52_58>
    35f8:	c00006b7          	lui	a3,0xc0000

00000000000035fc <.LBB52_58>:
    35fc:	00761613          	slli	a2,a2,0x7
    3600:	f6043503          	ld	a0,-160(s0)
    3604:	00001737          	lui	a4,0x1
    3608:	40e40733          	sub	a4,s0,a4
    360c:	76073703          	ld	a4,1888(a4) # 1760 <.LBB52_5+0x388>
    3610:	00a70533          	add	a0,a4,a0
    3614:	00001737          	lui	a4,0x1
    3618:	40e40733          	sub	a4,s0,a4
    361c:	76c73023          	sd	a2,1888(a4) # 1760 <.LBB52_5+0x388>
    3620:	00c50533          	add	a0,a0,a2
    3624:	4015873b          	subw	a4,a1,ra
    3628:	40e5053b          	subw	a0,a0,a4
    362c:	40000637          	lui	a2,0x40000
    3630:	00001737          	lui	a4,0x1
    3634:	40e40733          	sub	a4,s0,a4
    3638:	e0a73823          	sd	a0,-496(a4) # e10 <.LBB52_3+0xc2c>
    363c:	00055463          	bgez	a0,3644 <.LBB52_60>
    3640:	c0000637          	lui	a2,0xc0000

0000000000003644 <.LBB52_60>:
    3644:	00731713          	slli	a4,t1,0x7
    3648:	f6843503          	ld	a0,-152(s0)
    364c:	00a48533          	add	a0,s1,a0
    3650:	00070313          	mv	t1,a4
    3654:	00e50533          	add	a0,a0,a4
    3658:	4015873b          	subw	a4,a1,ra
    365c:	40e5053b          	subw	a0,a0,a4
    3660:	40000737          	lui	a4,0x40000
    3664:	000017b7          	lui	a5,0x1
    3668:	40f407b3          	sub	a5,s0,a5
    366c:	d8a7bc23          	sd	a0,-616(a5) # d98 <.LBB52_3+0xbb4>
    3670:	00055463          	bgez	a0,3678 <.LBB52_62>
    3674:	c0000737          	lui	a4,0xc0000

0000000000003678 <.LBB52_62>:
    3678:	00001537          	lui	a0,0x1
    367c:	40a40533          	sub	a0,s0,a0
    3680:	d8e53823          	sd	a4,-624(a0) # d90 <.LBB52_3+0xbac>
    3684:	00729293          	slli	t0,t0,0x7
    3688:	f7043503          	ld	a0,-144(s0)
    368c:	00af8533          	add	a0,t6,a0
    3690:	00028493          	mv	s1,t0
    3694:	00550533          	add	a0,a0,t0
    3698:	4015873b          	subw	a4,a1,ra
    369c:	40e5053b          	subw	a0,a0,a4
    36a0:	40000737          	lui	a4,0x40000
    36a4:	c8843283          	ld	t0,-888(s0)
    36a8:	000017b7          	lui	a5,0x1
    36ac:	40f407b3          	sub	a5,s0,a5
    36b0:	d2a7b023          	sd	a0,-736(a5) # d20 <.LBB52_3+0xb3c>
    36b4:	00055463          	bgez	a0,36bc <.LBB52_64>
    36b8:	c0000737          	lui	a4,0xc0000

00000000000036bc <.LBB52_64>:
    36bc:	00001537          	lui	a0,0x1
    36c0:	40a40533          	sub	a0,s0,a0
    36c4:	d0e53c23          	sd	a4,-744(a0) # d18 <.LBB52_3+0xb34>
    36c8:	00001537          	lui	a0,0x1
    36cc:	40a40533          	sub	a0,s0,a0
    36d0:	e6d53c23          	sd	a3,-392(a0) # e78 <.LBB52_4+0x48>
    36d4:	00789893          	slli	a7,a7,0x7
    36d8:	f7843503          	ld	a0,-136(s0)
    36dc:	00ae0533          	add	a0,t3,a0
    36e0:	00088e13          	mv	t3,a7
    36e4:	01150533          	add	a0,a0,a7
    36e8:	4015873b          	subw	a4,a1,ra
    36ec:	40e5053b          	subw	a0,a0,a4
    36f0:	400006b7          	lui	a3,0x40000
    36f4:	00001737          	lui	a4,0x1
    36f8:	40e40733          	sub	a4,s0,a4
    36fc:	caa73c23          	sd	a0,-840(a4) # cb8 <.LBB52_3+0xad4>
    3700:	00055463          	bgez	a0,3708 <.LBB52_66>
    3704:	c00006b7          	lui	a3,0xc0000

0000000000003708 <.LBB52_66>:
    3708:	00001537          	lui	a0,0x1
    370c:	40a40533          	sub	a0,s0,a0
    3710:	cad53823          	sd	a3,-848(a0) # cb0 <.LBB52_3+0xacc>
    3714:	00001537          	lui	a0,0x1
    3718:	40a40533          	sub	a0,s0,a0
    371c:	5b853683          	ld	a3,1464(a0) # 15b8 <.LBB52_5+0x1e0>
    3720:	00769693          	slli	a3,a3,0x7
    3724:	f8043503          	ld	a0,-128(s0)
    3728:	00ae8533          	add	a0,t4,a0
    372c:	00001737          	lui	a4,0x1
    3730:	40e40733          	sub	a4,s0,a4
    3734:	78d73023          	sd	a3,1920(a4) # 1780 <.LBB52_5+0x3a8>
    3738:	00d50533          	add	a0,a0,a3
    373c:	401586bb          	subw	a3,a1,ra
    3740:	40d5053b          	subw	a0,a0,a3
    3744:	40000eb7          	lui	t4,0x40000
    3748:	c8043f83          	ld	t6,-896(s0)
    374c:	97843703          	ld	a4,-1672(s0)
    3750:	000016b7          	lui	a3,0x1
    3754:	40d406b3          	sub	a3,s0,a3
    3758:	c6a6b823          	sd	a0,-912(a3) # c70 <.LBB52_3+0xa8c>
    375c:	88043883          	ld	a7,-1920(s0)
    3760:	00055463          	bgez	a0,3768 <.LBB52_68>
    3764:	c0000eb7          	lui	t4,0xc0000

0000000000003768 <.LBB52_68>:
    3768:	00001537          	lui	a0,0x1
    376c:	40a40533          	sub	a0,s0,a0
    3770:	e0c53423          	sd	a2,-504(a0) # e08 <.LBB52_3+0xc24>
    3774:	00001537          	lui	a0,0x1
    3778:	40a40533          	sub	a0,s0,a0
    377c:	5c853603          	ld	a2,1480(a0) # 15c8 <.LBB52_5+0x1f0>
    3780:	00761613          	slli	a2,a2,0x7
    3784:	f8843503          	ld	a0,-120(s0)
    3788:	00af0533          	add	a0,t5,a0
    378c:	00060f13          	mv	t5,a2
    3790:	00c50533          	add	a0,a0,a2
    3794:	401585bb          	subw	a1,a1,ra
    3798:	40b5053b          	subw	a0,a0,a1
    379c:	400005b7          	lui	a1,0x40000
    37a0:	88843683          	ld	a3,-1912(s0)
    37a4:	00001637          	lui	a2,0x1
    37a8:	40c40633          	sub	a2,s0,a2
    37ac:	bea63023          	sd	a0,-1056(a2) # be0 <.LBB52_3+0x9fc>
    37b0:	00055463          	bgez	a0,37b8 <.LBB52_70>
    37b4:	c00005b7          	lui	a1,0xc0000

00000000000037b8 <.LBB52_70>:
    37b8:	f8d43823          	sd	a3,-112(s0)
    37bc:	00001537          	lui	a0,0x1
    37c0:	40a40533          	sub	a0,s0,a0
    37c4:	bcb53c23          	sd	a1,-1064(a0) # bd8 <.LBB52_3+0x9f4>
    37c8:	ea843503          	ld	a0,-344(s0)
    37cc:	000015b7          	lui	a1,0x1
    37d0:	40b405b3          	sub	a1,s0,a1
    37d4:	7905b583          	ld	a1,1936(a1) # 1790 <.LBB52_5+0x3b8>
    37d8:	00a58533          	add	a0,a1,a0
    37dc:	01300593          	li	a1,19
    37e0:	00001637          	lui	a2,0x1
    37e4:	40c40633          	sub	a2,s0,a2
    37e8:	5b063603          	ld	a2,1456(a2) # 15b0 <.LBB52_5+0x1d8>
    37ec:	02b605b3          	mul	a1,a2,a1
    37f0:	01300793          	li	a5,19
    37f4:	ea043603          	ld	a2,-352(s0)
    37f8:	00c50533          	add	a0,a0,a2
    37fc:	4015863b          	subw	a2,a1,ra
    3800:	40c5053b          	subw	a0,a0,a2
    3804:	40000637          	lui	a2,0x40000
    3808:	000016b7          	lui	a3,0x1
    380c:	40d406b3          	sub	a3,s0,a3
    3810:	78a6b823          	sd	a0,1936(a3) # 1790 <.LBB52_5+0x3b8>
    3814:	f9043683          	ld	a3,-112(s0)
    3818:	00055463          	bgez	a0,3820 <.LBB52_72>
    381c:	c0000637          	lui	a2,0xc0000

0000000000003820 <.LBB52_72>:
    3820:	f8d43823          	sd	a3,-112(s0)
    3824:	00001537          	lui	a0,0x1
    3828:	40a40533          	sub	a0,s0,a0
    382c:	78c53423          	sd	a2,1928(a0) # 1788 <.LBB52_5+0x3b0>
    3830:	e9843503          	ld	a0,-360(s0)
    3834:	00001637          	lui	a2,0x1
    3838:	40c40633          	sub	a2,s0,a2
    383c:	79863603          	ld	a2,1944(a2) # 1798 <.LBB52_5+0x3c0>
    3840:	00a60533          	add	a0,a2,a0
    3844:	e9043603          	ld	a2,-368(s0)
    3848:	00c50533          	add	a0,a0,a2
    384c:	4015863b          	subw	a2,a1,ra
    3850:	40c5053b          	subw	a0,a0,a2
    3854:	40000637          	lui	a2,0x40000
    3858:	000016b7          	lui	a3,0x1
    385c:	40d406b3          	sub	a3,s0,a3
    3860:	78a6bc23          	sd	a0,1944(a3) # 1798 <.LBB52_5+0x3c0>
    3864:	f9043683          	ld	a3,-112(s0)
    3868:	00055463          	bgez	a0,3870 <.LBB52_74>
    386c:	c0000637          	lui	a2,0xc0000

0000000000003870 <.LBB52_74>:
    3870:	f8d43823          	sd	a3,-112(s0)
    3874:	00001537          	lui	a0,0x1
    3878:	40a40533          	sub	a0,s0,a0
    387c:	76c53c23          	sd	a2,1912(a0) # 1778 <.LBB52_5+0x3a0>
    3880:	e8843503          	ld	a0,-376(s0)
    3884:	00001637          	lui	a2,0x1
    3888:	40c40633          	sub	a2,s0,a2
    388c:	7a063603          	ld	a2,1952(a2) # 17a0 <.LBB52_5+0x3c8>
    3890:	00a60533          	add	a0,a2,a0
    3894:	e8043603          	ld	a2,-384(s0)
    3898:	00c50533          	add	a0,a0,a2
    389c:	4015863b          	subw	a2,a1,ra
    38a0:	40c5053b          	subw	a0,a0,a2
    38a4:	40000637          	lui	a2,0x40000
    38a8:	000016b7          	lui	a3,0x1
    38ac:	40d406b3          	sub	a3,s0,a3
    38b0:	7aa6b023          	sd	a0,1952(a3) # 17a0 <.LBB52_5+0x3c8>
    38b4:	f9043683          	ld	a3,-112(s0)
    38b8:	00055463          	bgez	a0,38c0 <.LBB52_76>
    38bc:	c0000637          	lui	a2,0xc0000

00000000000038c0 <.LBB52_76>:
    38c0:	f8d43823          	sd	a3,-112(s0)
    38c4:	00001537          	lui	a0,0x1
    38c8:	40a40533          	sub	a0,s0,a0
    38cc:	76c53823          	sd	a2,1904(a0) # 1770 <.LBB52_5+0x398>
    38d0:	e7843503          	ld	a0,-392(s0)
    38d4:	00001637          	lui	a2,0x1
    38d8:	40c40633          	sub	a2,s0,a2
    38dc:	7a863603          	ld	a2,1960(a2) # 17a8 <.LBB52_5+0x3d0>
    38e0:	00a60533          	add	a0,a2,a0
    38e4:	e7043603          	ld	a2,-400(s0)
    38e8:	00c50533          	add	a0,a0,a2
    38ec:	4015863b          	subw	a2,a1,ra
    38f0:	40c5053b          	subw	a0,a0,a2
    38f4:	40000637          	lui	a2,0x40000
    38f8:	000016b7          	lui	a3,0x1
    38fc:	40d406b3          	sub	a3,s0,a3
    3900:	7aa6b423          	sd	a0,1960(a3) # 17a8 <.LBB52_5+0x3d0>
    3904:	f9043683          	ld	a3,-112(s0)
    3908:	00055463          	bgez	a0,3910 <.LBB52_78>
    390c:	c0000637          	lui	a2,0xc0000

0000000000003910 <.LBB52_78>:
    3910:	f8d43823          	sd	a3,-112(s0)
    3914:	00001537          	lui	a0,0x1
    3918:	40a40533          	sub	a0,s0,a0
    391c:	76c53423          	sd	a2,1896(a0) # 1768 <.LBB52_5+0x390>
    3920:	e6843503          	ld	a0,-408(s0)
    3924:	00001637          	lui	a2,0x1
    3928:	40c40633          	sub	a2,s0,a2
    392c:	7b063603          	ld	a2,1968(a2) # 17b0 <.LBB52_5+0x3d8>
    3930:	00a60533          	add	a0,a2,a0
    3934:	00001637          	lui	a2,0x1
    3938:	40c40633          	sub	a2,s0,a2
    393c:	6d063603          	ld	a2,1744(a2) # 16d0 <.LBB52_5+0x2f8>
    3940:	00c50533          	add	a0,a0,a2
    3944:	4015863b          	subw	a2,a1,ra
    3948:	40c5053b          	subw	a0,a0,a2
    394c:	40000637          	lui	a2,0x40000
    3950:	000016b7          	lui	a3,0x1
    3954:	40d406b3          	sub	a3,s0,a3
    3958:	7aa6b823          	sd	a0,1968(a3) # 17b0 <.LBB52_5+0x3d8>
    395c:	f9043683          	ld	a3,-112(s0)
    3960:	00055463          	bgez	a0,3968 <.LBB52_80>
    3964:	c0000637          	lui	a2,0xc0000

0000000000003968 <.LBB52_80>:
    3968:	f8d43823          	sd	a3,-112(s0)
    396c:	00001537          	lui	a0,0x1
    3970:	40a40533          	sub	a0,s0,a0
    3974:	72c53c23          	sd	a2,1848(a0) # 1738 <.LBB52_5+0x360>
    3978:	00001537          	lui	a0,0x1
    397c:	40a40533          	sub	a0,s0,a0
    3980:	6c853503          	ld	a0,1736(a0) # 16c8 <.LBB52_5+0x2f0>
    3984:	00001637          	lui	a2,0x1
    3988:	40c40633          	sub	a2,s0,a2
    398c:	7b863603          	ld	a2,1976(a2) # 17b8 <.LBB52_5+0x3e0>
    3990:	00a60533          	add	a0,a2,a0
    3994:	00001637          	lui	a2,0x1
    3998:	40c40633          	sub	a2,s0,a2
    399c:	6c063603          	ld	a2,1728(a2) # 16c0 <.LBB52_5+0x2e8>
    39a0:	00c50533          	add	a0,a0,a2
    39a4:	4015863b          	subw	a2,a1,ra
    39a8:	40c5053b          	subw	a0,a0,a2
    39ac:	40000637          	lui	a2,0x40000
    39b0:	000016b7          	lui	a3,0x1
    39b4:	40d406b3          	sub	a3,s0,a3
    39b8:	7aa6bc23          	sd	a0,1976(a3) # 17b8 <.LBB52_5+0x3e0>
    39bc:	f9043683          	ld	a3,-112(s0)
    39c0:	00055463          	bgez	a0,39c8 <.LBB52_82>
    39c4:	c0000637          	lui	a2,0xc0000

00000000000039c8 <.LBB52_82>:
    39c8:	f8d43823          	sd	a3,-112(s0)
    39cc:	00001537          	lui	a0,0x1
    39d0:	40a40533          	sub	a0,s0,a0
    39d4:	72c53823          	sd	a2,1840(a0) # 1730 <.LBB52_5+0x358>
    39d8:	00001537          	lui	a0,0x1
    39dc:	40a40533          	sub	a0,s0,a0
    39e0:	6b853503          	ld	a0,1720(a0) # 16b8 <.LBB52_5+0x2e0>
    39e4:	00001637          	lui	a2,0x1
    39e8:	40c40633          	sub	a2,s0,a2
    39ec:	7c063603          	ld	a2,1984(a2) # 17c0 <.LBB52_5+0x3e8>
    39f0:	00a60533          	add	a0,a2,a0
    39f4:	00001637          	lui	a2,0x1
    39f8:	40c40633          	sub	a2,s0,a2
    39fc:	6b063603          	ld	a2,1712(a2) # 16b0 <.LBB52_5+0x2d8>
    3a00:	00c50533          	add	a0,a0,a2
    3a04:	4015863b          	subw	a2,a1,ra
    3a08:	40c5053b          	subw	a0,a0,a2
    3a0c:	40000637          	lui	a2,0x40000
    3a10:	000016b7          	lui	a3,0x1
    3a14:	40d406b3          	sub	a3,s0,a3
    3a18:	70a6bc23          	sd	a0,1816(a3) # 1718 <.LBB52_5+0x340>
    3a1c:	f9043683          	ld	a3,-112(s0)
    3a20:	00055463          	bgez	a0,3a28 <.LBB52_84>
    3a24:	c0000637          	lui	a2,0xc0000

0000000000003a28 <.LBB52_84>:
    3a28:	f8d43823          	sd	a3,-112(s0)
    3a2c:	00001537          	lui	a0,0x1
    3a30:	40a40533          	sub	a0,s0,a0
    3a34:	70c53823          	sd	a2,1808(a0) # 1710 <.LBB52_5+0x338>
    3a38:	00001537          	lui	a0,0x1
    3a3c:	40a40533          	sub	a0,s0,a0
    3a40:	6a853503          	ld	a0,1704(a0) # 16a8 <.LBB52_5+0x2d0>
    3a44:	00001637          	lui	a2,0x1
    3a48:	40c40633          	sub	a2,s0,a2
    3a4c:	7c863603          	ld	a2,1992(a2) # 17c8 <.LBB52_5+0x3f0>
    3a50:	00a60533          	add	a0,a2,a0
    3a54:	00001637          	lui	a2,0x1
    3a58:	40c40633          	sub	a2,s0,a2
    3a5c:	6a063603          	ld	a2,1696(a2) # 16a0 <.LBB52_5+0x2c8>
    3a60:	00c50533          	add	a0,a0,a2
    3a64:	4015863b          	subw	a2,a1,ra
    3a68:	40c5053b          	subw	a0,a0,a2
    3a6c:	40000637          	lui	a2,0x40000
    3a70:	000016b7          	lui	a3,0x1
    3a74:	40d406b3          	sub	a3,s0,a3
    3a78:	5ca6b423          	sd	a0,1480(a3) # 15c8 <.LBB52_5+0x1f0>
    3a7c:	f9043683          	ld	a3,-112(s0)
    3a80:	00055463          	bgez	a0,3a88 <.LBB52_86>
    3a84:	c0000637          	lui	a2,0xc0000

0000000000003a88 <.LBB52_86>:
    3a88:	f8d43823          	sd	a3,-112(s0)
    3a8c:	00001537          	lui	a0,0x1
    3a90:	40a40533          	sub	a0,s0,a0
    3a94:	5ac53c23          	sd	a2,1464(a0) # 15b8 <.LBB52_5+0x1e0>
    3a98:	00001537          	lui	a0,0x1
    3a9c:	40a40533          	sub	a0,s0,a0
    3aa0:	69853503          	ld	a0,1688(a0) # 1698 <.LBB52_5+0x2c0>
    3aa4:	00001637          	lui	a2,0x1
    3aa8:	40c40633          	sub	a2,s0,a2
    3aac:	7d063603          	ld	a2,2000(a2) # 17d0 <.LBB52_5+0x3f8>
    3ab0:	00a60533          	add	a0,a2,a0
    3ab4:	00001637          	lui	a2,0x1
    3ab8:	40c40633          	sub	a2,s0,a2
    3abc:	69063603          	ld	a2,1680(a2) # 1690 <.LBB52_5+0x2b8>
    3ac0:	00c50533          	add	a0,a0,a2
    3ac4:	4015863b          	subw	a2,a1,ra
    3ac8:	40c5053b          	subw	a0,a0,a2
    3acc:	40000637          	lui	a2,0x40000
    3ad0:	000016b7          	lui	a3,0x1
    3ad4:	40d406b3          	sub	a3,s0,a3
    3ad8:	58a6b423          	sd	a0,1416(a3) # 1588 <.LBB52_5+0x1b0>
    3adc:	f9043683          	ld	a3,-112(s0)
    3ae0:	00055463          	bgez	a0,3ae8 <.LBB52_88>
    3ae4:	c0000637          	lui	a2,0xc0000

0000000000003ae8 <.LBB52_88>:
    3ae8:	f8d43823          	sd	a3,-112(s0)
    3aec:	00001537          	lui	a0,0x1
    3af0:	40a40533          	sub	a0,s0,a0
    3af4:	56c53c23          	sd	a2,1400(a0) # 1578 <.LBB52_5+0x1a0>
    3af8:	00001537          	lui	a0,0x1
    3afc:	40a40533          	sub	a0,s0,a0
    3b00:	68853503          	ld	a0,1672(a0) # 1688 <.LBB52_5+0x2b0>
    3b04:	00001637          	lui	a2,0x1
    3b08:	40c40633          	sub	a2,s0,a2
    3b0c:	7d863603          	ld	a2,2008(a2) # 17d8 <.LBB52_5+0x400>
    3b10:	00a60533          	add	a0,a2,a0
    3b14:	00001637          	lui	a2,0x1
    3b18:	40c40633          	sub	a2,s0,a2
    3b1c:	6d863603          	ld	a2,1752(a2) # 16d8 <.LBB52_5+0x300>
    3b20:	00c50533          	add	a0,a0,a2
    3b24:	4015863b          	subw	a2,a1,ra
    3b28:	40c5053b          	subw	a0,a0,a2
    3b2c:	40000637          	lui	a2,0x40000
    3b30:	000016b7          	lui	a3,0x1
    3b34:	40d406b3          	sub	a3,s0,a3
    3b38:	52a6b823          	sd	a0,1328(a3) # 1530 <.LBB52_5+0x158>
    3b3c:	f9043683          	ld	a3,-112(s0)
    3b40:	00055463          	bgez	a0,3b48 <.LBB52_90>
    3b44:	c0000637          	lui	a2,0xc0000

0000000000003b48 <.LBB52_90>:
    3b48:	f8d43823          	sd	a3,-112(s0)
    3b4c:	00001537          	lui	a0,0x1
    3b50:	40a40533          	sub	a0,s0,a0
    3b54:	52c53023          	sd	a2,1312(a0) # 1520 <.LBB52_5+0x148>
    3b58:	eb043503          	ld	a0,-336(s0)
    3b5c:	00001637          	lui	a2,0x1
    3b60:	40c40633          	sub	a2,s0,a2
    3b64:	7e063603          	ld	a2,2016(a2) # 17e0 <.LBB52_5+0x408>
    3b68:	00a60533          	add	a0,a2,a0
    3b6c:	00001637          	lui	a2,0x1
    3b70:	40c40633          	sub	a2,s0,a2
    3b74:	6e063603          	ld	a2,1760(a2) # 16e0 <.LBB52_5+0x308>
    3b78:	00c50533          	add	a0,a0,a2
    3b7c:	4015863b          	subw	a2,a1,ra
    3b80:	40c5053b          	subw	a0,a0,a2
    3b84:	40000637          	lui	a2,0x40000
    3b88:	000016b7          	lui	a3,0x1
    3b8c:	40d406b3          	sub	a3,s0,a3
    3b90:	4ca6bc23          	sd	a0,1240(a3) # 14d8 <.LBB52_5+0x100>
    3b94:	f9043683          	ld	a3,-112(s0)
    3b98:	00055463          	bgez	a0,3ba0 <.LBB52_92>
    3b9c:	c0000637          	lui	a2,0xc0000

0000000000003ba0 <.LBB52_92>:
    3ba0:	f8d43823          	sd	a3,-112(s0)
    3ba4:	00001537          	lui	a0,0x1
    3ba8:	40a40533          	sub	a0,s0,a0
    3bac:	4cc53023          	sd	a2,1216(a0) # 14c0 <.LBB52_5+0xe8>
    3bb0:	eb843503          	ld	a0,-328(s0)
    3bb4:	00001637          	lui	a2,0x1
    3bb8:	40c40633          	sub	a2,s0,a2
    3bbc:	7e863603          	ld	a2,2024(a2) # 17e8 <.LBB52_5+0x410>
    3bc0:	00a60533          	add	a0,a2,a0
    3bc4:	00001637          	lui	a2,0x1
    3bc8:	40c40633          	sub	a2,s0,a2
    3bcc:	6e863603          	ld	a2,1768(a2) # 16e8 <.LBB52_5+0x310>
    3bd0:	00c50533          	add	a0,a0,a2
    3bd4:	4015863b          	subw	a2,a1,ra
    3bd8:	40c5053b          	subw	a0,a0,a2
    3bdc:	40000637          	lui	a2,0x40000
    3be0:	000016b7          	lui	a3,0x1
    3be4:	40d406b3          	sub	a3,s0,a3
    3be8:	48a6b023          	sd	a0,1152(a3) # 1480 <.LBB52_5+0xa8>
    3bec:	f9043683          	ld	a3,-112(s0)
    3bf0:	00055463          	bgez	a0,3bf8 <.LBB52_94>
    3bf4:	c0000637          	lui	a2,0xc0000

0000000000003bf8 <.LBB52_94>:
    3bf8:	f8d43823          	sd	a3,-112(s0)
    3bfc:	00001537          	lui	a0,0x1
    3c00:	40a40533          	sub	a0,s0,a0
    3c04:	46c53423          	sd	a2,1128(a0) # 1468 <.LBB52_5+0x90>
    3c08:	ec043503          	ld	a0,-320(s0)
    3c0c:	00001637          	lui	a2,0x1
    3c10:	40c40633          	sub	a2,s0,a2
    3c14:	7f063603          	ld	a2,2032(a2) # 17f0 <.LBB52_5+0x418>
    3c18:	00a60533          	add	a0,a2,a0
    3c1c:	01b50533          	add	a0,a0,s11
    3c20:	4015863b          	subw	a2,a1,ra
    3c24:	40c5053b          	subw	a0,a0,a2
    3c28:	40000637          	lui	a2,0x40000
    3c2c:	000016b7          	lui	a3,0x1
    3c30:	40d406b3          	sub	a3,s0,a3
    3c34:	42a6b823          	sd	a0,1072(a3) # 1430 <.LBB52_5+0x58>
    3c38:	f9043683          	ld	a3,-112(s0)
    3c3c:	00055463          	bgez	a0,3c44 <.LBB52_96>
    3c40:	c0000637          	lui	a2,0xc0000

0000000000003c44 <.LBB52_96>:
    3c44:	f8d43823          	sd	a3,-112(s0)
    3c48:	00001537          	lui	a0,0x1
    3c4c:	40a40533          	sub	a0,s0,a0
    3c50:	40c53c23          	sd	a2,1048(a0) # 1418 <.LBB52_5+0x40>
    3c54:	ec843503          	ld	a0,-312(s0)
    3c58:	00001637          	lui	a2,0x1
    3c5c:	40c40633          	sub	a2,s0,a2
    3c60:	7f863603          	ld	a2,2040(a2) # 17f8 <.LBB52_5+0x420>
    3c64:	00a60533          	add	a0,a2,a0
    3c68:	01a50533          	add	a0,a0,s10
    3c6c:	4015863b          	subw	a2,a1,ra
    3c70:	40c5053b          	subw	a0,a0,a2
    3c74:	40000637          	lui	a2,0x40000
    3c78:	000016b7          	lui	a3,0x1
    3c7c:	40d406b3          	sub	a3,s0,a3
    3c80:	3ca6bc23          	sd	a0,984(a3) # 13d8 <.LBB52_5>
    3c84:	f9043683          	ld	a3,-112(s0)
    3c88:	00055463          	bgez	a0,3c90 <.LBB52_98>
    3c8c:	c0000637          	lui	a2,0xc0000

0000000000003c90 <.LBB52_98>:
    3c90:	f8d43823          	sd	a3,-112(s0)
    3c94:	00001537          	lui	a0,0x1
    3c98:	40a40533          	sub	a0,s0,a0
    3c9c:	3cc53423          	sd	a2,968(a0) # 13c8 <.LBB52_4+0x598>
    3ca0:	ed043503          	ld	a0,-304(s0)
    3ca4:	80043603          	ld	a2,-2048(s0)
    3ca8:	00a60533          	add	a0,a2,a0
    3cac:	01950533          	add	a0,a0,s9
    3cb0:	4015863b          	subw	a2,a1,ra
    3cb4:	40c5053b          	subw	a0,a0,a2
    3cb8:	40000637          	lui	a2,0x40000
    3cbc:	000016b7          	lui	a3,0x1
    3cc0:	40d406b3          	sub	a3,s0,a3
    3cc4:	36a6b823          	sd	a0,880(a3) # 1370 <.LBB52_4+0x540>
    3cc8:	f9043683          	ld	a3,-112(s0)
    3ccc:	00055463          	bgez	a0,3cd4 <.LBB52_100>
    3cd0:	c0000637          	lui	a2,0xc0000

0000000000003cd4 <.LBB52_100>:
    3cd4:	f8d43823          	sd	a3,-112(s0)
    3cd8:	00001537          	lui	a0,0x1
    3cdc:	40a40533          	sub	a0,s0,a0
    3ce0:	36c53023          	sd	a2,864(a0) # 1360 <.LBB52_4+0x530>
    3ce4:	ed843503          	ld	a0,-296(s0)
    3ce8:	80843603          	ld	a2,-2040(s0)
    3cec:	00a60533          	add	a0,a2,a0
    3cf0:	01850533          	add	a0,a0,s8
    3cf4:	4015863b          	subw	a2,a1,ra
    3cf8:	40c5053b          	subw	a0,a0,a2
    3cfc:	40000637          	lui	a2,0x40000
    3d00:	000016b7          	lui	a3,0x1
    3d04:	40d406b3          	sub	a3,s0,a3
    3d08:	30a6b423          	sd	a0,776(a3) # 1308 <.LBB52_4+0x4d8>
    3d0c:	f9043683          	ld	a3,-112(s0)
    3d10:	00055463          	bgez	a0,3d18 <.LBB52_102>
    3d14:	c0000637          	lui	a2,0xc0000

0000000000003d18 <.LBB52_102>:
    3d18:	f8d43823          	sd	a3,-112(s0)
    3d1c:	00001537          	lui	a0,0x1
    3d20:	40a40533          	sub	a0,s0,a0
    3d24:	2ec53c23          	sd	a2,760(a0) # 12f8 <.LBB52_4+0x4c8>
    3d28:	ee043503          	ld	a0,-288(s0)
    3d2c:	81043603          	ld	a2,-2032(s0)
    3d30:	00a60533          	add	a0,a2,a0
    3d34:	01750533          	add	a0,a0,s7
    3d38:	4015863b          	subw	a2,a1,ra
    3d3c:	40c5053b          	subw	a0,a0,a2
    3d40:	40000637          	lui	a2,0x40000
    3d44:	000016b7          	lui	a3,0x1
    3d48:	40d406b3          	sub	a3,s0,a3
    3d4c:	2aa6b023          	sd	a0,672(a3) # 12a0 <.LBB52_4+0x470>
    3d50:	f9043683          	ld	a3,-112(s0)
    3d54:	00055463          	bgez	a0,3d5c <.LBB52_104>
    3d58:	c0000637          	lui	a2,0xc0000

0000000000003d5c <.LBB52_104>:
    3d5c:	f8d43823          	sd	a3,-112(s0)
    3d60:	00001537          	lui	a0,0x1
    3d64:	40a40533          	sub	a0,s0,a0
    3d68:	28c53823          	sd	a2,656(a0) # 1290 <.LBB52_4+0x460>
    3d6c:	ee843503          	ld	a0,-280(s0)
    3d70:	81843603          	ld	a2,-2024(s0)
    3d74:	00a60533          	add	a0,a2,a0
    3d78:	01650533          	add	a0,a0,s6
    3d7c:	4015863b          	subw	a2,a1,ra
    3d80:	40c5053b          	subw	a0,a0,a2
    3d84:	40000637          	lui	a2,0x40000
    3d88:	000016b7          	lui	a3,0x1
    3d8c:	40d406b3          	sub	a3,s0,a3
    3d90:	22a6b423          	sd	a0,552(a3) # 1228 <.LBB52_4+0x3f8>
    3d94:	f9043683          	ld	a3,-112(s0)
    3d98:	00055463          	bgez	a0,3da0 <.LBB52_106>
    3d9c:	c0000637          	lui	a2,0xc0000

0000000000003da0 <.LBB52_106>:
    3da0:	f8d43823          	sd	a3,-112(s0)
    3da4:	00001537          	lui	a0,0x1
    3da8:	40a40533          	sub	a0,s0,a0
    3dac:	20c53c23          	sd	a2,536(a0) # 1218 <.LBB52_4+0x3e8>
    3db0:	ef043503          	ld	a0,-272(s0)
    3db4:	82043603          	ld	a2,-2016(s0)
    3db8:	00a60533          	add	a0,a2,a0
    3dbc:	01550533          	add	a0,a0,s5
    3dc0:	4015863b          	subw	a2,a1,ra
    3dc4:	40c5053b          	subw	a0,a0,a2
    3dc8:	40000637          	lui	a2,0x40000
    3dcc:	000016b7          	lui	a3,0x1
    3dd0:	40d406b3          	sub	a3,s0,a3
    3dd4:	1aa6b823          	sd	a0,432(a3) # 11b0 <.LBB52_4+0x380>
    3dd8:	f9043683          	ld	a3,-112(s0)
    3ddc:	00055463          	bgez	a0,3de4 <.LBB52_108>
    3de0:	c0000637          	lui	a2,0xc0000

0000000000003de4 <.LBB52_108>:
    3de4:	f8d43823          	sd	a3,-112(s0)
    3de8:	00001537          	lui	a0,0x1
    3dec:	40a40533          	sub	a0,s0,a0
    3df0:	1ac53023          	sd	a2,416(a0) # 11a0 <.LBB52_4+0x370>
    3df4:	ef843503          	ld	a0,-264(s0)
    3df8:	82843603          	ld	a2,-2008(s0)
    3dfc:	00a60533          	add	a0,a2,a0
    3e00:	01450533          	add	a0,a0,s4
    3e04:	4015863b          	subw	a2,a1,ra
    3e08:	40c5053b          	subw	a0,a0,a2
    3e0c:	40000637          	lui	a2,0x40000
    3e10:	000016b7          	lui	a3,0x1
    3e14:	40d406b3          	sub	a3,s0,a3
    3e18:	12a6bc23          	sd	a0,312(a3) # 1138 <.LBB52_4+0x308>
    3e1c:	f9043683          	ld	a3,-112(s0)
    3e20:	00055463          	bgez	a0,3e28 <.LBB52_110>
    3e24:	c0000637          	lui	a2,0xc0000

0000000000003e28 <.LBB52_110>:
    3e28:	f8d43823          	sd	a3,-112(s0)
    3e2c:	00001537          	lui	a0,0x1
    3e30:	40a40533          	sub	a0,s0,a0
    3e34:	12c53423          	sd	a2,296(a0) # 1128 <.LBB52_4+0x2f8>
    3e38:	f0043503          	ld	a0,-256(s0)
    3e3c:	83043603          	ld	a2,-2000(s0)
    3e40:	00a60533          	add	a0,a2,a0
    3e44:	01350533          	add	a0,a0,s3
    3e48:	4015863b          	subw	a2,a1,ra
    3e4c:	40c5053b          	subw	a0,a0,a2
    3e50:	40000637          	lui	a2,0x40000
    3e54:	000016b7          	lui	a3,0x1
    3e58:	40d406b3          	sub	a3,s0,a3
    3e5c:	0ca6b023          	sd	a0,192(a3) # 10c0 <.LBB52_4+0x290>
    3e60:	f9043683          	ld	a3,-112(s0)
    3e64:	00055463          	bgez	a0,3e6c <.LBB52_112>
    3e68:	c0000637          	lui	a2,0xc0000

0000000000003e6c <.LBB52_112>:
    3e6c:	f8d43823          	sd	a3,-112(s0)
    3e70:	00001537          	lui	a0,0x1
    3e74:	40a40533          	sub	a0,s0,a0
    3e78:	0ac53823          	sd	a2,176(a0) # 10b0 <.LBB52_4+0x280>
    3e7c:	f3843503          	ld	a0,-200(s0)
    3e80:	83843603          	ld	a2,-1992(s0)
    3e84:	00a60533          	add	a0,a2,a0
    3e88:	01250533          	add	a0,a0,s2
    3e8c:	4015863b          	subw	a2,a1,ra
    3e90:	40c5053b          	subw	a0,a0,a2
    3e94:	40000637          	lui	a2,0x40000
    3e98:	000016b7          	lui	a3,0x1
    3e9c:	40d406b3          	sub	a3,s0,a3
    3ea0:	04a6b423          	sd	a0,72(a3) # 1048 <.LBB52_4+0x218>
    3ea4:	f9043683          	ld	a3,-112(s0)
    3ea8:	00055463          	bgez	a0,3eb0 <.LBB52_114>
    3eac:	c0000637          	lui	a2,0xc0000

0000000000003eb0 <.LBB52_114>:
    3eb0:	f8d43823          	sd	a3,-112(s0)
    3eb4:	00001537          	lui	a0,0x1
    3eb8:	40a40533          	sub	a0,s0,a0
    3ebc:	02c53c23          	sd	a2,56(a0) # 1038 <.LBB52_4+0x208>
    3ec0:	f4043503          	ld	a0,-192(s0)
    3ec4:	84043603          	ld	a2,-1984(s0)
    3ec8:	00a60533          	add	a0,a2,a0
    3ecc:	00001637          	lui	a2,0x1
    3ed0:	40c40633          	sub	a2,s0,a2
    3ed4:	74063603          	ld	a2,1856(a2) # 1740 <.LBB52_5+0x368>
    3ed8:	00c50533          	add	a0,a0,a2
    3edc:	4015863b          	subw	a2,a1,ra
    3ee0:	40c5053b          	subw	a0,a0,a2
    3ee4:	40000637          	lui	a2,0x40000
    3ee8:	000016b7          	lui	a3,0x1
    3eec:	40d406b3          	sub	a3,s0,a3
    3ef0:	fca6b823          	sd	a0,-48(a3) # fd0 <.LBB52_4+0x1a0>
    3ef4:	f9043683          	ld	a3,-112(s0)
    3ef8:	00055463          	bgez	a0,3f00 <.LBB52_116>
    3efc:	c0000637          	lui	a2,0xc0000

0000000000003f00 <.LBB52_116>:
    3f00:	f8d43823          	sd	a3,-112(s0)
    3f04:	00001537          	lui	a0,0x1
    3f08:	40a40533          	sub	a0,s0,a0
    3f0c:	fcc53023          	sd	a2,-64(a0) # fc0 <.LBB52_4+0x190>
    3f10:	f4843503          	ld	a0,-184(s0)
    3f14:	84843603          	ld	a2,-1976(s0)
    3f18:	00a60533          	add	a0,a2,a0
    3f1c:	00001637          	lui	a2,0x1
    3f20:	40c40633          	sub	a2,s0,a2
    3f24:	74863603          	ld	a2,1864(a2) # 1748 <.LBB52_5+0x370>
    3f28:	00c50533          	add	a0,a0,a2
    3f2c:	4015863b          	subw	a2,a1,ra
    3f30:	40c5053b          	subw	a0,a0,a2
    3f34:	40000637          	lui	a2,0x40000
    3f38:	000016b7          	lui	a3,0x1
    3f3c:	40d406b3          	sub	a3,s0,a3
    3f40:	f4a6bc23          	sd	a0,-168(a3) # f58 <.LBB52_4+0x128>
    3f44:	f9043683          	ld	a3,-112(s0)
    3f48:	00055463          	bgez	a0,3f50 <.LBB52_118>
    3f4c:	c0000637          	lui	a2,0xc0000

0000000000003f50 <.LBB52_118>:
    3f50:	f8d43823          	sd	a3,-112(s0)
    3f54:	00001537          	lui	a0,0x1
    3f58:	40a40533          	sub	a0,s0,a0
    3f5c:	f4c53423          	sd	a2,-184(a0) # f48 <.LBB52_4+0x118>
    3f60:	f5043503          	ld	a0,-176(s0)
    3f64:	85043603          	ld	a2,-1968(s0)
    3f68:	00a60533          	add	a0,a2,a0
    3f6c:	00001637          	lui	a2,0x1
    3f70:	40c40633          	sub	a2,s0,a2
    3f74:	75063603          	ld	a2,1872(a2) # 1750 <.LBB52_5+0x378>
    3f78:	00c50533          	add	a0,a0,a2
    3f7c:	4015863b          	subw	a2,a1,ra
    3f80:	40c5053b          	subw	a0,a0,a2
    3f84:	40000637          	lui	a2,0x40000
    3f88:	000016b7          	lui	a3,0x1
    3f8c:	40d406b3          	sub	a3,s0,a3
    3f90:	eea6b423          	sd	a0,-280(a3) # ee8 <.LBB52_4+0xb8>
    3f94:	f9043683          	ld	a3,-112(s0)
    3f98:	00055463          	bgez	a0,3fa0 <.LBB52_120>
    3f9c:	c0000637          	lui	a2,0xc0000

0000000000003fa0 <.LBB52_120>:
    3fa0:	f8d43823          	sd	a3,-112(s0)
    3fa4:	00001537          	lui	a0,0x1
    3fa8:	40a40533          	sub	a0,s0,a0
    3fac:	ecc53c23          	sd	a2,-296(a0) # ed8 <.LBB52_4+0xa8>
    3fb0:	f5843503          	ld	a0,-168(s0)
    3fb4:	85843603          	ld	a2,-1960(s0)
    3fb8:	00a60533          	add	a0,a2,a0
    3fbc:	00001637          	lui	a2,0x1
    3fc0:	40c40633          	sub	a2,s0,a2
    3fc4:	75863603          	ld	a2,1880(a2) # 1758 <.LBB52_5+0x380>
    3fc8:	00c50533          	add	a0,a0,a2
    3fcc:	4015863b          	subw	a2,a1,ra
    3fd0:	40c5053b          	subw	a0,a0,a2
    3fd4:	40000637          	lui	a2,0x40000
    3fd8:	000016b7          	lui	a3,0x1
    3fdc:	40d406b3          	sub	a3,s0,a3
    3fe0:	e6a6b823          	sd	a0,-400(a3) # e70 <.LBB52_4+0x40>
    3fe4:	f9043683          	ld	a3,-112(s0)
    3fe8:	00055463          	bgez	a0,3ff0 <.LBB52_122>
    3fec:	c0000637          	lui	a2,0xc0000

0000000000003ff0 <.LBB52_122>:
    3ff0:	f8d43823          	sd	a3,-112(s0)
    3ff4:	00001537          	lui	a0,0x1
    3ff8:	40a40533          	sub	a0,s0,a0
    3ffc:	e6c53023          	sd	a2,-416(a0) # e60 <.LBB52_4+0x30>
    4000:	f6043503          	ld	a0,-160(s0)
    4004:	86043603          	ld	a2,-1952(s0)
    4008:	00a60533          	add	a0,a2,a0
    400c:	00001637          	lui	a2,0x1
    4010:	40c40633          	sub	a2,s0,a2
    4014:	76063603          	ld	a2,1888(a2) # 1760 <.LBB52_5+0x388>
    4018:	00c50533          	add	a0,a0,a2
    401c:	4015863b          	subw	a2,a1,ra
    4020:	40c5053b          	subw	a0,a0,a2
    4024:	40000637          	lui	a2,0x40000
    4028:	000016b7          	lui	a3,0x1
    402c:	40d406b3          	sub	a3,s0,a3
    4030:	e0a6b023          	sd	a0,-512(a3) # e00 <.LBB52_3+0xc1c>
    4034:	f9043683          	ld	a3,-112(s0)
    4038:	00055463          	bgez	a0,4040 <.LBB52_124>
    403c:	c0000637          	lui	a2,0xc0000

0000000000004040 <.LBB52_124>:
    4040:	f8d43823          	sd	a3,-112(s0)
    4044:	00001537          	lui	a0,0x1
    4048:	40a40533          	sub	a0,s0,a0
    404c:	dec53823          	sd	a2,-528(a0) # df0 <.LBB52_3+0xc0c>
    4050:	f6843503          	ld	a0,-152(s0)
    4054:	86843603          	ld	a2,-1944(s0)
    4058:	00a60533          	add	a0,a2,a0
    405c:	00650533          	add	a0,a0,t1
    4060:	4015863b          	subw	a2,a1,ra
    4064:	40c5053b          	subw	a0,a0,a2
    4068:	40000637          	lui	a2,0x40000
    406c:	000016b7          	lui	a3,0x1
    4070:	40d406b3          	sub	a3,s0,a3
    4074:	d8a6b423          	sd	a0,-632(a3) # d88 <.LBB52_3+0xba4>
    4078:	f9043683          	ld	a3,-112(s0)
    407c:	00055463          	bgez	a0,4084 <.LBB52_126>
    4080:	c0000637          	lui	a2,0xc0000

0000000000004084 <.LBB52_126>:
    4084:	f8d43823          	sd	a3,-112(s0)
    4088:	00001537          	lui	a0,0x1
    408c:	40a40533          	sub	a0,s0,a0
    4090:	d6c53c23          	sd	a2,-648(a0) # d78 <.LBB52_3+0xb94>
    4094:	f7043503          	ld	a0,-144(s0)
    4098:	87043603          	ld	a2,-1936(s0)
    409c:	00a60533          	add	a0,a2,a0
    40a0:	00950533          	add	a0,a0,s1
    40a4:	4015863b          	subw	a2,a1,ra
    40a8:	40c5053b          	subw	a0,a0,a2
    40ac:	40000637          	lui	a2,0x40000
    40b0:	000016b7          	lui	a3,0x1
    40b4:	40d406b3          	sub	a3,s0,a3
    40b8:	d0a6b823          	sd	a0,-752(a3) # d10 <.LBB52_3+0xb2c>
    40bc:	f9043683          	ld	a3,-112(s0)
    40c0:	00055463          	bgez	a0,40c8 <.LBB52_128>
    40c4:	c0000637          	lui	a2,0xc0000

00000000000040c8 <.LBB52_128>:
    40c8:	f8d43823          	sd	a3,-112(s0)
    40cc:	00001537          	lui	a0,0x1
    40d0:	40a40533          	sub	a0,s0,a0
    40d4:	d0c53023          	sd	a2,-768(a0) # d00 <.LBB52_3+0xb1c>
    40d8:	f7843503          	ld	a0,-136(s0)
    40dc:	87843603          	ld	a2,-1928(s0)
    40e0:	00a60533          	add	a0,a2,a0
    40e4:	01c50533          	add	a0,a0,t3
    40e8:	4015863b          	subw	a2,a1,ra
    40ec:	40c5053b          	subw	a0,a0,a2
    40f0:	40000637          	lui	a2,0x40000
    40f4:	000016b7          	lui	a3,0x1
    40f8:	40d406b3          	sub	a3,s0,a3
    40fc:	caa6b423          	sd	a0,-856(a3) # ca8 <.LBB52_3+0xac4>
    4100:	f9043683          	ld	a3,-112(s0)
    4104:	00055463          	bgez	a0,410c <.LBB52_130>
    4108:	c0000637          	lui	a2,0xc0000

000000000000410c <.LBB52_130>:
    410c:	f8d43823          	sd	a3,-112(s0)
    4110:	00001537          	lui	a0,0x1
    4114:	40a40533          	sub	a0,s0,a0
    4118:	cac53023          	sd	a2,-864(a0) # ca0 <.LBB52_3+0xabc>
    411c:	f8043503          	ld	a0,-128(s0)
    4120:	00a88533          	add	a0,a7,a0
    4124:	00001637          	lui	a2,0x1
    4128:	40c40633          	sub	a2,s0,a2
    412c:	78063883          	ld	a7,1920(a2) # 1780 <.LBB52_5+0x3a8>
    4130:	01150533          	add	a0,a0,a7
    4134:	4015863b          	subw	a2,a1,ra
    4138:	40c5053b          	subw	a0,a0,a2
    413c:	40000637          	lui	a2,0x40000
    4140:	000016b7          	lui	a3,0x1
    4144:	40d406b3          	sub	a3,s0,a3
    4148:	c6a6b423          	sd	a0,-920(a3) # c68 <.LBB52_3+0xa84>
    414c:	f9043683          	ld	a3,-112(s0)
    4150:	00055463          	bgez	a0,4158 <.LBB52_132>
    4154:	c0000637          	lui	a2,0xc0000

0000000000004158 <.LBB52_132>:
    4158:	00001537          	lui	a0,0x1
    415c:	40a40533          	sub	a0,s0,a0
    4160:	c6c53023          	sd	a2,-928(a0) # c60 <.LBB52_3+0xa7c>
    4164:	f8843503          	ld	a0,-120(s0)
    4168:	00a68533          	add	a0,a3,a0
    416c:	01e50533          	add	a0,a0,t5
    4170:	401585bb          	subw	a1,a1,ra
    4174:	40b506bb          	subw	a3,a0,a1
    4178:	40000537          	lui	a0,0x40000
    417c:	0006d463          	bgez	a3,4184 <.LBB52_134>
    4180:	c0000537          	lui	a0,0xc0000

0000000000004184 <.LBB52_134>:
    4184:	000015b7          	lui	a1,0x1
    4188:	40b405b3          	sub	a1,s0,a1
    418c:	bca5b823          	sd	a0,-1072(a1) # bd0 <.LBB52_3+0x9ec>
    4190:	ea843583          	ld	a1,-344(s0)
    4194:	89043503          	ld	a0,-1904(s0)
    4198:	00b505b3          	add	a1,a0,a1
    419c:	00001537          	lui	a0,0x1
    41a0:	40a40533          	sub	a0,s0,a0
    41a4:	5c053503          	ld	a0,1472(a0) # 15c0 <.LBB52_5+0x1e8>
    41a8:	02f50533          	mul	a0,a0,a5
    41ac:	ea043603          	ld	a2,-352(s0)
    41b0:	00c585b3          	add	a1,a1,a2
    41b4:	4015063b          	subw	a2,a0,ra
    41b8:	40c585bb          	subw	a1,a1,a2
    41bc:	40000637          	lui	a2,0x40000
    41c0:	88b43823          	sd	a1,-1904(s0)
    41c4:	0005d463          	bgez	a1,41cc <.LBB52_136>
    41c8:	c0000637          	lui	a2,0xc0000

00000000000041cc <.LBB52_136>:
    41cc:	88c43423          	sd	a2,-1912(s0)
    41d0:	e9843583          	ld	a1,-360(s0)
    41d4:	89843603          	ld	a2,-1896(s0)
    41d8:	00b605b3          	add	a1,a2,a1
    41dc:	e9043603          	ld	a2,-368(s0)
    41e0:	00c585b3          	add	a1,a1,a2
    41e4:	4015063b          	subw	a2,a0,ra
    41e8:	40c585bb          	subw	a1,a1,a2
    41ec:	40000637          	lui	a2,0x40000
    41f0:	88b43c23          	sd	a1,-1896(s0)
    41f4:	0005d463          	bgez	a1,41fc <.LBB52_138>
    41f8:	c0000637          	lui	a2,0xc0000

00000000000041fc <.LBB52_138>:
    41fc:	88c43023          	sd	a2,-1920(s0)
    4200:	e8843583          	ld	a1,-376(s0)
    4204:	8a043603          	ld	a2,-1888(s0)
    4208:	00b605b3          	add	a1,a2,a1
    420c:	e8043603          	ld	a2,-384(s0)
    4210:	00c585b3          	add	a1,a1,a2
    4214:	4015063b          	subw	a2,a0,ra
    4218:	40c585bb          	subw	a1,a1,a2
    421c:	40000637          	lui	a2,0x40000
    4220:	8ab43023          	sd	a1,-1888(s0)
    4224:	0005d463          	bgez	a1,422c <.LBB52_140>
    4228:	c0000637          	lui	a2,0xc0000

000000000000422c <.LBB52_140>:
    422c:	86c43c23          	sd	a2,-1928(s0)
    4230:	e7843583          	ld	a1,-392(s0)
    4234:	8a843603          	ld	a2,-1880(s0)
    4238:	00b605b3          	add	a1,a2,a1
    423c:	e7043603          	ld	a2,-400(s0)
    4240:	00c585b3          	add	a1,a1,a2
    4244:	4015063b          	subw	a2,a0,ra
    4248:	40c585bb          	subw	a1,a1,a2
    424c:	40000637          	lui	a2,0x40000
    4250:	86b43823          	sd	a1,-1936(s0)
    4254:	0005d463          	bgez	a1,425c <.LBB52_142>
    4258:	c0000637          	lui	a2,0xc0000

000000000000425c <.LBB52_142>:
    425c:	84c43c23          	sd	a2,-1960(s0)
    4260:	e6843583          	ld	a1,-408(s0)
    4264:	8b043603          	ld	a2,-1872(s0)
    4268:	00b605b3          	add	a1,a2,a1
    426c:	00001637          	lui	a2,0x1
    4270:	40c40633          	sub	a2,s0,a2
    4274:	6d063603          	ld	a2,1744(a2) # 16d0 <.LBB52_5+0x2f8>
    4278:	00c585b3          	add	a1,a1,a2
    427c:	4015063b          	subw	a2,a0,ra
    4280:	40c585bb          	subw	a1,a1,a2
    4284:	40000637          	lui	a2,0x40000
    4288:	8ab43823          	sd	a1,-1872(s0)
    428c:	0005d463          	bgez	a1,4294 <.LBB52_144>
    4290:	c0000637          	lui	a2,0xc0000

0000000000004294 <.LBB52_144>:
    4294:	80c43023          	sd	a2,-2048(s0)
    4298:	f8d43823          	sd	a3,-112(s0)
    429c:	000015b7          	lui	a1,0x1
    42a0:	40b405b3          	sub	a1,s0,a1
    42a4:	6c85b583          	ld	a1,1736(a1) # 16c8 <.LBB52_5+0x2f0>
    42a8:	8b843603          	ld	a2,-1864(s0)
    42ac:	00b605b3          	add	a1,a2,a1
    42b0:	00001637          	lui	a2,0x1
    42b4:	40c40633          	sub	a2,s0,a2
    42b8:	6c063603          	ld	a2,1728(a2) # 16c0 <.LBB52_5+0x2e8>
    42bc:	00c585b3          	add	a1,a1,a2
    42c0:	4015063b          	subw	a2,a0,ra
    42c4:	40c585bb          	subw	a1,a1,a2
    42c8:	40000637          	lui	a2,0x40000
    42cc:	000016b7          	lui	a3,0x1
    42d0:	40d406b3          	sub	a3,s0,a3
    42d4:	7cb6bc23          	sd	a1,2008(a3) # 17d8 <.LBB52_5+0x400>
    42d8:	f9043683          	ld	a3,-112(s0)
    42dc:	0005d463          	bgez	a1,42e4 <.LBB52_146>
    42e0:	c0000637          	lui	a2,0xc0000

00000000000042e4 <.LBB52_146>:
    42e4:	000015b7          	lui	a1,0x1
    42e8:	40b405b3          	sub	a1,s0,a1
    42ec:	7cc5b823          	sd	a2,2000(a1) # 17d0 <.LBB52_5+0x3f8>
    42f0:	000015b7          	lui	a1,0x1
    42f4:	40b405b3          	sub	a1,s0,a1
    42f8:	6b85b583          	ld	a1,1720(a1) # 16b8 <.LBB52_5+0x2e0>
    42fc:	8c043603          	ld	a2,-1856(s0)
    4300:	00b605b3          	add	a1,a2,a1
    4304:	00001637          	lui	a2,0x1
    4308:	40c40633          	sub	a2,s0,a2
    430c:	6b063603          	ld	a2,1712(a2) # 16b0 <.LBB52_5+0x2d8>
    4310:	00c585b3          	add	a1,a1,a2
    4314:	4015063b          	subw	a2,a0,ra
    4318:	40c585bb          	subw	a1,a1,a2
    431c:	40000637          	lui	a2,0x40000
    4320:	8cb43023          	sd	a1,-1856(s0)
    4324:	0005d463          	bgez	a1,432c <.LBB52_148>
    4328:	c0000637          	lui	a2,0xc0000

000000000000432c <.LBB52_148>:
    432c:	f8d43823          	sd	a3,-112(s0)
    4330:	000015b7          	lui	a1,0x1
    4334:	40b405b3          	sub	a1,s0,a1
    4338:	70c5b423          	sd	a2,1800(a1) # 1708 <.LBB52_5+0x330>
    433c:	000015b7          	lui	a1,0x1
    4340:	40b405b3          	sub	a1,s0,a1
    4344:	6a85b583          	ld	a1,1704(a1) # 16a8 <.LBB52_5+0x2d0>
    4348:	8c843603          	ld	a2,-1848(s0)
    434c:	00b605b3          	add	a1,a2,a1
    4350:	00001637          	lui	a2,0x1
    4354:	40c40633          	sub	a2,s0,a2
    4358:	6a063603          	ld	a2,1696(a2) # 16a0 <.LBB52_5+0x2c8>
    435c:	00c585b3          	add	a1,a1,a2
    4360:	4015063b          	subw	a2,a0,ra
    4364:	40c585bb          	subw	a1,a1,a2
    4368:	40000637          	lui	a2,0x40000
    436c:	000016b7          	lui	a3,0x1
    4370:	40d406b3          	sub	a3,s0,a3
    4374:	5cb6b023          	sd	a1,1472(a3) # 15c0 <.LBB52_5+0x1e8>
    4378:	f9043683          	ld	a3,-112(s0)
    437c:	0005d463          	bgez	a1,4384 <.LBB52_150>
    4380:	c0000637          	lui	a2,0xc0000

0000000000004384 <.LBB52_150>:
    4384:	f8d43823          	sd	a3,-112(s0)
    4388:	000015b7          	lui	a1,0x1
    438c:	40b405b3          	sub	a1,s0,a1
    4390:	5ac5b823          	sd	a2,1456(a1) # 15b0 <.LBB52_5+0x1d8>
    4394:	8d043583          	ld	a1,-1840(s0)
    4398:	00001637          	lui	a2,0x1
    439c:	40c40633          	sub	a2,s0,a2
    43a0:	69863603          	ld	a2,1688(a2) # 1698 <.LBB52_5+0x2c0>
    43a4:	00c585b3          	add	a1,a1,a2
    43a8:	00001637          	lui	a2,0x1
    43ac:	40c40633          	sub	a2,s0,a2
    43b0:	69063603          	ld	a2,1680(a2) # 1690 <.LBB52_5+0x2b8>
    43b4:	00c585b3          	add	a1,a1,a2
    43b8:	4015063b          	subw	a2,a0,ra
    43bc:	40c585bb          	subw	a1,a1,a2
    43c0:	40000637          	lui	a2,0x40000
    43c4:	000016b7          	lui	a3,0x1
    43c8:	40d406b3          	sub	a3,s0,a3
    43cc:	58b6b023          	sd	a1,1408(a3) # 1580 <.LBB52_5+0x1a8>
    43d0:	f9043683          	ld	a3,-112(s0)
    43d4:	0005d463          	bgez	a1,43dc <.LBB52_152>
    43d8:	c0000637          	lui	a2,0xc0000

00000000000043dc <.LBB52_152>:
    43dc:	f8d43823          	sd	a3,-112(s0)
    43e0:	000015b7          	lui	a1,0x1
    43e4:	40b405b3          	sub	a1,s0,a1
    43e8:	56c5b823          	sd	a2,1392(a1) # 1570 <.LBB52_5+0x198>
    43ec:	8d843583          	ld	a1,-1832(s0)
    43f0:	00001637          	lui	a2,0x1
    43f4:	40c40633          	sub	a2,s0,a2
    43f8:	68863603          	ld	a2,1672(a2) # 1688 <.LBB52_5+0x2b0>
    43fc:	00c585b3          	add	a1,a1,a2
    4400:	00001637          	lui	a2,0x1
    4404:	40c40633          	sub	a2,s0,a2
    4408:	6d863603          	ld	a2,1752(a2) # 16d8 <.LBB52_5+0x300>
    440c:	00c585b3          	add	a1,a1,a2
    4410:	4015063b          	subw	a2,a0,ra
    4414:	40c585bb          	subw	a1,a1,a2
    4418:	40000637          	lui	a2,0x40000
    441c:	000016b7          	lui	a3,0x1
    4420:	40d406b3          	sub	a3,s0,a3
    4424:	52b6b423          	sd	a1,1320(a3) # 1528 <.LBB52_5+0x150>
    4428:	f9043683          	ld	a3,-112(s0)
    442c:	0005d463          	bgez	a1,4434 <.LBB52_154>
    4430:	c0000637          	lui	a2,0xc0000

0000000000004434 <.LBB52_154>:
    4434:	f8d43823          	sd	a3,-112(s0)
    4438:	000015b7          	lui	a1,0x1
    443c:	40b405b3          	sub	a1,s0,a1
    4440:	50c5b823          	sd	a2,1296(a1) # 1510 <.LBB52_5+0x138>
    4444:	8e043583          	ld	a1,-1824(s0)
    4448:	eb043603          	ld	a2,-336(s0)
    444c:	00c585b3          	add	a1,a1,a2
    4450:	00001637          	lui	a2,0x1
    4454:	40c40633          	sub	a2,s0,a2
    4458:	6e063603          	ld	a2,1760(a2) # 16e0 <.LBB52_5+0x308>
    445c:	00c585b3          	add	a1,a1,a2
    4460:	4015063b          	subw	a2,a0,ra
    4464:	40c585bb          	subw	a1,a1,a2
    4468:	40000637          	lui	a2,0x40000
    446c:	000016b7          	lui	a3,0x1
    4470:	40d406b3          	sub	a3,s0,a3
    4474:	4cb6b423          	sd	a1,1224(a3) # 14c8 <.LBB52_5+0xf0>
    4478:	f9043683          	ld	a3,-112(s0)
    447c:	0005d463          	bgez	a1,4484 <.LBB52_156>
    4480:	c0000637          	lui	a2,0xc0000

0000000000004484 <.LBB52_156>:
    4484:	f8d43823          	sd	a3,-112(s0)
    4488:	000015b7          	lui	a1,0x1
    448c:	40b405b3          	sub	a1,s0,a1
    4490:	4ac5bc23          	sd	a2,1208(a1) # 14b8 <.LBB52_5+0xe0>
    4494:	8e843583          	ld	a1,-1816(s0)
    4498:	eb843603          	ld	a2,-328(s0)
    449c:	00c585b3          	add	a1,a1,a2
    44a0:	00001637          	lui	a2,0x1
    44a4:	40c40633          	sub	a2,s0,a2
    44a8:	6e863603          	ld	a2,1768(a2) # 16e8 <.LBB52_5+0x310>
    44ac:	00c585b3          	add	a1,a1,a2
    44b0:	4015063b          	subw	a2,a0,ra
    44b4:	40c585bb          	subw	a1,a1,a2
    44b8:	40000637          	lui	a2,0x40000
    44bc:	000016b7          	lui	a3,0x1
    44c0:	40d406b3          	sub	a3,s0,a3
    44c4:	46b6bc23          	sd	a1,1144(a3) # 1478 <.LBB52_5+0xa0>
    44c8:	f9043683          	ld	a3,-112(s0)
    44cc:	0005d463          	bgez	a1,44d4 <.LBB52_158>
    44d0:	c0000637          	lui	a2,0xc0000

00000000000044d4 <.LBB52_158>:
    44d4:	f8d43823          	sd	a3,-112(s0)
    44d8:	000015b7          	lui	a1,0x1
    44dc:	40b405b3          	sub	a1,s0,a1
    44e0:	46c5b023          	sd	a2,1120(a1) # 1460 <.LBB52_5+0x88>
    44e4:	8f043583          	ld	a1,-1808(s0)
    44e8:	ec043603          	ld	a2,-320(s0)
    44ec:	00c585b3          	add	a1,a1,a2
    44f0:	01b585b3          	add	a1,a1,s11
    44f4:	4015063b          	subw	a2,a0,ra
    44f8:	40c585bb          	subw	a1,a1,a2
    44fc:	40000637          	lui	a2,0x40000
    4500:	000016b7          	lui	a3,0x1
    4504:	40d406b3          	sub	a3,s0,a3
    4508:	42b6b023          	sd	a1,1056(a3) # 1420 <.LBB52_5+0x48>
    450c:	f9043683          	ld	a3,-112(s0)
    4510:	0005d463          	bgez	a1,4518 <.LBB52_160>
    4514:	c0000637          	lui	a2,0xc0000

0000000000004518 <.LBB52_160>:
    4518:	f8d43823          	sd	a3,-112(s0)
    451c:	000015b7          	lui	a1,0x1
    4520:	40b405b3          	sub	a1,s0,a1
    4524:	40c5b423          	sd	a2,1032(a1) # 1408 <.LBB52_5+0x30>
    4528:	8f843583          	ld	a1,-1800(s0)
    452c:	ec843603          	ld	a2,-312(s0)
    4530:	00c585b3          	add	a1,a1,a2
    4534:	01a585b3          	add	a1,a1,s10
    4538:	4015063b          	subw	a2,a0,ra
    453c:	40c585bb          	subw	a1,a1,a2
    4540:	40000637          	lui	a2,0x40000
    4544:	000016b7          	lui	a3,0x1
    4548:	40d406b3          	sub	a3,s0,a3
    454c:	3cb6b823          	sd	a1,976(a3) # 13d0 <.LBB52_4+0x5a0>
    4550:	f9043683          	ld	a3,-112(s0)
    4554:	0005d463          	bgez	a1,455c <.LBB52_162>
    4558:	c0000637          	lui	a2,0xc0000

000000000000455c <.LBB52_162>:
    455c:	f8d43823          	sd	a3,-112(s0)
    4560:	000015b7          	lui	a1,0x1
    4564:	40b405b3          	sub	a1,s0,a1
    4568:	3ac5bc23          	sd	a2,952(a1) # 13b8 <.LBB52_4+0x588>
    456c:	90043583          	ld	a1,-1792(s0)
    4570:	ed043603          	ld	a2,-304(s0)
    4574:	00c585b3          	add	a1,a1,a2
    4578:	019585b3          	add	a1,a1,s9
    457c:	4015063b          	subw	a2,a0,ra
    4580:	40c585bb          	subw	a1,a1,a2
    4584:	40000637          	lui	a2,0x40000
    4588:	000016b7          	lui	a3,0x1
    458c:	40d406b3          	sub	a3,s0,a3
    4590:	36b6b423          	sd	a1,872(a3) # 1368 <.LBB52_4+0x538>
    4594:	f9043683          	ld	a3,-112(s0)
    4598:	0005d463          	bgez	a1,45a0 <.LBB52_164>
    459c:	c0000637          	lui	a2,0xc0000

00000000000045a0 <.LBB52_164>:
    45a0:	f8d43823          	sd	a3,-112(s0)
    45a4:	000015b7          	lui	a1,0x1
    45a8:	40b405b3          	sub	a1,s0,a1
    45ac:	34c5bc23          	sd	a2,856(a1) # 1358 <.LBB52_4+0x528>
    45b0:	90843583          	ld	a1,-1784(s0)
    45b4:	ed843603          	ld	a2,-296(s0)
    45b8:	00c585b3          	add	a1,a1,a2
    45bc:	018585b3          	add	a1,a1,s8
    45c0:	4015063b          	subw	a2,a0,ra
    45c4:	40c585bb          	subw	a1,a1,a2
    45c8:	40000637          	lui	a2,0x40000
    45cc:	000016b7          	lui	a3,0x1
    45d0:	40d406b3          	sub	a3,s0,a3
    45d4:	30b6b023          	sd	a1,768(a3) # 1300 <.LBB52_4+0x4d0>
    45d8:	f9043683          	ld	a3,-112(s0)
    45dc:	0005d463          	bgez	a1,45e4 <.LBB52_166>
    45e0:	c0000637          	lui	a2,0xc0000

00000000000045e4 <.LBB52_166>:
    45e4:	f8d43823          	sd	a3,-112(s0)
    45e8:	000015b7          	lui	a1,0x1
    45ec:	40b405b3          	sub	a1,s0,a1
    45f0:	2ec5b823          	sd	a2,752(a1) # 12f0 <.LBB52_4+0x4c0>
    45f4:	91043583          	ld	a1,-1776(s0)
    45f8:	ee043603          	ld	a2,-288(s0)
    45fc:	00c585b3          	add	a1,a1,a2
    4600:	017585b3          	add	a1,a1,s7
    4604:	4015063b          	subw	a2,a0,ra
    4608:	40c585bb          	subw	a1,a1,a2
    460c:	40000637          	lui	a2,0x40000
    4610:	000016b7          	lui	a3,0x1
    4614:	40d406b3          	sub	a3,s0,a3
    4618:	28b6bc23          	sd	a1,664(a3) # 1298 <.LBB52_4+0x468>
    461c:	f9043683          	ld	a3,-112(s0)
    4620:	0005d463          	bgez	a1,4628 <.LBB52_168>
    4624:	c0000637          	lui	a2,0xc0000

0000000000004628 <.LBB52_168>:
    4628:	f8d43823          	sd	a3,-112(s0)
    462c:	000015b7          	lui	a1,0x1
    4630:	40b405b3          	sub	a1,s0,a1
    4634:	28c5b023          	sd	a2,640(a1) # 1280 <.LBB52_4+0x450>
    4638:	91843583          	ld	a1,-1768(s0)
    463c:	ee843603          	ld	a2,-280(s0)
    4640:	00c585b3          	add	a1,a1,a2
    4644:	016585b3          	add	a1,a1,s6
    4648:	4015063b          	subw	a2,a0,ra
    464c:	40c585bb          	subw	a1,a1,a2
    4650:	40000637          	lui	a2,0x40000
    4654:	000016b7          	lui	a3,0x1
    4658:	40d406b3          	sub	a3,s0,a3
    465c:	22b6b023          	sd	a1,544(a3) # 1220 <.LBB52_4+0x3f0>
    4660:	f9043683          	ld	a3,-112(s0)
    4664:	0005d463          	bgez	a1,466c <.LBB52_170>
    4668:	c0000637          	lui	a2,0xc0000

000000000000466c <.LBB52_170>:
    466c:	f8d43823          	sd	a3,-112(s0)
    4670:	000015b7          	lui	a1,0x1
    4674:	40b405b3          	sub	a1,s0,a1
    4678:	20c5b423          	sd	a2,520(a1) # 1208 <.LBB52_4+0x3d8>
    467c:	92043583          	ld	a1,-1760(s0)
    4680:	ef043603          	ld	a2,-272(s0)
    4684:	00c585b3          	add	a1,a1,a2
    4688:	015585b3          	add	a1,a1,s5
    468c:	4015063b          	subw	a2,a0,ra
    4690:	40c585bb          	subw	a1,a1,a2
    4694:	40000637          	lui	a2,0x40000
    4698:	000016b7          	lui	a3,0x1
    469c:	40d406b3          	sub	a3,s0,a3
    46a0:	1ab6b423          	sd	a1,424(a3) # 11a8 <.LBB52_4+0x378>
    46a4:	f9043683          	ld	a3,-112(s0)
    46a8:	0005d463          	bgez	a1,46b0 <.LBB52_172>
    46ac:	c0000637          	lui	a2,0xc0000

00000000000046b0 <.LBB52_172>:
    46b0:	f8d43823          	sd	a3,-112(s0)
    46b4:	000015b7          	lui	a1,0x1
    46b8:	40b405b3          	sub	a1,s0,a1
    46bc:	18c5b823          	sd	a2,400(a1) # 1190 <.LBB52_4+0x360>
    46c0:	92843583          	ld	a1,-1752(s0)
    46c4:	ef843603          	ld	a2,-264(s0)
    46c8:	00c585b3          	add	a1,a1,a2
    46cc:	014585b3          	add	a1,a1,s4
    46d0:	4015063b          	subw	a2,a0,ra
    46d4:	40c585bb          	subw	a1,a1,a2
    46d8:	40000637          	lui	a2,0x40000
    46dc:	000016b7          	lui	a3,0x1
    46e0:	40d406b3          	sub	a3,s0,a3
    46e4:	12b6b823          	sd	a1,304(a3) # 1130 <.LBB52_4+0x300>
    46e8:	f9043683          	ld	a3,-112(s0)
    46ec:	0005d463          	bgez	a1,46f4 <.LBB52_174>
    46f0:	c0000637          	lui	a2,0xc0000

00000000000046f4 <.LBB52_174>:
    46f4:	f8d43823          	sd	a3,-112(s0)
    46f8:	000015b7          	lui	a1,0x1
    46fc:	40b405b3          	sub	a1,s0,a1
    4700:	10c5bc23          	sd	a2,280(a1) # 1118 <.LBB52_4+0x2e8>
    4704:	93043583          	ld	a1,-1744(s0)
    4708:	f0043603          	ld	a2,-256(s0)
    470c:	00c585b3          	add	a1,a1,a2
    4710:	013585b3          	add	a1,a1,s3
    4714:	4015063b          	subw	a2,a0,ra
    4718:	40c585bb          	subw	a1,a1,a2
    471c:	40000637          	lui	a2,0x40000
    4720:	000016b7          	lui	a3,0x1
    4724:	40d406b3          	sub	a3,s0,a3
    4728:	0ab6bc23          	sd	a1,184(a3) # 10b8 <.LBB52_4+0x288>
    472c:	f9043683          	ld	a3,-112(s0)
    4730:	0005d463          	bgez	a1,4738 <.LBB52_176>
    4734:	c0000637          	lui	a2,0xc0000

0000000000004738 <.LBB52_176>:
    4738:	f8d43823          	sd	a3,-112(s0)
    473c:	000015b7          	lui	a1,0x1
    4740:	40b405b3          	sub	a1,s0,a1
    4744:	0ac5b023          	sd	a2,160(a1) # 10a0 <.LBB52_4+0x270>
    4748:	93843583          	ld	a1,-1736(s0)
    474c:	f3843603          	ld	a2,-200(s0)
    4750:	00c585b3          	add	a1,a1,a2
    4754:	012585b3          	add	a1,a1,s2
    4758:	4015063b          	subw	a2,a0,ra
    475c:	40c585bb          	subw	a1,a1,a2
    4760:	40000637          	lui	a2,0x40000
    4764:	000016b7          	lui	a3,0x1
    4768:	40d406b3          	sub	a3,s0,a3
    476c:	04b6b023          	sd	a1,64(a3) # 1040 <.LBB52_4+0x210>
    4770:	f9043683          	ld	a3,-112(s0)
    4774:	0005d463          	bgez	a1,477c <.LBB52_178>
    4778:	c0000637          	lui	a2,0xc0000

000000000000477c <.LBB52_178>:
    477c:	f8d43823          	sd	a3,-112(s0)
    4780:	000015b7          	lui	a1,0x1
    4784:	40b405b3          	sub	a1,s0,a1
    4788:	02c5b423          	sd	a2,40(a1) # 1028 <.LBB52_4+0x1f8>
    478c:	94043583          	ld	a1,-1728(s0)
    4790:	f4043603          	ld	a2,-192(s0)
    4794:	00c585b3          	add	a1,a1,a2
    4798:	00001637          	lui	a2,0x1
    479c:	40c40633          	sub	a2,s0,a2
    47a0:	74063603          	ld	a2,1856(a2) # 1740 <.LBB52_5+0x368>
    47a4:	00c585b3          	add	a1,a1,a2
    47a8:	4015063b          	subw	a2,a0,ra
    47ac:	40c585bb          	subw	a1,a1,a2
    47b0:	40000637          	lui	a2,0x40000
    47b4:	000016b7          	lui	a3,0x1
    47b8:	40d406b3          	sub	a3,s0,a3
    47bc:	fcb6b423          	sd	a1,-56(a3) # fc8 <.LBB52_4+0x198>
    47c0:	f9043683          	ld	a3,-112(s0)
    47c4:	0005d463          	bgez	a1,47cc <.LBB52_180>
    47c8:	c0000637          	lui	a2,0xc0000

00000000000047cc <.LBB52_180>:
    47cc:	f8d43823          	sd	a3,-112(s0)
    47d0:	000015b7          	lui	a1,0x1
    47d4:	40b405b3          	sub	a1,s0,a1
    47d8:	fac5b823          	sd	a2,-80(a1) # fb0 <.LBB52_4+0x180>
    47dc:	94843583          	ld	a1,-1720(s0)
    47e0:	f4843603          	ld	a2,-184(s0)
    47e4:	00c585b3          	add	a1,a1,a2
    47e8:	00001637          	lui	a2,0x1
    47ec:	40c40633          	sub	a2,s0,a2
    47f0:	74863603          	ld	a2,1864(a2) # 1748 <.LBB52_5+0x370>
    47f4:	00c585b3          	add	a1,a1,a2
    47f8:	4015063b          	subw	a2,a0,ra
    47fc:	40c585bb          	subw	a1,a1,a2
    4800:	40000637          	lui	a2,0x40000
    4804:	000016b7          	lui	a3,0x1
    4808:	40d406b3          	sub	a3,s0,a3
    480c:	f4b6b823          	sd	a1,-176(a3) # f50 <.LBB52_4+0x120>
    4810:	f9043683          	ld	a3,-112(s0)
    4814:	0005d463          	bgez	a1,481c <.LBB52_182>
    4818:	c0000637          	lui	a2,0xc0000

000000000000481c <.LBB52_182>:
    481c:	f8d43823          	sd	a3,-112(s0)
    4820:	000015b7          	lui	a1,0x1
    4824:	40b405b3          	sub	a1,s0,a1
    4828:	f2c5bc23          	sd	a2,-200(a1) # f38 <.LBB52_4+0x108>
    482c:	95043583          	ld	a1,-1712(s0)
    4830:	f5043603          	ld	a2,-176(s0)
    4834:	00c585b3          	add	a1,a1,a2
    4838:	00001637          	lui	a2,0x1
    483c:	40c40633          	sub	a2,s0,a2
    4840:	75063603          	ld	a2,1872(a2) # 1750 <.LBB52_5+0x378>
    4844:	00c585b3          	add	a1,a1,a2
    4848:	4015063b          	subw	a2,a0,ra
    484c:	40c585bb          	subw	a1,a1,a2
    4850:	40000637          	lui	a2,0x40000
    4854:	000016b7          	lui	a3,0x1
    4858:	40d406b3          	sub	a3,s0,a3
    485c:	eeb6b023          	sd	a1,-288(a3) # ee0 <.LBB52_4+0xb0>
    4860:	f9043683          	ld	a3,-112(s0)
    4864:	0005d463          	bgez	a1,486c <.LBB52_184>
    4868:	c0000637          	lui	a2,0xc0000

000000000000486c <.LBB52_184>:
    486c:	f8d43823          	sd	a3,-112(s0)
    4870:	000015b7          	lui	a1,0x1
    4874:	40b405b3          	sub	a1,s0,a1
    4878:	ecc5b423          	sd	a2,-312(a1) # ec8 <.LBB52_4+0x98>
    487c:	95843583          	ld	a1,-1704(s0)
    4880:	f5843603          	ld	a2,-168(s0)
    4884:	00c585b3          	add	a1,a1,a2
    4888:	00001637          	lui	a2,0x1
    488c:	40c40633          	sub	a2,s0,a2
    4890:	75863603          	ld	a2,1880(a2) # 1758 <.LBB52_5+0x380>
    4894:	00c585b3          	add	a1,a1,a2
    4898:	4015063b          	subw	a2,a0,ra
    489c:	40c585bb          	subw	a1,a1,a2
    48a0:	40000637          	lui	a2,0x40000
    48a4:	000016b7          	lui	a3,0x1
    48a8:	40d406b3          	sub	a3,s0,a3
    48ac:	e6b6b423          	sd	a1,-408(a3) # e68 <.LBB52_4+0x38>
    48b0:	f9043683          	ld	a3,-112(s0)
    48b4:	0005d463          	bgez	a1,48bc <.LBB52_186>
    48b8:	c0000637          	lui	a2,0xc0000

00000000000048bc <.LBB52_186>:
    48bc:	f8d43823          	sd	a3,-112(s0)
    48c0:	000015b7          	lui	a1,0x1
    48c4:	40b405b3          	sub	a1,s0,a1
    48c8:	e4c5b823          	sd	a2,-432(a1) # e50 <.LBB52_4+0x20>
    48cc:	96043583          	ld	a1,-1696(s0)
    48d0:	f6043603          	ld	a2,-160(s0)
    48d4:	00c585b3          	add	a1,a1,a2
    48d8:	00001637          	lui	a2,0x1
    48dc:	40c40633          	sub	a2,s0,a2
    48e0:	76063603          	ld	a2,1888(a2) # 1760 <.LBB52_5+0x388>
    48e4:	00c585b3          	add	a1,a1,a2
    48e8:	4015063b          	subw	a2,a0,ra
    48ec:	40c585bb          	subw	a1,a1,a2
    48f0:	40000637          	lui	a2,0x40000
    48f4:	000016b7          	lui	a3,0x1
    48f8:	40d406b3          	sub	a3,s0,a3
    48fc:	deb6bc23          	sd	a1,-520(a3) # df8 <.LBB52_3+0xc14>
    4900:	f9043683          	ld	a3,-112(s0)
    4904:	0005d463          	bgez	a1,490c <.LBB52_188>
    4908:	c0000637          	lui	a2,0xc0000

000000000000490c <.LBB52_188>:
    490c:	f8d43823          	sd	a3,-112(s0)
    4910:	000015b7          	lui	a1,0x1
    4914:	40b405b3          	sub	a1,s0,a1
    4918:	dec5b023          	sd	a2,-544(a1) # de0 <.LBB52_3+0xbfc>
    491c:	96843583          	ld	a1,-1688(s0)
    4920:	f6843603          	ld	a2,-152(s0)
    4924:	00c585b3          	add	a1,a1,a2
    4928:	006585b3          	add	a1,a1,t1
    492c:	4015063b          	subw	a2,a0,ra
    4930:	40c585bb          	subw	a1,a1,a2
    4934:	40000637          	lui	a2,0x40000
    4938:	000016b7          	lui	a3,0x1
    493c:	40d406b3          	sub	a3,s0,a3
    4940:	d8b6b023          	sd	a1,-640(a3) # d80 <.LBB52_3+0xb9c>
    4944:	f9043683          	ld	a3,-112(s0)
    4948:	0005d463          	bgez	a1,4950 <.LBB52_190>
    494c:	c0000637          	lui	a2,0xc0000

0000000000004950 <.LBB52_190>:
    4950:	f8d43823          	sd	a3,-112(s0)
    4954:	000015b7          	lui	a1,0x1
    4958:	40b405b3          	sub	a1,s0,a1
    495c:	d6c5b423          	sd	a2,-664(a1) # d68 <.LBB52_3+0xb84>
    4960:	97043583          	ld	a1,-1680(s0)
    4964:	f7043603          	ld	a2,-144(s0)
    4968:	00c585b3          	add	a1,a1,a2
    496c:	009585b3          	add	a1,a1,s1
    4970:	4015063b          	subw	a2,a0,ra
    4974:	40c585bb          	subw	a1,a1,a2
    4978:	40000637          	lui	a2,0x40000
    497c:	000016b7          	lui	a3,0x1
    4980:	40d406b3          	sub	a3,s0,a3
    4984:	d0b6b423          	sd	a1,-760(a3) # d08 <.LBB52_3+0xb24>
    4988:	f9043683          	ld	a3,-112(s0)
    498c:	0005d463          	bgez	a1,4994 <.LBB52_192>
    4990:	c0000637          	lui	a2,0xc0000

0000000000004994 <.LBB52_192>:
    4994:	000015b7          	lui	a1,0x1
    4998:	40b405b3          	sub	a1,s0,a1
    499c:	cec5b823          	sd	a2,-784(a1) # cf0 <.LBB52_3+0xb0c>
    49a0:	f7843583          	ld	a1,-136(s0)
    49a4:	00b705b3          	add	a1,a4,a1
    49a8:	01c585b3          	add	a1,a1,t3
    49ac:	4015063b          	subw	a2,a0,ra
    49b0:	40c585bb          	subw	a1,a1,a2
    49b4:	40000637          	lui	a2,0x40000
    49b8:	00001737          	lui	a4,0x1
    49bc:	40e40733          	sub	a4,s0,a4
    49c0:	c2b73023          	sd	a1,-992(a4) # c20 <.LBB52_3+0xa3c>
    49c4:	0005d463          	bgez	a1,49cc <.LBB52_194>
    49c8:	c0000637          	lui	a2,0xc0000

00000000000049cc <.LBB52_194>:
    49cc:	000015b7          	lui	a1,0x1
    49d0:	40b405b3          	sub	a1,s0,a1
    49d4:	c8c5bc23          	sd	a2,-872(a1) # c98 <.LBB52_3+0xab4>
    49d8:	f8043603          	ld	a2,-128(s0)
    49dc:	00c38633          	add	a2,t2,a2
    49e0:	01160633          	add	a2,a2,a7
    49e4:	4015073b          	subw	a4,a0,ra
    49e8:	40e605bb          	subw	a1,a2,a4
    49ec:	40000637          	lui	a2,0x40000
    49f0:	00001737          	lui	a4,0x1
    49f4:	40e40733          	sub	a4,s0,a4
    49f8:	c0b73423          	sd	a1,-1016(a4) # c08 <.LBB52_3+0xa24>
    49fc:	0005d463          	bgez	a1,4a04 <.LBB52_196>
    4a00:	c0000637          	lui	a2,0xc0000

0000000000004a04 <.LBB52_196>:
    4a04:	000015b7          	lui	a1,0x1
    4a08:	40b405b3          	sub	a1,s0,a1
    4a0c:	c4c5bc23          	sd	a2,-936(a1) # c58 <.LBB52_3+0xa74>
    4a10:	f8843603          	ld	a2,-120(s0)
    4a14:	00c80633          	add	a2,a6,a2
    4a18:	01e60633          	add	a2,a2,t5
    4a1c:	4015053b          	subw	a0,a0,ra
    4a20:	40a605bb          	subw	a1,a2,a0
    4a24:	40000537          	lui	a0,0x40000
    4a28:	99043603          	ld	a2,-1648(s0)
    4a2c:	0005d463          	bgez	a1,4a34 <.LBB52_198>
    4a30:	c0000537          	lui	a0,0xc0000

0000000000004a34 <.LBB52_198>:
    4a34:	00001737          	lui	a4,0x1
    4a38:	40e40733          	sub	a4,s0,a4
    4a3c:	bca73023          	sd	a0,-1088(a4) # bc0 <.LBB52_3+0x9dc>
    4a40:	ea843503          	ld	a0,-344(s0)
    4a44:	00a60633          	add	a2,a2,a0
    4a48:	00001537          	lui	a0,0x1
    4a4c:	40a40533          	sub	a0,s0,a0
    4a50:	56853503          	ld	a0,1384(a0) # 1568 <.LBB52_5+0x190>
    4a54:	02f50533          	mul	a0,a0,a5
    4a58:	ea043703          	ld	a4,-352(s0)
    4a5c:	00e60633          	add	a2,a2,a4
    4a60:	4015073b          	subw	a4,a0,ra
    4a64:	40e6063b          	subw	a2,a2,a4
    4a68:	40000737          	lui	a4,0x40000
    4a6c:	98c43823          	sd	a2,-1648(s0)
    4a70:	00065463          	bgez	a2,4a78 <.LBB52_200>
    4a74:	c0000737          	lui	a4,0xc0000

0000000000004a78 <.LBB52_200>:
    4a78:	98e43423          	sd	a4,-1656(s0)
    4a7c:	99843603          	ld	a2,-1640(s0)
    4a80:	e9843703          	ld	a4,-360(s0)
    4a84:	00e60633          	add	a2,a2,a4
    4a88:	e9043703          	ld	a4,-368(s0)
    4a8c:	00e60633          	add	a2,a2,a4
    4a90:	4015073b          	subw	a4,a0,ra
    4a94:	40e6063b          	subw	a2,a2,a4
    4a98:	40000737          	lui	a4,0x40000
    4a9c:	98c43c23          	sd	a2,-1640(s0)
    4aa0:	00065463          	bgez	a2,4aa8 <.LBB52_202>
    4aa4:	c0000737          	lui	a4,0xc0000

0000000000004aa8 <.LBB52_202>:
    4aa8:	98e43023          	sd	a4,-1664(s0)
    4aac:	9a043603          	ld	a2,-1632(s0)
    4ab0:	e8843703          	ld	a4,-376(s0)
    4ab4:	00e60633          	add	a2,a2,a4
    4ab8:	e8043703          	ld	a4,-384(s0)
    4abc:	00e60633          	add	a2,a2,a4
    4ac0:	4015073b          	subw	a4,a0,ra
    4ac4:	40e6063b          	subw	a2,a2,a4
    4ac8:	40000737          	lui	a4,0x40000
    4acc:	9ac43023          	sd	a2,-1632(s0)
    4ad0:	00065463          	bgez	a2,4ad8 <.LBB52_204>
    4ad4:	c0000737          	lui	a4,0xc0000

0000000000004ad8 <.LBB52_204>:
    4ad8:	96e43c23          	sd	a4,-1672(s0)
    4adc:	9a843603          	ld	a2,-1624(s0)
    4ae0:	e7843703          	ld	a4,-392(s0)
    4ae4:	00e60633          	add	a2,a2,a4
    4ae8:	e7043703          	ld	a4,-400(s0)
    4aec:	00e60633          	add	a2,a2,a4
    4af0:	4015073b          	subw	a4,a0,ra
    4af4:	40e6063b          	subw	a2,a2,a4
    4af8:	40000737          	lui	a4,0x40000
    4afc:	96c43823          	sd	a2,-1680(s0)
    4b00:	00065463          	bgez	a2,4b08 <.LBB52_206>
    4b04:	c0000737          	lui	a4,0xc0000

0000000000004b08 <.LBB52_206>:
    4b08:	94e43c23          	sd	a4,-1704(s0)
    4b0c:	9b043603          	ld	a2,-1616(s0)
    4b10:	e6843703          	ld	a4,-408(s0)
    4b14:	00e60633          	add	a2,a2,a4
    4b18:	00001737          	lui	a4,0x1
    4b1c:	40e40733          	sub	a4,s0,a4
    4b20:	6d073703          	ld	a4,1744(a4) # 16d0 <.LBB52_5+0x2f8>
    4b24:	00e60633          	add	a2,a2,a4
    4b28:	4015073b          	subw	a4,a0,ra
    4b2c:	40e6063b          	subw	a2,a2,a4
    4b30:	40000737          	lui	a4,0x40000
    4b34:	9ac43823          	sd	a2,-1616(s0)
    4b38:	00065463          	bgez	a2,4b40 <.LBB52_208>
    4b3c:	c0000737          	lui	a4,0xc0000

0000000000004b40 <.LBB52_208>:
    4b40:	94e43023          	sd	a4,-1728(s0)
    4b44:	9b843603          	ld	a2,-1608(s0)
    4b48:	00001737          	lui	a4,0x1
    4b4c:	40e40733          	sub	a4,s0,a4
    4b50:	6c873703          	ld	a4,1736(a4) # 16c8 <.LBB52_5+0x2f0>
    4b54:	00e60633          	add	a2,a2,a4
    4b58:	00001737          	lui	a4,0x1
    4b5c:	40e40733          	sub	a4,s0,a4
    4b60:	6c073703          	ld	a4,1728(a4) # 16c0 <.LBB52_5+0x2e8>
    4b64:	00e60633          	add	a2,a2,a4
    4b68:	4015073b          	subw	a4,a0,ra
    4b6c:	40e6063b          	subw	a2,a2,a4
    4b70:	40000737          	lui	a4,0x40000
    4b74:	92c43423          	sd	a2,-1752(s0)
    4b78:	00065463          	bgez	a2,4b80 <.LBB52_210>
    4b7c:	c0000737          	lui	a4,0xc0000

0000000000004b80 <.LBB52_210>:
    4b80:	92e43023          	sd	a4,-1760(s0)
    4b84:	9c043603          	ld	a2,-1600(s0)
    4b88:	00001737          	lui	a4,0x1
    4b8c:	40e40733          	sub	a4,s0,a4
    4b90:	6b873703          	ld	a4,1720(a4) # 16b8 <.LBB52_5+0x2e0>
    4b94:	00e60633          	add	a2,a2,a4
    4b98:	00001737          	lui	a4,0x1
    4b9c:	40e40733          	sub	a4,s0,a4
    4ba0:	6b073703          	ld	a4,1712(a4) # 16b0 <.LBB52_5+0x2d8>
    4ba4:	00e60633          	add	a2,a2,a4
    4ba8:	4015073b          	subw	a4,a0,ra
    4bac:	40e6063b          	subw	a2,a2,a4
    4bb0:	40000737          	lui	a4,0x40000
    4bb4:	9cc43023          	sd	a2,-1600(s0)
    4bb8:	00065463          	bgez	a2,4bc0 <.LBB52_212>
    4bbc:	c0000737          	lui	a4,0xc0000

0000000000004bc0 <.LBB52_212>:
    4bc0:	90e43423          	sd	a4,-1784(s0)
    4bc4:	9c843603          	ld	a2,-1592(s0)
    4bc8:	00001737          	lui	a4,0x1
    4bcc:	40e40733          	sub	a4,s0,a4
    4bd0:	6a873703          	ld	a4,1704(a4) # 16a8 <.LBB52_5+0x2d0>
    4bd4:	00e60633          	add	a2,a2,a4
    4bd8:	00001737          	lui	a4,0x1
    4bdc:	40e40733          	sub	a4,s0,a4
    4be0:	6a073703          	ld	a4,1696(a4) # 16a0 <.LBB52_5+0x2c8>
    4be4:	00e60633          	add	a2,a2,a4
    4be8:	4015073b          	subw	a4,a0,ra
    4bec:	40e6063b          	subw	a2,a2,a4
    4bf0:	40000737          	lui	a4,0x40000
    4bf4:	8ec43823          	sd	a2,-1808(s0)
    4bf8:	00065463          	bgez	a2,4c00 <.LBB52_214>
    4bfc:	c0000737          	lui	a4,0xc0000

0000000000004c00 <.LBB52_214>:
    4c00:	8ee43423          	sd	a4,-1816(s0)
    4c04:	9d043603          	ld	a2,-1584(s0)
    4c08:	00001737          	lui	a4,0x1
    4c0c:	40e40733          	sub	a4,s0,a4
    4c10:	69873703          	ld	a4,1688(a4) # 1698 <.LBB52_5+0x2c0>
    4c14:	00e60633          	add	a2,a2,a4
    4c18:	00001737          	lui	a4,0x1
    4c1c:	40e40733          	sub	a4,s0,a4
    4c20:	69073703          	ld	a4,1680(a4) # 1690 <.LBB52_5+0x2b8>
    4c24:	00e60633          	add	a2,a2,a4
    4c28:	4015073b          	subw	a4,a0,ra
    4c2c:	40e6063b          	subw	a2,a2,a4
    4c30:	40000737          	lui	a4,0x40000
    4c34:	9cc43823          	sd	a2,-1584(s0)
    4c38:	00065463          	bgez	a2,4c40 <.LBB52_216>
    4c3c:	c0000737          	lui	a4,0xc0000

0000000000004c40 <.LBB52_216>:
    4c40:	00001637          	lui	a2,0x1
    4c44:	40c40633          	sub	a2,s0,a2
    4c48:	56e63423          	sd	a4,1384(a2) # 1568 <.LBB52_5+0x190>
    4c4c:	9d843603          	ld	a2,-1576(s0)
    4c50:	00001737          	lui	a4,0x1
    4c54:	40e40733          	sub	a4,s0,a4
    4c58:	68873703          	ld	a4,1672(a4) # 1688 <.LBB52_5+0x2b0>
    4c5c:	00e60633          	add	a2,a2,a4
    4c60:	00001737          	lui	a4,0x1
    4c64:	40e40733          	sub	a4,s0,a4
    4c68:	6d873703          	ld	a4,1752(a4) # 16d8 <.LBB52_5+0x300>
    4c6c:	00e60633          	add	a2,a2,a4
    4c70:	4015073b          	subw	a4,a0,ra
    4c74:	40e6063b          	subw	a2,a2,a4
    4c78:	40000737          	lui	a4,0x40000
    4c7c:	00001837          	lui	a6,0x1
    4c80:	41040833          	sub	a6,s0,a6
    4c84:	50c83c23          	sd	a2,1304(a6) # 1518 <.LBB52_5+0x140>
    4c88:	00065463          	bgez	a2,4c90 <.LBB52_218>
    4c8c:	c0000737          	lui	a4,0xc0000

0000000000004c90 <.LBB52_218>:
    4c90:	00001637          	lui	a2,0x1
    4c94:	40c40633          	sub	a2,s0,a2
    4c98:	50e63423          	sd	a4,1288(a2) # 1508 <.LBB52_5+0x130>
    4c9c:	9e043603          	ld	a2,-1568(s0)
    4ca0:	eb043703          	ld	a4,-336(s0)
    4ca4:	00e60633          	add	a2,a2,a4
    4ca8:	00001737          	lui	a4,0x1
    4cac:	40e40733          	sub	a4,s0,a4
    4cb0:	6e073703          	ld	a4,1760(a4) # 16e0 <.LBB52_5+0x308>
    4cb4:	00e60633          	add	a2,a2,a4
    4cb8:	4015073b          	subw	a4,a0,ra
    4cbc:	40e6063b          	subw	a2,a2,a4
    4cc0:	40000737          	lui	a4,0x40000
    4cc4:	9ec43023          	sd	a2,-1568(s0)
    4cc8:	00065463          	bgez	a2,4cd0 <.LBB52_220>
    4ccc:	c0000737          	lui	a4,0xc0000

0000000000004cd0 <.LBB52_220>:
    4cd0:	00001637          	lui	a2,0x1
    4cd4:	40c40633          	sub	a2,s0,a2
    4cd8:	4ae63823          	sd	a4,1200(a2) # 14b0 <.LBB52_5+0xd8>
    4cdc:	9e843603          	ld	a2,-1560(s0)
    4ce0:	eb843703          	ld	a4,-328(s0)
    4ce4:	00e60633          	add	a2,a2,a4
    4ce8:	00001737          	lui	a4,0x1
    4cec:	40e40733          	sub	a4,s0,a4
    4cf0:	6e873703          	ld	a4,1768(a4) # 16e8 <.LBB52_5+0x310>
    4cf4:	00e60633          	add	a2,a2,a4
    4cf8:	4015073b          	subw	a4,a0,ra
    4cfc:	40e6063b          	subw	a2,a2,a4
    4d00:	40000737          	lui	a4,0x40000
    4d04:	9ec43423          	sd	a2,-1560(s0)
    4d08:	00065463          	bgez	a2,4d10 <.LBB52_222>
    4d0c:	c0000737          	lui	a4,0xc0000

0000000000004d10 <.LBB52_222>:
    4d10:	00001637          	lui	a2,0x1
    4d14:	40c40633          	sub	a2,s0,a2
    4d18:	44e63c23          	sd	a4,1112(a2) # 1458 <.LBB52_5+0x80>
    4d1c:	9f043603          	ld	a2,-1552(s0)
    4d20:	ec043703          	ld	a4,-320(s0)
    4d24:	00e60633          	add	a2,a2,a4
    4d28:	01b60633          	add	a2,a2,s11
    4d2c:	4015073b          	subw	a4,a0,ra
    4d30:	40e6063b          	subw	a2,a2,a4
    4d34:	40000737          	lui	a4,0x40000
    4d38:	9ec43823          	sd	a2,-1552(s0)
    4d3c:	00065463          	bgez	a2,4d44 <.LBB52_224>
    4d40:	c0000737          	lui	a4,0xc0000

0000000000004d44 <.LBB52_224>:
    4d44:	00001637          	lui	a2,0x1
    4d48:	40c40633          	sub	a2,s0,a2
    4d4c:	40e63023          	sd	a4,1024(a2) # 1400 <.LBB52_5+0x28>
    4d50:	9f843603          	ld	a2,-1544(s0)
    4d54:	ec843703          	ld	a4,-312(s0)
    4d58:	00e60633          	add	a2,a2,a4
    4d5c:	01a60633          	add	a2,a2,s10
    4d60:	4015073b          	subw	a4,a0,ra
    4d64:	40e6063b          	subw	a2,a2,a4
    4d68:	40000737          	lui	a4,0x40000
    4d6c:	9ec43c23          	sd	a2,-1544(s0)
    4d70:	00065463          	bgez	a2,4d78 <.LBB52_226>
    4d74:	c0000737          	lui	a4,0xc0000

0000000000004d78 <.LBB52_226>:
    4d78:	00001637          	lui	a2,0x1
    4d7c:	40c40633          	sub	a2,s0,a2
    4d80:	3ae63423          	sd	a4,936(a2) # 13a8 <.LBB52_4+0x578>
    4d84:	a0043603          	ld	a2,-1536(s0)
    4d88:	ed043703          	ld	a4,-304(s0)
    4d8c:	00e60633          	add	a2,a2,a4
    4d90:	01960633          	add	a2,a2,s9
    4d94:	4015073b          	subw	a4,a0,ra
    4d98:	40e6063b          	subw	a2,a2,a4
    4d9c:	40000737          	lui	a4,0x40000
    4da0:	a0c43023          	sd	a2,-1536(s0)
    4da4:	00065463          	bgez	a2,4dac <.LBB52_228>
    4da8:	c0000737          	lui	a4,0xc0000

0000000000004dac <.LBB52_228>:
    4dac:	00001637          	lui	a2,0x1
    4db0:	40c40633          	sub	a2,s0,a2
    4db4:	34e63423          	sd	a4,840(a2) # 1348 <.LBB52_4+0x518>
    4db8:	a0843603          	ld	a2,-1528(s0)
    4dbc:	ed843703          	ld	a4,-296(s0)
    4dc0:	00e60633          	add	a2,a2,a4
    4dc4:	01860633          	add	a2,a2,s8
    4dc8:	4015073b          	subw	a4,a0,ra
    4dcc:	40e6063b          	subw	a2,a2,a4
    4dd0:	40000737          	lui	a4,0x40000
    4dd4:	a0c43423          	sd	a2,-1528(s0)
    4dd8:	00065463          	bgez	a2,4de0 <.LBB52_230>
    4ddc:	c0000737          	lui	a4,0xc0000

0000000000004de0 <.LBB52_230>:
    4de0:	00001637          	lui	a2,0x1
    4de4:	40c40633          	sub	a2,s0,a2
    4de8:	2ee63423          	sd	a4,744(a2) # 12e8 <.LBB52_4+0x4b8>
    4dec:	a1043603          	ld	a2,-1520(s0)
    4df0:	ee043703          	ld	a4,-288(s0)
    4df4:	00e60633          	add	a2,a2,a4
    4df8:	01760633          	add	a2,a2,s7
    4dfc:	4015073b          	subw	a4,a0,ra
    4e00:	40e6063b          	subw	a2,a2,a4
    4e04:	40000737          	lui	a4,0x40000
    4e08:	00001837          	lui	a6,0x1
    4e0c:	41040833          	sub	a6,s0,a6
    4e10:	28c83423          	sd	a2,648(a6) # 1288 <.LBB52_4+0x458>
    4e14:	00065463          	bgez	a2,4e1c <.LBB52_232>
    4e18:	c0000737          	lui	a4,0xc0000

0000000000004e1c <.LBB52_232>:
    4e1c:	00001637          	lui	a2,0x1
    4e20:	40c40633          	sub	a2,s0,a2
    4e24:	26e63c23          	sd	a4,632(a2) # 1278 <.LBB52_4+0x448>
    4e28:	a1843603          	ld	a2,-1512(s0)
    4e2c:	ee843703          	ld	a4,-280(s0)
    4e30:	00e60633          	add	a2,a2,a4
    4e34:	01660633          	add	a2,a2,s6
    4e38:	4015073b          	subw	a4,a0,ra
    4e3c:	40e6063b          	subw	a2,a2,a4
    4e40:	40000737          	lui	a4,0x40000
    4e44:	00001837          	lui	a6,0x1
    4e48:	41040833          	sub	a6,s0,a6
    4e4c:	20c83823          	sd	a2,528(a6) # 1210 <.LBB52_4+0x3e0>
    4e50:	00065463          	bgez	a2,4e58 <.LBB52_234>
    4e54:	c0000737          	lui	a4,0xc0000

0000000000004e58 <.LBB52_234>:
    4e58:	00001637          	lui	a2,0x1
    4e5c:	40c40633          	sub	a2,s0,a2
    4e60:	20e63023          	sd	a4,512(a2) # 1200 <.LBB52_4+0x3d0>
    4e64:	a2043603          	ld	a2,-1504(s0)
    4e68:	ef043703          	ld	a4,-272(s0)
    4e6c:	00e60633          	add	a2,a2,a4
    4e70:	01560633          	add	a2,a2,s5
    4e74:	4015073b          	subw	a4,a0,ra
    4e78:	40e6063b          	subw	a2,a2,a4
    4e7c:	40000737          	lui	a4,0x40000
    4e80:	00001837          	lui	a6,0x1
    4e84:	41040833          	sub	a6,s0,a6
    4e88:	18c83c23          	sd	a2,408(a6) # 1198 <.LBB52_4+0x368>
    4e8c:	00065463          	bgez	a2,4e94 <.LBB52_236>
    4e90:	c0000737          	lui	a4,0xc0000

0000000000004e94 <.LBB52_236>:
    4e94:	00001637          	lui	a2,0x1
    4e98:	40c40633          	sub	a2,s0,a2
    4e9c:	18e63423          	sd	a4,392(a2) # 1188 <.LBB52_4+0x358>
    4ea0:	a2843603          	ld	a2,-1496(s0)
    4ea4:	ef843703          	ld	a4,-264(s0)
    4ea8:	00e60633          	add	a2,a2,a4
    4eac:	01460633          	add	a2,a2,s4
    4eb0:	4015073b          	subw	a4,a0,ra
    4eb4:	40e6063b          	subw	a2,a2,a4
    4eb8:	40000737          	lui	a4,0x40000
    4ebc:	00001837          	lui	a6,0x1
    4ec0:	41040833          	sub	a6,s0,a6
    4ec4:	12c83023          	sd	a2,288(a6) # 1120 <.LBB52_4+0x2f0>
    4ec8:	00065463          	bgez	a2,4ed0 <.LBB52_238>
    4ecc:	c0000737          	lui	a4,0xc0000

0000000000004ed0 <.LBB52_238>:
    4ed0:	00001637          	lui	a2,0x1
    4ed4:	40c40633          	sub	a2,s0,a2
    4ed8:	10e63823          	sd	a4,272(a2) # 1110 <.LBB52_4+0x2e0>
    4edc:	a3043603          	ld	a2,-1488(s0)
    4ee0:	f0043703          	ld	a4,-256(s0)
    4ee4:	00e60633          	add	a2,a2,a4
    4ee8:	01360633          	add	a2,a2,s3
    4eec:	4015073b          	subw	a4,a0,ra
    4ef0:	40e6063b          	subw	a2,a2,a4
    4ef4:	40000737          	lui	a4,0x40000
    4ef8:	00001837          	lui	a6,0x1
    4efc:	41040833          	sub	a6,s0,a6
    4f00:	0ac83423          	sd	a2,168(a6) # 10a8 <.LBB52_4+0x278>
    4f04:	00065463          	bgez	a2,4f0c <.LBB52_240>
    4f08:	c0000737          	lui	a4,0xc0000

0000000000004f0c <.LBB52_240>:
    4f0c:	00001637          	lui	a2,0x1
    4f10:	40c40633          	sub	a2,s0,a2
    4f14:	08e63c23          	sd	a4,152(a2) # 1098 <.LBB52_4+0x268>
    4f18:	a3843603          	ld	a2,-1480(s0)
    4f1c:	f3843703          	ld	a4,-200(s0)
    4f20:	00e60633          	add	a2,a2,a4
    4f24:	01260633          	add	a2,a2,s2
    4f28:	4015073b          	subw	a4,a0,ra
    4f2c:	40e6063b          	subw	a2,a2,a4
    4f30:	40000737          	lui	a4,0x40000
    4f34:	00001837          	lui	a6,0x1
    4f38:	41040833          	sub	a6,s0,a6
    4f3c:	02c83823          	sd	a2,48(a6) # 1030 <.LBB52_4+0x200>
    4f40:	00065463          	bgez	a2,4f48 <.LBB52_242>
    4f44:	c0000737          	lui	a4,0xc0000

0000000000004f48 <.LBB52_242>:
    4f48:	00001637          	lui	a2,0x1
    4f4c:	40c40633          	sub	a2,s0,a2
    4f50:	02e63023          	sd	a4,32(a2) # 1020 <.LBB52_4+0x1f0>
    4f54:	a4043603          	ld	a2,-1472(s0)
    4f58:	f4043703          	ld	a4,-192(s0)
    4f5c:	00e60633          	add	a2,a2,a4
    4f60:	00001737          	lui	a4,0x1
    4f64:	40e40733          	sub	a4,s0,a4
    4f68:	74073703          	ld	a4,1856(a4) # 1740 <.LBB52_5+0x368>
    4f6c:	00e60633          	add	a2,a2,a4
    4f70:	4015073b          	subw	a4,a0,ra
    4f74:	40e6063b          	subw	a2,a2,a4
    4f78:	40000737          	lui	a4,0x40000
    4f7c:	00001837          	lui	a6,0x1
    4f80:	41040833          	sub	a6,s0,a6
    4f84:	fac83c23          	sd	a2,-72(a6) # fb8 <.LBB52_4+0x188>
    4f88:	00065463          	bgez	a2,4f90 <.LBB52_244>
    4f8c:	c0000737          	lui	a4,0xc0000

0000000000004f90 <.LBB52_244>:
    4f90:	00001637          	lui	a2,0x1
    4f94:	40c40633          	sub	a2,s0,a2
    4f98:	fae63023          	sd	a4,-96(a2) # fa0 <.LBB52_4+0x170>
    4f9c:	a4843603          	ld	a2,-1464(s0)
    4fa0:	f4843703          	ld	a4,-184(s0)
    4fa4:	00e60633          	add	a2,a2,a4
    4fa8:	00001737          	lui	a4,0x1
    4fac:	40e40733          	sub	a4,s0,a4
    4fb0:	74873703          	ld	a4,1864(a4) # 1748 <.LBB52_5+0x370>
    4fb4:	00e60633          	add	a2,a2,a4
    4fb8:	4015073b          	subw	a4,a0,ra
    4fbc:	40e6063b          	subw	a2,a2,a4
    4fc0:	40000737          	lui	a4,0x40000
    4fc4:	00001837          	lui	a6,0x1
    4fc8:	41040833          	sub	a6,s0,a6
    4fcc:	f4c83023          	sd	a2,-192(a6) # f40 <.LBB52_4+0x110>
    4fd0:	00065463          	bgez	a2,4fd8 <.LBB52_246>
    4fd4:	c0000737          	lui	a4,0xc0000

0000000000004fd8 <.LBB52_246>:
    4fd8:	00001637          	lui	a2,0x1
    4fdc:	40c40633          	sub	a2,s0,a2
    4fe0:	f2e63823          	sd	a4,-208(a2) # f30 <.LBB52_4+0x100>
    4fe4:	a5043603          	ld	a2,-1456(s0)
    4fe8:	f5043703          	ld	a4,-176(s0)
    4fec:	00e60633          	add	a2,a2,a4
    4ff0:	00001737          	lui	a4,0x1
    4ff4:	40e40733          	sub	a4,s0,a4
    4ff8:	75073703          	ld	a4,1872(a4) # 1750 <.LBB52_5+0x378>
    4ffc:	00e60633          	add	a2,a2,a4
    5000:	4015073b          	subw	a4,a0,ra
    5004:	40e6063b          	subw	a2,a2,a4
    5008:	40000737          	lui	a4,0x40000
    500c:	00001837          	lui	a6,0x1
    5010:	41040833          	sub	a6,s0,a6
    5014:	ecc83823          	sd	a2,-304(a6) # ed0 <.LBB52_4+0xa0>
    5018:	00065463          	bgez	a2,5020 <.LBB52_248>
    501c:	c0000737          	lui	a4,0xc0000

0000000000005020 <.LBB52_248>:
    5020:	00001637          	lui	a2,0x1
    5024:	40c40633          	sub	a2,s0,a2
    5028:	eae63c23          	sd	a4,-328(a2) # eb8 <.LBB52_4+0x88>
    502c:	a5843603          	ld	a2,-1448(s0)
    5030:	f5843703          	ld	a4,-168(s0)
    5034:	00e60633          	add	a2,a2,a4
    5038:	00001737          	lui	a4,0x1
    503c:	40e40733          	sub	a4,s0,a4
    5040:	75873703          	ld	a4,1880(a4) # 1758 <.LBB52_5+0x380>
    5044:	00e60633          	add	a2,a2,a4
    5048:	4015073b          	subw	a4,a0,ra
    504c:	40e6063b          	subw	a2,a2,a4
    5050:	40000737          	lui	a4,0x40000
    5054:	00001837          	lui	a6,0x1
    5058:	41040833          	sub	a6,s0,a6
    505c:	e4c83c23          	sd	a2,-424(a6) # e58 <.LBB52_4+0x28>
    5060:	00065463          	bgez	a2,5068 <.LBB52_250>
    5064:	c0000737          	lui	a4,0xc0000

0000000000005068 <.LBB52_250>:
    5068:	00001637          	lui	a2,0x1
    506c:	40c40633          	sub	a2,s0,a2
    5070:	e4e63423          	sd	a4,-440(a2) # e48 <.LBB52_4+0x18>
    5074:	a6043603          	ld	a2,-1440(s0)
    5078:	f6043703          	ld	a4,-160(s0)
    507c:	00e60633          	add	a2,a2,a4
    5080:	00001737          	lui	a4,0x1
    5084:	40e40733          	sub	a4,s0,a4
    5088:	76073703          	ld	a4,1888(a4) # 1760 <.LBB52_5+0x388>
    508c:	00e60633          	add	a2,a2,a4
    5090:	4015073b          	subw	a4,a0,ra
    5094:	40e6063b          	subw	a2,a2,a4
    5098:	40000737          	lui	a4,0x40000
    509c:	00001837          	lui	a6,0x1
    50a0:	41040833          	sub	a6,s0,a6
    50a4:	dec83423          	sd	a2,-536(a6) # de8 <.LBB52_3+0xc04>
    50a8:	00065463          	bgez	a2,50b0 <.LBB52_252>
    50ac:	c0000737          	lui	a4,0xc0000

00000000000050b0 <.LBB52_252>:
    50b0:	00001637          	lui	a2,0x1
    50b4:	40c40633          	sub	a2,s0,a2
    50b8:	dce63823          	sd	a4,-560(a2) # dd0 <.LBB52_3+0xbec>
    50bc:	a6843603          	ld	a2,-1432(s0)
    50c0:	f6843703          	ld	a4,-152(s0)
    50c4:	00e60633          	add	a2,a2,a4
    50c8:	00660633          	add	a2,a2,t1
    50cc:	4015073b          	subw	a4,a0,ra
    50d0:	40e6063b          	subw	a2,a2,a4
    50d4:	40000737          	lui	a4,0x40000
    50d8:	00001837          	lui	a6,0x1
    50dc:	41040833          	sub	a6,s0,a6
    50e0:	d6c83823          	sd	a2,-656(a6) # d70 <.LBB52_3+0xb8c>
    50e4:	00065463          	bgez	a2,50ec <.LBB52_254>
    50e8:	c0000737          	lui	a4,0xc0000

00000000000050ec <.LBB52_254>:
    50ec:	00001637          	lui	a2,0x1
    50f0:	40c40633          	sub	a2,s0,a2
    50f4:	d6e63023          	sd	a4,-672(a2) # d60 <.LBB52_3+0xb7c>
    50f8:	f7043603          	ld	a2,-144(s0)
    50fc:	a7043703          	ld	a4,-1424(s0)
    5100:	00c70633          	add	a2,a4,a2
    5104:	00960633          	add	a2,a2,s1
    5108:	4015073b          	subw	a4,a0,ra
    510c:	40e6063b          	subw	a2,a2,a4
    5110:	40000737          	lui	a4,0x40000
    5114:	00001837          	lui	a6,0x1
    5118:	41040833          	sub	a6,s0,a6
    511c:	cec83c23          	sd	a2,-776(a6) # cf8 <.LBB52_3+0xb14>
    5120:	00065463          	bgez	a2,5128 <.LBB52_256>
    5124:	c0000737          	lui	a4,0xc0000

0000000000005128 <.LBB52_256>:
    5128:	00001637          	lui	a2,0x1
    512c:	40c40633          	sub	a2,s0,a2
    5130:	cee63023          	sd	a4,-800(a2) # ce0 <.LBB52_3+0xafc>
    5134:	f7843703          	ld	a4,-136(s0)
    5138:	a7843603          	ld	a2,-1416(s0)
    513c:	00e60733          	add	a4,a2,a4
    5140:	01c70733          	add	a4,a4,t3
    5144:	4015083b          	subw	a6,a0,ra
    5148:	4107083b          	subw	a6,a4,a6
    514c:	40000737          	lui	a4,0x40000
    5150:	a9043603          	ld	a2,-1392(s0)
    5154:	000013b7          	lui	t2,0x1
    5158:	407403b3          	sub	t2,s0,t2
    515c:	c303b423          	sd	a6,-984(t2) # c28 <.LBB52_3+0xa44>
    5160:	00085463          	bgez	a6,5168 <.LBB52_258>
    5164:	c0000737          	lui	a4,0xc0000

0000000000005168 <.LBB52_258>:
    5168:	00001837          	lui	a6,0x1
    516c:	41040833          	sub	a6,s0,a6
    5170:	c8e83823          	sd	a4,-880(a6) # c90 <.LBB52_3+0xaac>
    5174:	f8043703          	ld	a4,-128(s0)
    5178:	a8043803          	ld	a6,-1408(s0)
    517c:	00e80733          	add	a4,a6,a4
    5180:	01170733          	add	a4,a4,a7
    5184:	4015083b          	subw	a6,a0,ra
    5188:	4107083b          	subw	a6,a4,a6
    518c:	40000737          	lui	a4,0x40000
    5190:	000013b7          	lui	t2,0x1
    5194:	407403b3          	sub	t2,s0,t2
    5198:	c103b023          	sd	a6,-1024(t2) # c00 <.LBB52_3+0xa1c>
    519c:	00085463          	bgez	a6,51a4 <.LBB52_260>
    51a0:	c0000737          	lui	a4,0xc0000

00000000000051a4 <.LBB52_260>:
    51a4:	00001837          	lui	a6,0x1
    51a8:	41040833          	sub	a6,s0,a6
    51ac:	c4e83823          	sd	a4,-944(a6) # c50 <.LBB52_3+0xa6c>
    51b0:	f8843703          	ld	a4,-120(s0)
    51b4:	a8843803          	ld	a6,-1400(s0)
    51b8:	00e80733          	add	a4,a6,a4
    51bc:	01e70733          	add	a4,a4,t5
    51c0:	4015053b          	subw	a0,a0,ra
    51c4:	40a7073b          	subw	a4,a4,a0
    51c8:	40000537          	lui	a0,0x40000
    51cc:	00001837          	lui	a6,0x1
    51d0:	41040833          	sub	a6,s0,a6
    51d4:	bce83423          	sd	a4,-1080(a6) # bc8 <.LBB52_3+0x9e4>
    51d8:	00075463          	bgez	a4,51e0 <.LBB52_262>
    51dc:	c0000537          	lui	a0,0xc0000

00000000000051e0 <.LBB52_262>:
    51e0:	00001737          	lui	a4,0x1
    51e4:	40e40733          	sub	a4,s0,a4
    51e8:	baa73c23          	sd	a0,-1096(a4) # bb8 <.LBB52_3+0x9d4>
    51ec:	ea843703          	ld	a4,-344(s0)
    51f0:	00e60733          	add	a4,a2,a4
    51f4:	00001537          	lui	a0,0x1
    51f8:	40a40533          	sub	a0,s0,a0
    51fc:	56053503          	ld	a0,1376(a0) # 1560 <.LBB52_5+0x188>
    5200:	02f50533          	mul	a0,a0,a5
    5204:	ea043603          	ld	a2,-352(s0)
    5208:	00c70733          	add	a4,a4,a2
    520c:	4015083b          	subw	a6,a0,ra
    5210:	4107063b          	subw	a2,a4,a6
    5214:	40000737          	lui	a4,0x40000
    5218:	a8c43423          	sd	a2,-1400(s0)
    521c:	00065463          	bgez	a2,5224 <.LBB52_264>
    5220:	c0000737          	lui	a4,0xc0000

0000000000005224 <.LBB52_264>:
    5224:	a6e43c23          	sd	a4,-1416(s0)
    5228:	a9843703          	ld	a4,-1384(s0)
    522c:	e9843603          	ld	a2,-360(s0)
    5230:	00c70733          	add	a4,a4,a2
    5234:	e9043603          	ld	a2,-368(s0)
    5238:	00c70733          	add	a4,a4,a2
    523c:	4015083b          	subw	a6,a0,ra
    5240:	4107063b          	subw	a2,a4,a6
    5244:	40000737          	lui	a4,0x40000
    5248:	a8c43c23          	sd	a2,-1384(s0)
    524c:	00065463          	bgez	a2,5254 <.LBB52_266>
    5250:	c0000737          	lui	a4,0xc0000

0000000000005254 <.LBB52_266>:
    5254:	a6e43423          	sd	a4,-1432(s0)
    5258:	aa043703          	ld	a4,-1376(s0)
    525c:	e8843603          	ld	a2,-376(s0)
    5260:	00c70733          	add	a4,a4,a2
    5264:	e8043603          	ld	a2,-384(s0)
    5268:	00c70733          	add	a4,a4,a2
    526c:	4015083b          	subw	a6,a0,ra
    5270:	4107063b          	subw	a2,a4,a6
    5274:	40000737          	lui	a4,0x40000
    5278:	a6c43023          	sd	a2,-1440(s0)
    527c:	00065463          	bgez	a2,5284 <.LBB52_268>
    5280:	c0000737          	lui	a4,0xc0000

0000000000005284 <.LBB52_268>:
    5284:	a4e43c23          	sd	a4,-1448(s0)
    5288:	aa843703          	ld	a4,-1368(s0)
    528c:	e7843603          	ld	a2,-392(s0)
    5290:	00c70733          	add	a4,a4,a2
    5294:	e7043603          	ld	a2,-400(s0)
    5298:	00c70733          	add	a4,a4,a2
    529c:	4015083b          	subw	a6,a0,ra
    52a0:	4107063b          	subw	a2,a4,a6
    52a4:	40000737          	lui	a4,0x40000
    52a8:	aac43423          	sd	a2,-1368(s0)
    52ac:	00065463          	bgez	a2,52b4 <.LBB52_270>
    52b0:	c0000737          	lui	a4,0xc0000

00000000000052b4 <.LBB52_270>:
    52b4:	a6e43823          	sd	a4,-1424(s0)
    52b8:	ab043703          	ld	a4,-1360(s0)
    52bc:	e6843603          	ld	a2,-408(s0)
    52c0:	00c70733          	add	a4,a4,a2
    52c4:	00001637          	lui	a2,0x1
    52c8:	40c40633          	sub	a2,s0,a2
    52cc:	6d063603          	ld	a2,1744(a2) # 16d0 <.LBB52_5+0x2f8>
    52d0:	00c70733          	add	a4,a4,a2
    52d4:	4015083b          	subw	a6,a0,ra
    52d8:	4107063b          	subw	a2,a4,a6
    52dc:	40000737          	lui	a4,0x40000
    52e0:	a8c43023          	sd	a2,-1408(s0)
    52e4:	00065463          	bgez	a2,52ec <.LBB52_272>
    52e8:	c0000737          	lui	a4,0xc0000

00000000000052ec <.LBB52_272>:
    52ec:	a4e43823          	sd	a4,-1456(s0)
    52f0:	ab843703          	ld	a4,-1352(s0)
    52f4:	00001637          	lui	a2,0x1
    52f8:	40c40633          	sub	a2,s0,a2
    52fc:	6c863603          	ld	a2,1736(a2) # 16c8 <.LBB52_5+0x2f0>
    5300:	00c70733          	add	a4,a4,a2
    5304:	00001637          	lui	a2,0x1
    5308:	40c40633          	sub	a2,s0,a2
    530c:	6c063603          	ld	a2,1728(a2) # 16c0 <.LBB52_5+0x2e8>
    5310:	00c70733          	add	a4,a4,a2
    5314:	4015083b          	subw	a6,a0,ra
    5318:	4107063b          	subw	a2,a4,a6
    531c:	40000737          	lui	a4,0x40000
    5320:	aac43c23          	sd	a2,-1352(s0)
    5324:	00065463          	bgez	a2,532c <.LBB52_274>
    5328:	c0000737          	lui	a4,0xc0000

000000000000532c <.LBB52_274>:
    532c:	a8e43823          	sd	a4,-1392(s0)
    5330:	ac043703          	ld	a4,-1344(s0)
    5334:	00001637          	lui	a2,0x1
    5338:	40c40633          	sub	a2,s0,a2
    533c:	6b863603          	ld	a2,1720(a2) # 16b8 <.LBB52_5+0x2e0>
    5340:	00c70733          	add	a4,a4,a2
    5344:	00001637          	lui	a2,0x1
    5348:	40c40633          	sub	a2,s0,a2
    534c:	6b063603          	ld	a2,1712(a2) # 16b0 <.LBB52_5+0x2d8>
    5350:	00c70733          	add	a4,a4,a2
    5354:	4015083b          	subw	a6,a0,ra
    5358:	4107063b          	subw	a2,a4,a6
    535c:	40000737          	lui	a4,0x40000
    5360:	aac43023          	sd	a2,-1376(s0)
    5364:	00065463          	bgez	a2,536c <.LBB52_276>
    5368:	c0000737          	lui	a4,0xc0000

000000000000536c <.LBB52_276>:
    536c:	a4e43423          	sd	a4,-1464(s0)
    5370:	ac843703          	ld	a4,-1336(s0)
    5374:	00001637          	lui	a2,0x1
    5378:	40c40633          	sub	a2,s0,a2
    537c:	6a863603          	ld	a2,1704(a2) # 16a8 <.LBB52_5+0x2d0>
    5380:	00c70733          	add	a4,a4,a2
    5384:	00001637          	lui	a2,0x1
    5388:	40c40633          	sub	a2,s0,a2
    538c:	6a063603          	ld	a2,1696(a2) # 16a0 <.LBB52_5+0x2c8>
    5390:	00c70733          	add	a4,a4,a2
    5394:	4015083b          	subw	a6,a0,ra
    5398:	4107063b          	subw	a2,a4,a6
    539c:	40000737          	lui	a4,0x40000
    53a0:	acc43423          	sd	a2,-1336(s0)
    53a4:	00065463          	bgez	a2,53ac <.LBB52_278>
    53a8:	c0000737          	lui	a4,0xc0000

00000000000053ac <.LBB52_278>:
    53ac:	aae43823          	sd	a4,-1360(s0)
    53b0:	ad043703          	ld	a4,-1328(s0)
    53b4:	00001637          	lui	a2,0x1
    53b8:	40c40633          	sub	a2,s0,a2
    53bc:	69863603          	ld	a2,1688(a2) # 1698 <.LBB52_5+0x2c0>
    53c0:	00c70733          	add	a4,a4,a2
    53c4:	00001637          	lui	a2,0x1
    53c8:	40c40633          	sub	a2,s0,a2
    53cc:	69063603          	ld	a2,1680(a2) # 1690 <.LBB52_5+0x2b8>
    53d0:	00c70733          	add	a4,a4,a2
    53d4:	4015083b          	subw	a6,a0,ra
    53d8:	4107063b          	subw	a2,a4,a6
    53dc:	40000737          	lui	a4,0x40000
    53e0:	acc43023          	sd	a2,-1344(s0)
    53e4:	00065463          	bgez	a2,53ec <.LBB52_280>
    53e8:	c0000737          	lui	a4,0xc0000

00000000000053ec <.LBB52_280>:
    53ec:	a4e43023          	sd	a4,-1472(s0)
    53f0:	ad843703          	ld	a4,-1320(s0)
    53f4:	00001637          	lui	a2,0x1
    53f8:	40c40633          	sub	a2,s0,a2
    53fc:	68863603          	ld	a2,1672(a2) # 1688 <.LBB52_5+0x2b0>
    5400:	00c70733          	add	a4,a4,a2
    5404:	00001637          	lui	a2,0x1
    5408:	40c40633          	sub	a2,s0,a2
    540c:	6d863603          	ld	a2,1752(a2) # 16d8 <.LBB52_5+0x300>
    5410:	00c70733          	add	a4,a4,a2
    5414:	4015083b          	subw	a6,a0,ra
    5418:	4107063b          	subw	a2,a4,a6
    541c:	40000737          	lui	a4,0x40000
    5420:	acc43c23          	sd	a2,-1320(s0)
    5424:	00065463          	bgez	a2,542c <.LBB52_282>
    5428:	c0000737          	lui	a4,0xc0000

000000000000542c <.LBB52_282>:
    542c:	ace43823          	sd	a4,-1328(s0)
    5430:	ae043703          	ld	a4,-1312(s0)
    5434:	eb043603          	ld	a2,-336(s0)
    5438:	00c70733          	add	a4,a4,a2
    543c:	00001637          	lui	a2,0x1
    5440:	40c40633          	sub	a2,s0,a2
    5444:	6e063603          	ld	a2,1760(a2) # 16e0 <.LBB52_5+0x308>
    5448:	00c70733          	add	a4,a4,a2
    544c:	4015083b          	subw	a6,a0,ra
    5450:	4107063b          	subw	a2,a4,a6
    5454:	40000737          	lui	a4,0x40000
    5458:	aec43023          	sd	a2,-1312(s0)
    545c:	00065463          	bgez	a2,5464 <.LBB52_284>
    5460:	c0000737          	lui	a4,0xc0000

0000000000005464 <.LBB52_284>:
    5464:	a2e43c23          	sd	a4,-1480(s0)
    5468:	ae843703          	ld	a4,-1304(s0)
    546c:	eb843603          	ld	a2,-328(s0)
    5470:	00c70733          	add	a4,a4,a2
    5474:	00001637          	lui	a2,0x1
    5478:	40c40633          	sub	a2,s0,a2
    547c:	6e863603          	ld	a2,1768(a2) # 16e8 <.LBB52_5+0x310>
    5480:	00c70733          	add	a4,a4,a2
    5484:	4015083b          	subw	a6,a0,ra
    5488:	4107063b          	subw	a2,a4,a6
    548c:	40000737          	lui	a4,0x40000
    5490:	aec43423          	sd	a2,-1304(s0)
    5494:	00065463          	bgez	a2,549c <.LBB52_286>
    5498:	c0000737          	lui	a4,0xc0000

000000000000549c <.LBB52_286>:
    549c:	a2e43823          	sd	a4,-1488(s0)
    54a0:	af043703          	ld	a4,-1296(s0)
    54a4:	ec043603          	ld	a2,-320(s0)
    54a8:	00c70733          	add	a4,a4,a2
    54ac:	01b70733          	add	a4,a4,s11
    54b0:	4015083b          	subw	a6,a0,ra
    54b4:	4107063b          	subw	a2,a4,a6
    54b8:	40000737          	lui	a4,0x40000
    54bc:	aec43823          	sd	a2,-1296(s0)
    54c0:	00065463          	bgez	a2,54c8 <.LBB52_288>
    54c4:	c0000737          	lui	a4,0xc0000

00000000000054c8 <.LBB52_288>:
    54c8:	a2e43423          	sd	a4,-1496(s0)
    54cc:	af843703          	ld	a4,-1288(s0)
    54d0:	ec843603          	ld	a2,-312(s0)
    54d4:	00c70733          	add	a4,a4,a2
    54d8:	01a70733          	add	a4,a4,s10
    54dc:	4015083b          	subw	a6,a0,ra
    54e0:	4107063b          	subw	a2,a4,a6
    54e4:	40000737          	lui	a4,0x40000
    54e8:	aec43c23          	sd	a2,-1288(s0)
    54ec:	00065463          	bgez	a2,54f4 <.LBB52_290>
    54f0:	c0000737          	lui	a4,0xc0000

00000000000054f4 <.LBB52_290>:
    54f4:	a2e43023          	sd	a4,-1504(s0)
    54f8:	b0043703          	ld	a4,-1280(s0)
    54fc:	ed043603          	ld	a2,-304(s0)
    5500:	00c70733          	add	a4,a4,a2
    5504:	01970733          	add	a4,a4,s9
    5508:	4015083b          	subw	a6,a0,ra
    550c:	4107063b          	subw	a2,a4,a6
    5510:	40000737          	lui	a4,0x40000
    5514:	b0c43023          	sd	a2,-1280(s0)
    5518:	00065463          	bgez	a2,5520 <.LBB52_292>
    551c:	c0000737          	lui	a4,0xc0000

0000000000005520 <.LBB52_292>:
    5520:	a0e43c23          	sd	a4,-1512(s0)
    5524:	b0843703          	ld	a4,-1272(s0)
    5528:	ed843603          	ld	a2,-296(s0)
    552c:	00c70733          	add	a4,a4,a2
    5530:	01870733          	add	a4,a4,s8
    5534:	4015083b          	subw	a6,a0,ra
    5538:	4107063b          	subw	a2,a4,a6
    553c:	40000737          	lui	a4,0x40000
    5540:	b0c43423          	sd	a2,-1272(s0)
    5544:	00065463          	bgez	a2,554c <.LBB52_294>
    5548:	c0000737          	lui	a4,0xc0000

000000000000554c <.LBB52_294>:
    554c:	a0e43823          	sd	a4,-1520(s0)
    5550:	b1043703          	ld	a4,-1264(s0)
    5554:	ee043603          	ld	a2,-288(s0)
    5558:	00c70733          	add	a4,a4,a2
    555c:	01770733          	add	a4,a4,s7
    5560:	4015083b          	subw	a6,a0,ra
    5564:	4107063b          	subw	a2,a4,a6
    5568:	40000737          	lui	a4,0x40000
    556c:	b0c43823          	sd	a2,-1264(s0)
    5570:	00065463          	bgez	a2,5578 <.LBB52_296>
    5574:	c0000737          	lui	a4,0xc0000

0000000000005578 <.LBB52_296>:
    5578:	00001637          	lui	a2,0x1
    557c:	40c40633          	sub	a2,s0,a2
    5580:	26e63423          	sd	a4,616(a2) # 1268 <.LBB52_4+0x438>
    5584:	b1843703          	ld	a4,-1256(s0)
    5588:	ee843603          	ld	a2,-280(s0)
    558c:	00c70733          	add	a4,a4,a2
    5590:	01670733          	add	a4,a4,s6
    5594:	4015083b          	subw	a6,a0,ra
    5598:	4107063b          	subw	a2,a4,a6
    559c:	40000737          	lui	a4,0x40000
    55a0:	b0c43c23          	sd	a2,-1256(s0)
    55a4:	00065463          	bgez	a2,55ac <.LBB52_298>
    55a8:	c0000737          	lui	a4,0xc0000

00000000000055ac <.LBB52_298>:
    55ac:	00001637          	lui	a2,0x1
    55b0:	40c40633          	sub	a2,s0,a2
    55b4:	1ee63823          	sd	a4,496(a2) # 11f0 <.LBB52_4+0x3c0>
    55b8:	b2043703          	ld	a4,-1248(s0)
    55bc:	ef043603          	ld	a2,-272(s0)
    55c0:	00c70733          	add	a4,a4,a2
    55c4:	01570733          	add	a4,a4,s5
    55c8:	4015083b          	subw	a6,a0,ra
    55cc:	4107063b          	subw	a2,a4,a6
    55d0:	40000737          	lui	a4,0x40000
    55d4:	b2c43023          	sd	a2,-1248(s0)
    55d8:	00065463          	bgez	a2,55e0 <.LBB52_300>
    55dc:	c0000737          	lui	a4,0xc0000

00000000000055e0 <.LBB52_300>:
    55e0:	00001637          	lui	a2,0x1
    55e4:	40c40633          	sub	a2,s0,a2
    55e8:	16e63c23          	sd	a4,376(a2) # 1178 <.LBB52_4+0x348>
    55ec:	b2843703          	ld	a4,-1240(s0)
    55f0:	ef843603          	ld	a2,-264(s0)
    55f4:	00c70733          	add	a4,a4,a2
    55f8:	01470733          	add	a4,a4,s4
    55fc:	4015083b          	subw	a6,a0,ra
    5600:	4107063b          	subw	a2,a4,a6
    5604:	40000737          	lui	a4,0x40000
    5608:	b2c43423          	sd	a2,-1240(s0)
    560c:	00065463          	bgez	a2,5614 <.LBB52_302>
    5610:	c0000737          	lui	a4,0xc0000

0000000000005614 <.LBB52_302>:
    5614:	00001637          	lui	a2,0x1
    5618:	40c40633          	sub	a2,s0,a2
    561c:	10e63023          	sd	a4,256(a2) # 1100 <.LBB52_4+0x2d0>
    5620:	b3043703          	ld	a4,-1232(s0)
    5624:	f0043603          	ld	a2,-256(s0)
    5628:	00c70733          	add	a4,a4,a2
    562c:	01370733          	add	a4,a4,s3
    5630:	4015083b          	subw	a6,a0,ra
    5634:	4107063b          	subw	a2,a4,a6
    5638:	40000737          	lui	a4,0x40000
    563c:	b2c43823          	sd	a2,-1232(s0)
    5640:	00065463          	bgez	a2,5648 <.LBB52_304>
    5644:	c0000737          	lui	a4,0xc0000

0000000000005648 <.LBB52_304>:
    5648:	00001637          	lui	a2,0x1
    564c:	40c40633          	sub	a2,s0,a2
    5650:	08e63423          	sd	a4,136(a2) # 1088 <.LBB52_4+0x258>
    5654:	b3843703          	ld	a4,-1224(s0)
    5658:	f3843603          	ld	a2,-200(s0)
    565c:	00c70733          	add	a4,a4,a2
    5660:	01270733          	add	a4,a4,s2
    5664:	4015083b          	subw	a6,a0,ra
    5668:	4107063b          	subw	a2,a4,a6
    566c:	40000737          	lui	a4,0x40000
    5670:	b2c43c23          	sd	a2,-1224(s0)
    5674:	00065463          	bgez	a2,567c <.LBB52_306>
    5678:	c0000737          	lui	a4,0xc0000

000000000000567c <.LBB52_306>:
    567c:	00001637          	lui	a2,0x1
    5680:	40c40633          	sub	a2,s0,a2
    5684:	00e63823          	sd	a4,16(a2) # 1010 <.LBB52_4+0x1e0>
    5688:	b4043703          	ld	a4,-1216(s0)
    568c:	f4043603          	ld	a2,-192(s0)
    5690:	00c70733          	add	a4,a4,a2
    5694:	00001637          	lui	a2,0x1
    5698:	40c40633          	sub	a2,s0,a2
    569c:	74063603          	ld	a2,1856(a2) # 1740 <.LBB52_5+0x368>
    56a0:	00c70733          	add	a4,a4,a2
    56a4:	4015083b          	subw	a6,a0,ra
    56a8:	4107063b          	subw	a2,a4,a6
    56ac:	40000737          	lui	a4,0x40000
    56b0:	00001837          	lui	a6,0x1
    56b4:	41040833          	sub	a6,s0,a6
    56b8:	fac83423          	sd	a2,-88(a6) # fa8 <.LBB52_4+0x178>
    56bc:	00065463          	bgez	a2,56c4 <.LBB52_308>
    56c0:	c0000737          	lui	a4,0xc0000

00000000000056c4 <.LBB52_308>:
    56c4:	00001637          	lui	a2,0x1
    56c8:	40c40633          	sub	a2,s0,a2
    56cc:	f8e63823          	sd	a4,-112(a2) # f90 <.LBB52_4+0x160>
    56d0:	b4843703          	ld	a4,-1208(s0)
    56d4:	f4843603          	ld	a2,-184(s0)
    56d8:	00c70733          	add	a4,a4,a2
    56dc:	00001637          	lui	a2,0x1
    56e0:	40c40633          	sub	a2,s0,a2
    56e4:	74863603          	ld	a2,1864(a2) # 1748 <.LBB52_5+0x370>
    56e8:	00c70733          	add	a4,a4,a2
    56ec:	4015083b          	subw	a6,a0,ra
    56f0:	4107063b          	subw	a2,a4,a6
    56f4:	40000737          	lui	a4,0x40000
    56f8:	b4c43423          	sd	a2,-1208(s0)
    56fc:	00065463          	bgez	a2,5704 <.LBB52_310>
    5700:	c0000737          	lui	a4,0xc0000

0000000000005704 <.LBB52_310>:
    5704:	00001637          	lui	a2,0x1
    5708:	40c40633          	sub	a2,s0,a2
    570c:	f2e63023          	sd	a4,-224(a2) # f20 <.LBB52_4+0xf0>
    5710:	b5043703          	ld	a4,-1200(s0)
    5714:	f5043603          	ld	a2,-176(s0)
    5718:	00c70733          	add	a4,a4,a2
    571c:	00001637          	lui	a2,0x1
    5720:	40c40633          	sub	a2,s0,a2
    5724:	75063603          	ld	a2,1872(a2) # 1750 <.LBB52_5+0x378>
    5728:	00c70733          	add	a4,a4,a2
    572c:	4015083b          	subw	a6,a0,ra
    5730:	4107063b          	subw	a2,a4,a6
    5734:	40000737          	lui	a4,0x40000
    5738:	00001837          	lui	a6,0x1
    573c:	41040833          	sub	a6,s0,a6
    5740:	ecc83023          	sd	a2,-320(a6) # ec0 <.LBB52_4+0x90>
    5744:	00065463          	bgez	a2,574c <.LBB52_312>
    5748:	c0000737          	lui	a4,0xc0000

000000000000574c <.LBB52_312>:
    574c:	00001637          	lui	a2,0x1
    5750:	40c40633          	sub	a2,s0,a2
    5754:	eae63423          	sd	a4,-344(a2) # ea8 <.LBB52_4+0x78>
    5758:	b5843703          	ld	a4,-1192(s0)
    575c:	f5843603          	ld	a2,-168(s0)
    5760:	00c70733          	add	a4,a4,a2
    5764:	00001637          	lui	a2,0x1
    5768:	40c40633          	sub	a2,s0,a2
    576c:	75863603          	ld	a2,1880(a2) # 1758 <.LBB52_5+0x380>
    5770:	00c70733          	add	a4,a4,a2
    5774:	4015083b          	subw	a6,a0,ra
    5778:	4107063b          	subw	a2,a4,a6
    577c:	40000737          	lui	a4,0x40000
    5780:	b4c43c23          	sd	a2,-1192(s0)
    5784:	00065463          	bgez	a2,578c <.LBB52_314>
    5788:	c0000737          	lui	a4,0xc0000

000000000000578c <.LBB52_314>:
    578c:	00001637          	lui	a2,0x1
    5790:	40c40633          	sub	a2,s0,a2
    5794:	e2e63c23          	sd	a4,-456(a2) # e38 <.LBB52_4+0x8>
    5798:	b6043703          	ld	a4,-1184(s0)
    579c:	f6043603          	ld	a2,-160(s0)
    57a0:	00c70733          	add	a4,a4,a2
    57a4:	00001637          	lui	a2,0x1
    57a8:	40c40633          	sub	a2,s0,a2
    57ac:	76063603          	ld	a2,1888(a2) # 1760 <.LBB52_5+0x388>
    57b0:	00c70733          	add	a4,a4,a2
    57b4:	4015083b          	subw	a6,a0,ra
    57b8:	4107063b          	subw	a2,a4,a6
    57bc:	40000737          	lui	a4,0x40000
    57c0:	00001837          	lui	a6,0x1
    57c4:	41040833          	sub	a6,s0,a6
    57c8:	dcc83c23          	sd	a2,-552(a6) # dd8 <.LBB52_3+0xbf4>
    57cc:	00065463          	bgez	a2,57d4 <.LBB52_316>
    57d0:	c0000737          	lui	a4,0xc0000

00000000000057d4 <.LBB52_316>:
    57d4:	00001637          	lui	a2,0x1
    57d8:	40c40633          	sub	a2,s0,a2
    57dc:	dce63023          	sd	a4,-576(a2) # dc0 <.LBB52_3+0xbdc>
    57e0:	b6843703          	ld	a4,-1176(s0)
    57e4:	f6843603          	ld	a2,-152(s0)
    57e8:	00c70733          	add	a4,a4,a2
    57ec:	00670733          	add	a4,a4,t1
    57f0:	4015083b          	subw	a6,a0,ra
    57f4:	4107063b          	subw	a2,a4,a6
    57f8:	40000737          	lui	a4,0x40000
    57fc:	b6c43423          	sd	a2,-1176(s0)
    5800:	00065463          	bgez	a2,5808 <.LBB52_318>
    5804:	c0000737          	lui	a4,0xc0000

0000000000005808 <.LBB52_318>:
    5808:	00001637          	lui	a2,0x1
    580c:	40c40633          	sub	a2,s0,a2
    5810:	d4e63823          	sd	a4,-688(a2) # d50 <.LBB52_3+0xb6c>
    5814:	b7043703          	ld	a4,-1168(s0)
    5818:	f7043603          	ld	a2,-144(s0)
    581c:	00c70733          	add	a4,a4,a2
    5820:	00970733          	add	a4,a4,s1
    5824:	4015083b          	subw	a6,a0,ra
    5828:	4107063b          	subw	a2,a4,a6
    582c:	40000737          	lui	a4,0x40000
    5830:	00001837          	lui	a6,0x1
    5834:	41040833          	sub	a6,s0,a6
    5838:	cec83423          	sd	a2,-792(a6) # ce8 <.LBB52_3+0xb04>
    583c:	00065463          	bgez	a2,5844 <.LBB52_320>
    5840:	c0000737          	lui	a4,0xc0000

0000000000005844 <.LBB52_320>:
    5844:	00001637          	lui	a2,0x1
    5848:	40c40633          	sub	a2,s0,a2
    584c:	cce63c23          	sd	a4,-808(a2) # cd8 <.LBB52_3+0xaf4>
    5850:	f7843703          	ld	a4,-136(s0)
    5854:	b7843603          	ld	a2,-1160(s0)
    5858:	00e60733          	add	a4,a2,a4
    585c:	01c70733          	add	a4,a4,t3
    5860:	4015083b          	subw	a6,a0,ra
    5864:	4107073b          	subw	a4,a4,a6
    5868:	40000637          	lui	a2,0x40000
    586c:	00001837          	lui	a6,0x1
    5870:	41040833          	sub	a6,s0,a6
    5874:	c0e83c23          	sd	a4,-1000(a6) # c18 <.LBB52_3+0xa34>
    5878:	00075463          	bgez	a4,5880 <.LBB52_322>
    587c:	c0000637          	lui	a2,0xc0000

0000000000005880 <.LBB52_322>:
    5880:	f8043703          	ld	a4,-128(s0)
    5884:	b8043803          	ld	a6,-1152(s0)
    5888:	00e80733          	add	a4,a6,a4
    588c:	01170733          	add	a4,a4,a7
    5890:	4015083b          	subw	a6,a0,ra
    5894:	4107083b          	subw	a6,a4,a6
    5898:	40000737          	lui	a4,0x40000
    589c:	000013b7          	lui	t2,0x1
    58a0:	407403b3          	sub	t2,s0,t2
    58a4:	bf03bc23          	sd	a6,-1032(t2) # bf8 <.LBB52_3+0xa14>
    58a8:	00085463          	bgez	a6,58b0 <.LBB52_324>
    58ac:	c0000737          	lui	a4,0xc0000

00000000000058b0 <.LBB52_324>:
    58b0:	00001837          	lui	a6,0x1
    58b4:	41040833          	sub	a6,s0,a6
    58b8:	c4e83423          	sd	a4,-952(a6) # c48 <.LBB52_3+0xa64>
    58bc:	b6c43c23          	sd	a2,-1160(s0)
    58c0:	f8843703          	ld	a4,-120(s0)
    58c4:	b8843603          	ld	a2,-1144(s0)
    58c8:	00e60733          	add	a4,a2,a4
    58cc:	01e70733          	add	a4,a4,t5
    58d0:	4015053b          	subw	a0,a0,ra
    58d4:	40a7053b          	subw	a0,a4,a0
    58d8:	40000637          	lui	a2,0x40000
    58dc:	b9043703          	ld	a4,-1136(s0)
    58e0:	b8a43423          	sd	a0,-1144(s0)
    58e4:	00055463          	bgez	a0,58ec <.LBB52_326>
    58e8:	c0000637          	lui	a2,0xc0000

00000000000058ec <.LBB52_326>:
    58ec:	00001537          	lui	a0,0x1
    58f0:	40a40533          	sub	a0,s0,a0
    58f4:	bac53823          	sd	a2,-1104(a0) # bb0 <.LBB52_3+0x9cc>
    58f8:	ea843503          	ld	a0,-344(s0)
    58fc:	00a70733          	add	a4,a4,a0
    5900:	00001537          	lui	a0,0x1
    5904:	40a40533          	sub	a0,s0,a0
    5908:	5a053503          	ld	a0,1440(a0) # 15a0 <.LBB52_5+0x1c8>
    590c:	02f50533          	mul	a0,a0,a5
    5910:	ea043603          	ld	a2,-352(s0)
    5914:	00c70733          	add	a4,a4,a2
    5918:	4015083b          	subw	a6,a0,ra
    591c:	4107063b          	subw	a2,a4,a6
    5920:	40000737          	lui	a4,0x40000
    5924:	9cc43c23          	sd	a2,-1576(s0)
    5928:	00065463          	bgez	a2,5930 <.LBB52_328>
    592c:	c0000737          	lui	a4,0xc0000

0000000000005930 <.LBB52_328>:
    5930:	9ce43423          	sd	a4,-1592(s0)
    5934:	b9843703          	ld	a4,-1128(s0)
    5938:	e9843603          	ld	a2,-360(s0)
    593c:	00c70733          	add	a4,a4,a2
    5940:	e9043603          	ld	a2,-368(s0)
    5944:	00c70733          	add	a4,a4,a2
    5948:	4015083b          	subw	a6,a0,ra
    594c:	4107063b          	subw	a2,a4,a6
    5950:	40000737          	lui	a4,0x40000
    5954:	9ac43c23          	sd	a2,-1608(s0)
    5958:	00065463          	bgez	a2,5960 <.LBB52_330>
    595c:	c0000737          	lui	a4,0xc0000

0000000000005960 <.LBB52_330>:
    5960:	9ae43423          	sd	a4,-1624(s0)
    5964:	ba043703          	ld	a4,-1120(s0)
    5968:	e8843603          	ld	a2,-376(s0)
    596c:	00c70733          	add	a4,a4,a2
    5970:	e8043603          	ld	a2,-384(s0)
    5974:	00c70733          	add	a4,a4,a2
    5978:	4015083b          	subw	a6,a0,ra
    597c:	4107063b          	subw	a2,a4,a6
    5980:	40000737          	lui	a4,0x40000
    5984:	96c43423          	sd	a2,-1688(s0)
    5988:	00065463          	bgez	a2,5990 <.LBB52_332>
    598c:	c0000737          	lui	a4,0xc0000

0000000000005990 <.LBB52_332>:
    5990:	96e43023          	sd	a4,-1696(s0)
    5994:	ba843703          	ld	a4,-1112(s0)
    5998:	e7843603          	ld	a2,-392(s0)
    599c:	00c70733          	add	a4,a4,a2
    59a0:	e7043603          	ld	a2,-400(s0)
    59a4:	00c70733          	add	a4,a4,a2
    59a8:	4015083b          	subw	a6,a0,ra
    59ac:	4107063b          	subw	a2,a4,a6
    59b0:	40000737          	lui	a4,0x40000
    59b4:	94c43823          	sd	a2,-1712(s0)
    59b8:	00065463          	bgez	a2,59c0 <.LBB52_334>
    59bc:	c0000737          	lui	a4,0xc0000

00000000000059c0 <.LBB52_334>:
    59c0:	94e43423          	sd	a4,-1720(s0)
    59c4:	bb043703          	ld	a4,-1104(s0)
    59c8:	e6843603          	ld	a2,-408(s0)
    59cc:	00c70733          	add	a4,a4,a2
    59d0:	00001637          	lui	a2,0x1
    59d4:	40c40633          	sub	a2,s0,a2
    59d8:	6d063603          	ld	a2,1744(a2) # 16d0 <.LBB52_5+0x2f8>
    59dc:	00c70733          	add	a4,a4,a2
    59e0:	4015083b          	subw	a6,a0,ra
    59e4:	4107063b          	subw	a2,a4,a6
    59e8:	40000737          	lui	a4,0x40000
    59ec:	92c43c23          	sd	a2,-1736(s0)
    59f0:	00065463          	bgez	a2,59f8 <.LBB52_336>
    59f4:	c0000737          	lui	a4,0xc0000

00000000000059f8 <.LBB52_336>:
    59f8:	92e43823          	sd	a4,-1744(s0)
    59fc:	bb843703          	ld	a4,-1096(s0)
    5a00:	00001637          	lui	a2,0x1
    5a04:	40c40633          	sub	a2,s0,a2
    5a08:	6c863603          	ld	a2,1736(a2) # 16c8 <.LBB52_5+0x2f0>
    5a0c:	00c70733          	add	a4,a4,a2
    5a10:	00001637          	lui	a2,0x1
    5a14:	40c40633          	sub	a2,s0,a2
    5a18:	6c063603          	ld	a2,1728(a2) # 16c0 <.LBB52_5+0x2e8>
    5a1c:	00c70733          	add	a4,a4,a2
    5a20:	4015083b          	subw	a6,a0,ra
    5a24:	4107063b          	subw	a2,a4,a6
    5a28:	40000737          	lui	a4,0x40000
    5a2c:	90c43c23          	sd	a2,-1768(s0)
    5a30:	00065463          	bgez	a2,5a38 <.LBB52_338>
    5a34:	c0000737          	lui	a4,0xc0000

0000000000005a38 <.LBB52_338>:
    5a38:	90e43823          	sd	a4,-1776(s0)
    5a3c:	bc043703          	ld	a4,-1088(s0)
    5a40:	00001637          	lui	a2,0x1
    5a44:	40c40633          	sub	a2,s0,a2
    5a48:	6b863603          	ld	a2,1720(a2) # 16b8 <.LBB52_5+0x2e0>
    5a4c:	00c70733          	add	a4,a4,a2
    5a50:	00001637          	lui	a2,0x1
    5a54:	40c40633          	sub	a2,s0,a2
    5a58:	6b063603          	ld	a2,1712(a2) # 16b0 <.LBB52_5+0x2d8>
    5a5c:	00c70733          	add	a4,a4,a2
    5a60:	4015083b          	subw	a6,a0,ra
    5a64:	4107063b          	subw	a2,a4,a6
    5a68:	40000737          	lui	a4,0x40000
    5a6c:	90c43023          	sd	a2,-1792(s0)
    5a70:	00065463          	bgez	a2,5a78 <.LBB52_340>
    5a74:	c0000737          	lui	a4,0xc0000

0000000000005a78 <.LBB52_340>:
    5a78:	8ee43c23          	sd	a4,-1800(s0)
    5a7c:	bc843703          	ld	a4,-1080(s0)
    5a80:	00001637          	lui	a2,0x1
    5a84:	40c40633          	sub	a2,s0,a2
    5a88:	6a863603          	ld	a2,1704(a2) # 16a8 <.LBB52_5+0x2d0>
    5a8c:	00c70733          	add	a4,a4,a2
    5a90:	00001637          	lui	a2,0x1
    5a94:	40c40633          	sub	a2,s0,a2
    5a98:	6a063603          	ld	a2,1696(a2) # 16a0 <.LBB52_5+0x2c8>
    5a9c:	00c70733          	add	a4,a4,a2
    5aa0:	4015083b          	subw	a6,a0,ra
    5aa4:	4107063b          	subw	a2,a4,a6
    5aa8:	40000737          	lui	a4,0x40000
    5aac:	8ec43023          	sd	a2,-1824(s0)
    5ab0:	00065463          	bgez	a2,5ab8 <.LBB52_342>
    5ab4:	c0000737          	lui	a4,0xc0000

0000000000005ab8 <.LBB52_342>:
    5ab8:	8ce43823          	sd	a4,-1840(s0)
    5abc:	bd043703          	ld	a4,-1072(s0)
    5ac0:	00001637          	lui	a2,0x1
    5ac4:	40c40633          	sub	a2,s0,a2
    5ac8:	69863603          	ld	a2,1688(a2) # 1698 <.LBB52_5+0x2c0>
    5acc:	00c70733          	add	a4,a4,a2
    5ad0:	00001637          	lui	a2,0x1
    5ad4:	40c40633          	sub	a2,s0,a2
    5ad8:	69063603          	ld	a2,1680(a2) # 1690 <.LBB52_5+0x2b8>
    5adc:	00c70733          	add	a4,a4,a2
    5ae0:	4015083b          	subw	a6,a0,ra
    5ae4:	4107063b          	subw	a2,a4,a6
    5ae8:	40000737          	lui	a4,0x40000
    5aec:	00001837          	lui	a6,0x1
    5af0:	41040833          	sub	a6,s0,a6
    5af4:	56c83023          	sd	a2,1376(a6) # 1560 <.LBB52_5+0x188>
    5af8:	00065463          	bgez	a2,5b00 <.LBB52_344>
    5afc:	c0000737          	lui	a4,0xc0000

0000000000005b00 <.LBB52_344>:
    5b00:	00001637          	lui	a2,0x1
    5b04:	40c40633          	sub	a2,s0,a2
    5b08:	54e63823          	sd	a4,1360(a2) # 1550 <.LBB52_5+0x178>
    5b0c:	bd843703          	ld	a4,-1064(s0)
    5b10:	00001637          	lui	a2,0x1
    5b14:	40c40633          	sub	a2,s0,a2
    5b18:	68863603          	ld	a2,1672(a2) # 1688 <.LBB52_5+0x2b0>
    5b1c:	00c70733          	add	a4,a4,a2
    5b20:	00001637          	lui	a2,0x1
    5b24:	40c40633          	sub	a2,s0,a2
    5b28:	6d863603          	ld	a2,1752(a2) # 16d8 <.LBB52_5+0x300>
    5b2c:	00c70733          	add	a4,a4,a2
    5b30:	4015083b          	subw	a6,a0,ra
    5b34:	4107063b          	subw	a2,a4,a6
    5b38:	40000737          	lui	a4,0x40000
    5b3c:	00001837          	lui	a6,0x1
    5b40:	41040833          	sub	a6,s0,a6
    5b44:	50c83023          	sd	a2,1280(a6) # 1500 <.LBB52_5+0x128>
    5b48:	00065463          	bgez	a2,5b50 <.LBB52_346>
    5b4c:	c0000737          	lui	a4,0xc0000

0000000000005b50 <.LBB52_346>:
    5b50:	00001637          	lui	a2,0x1
    5b54:	40c40633          	sub	a2,s0,a2
    5b58:	4ee63823          	sd	a4,1264(a2) # 14f0 <.LBB52_5+0x118>
    5b5c:	be043703          	ld	a4,-1056(s0)
    5b60:	eb043603          	ld	a2,-336(s0)
    5b64:	00c70733          	add	a4,a4,a2
    5b68:	00001637          	lui	a2,0x1
    5b6c:	40c40633          	sub	a2,s0,a2
    5b70:	6e063603          	ld	a2,1760(a2) # 16e0 <.LBB52_5+0x308>
    5b74:	00c70733          	add	a4,a4,a2
    5b78:	4015083b          	subw	a6,a0,ra
    5b7c:	4107063b          	subw	a2,a4,a6
    5b80:	40000737          	lui	a4,0x40000
    5b84:	00001837          	lui	a6,0x1
    5b88:	41040833          	sub	a6,s0,a6
    5b8c:	4ac83423          	sd	a2,1192(a6) # 14a8 <.LBB52_5+0xd0>
    5b90:	00065463          	bgez	a2,5b98 <.LBB52_348>
    5b94:	c0000737          	lui	a4,0xc0000

0000000000005b98 <.LBB52_348>:
    5b98:	00001637          	lui	a2,0x1
    5b9c:	40c40633          	sub	a2,s0,a2
    5ba0:	48e63c23          	sd	a4,1176(a2) # 1498 <.LBB52_5+0xc0>
    5ba4:	be843703          	ld	a4,-1048(s0)
    5ba8:	eb843603          	ld	a2,-328(s0)
    5bac:	00c70733          	add	a4,a4,a2
    5bb0:	00001637          	lui	a2,0x1
    5bb4:	40c40633          	sub	a2,s0,a2
    5bb8:	6e863603          	ld	a2,1768(a2) # 16e8 <.LBB52_5+0x310>
    5bbc:	00c70733          	add	a4,a4,a2
    5bc0:	4015083b          	subw	a6,a0,ra
    5bc4:	4107063b          	subw	a2,a4,a6
    5bc8:	40000737          	lui	a4,0x40000
    5bcc:	00001837          	lui	a6,0x1
    5bd0:	41040833          	sub	a6,s0,a6
    5bd4:	44c83823          	sd	a2,1104(a6) # 1450 <.LBB52_5+0x78>
    5bd8:	00065463          	bgez	a2,5be0 <.LBB52_350>
    5bdc:	c0000737          	lui	a4,0xc0000

0000000000005be0 <.LBB52_350>:
    5be0:	00001637          	lui	a2,0x1
    5be4:	40c40633          	sub	a2,s0,a2
    5be8:	44e63023          	sd	a4,1088(a2) # 1440 <.LBB52_5+0x68>
    5bec:	bf043703          	ld	a4,-1040(s0)
    5bf0:	ec043603          	ld	a2,-320(s0)
    5bf4:	00c70733          	add	a4,a4,a2
    5bf8:	01b70733          	add	a4,a4,s11
    5bfc:	4015083b          	subw	a6,a0,ra
    5c00:	4107063b          	subw	a2,a4,a6
    5c04:	40000737          	lui	a4,0x40000
    5c08:	00001837          	lui	a6,0x1
    5c0c:	41040833          	sub	a6,s0,a6
    5c10:	3ec83c23          	sd	a2,1016(a6) # 13f8 <.LBB52_5+0x20>
    5c14:	00065463          	bgez	a2,5c1c <.LBB52_352>
    5c18:	c0000737          	lui	a4,0xc0000

0000000000005c1c <.LBB52_352>:
    5c1c:	00001637          	lui	a2,0x1
    5c20:	40c40633          	sub	a2,s0,a2
    5c24:	3ee63423          	sd	a4,1000(a2) # 13e8 <.LBB52_5+0x10>
    5c28:	bf843703          	ld	a4,-1032(s0)
    5c2c:	ec843603          	ld	a2,-312(s0)
    5c30:	00c70733          	add	a4,a4,a2
    5c34:	01a70733          	add	a4,a4,s10
    5c38:	4015083b          	subw	a6,a0,ra
    5c3c:	4107063b          	subw	a2,a4,a6
    5c40:	40000737          	lui	a4,0x40000
    5c44:	00001837          	lui	a6,0x1
    5c48:	41040833          	sub	a6,s0,a6
    5c4c:	3ac83023          	sd	a2,928(a6) # 13a0 <.LBB52_4+0x570>
    5c50:	00065463          	bgez	a2,5c58 <.LBB52_354>
    5c54:	c0000737          	lui	a4,0xc0000

0000000000005c58 <.LBB52_354>:
    5c58:	00001637          	lui	a2,0x1
    5c5c:	40c40633          	sub	a2,s0,a2
    5c60:	38e63823          	sd	a4,912(a2) # 1390 <.LBB52_4+0x560>
    5c64:	c0043703          	ld	a4,-1024(s0)
    5c68:	ed043603          	ld	a2,-304(s0)
    5c6c:	00c70733          	add	a4,a4,a2
    5c70:	01970733          	add	a4,a4,s9
    5c74:	4015083b          	subw	a6,a0,ra
    5c78:	4107063b          	subw	a2,a4,a6
    5c7c:	40000737          	lui	a4,0x40000
    5c80:	00001837          	lui	a6,0x1
    5c84:	41040833          	sub	a6,s0,a6
    5c88:	34c83023          	sd	a2,832(a6) # 1340 <.LBB52_4+0x510>
    5c8c:	00065463          	bgez	a2,5c94 <.LBB52_356>
    5c90:	c0000737          	lui	a4,0xc0000

0000000000005c94 <.LBB52_356>:
    5c94:	00001637          	lui	a2,0x1
    5c98:	40c40633          	sub	a2,s0,a2
    5c9c:	32e63423          	sd	a4,808(a2) # 1328 <.LBB52_4+0x4f8>
    5ca0:	c0843703          	ld	a4,-1016(s0)
    5ca4:	ed843603          	ld	a2,-296(s0)
    5ca8:	00c70733          	add	a4,a4,a2
    5cac:	01870733          	add	a4,a4,s8
    5cb0:	4015083b          	subw	a6,a0,ra
    5cb4:	4107063b          	subw	a2,a4,a6
    5cb8:	40000737          	lui	a4,0x40000
    5cbc:	00001837          	lui	a6,0x1
    5cc0:	41040833          	sub	a6,s0,a6
    5cc4:	2cc83c23          	sd	a2,728(a6) # 12d8 <.LBB52_4+0x4a8>
    5cc8:	00065463          	bgez	a2,5cd0 <.LBB52_358>
    5ccc:	c0000737          	lui	a4,0xc0000

0000000000005cd0 <.LBB52_358>:
    5cd0:	00001637          	lui	a2,0x1
    5cd4:	40c40633          	sub	a2,s0,a2
    5cd8:	2ce63023          	sd	a4,704(a2) # 12c0 <.LBB52_4+0x490>
    5cdc:	c1043703          	ld	a4,-1008(s0)
    5ce0:	ee043603          	ld	a2,-288(s0)
    5ce4:	00c70733          	add	a4,a4,a2
    5ce8:	01770733          	add	a4,a4,s7
    5cec:	4015083b          	subw	a6,a0,ra
    5cf0:	4107063b          	subw	a2,a4,a6
    5cf4:	40000737          	lui	a4,0x40000
    5cf8:	00001837          	lui	a6,0x1
    5cfc:	41040833          	sub	a6,s0,a6
    5d00:	26c83823          	sd	a2,624(a6) # 1270 <.LBB52_4+0x440>
    5d04:	00065463          	bgez	a2,5d0c <.LBB52_360>
    5d08:	c0000737          	lui	a4,0xc0000

0000000000005d0c <.LBB52_360>:
    5d0c:	00001637          	lui	a2,0x1
    5d10:	40c40633          	sub	a2,s0,a2
    5d14:	24e63823          	sd	a4,592(a2) # 1250 <.LBB52_4+0x420>
    5d18:	c1843703          	ld	a4,-1000(s0)
    5d1c:	ee843603          	ld	a2,-280(s0)
    5d20:	00c70733          	add	a4,a4,a2
    5d24:	01670733          	add	a4,a4,s6
    5d28:	4015083b          	subw	a6,a0,ra
    5d2c:	4107063b          	subw	a2,a4,a6
    5d30:	40000737          	lui	a4,0x40000
    5d34:	00001837          	lui	a6,0x1
    5d38:	41040833          	sub	a6,s0,a6
    5d3c:	1ec83c23          	sd	a2,504(a6) # 11f8 <.LBB52_4+0x3c8>
    5d40:	00065463          	bgez	a2,5d48 <.LBB52_362>
    5d44:	c0000737          	lui	a4,0xc0000

0000000000005d48 <.LBB52_362>:
    5d48:	00001637          	lui	a2,0x1
    5d4c:	40c40633          	sub	a2,s0,a2
    5d50:	1ee63023          	sd	a4,480(a2) # 11e0 <.LBB52_4+0x3b0>
    5d54:	c2043703          	ld	a4,-992(s0)
    5d58:	ef043603          	ld	a2,-272(s0)
    5d5c:	00c70733          	add	a4,a4,a2
    5d60:	01570733          	add	a4,a4,s5
    5d64:	4015083b          	subw	a6,a0,ra
    5d68:	4107063b          	subw	a2,a4,a6
    5d6c:	40000737          	lui	a4,0x40000
    5d70:	00001837          	lui	a6,0x1
    5d74:	41040833          	sub	a6,s0,a6
    5d78:	18c83023          	sd	a2,384(a6) # 1180 <.LBB52_4+0x350>
    5d7c:	00065463          	bgez	a2,5d84 <.LBB52_364>
    5d80:	c0000737          	lui	a4,0xc0000

0000000000005d84 <.LBB52_364>:
    5d84:	00001637          	lui	a2,0x1
    5d88:	40c40633          	sub	a2,s0,a2
    5d8c:	16e63423          	sd	a4,360(a2) # 1168 <.LBB52_4+0x338>
    5d90:	c2843703          	ld	a4,-984(s0)
    5d94:	ef843603          	ld	a2,-264(s0)
    5d98:	00c70733          	add	a4,a4,a2
    5d9c:	01470733          	add	a4,a4,s4
    5da0:	4015083b          	subw	a6,a0,ra
    5da4:	4107063b          	subw	a2,a4,a6
    5da8:	40000737          	lui	a4,0x40000
    5dac:	00001837          	lui	a6,0x1
    5db0:	41040833          	sub	a6,s0,a6
    5db4:	10c83423          	sd	a2,264(a6) # 1108 <.LBB52_4+0x2d8>
    5db8:	00065463          	bgez	a2,5dc0 <.LBB52_366>
    5dbc:	c0000737          	lui	a4,0xc0000

0000000000005dc0 <.LBB52_366>:
    5dc0:	00001637          	lui	a2,0x1
    5dc4:	40c40633          	sub	a2,s0,a2
    5dc8:	0ee63823          	sd	a4,240(a2) # 10f0 <.LBB52_4+0x2c0>
    5dcc:	c3043703          	ld	a4,-976(s0)
    5dd0:	f0043603          	ld	a2,-256(s0)
    5dd4:	00c70733          	add	a4,a4,a2
    5dd8:	01370733          	add	a4,a4,s3
    5ddc:	4015083b          	subw	a6,a0,ra
    5de0:	4107063b          	subw	a2,a4,a6
    5de4:	40000737          	lui	a4,0x40000
    5de8:	00001837          	lui	a6,0x1
    5dec:	41040833          	sub	a6,s0,a6
    5df0:	08c83823          	sd	a2,144(a6) # 1090 <.LBB52_4+0x260>
    5df4:	00065463          	bgez	a2,5dfc <.LBB52_368>
    5df8:	c0000737          	lui	a4,0xc0000

0000000000005dfc <.LBB52_368>:
    5dfc:	00001637          	lui	a2,0x1
    5e00:	40c40633          	sub	a2,s0,a2
    5e04:	06e63c23          	sd	a4,120(a2) # 1078 <.LBB52_4+0x248>
    5e08:	c3843703          	ld	a4,-968(s0)
    5e0c:	f3843603          	ld	a2,-200(s0)
    5e10:	00c70733          	add	a4,a4,a2
    5e14:	01270733          	add	a4,a4,s2
    5e18:	4015083b          	subw	a6,a0,ra
    5e1c:	4107063b          	subw	a2,a4,a6
    5e20:	40000737          	lui	a4,0x40000
    5e24:	00001837          	lui	a6,0x1
    5e28:	41040833          	sub	a6,s0,a6
    5e2c:	00c83c23          	sd	a2,24(a6) # 1018 <.LBB52_4+0x1e8>
    5e30:	00065463          	bgez	a2,5e38 <.LBB52_370>
    5e34:	c0000737          	lui	a4,0xc0000

0000000000005e38 <.LBB52_370>:
    5e38:	00001637          	lui	a2,0x1
    5e3c:	40c40633          	sub	a2,s0,a2
    5e40:	00e63023          	sd	a4,0(a2) # 1000 <.LBB52_4+0x1d0>
    5e44:	c4043703          	ld	a4,-960(s0)
    5e48:	f4043603          	ld	a2,-192(s0)
    5e4c:	00c70733          	add	a4,a4,a2
    5e50:	00001637          	lui	a2,0x1
    5e54:	40c40633          	sub	a2,s0,a2
    5e58:	74063603          	ld	a2,1856(a2) # 1740 <.LBB52_5+0x368>
    5e5c:	00c70733          	add	a4,a4,a2
    5e60:	4015083b          	subw	a6,a0,ra
    5e64:	4107063b          	subw	a2,a4,a6
    5e68:	40000737          	lui	a4,0x40000
    5e6c:	00001837          	lui	a6,0x1
    5e70:	41040833          	sub	a6,s0,a6
    5e74:	f8c83c23          	sd	a2,-104(a6) # f98 <.LBB52_4+0x168>
    5e78:	00065463          	bgez	a2,5e80 <.LBB52_372>
    5e7c:	c0000737          	lui	a4,0xc0000

0000000000005e80 <.LBB52_372>:
    5e80:	00001637          	lui	a2,0x1
    5e84:	40c40633          	sub	a2,s0,a2
    5e88:	f8e63023          	sd	a4,-128(a2) # f80 <.LBB52_4+0x150>
    5e8c:	c4843703          	ld	a4,-952(s0)
    5e90:	f4843603          	ld	a2,-184(s0)
    5e94:	00c70733          	add	a4,a4,a2
    5e98:	00001637          	lui	a2,0x1
    5e9c:	40c40633          	sub	a2,s0,a2
    5ea0:	74863603          	ld	a2,1864(a2) # 1748 <.LBB52_5+0x370>
    5ea4:	00c70733          	add	a4,a4,a2
    5ea8:	4015083b          	subw	a6,a0,ra
    5eac:	4107063b          	subw	a2,a4,a6
    5eb0:	40000737          	lui	a4,0x40000
    5eb4:	00001837          	lui	a6,0x1
    5eb8:	41040833          	sub	a6,s0,a6
    5ebc:	f2c83423          	sd	a2,-216(a6) # f28 <.LBB52_4+0xf8>
    5ec0:	00065463          	bgez	a2,5ec8 <.LBB52_374>
    5ec4:	c0000737          	lui	a4,0xc0000

0000000000005ec8 <.LBB52_374>:
    5ec8:	00001637          	lui	a2,0x1
    5ecc:	40c40633          	sub	a2,s0,a2
    5ed0:	f0e63823          	sd	a4,-240(a2) # f10 <.LBB52_4+0xe0>
    5ed4:	c5043703          	ld	a4,-944(s0)
    5ed8:	f5043603          	ld	a2,-176(s0)
    5edc:	00c70733          	add	a4,a4,a2
    5ee0:	00001637          	lui	a2,0x1
    5ee4:	40c40633          	sub	a2,s0,a2
    5ee8:	75063603          	ld	a2,1872(a2) # 1750 <.LBB52_5+0x378>
    5eec:	00c70733          	add	a4,a4,a2
    5ef0:	4015083b          	subw	a6,a0,ra
    5ef4:	4107063b          	subw	a2,a4,a6
    5ef8:	40000737          	lui	a4,0x40000
    5efc:	00001837          	lui	a6,0x1
    5f00:	41040833          	sub	a6,s0,a6
    5f04:	eac83823          	sd	a2,-336(a6) # eb0 <.LBB52_4+0x80>
    5f08:	00065463          	bgez	a2,5f10 <.LBB52_376>
    5f0c:	c0000737          	lui	a4,0xc0000

0000000000005f10 <.LBB52_376>:
    5f10:	00001637          	lui	a2,0x1
    5f14:	40c40633          	sub	a2,s0,a2
    5f18:	e8e63c23          	sd	a4,-360(a2) # e98 <.LBB52_4+0x68>
    5f1c:	c5843703          	ld	a4,-936(s0)
    5f20:	f5843603          	ld	a2,-168(s0)
    5f24:	00c70733          	add	a4,a4,a2
    5f28:	00001637          	lui	a2,0x1
    5f2c:	40c40633          	sub	a2,s0,a2
    5f30:	75863603          	ld	a2,1880(a2) # 1758 <.LBB52_5+0x380>
    5f34:	00c70733          	add	a4,a4,a2
    5f38:	4015083b          	subw	a6,a0,ra
    5f3c:	4107063b          	subw	a2,a4,a6
    5f40:	40000737          	lui	a4,0x40000
    5f44:	00001837          	lui	a6,0x1
    5f48:	41040833          	sub	a6,s0,a6
    5f4c:	e4c83023          	sd	a2,-448(a6) # e40 <.LBB52_4+0x10>
    5f50:	00065463          	bgez	a2,5f58 <.LBB52_378>
    5f54:	c0000737          	lui	a4,0xc0000

0000000000005f58 <.LBB52_378>:
    5f58:	00001637          	lui	a2,0x1
    5f5c:	40c40633          	sub	a2,s0,a2
    5f60:	e2e63423          	sd	a4,-472(a2) # e28 <.LBB52_3+0xc44>
    5f64:	c6043703          	ld	a4,-928(s0)
    5f68:	f6043603          	ld	a2,-160(s0)
    5f6c:	00c70733          	add	a4,a4,a2
    5f70:	00001637          	lui	a2,0x1
    5f74:	40c40633          	sub	a2,s0,a2
    5f78:	76063603          	ld	a2,1888(a2) # 1760 <.LBB52_5+0x388>
    5f7c:	00c70733          	add	a4,a4,a2
    5f80:	4015083b          	subw	a6,a0,ra
    5f84:	4107063b          	subw	a2,a4,a6
    5f88:	40000737          	lui	a4,0x40000
    5f8c:	00001837          	lui	a6,0x1
    5f90:	41040833          	sub	a6,s0,a6
    5f94:	dcc83423          	sd	a2,-568(a6) # dc8 <.LBB52_3+0xbe4>
    5f98:	00065463          	bgez	a2,5fa0 <.LBB52_380>
    5f9c:	c0000737          	lui	a4,0xc0000

0000000000005fa0 <.LBB52_380>:
    5fa0:	00001637          	lui	a2,0x1
    5fa4:	40c40633          	sub	a2,s0,a2
    5fa8:	dae63823          	sd	a4,-592(a2) # db0 <.LBB52_3+0xbcc>
    5fac:	c6843703          	ld	a4,-920(s0)
    5fb0:	f6843603          	ld	a2,-152(s0)
    5fb4:	00c70733          	add	a4,a4,a2
    5fb8:	00670733          	add	a4,a4,t1
    5fbc:	4015083b          	subw	a6,a0,ra
    5fc0:	4107063b          	subw	a2,a4,a6
    5fc4:	40000737          	lui	a4,0x40000
    5fc8:	00001837          	lui	a6,0x1
    5fcc:	41040833          	sub	a6,s0,a6
    5fd0:	d4c83c23          	sd	a2,-680(a6) # d58 <.LBB52_3+0xb74>
    5fd4:	00065463          	bgez	a2,5fdc <.LBB52_382>
    5fd8:	c0000737          	lui	a4,0xc0000

0000000000005fdc <.LBB52_382>:
    5fdc:	00001637          	lui	a2,0x1
    5fe0:	40c40633          	sub	a2,s0,a2
    5fe4:	d4e63023          	sd	a4,-704(a2) # d40 <.LBB52_3+0xb5c>
    5fe8:	f7043703          	ld	a4,-144(s0)
    5fec:	c7043603          	ld	a2,-912(s0)
    5ff0:	00e60733          	add	a4,a2,a4
    5ff4:	00970733          	add	a4,a4,s1
    5ff8:	4015083b          	subw	a6,a0,ra
    5ffc:	4107073b          	subw	a4,a4,a6
    6000:	40000637          	lui	a2,0x40000
    6004:	00001837          	lui	a6,0x1
    6008:	41040833          	sub	a6,s0,a6
    600c:	c2e83c23          	sd	a4,-968(a6) # c38 <.LBB52_3+0xa54>
    6010:	00075463          	bgez	a4,6018 <.LBB52_384>
    6014:	c0000637          	lui	a2,0xc0000

0000000000006018 <.LBB52_384>:
    6018:	f7843703          	ld	a4,-136(s0)
    601c:	c7843803          	ld	a6,-904(s0)
    6020:	00e80733          	add	a4,a6,a4
    6024:	01c70733          	add	a4,a4,t3
    6028:	4015083b          	subw	a6,a0,ra
    602c:	4107083b          	subw	a6,a4,a6
    6030:	40000737          	lui	a4,0x40000
    6034:	000013b7          	lui	t2,0x1
    6038:	407403b3          	sub	t2,s0,t2
    603c:	c103b823          	sd	a6,-1008(t2) # c10 <.LBB52_3+0xa2c>
    6040:	00085463          	bgez	a6,6048 <.LBB52_386>
    6044:	c0000737          	lui	a4,0xc0000

0000000000006048 <.LBB52_386>:
    6048:	00001837          	lui	a6,0x1
    604c:	41040833          	sub	a6,s0,a6
    6050:	c8e83423          	sd	a4,-888(a6) # c88 <.LBB52_3+0xaa4>
    6054:	f8043703          	ld	a4,-128(s0)
    6058:	00ef8733          	add	a4,t6,a4
    605c:	01170733          	add	a4,a4,a7
    6060:	4015083b          	subw	a6,a0,ra
    6064:	4107083b          	subw	a6,a4,a6
    6068:	40000737          	lui	a4,0x40000
    606c:	000018b7          	lui	a7,0x1
    6070:	411408b3          	sub	a7,s0,a7
    6074:	bf08b823          	sd	a6,-1040(a7) # bf0 <.LBB52_3+0xa0c>
    6078:	00085463          	bgez	a6,6080 <.LBB52_388>
    607c:	c0000737          	lui	a4,0xc0000

0000000000006080 <.LBB52_388>:
    6080:	00001837          	lui	a6,0x1
    6084:	41040833          	sub	a6,s0,a6
    6088:	c4e83023          	sd	a4,-960(a6) # c40 <.LBB52_3+0xa5c>
    608c:	00001737          	lui	a4,0x1
    6090:	40e40733          	sub	a4,s0,a4
    6094:	ccc73823          	sd	a2,-816(a4) # cd0 <.LBB52_3+0xaec>
    6098:	f8843703          	ld	a4,-120(s0)
    609c:	00e28733          	add	a4,t0,a4
    60a0:	01e70733          	add	a4,a4,t5
    60a4:	4015053b          	subw	a0,a0,ra
    60a8:	40a708bb          	subw	a7,a4,a0
    60ac:	40000637          	lui	a2,0x40000
    60b0:	c9043503          	ld	a0,-880(s0)
    60b4:	0008d463          	bgez	a7,60bc <.LBB52_390>
    60b8:	c0000637          	lui	a2,0xc0000

00000000000060bc <.LBB52_390>:
    60bc:	00001737          	lui	a4,0x1
    60c0:	40e40733          	sub	a4,s0,a4
    60c4:	bac73423          	sd	a2,-1112(a4) # ba8 <.LBB52_3+0x9c4>
    60c8:	ea843603          	ld	a2,-344(s0)
    60cc:	00c50533          	add	a0,a0,a2
    60d0:	00001637          	lui	a2,0x1
    60d4:	40c40633          	sub	a2,s0,a2
    60d8:	5a863603          	ld	a2,1448(a2) # 15a8 <.LBB52_5+0x1d0>
    60dc:	02f60733          	mul	a4,a2,a5
    60e0:	ea043603          	ld	a2,-352(s0)
    60e4:	00c50533          	add	a0,a0,a2
    60e8:	4017083b          	subw	a6,a4,ra
    60ec:	4105053b          	subw	a0,a0,a6
    60f0:	40000637          	lui	a2,0x40000
    60f4:	8ca43c23          	sd	a0,-1832(s0)
    60f8:	00055463          	bgez	a0,6100 <.LBB52_392>
    60fc:	c0000637          	lui	a2,0xc0000

0000000000006100 <.LBB52_392>:
    6100:	c9843503          	ld	a0,-872(s0)
    6104:	e9843803          	ld	a6,-360(s0)
    6108:	01050533          	add	a0,a0,a6
    610c:	e9043803          	ld	a6,-368(s0)
    6110:	01050533          	add	a0,a0,a6
    6114:	4017083b          	subw	a6,a4,ra
    6118:	4105053b          	subw	a0,a0,a6
    611c:	40000837          	lui	a6,0x40000
    6120:	8aa43c23          	sd	a0,-1864(s0)
    6124:	00055463          	bgez	a0,612c <.LBB52_394>
    6128:	c0000837          	lui	a6,0xc0000

000000000000612c <.LBB52_394>:
    612c:	8b043423          	sd	a6,-1880(s0)
    6130:	ca043503          	ld	a0,-864(s0)
    6134:	e8843803          	ld	a6,-376(s0)
    6138:	01050533          	add	a0,a0,a6
    613c:	e8043803          	ld	a6,-384(s0)
    6140:	01050533          	add	a0,a0,a6
    6144:	4017083b          	subw	a6,a4,ra
    6148:	4105053b          	subw	a0,a0,a6
    614c:	40000837          	lui	a6,0x40000
    6150:	86a43423          	sd	a0,-1944(s0)
    6154:	00055463          	bgez	a0,615c <.LBB52_396>
    6158:	c0000837          	lui	a6,0xc0000

000000000000615c <.LBB52_396>:
    615c:	87043023          	sd	a6,-1952(s0)
    6160:	ca843503          	ld	a0,-856(s0)
    6164:	e7843803          	ld	a6,-392(s0)
    6168:	01050533          	add	a0,a0,a6
    616c:	e7043803          	ld	a6,-400(s0)
    6170:	01050533          	add	a0,a0,a6
    6174:	4017083b          	subw	a6,a4,ra
    6178:	4105053b          	subw	a0,a0,a6
    617c:	40000837          	lui	a6,0x40000
    6180:	84a43823          	sd	a0,-1968(s0)
    6184:	00055463          	bgez	a0,618c <.LBB52_398>
    6188:	c0000837          	lui	a6,0xc0000

000000000000618c <.LBB52_398>:
    618c:	85043423          	sd	a6,-1976(s0)
    6190:	cb043503          	ld	a0,-848(s0)
    6194:	e6843803          	ld	a6,-408(s0)
    6198:	01050533          	add	a0,a0,a6
    619c:	00001837          	lui	a6,0x1
    61a0:	41040833          	sub	a6,s0,a6
    61a4:	6d083803          	ld	a6,1744(a6) # 16d0 <.LBB52_5+0x2f8>
    61a8:	01050533          	add	a0,a0,a6
    61ac:	4017083b          	subw	a6,a4,ra
    61b0:	4105053b          	subw	a0,a0,a6
    61b4:	40000837          	lui	a6,0x40000
    61b8:	000012b7          	lui	t0,0x1
    61bc:	405402b3          	sub	t0,s0,t0
    61c0:	7ea2bc23          	sd	a0,2040(t0) # 17f8 <.LBB52_5+0x420>
    61c4:	00055463          	bgez	a0,61cc <.LBB52_400>
    61c8:	c0000837          	lui	a6,0xc0000

00000000000061cc <.LBB52_400>:
    61cc:	00001537          	lui	a0,0x1
    61d0:	40a40533          	sub	a0,s0,a0
    61d4:	7f053423          	sd	a6,2024(a0) # 17e8 <.LBB52_5+0x410>
    61d8:	cb843503          	ld	a0,-840(s0)
    61dc:	00001837          	lui	a6,0x1
    61e0:	41040833          	sub	a6,s0,a6
    61e4:	6c883803          	ld	a6,1736(a6) # 16c8 <.LBB52_5+0x2f0>
    61e8:	01050533          	add	a0,a0,a6
    61ec:	00001837          	lui	a6,0x1
    61f0:	41040833          	sub	a6,s0,a6
    61f4:	6c083803          	ld	a6,1728(a6) # 16c0 <.LBB52_5+0x2e8>
    61f8:	01050533          	add	a0,a0,a6
    61fc:	4017083b          	subw	a6,a4,ra
    6200:	4105053b          	subw	a0,a0,a6
    6204:	40000837          	lui	a6,0x40000
    6208:	000012b7          	lui	t0,0x1
    620c:	405402b3          	sub	t0,s0,t0
    6210:	7ca2b423          	sd	a0,1992(t0) # 17c8 <.LBB52_5+0x3f0>
    6214:	00055463          	bgez	a0,621c <.LBB52_402>
    6218:	c0000837          	lui	a6,0xc0000

000000000000621c <.LBB52_402>:
    621c:	00001537          	lui	a0,0x1
    6220:	40a40533          	sub	a0,s0,a0
    6224:	73053423          	sd	a6,1832(a0) # 1728 <.LBB52_5+0x350>
    6228:	cc043503          	ld	a0,-832(s0)
    622c:	00001837          	lui	a6,0x1
    6230:	41040833          	sub	a6,s0,a6
    6234:	6b883803          	ld	a6,1720(a6) # 16b8 <.LBB52_5+0x2e0>
    6238:	01050533          	add	a0,a0,a6
    623c:	00001837          	lui	a6,0x1
    6240:	41040833          	sub	a6,s0,a6
    6244:	6b083803          	ld	a6,1712(a6) # 16b0 <.LBB52_5+0x2d8>
    6248:	01050533          	add	a0,a0,a6
    624c:	4017083b          	subw	a6,a4,ra
    6250:	4105053b          	subw	a0,a0,a6
    6254:	40000837          	lui	a6,0x40000
    6258:	000012b7          	lui	t0,0x1
    625c:	405402b3          	sub	t0,s0,t0
    6260:	70a2b023          	sd	a0,1792(t0) # 1700 <.LBB52_5+0x328>
    6264:	00055463          	bgez	a0,626c <.LBB52_404>
    6268:	c0000837          	lui	a6,0xc0000

000000000000626c <.LBB52_404>:
    626c:	00001537          	lui	a0,0x1
    6270:	40a40533          	sub	a0,s0,a0
    6274:	6f053823          	sd	a6,1776(a0) # 16f0 <.LBB52_5+0x318>
    6278:	cc843503          	ld	a0,-824(s0)
    627c:	00001837          	lui	a6,0x1
    6280:	41040833          	sub	a6,s0,a6
    6284:	6a883803          	ld	a6,1704(a6) # 16a8 <.LBB52_5+0x2d0>
    6288:	01050533          	add	a0,a0,a6
    628c:	00001837          	lui	a6,0x1
    6290:	41040833          	sub	a6,s0,a6
    6294:	6a083803          	ld	a6,1696(a6) # 16a0 <.LBB52_5+0x2c8>
    6298:	01050533          	add	a0,a0,a6
    629c:	4017083b          	subw	a6,a4,ra
    62a0:	4105053b          	subw	a0,a0,a6
    62a4:	40000837          	lui	a6,0x40000
    62a8:	000012b7          	lui	t0,0x1
    62ac:	405402b3          	sub	t0,s0,t0
    62b0:	5aa2b423          	sd	a0,1448(t0) # 15a8 <.LBB52_5+0x1d0>
    62b4:	00055463          	bgez	a0,62bc <.LBB52_406>
    62b8:	c0000837          	lui	a6,0xc0000

00000000000062bc <.LBB52_406>:
    62bc:	00001537          	lui	a0,0x1
    62c0:	40a40533          	sub	a0,s0,a0
    62c4:	5b053023          	sd	a6,1440(a0) # 15a0 <.LBB52_5+0x1c8>
    62c8:	cd043503          	ld	a0,-816(s0)
    62cc:	00001837          	lui	a6,0x1
    62d0:	41040833          	sub	a6,s0,a6
    62d4:	69883803          	ld	a6,1688(a6) # 1698 <.LBB52_5+0x2c0>
    62d8:	01050533          	add	a0,a0,a6
    62dc:	00001837          	lui	a6,0x1
    62e0:	41040833          	sub	a6,s0,a6
    62e4:	69083803          	ld	a6,1680(a6) # 1690 <.LBB52_5+0x2b8>
    62e8:	01050533          	add	a0,a0,a6
    62ec:	4017083b          	subw	a6,a4,ra
    62f0:	4105053b          	subw	a0,a0,a6
    62f4:	40000837          	lui	a6,0x40000
    62f8:	000012b7          	lui	t0,0x1
    62fc:	405402b3          	sub	t0,s0,t0
    6300:	54a2bc23          	sd	a0,1368(t0) # 1558 <.LBB52_5+0x180>
    6304:	00055463          	bgez	a0,630c <.LBB52_408>
    6308:	c0000837          	lui	a6,0xc0000

000000000000630c <.LBB52_408>:
    630c:	00001537          	lui	a0,0x1
    6310:	40a40533          	sub	a0,s0,a0
    6314:	55053423          	sd	a6,1352(a0) # 1548 <.LBB52_5+0x170>
    6318:	cd843503          	ld	a0,-808(s0)
    631c:	00001837          	lui	a6,0x1
    6320:	41040833          	sub	a6,s0,a6
    6324:	68883803          	ld	a6,1672(a6) # 1688 <.LBB52_5+0x2b0>
    6328:	01050533          	add	a0,a0,a6
    632c:	00001837          	lui	a6,0x1
    6330:	41040833          	sub	a6,s0,a6
    6334:	6d883803          	ld	a6,1752(a6) # 16d8 <.LBB52_5+0x300>
    6338:	01050533          	add	a0,a0,a6
    633c:	4017083b          	subw	a6,a4,ra
    6340:	4105053b          	subw	a0,a0,a6
    6344:	40000837          	lui	a6,0x40000
    6348:	000012b7          	lui	t0,0x1
    634c:	405402b3          	sub	t0,s0,t0
    6350:	4ea2bc23          	sd	a0,1272(t0) # 14f8 <.LBB52_5+0x120>
    6354:	00055463          	bgez	a0,635c <.LBB52_410>
    6358:	c0000837          	lui	a6,0xc0000

000000000000635c <.LBB52_410>:
    635c:	00001537          	lui	a0,0x1
    6360:	40a40533          	sub	a0,s0,a0
    6364:	4f053423          	sd	a6,1256(a0) # 14e8 <.LBB52_5+0x110>
    6368:	ce043503          	ld	a0,-800(s0)
    636c:	eb043803          	ld	a6,-336(s0)
    6370:	01050533          	add	a0,a0,a6
    6374:	00001837          	lui	a6,0x1
    6378:	41040833          	sub	a6,s0,a6
    637c:	6e083803          	ld	a6,1760(a6) # 16e0 <.LBB52_5+0x308>
    6380:	01050533          	add	a0,a0,a6
    6384:	4017083b          	subw	a6,a4,ra
    6388:	4105053b          	subw	a0,a0,a6
    638c:	40000837          	lui	a6,0x40000
    6390:	000012b7          	lui	t0,0x1
    6394:	405402b3          	sub	t0,s0,t0
    6398:	4aa2b023          	sd	a0,1184(t0) # 14a0 <.LBB52_5+0xc8>
    639c:	00055463          	bgez	a0,63a4 <.LBB52_412>
    63a0:	c0000837          	lui	a6,0xc0000

00000000000063a4 <.LBB52_412>:
    63a4:	00001537          	lui	a0,0x1
    63a8:	40a40533          	sub	a0,s0,a0
    63ac:	49053823          	sd	a6,1168(a0) # 1490 <.LBB52_5+0xb8>
    63b0:	ce843503          	ld	a0,-792(s0)
    63b4:	eb843803          	ld	a6,-328(s0)
    63b8:	01050533          	add	a0,a0,a6
    63bc:	00001837          	lui	a6,0x1
    63c0:	41040833          	sub	a6,s0,a6
    63c4:	6e883803          	ld	a6,1768(a6) # 16e8 <.LBB52_5+0x310>
    63c8:	01050533          	add	a0,a0,a6
    63cc:	4017083b          	subw	a6,a4,ra
    63d0:	4105053b          	subw	a0,a0,a6
    63d4:	40000837          	lui	a6,0x40000
    63d8:	000012b7          	lui	t0,0x1
    63dc:	405402b3          	sub	t0,s0,t0
    63e0:	44a2b423          	sd	a0,1096(t0) # 1448 <.LBB52_5+0x70>
    63e4:	00055463          	bgez	a0,63ec <.LBB52_414>
    63e8:	c0000837          	lui	a6,0xc0000

00000000000063ec <.LBB52_414>:
    63ec:	00001537          	lui	a0,0x1
    63f0:	40a40533          	sub	a0,s0,a0
    63f4:	43053c23          	sd	a6,1080(a0) # 1438 <.LBB52_5+0x60>
    63f8:	cf043503          	ld	a0,-784(s0)
    63fc:	ec043803          	ld	a6,-320(s0)
    6400:	01050533          	add	a0,a0,a6
    6404:	01b50533          	add	a0,a0,s11
    6408:	4017083b          	subw	a6,a4,ra
    640c:	4105053b          	subw	a0,a0,a6
    6410:	40000837          	lui	a6,0x40000
    6414:	000012b7          	lui	t0,0x1
    6418:	405402b3          	sub	t0,s0,t0
    641c:	3ea2b823          	sd	a0,1008(t0) # 13f0 <.LBB52_5+0x18>
    6420:	00055463          	bgez	a0,6428 <.LBB52_416>
    6424:	c0000837          	lui	a6,0xc0000

0000000000006428 <.LBB52_416>:
    6428:	00001537          	lui	a0,0x1
    642c:	40a40533          	sub	a0,s0,a0
    6430:	3f053023          	sd	a6,992(a0) # 13e0 <.LBB52_5+0x8>
    6434:	cf843503          	ld	a0,-776(s0)
    6438:	ec843803          	ld	a6,-312(s0)
    643c:	01050533          	add	a0,a0,a6
    6440:	01a50533          	add	a0,a0,s10
    6444:	4017083b          	subw	a6,a4,ra
    6448:	4105053b          	subw	a0,a0,a6
    644c:	40000837          	lui	a6,0x40000
    6450:	000012b7          	lui	t0,0x1
    6454:	405402b3          	sub	t0,s0,t0
    6458:	38a2bc23          	sd	a0,920(t0) # 1398 <.LBB52_4+0x568>
    645c:	00055463          	bgez	a0,6464 <.LBB52_418>
    6460:	c0000837          	lui	a6,0xc0000

0000000000006464 <.LBB52_418>:
    6464:	00001537          	lui	a0,0x1
    6468:	40a40533          	sub	a0,s0,a0
    646c:	39053023          	sd	a6,896(a0) # 1380 <.LBB52_4+0x550>
    6470:	d0043503          	ld	a0,-768(s0)
    6474:	ed043803          	ld	a6,-304(s0)
    6478:	01050533          	add	a0,a0,a6
    647c:	01950533          	add	a0,a0,s9
    6480:	4017083b          	subw	a6,a4,ra
    6484:	4105053b          	subw	a0,a0,a6
    6488:	40000837          	lui	a6,0x40000
    648c:	000012b7          	lui	t0,0x1
    6490:	405402b3          	sub	t0,s0,t0
    6494:	32a2b823          	sd	a0,816(t0) # 1330 <.LBB52_4+0x500>
    6498:	00055463          	bgez	a0,64a0 <.LBB52_420>
    649c:	c0000837          	lui	a6,0xc0000

00000000000064a0 <.LBB52_420>:
    64a0:	00001537          	lui	a0,0x1
    64a4:	40a40533          	sub	a0,s0,a0
    64a8:	31053c23          	sd	a6,792(a0) # 1318 <.LBB52_4+0x4e8>
    64ac:	d0843503          	ld	a0,-760(s0)
    64b0:	ed843803          	ld	a6,-296(s0)
    64b4:	01050533          	add	a0,a0,a6
    64b8:	01850533          	add	a0,a0,s8
    64bc:	4017083b          	subw	a6,a4,ra
    64c0:	4105053b          	subw	a0,a0,a6
    64c4:	40000837          	lui	a6,0x40000
    64c8:	000012b7          	lui	t0,0x1
    64cc:	405402b3          	sub	t0,s0,t0
    64d0:	2ca2b823          	sd	a0,720(t0) # 12d0 <.LBB52_4+0x4a0>
    64d4:	00055463          	bgez	a0,64dc <.LBB52_422>
    64d8:	c0000837          	lui	a6,0xc0000

00000000000064dc <.LBB52_422>:
    64dc:	00001537          	lui	a0,0x1
    64e0:	40a40533          	sub	a0,s0,a0
    64e4:	2b053823          	sd	a6,688(a0) # 12b0 <.LBB52_4+0x480>
    64e8:	d1043503          	ld	a0,-752(s0)
    64ec:	ee043803          	ld	a6,-288(s0)
    64f0:	01050533          	add	a0,a0,a6
    64f4:	01750533          	add	a0,a0,s7
    64f8:	4017083b          	subw	a6,a4,ra
    64fc:	4105053b          	subw	a0,a0,a6
    6500:	40000837          	lui	a6,0x40000
    6504:	000012b7          	lui	t0,0x1
    6508:	405402b3          	sub	t0,s0,t0
    650c:	24a2bc23          	sd	a0,600(t0) # 1258 <.LBB52_4+0x428>
    6510:	00055463          	bgez	a0,6518 <.LBB52_424>
    6514:	c0000837          	lui	a6,0xc0000

0000000000006518 <.LBB52_424>:
    6518:	00001537          	lui	a0,0x1
    651c:	40a40533          	sub	a0,s0,a0
    6520:	23053c23          	sd	a6,568(a0) # 1238 <.LBB52_4+0x408>
    6524:	d1843503          	ld	a0,-744(s0)
    6528:	ee843803          	ld	a6,-280(s0)
    652c:	01050533          	add	a0,a0,a6
    6530:	01650533          	add	a0,a0,s6
    6534:	4017083b          	subw	a6,a4,ra
    6538:	4105053b          	subw	a0,a0,a6
    653c:	40000837          	lui	a6,0x40000
    6540:	000012b7          	lui	t0,0x1
    6544:	405402b3          	sub	t0,s0,t0
    6548:	1ea2b423          	sd	a0,488(t0) # 11e8 <.LBB52_4+0x3b8>
    654c:	00055463          	bgez	a0,6554 <.LBB52_426>
    6550:	c0000837          	lui	a6,0xc0000

0000000000006554 <.LBB52_426>:
    6554:	00001537          	lui	a0,0x1
    6558:	40a40533          	sub	a0,s0,a0
    655c:	1d053423          	sd	a6,456(a0) # 11c8 <.LBB52_4+0x398>
    6560:	d2043503          	ld	a0,-736(s0)
    6564:	ef043803          	ld	a6,-272(s0)
    6568:	01050533          	add	a0,a0,a6
    656c:	01550533          	add	a0,a0,s5
    6570:	4017083b          	subw	a6,a4,ra
    6574:	4105053b          	subw	a0,a0,a6
    6578:	40000837          	lui	a6,0x40000
    657c:	000012b7          	lui	t0,0x1
    6580:	405402b3          	sub	t0,s0,t0
    6584:	16a2b823          	sd	a0,368(t0) # 1170 <.LBB52_4+0x340>
    6588:	00055463          	bgez	a0,6590 <.LBB52_428>
    658c:	c0000837          	lui	a6,0xc0000

0000000000006590 <.LBB52_428>:
    6590:	00001537          	lui	a0,0x1
    6594:	40a40533          	sub	a0,s0,a0
    6598:	15053c23          	sd	a6,344(a0) # 1158 <.LBB52_4+0x328>
    659c:	d2843503          	ld	a0,-728(s0)
    65a0:	ef843803          	ld	a6,-264(s0)
    65a4:	01050533          	add	a0,a0,a6
    65a8:	01450533          	add	a0,a0,s4
    65ac:	4017083b          	subw	a6,a4,ra
    65b0:	4105053b          	subw	a0,a0,a6
    65b4:	40000837          	lui	a6,0x40000
    65b8:	000012b7          	lui	t0,0x1
    65bc:	405402b3          	sub	t0,s0,t0
    65c0:	0ea2bc23          	sd	a0,248(t0) # 10f8 <.LBB52_4+0x2c8>
    65c4:	00055463          	bgez	a0,65cc <.LBB52_430>
    65c8:	c0000837          	lui	a6,0xc0000

00000000000065cc <.LBB52_430>:
    65cc:	00001537          	lui	a0,0x1
    65d0:	40a40533          	sub	a0,s0,a0
    65d4:	0f053023          	sd	a6,224(a0) # 10e0 <.LBB52_4+0x2b0>
    65d8:	d3043503          	ld	a0,-720(s0)
    65dc:	f0043803          	ld	a6,-256(s0)
    65e0:	01050533          	add	a0,a0,a6
    65e4:	01350533          	add	a0,a0,s3
    65e8:	4017083b          	subw	a6,a4,ra
    65ec:	4105053b          	subw	a0,a0,a6
    65f0:	40000837          	lui	a6,0x40000
    65f4:	000012b7          	lui	t0,0x1
    65f8:	405402b3          	sub	t0,s0,t0
    65fc:	08a2b023          	sd	a0,128(t0) # 1080 <.LBB52_4+0x250>
    6600:	00055463          	bgez	a0,6608 <.LBB52_432>
    6604:	c0000837          	lui	a6,0xc0000

0000000000006608 <.LBB52_432>:
    6608:	00001537          	lui	a0,0x1
    660c:	40a40533          	sub	a0,s0,a0
    6610:	07053423          	sd	a6,104(a0) # 1068 <.LBB52_4+0x238>
    6614:	d3843503          	ld	a0,-712(s0)
    6618:	f3843803          	ld	a6,-200(s0)
    661c:	01050533          	add	a0,a0,a6
    6620:	01250533          	add	a0,a0,s2
    6624:	4017083b          	subw	a6,a4,ra
    6628:	4105053b          	subw	a0,a0,a6
    662c:	40000837          	lui	a6,0x40000
    6630:	000012b7          	lui	t0,0x1
    6634:	405402b3          	sub	t0,s0,t0
    6638:	00a2b423          	sd	a0,8(t0) # 1008 <.LBB52_4+0x1d8>
    663c:	00055463          	bgez	a0,6644 <.LBB52_434>
    6640:	c0000837          	lui	a6,0xc0000

0000000000006644 <.LBB52_434>:
    6644:	00001537          	lui	a0,0x1
    6648:	40a40533          	sub	a0,s0,a0
    664c:	ff053823          	sd	a6,-16(a0) # ff0 <.LBB52_4+0x1c0>
    6650:	d4043503          	ld	a0,-704(s0)
    6654:	f4043803          	ld	a6,-192(s0)
    6658:	01050533          	add	a0,a0,a6
    665c:	00001837          	lui	a6,0x1
    6660:	41040833          	sub	a6,s0,a6
    6664:	74083803          	ld	a6,1856(a6) # 1740 <.LBB52_5+0x368>
    6668:	01050533          	add	a0,a0,a6
    666c:	4017083b          	subw	a6,a4,ra
    6670:	4105053b          	subw	a0,a0,a6
    6674:	40000837          	lui	a6,0x40000
    6678:	000012b7          	lui	t0,0x1
    667c:	405402b3          	sub	t0,s0,t0
    6680:	f8a2b423          	sd	a0,-120(t0) # f88 <.LBB52_4+0x158>
    6684:	00055463          	bgez	a0,668c <.LBB52_436>
    6688:	c0000837          	lui	a6,0xc0000

000000000000668c <.LBB52_436>:
    668c:	00001537          	lui	a0,0x1
    6690:	40a40533          	sub	a0,s0,a0
    6694:	f7053c23          	sd	a6,-136(a0) # f78 <.LBB52_4+0x148>
    6698:	d4843503          	ld	a0,-696(s0)
    669c:	f4843803          	ld	a6,-184(s0)
    66a0:	01050533          	add	a0,a0,a6
    66a4:	00001837          	lui	a6,0x1
    66a8:	41040833          	sub	a6,s0,a6
    66ac:	74883803          	ld	a6,1864(a6) # 1748 <.LBB52_5+0x370>
    66b0:	01050533          	add	a0,a0,a6
    66b4:	4017083b          	subw	a6,a4,ra
    66b8:	4105053b          	subw	a0,a0,a6
    66bc:	40000837          	lui	a6,0x40000
    66c0:	000012b7          	lui	t0,0x1
    66c4:	405402b3          	sub	t0,s0,t0
    66c8:	f0a2bc23          	sd	a0,-232(t0) # f18 <.LBB52_4+0xe8>
    66cc:	00055463          	bgez	a0,66d4 <.LBB52_438>
    66d0:	c0000837          	lui	a6,0xc0000

00000000000066d4 <.LBB52_438>:
    66d4:	00001537          	lui	a0,0x1
    66d8:	40a40533          	sub	a0,s0,a0
    66dc:	f1053423          	sd	a6,-248(a0) # f08 <.LBB52_4+0xd8>
    66e0:	d5043503          	ld	a0,-688(s0)
    66e4:	f5043803          	ld	a6,-176(s0)
    66e8:	01050533          	add	a0,a0,a6
    66ec:	00001837          	lui	a6,0x1
    66f0:	41040833          	sub	a6,s0,a6
    66f4:	75083803          	ld	a6,1872(a6) # 1750 <.LBB52_5+0x378>
    66f8:	01050533          	add	a0,a0,a6
    66fc:	4017083b          	subw	a6,a4,ra
    6700:	4105053b          	subw	a0,a0,a6
    6704:	40000837          	lui	a6,0x40000
    6708:	000012b7          	lui	t0,0x1
    670c:	405402b3          	sub	t0,s0,t0
    6710:	eaa2b023          	sd	a0,-352(t0) # ea0 <.LBB52_4+0x70>
    6714:	00055463          	bgez	a0,671c <.LBB52_440>
    6718:	c0000837          	lui	a6,0xc0000

000000000000671c <.LBB52_440>:
    671c:	00001537          	lui	a0,0x1
    6720:	40a40533          	sub	a0,s0,a0
    6724:	e9053823          	sd	a6,-368(a0) # e90 <.LBB52_4+0x60>
    6728:	d5843503          	ld	a0,-680(s0)
    672c:	f5843803          	ld	a6,-168(s0)
    6730:	01050533          	add	a0,a0,a6
    6734:	00001837          	lui	a6,0x1
    6738:	41040833          	sub	a6,s0,a6
    673c:	75883803          	ld	a6,1880(a6) # 1758 <.LBB52_5+0x380>
    6740:	01050533          	add	a0,a0,a6
    6744:	4017083b          	subw	a6,a4,ra
    6748:	4105053b          	subw	a0,a0,a6
    674c:	40000837          	lui	a6,0x40000
    6750:	000012b7          	lui	t0,0x1
    6754:	405402b3          	sub	t0,s0,t0
    6758:	e2a2b823          	sd	a0,-464(t0) # e30 <.LBB52_4>
    675c:	00055463          	bgez	a0,6764 <.LBB52_442>
    6760:	c0000837          	lui	a6,0xc0000

0000000000006764 <.LBB52_442>:
    6764:	00001537          	lui	a0,0x1
    6768:	40a40533          	sub	a0,s0,a0
    676c:	e3053023          	sd	a6,-480(a0) # e20 <.LBB52_3+0xc3c>
    6770:	d6043503          	ld	a0,-672(s0)
    6774:	f6043803          	ld	a6,-160(s0)
    6778:	01050533          	add	a0,a0,a6
    677c:	00001837          	lui	a6,0x1
    6780:	41040833          	sub	a6,s0,a6
    6784:	76083803          	ld	a6,1888(a6) # 1760 <.LBB52_5+0x388>
    6788:	01050533          	add	a0,a0,a6
    678c:	4017083b          	subw	a6,a4,ra
    6790:	4105053b          	subw	a0,a0,a6
    6794:	40000837          	lui	a6,0x40000
    6798:	000012b7          	lui	t0,0x1
    679c:	405402b3          	sub	t0,s0,t0
    67a0:	daa2bc23          	sd	a0,-584(t0) # db8 <.LBB52_3+0xbd4>
    67a4:	00055463          	bgez	a0,67ac <.LBB52_444>
    67a8:	c0000837          	lui	a6,0xc0000

00000000000067ac <.LBB52_444>:
    67ac:	00001537          	lui	a0,0x1
    67b0:	40a40533          	sub	a0,s0,a0
    67b4:	db053423          	sd	a6,-600(a0) # da8 <.LBB52_3+0xbc4>
    67b8:	d6843503          	ld	a0,-664(s0)
    67bc:	f6843803          	ld	a6,-152(s0)
    67c0:	01050533          	add	a0,a0,a6
    67c4:	00650533          	add	a0,a0,t1
    67c8:	4017083b          	subw	a6,a4,ra
    67cc:	4105053b          	subw	a0,a0,a6
    67d0:	40000837          	lui	a6,0x40000
    67d4:	000012b7          	lui	t0,0x1
    67d8:	405402b3          	sub	t0,s0,t0
    67dc:	d4a2b423          	sd	a0,-696(t0) # d48 <.LBB52_3+0xb64>
    67e0:	00055463          	bgez	a0,67e8 <.LBB52_446>
    67e4:	c0000837          	lui	a6,0xc0000

00000000000067e8 <.LBB52_446>:
    67e8:	00001537          	lui	a0,0x1
    67ec:	40a40533          	sub	a0,s0,a0
    67f0:	d3053823          	sd	a6,-720(a0) # d30 <.LBB52_3+0xb4c>
    67f4:	d7043503          	ld	a0,-656(s0)
    67f8:	f7043803          	ld	a6,-144(s0)
    67fc:	01050533          	add	a0,a0,a6
    6800:	00950533          	add	a0,a0,s1
    6804:	4017083b          	subw	a6,a4,ra
    6808:	4105053b          	subw	a0,a0,a6
    680c:	40000837          	lui	a6,0x40000
    6810:	000012b7          	lui	t0,0x1
    6814:	405402b3          	sub	t0,s0,t0
    6818:	bea2b423          	sd	a0,-1048(t0) # be8 <.LBB52_3+0xa04>
    681c:	00055463          	bgez	a0,6824 <.LBB52_448>
    6820:	c0000837          	lui	a6,0xc0000

0000000000006824 <.LBB52_448>:
    6824:	00001537          	lui	a0,0x1
    6828:	40a40533          	sub	a0,s0,a0
    682c:	cd053423          	sd	a6,-824(a0) # cc8 <.LBB52_3+0xae4>
    6830:	f7843803          	ld	a6,-136(s0)
    6834:	d7843503          	ld	a0,-648(s0)
    6838:	01050833          	add	a6,a0,a6
    683c:	01c80833          	add	a6,a6,t3
    6840:	401702bb          	subw	t0,a4,ra
    6844:	405802bb          	subw	t0,a6,t0
    6848:	40000837          	lui	a6,0x40000
    684c:	0002d463          	bgez	t0,6854 <.LBB52_450>
    6850:	c0000837          	lui	a6,0xc0000

0000000000006854 <.LBB52_450>:
    6854:	00001537          	lui	a0,0x1
    6858:	40a40533          	sub	a0,s0,a0
    685c:	c9053023          	sd	a6,-896(a0) # c80 <.LBB52_3+0xa9c>
    6860:	f8043803          	ld	a6,-128(s0)
    6864:	d8043503          	ld	a0,-640(s0)
    6868:	01050833          	add	a6,a0,a6
    686c:	00001537          	lui	a0,0x1
    6870:	40a40533          	sub	a0,s0,a0
    6874:	78053503          	ld	a0,1920(a0) # 1780 <.LBB52_5+0x3a8>
    6878:	00a80833          	add	a6,a6,a0
    687c:	401703bb          	subw	t2,a4,ra
    6880:	407803bb          	subw	t2,a6,t2
    6884:	40000837          	lui	a6,0x40000
    6888:	0003d463          	bgez	t2,6890 <.LBB52_452>
    688c:	c0000837          	lui	a6,0xc0000

0000000000006890 <.LBB52_452>:
    6890:	00001537          	lui	a0,0x1
    6894:	40a40533          	sub	a0,s0,a0
    6898:	c3053823          	sd	a6,-976(a0) # c30 <.LBB52_3+0xa4c>
    689c:	8cc43423          	sd	a2,-1848(s0)
    68a0:	f8843803          	ld	a6,-120(s0)
    68a4:	d8843503          	ld	a0,-632(s0)
    68a8:	01050833          	add	a6,a0,a6
    68ac:	01e80833          	add	a6,a6,t5
    68b0:	4017073b          	subw	a4,a4,ra
    68b4:	40e8053b          	subw	a0,a6,a4
    68b8:	40000637          	lui	a2,0x40000
    68bc:	00055463          	bgez	a0,68c4 <.LBB52_454>
    68c0:	c0000637          	lui	a2,0xc0000

00000000000068c4 <.LBB52_454>:
    68c4:	00001737          	lui	a4,0x1
    68c8:	40e40733          	sub	a4,s0,a4
    68cc:	bac73023          	sd	a2,-1120(a4) # ba0 <.LBB52_3+0x9bc>
    68d0:	ea843703          	ld	a4,-344(s0)
    68d4:	d9043603          	ld	a2,-624(s0)
    68d8:	00e60733          	add	a4,a2,a4
    68dc:	00001637          	lui	a2,0x1
    68e0:	40c40633          	sub	a2,s0,a2
    68e4:	38863603          	ld	a2,904(a2) # 1388 <.LBB52_4+0x558>
    68e8:	02f60833          	mul	a6,a2,a5
    68ec:	ea043603          	ld	a2,-352(s0)
    68f0:	00c70733          	add	a4,a4,a2
    68f4:	40180fbb          	subw	t6,a6,ra
    68f8:	41f7063b          	subw	a2,a4,t6
    68fc:	40000737          	lui	a4,0x40000
    6900:	84c43023          	sd	a2,-1984(s0)
    6904:	00065463          	bgez	a2,690c <.LBB52_456>
    6908:	c0000737          	lui	a4,0xc0000

000000000000690c <.LBB52_456>:
    690c:	82e43c23          	sd	a4,-1992(s0)
    6910:	d9843703          	ld	a4,-616(s0)
    6914:	e9843603          	ld	a2,-360(s0)
    6918:	00c70733          	add	a4,a4,a2
    691c:	e9043603          	ld	a2,-368(s0)
    6920:	00c70733          	add	a4,a4,a2
    6924:	40180fbb          	subw	t6,a6,ra
    6928:	41f7063b          	subw	a2,a4,t6
    692c:	40000737          	lui	a4,0x40000
    6930:	e4843783          	ld	a5,-440(s0)
    6934:	82c43823          	sd	a2,-2000(s0)
    6938:	00065463          	bgez	a2,6940 <.LBB52_458>
    693c:	c0000737          	lui	a4,0xc0000

0000000000006940 <.LBB52_458>:
    6940:	82e43423          	sd	a4,-2008(s0)
    6944:	da043703          	ld	a4,-608(s0)
    6948:	e8843603          	ld	a2,-376(s0)
    694c:	00c70733          	add	a4,a4,a2
    6950:	e8043603          	ld	a2,-384(s0)
    6954:	00c70733          	add	a4,a4,a2
    6958:	40180fbb          	subw	t6,a6,ra
    695c:	41f7063b          	subw	a2,a4,t6
    6960:	40000737          	lui	a4,0x40000
    6964:	82c43023          	sd	a2,-2016(s0)
    6968:	00065463          	bgez	a2,6970 <.LBB52_460>
    696c:	c0000737          	lui	a4,0xc0000

0000000000006970 <.LBB52_460>:
    6970:	80e43c23          	sd	a4,-2024(s0)
    6974:	da843703          	ld	a4,-600(s0)
    6978:	e7843603          	ld	a2,-392(s0)
    697c:	00c70733          	add	a4,a4,a2
    6980:	e7043603          	ld	a2,-400(s0)
    6984:	00c70733          	add	a4,a4,a2
    6988:	40180fbb          	subw	t6,a6,ra
    698c:	41f7063b          	subw	a2,a4,t6
    6990:	40000737          	lui	a4,0x40000
    6994:	80c43823          	sd	a2,-2032(s0)
    6998:	00065463          	bgez	a2,69a0 <.LBB52_462>
    699c:	c0000737          	lui	a4,0xc0000

00000000000069a0 <.LBB52_462>:
    69a0:	80e43423          	sd	a4,-2040(s0)
    69a4:	db043703          	ld	a4,-592(s0)
    69a8:	e6843603          	ld	a2,-408(s0)
    69ac:	00c70733          	add	a4,a4,a2
    69b0:	00001637          	lui	a2,0x1
    69b4:	40c40633          	sub	a2,s0,a2
    69b8:	6d063603          	ld	a2,1744(a2) # 16d0 <.LBB52_5+0x2f8>
    69bc:	00c70733          	add	a4,a4,a2
    69c0:	40180fbb          	subw	t6,a6,ra
    69c4:	41f7063b          	subw	a2,a4,t6
    69c8:	40000737          	lui	a4,0x40000
    69cc:	00001fb7          	lui	t6,0x1
    69d0:	41f40fb3          	sub	t6,s0,t6
    69d4:	7ecfb823          	sd	a2,2032(t6) # 17f0 <.LBB52_5+0x418>
    69d8:	00065463          	bgez	a2,69e0 <.LBB52_464>
    69dc:	c0000737          	lui	a4,0xc0000

00000000000069e0 <.LBB52_464>:
    69e0:	00001637          	lui	a2,0x1
    69e4:	40c40633          	sub	a2,s0,a2
    69e8:	7ee63023          	sd	a4,2016(a2) # 17e0 <.LBB52_5+0x408>
    69ec:	db843703          	ld	a4,-584(s0)
    69f0:	00001637          	lui	a2,0x1
    69f4:	40c40633          	sub	a2,s0,a2
    69f8:	6c863603          	ld	a2,1736(a2) # 16c8 <.LBB52_5+0x2f0>
    69fc:	00c70733          	add	a4,a4,a2
    6a00:	00001637          	lui	a2,0x1
    6a04:	40c40633          	sub	a2,s0,a2
    6a08:	6c063603          	ld	a2,1728(a2) # 16c0 <.LBB52_5+0x2e8>
    6a0c:	00c70733          	add	a4,a4,a2
    6a10:	40180fbb          	subw	t6,a6,ra
    6a14:	41f7063b          	subw	a2,a4,t6
    6a18:	40000737          	lui	a4,0x40000
    6a1c:	00001fb7          	lui	t6,0x1
    6a20:	41f40fb3          	sub	t6,s0,t6
    6a24:	7ccfb023          	sd	a2,1984(t6) # 17c0 <.LBB52_5+0x3e8>
    6a28:	00065463          	bgez	a2,6a30 <.LBB52_466>
    6a2c:	c0000737          	lui	a4,0xc0000

0000000000006a30 <.LBB52_466>:
    6a30:	00001637          	lui	a2,0x1
    6a34:	40c40633          	sub	a2,s0,a2
    6a38:	72e63023          	sd	a4,1824(a2) # 1720 <.LBB52_5+0x348>
    6a3c:	dc043703          	ld	a4,-576(s0)
    6a40:	00001637          	lui	a2,0x1
    6a44:	40c40633          	sub	a2,s0,a2
    6a48:	6b863603          	ld	a2,1720(a2) # 16b8 <.LBB52_5+0x2e0>
    6a4c:	00c70733          	add	a4,a4,a2
    6a50:	00001637          	lui	a2,0x1
    6a54:	40c40633          	sub	a2,s0,a2
    6a58:	6b063603          	ld	a2,1712(a2) # 16b0 <.LBB52_5+0x2d8>
    6a5c:	00c70733          	add	a4,a4,a2
    6a60:	40180fbb          	subw	t6,a6,ra
    6a64:	41f7063b          	subw	a2,a4,t6
    6a68:	40000737          	lui	a4,0x40000
    6a6c:	00001fb7          	lui	t6,0x1
    6a70:	41f40fb3          	sub	t6,s0,t6
    6a74:	6ecfbc23          	sd	a2,1784(t6) # 16f8 <.LBB52_5+0x320>
    6a78:	00065463          	bgez	a2,6a80 <.LBB52_468>
    6a7c:	c0000737          	lui	a4,0xc0000

0000000000006a80 <.LBB52_468>:
    6a80:	00001637          	lui	a2,0x1
    6a84:	40c40633          	sub	a2,s0,a2
    6a88:	6ce63823          	sd	a4,1744(a2) # 16d0 <.LBB52_5+0x2f8>
    6a8c:	dc843703          	ld	a4,-568(s0)
    6a90:	00001637          	lui	a2,0x1
    6a94:	40c40633          	sub	a2,s0,a2
    6a98:	6a863603          	ld	a2,1704(a2) # 16a8 <.LBB52_5+0x2d0>
    6a9c:	00c70733          	add	a4,a4,a2
    6aa0:	00001637          	lui	a2,0x1
    6aa4:	40c40633          	sub	a2,s0,a2
    6aa8:	6a063603          	ld	a2,1696(a2) # 16a0 <.LBB52_5+0x2c8>
    6aac:	00c70733          	add	a4,a4,a2
    6ab0:	40180fbb          	subw	t6,a6,ra
    6ab4:	41f7063b          	subw	a2,a4,t6
    6ab8:	40000737          	lui	a4,0x40000
    6abc:	00001fb7          	lui	t6,0x1
    6ac0:	41f40fb3          	sub	t6,s0,t6
    6ac4:	6ccfb423          	sd	a2,1736(t6) # 16c8 <.LBB52_5+0x2f0>
    6ac8:	00065463          	bgez	a2,6ad0 <.LBB52_470>
    6acc:	c0000737          	lui	a4,0xc0000

0000000000006ad0 <.LBB52_470>:
    6ad0:	00001637          	lui	a2,0x1
    6ad4:	40c40633          	sub	a2,s0,a2
    6ad8:	6ce63023          	sd	a4,1728(a2) # 16c0 <.LBB52_5+0x2e8>
    6adc:	dd043703          	ld	a4,-560(s0)
    6ae0:	00001637          	lui	a2,0x1
    6ae4:	40c40633          	sub	a2,s0,a2
    6ae8:	69863603          	ld	a2,1688(a2) # 1698 <.LBB52_5+0x2c0>
    6aec:	00c70733          	add	a4,a4,a2
    6af0:	00001637          	lui	a2,0x1
    6af4:	40c40633          	sub	a2,s0,a2
    6af8:	69063603          	ld	a2,1680(a2) # 1690 <.LBB52_5+0x2b8>
    6afc:	00c70733          	add	a4,a4,a2
    6b00:	40180fbb          	subw	t6,a6,ra
    6b04:	41f7063b          	subw	a2,a4,t6
    6b08:	40000737          	lui	a4,0x40000
    6b0c:	00001fb7          	lui	t6,0x1
    6b10:	41f40fb3          	sub	t6,s0,t6
    6b14:	6acfbc23          	sd	a2,1720(t6) # 16b8 <.LBB52_5+0x2e0>
    6b18:	00065463          	bgez	a2,6b20 <.LBB52_472>
    6b1c:	c0000737          	lui	a4,0xc0000

0000000000006b20 <.LBB52_472>:
    6b20:	00001637          	lui	a2,0x1
    6b24:	40c40633          	sub	a2,s0,a2
    6b28:	6ae63823          	sd	a4,1712(a2) # 16b0 <.LBB52_5+0x2d8>
    6b2c:	dd843703          	ld	a4,-552(s0)
    6b30:	00001637          	lui	a2,0x1
    6b34:	40c40633          	sub	a2,s0,a2
    6b38:	68863603          	ld	a2,1672(a2) # 1688 <.LBB52_5+0x2b0>
    6b3c:	00c70733          	add	a4,a4,a2
    6b40:	00001637          	lui	a2,0x1
    6b44:	40c40633          	sub	a2,s0,a2
    6b48:	6d863603          	ld	a2,1752(a2) # 16d8 <.LBB52_5+0x300>
    6b4c:	00c70733          	add	a4,a4,a2
    6b50:	40180fbb          	subw	t6,a6,ra
    6b54:	41f7063b          	subw	a2,a4,t6
    6b58:	40000737          	lui	a4,0x40000
    6b5c:	00001fb7          	lui	t6,0x1
    6b60:	41f40fb3          	sub	t6,s0,t6
    6b64:	6ccfbc23          	sd	a2,1752(t6) # 16d8 <.LBB52_5+0x300>
    6b68:	00065463          	bgez	a2,6b70 <.LBB52_474>
    6b6c:	c0000737          	lui	a4,0xc0000

0000000000006b70 <.LBB52_474>:
    6b70:	00001637          	lui	a2,0x1
    6b74:	40c40633          	sub	a2,s0,a2
    6b78:	6ae63423          	sd	a4,1704(a2) # 16a8 <.LBB52_5+0x2d0>
    6b7c:	eb043703          	ld	a4,-336(s0)
    6b80:	de043603          	ld	a2,-544(s0)
    6b84:	00e60733          	add	a4,a2,a4
    6b88:	00001637          	lui	a2,0x1
    6b8c:	40c40633          	sub	a2,s0,a2
    6b90:	6e063603          	ld	a2,1760(a2) # 16e0 <.LBB52_5+0x308>
    6b94:	00c70733          	add	a4,a4,a2
    6b98:	40180fbb          	subw	t6,a6,ra
    6b9c:	41f7063b          	subw	a2,a4,t6
    6ba0:	40000737          	lui	a4,0x40000
    6ba4:	00001fb7          	lui	t6,0x1
    6ba8:	41f40fb3          	sub	t6,s0,t6
    6bac:	6ecfb023          	sd	a2,1760(t6) # 16e0 <.LBB52_5+0x308>
    6bb0:	00065463          	bgez	a2,6bb8 <.LBB52_476>
    6bb4:	c0000737          	lui	a4,0xc0000

0000000000006bb8 <.LBB52_476>:
    6bb8:	00001637          	lui	a2,0x1
    6bbc:	40c40633          	sub	a2,s0,a2
    6bc0:	6ae63023          	sd	a4,1696(a2) # 16a0 <.LBB52_5+0x2c8>
    6bc4:	de843703          	ld	a4,-536(s0)
    6bc8:	eb843603          	ld	a2,-328(s0)
    6bcc:	00c70733          	add	a4,a4,a2
    6bd0:	00001637          	lui	a2,0x1
    6bd4:	40c40633          	sub	a2,s0,a2
    6bd8:	6e863603          	ld	a2,1768(a2) # 16e8 <.LBB52_5+0x310>
    6bdc:	00c70733          	add	a4,a4,a2
    6be0:	40180fbb          	subw	t6,a6,ra
    6be4:	41f7063b          	subw	a2,a4,t6
    6be8:	40000737          	lui	a4,0x40000
    6bec:	00001fb7          	lui	t6,0x1
    6bf0:	41f40fb3          	sub	t6,s0,t6
    6bf4:	6ecfb423          	sd	a2,1768(t6) # 16e8 <.LBB52_5+0x310>
    6bf8:	00065463          	bgez	a2,6c00 <.LBB52_478>
    6bfc:	c0000737          	lui	a4,0xc0000

0000000000006c00 <.LBB52_478>:
    6c00:	00001637          	lui	a2,0x1
    6c04:	40c40633          	sub	a2,s0,a2
    6c08:	68e63c23          	sd	a4,1688(a2) # 1698 <.LBB52_5+0x2c0>
    6c0c:	df043703          	ld	a4,-528(s0)
    6c10:	ec043603          	ld	a2,-320(s0)
    6c14:	00c70733          	add	a4,a4,a2
    6c18:	01b70733          	add	a4,a4,s11
    6c1c:	40180fbb          	subw	t6,a6,ra
    6c20:	41f7063b          	subw	a2,a4,t6
    6c24:	40000737          	lui	a4,0x40000
    6c28:	00001fb7          	lui	t6,0x1
    6c2c:	41f40fb3          	sub	t6,s0,t6
    6c30:	68cfb823          	sd	a2,1680(t6) # 1690 <.LBB52_5+0x2b8>
    6c34:	00065463          	bgez	a2,6c3c <.LBB52_480>
    6c38:	c0000737          	lui	a4,0xc0000

0000000000006c3c <.LBB52_480>:
    6c3c:	00001637          	lui	a2,0x1
    6c40:	40c40633          	sub	a2,s0,a2
    6c44:	68e63423          	sd	a4,1672(a2) # 1688 <.LBB52_5+0x2b0>
    6c48:	df843703          	ld	a4,-520(s0)
    6c4c:	ec843603          	ld	a2,-312(s0)
    6c50:	00c70733          	add	a4,a4,a2
    6c54:	01a70733          	add	a4,a4,s10
    6c58:	40180fbb          	subw	t6,a6,ra
    6c5c:	41f7063b          	subw	a2,a4,t6
    6c60:	40000737          	lui	a4,0x40000
    6c64:	00001fb7          	lui	t6,0x1
    6c68:	41f40fb3          	sub	t6,s0,t6
    6c6c:	38cfb423          	sd	a2,904(t6) # 1388 <.LBB52_4+0x558>
    6c70:	00065463          	bgez	a2,6c78 <.LBB52_482>
    6c74:	c0000737          	lui	a4,0xc0000

0000000000006c78 <.LBB52_482>:
    6c78:	00001637          	lui	a2,0x1
    6c7c:	40c40633          	sub	a2,s0,a2
    6c80:	36e63c23          	sd	a4,888(a2) # 1378 <.LBB52_4+0x548>
    6c84:	e0043703          	ld	a4,-512(s0)
    6c88:	ed043603          	ld	a2,-304(s0)
    6c8c:	00c70733          	add	a4,a4,a2
    6c90:	01970733          	add	a4,a4,s9
    6c94:	40180fbb          	subw	t6,a6,ra
    6c98:	41f7063b          	subw	a2,a4,t6
    6c9c:	40000737          	lui	a4,0x40000
    6ca0:	00001fb7          	lui	t6,0x1
    6ca4:	41f40fb3          	sub	t6,s0,t6
    6ca8:	32cfb023          	sd	a2,800(t6) # 1320 <.LBB52_4+0x4f0>
    6cac:	00065463          	bgez	a2,6cb4 <.LBB52_484>
    6cb0:	c0000737          	lui	a4,0xc0000

0000000000006cb4 <.LBB52_484>:
    6cb4:	00001637          	lui	a2,0x1
    6cb8:	40c40633          	sub	a2,s0,a2
    6cbc:	30e63823          	sd	a4,784(a2) # 1310 <.LBB52_4+0x4e0>
    6cc0:	e0843703          	ld	a4,-504(s0)
    6cc4:	ed843603          	ld	a2,-296(s0)
    6cc8:	00c70733          	add	a4,a4,a2
    6ccc:	01870733          	add	a4,a4,s8
    6cd0:	40180fbb          	subw	t6,a6,ra
    6cd4:	41f7063b          	subw	a2,a4,t6
    6cd8:	40000737          	lui	a4,0x40000
    6cdc:	00001fb7          	lui	t6,0x1
    6ce0:	41f40fb3          	sub	t6,s0,t6
    6ce4:	2acfbc23          	sd	a2,696(t6) # 12b8 <.LBB52_4+0x488>
    6ce8:	00065463          	bgez	a2,6cf0 <.LBB52_486>
    6cec:	c0000737          	lui	a4,0xc0000

0000000000006cf0 <.LBB52_486>:
    6cf0:	00001637          	lui	a2,0x1
    6cf4:	40c40633          	sub	a2,s0,a2
    6cf8:	2ae63423          	sd	a4,680(a2) # 12a8 <.LBB52_4+0x478>
    6cfc:	ee043703          	ld	a4,-288(s0)
    6d00:	e1043603          	ld	a2,-496(s0)
    6d04:	00e60733          	add	a4,a2,a4
    6d08:	01770733          	add	a4,a4,s7
    6d0c:	40180fbb          	subw	t6,a6,ra
    6d10:	41f7063b          	subw	a2,a4,t6
    6d14:	40000737          	lui	a4,0x40000
    6d18:	00001fb7          	lui	t6,0x1
    6d1c:	41f40fb3          	sub	t6,s0,t6
    6d20:	24cfb423          	sd	a2,584(t6) # 1248 <.LBB52_4+0x418>
    6d24:	00065463          	bgez	a2,6d2c <.LBB52_488>
    6d28:	c0000737          	lui	a4,0xc0000

0000000000006d2c <.LBB52_488>:
    6d2c:	00001637          	lui	a2,0x1
    6d30:	40c40633          	sub	a2,s0,a2
    6d34:	22e63823          	sd	a4,560(a2) # 1230 <.LBB52_4+0x400>
    6d38:	ee843703          	ld	a4,-280(s0)
    6d3c:	e1843603          	ld	a2,-488(s0)
    6d40:	00e60733          	add	a4,a2,a4
    6d44:	01670733          	add	a4,a4,s6
    6d48:	40180fbb          	subw	t6,a6,ra
    6d4c:	41f7063b          	subw	a2,a4,t6
    6d50:	40000737          	lui	a4,0x40000
    6d54:	00001fb7          	lui	t6,0x1
    6d58:	41f40fb3          	sub	t6,s0,t6
    6d5c:	1ccfb823          	sd	a2,464(t6) # 11d0 <.LBB52_4+0x3a0>
    6d60:	00065463          	bgez	a2,6d68 <.LBB52_490>
    6d64:	c0000737          	lui	a4,0xc0000

0000000000006d68 <.LBB52_490>:
    6d68:	00001637          	lui	a2,0x1
    6d6c:	40c40633          	sub	a2,s0,a2
    6d70:	1ae63c23          	sd	a4,440(a2) # 11b8 <.LBB52_4+0x388>
    6d74:	e2043703          	ld	a4,-480(s0)
    6d78:	ef043603          	ld	a2,-272(s0)
    6d7c:	00c70733          	add	a4,a4,a2
    6d80:	01570733          	add	a4,a4,s5
    6d84:	40180fbb          	subw	t6,a6,ra
    6d88:	41f7063b          	subw	a2,a4,t6
    6d8c:	40000737          	lui	a4,0x40000
    6d90:	00001fb7          	lui	t6,0x1
    6d94:	41f40fb3          	sub	t6,s0,t6
    6d98:	16cfb023          	sd	a2,352(t6) # 1160 <.LBB52_4+0x330>
    6d9c:	00065463          	bgez	a2,6da4 <.LBB52_492>
    6da0:	c0000737          	lui	a4,0xc0000

0000000000006da4 <.LBB52_492>:
    6da4:	00001637          	lui	a2,0x1
    6da8:	40c40633          	sub	a2,s0,a2
    6dac:	14e63423          	sd	a4,328(a2) # 1148 <.LBB52_4+0x318>
    6db0:	f0843703          	ld	a4,-248(s0)
    6db4:	ef843603          	ld	a2,-264(s0)
    6db8:	00c70733          	add	a4,a4,a2
    6dbc:	01470733          	add	a4,a4,s4
    6dc0:	40180fbb          	subw	t6,a6,ra
    6dc4:	41f7063b          	subw	a2,a4,t6
    6dc8:	40000737          	lui	a4,0x40000
    6dcc:	00001fb7          	lui	t6,0x1
    6dd0:	41f40fb3          	sub	t6,s0,t6
    6dd4:	0ecfb423          	sd	a2,232(t6) # 10e8 <.LBB52_4+0x2b8>
    6dd8:	00065463          	bgez	a2,6de0 <.LBB52_494>
    6ddc:	c0000737          	lui	a4,0xc0000

0000000000006de0 <.LBB52_494>:
    6de0:	00001637          	lui	a2,0x1
    6de4:	40c40633          	sub	a2,s0,a2
    6de8:	0ce63c23          	sd	a4,216(a2) # 10d8 <.LBB52_4+0x2a8>
    6dec:	f1043703          	ld	a4,-240(s0)
    6df0:	f0043603          	ld	a2,-256(s0)
    6df4:	00c70733          	add	a4,a4,a2
    6df8:	01370733          	add	a4,a4,s3
    6dfc:	40180fbb          	subw	t6,a6,ra
    6e00:	41f7063b          	subw	a2,a4,t6
    6e04:	40000737          	lui	a4,0x40000
    6e08:	00001fb7          	lui	t6,0x1
    6e0c:	41f40fb3          	sub	t6,s0,t6
    6e10:	06cfb823          	sd	a2,112(t6) # 1070 <.LBB52_4+0x240>
    6e14:	00065463          	bgez	a2,6e1c <.LBB52_496>
    6e18:	c0000737          	lui	a4,0xc0000

0000000000006e1c <.LBB52_496>:
    6e1c:	00001637          	lui	a2,0x1
    6e20:	40c40633          	sub	a2,s0,a2
    6e24:	06e63023          	sd	a4,96(a2) # 1060 <.LBB52_4+0x230>
    6e28:	f1843703          	ld	a4,-232(s0)
    6e2c:	f3843603          	ld	a2,-200(s0)
    6e30:	00c70733          	add	a4,a4,a2
    6e34:	01270733          	add	a4,a4,s2
    6e38:	40180fbb          	subw	t6,a6,ra
    6e3c:	41f7063b          	subw	a2,a4,t6
    6e40:	40000737          	lui	a4,0x40000
    6e44:	00001fb7          	lui	t6,0x1
    6e48:	41f40fb3          	sub	t6,s0,t6
    6e4c:	fecfbc23          	sd	a2,-8(t6) # ff8 <.LBB52_4+0x1c8>
    6e50:	00065463          	bgez	a2,6e58 <.LBB52_498>
    6e54:	c0000737          	lui	a4,0xc0000

0000000000006e58 <.LBB52_498>:
    6e58:	00001637          	lui	a2,0x1
    6e5c:	40c40633          	sub	a2,s0,a2
    6e60:	fee63423          	sd	a4,-24(a2) # fe8 <.LBB52_4+0x1b8>
    6e64:	f2043703          	ld	a4,-224(s0)
    6e68:	f4043603          	ld	a2,-192(s0)
    6e6c:	00c70733          	add	a4,a4,a2
    6e70:	00001637          	lui	a2,0x1
    6e74:	40c40633          	sub	a2,s0,a2
    6e78:	74063603          	ld	a2,1856(a2) # 1740 <.LBB52_5+0x368>
    6e7c:	00c70733          	add	a4,a4,a2
    6e80:	40180fbb          	subw	t6,a6,ra
    6e84:	41f7063b          	subw	a2,a4,t6
    6e88:	40000737          	lui	a4,0x40000
    6e8c:	00001fb7          	lui	t6,0x1
    6e90:	41f40fb3          	sub	t6,s0,t6
    6e94:	74cfb023          	sd	a2,1856(t6) # 1740 <.LBB52_5+0x368>
    6e98:	00065463          	bgez	a2,6ea0 <.LBB52_500>
    6e9c:	c0000737          	lui	a4,0xc0000

0000000000006ea0 <.LBB52_500>:
    6ea0:	00001637          	lui	a2,0x1
    6ea4:	40c40633          	sub	a2,s0,a2
    6ea8:	f6e63823          	sd	a4,-144(a2) # f70 <.LBB52_4+0x140>
    6eac:	f2843703          	ld	a4,-216(s0)
    6eb0:	f4843603          	ld	a2,-184(s0)
    6eb4:	00c70733          	add	a4,a4,a2
    6eb8:	00001637          	lui	a2,0x1
    6ebc:	40c40633          	sub	a2,s0,a2
    6ec0:	74863603          	ld	a2,1864(a2) # 1748 <.LBB52_5+0x370>
    6ec4:	00c70733          	add	a4,a4,a2
    6ec8:	40180fbb          	subw	t6,a6,ra
    6ecc:	41f7063b          	subw	a2,a4,t6
    6ed0:	40000737          	lui	a4,0x40000
    6ed4:	00001fb7          	lui	t6,0x1
    6ed8:	41f40fb3          	sub	t6,s0,t6
    6edc:	74cfb423          	sd	a2,1864(t6) # 1748 <.LBB52_5+0x370>
    6ee0:	00065463          	bgez	a2,6ee8 <.LBB52_502>
    6ee4:	c0000737          	lui	a4,0xc0000

0000000000006ee8 <.LBB52_502>:
    6ee8:	00001637          	lui	a2,0x1
    6eec:	40c40633          	sub	a2,s0,a2
    6ef0:	f0e63023          	sd	a4,-256(a2) # f00 <.LBB52_4+0xd0>
    6ef4:	f3043703          	ld	a4,-208(s0)
    6ef8:	f5043603          	ld	a2,-176(s0)
    6efc:	00c70733          	add	a4,a4,a2
    6f00:	00001637          	lui	a2,0x1
    6f04:	40c40633          	sub	a2,s0,a2
    6f08:	75063603          	ld	a2,1872(a2) # 1750 <.LBB52_5+0x378>
    6f0c:	00c70733          	add	a4,a4,a2
    6f10:	40180fbb          	subw	t6,a6,ra
    6f14:	41f7063b          	subw	a2,a4,t6
    6f18:	40000737          	lui	a4,0x40000
    6f1c:	00001fb7          	lui	t6,0x1
    6f20:	41f40fb3          	sub	t6,s0,t6
    6f24:	74cfb823          	sd	a2,1872(t6) # 1750 <.LBB52_5+0x378>
    6f28:	00065463          	bgez	a2,6f30 <.LBB52_504>
    6f2c:	c0000737          	lui	a4,0xc0000

0000000000006f30 <.LBB52_504>:
    6f30:	00001637          	lui	a2,0x1
    6f34:	40c40633          	sub	a2,s0,a2
    6f38:	e8e63423          	sd	a4,-376(a2) # e88 <.LBB52_4+0x58>
    6f3c:	e2843703          	ld	a4,-472(s0)
    6f40:	f5843603          	ld	a2,-168(s0)
    6f44:	00c70733          	add	a4,a4,a2
    6f48:	00001637          	lui	a2,0x1
    6f4c:	40c40633          	sub	a2,s0,a2
    6f50:	75863603          	ld	a2,1880(a2) # 1758 <.LBB52_5+0x380>
    6f54:	00c70733          	add	a4,a4,a2
    6f58:	40180fbb          	subw	t6,a6,ra
    6f5c:	41f7063b          	subw	a2,a4,t6
    6f60:	40000737          	lui	a4,0x40000
    6f64:	00001fb7          	lui	t6,0x1
    6f68:	41f40fb3          	sub	t6,s0,t6
    6f6c:	74cfbc23          	sd	a2,1880(t6) # 1758 <.LBB52_5+0x380>
    6f70:	00065463          	bgez	a2,6f78 <.LBB52_506>
    6f74:	c0000737          	lui	a4,0xc0000

0000000000006f78 <.LBB52_506>:
    6f78:	00001637          	lui	a2,0x1
    6f7c:	40c40633          	sub	a2,s0,a2
    6f80:	e0e63c23          	sd	a4,-488(a2) # e18 <.LBB52_3+0xc34>
    6f84:	e3043703          	ld	a4,-464(s0)
    6f88:	f6043603          	ld	a2,-160(s0)
    6f8c:	00c70733          	add	a4,a4,a2
    6f90:	00001637          	lui	a2,0x1
    6f94:	40c40633          	sub	a2,s0,a2
    6f98:	76063603          	ld	a2,1888(a2) # 1760 <.LBB52_5+0x388>
    6f9c:	00c70733          	add	a4,a4,a2
    6fa0:	40180fbb          	subw	t6,a6,ra
    6fa4:	41f7063b          	subw	a2,a4,t6
    6fa8:	40000737          	lui	a4,0x40000
    6fac:	00001fb7          	lui	t6,0x1
    6fb0:	41f40fb3          	sub	t6,s0,t6
    6fb4:	76cfb023          	sd	a2,1888(t6) # 1760 <.LBB52_5+0x388>
    6fb8:	00065463          	bgez	a2,6fc0 <.LBB52_508>
    6fbc:	c0000737          	lui	a4,0xc0000

0000000000006fc0 <.LBB52_508>:
    6fc0:	00001637          	lui	a2,0x1
    6fc4:	40c40633          	sub	a2,s0,a2
    6fc8:	dae63023          	sd	a4,-608(a2) # da0 <.LBB52_3+0xbbc>
    6fcc:	e3843703          	ld	a4,-456(s0)
    6fd0:	f6843603          	ld	a2,-152(s0)
    6fd4:	00c70733          	add	a4,a4,a2
    6fd8:	00670733          	add	a4,a4,t1
    6fdc:	40180fbb          	subw	t6,a6,ra
    6fe0:	41f7063b          	subw	a2,a4,t6
    6fe4:	40000737          	lui	a4,0x40000
    6fe8:	00001337          	lui	t1,0x1
    6fec:	40640333          	sub	t1,s0,t1
    6ff0:	d2c33c23          	sd	a2,-712(t1) # d38 <.LBB52_3+0xb54>
    6ff4:	00065463          	bgez	a2,6ffc <.LBB52_510>
    6ff8:	c0000737          	lui	a4,0xc0000

0000000000006ffc <.LBB52_510>:
    6ffc:	00001637          	lui	a2,0x1
    7000:	40c40633          	sub	a2,s0,a2
    7004:	d2e63423          	sd	a4,-728(a2) # d28 <.LBB52_3+0xb44>
    7008:	e4043703          	ld	a4,-448(s0)
    700c:	f7043603          	ld	a2,-144(s0)
    7010:	00c70733          	add	a4,a4,a2
    7014:	00970733          	add	a4,a4,s1
    7018:	40180fbb          	subw	t6,a6,ra
    701c:	41f70d3b          	subw	s10,a4,t6
    7020:	40000637          	lui	a2,0x40000
    7024:	000d5463          	bgez	s10,702c <.LBB52_512>
    7028:	c0000637          	lui	a2,0xc0000

000000000000702c <.LBB52_512>:
    702c:	00001737          	lui	a4,0x1
    7030:	40e40733          	sub	a4,s0,a4
    7034:	ccc73023          	sd	a2,-832(a4) # cc0 <.LBB52_3+0xadc>
    7038:	f7843703          	ld	a4,-136(s0)
    703c:	00e78733          	add	a4,a5,a4
    7040:	01c70733          	add	a4,a4,t3
    7044:	40180fbb          	subw	t6,a6,ra
    7048:	41f7073b          	subw	a4,a4,t6
    704c:	40000637          	lui	a2,0x40000
    7050:	00075463          	bgez	a4,7058 <.LBB52_514>
    7054:	c0000637          	lui	a2,0xc0000

0000000000007058 <.LBB52_514>:
    7058:	000017b7          	lui	a5,0x1
    705c:	40f407b3          	sub	a5,s0,a5
    7060:	c6c7bc23          	sd	a2,-904(a5) # c78 <.LBB52_3+0xa94>
    7064:	e5043f83          	ld	t6,-432(s0)
    7068:	f8043603          	ld	a2,-128(s0)
    706c:	00cf8fb3          	add	t6,t6,a2
    7070:	00001637          	lui	a2,0x1
    7074:	40c40633          	sub	a2,s0,a2
    7078:	78063603          	ld	a2,1920(a2) # 1780 <.LBB52_5+0x3a8>
    707c:	00cf8fb3          	add	t6,t6,a2
    7080:	fff8e7b7          	lui	a5,0xfff8e
    7084:	fff8eab7          	lui	s5,0xfff8e
    7088:	415800bb          	subw	ra,a6,s5
    708c:	401f8fbb          	subw	t6,t6,ra
    7090:	40000637          	lui	a2,0x40000
    7094:	000fd463          	bgez	t6,709c <.LBB52_516>
    7098:	c0000637          	lui	a2,0xc0000

000000000000709c <.LBB52_516>:
    709c:	00001337          	lui	t1,0x1
    70a0:	40640333          	sub	t1,s0,t1
    70a4:	78c33023          	sd	a2,1920(t1) # 1780 <.LBB52_5+0x3a8>
    70a8:	e5843083          	ld	ra,-424(s0)
    70ac:	f8843603          	ld	a2,-120(s0)
    70b0:	00c080b3          	add	ra,ra,a2
    70b4:	01e080b3          	add	ra,ra,t5
    70b8:	40f8083b          	subw	a6,a6,a5
    70bc:	410080bb          	subw	ra,ra,a6
    70c0:	00001637          	lui	a2,0x1
    70c4:	40c40633          	sub	a2,s0,a2
    70c8:	66063783          	ld	a5,1632(a2) # 1660 <.LBB52_5+0x288>
    70cc:	0000da63          	bgez	ra,70e0 <.LBB52_518>
    70d0:	c0000837          	lui	a6,0xc0000
    70d4:	00001637          	lui	a2,0x1
    70d8:	40c40633          	sub	a2,s0,a2
    70dc:	69063023          	sd	a6,1664(a2) # 1680 <.LBB52_5+0x2a8>

00000000000070e0 <.LBB52_518>:
    70e0:	00001637          	lui	a2,0x1
    70e4:	40c40633          	sub	a2,s0,a2
    70e8:	be063603          	ld	a2,-1056(a2) # be0 <.LBB52_3+0x9fc>
    70ec:	02f60833          	mul	a6,a2,a5
    70f0:	e6043a83          	ld	s5,-416(s0)
    70f4:	00001637          	lui	a2,0x1
    70f8:	40c40633          	sub	a2,s0,a2
    70fc:	bd863603          	ld	a2,-1064(a2) # bd8 <.LBB52_3+0x9f4>
    7100:	01560ab3          	add	s5,a2,s5
    7104:	01580833          	add	a6,a6,s5
    7108:	42885793          	srai	a5,a6,0x28
    710c:	f8200813          	li	a6,-126
    7110:	f8f43423          	sd	a5,-120(s0)
    7114:	00f84663          	blt	a6,a5,7120 <.LBB52_520>
    7118:	f8200793          	li	a5,-126
    711c:	f8f43423          	sd	a5,-120(s0)

0000000000007120 <.LBB52_520>:
    7120:	00001637          	lui	a2,0x1
    7124:	40c40633          	sub	a2,s0,a2
    7128:	66063783          	ld	a5,1632(a2) # 1660 <.LBB52_5+0x288>
    712c:	00001637          	lui	a2,0x1
    7130:	40c40633          	sub	a2,s0,a2
    7134:	c7063603          	ld	a2,-912(a2) # c70 <.LBB52_3+0xa8c>
    7138:	02f60ab3          	mul	s5,a2,a5
    713c:	e6043783          	ld	a5,-416(s0)
    7140:	00fe87b3          	add	a5,t4,a5
    7144:	00fa87b3          	add	a5,s5,a5
    7148:	4287d793          	srai	a5,a5,0x28
    714c:	f8f43023          	sd	a5,-128(s0)
    7150:	00f84663          	blt	a6,a5,715c <.LBB52_522>
    7154:	f8200793          	li	a5,-126
    7158:	f8f43023          	sd	a5,-128(s0)

000000000000715c <.LBB52_522>:
    715c:	00001637          	lui	a2,0x1
    7160:	40c40633          	sub	a2,s0,a2
    7164:	66063783          	ld	a5,1632(a2) # 1660 <.LBB52_5+0x288>
    7168:	00001637          	lui	a2,0x1
    716c:	40c40633          	sub	a2,s0,a2
    7170:	cb863603          	ld	a2,-840(a2) # cb8 <.LBB52_3+0xad4>
    7174:	02f607b3          	mul	a5,a2,a5
    7178:	e6043a83          	ld	s5,-416(s0)
    717c:	00001637          	lui	a2,0x1
    7180:	40c40633          	sub	a2,s0,a2
    7184:	cb063603          	ld	a2,-848(a2) # cb0 <.LBB52_3+0xacc>
    7188:	01560ab3          	add	s5,a2,s5
    718c:	015787b3          	add	a5,a5,s5
    7190:	4287d793          	srai	a5,a5,0x28
    7194:	f6f43c23          	sd	a5,-136(s0)
    7198:	00f84663          	blt	a6,a5,71a4 <.LBB52_524>
    719c:	f8200793          	li	a5,-126
    71a0:	f6f43c23          	sd	a5,-136(s0)

00000000000071a4 <.LBB52_524>:
    71a4:	00001637          	lui	a2,0x1
    71a8:	40c40633          	sub	a2,s0,a2
    71ac:	66063783          	ld	a5,1632(a2) # 1660 <.LBB52_5+0x288>
    71b0:	00001637          	lui	a2,0x1
    71b4:	40c40633          	sub	a2,s0,a2
    71b8:	d2063603          	ld	a2,-736(a2) # d20 <.LBB52_3+0xb3c>
    71bc:	02f607b3          	mul	a5,a2,a5
    71c0:	e6043a83          	ld	s5,-416(s0)
    71c4:	00001637          	lui	a2,0x1
    71c8:	40c40633          	sub	a2,s0,a2
    71cc:	d1863603          	ld	a2,-744(a2) # d18 <.LBB52_3+0xb34>
    71d0:	01560ab3          	add	s5,a2,s5
    71d4:	015787b3          	add	a5,a5,s5
    71d8:	4287d793          	srai	a5,a5,0x28
    71dc:	f6f43823          	sd	a5,-144(s0)
    71e0:	00f84663          	blt	a6,a5,71ec <.LBB52_526>
    71e4:	f8200793          	li	a5,-126
    71e8:	f6f43823          	sd	a5,-144(s0)

00000000000071ec <.LBB52_526>:
    71ec:	00001637          	lui	a2,0x1
    71f0:	40c40633          	sub	a2,s0,a2
    71f4:	66063783          	ld	a5,1632(a2) # 1660 <.LBB52_5+0x288>
    71f8:	00001637          	lui	a2,0x1
    71fc:	40c40633          	sub	a2,s0,a2
    7200:	d9863603          	ld	a2,-616(a2) # d98 <.LBB52_3+0xbb4>
    7204:	02f607b3          	mul	a5,a2,a5
    7208:	e6043a83          	ld	s5,-416(s0)
    720c:	00001637          	lui	a2,0x1
    7210:	40c40633          	sub	a2,s0,a2
    7214:	d9063603          	ld	a2,-624(a2) # d90 <.LBB52_3+0xbac>
    7218:	01560ab3          	add	s5,a2,s5
    721c:	015787b3          	add	a5,a5,s5
    7220:	4287d793          	srai	a5,a5,0x28
    7224:	f6f43423          	sd	a5,-152(s0)
    7228:	00f84663          	blt	a6,a5,7234 <.LBB52_528>
    722c:	f8200793          	li	a5,-126
    7230:	f6f43423          	sd	a5,-152(s0)

0000000000007234 <.LBB52_528>:
    7234:	00001637          	lui	a2,0x1
    7238:	40c40633          	sub	a2,s0,a2
    723c:	66063783          	ld	a5,1632(a2) # 1660 <.LBB52_5+0x288>
    7240:	00001637          	lui	a2,0x1
    7244:	40c40633          	sub	a2,s0,a2
    7248:	e1063603          	ld	a2,-496(a2) # e10 <.LBB52_3+0xc2c>
    724c:	02f607b3          	mul	a5,a2,a5
    7250:	e6043a83          	ld	s5,-416(s0)
    7254:	00001637          	lui	a2,0x1
    7258:	40c40633          	sub	a2,s0,a2
    725c:	e0863603          	ld	a2,-504(a2) # e08 <.LBB52_3+0xc24>
    7260:	01560ab3          	add	s5,a2,s5
    7264:	015787b3          	add	a5,a5,s5
    7268:	4287d793          	srai	a5,a5,0x28
    726c:	f6f43023          	sd	a5,-160(s0)
    7270:	00f84663          	blt	a6,a5,727c <.LBB52_530>
    7274:	f8200793          	li	a5,-126
    7278:	f6f43023          	sd	a5,-160(s0)

000000000000727c <.LBB52_530>:
    727c:	00001637          	lui	a2,0x1
    7280:	40c40633          	sub	a2,s0,a2
    7284:	66063783          	ld	a5,1632(a2) # 1660 <.LBB52_5+0x288>
    7288:	00001637          	lui	a2,0x1
    728c:	40c40633          	sub	a2,s0,a2
    7290:	e8063603          	ld	a2,-384(a2) # e80 <.LBB52_4+0x50>
    7294:	02f607b3          	mul	a5,a2,a5
    7298:	e6043a83          	ld	s5,-416(s0)
    729c:	00001637          	lui	a2,0x1
    72a0:	40c40633          	sub	a2,s0,a2
    72a4:	e7863603          	ld	a2,-392(a2) # e78 <.LBB52_4+0x48>
    72a8:	01560ab3          	add	s5,a2,s5
    72ac:	015787b3          	add	a5,a5,s5
    72b0:	4287d793          	srai	a5,a5,0x28
    72b4:	f4f43c23          	sd	a5,-168(s0)
    72b8:	00f84663          	blt	a6,a5,72c4 <.LBB52_532>
    72bc:	f8200793          	li	a5,-126
    72c0:	f4f43c23          	sd	a5,-168(s0)

00000000000072c4 <.LBB52_532>:
    72c4:	00001637          	lui	a2,0x1
    72c8:	40c40633          	sub	a2,s0,a2
    72cc:	66063783          	ld	a5,1632(a2) # 1660 <.LBB52_5+0x288>
    72d0:	00001637          	lui	a2,0x1
    72d4:	40c40633          	sub	a2,s0,a2
    72d8:	ef863603          	ld	a2,-264(a2) # ef8 <.LBB52_4+0xc8>
    72dc:	02f607b3          	mul	a5,a2,a5
    72e0:	e6043a83          	ld	s5,-416(s0)
    72e4:	00001637          	lui	a2,0x1
    72e8:	40c40633          	sub	a2,s0,a2
    72ec:	ef063603          	ld	a2,-272(a2) # ef0 <.LBB52_4+0xc0>
    72f0:	01560ab3          	add	s5,a2,s5
    72f4:	015787b3          	add	a5,a5,s5
    72f8:	4287d793          	srai	a5,a5,0x28
    72fc:	f4f43823          	sd	a5,-176(s0)
    7300:	00f84663          	blt	a6,a5,730c <.LBB52_534>
    7304:	f8200793          	li	a5,-126
    7308:	f4f43823          	sd	a5,-176(s0)

000000000000730c <.LBB52_534>:
    730c:	00001637          	lui	a2,0x1
    7310:	40c40633          	sub	a2,s0,a2
    7314:	66063783          	ld	a5,1632(a2) # 1660 <.LBB52_5+0x288>
    7318:	00001637          	lui	a2,0x1
    731c:	40c40633          	sub	a2,s0,a2
    7320:	f6863603          	ld	a2,-152(a2) # f68 <.LBB52_4+0x138>
    7324:	02f607b3          	mul	a5,a2,a5
    7328:	e6043a83          	ld	s5,-416(s0)
    732c:	00001637          	lui	a2,0x1
    7330:	40c40633          	sub	a2,s0,a2
    7334:	f6063603          	ld	a2,-160(a2) # f60 <.LBB52_4+0x130>
    7338:	01560ab3          	add	s5,a2,s5
    733c:	015787b3          	add	a5,a5,s5
    7340:	4287d793          	srai	a5,a5,0x28
    7344:	f4f43423          	sd	a5,-184(s0)
    7348:	00f84663          	blt	a6,a5,7354 <.LBB52_536>
    734c:	f8200793          	li	a5,-126
    7350:	f4f43423          	sd	a5,-184(s0)

0000000000007354 <.LBB52_536>:
    7354:	00001637          	lui	a2,0x1
    7358:	40c40633          	sub	a2,s0,a2
    735c:	66063783          	ld	a5,1632(a2) # 1660 <.LBB52_5+0x288>
    7360:	00001637          	lui	a2,0x1
    7364:	40c40633          	sub	a2,s0,a2
    7368:	fe063603          	ld	a2,-32(a2) # fe0 <.LBB52_4+0x1b0>
    736c:	02f607b3          	mul	a5,a2,a5
    7370:	e6043a83          	ld	s5,-416(s0)
    7374:	00001637          	lui	a2,0x1
    7378:	40c40633          	sub	a2,s0,a2
    737c:	fd863603          	ld	a2,-40(a2) # fd8 <.LBB52_4+0x1a8>
    7380:	01560ab3          	add	s5,a2,s5
    7384:	015787b3          	add	a5,a5,s5
    7388:	4287d793          	srai	a5,a5,0x28
    738c:	f4f43023          	sd	a5,-192(s0)
    7390:	00f84663          	blt	a6,a5,739c <.LBB52_538>
    7394:	f8200793          	li	a5,-126
    7398:	f4f43023          	sd	a5,-192(s0)

000000000000739c <.LBB52_538>:
    739c:	00001637          	lui	a2,0x1
    73a0:	40c40633          	sub	a2,s0,a2
    73a4:	66063783          	ld	a5,1632(a2) # 1660 <.LBB52_5+0x288>
    73a8:	00001637          	lui	a2,0x1
    73ac:	40c40633          	sub	a2,s0,a2
    73b0:	05863603          	ld	a2,88(a2) # 1058 <.LBB52_4+0x228>
    73b4:	02f607b3          	mul	a5,a2,a5
    73b8:	e6043a83          	ld	s5,-416(s0)
    73bc:	00001637          	lui	a2,0x1
    73c0:	40c40633          	sub	a2,s0,a2
    73c4:	05063603          	ld	a2,80(a2) # 1050 <.LBB52_4+0x220>
    73c8:	01560ab3          	add	s5,a2,s5
    73cc:	015787b3          	add	a5,a5,s5
    73d0:	4287d793          	srai	a5,a5,0x28
    73d4:	f2f43c23          	sd	a5,-200(s0)
    73d8:	00f84663          	blt	a6,a5,73e4 <.LBB52_540>
    73dc:	f8200793          	li	a5,-126
    73e0:	f2f43c23          	sd	a5,-200(s0)

00000000000073e4 <.LBB52_540>:
    73e4:	00001637          	lui	a2,0x1
    73e8:	40c40633          	sub	a2,s0,a2
    73ec:	66063783          	ld	a5,1632(a2) # 1660 <.LBB52_5+0x288>
    73f0:	00001637          	lui	a2,0x1
    73f4:	40c40633          	sub	a2,s0,a2
    73f8:	0d063603          	ld	a2,208(a2) # 10d0 <.LBB52_4+0x2a0>
    73fc:	02f607b3          	mul	a5,a2,a5
    7400:	e6043a83          	ld	s5,-416(s0)
    7404:	00001637          	lui	a2,0x1
    7408:	40c40633          	sub	a2,s0,a2
    740c:	0c863603          	ld	a2,200(a2) # 10c8 <.LBB52_4+0x298>
    7410:	01560ab3          	add	s5,a2,s5
    7414:	015787b3          	add	a5,a5,s5
    7418:	4287d793          	srai	a5,a5,0x28
    741c:	f2f43823          	sd	a5,-208(s0)
    7420:	00f84663          	blt	a6,a5,742c <.LBB52_542>
    7424:	f8200793          	li	a5,-126
    7428:	f2f43823          	sd	a5,-208(s0)

000000000000742c <.LBB52_542>:
    742c:	00001637          	lui	a2,0x1
    7430:	40c40633          	sub	a2,s0,a2
    7434:	66063783          	ld	a5,1632(a2) # 1660 <.LBB52_5+0x288>
    7438:	00001637          	lui	a2,0x1
    743c:	40c40633          	sub	a2,s0,a2
    7440:	15063603          	ld	a2,336(a2) # 1150 <.LBB52_4+0x320>
    7444:	02f607b3          	mul	a5,a2,a5
    7448:	e6043a83          	ld	s5,-416(s0)
    744c:	00001637          	lui	a2,0x1
    7450:	40c40633          	sub	a2,s0,a2
    7454:	14063603          	ld	a2,320(a2) # 1140 <.LBB52_4+0x310>
    7458:	01560ab3          	add	s5,a2,s5
    745c:	015787b3          	add	a5,a5,s5
    7460:	4287d793          	srai	a5,a5,0x28
    7464:	f2f43423          	sd	a5,-216(s0)
    7468:	00f84663          	blt	a6,a5,7474 <.LBB52_544>
    746c:	f8200793          	li	a5,-126
    7470:	f2f43423          	sd	a5,-216(s0)

0000000000007474 <.LBB52_544>:
    7474:	00001637          	lui	a2,0x1
    7478:	40c40633          	sub	a2,s0,a2
    747c:	66063783          	ld	a5,1632(a2) # 1660 <.LBB52_5+0x288>
    7480:	00001637          	lui	a2,0x1
    7484:	40c40633          	sub	a2,s0,a2
    7488:	1d863603          	ld	a2,472(a2) # 11d8 <.LBB52_4+0x3a8>
    748c:	02f607b3          	mul	a5,a2,a5
    7490:	e6043a83          	ld	s5,-416(s0)
    7494:	00001637          	lui	a2,0x1
    7498:	40c40633          	sub	a2,s0,a2
    749c:	1c063603          	ld	a2,448(a2) # 11c0 <.LBB52_4+0x390>
    74a0:	01560ab3          	add	s5,a2,s5
    74a4:	015787b3          	add	a5,a5,s5
    74a8:	4287d793          	srai	a5,a5,0x28
    74ac:	f2f43023          	sd	a5,-224(s0)
    74b0:	00f84663          	blt	a6,a5,74bc <.LBB52_546>
    74b4:	f8200793          	li	a5,-126
    74b8:	f2f43023          	sd	a5,-224(s0)

00000000000074bc <.LBB52_546>:
    74bc:	00001637          	lui	a2,0x1
    74c0:	40c40633          	sub	a2,s0,a2
    74c4:	66063783          	ld	a5,1632(a2) # 1660 <.LBB52_5+0x288>
    74c8:	00001637          	lui	a2,0x1
    74cc:	40c40633          	sub	a2,s0,a2
    74d0:	26063603          	ld	a2,608(a2) # 1260 <.LBB52_4+0x430>
    74d4:	02f607b3          	mul	a5,a2,a5
    74d8:	e6043a83          	ld	s5,-416(s0)
    74dc:	00001637          	lui	a2,0x1
    74e0:	40c40633          	sub	a2,s0,a2
    74e4:	24063603          	ld	a2,576(a2) # 1240 <.LBB52_4+0x410>
    74e8:	01560ab3          	add	s5,a2,s5
    74ec:	015787b3          	add	a5,a5,s5
    74f0:	4287d793          	srai	a5,a5,0x28
    74f4:	f0f43c23          	sd	a5,-232(s0)
    74f8:	00f84663          	blt	a6,a5,7504 <.LBB52_548>
    74fc:	f8200793          	li	a5,-126
    7500:	f0f43c23          	sd	a5,-232(s0)

0000000000007504 <.LBB52_548>:
    7504:	00001637          	lui	a2,0x1
    7508:	40c40633          	sub	a2,s0,a2
    750c:	66063783          	ld	a5,1632(a2) # 1660 <.LBB52_5+0x288>
    7510:	00001637          	lui	a2,0x1
    7514:	40c40633          	sub	a2,s0,a2
    7518:	2e063603          	ld	a2,736(a2) # 12e0 <.LBB52_4+0x4b0>
    751c:	02f607b3          	mul	a5,a2,a5
    7520:	e6043a83          	ld	s5,-416(s0)
    7524:	00001637          	lui	a2,0x1
    7528:	40c40633          	sub	a2,s0,a2
    752c:	2c863603          	ld	a2,712(a2) # 12c8 <.LBB52_4+0x498>
    7530:	01560ab3          	add	s5,a2,s5
    7534:	015787b3          	add	a5,a5,s5
    7538:	4287d793          	srai	a5,a5,0x28
    753c:	f0f43823          	sd	a5,-240(s0)
    7540:	00f84663          	blt	a6,a5,754c <.LBB52_550>
    7544:	f8200793          	li	a5,-126
    7548:	f0f43823          	sd	a5,-240(s0)

000000000000754c <.LBB52_550>:
    754c:	00001637          	lui	a2,0x1
    7550:	40c40633          	sub	a2,s0,a2
    7554:	66063783          	ld	a5,1632(a2) # 1660 <.LBB52_5+0x288>
    7558:	00001637          	lui	a2,0x1
    755c:	40c40633          	sub	a2,s0,a2
    7560:	35063603          	ld	a2,848(a2) # 1350 <.LBB52_4+0x520>
    7564:	02f607b3          	mul	a5,a2,a5
    7568:	e6043a83          	ld	s5,-416(s0)
    756c:	00001637          	lui	a2,0x1
    7570:	40c40633          	sub	a2,s0,a2
    7574:	33863603          	ld	a2,824(a2) # 1338 <.LBB52_4+0x508>
    7578:	01560ab3          	add	s5,a2,s5
    757c:	015787b3          	add	a5,a5,s5
    7580:	4287d793          	srai	a5,a5,0x28
    7584:	f0f43423          	sd	a5,-248(s0)
    7588:	00f84663          	blt	a6,a5,7594 <.LBB52_552>
    758c:	f8200793          	li	a5,-126
    7590:	f0f43423          	sd	a5,-248(s0)

0000000000007594 <.LBB52_552>:
    7594:	00001637          	lui	a2,0x1
    7598:	40c40633          	sub	a2,s0,a2
    759c:	66063783          	ld	a5,1632(a2) # 1660 <.LBB52_5+0x288>
    75a0:	00001637          	lui	a2,0x1
    75a4:	40c40633          	sub	a2,s0,a2
    75a8:	3c063603          	ld	a2,960(a2) # 13c0 <.LBB52_4+0x590>
    75ac:	02f607b3          	mul	a5,a2,a5
    75b0:	e6043a83          	ld	s5,-416(s0)
    75b4:	00001637          	lui	a2,0x1
    75b8:	40c40633          	sub	a2,s0,a2
    75bc:	3b063603          	ld	a2,944(a2) # 13b0 <.LBB52_4+0x580>
    75c0:	01560ab3          	add	s5,a2,s5
    75c4:	015787b3          	add	a5,a5,s5
    75c8:	4287d793          	srai	a5,a5,0x28
    75cc:	f0f43023          	sd	a5,-256(s0)
    75d0:	00f84663          	blt	a6,a5,75dc <.LBB52_554>
    75d4:	f8200793          	li	a5,-126
    75d8:	f0f43023          	sd	a5,-256(s0)

00000000000075dc <.LBB52_554>:
    75dc:	00001637          	lui	a2,0x1
    75e0:	40c40633          	sub	a2,s0,a2
    75e4:	66063783          	ld	a5,1632(a2) # 1660 <.LBB52_5+0x288>
    75e8:	00001637          	lui	a2,0x1
    75ec:	40c40633          	sub	a2,s0,a2
    75f0:	42863603          	ld	a2,1064(a2) # 1428 <.LBB52_5+0x50>
    75f4:	02f607b3          	mul	a5,a2,a5
    75f8:	e6043a83          	ld	s5,-416(s0)
    75fc:	00001637          	lui	a2,0x1
    7600:	40c40633          	sub	a2,s0,a2
    7604:	41063603          	ld	a2,1040(a2) # 1410 <.LBB52_5+0x38>
    7608:	01560ab3          	add	s5,a2,s5
    760c:	015787b3          	add	a5,a5,s5
    7610:	4287d793          	srai	a5,a5,0x28
    7614:	eef43c23          	sd	a5,-264(s0)
    7618:	00f84663          	blt	a6,a5,7624 <.LBB52_556>
    761c:	f8200793          	li	a5,-126
    7620:	eef43c23          	sd	a5,-264(s0)

0000000000007624 <.LBB52_556>:
    7624:	00001637          	lui	a2,0x1
    7628:	40c40633          	sub	a2,s0,a2
    762c:	66063783          	ld	a5,1632(a2) # 1660 <.LBB52_5+0x288>
    7630:	00001637          	lui	a2,0x1
    7634:	40c40633          	sub	a2,s0,a2
    7638:	48863603          	ld	a2,1160(a2) # 1488 <.LBB52_5+0xb0>
    763c:	02f607b3          	mul	a5,a2,a5
    7640:	e6043a83          	ld	s5,-416(s0)
    7644:	00001637          	lui	a2,0x1
    7648:	40c40633          	sub	a2,s0,a2
    764c:	47063603          	ld	a2,1136(a2) # 1470 <.LBB52_5+0x98>
    7650:	01560ab3          	add	s5,a2,s5
    7654:	015787b3          	add	a5,a5,s5
    7658:	4287d793          	srai	a5,a5,0x28
    765c:	eef43823          	sd	a5,-272(s0)
    7660:	00f84663          	blt	a6,a5,766c <.LBB52_558>
    7664:	f8200793          	li	a5,-126
    7668:	eef43823          	sd	a5,-272(s0)

000000000000766c <.LBB52_558>:
    766c:	00001637          	lui	a2,0x1
    7670:	40c40633          	sub	a2,s0,a2
    7674:	66063783          	ld	a5,1632(a2) # 1660 <.LBB52_5+0x288>
    7678:	00001637          	lui	a2,0x1
    767c:	40c40633          	sub	a2,s0,a2
    7680:	4e063603          	ld	a2,1248(a2) # 14e0 <.LBB52_5+0x108>
    7684:	02f607b3          	mul	a5,a2,a5
    7688:	e6043a83          	ld	s5,-416(s0)
    768c:	00001637          	lui	a2,0x1
    7690:	40c40633          	sub	a2,s0,a2
    7694:	4d063603          	ld	a2,1232(a2) # 14d0 <.LBB52_5+0xf8>
    7698:	01560ab3          	add	s5,a2,s5
    769c:	015787b3          	add	a5,a5,s5
    76a0:	4287d793          	srai	a5,a5,0x28
    76a4:	eef43423          	sd	a5,-280(s0)
    76a8:	00f84663          	blt	a6,a5,76b4 <.LBB52_560>
    76ac:	f8200793          	li	a5,-126
    76b0:	eef43423          	sd	a5,-280(s0)

00000000000076b4 <.LBB52_560>:
    76b4:	00001637          	lui	a2,0x1
    76b8:	40c40633          	sub	a2,s0,a2
    76bc:	66063783          	ld	a5,1632(a2) # 1660 <.LBB52_5+0x288>
    76c0:	00001637          	lui	a2,0x1
    76c4:	40c40633          	sub	a2,s0,a2
    76c8:	54063603          	ld	a2,1344(a2) # 1540 <.LBB52_5+0x168>
    76cc:	02f607b3          	mul	a5,a2,a5
    76d0:	e6043a83          	ld	s5,-416(s0)
    76d4:	00001637          	lui	a2,0x1
    76d8:	40c40633          	sub	a2,s0,a2
    76dc:	53863603          	ld	a2,1336(a2) # 1538 <.LBB52_5+0x160>
    76e0:	01560ab3          	add	s5,a2,s5
    76e4:	015787b3          	add	a5,a5,s5
    76e8:	4287d793          	srai	a5,a5,0x28
    76ec:	eef43023          	sd	a5,-288(s0)
    76f0:	00f84663          	blt	a6,a5,76fc <.LBB52_562>
    76f4:	f8200793          	li	a5,-126
    76f8:	eef43023          	sd	a5,-288(s0)

00000000000076fc <.LBB52_562>:
    76fc:	00001637          	lui	a2,0x1
    7700:	40c40633          	sub	a2,s0,a2
    7704:	66063783          	ld	a5,1632(a2) # 1660 <.LBB52_5+0x288>
    7708:	00001637          	lui	a2,0x1
    770c:	40c40633          	sub	a2,s0,a2
    7710:	59863603          	ld	a2,1432(a2) # 1598 <.LBB52_5+0x1c0>
    7714:	02f607b3          	mul	a5,a2,a5
    7718:	e6043a83          	ld	s5,-416(s0)
    771c:	00001637          	lui	a2,0x1
    7720:	40c40633          	sub	a2,s0,a2
    7724:	59063603          	ld	a2,1424(a2) # 1590 <.LBB52_5+0x1b8>
    7728:	01560ab3          	add	s5,a2,s5
    772c:	015787b3          	add	a5,a5,s5
    7730:	4287d793          	srai	a5,a5,0x28
    7734:	ecf43823          	sd	a5,-304(s0)
    7738:	00f84663          	blt	a6,a5,7744 <.LBB52_564>
    773c:	f8200793          	li	a5,-126
    7740:	ecf43823          	sd	a5,-304(s0)

0000000000007744 <.LBB52_564>:
    7744:	00001637          	lui	a2,0x1
    7748:	40c40633          	sub	a2,s0,a2
    774c:	66063783          	ld	a5,1632(a2) # 1660 <.LBB52_5+0x288>
    7750:	00001637          	lui	a2,0x1
    7754:	40c40633          	sub	a2,s0,a2
    7758:	5d863603          	ld	a2,1496(a2) # 15d8 <.LBB52_5+0x200>
    775c:	02f607b3          	mul	a5,a2,a5
    7760:	e6043a83          	ld	s5,-416(s0)
    7764:	00001637          	lui	a2,0x1
    7768:	40c40633          	sub	a2,s0,a2
    776c:	5d063603          	ld	a2,1488(a2) # 15d0 <.LBB52_5+0x1f8>
    7770:	01560ab3          	add	s5,a2,s5
    7774:	015787b3          	add	a5,a5,s5
    7778:	4287d793          	srai	a5,a5,0x28
    777c:	ecf43023          	sd	a5,-320(s0)
    7780:	00f84663          	blt	a6,a5,778c <.LBB52_566>
    7784:	f8200793          	li	a5,-126
    7788:	ecf43023          	sd	a5,-320(s0)

000000000000778c <.LBB52_566>:
    778c:	00001637          	lui	a2,0x1
    7790:	40c40633          	sub	a2,s0,a2
    7794:	66063783          	ld	a5,1632(a2) # 1660 <.LBB52_5+0x288>
    7798:	00001637          	lui	a2,0x1
    779c:	40c40633          	sub	a2,s0,a2
    77a0:	5e863603          	ld	a2,1512(a2) # 15e8 <.LBB52_5+0x210>
    77a4:	02f607b3          	mul	a5,a2,a5
    77a8:	e6043a83          	ld	s5,-416(s0)
    77ac:	00001637          	lui	a2,0x1
    77b0:	40c40633          	sub	a2,s0,a2
    77b4:	5e063603          	ld	a2,1504(a2) # 15e0 <.LBB52_5+0x208>
    77b8:	01560ab3          	add	s5,a2,s5
    77bc:	015787b3          	add	a5,a5,s5
    77c0:	4287d793          	srai	a5,a5,0x28
    77c4:	eaf43823          	sd	a5,-336(s0)
    77c8:	00f84663          	blt	a6,a5,77d4 <.LBB52_568>
    77cc:	f8200793          	li	a5,-126
    77d0:	eaf43823          	sd	a5,-336(s0)

00000000000077d4 <.LBB52_568>:
    77d4:	00001637          	lui	a2,0x1
    77d8:	40c40633          	sub	a2,s0,a2
    77dc:	66063783          	ld	a5,1632(a2) # 1660 <.LBB52_5+0x288>
    77e0:	00001637          	lui	a2,0x1
    77e4:	40c40633          	sub	a2,s0,a2
    77e8:	5f863603          	ld	a2,1528(a2) # 15f8 <.LBB52_5+0x220>
    77ec:	02f607b3          	mul	a5,a2,a5
    77f0:	e6043a83          	ld	s5,-416(s0)
    77f4:	00001637          	lui	a2,0x1
    77f8:	40c40633          	sub	a2,s0,a2
    77fc:	5f063603          	ld	a2,1520(a2) # 15f0 <.LBB52_5+0x218>
    7800:	01560ab3          	add	s5,a2,s5
    7804:	015787b3          	add	a5,a5,s5
    7808:	4287d793          	srai	a5,a5,0x28
    780c:	eaf43023          	sd	a5,-352(s0)
    7810:	00f84663          	blt	a6,a5,781c <.LBB52_570>
    7814:	f8200793          	li	a5,-126
    7818:	eaf43023          	sd	a5,-352(s0)

000000000000781c <.LBB52_570>:
    781c:	00001637          	lui	a2,0x1
    7820:	40c40633          	sub	a2,s0,a2
    7824:	66063783          	ld	a5,1632(a2) # 1660 <.LBB52_5+0x288>
    7828:	00001637          	lui	a2,0x1
    782c:	40c40633          	sub	a2,s0,a2
    7830:	60863e83          	ld	t4,1544(a2) # 1608 <.LBB52_5+0x230>
    7834:	02fe87b3          	mul	a5,t4,a5
    7838:	e6043a83          	ld	s5,-416(s0)
    783c:	00001637          	lui	a2,0x1
    7840:	40c40633          	sub	a2,s0,a2
    7844:	60063603          	ld	a2,1536(a2) # 1600 <.LBB52_5+0x228>
    7848:	01560ab3          	add	s5,a2,s5
    784c:	015787b3          	add	a5,a5,s5
    7850:	4287d793          	srai	a5,a5,0x28
    7854:	e8f43823          	sd	a5,-368(s0)
    7858:	00f84663          	blt	a6,a5,7864 <.LBB52_572>
    785c:	f8200793          	li	a5,-126
    7860:	e8f43823          	sd	a5,-368(s0)

0000000000007864 <.LBB52_572>:
    7864:	00001637          	lui	a2,0x1
    7868:	40c40633          	sub	a2,s0,a2
    786c:	66063783          	ld	a5,1632(a2) # 1660 <.LBB52_5+0x288>
    7870:	00001637          	lui	a2,0x1
    7874:	40c40633          	sub	a2,s0,a2
    7878:	61863e83          	ld	t4,1560(a2) # 1618 <.LBB52_5+0x240>
    787c:	02fe87b3          	mul	a5,t4,a5
    7880:	e6043a83          	ld	s5,-416(s0)
    7884:	00001637          	lui	a2,0x1
    7888:	40c40633          	sub	a2,s0,a2
    788c:	61063e83          	ld	t4,1552(a2) # 1610 <.LBB52_5+0x238>
    7890:	015e8ab3          	add	s5,t4,s5
    7894:	015787b3          	add	a5,a5,s5
    7898:	4287d793          	srai	a5,a5,0x28
    789c:	e8f43023          	sd	a5,-384(s0)
    78a0:	00f84663          	blt	a6,a5,78ac <.LBB52_574>
    78a4:	f8200793          	li	a5,-126
    78a8:	e8f43023          	sd	a5,-384(s0)

00000000000078ac <.LBB52_574>:
    78ac:	00001637          	lui	a2,0x1
    78b0:	40c40633          	sub	a2,s0,a2
    78b4:	66063783          	ld	a5,1632(a2) # 1660 <.LBB52_5+0x288>
    78b8:	00001637          	lui	a2,0x1
    78bc:	40c40633          	sub	a2,s0,a2
    78c0:	62863e83          	ld	t4,1576(a2) # 1628 <.LBB52_5+0x250>
    78c4:	02fe87b3          	mul	a5,t4,a5
    78c8:	e6043a83          	ld	s5,-416(s0)
    78cc:	00001637          	lui	a2,0x1
    78d0:	40c40633          	sub	a2,s0,a2
    78d4:	62063e83          	ld	t4,1568(a2) # 1620 <.LBB52_5+0x248>
    78d8:	015e8ab3          	add	s5,t4,s5
    78dc:	015787b3          	add	a5,a5,s5
    78e0:	4287d793          	srai	a5,a5,0x28
    78e4:	e6f43823          	sd	a5,-400(s0)
    78e8:	00f84663          	blt	a6,a5,78f4 <.LBB52_576>
    78ec:	f8200793          	li	a5,-126
    78f0:	e6f43823          	sd	a5,-400(s0)

00000000000078f4 <.LBB52_576>:
    78f4:	00001637          	lui	a2,0x1
    78f8:	40c40633          	sub	a2,s0,a2
    78fc:	66063783          	ld	a5,1632(a2) # 1660 <.LBB52_5+0x288>
    7900:	00001637          	lui	a2,0x1
    7904:	40c40633          	sub	a2,s0,a2
    7908:	63863e83          	ld	t4,1592(a2) # 1638 <.LBB52_5+0x260>
    790c:	02fe87b3          	mul	a5,t4,a5
    7910:	e6043a83          	ld	s5,-416(s0)
    7914:	00001637          	lui	a2,0x1
    7918:	40c40633          	sub	a2,s0,a2
    791c:	63063e83          	ld	t4,1584(a2) # 1630 <.LBB52_5+0x258>
    7920:	015e8ab3          	add	s5,t4,s5
    7924:	015787b3          	add	a5,a5,s5
    7928:	4287d793          	srai	a5,a5,0x28
    792c:	e4f43c23          	sd	a5,-424(s0)
    7930:	00f84663          	blt	a6,a5,793c <.LBB52_578>
    7934:	f8200793          	li	a5,-126
    7938:	e4f43c23          	sd	a5,-424(s0)

000000000000793c <.LBB52_578>:
    793c:	00001637          	lui	a2,0x1
    7940:	40c40633          	sub	a2,s0,a2
    7944:	66063783          	ld	a5,1632(a2) # 1660 <.LBB52_5+0x288>
    7948:	00001637          	lui	a2,0x1
    794c:	40c40633          	sub	a2,s0,a2
    7950:	66863e83          	ld	t4,1640(a2) # 1668 <.LBB52_5+0x290>
    7954:	02fe87b3          	mul	a5,t4,a5
    7958:	e6043a83          	ld	s5,-416(s0)
    795c:	00001637          	lui	a2,0x1
    7960:	40c40633          	sub	a2,s0,a2
    7964:	64063e83          	ld	t4,1600(a2) # 1640 <.LBB52_5+0x268>
    7968:	015e8ab3          	add	s5,t4,s5
    796c:	015787b3          	add	a5,a5,s5
    7970:	4287d793          	srai	a5,a5,0x28
    7974:	e4f43423          	sd	a5,-440(s0)
    7978:	00f84663          	blt	a6,a5,7984 <.LBB52_580>
    797c:	f8200793          	li	a5,-126
    7980:	e4f43423          	sd	a5,-440(s0)

0000000000007984 <.LBB52_580>:
    7984:	00001637          	lui	a2,0x1
    7988:	40c40633          	sub	a2,s0,a2
    798c:	66063783          	ld	a5,1632(a2) # 1660 <.LBB52_5+0x288>
    7990:	00001637          	lui	a2,0x1
    7994:	40c40633          	sub	a2,s0,a2
    7998:	67863e83          	ld	t4,1656(a2) # 1678 <.LBB52_5+0x2a0>
    799c:	02fe87b3          	mul	a5,t4,a5
    79a0:	e6043a83          	ld	s5,-416(s0)
    79a4:	00001637          	lui	a2,0x1
    79a8:	40c40633          	sub	a2,s0,a2
    79ac:	67063e83          	ld	t4,1648(a2) # 1670 <.LBB52_5+0x298>
    79b0:	015e8ab3          	add	s5,t4,s5
    79b4:	015787b3          	add	a5,a5,s5
    79b8:	4287d793          	srai	a5,a5,0x28
    79bc:	00078e93          	mv	t4,a5
    79c0:	00f84463          	blt	a6,a5,79c8 <.LBB52_582>
    79c4:	f8200e93          	li	t4,-126

00000000000079c8 <.LBB52_582>:
    79c8:	00001637          	lui	a2,0x1
    79cc:	40c40633          	sub	a2,s0,a2
    79d0:	66063a83          	ld	s5,1632(a2) # 1660 <.LBB52_5+0x288>
    79d4:	035686b3          	mul	a3,a3,s5
    79d8:	e6043783          	ld	a5,-416(s0)
    79dc:	00001637          	lui	a2,0x1
    79e0:	40c40633          	sub	a2,s0,a2
    79e4:	bd063603          	ld	a2,-1072(a2) # bd0 <.LBB52_3+0x9ec>
    79e8:	00f607b3          	add	a5,a2,a5
    79ec:	00f686b3          	add	a3,a3,a5
    79f0:	4286d693          	srai	a3,a3,0x28
    79f4:	ecd43c23          	sd	a3,-296(s0)
    79f8:	00d84663          	blt	a6,a3,7a04 <.LBB52_584>
    79fc:	f8200693          	li	a3,-126
    7a00:	ecd43c23          	sd	a3,-296(s0)

0000000000007a04 <.LBB52_584>:
    7a04:	00001637          	lui	a2,0x1
    7a08:	40c40633          	sub	a2,s0,a2
    7a0c:	c6863603          	ld	a2,-920(a2) # c68 <.LBB52_3+0xa84>
    7a10:	035606b3          	mul	a3,a2,s5
    7a14:	e6043783          	ld	a5,-416(s0)
    7a18:	00001637          	lui	a2,0x1
    7a1c:	40c40633          	sub	a2,s0,a2
    7a20:	c6063603          	ld	a2,-928(a2) # c60 <.LBB52_3+0xa7c>
    7a24:	00f607b3          	add	a5,a2,a5
    7a28:	00f686b3          	add	a3,a3,a5
    7a2c:	4286d693          	srai	a3,a3,0x28
    7a30:	ecd43423          	sd	a3,-312(s0)
    7a34:	00d84663          	blt	a6,a3,7a40 <.LBB52_586>
    7a38:	f8200693          	li	a3,-126
    7a3c:	ecd43423          	sd	a3,-312(s0)

0000000000007a40 <.LBB52_586>:
    7a40:	00001637          	lui	a2,0x1
    7a44:	40c40633          	sub	a2,s0,a2
    7a48:	ca863603          	ld	a2,-856(a2) # ca8 <.LBB52_3+0xac4>
    7a4c:	035606b3          	mul	a3,a2,s5
    7a50:	e6043783          	ld	a5,-416(s0)
    7a54:	00001637          	lui	a2,0x1
    7a58:	40c40633          	sub	a2,s0,a2
    7a5c:	ca063603          	ld	a2,-864(a2) # ca0 <.LBB52_3+0xabc>
    7a60:	00f607b3          	add	a5,a2,a5
    7a64:	00f686b3          	add	a3,a3,a5
    7a68:	4286d693          	srai	a3,a3,0x28
    7a6c:	ead43c23          	sd	a3,-328(s0)
    7a70:	00d84663          	blt	a6,a3,7a7c <.LBB52_588>
    7a74:	f8200693          	li	a3,-126
    7a78:	ead43c23          	sd	a3,-328(s0)

0000000000007a7c <.LBB52_588>:
    7a7c:	00001637          	lui	a2,0x1
    7a80:	40c40633          	sub	a2,s0,a2
    7a84:	d1063603          	ld	a2,-752(a2) # d10 <.LBB52_3+0xb2c>
    7a88:	035606b3          	mul	a3,a2,s5
    7a8c:	e6043783          	ld	a5,-416(s0)
    7a90:	00001637          	lui	a2,0x1
    7a94:	40c40633          	sub	a2,s0,a2
    7a98:	d0063603          	ld	a2,-768(a2) # d00 <.LBB52_3+0xb1c>
    7a9c:	00f607b3          	add	a5,a2,a5
    7aa0:	00f686b3          	add	a3,a3,a5
    7aa4:	4286d693          	srai	a3,a3,0x28
    7aa8:	ead43423          	sd	a3,-344(s0)
    7aac:	00d84663          	blt	a6,a3,7ab8 <.LBB52_590>
    7ab0:	f8200693          	li	a3,-126
    7ab4:	ead43423          	sd	a3,-344(s0)

0000000000007ab8 <.LBB52_590>:
    7ab8:	00001637          	lui	a2,0x1
    7abc:	40c40633          	sub	a2,s0,a2
    7ac0:	d8863603          	ld	a2,-632(a2) # d88 <.LBB52_3+0xba4>
    7ac4:	035606b3          	mul	a3,a2,s5
    7ac8:	e6043783          	ld	a5,-416(s0)
    7acc:	00001637          	lui	a2,0x1
    7ad0:	40c40633          	sub	a2,s0,a2
    7ad4:	d7863603          	ld	a2,-648(a2) # d78 <.LBB52_3+0xb94>
    7ad8:	00f607b3          	add	a5,a2,a5
    7adc:	00f686b3          	add	a3,a3,a5
    7ae0:	4286d693          	srai	a3,a3,0x28
    7ae4:	e8d43c23          	sd	a3,-360(s0)
    7ae8:	00d84663          	blt	a6,a3,7af4 <.LBB52_592>
    7aec:	f8200693          	li	a3,-126
    7af0:	e8d43c23          	sd	a3,-360(s0)

0000000000007af4 <.LBB52_592>:
    7af4:	00001637          	lui	a2,0x1
    7af8:	40c40633          	sub	a2,s0,a2
    7afc:	e0063603          	ld	a2,-512(a2) # e00 <.LBB52_3+0xc1c>
    7b00:	035606b3          	mul	a3,a2,s5
    7b04:	e6043783          	ld	a5,-416(s0)
    7b08:	00001637          	lui	a2,0x1
    7b0c:	40c40633          	sub	a2,s0,a2
    7b10:	df063603          	ld	a2,-528(a2) # df0 <.LBB52_3+0xc0c>
    7b14:	00f607b3          	add	a5,a2,a5
    7b18:	00f686b3          	add	a3,a3,a5
    7b1c:	4286d693          	srai	a3,a3,0x28
    7b20:	e8d43423          	sd	a3,-376(s0)
    7b24:	00d84663          	blt	a6,a3,7b30 <.LBB52_594>
    7b28:	f8200693          	li	a3,-126
    7b2c:	e8d43423          	sd	a3,-376(s0)

0000000000007b30 <.LBB52_594>:
    7b30:	00001637          	lui	a2,0x1
    7b34:	40c40633          	sub	a2,s0,a2
    7b38:	e7063603          	ld	a2,-400(a2) # e70 <.LBB52_4+0x40>
    7b3c:	035606b3          	mul	a3,a2,s5
    7b40:	e6043783          	ld	a5,-416(s0)
    7b44:	00001637          	lui	a2,0x1
    7b48:	40c40633          	sub	a2,s0,a2
    7b4c:	e6063603          	ld	a2,-416(a2) # e60 <.LBB52_4+0x30>
    7b50:	00f607b3          	add	a5,a2,a5
    7b54:	00f686b3          	add	a3,a3,a5
    7b58:	4286d693          	srai	a3,a3,0x28
    7b5c:	e6d43c23          	sd	a3,-392(s0)
    7b60:	00d84663          	blt	a6,a3,7b6c <.LBB52_596>
    7b64:	f8200693          	li	a3,-126
    7b68:	e6d43c23          	sd	a3,-392(s0)

0000000000007b6c <.LBB52_596>:
    7b6c:	00001637          	lui	a2,0x1
    7b70:	40c40633          	sub	a2,s0,a2
    7b74:	ee863603          	ld	a2,-280(a2) # ee8 <.LBB52_4+0xb8>
    7b78:	035606b3          	mul	a3,a2,s5
    7b7c:	e6043783          	ld	a5,-416(s0)
    7b80:	00001637          	lui	a2,0x1
    7b84:	40c40633          	sub	a2,s0,a2
    7b88:	ed863603          	ld	a2,-296(a2) # ed8 <.LBB52_4+0xa8>
    7b8c:	00f607b3          	add	a5,a2,a5
    7b90:	00f686b3          	add	a3,a3,a5
    7b94:	4286d693          	srai	a3,a3,0x28
    7b98:	e6d43423          	sd	a3,-408(s0)
    7b9c:	00d84663          	blt	a6,a3,7ba8 <.LBB52_598>
    7ba0:	f8200693          	li	a3,-126
    7ba4:	e6d43423          	sd	a3,-408(s0)

0000000000007ba8 <.LBB52_598>:
    7ba8:	00001637          	lui	a2,0x1
    7bac:	40c40633          	sub	a2,s0,a2
    7bb0:	f5863603          	ld	a2,-168(a2) # f58 <.LBB52_4+0x128>
    7bb4:	035606b3          	mul	a3,a2,s5
    7bb8:	e6043783          	ld	a5,-416(s0)
    7bbc:	00001637          	lui	a2,0x1
    7bc0:	40c40633          	sub	a2,s0,a2
    7bc4:	f4863603          	ld	a2,-184(a2) # f48 <.LBB52_4+0x118>
    7bc8:	00f607b3          	add	a5,a2,a5
    7bcc:	00f686b3          	add	a3,a3,a5
    7bd0:	4286d693          	srai	a3,a3,0x28
    7bd4:	e4d43823          	sd	a3,-432(s0)
    7bd8:	00d84663          	blt	a6,a3,7be4 <.LBB52_600>
    7bdc:	f8200693          	li	a3,-126
    7be0:	e4d43823          	sd	a3,-432(s0)

0000000000007be4 <.LBB52_600>:
    7be4:	00001637          	lui	a2,0x1
    7be8:	40c40633          	sub	a2,s0,a2
    7bec:	fd063603          	ld	a2,-48(a2) # fd0 <.LBB52_4+0x1a0>
    7bf0:	035606b3          	mul	a3,a2,s5
    7bf4:	e6043783          	ld	a5,-416(s0)
    7bf8:	00001637          	lui	a2,0x1
    7bfc:	40c40633          	sub	a2,s0,a2
    7c00:	fc063603          	ld	a2,-64(a2) # fc0 <.LBB52_4+0x190>
    7c04:	00f607b3          	add	a5,a2,a5
    7c08:	00f686b3          	add	a3,a3,a5
    7c0c:	4286d693          	srai	a3,a3,0x28
    7c10:	e4d43023          	sd	a3,-448(s0)
    7c14:	00d84663          	blt	a6,a3,7c20 <.LBB52_602>
    7c18:	f8200693          	li	a3,-126
    7c1c:	e4d43023          	sd	a3,-448(s0)

0000000000007c20 <.LBB52_602>:
    7c20:	00001637          	lui	a2,0x1
    7c24:	40c40633          	sub	a2,s0,a2
    7c28:	04863603          	ld	a2,72(a2) # 1048 <.LBB52_4+0x218>
    7c2c:	035606b3          	mul	a3,a2,s5
    7c30:	e6043783          	ld	a5,-416(s0)
    7c34:	00001637          	lui	a2,0x1
    7c38:	40c40633          	sub	a2,s0,a2
    7c3c:	03863603          	ld	a2,56(a2) # 1038 <.LBB52_4+0x208>
    7c40:	00f607b3          	add	a5,a2,a5
    7c44:	00f686b3          	add	a3,a3,a5
    7c48:	4286d693          	srai	a3,a3,0x28
    7c4c:	e2d43c23          	sd	a3,-456(s0)
    7c50:	00d84663          	blt	a6,a3,7c5c <.LBB52_604>
    7c54:	f8200693          	li	a3,-126
    7c58:	e2d43c23          	sd	a3,-456(s0)

0000000000007c5c <.LBB52_604>:
    7c5c:	00001637          	lui	a2,0x1
    7c60:	40c40633          	sub	a2,s0,a2
    7c64:	0c063603          	ld	a2,192(a2) # 10c0 <.LBB52_4+0x290>
    7c68:	035606b3          	mul	a3,a2,s5
    7c6c:	e6043783          	ld	a5,-416(s0)
    7c70:	00001637          	lui	a2,0x1
    7c74:	40c40633          	sub	a2,s0,a2
    7c78:	0b063603          	ld	a2,176(a2) # 10b0 <.LBB52_4+0x280>
    7c7c:	00f607b3          	add	a5,a2,a5
    7c80:	00f686b3          	add	a3,a3,a5
    7c84:	4286d693          	srai	a3,a3,0x28
    7c88:	e2d43823          	sd	a3,-464(s0)
    7c8c:	00d84663          	blt	a6,a3,7c98 <.LBB52_606>
    7c90:	f8200693          	li	a3,-126
    7c94:	e2d43823          	sd	a3,-464(s0)

0000000000007c98 <.LBB52_606>:
    7c98:	00001637          	lui	a2,0x1
    7c9c:	40c40633          	sub	a2,s0,a2
    7ca0:	13863603          	ld	a2,312(a2) # 1138 <.LBB52_4+0x308>
    7ca4:	035606b3          	mul	a3,a2,s5
    7ca8:	e6043783          	ld	a5,-416(s0)
    7cac:	00001637          	lui	a2,0x1
    7cb0:	40c40633          	sub	a2,s0,a2
    7cb4:	12863603          	ld	a2,296(a2) # 1128 <.LBB52_4+0x2f8>
    7cb8:	00f607b3          	add	a5,a2,a5
    7cbc:	00f686b3          	add	a3,a3,a5
    7cc0:	4286d693          	srai	a3,a3,0x28
    7cc4:	e2d43423          	sd	a3,-472(s0)
    7cc8:	00d84663          	blt	a6,a3,7cd4 <.LBB52_608>
    7ccc:	f8200693          	li	a3,-126
    7cd0:	e2d43423          	sd	a3,-472(s0)

0000000000007cd4 <.LBB52_608>:
    7cd4:	00001637          	lui	a2,0x1
    7cd8:	40c40633          	sub	a2,s0,a2
    7cdc:	1b063603          	ld	a2,432(a2) # 11b0 <.LBB52_4+0x380>
    7ce0:	035606b3          	mul	a3,a2,s5
    7ce4:	e6043783          	ld	a5,-416(s0)
    7ce8:	00001637          	lui	a2,0x1
    7cec:	40c40633          	sub	a2,s0,a2
    7cf0:	1a063603          	ld	a2,416(a2) # 11a0 <.LBB52_4+0x370>
    7cf4:	00f607b3          	add	a5,a2,a5
    7cf8:	00f686b3          	add	a3,a3,a5
    7cfc:	4286d693          	srai	a3,a3,0x28
    7d00:	e2d43023          	sd	a3,-480(s0)
    7d04:	00d84663          	blt	a6,a3,7d10 <.LBB52_610>
    7d08:	f8200693          	li	a3,-126
    7d0c:	e2d43023          	sd	a3,-480(s0)

0000000000007d10 <.LBB52_610>:
    7d10:	00001637          	lui	a2,0x1
    7d14:	40c40633          	sub	a2,s0,a2
    7d18:	22863603          	ld	a2,552(a2) # 1228 <.LBB52_4+0x3f8>
    7d1c:	035606b3          	mul	a3,a2,s5
    7d20:	e6043783          	ld	a5,-416(s0)
    7d24:	00001637          	lui	a2,0x1
    7d28:	40c40633          	sub	a2,s0,a2
    7d2c:	21863603          	ld	a2,536(a2) # 1218 <.LBB52_4+0x3e8>
    7d30:	00f607b3          	add	a5,a2,a5
    7d34:	00f686b3          	add	a3,a3,a5
    7d38:	4286d693          	srai	a3,a3,0x28
    7d3c:	e0d43c23          	sd	a3,-488(s0)
    7d40:	00d84663          	blt	a6,a3,7d4c <.LBB52_612>
    7d44:	f8200693          	li	a3,-126
    7d48:	e0d43c23          	sd	a3,-488(s0)

0000000000007d4c <.LBB52_612>:
    7d4c:	00001637          	lui	a2,0x1
    7d50:	40c40633          	sub	a2,s0,a2
    7d54:	2a063603          	ld	a2,672(a2) # 12a0 <.LBB52_4+0x470>
    7d58:	035606b3          	mul	a3,a2,s5
    7d5c:	e6043783          	ld	a5,-416(s0)
    7d60:	00001637          	lui	a2,0x1
    7d64:	40c40633          	sub	a2,s0,a2
    7d68:	29063603          	ld	a2,656(a2) # 1290 <.LBB52_4+0x460>
    7d6c:	00f607b3          	add	a5,a2,a5
    7d70:	00f686b3          	add	a3,a3,a5
    7d74:	4286d693          	srai	a3,a3,0x28
    7d78:	e0d43823          	sd	a3,-496(s0)
    7d7c:	00d84663          	blt	a6,a3,7d88 <.LBB52_614>
    7d80:	f8200693          	li	a3,-126
    7d84:	e0d43823          	sd	a3,-496(s0)

0000000000007d88 <.LBB52_614>:
    7d88:	00001637          	lui	a2,0x1
    7d8c:	40c40633          	sub	a2,s0,a2
    7d90:	30863603          	ld	a2,776(a2) # 1308 <.LBB52_4+0x4d8>
    7d94:	035606b3          	mul	a3,a2,s5
    7d98:	e6043783          	ld	a5,-416(s0)
    7d9c:	00001637          	lui	a2,0x1
    7da0:	40c40633          	sub	a2,s0,a2
    7da4:	2f863603          	ld	a2,760(a2) # 12f8 <.LBB52_4+0x4c8>
    7da8:	00f607b3          	add	a5,a2,a5
    7dac:	00f686b3          	add	a3,a3,a5
    7db0:	4286d693          	srai	a3,a3,0x28
    7db4:	e0d43423          	sd	a3,-504(s0)
    7db8:	00d84663          	blt	a6,a3,7dc4 <.LBB52_616>
    7dbc:	f8200693          	li	a3,-126
    7dc0:	e0d43423          	sd	a3,-504(s0)

0000000000007dc4 <.LBB52_616>:
    7dc4:	00001637          	lui	a2,0x1
    7dc8:	40c40633          	sub	a2,s0,a2
    7dcc:	37063603          	ld	a2,880(a2) # 1370 <.LBB52_4+0x540>
    7dd0:	035606b3          	mul	a3,a2,s5
    7dd4:	e6043783          	ld	a5,-416(s0)
    7dd8:	00001637          	lui	a2,0x1
    7ddc:	40c40633          	sub	a2,s0,a2
    7de0:	36063603          	ld	a2,864(a2) # 1360 <.LBB52_4+0x530>
    7de4:	00f607b3          	add	a5,a2,a5
    7de8:	00f686b3          	add	a3,a3,a5
    7dec:	4286d693          	srai	a3,a3,0x28
    7df0:	e0d43023          	sd	a3,-512(s0)
    7df4:	00d84663          	blt	a6,a3,7e00 <.LBB52_618>
    7df8:	f8200693          	li	a3,-126
    7dfc:	e0d43023          	sd	a3,-512(s0)

0000000000007e00 <.LBB52_618>:
    7e00:	00001637          	lui	a2,0x1
    7e04:	40c40633          	sub	a2,s0,a2
    7e08:	3d863603          	ld	a2,984(a2) # 13d8 <.LBB52_5>
    7e0c:	035606b3          	mul	a3,a2,s5
    7e10:	e6043783          	ld	a5,-416(s0)
    7e14:	00001637          	lui	a2,0x1
    7e18:	40c40633          	sub	a2,s0,a2
    7e1c:	3c863603          	ld	a2,968(a2) # 13c8 <.LBB52_4+0x598>
    7e20:	00f607b3          	add	a5,a2,a5
    7e24:	00f686b3          	add	a3,a3,a5
    7e28:	4286d693          	srai	a3,a3,0x28
    7e2c:	ded43c23          	sd	a3,-520(s0)
    7e30:	00d84663          	blt	a6,a3,7e3c <.LBB52_620>
    7e34:	f8200693          	li	a3,-126
    7e38:	ded43c23          	sd	a3,-520(s0)

0000000000007e3c <.LBB52_620>:
    7e3c:	00001637          	lui	a2,0x1
    7e40:	40c40633          	sub	a2,s0,a2
    7e44:	43063603          	ld	a2,1072(a2) # 1430 <.LBB52_5+0x58>
    7e48:	035606b3          	mul	a3,a2,s5
    7e4c:	e6043783          	ld	a5,-416(s0)
    7e50:	00001637          	lui	a2,0x1
    7e54:	40c40633          	sub	a2,s0,a2
    7e58:	41863603          	ld	a2,1048(a2) # 1418 <.LBB52_5+0x40>
    7e5c:	00f607b3          	add	a5,a2,a5
    7e60:	00f686b3          	add	a3,a3,a5
    7e64:	4286d693          	srai	a3,a3,0x28
    7e68:	ded43823          	sd	a3,-528(s0)
    7e6c:	00d84663          	blt	a6,a3,7e78 <.LBB52_622>
    7e70:	f8200693          	li	a3,-126
    7e74:	ded43823          	sd	a3,-528(s0)

0000000000007e78 <.LBB52_622>:
    7e78:	00001637          	lui	a2,0x1
    7e7c:	40c40633          	sub	a2,s0,a2
    7e80:	48063603          	ld	a2,1152(a2) # 1480 <.LBB52_5+0xa8>
    7e84:	035606b3          	mul	a3,a2,s5
    7e88:	e6043783          	ld	a5,-416(s0)
    7e8c:	00001637          	lui	a2,0x1
    7e90:	40c40633          	sub	a2,s0,a2
    7e94:	46863603          	ld	a2,1128(a2) # 1468 <.LBB52_5+0x90>
    7e98:	00f607b3          	add	a5,a2,a5
    7e9c:	00f686b3          	add	a3,a3,a5
    7ea0:	4286d693          	srai	a3,a3,0x28
    7ea4:	ded43423          	sd	a3,-536(s0)
    7ea8:	00d84663          	blt	a6,a3,7eb4 <.LBB52_624>
    7eac:	f8200693          	li	a3,-126
    7eb0:	ded43423          	sd	a3,-536(s0)

0000000000007eb4 <.LBB52_624>:
    7eb4:	00001637          	lui	a2,0x1
    7eb8:	40c40633          	sub	a2,s0,a2
    7ebc:	4d863603          	ld	a2,1240(a2) # 14d8 <.LBB52_5+0x100>
    7ec0:	035606b3          	mul	a3,a2,s5
    7ec4:	e6043783          	ld	a5,-416(s0)
    7ec8:	00001637          	lui	a2,0x1
    7ecc:	40c40633          	sub	a2,s0,a2
    7ed0:	4c063603          	ld	a2,1216(a2) # 14c0 <.LBB52_5+0xe8>
    7ed4:	00f607b3          	add	a5,a2,a5
    7ed8:	00f686b3          	add	a3,a3,a5
    7edc:	4286d693          	srai	a3,a3,0x28
    7ee0:	ded43023          	sd	a3,-544(s0)
    7ee4:	00d84663          	blt	a6,a3,7ef0 <.LBB52_626>
    7ee8:	f8200693          	li	a3,-126
    7eec:	ded43023          	sd	a3,-544(s0)

0000000000007ef0 <.LBB52_626>:
    7ef0:	00001637          	lui	a2,0x1
    7ef4:	40c40633          	sub	a2,s0,a2
    7ef8:	53063603          	ld	a2,1328(a2) # 1530 <.LBB52_5+0x158>
    7efc:	035606b3          	mul	a3,a2,s5
    7f00:	e6043783          	ld	a5,-416(s0)
    7f04:	00001637          	lui	a2,0x1
    7f08:	40c40633          	sub	a2,s0,a2
    7f0c:	52063603          	ld	a2,1312(a2) # 1520 <.LBB52_5+0x148>
    7f10:	00f607b3          	add	a5,a2,a5
    7f14:	00f686b3          	add	a3,a3,a5
    7f18:	4286d693          	srai	a3,a3,0x28
    7f1c:	dcd43823          	sd	a3,-560(s0)
    7f20:	00d84663          	blt	a6,a3,7f2c <.LBB52_628>
    7f24:	f8200693          	li	a3,-126
    7f28:	dcd43823          	sd	a3,-560(s0)

0000000000007f2c <.LBB52_628>:
    7f2c:	00001637          	lui	a2,0x1
    7f30:	40c40633          	sub	a2,s0,a2
    7f34:	58863603          	ld	a2,1416(a2) # 1588 <.LBB52_5+0x1b0>
    7f38:	035606b3          	mul	a3,a2,s5
    7f3c:	e6043783          	ld	a5,-416(s0)
    7f40:	00001637          	lui	a2,0x1
    7f44:	40c40633          	sub	a2,s0,a2
    7f48:	57863603          	ld	a2,1400(a2) # 1578 <.LBB52_5+0x1a0>
    7f4c:	00f607b3          	add	a5,a2,a5
    7f50:	00f686b3          	add	a3,a3,a5
    7f54:	4286d693          	srai	a3,a3,0x28
    7f58:	dcd43023          	sd	a3,-576(s0)
    7f5c:	00d84663          	blt	a6,a3,7f68 <.LBB52_630>
    7f60:	f8200693          	li	a3,-126
    7f64:	dcd43023          	sd	a3,-576(s0)

0000000000007f68 <.LBB52_630>:
    7f68:	00001637          	lui	a2,0x1
    7f6c:	40c40633          	sub	a2,s0,a2
    7f70:	5c863603          	ld	a2,1480(a2) # 15c8 <.LBB52_5+0x1f0>
    7f74:	035606b3          	mul	a3,a2,s5
    7f78:	e6043783          	ld	a5,-416(s0)
    7f7c:	00001637          	lui	a2,0x1
    7f80:	40c40633          	sub	a2,s0,a2
    7f84:	5b863603          	ld	a2,1464(a2) # 15b8 <.LBB52_5+0x1e0>
    7f88:	00f607b3          	add	a5,a2,a5
    7f8c:	00f686b3          	add	a3,a3,a5
    7f90:	4286d693          	srai	a3,a3,0x28
    7f94:	dad43823          	sd	a3,-592(s0)
    7f98:	00d84663          	blt	a6,a3,7fa4 <.LBB52_632>
    7f9c:	f8200693          	li	a3,-126
    7fa0:	dad43823          	sd	a3,-592(s0)

0000000000007fa4 <.LBB52_632>:
    7fa4:	00001637          	lui	a2,0x1
    7fa8:	40c40633          	sub	a2,s0,a2
    7fac:	71863603          	ld	a2,1816(a2) # 1718 <.LBB52_5+0x340>
    7fb0:	035606b3          	mul	a3,a2,s5
    7fb4:	e6043783          	ld	a5,-416(s0)
    7fb8:	00001637          	lui	a2,0x1
    7fbc:	40c40633          	sub	a2,s0,a2
    7fc0:	71063603          	ld	a2,1808(a2) # 1710 <.LBB52_5+0x338>
    7fc4:	00f607b3          	add	a5,a2,a5
    7fc8:	00f686b3          	add	a3,a3,a5
    7fcc:	4286d693          	srai	a3,a3,0x28
    7fd0:	dad43023          	sd	a3,-608(s0)
    7fd4:	00d84663          	blt	a6,a3,7fe0 <.LBB52_634>
    7fd8:	f8200693          	li	a3,-126
    7fdc:	dad43023          	sd	a3,-608(s0)

0000000000007fe0 <.LBB52_634>:
    7fe0:	00001637          	lui	a2,0x1
    7fe4:	40c40633          	sub	a2,s0,a2
    7fe8:	7b863603          	ld	a2,1976(a2) # 17b8 <.LBB52_5+0x3e0>
    7fec:	035606b3          	mul	a3,a2,s5
    7ff0:	e6043783          	ld	a5,-416(s0)
    7ff4:	00001637          	lui	a2,0x1
    7ff8:	40c40633          	sub	a2,s0,a2
    7ffc:	73063603          	ld	a2,1840(a2) # 1730 <.LBB52_5+0x358>
    8000:	00f607b3          	add	a5,a2,a5
    8004:	00f686b3          	add	a3,a3,a5
    8008:	4286d693          	srai	a3,a3,0x28
    800c:	d8d43823          	sd	a3,-624(s0)
    8010:	00d84663          	blt	a6,a3,801c <.LBB52_636>
    8014:	f8200693          	li	a3,-126
    8018:	d8d43823          	sd	a3,-624(s0)

000000000000801c <.LBB52_636>:
    801c:	00001637          	lui	a2,0x1
    8020:	40c40633          	sub	a2,s0,a2
    8024:	7b063603          	ld	a2,1968(a2) # 17b0 <.LBB52_5+0x3d8>
    8028:	035606b3          	mul	a3,a2,s5
    802c:	e6043783          	ld	a5,-416(s0)
    8030:	00001637          	lui	a2,0x1
    8034:	40c40633          	sub	a2,s0,a2
    8038:	73863603          	ld	a2,1848(a2) # 1738 <.LBB52_5+0x360>
    803c:	00f607b3          	add	a5,a2,a5
    8040:	00f686b3          	add	a3,a3,a5
    8044:	4286d693          	srai	a3,a3,0x28
    8048:	d8d43023          	sd	a3,-640(s0)
    804c:	00d84663          	blt	a6,a3,8058 <.LBB52_638>
    8050:	f8200693          	li	a3,-126
    8054:	d8d43023          	sd	a3,-640(s0)

0000000000008058 <.LBB52_638>:
    8058:	00001637          	lui	a2,0x1
    805c:	40c40633          	sub	a2,s0,a2
    8060:	7a863603          	ld	a2,1960(a2) # 17a8 <.LBB52_5+0x3d0>
    8064:	035606b3          	mul	a3,a2,s5
    8068:	e6043783          	ld	a5,-416(s0)
    806c:	00001637          	lui	a2,0x1
    8070:	40c40633          	sub	a2,s0,a2
    8074:	76863603          	ld	a2,1896(a2) # 1768 <.LBB52_5+0x390>
    8078:	00f607b3          	add	a5,a2,a5
    807c:	00f686b3          	add	a3,a3,a5
    8080:	4286d693          	srai	a3,a3,0x28
    8084:	d6d43823          	sd	a3,-656(s0)
    8088:	00d84663          	blt	a6,a3,8094 <.LBB52_640>
    808c:	f8200693          	li	a3,-126
    8090:	d6d43823          	sd	a3,-656(s0)

0000000000008094 <.LBB52_640>:
    8094:	00001637          	lui	a2,0x1
    8098:	40c40633          	sub	a2,s0,a2
    809c:	7a063603          	ld	a2,1952(a2) # 17a0 <.LBB52_5+0x3c8>
    80a0:	035606b3          	mul	a3,a2,s5
    80a4:	e6043783          	ld	a5,-416(s0)
    80a8:	00001637          	lui	a2,0x1
    80ac:	40c40633          	sub	a2,s0,a2
    80b0:	77063603          	ld	a2,1904(a2) # 1770 <.LBB52_5+0x398>
    80b4:	00f607b3          	add	a5,a2,a5
    80b8:	00f686b3          	add	a3,a3,a5
    80bc:	4286d693          	srai	a3,a3,0x28
    80c0:	d6d43023          	sd	a3,-672(s0)
    80c4:	00d84663          	blt	a6,a3,80d0 <.LBB52_642>
    80c8:	f8200693          	li	a3,-126
    80cc:	d6d43023          	sd	a3,-672(s0)

00000000000080d0 <.LBB52_642>:
    80d0:	00001637          	lui	a2,0x1
    80d4:	40c40633          	sub	a2,s0,a2
    80d8:	79863603          	ld	a2,1944(a2) # 1798 <.LBB52_5+0x3c0>
    80dc:	035606b3          	mul	a3,a2,s5
    80e0:	e6043783          	ld	a5,-416(s0)
    80e4:	00001637          	lui	a2,0x1
    80e8:	40c40633          	sub	a2,s0,a2
    80ec:	77863603          	ld	a2,1912(a2) # 1778 <.LBB52_5+0x3a0>
    80f0:	00f607b3          	add	a5,a2,a5
    80f4:	00f686b3          	add	a3,a3,a5
    80f8:	4286d693          	srai	a3,a3,0x28
    80fc:	d4d43823          	sd	a3,-688(s0)
    8100:	00d84663          	blt	a6,a3,810c <.LBB52_644>
    8104:	f8200693          	li	a3,-126
    8108:	d4d43823          	sd	a3,-688(s0)

000000000000810c <.LBB52_644>:
    810c:	00001637          	lui	a2,0x1
    8110:	40c40633          	sub	a2,s0,a2
    8114:	79063683          	ld	a3,1936(a2) # 1790 <.LBB52_5+0x3b8>
    8118:	035686b3          	mul	a3,a3,s5
    811c:	e6043783          	ld	a5,-416(s0)
    8120:	00001637          	lui	a2,0x1
    8124:	40c40633          	sub	a2,s0,a2
    8128:	78863603          	ld	a2,1928(a2) # 1788 <.LBB52_5+0x3b0>
    812c:	00f607b3          	add	a5,a2,a5
    8130:	00f686b3          	add	a3,a3,a5
    8134:	4286d693          	srai	a3,a3,0x28
    8138:	d4d43023          	sd	a3,-704(s0)
    813c:	00d84663          	blt	a6,a3,8148 <.LBB52_646>
    8140:	f8200693          	li	a3,-126
    8144:	d4d43023          	sd	a3,-704(s0)

0000000000008148 <.LBB52_646>:
    8148:	035586b3          	mul	a3,a1,s5
    814c:	e6043a03          	ld	s4,-416(s0)
    8150:	000015b7          	lui	a1,0x1
    8154:	40b405b3          	sub	a1,s0,a1
    8158:	bc05b783          	ld	a5,-1088(a1) # bc0 <.LBB52_3+0x9dc>
    815c:	014787b3          	add	a5,a5,s4
    8160:	00f686b3          	add	a3,a3,a5
    8164:	4286d693          	srai	a3,a3,0x28
    8168:	dcd43c23          	sd	a3,-552(s0)
    816c:	88843603          	ld	a2,-1912(s0)
    8170:	00d84663          	blt	a6,a3,817c <.LBB52_648>
    8174:	f8200693          	li	a3,-126
    8178:	dcd43c23          	sd	a3,-552(s0)

000000000000817c <.LBB52_648>:
    817c:	000015b7          	lui	a1,0x1
    8180:	40b405b3          	sub	a1,s0,a1
    8184:	c085b583          	ld	a1,-1016(a1) # c08 <.LBB52_3+0xa24>
    8188:	035586b3          	mul	a3,a1,s5
    818c:	000015b7          	lui	a1,0x1
    8190:	40b405b3          	sub	a1,s0,a1
    8194:	c585b783          	ld	a5,-936(a1) # c58 <.LBB52_3+0xa74>
    8198:	014787b3          	add	a5,a5,s4
    819c:	00f686b3          	add	a3,a3,a5
    81a0:	4286d693          	srai	a3,a3,0x28
    81a4:	dcd43423          	sd	a3,-568(s0)
    81a8:	00d84663          	blt	a6,a3,81b4 <.LBB52_650>
    81ac:	f8200693          	li	a3,-126
    81b0:	dcd43423          	sd	a3,-568(s0)

00000000000081b4 <.LBB52_650>:
    81b4:	000015b7          	lui	a1,0x1
    81b8:	40b405b3          	sub	a1,s0,a1
    81bc:	c205b583          	ld	a1,-992(a1) # c20 <.LBB52_3+0xa3c>
    81c0:	035585b3          	mul	a1,a1,s5
    81c4:	000016b7          	lui	a3,0x1
    81c8:	40d406b3          	sub	a3,s0,a3
    81cc:	c986b683          	ld	a3,-872(a3) # c98 <.LBB52_3+0xab4>
    81d0:	014686b3          	add	a3,a3,s4
    81d4:	00d585b3          	add	a1,a1,a3
    81d8:	4285d593          	srai	a1,a1,0x28
    81dc:	dab43c23          	sd	a1,-584(s0)
    81e0:	00b84663          	blt	a6,a1,81ec <.LBB52_652>
    81e4:	f8200593          	li	a1,-126
    81e8:	dab43c23          	sd	a1,-584(s0)

00000000000081ec <.LBB52_652>:
    81ec:	000015b7          	lui	a1,0x1
    81f0:	40b405b3          	sub	a1,s0,a1
    81f4:	d085b583          	ld	a1,-760(a1) # d08 <.LBB52_3+0xb24>
    81f8:	035585b3          	mul	a1,a1,s5
    81fc:	000016b7          	lui	a3,0x1
    8200:	40d406b3          	sub	a3,s0,a3
    8204:	cf06b683          	ld	a3,-784(a3) # cf0 <.LBB52_3+0xb0c>
    8208:	014686b3          	add	a3,a3,s4
    820c:	00d585b3          	add	a1,a1,a3
    8210:	4285d593          	srai	a1,a1,0x28
    8214:	dab43423          	sd	a1,-600(s0)
    8218:	00b84663          	blt	a6,a1,8224 <.LBB52_654>
    821c:	f8200593          	li	a1,-126
    8220:	dab43423          	sd	a1,-600(s0)

0000000000008224 <.LBB52_654>:
    8224:	000015b7          	lui	a1,0x1
    8228:	40b405b3          	sub	a1,s0,a1
    822c:	d805b583          	ld	a1,-640(a1) # d80 <.LBB52_3+0xb9c>
    8230:	035585b3          	mul	a1,a1,s5
    8234:	000016b7          	lui	a3,0x1
    8238:	40d406b3          	sub	a3,s0,a3
    823c:	d686b683          	ld	a3,-664(a3) # d68 <.LBB52_3+0xb84>
    8240:	014686b3          	add	a3,a3,s4
    8244:	00d585b3          	add	a1,a1,a3
    8248:	4285d593          	srai	a1,a1,0x28
    824c:	d8b43c23          	sd	a1,-616(s0)
    8250:	00b84663          	blt	a6,a1,825c <.LBB52_656>
    8254:	f8200593          	li	a1,-126
    8258:	d8b43c23          	sd	a1,-616(s0)

000000000000825c <.LBB52_656>:
    825c:	000015b7          	lui	a1,0x1
    8260:	40b405b3          	sub	a1,s0,a1
    8264:	df85b583          	ld	a1,-520(a1) # df8 <.LBB52_3+0xc14>
    8268:	035585b3          	mul	a1,a1,s5
    826c:	000016b7          	lui	a3,0x1
    8270:	40d406b3          	sub	a3,s0,a3
    8274:	de06b683          	ld	a3,-544(a3) # de0 <.LBB52_3+0xbfc>
    8278:	014686b3          	add	a3,a3,s4
    827c:	00d585b3          	add	a1,a1,a3
    8280:	4285d593          	srai	a1,a1,0x28
    8284:	d8b43423          	sd	a1,-632(s0)
    8288:	00b84663          	blt	a6,a1,8294 <.LBB52_658>
    828c:	f8200593          	li	a1,-126
    8290:	d8b43423          	sd	a1,-632(s0)

0000000000008294 <.LBB52_658>:
    8294:	000015b7          	lui	a1,0x1
    8298:	40b405b3          	sub	a1,s0,a1
    829c:	e685b583          	ld	a1,-408(a1) # e68 <.LBB52_4+0x38>
    82a0:	035585b3          	mul	a1,a1,s5
    82a4:	000016b7          	lui	a3,0x1
    82a8:	40d406b3          	sub	a3,s0,a3
    82ac:	e506b683          	ld	a3,-432(a3) # e50 <.LBB52_4+0x20>
    82b0:	014686b3          	add	a3,a3,s4
    82b4:	00d585b3          	add	a1,a1,a3
    82b8:	4285d593          	srai	a1,a1,0x28
    82bc:	d6b43c23          	sd	a1,-648(s0)
    82c0:	00b84663          	blt	a6,a1,82cc <.LBB52_660>
    82c4:	f8200593          	li	a1,-126
    82c8:	d6b43c23          	sd	a1,-648(s0)

00000000000082cc <.LBB52_660>:
    82cc:	000015b7          	lui	a1,0x1
    82d0:	40b405b3          	sub	a1,s0,a1
    82d4:	ee05b583          	ld	a1,-288(a1) # ee0 <.LBB52_4+0xb0>
    82d8:	035585b3          	mul	a1,a1,s5
    82dc:	000016b7          	lui	a3,0x1
    82e0:	40d406b3          	sub	a3,s0,a3
    82e4:	ec86b683          	ld	a3,-312(a3) # ec8 <.LBB52_4+0x98>
    82e8:	014686b3          	add	a3,a3,s4
    82ec:	00d585b3          	add	a1,a1,a3
    82f0:	4285d593          	srai	a1,a1,0x28
    82f4:	d6b43423          	sd	a1,-664(s0)
    82f8:	00b84663          	blt	a6,a1,8304 <.LBB52_662>
    82fc:	f8200593          	li	a1,-126
    8300:	d6b43423          	sd	a1,-664(s0)

0000000000008304 <.LBB52_662>:
    8304:	000015b7          	lui	a1,0x1
    8308:	40b405b3          	sub	a1,s0,a1
    830c:	f505b583          	ld	a1,-176(a1) # f50 <.LBB52_4+0x120>
    8310:	035585b3          	mul	a1,a1,s5
    8314:	000016b7          	lui	a3,0x1
    8318:	40d406b3          	sub	a3,s0,a3
    831c:	f386b683          	ld	a3,-200(a3) # f38 <.LBB52_4+0x108>
    8320:	014686b3          	add	a3,a3,s4
    8324:	00d585b3          	add	a1,a1,a3
    8328:	4285d593          	srai	a1,a1,0x28
    832c:	d4b43c23          	sd	a1,-680(s0)
    8330:	00b84663          	blt	a6,a1,833c <.LBB52_664>
    8334:	f8200593          	li	a1,-126
    8338:	d4b43c23          	sd	a1,-680(s0)

000000000000833c <.LBB52_664>:
    833c:	000015b7          	lui	a1,0x1
    8340:	40b405b3          	sub	a1,s0,a1
    8344:	fc85b583          	ld	a1,-56(a1) # fc8 <.LBB52_4+0x198>
    8348:	035585b3          	mul	a1,a1,s5
    834c:	000016b7          	lui	a3,0x1
    8350:	40d406b3          	sub	a3,s0,a3
    8354:	fb06b683          	ld	a3,-80(a3) # fb0 <.LBB52_4+0x180>
    8358:	014686b3          	add	a3,a3,s4
    835c:	00d585b3          	add	a1,a1,a3
    8360:	4285d593          	srai	a1,a1,0x28
    8364:	d4b43423          	sd	a1,-696(s0)
    8368:	00b84663          	blt	a6,a1,8374 <.LBB52_666>
    836c:	f8200593          	li	a1,-126
    8370:	d4b43423          	sd	a1,-696(s0)

0000000000008374 <.LBB52_666>:
    8374:	000015b7          	lui	a1,0x1
    8378:	40b405b3          	sub	a1,s0,a1
    837c:	0405b583          	ld	a1,64(a1) # 1040 <.LBB52_4+0x210>
    8380:	035585b3          	mul	a1,a1,s5
    8384:	000016b7          	lui	a3,0x1
    8388:	40d406b3          	sub	a3,s0,a3
    838c:	0286b683          	ld	a3,40(a3) # 1028 <.LBB52_4+0x1f8>
    8390:	014686b3          	add	a3,a3,s4
    8394:	00d585b3          	add	a1,a1,a3
    8398:	4285d593          	srai	a1,a1,0x28
    839c:	d2b43c23          	sd	a1,-712(s0)
    83a0:	00b84663          	blt	a6,a1,83ac <.LBB52_668>
    83a4:	f8200593          	li	a1,-126
    83a8:	d2b43c23          	sd	a1,-712(s0)

00000000000083ac <.LBB52_668>:
    83ac:	000015b7          	lui	a1,0x1
    83b0:	40b405b3          	sub	a1,s0,a1
    83b4:	0b85b583          	ld	a1,184(a1) # 10b8 <.LBB52_4+0x288>
    83b8:	035585b3          	mul	a1,a1,s5
    83bc:	000016b7          	lui	a3,0x1
    83c0:	40d406b3          	sub	a3,s0,a3
    83c4:	0a06b683          	ld	a3,160(a3) # 10a0 <.LBB52_4+0x270>
    83c8:	014686b3          	add	a3,a3,s4
    83cc:	00d585b3          	add	a1,a1,a3
    83d0:	4285d593          	srai	a1,a1,0x28
    83d4:	d2b43823          	sd	a1,-720(s0)
    83d8:	00b84663          	blt	a6,a1,83e4 <.LBB52_670>
    83dc:	f8200593          	li	a1,-126
    83e0:	d2b43823          	sd	a1,-720(s0)

00000000000083e4 <.LBB52_670>:
    83e4:	000015b7          	lui	a1,0x1
    83e8:	40b405b3          	sub	a1,s0,a1
    83ec:	1305b583          	ld	a1,304(a1) # 1130 <.LBB52_4+0x300>
    83f0:	035585b3          	mul	a1,a1,s5
    83f4:	000016b7          	lui	a3,0x1
    83f8:	40d406b3          	sub	a3,s0,a3
    83fc:	1186b683          	ld	a3,280(a3) # 1118 <.LBB52_4+0x2e8>
    8400:	014686b3          	add	a3,a3,s4
    8404:	00d585b3          	add	a1,a1,a3
    8408:	4285d593          	srai	a1,a1,0x28
    840c:	d2b43423          	sd	a1,-728(s0)
    8410:	00b84663          	blt	a6,a1,841c <.LBB52_672>
    8414:	f8200593          	li	a1,-126
    8418:	d2b43423          	sd	a1,-728(s0)

000000000000841c <.LBB52_672>:
    841c:	000015b7          	lui	a1,0x1
    8420:	40b405b3          	sub	a1,s0,a1
    8424:	1a85b583          	ld	a1,424(a1) # 11a8 <.LBB52_4+0x378>
    8428:	035585b3          	mul	a1,a1,s5
    842c:	000016b7          	lui	a3,0x1
    8430:	40d406b3          	sub	a3,s0,a3
    8434:	1906b683          	ld	a3,400(a3) # 1190 <.LBB52_4+0x360>
    8438:	014686b3          	add	a3,a3,s4
    843c:	00d585b3          	add	a1,a1,a3
    8440:	4285d593          	srai	a1,a1,0x28
    8444:	d2b43023          	sd	a1,-736(s0)
    8448:	00b84663          	blt	a6,a1,8454 <.LBB52_674>
    844c:	f8200593          	li	a1,-126
    8450:	d2b43023          	sd	a1,-736(s0)

0000000000008454 <.LBB52_674>:
    8454:	000015b7          	lui	a1,0x1
    8458:	40b405b3          	sub	a1,s0,a1
    845c:	2205b583          	ld	a1,544(a1) # 1220 <.LBB52_4+0x3f0>
    8460:	035585b3          	mul	a1,a1,s5
    8464:	000016b7          	lui	a3,0x1
    8468:	40d406b3          	sub	a3,s0,a3
    846c:	2086b683          	ld	a3,520(a3) # 1208 <.LBB52_4+0x3d8>
    8470:	014686b3          	add	a3,a3,s4
    8474:	00d585b3          	add	a1,a1,a3
    8478:	4285d593          	srai	a1,a1,0x28
    847c:	d0b43c23          	sd	a1,-744(s0)
    8480:	00b84663          	blt	a6,a1,848c <.LBB52_676>
    8484:	f8200593          	li	a1,-126
    8488:	d0b43c23          	sd	a1,-744(s0)

000000000000848c <.LBB52_676>:
    848c:	000015b7          	lui	a1,0x1
    8490:	40b405b3          	sub	a1,s0,a1
    8494:	2985b583          	ld	a1,664(a1) # 1298 <.LBB52_4+0x468>
    8498:	035585b3          	mul	a1,a1,s5
    849c:	000016b7          	lui	a3,0x1
    84a0:	40d406b3          	sub	a3,s0,a3
    84a4:	2806b683          	ld	a3,640(a3) # 1280 <.LBB52_4+0x450>
    84a8:	014686b3          	add	a3,a3,s4
    84ac:	00d585b3          	add	a1,a1,a3
    84b0:	4285d593          	srai	a1,a1,0x28
    84b4:	d0b43823          	sd	a1,-752(s0)
    84b8:	00b84663          	blt	a6,a1,84c4 <.LBB52_678>
    84bc:	f8200593          	li	a1,-126
    84c0:	d0b43823          	sd	a1,-752(s0)

00000000000084c4 <.LBB52_678>:
    84c4:	000015b7          	lui	a1,0x1
    84c8:	40b405b3          	sub	a1,s0,a1
    84cc:	3005b583          	ld	a1,768(a1) # 1300 <.LBB52_4+0x4d0>
    84d0:	035585b3          	mul	a1,a1,s5
    84d4:	000016b7          	lui	a3,0x1
    84d8:	40d406b3          	sub	a3,s0,a3
    84dc:	2f06b683          	ld	a3,752(a3) # 12f0 <.LBB52_4+0x4c0>
    84e0:	014686b3          	add	a3,a3,s4
    84e4:	00d585b3          	add	a1,a1,a3
    84e8:	4285d593          	srai	a1,a1,0x28
    84ec:	d0b43423          	sd	a1,-760(s0)
    84f0:	00b84663          	blt	a6,a1,84fc <.LBB52_680>
    84f4:	f8200593          	li	a1,-126
    84f8:	d0b43423          	sd	a1,-760(s0)

00000000000084fc <.LBB52_680>:
    84fc:	000015b7          	lui	a1,0x1
    8500:	40b405b3          	sub	a1,s0,a1
    8504:	3685b583          	ld	a1,872(a1) # 1368 <.LBB52_4+0x538>
    8508:	035585b3          	mul	a1,a1,s5
    850c:	000016b7          	lui	a3,0x1
    8510:	40d406b3          	sub	a3,s0,a3
    8514:	3586b683          	ld	a3,856(a3) # 1358 <.LBB52_4+0x528>
    8518:	014686b3          	add	a3,a3,s4
    851c:	00d585b3          	add	a1,a1,a3
    8520:	4285d593          	srai	a1,a1,0x28
    8524:	d0b43023          	sd	a1,-768(s0)
    8528:	00b84663          	blt	a6,a1,8534 <.LBB52_682>
    852c:	f8200593          	li	a1,-126
    8530:	d0b43023          	sd	a1,-768(s0)

0000000000008534 <.LBB52_682>:
    8534:	000015b7          	lui	a1,0x1
    8538:	40b405b3          	sub	a1,s0,a1
    853c:	3d05b583          	ld	a1,976(a1) # 13d0 <.LBB52_4+0x5a0>
    8540:	035585b3          	mul	a1,a1,s5
    8544:	000016b7          	lui	a3,0x1
    8548:	40d406b3          	sub	a3,s0,a3
    854c:	3b86b683          	ld	a3,952(a3) # 13b8 <.LBB52_4+0x588>
    8550:	014686b3          	add	a3,a3,s4
    8554:	00d585b3          	add	a1,a1,a3
    8558:	4285d593          	srai	a1,a1,0x28
    855c:	ceb43c23          	sd	a1,-776(s0)
    8560:	00b84663          	blt	a6,a1,856c <.LBB52_684>
    8564:	f8200593          	li	a1,-126
    8568:	ceb43c23          	sd	a1,-776(s0)

000000000000856c <.LBB52_684>:
    856c:	000015b7          	lui	a1,0x1
    8570:	40b405b3          	sub	a1,s0,a1
    8574:	4205b583          	ld	a1,1056(a1) # 1420 <.LBB52_5+0x48>
    8578:	035585b3          	mul	a1,a1,s5
    857c:	000016b7          	lui	a3,0x1
    8580:	40d406b3          	sub	a3,s0,a3
    8584:	4086b683          	ld	a3,1032(a3) # 1408 <.LBB52_5+0x30>
    8588:	014686b3          	add	a3,a3,s4
    858c:	00d585b3          	add	a1,a1,a3
    8590:	4285d593          	srai	a1,a1,0x28
    8594:	ceb43823          	sd	a1,-784(s0)
    8598:	00b84663          	blt	a6,a1,85a4 <.LBB52_686>
    859c:	f8200593          	li	a1,-126
    85a0:	ceb43823          	sd	a1,-784(s0)

00000000000085a4 <.LBB52_686>:
    85a4:	000015b7          	lui	a1,0x1
    85a8:	40b405b3          	sub	a1,s0,a1
    85ac:	4785b583          	ld	a1,1144(a1) # 1478 <.LBB52_5+0xa0>
    85b0:	035585b3          	mul	a1,a1,s5
    85b4:	000016b7          	lui	a3,0x1
    85b8:	40d406b3          	sub	a3,s0,a3
    85bc:	4606b683          	ld	a3,1120(a3) # 1460 <.LBB52_5+0x88>
    85c0:	014686b3          	add	a3,a3,s4
    85c4:	00d585b3          	add	a1,a1,a3
    85c8:	4285d593          	srai	a1,a1,0x28
    85cc:	ceb43423          	sd	a1,-792(s0)
    85d0:	00b84663          	blt	a6,a1,85dc <.LBB52_688>
    85d4:	f8200593          	li	a1,-126
    85d8:	ceb43423          	sd	a1,-792(s0)

00000000000085dc <.LBB52_688>:
    85dc:	000015b7          	lui	a1,0x1
    85e0:	40b405b3          	sub	a1,s0,a1
    85e4:	4c85b583          	ld	a1,1224(a1) # 14c8 <.LBB52_5+0xf0>
    85e8:	035585b3          	mul	a1,a1,s5
    85ec:	000016b7          	lui	a3,0x1
    85f0:	40d406b3          	sub	a3,s0,a3
    85f4:	4b86b683          	ld	a3,1208(a3) # 14b8 <.LBB52_5+0xe0>
    85f8:	014686b3          	add	a3,a3,s4
    85fc:	00d585b3          	add	a1,a1,a3
    8600:	4285d593          	srai	a1,a1,0x28
    8604:	ceb43023          	sd	a1,-800(s0)
    8608:	00b84663          	blt	a6,a1,8614 <.LBB52_690>
    860c:	f8200593          	li	a1,-126
    8610:	ceb43023          	sd	a1,-800(s0)

0000000000008614 <.LBB52_690>:
    8614:	000015b7          	lui	a1,0x1
    8618:	40b405b3          	sub	a1,s0,a1
    861c:	5285b583          	ld	a1,1320(a1) # 1528 <.LBB52_5+0x150>
    8620:	035585b3          	mul	a1,a1,s5
    8624:	000016b7          	lui	a3,0x1
    8628:	40d406b3          	sub	a3,s0,a3
    862c:	5106b683          	ld	a3,1296(a3) # 1510 <.LBB52_5+0x138>
    8630:	014686b3          	add	a3,a3,s4
    8634:	00d585b3          	add	a1,a1,a3
    8638:	4285d593          	srai	a1,a1,0x28
    863c:	ccb43823          	sd	a1,-816(s0)
    8640:	00b84663          	blt	a6,a1,864c <.LBB52_692>
    8644:	f8200593          	li	a1,-126
    8648:	ccb43823          	sd	a1,-816(s0)

000000000000864c <.LBB52_692>:
    864c:	000015b7          	lui	a1,0x1
    8650:	40b405b3          	sub	a1,s0,a1
    8654:	5805b583          	ld	a1,1408(a1) # 1580 <.LBB52_5+0x1a8>
    8658:	035585b3          	mul	a1,a1,s5
    865c:	000016b7          	lui	a3,0x1
    8660:	40d406b3          	sub	a3,s0,a3
    8664:	5706b683          	ld	a3,1392(a3) # 1570 <.LBB52_5+0x198>
    8668:	014686b3          	add	a3,a3,s4
    866c:	00d585b3          	add	a1,a1,a3
    8670:	4285d593          	srai	a1,a1,0x28
    8674:	ccb43023          	sd	a1,-832(s0)
    8678:	00b84663          	blt	a6,a1,8684 <.LBB52_694>
    867c:	f8200593          	li	a1,-126
    8680:	ccb43023          	sd	a1,-832(s0)

0000000000008684 <.LBB52_694>:
    8684:	000015b7          	lui	a1,0x1
    8688:	40b405b3          	sub	a1,s0,a1
    868c:	5c05b583          	ld	a1,1472(a1) # 15c0 <.LBB52_5+0x1e8>
    8690:	035585b3          	mul	a1,a1,s5
    8694:	000016b7          	lui	a3,0x1
    8698:	40d406b3          	sub	a3,s0,a3
    869c:	5b06b683          	ld	a3,1456(a3) # 15b0 <.LBB52_5+0x1d8>
    86a0:	014686b3          	add	a3,a3,s4
    86a4:	00d585b3          	add	a1,a1,a3
    86a8:	4285d593          	srai	a1,a1,0x28
    86ac:	cab43823          	sd	a1,-848(s0)
    86b0:	00b84663          	blt	a6,a1,86bc <.LBB52_696>
    86b4:	f8200593          	li	a1,-126
    86b8:	cab43823          	sd	a1,-848(s0)

00000000000086bc <.LBB52_696>:
    86bc:	8c043583          	ld	a1,-1856(s0)
    86c0:	035585b3          	mul	a1,a1,s5
    86c4:	000016b7          	lui	a3,0x1
    86c8:	40d406b3          	sub	a3,s0,a3
    86cc:	7086b683          	ld	a3,1800(a3) # 1708 <.LBB52_5+0x330>
    86d0:	014686b3          	add	a3,a3,s4
    86d4:	00d585b3          	add	a1,a1,a3
    86d8:	4285d593          	srai	a1,a1,0x28
    86dc:	cab43023          	sd	a1,-864(s0)
    86e0:	00b84663          	blt	a6,a1,86ec <.LBB52_698>
    86e4:	f8200593          	li	a1,-126
    86e8:	cab43023          	sd	a1,-864(s0)

00000000000086ec <.LBB52_698>:
    86ec:	000015b7          	lui	a1,0x1
    86f0:	40b405b3          	sub	a1,s0,a1
    86f4:	7d85b583          	ld	a1,2008(a1) # 17d8 <.LBB52_5+0x400>
    86f8:	035585b3          	mul	a1,a1,s5
    86fc:	000016b7          	lui	a3,0x1
    8700:	40d406b3          	sub	a3,s0,a3
    8704:	7d06b683          	ld	a3,2000(a3) # 17d0 <.LBB52_5+0x3f8>
    8708:	014686b3          	add	a3,a3,s4
    870c:	00d585b3          	add	a1,a1,a3
    8710:	4285d593          	srai	a1,a1,0x28
    8714:	c8b43823          	sd	a1,-880(s0)
    8718:	00b84663          	blt	a6,a1,8724 <.LBB52_700>
    871c:	f8200593          	li	a1,-126
    8720:	c8b43823          	sd	a1,-880(s0)

0000000000008724 <.LBB52_700>:
    8724:	8b043583          	ld	a1,-1872(s0)
    8728:	035585b3          	mul	a1,a1,s5
    872c:	80043683          	ld	a3,-2048(s0)
    8730:	014686b3          	add	a3,a3,s4
    8734:	00d585b3          	add	a1,a1,a3
    8738:	4285d593          	srai	a1,a1,0x28
    873c:	c8b43023          	sd	a1,-896(s0)
    8740:	00b84663          	blt	a6,a1,874c <.LBB52_702>
    8744:	f8200593          	li	a1,-126
    8748:	c8b43023          	sd	a1,-896(s0)

000000000000874c <.LBB52_702>:
    874c:	87043583          	ld	a1,-1936(s0)
    8750:	035585b3          	mul	a1,a1,s5
    8754:	85843683          	ld	a3,-1960(s0)
    8758:	014686b3          	add	a3,a3,s4
    875c:	00d585b3          	add	a1,a1,a3
    8760:	4285d593          	srai	a1,a1,0x28
    8764:	c6b43823          	sd	a1,-912(s0)
    8768:	00b84663          	blt	a6,a1,8774 <.LBB52_704>
    876c:	f8200593          	li	a1,-126
    8770:	c6b43823          	sd	a1,-912(s0)

0000000000008774 <.LBB52_704>:
    8774:	8a043583          	ld	a1,-1888(s0)
    8778:	035585b3          	mul	a1,a1,s5
    877c:	87843683          	ld	a3,-1928(s0)
    8780:	014686b3          	add	a3,a3,s4
    8784:	00d585b3          	add	a1,a1,a3
    8788:	4285d593          	srai	a1,a1,0x28
    878c:	c6b43023          	sd	a1,-928(s0)
    8790:	00b84663          	blt	a6,a1,879c <.LBB52_706>
    8794:	f8200593          	li	a1,-126
    8798:	c6b43023          	sd	a1,-928(s0)

000000000000879c <.LBB52_706>:
    879c:	89843583          	ld	a1,-1896(s0)
    87a0:	035585b3          	mul	a1,a1,s5
    87a4:	88043683          	ld	a3,-1920(s0)
    87a8:	014686b3          	add	a3,a3,s4
    87ac:	00d585b3          	add	a1,a1,a3
    87b0:	4285d593          	srai	a1,a1,0x28
    87b4:	c4b43823          	sd	a1,-944(s0)
    87b8:	00b84663          	blt	a6,a1,87c4 <.LBB52_708>
    87bc:	f8200593          	li	a1,-126
    87c0:	c4b43823          	sd	a1,-944(s0)

00000000000087c4 <.LBB52_708>:
    87c4:	89043583          	ld	a1,-1904(s0)
    87c8:	035585b3          	mul	a1,a1,s5
    87cc:	014606b3          	add	a3,a2,s4
    87d0:	00d585b3          	add	a1,a1,a3
    87d4:	4285d593          	srai	a1,a1,0x28
    87d8:	c4b43023          	sd	a1,-960(s0)
    87dc:	00b84663          	blt	a6,a1,87e8 <.LBB52_710>
    87e0:	f8200593          	li	a1,-126
    87e4:	c4b43023          	sd	a1,-960(s0)

00000000000087e8 <.LBB52_710>:
    87e8:	000015b7          	lui	a1,0x1
    87ec:	40b405b3          	sub	a1,s0,a1
    87f0:	bc85b583          	ld	a1,-1080(a1) # bc8 <.LBB52_3+0x9e4>
    87f4:	035585b3          	mul	a1,a1,s5
    87f8:	00001637          	lui	a2,0x1
    87fc:	40c40633          	sub	a2,s0,a2
    8800:	bb863683          	ld	a3,-1096(a2) # bb8 <.LBB52_3+0x9d4>
    8804:	014686b3          	add	a3,a3,s4
    8808:	00d585b3          	add	a1,a1,a3
    880c:	4285d593          	srai	a1,a1,0x28
    8810:	ccb43c23          	sd	a1,-808(s0)
    8814:	00b84663          	blt	a6,a1,8820 <.LBB52_712>
    8818:	f8200593          	li	a1,-126
    881c:	ccb43c23          	sd	a1,-808(s0)

0000000000008820 <.LBB52_712>:
    8820:	000015b7          	lui	a1,0x1
    8824:	40b405b3          	sub	a1,s0,a1
    8828:	c005b583          	ld	a1,-1024(a1) # c00 <.LBB52_3+0xa1c>
    882c:	035585b3          	mul	a1,a1,s5
    8830:	00001637          	lui	a2,0x1
    8834:	40c40633          	sub	a2,s0,a2
    8838:	c5063683          	ld	a3,-944(a2) # c50 <.LBB52_3+0xa6c>
    883c:	014686b3          	add	a3,a3,s4
    8840:	00d585b3          	add	a1,a1,a3
    8844:	4285d593          	srai	a1,a1,0x28
    8848:	ccb43423          	sd	a1,-824(s0)
    884c:	00b84663          	blt	a6,a1,8858 <.LBB52_714>
    8850:	f8200593          	li	a1,-126
    8854:	ccb43423          	sd	a1,-824(s0)

0000000000008858 <.LBB52_714>:
    8858:	000015b7          	lui	a1,0x1
    885c:	40b405b3          	sub	a1,s0,a1
    8860:	c285b583          	ld	a1,-984(a1) # c28 <.LBB52_3+0xa44>
    8864:	035585b3          	mul	a1,a1,s5
    8868:	00001637          	lui	a2,0x1
    886c:	40c40633          	sub	a2,s0,a2
    8870:	c9063683          	ld	a3,-880(a2) # c90 <.LBB52_3+0xaac>
    8874:	014686b3          	add	a3,a3,s4
    8878:	00d585b3          	add	a1,a1,a3
    887c:	4285d593          	srai	a1,a1,0x28
    8880:	cab43c23          	sd	a1,-840(s0)
    8884:	00b84663          	blt	a6,a1,8890 <.LBB52_716>
    8888:	f8200593          	li	a1,-126
    888c:	cab43c23          	sd	a1,-840(s0)

0000000000008890 <.LBB52_716>:
    8890:	000015b7          	lui	a1,0x1
    8894:	40b405b3          	sub	a1,s0,a1
    8898:	cf85b583          	ld	a1,-776(a1) # cf8 <.LBB52_3+0xb14>
    889c:	035585b3          	mul	a1,a1,s5
    88a0:	00001637          	lui	a2,0x1
    88a4:	40c40633          	sub	a2,s0,a2
    88a8:	ce063603          	ld	a2,-800(a2) # ce0 <.LBB52_3+0xafc>
    88ac:	01460633          	add	a2,a2,s4
    88b0:	00c585b3          	add	a1,a1,a2
    88b4:	4285d593          	srai	a1,a1,0x28
    88b8:	cab43423          	sd	a1,-856(s0)
    88bc:	00b84663          	blt	a6,a1,88c8 <.LBB52_718>
    88c0:	f8200593          	li	a1,-126
    88c4:	cab43423          	sd	a1,-856(s0)

00000000000088c8 <.LBB52_718>:
    88c8:	000015b7          	lui	a1,0x1
    88cc:	40b405b3          	sub	a1,s0,a1
    88d0:	d705b583          	ld	a1,-656(a1) # d70 <.LBB52_3+0xb8c>
    88d4:	035585b3          	mul	a1,a1,s5
    88d8:	00001637          	lui	a2,0x1
    88dc:	40c40633          	sub	a2,s0,a2
    88e0:	d6063603          	ld	a2,-672(a2) # d60 <.LBB52_3+0xb7c>
    88e4:	01460633          	add	a2,a2,s4
    88e8:	00c585b3          	add	a1,a1,a2
    88ec:	4285d593          	srai	a1,a1,0x28
    88f0:	c8b43c23          	sd	a1,-872(s0)
    88f4:	00b84663          	blt	a6,a1,8900 <.LBB52_720>
    88f8:	f8200593          	li	a1,-126
    88fc:	c8b43c23          	sd	a1,-872(s0)

0000000000008900 <.LBB52_720>:
    8900:	000015b7          	lui	a1,0x1
    8904:	40b405b3          	sub	a1,s0,a1
    8908:	de85b583          	ld	a1,-536(a1) # de8 <.LBB52_3+0xc04>
    890c:	035585b3          	mul	a1,a1,s5
    8910:	00001637          	lui	a2,0x1
    8914:	40c40633          	sub	a2,s0,a2
    8918:	dd063603          	ld	a2,-560(a2) # dd0 <.LBB52_3+0xbec>
    891c:	01460633          	add	a2,a2,s4
    8920:	00c585b3          	add	a1,a1,a2
    8924:	4285d593          	srai	a1,a1,0x28
    8928:	c8b43423          	sd	a1,-888(s0)
    892c:	00b84663          	blt	a6,a1,8938 <.LBB52_722>
    8930:	f8200593          	li	a1,-126
    8934:	c8b43423          	sd	a1,-888(s0)

0000000000008938 <.LBB52_722>:
    8938:	000015b7          	lui	a1,0x1
    893c:	40b405b3          	sub	a1,s0,a1
    8940:	e585b583          	ld	a1,-424(a1) # e58 <.LBB52_4+0x28>
    8944:	035585b3          	mul	a1,a1,s5
    8948:	00001637          	lui	a2,0x1
    894c:	40c40633          	sub	a2,s0,a2
    8950:	e4863603          	ld	a2,-440(a2) # e48 <.LBB52_4+0x18>
    8954:	01460633          	add	a2,a2,s4
    8958:	00c585b3          	add	a1,a1,a2
    895c:	4285d593          	srai	a1,a1,0x28
    8960:	c6b43c23          	sd	a1,-904(s0)
    8964:	00b84663          	blt	a6,a1,8970 <.LBB52_724>
    8968:	f8200593          	li	a1,-126
    896c:	c6b43c23          	sd	a1,-904(s0)

0000000000008970 <.LBB52_724>:
    8970:	000015b7          	lui	a1,0x1
    8974:	40b405b3          	sub	a1,s0,a1
    8978:	ed05b583          	ld	a1,-304(a1) # ed0 <.LBB52_4+0xa0>
    897c:	035585b3          	mul	a1,a1,s5
    8980:	00001637          	lui	a2,0x1
    8984:	40c40633          	sub	a2,s0,a2
    8988:	eb863603          	ld	a2,-328(a2) # eb8 <.LBB52_4+0x88>
    898c:	01460633          	add	a2,a2,s4
    8990:	00c585b3          	add	a1,a1,a2
    8994:	4285d593          	srai	a1,a1,0x28
    8998:	c6b43423          	sd	a1,-920(s0)
    899c:	00b84663          	blt	a6,a1,89a8 <.LBB52_726>
    89a0:	f8200593          	li	a1,-126
    89a4:	c6b43423          	sd	a1,-920(s0)

00000000000089a8 <.LBB52_726>:
    89a8:	000015b7          	lui	a1,0x1
    89ac:	40b405b3          	sub	a1,s0,a1
    89b0:	f405b583          	ld	a1,-192(a1) # f40 <.LBB52_4+0x110>
    89b4:	035585b3          	mul	a1,a1,s5
    89b8:	00001637          	lui	a2,0x1
    89bc:	40c40633          	sub	a2,s0,a2
    89c0:	f3063603          	ld	a2,-208(a2) # f30 <.LBB52_4+0x100>
    89c4:	01460633          	add	a2,a2,s4
    89c8:	00c585b3          	add	a1,a1,a2
    89cc:	4285d593          	srai	a1,a1,0x28
    89d0:	c4b43c23          	sd	a1,-936(s0)
    89d4:	00b84663          	blt	a6,a1,89e0 <.LBB52_728>
    89d8:	f8200593          	li	a1,-126
    89dc:	c4b43c23          	sd	a1,-936(s0)

00000000000089e0 <.LBB52_728>:
    89e0:	000015b7          	lui	a1,0x1
    89e4:	40b405b3          	sub	a1,s0,a1
    89e8:	fb85b583          	ld	a1,-72(a1) # fb8 <.LBB52_4+0x188>
    89ec:	035585b3          	mul	a1,a1,s5
    89f0:	00001637          	lui	a2,0x1
    89f4:	40c40633          	sub	a2,s0,a2
    89f8:	fa063603          	ld	a2,-96(a2) # fa0 <.LBB52_4+0x170>
    89fc:	01460633          	add	a2,a2,s4
    8a00:	00c585b3          	add	a1,a1,a2
    8a04:	4285d593          	srai	a1,a1,0x28
    8a08:	c4b43423          	sd	a1,-952(s0)
    8a0c:	00b84663          	blt	a6,a1,8a18 <.LBB52_730>
    8a10:	f8200593          	li	a1,-126
    8a14:	c4b43423          	sd	a1,-952(s0)

0000000000008a18 <.LBB52_730>:
    8a18:	000015b7          	lui	a1,0x1
    8a1c:	40b405b3          	sub	a1,s0,a1
    8a20:	0305b583          	ld	a1,48(a1) # 1030 <.LBB52_4+0x200>
    8a24:	035585b3          	mul	a1,a1,s5
    8a28:	00001637          	lui	a2,0x1
    8a2c:	40c40633          	sub	a2,s0,a2
    8a30:	02063603          	ld	a2,32(a2) # 1020 <.LBB52_4+0x1f0>
    8a34:	01460633          	add	a2,a2,s4
    8a38:	00c585b3          	add	a1,a1,a2
    8a3c:	4285d593          	srai	a1,a1,0x28
    8a40:	c2b43c23          	sd	a1,-968(s0)
    8a44:	00b84663          	blt	a6,a1,8a50 <.LBB52_732>
    8a48:	f8200593          	li	a1,-126
    8a4c:	c2b43c23          	sd	a1,-968(s0)

0000000000008a50 <.LBB52_732>:
    8a50:	000015b7          	lui	a1,0x1
    8a54:	40b405b3          	sub	a1,s0,a1
    8a58:	0a85b583          	ld	a1,168(a1) # 10a8 <.LBB52_4+0x278>
    8a5c:	035585b3          	mul	a1,a1,s5
    8a60:	00001637          	lui	a2,0x1
    8a64:	40c40633          	sub	a2,s0,a2
    8a68:	09863603          	ld	a2,152(a2) # 1098 <.LBB52_4+0x268>
    8a6c:	01460633          	add	a2,a2,s4
    8a70:	00c585b3          	add	a1,a1,a2
    8a74:	4285d593          	srai	a1,a1,0x28
    8a78:	c2b43823          	sd	a1,-976(s0)
    8a7c:	00b84663          	blt	a6,a1,8a88 <.LBB52_734>
    8a80:	f8200593          	li	a1,-126
    8a84:	c2b43823          	sd	a1,-976(s0)

0000000000008a88 <.LBB52_734>:
    8a88:	000015b7          	lui	a1,0x1
    8a8c:	40b405b3          	sub	a1,s0,a1
    8a90:	1205b583          	ld	a1,288(a1) # 1120 <.LBB52_4+0x2f0>
    8a94:	035585b3          	mul	a1,a1,s5
    8a98:	00001637          	lui	a2,0x1
    8a9c:	40c40633          	sub	a2,s0,a2
    8aa0:	11063603          	ld	a2,272(a2) # 1110 <.LBB52_4+0x2e0>
    8aa4:	01460633          	add	a2,a2,s4
    8aa8:	00c585b3          	add	a1,a1,a2
    8aac:	4285d593          	srai	a1,a1,0x28
    8ab0:	c2b43423          	sd	a1,-984(s0)
    8ab4:	00b84663          	blt	a6,a1,8ac0 <.LBB52_736>
    8ab8:	f8200593          	li	a1,-126
    8abc:	c2b43423          	sd	a1,-984(s0)

0000000000008ac0 <.LBB52_736>:
    8ac0:	000015b7          	lui	a1,0x1
    8ac4:	40b405b3          	sub	a1,s0,a1
    8ac8:	1985b583          	ld	a1,408(a1) # 1198 <.LBB52_4+0x368>
    8acc:	035585b3          	mul	a1,a1,s5
    8ad0:	00001637          	lui	a2,0x1
    8ad4:	40c40633          	sub	a2,s0,a2
    8ad8:	18863603          	ld	a2,392(a2) # 1188 <.LBB52_4+0x358>
    8adc:	01460633          	add	a2,a2,s4
    8ae0:	00c585b3          	add	a1,a1,a2
    8ae4:	4285d593          	srai	a1,a1,0x28
    8ae8:	c2b43023          	sd	a1,-992(s0)
    8aec:	00b84663          	blt	a6,a1,8af8 <.LBB52_738>
    8af0:	f8200593          	li	a1,-126
    8af4:	c2b43023          	sd	a1,-992(s0)

0000000000008af8 <.LBB52_738>:
    8af8:	000015b7          	lui	a1,0x1
    8afc:	40b405b3          	sub	a1,s0,a1
    8b00:	2105b583          	ld	a1,528(a1) # 1210 <.LBB52_4+0x3e0>
    8b04:	035585b3          	mul	a1,a1,s5
    8b08:	00001637          	lui	a2,0x1
    8b0c:	40c40633          	sub	a2,s0,a2
    8b10:	20063603          	ld	a2,512(a2) # 1200 <.LBB52_4+0x3d0>
    8b14:	01460633          	add	a2,a2,s4
    8b18:	00c585b3          	add	a1,a1,a2
    8b1c:	4285d593          	srai	a1,a1,0x28
    8b20:	c0b43c23          	sd	a1,-1000(s0)
    8b24:	00b84663          	blt	a6,a1,8b30 <.LBB52_740>
    8b28:	f8200593          	li	a1,-126
    8b2c:	c0b43c23          	sd	a1,-1000(s0)

0000000000008b30 <.LBB52_740>:
    8b30:	000015b7          	lui	a1,0x1
    8b34:	40b405b3          	sub	a1,s0,a1
    8b38:	2885b583          	ld	a1,648(a1) # 1288 <.LBB52_4+0x458>
    8b3c:	035585b3          	mul	a1,a1,s5
    8b40:	00001637          	lui	a2,0x1
    8b44:	40c40633          	sub	a2,s0,a2
    8b48:	27863603          	ld	a2,632(a2) # 1278 <.LBB52_4+0x448>
    8b4c:	01460633          	add	a2,a2,s4
    8b50:	00c585b3          	add	a1,a1,a2
    8b54:	4285d593          	srai	a1,a1,0x28
    8b58:	c0b43823          	sd	a1,-1008(s0)
    8b5c:	00b84663          	blt	a6,a1,8b68 <.LBB52_742>
    8b60:	f8200593          	li	a1,-126
    8b64:	c0b43823          	sd	a1,-1008(s0)

0000000000008b68 <.LBB52_742>:
    8b68:	a0843583          	ld	a1,-1528(s0)
    8b6c:	035585b3          	mul	a1,a1,s5
    8b70:	00001637          	lui	a2,0x1
    8b74:	40c40633          	sub	a2,s0,a2
    8b78:	2e863603          	ld	a2,744(a2) # 12e8 <.LBB52_4+0x4b8>
    8b7c:	01460633          	add	a2,a2,s4
    8b80:	00c585b3          	add	a1,a1,a2
    8b84:	4285d593          	srai	a1,a1,0x28
    8b88:	c0b43423          	sd	a1,-1016(s0)
    8b8c:	00b84663          	blt	a6,a1,8b98 <.LBB52_744>
    8b90:	f8200593          	li	a1,-126
    8b94:	c0b43423          	sd	a1,-1016(s0)

0000000000008b98 <.LBB52_744>:
    8b98:	a0043583          	ld	a1,-1536(s0)
    8b9c:	035585b3          	mul	a1,a1,s5
    8ba0:	00001637          	lui	a2,0x1
    8ba4:	40c40633          	sub	a2,s0,a2
    8ba8:	34863603          	ld	a2,840(a2) # 1348 <.LBB52_4+0x518>
    8bac:	01460633          	add	a2,a2,s4
    8bb0:	00c585b3          	add	a1,a1,a2
    8bb4:	4285d593          	srai	a1,a1,0x28
    8bb8:	c0b43023          	sd	a1,-1024(s0)
    8bbc:	00b84663          	blt	a6,a1,8bc8 <.LBB52_746>
    8bc0:	f8200593          	li	a1,-126
    8bc4:	c0b43023          	sd	a1,-1024(s0)

0000000000008bc8 <.LBB52_746>:
    8bc8:	9f843583          	ld	a1,-1544(s0)
    8bcc:	035585b3          	mul	a1,a1,s5
    8bd0:	00001637          	lui	a2,0x1
    8bd4:	40c40633          	sub	a2,s0,a2
    8bd8:	3a863603          	ld	a2,936(a2) # 13a8 <.LBB52_4+0x578>
    8bdc:	01460633          	add	a2,a2,s4
    8be0:	00c585b3          	add	a1,a1,a2
    8be4:	4285d593          	srai	a1,a1,0x28
    8be8:	beb43c23          	sd	a1,-1032(s0)
    8bec:	00b84663          	blt	a6,a1,8bf8 <.LBB52_748>
    8bf0:	f8200593          	li	a1,-126
    8bf4:	beb43c23          	sd	a1,-1032(s0)

0000000000008bf8 <.LBB52_748>:
    8bf8:	9f043583          	ld	a1,-1552(s0)
    8bfc:	035585b3          	mul	a1,a1,s5
    8c00:	00001637          	lui	a2,0x1
    8c04:	40c40633          	sub	a2,s0,a2
    8c08:	40063603          	ld	a2,1024(a2) # 1400 <.LBB52_5+0x28>
    8c0c:	01460633          	add	a2,a2,s4
    8c10:	00c585b3          	add	a1,a1,a2
    8c14:	4285d593          	srai	a1,a1,0x28
    8c18:	beb43823          	sd	a1,-1040(s0)
    8c1c:	00b84663          	blt	a6,a1,8c28 <.LBB52_750>
    8c20:	f8200593          	li	a1,-126
    8c24:	beb43823          	sd	a1,-1040(s0)

0000000000008c28 <.LBB52_750>:
    8c28:	9e843583          	ld	a1,-1560(s0)
    8c2c:	035585b3          	mul	a1,a1,s5
    8c30:	00001637          	lui	a2,0x1
    8c34:	40c40633          	sub	a2,s0,a2
    8c38:	45863603          	ld	a2,1112(a2) # 1458 <.LBB52_5+0x80>
    8c3c:	01460633          	add	a2,a2,s4
    8c40:	00c585b3          	add	a1,a1,a2
    8c44:	4285d593          	srai	a1,a1,0x28
    8c48:	beb43423          	sd	a1,-1048(s0)
    8c4c:	00b84663          	blt	a6,a1,8c58 <.LBB52_752>
    8c50:	f8200593          	li	a1,-126
    8c54:	beb43423          	sd	a1,-1048(s0)

0000000000008c58 <.LBB52_752>:
    8c58:	9e043583          	ld	a1,-1568(s0)
    8c5c:	035585b3          	mul	a1,a1,s5
    8c60:	00001637          	lui	a2,0x1
    8c64:	40c40633          	sub	a2,s0,a2
    8c68:	4b063603          	ld	a2,1200(a2) # 14b0 <.LBB52_5+0xd8>
    8c6c:	01460633          	add	a2,a2,s4
    8c70:	00c585b3          	add	a1,a1,a2
    8c74:	4285d593          	srai	a1,a1,0x28
    8c78:	beb43023          	sd	a1,-1056(s0)
    8c7c:	00b84663          	blt	a6,a1,8c88 <.LBB52_754>
    8c80:	f8200593          	li	a1,-126
    8c84:	beb43023          	sd	a1,-1056(s0)

0000000000008c88 <.LBB52_754>:
    8c88:	000015b7          	lui	a1,0x1
    8c8c:	40b405b3          	sub	a1,s0,a1
    8c90:	5185b583          	ld	a1,1304(a1) # 1518 <.LBB52_5+0x140>
    8c94:	035585b3          	mul	a1,a1,s5
    8c98:	00001637          	lui	a2,0x1
    8c9c:	40c40633          	sub	a2,s0,a2
    8ca0:	50863603          	ld	a2,1288(a2) # 1508 <.LBB52_5+0x130>
    8ca4:	01460633          	add	a2,a2,s4
    8ca8:	00c585b3          	add	a1,a1,a2
    8cac:	4285d593          	srai	a1,a1,0x28
    8cb0:	bcb43823          	sd	a1,-1072(s0)
    8cb4:	00b84663          	blt	a6,a1,8cc0 <.LBB52_756>
    8cb8:	f8200593          	li	a1,-126
    8cbc:	bcb43823          	sd	a1,-1072(s0)

0000000000008cc0 <.LBB52_756>:
    8cc0:	9d043583          	ld	a1,-1584(s0)
    8cc4:	035585b3          	mul	a1,a1,s5
    8cc8:	00001637          	lui	a2,0x1
    8ccc:	40c40633          	sub	a2,s0,a2
    8cd0:	56863603          	ld	a2,1384(a2) # 1568 <.LBB52_5+0x190>
    8cd4:	01460633          	add	a2,a2,s4
    8cd8:	00c585b3          	add	a1,a1,a2
    8cdc:	4285d593          	srai	a1,a1,0x28
    8ce0:	bcb43023          	sd	a1,-1088(s0)
    8ce4:	00b84663          	blt	a6,a1,8cf0 <.LBB52_758>
    8ce8:	f8200593          	li	a1,-126
    8cec:	bcb43023          	sd	a1,-1088(s0)

0000000000008cf0 <.LBB52_758>:
    8cf0:	8f043583          	ld	a1,-1808(s0)
    8cf4:	035585b3          	mul	a1,a1,s5
    8cf8:	8e843603          	ld	a2,-1816(s0)
    8cfc:	01460633          	add	a2,a2,s4
    8d00:	00c585b3          	add	a1,a1,a2
    8d04:	4285d593          	srai	a1,a1,0x28
    8d08:	bab43823          	sd	a1,-1104(s0)
    8d0c:	00b84663          	blt	a6,a1,8d18 <.LBB52_760>
    8d10:	f8200593          	li	a1,-126
    8d14:	bab43823          	sd	a1,-1104(s0)

0000000000008d18 <.LBB52_760>:
    8d18:	9c043583          	ld	a1,-1600(s0)
    8d1c:	035585b3          	mul	a1,a1,s5
    8d20:	90843603          	ld	a2,-1784(s0)
    8d24:	01460633          	add	a2,a2,s4
    8d28:	00c585b3          	add	a1,a1,a2
    8d2c:	4285d593          	srai	a1,a1,0x28
    8d30:	bab43023          	sd	a1,-1120(s0)
    8d34:	00b84663          	blt	a6,a1,8d40 <.LBB52_762>
    8d38:	f8200593          	li	a1,-126
    8d3c:	bab43023          	sd	a1,-1120(s0)

0000000000008d40 <.LBB52_762>:
    8d40:	92843583          	ld	a1,-1752(s0)
    8d44:	035585b3          	mul	a1,a1,s5
    8d48:	92043603          	ld	a2,-1760(s0)
    8d4c:	01460633          	add	a2,a2,s4
    8d50:	00c585b3          	add	a1,a1,a2
    8d54:	4285d593          	srai	a1,a1,0x28
    8d58:	b8b43823          	sd	a1,-1136(s0)
    8d5c:	00b84663          	blt	a6,a1,8d68 <.LBB52_764>
    8d60:	f8200593          	li	a1,-126
    8d64:	b8b43823          	sd	a1,-1136(s0)

0000000000008d68 <.LBB52_764>:
    8d68:	9b043583          	ld	a1,-1616(s0)
    8d6c:	035585b3          	mul	a1,a1,s5
    8d70:	94043603          	ld	a2,-1728(s0)
    8d74:	01460633          	add	a2,a2,s4
    8d78:	00c585b3          	add	a1,a1,a2
    8d7c:	4285d593          	srai	a1,a1,0x28
    8d80:	b8b43023          	sd	a1,-1152(s0)
    8d84:	00b84663          	blt	a6,a1,8d90 <.LBB52_766>
    8d88:	f8200593          	li	a1,-126
    8d8c:	b8b43023          	sd	a1,-1152(s0)

0000000000008d90 <.LBB52_766>:
    8d90:	97043583          	ld	a1,-1680(s0)
    8d94:	035585b3          	mul	a1,a1,s5
    8d98:	95843603          	ld	a2,-1704(s0)
    8d9c:	01460633          	add	a2,a2,s4
    8da0:	00c585b3          	add	a1,a1,a2
    8da4:	4285d593          	srai	a1,a1,0x28
    8da8:	b6b43823          	sd	a1,-1168(s0)
    8dac:	00b84663          	blt	a6,a1,8db8 <.LBB52_768>
    8db0:	f8200593          	li	a1,-126
    8db4:	b6b43823          	sd	a1,-1168(s0)

0000000000008db8 <.LBB52_768>:
    8db8:	9a043583          	ld	a1,-1632(s0)
    8dbc:	035585b3          	mul	a1,a1,s5
    8dc0:	97843603          	ld	a2,-1672(s0)
    8dc4:	01460633          	add	a2,a2,s4
    8dc8:	00c585b3          	add	a1,a1,a2
    8dcc:	4285d593          	srai	a1,a1,0x28
    8dd0:	b6b43023          	sd	a1,-1184(s0)
    8dd4:	00b84663          	blt	a6,a1,8de0 <.LBB52_770>
    8dd8:	f8200593          	li	a1,-126
    8ddc:	b6b43023          	sd	a1,-1184(s0)

0000000000008de0 <.LBB52_770>:
    8de0:	99843583          	ld	a1,-1640(s0)
    8de4:	035585b3          	mul	a1,a1,s5
    8de8:	98043603          	ld	a2,-1664(s0)
    8dec:	01460633          	add	a2,a2,s4
    8df0:	00c585b3          	add	a1,a1,a2
    8df4:	4285d593          	srai	a1,a1,0x28
    8df8:	b4b43823          	sd	a1,-1200(s0)
    8dfc:	00b84663          	blt	a6,a1,8e08 <.LBB52_772>
    8e00:	f8200593          	li	a1,-126
    8e04:	b4b43823          	sd	a1,-1200(s0)

0000000000008e08 <.LBB52_772>:
    8e08:	99043583          	ld	a1,-1648(s0)
    8e0c:	035585b3          	mul	a1,a1,s5
    8e10:	98843603          	ld	a2,-1656(s0)
    8e14:	01460633          	add	a2,a2,s4
    8e18:	00c585b3          	add	a1,a1,a2
    8e1c:	4285d593          	srai	a1,a1,0x28
    8e20:	b4b43023          	sd	a1,-1216(s0)
    8e24:	00b84663          	blt	a6,a1,8e30 <.LBB52_774>
    8e28:	f8200593          	li	a1,-126
    8e2c:	b4b43023          	sd	a1,-1216(s0)

0000000000008e30 <.LBB52_774>:
    8e30:	b8843583          	ld	a1,-1144(s0)
    8e34:	035585b3          	mul	a1,a1,s5
    8e38:	00001637          	lui	a2,0x1
    8e3c:	40c40633          	sub	a2,s0,a2
    8e40:	bb063603          	ld	a2,-1104(a2) # bb0 <.LBB52_3+0x9cc>
    8e44:	01460633          	add	a2,a2,s4
    8e48:	00c585b3          	add	a1,a1,a2
    8e4c:	4285d593          	srai	a1,a1,0x28
    8e50:	bcb43c23          	sd	a1,-1064(s0)
    8e54:	00b84663          	blt	a6,a1,8e60 <.LBB52_776>
    8e58:	f8200593          	li	a1,-126
    8e5c:	bcb43c23          	sd	a1,-1064(s0)

0000000000008e60 <.LBB52_776>:
    8e60:	000015b7          	lui	a1,0x1
    8e64:	40b405b3          	sub	a1,s0,a1
    8e68:	bf85b583          	ld	a1,-1032(a1) # bf8 <.LBB52_3+0xa14>
    8e6c:	035585b3          	mul	a1,a1,s5
    8e70:	00001637          	lui	a2,0x1
    8e74:	40c40633          	sub	a2,s0,a2
    8e78:	c4863603          	ld	a2,-952(a2) # c48 <.LBB52_3+0xa64>
    8e7c:	01460633          	add	a2,a2,s4
    8e80:	00c585b3          	add	a1,a1,a2
    8e84:	4285d593          	srai	a1,a1,0x28
    8e88:	bcb43423          	sd	a1,-1080(s0)
    8e8c:	00b84663          	blt	a6,a1,8e98 <.LBB52_778>
    8e90:	f8200593          	li	a1,-126
    8e94:	bcb43423          	sd	a1,-1080(s0)

0000000000008e98 <.LBB52_778>:
    8e98:	000015b7          	lui	a1,0x1
    8e9c:	40b405b3          	sub	a1,s0,a1
    8ea0:	c185b583          	ld	a1,-1000(a1) # c18 <.LBB52_3+0xa34>
    8ea4:	035585b3          	mul	a1,a1,s5
    8ea8:	b7843603          	ld	a2,-1160(s0)
    8eac:	01460633          	add	a2,a2,s4
    8eb0:	00c585b3          	add	a1,a1,a2
    8eb4:	4285d593          	srai	a1,a1,0x28
    8eb8:	bab43c23          	sd	a1,-1096(s0)
    8ebc:	00b84663          	blt	a6,a1,8ec8 <.LBB52_780>
    8ec0:	f8200593          	li	a1,-126
    8ec4:	bab43c23          	sd	a1,-1096(s0)

0000000000008ec8 <.LBB52_780>:
    8ec8:	000015b7          	lui	a1,0x1
    8ecc:	40b405b3          	sub	a1,s0,a1
    8ed0:	ce85b583          	ld	a1,-792(a1) # ce8 <.LBB52_3+0xb04>
    8ed4:	035585b3          	mul	a1,a1,s5
    8ed8:	00001637          	lui	a2,0x1
    8edc:	40c40633          	sub	a2,s0,a2
    8ee0:	cd863603          	ld	a2,-808(a2) # cd8 <.LBB52_3+0xaf4>
    8ee4:	01460633          	add	a2,a2,s4
    8ee8:	00c585b3          	add	a1,a1,a2
    8eec:	4285d593          	srai	a1,a1,0x28
    8ef0:	bab43423          	sd	a1,-1112(s0)
    8ef4:	00b84663          	blt	a6,a1,8f00 <.LBB52_782>
    8ef8:	f8200593          	li	a1,-126
    8efc:	bab43423          	sd	a1,-1112(s0)

0000000000008f00 <.LBB52_782>:
    8f00:	b6843583          	ld	a1,-1176(s0)
    8f04:	035585b3          	mul	a1,a1,s5
    8f08:	00001637          	lui	a2,0x1
    8f0c:	40c40633          	sub	a2,s0,a2
    8f10:	d5063603          	ld	a2,-688(a2) # d50 <.LBB52_3+0xb6c>
    8f14:	01460633          	add	a2,a2,s4
    8f18:	00c585b3          	add	a1,a1,a2
    8f1c:	4285d593          	srai	a1,a1,0x28
    8f20:	b8b43c23          	sd	a1,-1128(s0)
    8f24:	00b84663          	blt	a6,a1,8f30 <.LBB52_784>
    8f28:	f8200593          	li	a1,-126
    8f2c:	b8b43c23          	sd	a1,-1128(s0)

0000000000008f30 <.LBB52_784>:
    8f30:	000015b7          	lui	a1,0x1
    8f34:	40b405b3          	sub	a1,s0,a1
    8f38:	dd85b583          	ld	a1,-552(a1) # dd8 <.LBB52_3+0xbf4>
    8f3c:	035585b3          	mul	a1,a1,s5
    8f40:	00001637          	lui	a2,0x1
    8f44:	40c40633          	sub	a2,s0,a2
    8f48:	dc063603          	ld	a2,-576(a2) # dc0 <.LBB52_3+0xbdc>
    8f4c:	01460633          	add	a2,a2,s4
    8f50:	00c585b3          	add	a1,a1,a2
    8f54:	4285d593          	srai	a1,a1,0x28
    8f58:	b8b43423          	sd	a1,-1144(s0)
    8f5c:	00b84663          	blt	a6,a1,8f68 <.LBB52_786>
    8f60:	f8200593          	li	a1,-126
    8f64:	b8b43423          	sd	a1,-1144(s0)

0000000000008f68 <.LBB52_786>:
    8f68:	b5843583          	ld	a1,-1192(s0)
    8f6c:	035585b3          	mul	a1,a1,s5
    8f70:	00001637          	lui	a2,0x1
    8f74:	40c40633          	sub	a2,s0,a2
    8f78:	e3863603          	ld	a2,-456(a2) # e38 <.LBB52_4+0x8>
    8f7c:	01460633          	add	a2,a2,s4
    8f80:	00c585b3          	add	a1,a1,a2
    8f84:	4285d593          	srai	a1,a1,0x28
    8f88:	b6b43c23          	sd	a1,-1160(s0)
    8f8c:	00b84663          	blt	a6,a1,8f98 <.LBB52_788>
    8f90:	f8200593          	li	a1,-126
    8f94:	b6b43c23          	sd	a1,-1160(s0)

0000000000008f98 <.LBB52_788>:
    8f98:	000015b7          	lui	a1,0x1
    8f9c:	40b405b3          	sub	a1,s0,a1
    8fa0:	ec05b583          	ld	a1,-320(a1) # ec0 <.LBB52_4+0x90>
    8fa4:	035585b3          	mul	a1,a1,s5
    8fa8:	00001637          	lui	a2,0x1
    8fac:	40c40633          	sub	a2,s0,a2
    8fb0:	ea863603          	ld	a2,-344(a2) # ea8 <.LBB52_4+0x78>
    8fb4:	01460633          	add	a2,a2,s4
    8fb8:	00c585b3          	add	a1,a1,a2
    8fbc:	4285d593          	srai	a1,a1,0x28
    8fc0:	b6b43423          	sd	a1,-1176(s0)
    8fc4:	00b84663          	blt	a6,a1,8fd0 <.LBB52_790>
    8fc8:	f8200593          	li	a1,-126
    8fcc:	b6b43423          	sd	a1,-1176(s0)

0000000000008fd0 <.LBB52_790>:
    8fd0:	b4843583          	ld	a1,-1208(s0)
    8fd4:	035585b3          	mul	a1,a1,s5
    8fd8:	00001637          	lui	a2,0x1
    8fdc:	40c40633          	sub	a2,s0,a2
    8fe0:	f2063603          	ld	a2,-224(a2) # f20 <.LBB52_4+0xf0>
    8fe4:	01460633          	add	a2,a2,s4
    8fe8:	00c585b3          	add	a1,a1,a2
    8fec:	4285d593          	srai	a1,a1,0x28
    8ff0:	b4b43c23          	sd	a1,-1192(s0)
    8ff4:	00b84663          	blt	a6,a1,9000 <.LBB52_792>
    8ff8:	f8200593          	li	a1,-126
    8ffc:	b4b43c23          	sd	a1,-1192(s0)

0000000000009000 <.LBB52_792>:
    9000:	000015b7          	lui	a1,0x1
    9004:	40b405b3          	sub	a1,s0,a1
    9008:	fa85b583          	ld	a1,-88(a1) # fa8 <.LBB52_4+0x178>
    900c:	035585b3          	mul	a1,a1,s5
    9010:	00001637          	lui	a2,0x1
    9014:	40c40633          	sub	a2,s0,a2
    9018:	f9063603          	ld	a2,-112(a2) # f90 <.LBB52_4+0x160>
    901c:	01460633          	add	a2,a2,s4
    9020:	00c585b3          	add	a1,a1,a2
    9024:	4285d593          	srai	a1,a1,0x28
    9028:	b4b43423          	sd	a1,-1208(s0)
    902c:	00b84663          	blt	a6,a1,9038 <.LBB52_794>
    9030:	f8200593          	li	a1,-126
    9034:	b4b43423          	sd	a1,-1208(s0)

0000000000009038 <.LBB52_794>:
    9038:	b3843583          	ld	a1,-1224(s0)
    903c:	035585b3          	mul	a1,a1,s5
    9040:	00001637          	lui	a2,0x1
    9044:	40c40633          	sub	a2,s0,a2
    9048:	01063603          	ld	a2,16(a2) # 1010 <.LBB52_4+0x1e0>
    904c:	01460633          	add	a2,a2,s4
    9050:	00c585b3          	add	a1,a1,a2
    9054:	4285d593          	srai	a1,a1,0x28
    9058:	b2b43c23          	sd	a1,-1224(s0)
    905c:	00b84663          	blt	a6,a1,9068 <.LBB52_796>
    9060:	f8200593          	li	a1,-126
    9064:	b2b43c23          	sd	a1,-1224(s0)

0000000000009068 <.LBB52_796>:
    9068:	b3043583          	ld	a1,-1232(s0)
    906c:	035585b3          	mul	a1,a1,s5
    9070:	00001637          	lui	a2,0x1
    9074:	40c40633          	sub	a2,s0,a2
    9078:	08863603          	ld	a2,136(a2) # 1088 <.LBB52_4+0x258>
    907c:	01460633          	add	a2,a2,s4
    9080:	00c585b3          	add	a1,a1,a2
    9084:	4285d593          	srai	a1,a1,0x28
    9088:	b2b43823          	sd	a1,-1232(s0)
    908c:	00b84663          	blt	a6,a1,9098 <.LBB52_798>
    9090:	f8200593          	li	a1,-126
    9094:	b2b43823          	sd	a1,-1232(s0)

0000000000009098 <.LBB52_798>:
    9098:	b2843583          	ld	a1,-1240(s0)
    909c:	035585b3          	mul	a1,a1,s5
    90a0:	00001637          	lui	a2,0x1
    90a4:	40c40633          	sub	a2,s0,a2
    90a8:	10063603          	ld	a2,256(a2) # 1100 <.LBB52_4+0x2d0>
    90ac:	01460633          	add	a2,a2,s4
    90b0:	00c585b3          	add	a1,a1,a2
    90b4:	4285d593          	srai	a1,a1,0x28
    90b8:	b2b43423          	sd	a1,-1240(s0)
    90bc:	00b84663          	blt	a6,a1,90c8 <.LBB52_800>
    90c0:	f8200593          	li	a1,-126
    90c4:	b2b43423          	sd	a1,-1240(s0)

00000000000090c8 <.LBB52_800>:
    90c8:	b2043583          	ld	a1,-1248(s0)
    90cc:	035585b3          	mul	a1,a1,s5
    90d0:	00001637          	lui	a2,0x1
    90d4:	40c40633          	sub	a2,s0,a2
    90d8:	17863603          	ld	a2,376(a2) # 1178 <.LBB52_4+0x348>
    90dc:	01460633          	add	a2,a2,s4
    90e0:	00c585b3          	add	a1,a1,a2
    90e4:	4285d593          	srai	a1,a1,0x28
    90e8:	b2b43023          	sd	a1,-1248(s0)
    90ec:	00b84663          	blt	a6,a1,90f8 <.LBB52_802>
    90f0:	f8200593          	li	a1,-126
    90f4:	b2b43023          	sd	a1,-1248(s0)

00000000000090f8 <.LBB52_802>:
    90f8:	b1843583          	ld	a1,-1256(s0)
    90fc:	035585b3          	mul	a1,a1,s5
    9100:	00001637          	lui	a2,0x1
    9104:	40c40633          	sub	a2,s0,a2
    9108:	1f063603          	ld	a2,496(a2) # 11f0 <.LBB52_4+0x3c0>
    910c:	01460633          	add	a2,a2,s4
    9110:	00c585b3          	add	a1,a1,a2
    9114:	4285d593          	srai	a1,a1,0x28
    9118:	b0b43c23          	sd	a1,-1256(s0)
    911c:	00b84663          	blt	a6,a1,9128 <.LBB52_804>
    9120:	f8200593          	li	a1,-126
    9124:	b0b43c23          	sd	a1,-1256(s0)

0000000000009128 <.LBB52_804>:
    9128:	b1043583          	ld	a1,-1264(s0)
    912c:	035585b3          	mul	a1,a1,s5
    9130:	00001637          	lui	a2,0x1
    9134:	40c40633          	sub	a2,s0,a2
    9138:	26863603          	ld	a2,616(a2) # 1268 <.LBB52_4+0x438>
    913c:	01460633          	add	a2,a2,s4
    9140:	00c585b3          	add	a1,a1,a2
    9144:	4285d593          	srai	a1,a1,0x28
    9148:	b0b43823          	sd	a1,-1264(s0)
    914c:	00b84663          	blt	a6,a1,9158 <.LBB52_806>
    9150:	f8200593          	li	a1,-126
    9154:	b0b43823          	sd	a1,-1264(s0)

0000000000009158 <.LBB52_806>:
    9158:	b0843583          	ld	a1,-1272(s0)
    915c:	035585b3          	mul	a1,a1,s5
    9160:	a1043603          	ld	a2,-1520(s0)
    9164:	01460633          	add	a2,a2,s4
    9168:	00c585b3          	add	a1,a1,a2
    916c:	4285d593          	srai	a1,a1,0x28
    9170:	b0b43423          	sd	a1,-1272(s0)
    9174:	00b84663          	blt	a6,a1,9180 <.LBB52_808>
    9178:	f8200593          	li	a1,-126
    917c:	b0b43423          	sd	a1,-1272(s0)

0000000000009180 <.LBB52_808>:
    9180:	b0043583          	ld	a1,-1280(s0)
    9184:	035585b3          	mul	a1,a1,s5
    9188:	a1843603          	ld	a2,-1512(s0)
    918c:	01460633          	add	a2,a2,s4
    9190:	00c585b3          	add	a1,a1,a2
    9194:	4285d593          	srai	a1,a1,0x28
    9198:	b0b43023          	sd	a1,-1280(s0)
    919c:	00b84663          	blt	a6,a1,91a8 <.LBB52_810>
    91a0:	f8200593          	li	a1,-126
    91a4:	b0b43023          	sd	a1,-1280(s0)

00000000000091a8 <.LBB52_810>:
    91a8:	af843583          	ld	a1,-1288(s0)
    91ac:	035585b3          	mul	a1,a1,s5
    91b0:	a2043603          	ld	a2,-1504(s0)
    91b4:	01460633          	add	a2,a2,s4
    91b8:	00c585b3          	add	a1,a1,a2
    91bc:	4285d593          	srai	a1,a1,0x28
    91c0:	aeb43c23          	sd	a1,-1288(s0)
    91c4:	00b84663          	blt	a6,a1,91d0 <.LBB52_812>
    91c8:	f8200593          	li	a1,-126
    91cc:	aeb43c23          	sd	a1,-1288(s0)

00000000000091d0 <.LBB52_812>:
    91d0:	af043583          	ld	a1,-1296(s0)
    91d4:	035585b3          	mul	a1,a1,s5
    91d8:	a2843603          	ld	a2,-1496(s0)
    91dc:	01460633          	add	a2,a2,s4
    91e0:	00c585b3          	add	a1,a1,a2
    91e4:	4285d593          	srai	a1,a1,0x28
    91e8:	aeb43823          	sd	a1,-1296(s0)
    91ec:	00b84663          	blt	a6,a1,91f8 <.LBB52_814>
    91f0:	f8200593          	li	a1,-126
    91f4:	aeb43823          	sd	a1,-1296(s0)

00000000000091f8 <.LBB52_814>:
    91f8:	ae843583          	ld	a1,-1304(s0)
    91fc:	035585b3          	mul	a1,a1,s5
    9200:	a3043603          	ld	a2,-1488(s0)
    9204:	01460633          	add	a2,a2,s4
    9208:	00c585b3          	add	a1,a1,a2
    920c:	4285d593          	srai	a1,a1,0x28
    9210:	aeb43423          	sd	a1,-1304(s0)
    9214:	00b84663          	blt	a6,a1,9220 <.LBB52_816>
    9218:	f8200593          	li	a1,-126
    921c:	aeb43423          	sd	a1,-1304(s0)

0000000000009220 <.LBB52_816>:
    9220:	ae043583          	ld	a1,-1312(s0)
    9224:	035585b3          	mul	a1,a1,s5
    9228:	a3843603          	ld	a2,-1480(s0)
    922c:	01460633          	add	a2,a2,s4
    9230:	00c585b3          	add	a1,a1,a2
    9234:	4285d593          	srai	a1,a1,0x28
    9238:	aeb43023          	sd	a1,-1312(s0)
    923c:	00b84663          	blt	a6,a1,9248 <.LBB52_818>
    9240:	f8200593          	li	a1,-126
    9244:	aeb43023          	sd	a1,-1312(s0)

0000000000009248 <.LBB52_818>:
    9248:	ad843583          	ld	a1,-1320(s0)
    924c:	035585b3          	mul	a1,a1,s5
    9250:	ad043603          	ld	a2,-1328(s0)
    9254:	01460633          	add	a2,a2,s4
    9258:	00c585b3          	add	a1,a1,a2
    925c:	4285d593          	srai	a1,a1,0x28
    9260:	acb43823          	sd	a1,-1328(s0)
    9264:	00b84663          	blt	a6,a1,9270 <.LBB52_820>
    9268:	f8200593          	li	a1,-126
    926c:	acb43823          	sd	a1,-1328(s0)

0000000000009270 <.LBB52_820>:
    9270:	ac043583          	ld	a1,-1344(s0)
    9274:	035585b3          	mul	a1,a1,s5
    9278:	a4043603          	ld	a2,-1472(s0)
    927c:	01460633          	add	a2,a2,s4
    9280:	00c585b3          	add	a1,a1,a2
    9284:	4285d593          	srai	a1,a1,0x28
    9288:	acb43023          	sd	a1,-1344(s0)
    928c:	00b84663          	blt	a6,a1,9298 <.LBB52_822>
    9290:	f8200593          	li	a1,-126
    9294:	acb43023          	sd	a1,-1344(s0)

0000000000009298 <.LBB52_822>:
    9298:	ac843583          	ld	a1,-1336(s0)
    929c:	035585b3          	mul	a1,a1,s5
    92a0:	ab043603          	ld	a2,-1360(s0)
    92a4:	01460633          	add	a2,a2,s4
    92a8:	00c585b3          	add	a1,a1,a2
    92ac:	4285d593          	srai	a1,a1,0x28
    92b0:	aab43823          	sd	a1,-1360(s0)
    92b4:	00b84663          	blt	a6,a1,92c0 <.LBB52_824>
    92b8:	f8200593          	li	a1,-126
    92bc:	aab43823          	sd	a1,-1360(s0)

00000000000092c0 <.LBB52_824>:
    92c0:	aa043583          	ld	a1,-1376(s0)
    92c4:	035585b3          	mul	a1,a1,s5
    92c8:	a4843603          	ld	a2,-1464(s0)
    92cc:	01460633          	add	a2,a2,s4
    92d0:	00c585b3          	add	a1,a1,a2
    92d4:	4285d593          	srai	a1,a1,0x28
    92d8:	aab43023          	sd	a1,-1376(s0)
    92dc:	00b84663          	blt	a6,a1,92e8 <.LBB52_826>
    92e0:	f8200593          	li	a1,-126
    92e4:	aab43023          	sd	a1,-1376(s0)

00000000000092e8 <.LBB52_826>:
    92e8:	ab843583          	ld	a1,-1352(s0)
    92ec:	035585b3          	mul	a1,a1,s5
    92f0:	a9043603          	ld	a2,-1392(s0)
    92f4:	01460633          	add	a2,a2,s4
    92f8:	00c585b3          	add	a1,a1,a2
    92fc:	4285d593          	srai	a1,a1,0x28
    9300:	a8b43823          	sd	a1,-1392(s0)
    9304:	00b84663          	blt	a6,a1,9310 <.LBB52_828>
    9308:	f8200593          	li	a1,-126
    930c:	a8b43823          	sd	a1,-1392(s0)

0000000000009310 <.LBB52_828>:
    9310:	a8043583          	ld	a1,-1408(s0)
    9314:	035585b3          	mul	a1,a1,s5
    9318:	a5043603          	ld	a2,-1456(s0)
    931c:	01460633          	add	a2,a2,s4
    9320:	00c585b3          	add	a1,a1,a2
    9324:	4285d593          	srai	a1,a1,0x28
    9328:	a8b43023          	sd	a1,-1408(s0)
    932c:	00b84663          	blt	a6,a1,9338 <.LBB52_830>
    9330:	f8200593          	li	a1,-126
    9334:	a8b43023          	sd	a1,-1408(s0)

0000000000009338 <.LBB52_830>:
    9338:	aa843583          	ld	a1,-1368(s0)
    933c:	035585b3          	mul	a1,a1,s5
    9340:	a7043603          	ld	a2,-1424(s0)
    9344:	01460633          	add	a2,a2,s4
    9348:	00c585b3          	add	a1,a1,a2
    934c:	4285d593          	srai	a1,a1,0x28
    9350:	a6b43823          	sd	a1,-1424(s0)
    9354:	00b84663          	blt	a6,a1,9360 <.LBB52_832>
    9358:	f8200593          	li	a1,-126
    935c:	a6b43823          	sd	a1,-1424(s0)

0000000000009360 <.LBB52_832>:
    9360:	a6043583          	ld	a1,-1440(s0)
    9364:	035585b3          	mul	a1,a1,s5
    9368:	a5843603          	ld	a2,-1448(s0)
    936c:	01460633          	add	a2,a2,s4
    9370:	00c585b3          	add	a1,a1,a2
    9374:	4285d593          	srai	a1,a1,0x28
    9378:	a6b43023          	sd	a1,-1440(s0)
    937c:	00b84663          	blt	a6,a1,9388 <.LBB52_834>
    9380:	f8200593          	li	a1,-126
    9384:	a6b43023          	sd	a1,-1440(s0)

0000000000009388 <.LBB52_834>:
    9388:	a9843583          	ld	a1,-1384(s0)
    938c:	035585b3          	mul	a1,a1,s5
    9390:	a6843603          	ld	a2,-1432(s0)
    9394:	01460633          	add	a2,a2,s4
    9398:	00c585b3          	add	a1,a1,a2
    939c:	4285d593          	srai	a1,a1,0x28
    93a0:	a4b43823          	sd	a1,-1456(s0)
    93a4:	00b84663          	blt	a6,a1,93b0 <.LBB52_836>
    93a8:	f8200593          	li	a1,-126
    93ac:	a4b43823          	sd	a1,-1456(s0)

00000000000093b0 <.LBB52_836>:
    93b0:	a8843583          	ld	a1,-1400(s0)
    93b4:	035585b3          	mul	a1,a1,s5
    93b8:	a7843603          	ld	a2,-1416(s0)
    93bc:	01460633          	add	a2,a2,s4
    93c0:	00c585b3          	add	a1,a1,a2
    93c4:	4285d593          	srai	a1,a1,0x28
    93c8:	a4b43023          	sd	a1,-1472(s0)
    93cc:	00b84663          	blt	a6,a1,93d8 <.LBB52_838>
    93d0:	f8200593          	li	a1,-126
    93d4:	a4b43023          	sd	a1,-1472(s0)

00000000000093d8 <.LBB52_838>:
    93d8:	035885b3          	mul	a1,a7,s5
    93dc:	00001637          	lui	a2,0x1
    93e0:	40c40633          	sub	a2,s0,a2
    93e4:	ba863603          	ld	a2,-1112(a2) # ba8 <.LBB52_3+0x9c4>
    93e8:	01460633          	add	a2,a2,s4
    93ec:	00c585b3          	add	a1,a1,a2
    93f0:	4285d593          	srai	a1,a1,0x28
    93f4:	acb43c23          	sd	a1,-1320(s0)
    93f8:	00b84663          	blt	a6,a1,9404 <.LBB52_840>
    93fc:	f8200593          	li	a1,-126
    9400:	acb43c23          	sd	a1,-1320(s0)

0000000000009404 <.LBB52_840>:
    9404:	000015b7          	lui	a1,0x1
    9408:	40b405b3          	sub	a1,s0,a1
    940c:	bf05b583          	ld	a1,-1040(a1) # bf0 <.LBB52_3+0xa0c>
    9410:	035585b3          	mul	a1,a1,s5
    9414:	00001637          	lui	a2,0x1
    9418:	40c40633          	sub	a2,s0,a2
    941c:	c4063603          	ld	a2,-960(a2) # c40 <.LBB52_3+0xa5c>
    9420:	01460633          	add	a2,a2,s4
    9424:	00c585b3          	add	a1,a1,a2
    9428:	4285d593          	srai	a1,a1,0x28
    942c:	acb43423          	sd	a1,-1336(s0)
    9430:	00b84663          	blt	a6,a1,943c <.LBB52_842>
    9434:	f8200593          	li	a1,-126
    9438:	acb43423          	sd	a1,-1336(s0)

000000000000943c <.LBB52_842>:
    943c:	000015b7          	lui	a1,0x1
    9440:	40b405b3          	sub	a1,s0,a1
    9444:	c105b583          	ld	a1,-1008(a1) # c10 <.LBB52_3+0xa2c>
    9448:	035585b3          	mul	a1,a1,s5
    944c:	00001637          	lui	a2,0x1
    9450:	40c40633          	sub	a2,s0,a2
    9454:	c8863603          	ld	a2,-888(a2) # c88 <.LBB52_3+0xaa4>
    9458:	01460633          	add	a2,a2,s4
    945c:	00c585b3          	add	a1,a1,a2
    9460:	4285d593          	srai	a1,a1,0x28
    9464:	aab43c23          	sd	a1,-1352(s0)
    9468:	00b84663          	blt	a6,a1,9474 <.LBB52_844>
    946c:	f8200593          	li	a1,-126
    9470:	aab43c23          	sd	a1,-1352(s0)

0000000000009474 <.LBB52_844>:
    9474:	000015b7          	lui	a1,0x1
    9478:	40b405b3          	sub	a1,s0,a1
    947c:	c385b583          	ld	a1,-968(a1) # c38 <.LBB52_3+0xa54>
    9480:	035585b3          	mul	a1,a1,s5
    9484:	00001637          	lui	a2,0x1
    9488:	40c40633          	sub	a2,s0,a2
    948c:	cd063603          	ld	a2,-816(a2) # cd0 <.LBB52_3+0xaec>
    9490:	01460633          	add	a2,a2,s4
    9494:	00c585b3          	add	a1,a1,a2
    9498:	4285d593          	srai	a1,a1,0x28
    949c:	aab43423          	sd	a1,-1368(s0)
    94a0:	00b84663          	blt	a6,a1,94ac <.LBB52_846>
    94a4:	f8200593          	li	a1,-126
    94a8:	aab43423          	sd	a1,-1368(s0)

00000000000094ac <.LBB52_846>:
    94ac:	000015b7          	lui	a1,0x1
    94b0:	40b405b3          	sub	a1,s0,a1
    94b4:	d585b583          	ld	a1,-680(a1) # d58 <.LBB52_3+0xb74>
    94b8:	035585b3          	mul	a1,a1,s5
    94bc:	00001637          	lui	a2,0x1
    94c0:	40c40633          	sub	a2,s0,a2
    94c4:	d4063603          	ld	a2,-704(a2) # d40 <.LBB52_3+0xb5c>
    94c8:	01460633          	add	a2,a2,s4
    94cc:	00c585b3          	add	a1,a1,a2
    94d0:	4285d593          	srai	a1,a1,0x28
    94d4:	a8b43c23          	sd	a1,-1384(s0)
    94d8:	00b84663          	blt	a6,a1,94e4 <.LBB52_848>
    94dc:	f8200593          	li	a1,-126
    94e0:	a8b43c23          	sd	a1,-1384(s0)

00000000000094e4 <.LBB52_848>:
    94e4:	000015b7          	lui	a1,0x1
    94e8:	40b405b3          	sub	a1,s0,a1
    94ec:	dc85b583          	ld	a1,-568(a1) # dc8 <.LBB52_3+0xbe4>
    94f0:	035585b3          	mul	a1,a1,s5
    94f4:	00001637          	lui	a2,0x1
    94f8:	40c40633          	sub	a2,s0,a2
    94fc:	db063603          	ld	a2,-592(a2) # db0 <.LBB52_3+0xbcc>
    9500:	01460633          	add	a2,a2,s4
    9504:	00c585b3          	add	a1,a1,a2
    9508:	4285d593          	srai	a1,a1,0x28
    950c:	a8b43423          	sd	a1,-1400(s0)
    9510:	00b84663          	blt	a6,a1,951c <.LBB52_850>
    9514:	f8200593          	li	a1,-126
    9518:	a8b43423          	sd	a1,-1400(s0)

000000000000951c <.LBB52_850>:
    951c:	000015b7          	lui	a1,0x1
    9520:	40b405b3          	sub	a1,s0,a1
    9524:	e405b583          	ld	a1,-448(a1) # e40 <.LBB52_4+0x10>
    9528:	035585b3          	mul	a1,a1,s5
    952c:	00001637          	lui	a2,0x1
    9530:	40c40633          	sub	a2,s0,a2
    9534:	e2863603          	ld	a2,-472(a2) # e28 <.LBB52_3+0xc44>
    9538:	01460633          	add	a2,a2,s4
    953c:	00c585b3          	add	a1,a1,a2
    9540:	4285d593          	srai	a1,a1,0x28
    9544:	a6b43c23          	sd	a1,-1416(s0)
    9548:	00b84663          	blt	a6,a1,9554 <.LBB52_852>
    954c:	f8200593          	li	a1,-126
    9550:	a6b43c23          	sd	a1,-1416(s0)

0000000000009554 <.LBB52_852>:
    9554:	000015b7          	lui	a1,0x1
    9558:	40b405b3          	sub	a1,s0,a1
    955c:	eb05b583          	ld	a1,-336(a1) # eb0 <.LBB52_4+0x80>
    9560:	035585b3          	mul	a1,a1,s5
    9564:	00001637          	lui	a2,0x1
    9568:	40c40633          	sub	a2,s0,a2
    956c:	e9863603          	ld	a2,-360(a2) # e98 <.LBB52_4+0x68>
    9570:	01460633          	add	a2,a2,s4
    9574:	00c585b3          	add	a1,a1,a2
    9578:	4285d593          	srai	a1,a1,0x28
    957c:	a6b43423          	sd	a1,-1432(s0)
    9580:	00b84663          	blt	a6,a1,958c <.LBB52_854>
    9584:	f8200593          	li	a1,-126
    9588:	a6b43423          	sd	a1,-1432(s0)

000000000000958c <.LBB52_854>:
    958c:	000015b7          	lui	a1,0x1
    9590:	40b405b3          	sub	a1,s0,a1
    9594:	f285b583          	ld	a1,-216(a1) # f28 <.LBB52_4+0xf8>
    9598:	035585b3          	mul	a1,a1,s5
    959c:	00001637          	lui	a2,0x1
    95a0:	40c40633          	sub	a2,s0,a2
    95a4:	f1063603          	ld	a2,-240(a2) # f10 <.LBB52_4+0xe0>
    95a8:	01460633          	add	a2,a2,s4
    95ac:	00c585b3          	add	a1,a1,a2
    95b0:	4285d593          	srai	a1,a1,0x28
    95b4:	a4b43c23          	sd	a1,-1448(s0)
    95b8:	00b84663          	blt	a6,a1,95c4 <.LBB52_856>
    95bc:	f8200593          	li	a1,-126
    95c0:	a4b43c23          	sd	a1,-1448(s0)

00000000000095c4 <.LBB52_856>:
    95c4:	000015b7          	lui	a1,0x1
    95c8:	40b405b3          	sub	a1,s0,a1
    95cc:	f985b583          	ld	a1,-104(a1) # f98 <.LBB52_4+0x168>
    95d0:	035585b3          	mul	a1,a1,s5
    95d4:	00001637          	lui	a2,0x1
    95d8:	40c40633          	sub	a2,s0,a2
    95dc:	f8063603          	ld	a2,-128(a2) # f80 <.LBB52_4+0x150>
    95e0:	01460633          	add	a2,a2,s4
    95e4:	00c585b3          	add	a1,a1,a2
    95e8:	4285d593          	srai	a1,a1,0x28
    95ec:	a4b43423          	sd	a1,-1464(s0)
    95f0:	00b84663          	blt	a6,a1,95fc <.LBB52_858>
    95f4:	f8200593          	li	a1,-126
    95f8:	a4b43423          	sd	a1,-1464(s0)

00000000000095fc <.LBB52_858>:
    95fc:	000015b7          	lui	a1,0x1
    9600:	40b405b3          	sub	a1,s0,a1
    9604:	0185b583          	ld	a1,24(a1) # 1018 <.LBB52_4+0x1e8>
    9608:	035585b3          	mul	a1,a1,s5
    960c:	00001637          	lui	a2,0x1
    9610:	40c40633          	sub	a2,s0,a2
    9614:	00063603          	ld	a2,0(a2) # 1000 <.LBB52_4+0x1d0>
    9618:	01460633          	add	a2,a2,s4
    961c:	00c585b3          	add	a1,a1,a2
    9620:	4285d593          	srai	a1,a1,0x28
    9624:	a2b43c23          	sd	a1,-1480(s0)
    9628:	00b84663          	blt	a6,a1,9634 <.LBB52_860>
    962c:	f8200593          	li	a1,-126
    9630:	a2b43c23          	sd	a1,-1480(s0)

0000000000009634 <.LBB52_860>:
    9634:	000015b7          	lui	a1,0x1
    9638:	40b405b3          	sub	a1,s0,a1
    963c:	0905b583          	ld	a1,144(a1) # 1090 <.LBB52_4+0x260>
    9640:	035585b3          	mul	a1,a1,s5
    9644:	00001637          	lui	a2,0x1
    9648:	40c40633          	sub	a2,s0,a2
    964c:	07863603          	ld	a2,120(a2) # 1078 <.LBB52_4+0x248>
    9650:	01460633          	add	a2,a2,s4
    9654:	00c585b3          	add	a1,a1,a2
    9658:	4285d593          	srai	a1,a1,0x28
    965c:	a2b43823          	sd	a1,-1488(s0)
    9660:	00b84663          	blt	a6,a1,966c <.LBB52_862>
    9664:	f8200593          	li	a1,-126
    9668:	a2b43823          	sd	a1,-1488(s0)

000000000000966c <.LBB52_862>:
    966c:	000015b7          	lui	a1,0x1
    9670:	40b405b3          	sub	a1,s0,a1
    9674:	1085b583          	ld	a1,264(a1) # 1108 <.LBB52_4+0x2d8>
    9678:	035585b3          	mul	a1,a1,s5
    967c:	00001637          	lui	a2,0x1
    9680:	40c40633          	sub	a2,s0,a2
    9684:	0f063603          	ld	a2,240(a2) # 10f0 <.LBB52_4+0x2c0>
    9688:	01460633          	add	a2,a2,s4
    968c:	00c585b3          	add	a1,a1,a2
    9690:	4285d593          	srai	a1,a1,0x28
    9694:	a2b43423          	sd	a1,-1496(s0)
    9698:	00b84663          	blt	a6,a1,96a4 <.LBB52_864>
    969c:	f8200593          	li	a1,-126
    96a0:	a2b43423          	sd	a1,-1496(s0)

00000000000096a4 <.LBB52_864>:
    96a4:	000015b7          	lui	a1,0x1
    96a8:	40b405b3          	sub	a1,s0,a1
    96ac:	1805b583          	ld	a1,384(a1) # 1180 <.LBB52_4+0x350>
    96b0:	035585b3          	mul	a1,a1,s5
    96b4:	00001637          	lui	a2,0x1
    96b8:	40c40633          	sub	a2,s0,a2
    96bc:	16863603          	ld	a2,360(a2) # 1168 <.LBB52_4+0x338>
    96c0:	01460633          	add	a2,a2,s4
    96c4:	00c585b3          	add	a1,a1,a2
    96c8:	4285d593          	srai	a1,a1,0x28
    96cc:	a2b43023          	sd	a1,-1504(s0)
    96d0:	00b84663          	blt	a6,a1,96dc <.LBB52_866>
    96d4:	f8200593          	li	a1,-126
    96d8:	a2b43023          	sd	a1,-1504(s0)

00000000000096dc <.LBB52_866>:
    96dc:	000015b7          	lui	a1,0x1
    96e0:	40b405b3          	sub	a1,s0,a1
    96e4:	1f85b583          	ld	a1,504(a1) # 11f8 <.LBB52_4+0x3c8>
    96e8:	035585b3          	mul	a1,a1,s5
    96ec:	00001637          	lui	a2,0x1
    96f0:	40c40633          	sub	a2,s0,a2
    96f4:	1e063603          	ld	a2,480(a2) # 11e0 <.LBB52_4+0x3b0>
    96f8:	01460633          	add	a2,a2,s4
    96fc:	00c585b3          	add	a1,a1,a2
    9700:	4285d593          	srai	a1,a1,0x28
    9704:	a0b43c23          	sd	a1,-1512(s0)
    9708:	00b84663          	blt	a6,a1,9714 <.LBB52_868>
    970c:	f8200593          	li	a1,-126
    9710:	a0b43c23          	sd	a1,-1512(s0)

0000000000009714 <.LBB52_868>:
    9714:	000015b7          	lui	a1,0x1
    9718:	40b405b3          	sub	a1,s0,a1
    971c:	2705b583          	ld	a1,624(a1) # 1270 <.LBB52_4+0x440>
    9720:	035585b3          	mul	a1,a1,s5
    9724:	00001637          	lui	a2,0x1
    9728:	40c40633          	sub	a2,s0,a2
    972c:	25063603          	ld	a2,592(a2) # 1250 <.LBB52_4+0x420>
    9730:	01460633          	add	a2,a2,s4
    9734:	00c585b3          	add	a1,a1,a2
    9738:	4285d593          	srai	a1,a1,0x28
    973c:	a0b43823          	sd	a1,-1520(s0)
    9740:	00b84663          	blt	a6,a1,974c <.LBB52_870>
    9744:	f8200593          	li	a1,-126
    9748:	a0b43823          	sd	a1,-1520(s0)

000000000000974c <.LBB52_870>:
    974c:	000015b7          	lui	a1,0x1
    9750:	40b405b3          	sub	a1,s0,a1
    9754:	2d85b583          	ld	a1,728(a1) # 12d8 <.LBB52_4+0x4a8>
    9758:	035585b3          	mul	a1,a1,s5
    975c:	00001637          	lui	a2,0x1
    9760:	40c40633          	sub	a2,s0,a2
    9764:	2c063603          	ld	a2,704(a2) # 12c0 <.LBB52_4+0x490>
    9768:	01460633          	add	a2,a2,s4
    976c:	00c585b3          	add	a1,a1,a2
    9770:	4285d593          	srai	a1,a1,0x28
    9774:	a0b43423          	sd	a1,-1528(s0)
    9778:	00b84663          	blt	a6,a1,9784 <.LBB52_872>
    977c:	f8200593          	li	a1,-126
    9780:	a0b43423          	sd	a1,-1528(s0)

0000000000009784 <.LBB52_872>:
    9784:	000015b7          	lui	a1,0x1
    9788:	40b405b3          	sub	a1,s0,a1
    978c:	3405b583          	ld	a1,832(a1) # 1340 <.LBB52_4+0x510>
    9790:	035585b3          	mul	a1,a1,s5
    9794:	00001637          	lui	a2,0x1
    9798:	40c40633          	sub	a2,s0,a2
    979c:	32863603          	ld	a2,808(a2) # 1328 <.LBB52_4+0x4f8>
    97a0:	01460633          	add	a2,a2,s4
    97a4:	00c585b3          	add	a1,a1,a2
    97a8:	4285d593          	srai	a1,a1,0x28
    97ac:	a0b43023          	sd	a1,-1536(s0)
    97b0:	00b84663          	blt	a6,a1,97bc <.LBB52_874>
    97b4:	f8200593          	li	a1,-126
    97b8:	a0b43023          	sd	a1,-1536(s0)

00000000000097bc <.LBB52_874>:
    97bc:	000015b7          	lui	a1,0x1
    97c0:	40b405b3          	sub	a1,s0,a1
    97c4:	3a05b583          	ld	a1,928(a1) # 13a0 <.LBB52_4+0x570>
    97c8:	035585b3          	mul	a1,a1,s5
    97cc:	00001637          	lui	a2,0x1
    97d0:	40c40633          	sub	a2,s0,a2
    97d4:	39063603          	ld	a2,912(a2) # 1390 <.LBB52_4+0x560>
    97d8:	01460633          	add	a2,a2,s4
    97dc:	00c585b3          	add	a1,a1,a2
    97e0:	4285d593          	srai	a1,a1,0x28
    97e4:	9eb43c23          	sd	a1,-1544(s0)
    97e8:	00b84663          	blt	a6,a1,97f4 <.LBB52_876>
    97ec:	f8200593          	li	a1,-126
    97f0:	9eb43c23          	sd	a1,-1544(s0)

00000000000097f4 <.LBB52_876>:
    97f4:	000015b7          	lui	a1,0x1
    97f8:	40b405b3          	sub	a1,s0,a1
    97fc:	3f85b583          	ld	a1,1016(a1) # 13f8 <.LBB52_5+0x20>
    9800:	035585b3          	mul	a1,a1,s5
    9804:	00001637          	lui	a2,0x1
    9808:	40c40633          	sub	a2,s0,a2
    980c:	3e863603          	ld	a2,1000(a2) # 13e8 <.LBB52_5+0x10>
    9810:	01460633          	add	a2,a2,s4
    9814:	00c585b3          	add	a1,a1,a2
    9818:	4285d593          	srai	a1,a1,0x28
    981c:	9eb43823          	sd	a1,-1552(s0)
    9820:	00b84663          	blt	a6,a1,982c <.LBB52_878>
    9824:	f8200593          	li	a1,-126
    9828:	9eb43823          	sd	a1,-1552(s0)

000000000000982c <.LBB52_878>:
    982c:	000015b7          	lui	a1,0x1
    9830:	40b405b3          	sub	a1,s0,a1
    9834:	4505b583          	ld	a1,1104(a1) # 1450 <.LBB52_5+0x78>
    9838:	035585b3          	mul	a1,a1,s5
    983c:	00001637          	lui	a2,0x1
    9840:	40c40633          	sub	a2,s0,a2
    9844:	44063603          	ld	a2,1088(a2) # 1440 <.LBB52_5+0x68>
    9848:	01460633          	add	a2,a2,s4
    984c:	00c585b3          	add	a1,a1,a2
    9850:	4285d593          	srai	a1,a1,0x28
    9854:	9eb43423          	sd	a1,-1560(s0)
    9858:	00b84663          	blt	a6,a1,9864 <.LBB52_880>
    985c:	f8200593          	li	a1,-126
    9860:	9eb43423          	sd	a1,-1560(s0)

0000000000009864 <.LBB52_880>:
    9864:	000015b7          	lui	a1,0x1
    9868:	40b405b3          	sub	a1,s0,a1
    986c:	4a85b583          	ld	a1,1192(a1) # 14a8 <.LBB52_5+0xd0>
    9870:	035585b3          	mul	a1,a1,s5
    9874:	00001637          	lui	a2,0x1
    9878:	40c40633          	sub	a2,s0,a2
    987c:	49863603          	ld	a2,1176(a2) # 1498 <.LBB52_5+0xc0>
    9880:	01460633          	add	a2,a2,s4
    9884:	00c585b3          	add	a1,a1,a2
    9888:	4285d593          	srai	a1,a1,0x28
    988c:	9eb43023          	sd	a1,-1568(s0)
    9890:	00b84663          	blt	a6,a1,989c <.LBB52_882>
    9894:	f8200593          	li	a1,-126
    9898:	9eb43023          	sd	a1,-1568(s0)

000000000000989c <.LBB52_882>:
    989c:	000015b7          	lui	a1,0x1
    98a0:	40b405b3          	sub	a1,s0,a1
    98a4:	5005b583          	ld	a1,1280(a1) # 1500 <.LBB52_5+0x128>
    98a8:	035585b3          	mul	a1,a1,s5
    98ac:	00001637          	lui	a2,0x1
    98b0:	40c40633          	sub	a2,s0,a2
    98b4:	4f063603          	ld	a2,1264(a2) # 14f0 <.LBB52_5+0x118>
    98b8:	01460633          	add	a2,a2,s4
    98bc:	00c585b3          	add	a1,a1,a2
    98c0:	4285d593          	srai	a1,a1,0x28
    98c4:	9cb43823          	sd	a1,-1584(s0)
    98c8:	00b84663          	blt	a6,a1,98d4 <.LBB52_884>
    98cc:	f8200593          	li	a1,-126
    98d0:	9cb43823          	sd	a1,-1584(s0)

00000000000098d4 <.LBB52_884>:
    98d4:	000015b7          	lui	a1,0x1
    98d8:	40b405b3          	sub	a1,s0,a1
    98dc:	5605b583          	ld	a1,1376(a1) # 1560 <.LBB52_5+0x188>
    98e0:	035585b3          	mul	a1,a1,s5
    98e4:	00001637          	lui	a2,0x1
    98e8:	40c40633          	sub	a2,s0,a2
    98ec:	55063603          	ld	a2,1360(a2) # 1550 <.LBB52_5+0x178>
    98f0:	01460633          	add	a2,a2,s4
    98f4:	00c585b3          	add	a1,a1,a2
    98f8:	4285d593          	srai	a1,a1,0x28
    98fc:	9cb43023          	sd	a1,-1600(s0)
    9900:	00b84663          	blt	a6,a1,990c <.LBB52_886>
    9904:	f8200593          	li	a1,-126
    9908:	9cb43023          	sd	a1,-1600(s0)

000000000000990c <.LBB52_886>:
    990c:	8e043583          	ld	a1,-1824(s0)
    9910:	035585b3          	mul	a1,a1,s5
    9914:	8d043603          	ld	a2,-1840(s0)
    9918:	01460633          	add	a2,a2,s4
    991c:	00c585b3          	add	a1,a1,a2
    9920:	4285d593          	srai	a1,a1,0x28
    9924:	9ab43823          	sd	a1,-1616(s0)
    9928:	00b84663          	blt	a6,a1,9934 <.LBB52_888>
    992c:	f8200593          	li	a1,-126
    9930:	9ab43823          	sd	a1,-1616(s0)

0000000000009934 <.LBB52_888>:
    9934:	90043583          	ld	a1,-1792(s0)
    9938:	035585b3          	mul	a1,a1,s5
    993c:	8f843603          	ld	a2,-1800(s0)
    9940:	01460633          	add	a2,a2,s4
    9944:	00c585b3          	add	a1,a1,a2
    9948:	4285d593          	srai	a1,a1,0x28
    994c:	9ab43023          	sd	a1,-1632(s0)
    9950:	00b84663          	blt	a6,a1,995c <.LBB52_890>
    9954:	f8200593          	li	a1,-126
    9958:	9ab43023          	sd	a1,-1632(s0)

000000000000995c <.LBB52_890>:
    995c:	91843583          	ld	a1,-1768(s0)
    9960:	035585b3          	mul	a1,a1,s5
    9964:	91043603          	ld	a2,-1776(s0)
    9968:	01460633          	add	a2,a2,s4
    996c:	00c585b3          	add	a1,a1,a2
    9970:	4285d593          	srai	a1,a1,0x28
    9974:	98b43823          	sd	a1,-1648(s0)
    9978:	00b84663          	blt	a6,a1,9984 <.LBB52_892>
    997c:	f8200593          	li	a1,-126
    9980:	98b43823          	sd	a1,-1648(s0)

0000000000009984 <.LBB52_892>:
    9984:	93843583          	ld	a1,-1736(s0)
    9988:	035585b3          	mul	a1,a1,s5
    998c:	93043603          	ld	a2,-1744(s0)
    9990:	01460633          	add	a2,a2,s4
    9994:	00c585b3          	add	a1,a1,a2
    9998:	4285d593          	srai	a1,a1,0x28
    999c:	98b43023          	sd	a1,-1664(s0)
    99a0:	00b84663          	blt	a6,a1,99ac <.LBB52_894>
    99a4:	f8200593          	li	a1,-126
    99a8:	98b43023          	sd	a1,-1664(s0)

00000000000099ac <.LBB52_894>:
    99ac:	95043583          	ld	a1,-1712(s0)
    99b0:	035585b3          	mul	a1,a1,s5
    99b4:	94843603          	ld	a2,-1720(s0)
    99b8:	01460633          	add	a2,a2,s4
    99bc:	00c585b3          	add	a1,a1,a2
    99c0:	4285d593          	srai	a1,a1,0x28
    99c4:	96b43823          	sd	a1,-1680(s0)
    99c8:	00b84663          	blt	a6,a1,99d4 <.LBB52_896>
    99cc:	f8200593          	li	a1,-126
    99d0:	96b43823          	sd	a1,-1680(s0)

00000000000099d4 <.LBB52_896>:
    99d4:	96843583          	ld	a1,-1688(s0)
    99d8:	035585b3          	mul	a1,a1,s5
    99dc:	96043603          	ld	a2,-1696(s0)
    99e0:	01460633          	add	a2,a2,s4
    99e4:	00c585b3          	add	a1,a1,a2
    99e8:	4285d593          	srai	a1,a1,0x28
    99ec:	96b43023          	sd	a1,-1696(s0)
    99f0:	00b84663          	blt	a6,a1,99fc <.LBB52_898>
    99f4:	f8200593          	li	a1,-126
    99f8:	96b43023          	sd	a1,-1696(s0)

00000000000099fc <.LBB52_898>:
    99fc:	9b843583          	ld	a1,-1608(s0)
    9a00:	035585b3          	mul	a1,a1,s5
    9a04:	9a843603          	ld	a2,-1624(s0)
    9a08:	01460633          	add	a2,a2,s4
    9a0c:	00c585b3          	add	a1,a1,a2
    9a10:	4285d593          	srai	a1,a1,0x28
    9a14:	94b43823          	sd	a1,-1712(s0)
    9a18:	00b84663          	blt	a6,a1,9a24 <.LBB52_900>
    9a1c:	f8200593          	li	a1,-126
    9a20:	94b43823          	sd	a1,-1712(s0)

0000000000009a24 <.LBB52_900>:
    9a24:	9d843583          	ld	a1,-1576(s0)
    9a28:	035585b3          	mul	a1,a1,s5
    9a2c:	9c843603          	ld	a2,-1592(s0)
    9a30:	01460633          	add	a2,a2,s4
    9a34:	00c585b3          	add	a1,a1,a2
    9a38:	4285d593          	srai	a1,a1,0x28
    9a3c:	94b43023          	sd	a1,-1728(s0)
    9a40:	00b84663          	blt	a6,a1,9a4c <.LBB52_902>
    9a44:	f8200593          	li	a1,-126
    9a48:	94b43023          	sd	a1,-1728(s0)

0000000000009a4c <.LBB52_902>:
    9a4c:	035505b3          	mul	a1,a0,s5
    9a50:	00001537          	lui	a0,0x1
    9a54:	40a40533          	sub	a0,s0,a0
    9a58:	ba053603          	ld	a2,-1120(a0) # ba0 <.LBB52_3+0x9bc>
    9a5c:	01460633          	add	a2,a2,s4
    9a60:	00c585b3          	add	a1,a1,a2
    9a64:	4285d593          	srai	a1,a1,0x28
    9a68:	9cb43c23          	sd	a1,-1576(s0)
    9a6c:	00b84663          	blt	a6,a1,9a78 <.LBB52_904>
    9a70:	f8200593          	li	a1,-126
    9a74:	9cb43c23          	sd	a1,-1576(s0)

0000000000009a78 <.LBB52_904>:
    9a78:	035385b3          	mul	a1,t2,s5
    9a7c:	00001537          	lui	a0,0x1
    9a80:	40a40533          	sub	a0,s0,a0
    9a84:	c3053603          	ld	a2,-976(a0) # c30 <.LBB52_3+0xa4c>
    9a88:	01460633          	add	a2,a2,s4
    9a8c:	00c585b3          	add	a1,a1,a2
    9a90:	4285d593          	srai	a1,a1,0x28
    9a94:	9cb43423          	sd	a1,-1592(s0)
    9a98:	00b84663          	blt	a6,a1,9aa4 <.LBB52_906>
    9a9c:	f8200593          	li	a1,-126
    9aa0:	9cb43423          	sd	a1,-1592(s0)

0000000000009aa4 <.LBB52_906>:
    9aa4:	035285b3          	mul	a1,t0,s5
    9aa8:	00001537          	lui	a0,0x1
    9aac:	40a40533          	sub	a0,s0,a0
    9ab0:	c8053603          	ld	a2,-896(a0) # c80 <.LBB52_3+0xa9c>
    9ab4:	01460633          	add	a2,a2,s4
    9ab8:	00c585b3          	add	a1,a1,a2
    9abc:	4285d593          	srai	a1,a1,0x28
    9ac0:	9ab43c23          	sd	a1,-1608(s0)
    9ac4:	00b84663          	blt	a6,a1,9ad0 <.LBB52_908>
    9ac8:	f8200593          	li	a1,-126
    9acc:	9ab43c23          	sd	a1,-1608(s0)

0000000000009ad0 <.LBB52_908>:
    9ad0:	00001537          	lui	a0,0x1
    9ad4:	40a40533          	sub	a0,s0,a0
    9ad8:	be853503          	ld	a0,-1048(a0) # be8 <.LBB52_3+0xa04>
    9adc:	03550533          	mul	a0,a0,s5
    9ae0:	000015b7          	lui	a1,0x1
    9ae4:	40b405b3          	sub	a1,s0,a1
    9ae8:	cc85b583          	ld	a1,-824(a1) # cc8 <.LBB52_3+0xae4>
    9aec:	014585b3          	add	a1,a1,s4
    9af0:	00b50533          	add	a0,a0,a1
    9af4:	42855513          	srai	a0,a0,0x28
    9af8:	8c843603          	ld	a2,-1848(s0)
    9afc:	9aa43423          	sd	a0,-1624(s0)
    9b00:	00a84663          	blt	a6,a0,9b0c <.LBB52_910>
    9b04:	f8200513          	li	a0,-126
    9b08:	9aa43423          	sd	a0,-1624(s0)

0000000000009b0c <.LBB52_910>:
    9b0c:	00001537          	lui	a0,0x1
    9b10:	40a40533          	sub	a0,s0,a0
    9b14:	d4853503          	ld	a0,-696(a0) # d48 <.LBB52_3+0xb64>
    9b18:	03550533          	mul	a0,a0,s5
    9b1c:	000015b7          	lui	a1,0x1
    9b20:	40b405b3          	sub	a1,s0,a1
    9b24:	d305b583          	ld	a1,-720(a1) # d30 <.LBB52_3+0xb4c>
    9b28:	014585b3          	add	a1,a1,s4
    9b2c:	00b50533          	add	a0,a0,a1
    9b30:	42855513          	srai	a0,a0,0x28
    9b34:	98a43c23          	sd	a0,-1640(s0)
    9b38:	00a84663          	blt	a6,a0,9b44 <.LBB52_912>
    9b3c:	f8200513          	li	a0,-126
    9b40:	98a43c23          	sd	a0,-1640(s0)

0000000000009b44 <.LBB52_912>:
    9b44:	00001537          	lui	a0,0x1
    9b48:	40a40533          	sub	a0,s0,a0
    9b4c:	db853503          	ld	a0,-584(a0) # db8 <.LBB52_3+0xbd4>
    9b50:	03550533          	mul	a0,a0,s5
    9b54:	000015b7          	lui	a1,0x1
    9b58:	40b405b3          	sub	a1,s0,a1
    9b5c:	da85b583          	ld	a1,-600(a1) # da8 <.LBB52_3+0xbc4>
    9b60:	014585b3          	add	a1,a1,s4
    9b64:	00b50533          	add	a0,a0,a1
    9b68:	42855513          	srai	a0,a0,0x28
    9b6c:	98a43423          	sd	a0,-1656(s0)
    9b70:	00a84663          	blt	a6,a0,9b7c <.LBB52_914>
    9b74:	f8200513          	li	a0,-126
    9b78:	98a43423          	sd	a0,-1656(s0)

0000000000009b7c <.LBB52_914>:
    9b7c:	00001537          	lui	a0,0x1
    9b80:	40a40533          	sub	a0,s0,a0
    9b84:	e3053503          	ld	a0,-464(a0) # e30 <.LBB52_4>
    9b88:	03550533          	mul	a0,a0,s5
    9b8c:	000015b7          	lui	a1,0x1
    9b90:	40b405b3          	sub	a1,s0,a1
    9b94:	e205b583          	ld	a1,-480(a1) # e20 <.LBB52_3+0xc3c>
    9b98:	014585b3          	add	a1,a1,s4
    9b9c:	00b50533          	add	a0,a0,a1
    9ba0:	42855513          	srai	a0,a0,0x28
    9ba4:	96a43c23          	sd	a0,-1672(s0)
    9ba8:	00a84663          	blt	a6,a0,9bb4 <.LBB52_916>
    9bac:	f8200513          	li	a0,-126
    9bb0:	96a43c23          	sd	a0,-1672(s0)

0000000000009bb4 <.LBB52_916>:
    9bb4:	00001537          	lui	a0,0x1
    9bb8:	40a40533          	sub	a0,s0,a0
    9bbc:	ea053503          	ld	a0,-352(a0) # ea0 <.LBB52_4+0x70>
    9bc0:	03550533          	mul	a0,a0,s5
    9bc4:	000015b7          	lui	a1,0x1
    9bc8:	40b405b3          	sub	a1,s0,a1
    9bcc:	e905b583          	ld	a1,-368(a1) # e90 <.LBB52_4+0x60>
    9bd0:	014585b3          	add	a1,a1,s4
    9bd4:	00b50533          	add	a0,a0,a1
    9bd8:	42855513          	srai	a0,a0,0x28
    9bdc:	96a43423          	sd	a0,-1688(s0)
    9be0:	00a84663          	blt	a6,a0,9bec <.LBB52_918>
    9be4:	f8200513          	li	a0,-126
    9be8:	96a43423          	sd	a0,-1688(s0)

0000000000009bec <.LBB52_918>:
    9bec:	00001537          	lui	a0,0x1
    9bf0:	40a40533          	sub	a0,s0,a0
    9bf4:	f1853503          	ld	a0,-232(a0) # f18 <.LBB52_4+0xe8>
    9bf8:	03550533          	mul	a0,a0,s5
    9bfc:	000015b7          	lui	a1,0x1
    9c00:	40b405b3          	sub	a1,s0,a1
    9c04:	f085b583          	ld	a1,-248(a1) # f08 <.LBB52_4+0xd8>
    9c08:	014585b3          	add	a1,a1,s4
    9c0c:	00b50533          	add	a0,a0,a1
    9c10:	42855513          	srai	a0,a0,0x28
    9c14:	94a43c23          	sd	a0,-1704(s0)
    9c18:	00a84663          	blt	a6,a0,9c24 <.LBB52_920>
    9c1c:	f8200513          	li	a0,-126
    9c20:	94a43c23          	sd	a0,-1704(s0)

0000000000009c24 <.LBB52_920>:
    9c24:	00001537          	lui	a0,0x1
    9c28:	40a40533          	sub	a0,s0,a0
    9c2c:	f8853503          	ld	a0,-120(a0) # f88 <.LBB52_4+0x158>
    9c30:	03550533          	mul	a0,a0,s5
    9c34:	000015b7          	lui	a1,0x1
    9c38:	40b405b3          	sub	a1,s0,a1
    9c3c:	f785b583          	ld	a1,-136(a1) # f78 <.LBB52_4+0x148>
    9c40:	014585b3          	add	a1,a1,s4
    9c44:	00b50533          	add	a0,a0,a1
    9c48:	42855513          	srai	a0,a0,0x28
    9c4c:	94a43423          	sd	a0,-1720(s0)
    9c50:	00a84663          	blt	a6,a0,9c5c <.LBB52_922>
    9c54:	f8200513          	li	a0,-126
    9c58:	94a43423          	sd	a0,-1720(s0)

0000000000009c5c <.LBB52_922>:
    9c5c:	00001537          	lui	a0,0x1
    9c60:	40a40533          	sub	a0,s0,a0
    9c64:	00853503          	ld	a0,8(a0) # 1008 <.LBB52_4+0x1d8>
    9c68:	03550533          	mul	a0,a0,s5
    9c6c:	000015b7          	lui	a1,0x1
    9c70:	40b405b3          	sub	a1,s0,a1
    9c74:	ff05b583          	ld	a1,-16(a1) # ff0 <.LBB52_4+0x1c0>
    9c78:	014585b3          	add	a1,a1,s4
    9c7c:	00b50533          	add	a0,a0,a1
    9c80:	42855513          	srai	a0,a0,0x28
    9c84:	92a43c23          	sd	a0,-1736(s0)
    9c88:	00a84663          	blt	a6,a0,9c94 <.LBB52_924>
    9c8c:	f8200513          	li	a0,-126
    9c90:	92a43c23          	sd	a0,-1736(s0)

0000000000009c94 <.LBB52_924>:
    9c94:	00001537          	lui	a0,0x1
    9c98:	40a40533          	sub	a0,s0,a0
    9c9c:	08053503          	ld	a0,128(a0) # 1080 <.LBB52_4+0x250>
    9ca0:	03550533          	mul	a0,a0,s5
    9ca4:	000015b7          	lui	a1,0x1
    9ca8:	40b405b3          	sub	a1,s0,a1
    9cac:	0685b583          	ld	a1,104(a1) # 1068 <.LBB52_4+0x238>
    9cb0:	014585b3          	add	a1,a1,s4
    9cb4:	00b50533          	add	a0,a0,a1
    9cb8:	42855513          	srai	a0,a0,0x28
    9cbc:	92a43823          	sd	a0,-1744(s0)
    9cc0:	00a84663          	blt	a6,a0,9ccc <.LBB52_926>
    9cc4:	f8200513          	li	a0,-126
    9cc8:	92a43823          	sd	a0,-1744(s0)

0000000000009ccc <.LBB52_926>:
    9ccc:	00001537          	lui	a0,0x1
    9cd0:	40a40533          	sub	a0,s0,a0
    9cd4:	0f853503          	ld	a0,248(a0) # 10f8 <.LBB52_4+0x2c8>
    9cd8:	03550533          	mul	a0,a0,s5
    9cdc:	000015b7          	lui	a1,0x1
    9ce0:	40b405b3          	sub	a1,s0,a1
    9ce4:	0e05b583          	ld	a1,224(a1) # 10e0 <.LBB52_4+0x2b0>
    9ce8:	014585b3          	add	a1,a1,s4
    9cec:	00b50533          	add	a0,a0,a1
    9cf0:	42855513          	srai	a0,a0,0x28
    9cf4:	92a43423          	sd	a0,-1752(s0)
    9cf8:	00a84663          	blt	a6,a0,9d04 <.LBB52_928>
    9cfc:	f8200513          	li	a0,-126
    9d00:	92a43423          	sd	a0,-1752(s0)

0000000000009d04 <.LBB52_928>:
    9d04:	00001537          	lui	a0,0x1
    9d08:	40a40533          	sub	a0,s0,a0
    9d0c:	17053503          	ld	a0,368(a0) # 1170 <.LBB52_4+0x340>
    9d10:	03550533          	mul	a0,a0,s5
    9d14:	000015b7          	lui	a1,0x1
    9d18:	40b405b3          	sub	a1,s0,a1
    9d1c:	1585b583          	ld	a1,344(a1) # 1158 <.LBB52_4+0x328>
    9d20:	014585b3          	add	a1,a1,s4
    9d24:	00b50533          	add	a0,a0,a1
    9d28:	42855513          	srai	a0,a0,0x28
    9d2c:	92a43023          	sd	a0,-1760(s0)
    9d30:	00a84663          	blt	a6,a0,9d3c <.LBB52_930>
    9d34:	f8200513          	li	a0,-126
    9d38:	92a43023          	sd	a0,-1760(s0)

0000000000009d3c <.LBB52_930>:
    9d3c:	00001537          	lui	a0,0x1
    9d40:	40a40533          	sub	a0,s0,a0
    9d44:	1e853503          	ld	a0,488(a0) # 11e8 <.LBB52_4+0x3b8>
    9d48:	03550533          	mul	a0,a0,s5
    9d4c:	000015b7          	lui	a1,0x1
    9d50:	40b405b3          	sub	a1,s0,a1
    9d54:	1c85b583          	ld	a1,456(a1) # 11c8 <.LBB52_4+0x398>
    9d58:	014585b3          	add	a1,a1,s4
    9d5c:	00b50533          	add	a0,a0,a1
    9d60:	42855513          	srai	a0,a0,0x28
    9d64:	90a43c23          	sd	a0,-1768(s0)
    9d68:	00a84663          	blt	a6,a0,9d74 <.LBB52_932>
    9d6c:	f8200513          	li	a0,-126
    9d70:	90a43c23          	sd	a0,-1768(s0)

0000000000009d74 <.LBB52_932>:
    9d74:	00001537          	lui	a0,0x1
    9d78:	40a40533          	sub	a0,s0,a0
    9d7c:	25853503          	ld	a0,600(a0) # 1258 <.LBB52_4+0x428>
    9d80:	03550533          	mul	a0,a0,s5
    9d84:	000015b7          	lui	a1,0x1
    9d88:	40b405b3          	sub	a1,s0,a1
    9d8c:	2385b583          	ld	a1,568(a1) # 1238 <.LBB52_4+0x408>
    9d90:	014585b3          	add	a1,a1,s4
    9d94:	00b50533          	add	a0,a0,a1
    9d98:	42855513          	srai	a0,a0,0x28
    9d9c:	90a43823          	sd	a0,-1776(s0)
    9da0:	00a84663          	blt	a6,a0,9dac <.LBB52_934>
    9da4:	f8200513          	li	a0,-126
    9da8:	90a43823          	sd	a0,-1776(s0)

0000000000009dac <.LBB52_934>:
    9dac:	00001537          	lui	a0,0x1
    9db0:	40a40533          	sub	a0,s0,a0
    9db4:	2d053503          	ld	a0,720(a0) # 12d0 <.LBB52_4+0x4a0>
    9db8:	03550533          	mul	a0,a0,s5
    9dbc:	000015b7          	lui	a1,0x1
    9dc0:	40b405b3          	sub	a1,s0,a1
    9dc4:	2b05b583          	ld	a1,688(a1) # 12b0 <.LBB52_4+0x480>
    9dc8:	014585b3          	add	a1,a1,s4
    9dcc:	00b50533          	add	a0,a0,a1
    9dd0:	42855513          	srai	a0,a0,0x28
    9dd4:	90a43423          	sd	a0,-1784(s0)
    9dd8:	00a84663          	blt	a6,a0,9de4 <.LBB52_936>
    9ddc:	f8200513          	li	a0,-126
    9de0:	90a43423          	sd	a0,-1784(s0)

0000000000009de4 <.LBB52_936>:
    9de4:	00001537          	lui	a0,0x1
    9de8:	40a40533          	sub	a0,s0,a0
    9dec:	33053503          	ld	a0,816(a0) # 1330 <.LBB52_4+0x500>
    9df0:	03550533          	mul	a0,a0,s5
    9df4:	000015b7          	lui	a1,0x1
    9df8:	40b405b3          	sub	a1,s0,a1
    9dfc:	3185b583          	ld	a1,792(a1) # 1318 <.LBB52_4+0x4e8>
    9e00:	014585b3          	add	a1,a1,s4
    9e04:	00b50533          	add	a0,a0,a1
    9e08:	42855513          	srai	a0,a0,0x28
    9e0c:	90a43023          	sd	a0,-1792(s0)
    9e10:	00a84663          	blt	a6,a0,9e1c <.LBB52_938>
    9e14:	f8200513          	li	a0,-126
    9e18:	90a43023          	sd	a0,-1792(s0)

0000000000009e1c <.LBB52_938>:
    9e1c:	00001537          	lui	a0,0x1
    9e20:	40a40533          	sub	a0,s0,a0
    9e24:	39853503          	ld	a0,920(a0) # 1398 <.LBB52_4+0x568>
    9e28:	03550533          	mul	a0,a0,s5
    9e2c:	000015b7          	lui	a1,0x1
    9e30:	40b405b3          	sub	a1,s0,a1
    9e34:	3805b583          	ld	a1,896(a1) # 1380 <.LBB52_4+0x550>
    9e38:	014585b3          	add	a1,a1,s4
    9e3c:	00b50533          	add	a0,a0,a1
    9e40:	42855513          	srai	a0,a0,0x28
    9e44:	8ea43c23          	sd	a0,-1800(s0)
    9e48:	00a84663          	blt	a6,a0,9e54 <.LBB52_940>
    9e4c:	f8200513          	li	a0,-126
    9e50:	8ea43c23          	sd	a0,-1800(s0)

0000000000009e54 <.LBB52_940>:
    9e54:	00001537          	lui	a0,0x1
    9e58:	40a40533          	sub	a0,s0,a0
    9e5c:	3f053503          	ld	a0,1008(a0) # 13f0 <.LBB52_5+0x18>
    9e60:	03550533          	mul	a0,a0,s5
    9e64:	000015b7          	lui	a1,0x1
    9e68:	40b405b3          	sub	a1,s0,a1
    9e6c:	3e05b583          	ld	a1,992(a1) # 13e0 <.LBB52_5+0x8>
    9e70:	014585b3          	add	a1,a1,s4
    9e74:	00b50533          	add	a0,a0,a1
    9e78:	42855513          	srai	a0,a0,0x28
    9e7c:	8ea43823          	sd	a0,-1808(s0)
    9e80:	00a84663          	blt	a6,a0,9e8c <.LBB52_942>
    9e84:	f8200513          	li	a0,-126
    9e88:	8ea43823          	sd	a0,-1808(s0)

0000000000009e8c <.LBB52_942>:
    9e8c:	00001537          	lui	a0,0x1
    9e90:	40a40533          	sub	a0,s0,a0
    9e94:	44853503          	ld	a0,1096(a0) # 1448 <.LBB52_5+0x70>
    9e98:	03550533          	mul	a0,a0,s5
    9e9c:	000015b7          	lui	a1,0x1
    9ea0:	40b405b3          	sub	a1,s0,a1
    9ea4:	4385b583          	ld	a1,1080(a1) # 1438 <.LBB52_5+0x60>
    9ea8:	014585b3          	add	a1,a1,s4
    9eac:	00b50533          	add	a0,a0,a1
    9eb0:	42855513          	srai	a0,a0,0x28
    9eb4:	8ea43423          	sd	a0,-1816(s0)
    9eb8:	00a84663          	blt	a6,a0,9ec4 <.LBB52_944>
    9ebc:	f8200513          	li	a0,-126
    9ec0:	8ea43423          	sd	a0,-1816(s0)

0000000000009ec4 <.LBB52_944>:
    9ec4:	00001537          	lui	a0,0x1
    9ec8:	40a40533          	sub	a0,s0,a0
    9ecc:	4a053503          	ld	a0,1184(a0) # 14a0 <.LBB52_5+0xc8>
    9ed0:	03550533          	mul	a0,a0,s5
    9ed4:	000015b7          	lui	a1,0x1
    9ed8:	40b405b3          	sub	a1,s0,a1
    9edc:	4905b583          	ld	a1,1168(a1) # 1490 <.LBB52_5+0xb8>
    9ee0:	014585b3          	add	a1,a1,s4
    9ee4:	00b50533          	add	a0,a0,a1
    9ee8:	42855513          	srai	a0,a0,0x28
    9eec:	8ea43023          	sd	a0,-1824(s0)
    9ef0:	00a84663          	blt	a6,a0,9efc <.LBB52_946>
    9ef4:	f8200513          	li	a0,-126
    9ef8:	8ea43023          	sd	a0,-1824(s0)

0000000000009efc <.LBB52_946>:
    9efc:	00001537          	lui	a0,0x1
    9f00:	40a40533          	sub	a0,s0,a0
    9f04:	4f853503          	ld	a0,1272(a0) # 14f8 <.LBB52_5+0x120>
    9f08:	03550533          	mul	a0,a0,s5
    9f0c:	000015b7          	lui	a1,0x1
    9f10:	40b405b3          	sub	a1,s0,a1
    9f14:	4e85b583          	ld	a1,1256(a1) # 14e8 <.LBB52_5+0x110>
    9f18:	014585b3          	add	a1,a1,s4
    9f1c:	00b50533          	add	a0,a0,a1
    9f20:	42855513          	srai	a0,a0,0x28
    9f24:	8ca43823          	sd	a0,-1840(s0)
    9f28:	00a84663          	blt	a6,a0,9f34 <.LBB52_948>
    9f2c:	f8200513          	li	a0,-126
    9f30:	8ca43823          	sd	a0,-1840(s0)

0000000000009f34 <.LBB52_948>:
    9f34:	00001537          	lui	a0,0x1
    9f38:	40a40533          	sub	a0,s0,a0
    9f3c:	55853503          	ld	a0,1368(a0) # 1558 <.LBB52_5+0x180>
    9f40:	03550533          	mul	a0,a0,s5
    9f44:	000015b7          	lui	a1,0x1
    9f48:	40b405b3          	sub	a1,s0,a1
    9f4c:	5485b583          	ld	a1,1352(a1) # 1548 <.LBB52_5+0x170>
    9f50:	014585b3          	add	a1,a1,s4
    9f54:	00b50533          	add	a0,a0,a1
    9f58:	42855513          	srai	a0,a0,0x28
    9f5c:	8ca43023          	sd	a0,-1856(s0)
    9f60:	00a84663          	blt	a6,a0,9f6c <.LBB52_950>
    9f64:	f8200513          	li	a0,-126
    9f68:	8ca43023          	sd	a0,-1856(s0)

0000000000009f6c <.LBB52_950>:
    9f6c:	00001537          	lui	a0,0x1
    9f70:	40a40533          	sub	a0,s0,a0
    9f74:	5a853503          	ld	a0,1448(a0) # 15a8 <.LBB52_5+0x1d0>
    9f78:	03550533          	mul	a0,a0,s5
    9f7c:	000015b7          	lui	a1,0x1
    9f80:	40b405b3          	sub	a1,s0,a1
    9f84:	5a05b583          	ld	a1,1440(a1) # 15a0 <.LBB52_5+0x1c8>
    9f88:	014585b3          	add	a1,a1,s4
    9f8c:	00b50533          	add	a0,a0,a1
    9f90:	42855513          	srai	a0,a0,0x28
    9f94:	8aa43823          	sd	a0,-1872(s0)
    9f98:	00a84663          	blt	a6,a0,9fa4 <.LBB52_952>
    9f9c:	f8200513          	li	a0,-126
    9fa0:	8aa43823          	sd	a0,-1872(s0)

0000000000009fa4 <.LBB52_952>:
    9fa4:	00001537          	lui	a0,0x1
    9fa8:	40a40533          	sub	a0,s0,a0
    9fac:	70053503          	ld	a0,1792(a0) # 1700 <.LBB52_5+0x328>
    9fb0:	03550533          	mul	a0,a0,s5
    9fb4:	000015b7          	lui	a1,0x1
    9fb8:	40b405b3          	sub	a1,s0,a1
    9fbc:	6f05b583          	ld	a1,1776(a1) # 16f0 <.LBB52_5+0x318>
    9fc0:	014585b3          	add	a1,a1,s4
    9fc4:	00b50533          	add	a0,a0,a1
    9fc8:	42855513          	srai	a0,a0,0x28
    9fcc:	8aa43023          	sd	a0,-1888(s0)
    9fd0:	00a84663          	blt	a6,a0,9fdc <.LBB52_954>
    9fd4:	f8200513          	li	a0,-126
    9fd8:	8aa43023          	sd	a0,-1888(s0)

0000000000009fdc <.LBB52_954>:
    9fdc:	00001537          	lui	a0,0x1
    9fe0:	40a40533          	sub	a0,s0,a0
    9fe4:	7c853503          	ld	a0,1992(a0) # 17c8 <.LBB52_5+0x3f0>
    9fe8:	03550533          	mul	a0,a0,s5
    9fec:	000015b7          	lui	a1,0x1
    9ff0:	40b405b3          	sub	a1,s0,a1
    9ff4:	7285b583          	ld	a1,1832(a1) # 1728 <.LBB52_5+0x350>
    9ff8:	014585b3          	add	a1,a1,s4
    9ffc:	00b50533          	add	a0,a0,a1
    a000:	42855513          	srai	a0,a0,0x28
    a004:	88a43823          	sd	a0,-1904(s0)
    a008:	00a84663          	blt	a6,a0,a014 <.LBB52_956>
    a00c:	f8200513          	li	a0,-126
    a010:	88a43823          	sd	a0,-1904(s0)

000000000000a014 <.LBB52_956>:
    a014:	00001537          	lui	a0,0x1
    a018:	40a40533          	sub	a0,s0,a0
    a01c:	7f853503          	ld	a0,2040(a0) # 17f8 <.LBB52_5+0x420>
    a020:	03550533          	mul	a0,a0,s5
    a024:	000015b7          	lui	a1,0x1
    a028:	40b405b3          	sub	a1,s0,a1
    a02c:	7e85b583          	ld	a1,2024(a1) # 17e8 <.LBB52_5+0x410>
    a030:	014585b3          	add	a1,a1,s4
    a034:	00b50533          	add	a0,a0,a1
    a038:	42855513          	srai	a0,a0,0x28
    a03c:	88a43023          	sd	a0,-1920(s0)
    a040:	00a84663          	blt	a6,a0,a04c <.LBB52_958>
    a044:	f8200513          	li	a0,-126
    a048:	88a43023          	sd	a0,-1920(s0)

000000000000a04c <.LBB52_958>:
    a04c:	85043503          	ld	a0,-1968(s0)
    a050:	03550533          	mul	a0,a0,s5
    a054:	84843583          	ld	a1,-1976(s0)
    a058:	014585b3          	add	a1,a1,s4
    a05c:	00b50533          	add	a0,a0,a1
    a060:	42855513          	srai	a0,a0,0x28
    a064:	86a43823          	sd	a0,-1936(s0)
    a068:	00a84663          	blt	a6,a0,a074 <.LBB52_960>
    a06c:	f8200513          	li	a0,-126
    a070:	86a43823          	sd	a0,-1936(s0)

000000000000a074 <.LBB52_960>:
    a074:	86843503          	ld	a0,-1944(s0)
    a078:	03550533          	mul	a0,a0,s5
    a07c:	86043583          	ld	a1,-1952(s0)
    a080:	014585b3          	add	a1,a1,s4
    a084:	00b50533          	add	a0,a0,a1
    a088:	42855513          	srai	a0,a0,0x28
    a08c:	86a43023          	sd	a0,-1952(s0)
    a090:	00a84663          	blt	a6,a0,a09c <.LBB52_962>
    a094:	f8200513          	li	a0,-126
    a098:	86a43023          	sd	a0,-1952(s0)

000000000000a09c <.LBB52_962>:
    a09c:	8b843503          	ld	a0,-1864(s0)
    a0a0:	03550533          	mul	a0,a0,s5
    a0a4:	8a843583          	ld	a1,-1880(s0)
    a0a8:	014585b3          	add	a1,a1,s4
    a0ac:	00b50533          	add	a0,a0,a1
    a0b0:	42855d93          	srai	s11,a0,0x28
    a0b4:	01b84463          	blt	a6,s11,a0bc <.LBB52_964>
    a0b8:	f8200d93          	li	s11,-126

000000000000a0bc <.LBB52_964>:
    a0bc:	8d843503          	ld	a0,-1832(s0)
    a0c0:	03550533          	mul	a0,a0,s5
    a0c4:	014605b3          	add	a1,a2,s4
    a0c8:	00b50533          	add	a0,a0,a1
    a0cc:	42855393          	srai	t2,a0,0x28
    a0d0:	00784463          	blt	a6,t2,a0d8 <.LBB52_966>
    a0d4:	f8200393          	li	t2,-126

000000000000a0d8 <.LBB52_966>:
    a0d8:	03508533          	mul	a0,ra,s5
    a0dc:	000015b7          	lui	a1,0x1
    a0e0:	40b405b3          	sub	a1,s0,a1
    a0e4:	6805b583          	ld	a1,1664(a1) # 1680 <.LBB52_5+0x2a8>
    a0e8:	014585b3          	add	a1,a1,s4
    a0ec:	00b50533          	add	a0,a0,a1
    a0f0:	42855c93          	srai	s9,a0,0x28
    a0f4:	00001537          	lui	a0,0x1
    a0f8:	40a40533          	sub	a0,s0,a0
    a0fc:	cc053603          	ld	a2,-832(a0) # cc0 <.LBB52_3+0xadc>
    a100:	01984463          	blt	a6,s9,a108 <.LBB52_968>
    a104:	f8200c93          	li	s9,-126

000000000000a108 <.LBB52_968>:
    a108:	035f8533          	mul	a0,t6,s5
    a10c:	000015b7          	lui	a1,0x1
    a110:	40b405b3          	sub	a1,s0,a1
    a114:	7805b583          	ld	a1,1920(a1) # 1780 <.LBB52_5+0x3a8>
    a118:	014585b3          	add	a1,a1,s4
    a11c:	00b50533          	add	a0,a0,a1
    a120:	42855513          	srai	a0,a0,0x28
    a124:	85d43423          	sd	t4,-1976(s0)
    a128:	8ca43423          	sd	a0,-1848(s0)
    a12c:	00a84663          	blt	a6,a0,a138 <.LBB52_970>
    a130:	f8200513          	li	a0,-126
    a134:	8ca43423          	sd	a0,-1848(s0)

000000000000a138 <.LBB52_970>:
    a138:	03570533          	mul	a0,a4,s5
    a13c:	000015b7          	lui	a1,0x1
    a140:	40b405b3          	sub	a1,s0,a1
    a144:	c785b583          	ld	a1,-904(a1) # c78 <.LBB52_3+0xa94>
    a148:	014585b3          	add	a1,a1,s4
    a14c:	00b50533          	add	a0,a0,a1
    a150:	42855513          	srai	a0,a0,0x28
    a154:	8aa43c23          	sd	a0,-1864(s0)
    a158:	00a84663          	blt	a6,a0,a164 <.LBB52_972>
    a15c:	f8200513          	li	a0,-126
    a160:	8aa43c23          	sd	a0,-1864(s0)

000000000000a164 <.LBB52_972>:
    a164:	035d0533          	mul	a0,s10,s5
    a168:	014605b3          	add	a1,a2,s4
    a16c:	00b50533          	add	a0,a0,a1
    a170:	42855513          	srai	a0,a0,0x28
    a174:	000015b7          	lui	a1,0x1
    a178:	40b405b3          	sub	a1,s0,a1
    a17c:	3785b703          	ld	a4,888(a1) # 1378 <.LBB52_4+0x548>
    a180:	8aa43423          	sd	a0,-1880(s0)
    a184:	00a84663          	blt	a6,a0,a190 <.LBB52_974>
    a188:	f8200513          	li	a0,-126
    a18c:	8aa43423          	sd	a0,-1880(s0)

000000000000a190 <.LBB52_974>:
    a190:	00001537          	lui	a0,0x1
    a194:	40a40533          	sub	a0,s0,a0
    a198:	d3853503          	ld	a0,-712(a0) # d38 <.LBB52_3+0xb54>
    a19c:	03550533          	mul	a0,a0,s5
    a1a0:	000015b7          	lui	a1,0x1
    a1a4:	40b405b3          	sub	a1,s0,a1
    a1a8:	d285b583          	ld	a1,-728(a1) # d28 <.LBB52_3+0xb44>
    a1ac:	014585b3          	add	a1,a1,s4
    a1b0:	00b50533          	add	a0,a0,a1
    a1b4:	42855513          	srai	a0,a0,0x28
    a1b8:	88a43c23          	sd	a0,-1896(s0)
    a1bc:	00a84663          	blt	a6,a0,a1c8 <.LBB52_976>
    a1c0:	f8200513          	li	a0,-126
    a1c4:	88a43c23          	sd	a0,-1896(s0)

000000000000a1c8 <.LBB52_976>:
    a1c8:	00001537          	lui	a0,0x1
    a1cc:	40a40533          	sub	a0,s0,a0
    a1d0:	76053503          	ld	a0,1888(a0) # 1760 <.LBB52_5+0x388>
    a1d4:	03550533          	mul	a0,a0,s5
    a1d8:	000015b7          	lui	a1,0x1
    a1dc:	40b405b3          	sub	a1,s0,a1
    a1e0:	da05b583          	ld	a1,-608(a1) # da0 <.LBB52_3+0xbbc>
    a1e4:	014585b3          	add	a1,a1,s4
    a1e8:	00b50533          	add	a0,a0,a1
    a1ec:	42855513          	srai	a0,a0,0x28
    a1f0:	88a43423          	sd	a0,-1912(s0)
    a1f4:	00a84663          	blt	a6,a0,a200 <.LBB52_978>
    a1f8:	f8200513          	li	a0,-126
    a1fc:	88a43423          	sd	a0,-1912(s0)

000000000000a200 <.LBB52_978>:
    a200:	00001537          	lui	a0,0x1
    a204:	40a40533          	sub	a0,s0,a0
    a208:	75853503          	ld	a0,1880(a0) # 1758 <.LBB52_5+0x380>
    a20c:	03550533          	mul	a0,a0,s5
    a210:	000015b7          	lui	a1,0x1
    a214:	40b405b3          	sub	a1,s0,a1
    a218:	e185b583          	ld	a1,-488(a1) # e18 <.LBB52_3+0xc34>
    a21c:	014585b3          	add	a1,a1,s4
    a220:	00b50533          	add	a0,a0,a1
    a224:	42855513          	srai	a0,a0,0x28
    a228:	86a43c23          	sd	a0,-1928(s0)
    a22c:	00a84663          	blt	a6,a0,a238 <.LBB52_980>
    a230:	f8200513          	li	a0,-126
    a234:	86a43c23          	sd	a0,-1928(s0)

000000000000a238 <.LBB52_980>:
    a238:	00001537          	lui	a0,0x1
    a23c:	40a40533          	sub	a0,s0,a0
    a240:	75053503          	ld	a0,1872(a0) # 1750 <.LBB52_5+0x378>
    a244:	03550533          	mul	a0,a0,s5
    a248:	000015b7          	lui	a1,0x1
    a24c:	40b405b3          	sub	a1,s0,a1
    a250:	e885b583          	ld	a1,-376(a1) # e88 <.LBB52_4+0x58>
    a254:	014585b3          	add	a1,a1,s4
    a258:	00b50533          	add	a0,a0,a1
    a25c:	42855513          	srai	a0,a0,0x28
    a260:	86a43423          	sd	a0,-1944(s0)
    a264:	00a84663          	blt	a6,a0,a270 <.LBB52_982>
    a268:	f8200513          	li	a0,-126
    a26c:	86a43423          	sd	a0,-1944(s0)

000000000000a270 <.LBB52_982>:
    a270:	00001537          	lui	a0,0x1
    a274:	40a40533          	sub	a0,s0,a0
    a278:	74853503          	ld	a0,1864(a0) # 1748 <.LBB52_5+0x370>
    a27c:	03550533          	mul	a0,a0,s5
    a280:	000015b7          	lui	a1,0x1
    a284:	40b405b3          	sub	a1,s0,a1
    a288:	f005b583          	ld	a1,-256(a1) # f00 <.LBB52_4+0xd0>
    a28c:	014585b3          	add	a1,a1,s4
    a290:	00b50533          	add	a0,a0,a1
    a294:	42855513          	srai	a0,a0,0x28
    a298:	84a43c23          	sd	a0,-1960(s0)
    a29c:	00a84663          	blt	a6,a0,a2a8 <.LBB52_984>
    a2a0:	f8200513          	li	a0,-126
    a2a4:	84a43c23          	sd	a0,-1960(s0)

000000000000a2a8 <.LBB52_984>:
    a2a8:	00001537          	lui	a0,0x1
    a2ac:	40a40533          	sub	a0,s0,a0
    a2b0:	74053503          	ld	a0,1856(a0) # 1740 <.LBB52_5+0x368>
    a2b4:	03550533          	mul	a0,a0,s5
    a2b8:	000015b7          	lui	a1,0x1
    a2bc:	40b405b3          	sub	a1,s0,a1
    a2c0:	f705b583          	ld	a1,-144(a1) # f70 <.LBB52_4+0x140>
    a2c4:	014585b3          	add	a1,a1,s4
    a2c8:	00b50533          	add	a0,a0,a1
    a2cc:	42855513          	srai	a0,a0,0x28
    a2d0:	84a43823          	sd	a0,-1968(s0)
    a2d4:	00a84663          	blt	a6,a0,a2e0 <.LBB52_986>
    a2d8:	f8200513          	li	a0,-126
    a2dc:	84a43823          	sd	a0,-1968(s0)

000000000000a2e0 <.LBB52_986>:
    a2e0:	00001537          	lui	a0,0x1
    a2e4:	40a40533          	sub	a0,s0,a0
    a2e8:	ff853503          	ld	a0,-8(a0) # ff8 <.LBB52_4+0x1c8>
    a2ec:	03550533          	mul	a0,a0,s5
    a2f0:	000015b7          	lui	a1,0x1
    a2f4:	40b405b3          	sub	a1,s0,a1
    a2f8:	fe85b583          	ld	a1,-24(a1) # fe8 <.LBB52_4+0x1b8>
    a2fc:	014585b3          	add	a1,a1,s4
    a300:	00b50533          	add	a0,a0,a1
    a304:	42855893          	srai	a7,a0,0x28
    a308:	01184463          	blt	a6,a7,a310 <.LBB52_988>
    a30c:	f8200893          	li	a7,-126

000000000000a310 <.LBB52_988>:
    a310:	00001537          	lui	a0,0x1
    a314:	40a40533          	sub	a0,s0,a0
    a318:	07053503          	ld	a0,112(a0) # 1070 <.LBB52_4+0x240>
    a31c:	03550533          	mul	a0,a0,s5
    a320:	000015b7          	lui	a1,0x1
    a324:	40b405b3          	sub	a1,s0,a1
    a328:	0605b583          	ld	a1,96(a1) # 1060 <.LBB52_4+0x230>
    a32c:	014585b3          	add	a1,a1,s4
    a330:	00b50533          	add	a0,a0,a1
    a334:	42855c13          	srai	s8,a0,0x28
    a338:	01884463          	blt	a6,s8,a340 <.LBB52_990>
    a33c:	f8200c13          	li	s8,-126

000000000000a340 <.LBB52_990>:
    a340:	00001537          	lui	a0,0x1
    a344:	40a40533          	sub	a0,s0,a0
    a348:	0e853503          	ld	a0,232(a0) # 10e8 <.LBB52_4+0x2b8>
    a34c:	03550533          	mul	a0,a0,s5
    a350:	000015b7          	lui	a1,0x1
    a354:	40b405b3          	sub	a1,s0,a1
    a358:	0d85b583          	ld	a1,216(a1) # 10d8 <.LBB52_4+0x2a8>
    a35c:	014585b3          	add	a1,a1,s4
    a360:	00b50533          	add	a0,a0,a1
    a364:	42855293          	srai	t0,a0,0x28
    a368:	00584463          	blt	a6,t0,a370 <.LBB52_992>
    a36c:	f8200293          	li	t0,-126

000000000000a370 <.LBB52_992>:
    a370:	00001537          	lui	a0,0x1
    a374:	40a40533          	sub	a0,s0,a0
    a378:	16053503          	ld	a0,352(a0) # 1160 <.LBB52_4+0x330>
    a37c:	03550533          	mul	a0,a0,s5
    a380:	000015b7          	lui	a1,0x1
    a384:	40b405b3          	sub	a1,s0,a1
    a388:	1485b583          	ld	a1,328(a1) # 1148 <.LBB52_4+0x318>
    a38c:	014585b3          	add	a1,a1,s4
    a390:	00b50533          	add	a0,a0,a1
    a394:	42855313          	srai	t1,a0,0x28
    a398:	00684463          	blt	a6,t1,a3a0 <.LBB52_994>
    a39c:	f8200313          	li	t1,-126

000000000000a3a0 <.LBB52_994>:
    a3a0:	00001537          	lui	a0,0x1
    a3a4:	40a40533          	sub	a0,s0,a0
    a3a8:	1d053503          	ld	a0,464(a0) # 11d0 <.LBB52_4+0x3a0>
    a3ac:	03550533          	mul	a0,a0,s5
    a3b0:	000015b7          	lui	a1,0x1
    a3b4:	40b405b3          	sub	a1,s0,a1
    a3b8:	1b85b583          	ld	a1,440(a1) # 11b8 <.LBB52_4+0x388>
    a3bc:	014585b3          	add	a1,a1,s4
    a3c0:	00b50533          	add	a0,a0,a1
    a3c4:	42855693          	srai	a3,a0,0x28
    a3c8:	00d84463          	blt	a6,a3,a3d0 <.LBB52_996>
    a3cc:	f8200693          	li	a3,-126

000000000000a3d0 <.LBB52_996>:
    a3d0:	00001537          	lui	a0,0x1
    a3d4:	40a40533          	sub	a0,s0,a0
    a3d8:	24853503          	ld	a0,584(a0) # 1248 <.LBB52_4+0x418>
    a3dc:	03550533          	mul	a0,a0,s5
    a3e0:	000015b7          	lui	a1,0x1
    a3e4:	40b405b3          	sub	a1,s0,a1
    a3e8:	2305b583          	ld	a1,560(a1) # 1230 <.LBB52_4+0x400>
    a3ec:	014585b3          	add	a1,a1,s4
    a3f0:	00b50533          	add	a0,a0,a1
    a3f4:	42855513          	srai	a0,a0,0x28
    a3f8:	00a84463          	blt	a6,a0,a400 <.LBB52_998>
    a3fc:	f8200513          	li	a0,-126

000000000000a400 <.LBB52_998>:
    a400:	000015b7          	lui	a1,0x1
    a404:	40b405b3          	sub	a1,s0,a1
    a408:	2b85b583          	ld	a1,696(a1) # 12b8 <.LBB52_4+0x488>
    a40c:	035585b3          	mul	a1,a1,s5
    a410:	00001637          	lui	a2,0x1
    a414:	40c40633          	sub	a2,s0,a2
    a418:	2a863603          	ld	a2,680(a2) # 12a8 <.LBB52_4+0x478>
    a41c:	01460633          	add	a2,a2,s4
    a420:	00c585b3          	add	a1,a1,a2
    a424:	4285de13          	srai	t3,a1,0x28
    a428:	01c84463          	blt	a6,t3,a430 <.LBB52_1000>
    a42c:	f8200e13          	li	t3,-126

000000000000a430 <.LBB52_1000>:
    a430:	000015b7          	lui	a1,0x1
    a434:	40b405b3          	sub	a1,s0,a1
    a438:	3205b583          	ld	a1,800(a1) # 1320 <.LBB52_4+0x4f0>
    a43c:	035585b3          	mul	a1,a1,s5
    a440:	00001637          	lui	a2,0x1
    a444:	40c40633          	sub	a2,s0,a2
    a448:	31063603          	ld	a2,784(a2) # 1310 <.LBB52_4+0x4e0>
    a44c:	01460633          	add	a2,a2,s4
    a450:	00c585b3          	add	a1,a1,a2
    a454:	4285d593          	srai	a1,a1,0x28
    a458:	00b84463          	blt	a6,a1,a460 <.LBB52_1002>
    a45c:	f8200593          	li	a1,-126

000000000000a460 <.LBB52_1002>:
    a460:	00001637          	lui	a2,0x1
    a464:	40c40633          	sub	a2,s0,a2
    a468:	38863603          	ld	a2,904(a2) # 1388 <.LBB52_4+0x558>
    a46c:	03560633          	mul	a2,a2,s5
    a470:	01470733          	add	a4,a4,s4
    a474:	00e60633          	add	a2,a2,a4
    a478:	42865613          	srai	a2,a2,0x28
    a47c:	00c84463          	blt	a6,a2,a484 <.LBB52_1004>
    a480:	f8200613          	li	a2,-126

000000000000a484 <.LBB52_1004>:
    a484:	00001737          	lui	a4,0x1
    a488:	40e40733          	sub	a4,s0,a4
    a48c:	69073703          	ld	a4,1680(a4) # 1690 <.LBB52_5+0x2b8>
    a490:	03570733          	mul	a4,a4,s5
    a494:	000017b7          	lui	a5,0x1
    a498:	40f407b3          	sub	a5,s0,a5
    a49c:	6887b783          	ld	a5,1672(a5) # 1688 <.LBB52_5+0x2b0>
    a4a0:	014787b3          	add	a5,a5,s4
    a4a4:	00f70733          	add	a4,a4,a5
    a4a8:	42875f93          	srai	t6,a4,0x28
    a4ac:	01f84463          	blt	a6,t6,a4b4 <.LBB52_1006>
    a4b0:	f8200f93          	li	t6,-126

000000000000a4b4 <.LBB52_1006>:
    a4b4:	00001737          	lui	a4,0x1
    a4b8:	40e40733          	sub	a4,s0,a4
    a4bc:	6e873703          	ld	a4,1768(a4) # 16e8 <.LBB52_5+0x310>
    a4c0:	03570733          	mul	a4,a4,s5
    a4c4:	000017b7          	lui	a5,0x1
    a4c8:	40f407b3          	sub	a5,s0,a5
    a4cc:	6987b783          	ld	a5,1688(a5) # 1698 <.LBB52_5+0x2c0>
    a4d0:	014787b3          	add	a5,a5,s4
    a4d4:	00f70733          	add	a4,a4,a5
    a4d8:	42875493          	srai	s1,a4,0x28
    a4dc:	00984463          	blt	a6,s1,a4e4 <.LBB52_1008>
    a4e0:	f8200493          	li	s1,-126

000000000000a4e4 <.LBB52_1008>:
    a4e4:	00001737          	lui	a4,0x1
    a4e8:	40e40733          	sub	a4,s0,a4
    a4ec:	6e073703          	ld	a4,1760(a4) # 16e0 <.LBB52_5+0x308>
    a4f0:	03570733          	mul	a4,a4,s5
    a4f4:	000017b7          	lui	a5,0x1
    a4f8:	40f407b3          	sub	a5,s0,a5
    a4fc:	6a07b783          	ld	a5,1696(a5) # 16a0 <.LBB52_5+0x2c8>
    a500:	014787b3          	add	a5,a5,s4
    a504:	00f70733          	add	a4,a4,a5
    a508:	42875913          	srai	s2,a4,0x28
    a50c:	01284463          	blt	a6,s2,a514 <.LBB52_1010>
    a510:	f8200913          	li	s2,-126

000000000000a514 <.LBB52_1010>:
    a514:	00001737          	lui	a4,0x1
    a518:	40e40733          	sub	a4,s0,a4
    a51c:	6d873703          	ld	a4,1752(a4) # 16d8 <.LBB52_5+0x300>
    a520:	03570733          	mul	a4,a4,s5
    a524:	000017b7          	lui	a5,0x1
    a528:	40f407b3          	sub	a5,s0,a5
    a52c:	6a87b783          	ld	a5,1704(a5) # 16a8 <.LBB52_5+0x2d0>
    a530:	014787b3          	add	a5,a5,s4
    a534:	00f70733          	add	a4,a4,a5
    a538:	42875993          	srai	s3,a4,0x28
    a53c:	01384463          	blt	a6,s3,a544 <.LBB52_1012>
    a540:	f8200993          	li	s3,-126

000000000000a544 <.LBB52_1012>:
    a544:	00001737          	lui	a4,0x1
    a548:	40e40733          	sub	a4,s0,a4
    a54c:	6b873703          	ld	a4,1720(a4) # 16b8 <.LBB52_5+0x2e0>
    a550:	03570733          	mul	a4,a4,s5
    a554:	000017b7          	lui	a5,0x1
    a558:	40f407b3          	sub	a5,s0,a5
    a55c:	6b07b783          	ld	a5,1712(a5) # 16b0 <.LBB52_5+0x2d8>
    a560:	014787b3          	add	a5,a5,s4
    a564:	00f70733          	add	a4,a4,a5
    a568:	42875a13          	srai	s4,a4,0x28
    a56c:	01484463          	blt	a6,s4,a574 <.LBB52_1014>
    a570:	f8200a13          	li	s4,-126

000000000000a574 <.LBB52_1014>:
    a574:	00001737          	lui	a4,0x1
    a578:	40e40733          	sub	a4,s0,a4
    a57c:	6c873703          	ld	a4,1736(a4) # 16c8 <.LBB52_5+0x2f0>
    a580:	03570733          	mul	a4,a4,s5
    a584:	e6043783          	ld	a5,-416(s0)
    a588:	00001eb7          	lui	t4,0x1
    a58c:	41d40eb3          	sub	t4,s0,t4
    a590:	6c0ebe83          	ld	t4,1728(t4) # 16c0 <.LBB52_5+0x2e8>
    a594:	00fe87b3          	add	a5,t4,a5
    a598:	00f70733          	add	a4,a4,a5
    a59c:	42875a93          	srai	s5,a4,0x28
    a5a0:	01584463          	blt	a6,s5,a5a8 <.LBB52_1016>
    a5a4:	f8200a93          	li	s5,-126

000000000000a5a8 <.LBB52_1016>:
    a5a8:	00001737          	lui	a4,0x1
    a5ac:	40e40733          	sub	a4,s0,a4
    a5b0:	66073703          	ld	a4,1632(a4) # 1660 <.LBB52_5+0x288>
    a5b4:	000017b7          	lui	a5,0x1
    a5b8:	40f407b3          	sub	a5,s0,a5
    a5bc:	6f87b783          	ld	a5,1784(a5) # 16f8 <.LBB52_5+0x320>
    a5c0:	02e78733          	mul	a4,a5,a4
    a5c4:	e6043783          	ld	a5,-416(s0)
    a5c8:	00001eb7          	lui	t4,0x1
    a5cc:	41d40eb3          	sub	t4,s0,t4
    a5d0:	6d0ebe83          	ld	t4,1744(t4) # 16d0 <.LBB52_5+0x2f8>
    a5d4:	00fe87b3          	add	a5,t4,a5
    a5d8:	00f70733          	add	a4,a4,a5
    a5dc:	42875b13          	srai	s6,a4,0x28
    a5e0:	01684463          	blt	a6,s6,a5e8 <.LBB52_1018>
    a5e4:	f8200b13          	li	s6,-126

000000000000a5e8 <.LBB52_1018>:
    a5e8:	00001737          	lui	a4,0x1
    a5ec:	40e40733          	sub	a4,s0,a4
    a5f0:	66073703          	ld	a4,1632(a4) # 1660 <.LBB52_5+0x288>
    a5f4:	000017b7          	lui	a5,0x1
    a5f8:	40f407b3          	sub	a5,s0,a5
    a5fc:	7c07b783          	ld	a5,1984(a5) # 17c0 <.LBB52_5+0x3e8>
    a600:	02e78733          	mul	a4,a5,a4
    a604:	e6043783          	ld	a5,-416(s0)
    a608:	00001eb7          	lui	t4,0x1
    a60c:	41d40eb3          	sub	t4,s0,t4
    a610:	720ebe83          	ld	t4,1824(t4) # 1720 <.LBB52_5+0x348>
    a614:	00fe87b3          	add	a5,t4,a5
    a618:	00f70733          	add	a4,a4,a5
    a61c:	42875793          	srai	a5,a4,0x28
    a620:	00f84463          	blt	a6,a5,a628 <.LBB52_1020>
    a624:	f8200793          	li	a5,-126

000000000000a628 <.LBB52_1020>:
    a628:	00001737          	lui	a4,0x1
    a62c:	40e40733          	sub	a4,s0,a4
    a630:	66073703          	ld	a4,1632(a4) # 1660 <.LBB52_5+0x288>
    a634:	00001eb7          	lui	t4,0x1
    a638:	41d40eb3          	sub	t4,s0,t4
    a63c:	7f0ebe83          	ld	t4,2032(t4) # 17f0 <.LBB52_5+0x418>
    a640:	02ee8733          	mul	a4,t4,a4
    a644:	e6043e83          	ld	t4,-416(s0)
    a648:	00001f37          	lui	t5,0x1
    a64c:	41e40f33          	sub	t5,s0,t5
    a650:	7e0f3f03          	ld	t5,2016(t5) # 17e0 <.LBB52_5+0x408>
    a654:	01df0eb3          	add	t4,t5,t4
    a658:	01d70733          	add	a4,a4,t4
    a65c:	42875f13          	srai	t5,a4,0x28
    a660:	01e84463          	blt	a6,t5,a668 <.LBB52_1022>
    a664:	f8200f13          	li	t5,-126

000000000000a668 <.LBB52_1022>:
    a668:	00001737          	lui	a4,0x1
    a66c:	40e40733          	sub	a4,s0,a4
    a670:	66073703          	ld	a4,1632(a4) # 1660 <.LBB52_5+0x288>
    a674:	81043e83          	ld	t4,-2032(s0)
    a678:	02ee8733          	mul	a4,t4,a4
    a67c:	e6043e83          	ld	t4,-416(s0)
    a680:	80843b83          	ld	s7,-2040(s0)
    a684:	01db8eb3          	add	t4,s7,t4
    a688:	01d70733          	add	a4,a4,t4
    a68c:	42875713          	srai	a4,a4,0x28
    a690:	00e84463          	blt	a6,a4,a698 <.LBB52_1024>
    a694:	f8200713          	li	a4,-126

000000000000a698 <.LBB52_1024>:
    a698:	8d943c23          	sd	s9,-1832(s0)
    a69c:	00001eb7          	lui	t4,0x1
    a6a0:	41d40eb3          	sub	t4,s0,t4
    a6a4:	660ebe83          	ld	t4,1632(t4) # 1660 <.LBB52_5+0x288>
    a6a8:	82043b83          	ld	s7,-2016(s0)
    a6ac:	03db8eb3          	mul	t4,s7,t4
    a6b0:	e6043b83          	ld	s7,-416(s0)
    a6b4:	81843c83          	ld	s9,-2024(s0)
    a6b8:	017c8bb3          	add	s7,s9,s7
    a6bc:	017e8eb3          	add	t4,t4,s7
    a6c0:	428edb93          	srai	s7,t4,0x28
    a6c4:	01784463          	blt	a6,s7,a6cc <.LBB52_1026>
    a6c8:	f8200b93          	li	s7,-126

000000000000a6cc <.LBB52_1026>:
    a6cc:	00001eb7          	lui	t4,0x1
    a6d0:	41d40eb3          	sub	t4,s0,t4
    a6d4:	660ebe83          	ld	t4,1632(t4) # 1660 <.LBB52_5+0x288>
    a6d8:	83043c83          	ld	s9,-2000(s0)
    a6dc:	03dc8eb3          	mul	t4,s9,t4
    a6e0:	e6043c83          	ld	s9,-416(s0)
    a6e4:	82843d03          	ld	s10,-2008(s0)
    a6e8:	019d0cb3          	add	s9,s10,s9
    a6ec:	019e8eb3          	add	t4,t4,s9
    a6f0:	428edc93          	srai	s9,t4,0x28
    a6f4:	01984463          	blt	a6,s9,a6fc <.LBB52_1028>
    a6f8:	f8200c93          	li	s9,-126

000000000000a6fc <.LBB52_1028>:
    a6fc:	00001eb7          	lui	t4,0x1
    a700:	41d40eb3          	sub	t4,s0,t4
    a704:	660ebe83          	ld	t4,1632(t4) # 1660 <.LBB52_5+0x288>
    a708:	84043d03          	ld	s10,-1984(s0)
    a70c:	03dd0eb3          	mul	t4,s10,t4
    a710:	e6043d03          	ld	s10,-416(s0)
    a714:	83843083          	ld	ra,-1992(s0)
    a718:	01a08d33          	add	s10,ra,s10
    a71c:	01ae8eb3          	add	t4,t4,s10
    a720:	428ede93          	srai	t4,t4,0x28
    a724:	7bd85663          	bge	a6,t4,aed0 <.LBB52_1285>
    a728:	08100813          	li	a6,129
    a72c:	84843d03          	ld	s10,-1976(s0)
    a730:	7b0d5863          	bge	s10,a6,aee0 <.LBB52_1286>

000000000000a734 <.LBB52_1030>:
    a734:	e4843d03          	ld	s10,-440(s0)
    a738:	7b0d5c63          	bge	s10,a6,aef0 <.LBB52_1287>

000000000000a73c <.LBB52_1031>:
    a73c:	e5843d03          	ld	s10,-424(s0)
    a740:	7d0d5063          	bge	s10,a6,af00 <.LBB52_1288>

000000000000a744 <.LBB52_1032>:
    a744:	e7043d03          	ld	s10,-400(s0)
    a748:	7d0d5463          	bge	s10,a6,af10 <.LBB52_1289>

000000000000a74c <.LBB52_1033>:
    a74c:	e8043d03          	ld	s10,-384(s0)
    a750:	7d0d5863          	bge	s10,a6,af20 <.LBB52_1290>

000000000000a754 <.LBB52_1034>:
    a754:	e9043d03          	ld	s10,-368(s0)
    a758:	7d0d5c63          	bge	s10,a6,af30 <.LBB52_1291>

000000000000a75c <.LBB52_1035>:
    a75c:	ea043d03          	ld	s10,-352(s0)
    a760:	7f0d5063          	bge	s10,a6,af40 <.LBB52_1292>

000000000000a764 <.LBB52_1036>:
    a764:	eb043d03          	ld	s10,-336(s0)
    a768:	7f0d5463          	bge	s10,a6,af50 <.LBB52_1293>

000000000000a76c <.LBB52_1037>:
    a76c:	ec043d03          	ld	s10,-320(s0)
    a770:	7f0d5863          	bge	s10,a6,af60 <.LBB52_1294>

000000000000a774 <.LBB52_1038>:
    a774:	ed043d03          	ld	s10,-304(s0)
    a778:	7f0d5c63          	bge	s10,a6,af70 <.LBB52_1295>

000000000000a77c <.LBB52_1039>:
    a77c:	ee043d03          	ld	s10,-288(s0)
    a780:	010d50e3          	bge	s10,a6,af80 <.LBB52_1296>

000000000000a784 <.LBB52_1040>:
    a784:	ee843d03          	ld	s10,-280(s0)
    a788:	010d54e3          	bge	s10,a6,af90 <.LBB52_1297>

000000000000a78c <.LBB52_1041>:
    a78c:	ef043d03          	ld	s10,-272(s0)
    a790:	010d58e3          	bge	s10,a6,afa0 <.LBB52_1298>

000000000000a794 <.LBB52_1042>:
    a794:	ef843d03          	ld	s10,-264(s0)
    a798:	010d5ce3          	bge	s10,a6,afb0 <.LBB52_1299>

000000000000a79c <.LBB52_1043>:
    a79c:	f0043d03          	ld	s10,-256(s0)
    a7a0:	030d50e3          	bge	s10,a6,afc0 <.LBB52_1300>

000000000000a7a4 <.LBB52_1044>:
    a7a4:	f0843d03          	ld	s10,-248(s0)
    a7a8:	030d54e3          	bge	s10,a6,afd0 <.LBB52_1301>

000000000000a7ac <.LBB52_1045>:
    a7ac:	f1043d03          	ld	s10,-240(s0)
    a7b0:	030d58e3          	bge	s10,a6,afe0 <.LBB52_1302>

000000000000a7b4 <.LBB52_1046>:
    a7b4:	f1843d03          	ld	s10,-232(s0)
    a7b8:	030d5ce3          	bge	s10,a6,aff0 <.LBB52_1303>

000000000000a7bc <.LBB52_1047>:
    a7bc:	f2043d03          	ld	s10,-224(s0)
    a7c0:	050d50e3          	bge	s10,a6,b000 <.LBB52_1304>

000000000000a7c4 <.LBB52_1048>:
    a7c4:	f2843d03          	ld	s10,-216(s0)
    a7c8:	050d54e3          	bge	s10,a6,b010 <.LBB52_1305>

000000000000a7cc <.LBB52_1049>:
    a7cc:	f3043d03          	ld	s10,-208(s0)
    a7d0:	050d58e3          	bge	s10,a6,b020 <.LBB52_1306>

000000000000a7d4 <.LBB52_1050>:
    a7d4:	f3843d03          	ld	s10,-200(s0)
    a7d8:	050d5ce3          	bge	s10,a6,b030 <.LBB52_1307>

000000000000a7dc <.LBB52_1051>:
    a7dc:	f4043d03          	ld	s10,-192(s0)
    a7e0:	070d50e3          	bge	s10,a6,b040 <.LBB52_1308>

000000000000a7e4 <.LBB52_1052>:
    a7e4:	f4843d03          	ld	s10,-184(s0)
    a7e8:	070d54e3          	bge	s10,a6,b050 <.LBB52_1309>

000000000000a7ec <.LBB52_1053>:
    a7ec:	f5043d03          	ld	s10,-176(s0)
    a7f0:	070d58e3          	bge	s10,a6,b060 <.LBB52_1310>

000000000000a7f4 <.LBB52_1054>:
    a7f4:	f5843d03          	ld	s10,-168(s0)
    a7f8:	070d5ce3          	bge	s10,a6,b070 <.LBB52_1311>

000000000000a7fc <.LBB52_1055>:
    a7fc:	f6043d03          	ld	s10,-160(s0)
    a800:	090d50e3          	bge	s10,a6,b080 <.LBB52_1312>

000000000000a804 <.LBB52_1056>:
    a804:	f6843d03          	ld	s10,-152(s0)
    a808:	090d54e3          	bge	s10,a6,b090 <.LBB52_1313>

000000000000a80c <.LBB52_1057>:
    a80c:	f7043d03          	ld	s10,-144(s0)
    a810:	090d58e3          	bge	s10,a6,b0a0 <.LBB52_1314>

000000000000a814 <.LBB52_1058>:
    a814:	f7843d03          	ld	s10,-136(s0)
    a818:	090d5ce3          	bge	s10,a6,b0b0 <.LBB52_1315>

000000000000a81c <.LBB52_1059>:
    a81c:	f8043d03          	ld	s10,-128(s0)
    a820:	0b0d50e3          	bge	s10,a6,b0c0 <.LBB52_1316>

000000000000a824 <.LBB52_1060>:
    a824:	f8843d03          	ld	s10,-120(s0)
    a828:	0b0d54e3          	bge	s10,a6,b0d0 <.LBB52_1317>

000000000000a82c <.LBB52_1061>:
    a82c:	d4043d03          	ld	s10,-704(s0)
    a830:	0b0d58e3          	bge	s10,a6,b0e0 <.LBB52_1318>

000000000000a834 <.LBB52_1062>:
    a834:	d5043d03          	ld	s10,-688(s0)
    a838:	0b0d5ce3          	bge	s10,a6,b0f0 <.LBB52_1319>

000000000000a83c <.LBB52_1063>:
    a83c:	d6043d03          	ld	s10,-672(s0)
    a840:	0d0d50e3          	bge	s10,a6,b100 <.LBB52_1320>

000000000000a844 <.LBB52_1064>:
    a844:	d7043d03          	ld	s10,-656(s0)
    a848:	0d0d54e3          	bge	s10,a6,b110 <.LBB52_1321>

000000000000a84c <.LBB52_1065>:
    a84c:	d8043d03          	ld	s10,-640(s0)
    a850:	0d0d58e3          	bge	s10,a6,b120 <.LBB52_1322>

000000000000a854 <.LBB52_1066>:
    a854:	d9043d03          	ld	s10,-624(s0)
    a858:	0d0d5ce3          	bge	s10,a6,b130 <.LBB52_1323>

000000000000a85c <.LBB52_1067>:
    a85c:	da043d03          	ld	s10,-608(s0)
    a860:	0f0d50e3          	bge	s10,a6,b140 <.LBB52_1324>

000000000000a864 <.LBB52_1068>:
    a864:	db043d03          	ld	s10,-592(s0)
    a868:	0f0d54e3          	bge	s10,a6,b150 <.LBB52_1325>

000000000000a86c <.LBB52_1069>:
    a86c:	dc043d03          	ld	s10,-576(s0)
    a870:	0f0d58e3          	bge	s10,a6,b160 <.LBB52_1326>

000000000000a874 <.LBB52_1070>:
    a874:	dd043d03          	ld	s10,-560(s0)
    a878:	0f0d5ce3          	bge	s10,a6,b170 <.LBB52_1327>

000000000000a87c <.LBB52_1071>:
    a87c:	de043d03          	ld	s10,-544(s0)
    a880:	110d50e3          	bge	s10,a6,b180 <.LBB52_1328>

000000000000a884 <.LBB52_1072>:
    a884:	de843d03          	ld	s10,-536(s0)
    a888:	110d54e3          	bge	s10,a6,b190 <.LBB52_1329>

000000000000a88c <.LBB52_1073>:
    a88c:	df043d03          	ld	s10,-528(s0)
    a890:	110d58e3          	bge	s10,a6,b1a0 <.LBB52_1330>

000000000000a894 <.LBB52_1074>:
    a894:	df843d03          	ld	s10,-520(s0)
    a898:	110d5ce3          	bge	s10,a6,b1b0 <.LBB52_1331>

000000000000a89c <.LBB52_1075>:
    a89c:	e0043d03          	ld	s10,-512(s0)
    a8a0:	130d50e3          	bge	s10,a6,b1c0 <.LBB52_1332>

000000000000a8a4 <.LBB52_1076>:
    a8a4:	e0843d03          	ld	s10,-504(s0)
    a8a8:	130d54e3          	bge	s10,a6,b1d0 <.LBB52_1333>

000000000000a8ac <.LBB52_1077>:
    a8ac:	e1043d03          	ld	s10,-496(s0)
    a8b0:	130d58e3          	bge	s10,a6,b1e0 <.LBB52_1334>

000000000000a8b4 <.LBB52_1078>:
    a8b4:	e1843d03          	ld	s10,-488(s0)
    a8b8:	130d5ce3          	bge	s10,a6,b1f0 <.LBB52_1335>

000000000000a8bc <.LBB52_1079>:
    a8bc:	e2043d03          	ld	s10,-480(s0)
    a8c0:	150d50e3          	bge	s10,a6,b200 <.LBB52_1336>

000000000000a8c4 <.LBB52_1080>:
    a8c4:	e2843d03          	ld	s10,-472(s0)
    a8c8:	150d54e3          	bge	s10,a6,b210 <.LBB52_1337>

000000000000a8cc <.LBB52_1081>:
    a8cc:	e3043d03          	ld	s10,-464(s0)
    a8d0:	150d58e3          	bge	s10,a6,b220 <.LBB52_1338>

000000000000a8d4 <.LBB52_1082>:
    a8d4:	e3843d03          	ld	s10,-456(s0)
    a8d8:	150d5ce3          	bge	s10,a6,b230 <.LBB52_1339>

000000000000a8dc <.LBB52_1083>:
    a8dc:	e4043d03          	ld	s10,-448(s0)
    a8e0:	170d50e3          	bge	s10,a6,b240 <.LBB52_1340>

000000000000a8e4 <.LBB52_1084>:
    a8e4:	e5043d03          	ld	s10,-432(s0)
    a8e8:	170d54e3          	bge	s10,a6,b250 <.LBB52_1341>

000000000000a8ec <.LBB52_1085>:
    a8ec:	e6843d03          	ld	s10,-408(s0)
    a8f0:	170d58e3          	bge	s10,a6,b260 <.LBB52_1342>

000000000000a8f4 <.LBB52_1086>:
    a8f4:	e7843d03          	ld	s10,-392(s0)
    a8f8:	170d5ce3          	bge	s10,a6,b270 <.LBB52_1343>

000000000000a8fc <.LBB52_1087>:
    a8fc:	e8843d03          	ld	s10,-376(s0)
    a900:	190d50e3          	bge	s10,a6,b280 <.LBB52_1344>

000000000000a904 <.LBB52_1088>:
    a904:	e9843d03          	ld	s10,-360(s0)
    a908:	190d54e3          	bge	s10,a6,b290 <.LBB52_1345>

000000000000a90c <.LBB52_1089>:
    a90c:	ea843d03          	ld	s10,-344(s0)
    a910:	190d58e3          	bge	s10,a6,b2a0 <.LBB52_1346>

000000000000a914 <.LBB52_1090>:
    a914:	eb843d03          	ld	s10,-328(s0)
    a918:	190d5ce3          	bge	s10,a6,b2b0 <.LBB52_1347>

000000000000a91c <.LBB52_1091>:
    a91c:	ec843d03          	ld	s10,-312(s0)
    a920:	1b0d50e3          	bge	s10,a6,b2c0 <.LBB52_1348>

000000000000a924 <.LBB52_1092>:
    a924:	ed843d03          	ld	s10,-296(s0)
    a928:	1b0d54e3          	bge	s10,a6,b2d0 <.LBB52_1349>

000000000000a92c <.LBB52_1093>:
    a92c:	c4043d03          	ld	s10,-960(s0)
    a930:	1b0d58e3          	bge	s10,a6,b2e0 <.LBB52_1350>

000000000000a934 <.LBB52_1094>:
    a934:	c5043d03          	ld	s10,-944(s0)
    a938:	1b0d5ce3          	bge	s10,a6,b2f0 <.LBB52_1351>

000000000000a93c <.LBB52_1095>:
    a93c:	c6043d03          	ld	s10,-928(s0)
    a940:	1d0d50e3          	bge	s10,a6,b300 <.LBB52_1352>

000000000000a944 <.LBB52_1096>:
    a944:	c7043d03          	ld	s10,-912(s0)
    a948:	1d0d54e3          	bge	s10,a6,b310 <.LBB52_1353>

000000000000a94c <.LBB52_1097>:
    a94c:	c8043d03          	ld	s10,-896(s0)
    a950:	1d0d58e3          	bge	s10,a6,b320 <.LBB52_1354>

000000000000a954 <.LBB52_1098>:
    a954:	c9043d03          	ld	s10,-880(s0)
    a958:	1d0d5ce3          	bge	s10,a6,b330 <.LBB52_1355>

000000000000a95c <.LBB52_1099>:
    a95c:	ca043d03          	ld	s10,-864(s0)
    a960:	1f0d50e3          	bge	s10,a6,b340 <.LBB52_1356>

000000000000a964 <.LBB52_1100>:
    a964:	cb043d03          	ld	s10,-848(s0)
    a968:	1f0d54e3          	bge	s10,a6,b350 <.LBB52_1357>

000000000000a96c <.LBB52_1101>:
    a96c:	cc043d03          	ld	s10,-832(s0)
    a970:	1f0d58e3          	bge	s10,a6,b360 <.LBB52_1358>

000000000000a974 <.LBB52_1102>:
    a974:	cd043d03          	ld	s10,-816(s0)
    a978:	1f0d5ce3          	bge	s10,a6,b370 <.LBB52_1359>

000000000000a97c <.LBB52_1103>:
    a97c:	ce043d03          	ld	s10,-800(s0)
    a980:	210d50e3          	bge	s10,a6,b380 <.LBB52_1360>

000000000000a984 <.LBB52_1104>:
    a984:	ce843d03          	ld	s10,-792(s0)
    a988:	210d54e3          	bge	s10,a6,b390 <.LBB52_1361>

000000000000a98c <.LBB52_1105>:
    a98c:	cf043d03          	ld	s10,-784(s0)
    a990:	210d58e3          	bge	s10,a6,b3a0 <.LBB52_1362>

000000000000a994 <.LBB52_1106>:
    a994:	cf843d03          	ld	s10,-776(s0)
    a998:	210d5ce3          	bge	s10,a6,b3b0 <.LBB52_1363>

000000000000a99c <.LBB52_1107>:
    a99c:	d0043d03          	ld	s10,-768(s0)
    a9a0:	230d50e3          	bge	s10,a6,b3c0 <.LBB52_1364>

000000000000a9a4 <.LBB52_1108>:
    a9a4:	d0843d03          	ld	s10,-760(s0)
    a9a8:	230d54e3          	bge	s10,a6,b3d0 <.LBB52_1365>

000000000000a9ac <.LBB52_1109>:
    a9ac:	d1043d03          	ld	s10,-752(s0)
    a9b0:	230d58e3          	bge	s10,a6,b3e0 <.LBB52_1366>

000000000000a9b4 <.LBB52_1110>:
    a9b4:	d1843d03          	ld	s10,-744(s0)
    a9b8:	230d5ce3          	bge	s10,a6,b3f0 <.LBB52_1367>

000000000000a9bc <.LBB52_1111>:
    a9bc:	d2043d03          	ld	s10,-736(s0)
    a9c0:	250d50e3          	bge	s10,a6,b400 <.LBB52_1368>

000000000000a9c4 <.LBB52_1112>:
    a9c4:	d2843d03          	ld	s10,-728(s0)
    a9c8:	250d54e3          	bge	s10,a6,b410 <.LBB52_1369>

000000000000a9cc <.LBB52_1113>:
    a9cc:	d3043d03          	ld	s10,-720(s0)
    a9d0:	250d58e3          	bge	s10,a6,b420 <.LBB52_1370>

000000000000a9d4 <.LBB52_1114>:
    a9d4:	d3843d03          	ld	s10,-712(s0)
    a9d8:	250d5ce3          	bge	s10,a6,b430 <.LBB52_1371>

000000000000a9dc <.LBB52_1115>:
    a9dc:	d4843d03          	ld	s10,-696(s0)
    a9e0:	270d50e3          	bge	s10,a6,b440 <.LBB52_1372>

000000000000a9e4 <.LBB52_1116>:
    a9e4:	d5843d03          	ld	s10,-680(s0)
    a9e8:	270d54e3          	bge	s10,a6,b450 <.LBB52_1373>

000000000000a9ec <.LBB52_1117>:
    a9ec:	d6843d03          	ld	s10,-664(s0)
    a9f0:	270d58e3          	bge	s10,a6,b460 <.LBB52_1374>

000000000000a9f4 <.LBB52_1118>:
    a9f4:	d7843d03          	ld	s10,-648(s0)
    a9f8:	270d5ce3          	bge	s10,a6,b470 <.LBB52_1375>

000000000000a9fc <.LBB52_1119>:
    a9fc:	d8843d03          	ld	s10,-632(s0)
    aa00:	290d50e3          	bge	s10,a6,b480 <.LBB52_1376>

000000000000aa04 <.LBB52_1120>:
    aa04:	d9843d03          	ld	s10,-616(s0)
    aa08:	290d54e3          	bge	s10,a6,b490 <.LBB52_1377>

000000000000aa0c <.LBB52_1121>:
    aa0c:	da843d03          	ld	s10,-600(s0)
    aa10:	290d58e3          	bge	s10,a6,b4a0 <.LBB52_1378>

000000000000aa14 <.LBB52_1122>:
    aa14:	db843d03          	ld	s10,-584(s0)
    aa18:	290d5ce3          	bge	s10,a6,b4b0 <.LBB52_1379>

000000000000aa1c <.LBB52_1123>:
    aa1c:	dc843d03          	ld	s10,-568(s0)
    aa20:	2b0d50e3          	bge	s10,a6,b4c0 <.LBB52_1380>

000000000000aa24 <.LBB52_1124>:
    aa24:	dd843d03          	ld	s10,-552(s0)
    aa28:	2b0d54e3          	bge	s10,a6,b4d0 <.LBB52_1381>

000000000000aa2c <.LBB52_1125>:
    aa2c:	b4043d03          	ld	s10,-1216(s0)
    aa30:	2b0d58e3          	bge	s10,a6,b4e0 <.LBB52_1382>

000000000000aa34 <.LBB52_1126>:
    aa34:	b5043d03          	ld	s10,-1200(s0)
    aa38:	2b0d5ce3          	bge	s10,a6,b4f0 <.LBB52_1383>

000000000000aa3c <.LBB52_1127>:
    aa3c:	b6043d03          	ld	s10,-1184(s0)
    aa40:	2d0d50e3          	bge	s10,a6,b500 <.LBB52_1384>

000000000000aa44 <.LBB52_1128>:
    aa44:	b7043d03          	ld	s10,-1168(s0)
    aa48:	2d0d54e3          	bge	s10,a6,b510 <.LBB52_1385>

000000000000aa4c <.LBB52_1129>:
    aa4c:	b8043d03          	ld	s10,-1152(s0)
    aa50:	2d0d58e3          	bge	s10,a6,b520 <.LBB52_1386>

000000000000aa54 <.LBB52_1130>:
    aa54:	b9043d03          	ld	s10,-1136(s0)
    aa58:	2d0d5ce3          	bge	s10,a6,b530 <.LBB52_1387>

000000000000aa5c <.LBB52_1131>:
    aa5c:	ba043d03          	ld	s10,-1120(s0)
    aa60:	2f0d50e3          	bge	s10,a6,b540 <.LBB52_1388>

000000000000aa64 <.LBB52_1132>:
    aa64:	bb043d03          	ld	s10,-1104(s0)
    aa68:	2f0d54e3          	bge	s10,a6,b550 <.LBB52_1389>

000000000000aa6c <.LBB52_1133>:
    aa6c:	bc043d03          	ld	s10,-1088(s0)
    aa70:	2f0d58e3          	bge	s10,a6,b560 <.LBB52_1390>

000000000000aa74 <.LBB52_1134>:
    aa74:	bd043d03          	ld	s10,-1072(s0)
    aa78:	2f0d5ce3          	bge	s10,a6,b570 <.LBB52_1391>

000000000000aa7c <.LBB52_1135>:
    aa7c:	be043d03          	ld	s10,-1056(s0)
    aa80:	310d50e3          	bge	s10,a6,b580 <.LBB52_1392>

000000000000aa84 <.LBB52_1136>:
    aa84:	be843d03          	ld	s10,-1048(s0)
    aa88:	310d54e3          	bge	s10,a6,b590 <.LBB52_1393>

000000000000aa8c <.LBB52_1137>:
    aa8c:	bf043d03          	ld	s10,-1040(s0)
    aa90:	310d58e3          	bge	s10,a6,b5a0 <.LBB52_1394>

000000000000aa94 <.LBB52_1138>:
    aa94:	bf843d03          	ld	s10,-1032(s0)
    aa98:	310d5ce3          	bge	s10,a6,b5b0 <.LBB52_1395>

000000000000aa9c <.LBB52_1139>:
    aa9c:	c0043d03          	ld	s10,-1024(s0)
    aaa0:	330d50e3          	bge	s10,a6,b5c0 <.LBB52_1396>

000000000000aaa4 <.LBB52_1140>:
    aaa4:	c0843d03          	ld	s10,-1016(s0)
    aaa8:	330d54e3          	bge	s10,a6,b5d0 <.LBB52_1397>

000000000000aaac <.LBB52_1141>:
    aaac:	c1043d03          	ld	s10,-1008(s0)
    aab0:	330d58e3          	bge	s10,a6,b5e0 <.LBB52_1398>

000000000000aab4 <.LBB52_1142>:
    aab4:	c1843d03          	ld	s10,-1000(s0)
    aab8:	330d5ce3          	bge	s10,a6,b5f0 <.LBB52_1399>

000000000000aabc <.LBB52_1143>:
    aabc:	c2043d03          	ld	s10,-992(s0)
    aac0:	350d50e3          	bge	s10,a6,b600 <.LBB52_1400>

000000000000aac4 <.LBB52_1144>:
    aac4:	c2843d03          	ld	s10,-984(s0)
    aac8:	350d54e3          	bge	s10,a6,b610 <.LBB52_1401>

000000000000aacc <.LBB52_1145>:
    aacc:	c3043d03          	ld	s10,-976(s0)
    aad0:	350d58e3          	bge	s10,a6,b620 <.LBB52_1402>

000000000000aad4 <.LBB52_1146>:
    aad4:	c3843d03          	ld	s10,-968(s0)
    aad8:	350d5ce3          	bge	s10,a6,b630 <.LBB52_1403>

000000000000aadc <.LBB52_1147>:
    aadc:	c4843d03          	ld	s10,-952(s0)
    aae0:	370d50e3          	bge	s10,a6,b640 <.LBB52_1404>

000000000000aae4 <.LBB52_1148>:
    aae4:	c5843d03          	ld	s10,-936(s0)
    aae8:	370d54e3          	bge	s10,a6,b650 <.LBB52_1405>

000000000000aaec <.LBB52_1149>:
    aaec:	c6843d03          	ld	s10,-920(s0)
    aaf0:	370d58e3          	bge	s10,a6,b660 <.LBB52_1406>

000000000000aaf4 <.LBB52_1150>:
    aaf4:	c7843d03          	ld	s10,-904(s0)
    aaf8:	370d5ce3          	bge	s10,a6,b670 <.LBB52_1407>

000000000000aafc <.LBB52_1151>:
    aafc:	c8843d03          	ld	s10,-888(s0)
    ab00:	390d50e3          	bge	s10,a6,b680 <.LBB52_1408>

000000000000ab04 <.LBB52_1152>:
    ab04:	c9843d03          	ld	s10,-872(s0)
    ab08:	390d54e3          	bge	s10,a6,b690 <.LBB52_1409>

000000000000ab0c <.LBB52_1153>:
    ab0c:	ca843d03          	ld	s10,-856(s0)
    ab10:	390d58e3          	bge	s10,a6,b6a0 <.LBB52_1410>

000000000000ab14 <.LBB52_1154>:
    ab14:	cb843d03          	ld	s10,-840(s0)
    ab18:	390d5ce3          	bge	s10,a6,b6b0 <.LBB52_1411>

000000000000ab1c <.LBB52_1155>:
    ab1c:	cc843d03          	ld	s10,-824(s0)
    ab20:	3b0d50e3          	bge	s10,a6,b6c0 <.LBB52_1412>

000000000000ab24 <.LBB52_1156>:
    ab24:	cd843d03          	ld	s10,-808(s0)
    ab28:	3b0d54e3          	bge	s10,a6,b6d0 <.LBB52_1413>

000000000000ab2c <.LBB52_1157>:
    ab2c:	a4043d03          	ld	s10,-1472(s0)
    ab30:	3b0d58e3          	bge	s10,a6,b6e0 <.LBB52_1414>

000000000000ab34 <.LBB52_1158>:
    ab34:	a5043d03          	ld	s10,-1456(s0)
    ab38:	3b0d5ce3          	bge	s10,a6,b6f0 <.LBB52_1415>

000000000000ab3c <.LBB52_1159>:
    ab3c:	a6043d03          	ld	s10,-1440(s0)
    ab40:	3d0d50e3          	bge	s10,a6,b700 <.LBB52_1416>

000000000000ab44 <.LBB52_1160>:
    ab44:	a7043d03          	ld	s10,-1424(s0)
    ab48:	3d0d54e3          	bge	s10,a6,b710 <.LBB52_1417>

000000000000ab4c <.LBB52_1161>:
    ab4c:	a8043d03          	ld	s10,-1408(s0)
    ab50:	3d0d58e3          	bge	s10,a6,b720 <.LBB52_1418>

000000000000ab54 <.LBB52_1162>:
    ab54:	a9043d03          	ld	s10,-1392(s0)
    ab58:	3d0d5ce3          	bge	s10,a6,b730 <.LBB52_1419>

000000000000ab5c <.LBB52_1163>:
    ab5c:	aa043d03          	ld	s10,-1376(s0)
    ab60:	3f0d50e3          	bge	s10,a6,b740 <.LBB52_1420>

000000000000ab64 <.LBB52_1164>:
    ab64:	ab043d03          	ld	s10,-1360(s0)
    ab68:	3f0d54e3          	bge	s10,a6,b750 <.LBB52_1421>

000000000000ab6c <.LBB52_1165>:
    ab6c:	ac043d03          	ld	s10,-1344(s0)
    ab70:	3f0d58e3          	bge	s10,a6,b760 <.LBB52_1422>

000000000000ab74 <.LBB52_1166>:
    ab74:	ad043d03          	ld	s10,-1328(s0)
    ab78:	3f0d5ce3          	bge	s10,a6,b770 <.LBB52_1423>

000000000000ab7c <.LBB52_1167>:
    ab7c:	ae043d03          	ld	s10,-1312(s0)
    ab80:	410d50e3          	bge	s10,a6,b780 <.LBB52_1424>

000000000000ab84 <.LBB52_1168>:
    ab84:	ae843d03          	ld	s10,-1304(s0)
    ab88:	410d54e3          	bge	s10,a6,b790 <.LBB52_1425>

000000000000ab8c <.LBB52_1169>:
    ab8c:	af043d03          	ld	s10,-1296(s0)
    ab90:	410d58e3          	bge	s10,a6,b7a0 <.LBB52_1426>

000000000000ab94 <.LBB52_1170>:
    ab94:	af843d03          	ld	s10,-1288(s0)
    ab98:	410d5ce3          	bge	s10,a6,b7b0 <.LBB52_1427>

000000000000ab9c <.LBB52_1171>:
    ab9c:	b0043d03          	ld	s10,-1280(s0)
    aba0:	430d50e3          	bge	s10,a6,b7c0 <.LBB52_1428>

000000000000aba4 <.LBB52_1172>:
    aba4:	b0843d03          	ld	s10,-1272(s0)
    aba8:	430d54e3          	bge	s10,a6,b7d0 <.LBB52_1429>

000000000000abac <.LBB52_1173>:
    abac:	b1043d03          	ld	s10,-1264(s0)
    abb0:	430d58e3          	bge	s10,a6,b7e0 <.LBB52_1430>

000000000000abb4 <.LBB52_1174>:
    abb4:	b1843d03          	ld	s10,-1256(s0)
    abb8:	430d5ce3          	bge	s10,a6,b7f0 <.LBB52_1431>

000000000000abbc <.LBB52_1175>:
    abbc:	b2043d03          	ld	s10,-1248(s0)
    abc0:	450d50e3          	bge	s10,a6,b800 <.LBB52_1432>

000000000000abc4 <.LBB52_1176>:
    abc4:	b2843d03          	ld	s10,-1240(s0)
    abc8:	450d54e3          	bge	s10,a6,b810 <.LBB52_1433>

000000000000abcc <.LBB52_1177>:
    abcc:	b3043d03          	ld	s10,-1232(s0)
    abd0:	450d58e3          	bge	s10,a6,b820 <.LBB52_1434>

000000000000abd4 <.LBB52_1178>:
    abd4:	b3843d03          	ld	s10,-1224(s0)
    abd8:	450d5ce3          	bge	s10,a6,b830 <.LBB52_1435>

000000000000abdc <.LBB52_1179>:
    abdc:	b4843d03          	ld	s10,-1208(s0)
    abe0:	470d50e3          	bge	s10,a6,b840 <.LBB52_1436>

000000000000abe4 <.LBB52_1180>:
    abe4:	b5843d03          	ld	s10,-1192(s0)
    abe8:	470d54e3          	bge	s10,a6,b850 <.LBB52_1437>

000000000000abec <.LBB52_1181>:
    abec:	b6843d03          	ld	s10,-1176(s0)
    abf0:	470d58e3          	bge	s10,a6,b860 <.LBB52_1438>

000000000000abf4 <.LBB52_1182>:
    abf4:	b7843d03          	ld	s10,-1160(s0)
    abf8:	470d5ce3          	bge	s10,a6,b870 <.LBB52_1439>

000000000000abfc <.LBB52_1183>:
    abfc:	b8843d03          	ld	s10,-1144(s0)
    ac00:	490d50e3          	bge	s10,a6,b880 <.LBB52_1440>

000000000000ac04 <.LBB52_1184>:
    ac04:	b9843d03          	ld	s10,-1128(s0)
    ac08:	490d54e3          	bge	s10,a6,b890 <.LBB52_1441>

000000000000ac0c <.LBB52_1185>:
    ac0c:	ba843d03          	ld	s10,-1112(s0)
    ac10:	490d58e3          	bge	s10,a6,b8a0 <.LBB52_1442>

000000000000ac14 <.LBB52_1186>:
    ac14:	bb843d03          	ld	s10,-1096(s0)
    ac18:	490d5ce3          	bge	s10,a6,b8b0 <.LBB52_1443>

000000000000ac1c <.LBB52_1187>:
    ac1c:	bc843d03          	ld	s10,-1080(s0)
    ac20:	4b0d50e3          	bge	s10,a6,b8c0 <.LBB52_1444>

000000000000ac24 <.LBB52_1188>:
    ac24:	bd843d03          	ld	s10,-1064(s0)
    ac28:	4b0d54e3          	bge	s10,a6,b8d0 <.LBB52_1445>

000000000000ac2c <.LBB52_1189>:
    ac2c:	94043d03          	ld	s10,-1728(s0)
    ac30:	4b0d58e3          	bge	s10,a6,b8e0 <.LBB52_1446>

000000000000ac34 <.LBB52_1190>:
    ac34:	95043d03          	ld	s10,-1712(s0)
    ac38:	4b0d5ce3          	bge	s10,a6,b8f0 <.LBB52_1447>

000000000000ac3c <.LBB52_1191>:
    ac3c:	96043d03          	ld	s10,-1696(s0)
    ac40:	4d0d50e3          	bge	s10,a6,b900 <.LBB52_1448>

000000000000ac44 <.LBB52_1192>:
    ac44:	97043d03          	ld	s10,-1680(s0)
    ac48:	4d0d54e3          	bge	s10,a6,b910 <.LBB52_1449>

000000000000ac4c <.LBB52_1193>:
    ac4c:	98043d03          	ld	s10,-1664(s0)
    ac50:	4d0d58e3          	bge	s10,a6,b920 <.LBB52_1450>

000000000000ac54 <.LBB52_1194>:
    ac54:	99043d03          	ld	s10,-1648(s0)
    ac58:	4d0d5ce3          	bge	s10,a6,b930 <.LBB52_1451>

000000000000ac5c <.LBB52_1195>:
    ac5c:	9a043d03          	ld	s10,-1632(s0)
    ac60:	4f0d50e3          	bge	s10,a6,b940 <.LBB52_1452>

000000000000ac64 <.LBB52_1196>:
    ac64:	9b043d03          	ld	s10,-1616(s0)
    ac68:	4f0d54e3          	bge	s10,a6,b950 <.LBB52_1453>

000000000000ac6c <.LBB52_1197>:
    ac6c:	9c043d03          	ld	s10,-1600(s0)
    ac70:	4f0d58e3          	bge	s10,a6,b960 <.LBB52_1454>

000000000000ac74 <.LBB52_1198>:
    ac74:	9d043d03          	ld	s10,-1584(s0)
    ac78:	4f0d5ce3          	bge	s10,a6,b970 <.LBB52_1455>

000000000000ac7c <.LBB52_1199>:
    ac7c:	9e043d03          	ld	s10,-1568(s0)
    ac80:	510d50e3          	bge	s10,a6,b980 <.LBB52_1456>

000000000000ac84 <.LBB52_1200>:
    ac84:	9e843d03          	ld	s10,-1560(s0)
    ac88:	510d54e3          	bge	s10,a6,b990 <.LBB52_1457>

000000000000ac8c <.LBB52_1201>:
    ac8c:	9f043d03          	ld	s10,-1552(s0)
    ac90:	510d58e3          	bge	s10,a6,b9a0 <.LBB52_1458>

000000000000ac94 <.LBB52_1202>:
    ac94:	9f843d03          	ld	s10,-1544(s0)
    ac98:	510d5ce3          	bge	s10,a6,b9b0 <.LBB52_1459>

000000000000ac9c <.LBB52_1203>:
    ac9c:	a0043d03          	ld	s10,-1536(s0)
    aca0:	530d50e3          	bge	s10,a6,b9c0 <.LBB52_1460>

000000000000aca4 <.LBB52_1204>:
    aca4:	a0843d03          	ld	s10,-1528(s0)
    aca8:	530d54e3          	bge	s10,a6,b9d0 <.LBB52_1461>

000000000000acac <.LBB52_1205>:
    acac:	a1043d03          	ld	s10,-1520(s0)
    acb0:	530d58e3          	bge	s10,a6,b9e0 <.LBB52_1462>

000000000000acb4 <.LBB52_1206>:
    acb4:	a1843d03          	ld	s10,-1512(s0)
    acb8:	530d5ce3          	bge	s10,a6,b9f0 <.LBB52_1463>

000000000000acbc <.LBB52_1207>:
    acbc:	a2043d03          	ld	s10,-1504(s0)
    acc0:	550d50e3          	bge	s10,a6,ba00 <.LBB52_1464>

000000000000acc4 <.LBB52_1208>:
    acc4:	a2843d03          	ld	s10,-1496(s0)
    acc8:	550d54e3          	bge	s10,a6,ba10 <.LBB52_1465>

000000000000accc <.LBB52_1209>:
    accc:	a3043d03          	ld	s10,-1488(s0)
    acd0:	550d58e3          	bge	s10,a6,ba20 <.LBB52_1466>

000000000000acd4 <.LBB52_1210>:
    acd4:	a3843d03          	ld	s10,-1480(s0)
    acd8:	550d5ce3          	bge	s10,a6,ba30 <.LBB52_1467>

000000000000acdc <.LBB52_1211>:
    acdc:	a4843d03          	ld	s10,-1464(s0)
    ace0:	570d50e3          	bge	s10,a6,ba40 <.LBB52_1468>

000000000000ace4 <.LBB52_1212>:
    ace4:	a5843d03          	ld	s10,-1448(s0)
    ace8:	570d54e3          	bge	s10,a6,ba50 <.LBB52_1469>

000000000000acec <.LBB52_1213>:
    acec:	a6843d03          	ld	s10,-1432(s0)
    acf0:	570d58e3          	bge	s10,a6,ba60 <.LBB52_1470>

000000000000acf4 <.LBB52_1214>:
    acf4:	a7843d03          	ld	s10,-1416(s0)
    acf8:	570d5ce3          	bge	s10,a6,ba70 <.LBB52_1471>

000000000000acfc <.LBB52_1215>:
    acfc:	a8843d03          	ld	s10,-1400(s0)
    ad00:	590d50e3          	bge	s10,a6,ba80 <.LBB52_1472>

000000000000ad04 <.LBB52_1216>:
    ad04:	a9843d03          	ld	s10,-1384(s0)
    ad08:	590d54e3          	bge	s10,a6,ba90 <.LBB52_1473>

000000000000ad0c <.LBB52_1217>:
    ad0c:	aa843d03          	ld	s10,-1368(s0)
    ad10:	590d58e3          	bge	s10,a6,baa0 <.LBB52_1474>

000000000000ad14 <.LBB52_1218>:
    ad14:	ab843d03          	ld	s10,-1352(s0)
    ad18:	590d5ce3          	bge	s10,a6,bab0 <.LBB52_1475>

000000000000ad1c <.LBB52_1219>:
    ad1c:	ac843d03          	ld	s10,-1336(s0)
    ad20:	5b0d50e3          	bge	s10,a6,bac0 <.LBB52_1476>

000000000000ad24 <.LBB52_1220>:
    ad24:	ad843d03          	ld	s10,-1320(s0)
    ad28:	5b0d54e3          	bge	s10,a6,bad0 <.LBB52_1477>

000000000000ad2c <.LBB52_1221>:
    ad2c:	5b03d8e3          	bge	t2,a6,badc <.LBB52_1478>

000000000000ad30 <.LBB52_1222>:
    ad30:	5b0ddae3          	bge	s11,a6,bae4 <.LBB52_1479>

000000000000ad34 <.LBB52_1223>:
    ad34:	86043d03          	ld	s10,-1952(s0)
    ad38:	5b0d5ce3          	bge	s10,a6,baf0 <.LBB52_1480>

000000000000ad3c <.LBB52_1224>:
    ad3c:	87043d03          	ld	s10,-1936(s0)
    ad40:	5d0d50e3          	bge	s10,a6,bb00 <.LBB52_1481>

000000000000ad44 <.LBB52_1225>:
    ad44:	88043d03          	ld	s10,-1920(s0)
    ad48:	5d0d54e3          	bge	s10,a6,bb10 <.LBB52_1482>

000000000000ad4c <.LBB52_1226>:
    ad4c:	89043d03          	ld	s10,-1904(s0)
    ad50:	5d0d58e3          	bge	s10,a6,bb20 <.LBB52_1483>

000000000000ad54 <.LBB52_1227>:
    ad54:	8a043d03          	ld	s10,-1888(s0)
    ad58:	5d0d5ce3          	bge	s10,a6,bb30 <.LBB52_1484>

000000000000ad5c <.LBB52_1228>:
    ad5c:	8b043d03          	ld	s10,-1872(s0)
    ad60:	5f0d50e3          	bge	s10,a6,bb40 <.LBB52_1485>

000000000000ad64 <.LBB52_1229>:
    ad64:	8c043d03          	ld	s10,-1856(s0)
    ad68:	5f0d54e3          	bge	s10,a6,bb50 <.LBB52_1486>

000000000000ad6c <.LBB52_1230>:
    ad6c:	8d043d03          	ld	s10,-1840(s0)
    ad70:	5f0d58e3          	bge	s10,a6,bb60 <.LBB52_1487>

000000000000ad74 <.LBB52_1231>:
    ad74:	8e043d03          	ld	s10,-1824(s0)
    ad78:	5f0d5ce3          	bge	s10,a6,bb70 <.LBB52_1488>

000000000000ad7c <.LBB52_1232>:
    ad7c:	8e843d03          	ld	s10,-1816(s0)
    ad80:	610d50e3          	bge	s10,a6,bb80 <.LBB52_1489>

000000000000ad84 <.LBB52_1233>:
    ad84:	8f043d03          	ld	s10,-1808(s0)
    ad88:	610d54e3          	bge	s10,a6,bb90 <.LBB52_1490>

000000000000ad8c <.LBB52_1234>:
    ad8c:	8f843d03          	ld	s10,-1800(s0)
    ad90:	610d58e3          	bge	s10,a6,bba0 <.LBB52_1491>

000000000000ad94 <.LBB52_1235>:
    ad94:	90043d03          	ld	s10,-1792(s0)
    ad98:	610d5ce3          	bge	s10,a6,bbb0 <.LBB52_1492>

000000000000ad9c <.LBB52_1236>:
    ad9c:	90843d03          	ld	s10,-1784(s0)
    ada0:	630d50e3          	bge	s10,a6,bbc0 <.LBB52_1493>

000000000000ada4 <.LBB52_1237>:
    ada4:	91043d03          	ld	s10,-1776(s0)
    ada8:	630d54e3          	bge	s10,a6,bbd0 <.LBB52_1494>

000000000000adac <.LBB52_1238>:
    adac:	91843d03          	ld	s10,-1768(s0)
    adb0:	630d58e3          	bge	s10,a6,bbe0 <.LBB52_1495>

000000000000adb4 <.LBB52_1239>:
    adb4:	92043d03          	ld	s10,-1760(s0)
    adb8:	630d5ce3          	bge	s10,a6,bbf0 <.LBB52_1496>

000000000000adbc <.LBB52_1240>:
    adbc:	92843d03          	ld	s10,-1752(s0)
    adc0:	650d50e3          	bge	s10,a6,bc00 <.LBB52_1497>

000000000000adc4 <.LBB52_1241>:
    adc4:	93043d03          	ld	s10,-1744(s0)
    adc8:	650d54e3          	bge	s10,a6,bc10 <.LBB52_1498>

000000000000adcc <.LBB52_1242>:
    adcc:	93843d03          	ld	s10,-1736(s0)
    add0:	650d58e3          	bge	s10,a6,bc20 <.LBB52_1499>

000000000000add4 <.LBB52_1243>:
    add4:	94843d03          	ld	s10,-1720(s0)
    add8:	650d5ce3          	bge	s10,a6,bc30 <.LBB52_1500>

000000000000addc <.LBB52_1244>:
    addc:	95843d03          	ld	s10,-1704(s0)
    ade0:	670d50e3          	bge	s10,a6,bc40 <.LBB52_1501>

000000000000ade4 <.LBB52_1245>:
    ade4:	96843d03          	ld	s10,-1688(s0)
    ade8:	670d54e3          	bge	s10,a6,bc50 <.LBB52_1502>

000000000000adec <.LBB52_1246>:
    adec:	97843d03          	ld	s10,-1672(s0)
    adf0:	670d58e3          	bge	s10,a6,bc60 <.LBB52_1503>

000000000000adf4 <.LBB52_1247>:
    adf4:	98843d03          	ld	s10,-1656(s0)
    adf8:	670d5ce3          	bge	s10,a6,bc70 <.LBB52_1504>

000000000000adfc <.LBB52_1248>:
    adfc:	99843d03          	ld	s10,-1640(s0)
    ae00:	690d50e3          	bge	s10,a6,bc80 <.LBB52_1505>

000000000000ae04 <.LBB52_1249>:
    ae04:	9a843d03          	ld	s10,-1624(s0)
    ae08:	690d54e3          	bge	s10,a6,bc90 <.LBB52_1506>

000000000000ae0c <.LBB52_1250>:
    ae0c:	9b843d03          	ld	s10,-1608(s0)
    ae10:	690d58e3          	bge	s10,a6,bca0 <.LBB52_1507>

000000000000ae14 <.LBB52_1251>:
    ae14:	9c843d03          	ld	s10,-1592(s0)
    ae18:	690d5ce3          	bge	s10,a6,bcb0 <.LBB52_1508>

000000000000ae1c <.LBB52_1252>:
    ae1c:	9d843d03          	ld	s10,-1576(s0)
    ae20:	6b0d50e3          	bge	s10,a6,bcc0 <.LBB52_1509>

000000000000ae24 <.LBB52_1253>:
    ae24:	6b0ed4e3          	bge	t4,a6,bccc <.LBB52_1510>

000000000000ae28 <.LBB52_1254>:
    ae28:	8d843d03          	ld	s10,-1832(s0)
    ae2c:	6b0cd6e3          	bge	s9,a6,bcd8 <.LBB52_1511>

000000000000ae30 <.LBB52_1255>:
    ae30:	6b0bd8e3          	bge	s7,a6,bce0 <.LBB52_1512>

000000000000ae34 <.LBB52_1256>:
    ae34:	6b075ae3          	bge	a4,a6,bce8 <.LBB52_1513>

000000000000ae38 <.LBB52_1257>:
    ae38:	6b0f5ce3          	bge	t5,a6,bcf0 <.LBB52_1514>

000000000000ae3c <.LBB52_1258>:
    ae3c:	6b07dee3          	bge	a5,a6,bcf8 <.LBB52_1515>

000000000000ae40 <.LBB52_1259>:
    ae40:	6d0b50e3          	bge	s6,a6,bd00 <.LBB52_1516>

000000000000ae44 <.LBB52_1260>:
    ae44:	6d0ad2e3          	bge	s5,a6,bd08 <.LBB52_1517>

000000000000ae48 <.LBB52_1261>:
    ae48:	6d0a54e3          	bge	s4,a6,bd10 <.LBB52_1518>

000000000000ae4c <.LBB52_1262>:
    ae4c:	6d09d6e3          	bge	s3,a6,bd18 <.LBB52_1519>

000000000000ae50 <.LBB52_1263>:
    ae50:	6d0958e3          	bge	s2,a6,bd20 <.LBB52_1520>

000000000000ae54 <.LBB52_1264>:
    ae54:	6d04dae3          	bge	s1,a6,bd28 <.LBB52_1521>

000000000000ae58 <.LBB52_1265>:
    ae58:	6d0fdce3          	bge	t6,a6,bd30 <.LBB52_1522>

000000000000ae5c <.LBB52_1266>:
    ae5c:	6d065ee3          	bge	a2,a6,bd38 <.LBB52_1523>

000000000000ae60 <.LBB52_1267>:
    ae60:	6f05d0e3          	bge	a1,a6,bd40 <.LBB52_1524>

000000000000ae64 <.LBB52_1268>:
    ae64:	6f0e52e3          	bge	t3,a6,bd48 <.LBB52_1525>

000000000000ae68 <.LBB52_1269>:
    ae68:	6f0554e3          	bge	a0,a6,bd50 <.LBB52_1526>

000000000000ae6c <.LBB52_1270>:
    ae6c:	6f06d6e3          	bge	a3,a6,bd58 <.LBB52_1527>

000000000000ae70 <.LBB52_1271>:
    ae70:	6f0358e3          	bge	t1,a6,bd60 <.LBB52_1528>

000000000000ae74 <.LBB52_1272>:
    ae74:	6f02dae3          	bge	t0,a6,bd68 <.LBB52_1529>

000000000000ae78 <.LBB52_1273>:
    ae78:	6f0c5ce3          	bge	s8,a6,bd70 <.LBB52_1530>

000000000000ae7c <.LBB52_1274>:
    ae7c:	6f08dee3          	bge	a7,a6,bd78 <.LBB52_1531>

000000000000ae80 <.LBB52_1275>:
    ae80:	85043083          	ld	ra,-1968(s0)
    ae84:	7100d0e3          	bge	ra,a6,bd84 <.LBB52_1532>

000000000000ae88 <.LBB52_1276>:
    ae88:	85843083          	ld	ra,-1960(s0)
    ae8c:	7100d4e3          	bge	ra,a6,bd94 <.LBB52_1533>

000000000000ae90 <.LBB52_1277>:
    ae90:	86843083          	ld	ra,-1944(s0)
    ae94:	7100d8e3          	bge	ra,a6,bda4 <.LBB52_1534>

000000000000ae98 <.LBB52_1278>:
    ae98:	87843083          	ld	ra,-1928(s0)
    ae9c:	7100dce3          	bge	ra,a6,bdb4 <.LBB52_1535>

000000000000aea0 <.LBB52_1279>:
    aea0:	88843083          	ld	ra,-1912(s0)
    aea4:	7300d0e3          	bge	ra,a6,bdc4 <.LBB52_1536>

000000000000aea8 <.LBB52_1280>:
    aea8:	89843083          	ld	ra,-1896(s0)
    aeac:	7300d4e3          	bge	ra,a6,bdd4 <.LBB52_1537>

000000000000aeb0 <.LBB52_1281>:
    aeb0:	8a843083          	ld	ra,-1880(s0)
    aeb4:	7300d8e3          	bge	ra,a6,bde4 <.LBB52_1538>

000000000000aeb8 <.LBB52_1282>:
    aeb8:	8b843083          	ld	ra,-1864(s0)
    aebc:	7300dce3          	bge	ra,a6,bdf4 <.LBB52_1539>

000000000000aec0 <.LBB52_1283>:
    aec0:	8c843083          	ld	ra,-1848(s0)
    aec4:	7500d0e3          	bge	ra,a6,be04 <.LBB52_1540>

000000000000aec8 <.LBB52_1284>:
    aec8:	750d56e3          	bge	s10,a6,be14 <.LBB52_1541>
    aecc:	b18f506f          	j	1e4 <.LBB52_3>

000000000000aed0 <.LBB52_1285>:
    aed0:	f8200e93          	li	t4,-126
    aed4:	08100813          	li	a6,129
    aed8:	84843d03          	ld	s10,-1976(s0)
    aedc:	850d4ce3          	blt	s10,a6,a734 <.LBB52_1030>

000000000000aee0 <.LBB52_1286>:
    aee0:	08100d13          	li	s10,129
    aee4:	85a43423          	sd	s10,-1976(s0)
    aee8:	e4843d03          	ld	s10,-440(s0)
    aeec:	850d48e3          	blt	s10,a6,a73c <.LBB52_1031>

000000000000aef0 <.LBB52_1287>:
    aef0:	08100d13          	li	s10,129
    aef4:	e5a43423          	sd	s10,-440(s0)
    aef8:	e5843d03          	ld	s10,-424(s0)
    aefc:	850d44e3          	blt	s10,a6,a744 <.LBB52_1032>

000000000000af00 <.LBB52_1288>:
    af00:	08100d13          	li	s10,129
    af04:	e5a43c23          	sd	s10,-424(s0)
    af08:	e7043d03          	ld	s10,-400(s0)
    af0c:	850d40e3          	blt	s10,a6,a74c <.LBB52_1033>

000000000000af10 <.LBB52_1289>:
    af10:	08100d13          	li	s10,129
    af14:	e7a43823          	sd	s10,-400(s0)
    af18:	e8043d03          	ld	s10,-384(s0)
    af1c:	830d4ce3          	blt	s10,a6,a754 <.LBB52_1034>

000000000000af20 <.LBB52_1290>:
    af20:	08100d13          	li	s10,129
    af24:	e9a43023          	sd	s10,-384(s0)
    af28:	e9043d03          	ld	s10,-368(s0)
    af2c:	830d48e3          	blt	s10,a6,a75c <.LBB52_1035>

000000000000af30 <.LBB52_1291>:
    af30:	08100d13          	li	s10,129
    af34:	e9a43823          	sd	s10,-368(s0)
    af38:	ea043d03          	ld	s10,-352(s0)
    af3c:	830d44e3          	blt	s10,a6,a764 <.LBB52_1036>

000000000000af40 <.LBB52_1292>:
    af40:	08100d13          	li	s10,129
    af44:	eba43023          	sd	s10,-352(s0)
    af48:	eb043d03          	ld	s10,-336(s0)
    af4c:	830d40e3          	blt	s10,a6,a76c <.LBB52_1037>

000000000000af50 <.LBB52_1293>:
    af50:	08100d13          	li	s10,129
    af54:	eba43823          	sd	s10,-336(s0)
    af58:	ec043d03          	ld	s10,-320(s0)
    af5c:	810d4ce3          	blt	s10,a6,a774 <.LBB52_1038>

000000000000af60 <.LBB52_1294>:
    af60:	08100d13          	li	s10,129
    af64:	eda43023          	sd	s10,-320(s0)
    af68:	ed043d03          	ld	s10,-304(s0)
    af6c:	810d48e3          	blt	s10,a6,a77c <.LBB52_1039>

000000000000af70 <.LBB52_1295>:
    af70:	08100d13          	li	s10,129
    af74:	eda43823          	sd	s10,-304(s0)
    af78:	ee043d03          	ld	s10,-288(s0)
    af7c:	810d44e3          	blt	s10,a6,a784 <.LBB52_1040>

000000000000af80 <.LBB52_1296>:
    af80:	08100d13          	li	s10,129
    af84:	efa43023          	sd	s10,-288(s0)
    af88:	ee843d03          	ld	s10,-280(s0)
    af8c:	810d40e3          	blt	s10,a6,a78c <.LBB52_1041>

000000000000af90 <.LBB52_1297>:
    af90:	08100d13          	li	s10,129
    af94:	efa43423          	sd	s10,-280(s0)
    af98:	ef043d03          	ld	s10,-272(s0)
    af9c:	ff0d4c63          	blt	s10,a6,a794 <.LBB52_1042>

000000000000afa0 <.LBB52_1298>:
    afa0:	08100d13          	li	s10,129
    afa4:	efa43823          	sd	s10,-272(s0)
    afa8:	ef843d03          	ld	s10,-264(s0)
    afac:	ff0d4863          	blt	s10,a6,a79c <.LBB52_1043>

000000000000afb0 <.LBB52_1299>:
    afb0:	08100d13          	li	s10,129
    afb4:	efa43c23          	sd	s10,-264(s0)
    afb8:	f0043d03          	ld	s10,-256(s0)
    afbc:	ff0d4463          	blt	s10,a6,a7a4 <.LBB52_1044>

000000000000afc0 <.LBB52_1300>:
    afc0:	08100d13          	li	s10,129
    afc4:	f1a43023          	sd	s10,-256(s0)
    afc8:	f0843d03          	ld	s10,-248(s0)
    afcc:	ff0d4063          	blt	s10,a6,a7ac <.LBB52_1045>

000000000000afd0 <.LBB52_1301>:
    afd0:	08100d13          	li	s10,129
    afd4:	f1a43423          	sd	s10,-248(s0)
    afd8:	f1043d03          	ld	s10,-240(s0)
    afdc:	fd0d4c63          	blt	s10,a6,a7b4 <.LBB52_1046>

000000000000afe0 <.LBB52_1302>:
    afe0:	08100d13          	li	s10,129
    afe4:	f1a43823          	sd	s10,-240(s0)
    afe8:	f1843d03          	ld	s10,-232(s0)
    afec:	fd0d4863          	blt	s10,a6,a7bc <.LBB52_1047>

000000000000aff0 <.LBB52_1303>:
    aff0:	08100d13          	li	s10,129
    aff4:	f1a43c23          	sd	s10,-232(s0)
    aff8:	f2043d03          	ld	s10,-224(s0)
    affc:	fd0d4463          	blt	s10,a6,a7c4 <.LBB52_1048>

000000000000b000 <.LBB52_1304>:
    b000:	08100d13          	li	s10,129
    b004:	f3a43023          	sd	s10,-224(s0)
    b008:	f2843d03          	ld	s10,-216(s0)
    b00c:	fd0d4063          	blt	s10,a6,a7cc <.LBB52_1049>

000000000000b010 <.LBB52_1305>:
    b010:	08100d13          	li	s10,129
    b014:	f3a43423          	sd	s10,-216(s0)
    b018:	f3043d03          	ld	s10,-208(s0)
    b01c:	fb0d4c63          	blt	s10,a6,a7d4 <.LBB52_1050>

000000000000b020 <.LBB52_1306>:
    b020:	08100d13          	li	s10,129
    b024:	f3a43823          	sd	s10,-208(s0)
    b028:	f3843d03          	ld	s10,-200(s0)
    b02c:	fb0d4863          	blt	s10,a6,a7dc <.LBB52_1051>

000000000000b030 <.LBB52_1307>:
    b030:	08100d13          	li	s10,129
    b034:	f3a43c23          	sd	s10,-200(s0)
    b038:	f4043d03          	ld	s10,-192(s0)
    b03c:	fb0d4463          	blt	s10,a6,a7e4 <.LBB52_1052>

000000000000b040 <.LBB52_1308>:
    b040:	08100d13          	li	s10,129
    b044:	f5a43023          	sd	s10,-192(s0)
    b048:	f4843d03          	ld	s10,-184(s0)
    b04c:	fb0d4063          	blt	s10,a6,a7ec <.LBB52_1053>

000000000000b050 <.LBB52_1309>:
    b050:	08100d13          	li	s10,129
    b054:	f5a43423          	sd	s10,-184(s0)
    b058:	f5043d03          	ld	s10,-176(s0)
    b05c:	f90d4c63          	blt	s10,a6,a7f4 <.LBB52_1054>

000000000000b060 <.LBB52_1310>:
    b060:	08100d13          	li	s10,129
    b064:	f5a43823          	sd	s10,-176(s0)
    b068:	f5843d03          	ld	s10,-168(s0)
    b06c:	f90d4863          	blt	s10,a6,a7fc <.LBB52_1055>

000000000000b070 <.LBB52_1311>:
    b070:	08100d13          	li	s10,129
    b074:	f5a43c23          	sd	s10,-168(s0)
    b078:	f6043d03          	ld	s10,-160(s0)
    b07c:	f90d4463          	blt	s10,a6,a804 <.LBB52_1056>

000000000000b080 <.LBB52_1312>:
    b080:	08100d13          	li	s10,129
    b084:	f7a43023          	sd	s10,-160(s0)
    b088:	f6843d03          	ld	s10,-152(s0)
    b08c:	f90d4063          	blt	s10,a6,a80c <.LBB52_1057>

000000000000b090 <.LBB52_1313>:
    b090:	08100d13          	li	s10,129
    b094:	f7a43423          	sd	s10,-152(s0)
    b098:	f7043d03          	ld	s10,-144(s0)
    b09c:	f70d4c63          	blt	s10,a6,a814 <.LBB52_1058>

000000000000b0a0 <.LBB52_1314>:
    b0a0:	08100d13          	li	s10,129
    b0a4:	f7a43823          	sd	s10,-144(s0)
    b0a8:	f7843d03          	ld	s10,-136(s0)
    b0ac:	f70d4863          	blt	s10,a6,a81c <.LBB52_1059>

000000000000b0b0 <.LBB52_1315>:
    b0b0:	08100d13          	li	s10,129
    b0b4:	f7a43c23          	sd	s10,-136(s0)
    b0b8:	f8043d03          	ld	s10,-128(s0)
    b0bc:	f70d4463          	blt	s10,a6,a824 <.LBB52_1060>

000000000000b0c0 <.LBB52_1316>:
    b0c0:	08100d13          	li	s10,129
    b0c4:	f9a43023          	sd	s10,-128(s0)
    b0c8:	f8843d03          	ld	s10,-120(s0)
    b0cc:	f70d4063          	blt	s10,a6,a82c <.LBB52_1061>

000000000000b0d0 <.LBB52_1317>:
    b0d0:	08100d13          	li	s10,129
    b0d4:	f9a43423          	sd	s10,-120(s0)
    b0d8:	d4043d03          	ld	s10,-704(s0)
    b0dc:	f50d4c63          	blt	s10,a6,a834 <.LBB52_1062>

000000000000b0e0 <.LBB52_1318>:
    b0e0:	08100d13          	li	s10,129
    b0e4:	d5a43023          	sd	s10,-704(s0)
    b0e8:	d5043d03          	ld	s10,-688(s0)
    b0ec:	f50d4863          	blt	s10,a6,a83c <.LBB52_1063>

000000000000b0f0 <.LBB52_1319>:
    b0f0:	08100d13          	li	s10,129
    b0f4:	d5a43823          	sd	s10,-688(s0)
    b0f8:	d6043d03          	ld	s10,-672(s0)
    b0fc:	f50d4463          	blt	s10,a6,a844 <.LBB52_1064>

000000000000b100 <.LBB52_1320>:
    b100:	08100d13          	li	s10,129
    b104:	d7a43023          	sd	s10,-672(s0)
    b108:	d7043d03          	ld	s10,-656(s0)
    b10c:	f50d4063          	blt	s10,a6,a84c <.LBB52_1065>

000000000000b110 <.LBB52_1321>:
    b110:	08100d13          	li	s10,129
    b114:	d7a43823          	sd	s10,-656(s0)
    b118:	d8043d03          	ld	s10,-640(s0)
    b11c:	f30d4c63          	blt	s10,a6,a854 <.LBB52_1066>

000000000000b120 <.LBB52_1322>:
    b120:	08100d13          	li	s10,129
    b124:	d9a43023          	sd	s10,-640(s0)
    b128:	d9043d03          	ld	s10,-624(s0)
    b12c:	f30d4863          	blt	s10,a6,a85c <.LBB52_1067>

000000000000b130 <.LBB52_1323>:
    b130:	08100d13          	li	s10,129
    b134:	d9a43823          	sd	s10,-624(s0)
    b138:	da043d03          	ld	s10,-608(s0)
    b13c:	f30d4463          	blt	s10,a6,a864 <.LBB52_1068>

000000000000b140 <.LBB52_1324>:
    b140:	08100d13          	li	s10,129
    b144:	dba43023          	sd	s10,-608(s0)
    b148:	db043d03          	ld	s10,-592(s0)
    b14c:	f30d4063          	blt	s10,a6,a86c <.LBB52_1069>

000000000000b150 <.LBB52_1325>:
    b150:	08100d13          	li	s10,129
    b154:	dba43823          	sd	s10,-592(s0)
    b158:	dc043d03          	ld	s10,-576(s0)
    b15c:	f10d4c63          	blt	s10,a6,a874 <.LBB52_1070>

000000000000b160 <.LBB52_1326>:
    b160:	08100d13          	li	s10,129
    b164:	dda43023          	sd	s10,-576(s0)
    b168:	dd043d03          	ld	s10,-560(s0)
    b16c:	f10d4863          	blt	s10,a6,a87c <.LBB52_1071>

000000000000b170 <.LBB52_1327>:
    b170:	08100d13          	li	s10,129
    b174:	dda43823          	sd	s10,-560(s0)
    b178:	de043d03          	ld	s10,-544(s0)
    b17c:	f10d4463          	blt	s10,a6,a884 <.LBB52_1072>

000000000000b180 <.LBB52_1328>:
    b180:	08100d13          	li	s10,129
    b184:	dfa43023          	sd	s10,-544(s0)
    b188:	de843d03          	ld	s10,-536(s0)
    b18c:	f10d4063          	blt	s10,a6,a88c <.LBB52_1073>

000000000000b190 <.LBB52_1329>:
    b190:	08100d13          	li	s10,129
    b194:	dfa43423          	sd	s10,-536(s0)
    b198:	df043d03          	ld	s10,-528(s0)
    b19c:	ef0d4c63          	blt	s10,a6,a894 <.LBB52_1074>

000000000000b1a0 <.LBB52_1330>:
    b1a0:	08100d13          	li	s10,129
    b1a4:	dfa43823          	sd	s10,-528(s0)
    b1a8:	df843d03          	ld	s10,-520(s0)
    b1ac:	ef0d4863          	blt	s10,a6,a89c <.LBB52_1075>

000000000000b1b0 <.LBB52_1331>:
    b1b0:	08100d13          	li	s10,129
    b1b4:	dfa43c23          	sd	s10,-520(s0)
    b1b8:	e0043d03          	ld	s10,-512(s0)
    b1bc:	ef0d4463          	blt	s10,a6,a8a4 <.LBB52_1076>

000000000000b1c0 <.LBB52_1332>:
    b1c0:	08100d13          	li	s10,129
    b1c4:	e1a43023          	sd	s10,-512(s0)
    b1c8:	e0843d03          	ld	s10,-504(s0)
    b1cc:	ef0d4063          	blt	s10,a6,a8ac <.LBB52_1077>

000000000000b1d0 <.LBB52_1333>:
    b1d0:	08100d13          	li	s10,129
    b1d4:	e1a43423          	sd	s10,-504(s0)
    b1d8:	e1043d03          	ld	s10,-496(s0)
    b1dc:	ed0d4c63          	blt	s10,a6,a8b4 <.LBB52_1078>

000000000000b1e0 <.LBB52_1334>:
    b1e0:	08100d13          	li	s10,129
    b1e4:	e1a43823          	sd	s10,-496(s0)
    b1e8:	e1843d03          	ld	s10,-488(s0)
    b1ec:	ed0d4863          	blt	s10,a6,a8bc <.LBB52_1079>

000000000000b1f0 <.LBB52_1335>:
    b1f0:	08100d13          	li	s10,129
    b1f4:	e1a43c23          	sd	s10,-488(s0)
    b1f8:	e2043d03          	ld	s10,-480(s0)
    b1fc:	ed0d4463          	blt	s10,a6,a8c4 <.LBB52_1080>

000000000000b200 <.LBB52_1336>:
    b200:	08100d13          	li	s10,129
    b204:	e3a43023          	sd	s10,-480(s0)
    b208:	e2843d03          	ld	s10,-472(s0)
    b20c:	ed0d4063          	blt	s10,a6,a8cc <.LBB52_1081>

000000000000b210 <.LBB52_1337>:
    b210:	08100d13          	li	s10,129
    b214:	e3a43423          	sd	s10,-472(s0)
    b218:	e3043d03          	ld	s10,-464(s0)
    b21c:	eb0d4c63          	blt	s10,a6,a8d4 <.LBB52_1082>

000000000000b220 <.LBB52_1338>:
    b220:	08100d13          	li	s10,129
    b224:	e3a43823          	sd	s10,-464(s0)
    b228:	e3843d03          	ld	s10,-456(s0)
    b22c:	eb0d4863          	blt	s10,a6,a8dc <.LBB52_1083>

000000000000b230 <.LBB52_1339>:
    b230:	08100d13          	li	s10,129
    b234:	e3a43c23          	sd	s10,-456(s0)
    b238:	e4043d03          	ld	s10,-448(s0)
    b23c:	eb0d4463          	blt	s10,a6,a8e4 <.LBB52_1084>

000000000000b240 <.LBB52_1340>:
    b240:	08100d13          	li	s10,129
    b244:	e5a43023          	sd	s10,-448(s0)
    b248:	e5043d03          	ld	s10,-432(s0)
    b24c:	eb0d4063          	blt	s10,a6,a8ec <.LBB52_1085>

000000000000b250 <.LBB52_1341>:
    b250:	08100d13          	li	s10,129
    b254:	e5a43823          	sd	s10,-432(s0)
    b258:	e6843d03          	ld	s10,-408(s0)
    b25c:	e90d4c63          	blt	s10,a6,a8f4 <.LBB52_1086>

000000000000b260 <.LBB52_1342>:
    b260:	08100d13          	li	s10,129
    b264:	e7a43423          	sd	s10,-408(s0)
    b268:	e7843d03          	ld	s10,-392(s0)
    b26c:	e90d4863          	blt	s10,a6,a8fc <.LBB52_1087>

000000000000b270 <.LBB52_1343>:
    b270:	08100d13          	li	s10,129
    b274:	e7a43c23          	sd	s10,-392(s0)
    b278:	e8843d03          	ld	s10,-376(s0)
    b27c:	e90d4463          	blt	s10,a6,a904 <.LBB52_1088>

000000000000b280 <.LBB52_1344>:
    b280:	08100d13          	li	s10,129
    b284:	e9a43423          	sd	s10,-376(s0)
    b288:	e9843d03          	ld	s10,-360(s0)
    b28c:	e90d4063          	blt	s10,a6,a90c <.LBB52_1089>

000000000000b290 <.LBB52_1345>:
    b290:	08100d13          	li	s10,129
    b294:	e9a43c23          	sd	s10,-360(s0)
    b298:	ea843d03          	ld	s10,-344(s0)
    b29c:	e70d4c63          	blt	s10,a6,a914 <.LBB52_1090>

000000000000b2a0 <.LBB52_1346>:
    b2a0:	08100d13          	li	s10,129
    b2a4:	eba43423          	sd	s10,-344(s0)
    b2a8:	eb843d03          	ld	s10,-328(s0)
    b2ac:	e70d4863          	blt	s10,a6,a91c <.LBB52_1091>

000000000000b2b0 <.LBB52_1347>:
    b2b0:	08100d13          	li	s10,129
    b2b4:	eba43c23          	sd	s10,-328(s0)
    b2b8:	ec843d03          	ld	s10,-312(s0)
    b2bc:	e70d4463          	blt	s10,a6,a924 <.LBB52_1092>

000000000000b2c0 <.LBB52_1348>:
    b2c0:	08100d13          	li	s10,129
    b2c4:	eda43423          	sd	s10,-312(s0)
    b2c8:	ed843d03          	ld	s10,-296(s0)
    b2cc:	e70d4063          	blt	s10,a6,a92c <.LBB52_1093>

000000000000b2d0 <.LBB52_1349>:
    b2d0:	08100d13          	li	s10,129
    b2d4:	eda43c23          	sd	s10,-296(s0)
    b2d8:	c4043d03          	ld	s10,-960(s0)
    b2dc:	e50d4c63          	blt	s10,a6,a934 <.LBB52_1094>

000000000000b2e0 <.LBB52_1350>:
    b2e0:	08100d13          	li	s10,129
    b2e4:	c5a43023          	sd	s10,-960(s0)
    b2e8:	c5043d03          	ld	s10,-944(s0)
    b2ec:	e50d4863          	blt	s10,a6,a93c <.LBB52_1095>

000000000000b2f0 <.LBB52_1351>:
    b2f0:	08100d13          	li	s10,129
    b2f4:	c5a43823          	sd	s10,-944(s0)
    b2f8:	c6043d03          	ld	s10,-928(s0)
    b2fc:	e50d4463          	blt	s10,a6,a944 <.LBB52_1096>

000000000000b300 <.LBB52_1352>:
    b300:	08100d13          	li	s10,129
    b304:	c7a43023          	sd	s10,-928(s0)
    b308:	c7043d03          	ld	s10,-912(s0)
    b30c:	e50d4063          	blt	s10,a6,a94c <.LBB52_1097>

000000000000b310 <.LBB52_1353>:
    b310:	08100d13          	li	s10,129
    b314:	c7a43823          	sd	s10,-912(s0)
    b318:	c8043d03          	ld	s10,-896(s0)
    b31c:	e30d4c63          	blt	s10,a6,a954 <.LBB52_1098>

000000000000b320 <.LBB52_1354>:
    b320:	08100d13          	li	s10,129
    b324:	c9a43023          	sd	s10,-896(s0)
    b328:	c9043d03          	ld	s10,-880(s0)
    b32c:	e30d4863          	blt	s10,a6,a95c <.LBB52_1099>

000000000000b330 <.LBB52_1355>:
    b330:	08100d13          	li	s10,129
    b334:	c9a43823          	sd	s10,-880(s0)
    b338:	ca043d03          	ld	s10,-864(s0)
    b33c:	e30d4463          	blt	s10,a6,a964 <.LBB52_1100>

000000000000b340 <.LBB52_1356>:
    b340:	08100d13          	li	s10,129
    b344:	cba43023          	sd	s10,-864(s0)
    b348:	cb043d03          	ld	s10,-848(s0)
    b34c:	e30d4063          	blt	s10,a6,a96c <.LBB52_1101>

000000000000b350 <.LBB52_1357>:
    b350:	08100d13          	li	s10,129
    b354:	cba43823          	sd	s10,-848(s0)
    b358:	cc043d03          	ld	s10,-832(s0)
    b35c:	e10d4c63          	blt	s10,a6,a974 <.LBB52_1102>

000000000000b360 <.LBB52_1358>:
    b360:	08100d13          	li	s10,129
    b364:	cda43023          	sd	s10,-832(s0)
    b368:	cd043d03          	ld	s10,-816(s0)
    b36c:	e10d4863          	blt	s10,a6,a97c <.LBB52_1103>

000000000000b370 <.LBB52_1359>:
    b370:	08100d13          	li	s10,129
    b374:	cda43823          	sd	s10,-816(s0)
    b378:	ce043d03          	ld	s10,-800(s0)
    b37c:	e10d4463          	blt	s10,a6,a984 <.LBB52_1104>

000000000000b380 <.LBB52_1360>:
    b380:	08100d13          	li	s10,129
    b384:	cfa43023          	sd	s10,-800(s0)
    b388:	ce843d03          	ld	s10,-792(s0)
    b38c:	e10d4063          	blt	s10,a6,a98c <.LBB52_1105>

000000000000b390 <.LBB52_1361>:
    b390:	08100d13          	li	s10,129
    b394:	cfa43423          	sd	s10,-792(s0)
    b398:	cf043d03          	ld	s10,-784(s0)
    b39c:	df0d4c63          	blt	s10,a6,a994 <.LBB52_1106>

000000000000b3a0 <.LBB52_1362>:
    b3a0:	08100d13          	li	s10,129
    b3a4:	cfa43823          	sd	s10,-784(s0)
    b3a8:	cf843d03          	ld	s10,-776(s0)
    b3ac:	df0d4863          	blt	s10,a6,a99c <.LBB52_1107>

000000000000b3b0 <.LBB52_1363>:
    b3b0:	08100d13          	li	s10,129
    b3b4:	cfa43c23          	sd	s10,-776(s0)
    b3b8:	d0043d03          	ld	s10,-768(s0)
    b3bc:	df0d4463          	blt	s10,a6,a9a4 <.LBB52_1108>

000000000000b3c0 <.LBB52_1364>:
    b3c0:	08100d13          	li	s10,129
    b3c4:	d1a43023          	sd	s10,-768(s0)
    b3c8:	d0843d03          	ld	s10,-760(s0)
    b3cc:	df0d4063          	blt	s10,a6,a9ac <.LBB52_1109>

000000000000b3d0 <.LBB52_1365>:
    b3d0:	08100d13          	li	s10,129
    b3d4:	d1a43423          	sd	s10,-760(s0)
    b3d8:	d1043d03          	ld	s10,-752(s0)
    b3dc:	dd0d4c63          	blt	s10,a6,a9b4 <.LBB52_1110>

000000000000b3e0 <.LBB52_1366>:
    b3e0:	08100d13          	li	s10,129
    b3e4:	d1a43823          	sd	s10,-752(s0)
    b3e8:	d1843d03          	ld	s10,-744(s0)
    b3ec:	dd0d4863          	blt	s10,a6,a9bc <.LBB52_1111>

000000000000b3f0 <.LBB52_1367>:
    b3f0:	08100d13          	li	s10,129
    b3f4:	d1a43c23          	sd	s10,-744(s0)
    b3f8:	d2043d03          	ld	s10,-736(s0)
    b3fc:	dd0d4463          	blt	s10,a6,a9c4 <.LBB52_1112>

000000000000b400 <.LBB52_1368>:
    b400:	08100d13          	li	s10,129
    b404:	d3a43023          	sd	s10,-736(s0)
    b408:	d2843d03          	ld	s10,-728(s0)
    b40c:	dd0d4063          	blt	s10,a6,a9cc <.LBB52_1113>

000000000000b410 <.LBB52_1369>:
    b410:	08100d13          	li	s10,129
    b414:	d3a43423          	sd	s10,-728(s0)
    b418:	d3043d03          	ld	s10,-720(s0)
    b41c:	db0d4c63          	blt	s10,a6,a9d4 <.LBB52_1114>

000000000000b420 <.LBB52_1370>:
    b420:	08100d13          	li	s10,129
    b424:	d3a43823          	sd	s10,-720(s0)
    b428:	d3843d03          	ld	s10,-712(s0)
    b42c:	db0d4863          	blt	s10,a6,a9dc <.LBB52_1115>

000000000000b430 <.LBB52_1371>:
    b430:	08100d13          	li	s10,129
    b434:	d3a43c23          	sd	s10,-712(s0)
    b438:	d4843d03          	ld	s10,-696(s0)
    b43c:	db0d4463          	blt	s10,a6,a9e4 <.LBB52_1116>

000000000000b440 <.LBB52_1372>:
    b440:	08100d13          	li	s10,129
    b444:	d5a43423          	sd	s10,-696(s0)
    b448:	d5843d03          	ld	s10,-680(s0)
    b44c:	db0d4063          	blt	s10,a6,a9ec <.LBB52_1117>

000000000000b450 <.LBB52_1373>:
    b450:	08100d13          	li	s10,129
    b454:	d5a43c23          	sd	s10,-680(s0)
    b458:	d6843d03          	ld	s10,-664(s0)
    b45c:	d90d4c63          	blt	s10,a6,a9f4 <.LBB52_1118>

000000000000b460 <.LBB52_1374>:
    b460:	08100d13          	li	s10,129
    b464:	d7a43423          	sd	s10,-664(s0)
    b468:	d7843d03          	ld	s10,-648(s0)
    b46c:	d90d4863          	blt	s10,a6,a9fc <.LBB52_1119>

000000000000b470 <.LBB52_1375>:
    b470:	08100d13          	li	s10,129
    b474:	d7a43c23          	sd	s10,-648(s0)
    b478:	d8843d03          	ld	s10,-632(s0)
    b47c:	d90d4463          	blt	s10,a6,aa04 <.LBB52_1120>

000000000000b480 <.LBB52_1376>:
    b480:	08100d13          	li	s10,129
    b484:	d9a43423          	sd	s10,-632(s0)
    b488:	d9843d03          	ld	s10,-616(s0)
    b48c:	d90d4063          	blt	s10,a6,aa0c <.LBB52_1121>

000000000000b490 <.LBB52_1377>:
    b490:	08100d13          	li	s10,129
    b494:	d9a43c23          	sd	s10,-616(s0)
    b498:	da843d03          	ld	s10,-600(s0)
    b49c:	d70d4c63          	blt	s10,a6,aa14 <.LBB52_1122>

000000000000b4a0 <.LBB52_1378>:
    b4a0:	08100d13          	li	s10,129
    b4a4:	dba43423          	sd	s10,-600(s0)
    b4a8:	db843d03          	ld	s10,-584(s0)
    b4ac:	d70d4863          	blt	s10,a6,aa1c <.LBB52_1123>

000000000000b4b0 <.LBB52_1379>:
    b4b0:	08100d13          	li	s10,129
    b4b4:	dba43c23          	sd	s10,-584(s0)
    b4b8:	dc843d03          	ld	s10,-568(s0)
    b4bc:	d70d4463          	blt	s10,a6,aa24 <.LBB52_1124>

000000000000b4c0 <.LBB52_1380>:
    b4c0:	08100d13          	li	s10,129
    b4c4:	dda43423          	sd	s10,-568(s0)
    b4c8:	dd843d03          	ld	s10,-552(s0)
    b4cc:	d70d4063          	blt	s10,a6,aa2c <.LBB52_1125>

000000000000b4d0 <.LBB52_1381>:
    b4d0:	08100d13          	li	s10,129
    b4d4:	dda43c23          	sd	s10,-552(s0)
    b4d8:	b4043d03          	ld	s10,-1216(s0)
    b4dc:	d50d4c63          	blt	s10,a6,aa34 <.LBB52_1126>

000000000000b4e0 <.LBB52_1382>:
    b4e0:	08100d13          	li	s10,129
    b4e4:	b5a43023          	sd	s10,-1216(s0)
    b4e8:	b5043d03          	ld	s10,-1200(s0)
    b4ec:	d50d4863          	blt	s10,a6,aa3c <.LBB52_1127>

000000000000b4f0 <.LBB52_1383>:
    b4f0:	08100d13          	li	s10,129
    b4f4:	b5a43823          	sd	s10,-1200(s0)
    b4f8:	b6043d03          	ld	s10,-1184(s0)
    b4fc:	d50d4463          	blt	s10,a6,aa44 <.LBB52_1128>

000000000000b500 <.LBB52_1384>:
    b500:	08100d13          	li	s10,129
    b504:	b7a43023          	sd	s10,-1184(s0)
    b508:	b7043d03          	ld	s10,-1168(s0)
    b50c:	d50d4063          	blt	s10,a6,aa4c <.LBB52_1129>

000000000000b510 <.LBB52_1385>:
    b510:	08100d13          	li	s10,129
    b514:	b7a43823          	sd	s10,-1168(s0)
    b518:	b8043d03          	ld	s10,-1152(s0)
    b51c:	d30d4c63          	blt	s10,a6,aa54 <.LBB52_1130>

000000000000b520 <.LBB52_1386>:
    b520:	08100d13          	li	s10,129
    b524:	b9a43023          	sd	s10,-1152(s0)
    b528:	b9043d03          	ld	s10,-1136(s0)
    b52c:	d30d4863          	blt	s10,a6,aa5c <.LBB52_1131>

000000000000b530 <.LBB52_1387>:
    b530:	08100d13          	li	s10,129
    b534:	b9a43823          	sd	s10,-1136(s0)
    b538:	ba043d03          	ld	s10,-1120(s0)
    b53c:	d30d4463          	blt	s10,a6,aa64 <.LBB52_1132>

000000000000b540 <.LBB52_1388>:
    b540:	08100d13          	li	s10,129
    b544:	bba43023          	sd	s10,-1120(s0)
    b548:	bb043d03          	ld	s10,-1104(s0)
    b54c:	d30d4063          	blt	s10,a6,aa6c <.LBB52_1133>

000000000000b550 <.LBB52_1389>:
    b550:	08100d13          	li	s10,129
    b554:	bba43823          	sd	s10,-1104(s0)
    b558:	bc043d03          	ld	s10,-1088(s0)
    b55c:	d10d4c63          	blt	s10,a6,aa74 <.LBB52_1134>

000000000000b560 <.LBB52_1390>:
    b560:	08100d13          	li	s10,129
    b564:	bda43023          	sd	s10,-1088(s0)
    b568:	bd043d03          	ld	s10,-1072(s0)
    b56c:	d10d4863          	blt	s10,a6,aa7c <.LBB52_1135>

000000000000b570 <.LBB52_1391>:
    b570:	08100d13          	li	s10,129
    b574:	bda43823          	sd	s10,-1072(s0)
    b578:	be043d03          	ld	s10,-1056(s0)
    b57c:	d10d4463          	blt	s10,a6,aa84 <.LBB52_1136>

000000000000b580 <.LBB52_1392>:
    b580:	08100d13          	li	s10,129
    b584:	bfa43023          	sd	s10,-1056(s0)
    b588:	be843d03          	ld	s10,-1048(s0)
    b58c:	d10d4063          	blt	s10,a6,aa8c <.LBB52_1137>

000000000000b590 <.LBB52_1393>:
    b590:	08100d13          	li	s10,129
    b594:	bfa43423          	sd	s10,-1048(s0)
    b598:	bf043d03          	ld	s10,-1040(s0)
    b59c:	cf0d4c63          	blt	s10,a6,aa94 <.LBB52_1138>

000000000000b5a0 <.LBB52_1394>:
    b5a0:	08100d13          	li	s10,129
    b5a4:	bfa43823          	sd	s10,-1040(s0)
    b5a8:	bf843d03          	ld	s10,-1032(s0)
    b5ac:	cf0d4863          	blt	s10,a6,aa9c <.LBB52_1139>

000000000000b5b0 <.LBB52_1395>:
    b5b0:	08100d13          	li	s10,129
    b5b4:	bfa43c23          	sd	s10,-1032(s0)
    b5b8:	c0043d03          	ld	s10,-1024(s0)
    b5bc:	cf0d4463          	blt	s10,a6,aaa4 <.LBB52_1140>

000000000000b5c0 <.LBB52_1396>:
    b5c0:	08100d13          	li	s10,129
    b5c4:	c1a43023          	sd	s10,-1024(s0)
    b5c8:	c0843d03          	ld	s10,-1016(s0)
    b5cc:	cf0d4063          	blt	s10,a6,aaac <.LBB52_1141>

000000000000b5d0 <.LBB52_1397>:
    b5d0:	08100d13          	li	s10,129
    b5d4:	c1a43423          	sd	s10,-1016(s0)
    b5d8:	c1043d03          	ld	s10,-1008(s0)
    b5dc:	cd0d4c63          	blt	s10,a6,aab4 <.LBB52_1142>

000000000000b5e0 <.LBB52_1398>:
    b5e0:	08100d13          	li	s10,129
    b5e4:	c1a43823          	sd	s10,-1008(s0)
    b5e8:	c1843d03          	ld	s10,-1000(s0)
    b5ec:	cd0d4863          	blt	s10,a6,aabc <.LBB52_1143>

000000000000b5f0 <.LBB52_1399>:
    b5f0:	08100d13          	li	s10,129
    b5f4:	c1a43c23          	sd	s10,-1000(s0)
    b5f8:	c2043d03          	ld	s10,-992(s0)
    b5fc:	cd0d4463          	blt	s10,a6,aac4 <.LBB52_1144>

000000000000b600 <.LBB52_1400>:
    b600:	08100d13          	li	s10,129
    b604:	c3a43023          	sd	s10,-992(s0)
    b608:	c2843d03          	ld	s10,-984(s0)
    b60c:	cd0d4063          	blt	s10,a6,aacc <.LBB52_1145>

000000000000b610 <.LBB52_1401>:
    b610:	08100d13          	li	s10,129
    b614:	c3a43423          	sd	s10,-984(s0)
    b618:	c3043d03          	ld	s10,-976(s0)
    b61c:	cb0d4c63          	blt	s10,a6,aad4 <.LBB52_1146>

000000000000b620 <.LBB52_1402>:
    b620:	08100d13          	li	s10,129
    b624:	c3a43823          	sd	s10,-976(s0)
    b628:	c3843d03          	ld	s10,-968(s0)
    b62c:	cb0d4863          	blt	s10,a6,aadc <.LBB52_1147>

000000000000b630 <.LBB52_1403>:
    b630:	08100d13          	li	s10,129
    b634:	c3a43c23          	sd	s10,-968(s0)
    b638:	c4843d03          	ld	s10,-952(s0)
    b63c:	cb0d4463          	blt	s10,a6,aae4 <.LBB52_1148>

000000000000b640 <.LBB52_1404>:
    b640:	08100d13          	li	s10,129
    b644:	c5a43423          	sd	s10,-952(s0)
    b648:	c5843d03          	ld	s10,-936(s0)
    b64c:	cb0d4063          	blt	s10,a6,aaec <.LBB52_1149>

000000000000b650 <.LBB52_1405>:
    b650:	08100d13          	li	s10,129
    b654:	c5a43c23          	sd	s10,-936(s0)
    b658:	c6843d03          	ld	s10,-920(s0)
    b65c:	c90d4c63          	blt	s10,a6,aaf4 <.LBB52_1150>

000000000000b660 <.LBB52_1406>:
    b660:	08100d13          	li	s10,129
    b664:	c7a43423          	sd	s10,-920(s0)
    b668:	c7843d03          	ld	s10,-904(s0)
    b66c:	c90d4863          	blt	s10,a6,aafc <.LBB52_1151>

000000000000b670 <.LBB52_1407>:
    b670:	08100d13          	li	s10,129
    b674:	c7a43c23          	sd	s10,-904(s0)
    b678:	c8843d03          	ld	s10,-888(s0)
    b67c:	c90d4463          	blt	s10,a6,ab04 <.LBB52_1152>

000000000000b680 <.LBB52_1408>:
    b680:	08100d13          	li	s10,129
    b684:	c9a43423          	sd	s10,-888(s0)
    b688:	c9843d03          	ld	s10,-872(s0)
    b68c:	c90d4063          	blt	s10,a6,ab0c <.LBB52_1153>

000000000000b690 <.LBB52_1409>:
    b690:	08100d13          	li	s10,129
    b694:	c9a43c23          	sd	s10,-872(s0)
    b698:	ca843d03          	ld	s10,-856(s0)
    b69c:	c70d4c63          	blt	s10,a6,ab14 <.LBB52_1154>

000000000000b6a0 <.LBB52_1410>:
    b6a0:	08100d13          	li	s10,129
    b6a4:	cba43423          	sd	s10,-856(s0)
    b6a8:	cb843d03          	ld	s10,-840(s0)
    b6ac:	c70d4863          	blt	s10,a6,ab1c <.LBB52_1155>

000000000000b6b0 <.LBB52_1411>:
    b6b0:	08100d13          	li	s10,129
    b6b4:	cba43c23          	sd	s10,-840(s0)
    b6b8:	cc843d03          	ld	s10,-824(s0)
    b6bc:	c70d4463          	blt	s10,a6,ab24 <.LBB52_1156>

000000000000b6c0 <.LBB52_1412>:
    b6c0:	08100d13          	li	s10,129
    b6c4:	cda43423          	sd	s10,-824(s0)
    b6c8:	cd843d03          	ld	s10,-808(s0)
    b6cc:	c70d4063          	blt	s10,a6,ab2c <.LBB52_1157>

000000000000b6d0 <.LBB52_1413>:
    b6d0:	08100d13          	li	s10,129
    b6d4:	cda43c23          	sd	s10,-808(s0)
    b6d8:	a4043d03          	ld	s10,-1472(s0)
    b6dc:	c50d4c63          	blt	s10,a6,ab34 <.LBB52_1158>

000000000000b6e0 <.LBB52_1414>:
    b6e0:	08100d13          	li	s10,129
    b6e4:	a5a43023          	sd	s10,-1472(s0)
    b6e8:	a5043d03          	ld	s10,-1456(s0)
    b6ec:	c50d4863          	blt	s10,a6,ab3c <.LBB52_1159>

000000000000b6f0 <.LBB52_1415>:
    b6f0:	08100d13          	li	s10,129
    b6f4:	a5a43823          	sd	s10,-1456(s0)
    b6f8:	a6043d03          	ld	s10,-1440(s0)
    b6fc:	c50d4463          	blt	s10,a6,ab44 <.LBB52_1160>

000000000000b700 <.LBB52_1416>:
    b700:	08100d13          	li	s10,129
    b704:	a7a43023          	sd	s10,-1440(s0)
    b708:	a7043d03          	ld	s10,-1424(s0)
    b70c:	c50d4063          	blt	s10,a6,ab4c <.LBB52_1161>

000000000000b710 <.LBB52_1417>:
    b710:	08100d13          	li	s10,129
    b714:	a7a43823          	sd	s10,-1424(s0)
    b718:	a8043d03          	ld	s10,-1408(s0)
    b71c:	c30d4c63          	blt	s10,a6,ab54 <.LBB52_1162>

000000000000b720 <.LBB52_1418>:
    b720:	08100d13          	li	s10,129
    b724:	a9a43023          	sd	s10,-1408(s0)
    b728:	a9043d03          	ld	s10,-1392(s0)
    b72c:	c30d4863          	blt	s10,a6,ab5c <.LBB52_1163>

000000000000b730 <.LBB52_1419>:
    b730:	08100d13          	li	s10,129
    b734:	a9a43823          	sd	s10,-1392(s0)
    b738:	aa043d03          	ld	s10,-1376(s0)
    b73c:	c30d4463          	blt	s10,a6,ab64 <.LBB52_1164>

000000000000b740 <.LBB52_1420>:
    b740:	08100d13          	li	s10,129
    b744:	aba43023          	sd	s10,-1376(s0)
    b748:	ab043d03          	ld	s10,-1360(s0)
    b74c:	c30d4063          	blt	s10,a6,ab6c <.LBB52_1165>

000000000000b750 <.LBB52_1421>:
    b750:	08100d13          	li	s10,129
    b754:	aba43823          	sd	s10,-1360(s0)
    b758:	ac043d03          	ld	s10,-1344(s0)
    b75c:	c10d4c63          	blt	s10,a6,ab74 <.LBB52_1166>

000000000000b760 <.LBB52_1422>:
    b760:	08100d13          	li	s10,129
    b764:	ada43023          	sd	s10,-1344(s0)
    b768:	ad043d03          	ld	s10,-1328(s0)
    b76c:	c10d4863          	blt	s10,a6,ab7c <.LBB52_1167>

000000000000b770 <.LBB52_1423>:
    b770:	08100d13          	li	s10,129
    b774:	ada43823          	sd	s10,-1328(s0)
    b778:	ae043d03          	ld	s10,-1312(s0)
    b77c:	c10d4463          	blt	s10,a6,ab84 <.LBB52_1168>

000000000000b780 <.LBB52_1424>:
    b780:	08100d13          	li	s10,129
    b784:	afa43023          	sd	s10,-1312(s0)
    b788:	ae843d03          	ld	s10,-1304(s0)
    b78c:	c10d4063          	blt	s10,a6,ab8c <.LBB52_1169>

000000000000b790 <.LBB52_1425>:
    b790:	08100d13          	li	s10,129
    b794:	afa43423          	sd	s10,-1304(s0)
    b798:	af043d03          	ld	s10,-1296(s0)
    b79c:	bf0d4c63          	blt	s10,a6,ab94 <.LBB52_1170>

000000000000b7a0 <.LBB52_1426>:
    b7a0:	08100d13          	li	s10,129
    b7a4:	afa43823          	sd	s10,-1296(s0)
    b7a8:	af843d03          	ld	s10,-1288(s0)
    b7ac:	bf0d4863          	blt	s10,a6,ab9c <.LBB52_1171>

000000000000b7b0 <.LBB52_1427>:
    b7b0:	08100d13          	li	s10,129
    b7b4:	afa43c23          	sd	s10,-1288(s0)
    b7b8:	b0043d03          	ld	s10,-1280(s0)
    b7bc:	bf0d4463          	blt	s10,a6,aba4 <.LBB52_1172>

000000000000b7c0 <.LBB52_1428>:
    b7c0:	08100d13          	li	s10,129
    b7c4:	b1a43023          	sd	s10,-1280(s0)
    b7c8:	b0843d03          	ld	s10,-1272(s0)
    b7cc:	bf0d4063          	blt	s10,a6,abac <.LBB52_1173>

000000000000b7d0 <.LBB52_1429>:
    b7d0:	08100d13          	li	s10,129
    b7d4:	b1a43423          	sd	s10,-1272(s0)
    b7d8:	b1043d03          	ld	s10,-1264(s0)
    b7dc:	bd0d4c63          	blt	s10,a6,abb4 <.LBB52_1174>

000000000000b7e0 <.LBB52_1430>:
    b7e0:	08100d13          	li	s10,129
    b7e4:	b1a43823          	sd	s10,-1264(s0)
    b7e8:	b1843d03          	ld	s10,-1256(s0)
    b7ec:	bd0d4863          	blt	s10,a6,abbc <.LBB52_1175>

000000000000b7f0 <.LBB52_1431>:
    b7f0:	08100d13          	li	s10,129
    b7f4:	b1a43c23          	sd	s10,-1256(s0)
    b7f8:	b2043d03          	ld	s10,-1248(s0)
    b7fc:	bd0d4463          	blt	s10,a6,abc4 <.LBB52_1176>

000000000000b800 <.LBB52_1432>:
    b800:	08100d13          	li	s10,129
    b804:	b3a43023          	sd	s10,-1248(s0)
    b808:	b2843d03          	ld	s10,-1240(s0)
    b80c:	bd0d4063          	blt	s10,a6,abcc <.LBB52_1177>

000000000000b810 <.LBB52_1433>:
    b810:	08100d13          	li	s10,129
    b814:	b3a43423          	sd	s10,-1240(s0)
    b818:	b3043d03          	ld	s10,-1232(s0)
    b81c:	bb0d4c63          	blt	s10,a6,abd4 <.LBB52_1178>

000000000000b820 <.LBB52_1434>:
    b820:	08100d13          	li	s10,129
    b824:	b3a43823          	sd	s10,-1232(s0)
    b828:	b3843d03          	ld	s10,-1224(s0)
    b82c:	bb0d4863          	blt	s10,a6,abdc <.LBB52_1179>

000000000000b830 <.LBB52_1435>:
    b830:	08100d13          	li	s10,129
    b834:	b3a43c23          	sd	s10,-1224(s0)
    b838:	b4843d03          	ld	s10,-1208(s0)
    b83c:	bb0d4463          	blt	s10,a6,abe4 <.LBB52_1180>

000000000000b840 <.LBB52_1436>:
    b840:	08100d13          	li	s10,129
    b844:	b5a43423          	sd	s10,-1208(s0)
    b848:	b5843d03          	ld	s10,-1192(s0)
    b84c:	bb0d4063          	blt	s10,a6,abec <.LBB52_1181>

000000000000b850 <.LBB52_1437>:
    b850:	08100d13          	li	s10,129
    b854:	b5a43c23          	sd	s10,-1192(s0)
    b858:	b6843d03          	ld	s10,-1176(s0)
    b85c:	b90d4c63          	blt	s10,a6,abf4 <.LBB52_1182>

000000000000b860 <.LBB52_1438>:
    b860:	08100d13          	li	s10,129
    b864:	b7a43423          	sd	s10,-1176(s0)
    b868:	b7843d03          	ld	s10,-1160(s0)
    b86c:	b90d4863          	blt	s10,a6,abfc <.LBB52_1183>

000000000000b870 <.LBB52_1439>:
    b870:	08100d13          	li	s10,129
    b874:	b7a43c23          	sd	s10,-1160(s0)
    b878:	b8843d03          	ld	s10,-1144(s0)
    b87c:	b90d4463          	blt	s10,a6,ac04 <.LBB52_1184>

000000000000b880 <.LBB52_1440>:
    b880:	08100d13          	li	s10,129
    b884:	b9a43423          	sd	s10,-1144(s0)
    b888:	b9843d03          	ld	s10,-1128(s0)
    b88c:	b90d4063          	blt	s10,a6,ac0c <.LBB52_1185>

000000000000b890 <.LBB52_1441>:
    b890:	08100d13          	li	s10,129
    b894:	b9a43c23          	sd	s10,-1128(s0)
    b898:	ba843d03          	ld	s10,-1112(s0)
    b89c:	b70d4c63          	blt	s10,a6,ac14 <.LBB52_1186>

000000000000b8a0 <.LBB52_1442>:
    b8a0:	08100d13          	li	s10,129
    b8a4:	bba43423          	sd	s10,-1112(s0)
    b8a8:	bb843d03          	ld	s10,-1096(s0)
    b8ac:	b70d4863          	blt	s10,a6,ac1c <.LBB52_1187>

000000000000b8b0 <.LBB52_1443>:
    b8b0:	08100d13          	li	s10,129
    b8b4:	bba43c23          	sd	s10,-1096(s0)
    b8b8:	bc843d03          	ld	s10,-1080(s0)
    b8bc:	b70d4463          	blt	s10,a6,ac24 <.LBB52_1188>

000000000000b8c0 <.LBB52_1444>:
    b8c0:	08100d13          	li	s10,129
    b8c4:	bda43423          	sd	s10,-1080(s0)
    b8c8:	bd843d03          	ld	s10,-1064(s0)
    b8cc:	b70d4063          	blt	s10,a6,ac2c <.LBB52_1189>

000000000000b8d0 <.LBB52_1445>:
    b8d0:	08100d13          	li	s10,129
    b8d4:	bda43c23          	sd	s10,-1064(s0)
    b8d8:	94043d03          	ld	s10,-1728(s0)
    b8dc:	b50d4c63          	blt	s10,a6,ac34 <.LBB52_1190>

000000000000b8e0 <.LBB52_1446>:
    b8e0:	08100d13          	li	s10,129
    b8e4:	95a43023          	sd	s10,-1728(s0)
    b8e8:	95043d03          	ld	s10,-1712(s0)
    b8ec:	b50d4863          	blt	s10,a6,ac3c <.LBB52_1191>

000000000000b8f0 <.LBB52_1447>:
    b8f0:	08100d13          	li	s10,129
    b8f4:	95a43823          	sd	s10,-1712(s0)
    b8f8:	96043d03          	ld	s10,-1696(s0)
    b8fc:	b50d4463          	blt	s10,a6,ac44 <.LBB52_1192>

000000000000b900 <.LBB52_1448>:
    b900:	08100d13          	li	s10,129
    b904:	97a43023          	sd	s10,-1696(s0)
    b908:	97043d03          	ld	s10,-1680(s0)
    b90c:	b50d4063          	blt	s10,a6,ac4c <.LBB52_1193>

000000000000b910 <.LBB52_1449>:
    b910:	08100d13          	li	s10,129
    b914:	97a43823          	sd	s10,-1680(s0)
    b918:	98043d03          	ld	s10,-1664(s0)
    b91c:	b30d4c63          	blt	s10,a6,ac54 <.LBB52_1194>

000000000000b920 <.LBB52_1450>:
    b920:	08100d13          	li	s10,129
    b924:	99a43023          	sd	s10,-1664(s0)
    b928:	99043d03          	ld	s10,-1648(s0)
    b92c:	b30d4863          	blt	s10,a6,ac5c <.LBB52_1195>

000000000000b930 <.LBB52_1451>:
    b930:	08100d13          	li	s10,129
    b934:	99a43823          	sd	s10,-1648(s0)
    b938:	9a043d03          	ld	s10,-1632(s0)
    b93c:	b30d4463          	blt	s10,a6,ac64 <.LBB52_1196>

000000000000b940 <.LBB52_1452>:
    b940:	08100d13          	li	s10,129
    b944:	9ba43023          	sd	s10,-1632(s0)
    b948:	9b043d03          	ld	s10,-1616(s0)
    b94c:	b30d4063          	blt	s10,a6,ac6c <.LBB52_1197>

000000000000b950 <.LBB52_1453>:
    b950:	08100d13          	li	s10,129
    b954:	9ba43823          	sd	s10,-1616(s0)
    b958:	9c043d03          	ld	s10,-1600(s0)
    b95c:	b10d4c63          	blt	s10,a6,ac74 <.LBB52_1198>

000000000000b960 <.LBB52_1454>:
    b960:	08100d13          	li	s10,129
    b964:	9da43023          	sd	s10,-1600(s0)
    b968:	9d043d03          	ld	s10,-1584(s0)
    b96c:	b10d4863          	blt	s10,a6,ac7c <.LBB52_1199>

000000000000b970 <.LBB52_1455>:
    b970:	08100d13          	li	s10,129
    b974:	9da43823          	sd	s10,-1584(s0)
    b978:	9e043d03          	ld	s10,-1568(s0)
    b97c:	b10d4463          	blt	s10,a6,ac84 <.LBB52_1200>

000000000000b980 <.LBB52_1456>:
    b980:	08100d13          	li	s10,129
    b984:	9fa43023          	sd	s10,-1568(s0)
    b988:	9e843d03          	ld	s10,-1560(s0)
    b98c:	b10d4063          	blt	s10,a6,ac8c <.LBB52_1201>

000000000000b990 <.LBB52_1457>:
    b990:	08100d13          	li	s10,129
    b994:	9fa43423          	sd	s10,-1560(s0)
    b998:	9f043d03          	ld	s10,-1552(s0)
    b99c:	af0d4c63          	blt	s10,a6,ac94 <.LBB52_1202>

000000000000b9a0 <.LBB52_1458>:
    b9a0:	08100d13          	li	s10,129
    b9a4:	9fa43823          	sd	s10,-1552(s0)
    b9a8:	9f843d03          	ld	s10,-1544(s0)
    b9ac:	af0d4863          	blt	s10,a6,ac9c <.LBB52_1203>

000000000000b9b0 <.LBB52_1459>:
    b9b0:	08100d13          	li	s10,129
    b9b4:	9fa43c23          	sd	s10,-1544(s0)
    b9b8:	a0043d03          	ld	s10,-1536(s0)
    b9bc:	af0d4463          	blt	s10,a6,aca4 <.LBB52_1204>

000000000000b9c0 <.LBB52_1460>:
    b9c0:	08100d13          	li	s10,129
    b9c4:	a1a43023          	sd	s10,-1536(s0)
    b9c8:	a0843d03          	ld	s10,-1528(s0)
    b9cc:	af0d4063          	blt	s10,a6,acac <.LBB52_1205>

000000000000b9d0 <.LBB52_1461>:
    b9d0:	08100d13          	li	s10,129
    b9d4:	a1a43423          	sd	s10,-1528(s0)
    b9d8:	a1043d03          	ld	s10,-1520(s0)
    b9dc:	ad0d4c63          	blt	s10,a6,acb4 <.LBB52_1206>

000000000000b9e0 <.LBB52_1462>:
    b9e0:	08100d13          	li	s10,129
    b9e4:	a1a43823          	sd	s10,-1520(s0)
    b9e8:	a1843d03          	ld	s10,-1512(s0)
    b9ec:	ad0d4863          	blt	s10,a6,acbc <.LBB52_1207>

000000000000b9f0 <.LBB52_1463>:
    b9f0:	08100d13          	li	s10,129
    b9f4:	a1a43c23          	sd	s10,-1512(s0)
    b9f8:	a2043d03          	ld	s10,-1504(s0)
    b9fc:	ad0d4463          	blt	s10,a6,acc4 <.LBB52_1208>

000000000000ba00 <.LBB52_1464>:
    ba00:	08100d13          	li	s10,129
    ba04:	a3a43023          	sd	s10,-1504(s0)
    ba08:	a2843d03          	ld	s10,-1496(s0)
    ba0c:	ad0d4063          	blt	s10,a6,accc <.LBB52_1209>

000000000000ba10 <.LBB52_1465>:
    ba10:	08100d13          	li	s10,129
    ba14:	a3a43423          	sd	s10,-1496(s0)
    ba18:	a3043d03          	ld	s10,-1488(s0)
    ba1c:	ab0d4c63          	blt	s10,a6,acd4 <.LBB52_1210>

000000000000ba20 <.LBB52_1466>:
    ba20:	08100d13          	li	s10,129
    ba24:	a3a43823          	sd	s10,-1488(s0)
    ba28:	a3843d03          	ld	s10,-1480(s0)
    ba2c:	ab0d4863          	blt	s10,a6,acdc <.LBB52_1211>

000000000000ba30 <.LBB52_1467>:
    ba30:	08100d13          	li	s10,129
    ba34:	a3a43c23          	sd	s10,-1480(s0)
    ba38:	a4843d03          	ld	s10,-1464(s0)
    ba3c:	ab0d4463          	blt	s10,a6,ace4 <.LBB52_1212>

000000000000ba40 <.LBB52_1468>:
    ba40:	08100d13          	li	s10,129
    ba44:	a5a43423          	sd	s10,-1464(s0)
    ba48:	a5843d03          	ld	s10,-1448(s0)
    ba4c:	ab0d4063          	blt	s10,a6,acec <.LBB52_1213>

000000000000ba50 <.LBB52_1469>:
    ba50:	08100d13          	li	s10,129
    ba54:	a5a43c23          	sd	s10,-1448(s0)
    ba58:	a6843d03          	ld	s10,-1432(s0)
    ba5c:	a90d4c63          	blt	s10,a6,acf4 <.LBB52_1214>

000000000000ba60 <.LBB52_1470>:
    ba60:	08100d13          	li	s10,129
    ba64:	a7a43423          	sd	s10,-1432(s0)
    ba68:	a7843d03          	ld	s10,-1416(s0)
    ba6c:	a90d4863          	blt	s10,a6,acfc <.LBB52_1215>

000000000000ba70 <.LBB52_1471>:
    ba70:	08100d13          	li	s10,129
    ba74:	a7a43c23          	sd	s10,-1416(s0)
    ba78:	a8843d03          	ld	s10,-1400(s0)
    ba7c:	a90d4463          	blt	s10,a6,ad04 <.LBB52_1216>

000000000000ba80 <.LBB52_1472>:
    ba80:	08100d13          	li	s10,129
    ba84:	a9a43423          	sd	s10,-1400(s0)
    ba88:	a9843d03          	ld	s10,-1384(s0)
    ba8c:	a90d4063          	blt	s10,a6,ad0c <.LBB52_1217>

000000000000ba90 <.LBB52_1473>:
    ba90:	08100d13          	li	s10,129
    ba94:	a9a43c23          	sd	s10,-1384(s0)
    ba98:	aa843d03          	ld	s10,-1368(s0)
    ba9c:	a70d4c63          	blt	s10,a6,ad14 <.LBB52_1218>

000000000000baa0 <.LBB52_1474>:
    baa0:	08100d13          	li	s10,129
    baa4:	aba43423          	sd	s10,-1368(s0)
    baa8:	ab843d03          	ld	s10,-1352(s0)
    baac:	a70d4863          	blt	s10,a6,ad1c <.LBB52_1219>

000000000000bab0 <.LBB52_1475>:
    bab0:	08100d13          	li	s10,129
    bab4:	aba43c23          	sd	s10,-1352(s0)
    bab8:	ac843d03          	ld	s10,-1336(s0)
    babc:	a70d4463          	blt	s10,a6,ad24 <.LBB52_1220>

000000000000bac0 <.LBB52_1476>:
    bac0:	08100d13          	li	s10,129
    bac4:	ada43423          	sd	s10,-1336(s0)
    bac8:	ad843d03          	ld	s10,-1320(s0)
    bacc:	a70d4063          	blt	s10,a6,ad2c <.LBB52_1221>

000000000000bad0 <.LBB52_1477>:
    bad0:	08100d13          	li	s10,129
    bad4:	ada43c23          	sd	s10,-1320(s0)
    bad8:	a503cc63          	blt	t2,a6,ad30 <.LBB52_1222>

000000000000badc <.LBB52_1478>:
    badc:	08100393          	li	t2,129
    bae0:	a50dca63          	blt	s11,a6,ad34 <.LBB52_1223>

000000000000bae4 <.LBB52_1479>:
    bae4:	08100d93          	li	s11,129
    bae8:	86043d03          	ld	s10,-1952(s0)
    baec:	a50d4863          	blt	s10,a6,ad3c <.LBB52_1224>

000000000000baf0 <.LBB52_1480>:
    baf0:	08100d13          	li	s10,129
    baf4:	87a43023          	sd	s10,-1952(s0)
    baf8:	87043d03          	ld	s10,-1936(s0)
    bafc:	a50d4463          	blt	s10,a6,ad44 <.LBB52_1225>

000000000000bb00 <.LBB52_1481>:
    bb00:	08100d13          	li	s10,129
    bb04:	87a43823          	sd	s10,-1936(s0)
    bb08:	88043d03          	ld	s10,-1920(s0)
    bb0c:	a50d4063          	blt	s10,a6,ad4c <.LBB52_1226>

000000000000bb10 <.LBB52_1482>:
    bb10:	08100d13          	li	s10,129
    bb14:	89a43023          	sd	s10,-1920(s0)
    bb18:	89043d03          	ld	s10,-1904(s0)
    bb1c:	a30d4c63          	blt	s10,a6,ad54 <.LBB52_1227>

000000000000bb20 <.LBB52_1483>:
    bb20:	08100d13          	li	s10,129
    bb24:	89a43823          	sd	s10,-1904(s0)
    bb28:	8a043d03          	ld	s10,-1888(s0)
    bb2c:	a30d4863          	blt	s10,a6,ad5c <.LBB52_1228>

000000000000bb30 <.LBB52_1484>:
    bb30:	08100d13          	li	s10,129
    bb34:	8ba43023          	sd	s10,-1888(s0)
    bb38:	8b043d03          	ld	s10,-1872(s0)
    bb3c:	a30d4463          	blt	s10,a6,ad64 <.LBB52_1229>

000000000000bb40 <.LBB52_1485>:
    bb40:	08100d13          	li	s10,129
    bb44:	8ba43823          	sd	s10,-1872(s0)
    bb48:	8c043d03          	ld	s10,-1856(s0)
    bb4c:	a30d4063          	blt	s10,a6,ad6c <.LBB52_1230>

000000000000bb50 <.LBB52_1486>:
    bb50:	08100d13          	li	s10,129
    bb54:	8da43023          	sd	s10,-1856(s0)
    bb58:	8d043d03          	ld	s10,-1840(s0)
    bb5c:	a10d4c63          	blt	s10,a6,ad74 <.LBB52_1231>

000000000000bb60 <.LBB52_1487>:
    bb60:	08100d13          	li	s10,129
    bb64:	8da43823          	sd	s10,-1840(s0)
    bb68:	8e043d03          	ld	s10,-1824(s0)
    bb6c:	a10d4863          	blt	s10,a6,ad7c <.LBB52_1232>

000000000000bb70 <.LBB52_1488>:
    bb70:	08100d13          	li	s10,129
    bb74:	8fa43023          	sd	s10,-1824(s0)
    bb78:	8e843d03          	ld	s10,-1816(s0)
    bb7c:	a10d4463          	blt	s10,a6,ad84 <.LBB52_1233>

000000000000bb80 <.LBB52_1489>:
    bb80:	08100d13          	li	s10,129
    bb84:	8fa43423          	sd	s10,-1816(s0)
    bb88:	8f043d03          	ld	s10,-1808(s0)
    bb8c:	a10d4063          	blt	s10,a6,ad8c <.LBB52_1234>

000000000000bb90 <.LBB52_1490>:
    bb90:	08100d13          	li	s10,129
    bb94:	8fa43823          	sd	s10,-1808(s0)
    bb98:	8f843d03          	ld	s10,-1800(s0)
    bb9c:	9f0d4c63          	blt	s10,a6,ad94 <.LBB52_1235>

000000000000bba0 <.LBB52_1491>:
    bba0:	08100d13          	li	s10,129
    bba4:	8fa43c23          	sd	s10,-1800(s0)
    bba8:	90043d03          	ld	s10,-1792(s0)
    bbac:	9f0d4863          	blt	s10,a6,ad9c <.LBB52_1236>

000000000000bbb0 <.LBB52_1492>:
    bbb0:	08100d13          	li	s10,129
    bbb4:	91a43023          	sd	s10,-1792(s0)
    bbb8:	90843d03          	ld	s10,-1784(s0)
    bbbc:	9f0d4463          	blt	s10,a6,ada4 <.LBB52_1237>

000000000000bbc0 <.LBB52_1493>:
    bbc0:	08100d13          	li	s10,129
    bbc4:	91a43423          	sd	s10,-1784(s0)
    bbc8:	91043d03          	ld	s10,-1776(s0)
    bbcc:	9f0d4063          	blt	s10,a6,adac <.LBB52_1238>

000000000000bbd0 <.LBB52_1494>:
    bbd0:	08100d13          	li	s10,129
    bbd4:	91a43823          	sd	s10,-1776(s0)
    bbd8:	91843d03          	ld	s10,-1768(s0)
    bbdc:	9d0d4c63          	blt	s10,a6,adb4 <.LBB52_1239>

000000000000bbe0 <.LBB52_1495>:
    bbe0:	08100d13          	li	s10,129
    bbe4:	91a43c23          	sd	s10,-1768(s0)
    bbe8:	92043d03          	ld	s10,-1760(s0)
    bbec:	9d0d4863          	blt	s10,a6,adbc <.LBB52_1240>

000000000000bbf0 <.LBB52_1496>:
    bbf0:	08100d13          	li	s10,129
    bbf4:	93a43023          	sd	s10,-1760(s0)
    bbf8:	92843d03          	ld	s10,-1752(s0)
    bbfc:	9d0d4463          	blt	s10,a6,adc4 <.LBB52_1241>

000000000000bc00 <.LBB52_1497>:
    bc00:	08100d13          	li	s10,129
    bc04:	93a43423          	sd	s10,-1752(s0)
    bc08:	93043d03          	ld	s10,-1744(s0)
    bc0c:	9d0d4063          	blt	s10,a6,adcc <.LBB52_1242>

000000000000bc10 <.LBB52_1498>:
    bc10:	08100d13          	li	s10,129
    bc14:	93a43823          	sd	s10,-1744(s0)
    bc18:	93843d03          	ld	s10,-1736(s0)
    bc1c:	9b0d4c63          	blt	s10,a6,add4 <.LBB52_1243>

000000000000bc20 <.LBB52_1499>:
    bc20:	08100d13          	li	s10,129
    bc24:	93a43c23          	sd	s10,-1736(s0)
    bc28:	94843d03          	ld	s10,-1720(s0)
    bc2c:	9b0d4863          	blt	s10,a6,addc <.LBB52_1244>

000000000000bc30 <.LBB52_1500>:
    bc30:	08100d13          	li	s10,129
    bc34:	95a43423          	sd	s10,-1720(s0)
    bc38:	95843d03          	ld	s10,-1704(s0)
    bc3c:	9b0d4463          	blt	s10,a6,ade4 <.LBB52_1245>

000000000000bc40 <.LBB52_1501>:
    bc40:	08100d13          	li	s10,129
    bc44:	95a43c23          	sd	s10,-1704(s0)
    bc48:	96843d03          	ld	s10,-1688(s0)
    bc4c:	9b0d4063          	blt	s10,a6,adec <.LBB52_1246>

000000000000bc50 <.LBB52_1502>:
    bc50:	08100d13          	li	s10,129
    bc54:	97a43423          	sd	s10,-1688(s0)
    bc58:	97843d03          	ld	s10,-1672(s0)
    bc5c:	990d4c63          	blt	s10,a6,adf4 <.LBB52_1247>

000000000000bc60 <.LBB52_1503>:
    bc60:	08100d13          	li	s10,129
    bc64:	97a43c23          	sd	s10,-1672(s0)
    bc68:	98843d03          	ld	s10,-1656(s0)
    bc6c:	990d4863          	blt	s10,a6,adfc <.LBB52_1248>

000000000000bc70 <.LBB52_1504>:
    bc70:	08100d13          	li	s10,129
    bc74:	99a43423          	sd	s10,-1656(s0)
    bc78:	99843d03          	ld	s10,-1640(s0)
    bc7c:	990d4463          	blt	s10,a6,ae04 <.LBB52_1249>

000000000000bc80 <.LBB52_1505>:
    bc80:	08100d13          	li	s10,129
    bc84:	99a43c23          	sd	s10,-1640(s0)
    bc88:	9a843d03          	ld	s10,-1624(s0)
    bc8c:	990d4063          	blt	s10,a6,ae0c <.LBB52_1250>

000000000000bc90 <.LBB52_1506>:
    bc90:	08100d13          	li	s10,129
    bc94:	9ba43423          	sd	s10,-1624(s0)
    bc98:	9b843d03          	ld	s10,-1608(s0)
    bc9c:	970d4c63          	blt	s10,a6,ae14 <.LBB52_1251>

000000000000bca0 <.LBB52_1507>:
    bca0:	08100d13          	li	s10,129
    bca4:	9ba43c23          	sd	s10,-1608(s0)
    bca8:	9c843d03          	ld	s10,-1592(s0)
    bcac:	970d4863          	blt	s10,a6,ae1c <.LBB52_1252>

000000000000bcb0 <.LBB52_1508>:
    bcb0:	08100d13          	li	s10,129
    bcb4:	9da43423          	sd	s10,-1592(s0)
    bcb8:	9d843d03          	ld	s10,-1576(s0)
    bcbc:	970d4463          	blt	s10,a6,ae24 <.LBB52_1253>

000000000000bcc0 <.LBB52_1509>:
    bcc0:	08100d13          	li	s10,129
    bcc4:	9da43c23          	sd	s10,-1576(s0)
    bcc8:	970ec063          	blt	t4,a6,ae28 <.LBB52_1254>

000000000000bccc <.LBB52_1510>:
    bccc:	08100e93          	li	t4,129
    bcd0:	8d843d03          	ld	s10,-1832(s0)
    bcd4:	950cce63          	blt	s9,a6,ae30 <.LBB52_1255>

000000000000bcd8 <.LBB52_1511>:
    bcd8:	08100c93          	li	s9,129
    bcdc:	950bcc63          	blt	s7,a6,ae34 <.LBB52_1256>

000000000000bce0 <.LBB52_1512>:
    bce0:	08100b93          	li	s7,129
    bce4:	95074a63          	blt	a4,a6,ae38 <.LBB52_1257>

000000000000bce8 <.LBB52_1513>:
    bce8:	08100713          	li	a4,129
    bcec:	950f4863          	blt	t5,a6,ae3c <.LBB52_1258>

000000000000bcf0 <.LBB52_1514>:
    bcf0:	08100f13          	li	t5,129
    bcf4:	9507c663          	blt	a5,a6,ae40 <.LBB52_1259>

000000000000bcf8 <.LBB52_1515>:
    bcf8:	08100793          	li	a5,129
    bcfc:	950b4463          	blt	s6,a6,ae44 <.LBB52_1260>

000000000000bd00 <.LBB52_1516>:
    bd00:	08100b13          	li	s6,129
    bd04:	950ac263          	blt	s5,a6,ae48 <.LBB52_1261>

000000000000bd08 <.LBB52_1517>:
    bd08:	08100a93          	li	s5,129
    bd0c:	950a4063          	blt	s4,a6,ae4c <.LBB52_1262>

000000000000bd10 <.LBB52_1518>:
    bd10:	08100a13          	li	s4,129
    bd14:	9309ce63          	blt	s3,a6,ae50 <.LBB52_1263>

000000000000bd18 <.LBB52_1519>:
    bd18:	08100993          	li	s3,129
    bd1c:	93094c63          	blt	s2,a6,ae54 <.LBB52_1264>

000000000000bd20 <.LBB52_1520>:
    bd20:	08100913          	li	s2,129
    bd24:	9304ca63          	blt	s1,a6,ae58 <.LBB52_1265>

000000000000bd28 <.LBB52_1521>:
    bd28:	08100493          	li	s1,129
    bd2c:	930fc863          	blt	t6,a6,ae5c <.LBB52_1266>

000000000000bd30 <.LBB52_1522>:
    bd30:	08100f93          	li	t6,129
    bd34:	93064663          	blt	a2,a6,ae60 <.LBB52_1267>

000000000000bd38 <.LBB52_1523>:
    bd38:	08100613          	li	a2,129
    bd3c:	9305c463          	blt	a1,a6,ae64 <.LBB52_1268>

000000000000bd40 <.LBB52_1524>:
    bd40:	08100593          	li	a1,129
    bd44:	930e4263          	blt	t3,a6,ae68 <.LBB52_1269>

000000000000bd48 <.LBB52_1525>:
    bd48:	08100e13          	li	t3,129
    bd4c:	93054063          	blt	a0,a6,ae6c <.LBB52_1270>

000000000000bd50 <.LBB52_1526>:
    bd50:	08100513          	li	a0,129
    bd54:	9106ce63          	blt	a3,a6,ae70 <.LBB52_1271>

000000000000bd58 <.LBB52_1527>:
    bd58:	08100693          	li	a3,129
    bd5c:	91034c63          	blt	t1,a6,ae74 <.LBB52_1272>

000000000000bd60 <.LBB52_1528>:
    bd60:	08100313          	li	t1,129
    bd64:	9102ca63          	blt	t0,a6,ae78 <.LBB52_1273>

000000000000bd68 <.LBB52_1529>:
    bd68:	08100293          	li	t0,129
    bd6c:	910c4863          	blt	s8,a6,ae7c <.LBB52_1274>

000000000000bd70 <.LBB52_1530>:
    bd70:	08100c13          	li	s8,129
    bd74:	9108c663          	blt	a7,a6,ae80 <.LBB52_1275>

000000000000bd78 <.LBB52_1531>:
    bd78:	08100893          	li	a7,129
    bd7c:	85043083          	ld	ra,-1968(s0)
    bd80:	9100c463          	blt	ra,a6,ae88 <.LBB52_1276>

000000000000bd84 <.LBB52_1532>:
    bd84:	08100093          	li	ra,129
    bd88:	84143823          	sd	ra,-1968(s0)
    bd8c:	85843083          	ld	ra,-1960(s0)
    bd90:	9100c063          	blt	ra,a6,ae90 <.LBB52_1277>

000000000000bd94 <.LBB52_1533>:
    bd94:	08100093          	li	ra,129
    bd98:	84143c23          	sd	ra,-1960(s0)
    bd9c:	86843083          	ld	ra,-1944(s0)
    bda0:	8f00cc63          	blt	ra,a6,ae98 <.LBB52_1278>

000000000000bda4 <.LBB52_1534>:
    bda4:	08100093          	li	ra,129
    bda8:	86143423          	sd	ra,-1944(s0)
    bdac:	87843083          	ld	ra,-1928(s0)
    bdb0:	8f00c863          	blt	ra,a6,aea0 <.LBB52_1279>

000000000000bdb4 <.LBB52_1535>:
    bdb4:	08100093          	li	ra,129
    bdb8:	86143c23          	sd	ra,-1928(s0)
    bdbc:	88843083          	ld	ra,-1912(s0)
    bdc0:	8f00c463          	blt	ra,a6,aea8 <.LBB52_1280>

000000000000bdc4 <.LBB52_1536>:
    bdc4:	08100093          	li	ra,129
    bdc8:	88143423          	sd	ra,-1912(s0)
    bdcc:	89843083          	ld	ra,-1896(s0)
    bdd0:	8f00c063          	blt	ra,a6,aeb0 <.LBB52_1281>

000000000000bdd4 <.LBB52_1537>:
    bdd4:	08100093          	li	ra,129
    bdd8:	88143c23          	sd	ra,-1896(s0)
    bddc:	8a843083          	ld	ra,-1880(s0)
    bde0:	8d00cc63          	blt	ra,a6,aeb8 <.LBB52_1282>

000000000000bde4 <.LBB52_1538>:
    bde4:	08100093          	li	ra,129
    bde8:	8a143423          	sd	ra,-1880(s0)
    bdec:	8b843083          	ld	ra,-1864(s0)
    bdf0:	8d00c863          	blt	ra,a6,aec0 <.LBB52_1283>

000000000000bdf4 <.LBB52_1539>:
    bdf4:	08100093          	li	ra,129
    bdf8:	8a143c23          	sd	ra,-1864(s0)
    bdfc:	8c843083          	ld	ra,-1848(s0)
    be00:	8d00c463          	blt	ra,a6,aec8 <.LBB52_1284>

000000000000be04 <.LBB52_1540>:
    be04:	08100093          	li	ra,129
    be08:	8c143423          	sd	ra,-1848(s0)
    be0c:	010d5463          	bge	s10,a6,be14 <.LBB52_1541>
    be10:	bd4f406f          	j	1e4 <.LBB52_3>

000000000000be14 <.LBB52_1541>:
    be14:	08100d13          	li	s10,129
    be18:	bccf406f          	j	1e4 <.LBB52_3>

000000000000be1c <.LBB52_1542>:
    be1c:	00000693          	li	a3,0
    be20:	00003537          	lui	a0,0x3
    be24:	0405051b          	addiw	a0,a0,64 # 3040 <.LBB52_24+0x1b4>
    be28:	000015b7          	lui	a1,0x1
    be2c:	40b405b3          	sub	a1,s0,a1
    be30:	60a5b023          	sd	a0,1536(a1) # 1600 <.LBB52_5+0x228>
    be34:	0002e537          	lui	a0,0x2e
    be38:	c005059b          	addiw	a1,a0,-1024 # 2dc00 <.Lfunc_end80+0x5238>
    be3c:	00001637          	lui	a2,0x1
    be40:	40c40633          	sub	a2,s0,a2
    be44:	b3863603          	ld	a2,-1224(a2) # b38 <.LBB52_3+0x954>
    be48:	00b605b3          	add	a1,a2,a1
    be4c:	00001737          	lui	a4,0x1
    be50:	40e40733          	sub	a4,s0,a4
    be54:	5eb73c23          	sd	a1,1528(a4) # 15f8 <.LBB52_5+0x220>
    be58:	cc05051b          	addiw	a0,a0,-832
    be5c:	00a605b3          	add	a1,a2,a0
    be60:	796f4537          	lui	a0,0x796f4
    be64:	7c85051b          	addiw	a0,a0,1992 # 796f47c8 <.Lfunc_end80+0x796cbe00>
    be68:	a8a43023          	sd	a0,-1408(s0)
    be6c:	00100613          	li	a2,1
    be70:	a8b43423          	sd	a1,-1400(s0)
    be74:	5fc0006f          	j	c470 <.LBB52_1544>

000000000000be78 <.LBB52_1543>:
    be78:	c5f43423          	sd	t6,-952(s0)
    be7c:	ffe58e93          	addi	t4,a1,-2
    be80:	00001537          	lui	a0,0x1
    be84:	40a40533          	sub	a0,s0,a0
    be88:	b3053503          	ld	a0,-1232(a0) # b30 <.LBB52_3+0x94c>
    be8c:	a7843583          	ld	a1,-1416(s0)
    be90:	00b50f33          	add	t5,a0,a1
    be94:	00003fb7          	lui	t6,0x3
    be98:	01ff0f33          	add	t5,t5,t6
    be9c:	01df01a3          	sb	t4,3(t5)
    bea0:	e5043e83          	ld	t4,-432(s0)
    bea4:	ffee8e93          	addi	t4,t4,-2
    bea8:	01df0123          	sb	t4,2(t5)
    beac:	e6043e83          	ld	t4,-416(s0)
    beb0:	ffee8e93          	addi	t4,t4,-2
    beb4:	01df00a3          	sb	t4,1(t5)
    beb8:	e7043e83          	ld	t4,-400(s0)
    bebc:	ffee8e93          	addi	t4,t4,-2
    bec0:	01df0023          	sb	t4,0(t5)
    bec4:	e8043e83          	ld	t4,-384(s0)
    bec8:	ffee8e93          	addi	t4,t4,-2
    becc:	01df0223          	sb	t4,4(t5)
    bed0:	e9043e83          	ld	t4,-368(s0)
    bed4:	ffee8e93          	addi	t4,t4,-2
    bed8:	01df02a3          	sb	t4,5(t5)
    bedc:	ea043e83          	ld	t4,-352(s0)
    bee0:	ffee8e93          	addi	t4,t4,-2
    bee4:	01df0323          	sb	t4,6(t5)
    bee8:	eb043e83          	ld	t4,-336(s0)
    beec:	ffee8e93          	addi	t4,t4,-2
    bef0:	01df03a3          	sb	t4,7(t5)
    bef4:	ec043e83          	ld	t4,-320(s0)
    bef8:	ffee8e93          	addi	t4,t4,-2
    befc:	01df0423          	sb	t4,8(t5)
    bf00:	ed043e83          	ld	t4,-304(s0)
    bf04:	ffee8e93          	addi	t4,t4,-2
    bf08:	01df04a3          	sb	t4,9(t5)
    bf0c:	ee043e83          	ld	t4,-288(s0)
    bf10:	ffee8e93          	addi	t4,t4,-2
    bf14:	01df0523          	sb	t4,10(t5)
    bf18:	ee843e83          	ld	t4,-280(s0)
    bf1c:	ffee8e93          	addi	t4,t4,-2
    bf20:	01df05a3          	sb	t4,11(t5)
    bf24:	ef043e83          	ld	t4,-272(s0)
    bf28:	ffee8e93          	addi	t4,t4,-2
    bf2c:	01df0623          	sb	t4,12(t5)
    bf30:	ef843e83          	ld	t4,-264(s0)
    bf34:	ffee8e93          	addi	t4,t4,-2
    bf38:	01df06a3          	sb	t4,13(t5)
    bf3c:	f0043e83          	ld	t4,-256(s0)
    bf40:	ffee8e93          	addi	t4,t4,-2
    bf44:	01df0723          	sb	t4,14(t5)
    bf48:	f0843e83          	ld	t4,-248(s0)
    bf4c:	ffee8e93          	addi	t4,t4,-2
    bf50:	01df07a3          	sb	t4,15(t5)
    bf54:	f1043e83          	ld	t4,-240(s0)
    bf58:	ffee8e93          	addi	t4,t4,-2
    bf5c:	01df0823          	sb	t4,16(t5)
    bf60:	f1843e83          	ld	t4,-232(s0)
    bf64:	ffee8e93          	addi	t4,t4,-2
    bf68:	01df08a3          	sb	t4,17(t5)
    bf6c:	f2043e83          	ld	t4,-224(s0)
    bf70:	ffee8e93          	addi	t4,t4,-2
    bf74:	01df0923          	sb	t4,18(t5)
    bf78:	f2843e83          	ld	t4,-216(s0)
    bf7c:	ffee8e93          	addi	t4,t4,-2
    bf80:	01df09a3          	sb	t4,19(t5)
    bf84:	f3043e83          	ld	t4,-208(s0)
    bf88:	ffee8e93          	addi	t4,t4,-2
    bf8c:	01df0a23          	sb	t4,20(t5)
    bf90:	f3843e83          	ld	t4,-200(s0)
    bf94:	ffee8e93          	addi	t4,t4,-2
    bf98:	01df0aa3          	sb	t4,21(t5)
    bf9c:	f4043e83          	ld	t4,-192(s0)
    bfa0:	ffee8e93          	addi	t4,t4,-2
    bfa4:	01df0b23          	sb	t4,22(t5)
    bfa8:	f4843e83          	ld	t4,-184(s0)
    bfac:	ffee8e93          	addi	t4,t4,-2
    bfb0:	01df0ba3          	sb	t4,23(t5)
    bfb4:	f5043e83          	ld	t4,-176(s0)
    bfb8:	ffee8e93          	addi	t4,t4,-2
    bfbc:	01df0c23          	sb	t4,24(t5)
    bfc0:	f5843e83          	ld	t4,-168(s0)
    bfc4:	ffee8e93          	addi	t4,t4,-2
    bfc8:	01df0ca3          	sb	t4,25(t5)
    bfcc:	f6043e83          	ld	t4,-160(s0)
    bfd0:	ffee8e93          	addi	t4,t4,-2
    bfd4:	01df0d23          	sb	t4,26(t5)
    bfd8:	f6843e83          	ld	t4,-152(s0)
    bfdc:	ffee8e93          	addi	t4,t4,-2
    bfe0:	01df0da3          	sb	t4,27(t5)
    bfe4:	f7043e83          	ld	t4,-144(s0)
    bfe8:	ffee8e93          	addi	t4,t4,-2
    bfec:	01df0e23          	sb	t4,28(t5)
    bff0:	f7843e83          	ld	t4,-136(s0)
    bff4:	ffee8e93          	addi	t4,t4,-2
    bff8:	01df0ea3          	sb	t4,29(t5)
    bffc:	f8043e83          	ld	t4,-128(s0)
    c000:	ffee8e93          	addi	t4,t4,-2
    c004:	01df0f23          	sb	t4,30(t5)
    c008:	f8843e83          	ld	t4,-120(s0)
    c00c:	ffee8e93          	addi	t4,t4,-2
    c010:	01df0fa3          	sb	t4,31(t5)
    c014:	d4843f03          	ld	t5,-696(s0)
    c018:	ffef0f13          	addi	t5,t5,-2
    c01c:	00001eb7          	lui	t4,0x1
    c020:	41d40eb3          	sub	t4,s0,t4
    c024:	600ebf83          	ld	t6,1536(t4) # 1600 <.LBB52_5+0x228>
    c028:	01f5eeb3          	or	t4,a1,t6
    c02c:	01d50eb3          	add	t4,a0,t4
    c030:	01ee81a3          	sb	t5,3(t4)
    c034:	d5843f03          	ld	t5,-680(s0)
    c038:	ffef0f13          	addi	t5,t5,-2
    c03c:	01ee8123          	sb	t5,2(t4)
    c040:	d6843f03          	ld	t5,-664(s0)
    c044:	ffef0f13          	addi	t5,t5,-2
    c048:	01ee80a3          	sb	t5,1(t4)
    c04c:	d7843f03          	ld	t5,-648(s0)
    c050:	ffef0f13          	addi	t5,t5,-2
    c054:	01ee8023          	sb	t5,0(t4)
    c058:	d8843f03          	ld	t5,-632(s0)
    c05c:	ffef0f13          	addi	t5,t5,-2
    c060:	01ee8223          	sb	t5,4(t4)
    c064:	d9843f03          	ld	t5,-616(s0)
    c068:	ffef0f13          	addi	t5,t5,-2
    c06c:	01ee82a3          	sb	t5,5(t4)
    c070:	da843f03          	ld	t5,-600(s0)
    c074:	ffef0f13          	addi	t5,t5,-2
    c078:	01ee8323          	sb	t5,6(t4)
    c07c:	db843f03          	ld	t5,-584(s0)
    c080:	ffef0f13          	addi	t5,t5,-2
    c084:	01ee83a3          	sb	t5,7(t4)
    c088:	dc843f03          	ld	t5,-568(s0)
    c08c:	ffef0f13          	addi	t5,t5,-2
    c090:	01ee8423          	sb	t5,8(t4)
    c094:	dd843f03          	ld	t5,-552(s0)
    c098:	ffef0f13          	addi	t5,t5,-2
    c09c:	01ee84a3          	sb	t5,9(t4)
    c0a0:	de843f03          	ld	t5,-536(s0)
    c0a4:	ffef0f13          	addi	t5,t5,-2
    c0a8:	01ee8523          	sb	t5,10(t4)
    c0ac:	df043f03          	ld	t5,-528(s0)
    c0b0:	ffef0f13          	addi	t5,t5,-2
    c0b4:	01ee85a3          	sb	t5,11(t4)
    c0b8:	df843f03          	ld	t5,-520(s0)
    c0bc:	ffef0f13          	addi	t5,t5,-2
    c0c0:	01ee8623          	sb	t5,12(t4)
    c0c4:	e0043f03          	ld	t5,-512(s0)
    c0c8:	ffef0f13          	addi	t5,t5,-2
    c0cc:	01ee86a3          	sb	t5,13(t4)
    c0d0:	e0843f03          	ld	t5,-504(s0)
    c0d4:	ffef0f13          	addi	t5,t5,-2
    c0d8:	01ee8723          	sb	t5,14(t4)
    c0dc:	e1043f03          	ld	t5,-496(s0)
    c0e0:	ffef0f13          	addi	t5,t5,-2
    c0e4:	01ee87a3          	sb	t5,15(t4)
    c0e8:	e1843f03          	ld	t5,-488(s0)
    c0ec:	ffef0f13          	addi	t5,t5,-2
    c0f0:	01ee8823          	sb	t5,16(t4)
    c0f4:	e2043f03          	ld	t5,-480(s0)
    c0f8:	ffef0f13          	addi	t5,t5,-2
    c0fc:	01ee88a3          	sb	t5,17(t4)
    c100:	e2843f03          	ld	t5,-472(s0)
    c104:	ffef0f13          	addi	t5,t5,-2
    c108:	01ee8923          	sb	t5,18(t4)
    c10c:	e3043f03          	ld	t5,-464(s0)
    c110:	ffef0f13          	addi	t5,t5,-2
    c114:	01ee89a3          	sb	t5,19(t4)
    c118:	e3843f03          	ld	t5,-456(s0)
    c11c:	ffef0f13          	addi	t5,t5,-2
    c120:	01ee8a23          	sb	t5,20(t4)
    c124:	e4043f03          	ld	t5,-448(s0)
    c128:	ffef0f13          	addi	t5,t5,-2
    c12c:	01ee8aa3          	sb	t5,21(t4)
    c130:	e4843f03          	ld	t5,-440(s0)
    c134:	ffef0f13          	addi	t5,t5,-2
    c138:	01ee8b23          	sb	t5,22(t4)
    c13c:	e5843f03          	ld	t5,-424(s0)
    c140:	ffef0f13          	addi	t5,t5,-2
    c144:	01ee8ba3          	sb	t5,23(t4)
    c148:	e6843f03          	ld	t5,-408(s0)
    c14c:	ffef0f13          	addi	t5,t5,-2
    c150:	01ee8c23          	sb	t5,24(t4)
    c154:	e7843f03          	ld	t5,-392(s0)
    c158:	ffef0f13          	addi	t5,t5,-2
    c15c:	01ee8ca3          	sb	t5,25(t4)
    c160:	e8843f03          	ld	t5,-376(s0)
    c164:	ffef0f13          	addi	t5,t5,-2
    c168:	01ee8d23          	sb	t5,26(t4)
    c16c:	e9843f03          	ld	t5,-360(s0)
    c170:	ffef0f13          	addi	t5,t5,-2
    c174:	01ee8da3          	sb	t5,27(t4)
    c178:	ea843f03          	ld	t5,-344(s0)
    c17c:	ffef0f13          	addi	t5,t5,-2
    c180:	01ee8e23          	sb	t5,28(t4)
    c184:	eb843f03          	ld	t5,-328(s0)
    c188:	ffef0f13          	addi	t5,t5,-2
    c18c:	01ee8ea3          	sb	t5,29(t4)
    c190:	ec843f03          	ld	t5,-312(s0)
    c194:	ffef0f13          	addi	t5,t5,-2
    c198:	01ee8f23          	sb	t5,30(t4)
    c19c:	ed843f03          	ld	t5,-296(s0)
    c1a0:	ffef0f13          	addi	t5,t5,-2
    c1a4:	01ee8fa3          	sb	t5,31(t4)
    c1a8:	c5043e83          	ld	t4,-944(s0)
    c1ac:	ffee8e93          	addi	t4,t4,-2
    c1b0:	00bf85b3          	add	a1,t6,a1
    c1b4:	00a585b3          	add	a1,a1,a0
    c1b8:	05d581a3          	sb	t4,67(a1)
    c1bc:	c6043503          	ld	a0,-928(s0)
    c1c0:	ffe50513          	addi	a0,a0,-2
    c1c4:	04a58123          	sb	a0,66(a1)
    c1c8:	c7043503          	ld	a0,-912(s0)
    c1cc:	ffe50513          	addi	a0,a0,-2
    c1d0:	04a580a3          	sb	a0,65(a1)
    c1d4:	c8043503          	ld	a0,-896(s0)
    c1d8:	ffe50513          	addi	a0,a0,-2
    c1dc:	04a58023          	sb	a0,64(a1)
    c1e0:	c9043503          	ld	a0,-880(s0)
    c1e4:	ffe50513          	addi	a0,a0,-2
    c1e8:	04a58223          	sb	a0,68(a1)
    c1ec:	ca043503          	ld	a0,-864(s0)
    c1f0:	ffe50513          	addi	a0,a0,-2
    c1f4:	04a582a3          	sb	a0,69(a1)
    c1f8:	cb043503          	ld	a0,-848(s0)
    c1fc:	ffe50513          	addi	a0,a0,-2
    c200:	04a58323          	sb	a0,70(a1)
    c204:	cc043503          	ld	a0,-832(s0)
    c208:	ffe50513          	addi	a0,a0,-2
    c20c:	04a583a3          	sb	a0,71(a1)
    c210:	cd043503          	ld	a0,-816(s0)
    c214:	ffe50513          	addi	a0,a0,-2
    c218:	04a58423          	sb	a0,72(a1)
    c21c:	ce043503          	ld	a0,-800(s0)
    c220:	ffe50513          	addi	a0,a0,-2
    c224:	04a584a3          	sb	a0,73(a1)
    c228:	ce843503          	ld	a0,-792(s0)
    c22c:	ffe50513          	addi	a0,a0,-2
    c230:	04a58523          	sb	a0,74(a1)
    c234:	cf043503          	ld	a0,-784(s0)
    c238:	ffe50513          	addi	a0,a0,-2
    c23c:	04a585a3          	sb	a0,75(a1)
    c240:	cf843503          	ld	a0,-776(s0)
    c244:	ffe50513          	addi	a0,a0,-2
    c248:	04a58623          	sb	a0,76(a1)
    c24c:	d0043503          	ld	a0,-768(s0)
    c250:	ffe50513          	addi	a0,a0,-2
    c254:	04a586a3          	sb	a0,77(a1)
    c258:	d0843503          	ld	a0,-760(s0)
    c25c:	ffe50513          	addi	a0,a0,-2
    c260:	04a58723          	sb	a0,78(a1)
    c264:	d1043503          	ld	a0,-752(s0)
    c268:	ffe50513          	addi	a0,a0,-2
    c26c:	04a587a3          	sb	a0,79(a1)
    c270:	d1843503          	ld	a0,-744(s0)
    c274:	ffe50513          	addi	a0,a0,-2
    c278:	04a58823          	sb	a0,80(a1)
    c27c:	d2043503          	ld	a0,-736(s0)
    c280:	ffe50513          	addi	a0,a0,-2
    c284:	04a588a3          	sb	a0,81(a1)
    c288:	d2843503          	ld	a0,-728(s0)
    c28c:	ffe50513          	addi	a0,a0,-2
    c290:	04a58923          	sb	a0,82(a1)
    c294:	d3043503          	ld	a0,-720(s0)
    c298:	ffe50513          	addi	a0,a0,-2
    c29c:	04a589a3          	sb	a0,83(a1)
    c2a0:	d3843503          	ld	a0,-712(s0)
    c2a4:	ffe50513          	addi	a0,a0,-2
    c2a8:	04a58a23          	sb	a0,84(a1)
    c2ac:	d4043503          	ld	a0,-704(s0)
    c2b0:	ffe50513          	addi	a0,a0,-2
    c2b4:	04a58aa3          	sb	a0,85(a1)
    c2b8:	d5043503          	ld	a0,-688(s0)
    c2bc:	ffe50513          	addi	a0,a0,-2
    c2c0:	04a58b23          	sb	a0,86(a1)
    c2c4:	d6043503          	ld	a0,-672(s0)
    c2c8:	ffe50513          	addi	a0,a0,-2
    c2cc:	04a58ba3          	sb	a0,87(a1)
    c2d0:	d7043503          	ld	a0,-656(s0)
    c2d4:	ffe50513          	addi	a0,a0,-2
    c2d8:	04a58c23          	sb	a0,88(a1)
    c2dc:	d8043503          	ld	a0,-640(s0)
    c2e0:	ffe50513          	addi	a0,a0,-2
    c2e4:	04a58ca3          	sb	a0,89(a1)
    c2e8:	d9043503          	ld	a0,-624(s0)
    c2ec:	ffe50513          	addi	a0,a0,-2
    c2f0:	04a58d23          	sb	a0,90(a1)
    c2f4:	da043503          	ld	a0,-608(s0)
    c2f8:	ffe50513          	addi	a0,a0,-2
    c2fc:	04a58da3          	sb	a0,91(a1)
    c300:	db043503          	ld	a0,-592(s0)
    c304:	ffe50513          	addi	a0,a0,-2
    c308:	04a58e23          	sb	a0,92(a1)
    c30c:	dc043503          	ld	a0,-576(s0)
    c310:	ffe50513          	addi	a0,a0,-2
    c314:	04a58ea3          	sb	a0,93(a1)
    c318:	dd043503          	ld	a0,-560(s0)
    c31c:	ffe50513          	addi	a0,a0,-2
    c320:	04a58f23          	sb	a0,94(a1)
    c324:	de043503          	ld	a0,-544(s0)
    c328:	ffe50513          	addi	a0,a0,-2
    c32c:	04a58fa3          	sb	a0,95(a1)
    c330:	ffe98993          	addi	s3,s3,-2
    c334:	093581a3          	sb	s3,131(a1)
    c338:	ffe38393          	addi	t2,t2,-2
    c33c:	08758123          	sb	t2,130(a1)
    c340:	ffe80813          	addi	a6,a6,-2 # ffffffffbffffffe <.Lfunc_end80+0xffffffffbffd7636>
    c344:	090580a3          	sb	a6,129(a1)
    c348:	ffe88893          	addi	a7,a7,-2
    c34c:	09158023          	sb	a7,128(a1)
    c350:	ffe78793          	addi	a5,a5,-2
    c354:	08f58223          	sb	a5,132(a1)
    c358:	ffe30313          	addi	t1,t1,-2
    c35c:	086582a3          	sb	t1,133(a1)
    c360:	ffe08093          	addi	ra,ra,-2 # fffffffffff8dffe <.Lfunc_end80+0xfffffffffff65636>
    c364:	08158323          	sb	ra,134(a1)
    c368:	ffed8d93          	addi	s11,s11,-2
    c36c:	09b583a3          	sb	s11,135(a1)
    c370:	ffed0d13          	addi	s10,s10,-2
    c374:	09a58423          	sb	s10,136(a1)
    c378:	ffec8c93          	addi	s9,s9,-2
    c37c:	099584a3          	sb	s9,137(a1)
    c380:	ffec0c13          	addi	s8,s8,-2
    c384:	09858523          	sb	s8,138(a1)
    c388:	ffeb8b93          	addi	s7,s7,-2
    c38c:	097585a3          	sb	s7,139(a1)
    c390:	ffeb0b13          	addi	s6,s6,-2
    c394:	09658623          	sb	s6,140(a1)
    c398:	ffea8a93          	addi	s5,s5,-2 # fffffffffff8dffe <.Lfunc_end80+0xfffffffffff65636>
    c39c:	095586a3          	sb	s5,141(a1)
    c3a0:	ffea0a13          	addi	s4,s4,-2
    c3a4:	09458723          	sb	s4,142(a1)
    c3a8:	ffee0e13          	addi	t3,t3,-2
    c3ac:	09c587a3          	sb	t3,143(a1)
    c3b0:	ffe90913          	addi	s2,s2,-2
    c3b4:	09258823          	sb	s2,144(a1)
    c3b8:	ffe28293          	addi	t0,t0,-2
    c3bc:	085588a3          	sb	t0,145(a1)
    c3c0:	ffe48493          	addi	s1,s1,-2
    c3c4:	08958923          	sb	s1,146(a1)
    c3c8:	ffe70713          	addi	a4,a4,-2
    c3cc:	08e589a3          	sb	a4,147(a1)
    c3d0:	ffe68693          	addi	a3,a3,-2
    c3d4:	08d58a23          	sb	a3,148(a1)
    c3d8:	ffe60613          	addi	a2,a2,-2
    c3dc:	08c58aa3          	sb	a2,149(a1)
    c3e0:	c5843f83          	ld	t6,-936(s0)
    c3e4:	ffef8f93          	addi	t6,t6,-2 # 2ffe <.LBB52_24+0x172>
    c3e8:	09f58b23          	sb	t6,150(a1)
    c3ec:	c6843503          	ld	a0,-920(s0)
    c3f0:	ffe50513          	addi	a0,a0,-2
    c3f4:	08a58ba3          	sb	a0,151(a1)
    c3f8:	c7843503          	ld	a0,-904(s0)
    c3fc:	ffe50513          	addi	a0,a0,-2
    c400:	08a58c23          	sb	a0,152(a1)
    c404:	c8843503          	ld	a0,-888(s0)
    c408:	ffe50513          	addi	a0,a0,-2
    c40c:	08a58ca3          	sb	a0,153(a1)
    c410:	c9843503          	ld	a0,-872(s0)
    c414:	ffe50513          	addi	a0,a0,-2
    c418:	08a58d23          	sb	a0,154(a1)
    c41c:	ca843503          	ld	a0,-856(s0)
    c420:	ffe50513          	addi	a0,a0,-2
    c424:	08a58da3          	sb	a0,155(a1)
    c428:	cb843503          	ld	a0,-840(s0)
    c42c:	ffe50513          	addi	a0,a0,-2
    c430:	08a58e23          	sb	a0,156(a1)
    c434:	cc843503          	ld	a0,-824(s0)
    c438:	ffe50513          	addi	a0,a0,-2
    c43c:	08a58ea3          	sb	a0,157(a1)
    c440:	cd843503          	ld	a0,-808(s0)
    c444:	ffe50513          	addi	a0,a0,-2
    c448:	08a58f23          	sb	a0,158(a1)
    c44c:	c4843503          	ld	a0,-952(s0)
    c450:	ffe50513          	addi	a0,a0,-2
    c454:	08a58fa3          	sb	a0,159(a1)
    c458:	a7043503          	ld	a0,-1424(s0)
    c45c:	00157513          	andi	a0,a0,1
    c460:	02000693          	li	a3,32
    c464:	00000613          	li	a2,0
    c468:	00051463          	bnez	a0,c470 <.LBB52_1544>
    c46c:	0850406f          	j	10cf0 <.LBB52_2314>

000000000000c470 <.LBB52_1544>:
    c470:	a6c43823          	sd	a2,-1424(s0)
    c474:	e2043423          	sd	zero,-472(s0)
    c478:	e2043023          	sd	zero,-480(s0)
    c47c:	e0043c23          	sd	zero,-488(s0)
    c480:	e0043823          	sd	zero,-496(s0)
    c484:	e2043823          	sd	zero,-464(s0)
    c488:	e2043c23          	sd	zero,-456(s0)
    c48c:	e4043023          	sd	zero,-448(s0)
    c490:	e4043423          	sd	zero,-440(s0)
    c494:	e4043823          	sd	zero,-432(s0)
    c498:	e4043c23          	sd	zero,-424(s0)
    c49c:	e6043023          	sd	zero,-416(s0)
    c4a0:	00000093          	li	ra,0
    c4a4:	00000d93          	li	s11,0
    c4a8:	e6043c23          	sd	zero,-392(s0)
    c4ac:	00000a93          	li	s5,0
    c4b0:	00000a13          	li	s4,0
    c4b4:	00000f13          	li	t5,0
    c4b8:	00000713          	li	a4,0
    c4bc:	00000993          	li	s3,0
    c4c0:	00000913          	li	s2,0
    c4c4:	00000513          	li	a0,0
    c4c8:	00000493          	li	s1,0
    c4cc:	00000c93          	li	s9,0
    c4d0:	00000e93          	li	t4,0
    c4d4:	00000e13          	li	t3,0
    c4d8:	00000393          	li	t2,0
    c4dc:	00000313          	li	t1,0
    c4e0:	00000293          	li	t0,0
    c4e4:	00000893          	li	a7,0
    c4e8:	00000613          	li	a2,0
    c4ec:	00000b93          	li	s7,0
    c4f0:	00000793          	li	a5,0
    c4f4:	d2043823          	sd	zero,-720(s0)
    c4f8:	d2043423          	sd	zero,-728(s0)
    c4fc:	d2043023          	sd	zero,-736(s0)
    c500:	d0043c23          	sd	zero,-744(s0)
    c504:	d2043c23          	sd	zero,-712(s0)
    c508:	d4043023          	sd	zero,-704(s0)
    c50c:	d4043423          	sd	zero,-696(s0)
    c510:	d4043823          	sd	zero,-688(s0)
    c514:	d4043c23          	sd	zero,-680(s0)
    c518:	d6043023          	sd	zero,-672(s0)
    c51c:	d6043423          	sd	zero,-664(s0)
    c520:	d6043823          	sd	zero,-656(s0)
    c524:	d6043c23          	sd	zero,-648(s0)
    c528:	d8043023          	sd	zero,-640(s0)
    c52c:	d8043423          	sd	zero,-632(s0)
    c530:	d8043823          	sd	zero,-624(s0)
    c534:	d8043c23          	sd	zero,-616(s0)
    c538:	da043023          	sd	zero,-608(s0)
    c53c:	da043423          	sd	zero,-600(s0)
    c540:	da043823          	sd	zero,-592(s0)
    c544:	da043c23          	sd	zero,-584(s0)
    c548:	dc043023          	sd	zero,-576(s0)
    c54c:	dc043423          	sd	zero,-568(s0)
    c550:	dc043823          	sd	zero,-560(s0)
    c554:	dc043c23          	sd	zero,-552(s0)
    c558:	de043023          	sd	zero,-544(s0)
    c55c:	de043423          	sd	zero,-536(s0)
    c560:	b6043823          	sd	zero,-1168(s0)
    c564:	de043823          	sd	zero,-528(s0)
    c568:	de043c23          	sd	zero,-520(s0)
    c56c:	e0043023          	sd	zero,-512(s0)
    c570:	e0043423          	sd	zero,-504(s0)
    c574:	c2043823          	sd	zero,-976(s0)
    c578:	c2043423          	sd	zero,-984(s0)
    c57c:	c2043023          	sd	zero,-992(s0)
    c580:	c0043c23          	sd	zero,-1000(s0)
    c584:	c2043c23          	sd	zero,-968(s0)
    c588:	c4043023          	sd	zero,-960(s0)
    c58c:	c4043423          	sd	zero,-952(s0)
    c590:	c4043823          	sd	zero,-944(s0)
    c594:	c4043c23          	sd	zero,-936(s0)
    c598:	c6043023          	sd	zero,-928(s0)
    c59c:	c6043423          	sd	zero,-920(s0)
    c5a0:	c6043823          	sd	zero,-912(s0)
    c5a4:	c6043c23          	sd	zero,-904(s0)
    c5a8:	c8043023          	sd	zero,-896(s0)
    c5ac:	c8043423          	sd	zero,-888(s0)
    c5b0:	c8043823          	sd	zero,-880(s0)
    c5b4:	c8043c23          	sd	zero,-872(s0)
    c5b8:	ca043023          	sd	zero,-864(s0)
    c5bc:	ca043423          	sd	zero,-856(s0)
    c5c0:	ca043823          	sd	zero,-848(s0)
    c5c4:	ca043c23          	sd	zero,-840(s0)
    c5c8:	cc043023          	sd	zero,-832(s0)
    c5cc:	cc043423          	sd	zero,-824(s0)
    c5d0:	cc043823          	sd	zero,-816(s0)
    c5d4:	cc043c23          	sd	zero,-808(s0)
    c5d8:	ce043023          	sd	zero,-800(s0)
    c5dc:	ce043423          	sd	zero,-792(s0)
    c5e0:	ce043823          	sd	zero,-784(s0)
    c5e4:	ce043c23          	sd	zero,-776(s0)
    c5e8:	d0043023          	sd	zero,-768(s0)
    c5ec:	d0043423          	sd	zero,-760(s0)
    c5f0:	d0043823          	sd	zero,-752(s0)
    c5f4:	b4043423          	sd	zero,-1208(s0)
    c5f8:	b4043823          	sd	zero,-1200(s0)
    c5fc:	b2043c23          	sd	zero,-1224(s0)
    c600:	b4043023          	sd	zero,-1216(s0)
    c604:	b2043823          	sd	zero,-1232(s0)
    c608:	b2043423          	sd	zero,-1240(s0)
    c60c:	b2043023          	sd	zero,-1248(s0)
    c610:	b0043c23          	sd	zero,-1256(s0)
    c614:	b4043c23          	sd	zero,-1192(s0)
    c618:	b0043823          	sd	zero,-1264(s0)
    c61c:	b6043023          	sd	zero,-1184(s0)
    c620:	b6043423          	sd	zero,-1176(s0)
    c624:	b6043c23          	sd	zero,-1160(s0)
    c628:	b8043023          	sd	zero,-1152(s0)
    c62c:	b8043423          	sd	zero,-1144(s0)
    c630:	b8043823          	sd	zero,-1136(s0)
    c634:	b8043c23          	sd	zero,-1128(s0)
    c638:	ba043023          	sd	zero,-1120(s0)
    c63c:	ba043423          	sd	zero,-1112(s0)
    c640:	ba043823          	sd	zero,-1104(s0)
    c644:	ba043c23          	sd	zero,-1096(s0)
    c648:	bc043023          	sd	zero,-1088(s0)
    c64c:	bc043423          	sd	zero,-1080(s0)
    c650:	bc043823          	sd	zero,-1072(s0)
    c654:	bc043c23          	sd	zero,-1064(s0)
    c658:	be043023          	sd	zero,-1056(s0)
    c65c:	be043423          	sd	zero,-1048(s0)
    c660:	be043823          	sd	zero,-1040(s0)
    c664:	be043c23          	sd	zero,-1032(s0)
    c668:	c0043023          	sd	zero,-1024(s0)
    c66c:	c0043423          	sd	zero,-1016(s0)
    c670:	c0043823          	sd	zero,-1008(s0)
    c674:	000015b7          	lui	a1,0x1
    c678:	40b405b3          	sub	a1,s0,a1
    c67c:	b905bf83          	ld	t6,-1136(a1) # b90 <.LBB52_3+0x9ac>
    c680:	a6d43c23          	sd	a3,-1416(s0)
    c684:	00df8833          	add	a6,t6,a3
    c688:	000015b7          	lui	a1,0x1
    c68c:	40b405b3          	sub	a1,s0,a1
    c690:	5f85b683          	ld	a3,1528(a1) # 15f8 <.LBB52_5+0x220>

000000000000c694 <.LBB52_1545>:
    c694:	f8d43423          	sd	a3,-120(s0)
    c698:	ecc43823          	sd	a2,-304(s0)
    c69c:	e9943c23          	sd	s9,-360(s0)
    c6a0:	e6143423          	sd	ra,-408(s0)
    c6a4:	e7b43823          	sd	s11,-400(s0)
    c6a8:	f7543023          	sd	s5,-160(s0)
    c6ac:	f7443423          	sd	s4,-152(s0)
    c6b0:	f7e43823          	sd	t5,-144(s0)
    c6b4:	f6e43c23          	sd	a4,-136(s0)
    c6b8:	e9343023          	sd	s3,-384(s0)
    c6bc:	e9243423          	sd	s2,-376(s0)
    c6c0:	f8a43023          	sd	a0,-128(s0)
    c6c4:	e8943823          	sd	s1,-368(s0)
    c6c8:	ebd43023          	sd	t4,-352(s0)
    c6cc:	ebc43423          	sd	t3,-344(s0)
    c6d0:	ea743823          	sd	t2,-336(s0)
    c6d4:	ea643c23          	sd	t1,-328(s0)
    c6d8:	ec543023          	sd	t0,-320(s0)
    c6dc:	ed143423          	sd	a7,-312(s0)
    c6e0:	ed743c23          	sd	s7,-296(s0)
    c6e4:	eef43023          	sd	a5,-288(s0)
    c6e8:	00068603          	lb	a2,0(a3)
    c6ec:	00280503          	lb	a0,2(a6)
    c6f0:	eea43823          	sd	a0,-272(s0)
    c6f4:	00180683          	lb	a3,1(a6)
    c6f8:	f2d43c23          	sd	a3,-200(s0)
    c6fc:	00080703          	lb	a4,0(a6)
    c700:	f2e43823          	sd	a4,-208(s0)
    c704:	00380283          	lb	t0,3(a6)
    c708:	f2543423          	sd	t0,-216(s0)
    c70c:	00480e03          	lb	t3,4(a6)
    c710:	f3c43023          	sd	t3,-224(s0)
    c714:	00580e83          	lb	t4,5(a6)
    c718:	f1d43c23          	sd	t4,-232(s0)
    c71c:	00680f83          	lb	t6,6(a6)
    c720:	f1f43823          	sd	t6,-240(s0)
    c724:	00780483          	lb	s1,7(a6)
    c728:	f0943423          	sd	s1,-248(s0)
    c72c:	00880083          	lb	ra,8(a6)
    c730:	f0143023          	sd	ra,-256(s0)
    c734:	00980783          	lb	a5,9(a6)
    c738:	f4f43423          	sd	a5,-184(s0)
    c73c:	00a80f03          	lb	t5,10(a6)
    c740:	00b80d83          	lb	s11,11(a6)
    c744:	00c80883          	lb	a7,12(a6)
    c748:	00d80303          	lb	t1,13(a6)
    c74c:	ee643c23          	sd	t1,-264(s0)
    c750:	00e80383          	lb	t2,14(a6)
    c754:	ac743c23          	sd	t2,-1320(s0)
    c758:	00f80903          	lb	s2,15(a6)
    c75c:	af243023          	sd	s2,-1312(s0)
    c760:	01080983          	lb	s3,16(a6)
    c764:	af343423          	sd	s3,-1304(s0)
    c768:	01180a03          	lb	s4,17(a6)
    c76c:	01280a83          	lb	s5,18(a6)
    c770:	af543823          	sd	s5,-1296(s0)
    c774:	01380b03          	lb	s6,19(a6)
    c778:	01480583          	lb	a1,20(a6)
    c77c:	eeb43423          	sd	a1,-280(s0)
    c780:	01580b83          	lb	s7,21(a6)
    c784:	b1743023          	sd	s7,-1280(s0)
    c788:	01680c03          	lb	s8,22(a6)
    c78c:	b1843423          	sd	s8,-1272(s0)
    c790:	01780c83          	lb	s9,23(a6)
    c794:	af943c23          	sd	s9,-1288(s0)
    c798:	01880d03          	lb	s10,24(a6)
    c79c:	02a605b3          	mul	a1,a2,a0
    c7a0:	b3843503          	ld	a0,-1224(s0)
    c7a4:	00a58533          	add	a0,a1,a0
    c7a8:	b2a43c23          	sd	a0,-1224(s0)
    c7ac:	02d605b3          	mul	a1,a2,a3
    c7b0:	b5043503          	ld	a0,-1200(s0)
    c7b4:	00a58533          	add	a0,a1,a0
    c7b8:	b4a43823          	sd	a0,-1200(s0)
    c7bc:	02e605b3          	mul	a1,a2,a4
    c7c0:	b4843503          	ld	a0,-1208(s0)
    c7c4:	00a58533          	add	a0,a1,a0
    c7c8:	b4a43423          	sd	a0,-1208(s0)
    c7cc:	025605b3          	mul	a1,a2,t0
    c7d0:	b4043503          	ld	a0,-1216(s0)
    c7d4:	00a58533          	add	a0,a1,a0
    c7d8:	b4a43023          	sd	a0,-1216(s0)
    c7dc:	03c605b3          	mul	a1,a2,t3
    c7e0:	b3043503          	ld	a0,-1232(s0)
    c7e4:	00a58533          	add	a0,a1,a0
    c7e8:	b2a43823          	sd	a0,-1232(s0)
    c7ec:	03d605b3          	mul	a1,a2,t4
    c7f0:	b2843503          	ld	a0,-1240(s0)
    c7f4:	00a58533          	add	a0,a1,a0
    c7f8:	b2a43423          	sd	a0,-1240(s0)
    c7fc:	03f605b3          	mul	a1,a2,t6
    c800:	b2043503          	ld	a0,-1248(s0)
    c804:	00a58533          	add	a0,a1,a0
    c808:	b2a43023          	sd	a0,-1248(s0)
    c80c:	029605b3          	mul	a1,a2,s1
    c810:	b1843503          	ld	a0,-1256(s0)
    c814:	00a58533          	add	a0,a1,a0
    c818:	b0a43c23          	sd	a0,-1256(s0)
    c81c:	021605b3          	mul	a1,a2,ra
    c820:	b5843503          	ld	a0,-1192(s0)
    c824:	00a58533          	add	a0,a1,a0
    c828:	b4a43c23          	sd	a0,-1192(s0)
    c82c:	02f605b3          	mul	a1,a2,a5
    c830:	b1043503          	ld	a0,-1264(s0)
    c834:	00a58533          	add	a0,a1,a0
    c838:	b0a43823          	sd	a0,-1264(s0)
    c83c:	abe43023          	sd	t5,-1376(s0)
    c840:	03e605b3          	mul	a1,a2,t5
    c844:	b6043503          	ld	a0,-1184(s0)
    c848:	00a58533          	add	a0,a1,a0
    c84c:	b6a43023          	sd	a0,-1184(s0)
    c850:	000d8793          	mv	a5,s11
    c854:	a9b43c23          	sd	s11,-1384(s0)
    c858:	03b605b3          	mul	a1,a2,s11
    c85c:	b6843503          	ld	a0,-1176(s0)
    c860:	00a58533          	add	a0,a1,a0
    c864:	b6a43423          	sd	a0,-1176(s0)
    c868:	031605b3          	mul	a1,a2,a7
    c86c:	b7843503          	ld	a0,-1160(s0)
    c870:	00a58533          	add	a0,a1,a0
    c874:	b6a43c23          	sd	a0,-1160(s0)
    c878:	026605b3          	mul	a1,a2,t1
    c87c:	b8043503          	ld	a0,-1152(s0)
    c880:	00a58533          	add	a0,a1,a0
    c884:	b8a43023          	sd	a0,-1152(s0)
    c888:	027605b3          	mul	a1,a2,t2
    c88c:	b8843503          	ld	a0,-1144(s0)
    c890:	00a58533          	add	a0,a1,a0
    c894:	b8a43423          	sd	a0,-1144(s0)
    c898:	032605b3          	mul	a1,a2,s2
    c89c:	b9043503          	ld	a0,-1136(s0)
    c8a0:	00a58533          	add	a0,a1,a0
    c8a4:	b8a43823          	sd	a0,-1136(s0)
    c8a8:	033605b3          	mul	a1,a2,s3
    c8ac:	b9843503          	ld	a0,-1128(s0)
    c8b0:	00a58533          	add	a0,a1,a0
    c8b4:	b8a43c23          	sd	a0,-1128(s0)
    c8b8:	034605b3          	mul	a1,a2,s4
    c8bc:	000a0913          	mv	s2,s4
    c8c0:	ba043503          	ld	a0,-1120(s0)
    c8c4:	00a58533          	add	a0,a1,a0
    c8c8:	baa43023          	sd	a0,-1120(s0)
    c8cc:	035605b3          	mul	a1,a2,s5
    c8d0:	ba843503          	ld	a0,-1112(s0)
    c8d4:	00a58533          	add	a0,a1,a0
    c8d8:	baa43423          	sd	a0,-1112(s0)
    c8dc:	036605b3          	mul	a1,a2,s6
    c8e0:	000b0e93          	mv	t4,s6
    c8e4:	ad643023          	sd	s6,-1344(s0)
    c8e8:	bb043503          	ld	a0,-1104(s0)
    c8ec:	00a58533          	add	a0,a1,a0
    c8f0:	baa43823          	sd	a0,-1104(s0)
    c8f4:	ee843e03          	ld	t3,-280(s0)
    c8f8:	03c605b3          	mul	a1,a2,t3
    c8fc:	bb843503          	ld	a0,-1096(s0)
    c900:	00a58533          	add	a0,a1,a0
    c904:	baa43c23          	sd	a0,-1096(s0)
    c908:	037605b3          	mul	a1,a2,s7
    c90c:	bc043503          	ld	a0,-1088(s0)
    c910:	00a58533          	add	a0,a1,a0
    c914:	bca43023          	sd	a0,-1088(s0)
    c918:	038605b3          	mul	a1,a2,s8
    c91c:	bc843503          	ld	a0,-1080(s0)
    c920:	00a58533          	add	a0,a1,a0
    c924:	bca43423          	sd	a0,-1080(s0)
    c928:	039605b3          	mul	a1,a2,s9
    c92c:	bd043503          	ld	a0,-1072(s0)
    c930:	00a58533          	add	a0,a1,a0
    c934:	bca43823          	sd	a0,-1072(s0)
    c938:	01980583          	lb	a1,25(a6)
    c93c:	f4b43023          	sd	a1,-192(s0)
    c940:	03a606b3          	mul	a3,a2,s10
    c944:	000d0993          	mv	s3,s10
    c948:	aba43c23          	sd	s10,-1352(s0)
    c94c:	bd843503          	ld	a0,-1064(s0)
    c950:	00a68533          	add	a0,a3,a0
    c954:	bca43c23          	sd	a0,-1064(s0)
    c958:	01a80a03          	lb	s4,26(a6)
    c95c:	02b606b3          	mul	a3,a2,a1
    c960:	be043503          	ld	a0,-1056(s0)
    c964:	00a68533          	add	a0,a3,a0
    c968:	bea43023          	sd	a0,-1056(s0)
    c96c:	01b80583          	lb	a1,27(a6)
    c970:	acb43823          	sd	a1,-1328(s0)
    c974:	034606b3          	mul	a3,a2,s4
    c978:	ab443823          	sd	s4,-1360(s0)
    c97c:	be843503          	ld	a0,-1048(s0)
    c980:	00a68533          	add	a0,a3,a0
    c984:	bea43423          	sd	a0,-1048(s0)
    c988:	01c80083          	lb	ra,28(a6)
    c98c:	02b606b3          	mul	a3,a2,a1
    c990:	bf043503          	ld	a0,-1040(s0)
    c994:	00a68533          	add	a0,a3,a0
    c998:	bea43823          	sd	a0,-1040(s0)
    c99c:	01d80583          	lb	a1,29(a6)
    c9a0:	acb43423          	sd	a1,-1336(s0)
    c9a4:	021606b3          	mul	a3,a2,ra
    c9a8:	aa143423          	sd	ra,-1368(s0)
    c9ac:	bf843503          	ld	a0,-1032(s0)
    c9b0:	00a68533          	add	a0,a3,a0
    c9b4:	bea43c23          	sd	a0,-1032(s0)
    c9b8:	01e80703          	lb	a4,30(a6)
    c9bc:	f4e43823          	sd	a4,-176(s0)
    c9c0:	02b606b3          	mul	a3,a2,a1
    c9c4:	c0043503          	ld	a0,-1024(s0)
    c9c8:	00a68533          	add	a0,a3,a0
    c9cc:	c0a43023          	sd	a0,-1024(s0)
    c9d0:	01f80503          	lb	a0,31(a6)
    c9d4:	f4a43c23          	sd	a0,-168(s0)
    c9d8:	f8843683          	ld	a3,-120(s0)
    c9dc:	0c068683          	lb	a3,192(a3)
    c9e0:	02e604b3          	mul	s1,a2,a4
    c9e4:	c0843f83          	ld	t6,-1016(s0)
    c9e8:	01f48fb3          	add	t6,s1,t6
    c9ec:	c1f43423          	sd	t6,-1016(s0)
    c9f0:	02a60633          	mul	a2,a2,a0
    c9f4:	c1043f83          	ld	t6,-1008(s0)
    c9f8:	01f60fb3          	add	t6,a2,t6
    c9fc:	c1f43823          	sd	t6,-1008(s0)
    ca00:	ef043d83          	ld	s11,-272(s0)
    ca04:	03b68633          	mul	a2,a3,s11
    ca08:	c2043f83          	ld	t6,-992(s0)
    ca0c:	01f60fb3          	add	t6,a2,t6
    ca10:	c3f43023          	sd	t6,-992(s0)
    ca14:	f3843583          	ld	a1,-200(s0)
    ca18:	02b68633          	mul	a2,a3,a1
    ca1c:	c2843f83          	ld	t6,-984(s0)
    ca20:	01f60fb3          	add	t6,a2,t6
    ca24:	c3f43423          	sd	t6,-984(s0)
    ca28:	f3043283          	ld	t0,-208(s0)
    ca2c:	02568633          	mul	a2,a3,t0
    ca30:	c3043f83          	ld	t6,-976(s0)
    ca34:	01f60fb3          	add	t6,a2,t6
    ca38:	c3f43823          	sd	t6,-976(s0)
    ca3c:	f2843503          	ld	a0,-216(s0)
    ca40:	02a68633          	mul	a2,a3,a0
    ca44:	c1843f83          	ld	t6,-1000(s0)
    ca48:	01f60fb3          	add	t6,a2,t6
    ca4c:	c1f43c23          	sd	t6,-1000(s0)
    ca50:	f2043b03          	ld	s6,-224(s0)
    ca54:	03668633          	mul	a2,a3,s6
    ca58:	c3843f83          	ld	t6,-968(s0)
    ca5c:	01f60fb3          	add	t6,a2,t6
    ca60:	c3f43c23          	sd	t6,-968(s0)
    ca64:	f1843c03          	ld	s8,-232(s0)
    ca68:	03868633          	mul	a2,a3,s8
    ca6c:	c4043f83          	ld	t6,-960(s0)
    ca70:	01f60fb3          	add	t6,a2,t6
    ca74:	c5f43023          	sd	t6,-960(s0)
    ca78:	f1043d03          	ld	s10,-240(s0)
    ca7c:	03a68633          	mul	a2,a3,s10
    ca80:	c4843f83          	ld	t6,-952(s0)
    ca84:	01f60fb3          	add	t6,a2,t6
    ca88:	c5f43423          	sd	t6,-952(s0)
    ca8c:	f0843703          	ld	a4,-248(s0)
    ca90:	02e68633          	mul	a2,a3,a4
    ca94:	c5043f83          	ld	t6,-944(s0)
    ca98:	01f60fb3          	add	t6,a2,t6
    ca9c:	c5f43823          	sd	t6,-944(s0)
    caa0:	f0043303          	ld	t1,-256(s0)
    caa4:	02668633          	mul	a2,a3,t1
    caa8:	c5843f83          	ld	t6,-936(s0)
    caac:	01f60fb3          	add	t6,a2,t6
    cab0:	c5f43c23          	sd	t6,-936(s0)
    cab4:	f4843603          	ld	a2,-184(s0)
    cab8:	02c68633          	mul	a2,a3,a2
    cabc:	c6043f83          	ld	t6,-928(s0)
    cac0:	01f60fb3          	add	t6,a2,t6
    cac4:	c7f43023          	sd	t6,-928(s0)
    cac8:	03e68633          	mul	a2,a3,t5
    cacc:	c6843f83          	ld	t6,-920(s0)
    cad0:	01f60fb3          	add	t6,a2,t6
    cad4:	c7f43423          	sd	t6,-920(s0)
    cad8:	02f68633          	mul	a2,a3,a5
    cadc:	c7043f83          	ld	t6,-912(s0)
    cae0:	01f60fb3          	add	t6,a2,t6
    cae4:	c7f43823          	sd	t6,-912(s0)
    cae8:	a9143823          	sd	a7,-1392(s0)
    caec:	03168633          	mul	a2,a3,a7
    caf0:	c7843f83          	ld	t6,-904(s0)
    caf4:	01f60fb3          	add	t6,a2,t6
    caf8:	c7f43c23          	sd	t6,-904(s0)
    cafc:	ef843383          	ld	t2,-264(s0)
    cb00:	02768633          	mul	a2,a3,t2
    cb04:	c8043f83          	ld	t6,-896(s0)
    cb08:	01f60fb3          	add	t6,a2,t6
    cb0c:	c9f43023          	sd	t6,-896(s0)
    cb10:	ad843a83          	ld	s5,-1320(s0)
    cb14:	03568633          	mul	a2,a3,s5
    cb18:	c8843f83          	ld	t6,-888(s0)
    cb1c:	01f60fb3          	add	t6,a2,t6
    cb20:	c9f43423          	sd	t6,-888(s0)
    cb24:	ae043b83          	ld	s7,-1312(s0)
    cb28:	03768633          	mul	a2,a3,s7
    cb2c:	c9043f83          	ld	t6,-880(s0)
    cb30:	01f60fb3          	add	t6,a2,t6
    cb34:	c9f43823          	sd	t6,-880(s0)
    cb38:	ae843c83          	ld	s9,-1304(s0)
    cb3c:	03968633          	mul	a2,a3,s9
    cb40:	c9843f83          	ld	t6,-872(s0)
    cb44:	01f60fb3          	add	t6,a2,t6
    cb48:	c9f43c23          	sd	t6,-872(s0)
    cb4c:	03268633          	mul	a2,a3,s2
    cb50:	ca043f83          	ld	t6,-864(s0)
    cb54:	01f60fb3          	add	t6,a2,t6
    cb58:	cbf43023          	sd	t6,-864(s0)
    cb5c:	af043783          	ld	a5,-1296(s0)
    cb60:	02f68633          	mul	a2,a3,a5
    cb64:	ca843f83          	ld	t6,-856(s0)
    cb68:	01f60fb3          	add	t6,a2,t6
    cb6c:	cbf43423          	sd	t6,-856(s0)
    cb70:	03d68633          	mul	a2,a3,t4
    cb74:	cb043f83          	ld	t6,-848(s0)
    cb78:	01f60fb3          	add	t6,a2,t6
    cb7c:	cbf43823          	sd	t6,-848(s0)
    cb80:	03c68633          	mul	a2,a3,t3
    cb84:	cb843f83          	ld	t6,-840(s0)
    cb88:	01f60fb3          	add	t6,a2,t6
    cb8c:	cbf43c23          	sd	t6,-840(s0)
    cb90:	b0043e83          	ld	t4,-1280(s0)
    cb94:	03d68633          	mul	a2,a3,t4
    cb98:	cc043f83          	ld	t6,-832(s0)
    cb9c:	01f60fb3          	add	t6,a2,t6
    cba0:	cdf43023          	sd	t6,-832(s0)
    cba4:	b0843e03          	ld	t3,-1272(s0)
    cba8:	03c68633          	mul	a2,a3,t3
    cbac:	cc843f83          	ld	t6,-824(s0)
    cbb0:	01f60fb3          	add	t6,a2,t6
    cbb4:	cdf43423          	sd	t6,-824(s0)
    cbb8:	af843f03          	ld	t5,-1288(s0)
    cbbc:	03e68633          	mul	a2,a3,t5
    cbc0:	cd043f83          	ld	t6,-816(s0)
    cbc4:	01f60fb3          	add	t6,a2,t6
    cbc8:	cdf43823          	sd	t6,-816(s0)
    cbcc:	03368633          	mul	a2,a3,s3
    cbd0:	cd843f83          	ld	t6,-808(s0)
    cbd4:	01f60fb3          	add	t6,a2,t6
    cbd8:	cdf43c23          	sd	t6,-808(s0)
    cbdc:	f4043603          	ld	a2,-192(s0)
    cbe0:	02c68633          	mul	a2,a3,a2
    cbe4:	ce043f83          	ld	t6,-800(s0)
    cbe8:	01f60fb3          	add	t6,a2,t6
    cbec:	cff43023          	sd	t6,-800(s0)
    cbf0:	03468633          	mul	a2,a3,s4
    cbf4:	ce843f83          	ld	t6,-792(s0)
    cbf8:	01f60fb3          	add	t6,a2,t6
    cbfc:	cff43423          	sd	t6,-792(s0)
    cc00:	ad043a03          	ld	s4,-1328(s0)
    cc04:	03468633          	mul	a2,a3,s4
    cc08:	cf043f83          	ld	t6,-784(s0)
    cc0c:	01f60fb3          	add	t6,a2,t6
    cc10:	cff43823          	sd	t6,-784(s0)
    cc14:	02168633          	mul	a2,a3,ra
    cc18:	cf843f83          	ld	t6,-776(s0)
    cc1c:	01f60fb3          	add	t6,a2,t6
    cc20:	cff43c23          	sd	t6,-776(s0)
    cc24:	ac843083          	ld	ra,-1336(s0)
    cc28:	02168633          	mul	a2,a3,ra
    cc2c:	d0043f83          	ld	t6,-768(s0)
    cc30:	01f60fb3          	add	t6,a2,t6
    cc34:	d1f43023          	sd	t6,-768(s0)
    cc38:	f8843603          	ld	a2,-120(s0)
    cc3c:	18060603          	lb	a2,384(a2)
    cc40:	f5043f83          	ld	t6,-176(s0)
    cc44:	03f684b3          	mul	s1,a3,t6
    cc48:	d0843f83          	ld	t6,-760(s0)
    cc4c:	01f48fb3          	add	t6,s1,t6
    cc50:	d1f43423          	sd	t6,-760(s0)
    cc54:	f5843f83          	ld	t6,-168(s0)
    cc58:	03f686b3          	mul	a3,a3,t6
    cc5c:	d1043f83          	ld	t6,-752(s0)
    cc60:	01f68fb3          	add	t6,a3,t6
    cc64:	d1f43823          	sd	t6,-752(s0)
    cc68:	03b606b3          	mul	a3,a2,s11
    cc6c:	d2043f83          	ld	t6,-736(s0)
    cc70:	01f68fb3          	add	t6,a3,t6
    cc74:	d3f43023          	sd	t6,-736(s0)
    cc78:	02b606b3          	mul	a3,a2,a1
    cc7c:	d2843f83          	ld	t6,-728(s0)
    cc80:	01f68fb3          	add	t6,a3,t6
    cc84:	d3f43423          	sd	t6,-728(s0)
    cc88:	025606b3          	mul	a3,a2,t0
    cc8c:	d3043f83          	ld	t6,-720(s0)
    cc90:	01f68fb3          	add	t6,a3,t6
    cc94:	d3f43823          	sd	t6,-720(s0)
    cc98:	02a606b3          	mul	a3,a2,a0
    cc9c:	d1843f83          	ld	t6,-744(s0)
    cca0:	01f68fb3          	add	t6,a3,t6
    cca4:	d1f43c23          	sd	t6,-744(s0)
    cca8:	036606b3          	mul	a3,a2,s6
    ccac:	d3843f83          	ld	t6,-712(s0)
    ccb0:	01f68fb3          	add	t6,a3,t6
    ccb4:	d3f43c23          	sd	t6,-712(s0)
    ccb8:	038606b3          	mul	a3,a2,s8
    ccbc:	d4043f83          	ld	t6,-704(s0)
    ccc0:	01f68fb3          	add	t6,a3,t6
    ccc4:	d5f43023          	sd	t6,-704(s0)
    ccc8:	03a606b3          	mul	a3,a2,s10
    cccc:	d4843f83          	ld	t6,-696(s0)
    ccd0:	01f68fb3          	add	t6,a3,t6
    ccd4:	d5f43423          	sd	t6,-696(s0)
    ccd8:	02e606b3          	mul	a3,a2,a4
    ccdc:	d5043f83          	ld	t6,-688(s0)
    cce0:	01f68fb3          	add	t6,a3,t6
    cce4:	d5f43823          	sd	t6,-688(s0)
    cce8:	026606b3          	mul	a3,a2,t1
    ccec:	d5843f83          	ld	t6,-680(s0)
    ccf0:	01f68fb3          	add	t6,a3,t6
    ccf4:	d5f43c23          	sd	t6,-680(s0)
    ccf8:	f4843d83          	ld	s11,-184(s0)
    ccfc:	03b606b3          	mul	a3,a2,s11
    cd00:	d6043f83          	ld	t6,-672(s0)
    cd04:	01f68fb3          	add	t6,a3,t6
    cd08:	d7f43023          	sd	t6,-672(s0)
    cd0c:	aa043703          	ld	a4,-1376(s0)
    cd10:	02e606b3          	mul	a3,a2,a4
    cd14:	d6843f83          	ld	t6,-664(s0)
    cd18:	01f68fb3          	add	t6,a3,t6
    cd1c:	d7f43423          	sd	t6,-664(s0)
    cd20:	a9843583          	ld	a1,-1384(s0)
    cd24:	02b606b3          	mul	a3,a2,a1
    cd28:	d7043f83          	ld	t6,-656(s0)
    cd2c:	01f68fb3          	add	t6,a3,t6
    cd30:	d7f43823          	sd	t6,-656(s0)
    cd34:	031606b3          	mul	a3,a2,a7
    cd38:	d7843f83          	ld	t6,-648(s0)
    cd3c:	01f68fb3          	add	t6,a3,t6
    cd40:	d7f43c23          	sd	t6,-648(s0)
    cd44:	027606b3          	mul	a3,a2,t2
    cd48:	d8043f83          	ld	t6,-640(s0)
    cd4c:	01f68fb3          	add	t6,a3,t6
    cd50:	d9f43023          	sd	t6,-640(s0)
    cd54:	035606b3          	mul	a3,a2,s5
    cd58:	d8843f83          	ld	t6,-632(s0)
    cd5c:	01f68fb3          	add	t6,a3,t6
    cd60:	d9f43423          	sd	t6,-632(s0)
    cd64:	037606b3          	mul	a3,a2,s7
    cd68:	d9043f83          	ld	t6,-624(s0)
    cd6c:	01f68fb3          	add	t6,a3,t6
    cd70:	d9f43823          	sd	t6,-624(s0)
    cd74:	039606b3          	mul	a3,a2,s9
    cd78:	000c8993          	mv	s3,s9
    cd7c:	d9843f83          	ld	t6,-616(s0)
    cd80:	01f68fb3          	add	t6,a3,t6
    cd84:	d9f43c23          	sd	t6,-616(s0)
    cd88:	00090c93          	mv	s9,s2
    cd8c:	032606b3          	mul	a3,a2,s2
    cd90:	da043f83          	ld	t6,-608(s0)
    cd94:	01f68fb3          	add	t6,a3,t6
    cd98:	dbf43023          	sd	t6,-608(s0)
    cd9c:	02f606b3          	mul	a3,a2,a5
    cda0:	00078293          	mv	t0,a5
    cda4:	da843f83          	ld	t6,-600(s0)
    cda8:	01f68fb3          	add	t6,a3,t6
    cdac:	dbf43423          	sd	t6,-600(s0)
    cdb0:	ac043783          	ld	a5,-1344(s0)
    cdb4:	02f606b3          	mul	a3,a2,a5
    cdb8:	db043f83          	ld	t6,-592(s0)
    cdbc:	01f68fb3          	add	t6,a3,t6
    cdc0:	dbf43823          	sd	t6,-592(s0)
    cdc4:	ee843503          	ld	a0,-280(s0)
    cdc8:	02a606b3          	mul	a3,a2,a0
    cdcc:	db843f83          	ld	t6,-584(s0)
    cdd0:	01f68fb3          	add	t6,a3,t6
    cdd4:	dbf43c23          	sd	t6,-584(s0)
    cdd8:	000e8893          	mv	a7,t4
    cddc:	03d606b3          	mul	a3,a2,t4
    cde0:	dc043f83          	ld	t6,-576(s0)
    cde4:	01f68fb3          	add	t6,a3,t6
    cde8:	ddf43023          	sd	t6,-576(s0)
    cdec:	000e0393          	mv	t2,t3
    cdf0:	03c606b3          	mul	a3,a2,t3
    cdf4:	dc843f83          	ld	t6,-568(s0)
    cdf8:	01f68fb3          	add	t6,a3,t6
    cdfc:	ddf43423          	sd	t6,-568(s0)
    ce00:	000f0b13          	mv	s6,t5
    ce04:	03e606b3          	mul	a3,a2,t5
    ce08:	dd043f83          	ld	t6,-560(s0)
    ce0c:	01f68fb3          	add	t6,a3,t6
    ce10:	ddf43823          	sd	t6,-560(s0)
    ce14:	ab843c03          	ld	s8,-1352(s0)
    ce18:	038606b3          	mul	a3,a2,s8
    ce1c:	dd843f83          	ld	t6,-552(s0)
    ce20:	01f68fb3          	add	t6,a3,t6
    ce24:	ddf43c23          	sd	t6,-552(s0)
    ce28:	f4043303          	ld	t1,-192(s0)
    ce2c:	026606b3          	mul	a3,a2,t1
    ce30:	de043f83          	ld	t6,-544(s0)
    ce34:	01f68fb3          	add	t6,a3,t6
    ce38:	dff43023          	sd	t6,-544(s0)
    ce3c:	ab043d03          	ld	s10,-1360(s0)
    ce40:	03a606b3          	mul	a3,a2,s10
    ce44:	de843f83          	ld	t6,-536(s0)
    ce48:	01f68fb3          	add	t6,a3,t6
    ce4c:	dff43423          	sd	t6,-536(s0)
    ce50:	034606b3          	mul	a3,a2,s4
    ce54:	b7043f83          	ld	t6,-1168(s0)
    ce58:	01f68fb3          	add	t6,a3,t6
    ce5c:	b7f43823          	sd	t6,-1168(s0)
    ce60:	aa843e83          	ld	t4,-1368(s0)
    ce64:	03d606b3          	mul	a3,a2,t4
    ce68:	df043f83          	ld	t6,-528(s0)
    ce6c:	01f68fb3          	add	t6,a3,t6
    ce70:	dff43823          	sd	t6,-528(s0)
    ce74:	021606b3          	mul	a3,a2,ra
    ce78:	df843f83          	ld	t6,-520(s0)
    ce7c:	01f68fb3          	add	t6,a3,t6
    ce80:	dff43c23          	sd	t6,-520(s0)
    ce84:	f8843683          	ld	a3,-120(s0)
    ce88:	24068483          	lb	s1,576(a3)
    ce8c:	f5043903          	ld	s2,-176(s0)
    ce90:	032606b3          	mul	a3,a2,s2
    ce94:	e0043f83          	ld	t6,-512(s0)
    ce98:	01f68fb3          	add	t6,a3,t6
    ce9c:	e1f43023          	sd	t6,-512(s0)
    cea0:	f5843f83          	ld	t6,-168(s0)
    cea4:	03f60633          	mul	a2,a2,t6
    cea8:	e0843683          	ld	a3,-504(s0)
    ceac:	00d606b3          	add	a3,a2,a3
    ceb0:	e0d43423          	sd	a3,-504(s0)
    ceb4:	03f48633          	mul	a2,s1,t6
    ceb8:	f4c43c23          	sd	a2,-168(s0)
    cebc:	03248633          	mul	a2,s1,s2
    cec0:	f4c43823          	sd	a2,-176(s0)
    cec4:	02148633          	mul	a2,s1,ra
    cec8:	acc43423          	sd	a2,-1336(s0)
    cecc:	03d48633          	mul	a2,s1,t4
    ced0:	aac43423          	sd	a2,-1368(s0)
    ced4:	03448633          	mul	a2,s1,s4
    ced8:	acc43823          	sd	a2,-1328(s0)
    cedc:	03a48633          	mul	a2,s1,s10
    cee0:	aac43823          	sd	a2,-1360(s0)
    cee4:	02648633          	mul	a2,s1,t1
    cee8:	f4c43023          	sd	a2,-192(s0)
    ceec:	038486b3          	mul	a3,s1,s8
    cef0:	03e48633          	mul	a2,s1,t5
    cef4:	03c483b3          	mul	t2,s1,t3
    cef8:	031488b3          	mul	a7,s1,a7
    cefc:	02a48d33          	mul	s10,s1,a0
    cf00:	02f487b3          	mul	a5,s1,a5
    cf04:	02548333          	mul	t1,s1,t0
    cf08:	03948cb3          	mul	s9,s1,s9
    cf0c:	03348c33          	mul	s8,s1,s3
    cf10:	03748bb3          	mul	s7,s1,s7
    cf14:	03548b33          	mul	s6,s1,s5
    cf18:	ef843503          	ld	a0,-264(s0)
    cf1c:	02a48ab3          	mul	s5,s1,a0
    cf20:	a9043503          	ld	a0,-1392(s0)
    cf24:	02a48a33          	mul	s4,s1,a0
    cf28:	02b489b3          	mul	s3,s1,a1
    cf2c:	02e48933          	mul	s2,s1,a4
    cf30:	03b48db3          	mul	s11,s1,s11
    cf34:	f0043503          	ld	a0,-256(s0)
    cf38:	02a480b3          	mul	ra,s1,a0
    cf3c:	f0843503          	ld	a0,-248(s0)
    cf40:	02a48733          	mul	a4,s1,a0
    cf44:	f1043503          	ld	a0,-240(s0)
    cf48:	02a485b3          	mul	a1,s1,a0
    cf4c:	f1843503          	ld	a0,-232(s0)
    cf50:	02a48533          	mul	a0,s1,a0
    cf54:	f2043283          	ld	t0,-224(s0)
    cf58:	025482b3          	mul	t0,s1,t0
    cf5c:	f2843e03          	ld	t3,-216(s0)
    cf60:	03c48e33          	mul	t3,s1,t3
    cf64:	f3043e83          	ld	t4,-208(s0)
    cf68:	03d48eb3          	mul	t4,s1,t4
    cf6c:	f3843f03          	ld	t5,-200(s0)
    cf70:	03e48fb3          	mul	t6,s1,t5
    cf74:	ef043f03          	ld	t5,-272(s0)
    cf78:	03e484b3          	mul	s1,s1,t5
    cf7c:	e1843f03          	ld	t5,-488(s0)
    cf80:	01e48f33          	add	t5,s1,t5
    cf84:	e1e43c23          	sd	t5,-488(s0)
    cf88:	e9043483          	ld	s1,-368(s0)
    cf8c:	e2043f03          	ld	t5,-480(s0)
    cf90:	01ef8f33          	add	t5,t6,t5
    cf94:	e3e43023          	sd	t5,-480(s0)
    cf98:	e2843f03          	ld	t5,-472(s0)
    cf9c:	01ee8f33          	add	t5,t4,t5
    cfa0:	e3e43423          	sd	t5,-472(s0)
    cfa4:	ea043e83          	ld	t4,-352(s0)
    cfa8:	e1043f03          	ld	t5,-496(s0)
    cfac:	01ee0f33          	add	t5,t3,t5
    cfb0:	e1e43823          	sd	t5,-496(s0)
    cfb4:	ea843e03          	ld	t3,-344(s0)
    cfb8:	e3043f03          	ld	t5,-464(s0)
    cfbc:	01e28f33          	add	t5,t0,t5
    cfc0:	e3e43823          	sd	t5,-464(s0)
    cfc4:	ec043283          	ld	t0,-320(s0)
    cfc8:	e3843f03          	ld	t5,-456(s0)
    cfcc:	01e50f33          	add	t5,a0,t5
    cfd0:	e3e43c23          	sd	t5,-456(s0)
    cfd4:	e4043503          	ld	a0,-448(s0)
    cfd8:	00a58533          	add	a0,a1,a0
    cfdc:	e4a43023          	sd	a0,-448(s0)
    cfe0:	e4843503          	ld	a0,-440(s0)
    cfe4:	00a70533          	add	a0,a4,a0
    cfe8:	e4a43423          	sd	a0,-440(s0)
    cfec:	a8843583          	ld	a1,-1400(s0)
    cff0:	e5043503          	ld	a0,-432(s0)
    cff4:	00a08533          	add	a0,ra,a0
    cff8:	e4a43823          	sd	a0,-432(s0)
    cffc:	e6843083          	ld	ra,-408(s0)
    d000:	e5843503          	ld	a0,-424(s0)
    d004:	00ad8533          	add	a0,s11,a0
    d008:	e4a43c23          	sd	a0,-424(s0)
    d00c:	e7043d83          	ld	s11,-400(s0)
    d010:	e6043503          	ld	a0,-416(s0)
    d014:	00a90533          	add	a0,s2,a0
    d018:	e6a43023          	sd	a0,-416(s0)
    d01c:	e8843903          	ld	s2,-376(s0)
    d020:	001980b3          	add	ra,s3,ra
    d024:	e8043983          	ld	s3,-384(s0)
    d028:	01ba0db3          	add	s11,s4,s11
    d02c:	e7843503          	ld	a0,-392(s0)
    d030:	00aa8533          	add	a0,s5,a0
    d034:	e6a43c23          	sd	a0,-392(s0)
    d038:	f6043503          	ld	a0,-160(s0)
    d03c:	00ab0533          	add	a0,s6,a0
    d040:	f6a43023          	sd	a0,-160(s0)
    d044:	f6043a83          	ld	s5,-160(s0)
    d048:	f6843503          	ld	a0,-152(s0)
    d04c:	00ab8533          	add	a0,s7,a0
    d050:	f6a43423          	sd	a0,-152(s0)
    d054:	f6843a03          	ld	s4,-152(s0)
    d058:	f7043503          	ld	a0,-144(s0)
    d05c:	00ac0533          	add	a0,s8,a0
    d060:	f6a43823          	sd	a0,-144(s0)
    d064:	f7043f03          	ld	t5,-144(s0)
    d068:	f7843503          	ld	a0,-136(s0)
    d06c:	00ac8533          	add	a0,s9,a0
    d070:	e9843c83          	ld	s9,-360(s0)
    d074:	f6a43c23          	sd	a0,-136(s0)
    d078:	f7843703          	ld	a4,-136(s0)
    d07c:	013309b3          	add	s3,t1,s3
    d080:	eb843303          	ld	t1,-328(s0)
    d084:	01278933          	add	s2,a5,s2
    d088:	ee043783          	ld	a5,-288(s0)
    d08c:	f8043503          	ld	a0,-128(s0)
    d090:	00ad0533          	add	a0,s10,a0
    d094:	f8a43023          	sd	a0,-128(s0)
    d098:	f8043503          	ld	a0,-128(s0)
    d09c:	009884b3          	add	s1,a7,s1
    d0a0:	ec843883          	ld	a7,-312(s0)
    d0a4:	01938cb3          	add	s9,t2,s9
    d0a8:	eb043383          	ld	t2,-336(s0)
    d0ac:	01d60eb3          	add	t4,a2,t4
    d0b0:	ed043603          	ld	a2,-304(s0)
    d0b4:	ed843b83          	ld	s7,-296(s0)
    d0b8:	01c68e33          	add	t3,a3,t3
    d0bc:	f8843683          	ld	a3,-120(s0)
    d0c0:	f4043f83          	ld	t6,-192(s0)
    d0c4:	007f83b3          	add	t2,t6,t2
    d0c8:	ab043f83          	ld	t6,-1360(s0)
    d0cc:	006f8333          	add	t1,t6,t1
    d0d0:	ad043f83          	ld	t6,-1328(s0)
    d0d4:	005f82b3          	add	t0,t6,t0
    d0d8:	aa843f83          	ld	t6,-1368(s0)
    d0dc:	011f88b3          	add	a7,t6,a7
    d0e0:	ac843f83          	ld	t6,-1336(s0)
    d0e4:	00cf8633          	add	a2,t6,a2
    d0e8:	f5043f83          	ld	t6,-176(s0)
    d0ec:	017f8bb3          	add	s7,t6,s7
    d0f0:	f5843f83          	ld	t6,-168(s0)
    d0f4:	00ff87b3          	add	a5,t6,a5
    d0f8:	00168693          	addi	a3,a3,1
    d0fc:	04080813          	addi	a6,a6,64
    d100:	d8b69a63          	bne	a3,a1,c694 <.LBB52_1545>
    d104:	b3843a83          	ld	s5,-1224(s0)
    d108:	b3043f83          	ld	t6,-1232(s0)
    d10c:	b2843c03          	ld	s8,-1240(s0)
    d110:	b2043803          	ld	a6,-1248(s0)
    d114:	b1843b03          	ld	s6,-1256(s0)
    d118:	b1043d03          	ld	s10,-1264(s0)
    d11c:	e9943c23          	sd	s9,-360(s0)
    d120:	ecc43823          	sd	a2,-304(s0)
    d124:	a7843603          	ld	a2,-1416(s0)
    d128:	00261613          	slli	a2,a2,0x2
    d12c:	00001537          	lui	a0,0x1
    d130:	40a40533          	sub	a0,s0,a0
    d134:	b8053503          	ld	a0,-1152(a0) # b80 <.LBB52_3+0x99c>
    d138:	00c50533          	add	a0,a0,a2
    d13c:	000015b7          	lui	a1,0x1
    d140:	40b405b3          	sub	a1,s0,a1
    d144:	b385b583          	ld	a1,-1224(a1) # b38 <.LBB52_3+0x954>
    d148:	3005a583          	lw	a1,768(a1)
    d14c:	000016b7          	lui	a3,0x1
    d150:	40d406b3          	sub	a3,s0,a3
    d154:	b886b683          	ld	a3,-1144(a3) # b88 <.LBB52_3+0x9a4>
    d158:	00c68633          	add	a2,a3,a2
    d15c:	00c62683          	lw	a3,12(a2)
    d160:	00c52a03          	lw	s4,12(a0)
    d164:	01300713          	li	a4,19
    d168:	02e58f33          	mul	t5,a1,a4
    d16c:	00769693          	slli	a3,a3,0x7
    d170:	b1443423          	sd	s4,-1272(s0)
    d174:	b4043583          	ld	a1,-1216(s0)
    d178:	014585b3          	add	a1,a1,s4
    d17c:	b0d43023          	sd	a3,-1280(s0)
    d180:	00d585b3          	add	a1,a1,a3
    d184:	fff8e737          	lui	a4,0xfff8e
    d188:	40ef06bb          	subw	a3,t5,a4
    d18c:	40d585bb          	subw	a1,a1,a3
    d190:	400006b7          	lui	a3,0x40000
    d194:	a6b43423          	sd	a1,-1432(s0)
    d198:	0005d463          	bgez	a1,d1a0 <.LBB52_1548>
    d19c:	c00006b7          	lui	a3,0xc0000

000000000000d1a0 <.LBB52_1548>:
    d1a0:	a6d43023          	sd	a3,-1440(s0)
    d1a4:	00862583          	lw	a1,8(a2)
    d1a8:	00852683          	lw	a3,8(a0)
    d1ac:	00759a13          	slli	s4,a1,0x7
    d1b0:	aed43c23          	sd	a3,-1288(s0)
    d1b4:	00da85b3          	add	a1,s5,a3
    d1b8:	af443823          	sd	s4,-1296(s0)
    d1bc:	014585b3          	add	a1,a1,s4
    d1c0:	40ef06bb          	subw	a3,t5,a4
    d1c4:	40d585bb          	subw	a1,a1,a3
    d1c8:	400006b7          	lui	a3,0x40000
    d1cc:	a4b43c23          	sd	a1,-1448(s0)
    d1d0:	b4843a83          	ld	s5,-1208(s0)
    d1d4:	b5043c83          	ld	s9,-1200(s0)
    d1d8:	0005d463          	bgez	a1,d1e0 <.LBB52_1550>
    d1dc:	c00006b7          	lui	a3,0xc0000

000000000000d1e0 <.LBB52_1550>:
    d1e0:	a4d43823          	sd	a3,-1456(s0)
    d1e4:	00462583          	lw	a1,4(a2)
    d1e8:	00452683          	lw	a3,4(a0)
    d1ec:	00759a13          	slli	s4,a1,0x7
    d1f0:	aed43423          	sd	a3,-1304(s0)
    d1f4:	00dc85b3          	add	a1,s9,a3
    d1f8:	af443023          	sd	s4,-1312(s0)
    d1fc:	014585b3          	add	a1,a1,s4
    d200:	40ef06bb          	subw	a3,t5,a4
    d204:	40d585bb          	subw	a1,a1,a3
    d208:	400006b7          	lui	a3,0x40000
    d20c:	a4b43423          	sd	a1,-1464(s0)
    d210:	0005d463          	bgez	a1,d218 <.LBB52_1552>
    d214:	c00006b7          	lui	a3,0xc0000

000000000000d218 <.LBB52_1552>:
    d218:	a4d43023          	sd	a3,-1472(s0)
    d21c:	00062583          	lw	a1,0(a2)
    d220:	00052683          	lw	a3,0(a0)
    d224:	00759a13          	slli	s4,a1,0x7
    d228:	acd43c23          	sd	a3,-1320(s0)
    d22c:	00da85b3          	add	a1,s5,a3
    d230:	ad443823          	sd	s4,-1328(s0)
    d234:	014585b3          	add	a1,a1,s4
    d238:	40ef06bb          	subw	a3,t5,a4
    d23c:	40d585bb          	subw	a1,a1,a3
    d240:	400006b7          	lui	a3,0x40000
    d244:	a2b43c23          	sd	a1,-1480(s0)
    d248:	0005d463          	bgez	a1,d250 <.LBB52_1554>
    d24c:	c00006b7          	lui	a3,0xc0000

000000000000d250 <.LBB52_1554>:
    d250:	a2d43823          	sd	a3,-1488(s0)
    d254:	01062583          	lw	a1,16(a2)
    d258:	01052683          	lw	a3,16(a0)
    d25c:	00759a13          	slli	s4,a1,0x7
    d260:	acd43423          	sd	a3,-1336(s0)
    d264:	00df85b3          	add	a1,t6,a3
    d268:	ad443023          	sd	s4,-1344(s0)
    d26c:	014585b3          	add	a1,a1,s4
    d270:	40ef06bb          	subw	a3,t5,a4
    d274:	40d585bb          	subw	a1,a1,a3
    d278:	400006b7          	lui	a3,0x40000
    d27c:	a2b43423          	sd	a1,-1496(s0)
    d280:	0005d463          	bgez	a1,d288 <.LBB52_1556>
    d284:	c00006b7          	lui	a3,0xc0000

000000000000d288 <.LBB52_1556>:
    d288:	a2d43023          	sd	a3,-1504(s0)
    d28c:	01462583          	lw	a1,20(a2)
    d290:	01452683          	lw	a3,20(a0)
    d294:	00759a13          	slli	s4,a1,0x7
    d298:	aad43c23          	sd	a3,-1352(s0)
    d29c:	00dc05b3          	add	a1,s8,a3
    d2a0:	b3443423          	sd	s4,-1240(s0)
    d2a4:	014585b3          	add	a1,a1,s4
    d2a8:	40ef06bb          	subw	a3,t5,a4
    d2ac:	40d585bb          	subw	a1,a1,a3
    d2b0:	400006b7          	lui	a3,0x40000
    d2b4:	a0b43c23          	sd	a1,-1512(s0)
    d2b8:	0005d463          	bgez	a1,d2c0 <.LBB52_1558>
    d2bc:	c00006b7          	lui	a3,0xc0000

000000000000d2c0 <.LBB52_1558>:
    d2c0:	a0d43823          	sd	a3,-1520(s0)
    d2c4:	01862583          	lw	a1,24(a2)
    d2c8:	01852683          	lw	a3,24(a0)
    d2cc:	00759a13          	slli	s4,a1,0x7
    d2d0:	aad43823          	sd	a3,-1360(s0)
    d2d4:	00d805b3          	add	a1,a6,a3
    d2d8:	b3443023          	sd	s4,-1248(s0)
    d2dc:	014585b3          	add	a1,a1,s4
    d2e0:	40ef06bb          	subw	a3,t5,a4
    d2e4:	40d585bb          	subw	a1,a1,a3
    d2e8:	400006b7          	lui	a3,0x40000
    d2ec:	a0b43423          	sd	a1,-1528(s0)
    d2f0:	0005d463          	bgez	a1,d2f8 <.LBB52_1560>
    d2f4:	c00006b7          	lui	a3,0xc0000

000000000000d2f8 <.LBB52_1560>:
    d2f8:	a0d43023          	sd	a3,-1536(s0)
    d2fc:	ed143423          	sd	a7,-312(s0)
    d300:	01c62583          	lw	a1,28(a2)
    d304:	01c52683          	lw	a3,28(a0)
    d308:	00759893          	slli	a7,a1,0x7
    d30c:	aad43423          	sd	a3,-1368(s0)
    d310:	00db05b3          	add	a1,s6,a3
    d314:	b1143c23          	sd	a7,-1256(s0)
    d318:	011585b3          	add	a1,a1,a7
    d31c:	40ef06bb          	subw	a3,t5,a4
    d320:	40d585bb          	subw	a1,a1,a3
    d324:	400006b7          	lui	a3,0x40000
    d328:	9eb43c23          	sd	a1,-1544(s0)
    d32c:	b5843a83          	ld	s5,-1192(s0)
    d330:	0005d463          	bgez	a1,d338 <.LBB52_1562>
    d334:	c00006b7          	lui	a3,0xc0000

000000000000d338 <.LBB52_1562>:
    d338:	9ed43823          	sd	a3,-1552(s0)
    d33c:	e6143423          	sd	ra,-408(s0)
    d340:	e7b43823          	sd	s11,-400(s0)
    d344:	e9343023          	sd	s3,-384(s0)
    d348:	e9243423          	sd	s2,-376(s0)
    d34c:	e8943823          	sd	s1,-368(s0)
    d350:	ebd43023          	sd	t4,-352(s0)
    d354:	ebc43423          	sd	t3,-344(s0)
    d358:	ea743823          	sd	t2,-336(s0)
    d35c:	ea643c23          	sd	t1,-328(s0)
    d360:	ec543023          	sd	t0,-320(s0)
    d364:	ed743c23          	sd	s7,-296(s0)
    d368:	eef43023          	sd	a5,-288(s0)
    d36c:	02062583          	lw	a1,32(a2)
    d370:	02052683          	lw	a3,32(a0)
    d374:	00759793          	slli	a5,a1,0x7
    d378:	aad43023          	sd	a3,-1376(s0)
    d37c:	00da85b3          	add	a1,s5,a3
    d380:	a8f43c23          	sd	a5,-1384(s0)
    d384:	00f585b3          	add	a1,a1,a5
    d388:	fff8e8b7          	lui	a7,0xfff8e
    d38c:	40ef06bb          	subw	a3,t5,a4
    d390:	40d585bb          	subw	a1,a1,a3
    d394:	400006b7          	lui	a3,0x40000
    d398:	9eb43423          	sd	a1,-1560(s0)
    d39c:	0005d463          	bgez	a1,d3a4 <.LBB52_1564>
    d3a0:	c00006b7          	lui	a3,0xc0000

000000000000d3a4 <.LBB52_1564>:
    d3a4:	9ed43023          	sd	a3,-1568(s0)
    d3a8:	07c52583          	lw	a1,124(a0)
    d3ac:	f8b43423          	sd	a1,-120(s0)
    d3b0:	07852583          	lw	a1,120(a0)
    d3b4:	f4b43c23          	sd	a1,-168(s0)
    d3b8:	07452583          	lw	a1,116(a0)
    d3bc:	f4b43823          	sd	a1,-176(s0)
    d3c0:	07052583          	lw	a1,112(a0)
    d3c4:	f4b43423          	sd	a1,-184(s0)
    d3c8:	06c52583          	lw	a1,108(a0)
    d3cc:	f4b43023          	sd	a1,-192(s0)
    d3d0:	06852583          	lw	a1,104(a0)
    d3d4:	f2b43c23          	sd	a1,-200(s0)
    d3d8:	06452583          	lw	a1,100(a0)
    d3dc:	f2b43823          	sd	a1,-208(s0)
    d3e0:	06052583          	lw	a1,96(a0)
    d3e4:	f2b43423          	sd	a1,-216(s0)
    d3e8:	05c52583          	lw	a1,92(a0)
    d3ec:	f2b43023          	sd	a1,-224(s0)
    d3f0:	05852583          	lw	a1,88(a0)
    d3f4:	f0b43c23          	sd	a1,-232(s0)
    d3f8:	05452583          	lw	a1,84(a0)
    d3fc:	f0b43823          	sd	a1,-240(s0)
    d400:	05052583          	lw	a1,80(a0)
    d404:	f0b43423          	sd	a1,-248(s0)
    d408:	04c52583          	lw	a1,76(a0)
    d40c:	f0b43023          	sd	a1,-256(s0)
    d410:	04852583          	lw	a1,72(a0)
    d414:	eeb43c23          	sd	a1,-264(s0)
    d418:	04452583          	lw	a1,68(a0)
    d41c:	eeb43823          	sd	a1,-272(s0)
    d420:	04052583          	lw	a1,64(a0)
    d424:	eeb43423          	sd	a1,-280(s0)
    d428:	03c52583          	lw	a1,60(a0)
    d42c:	b4b43c23          	sd	a1,-1192(s0)
    d430:	03852583          	lw	a1,56(a0)
    d434:	b4b43823          	sd	a1,-1200(s0)
    d438:	03452583          	lw	a1,52(a0)
    d43c:	b4b43423          	sd	a1,-1208(s0)
    d440:	03052583          	lw	a1,48(a0)
    d444:	b4b43023          	sd	a1,-1216(s0)
    d448:	02c52583          	lw	a1,44(a0)
    d44c:	b2b43c23          	sd	a1,-1224(s0)
    d450:	02852583          	lw	a1,40(a0)
    d454:	b2b43823          	sd	a1,-1232(s0)
    d458:	02452c83          	lw	s9,36(a0)
    d45c:	07c62503          	lw	a0,124(a2)
    d460:	9ca43c23          	sd	a0,-1576(s0)
    d464:	07862503          	lw	a0,120(a2)
    d468:	9ca43823          	sd	a0,-1584(s0)
    d46c:	07462803          	lw	a6,116(a2)
    d470:	07062d83          	lw	s11,112(a2)
    d474:	06c62503          	lw	a0,108(a2)
    d478:	06862703          	lw	a4,104(a2)
    d47c:	06462583          	lw	a1,100(a2)
    d480:	06062083          	lw	ra,96(a2)
    d484:	05c62283          	lw	t0,92(a2)
    d488:	05862e03          	lw	t3,88(a2)
    d48c:	05462e83          	lw	t4,84(a2)
    d490:	05062683          	lw	a3,80(a2)
    d494:	04c62303          	lw	t1,76(a2)
    d498:	04862383          	lw	t2,72(a2)
    d49c:	04462483          	lw	s1,68(a2)
    d4a0:	04062903          	lw	s2,64(a2)
    d4a4:	03c62983          	lw	s3,60(a2)
    d4a8:	03862a03          	lw	s4,56(a2)
    d4ac:	03462a83          	lw	s5,52(a2)
    d4b0:	02462783          	lw	a5,36(a2)
    d4b4:	03062b03          	lw	s6,48(a2)
    d4b8:	02c62b83          	lw	s7,44(a2)
    d4bc:	02862c03          	lw	s8,40(a2)
    d4c0:	00779793          	slli	a5,a5,0x7
    d4c4:	a9943823          	sd	s9,-1392(s0)
    d4c8:	019d0633          	add	a2,s10,s9
    d4cc:	b0f43823          	sd	a5,-1264(s0)
    d4d0:	00f60cb3          	add	s9,a2,a5
    d4d4:	00001637          	lui	a2,0x1
    d4d8:	40c40633          	sub	a2,s0,a2
    d4dc:	b3863d03          	ld	s10,-1224(a2) # b38 <.LBB52_3+0x954>
    d4e0:	304d2603          	lw	a2,772(s10)
    d4e4:	308d2783          	lw	a5,776(s10)
    d4e8:	30cd2d03          	lw	s10,780(s10)
    d4ec:	00001fb7          	lui	t6,0x1
    d4f0:	41f40fb3          	sub	t6,s0,t6
    d4f4:	79afb023          	sd	s10,1920(t6) # 1780 <.LBB52_5+0x3a8>
    d4f8:	411f0d3b          	subw	s10,t5,a7
    d4fc:	41ac88bb          	subw	a7,s9,s10
    d500:	40000cb7          	lui	s9,0x40000
    d504:	9d143023          	sd	a7,-1600(s0)
    d508:	0008d463          	bgez	a7,d510 <.LBB52_1566>
    d50c:	c0000cb7          	lui	s9,0xc0000

000000000000d510 <.LBB52_1566>:
    d510:	9b943c23          	sd	s9,-1608(s0)
    d514:	007c1893          	slli	a7,s8,0x7
    d518:	b3043c03          	ld	s8,-1232(s0)
    d51c:	b6043f83          	ld	t6,-1184(s0)
    d520:	018f8c33          	add	s8,t6,s8
    d524:	b7143023          	sd	a7,-1184(s0)
    d528:	011c0c33          	add	s8,s8,a7
    d52c:	fff8ed37          	lui	s10,0xfff8e
    d530:	41af0cbb          	subw	s9,t5,s10
    d534:	419c08bb          	subw	a7,s8,s9
    d538:	40000c37          	lui	s8,0x40000
    d53c:	99143c23          	sd	a7,-1640(s0)
    d540:	0008d463          	bgez	a7,d548 <.LBB52_1568>
    d544:	c0000c37          	lui	s8,0xc0000

000000000000d548 <.LBB52_1568>:
    d548:	99843823          	sd	s8,-1648(s0)
    d54c:	007b9893          	slli	a7,s7,0x7
    d550:	b3843b83          	ld	s7,-1224(s0)
    d554:	b6843f83          	ld	t6,-1176(s0)
    d558:	017f8bb3          	add	s7,t6,s7
    d55c:	b7143423          	sd	a7,-1176(s0)
    d560:	011b8bb3          	add	s7,s7,a7
    d564:	41af0c3b          	subw	s8,t5,s10
    d568:	418b88bb          	subw	a7,s7,s8
    d56c:	40000bb7          	lui	s7,0x40000
    d570:	97143823          	sd	a7,-1680(s0)
    d574:	b9043c83          	ld	s9,-1136(s0)
    d578:	0008d463          	bgez	a7,d580 <.LBB52_1570>
    d57c:	c0000bb7          	lui	s7,0xc0000

000000000000d580 <.LBB52_1570>:
    d580:	97743023          	sd	s7,-1696(s0)
    d584:	007b1893          	slli	a7,s6,0x7
    d588:	b4043b03          	ld	s6,-1216(s0)
    d58c:	b7843f83          	ld	t6,-1160(s0)
    d590:	016f8b33          	add	s6,t6,s6
    d594:	b7143c23          	sd	a7,-1160(s0)
    d598:	011b0b33          	add	s6,s6,a7
    d59c:	41af0bbb          	subw	s7,t5,s10
    d5a0:	417b08bb          	subw	a7,s6,s7
    d5a4:	40000fb7          	lui	t6,0x40000
    d5a8:	95143423          	sd	a7,-1720(s0)
    d5ac:	b9843c03          	ld	s8,-1128(s0)
    d5b0:	0008d463          	bgez	a7,d5b8 <.LBB52_1572>
    d5b4:	c0000fb7          	lui	t6,0xc0000

000000000000d5b8 <.LBB52_1572>:
    d5b8:	007a9893          	slli	a7,s5,0x7
    d5bc:	b4843a83          	ld	s5,-1208(s0)
    d5c0:	b8043b03          	ld	s6,-1152(s0)
    d5c4:	015b0ab3          	add	s5,s6,s5
    d5c8:	b9143023          	sd	a7,-1152(s0)
    d5cc:	011a8ab3          	add	s5,s5,a7
    d5d0:	41af0b3b          	subw	s6,t5,s10
    d5d4:	416a88bb          	subw	a7,s5,s6
    d5d8:	40000ab7          	lui	s5,0x40000
    d5dc:	91143c23          	sd	a7,-1768(s0)
    d5e0:	ba043b83          	ld	s7,-1120(s0)
    d5e4:	0008d463          	bgez	a7,d5ec <.LBB52_1574>
    d5e8:	c0000ab7          	lui	s5,0xc0000

000000000000d5ec <.LBB52_1574>:
    d5ec:	91543423          	sd	s5,-1784(s0)
    d5f0:	007a1893          	slli	a7,s4,0x7
    d5f4:	b5043a03          	ld	s4,-1200(s0)
    d5f8:	b8843a83          	ld	s5,-1144(s0)
    d5fc:	014a8a33          	add	s4,s5,s4
    d600:	b9143423          	sd	a7,-1144(s0)
    d604:	011a0a33          	add	s4,s4,a7
    d608:	41af0abb          	subw	s5,t5,s10
    d60c:	415a08bb          	subw	a7,s4,s5
    d610:	40000a37          	lui	s4,0x40000
    d614:	8f143423          	sd	a7,-1816(s0)
    d618:	ba843b03          	ld	s6,-1112(s0)
    d61c:	0008d463          	bgez	a7,d624 <.LBB52_1576>
    d620:	c0000a37          	lui	s4,0xc0000

000000000000d624 <.LBB52_1576>:
    d624:	8d443c23          	sd	s4,-1832(s0)
    d628:	00799893          	slli	a7,s3,0x7
    d62c:	b5843983          	ld	s3,-1192(s0)
    d630:	013c89b3          	add	s3,s9,s3
    d634:	b9143823          	sd	a7,-1136(s0)
    d638:	011989b3          	add	s3,s3,a7
    d63c:	41af0a3b          	subw	s4,t5,s10
    d640:	414988bb          	subw	a7,s3,s4
    d644:	400009b7          	lui	s3,0x40000
    d648:	8b143c23          	sd	a7,-1864(s0)
    d64c:	bb043a83          	ld	s5,-1104(s0)
    d650:	0008d463          	bgez	a7,d658 <.LBB52_1578>
    d654:	c00009b7          	lui	s3,0xc0000

000000000000d658 <.LBB52_1578>:
    d658:	8b343823          	sd	s3,-1872(s0)
    d65c:	00791893          	slli	a7,s2,0x7
    d660:	ee843903          	ld	s2,-280(s0)
    d664:	012c0933          	add	s2,s8,s2
    d668:	00088c93          	mv	s9,a7
    d66c:	01190933          	add	s2,s2,a7
    d670:	41af09bb          	subw	s3,t5,s10
    d674:	413908bb          	subw	a7,s2,s3
    d678:	40000937          	lui	s2,0x40000
    d67c:	cf043a03          	ld	s4,-784(s0)
    d680:	89143823          	sd	a7,-1904(s0)
    d684:	0008d463          	bgez	a7,d68c <.LBB52_1580>
    d688:	c0000937          	lui	s2,0xc0000

000000000000d68c <.LBB52_1580>:
    d68c:	89243423          	sd	s2,-1912(s0)
    d690:	00749893          	slli	a7,s1,0x7
    d694:	ef043483          	ld	s1,-272(s0)
    d698:	009b84b3          	add	s1,s7,s1
    d69c:	00088c13          	mv	s8,a7
    d6a0:	011484b3          	add	s1,s1,a7
    d6a4:	41af093b          	subw	s2,t5,s10
    d6a8:	412488bb          	subw	a7,s1,s2
    d6ac:	400004b7          	lui	s1,0x40000
    d6b0:	e1043983          	ld	s3,-496(s0)
    d6b4:	87143423          	sd	a7,-1944(s0)
    d6b8:	0008d463          	bgez	a7,d6c0 <.LBB52_1582>
    d6bc:	c00004b7          	lui	s1,0xc0000

000000000000d6c0 <.LBB52_1582>:
    d6c0:	86943023          	sd	s1,-1952(s0)
    d6c4:	00739893          	slli	a7,t2,0x7
    d6c8:	ef843383          	ld	t2,-264(s0)
    d6cc:	007b03b3          	add	t2,s6,t2
    d6d0:	00088b93          	mv	s7,a7
    d6d4:	011383b3          	add	t2,t2,a7
    d6d8:	41af04bb          	subw	s1,t5,s10
    d6dc:	409388bb          	subw	a7,t2,s1
    d6e0:	400003b7          	lui	t2,0x40000
    d6e4:	d1043903          	ld	s2,-752(s0)
    d6e8:	85143023          	sd	a7,-1984(s0)
    d6ec:	0008d463          	bgez	a7,d6f4 <.LBB52_1584>
    d6f0:	c00003b7          	lui	t2,0xc0000

000000000000d6f4 <.LBB52_1584>:
    d6f4:	82743c23          	sd	t2,-1992(s0)
    d6f8:	00731893          	slli	a7,t1,0x7
    d6fc:	f0043303          	ld	t1,-256(s0)
    d700:	006a8333          	add	t1,s5,t1
    d704:	00088b13          	mv	s6,a7
    d708:	01130333          	add	t1,t1,a7
    d70c:	41af03bb          	subw	t2,t5,s10
    d710:	407308bb          	subw	a7,t1,t2
    d714:	40000337          	lui	t1,0x40000
    d718:	cf843483          	ld	s1,-776(s0)
    d71c:	81143c23          	sd	a7,-2024(s0)
    d720:	0008d463          	bgez	a7,d728 <.LBB52_1586>
    d724:	c0000337          	lui	t1,0xc0000

000000000000d728 <.LBB52_1586>:
    d728:	80643823          	sd	t1,-2032(s0)
    d72c:	00769313          	slli	t1,a3,0x7
    d730:	f0843683          	ld	a3,-248(s0)
    d734:	bb843883          	ld	a7,-1096(s0)
    d738:	00d886b3          	add	a3,a7,a3
    d73c:	00030a93          	mv	s5,t1
    d740:	006686b3          	add	a3,a3,t1
    d744:	41af033b          	subw	t1,t5,s10
    d748:	406686bb          	subw	a3,a3,t1
    d74c:	400008b7          	lui	a7,0x40000
    d750:	00001337          	lui	t1,0x1
    d754:	40640333          	sub	t1,s0,t1
    d758:	7ed33823          	sd	a3,2032(t1) # 17f0 <.LBB52_5+0x418>
    d75c:	c1043383          	ld	t2,-1008(s0)
    d760:	0006d463          	bgez	a3,d768 <.LBB52_1588>
    d764:	c00008b7          	lui	a7,0xc0000

000000000000d768 <.LBB52_1588>:
    d768:	007e9e93          	slli	t4,t4,0x7
    d76c:	f1043683          	ld	a3,-240(s0)
    d770:	bc043303          	ld	t1,-1088(s0)
    d774:	00d306b3          	add	a3,t1,a3
    d778:	01d686b3          	add	a3,a3,t4
    d77c:	41af033b          	subw	t1,t5,s10
    d780:	406686bb          	subw	a3,a3,t1
    d784:	40000337          	lui	t1,0x40000
    d788:	f8a43823          	sd	a0,-112(s0)
    d78c:	00001537          	lui	a0,0x1
    d790:	40a40533          	sub	a0,s0,a0
    d794:	7cd53423          	sd	a3,1992(a0) # 17c8 <.LBB52_5+0x3f0>
    d798:	f9043503          	ld	a0,-112(s0)
    d79c:	0006d463          	bgez	a3,d7a4 <.LBB52_1590>
    d7a0:	c0000337          	lui	t1,0xc0000

000000000000d7a4 <.LBB52_1590>:
    d7a4:	f8a43823          	sd	a0,-112(s0)
    d7a8:	00001537          	lui	a0,0x1
    d7ac:	40a40533          	sub	a0,s0,a0
    d7b0:	7c653023          	sd	t1,1984(a0) # 17c0 <.LBB52_5+0x3e8>
    d7b4:	007e1e13          	slli	t3,t3,0x7
    d7b8:	f1843683          	ld	a3,-232(s0)
    d7bc:	bc843303          	ld	t1,-1080(s0)
    d7c0:	00d306b3          	add	a3,t1,a3
    d7c4:	01c686b3          	add	a3,a3,t3
    d7c8:	41af033b          	subw	t1,t5,s10
    d7cc:	406686bb          	subw	a3,a3,t1
    d7d0:	40000337          	lui	t1,0x40000
    d7d4:	00001537          	lui	a0,0x1
    d7d8:	40a40533          	sub	a0,s0,a0
    d7dc:	7ad53023          	sd	a3,1952(a0) # 17a0 <.LBB52_5+0x3c8>
    d7e0:	f9043503          	ld	a0,-112(s0)
    d7e4:	0006d463          	bgez	a3,d7ec <.LBB52_1592>
    d7e8:	c0000337          	lui	t1,0xc0000

000000000000d7ec <.LBB52_1592>:
    d7ec:	f8a43823          	sd	a0,-112(s0)
    d7f0:	00001537          	lui	a0,0x1
    d7f4:	40a40533          	sub	a0,s0,a0
    d7f8:	78653c23          	sd	t1,1944(a0) # 1798 <.LBB52_5+0x3c0>
    d7fc:	00729293          	slli	t0,t0,0x7
    d800:	f2043683          	ld	a3,-224(s0)
    d804:	bd043303          	ld	t1,-1072(s0)
    d808:	00d306b3          	add	a3,t1,a3
    d80c:	005686b3          	add	a3,a3,t0
    d810:	41af033b          	subw	t1,t5,s10
    d814:	406686bb          	subw	a3,a3,t1
    d818:	40000337          	lui	t1,0x40000
    d81c:	00001537          	lui	a0,0x1
    d820:	40a40533          	sub	a0,s0,a0
    d824:	76d53423          	sd	a3,1896(a0) # 1768 <.LBB52_5+0x390>
    d828:	f9043503          	ld	a0,-112(s0)
    d82c:	0006d463          	bgez	a3,d834 <.LBB52_1594>
    d830:	c0000337          	lui	t1,0xc0000

000000000000d834 <.LBB52_1594>:
    d834:	f8a43823          	sd	a0,-112(s0)
    d838:	00001537          	lui	a0,0x1
    d83c:	40a40533          	sub	a0,s0,a0
    d840:	76653023          	sd	t1,1888(a0) # 1760 <.LBB52_5+0x388>
    d844:	00709093          	slli	ra,ra,0x7
    d848:	f2843683          	ld	a3,-216(s0)
    d84c:	bd843303          	ld	t1,-1064(s0)
    d850:	00d306b3          	add	a3,t1,a3
    d854:	001686b3          	add	a3,a3,ra
    d858:	41af033b          	subw	t1,t5,s10
    d85c:	406686bb          	subw	a3,a3,t1
    d860:	40000337          	lui	t1,0x40000
    d864:	00001537          	lui	a0,0x1
    d868:	40a40533          	sub	a0,s0,a0
    d86c:	72d53c23          	sd	a3,1848(a0) # 1738 <.LBB52_5+0x360>
    d870:	f9043503          	ld	a0,-112(s0)
    d874:	0006d463          	bgez	a3,d87c <.LBB52_1596>
    d878:	c0000337          	lui	t1,0xc0000

000000000000d87c <.LBB52_1596>:
    d87c:	f8a43823          	sd	a0,-112(s0)
    d880:	00001537          	lui	a0,0x1
    d884:	40a40533          	sub	a0,s0,a0
    d888:	72653823          	sd	t1,1840(a0) # 1730 <.LBB52_5+0x358>
    d88c:	00759593          	slli	a1,a1,0x7
    d890:	f3043683          	ld	a3,-208(s0)
    d894:	be043303          	ld	t1,-1056(s0)
    d898:	00d306b3          	add	a3,t1,a3
    d89c:	00b686b3          	add	a3,a3,a1
    d8a0:	41af033b          	subw	t1,t5,s10
    d8a4:	406686bb          	subw	a3,a3,t1
    d8a8:	40000337          	lui	t1,0x40000
    d8ac:	00001537          	lui	a0,0x1
    d8b0:	40a40533          	sub	a0,s0,a0
    d8b4:	70d53423          	sd	a3,1800(a0) # 1708 <.LBB52_5+0x330>
    d8b8:	f9043503          	ld	a0,-112(s0)
    d8bc:	0006d463          	bgez	a3,d8c4 <.LBB52_1598>
    d8c0:	c0000337          	lui	t1,0xc0000

000000000000d8c4 <.LBB52_1598>:
    d8c4:	000016b7          	lui	a3,0x1
    d8c8:	40d406b3          	sub	a3,s0,a3
    d8cc:	7066b023          	sd	t1,1792(a3) # 1700 <.LBB52_5+0x328>
    d8d0:	93f43c23          	sd	t6,-1736(s0)
    d8d4:	00771713          	slli	a4,a4,0x7
    d8d8:	f3843683          	ld	a3,-200(s0)
    d8dc:	be843303          	ld	t1,-1048(s0)
    d8e0:	00d306b3          	add	a3,t1,a3
    d8e4:	00e686b3          	add	a3,a3,a4
    d8e8:	41af033b          	subw	t1,t5,s10
    d8ec:	406686bb          	subw	a3,a3,t1
    d8f0:	40000337          	lui	t1,0x40000
    d8f4:	00001fb7          	lui	t6,0x1
    d8f8:	41f40fb3          	sub	t6,s0,t6
    d8fc:	6cdfbc23          	sd	a3,1752(t6) # 16d8 <.LBB52_5+0x300>
    d900:	0006d463          	bgez	a3,d908 <.LBB52_1600>
    d904:	c0000337          	lui	t1,0xc0000

000000000000d908 <.LBB52_1600>:
    d908:	000016b7          	lui	a3,0x1
    d90c:	40d406b3          	sub	a3,s0,a3
    d910:	6c66b823          	sd	t1,1744(a3) # 16d0 <.LBB52_5+0x2f8>
    d914:	00751f93          	slli	t6,a0,0x7
    d918:	f4043683          	ld	a3,-192(s0)
    d91c:	bf043503          	ld	a0,-1040(s0)
    d920:	00d506b3          	add	a3,a0,a3
    d924:	01f686b3          	add	a3,a3,t6
    d928:	41af033b          	subw	t1,t5,s10
    d92c:	4066853b          	subw	a0,a3,t1
    d930:	400006b7          	lui	a3,0x40000
    d934:	00001337          	lui	t1,0x1
    d938:	40640333          	sub	t1,s0,t1
    d93c:	6aa33423          	sd	a0,1704(t1) # 16a8 <.LBB52_5+0x2d0>
    d940:	00055463          	bgez	a0,d948 <.LBB52_1602>
    d944:	c00006b7          	lui	a3,0xc0000

000000000000d948 <.LBB52_1602>:
    d948:	f8b43823          	sd	a1,-112(s0)
    d94c:	00001537          	lui	a0,0x1
    d950:	40a40533          	sub	a0,s0,a0
    d954:	6ad53023          	sd	a3,1696(a0) # 16a0 <.LBB52_5+0x2c8>
    d958:	007d9d93          	slli	s11,s11,0x7
    d95c:	f4843683          	ld	a3,-184(s0)
    d960:	bf843503          	ld	a0,-1032(s0)
    d964:	00d506b3          	add	a3,a0,a3
    d968:	01b686b3          	add	a3,a3,s11
    d96c:	41af033b          	subw	t1,t5,s10
    d970:	406686bb          	subw	a3,a3,t1
    d974:	40000337          	lui	t1,0x40000
    d978:	c0043503          	ld	a0,-1024(s0)
    d97c:	000015b7          	lui	a1,0x1
    d980:	40b405b3          	sub	a1,s0,a1
    d984:	68d5b423          	sd	a3,1672(a1) # 1688 <.LBB52_5+0x2b0>
    d988:	f9043583          	ld	a1,-112(s0)
    d98c:	0006d463          	bgez	a3,d994 <.LBB52_1604>
    d990:	c0000337          	lui	t1,0xc0000

000000000000d994 <.LBB52_1604>:
    d994:	000016b7          	lui	a3,0x1
    d998:	40d406b3          	sub	a3,s0,a3
    d99c:	6866b023          	sd	t1,1664(a3) # 1680 <.LBB52_5+0x2a8>
    d9a0:	00781813          	slli	a6,a6,0x7
    d9a4:	f5043683          	ld	a3,-176(s0)
    d9a8:	00d506b3          	add	a3,a0,a3
    d9ac:	010686b3          	add	a3,a3,a6
    d9b0:	41af033b          	subw	t1,t5,s10
    d9b4:	4066853b          	subw	a0,a3,t1
    d9b8:	400006b7          	lui	a3,0x40000
    d9bc:	00001337          	lui	t1,0x1
    d9c0:	40640333          	sub	t1,s0,t1
    d9c4:	66a33823          	sd	a0,1648(t1) # 1670 <.LBB52_5+0x298>
    d9c8:	00055463          	bgez	a0,d9d0 <.LBB52_1606>
    d9cc:	c00006b7          	lui	a3,0xc0000

000000000000d9d0 <.LBB52_1606>:
    d9d0:	00001537          	lui	a0,0x1
    d9d4:	40a40533          	sub	a0,s0,a0
    d9d8:	66d53423          	sd	a3,1640(a0) # 1668 <.LBB52_5+0x290>
    d9dc:	00001537          	lui	a0,0x1
    d9e0:	40a40533          	sub	a0,s0,a0
    d9e4:	7f153423          	sd	a7,2024(a0) # 17e8 <.LBB52_5+0x410>
    d9e8:	9d043503          	ld	a0,-1584(s0)
    d9ec:	00751513          	slli	a0,a0,0x7
    d9f0:	f5843683          	ld	a3,-168(s0)
    d9f4:	c0843883          	ld	a7,-1016(s0)
    d9f8:	00d886b3          	add	a3,a7,a3
    d9fc:	00a686b3          	add	a3,a3,a0
    da00:	41af033b          	subw	t1,t5,s10
    da04:	406686bb          	subw	a3,a3,t1
    da08:	400008b7          	lui	a7,0x40000
    da0c:	00001337          	lui	t1,0x1
    da10:	40640333          	sub	t1,s0,t1
    da14:	64d33823          	sd	a3,1616(t1) # 1650 <.LBB52_5+0x278>
    da18:	0006d463          	bgez	a3,da20 <.LBB52_1608>
    da1c:	c00008b7          	lui	a7,0xc0000

000000000000da20 <.LBB52_1608>:
    da20:	000016b7          	lui	a3,0x1
    da24:	40d406b3          	sub	a3,s0,a3
    da28:	6516b423          	sd	a7,1608(a3) # 1648 <.LBB52_5+0x270>
    da2c:	9d843883          	ld	a7,-1576(s0)
    da30:	00789893          	slli	a7,a7,0x7
    da34:	f8843683          	ld	a3,-120(s0)
    da38:	00d386b3          	add	a3,t2,a3
    da3c:	011686b3          	add	a3,a3,a7
    da40:	41af033b          	subw	t1,t5,s10
    da44:	406683bb          	subw	t2,a3,t1
    da48:	400006b7          	lui	a3,0x40000
    da4c:	0003d463          	bgez	t2,da54 <.LBB52_1610>
    da50:	c00006b7          	lui	a3,0xc0000

000000000000da54 <.LBB52_1610>:
    da54:	00001337          	lui	t1,0x1
    da58:	40640333          	sub	t1,s0,t1
    da5c:	60d33823          	sd	a3,1552(t1) # 1610 <.LBB52_5+0x238>
    da60:	c1843683          	ld	a3,-1000(s0)
    da64:	b0843303          	ld	t1,-1272(s0)
    da68:	006686b3          	add	a3,a3,t1
    da6c:	01300313          	li	t1,19
    da70:	02660333          	mul	t1,a2,t1
    da74:	b0043603          	ld	a2,-1280(s0)
    da78:	00c686b3          	add	a3,a3,a2
    da7c:	41a3063b          	subw	a2,t1,s10
    da80:	40c686bb          	subw	a3,a3,a2
    da84:	40000637          	lui	a2,0x40000
    da88:	c0d43c23          	sd	a3,-1000(s0)
    da8c:	d0843f03          	ld	t5,-760(s0)
    da90:	0006d463          	bgez	a3,da98 <.LBB52_1612>
    da94:	c0000637          	lui	a2,0xc0000

000000000000da98 <.LBB52_1612>:
    da98:	c0c43823          	sd	a2,-1008(s0)
    da9c:	c2043603          	ld	a2,-992(s0)
    daa0:	af843683          	ld	a3,-1288(s0)
    daa4:	00d60633          	add	a2,a2,a3
    daa8:	af043683          	ld	a3,-1296(s0)
    daac:	00d60633          	add	a2,a2,a3
    dab0:	41a306bb          	subw	a3,t1,s10
    dab4:	40d6063b          	subw	a2,a2,a3
    dab8:	400006b7          	lui	a3,0x40000
    dabc:	c2c43023          	sd	a2,-992(s0)
    dac0:	00065463          	bgez	a2,dac8 <.LBB52_1614>
    dac4:	c00006b7          	lui	a3,0xc0000

000000000000dac8 <.LBB52_1614>:
    dac8:	c0d43423          	sd	a3,-1016(s0)
    dacc:	c2843603          	ld	a2,-984(s0)
    dad0:	ae843683          	ld	a3,-1304(s0)
    dad4:	00d60633          	add	a2,a2,a3
    dad8:	ae043683          	ld	a3,-1312(s0)
    dadc:	00d60633          	add	a2,a2,a3
    dae0:	41a306bb          	subw	a3,t1,s10
    dae4:	40d6063b          	subw	a2,a2,a3
    dae8:	400006b7          	lui	a3,0x40000
    daec:	c2c43423          	sd	a2,-984(s0)
    daf0:	00065463          	bgez	a2,daf8 <.LBB52_1616>
    daf4:	c00006b7          	lui	a3,0xc0000

000000000000daf8 <.LBB52_1616>:
    daf8:	c0d43023          	sd	a3,-1024(s0)
    dafc:	c3043603          	ld	a2,-976(s0)
    db00:	ad843683          	ld	a3,-1320(s0)
    db04:	00d60633          	add	a2,a2,a3
    db08:	ad043683          	ld	a3,-1328(s0)
    db0c:	00d60633          	add	a2,a2,a3
    db10:	41a306bb          	subw	a3,t1,s10
    db14:	40d6063b          	subw	a2,a2,a3
    db18:	400006b7          	lui	a3,0x40000
    db1c:	bec43423          	sd	a2,-1048(s0)
    db20:	00065463          	bgez	a2,db28 <.LBB52_1618>
    db24:	c00006b7          	lui	a3,0xc0000

000000000000db28 <.LBB52_1618>:
    db28:	bed43023          	sd	a3,-1056(s0)
    db2c:	c3843603          	ld	a2,-968(s0)
    db30:	ac843683          	ld	a3,-1336(s0)
    db34:	00d60633          	add	a2,a2,a3
    db38:	ac043683          	ld	a3,-1344(s0)
    db3c:	00d60633          	add	a2,a2,a3
    db40:	41a306bb          	subw	a3,t1,s10
    db44:	40d6063b          	subw	a2,a2,a3
    db48:	400006b7          	lui	a3,0x40000
    db4c:	bcc43423          	sd	a2,-1080(s0)
    db50:	00065463          	bgez	a2,db58 <.LBB52_1620>
    db54:	c00006b7          	lui	a3,0xc0000

000000000000db58 <.LBB52_1620>:
    db58:	bcd43023          	sd	a3,-1088(s0)
    db5c:	c4043603          	ld	a2,-960(s0)
    db60:	ab843683          	ld	a3,-1352(s0)
    db64:	00d60633          	add	a2,a2,a3
    db68:	b2843683          	ld	a3,-1240(s0)
    db6c:	00d60633          	add	a2,a2,a3
    db70:	41a306bb          	subw	a3,t1,s10
    db74:	40d6063b          	subw	a2,a2,a3
    db78:	400006b7          	lui	a3,0x40000
    db7c:	bac43423          	sd	a2,-1112(s0)
    db80:	00065463          	bgez	a2,db88 <.LBB52_1622>
    db84:	c00006b7          	lui	a3,0xc0000

000000000000db88 <.LBB52_1622>:
    db88:	bad43023          	sd	a3,-1120(s0)
    db8c:	c4843603          	ld	a2,-952(s0)
    db90:	ab043683          	ld	a3,-1360(s0)
    db94:	00d60633          	add	a2,a2,a3
    db98:	b2043683          	ld	a3,-1248(s0)
    db9c:	00d60633          	add	a2,a2,a3
    dba0:	41a306bb          	subw	a3,t1,s10
    dba4:	40d6063b          	subw	a2,a2,a3
    dba8:	400006b7          	lui	a3,0x40000
    dbac:	9cc43c23          	sd	a2,-1576(s0)
    dbb0:	00065463          	bgez	a2,dbb8 <.LBB52_1624>
    dbb4:	c00006b7          	lui	a3,0xc0000

000000000000dbb8 <.LBB52_1624>:
    dbb8:	9cd43823          	sd	a3,-1584(s0)
    dbbc:	c5043603          	ld	a2,-944(s0)
    dbc0:	aa843683          	ld	a3,-1368(s0)
    dbc4:	00d60633          	add	a2,a2,a3
    dbc8:	b1843683          	ld	a3,-1256(s0)
    dbcc:	00d60633          	add	a2,a2,a3
    dbd0:	41a306bb          	subw	a3,t1,s10
    dbd4:	40d6063b          	subw	a2,a2,a3
    dbd8:	400006b7          	lui	a3,0x40000
    dbdc:	c4c43823          	sd	a2,-944(s0)
    dbe0:	00065463          	bgez	a2,dbe8 <.LBB52_1626>
    dbe4:	c00006b7          	lui	a3,0xc0000

000000000000dbe8 <.LBB52_1626>:
    dbe8:	9cd43423          	sd	a3,-1592(s0)
    dbec:	c5843603          	ld	a2,-936(s0)
    dbf0:	aa043683          	ld	a3,-1376(s0)
    dbf4:	00d60633          	add	a2,a2,a3
    dbf8:	a9843683          	ld	a3,-1384(s0)
    dbfc:	00d60633          	add	a2,a2,a3
    dc00:	41a306bb          	subw	a3,t1,s10
    dc04:	40d6063b          	subw	a2,a2,a3
    dc08:	400006b7          	lui	a3,0x40000
    dc0c:	9ac43823          	sd	a2,-1616(s0)
    dc10:	00065463          	bgez	a2,dc18 <.LBB52_1628>
    dc14:	c00006b7          	lui	a3,0xc0000

000000000000dc18 <.LBB52_1628>:
    dc18:	9ad43423          	sd	a3,-1624(s0)
    dc1c:	c6043603          	ld	a2,-928(s0)
    dc20:	a9043683          	ld	a3,-1392(s0)
    dc24:	00d60633          	add	a2,a2,a3
    dc28:	b1043683          	ld	a3,-1264(s0)
    dc2c:	00d60633          	add	a2,a2,a3
    dc30:	41a306bb          	subw	a3,t1,s10
    dc34:	40d6063b          	subw	a2,a2,a3
    dc38:	400006b7          	lui	a3,0x40000
    dc3c:	98c43423          	sd	a2,-1656(s0)
    dc40:	00065463          	bgez	a2,dc48 <.LBB52_1630>
    dc44:	c00006b7          	lui	a3,0xc0000

000000000000dc48 <.LBB52_1630>:
    dc48:	98d43023          	sd	a3,-1664(s0)
    dc4c:	c6843603          	ld	a2,-920(s0)
    dc50:	b3043683          	ld	a3,-1232(s0)
    dc54:	00d60633          	add	a2,a2,a3
    dc58:	b6043683          	ld	a3,-1184(s0)
    dc5c:	00d60633          	add	a2,a2,a3
    dc60:	41a306bb          	subw	a3,t1,s10
    dc64:	40d6063b          	subw	a2,a2,a3
    dc68:	400006b7          	lui	a3,0x40000
    dc6c:	96c43423          	sd	a2,-1688(s0)
    dc70:	00065463          	bgez	a2,dc78 <.LBB52_1632>
    dc74:	c00006b7          	lui	a3,0xc0000

000000000000dc78 <.LBB52_1632>:
    dc78:	94d43c23          	sd	a3,-1704(s0)
    dc7c:	c7043603          	ld	a2,-912(s0)
    dc80:	b3843683          	ld	a3,-1224(s0)
    dc84:	00d60633          	add	a2,a2,a3
    dc88:	b6843683          	ld	a3,-1176(s0)
    dc8c:	00d60633          	add	a2,a2,a3
    dc90:	41a306bb          	subw	a3,t1,s10
    dc94:	40d6063b          	subw	a2,a2,a3
    dc98:	400006b7          	lui	a3,0x40000
    dc9c:	94c43023          	sd	a2,-1728(s0)
    dca0:	00065463          	bgez	a2,dca8 <.LBB52_1634>
    dca4:	c00006b7          	lui	a3,0xc0000

000000000000dca8 <.LBB52_1634>:
    dca8:	92d43823          	sd	a3,-1744(s0)
    dcac:	c7843603          	ld	a2,-904(s0)
    dcb0:	b4043683          	ld	a3,-1216(s0)
    dcb4:	00d60633          	add	a2,a2,a3
    dcb8:	b7843683          	ld	a3,-1160(s0)
    dcbc:	00d60633          	add	a2,a2,a3
    dcc0:	41a306bb          	subw	a3,t1,s10
    dcc4:	40d6063b          	subw	a2,a2,a3
    dcc8:	400006b7          	lui	a3,0x40000
    dccc:	92c43023          	sd	a2,-1760(s0)
    dcd0:	00065463          	bgez	a2,dcd8 <.LBB52_1636>
    dcd4:	c00006b7          	lui	a3,0xc0000

000000000000dcd8 <.LBB52_1636>:
    dcd8:	90d43823          	sd	a3,-1776(s0)
    dcdc:	c8043603          	ld	a2,-896(s0)
    dce0:	b4843683          	ld	a3,-1208(s0)
    dce4:	00d60633          	add	a2,a2,a3
    dce8:	b8043683          	ld	a3,-1152(s0)
    dcec:	00d60633          	add	a2,a2,a3
    dcf0:	41a306bb          	subw	a3,t1,s10
    dcf4:	40d6063b          	subw	a2,a2,a3
    dcf8:	400006b7          	lui	a3,0x40000
    dcfc:	8ec43c23          	sd	a2,-1800(s0)
    dd00:	00065463          	bgez	a2,dd08 <.LBB52_1638>
    dd04:	c00006b7          	lui	a3,0xc0000

000000000000dd08 <.LBB52_1638>:
    dd08:	8ed43823          	sd	a3,-1808(s0)
    dd0c:	c8843603          	ld	a2,-888(s0)
    dd10:	b5043683          	ld	a3,-1200(s0)
    dd14:	00d60633          	add	a2,a2,a3
    dd18:	b8843683          	ld	a3,-1144(s0)
    dd1c:	00d60633          	add	a2,a2,a3
    dd20:	41a306bb          	subw	a3,t1,s10
    dd24:	40d6063b          	subw	a2,a2,a3
    dd28:	400006b7          	lui	a3,0x40000
    dd2c:	8cc43823          	sd	a2,-1840(s0)
    dd30:	00065463          	bgez	a2,dd38 <.LBB52_1640>
    dd34:	c00006b7          	lui	a3,0xc0000

000000000000dd38 <.LBB52_1640>:
    dd38:	8cd43423          	sd	a3,-1848(s0)
    dd3c:	c9043603          	ld	a2,-880(s0)
    dd40:	b5843683          	ld	a3,-1192(s0)
    dd44:	00d60633          	add	a2,a2,a3
    dd48:	b9043683          	ld	a3,-1136(s0)
    dd4c:	00d60633          	add	a2,a2,a3
    dd50:	41a306bb          	subw	a3,t1,s10
    dd54:	40d6063b          	subw	a2,a2,a3
    dd58:	400006b7          	lui	a3,0x40000
    dd5c:	8ac43423          	sd	a2,-1880(s0)
    dd60:	00065463          	bgez	a2,dd68 <.LBB52_1642>
    dd64:	c00006b7          	lui	a3,0xc0000

000000000000dd68 <.LBB52_1642>:
    dd68:	8ad43023          	sd	a3,-1888(s0)
    dd6c:	c9843603          	ld	a2,-872(s0)
    dd70:	ee843683          	ld	a3,-280(s0)
    dd74:	00d60633          	add	a2,a2,a3
    dd78:	01960633          	add	a2,a2,s9
    dd7c:	41a306bb          	subw	a3,t1,s10
    dd80:	40d6063b          	subw	a2,a2,a3
    dd84:	400006b7          	lui	a3,0x40000
    dd88:	88c43023          	sd	a2,-1920(s0)
    dd8c:	00065463          	bgez	a2,dd94 <.LBB52_1644>
    dd90:	c00006b7          	lui	a3,0xc0000

000000000000dd94 <.LBB52_1644>:
    dd94:	86d43c23          	sd	a3,-1928(s0)
    dd98:	ca043603          	ld	a2,-864(s0)
    dd9c:	ef043683          	ld	a3,-272(s0)
    dda0:	00d60633          	add	a2,a2,a3
    dda4:	01860633          	add	a2,a2,s8
    dda8:	41a306bb          	subw	a3,t1,s10
    ddac:	40d6063b          	subw	a2,a2,a3
    ddb0:	400006b7          	lui	a3,0x40000
    ddb4:	84c43c23          	sd	a2,-1960(s0)
    ddb8:	00065463          	bgez	a2,ddc0 <.LBB52_1646>
    ddbc:	c00006b7          	lui	a3,0xc0000

000000000000ddc0 <.LBB52_1646>:
    ddc0:	84d43823          	sd	a3,-1968(s0)
    ddc4:	ca843603          	ld	a2,-856(s0)
    ddc8:	ef843683          	ld	a3,-264(s0)
    ddcc:	00d60633          	add	a2,a2,a3
    ddd0:	01760633          	add	a2,a2,s7
    ddd4:	41a306bb          	subw	a3,t1,s10
    ddd8:	40d6063b          	subw	a2,a2,a3
    dddc:	400006b7          	lui	a3,0x40000
    dde0:	82c43823          	sd	a2,-2000(s0)
    dde4:	00065463          	bgez	a2,ddec <.LBB52_1648>
    dde8:	c00006b7          	lui	a3,0xc0000

000000000000ddec <.LBB52_1648>:
    ddec:	82d43423          	sd	a3,-2008(s0)
    ddf0:	cb043603          	ld	a2,-848(s0)
    ddf4:	f0043683          	ld	a3,-256(s0)
    ddf8:	00d60633          	add	a2,a2,a3
    ddfc:	01660633          	add	a2,a2,s6
    de00:	41a306bb          	subw	a3,t1,s10
    de04:	40d6063b          	subw	a2,a2,a3
    de08:	400006b7          	lui	a3,0x40000
    de0c:	80c43423          	sd	a2,-2040(s0)
    de10:	00065463          	bgez	a2,de18 <.LBB52_1650>
    de14:	c00006b7          	lui	a3,0xc0000

000000000000de18 <.LBB52_1650>:
    de18:	80d43023          	sd	a3,-2048(s0)
    de1c:	cb843603          	ld	a2,-840(s0)
    de20:	f0843683          	ld	a3,-248(s0)
    de24:	00d60633          	add	a2,a2,a3
    de28:	01560633          	add	a2,a2,s5
    de2c:	41a306bb          	subw	a3,t1,s10
    de30:	40d6063b          	subw	a2,a2,a3
    de34:	400006b7          	lui	a3,0x40000
    de38:	f8a43823          	sd	a0,-112(s0)
    de3c:	00001537          	lui	a0,0x1
    de40:	40a40533          	sub	a0,s0,a0
    de44:	7ec53023          	sd	a2,2016(a0) # 17e0 <.LBB52_5+0x408>
    de48:	f9043503          	ld	a0,-112(s0)
    de4c:	00065463          	bgez	a2,de54 <.LBB52_1652>
    de50:	c00006b7          	lui	a3,0xc0000

000000000000de54 <.LBB52_1652>:
    de54:	f8a43823          	sd	a0,-112(s0)
    de58:	00001537          	lui	a0,0x1
    de5c:	40a40533          	sub	a0,s0,a0
    de60:	7cd53c23          	sd	a3,2008(a0) # 17d8 <.LBB52_5+0x400>
    de64:	cc043603          	ld	a2,-832(s0)
    de68:	f1043683          	ld	a3,-240(s0)
    de6c:	00d60633          	add	a2,a2,a3
    de70:	01d60633          	add	a2,a2,t4
    de74:	41a306bb          	subw	a3,t1,s10
    de78:	40d6063b          	subw	a2,a2,a3
    de7c:	400006b7          	lui	a3,0x40000
    de80:	00001537          	lui	a0,0x1
    de84:	40a40533          	sub	a0,s0,a0
    de88:	7ac53c23          	sd	a2,1976(a0) # 17b8 <.LBB52_5+0x3e0>
    de8c:	f9043503          	ld	a0,-112(s0)
    de90:	00065463          	bgez	a2,de98 <.LBB52_1654>
    de94:	c00006b7          	lui	a3,0xc0000

000000000000de98 <.LBB52_1654>:
    de98:	f8a43823          	sd	a0,-112(s0)
    de9c:	00001537          	lui	a0,0x1
    dea0:	40a40533          	sub	a0,s0,a0
    dea4:	7ad53823          	sd	a3,1968(a0) # 17b0 <.LBB52_5+0x3d8>
    dea8:	cc843603          	ld	a2,-824(s0)
    deac:	f1843683          	ld	a3,-232(s0)
    deb0:	00d60633          	add	a2,a2,a3
    deb4:	01c60633          	add	a2,a2,t3
    deb8:	41a306bb          	subw	a3,t1,s10
    debc:	40d6063b          	subw	a2,a2,a3
    dec0:	400006b7          	lui	a3,0x40000
    dec4:	00001537          	lui	a0,0x1
    dec8:	40a40533          	sub	a0,s0,a0
    decc:	78c53823          	sd	a2,1936(a0) # 1790 <.LBB52_5+0x3b8>
    ded0:	f9043503          	ld	a0,-112(s0)
    ded4:	00065463          	bgez	a2,dedc <.LBB52_1656>
    ded8:	c00006b7          	lui	a3,0xc0000

000000000000dedc <.LBB52_1656>:
    dedc:	f8a43823          	sd	a0,-112(s0)
    dee0:	00001537          	lui	a0,0x1
    dee4:	40a40533          	sub	a0,s0,a0
    dee8:	78d53423          	sd	a3,1928(a0) # 1788 <.LBB52_5+0x3b0>
    deec:	cd043603          	ld	a2,-816(s0)
    def0:	f2043683          	ld	a3,-224(s0)
    def4:	00d60633          	add	a2,a2,a3
    def8:	00560633          	add	a2,a2,t0
    defc:	41a306bb          	subw	a3,t1,s10
    df00:	40d6063b          	subw	a2,a2,a3
    df04:	400006b7          	lui	a3,0x40000
    df08:	00001537          	lui	a0,0x1
    df0c:	40a40533          	sub	a0,s0,a0
    df10:	74c53c23          	sd	a2,1880(a0) # 1758 <.LBB52_5+0x380>
    df14:	f9043503          	ld	a0,-112(s0)
    df18:	00065463          	bgez	a2,df20 <.LBB52_1658>
    df1c:	c00006b7          	lui	a3,0xc0000

000000000000df20 <.LBB52_1658>:
    df20:	f8a43823          	sd	a0,-112(s0)
    df24:	00001537          	lui	a0,0x1
    df28:	40a40533          	sub	a0,s0,a0
    df2c:	74d53823          	sd	a3,1872(a0) # 1750 <.LBB52_5+0x378>
    df30:	cd843603          	ld	a2,-808(s0)
    df34:	f2843683          	ld	a3,-216(s0)
    df38:	00d60633          	add	a2,a2,a3
    df3c:	00160633          	add	a2,a2,ra
    df40:	41a306bb          	subw	a3,t1,s10
    df44:	40d6063b          	subw	a2,a2,a3
    df48:	400006b7          	lui	a3,0x40000
    df4c:	00001537          	lui	a0,0x1
    df50:	40a40533          	sub	a0,s0,a0
    df54:	72c53423          	sd	a2,1832(a0) # 1728 <.LBB52_5+0x350>
    df58:	f9043503          	ld	a0,-112(s0)
    df5c:	00065463          	bgez	a2,df64 <.LBB52_1660>
    df60:	c00006b7          	lui	a3,0xc0000

000000000000df64 <.LBB52_1660>:
    df64:	f8a43823          	sd	a0,-112(s0)
    df68:	00001537          	lui	a0,0x1
    df6c:	40a40533          	sub	a0,s0,a0
    df70:	72d53023          	sd	a3,1824(a0) # 1720 <.LBB52_5+0x348>
    df74:	ce043603          	ld	a2,-800(s0)
    df78:	f3043683          	ld	a3,-208(s0)
    df7c:	00d60633          	add	a2,a2,a3
    df80:	00b60633          	add	a2,a2,a1
    df84:	41a306bb          	subw	a3,t1,s10
    df88:	40d6063b          	subw	a2,a2,a3
    df8c:	400006b7          	lui	a3,0x40000
    df90:	00001537          	lui	a0,0x1
    df94:	40a40533          	sub	a0,s0,a0
    df98:	6ec53c23          	sd	a2,1784(a0) # 16f8 <.LBB52_5+0x320>
    df9c:	f9043503          	ld	a0,-112(s0)
    dfa0:	00065463          	bgez	a2,dfa8 <.LBB52_1662>
    dfa4:	c00006b7          	lui	a3,0xc0000

000000000000dfa8 <.LBB52_1662>:
    dfa8:	f8a43823          	sd	a0,-112(s0)
    dfac:	00001537          	lui	a0,0x1
    dfb0:	40a40533          	sub	a0,s0,a0
    dfb4:	6ed53823          	sd	a3,1776(a0) # 16f0 <.LBB52_5+0x318>
    dfb8:	ce843603          	ld	a2,-792(s0)
    dfbc:	f3843683          	ld	a3,-200(s0)
    dfc0:	00d60633          	add	a2,a2,a3
    dfc4:	00e60633          	add	a2,a2,a4
    dfc8:	41a306bb          	subw	a3,t1,s10
    dfcc:	40d6063b          	subw	a2,a2,a3
    dfd0:	400006b7          	lui	a3,0x40000
    dfd4:	00001537          	lui	a0,0x1
    dfd8:	40a40533          	sub	a0,s0,a0
    dfdc:	6cc53423          	sd	a2,1736(a0) # 16c8 <.LBB52_5+0x2f0>
    dfe0:	f9043503          	ld	a0,-112(s0)
    dfe4:	00065463          	bgez	a2,dfec <.LBB52_1664>
    dfe8:	c00006b7          	lui	a3,0xc0000

000000000000dfec <.LBB52_1664>:
    dfec:	00001637          	lui	a2,0x1
    dff0:	40c40633          	sub	a2,s0,a2
    dff4:	6cd63023          	sd	a3,1728(a2) # 16c0 <.LBB52_5+0x2e8>
    dff8:	f4043603          	ld	a2,-192(s0)
    dffc:	00ca0633          	add	a2,s4,a2
    e000:	01f60633          	add	a2,a2,t6
    e004:	41a306bb          	subw	a3,t1,s10
    e008:	40d606bb          	subw	a3,a2,a3
    e00c:	40000637          	lui	a2,0x40000
    e010:	00001a37          	lui	s4,0x1
    e014:	41440a33          	sub	s4,s0,s4
    e018:	62da3823          	sd	a3,1584(s4) # 1630 <.LBB52_5+0x258>
    e01c:	0006d463          	bgez	a3,e024 <.LBB52_1666>
    e020:	c0000637          	lui	a2,0xc0000

000000000000e024 <.LBB52_1666>:
    e024:	000016b7          	lui	a3,0x1
    e028:	40d406b3          	sub	a3,s0,a3
    e02c:	68c6bc23          	sd	a2,1688(a3) # 1698 <.LBB52_5+0x2c0>
    e030:	f4843603          	ld	a2,-184(s0)
    e034:	00c48633          	add	a2,s1,a2
    e038:	01b60633          	add	a2,a2,s11
    e03c:	41a306bb          	subw	a3,t1,s10
    e040:	40d606bb          	subw	a3,a2,a3
    e044:	40000637          	lui	a2,0x40000
    e048:	000014b7          	lui	s1,0x1
    e04c:	409404b3          	sub	s1,s0,s1
    e050:	62d4b023          	sd	a3,1568(s1) # 1620 <.LBB52_5+0x248>
    e054:	0006d463          	bgez	a3,e05c <.LBB52_1668>
    e058:	c0000637          	lui	a2,0xc0000

000000000000e05c <.LBB52_1668>:
    e05c:	000016b7          	lui	a3,0x1
    e060:	40d406b3          	sub	a3,s0,a3
    e064:	66c6bc23          	sd	a2,1656(a3) # 1678 <.LBB52_5+0x2a0>
    e068:	d0043603          	ld	a2,-768(s0)
    e06c:	f5043683          	ld	a3,-176(s0)
    e070:	00d60633          	add	a2,a2,a3
    e074:	01060633          	add	a2,a2,a6
    e078:	41a306bb          	subw	a3,t1,s10
    e07c:	40d606bb          	subw	a3,a2,a3
    e080:	40000637          	lui	a2,0x40000
    e084:	0006d463          	bgez	a3,e08c <.LBB52_1670>
    e088:	c0000637          	lui	a2,0xc0000

000000000000e08c <.LBB52_1670>:
    e08c:	000014b7          	lui	s1,0x1
    e090:	409404b3          	sub	s1,s0,s1
    e094:	66c4b023          	sd	a2,1632(s1) # 1660 <.LBB52_5+0x288>
    e098:	f5843603          	ld	a2,-168(s0)
    e09c:	00cf0633          	add	a2,t5,a2
    e0a0:	00a60633          	add	a2,a2,a0
    e0a4:	41a30f3b          	subw	t5,t1,s10
    e0a8:	41e6063b          	subw	a2,a2,t5
    e0ac:	40000f37          	lui	t5,0x40000
    e0b0:	00065463          	bgez	a2,e0b8 <.LBB52_1672>
    e0b4:	c0000f37          	lui	t5,0xc0000

000000000000e0b8 <.LBB52_1672>:
    e0b8:	000014b7          	lui	s1,0x1
    e0bc:	409404b3          	sub	s1,s0,s1
    e0c0:	65e4b023          	sd	t5,1600(s1) # 1640 <.LBB52_5+0x268>
    e0c4:	f8843f03          	ld	t5,-120(s0)
    e0c8:	01e90f33          	add	t5,s2,t5
    e0cc:	011f0f33          	add	t5,t5,a7
    e0d0:	41a3033b          	subw	t1,t1,s10
    e0d4:	406f093b          	subw	s2,t5,t1
    e0d8:	40000337          	lui	t1,0x40000
    e0dc:	00095463          	bgez	s2,e0e4 <.LBB52_1674>
    e0e0:	c0000337          	lui	t1,0xc0000

000000000000e0e4 <.LBB52_1674>:
    e0e4:	00001f37          	lui	t5,0x1
    e0e8:	41e40f33          	sub	t5,s0,t5
    e0ec:	606f3423          	sd	t1,1544(t5) # 1608 <.LBB52_5+0x230>
    e0f0:	d1843303          	ld	t1,-744(s0)
    e0f4:	b0843f03          	ld	t5,-1272(s0)
    e0f8:	01e30333          	add	t1,t1,t5
    e0fc:	01300f13          	li	t5,19
    e100:	03e787b3          	mul	a5,a5,t5
    e104:	b0043f03          	ld	t5,-1280(s0)
    e108:	01e30333          	add	t1,t1,t5
    e10c:	41a78f3b          	subw	t5,a5,s10
    e110:	41e3033b          	subw	t1,t1,t5
    e114:	40000f37          	lui	t5,0x40000
    e118:	cc643c23          	sd	t1,-808(s0)
    e11c:	00035463          	bgez	t1,e124 <.LBB52_1676>
    e120:	c0000f37          	lui	t5,0xc0000

000000000000e124 <.LBB52_1676>:
    e124:	cde43423          	sd	t5,-824(s0)
    e128:	d2043303          	ld	t1,-736(s0)
    e12c:	af843f03          	ld	t5,-1288(s0)
    e130:	01e30333          	add	t1,t1,t5
    e134:	af043f03          	ld	t5,-1296(s0)
    e138:	01e30333          	add	t1,t1,t5
    e13c:	41a78f3b          	subw	t5,a5,s10
    e140:	41e3033b          	subw	t1,t1,t5
    e144:	40000f37          	lui	t5,0x40000
    e148:	ca643c23          	sd	t1,-840(s0)
    e14c:	00035463          	bgez	t1,e154 <.LBB52_1678>
    e150:	c0000f37          	lui	t5,0xc0000

000000000000e154 <.LBB52_1678>:
    e154:	cbe43423          	sd	t5,-856(s0)
    e158:	d2843303          	ld	t1,-728(s0)
    e15c:	ae843f03          	ld	t5,-1304(s0)
    e160:	01e30333          	add	t1,t1,t5
    e164:	ae043f03          	ld	t5,-1312(s0)
    e168:	01e30333          	add	t1,t1,t5
    e16c:	41a78f3b          	subw	t5,a5,s10
    e170:	41e3033b          	subw	t1,t1,t5
    e174:	40000f37          	lui	t5,0x40000
    e178:	c8643c23          	sd	t1,-872(s0)
    e17c:	00035463          	bgez	t1,e184 <.LBB52_1680>
    e180:	c0000f37          	lui	t5,0xc0000

000000000000e184 <.LBB52_1680>:
    e184:	c9e43423          	sd	t5,-888(s0)
    e188:	d3043303          	ld	t1,-720(s0)
    e18c:	ad843f03          	ld	t5,-1320(s0)
    e190:	01e30333          	add	t1,t1,t5
    e194:	ad043f03          	ld	t5,-1328(s0)
    e198:	01e30333          	add	t1,t1,t5
    e19c:	41a78f3b          	subw	t5,a5,s10
    e1a0:	41e3033b          	subw	t1,t1,t5
    e1a4:	40000f37          	lui	t5,0x40000
    e1a8:	c8643023          	sd	t1,-896(s0)
    e1ac:	00035463          	bgez	t1,e1b4 <.LBB52_1682>
    e1b0:	c0000f37          	lui	t5,0xc0000

000000000000e1b4 <.LBB52_1682>:
    e1b4:	c7e43c23          	sd	t5,-904(s0)
    e1b8:	d3843303          	ld	t1,-712(s0)
    e1bc:	ac843f03          	ld	t5,-1336(s0)
    e1c0:	01e30333          	add	t1,t1,t5
    e1c4:	ac043f03          	ld	t5,-1344(s0)
    e1c8:	01e30333          	add	t1,t1,t5
    e1cc:	41a78f3b          	subw	t5,a5,s10
    e1d0:	41e3033b          	subw	t1,t1,t5
    e1d4:	40000f37          	lui	t5,0x40000
    e1d8:	c8643823          	sd	t1,-880(s0)
    e1dc:	00035463          	bgez	t1,e1e4 <.LBB52_1684>
    e1e0:	c0000f37          	lui	t5,0xc0000

000000000000e1e4 <.LBB52_1684>:
    e1e4:	c7e43823          	sd	t5,-912(s0)
    e1e8:	d4043303          	ld	t1,-704(s0)
    e1ec:	ab843f03          	ld	t5,-1352(s0)
    e1f0:	01e30333          	add	t1,t1,t5
    e1f4:	b2843f03          	ld	t5,-1240(s0)
    e1f8:	01e30333          	add	t1,t1,t5
    e1fc:	41a78f3b          	subw	t5,a5,s10
    e200:	41e3033b          	subw	t1,t1,t5
    e204:	40000f37          	lui	t5,0x40000
    e208:	ca643023          	sd	t1,-864(s0)
    e20c:	00035463          	bgez	t1,e214 <.LBB52_1686>
    e210:	c0000f37          	lui	t5,0xc0000

000000000000e214 <.LBB52_1686>:
    e214:	c7e43423          	sd	t5,-920(s0)
    e218:	d4843303          	ld	t1,-696(s0)
    e21c:	ab043f03          	ld	t5,-1360(s0)
    e220:	01e30333          	add	t1,t1,t5
    e224:	b2043f03          	ld	t5,-1248(s0)
    e228:	01e30333          	add	t1,t1,t5
    e22c:	41a78f3b          	subw	t5,a5,s10
    e230:	41e3033b          	subw	t1,t1,t5
    e234:	40000f37          	lui	t5,0x40000
    e238:	ca643823          	sd	t1,-848(s0)
    e23c:	00035463          	bgez	t1,e244 <.LBB52_1688>
    e240:	c0000f37          	lui	t5,0xc0000

000000000000e244 <.LBB52_1688>:
    e244:	c7e43023          	sd	t5,-928(s0)
    e248:	d5043303          	ld	t1,-688(s0)
    e24c:	aa843f03          	ld	t5,-1368(s0)
    e250:	01e30333          	add	t1,t1,t5
    e254:	b1843f03          	ld	t5,-1256(s0)
    e258:	01e30333          	add	t1,t1,t5
    e25c:	41a78f3b          	subw	t5,a5,s10
    e260:	41e3033b          	subw	t1,t1,t5
    e264:	40000f37          	lui	t5,0x40000
    e268:	cc643023          	sd	t1,-832(s0)
    e26c:	00035463          	bgez	t1,e274 <.LBB52_1690>
    e270:	c0000f37          	lui	t5,0xc0000

000000000000e274 <.LBB52_1690>:
    e274:	c5e43c23          	sd	t5,-936(s0)
    e278:	d5843303          	ld	t1,-680(s0)
    e27c:	aa043f03          	ld	t5,-1376(s0)
    e280:	01e30333          	add	t1,t1,t5
    e284:	a9843f03          	ld	t5,-1384(s0)
    e288:	01e30333          	add	t1,t1,t5
    e28c:	41a78f3b          	subw	t5,a5,s10
    e290:	41e3033b          	subw	t1,t1,t5
    e294:	40000f37          	lui	t5,0x40000
    e298:	cc643823          	sd	t1,-816(s0)
    e29c:	00035463          	bgez	t1,e2a4 <.LBB52_1692>
    e2a0:	c0000f37          	lui	t5,0xc0000

000000000000e2a4 <.LBB52_1692>:
    e2a4:	9be43023          	sd	t5,-1632(s0)
    e2a8:	d6043303          	ld	t1,-672(s0)
    e2ac:	a9043f03          	ld	t5,-1392(s0)
    e2b0:	01e30333          	add	t1,t1,t5
    e2b4:	b1043f03          	ld	t5,-1264(s0)
    e2b8:	01e30333          	add	t1,t1,t5
    e2bc:	41a78f3b          	subw	t5,a5,s10
    e2c0:	41e3033b          	subw	t1,t1,t5
    e2c4:	40000f37          	lui	t5,0x40000
    e2c8:	ce643023          	sd	t1,-800(s0)
    e2cc:	00035463          	bgez	t1,e2d4 <.LBB52_1694>
    e2d0:	c0000f37          	lui	t5,0xc0000

000000000000e2d4 <.LBB52_1694>:
    e2d4:	97e43c23          	sd	t5,-1672(s0)
    e2d8:	d6843303          	ld	t1,-664(s0)
    e2dc:	b3043f03          	ld	t5,-1232(s0)
    e2e0:	01e30333          	add	t1,t1,t5
    e2e4:	b6043f03          	ld	t5,-1184(s0)
    e2e8:	01e30333          	add	t1,t1,t5
    e2ec:	41a78f3b          	subw	t5,a5,s10
    e2f0:	41e3033b          	subw	t1,t1,t5
    e2f4:	40000f37          	lui	t5,0x40000
    e2f8:	ce643423          	sd	t1,-792(s0)
    e2fc:	00035463          	bgez	t1,e304 <.LBB52_1696>
    e300:	c0000f37          	lui	t5,0xc0000

000000000000e304 <.LBB52_1696>:
    e304:	95e43823          	sd	t5,-1712(s0)
    e308:	d7043303          	ld	t1,-656(s0)
    e30c:	b3843f03          	ld	t5,-1224(s0)
    e310:	01e30333          	add	t1,t1,t5
    e314:	b6843f03          	ld	t5,-1176(s0)
    e318:	01e30333          	add	t1,t1,t5
    e31c:	41a78f3b          	subw	t5,a5,s10
    e320:	41e3033b          	subw	t1,t1,t5
    e324:	40000f37          	lui	t5,0x40000
    e328:	ce643823          	sd	t1,-784(s0)
    e32c:	00035463          	bgez	t1,e334 <.LBB52_1698>
    e330:	c0000f37          	lui	t5,0xc0000

000000000000e334 <.LBB52_1698>:
    e334:	93e43423          	sd	t5,-1752(s0)
    e338:	d7843303          	ld	t1,-648(s0)
    e33c:	b4043f03          	ld	t5,-1216(s0)
    e340:	01e30333          	add	t1,t1,t5
    e344:	b7843f03          	ld	t5,-1160(s0)
    e348:	01e30333          	add	t1,t1,t5
    e34c:	41a78f3b          	subw	t5,a5,s10
    e350:	41e3033b          	subw	t1,t1,t5
    e354:	40000f37          	lui	t5,0x40000
    e358:	ce643c23          	sd	t1,-776(s0)
    e35c:	00035463          	bgez	t1,e364 <.LBB52_1700>
    e360:	c0000f37          	lui	t5,0xc0000

000000000000e364 <.LBB52_1700>:
    e364:	91e43023          	sd	t5,-1792(s0)
    e368:	d8043303          	ld	t1,-640(s0)
    e36c:	b4843f03          	ld	t5,-1208(s0)
    e370:	01e30333          	add	t1,t1,t5
    e374:	b8043f03          	ld	t5,-1152(s0)
    e378:	01e30333          	add	t1,t1,t5
    e37c:	41a78f3b          	subw	t5,a5,s10
    e380:	41e3033b          	subw	t1,t1,t5
    e384:	40000f37          	lui	t5,0x40000
    e388:	d0643023          	sd	t1,-768(s0)
    e38c:	00035463          	bgez	t1,e394 <.LBB52_1702>
    e390:	c0000f37          	lui	t5,0xc0000

000000000000e394 <.LBB52_1702>:
    e394:	8fe43023          	sd	t5,-1824(s0)
    e398:	d8843303          	ld	t1,-632(s0)
    e39c:	b5043f03          	ld	t5,-1200(s0)
    e3a0:	01e30333          	add	t1,t1,t5
    e3a4:	b8843f03          	ld	t5,-1144(s0)
    e3a8:	01e30333          	add	t1,t1,t5
    e3ac:	41a78f3b          	subw	t5,a5,s10
    e3b0:	41e3033b          	subw	t1,t1,t5
    e3b4:	40000f37          	lui	t5,0x40000
    e3b8:	d0643423          	sd	t1,-760(s0)
    e3bc:	00035463          	bgez	t1,e3c4 <.LBB52_1704>
    e3c0:	c0000f37          	lui	t5,0xc0000

000000000000e3c4 <.LBB52_1704>:
    e3c4:	8de43023          	sd	t5,-1856(s0)
    e3c8:	d9043303          	ld	t1,-624(s0)
    e3cc:	b5843f03          	ld	t5,-1192(s0)
    e3d0:	01e30333          	add	t1,t1,t5
    e3d4:	b9043f03          	ld	t5,-1136(s0)
    e3d8:	01e30333          	add	t1,t1,t5
    e3dc:	41a78f3b          	subw	t5,a5,s10
    e3e0:	41e3033b          	subw	t1,t1,t5
    e3e4:	40000f37          	lui	t5,0x40000
    e3e8:	d0643823          	sd	t1,-752(s0)
    e3ec:	00035463          	bgez	t1,e3f4 <.LBB52_1706>
    e3f0:	c0000f37          	lui	t5,0xc0000

000000000000e3f4 <.LBB52_1706>:
    e3f4:	89e43c23          	sd	t5,-1896(s0)
    e3f8:	d9843303          	ld	t1,-616(s0)
    e3fc:	ee843f03          	ld	t5,-280(s0)
    e400:	01e30333          	add	t1,t1,t5
    e404:	01930333          	add	t1,t1,s9
    e408:	41a78f3b          	subw	t5,a5,s10
    e40c:	41e3033b          	subw	t1,t1,t5
    e410:	40000f37          	lui	t5,0x40000
    e414:	d0643c23          	sd	t1,-744(s0)
    e418:	00035463          	bgez	t1,e420 <.LBB52_1708>
    e41c:	c0000f37          	lui	t5,0xc0000

000000000000e420 <.LBB52_1708>:
    e420:	87e43823          	sd	t5,-1936(s0)
    e424:	da043303          	ld	t1,-608(s0)
    e428:	ef043f03          	ld	t5,-272(s0)
    e42c:	01e30333          	add	t1,t1,t5
    e430:	01830333          	add	t1,t1,s8
    e434:	41a78f3b          	subw	t5,a5,s10
    e438:	41e3033b          	subw	t1,t1,t5
    e43c:	40000f37          	lui	t5,0x40000
    e440:	d2643023          	sd	t1,-736(s0)
    e444:	00035463          	bgez	t1,e44c <.LBB52_1710>
    e448:	c0000f37          	lui	t5,0xc0000

000000000000e44c <.LBB52_1710>:
    e44c:	85e43423          	sd	t5,-1976(s0)
    e450:	da843303          	ld	t1,-600(s0)
    e454:	ef843f03          	ld	t5,-264(s0)
    e458:	01e30333          	add	t1,t1,t5
    e45c:	01730333          	add	t1,t1,s7
    e460:	41a78f3b          	subw	t5,a5,s10
    e464:	41e3033b          	subw	t1,t1,t5
    e468:	40000f37          	lui	t5,0x40000
    e46c:	d2643423          	sd	t1,-728(s0)
    e470:	00035463          	bgez	t1,e478 <.LBB52_1712>
    e474:	c0000f37          	lui	t5,0xc0000

000000000000e478 <.LBB52_1712>:
    e478:	83e43023          	sd	t5,-2016(s0)
    e47c:	db043303          	ld	t1,-592(s0)
    e480:	f0043f03          	ld	t5,-256(s0)
    e484:	01e30333          	add	t1,t1,t5
    e488:	01630333          	add	t1,t1,s6
    e48c:	41a78f3b          	subw	t5,a5,s10
    e490:	41e3033b          	subw	t1,t1,t5
    e494:	40000f37          	lui	t5,0x40000
    e498:	d2643823          	sd	t1,-720(s0)
    e49c:	00035463          	bgez	t1,e4a4 <.LBB52_1714>
    e4a0:	c0000f37          	lui	t5,0xc0000

000000000000e4a4 <.LBB52_1714>:
    e4a4:	00001337          	lui	t1,0x1
    e4a8:	40640333          	sub	t1,s0,t1
    e4ac:	7fe33c23          	sd	t5,2040(t1) # 17f8 <.LBB52_5+0x420>
    e4b0:	db843303          	ld	t1,-584(s0)
    e4b4:	f0843f03          	ld	t5,-248(s0)
    e4b8:	01e30333          	add	t1,t1,t5
    e4bc:	01530333          	add	t1,t1,s5
    e4c0:	41a78f3b          	subw	t5,a5,s10
    e4c4:	41e3033b          	subw	t1,t1,t5
    e4c8:	40000f37          	lui	t5,0x40000
    e4cc:	d2643c23          	sd	t1,-712(s0)
    e4d0:	00035463          	bgez	t1,e4d8 <.LBB52_1716>
    e4d4:	c0000f37          	lui	t5,0xc0000

000000000000e4d8 <.LBB52_1716>:
    e4d8:	00001337          	lui	t1,0x1
    e4dc:	40640333          	sub	t1,s0,t1
    e4e0:	7de33823          	sd	t5,2000(t1) # 17d0 <.LBB52_5+0x3f8>
    e4e4:	dc043303          	ld	t1,-576(s0)
    e4e8:	f1043f03          	ld	t5,-240(s0)
    e4ec:	01e30333          	add	t1,t1,t5
    e4f0:	01d30333          	add	t1,t1,t4
    e4f4:	41a78f3b          	subw	t5,a5,s10
    e4f8:	41e3033b          	subw	t1,t1,t5
    e4fc:	40000f37          	lui	t5,0x40000
    e500:	d4643023          	sd	t1,-704(s0)
    e504:	00035463          	bgez	t1,e50c <.LBB52_1718>
    e508:	c0000f37          	lui	t5,0xc0000

000000000000e50c <.LBB52_1718>:
    e50c:	00001337          	lui	t1,0x1
    e510:	40640333          	sub	t1,s0,t1
    e514:	7be33423          	sd	t5,1960(t1) # 17a8 <.LBB52_5+0x3d0>
    e518:	dc843303          	ld	t1,-568(s0)
    e51c:	f1843f03          	ld	t5,-232(s0)
    e520:	01e30333          	add	t1,t1,t5
    e524:	01c30333          	add	t1,t1,t3
    e528:	41a78f3b          	subw	t5,a5,s10
    e52c:	41e3033b          	subw	t1,t1,t5
    e530:	40000f37          	lui	t5,0x40000
    e534:	d4643823          	sd	t1,-688(s0)
    e538:	00035463          	bgez	t1,e540 <.LBB52_1720>
    e53c:	c0000f37          	lui	t5,0xc0000

000000000000e540 <.LBB52_1720>:
    e540:	00001337          	lui	t1,0x1
    e544:	40640333          	sub	t1,s0,t1
    e548:	77e33c23          	sd	t5,1912(t1) # 1778 <.LBB52_5+0x3a0>
    e54c:	dd043303          	ld	t1,-560(s0)
    e550:	f2043f03          	ld	t5,-224(s0)
    e554:	01e30333          	add	t1,t1,t5
    e558:	00530333          	add	t1,t1,t0
    e55c:	41a78f3b          	subw	t5,a5,s10
    e560:	41e3033b          	subw	t1,t1,t5
    e564:	40000f37          	lui	t5,0x40000
    e568:	d6643023          	sd	t1,-672(s0)
    e56c:	00035463          	bgez	t1,e574 <.LBB52_1722>
    e570:	c0000f37          	lui	t5,0xc0000

000000000000e574 <.LBB52_1722>:
    e574:	00001337          	lui	t1,0x1
    e578:	40640333          	sub	t1,s0,t1
    e57c:	75e33423          	sd	t5,1864(t1) # 1748 <.LBB52_5+0x370>
    e580:	dd843303          	ld	t1,-552(s0)
    e584:	f2843f03          	ld	t5,-216(s0)
    e588:	01e30333          	add	t1,t1,t5
    e58c:	00130333          	add	t1,t1,ra
    e590:	41a78f3b          	subw	t5,a5,s10
    e594:	41e3033b          	subw	t1,t1,t5
    e598:	40000f37          	lui	t5,0x40000
    e59c:	d6643823          	sd	t1,-656(s0)
    e5a0:	00035463          	bgez	t1,e5a8 <.LBB52_1724>
    e5a4:	c0000f37          	lui	t5,0xc0000

000000000000e5a8 <.LBB52_1724>:
    e5a8:	00001337          	lui	t1,0x1
    e5ac:	40640333          	sub	t1,s0,t1
    e5b0:	71e33c23          	sd	t5,1816(t1) # 1718 <.LBB52_5+0x340>
    e5b4:	de043303          	ld	t1,-544(s0)
    e5b8:	f3043f03          	ld	t5,-208(s0)
    e5bc:	01e30333          	add	t1,t1,t5
    e5c0:	00b30333          	add	t1,t1,a1
    e5c4:	41a78f3b          	subw	t5,a5,s10
    e5c8:	41e3033b          	subw	t1,t1,t5
    e5cc:	40000f37          	lui	t5,0x40000
    e5d0:	d8643023          	sd	t1,-640(s0)
    e5d4:	00035463          	bgez	t1,e5dc <.LBB52_1726>
    e5d8:	c0000f37          	lui	t5,0xc0000

000000000000e5dc <.LBB52_1726>:
    e5dc:	00001337          	lui	t1,0x1
    e5e0:	40640333          	sub	t1,s0,t1
    e5e4:	6fe33423          	sd	t5,1768(t1) # 16e8 <.LBB52_5+0x310>
    e5e8:	de843303          	ld	t1,-536(s0)
    e5ec:	f3843f03          	ld	t5,-200(s0)
    e5f0:	01e30333          	add	t1,t1,t5
    e5f4:	00e30333          	add	t1,t1,a4
    e5f8:	41a78f3b          	subw	t5,a5,s10
    e5fc:	41e3033b          	subw	t1,t1,t5
    e600:	40000f37          	lui	t5,0x40000
    e604:	d8643823          	sd	t1,-624(s0)
    e608:	00035463          	bgez	t1,e610 <.LBB52_1728>
    e60c:	c0000f37          	lui	t5,0xc0000

000000000000e610 <.LBB52_1728>:
    e610:	00001337          	lui	t1,0x1
    e614:	40640333          	sub	t1,s0,t1
    e618:	6be33c23          	sd	t5,1720(t1) # 16b8 <.LBB52_5+0x2e0>
    e61c:	f4043303          	ld	t1,-192(s0)
    e620:	b7043f03          	ld	t5,-1168(s0)
    e624:	006f0333          	add	t1,t5,t1
    e628:	01f30333          	add	t1,t1,t6
    e62c:	41a78f3b          	subw	t5,a5,s10
    e630:	41e30f3b          	subw	t5,t1,t5
    e634:	40000337          	lui	t1,0x40000
    e638:	000014b7          	lui	s1,0x1
    e63c:	409404b3          	sub	s1,s0,s1
    e640:	63e4b423          	sd	t5,1576(s1) # 1628 <.LBB52_5+0x250>
    e644:	000f5463          	bgez	t5,e64c <.LBB52_1730>
    e648:	c0000337          	lui	t1,0xc0000

000000000000e64c <.LBB52_1730>:
    e64c:	da643023          	sd	t1,-608(s0)
    e650:	f4843303          	ld	t1,-184(s0)
    e654:	df043f03          	ld	t5,-528(s0)
    e658:	006f0333          	add	t1,t5,t1
    e65c:	01b30333          	add	t1,t1,s11
    e660:	41a78f3b          	subw	t5,a5,s10
    e664:	41e30f3b          	subw	t5,t1,t5
    e668:	40000337          	lui	t1,0x40000
    e66c:	000014b7          	lui	s1,0x1
    e670:	409404b3          	sub	s1,s0,s1
    e674:	61e4bc23          	sd	t5,1560(s1) # 1618 <.LBB52_5+0x240>
    e678:	000f5463          	bgez	t5,e680 <.LBB52_1732>
    e67c:	c0000337          	lui	t1,0xc0000

000000000000e680 <.LBB52_1732>:
    e680:	da643823          	sd	t1,-592(s0)
    e684:	f5043303          	ld	t1,-176(s0)
    e688:	df843f03          	ld	t5,-520(s0)
    e68c:	006f0333          	add	t1,t5,t1
    e690:	01030333          	add	t1,t1,a6
    e694:	41a78f3b          	subw	t5,a5,s10
    e698:	41e304bb          	subw	s1,t1,t5
    e69c:	40000337          	lui	t1,0x40000
    e6a0:	0004d463          	bgez	s1,e6a8 <.LBB52_1734>
    e6a4:	c0000337          	lui	t1,0xc0000

000000000000e6a8 <.LBB52_1734>:
    e6a8:	dc643023          	sd	t1,-576(s0)
    e6ac:	e0043303          	ld	t1,-512(s0)
    e6b0:	f5843f03          	ld	t5,-168(s0)
    e6b4:	01e30333          	add	t1,t1,t5
    e6b8:	00a30333          	add	t1,t1,a0
    e6bc:	41a78f3b          	subw	t5,a5,s10
    e6c0:	41e3033b          	subw	t1,t1,t5
    e6c4:	40000f37          	lui	t5,0x40000
    e6c8:	00035463          	bgez	t1,e6d0 <.LBB52_1736>
    e6cc:	c0000f37          	lui	t5,0xc0000

000000000000e6d0 <.LBB52_1736>:
    e6d0:	dde43823          	sd	t5,-560(s0)
    e6d4:	f8843f03          	ld	t5,-120(s0)
    e6d8:	e0843a03          	ld	s4,-504(s0)
    e6dc:	01ea0f33          	add	t5,s4,t5
    e6e0:	011f0f33          	add	t5,t5,a7
    e6e4:	41a787bb          	subw	a5,a5,s10
    e6e8:	40ff0a3b          	subw	s4,t5,a5
    e6ec:	400007b7          	lui	a5,0x40000
    e6f0:	000a5463          	bgez	s4,e6f8 <.LBB52_1738>
    e6f4:	c00007b7          	lui	a5,0xc0000

000000000000e6f8 <.LBB52_1738>:
    e6f8:	def43023          	sd	a5,-544(s0)
    e6fc:	b0843783          	ld	a5,-1272(s0)
    e700:	00f987b3          	add	a5,s3,a5
    e704:	01300f13          	li	t5,19
    e708:	000019b7          	lui	s3,0x1
    e70c:	413409b3          	sub	s3,s0,s3
    e710:	7809b983          	ld	s3,1920(s3) # 1780 <.LBB52_5+0x3a8>
    e714:	03e989b3          	mul	s3,s3,t5
    e718:	b0043f03          	ld	t5,-1280(s0)
    e71c:	01e787b3          	add	a5,a5,t5
    e720:	41a98f3b          	subw	t5,s3,s10
    e724:	41e787bb          	subw	a5,a5,t5
    e728:	40000f37          	lui	t5,0x40000
    e72c:	c4f43423          	sd	a5,-952(s0)
    e730:	0007d463          	bgez	a5,e738 <.LBB52_1740>
    e734:	c0000f37          	lui	t5,0xc0000

000000000000e738 <.LBB52_1740>:
    e738:	c5e43023          	sd	t5,-960(s0)
    e73c:	e1843783          	ld	a5,-488(s0)
    e740:	af843f03          	ld	t5,-1288(s0)
    e744:	01e787b3          	add	a5,a5,t5
    e748:	af043f03          	ld	t5,-1296(s0)
    e74c:	01e787b3          	add	a5,a5,t5
    e750:	41a98f3b          	subw	t5,s3,s10
    e754:	41e787bb          	subw	a5,a5,t5
    e758:	40000f37          	lui	t5,0x40000
    e75c:	c2f43c23          	sd	a5,-968(s0)
    e760:	0007d463          	bgez	a5,e768 <.LBB52_1742>
    e764:	c0000f37          	lui	t5,0xc0000

000000000000e768 <.LBB52_1742>:
    e768:	c3e43823          	sd	t5,-976(s0)
    e76c:	e2043783          	ld	a5,-480(s0)
    e770:	ae843f03          	ld	t5,-1304(s0)
    e774:	01e787b3          	add	a5,a5,t5
    e778:	ae043f03          	ld	t5,-1312(s0)
    e77c:	01e787b3          	add	a5,a5,t5
    e780:	41a98f3b          	subw	t5,s3,s10
    e784:	41e787bb          	subw	a5,a5,t5
    e788:	40000f37          	lui	t5,0x40000
    e78c:	bef43c23          	sd	a5,-1032(s0)
    e790:	0007d463          	bgez	a5,e798 <.LBB52_1744>
    e794:	c0000f37          	lui	t5,0xc0000

000000000000e798 <.LBB52_1744>:
    e798:	bfe43823          	sd	t5,-1040(s0)
    e79c:	e2843783          	ld	a5,-472(s0)
    e7a0:	ad843f03          	ld	t5,-1320(s0)
    e7a4:	01e787b3          	add	a5,a5,t5
    e7a8:	ad043f03          	ld	t5,-1328(s0)
    e7ac:	01e787b3          	add	a5,a5,t5
    e7b0:	41a98f3b          	subw	t5,s3,s10
    e7b4:	41e787bb          	subw	a5,a5,t5
    e7b8:	40000f37          	lui	t5,0x40000
    e7bc:	bcf43c23          	sd	a5,-1064(s0)
    e7c0:	0007d463          	bgez	a5,e7c8 <.LBB52_1746>
    e7c4:	c0000f37          	lui	t5,0xc0000

000000000000e7c8 <.LBB52_1746>:
    e7c8:	bde43823          	sd	t5,-1072(s0)
    e7cc:	e3043783          	ld	a5,-464(s0)
    e7d0:	ac843f03          	ld	t5,-1336(s0)
    e7d4:	01e787b3          	add	a5,a5,t5
    e7d8:	ac043f03          	ld	t5,-1344(s0)
    e7dc:	01e787b3          	add	a5,a5,t5
    e7e0:	41a98f3b          	subw	t5,s3,s10
    e7e4:	41e787bb          	subw	a5,a5,t5
    e7e8:	40000f37          	lui	t5,0x40000
    e7ec:	baf43c23          	sd	a5,-1096(s0)
    e7f0:	0007d463          	bgez	a5,e7f8 <.LBB52_1748>
    e7f4:	c0000f37          	lui	t5,0xc0000

000000000000e7f8 <.LBB52_1748>:
    e7f8:	bbe43823          	sd	t5,-1104(s0)
    e7fc:	e3843783          	ld	a5,-456(s0)
    e800:	ab843f03          	ld	t5,-1352(s0)
    e804:	01e787b3          	add	a5,a5,t5
    e808:	b2843f03          	ld	t5,-1240(s0)
    e80c:	01e787b3          	add	a5,a5,t5
    e810:	41a98f3b          	subw	t5,s3,s10
    e814:	41e787bb          	subw	a5,a5,t5
    e818:	40000f37          	lui	t5,0x40000
    e81c:	b8f43c23          	sd	a5,-1128(s0)
    e820:	0007d463          	bgez	a5,e828 <.LBB52_1750>
    e824:	c0000f37          	lui	t5,0xc0000

000000000000e828 <.LBB52_1750>:
    e828:	b7e43823          	sd	t5,-1168(s0)
    e82c:	e4043783          	ld	a5,-448(s0)
    e830:	ab043f03          	ld	t5,-1360(s0)
    e834:	01e787b3          	add	a5,a5,t5
    e838:	b2043f03          	ld	t5,-1248(s0)
    e83c:	01e787b3          	add	a5,a5,t5
    e840:	41a98f3b          	subw	t5,s3,s10
    e844:	41e787bb          	subw	a5,a5,t5
    e848:	40000f37          	lui	t5,0x40000
    e84c:	b2f43423          	sd	a5,-1240(s0)
    e850:	0007d463          	bgez	a5,e858 <.LBB52_1752>
    e854:	c0000f37          	lui	t5,0xc0000

000000000000e858 <.LBB52_1752>:
    e858:	b3e43023          	sd	t5,-1248(s0)
    e85c:	e4843783          	ld	a5,-440(s0)
    e860:	aa843f03          	ld	t5,-1368(s0)
    e864:	01e787b3          	add	a5,a5,t5
    e868:	b1843f03          	ld	t5,-1256(s0)
    e86c:	01e787b3          	add	a5,a5,t5
    e870:	41a98f3b          	subw	t5,s3,s10
    e874:	41e787bb          	subw	a5,a5,t5
    e878:	40000f37          	lui	t5,0x40000
    e87c:	b0f43c23          	sd	a5,-1256(s0)
    e880:	0007d463          	bgez	a5,e888 <.LBB52_1754>
    e884:	c0000f37          	lui	t5,0xc0000

000000000000e888 <.LBB52_1754>:
    e888:	b1e43423          	sd	t5,-1272(s0)
    e88c:	e5043783          	ld	a5,-432(s0)
    e890:	aa043f03          	ld	t5,-1376(s0)
    e894:	01e787b3          	add	a5,a5,t5
    e898:	a9843f03          	ld	t5,-1384(s0)
    e89c:	01e787b3          	add	a5,a5,t5
    e8a0:	41a98f3b          	subw	t5,s3,s10
    e8a4:	41e787bb          	subw	a5,a5,t5
    e8a8:	40000f37          	lui	t5,0x40000
    e8ac:	b0f43023          	sd	a5,-1280(s0)
    e8b0:	0007d463          	bgez	a5,e8b8 <.LBB52_1756>
    e8b4:	c0000f37          	lui	t5,0xc0000

000000000000e8b8 <.LBB52_1756>:
    e8b8:	afe43c23          	sd	t5,-1288(s0)
    e8bc:	e5843783          	ld	a5,-424(s0)
    e8c0:	a9043f03          	ld	t5,-1392(s0)
    e8c4:	01e787b3          	add	a5,a5,t5
    e8c8:	b1043f03          	ld	t5,-1264(s0)
    e8cc:	01e787b3          	add	a5,a5,t5
    e8d0:	41a98f3b          	subw	t5,s3,s10
    e8d4:	41e787bb          	subw	a5,a5,t5
    e8d8:	40000f37          	lui	t5,0x40000
    e8dc:	b0f43823          	sd	a5,-1264(s0)
    e8e0:	0007d463          	bgez	a5,e8e8 <.LBB52_1758>
    e8e4:	c0000f37          	lui	t5,0xc0000

000000000000e8e8 <.LBB52_1758>:
    e8e8:	afe43823          	sd	t5,-1296(s0)
    e8ec:	e6043783          	ld	a5,-416(s0)
    e8f0:	b3043f03          	ld	t5,-1232(s0)
    e8f4:	01e787b3          	add	a5,a5,t5
    e8f8:	b6043f03          	ld	t5,-1184(s0)
    e8fc:	01e787b3          	add	a5,a5,t5
    e900:	41a98f3b          	subw	t5,s3,s10
    e904:	41e787bb          	subw	a5,a5,t5
    e908:	40000f37          	lui	t5,0x40000
    e90c:	b6f43023          	sd	a5,-1184(s0)
    e910:	0007d463          	bgez	a5,e918 <.LBB52_1760>
    e914:	c0000f37          	lui	t5,0xc0000

000000000000e918 <.LBB52_1760>:
    e918:	b3e43823          	sd	t5,-1232(s0)
    e91c:	e6843783          	ld	a5,-408(s0)
    e920:	b3843f03          	ld	t5,-1224(s0)
    e924:	01e787b3          	add	a5,a5,t5
    e928:	b6843f03          	ld	t5,-1176(s0)
    e92c:	01e787b3          	add	a5,a5,t5
    e930:	41a98f3b          	subw	t5,s3,s10
    e934:	41e787bb          	subw	a5,a5,t5
    e938:	40000f37          	lui	t5,0x40000
    e93c:	b6f43423          	sd	a5,-1176(s0)
    e940:	0007d463          	bgez	a5,e948 <.LBB52_1762>
    e944:	c0000f37          	lui	t5,0xc0000

000000000000e948 <.LBB52_1762>:
    e948:	b3e43c23          	sd	t5,-1224(s0)
    e94c:	e7043783          	ld	a5,-400(s0)
    e950:	b4043f03          	ld	t5,-1216(s0)
    e954:	01e787b3          	add	a5,a5,t5
    e958:	b7843f03          	ld	t5,-1160(s0)
    e95c:	01e787b3          	add	a5,a5,t5
    e960:	41a98f3b          	subw	t5,s3,s10
    e964:	41e787bb          	subw	a5,a5,t5
    e968:	40000f37          	lui	t5,0x40000
    e96c:	b6f43c23          	sd	a5,-1160(s0)
    e970:	0007d463          	bgez	a5,e978 <.LBB52_1764>
    e974:	c0000f37          	lui	t5,0xc0000

000000000000e978 <.LBB52_1764>:
    e978:	b5e43023          	sd	t5,-1216(s0)
    e97c:	b4843783          	ld	a5,-1208(s0)
    e980:	e7843f03          	ld	t5,-392(s0)
    e984:	00ff07b3          	add	a5,t5,a5
    e988:	b8043f03          	ld	t5,-1152(s0)
    e98c:	01e787b3          	add	a5,a5,t5
    e990:	41a98f3b          	subw	t5,s3,s10
    e994:	41e787bb          	subw	a5,a5,t5
    e998:	40000f37          	lui	t5,0x40000
    e99c:	b8f43023          	sd	a5,-1152(s0)
    e9a0:	0007d463          	bgez	a5,e9a8 <.LBB52_1766>
    e9a4:	c0000f37          	lui	t5,0xc0000

000000000000e9a8 <.LBB52_1766>:
    e9a8:	b5e43423          	sd	t5,-1208(s0)
    e9ac:	f6043783          	ld	a5,-160(s0)
    e9b0:	b5043f03          	ld	t5,-1200(s0)
    e9b4:	01e787b3          	add	a5,a5,t5
    e9b8:	b8843f03          	ld	t5,-1144(s0)
    e9bc:	01e787b3          	add	a5,a5,t5
    e9c0:	41a98f3b          	subw	t5,s3,s10
    e9c4:	41e787bb          	subw	a5,a5,t5
    e9c8:	40000f37          	lui	t5,0x40000
    e9cc:	b8f43423          	sd	a5,-1144(s0)
    e9d0:	0007d463          	bgez	a5,e9d8 <.LBB52_1768>
    e9d4:	c0000f37          	lui	t5,0xc0000

000000000000e9d8 <.LBB52_1768>:
    e9d8:	b5e43823          	sd	t5,-1200(s0)
    e9dc:	f6843783          	ld	a5,-152(s0)
    e9e0:	b5843f03          	ld	t5,-1192(s0)
    e9e4:	01e787b3          	add	a5,a5,t5
    e9e8:	b9043f03          	ld	t5,-1136(s0)
    e9ec:	01e787b3          	add	a5,a5,t5
    e9f0:	41a98f3b          	subw	t5,s3,s10
    e9f4:	41e787bb          	subw	a5,a5,t5
    e9f8:	40000f37          	lui	t5,0x40000
    e9fc:	b8f43823          	sd	a5,-1136(s0)
    ea00:	0007d463          	bgez	a5,ea08 <.LBB52_1770>
    ea04:	c0000f37          	lui	t5,0xc0000

000000000000ea08 <.LBB52_1770>:
    ea08:	b5e43c23          	sd	t5,-1192(s0)
    ea0c:	f7043783          	ld	a5,-144(s0)
    ea10:	ee843f03          	ld	t5,-280(s0)
    ea14:	01e787b3          	add	a5,a5,t5
    ea18:	019787b3          	add	a5,a5,s9
    ea1c:	41a98f3b          	subw	t5,s3,s10
    ea20:	41e787bb          	subw	a5,a5,t5
    ea24:	40000f37          	lui	t5,0x40000
    ea28:	aef43423          	sd	a5,-1304(s0)
    ea2c:	0007d463          	bgez	a5,ea34 <.LBB52_1772>
    ea30:	c0000f37          	lui	t5,0xc0000

000000000000ea34 <.LBB52_1772>:
    ea34:	afe43023          	sd	t5,-1312(s0)
    ea38:	f7843783          	ld	a5,-136(s0)
    ea3c:	ef043f03          	ld	t5,-272(s0)
    ea40:	01e787b3          	add	a5,a5,t5
    ea44:	018787b3          	add	a5,a5,s8
    ea48:	41a98f3b          	subw	t5,s3,s10
    ea4c:	41e787bb          	subw	a5,a5,t5
    ea50:	40000f37          	lui	t5,0x40000
    ea54:	acf43c23          	sd	a5,-1320(s0)
    ea58:	0007d463          	bgez	a5,ea60 <.LBB52_1774>
    ea5c:	c0000f37          	lui	t5,0xc0000

000000000000ea60 <.LBB52_1774>:
    ea60:	ade43823          	sd	t5,-1328(s0)
    ea64:	e8043783          	ld	a5,-384(s0)
    ea68:	ef843f03          	ld	t5,-264(s0)
    ea6c:	01e787b3          	add	a5,a5,t5
    ea70:	017787b3          	add	a5,a5,s7
    ea74:	41a98f3b          	subw	t5,s3,s10
    ea78:	41e787bb          	subw	a5,a5,t5
    ea7c:	40000f37          	lui	t5,0x40000
    ea80:	acf43423          	sd	a5,-1336(s0)
    ea84:	0007d463          	bgez	a5,ea8c <.LBB52_1776>
    ea88:	c0000f37          	lui	t5,0xc0000

000000000000ea8c <.LBB52_1776>:
    ea8c:	ade43023          	sd	t5,-1344(s0)
    ea90:	e8843783          	ld	a5,-376(s0)
    ea94:	f0043f03          	ld	t5,-256(s0)
    ea98:	01e787b3          	add	a5,a5,t5
    ea9c:	016787b3          	add	a5,a5,s6
    eaa0:	41a98f3b          	subw	t5,s3,s10
    eaa4:	41e787bb          	subw	a5,a5,t5
    eaa8:	40000f37          	lui	t5,0x40000
    eaac:	aaf43c23          	sd	a5,-1352(s0)
    eab0:	0007d463          	bgez	a5,eab8 <.LBB52_1778>
    eab4:	c0000f37          	lui	t5,0xc0000

000000000000eab8 <.LBB52_1778>:
    eab8:	abe43823          	sd	t5,-1360(s0)
    eabc:	f8043783          	ld	a5,-128(s0)
    eac0:	f0843f03          	ld	t5,-248(s0)
    eac4:	01e787b3          	add	a5,a5,t5
    eac8:	015787b3          	add	a5,a5,s5
    eacc:	41a98f3b          	subw	t5,s3,s10
    ead0:	41e787bb          	subw	a5,a5,t5
    ead4:	40000f37          	lui	t5,0x40000
    ead8:	aaf43423          	sd	a5,-1368(s0)
    eadc:	0007d463          	bgez	a5,eae4 <.LBB52_1780>
    eae0:	c0000f37          	lui	t5,0xc0000

000000000000eae4 <.LBB52_1780>:
    eae4:	e9043783          	ld	a5,-368(s0)
    eae8:	f1043a83          	ld	s5,-240(s0)
    eaec:	015787b3          	add	a5,a5,s5
    eaf0:	01d787b3          	add	a5,a5,t4
    eaf4:	41a98ebb          	subw	t4,s3,s10
    eaf8:	41d78ebb          	subw	t4,a5,t4
    eafc:	40000ab7          	lui	s5,0x40000
    eb00:	e9843783          	ld	a5,-360(s0)
    eb04:	a9d43c23          	sd	t4,-1384(s0)
    eb08:	000ed463          	bgez	t4,eb10 <.LBB52_1782>
    eb0c:	c0000ab7          	lui	s5,0xc0000

000000000000eb10 <.LBB52_1782>:
    eb10:	f1843e83          	ld	t4,-232(s0)
    eb14:	01d787b3          	add	a5,a5,t4
    eb18:	01c787b3          	add	a5,a5,t3
    eb1c:	41a98e3b          	subw	t3,s3,s10
    eb20:	41c78e3b          	subw	t3,a5,t3
    eb24:	40000eb7          	lui	t4,0x40000
    eb28:	ea043783          	ld	a5,-352(s0)
    eb2c:	00001b37          	lui	s6,0x1
    eb30:	41640b33          	sub	s6,s0,s6
    eb34:	79cb3023          	sd	t3,1920(s6) # 1780 <.LBB52_5+0x3a8>
    eb38:	000e5463          	bgez	t3,eb40 <.LBB52_1784>
    eb3c:	c0000eb7          	lui	t4,0xc0000

000000000000eb40 <.LBB52_1784>:
    eb40:	f2043e03          	ld	t3,-224(s0)
    eb44:	01c787b3          	add	a5,a5,t3
    eb48:	005787b3          	add	a5,a5,t0
    eb4c:	41a982bb          	subw	t0,s3,s10
    eb50:	40578e3b          	subw	t3,a5,t0
    eb54:	400007b7          	lui	a5,0x40000
    eb58:	000e5463          	bgez	t3,eb60 <.LBB52_1786>
    eb5c:	c00007b7          	lui	a5,0xc0000

000000000000eb60 <.LBB52_1786>:
    eb60:	000012b7          	lui	t0,0x1
    eb64:	405402b3          	sub	t0,s0,t0
    eb68:	74f2b023          	sd	a5,1856(t0) # 1740 <.LBB52_5+0x368>
    eb6c:	000017b7          	lui	a5,0x1
    eb70:	40f407b3          	sub	a5,s0,a5
    eb74:	77d7b823          	sd	t4,1904(a5) # 1770 <.LBB52_5+0x398>
    eb78:	ea843783          	ld	a5,-344(s0)
    eb7c:	f2843283          	ld	t0,-216(s0)
    eb80:	005787b3          	add	a5,a5,t0
    eb84:	001787b3          	add	a5,a5,ra
    eb88:	41a982bb          	subw	t0,s3,s10
    eb8c:	405782bb          	subw	t0,a5,t0
    eb90:	400007b7          	lui	a5,0x40000
    eb94:	0002d463          	bgez	t0,eb9c <.LBB52_1788>
    eb98:	c00007b7          	lui	a5,0xc0000

000000000000eb9c <.LBB52_1788>:
    eb9c:	00001eb7          	lui	t4,0x1
    eba0:	41d40eb3          	sub	t4,s0,t4
    eba4:	70feb823          	sd	a5,1808(t4) # 1710 <.LBB52_5+0x338>
    eba8:	eb043783          	ld	a5,-336(s0)
    ebac:	f3043e83          	ld	t4,-208(s0)
    ebb0:	01d787b3          	add	a5,a5,t4
    ebb4:	00b785b3          	add	a1,a5,a1
    ebb8:	41a987bb          	subw	a5,s3,s10
    ebbc:	40f580bb          	subw	ra,a1,a5
    ebc0:	400005b7          	lui	a1,0x40000
    ebc4:	0000d463          	bgez	ra,ebcc <.LBB52_1790>
    ebc8:	c00005b7          	lui	a1,0xc0000

000000000000ebcc <.LBB52_1790>:
    ebcc:	000017b7          	lui	a5,0x1
    ebd0:	40f407b3          	sub	a5,s0,a5
    ebd4:	6eb7b023          	sd	a1,1760(a5) # 16e0 <.LBB52_5+0x308>
    ebd8:	abe43023          	sd	t5,-1376(s0)
    ebdc:	eb843583          	ld	a1,-328(s0)
    ebe0:	f3843783          	ld	a5,-200(s0)
    ebe4:	00f585b3          	add	a1,a1,a5
    ebe8:	00e585b3          	add	a1,a1,a4
    ebec:	fff8eeb7          	lui	t4,0xfff8e
    ebf0:	41a9873b          	subw	a4,s3,s10
    ebf4:	40e58d3b          	subw	s10,a1,a4
    ebf8:	400005b7          	lui	a1,0x40000
    ebfc:	ed043783          	ld	a5,-304(s0)
    ec00:	000d5463          	bgez	s10,ec08 <.LBB52_1792>
    ec04:	c00005b7          	lui	a1,0xc0000

000000000000ec08 <.LBB52_1792>:
    ec08:	00001737          	lui	a4,0x1
    ec0c:	40e40733          	sub	a4,s0,a4
    ec10:	6ab73823          	sd	a1,1712(a4) # 16b0 <.LBB52_5+0x2d8>
    ec14:	a9543823          	sd	s5,-1392(s0)
    ec18:	ec043583          	ld	a1,-320(s0)
    ec1c:	f4043703          	ld	a4,-192(s0)
    ec20:	00e585b3          	add	a1,a1,a4
    ec24:	01f585b3          	add	a1,a1,t6
    ec28:	41d9873b          	subw	a4,s3,t4
    ec2c:	40e58f3b          	subw	t5,a1,a4
    ec30:	400005b7          	lui	a1,0x40000
    ec34:	000f5463          	bgez	t5,ec3c <.LBB52_1794>
    ec38:	c00005b7          	lui	a1,0xc0000

000000000000ec3c <.LBB52_1794>:
    ec3c:	00001737          	lui	a4,0x1
    ec40:	40e40733          	sub	a4,s0,a4
    ec44:	68b73823          	sd	a1,1680(a4) # 1690 <.LBB52_5+0x2b8>
    ec48:	ec843583          	ld	a1,-312(s0)
    ec4c:	f4843703          	ld	a4,-184(s0)
    ec50:	00e585b3          	add	a1,a1,a4
    ec54:	01b585b3          	add	a1,a1,s11
    ec58:	41d9873b          	subw	a4,s3,t4
    ec5c:	40e58abb          	subw	s5,a1,a4
    ec60:	40000db7          	lui	s11,0x40000
    ec64:	000ad463          	bgez	s5,ec6c <.LBB52_1796>
    ec68:	c0000db7          	lui	s11,0xc0000

000000000000ec6c <.LBB52_1796>:
    ec6c:	f5043583          	ld	a1,-176(s0)
    ec70:	00b785b3          	add	a1,a5,a1
    ec74:	010585b3          	add	a1,a1,a6
    ec78:	41d9873b          	subw	a4,s3,t4
    ec7c:	40e587bb          	subw	a5,a1,a4
    ec80:	400005b7          	lui	a1,0x40000
    ec84:	0007d463          	bgez	a5,ec8c <.LBB52_1798>
    ec88:	c00005b7          	lui	a1,0xc0000

000000000000ec8c <.LBB52_1798>:
    ec8c:	00001737          	lui	a4,0x1
    ec90:	40e40733          	sub	a4,s0,a4
    ec94:	64b73c23          	sd	a1,1624(a4) # 1658 <.LBB52_5+0x280>
    ec98:	ed843583          	ld	a1,-296(s0)
    ec9c:	f5843703          	ld	a4,-168(s0)
    eca0:	00e585b3          	add	a1,a1,a4
    eca4:	00a58533          	add	a0,a1,a0
    eca8:	41d985bb          	subw	a1,s3,t4
    ecac:	40b5073b          	subw	a4,a0,a1
    ecb0:	40000537          	lui	a0,0x40000
    ecb4:	40000837          	lui	a6,0x40000
    ecb8:	00075463          	bgez	a4,ecc0 <.LBB52_1800>
    ecbc:	c0000537          	lui	a0,0xc0000

000000000000ecc0 <.LBB52_1800>:
    ecc0:	000015b7          	lui	a1,0x1
    ecc4:	40b405b3          	sub	a1,s0,a1
    ecc8:	62a5bc23          	sd	a0,1592(a1) # 1638 <.LBB52_5+0x260>
    eccc:	ee043503          	ld	a0,-288(s0)
    ecd0:	f8843583          	ld	a1,-120(s0)
    ecd4:	00b50533          	add	a0,a0,a1
    ecd8:	01150533          	add	a0,a0,a7
    ecdc:	41d985bb          	subw	a1,s3,t4
    ece0:	40b50fbb          	subw	t6,a0,a1
    ece4:	000fd463          	bgez	t6,ecec <.LBB52_1802>
    ece8:	c0000837          	lui	a6,0xc0000

000000000000ecec <.LBB52_1802>:
    ecec:	a8043583          	ld	a1,-1408(s0)
    ecf0:	02b38533          	mul	a0,t2,a1
    ecf4:	00058393          	mv	t2,a1
    ecf8:	00100993          	li	s3,1
    ecfc:	02799993          	slli	s3,s3,0x27
    ed00:	000015b7          	lui	a1,0x1
    ed04:	40b405b3          	sub	a1,s0,a1
    ed08:	6105b583          	ld	a1,1552(a1) # 1610 <.LBB52_5+0x238>
    ed0c:	013585b3          	add	a1,a1,s3
    ed10:	00b50533          	add	a0,a0,a1
    ed14:	42855513          	srai	a0,a0,0x28
    ed18:	f8200e93          	li	t4,-126
    ed1c:	f8a43423          	sd	a0,-120(s0)
    ed20:	000015b7          	lui	a1,0x1
    ed24:	40b405b3          	sub	a1,s0,a1
    ed28:	7e85b883          	ld	a7,2024(a1) # 17e8 <.LBB52_5+0x410>
    ed2c:	00aec663          	blt	t4,a0,ed38 <.LBB52_1804>
    ed30:	f8200513          	li	a0,-126
    ed34:	f8a43423          	sd	a0,-120(s0)

000000000000ed38 <.LBB52_1804>:
    ed38:	00001537          	lui	a0,0x1
    ed3c:	40a40533          	sub	a0,s0,a0
    ed40:	65053503          	ld	a0,1616(a0) # 1650 <.LBB52_5+0x278>
    ed44:	02750533          	mul	a0,a0,t2
    ed48:	000015b7          	lui	a1,0x1
    ed4c:	40b405b3          	sub	a1,s0,a1
    ed50:	6485b583          	ld	a1,1608(a1) # 1648 <.LBB52_5+0x270>
    ed54:	013585b3          	add	a1,a1,s3
    ed58:	00b50533          	add	a0,a0,a1
    ed5c:	42855513          	srai	a0,a0,0x28
    ed60:	f8a43023          	sd	a0,-128(s0)
    ed64:	00aec663          	blt	t4,a0,ed70 <.LBB52_1806>
    ed68:	f8200513          	li	a0,-126
    ed6c:	f8a43023          	sd	a0,-128(s0)

000000000000ed70 <.LBB52_1806>:
    ed70:	00001537          	lui	a0,0x1
    ed74:	40a40533          	sub	a0,s0,a0
    ed78:	67053503          	ld	a0,1648(a0) # 1670 <.LBB52_5+0x298>
    ed7c:	02750533          	mul	a0,a0,t2
    ed80:	000015b7          	lui	a1,0x1
    ed84:	40b405b3          	sub	a1,s0,a1
    ed88:	6685b583          	ld	a1,1640(a1) # 1668 <.LBB52_5+0x290>
    ed8c:	013585b3          	add	a1,a1,s3
    ed90:	00b50533          	add	a0,a0,a1
    ed94:	42855513          	srai	a0,a0,0x28
    ed98:	f6a43c23          	sd	a0,-136(s0)
    ed9c:	00aec663          	blt	t4,a0,eda8 <.LBB52_1808>
    eda0:	f8200513          	li	a0,-126
    eda4:	f6a43c23          	sd	a0,-136(s0)

000000000000eda8 <.LBB52_1808>:
    eda8:	00001537          	lui	a0,0x1
    edac:	40a40533          	sub	a0,s0,a0
    edb0:	68853503          	ld	a0,1672(a0) # 1688 <.LBB52_5+0x2b0>
    edb4:	02750533          	mul	a0,a0,t2
    edb8:	000015b7          	lui	a1,0x1
    edbc:	40b405b3          	sub	a1,s0,a1
    edc0:	6805b583          	ld	a1,1664(a1) # 1680 <.LBB52_5+0x2a8>
    edc4:	013585b3          	add	a1,a1,s3
    edc8:	00b50533          	add	a0,a0,a1
    edcc:	42855513          	srai	a0,a0,0x28
    edd0:	f6a43823          	sd	a0,-144(s0)
    edd4:	00aec663          	blt	t4,a0,ede0 <.LBB52_1810>
    edd8:	f8200513          	li	a0,-126
    eddc:	f6a43823          	sd	a0,-144(s0)

000000000000ede0 <.LBB52_1810>:
    ede0:	00001537          	lui	a0,0x1
    ede4:	40a40533          	sub	a0,s0,a0
    ede8:	6a853503          	ld	a0,1704(a0) # 16a8 <.LBB52_5+0x2d0>
    edec:	02750533          	mul	a0,a0,t2
    edf0:	000015b7          	lui	a1,0x1
    edf4:	40b405b3          	sub	a1,s0,a1
    edf8:	6a05b583          	ld	a1,1696(a1) # 16a0 <.LBB52_5+0x2c8>
    edfc:	013585b3          	add	a1,a1,s3
    ee00:	00b50533          	add	a0,a0,a1
    ee04:	42855513          	srai	a0,a0,0x28
    ee08:	f6a43423          	sd	a0,-152(s0)
    ee0c:	00aec663          	blt	t4,a0,ee18 <.LBB52_1812>
    ee10:	f8200513          	li	a0,-126
    ee14:	f6a43423          	sd	a0,-152(s0)

000000000000ee18 <.LBB52_1812>:
    ee18:	00001537          	lui	a0,0x1
    ee1c:	40a40533          	sub	a0,s0,a0
    ee20:	6d853503          	ld	a0,1752(a0) # 16d8 <.LBB52_5+0x300>
    ee24:	02750533          	mul	a0,a0,t2
    ee28:	000015b7          	lui	a1,0x1
    ee2c:	40b405b3          	sub	a1,s0,a1
    ee30:	6d05b583          	ld	a1,1744(a1) # 16d0 <.LBB52_5+0x2f8>
    ee34:	013585b3          	add	a1,a1,s3
    ee38:	00b50533          	add	a0,a0,a1
    ee3c:	42855513          	srai	a0,a0,0x28
    ee40:	f6a43023          	sd	a0,-160(s0)
    ee44:	00aec663          	blt	t4,a0,ee50 <.LBB52_1814>
    ee48:	f8200513          	li	a0,-126
    ee4c:	f6a43023          	sd	a0,-160(s0)

000000000000ee50 <.LBB52_1814>:
    ee50:	00001537          	lui	a0,0x1
    ee54:	40a40533          	sub	a0,s0,a0
    ee58:	70853503          	ld	a0,1800(a0) # 1708 <.LBB52_5+0x330>
    ee5c:	02750533          	mul	a0,a0,t2
    ee60:	000015b7          	lui	a1,0x1
    ee64:	40b405b3          	sub	a1,s0,a1
    ee68:	7005b583          	ld	a1,1792(a1) # 1700 <.LBB52_5+0x328>
    ee6c:	013585b3          	add	a1,a1,s3
    ee70:	00b50533          	add	a0,a0,a1
    ee74:	42855513          	srai	a0,a0,0x28
    ee78:	f4a43c23          	sd	a0,-168(s0)
    ee7c:	00aec663          	blt	t4,a0,ee88 <.LBB52_1816>
    ee80:	f8200513          	li	a0,-126
    ee84:	f4a43c23          	sd	a0,-168(s0)

000000000000ee88 <.LBB52_1816>:
    ee88:	00001537          	lui	a0,0x1
    ee8c:	40a40533          	sub	a0,s0,a0
    ee90:	73853503          	ld	a0,1848(a0) # 1738 <.LBB52_5+0x360>
    ee94:	02750533          	mul	a0,a0,t2
    ee98:	000015b7          	lui	a1,0x1
    ee9c:	40b405b3          	sub	a1,s0,a1
    eea0:	7305b583          	ld	a1,1840(a1) # 1730 <.LBB52_5+0x358>
    eea4:	013585b3          	add	a1,a1,s3
    eea8:	00b50533          	add	a0,a0,a1
    eeac:	42855513          	srai	a0,a0,0x28
    eeb0:	f4a43823          	sd	a0,-176(s0)
    eeb4:	00aec663          	blt	t4,a0,eec0 <.LBB52_1818>
    eeb8:	f8200513          	li	a0,-126
    eebc:	f4a43823          	sd	a0,-176(s0)

000000000000eec0 <.LBB52_1818>:
    eec0:	00001537          	lui	a0,0x1
    eec4:	40a40533          	sub	a0,s0,a0
    eec8:	76853503          	ld	a0,1896(a0) # 1768 <.LBB52_5+0x390>
    eecc:	02750533          	mul	a0,a0,t2
    eed0:	000015b7          	lui	a1,0x1
    eed4:	40b405b3          	sub	a1,s0,a1
    eed8:	7605b583          	ld	a1,1888(a1) # 1760 <.LBB52_5+0x388>
    eedc:	013585b3          	add	a1,a1,s3
    eee0:	00b50533          	add	a0,a0,a1
    eee4:	42855513          	srai	a0,a0,0x28
    eee8:	f4a43423          	sd	a0,-184(s0)
    eeec:	00aec663          	blt	t4,a0,eef8 <.LBB52_1820>
    eef0:	f8200513          	li	a0,-126
    eef4:	f4a43423          	sd	a0,-184(s0)

000000000000eef8 <.LBB52_1820>:
    eef8:	00001537          	lui	a0,0x1
    eefc:	40a40533          	sub	a0,s0,a0
    ef00:	7a053503          	ld	a0,1952(a0) # 17a0 <.LBB52_5+0x3c8>
    ef04:	02750533          	mul	a0,a0,t2
    ef08:	000015b7          	lui	a1,0x1
    ef0c:	40b405b3          	sub	a1,s0,a1
    ef10:	7985b583          	ld	a1,1944(a1) # 1798 <.LBB52_5+0x3c0>
    ef14:	013585b3          	add	a1,a1,s3
    ef18:	00b50533          	add	a0,a0,a1
    ef1c:	42855513          	srai	a0,a0,0x28
    ef20:	f4a43023          	sd	a0,-192(s0)
    ef24:	00aec663          	blt	t4,a0,ef30 <.LBB52_1822>
    ef28:	f8200513          	li	a0,-126
    ef2c:	f4a43023          	sd	a0,-192(s0)

000000000000ef30 <.LBB52_1822>:
    ef30:	00001537          	lui	a0,0x1
    ef34:	40a40533          	sub	a0,s0,a0
    ef38:	7c853503          	ld	a0,1992(a0) # 17c8 <.LBB52_5+0x3f0>
    ef3c:	02750533          	mul	a0,a0,t2
    ef40:	000015b7          	lui	a1,0x1
    ef44:	40b405b3          	sub	a1,s0,a1
    ef48:	7c05b583          	ld	a1,1984(a1) # 17c0 <.LBB52_5+0x3e8>
    ef4c:	013585b3          	add	a1,a1,s3
    ef50:	00b50533          	add	a0,a0,a1
    ef54:	42855513          	srai	a0,a0,0x28
    ef58:	f2a43c23          	sd	a0,-200(s0)
    ef5c:	00aec663          	blt	t4,a0,ef68 <.LBB52_1824>
    ef60:	f8200513          	li	a0,-126
    ef64:	f2a43c23          	sd	a0,-200(s0)

000000000000ef68 <.LBB52_1824>:
    ef68:	00001537          	lui	a0,0x1
    ef6c:	40a40533          	sub	a0,s0,a0
    ef70:	7f053503          	ld	a0,2032(a0) # 17f0 <.LBB52_5+0x418>
    ef74:	02750533          	mul	a0,a0,t2
    ef78:	013885b3          	add	a1,a7,s3
    ef7c:	00b50533          	add	a0,a0,a1
    ef80:	42855513          	srai	a0,a0,0x28
    ef84:	f2a43823          	sd	a0,-208(s0)
    ef88:	00aec663          	blt	t4,a0,ef94 <.LBB52_1826>
    ef8c:	f8200513          	li	a0,-126
    ef90:	f2a43823          	sd	a0,-208(s0)

000000000000ef94 <.LBB52_1826>:
    ef94:	81843503          	ld	a0,-2024(s0)
    ef98:	02750533          	mul	a0,a0,t2
    ef9c:	81043583          	ld	a1,-2032(s0)
    efa0:	013585b3          	add	a1,a1,s3
    efa4:	00b50533          	add	a0,a0,a1
    efa8:	42855513          	srai	a0,a0,0x28
    efac:	f2a43423          	sd	a0,-216(s0)
    efb0:	00aec663          	blt	t4,a0,efbc <.LBB52_1828>
    efb4:	f8200513          	li	a0,-126
    efb8:	f2a43423          	sd	a0,-216(s0)

000000000000efbc <.LBB52_1828>:
    efbc:	84043503          	ld	a0,-1984(s0)
    efc0:	02750533          	mul	a0,a0,t2
    efc4:	83843583          	ld	a1,-1992(s0)
    efc8:	013585b3          	add	a1,a1,s3
    efcc:	00b50533          	add	a0,a0,a1
    efd0:	42855513          	srai	a0,a0,0x28
    efd4:	f2a43023          	sd	a0,-224(s0)
    efd8:	00aec663          	blt	t4,a0,efe4 <.LBB52_1830>
    efdc:	f8200513          	li	a0,-126
    efe0:	f2a43023          	sd	a0,-224(s0)

000000000000efe4 <.LBB52_1830>:
    efe4:	86843503          	ld	a0,-1944(s0)
    efe8:	02750533          	mul	a0,a0,t2
    efec:	86043583          	ld	a1,-1952(s0)
    eff0:	013585b3          	add	a1,a1,s3
    eff4:	00b50533          	add	a0,a0,a1
    eff8:	42855513          	srai	a0,a0,0x28
    effc:	f0a43c23          	sd	a0,-232(s0)
    f000:	00aec663          	blt	t4,a0,f00c <.LBB52_1832>
    f004:	f8200513          	li	a0,-126
    f008:	f0a43c23          	sd	a0,-232(s0)

000000000000f00c <.LBB52_1832>:
    f00c:	89043503          	ld	a0,-1904(s0)
    f010:	02750533          	mul	a0,a0,t2
    f014:	88843583          	ld	a1,-1912(s0)
    f018:	013585b3          	add	a1,a1,s3
    f01c:	00b50533          	add	a0,a0,a1
    f020:	42855513          	srai	a0,a0,0x28
    f024:	f0a43823          	sd	a0,-240(s0)
    f028:	00aec663          	blt	t4,a0,f034 <.LBB52_1834>
    f02c:	f8200513          	li	a0,-126
    f030:	f0a43823          	sd	a0,-240(s0)

000000000000f034 <.LBB52_1834>:
    f034:	8b843503          	ld	a0,-1864(s0)
    f038:	02750533          	mul	a0,a0,t2
    f03c:	8b043583          	ld	a1,-1872(s0)
    f040:	013585b3          	add	a1,a1,s3
    f044:	00b50533          	add	a0,a0,a1
    f048:	42855513          	srai	a0,a0,0x28
    f04c:	f0a43423          	sd	a0,-248(s0)
    f050:	00aec663          	blt	t4,a0,f05c <.LBB52_1836>
    f054:	f8200513          	li	a0,-126
    f058:	f0a43423          	sd	a0,-248(s0)

000000000000f05c <.LBB52_1836>:
    f05c:	8e843503          	ld	a0,-1816(s0)
    f060:	02750533          	mul	a0,a0,t2
    f064:	8d843583          	ld	a1,-1832(s0)
    f068:	013585b3          	add	a1,a1,s3
    f06c:	00b50533          	add	a0,a0,a1
    f070:	42855513          	srai	a0,a0,0x28
    f074:	f0a43023          	sd	a0,-256(s0)
    f078:	00aec663          	blt	t4,a0,f084 <.LBB52_1838>
    f07c:	f8200513          	li	a0,-126
    f080:	f0a43023          	sd	a0,-256(s0)

000000000000f084 <.LBB52_1838>:
    f084:	91843503          	ld	a0,-1768(s0)
    f088:	02750533          	mul	a0,a0,t2
    f08c:	90843583          	ld	a1,-1784(s0)
    f090:	013585b3          	add	a1,a1,s3
    f094:	00b50533          	add	a0,a0,a1
    f098:	42855513          	srai	a0,a0,0x28
    f09c:	eea43c23          	sd	a0,-264(s0)
    f0a0:	00aec663          	blt	t4,a0,f0ac <.LBB52_1840>
    f0a4:	f8200513          	li	a0,-126
    f0a8:	eea43c23          	sd	a0,-264(s0)

000000000000f0ac <.LBB52_1840>:
    f0ac:	94843503          	ld	a0,-1720(s0)
    f0b0:	02750533          	mul	a0,a0,t2
    f0b4:	93843583          	ld	a1,-1736(s0)
    f0b8:	013585b3          	add	a1,a1,s3
    f0bc:	00b50533          	add	a0,a0,a1
    f0c0:	42855513          	srai	a0,a0,0x28
    f0c4:	eea43823          	sd	a0,-272(s0)
    f0c8:	00aec663          	blt	t4,a0,f0d4 <.LBB52_1842>
    f0cc:	f8200513          	li	a0,-126
    f0d0:	eea43823          	sd	a0,-272(s0)

000000000000f0d4 <.LBB52_1842>:
    f0d4:	97043503          	ld	a0,-1680(s0)
    f0d8:	02750533          	mul	a0,a0,t2
    f0dc:	96043583          	ld	a1,-1696(s0)
    f0e0:	013585b3          	add	a1,a1,s3
    f0e4:	00b50533          	add	a0,a0,a1
    f0e8:	42855513          	srai	a0,a0,0x28
    f0ec:	eea43423          	sd	a0,-280(s0)
    f0f0:	00aec663          	blt	t4,a0,f0fc <.LBB52_1844>
    f0f4:	f8200513          	li	a0,-126
    f0f8:	eea43423          	sd	a0,-280(s0)

000000000000f0fc <.LBB52_1844>:
    f0fc:	99843503          	ld	a0,-1640(s0)
    f100:	02750533          	mul	a0,a0,t2
    f104:	99043583          	ld	a1,-1648(s0)
    f108:	013585b3          	add	a1,a1,s3
    f10c:	00b50533          	add	a0,a0,a1
    f110:	42855513          	srai	a0,a0,0x28
    f114:	eea43023          	sd	a0,-288(s0)
    f118:	00aec663          	blt	t4,a0,f124 <.LBB52_1846>
    f11c:	f8200513          	li	a0,-126
    f120:	eea43023          	sd	a0,-288(s0)

000000000000f124 <.LBB52_1846>:
    f124:	9c043503          	ld	a0,-1600(s0)
    f128:	02750533          	mul	a0,a0,t2
    f12c:	9b843583          	ld	a1,-1608(s0)
    f130:	013585b3          	add	a1,a1,s3
    f134:	00b50533          	add	a0,a0,a1
    f138:	42855513          	srai	a0,a0,0x28
    f13c:	eca43823          	sd	a0,-304(s0)
    f140:	00aec663          	blt	t4,a0,f14c <.LBB52_1848>
    f144:	f8200513          	li	a0,-126
    f148:	eca43823          	sd	a0,-304(s0)

000000000000f14c <.LBB52_1848>:
    f14c:	9e843503          	ld	a0,-1560(s0)
    f150:	02750533          	mul	a0,a0,t2
    f154:	9e043583          	ld	a1,-1568(s0)
    f158:	013585b3          	add	a1,a1,s3
    f15c:	00b50533          	add	a0,a0,a1
    f160:	42855513          	srai	a0,a0,0x28
    f164:	eca43023          	sd	a0,-320(s0)
    f168:	00aec663          	blt	t4,a0,f174 <.LBB52_1850>
    f16c:	f8200513          	li	a0,-126
    f170:	eca43023          	sd	a0,-320(s0)

000000000000f174 <.LBB52_1850>:
    f174:	9f843503          	ld	a0,-1544(s0)
    f178:	02750533          	mul	a0,a0,t2
    f17c:	9f043583          	ld	a1,-1552(s0)
    f180:	013585b3          	add	a1,a1,s3
    f184:	00b50533          	add	a0,a0,a1
    f188:	42855513          	srai	a0,a0,0x28
    f18c:	eaa43823          	sd	a0,-336(s0)
    f190:	00aec663          	blt	t4,a0,f19c <.LBB52_1852>
    f194:	f8200513          	li	a0,-126
    f198:	eaa43823          	sd	a0,-336(s0)

000000000000f19c <.LBB52_1852>:
    f19c:	a0843503          	ld	a0,-1528(s0)
    f1a0:	02750533          	mul	a0,a0,t2
    f1a4:	a0043583          	ld	a1,-1536(s0)
    f1a8:	013585b3          	add	a1,a1,s3
    f1ac:	00b50533          	add	a0,a0,a1
    f1b0:	42855513          	srai	a0,a0,0x28
    f1b4:	eaa43023          	sd	a0,-352(s0)
    f1b8:	00aec663          	blt	t4,a0,f1c4 <.LBB52_1854>
    f1bc:	f8200513          	li	a0,-126
    f1c0:	eaa43023          	sd	a0,-352(s0)

000000000000f1c4 <.LBB52_1854>:
    f1c4:	a1843503          	ld	a0,-1512(s0)
    f1c8:	02750533          	mul	a0,a0,t2
    f1cc:	a1043583          	ld	a1,-1520(s0)
    f1d0:	013585b3          	add	a1,a1,s3
    f1d4:	00b50533          	add	a0,a0,a1
    f1d8:	42855513          	srai	a0,a0,0x28
    f1dc:	e8a43823          	sd	a0,-368(s0)
    f1e0:	00aec663          	blt	t4,a0,f1ec <.LBB52_1856>
    f1e4:	f8200513          	li	a0,-126
    f1e8:	e8a43823          	sd	a0,-368(s0)

000000000000f1ec <.LBB52_1856>:
    f1ec:	a2843503          	ld	a0,-1496(s0)
    f1f0:	02750533          	mul	a0,a0,t2
    f1f4:	a2043583          	ld	a1,-1504(s0)
    f1f8:	013585b3          	add	a1,a1,s3
    f1fc:	00b50533          	add	a0,a0,a1
    f200:	42855513          	srai	a0,a0,0x28
    f204:	e8a43023          	sd	a0,-384(s0)
    f208:	00aec663          	blt	t4,a0,f214 <.LBB52_1858>
    f20c:	f8200513          	li	a0,-126
    f210:	e8a43023          	sd	a0,-384(s0)

000000000000f214 <.LBB52_1858>:
    f214:	a3843503          	ld	a0,-1480(s0)
    f218:	02750533          	mul	a0,a0,t2
    f21c:	a3043583          	ld	a1,-1488(s0)
    f220:	013585b3          	add	a1,a1,s3
    f224:	00b50533          	add	a0,a0,a1
    f228:	42855513          	srai	a0,a0,0x28
    f22c:	e6a43823          	sd	a0,-400(s0)
    f230:	00aec663          	blt	t4,a0,f23c <.LBB52_1860>
    f234:	f8200513          	li	a0,-126
    f238:	e6a43823          	sd	a0,-400(s0)

000000000000f23c <.LBB52_1860>:
    f23c:	a4843503          	ld	a0,-1464(s0)
    f240:	02750533          	mul	a0,a0,t2
    f244:	a4043583          	ld	a1,-1472(s0)
    f248:	013585b3          	add	a1,a1,s3
    f24c:	00b50533          	add	a0,a0,a1
    f250:	42855513          	srai	a0,a0,0x28
    f254:	e6a43023          	sd	a0,-416(s0)
    f258:	00aec663          	blt	t4,a0,f264 <.LBB52_1862>
    f25c:	f8200513          	li	a0,-126
    f260:	e6a43023          	sd	a0,-416(s0)

000000000000f264 <.LBB52_1862>:
    f264:	a5843503          	ld	a0,-1448(s0)
    f268:	02750533          	mul	a0,a0,t2
    f26c:	a5043583          	ld	a1,-1456(s0)
    f270:	013585b3          	add	a1,a1,s3
    f274:	00b50533          	add	a0,a0,a1
    f278:	42855513          	srai	a0,a0,0x28
    f27c:	e4a43823          	sd	a0,-432(s0)
    f280:	00aec663          	blt	t4,a0,f28c <.LBB52_1864>
    f284:	f8200513          	li	a0,-126
    f288:	e4a43823          	sd	a0,-432(s0)

000000000000f28c <.LBB52_1864>:
    f28c:	a6843503          	ld	a0,-1432(s0)
    f290:	02750533          	mul	a0,a0,t2
    f294:	a6043583          	ld	a1,-1440(s0)
    f298:	013585b3          	add	a1,a1,s3
    f29c:	00b50533          	add	a0,a0,a1
    f2a0:	42855893          	srai	a7,a0,0x28
    f2a4:	011ec463          	blt	t4,a7,f2ac <.LBB52_1866>
    f2a8:	f8200893          	li	a7,-126

000000000000f2ac <.LBB52_1866>:
    f2ac:	02790533          	mul	a0,s2,t2
    f2b0:	000015b7          	lui	a1,0x1
    f2b4:	40b405b3          	sub	a1,s0,a1
    f2b8:	6085b583          	ld	a1,1544(a1) # 1608 <.LBB52_5+0x230>
    f2bc:	013585b3          	add	a1,a1,s3
    f2c0:	00b50533          	add	a0,a0,a1
    f2c4:	42855513          	srai	a0,a0,0x28
    f2c8:	eca43c23          	sd	a0,-296(s0)
    f2cc:	00aec663          	blt	t4,a0,f2d8 <.LBB52_1868>
    f2d0:	f8200513          	li	a0,-126
    f2d4:	eca43c23          	sd	a0,-296(s0)

000000000000f2d8 <.LBB52_1868>:
    f2d8:	02760533          	mul	a0,a2,t2
    f2dc:	000015b7          	lui	a1,0x1
    f2e0:	40b405b3          	sub	a1,s0,a1
    f2e4:	6405b583          	ld	a1,1600(a1) # 1640 <.LBB52_5+0x268>
    f2e8:	013585b3          	add	a1,a1,s3
    f2ec:	00b50533          	add	a0,a0,a1
    f2f0:	42855513          	srai	a0,a0,0x28
    f2f4:	eca43423          	sd	a0,-312(s0)
    f2f8:	00aec663          	blt	t4,a0,f304 <.LBB52_1870>
    f2fc:	f8200513          	li	a0,-126
    f300:	eca43423          	sd	a0,-312(s0)

000000000000f304 <.LBB52_1870>:
    f304:	02768533          	mul	a0,a3,t2
    f308:	000015b7          	lui	a1,0x1
    f30c:	40b405b3          	sub	a1,s0,a1
    f310:	6605b583          	ld	a1,1632(a1) # 1660 <.LBB52_5+0x288>
    f314:	013585b3          	add	a1,a1,s3
    f318:	00b50533          	add	a0,a0,a1
    f31c:	42855513          	srai	a0,a0,0x28
    f320:	eaa43c23          	sd	a0,-328(s0)
    f324:	c1043603          	ld	a2,-1008(s0)
    f328:	00aec663          	blt	t4,a0,f334 <.LBB52_1872>
    f32c:	f8200513          	li	a0,-126
    f330:	eaa43c23          	sd	a0,-328(s0)

000000000000f334 <.LBB52_1872>:
    f334:	00001537          	lui	a0,0x1
    f338:	40a40533          	sub	a0,s0,a0
    f33c:	62053503          	ld	a0,1568(a0) # 1620 <.LBB52_5+0x248>
    f340:	02750533          	mul	a0,a0,t2
    f344:	000015b7          	lui	a1,0x1
    f348:	40b405b3          	sub	a1,s0,a1
    f34c:	6785b583          	ld	a1,1656(a1) # 1678 <.LBB52_5+0x2a0>
    f350:	013585b3          	add	a1,a1,s3
    f354:	00b50533          	add	a0,a0,a1
    f358:	42855513          	srai	a0,a0,0x28
    f35c:	eaa43423          	sd	a0,-344(s0)
    f360:	c0843683          	ld	a3,-1016(s0)
    f364:	00aec663          	blt	t4,a0,f370 <.LBB52_1874>
    f368:	f8200513          	li	a0,-126
    f36c:	eaa43423          	sd	a0,-344(s0)

000000000000f370 <.LBB52_1874>:
    f370:	00001537          	lui	a0,0x1
    f374:	40a40533          	sub	a0,s0,a0
    f378:	63053503          	ld	a0,1584(a0) # 1630 <.LBB52_5+0x258>
    f37c:	02750533          	mul	a0,a0,t2
    f380:	000015b7          	lui	a1,0x1
    f384:	40b405b3          	sub	a1,s0,a1
    f388:	6985b583          	ld	a1,1688(a1) # 1698 <.LBB52_5+0x2c0>
    f38c:	013585b3          	add	a1,a1,s3
    f390:	00b50533          	add	a0,a0,a1
    f394:	42855513          	srai	a0,a0,0x28
    f398:	e8a43c23          	sd	a0,-360(s0)
    f39c:	00aec663          	blt	t4,a0,f3a8 <.LBB52_1876>
    f3a0:	f8200513          	li	a0,-126
    f3a4:	e8a43c23          	sd	a0,-360(s0)

000000000000f3a8 <.LBB52_1876>:
    f3a8:	00001537          	lui	a0,0x1
    f3ac:	40a40533          	sub	a0,s0,a0
    f3b0:	6c853503          	ld	a0,1736(a0) # 16c8 <.LBB52_5+0x2f0>
    f3b4:	02750533          	mul	a0,a0,t2
    f3b8:	000015b7          	lui	a1,0x1
    f3bc:	40b405b3          	sub	a1,s0,a1
    f3c0:	6c05b583          	ld	a1,1728(a1) # 16c0 <.LBB52_5+0x2e8>
    f3c4:	013585b3          	add	a1,a1,s3
    f3c8:	00b50533          	add	a0,a0,a1
    f3cc:	42855513          	srai	a0,a0,0x28
    f3d0:	e8a43423          	sd	a0,-376(s0)
    f3d4:	00aec663          	blt	t4,a0,f3e0 <.LBB52_1878>
    f3d8:	f8200513          	li	a0,-126
    f3dc:	e8a43423          	sd	a0,-376(s0)

000000000000f3e0 <.LBB52_1878>:
    f3e0:	00001537          	lui	a0,0x1
    f3e4:	40a40533          	sub	a0,s0,a0
    f3e8:	6f853503          	ld	a0,1784(a0) # 16f8 <.LBB52_5+0x320>
    f3ec:	02750533          	mul	a0,a0,t2
    f3f0:	000015b7          	lui	a1,0x1
    f3f4:	40b405b3          	sub	a1,s0,a1
    f3f8:	6f05b583          	ld	a1,1776(a1) # 16f0 <.LBB52_5+0x318>
    f3fc:	013585b3          	add	a1,a1,s3
    f400:	00b50533          	add	a0,a0,a1
    f404:	42855513          	srai	a0,a0,0x28
    f408:	e6a43c23          	sd	a0,-392(s0)
    f40c:	00aec663          	blt	t4,a0,f418 <.LBB52_1880>
    f410:	f8200513          	li	a0,-126
    f414:	e6a43c23          	sd	a0,-392(s0)

000000000000f418 <.LBB52_1880>:
    f418:	00001537          	lui	a0,0x1
    f41c:	40a40533          	sub	a0,s0,a0
    f420:	72853503          	ld	a0,1832(a0) # 1728 <.LBB52_5+0x350>
    f424:	02750533          	mul	a0,a0,t2
    f428:	000015b7          	lui	a1,0x1
    f42c:	40b405b3          	sub	a1,s0,a1
    f430:	7205b583          	ld	a1,1824(a1) # 1720 <.LBB52_5+0x348>
    f434:	013585b3          	add	a1,a1,s3
    f438:	00b50533          	add	a0,a0,a1
    f43c:	42855513          	srai	a0,a0,0x28
    f440:	e6a43423          	sd	a0,-408(s0)
    f444:	00aec663          	blt	t4,a0,f450 <.LBB52_1882>
    f448:	f8200513          	li	a0,-126
    f44c:	e6a43423          	sd	a0,-408(s0)

000000000000f450 <.LBB52_1882>:
    f450:	00001537          	lui	a0,0x1
    f454:	40a40533          	sub	a0,s0,a0
    f458:	75853503          	ld	a0,1880(a0) # 1758 <.LBB52_5+0x380>
    f45c:	02750533          	mul	a0,a0,t2
    f460:	000015b7          	lui	a1,0x1
    f464:	40b405b3          	sub	a1,s0,a1
    f468:	7505b583          	ld	a1,1872(a1) # 1750 <.LBB52_5+0x378>
    f46c:	013585b3          	add	a1,a1,s3
    f470:	00b50533          	add	a0,a0,a1
    f474:	42855513          	srai	a0,a0,0x28
    f478:	e4a43c23          	sd	a0,-424(s0)
    f47c:	00aec663          	blt	t4,a0,f488 <.LBB52_1884>
    f480:	f8200513          	li	a0,-126
    f484:	e4a43c23          	sd	a0,-424(s0)

000000000000f488 <.LBB52_1884>:
    f488:	00001537          	lui	a0,0x1
    f48c:	40a40533          	sub	a0,s0,a0
    f490:	79053503          	ld	a0,1936(a0) # 1790 <.LBB52_5+0x3b8>
    f494:	02750533          	mul	a0,a0,t2
    f498:	000015b7          	lui	a1,0x1
    f49c:	40b405b3          	sub	a1,s0,a1
    f4a0:	7885b583          	ld	a1,1928(a1) # 1788 <.LBB52_5+0x3b0>
    f4a4:	013585b3          	add	a1,a1,s3
    f4a8:	00b50533          	add	a0,a0,a1
    f4ac:	42855513          	srai	a0,a0,0x28
    f4b0:	e4a43423          	sd	a0,-440(s0)
    f4b4:	00aec663          	blt	t4,a0,f4c0 <.LBB52_1886>
    f4b8:	f8200513          	li	a0,-126
    f4bc:	e4a43423          	sd	a0,-440(s0)

000000000000f4c0 <.LBB52_1886>:
    f4c0:	00001537          	lui	a0,0x1
    f4c4:	40a40533          	sub	a0,s0,a0
    f4c8:	7b853503          	ld	a0,1976(a0) # 17b8 <.LBB52_5+0x3e0>
    f4cc:	02750533          	mul	a0,a0,t2
    f4d0:	000015b7          	lui	a1,0x1
    f4d4:	40b405b3          	sub	a1,s0,a1
    f4d8:	7b05b583          	ld	a1,1968(a1) # 17b0 <.LBB52_5+0x3d8>
    f4dc:	013585b3          	add	a1,a1,s3
    f4e0:	00b50533          	add	a0,a0,a1
    f4e4:	42855513          	srai	a0,a0,0x28
    f4e8:	e4a43023          	sd	a0,-448(s0)
    f4ec:	00aec663          	blt	t4,a0,f4f8 <.LBB52_1888>
    f4f0:	f8200513          	li	a0,-126
    f4f4:	e4a43023          	sd	a0,-448(s0)

000000000000f4f8 <.LBB52_1888>:
    f4f8:	00001537          	lui	a0,0x1
    f4fc:	40a40533          	sub	a0,s0,a0
    f500:	7e053503          	ld	a0,2016(a0) # 17e0 <.LBB52_5+0x408>
    f504:	02750533          	mul	a0,a0,t2
    f508:	000015b7          	lui	a1,0x1
    f50c:	40b405b3          	sub	a1,s0,a1
    f510:	7d85b583          	ld	a1,2008(a1) # 17d8 <.LBB52_5+0x400>
    f514:	013585b3          	add	a1,a1,s3
    f518:	00b50533          	add	a0,a0,a1
    f51c:	42855513          	srai	a0,a0,0x28
    f520:	e2a43c23          	sd	a0,-456(s0)
    f524:	00aec663          	blt	t4,a0,f530 <.LBB52_1890>
    f528:	f8200513          	li	a0,-126
    f52c:	e2a43c23          	sd	a0,-456(s0)

000000000000f530 <.LBB52_1890>:
    f530:	80843503          	ld	a0,-2040(s0)
    f534:	02750533          	mul	a0,a0,t2
    f538:	80043583          	ld	a1,-2048(s0)
    f53c:	013585b3          	add	a1,a1,s3
    f540:	00b50533          	add	a0,a0,a1
    f544:	42855513          	srai	a0,a0,0x28
    f548:	e2a43823          	sd	a0,-464(s0)
    f54c:	00aec663          	blt	t4,a0,f558 <.LBB52_1892>
    f550:	f8200513          	li	a0,-126
    f554:	e2a43823          	sd	a0,-464(s0)

000000000000f558 <.LBB52_1892>:
    f558:	83043503          	ld	a0,-2000(s0)
    f55c:	02750533          	mul	a0,a0,t2
    f560:	82843583          	ld	a1,-2008(s0)
    f564:	013585b3          	add	a1,a1,s3
    f568:	00b50533          	add	a0,a0,a1
    f56c:	42855513          	srai	a0,a0,0x28
    f570:	e2a43423          	sd	a0,-472(s0)
    f574:	00aec663          	blt	t4,a0,f580 <.LBB52_1894>
    f578:	f8200513          	li	a0,-126
    f57c:	e2a43423          	sd	a0,-472(s0)

000000000000f580 <.LBB52_1894>:
    f580:	85843503          	ld	a0,-1960(s0)
    f584:	02750533          	mul	a0,a0,t2
    f588:	85043583          	ld	a1,-1968(s0)
    f58c:	013585b3          	add	a1,a1,s3
    f590:	00b50533          	add	a0,a0,a1
    f594:	42855513          	srai	a0,a0,0x28
    f598:	e2a43023          	sd	a0,-480(s0)
    f59c:	00aec663          	blt	t4,a0,f5a8 <.LBB52_1896>
    f5a0:	f8200513          	li	a0,-126
    f5a4:	e2a43023          	sd	a0,-480(s0)

000000000000f5a8 <.LBB52_1896>:
    f5a8:	88043503          	ld	a0,-1920(s0)
    f5ac:	02750533          	mul	a0,a0,t2
    f5b0:	87843583          	ld	a1,-1928(s0)
    f5b4:	013585b3          	add	a1,a1,s3
    f5b8:	00b50533          	add	a0,a0,a1
    f5bc:	42855513          	srai	a0,a0,0x28
    f5c0:	e0a43c23          	sd	a0,-488(s0)
    f5c4:	00aec663          	blt	t4,a0,f5d0 <.LBB52_1898>
    f5c8:	f8200513          	li	a0,-126
    f5cc:	e0a43c23          	sd	a0,-488(s0)

000000000000f5d0 <.LBB52_1898>:
    f5d0:	8a843503          	ld	a0,-1880(s0)
    f5d4:	02750533          	mul	a0,a0,t2
    f5d8:	8a043583          	ld	a1,-1888(s0)
    f5dc:	013585b3          	add	a1,a1,s3
    f5e0:	00b50533          	add	a0,a0,a1
    f5e4:	42855513          	srai	a0,a0,0x28
    f5e8:	e0a43823          	sd	a0,-496(s0)
    f5ec:	00aec663          	blt	t4,a0,f5f8 <.LBB52_1900>
    f5f0:	f8200513          	li	a0,-126
    f5f4:	e0a43823          	sd	a0,-496(s0)

000000000000f5f8 <.LBB52_1900>:
    f5f8:	8d043503          	ld	a0,-1840(s0)
    f5fc:	02750533          	mul	a0,a0,t2
    f600:	8c843583          	ld	a1,-1848(s0)
    f604:	013585b3          	add	a1,a1,s3
    f608:	00b50533          	add	a0,a0,a1
    f60c:	42855513          	srai	a0,a0,0x28
    f610:	e0a43423          	sd	a0,-504(s0)
    f614:	00aec663          	blt	t4,a0,f620 <.LBB52_1902>
    f618:	f8200513          	li	a0,-126
    f61c:	e0a43423          	sd	a0,-504(s0)

000000000000f620 <.LBB52_1902>:
    f620:	8f843503          	ld	a0,-1800(s0)
    f624:	02750533          	mul	a0,a0,t2
    f628:	8f043583          	ld	a1,-1808(s0)
    f62c:	013585b3          	add	a1,a1,s3
    f630:	00b50533          	add	a0,a0,a1
    f634:	42855513          	srai	a0,a0,0x28
    f638:	e0a43023          	sd	a0,-512(s0)
    f63c:	00aec663          	blt	t4,a0,f648 <.LBB52_1904>
    f640:	f8200513          	li	a0,-126
    f644:	e0a43023          	sd	a0,-512(s0)

000000000000f648 <.LBB52_1904>:
    f648:	92043503          	ld	a0,-1760(s0)
    f64c:	02750533          	mul	a0,a0,t2
    f650:	91043583          	ld	a1,-1776(s0)
    f654:	013585b3          	add	a1,a1,s3
    f658:	00b50533          	add	a0,a0,a1
    f65c:	42855513          	srai	a0,a0,0x28
    f660:	dea43c23          	sd	a0,-520(s0)
    f664:	00aec663          	blt	t4,a0,f670 <.LBB52_1906>
    f668:	f8200513          	li	a0,-126
    f66c:	dea43c23          	sd	a0,-520(s0)

000000000000f670 <.LBB52_1906>:
    f670:	94043503          	ld	a0,-1728(s0)
    f674:	02750533          	mul	a0,a0,t2
    f678:	93043583          	ld	a1,-1744(s0)
    f67c:	013585b3          	add	a1,a1,s3
    f680:	00b50533          	add	a0,a0,a1
    f684:	42855513          	srai	a0,a0,0x28
    f688:	dea43823          	sd	a0,-528(s0)
    f68c:	00aec663          	blt	t4,a0,f698 <.LBB52_1908>
    f690:	f8200513          	li	a0,-126
    f694:	dea43823          	sd	a0,-528(s0)

000000000000f698 <.LBB52_1908>:
    f698:	96843503          	ld	a0,-1688(s0)
    f69c:	02750533          	mul	a0,a0,t2
    f6a0:	95843583          	ld	a1,-1704(s0)
    f6a4:	013585b3          	add	a1,a1,s3
    f6a8:	00b50533          	add	a0,a0,a1
    f6ac:	42855513          	srai	a0,a0,0x28
    f6b0:	dea43423          	sd	a0,-536(s0)
    f6b4:	00aec663          	blt	t4,a0,f6c0 <.LBB52_1910>
    f6b8:	f8200513          	li	a0,-126
    f6bc:	dea43423          	sd	a0,-536(s0)

000000000000f6c0 <.LBB52_1910>:
    f6c0:	98843503          	ld	a0,-1656(s0)
    f6c4:	02750533          	mul	a0,a0,t2
    f6c8:	98043583          	ld	a1,-1664(s0)
    f6cc:	013585b3          	add	a1,a1,s3
    f6d0:	00b50533          	add	a0,a0,a1
    f6d4:	42855513          	srai	a0,a0,0x28
    f6d8:	dca43c23          	sd	a0,-552(s0)
    f6dc:	00aec663          	blt	t4,a0,f6e8 <.LBB52_1912>
    f6e0:	f8200513          	li	a0,-126
    f6e4:	dca43c23          	sd	a0,-552(s0)

000000000000f6e8 <.LBB52_1912>:
    f6e8:	9b043503          	ld	a0,-1616(s0)
    f6ec:	02750533          	mul	a0,a0,t2
    f6f0:	9a843583          	ld	a1,-1624(s0)
    f6f4:	013585b3          	add	a1,a1,s3
    f6f8:	00b50533          	add	a0,a0,a1
    f6fc:	42855513          	srai	a0,a0,0x28
    f700:	dca43423          	sd	a0,-568(s0)
    f704:	00aec663          	blt	t4,a0,f710 <.LBB52_1914>
    f708:	f8200513          	li	a0,-126
    f70c:	dca43423          	sd	a0,-568(s0)

000000000000f710 <.LBB52_1914>:
    f710:	c5043503          	ld	a0,-944(s0)
    f714:	02750533          	mul	a0,a0,t2
    f718:	9c843583          	ld	a1,-1592(s0)
    f71c:	013585b3          	add	a1,a1,s3
    f720:	00b50533          	add	a0,a0,a1
    f724:	42855513          	srai	a0,a0,0x28
    f728:	daa43c23          	sd	a0,-584(s0)
    f72c:	00aec663          	blt	t4,a0,f738 <.LBB52_1916>
    f730:	f8200513          	li	a0,-126
    f734:	daa43c23          	sd	a0,-584(s0)

000000000000f738 <.LBB52_1916>:
    f738:	9d843503          	ld	a0,-1576(s0)
    f73c:	02750533          	mul	a0,a0,t2
    f740:	9d043583          	ld	a1,-1584(s0)
    f744:	013585b3          	add	a1,a1,s3
    f748:	00b50533          	add	a0,a0,a1
    f74c:	42855513          	srai	a0,a0,0x28
    f750:	daa43423          	sd	a0,-600(s0)
    f754:	00aec663          	blt	t4,a0,f760 <.LBB52_1918>
    f758:	f8200513          	li	a0,-126
    f75c:	daa43423          	sd	a0,-600(s0)

000000000000f760 <.LBB52_1918>:
    f760:	ba843503          	ld	a0,-1112(s0)
    f764:	02750533          	mul	a0,a0,t2
    f768:	ba043583          	ld	a1,-1120(s0)
    f76c:	013585b3          	add	a1,a1,s3
    f770:	00b50533          	add	a0,a0,a1
    f774:	42855513          	srai	a0,a0,0x28
    f778:	d8a43c23          	sd	a0,-616(s0)
    f77c:	00aec663          	blt	t4,a0,f788 <.LBB52_1920>
    f780:	f8200513          	li	a0,-126
    f784:	d8a43c23          	sd	a0,-616(s0)

000000000000f788 <.LBB52_1920>:
    f788:	bc843503          	ld	a0,-1080(s0)
    f78c:	02750533          	mul	a0,a0,t2
    f790:	bc043583          	ld	a1,-1088(s0)
    f794:	013585b3          	add	a1,a1,s3
    f798:	00b50533          	add	a0,a0,a1
    f79c:	42855513          	srai	a0,a0,0x28
    f7a0:	d8a43423          	sd	a0,-632(s0)
    f7a4:	00aec663          	blt	t4,a0,f7b0 <.LBB52_1922>
    f7a8:	f8200513          	li	a0,-126
    f7ac:	d8a43423          	sd	a0,-632(s0)

000000000000f7b0 <.LBB52_1922>:
    f7b0:	be843503          	ld	a0,-1048(s0)
    f7b4:	02750533          	mul	a0,a0,t2
    f7b8:	be043583          	ld	a1,-1056(s0)
    f7bc:	013585b3          	add	a1,a1,s3
    f7c0:	00b50533          	add	a0,a0,a1
    f7c4:	42855513          	srai	a0,a0,0x28
    f7c8:	d6a43c23          	sd	a0,-648(s0)
    f7cc:	00aec663          	blt	t4,a0,f7d8 <.LBB52_1924>
    f7d0:	f8200513          	li	a0,-126
    f7d4:	d6a43c23          	sd	a0,-648(s0)

000000000000f7d8 <.LBB52_1924>:
    f7d8:	c2843503          	ld	a0,-984(s0)
    f7dc:	02750533          	mul	a0,a0,t2
    f7e0:	c0043583          	ld	a1,-1024(s0)
    f7e4:	013585b3          	add	a1,a1,s3
    f7e8:	00b50533          	add	a0,a0,a1
    f7ec:	42855513          	srai	a0,a0,0x28
    f7f0:	d6a43423          	sd	a0,-664(s0)
    f7f4:	00aec663          	blt	t4,a0,f800 <.LBB52_1926>
    f7f8:	f8200513          	li	a0,-126
    f7fc:	d6a43423          	sd	a0,-664(s0)

000000000000f800 <.LBB52_1926>:
    f800:	c2043503          	ld	a0,-992(s0)
    f804:	02750533          	mul	a0,a0,t2
    f808:	013685b3          	add	a1,a3,s3
    f80c:	00b50533          	add	a0,a0,a1
    f810:	42855513          	srai	a0,a0,0x28
    f814:	d4a43c23          	sd	a0,-680(s0)
    f818:	00aec663          	blt	t4,a0,f824 <.LBB52_1928>
    f81c:	f8200513          	li	a0,-126
    f820:	d4a43c23          	sd	a0,-680(s0)

000000000000f824 <.LBB52_1928>:
    f824:	c1843503          	ld	a0,-1000(s0)
    f828:	02750533          	mul	a0,a0,t2
    f82c:	013605b3          	add	a1,a2,s3
    f830:	00b50533          	add	a0,a0,a1
    f834:	42855513          	srai	a0,a0,0x28
    f838:	d4a43423          	sd	a0,-696(s0)
    f83c:	00aec663          	blt	t4,a0,f848 <.LBB52_1930>
    f840:	f8200513          	li	a0,-126
    f844:	d4a43423          	sd	a0,-696(s0)

000000000000f848 <.LBB52_1930>:
    f848:	027a0533          	mul	a0,s4,t2
    f84c:	de043583          	ld	a1,-544(s0)
    f850:	013585b3          	add	a1,a1,s3
    f854:	00b50533          	add	a0,a0,a1
    f858:	42855513          	srai	a0,a0,0x28
    f85c:	dea43023          	sd	a0,-544(s0)
    f860:	00aec663          	blt	t4,a0,f86c <.LBB52_1932>
    f864:	f8200513          	li	a0,-126
    f868:	dea43023          	sd	a0,-544(s0)

000000000000f86c <.LBB52_1932>:
    f86c:	02730533          	mul	a0,t1,t2
    f870:	dd043583          	ld	a1,-560(s0)
    f874:	013585b3          	add	a1,a1,s3
    f878:	00b50533          	add	a0,a0,a1
    f87c:	42855513          	srai	a0,a0,0x28
    f880:	dca43823          	sd	a0,-560(s0)
    f884:	00aec663          	blt	t4,a0,f890 <.LBB52_1934>
    f888:	f8200513          	li	a0,-126
    f88c:	dca43823          	sd	a0,-560(s0)

000000000000f890 <.LBB52_1934>:
    f890:	02748533          	mul	a0,s1,t2
    f894:	dc043583          	ld	a1,-576(s0)
    f898:	013585b3          	add	a1,a1,s3
    f89c:	00b50533          	add	a0,a0,a1
    f8a0:	42855513          	srai	a0,a0,0x28
    f8a4:	dca43023          	sd	a0,-576(s0)
    f8a8:	da043603          	ld	a2,-608(s0)
    f8ac:	db043583          	ld	a1,-592(s0)
    f8b0:	00aec663          	blt	t4,a0,f8bc <.LBB52_1936>
    f8b4:	f8200513          	li	a0,-126
    f8b8:	dca43023          	sd	a0,-576(s0)

000000000000f8bc <.LBB52_1936>:
    f8bc:	00001537          	lui	a0,0x1
    f8c0:	40a40533          	sub	a0,s0,a0
    f8c4:	61853503          	ld	a0,1560(a0) # 1618 <.LBB52_5+0x240>
    f8c8:	02750533          	mul	a0,a0,t2
    f8cc:	013585b3          	add	a1,a1,s3
    f8d0:	00b50533          	add	a0,a0,a1
    f8d4:	42855513          	srai	a0,a0,0x28
    f8d8:	daa43823          	sd	a0,-592(s0)
    f8dc:	00aec663          	blt	t4,a0,f8e8 <.LBB52_1938>
    f8e0:	f8200513          	li	a0,-126
    f8e4:	daa43823          	sd	a0,-592(s0)

000000000000f8e8 <.LBB52_1938>:
    f8e8:	00001537          	lui	a0,0x1
    f8ec:	40a40533          	sub	a0,s0,a0
    f8f0:	62853503          	ld	a0,1576(a0) # 1628 <.LBB52_5+0x250>
    f8f4:	02750533          	mul	a0,a0,t2
    f8f8:	013605b3          	add	a1,a2,s3
    f8fc:	00b50533          	add	a0,a0,a1
    f900:	42855513          	srai	a0,a0,0x28
    f904:	daa43023          	sd	a0,-608(s0)
    f908:	00aec663          	blt	t4,a0,f914 <.LBB52_1940>
    f90c:	f8200513          	li	a0,-126
    f910:	daa43023          	sd	a0,-608(s0)

000000000000f914 <.LBB52_1940>:
    f914:	d9043503          	ld	a0,-624(s0)
    f918:	02750533          	mul	a0,a0,t2
    f91c:	000015b7          	lui	a1,0x1
    f920:	40b405b3          	sub	a1,s0,a1
    f924:	6b85b583          	ld	a1,1720(a1) # 16b8 <.LBB52_5+0x2e0>
    f928:	013585b3          	add	a1,a1,s3
    f92c:	00b50533          	add	a0,a0,a1
    f930:	42855513          	srai	a0,a0,0x28
    f934:	d8a43823          	sd	a0,-624(s0)
    f938:	00aec663          	blt	t4,a0,f944 <.LBB52_1942>
    f93c:	f8200513          	li	a0,-126
    f940:	d8a43823          	sd	a0,-624(s0)

000000000000f944 <.LBB52_1942>:
    f944:	d8043503          	ld	a0,-640(s0)
    f948:	02750533          	mul	a0,a0,t2
    f94c:	000015b7          	lui	a1,0x1
    f950:	40b405b3          	sub	a1,s0,a1
    f954:	6e85b583          	ld	a1,1768(a1) # 16e8 <.LBB52_5+0x310>
    f958:	013585b3          	add	a1,a1,s3
    f95c:	00b50533          	add	a0,a0,a1
    f960:	42855513          	srai	a0,a0,0x28
    f964:	d8a43023          	sd	a0,-640(s0)
    f968:	00aec663          	blt	t4,a0,f974 <.LBB52_1944>
    f96c:	f8200513          	li	a0,-126
    f970:	d8a43023          	sd	a0,-640(s0)

000000000000f974 <.LBB52_1944>:
    f974:	d7043503          	ld	a0,-656(s0)
    f978:	02750533          	mul	a0,a0,t2
    f97c:	000015b7          	lui	a1,0x1
    f980:	40b405b3          	sub	a1,s0,a1
    f984:	7185b583          	ld	a1,1816(a1) # 1718 <.LBB52_5+0x340>
    f988:	013585b3          	add	a1,a1,s3
    f98c:	00b50533          	add	a0,a0,a1
    f990:	42855513          	srai	a0,a0,0x28
    f994:	d6a43823          	sd	a0,-656(s0)
    f998:	00aec663          	blt	t4,a0,f9a4 <.LBB52_1946>
    f99c:	f8200513          	li	a0,-126
    f9a0:	d6a43823          	sd	a0,-656(s0)

000000000000f9a4 <.LBB52_1946>:
    f9a4:	d6043503          	ld	a0,-672(s0)
    f9a8:	02750533          	mul	a0,a0,t2
    f9ac:	000015b7          	lui	a1,0x1
    f9b0:	40b405b3          	sub	a1,s0,a1
    f9b4:	7485b583          	ld	a1,1864(a1) # 1748 <.LBB52_5+0x370>
    f9b8:	013585b3          	add	a1,a1,s3
    f9bc:	00b50533          	add	a0,a0,a1
    f9c0:	42855513          	srai	a0,a0,0x28
    f9c4:	d6a43023          	sd	a0,-672(s0)
    f9c8:	00aec663          	blt	t4,a0,f9d4 <.LBB52_1948>
    f9cc:	f8200513          	li	a0,-126
    f9d0:	d6a43023          	sd	a0,-672(s0)

000000000000f9d4 <.LBB52_1948>:
    f9d4:	d5043503          	ld	a0,-688(s0)
    f9d8:	02750533          	mul	a0,a0,t2
    f9dc:	000015b7          	lui	a1,0x1
    f9e0:	40b405b3          	sub	a1,s0,a1
    f9e4:	7785b583          	ld	a1,1912(a1) # 1778 <.LBB52_5+0x3a0>
    f9e8:	013585b3          	add	a1,a1,s3
    f9ec:	00b50533          	add	a0,a0,a1
    f9f0:	42855513          	srai	a0,a0,0x28
    f9f4:	d4a43823          	sd	a0,-688(s0)
    f9f8:	00aec663          	blt	t4,a0,fa04 <.LBB52_1950>
    f9fc:	f8200513          	li	a0,-126
    fa00:	d4a43823          	sd	a0,-688(s0)

000000000000fa04 <.LBB52_1950>:
    fa04:	d4043503          	ld	a0,-704(s0)
    fa08:	02750533          	mul	a0,a0,t2
    fa0c:	000015b7          	lui	a1,0x1
    fa10:	40b405b3          	sub	a1,s0,a1
    fa14:	7a85b583          	ld	a1,1960(a1) # 17a8 <.LBB52_5+0x3d0>
    fa18:	013585b3          	add	a1,a1,s3
    fa1c:	00b50533          	add	a0,a0,a1
    fa20:	42855513          	srai	a0,a0,0x28
    fa24:	d4a43023          	sd	a0,-704(s0)
    fa28:	00aec663          	blt	t4,a0,fa34 <.LBB52_1952>
    fa2c:	f8200513          	li	a0,-126
    fa30:	d4a43023          	sd	a0,-704(s0)

000000000000fa34 <.LBB52_1952>:
    fa34:	d3843503          	ld	a0,-712(s0)
    fa38:	02750533          	mul	a0,a0,t2
    fa3c:	000015b7          	lui	a1,0x1
    fa40:	40b405b3          	sub	a1,s0,a1
    fa44:	7d05b583          	ld	a1,2000(a1) # 17d0 <.LBB52_5+0x3f8>
    fa48:	013585b3          	add	a1,a1,s3
    fa4c:	00b50533          	add	a0,a0,a1
    fa50:	42855513          	srai	a0,a0,0x28
    fa54:	d2a43c23          	sd	a0,-712(s0)
    fa58:	00aec663          	blt	t4,a0,fa64 <.LBB52_1954>
    fa5c:	f8200513          	li	a0,-126
    fa60:	d2a43c23          	sd	a0,-712(s0)

000000000000fa64 <.LBB52_1954>:
    fa64:	d3043503          	ld	a0,-720(s0)
    fa68:	02750533          	mul	a0,a0,t2
    fa6c:	000015b7          	lui	a1,0x1
    fa70:	40b405b3          	sub	a1,s0,a1
    fa74:	7f85b583          	ld	a1,2040(a1) # 17f8 <.LBB52_5+0x420>
    fa78:	013585b3          	add	a1,a1,s3
    fa7c:	00b50533          	add	a0,a0,a1
    fa80:	42855513          	srai	a0,a0,0x28
    fa84:	d2a43823          	sd	a0,-720(s0)
    fa88:	00aec663          	blt	t4,a0,fa94 <.LBB52_1956>
    fa8c:	f8200513          	li	a0,-126
    fa90:	d2a43823          	sd	a0,-720(s0)

000000000000fa94 <.LBB52_1956>:
    fa94:	d2843503          	ld	a0,-728(s0)
    fa98:	02750533          	mul	a0,a0,t2
    fa9c:	82043583          	ld	a1,-2016(s0)
    faa0:	013585b3          	add	a1,a1,s3
    faa4:	00b50533          	add	a0,a0,a1
    faa8:	42855513          	srai	a0,a0,0x28
    faac:	d2a43423          	sd	a0,-728(s0)
    fab0:	00aec663          	blt	t4,a0,fabc <.LBB52_1958>
    fab4:	f8200513          	li	a0,-126
    fab8:	d2a43423          	sd	a0,-728(s0)

000000000000fabc <.LBB52_1958>:
    fabc:	d2043503          	ld	a0,-736(s0)
    fac0:	02750533          	mul	a0,a0,t2
    fac4:	84843583          	ld	a1,-1976(s0)
    fac8:	013585b3          	add	a1,a1,s3
    facc:	00b50533          	add	a0,a0,a1
    fad0:	42855513          	srai	a0,a0,0x28
    fad4:	d2a43023          	sd	a0,-736(s0)
    fad8:	00aec663          	blt	t4,a0,fae4 <.LBB52_1960>
    fadc:	f8200513          	li	a0,-126
    fae0:	d2a43023          	sd	a0,-736(s0)

000000000000fae4 <.LBB52_1960>:
    fae4:	d1843503          	ld	a0,-744(s0)
    fae8:	02750533          	mul	a0,a0,t2
    faec:	87043583          	ld	a1,-1936(s0)
    faf0:	013585b3          	add	a1,a1,s3
    faf4:	00b50533          	add	a0,a0,a1
    faf8:	42855513          	srai	a0,a0,0x28
    fafc:	d0a43c23          	sd	a0,-744(s0)
    fb00:	00aec663          	blt	t4,a0,fb0c <.LBB52_1962>
    fb04:	f8200513          	li	a0,-126
    fb08:	d0a43c23          	sd	a0,-744(s0)

000000000000fb0c <.LBB52_1962>:
    fb0c:	d1043503          	ld	a0,-752(s0)
    fb10:	02750533          	mul	a0,a0,t2
    fb14:	89843583          	ld	a1,-1896(s0)
    fb18:	013585b3          	add	a1,a1,s3
    fb1c:	00b50533          	add	a0,a0,a1
    fb20:	42855513          	srai	a0,a0,0x28
    fb24:	d0a43823          	sd	a0,-752(s0)
    fb28:	00aec663          	blt	t4,a0,fb34 <.LBB52_1964>
    fb2c:	f8200513          	li	a0,-126
    fb30:	d0a43823          	sd	a0,-752(s0)

000000000000fb34 <.LBB52_1964>:
    fb34:	d0843503          	ld	a0,-760(s0)
    fb38:	02750533          	mul	a0,a0,t2
    fb3c:	8c043583          	ld	a1,-1856(s0)
    fb40:	013585b3          	add	a1,a1,s3
    fb44:	00b50533          	add	a0,a0,a1
    fb48:	42855513          	srai	a0,a0,0x28
    fb4c:	d0a43423          	sd	a0,-760(s0)
    fb50:	00aec663          	blt	t4,a0,fb5c <.LBB52_1966>
    fb54:	f8200513          	li	a0,-126
    fb58:	d0a43423          	sd	a0,-760(s0)

000000000000fb5c <.LBB52_1966>:
    fb5c:	d0043503          	ld	a0,-768(s0)
    fb60:	02750533          	mul	a0,a0,t2
    fb64:	8e043583          	ld	a1,-1824(s0)
    fb68:	013585b3          	add	a1,a1,s3
    fb6c:	00b50533          	add	a0,a0,a1
    fb70:	42855513          	srai	a0,a0,0x28
    fb74:	d0a43023          	sd	a0,-768(s0)
    fb78:	00aec663          	blt	t4,a0,fb84 <.LBB52_1968>
    fb7c:	f8200513          	li	a0,-126
    fb80:	d0a43023          	sd	a0,-768(s0)

000000000000fb84 <.LBB52_1968>:
    fb84:	cf843503          	ld	a0,-776(s0)
    fb88:	02750533          	mul	a0,a0,t2
    fb8c:	90043583          	ld	a1,-1792(s0)
    fb90:	013585b3          	add	a1,a1,s3
    fb94:	00b50533          	add	a0,a0,a1
    fb98:	42855513          	srai	a0,a0,0x28
    fb9c:	cea43c23          	sd	a0,-776(s0)
    fba0:	00aec663          	blt	t4,a0,fbac <.LBB52_1970>
    fba4:	f8200513          	li	a0,-126
    fba8:	cea43c23          	sd	a0,-776(s0)

000000000000fbac <.LBB52_1970>:
    fbac:	cf043503          	ld	a0,-784(s0)
    fbb0:	02750533          	mul	a0,a0,t2
    fbb4:	92843583          	ld	a1,-1752(s0)
    fbb8:	013585b3          	add	a1,a1,s3
    fbbc:	00b50533          	add	a0,a0,a1
    fbc0:	42855513          	srai	a0,a0,0x28
    fbc4:	cea43823          	sd	a0,-784(s0)
    fbc8:	00aec663          	blt	t4,a0,fbd4 <.LBB52_1972>
    fbcc:	f8200513          	li	a0,-126
    fbd0:	cea43823          	sd	a0,-784(s0)

000000000000fbd4 <.LBB52_1972>:
    fbd4:	ce843503          	ld	a0,-792(s0)
    fbd8:	02750533          	mul	a0,a0,t2
    fbdc:	95043583          	ld	a1,-1712(s0)
    fbe0:	013585b3          	add	a1,a1,s3
    fbe4:	00b50533          	add	a0,a0,a1
    fbe8:	42855513          	srai	a0,a0,0x28
    fbec:	cea43423          	sd	a0,-792(s0)
    fbf0:	00aec663          	blt	t4,a0,fbfc <.LBB52_1974>
    fbf4:	f8200513          	li	a0,-126
    fbf8:	cea43423          	sd	a0,-792(s0)

000000000000fbfc <.LBB52_1974>:
    fbfc:	ce043503          	ld	a0,-800(s0)
    fc00:	02750533          	mul	a0,a0,t2
    fc04:	97843583          	ld	a1,-1672(s0)
    fc08:	013585b3          	add	a1,a1,s3
    fc0c:	00b50533          	add	a0,a0,a1
    fc10:	42855513          	srai	a0,a0,0x28
    fc14:	cea43023          	sd	a0,-800(s0)
    fc18:	00aec663          	blt	t4,a0,fc24 <.LBB52_1976>
    fc1c:	f8200513          	li	a0,-126
    fc20:	cea43023          	sd	a0,-800(s0)

000000000000fc24 <.LBB52_1976>:
    fc24:	cd043503          	ld	a0,-816(s0)
    fc28:	02750533          	mul	a0,a0,t2
    fc2c:	9a043583          	ld	a1,-1632(s0)
    fc30:	013585b3          	add	a1,a1,s3
    fc34:	00b50533          	add	a0,a0,a1
    fc38:	42855513          	srai	a0,a0,0x28
    fc3c:	cca43823          	sd	a0,-816(s0)
    fc40:	00aec663          	blt	t4,a0,fc4c <.LBB52_1978>
    fc44:	f8200513          	li	a0,-126
    fc48:	cca43823          	sd	a0,-816(s0)

000000000000fc4c <.LBB52_1978>:
    fc4c:	cc043503          	ld	a0,-832(s0)
    fc50:	02750533          	mul	a0,a0,t2
    fc54:	c5843583          	ld	a1,-936(s0)
    fc58:	013585b3          	add	a1,a1,s3
    fc5c:	00b50533          	add	a0,a0,a1
    fc60:	42855513          	srai	a0,a0,0x28
    fc64:	cca43023          	sd	a0,-832(s0)
    fc68:	00aec663          	blt	t4,a0,fc74 <.LBB52_1980>
    fc6c:	f8200513          	li	a0,-126
    fc70:	cca43023          	sd	a0,-832(s0)

000000000000fc74 <.LBB52_1980>:
    fc74:	cb043503          	ld	a0,-848(s0)
    fc78:	02750533          	mul	a0,a0,t2
    fc7c:	c6043583          	ld	a1,-928(s0)
    fc80:	013585b3          	add	a1,a1,s3
    fc84:	00b50533          	add	a0,a0,a1
    fc88:	42855513          	srai	a0,a0,0x28
    fc8c:	caa43823          	sd	a0,-848(s0)
    fc90:	00aec663          	blt	t4,a0,fc9c <.LBB52_1982>
    fc94:	f8200513          	li	a0,-126
    fc98:	caa43823          	sd	a0,-848(s0)

000000000000fc9c <.LBB52_1982>:
    fc9c:	ca043503          	ld	a0,-864(s0)
    fca0:	02750533          	mul	a0,a0,t2
    fca4:	c6843583          	ld	a1,-920(s0)
    fca8:	013585b3          	add	a1,a1,s3
    fcac:	00b50533          	add	a0,a0,a1
    fcb0:	42855513          	srai	a0,a0,0x28
    fcb4:	caa43023          	sd	a0,-864(s0)
    fcb8:	00aec663          	blt	t4,a0,fcc4 <.LBB52_1984>
    fcbc:	f8200513          	li	a0,-126
    fcc0:	caa43023          	sd	a0,-864(s0)

000000000000fcc4 <.LBB52_1984>:
    fcc4:	c9043503          	ld	a0,-880(s0)
    fcc8:	02750533          	mul	a0,a0,t2
    fccc:	c7043583          	ld	a1,-912(s0)
    fcd0:	013585b3          	add	a1,a1,s3
    fcd4:	00b50533          	add	a0,a0,a1
    fcd8:	42855513          	srai	a0,a0,0x28
    fcdc:	c8a43823          	sd	a0,-880(s0)
    fce0:	00aec663          	blt	t4,a0,fcec <.LBB52_1986>
    fce4:	f8200513          	li	a0,-126
    fce8:	c8a43823          	sd	a0,-880(s0)

000000000000fcec <.LBB52_1986>:
    fcec:	c8043503          	ld	a0,-896(s0)
    fcf0:	02750533          	mul	a0,a0,t2
    fcf4:	c7843583          	ld	a1,-904(s0)
    fcf8:	013585b3          	add	a1,a1,s3
    fcfc:	00b50533          	add	a0,a0,a1
    fd00:	42855513          	srai	a0,a0,0x28
    fd04:	c8a43023          	sd	a0,-896(s0)
    fd08:	00aec663          	blt	t4,a0,fd14 <.LBB52_1988>
    fd0c:	f8200513          	li	a0,-126
    fd10:	c8a43023          	sd	a0,-896(s0)

000000000000fd14 <.LBB52_1988>:
    fd14:	c9843503          	ld	a0,-872(s0)
    fd18:	02750533          	mul	a0,a0,t2
    fd1c:	c8843583          	ld	a1,-888(s0)
    fd20:	013585b3          	add	a1,a1,s3
    fd24:	00b50533          	add	a0,a0,a1
    fd28:	42855513          	srai	a0,a0,0x28
    fd2c:	c6a43823          	sd	a0,-912(s0)
    fd30:	00aec663          	blt	t4,a0,fd3c <.LBB52_1990>
    fd34:	f8200513          	li	a0,-126
    fd38:	c6a43823          	sd	a0,-912(s0)

000000000000fd3c <.LBB52_1990>:
    fd3c:	cb843503          	ld	a0,-840(s0)
    fd40:	02750533          	mul	a0,a0,t2
    fd44:	ca843583          	ld	a1,-856(s0)
    fd48:	013585b3          	add	a1,a1,s3
    fd4c:	00b50533          	add	a0,a0,a1
    fd50:	42855513          	srai	a0,a0,0x28
    fd54:	c6a43023          	sd	a0,-928(s0)
    fd58:	00aec663          	blt	t4,a0,fd64 <.LBB52_1992>
    fd5c:	f8200513          	li	a0,-126
    fd60:	c6a43023          	sd	a0,-928(s0)

000000000000fd64 <.LBB52_1992>:
    fd64:	cd843503          	ld	a0,-808(s0)
    fd68:	027505b3          	mul	a1,a0,t2
    fd6c:	cc843603          	ld	a2,-824(s0)
    fd70:	01360633          	add	a2,a2,s3
    fd74:	00c585b3          	add	a1,a1,a2
    fd78:	4285d593          	srai	a1,a1,0x28
    fd7c:	c4b43823          	sd	a1,-944(s0)
    fd80:	00bec663          	blt	t4,a1,fd8c <.LBB52_1994>
    fd84:	f8200513          	li	a0,-126
    fd88:	c4a43823          	sd	a0,-944(s0)

000000000000fd8c <.LBB52_1994>:
    fd8c:	027f8633          	mul	a2,t6,t2
    fd90:	013806b3          	add	a3,a6,s3
    fd94:	00d60633          	add	a2,a2,a3
    fd98:	42865f93          	srai	t6,a2,0x28
    fd9c:	00088593          	mv	a1,a7
    fda0:	01fec463          	blt	t4,t6,fda8 <.LBB52_1996>
    fda4:	f8200f93          	li	t6,-126

000000000000fda8 <.LBB52_1996>:
    fda8:	02770633          	mul	a2,a4,t2
    fdac:	00001537          	lui	a0,0x1
    fdb0:	40a40533          	sub	a0,s0,a0
    fdb4:	63853683          	ld	a3,1592(a0) # 1638 <.LBB52_5+0x260>
    fdb8:	013686b3          	add	a3,a3,s3
    fdbc:	00d60633          	add	a2,a2,a3
    fdc0:	42865613          	srai	a2,a2,0x28
    fdc4:	ccc43c23          	sd	a2,-808(s0)
    fdc8:	00cec663          	blt	t4,a2,fdd4 <.LBB52_1998>
    fdcc:	f8200513          	li	a0,-126
    fdd0:	cca43c23          	sd	a0,-808(s0)

000000000000fdd4 <.LBB52_1998>:
    fdd4:	02778633          	mul	a2,a5,t2
    fdd8:	00001537          	lui	a0,0x1
    fddc:	40a40533          	sub	a0,s0,a0
    fde0:	65853683          	ld	a3,1624(a0) # 1658 <.LBB52_5+0x280>
    fde4:	013686b3          	add	a3,a3,s3
    fde8:	00d60633          	add	a2,a2,a3
    fdec:	42865613          	srai	a2,a2,0x28
    fdf0:	ccc43423          	sd	a2,-824(s0)
    fdf4:	00cec663          	blt	t4,a2,fe00 <.LBB52_2000>
    fdf8:	f8200513          	li	a0,-126
    fdfc:	cca43423          	sd	a0,-824(s0)

000000000000fe00 <.LBB52_2000>:
    fe00:	027a8633          	mul	a2,s5,t2
    fe04:	013d86b3          	add	a3,s11,s3
    fe08:	00d60633          	add	a2,a2,a3
    fe0c:	42865613          	srai	a2,a2,0x28
    fe10:	cac43c23          	sd	a2,-840(s0)
    fe14:	00001537          	lui	a0,0x1
    fe18:	40a40533          	sub	a0,s0,a0
    fe1c:	74053783          	ld	a5,1856(a0) # 1740 <.LBB52_5+0x368>
    fe20:	00cec663          	blt	t4,a2,fe2c <.LBB52_2002>
    fe24:	f8200513          	li	a0,-126
    fe28:	caa43c23          	sd	a0,-840(s0)

000000000000fe2c <.LBB52_2002>:
    fe2c:	027f0633          	mul	a2,t5,t2
    fe30:	00001537          	lui	a0,0x1
    fe34:	40a40533          	sub	a0,s0,a0
    fe38:	69053683          	ld	a3,1680(a0) # 1690 <.LBB52_5+0x2b8>
    fe3c:	013686b3          	add	a3,a3,s3
    fe40:	00d60633          	add	a2,a2,a3
    fe44:	42865613          	srai	a2,a2,0x28
    fe48:	cac43423          	sd	a2,-856(s0)
    fe4c:	a9043703          	ld	a4,-1392(s0)
    fe50:	00cec663          	blt	t4,a2,fe5c <.LBB52_2004>
    fe54:	f8200513          	li	a0,-126
    fe58:	caa43423          	sd	a0,-856(s0)

000000000000fe5c <.LBB52_2004>:
    fe5c:	027d0633          	mul	a2,s10,t2
    fe60:	00001537          	lui	a0,0x1
    fe64:	40a40533          	sub	a0,s0,a0
    fe68:	6b053683          	ld	a3,1712(a0) # 16b0 <.LBB52_5+0x2d8>
    fe6c:	013686b3          	add	a3,a3,s3
    fe70:	00d60633          	add	a2,a2,a3
    fe74:	42865613          	srai	a2,a2,0x28
    fe78:	c3043f03          	ld	t5,-976(s0)
    fe7c:	c8c43c23          	sd	a2,-872(s0)
    fe80:	00cec663          	blt	t4,a2,fe8c <.LBB52_2006>
    fe84:	f8200513          	li	a0,-126
    fe88:	c8a43c23          	sd	a0,-872(s0)

000000000000fe8c <.LBB52_2006>:
    fe8c:	02708633          	mul	a2,ra,t2
    fe90:	00001537          	lui	a0,0x1
    fe94:	40a40533          	sub	a0,s0,a0
    fe98:	6e053683          	ld	a3,1760(a0) # 16e0 <.LBB52_5+0x308>
    fe9c:	013686b3          	add	a3,a3,s3
    fea0:	00d60633          	add	a2,a2,a3
    fea4:	42865613          	srai	a2,a2,0x28
    fea8:	c8c43423          	sd	a2,-888(s0)
    feac:	00cec663          	blt	t4,a2,feb8 <.LBB52_2008>
    feb0:	f8200513          	li	a0,-126
    feb4:	c8a43423          	sd	a0,-888(s0)

000000000000feb8 <.LBB52_2008>:
    feb8:	02728633          	mul	a2,t0,t2
    febc:	00001537          	lui	a0,0x1
    fec0:	40a40533          	sub	a0,s0,a0
    fec4:	71053683          	ld	a3,1808(a0) # 1710 <.LBB52_5+0x338>
    fec8:	013686b3          	add	a3,a3,s3
    fecc:	00d60633          	add	a2,a2,a3
    fed0:	42865613          	srai	a2,a2,0x28
    fed4:	c6c43c23          	sd	a2,-904(s0)
    fed8:	00cec663          	blt	t4,a2,fee4 <.LBB52_2010>
    fedc:	f8200513          	li	a0,-126
    fee0:	c6a43c23          	sd	a0,-904(s0)

000000000000fee4 <.LBB52_2010>:
    fee4:	027e0633          	mul	a2,t3,t2
    fee8:	013786b3          	add	a3,a5,s3
    feec:	00d60633          	add	a2,a2,a3
    fef0:	42865613          	srai	a2,a2,0x28
    fef4:	c6c43423          	sd	a2,-920(s0)
    fef8:	00cec663          	blt	t4,a2,ff04 <.LBB52_2012>
    fefc:	f8200513          	li	a0,-126
    ff00:	c6a43423          	sd	a0,-920(s0)

000000000000ff04 <.LBB52_2012>:
    ff04:	00001537          	lui	a0,0x1
    ff08:	40a40533          	sub	a0,s0,a0
    ff0c:	78053503          	ld	a0,1920(a0) # 1780 <.LBB52_5+0x3a8>
    ff10:	02750633          	mul	a2,a0,t2
    ff14:	00001537          	lui	a0,0x1
    ff18:	40a40533          	sub	a0,s0,a0
    ff1c:	77053683          	ld	a3,1904(a0) # 1770 <.LBB52_5+0x398>
    ff20:	013686b3          	add	a3,a3,s3
    ff24:	00d60633          	add	a2,a2,a3
    ff28:	42865613          	srai	a2,a2,0x28
    ff2c:	c4c43c23          	sd	a2,-936(s0)
    ff30:	00cec663          	blt	t4,a2,ff3c <.LBB52_2014>
    ff34:	f8200513          	li	a0,-126
    ff38:	c4a43c23          	sd	a0,-936(s0)

000000000000ff3c <.LBB52_2014>:
    ff3c:	a9843503          	ld	a0,-1384(s0)
    ff40:	02750633          	mul	a2,a0,t2
    ff44:	013706b3          	add	a3,a4,s3
    ff48:	00d60633          	add	a2,a2,a3
    ff4c:	42865613          	srai	a2,a2,0x28
    ff50:	00cec463          	blt	t4,a2,ff58 <.LBB52_2016>
    ff54:	f8200613          	li	a2,-126

000000000000ff58 <.LBB52_2016>:
    ff58:	aa843503          	ld	a0,-1368(s0)
    ff5c:	027506b3          	mul	a3,a0,t2
    ff60:	aa043703          	ld	a4,-1376(s0)
    ff64:	01370733          	add	a4,a4,s3
    ff68:	00e686b3          	add	a3,a3,a4
    ff6c:	4286d693          	srai	a3,a3,0x28
    ff70:	00dec463          	blt	t4,a3,ff78 <.LBB52_2018>
    ff74:	f8200693          	li	a3,-126

000000000000ff78 <.LBB52_2018>:
    ff78:	ab843503          	ld	a0,-1352(s0)
    ff7c:	02750733          	mul	a4,a0,t2
    ff80:	ab043783          	ld	a5,-1360(s0)
    ff84:	013787b3          	add	a5,a5,s3
    ff88:	00f70733          	add	a4,a4,a5
    ff8c:	42875713          	srai	a4,a4,0x28
    ff90:	00eec463          	blt	t4,a4,ff98 <.LBB52_2020>
    ff94:	f8200713          	li	a4,-126

000000000000ff98 <.LBB52_2020>:
    ff98:	ac843503          	ld	a0,-1336(s0)
    ff9c:	027507b3          	mul	a5,a0,t2
    ffa0:	ac043803          	ld	a6,-1344(s0)
    ffa4:	01380833          	add	a6,a6,s3
    ffa8:	010787b3          	add	a5,a5,a6
    ffac:	4287d493          	srai	s1,a5,0x28
    ffb0:	009ec463          	blt	t4,s1,ffb8 <.LBB52_2022>
    ffb4:	f8200493          	li	s1,-126

000000000000ffb8 <.LBB52_2022>:
    ffb8:	ad843503          	ld	a0,-1320(s0)
    ffbc:	027507b3          	mul	a5,a0,t2
    ffc0:	ad043803          	ld	a6,-1328(s0)
    ffc4:	01380833          	add	a6,a6,s3
    ffc8:	010787b3          	add	a5,a5,a6
    ffcc:	4287d293          	srai	t0,a5,0x28
    ffd0:	005ec463          	blt	t4,t0,ffd8 <.LBB52_2024>
    ffd4:	f8200293          	li	t0,-126

000000000000ffd8 <.LBB52_2024>:
    ffd8:	ae843503          	ld	a0,-1304(s0)
    ffdc:	027507b3          	mul	a5,a0,t2
    ffe0:	ae043803          	ld	a6,-1312(s0)
    ffe4:	01380833          	add	a6,a6,s3
    ffe8:	010787b3          	add	a5,a5,a6
    ffec:	4287d913          	srai	s2,a5,0x28
    fff0:	012ec463          	blt	t4,s2,fff8 <.LBB52_2026>
    fff4:	f8200913          	li	s2,-126

000000000000fff8 <.LBB52_2026>:
    fff8:	b9043503          	ld	a0,-1136(s0)
    fffc:	027507b3          	mul	a5,a0,t2
   10000:	b5843803          	ld	a6,-1192(s0)
   10004:	01380833          	add	a6,a6,s3
   10008:	010787b3          	add	a5,a5,a6
   1000c:	4287de13          	srai	t3,a5,0x28
   10010:	01cec463          	blt	t4,t3,10018 <.LBB52_2028>
   10014:	f8200e13          	li	t3,-126

0000000000010018 <.LBB52_2028>:
   10018:	b8843503          	ld	a0,-1144(s0)
   1001c:	027507b3          	mul	a5,a0,t2
   10020:	b5043803          	ld	a6,-1200(s0)
   10024:	01380833          	add	a6,a6,s3
   10028:	010787b3          	add	a5,a5,a6
   1002c:	4287da13          	srai	s4,a5,0x28
   10030:	014ec463          	blt	t4,s4,10038 <.LBB52_2030>
   10034:	f8200a13          	li	s4,-126

0000000000010038 <.LBB52_2030>:
   10038:	b8043503          	ld	a0,-1152(s0)
   1003c:	027507b3          	mul	a5,a0,t2
   10040:	b4843803          	ld	a6,-1208(s0)
   10044:	01380833          	add	a6,a6,s3
   10048:	010787b3          	add	a5,a5,a6
   1004c:	4287da93          	srai	s5,a5,0x28
   10050:	015ec463          	blt	t4,s5,10058 <.LBB52_2032>
   10054:	f8200a93          	li	s5,-126

0000000000010058 <.LBB52_2032>:
   10058:	b7843503          	ld	a0,-1160(s0)
   1005c:	027507b3          	mul	a5,a0,t2
   10060:	b4043803          	ld	a6,-1216(s0)
   10064:	01380833          	add	a6,a6,s3
   10068:	010787b3          	add	a5,a5,a6
   1006c:	4287db13          	srai	s6,a5,0x28
   10070:	016ec463          	blt	t4,s6,10078 <.LBB52_2034>
   10074:	f8200b13          	li	s6,-126

0000000000010078 <.LBB52_2034>:
   10078:	b6843503          	ld	a0,-1176(s0)
   1007c:	027507b3          	mul	a5,a0,t2
   10080:	b3843803          	ld	a6,-1224(s0)
   10084:	01380833          	add	a6,a6,s3
   10088:	010787b3          	add	a5,a5,a6
   1008c:	4287db93          	srai	s7,a5,0x28
   10090:	017ec463          	blt	t4,s7,10098 <.LBB52_2036>
   10094:	f8200b93          	li	s7,-126

0000000000010098 <.LBB52_2036>:
   10098:	b6043503          	ld	a0,-1184(s0)
   1009c:	027507b3          	mul	a5,a0,t2
   100a0:	b3043803          	ld	a6,-1232(s0)
   100a4:	01380833          	add	a6,a6,s3
   100a8:	010787b3          	add	a5,a5,a6
   100ac:	4287dc13          	srai	s8,a5,0x28
   100b0:	018ec463          	blt	t4,s8,100b8 <.LBB52_2038>
   100b4:	f8200c13          	li	s8,-126

00000000000100b8 <.LBB52_2038>:
   100b8:	b1043503          	ld	a0,-1264(s0)
   100bc:	027507b3          	mul	a5,a0,t2
   100c0:	af043803          	ld	a6,-1296(s0)
   100c4:	01380833          	add	a6,a6,s3
   100c8:	010787b3          	add	a5,a5,a6
   100cc:	4287dc93          	srai	s9,a5,0x28
   100d0:	019ec463          	blt	t4,s9,100d8 <.LBB52_2040>
   100d4:	f8200c93          	li	s9,-126

00000000000100d8 <.LBB52_2040>:
   100d8:	b0043503          	ld	a0,-1280(s0)
   100dc:	027507b3          	mul	a5,a0,t2
   100e0:	af843803          	ld	a6,-1288(s0)
   100e4:	01380833          	add	a6,a6,s3
   100e8:	010787b3          	add	a5,a5,a6
   100ec:	4287dd13          	srai	s10,a5,0x28
   100f0:	01aec463          	blt	t4,s10,100f8 <.LBB52_2042>
   100f4:	f8200d13          	li	s10,-126

00000000000100f8 <.LBB52_2042>:
   100f8:	b1843503          	ld	a0,-1256(s0)
   100fc:	027507b3          	mul	a5,a0,t2
   10100:	b0843803          	ld	a6,-1272(s0)
   10104:	01380833          	add	a6,a6,s3
   10108:	010787b3          	add	a5,a5,a6
   1010c:	4287dd93          	srai	s11,a5,0x28
   10110:	01bec463          	blt	t4,s11,10118 <.LBB52_2044>
   10114:	f8200d93          	li	s11,-126

0000000000010118 <.LBB52_2044>:
   10118:	b2843503          	ld	a0,-1240(s0)
   1011c:	027507b3          	mul	a5,a0,t2
   10120:	b2043803          	ld	a6,-1248(s0)
   10124:	01380833          	add	a6,a6,s3
   10128:	010787b3          	add	a5,a5,a6
   1012c:	4287d093          	srai	ra,a5,0x28
   10130:	001ec463          	blt	t4,ra,10138 <.LBB52_2046>
   10134:	f8200093          	li	ra,-126

0000000000010138 <.LBB52_2046>:
   10138:	b9843503          	ld	a0,-1128(s0)
   1013c:	027507b3          	mul	a5,a0,t2
   10140:	b7043803          	ld	a6,-1168(s0)
   10144:	01380833          	add	a6,a6,s3
   10148:	010787b3          	add	a5,a5,a6
   1014c:	4287d313          	srai	t1,a5,0x28
   10150:	006ec463          	blt	t4,t1,10158 <.LBB52_2048>
   10154:	f8200313          	li	t1,-126

0000000000010158 <.LBB52_2048>:
   10158:	bb843503          	ld	a0,-1096(s0)
   1015c:	027507b3          	mul	a5,a0,t2
   10160:	bb043803          	ld	a6,-1104(s0)
   10164:	01380833          	add	a6,a6,s3
   10168:	010787b3          	add	a5,a5,a6
   1016c:	4287d793          	srai	a5,a5,0x28
   10170:	00fec463          	blt	t4,a5,10178 <.LBB52_2050>
   10174:	f8200793          	li	a5,-126

0000000000010178 <.LBB52_2050>:
   10178:	bd843503          	ld	a0,-1064(s0)
   1017c:	02750833          	mul	a6,a0,t2
   10180:	bd043883          	ld	a7,-1072(s0)
   10184:	013888b3          	add	a7,a7,s3
   10188:	01180833          	add	a6,a6,a7
   1018c:	42885893          	srai	a7,a6,0x28
   10190:	011ec463          	blt	t4,a7,10198 <.LBB52_2052>
   10194:	f8200893          	li	a7,-126

0000000000010198 <.LBB52_2052>:
   10198:	bf843503          	ld	a0,-1032(s0)
   1019c:	02750833          	mul	a6,a0,t2
   101a0:	bf043383          	ld	t2,-1040(s0)
   101a4:	013383b3          	add	t2,t2,s3
   101a8:	00780833          	add	a6,a6,t2
   101ac:	42885813          	srai	a6,a6,0x28
   101b0:	010ec463          	blt	t4,a6,101b8 <.LBB52_2054>
   101b4:	f8200813          	li	a6,-126

00000000000101b8 <.LBB52_2054>:
   101b8:	a8043503          	ld	a0,-1408(s0)
   101bc:	c3843383          	ld	t2,-968(s0)
   101c0:	02a383b3          	mul	t2,t2,a0
   101c4:	013f0f33          	add	t5,t5,s3
   101c8:	01e383b3          	add	t2,t2,t5
   101cc:	4283d393          	srai	t2,t2,0x28
   101d0:	007ec463          	blt	t4,t2,101d8 <.LBB52_2056>
   101d4:	f8200393          	li	t2,-126

00000000000101d8 <.LBB52_2056>:
   101d8:	a8043503          	ld	a0,-1408(s0)
   101dc:	c4843f03          	ld	t5,-952(s0)
   101e0:	02af0f33          	mul	t5,t5,a0
   101e4:	c4043503          	ld	a0,-960(s0)
   101e8:	013509b3          	add	s3,a0,s3
   101ec:	013f0f33          	add	t5,t5,s3
   101f0:	428f5993          	srai	s3,t5,0x28
   101f4:	3b3ed663          	bge	t4,s3,105a0 <.LBB52_2185>
   101f8:	08100e93          	li	t4,129
   101fc:	3bd5d863          	bge	a1,t4,105ac <.LBB52_2186>

0000000000010200 <.LBB52_2058>:
   10200:	e5043503          	ld	a0,-432(s0)
   10204:	3bd55a63          	bge	a0,t4,105b8 <.LBB52_2187>

0000000000010208 <.LBB52_2059>:
   10208:	e6043503          	ld	a0,-416(s0)
   1020c:	3bd55e63          	bge	a0,t4,105c8 <.LBB52_2188>

0000000000010210 <.LBB52_2060>:
   10210:	e7043503          	ld	a0,-400(s0)
   10214:	3dd55263          	bge	a0,t4,105d8 <.LBB52_2189>

0000000000010218 <.LBB52_2061>:
   10218:	e8043503          	ld	a0,-384(s0)
   1021c:	3dd55663          	bge	a0,t4,105e8 <.LBB52_2190>

0000000000010220 <.LBB52_2062>:
   10220:	e9043503          	ld	a0,-368(s0)
   10224:	3dd55a63          	bge	a0,t4,105f8 <.LBB52_2191>

0000000000010228 <.LBB52_2063>:
   10228:	ea043503          	ld	a0,-352(s0)
   1022c:	3dd55e63          	bge	a0,t4,10608 <.LBB52_2192>

0000000000010230 <.LBB52_2064>:
   10230:	eb043503          	ld	a0,-336(s0)
   10234:	3fd55263          	bge	a0,t4,10618 <.LBB52_2193>

0000000000010238 <.LBB52_2065>:
   10238:	ec043503          	ld	a0,-320(s0)
   1023c:	3fd55663          	bge	a0,t4,10628 <.LBB52_2194>

0000000000010240 <.LBB52_2066>:
   10240:	ed043503          	ld	a0,-304(s0)
   10244:	3fd55a63          	bge	a0,t4,10638 <.LBB52_2195>

0000000000010248 <.LBB52_2067>:
   10248:	ee043503          	ld	a0,-288(s0)
   1024c:	3fd55e63          	bge	a0,t4,10648 <.LBB52_2196>

0000000000010250 <.LBB52_2068>:
   10250:	ee843503          	ld	a0,-280(s0)
   10254:	41d55263          	bge	a0,t4,10658 <.LBB52_2197>

0000000000010258 <.LBB52_2069>:
   10258:	ef043503          	ld	a0,-272(s0)
   1025c:	41d55663          	bge	a0,t4,10668 <.LBB52_2198>

0000000000010260 <.LBB52_2070>:
   10260:	ef843503          	ld	a0,-264(s0)
   10264:	41d55a63          	bge	a0,t4,10678 <.LBB52_2199>

0000000000010268 <.LBB52_2071>:
   10268:	f0043503          	ld	a0,-256(s0)
   1026c:	41d55e63          	bge	a0,t4,10688 <.LBB52_2200>

0000000000010270 <.LBB52_2072>:
   10270:	f0843503          	ld	a0,-248(s0)
   10274:	43d55263          	bge	a0,t4,10698 <.LBB52_2201>

0000000000010278 <.LBB52_2073>:
   10278:	f1043503          	ld	a0,-240(s0)
   1027c:	43d55663          	bge	a0,t4,106a8 <.LBB52_2202>

0000000000010280 <.LBB52_2074>:
   10280:	f1843503          	ld	a0,-232(s0)
   10284:	43d55a63          	bge	a0,t4,106b8 <.LBB52_2203>

0000000000010288 <.LBB52_2075>:
   10288:	f2043503          	ld	a0,-224(s0)
   1028c:	43d55e63          	bge	a0,t4,106c8 <.LBB52_2204>

0000000000010290 <.LBB52_2076>:
   10290:	f2843503          	ld	a0,-216(s0)
   10294:	45d55263          	bge	a0,t4,106d8 <.LBB52_2205>

0000000000010298 <.LBB52_2077>:
   10298:	f3043503          	ld	a0,-208(s0)
   1029c:	45d55663          	bge	a0,t4,106e8 <.LBB52_2206>

00000000000102a0 <.LBB52_2078>:
   102a0:	f3843503          	ld	a0,-200(s0)
   102a4:	45d55a63          	bge	a0,t4,106f8 <.LBB52_2207>

00000000000102a8 <.LBB52_2079>:
   102a8:	f4043503          	ld	a0,-192(s0)
   102ac:	45d55e63          	bge	a0,t4,10708 <.LBB52_2208>

00000000000102b0 <.LBB52_2080>:
   102b0:	f4843503          	ld	a0,-184(s0)
   102b4:	47d55263          	bge	a0,t4,10718 <.LBB52_2209>

00000000000102b8 <.LBB52_2081>:
   102b8:	f5043503          	ld	a0,-176(s0)
   102bc:	47d55663          	bge	a0,t4,10728 <.LBB52_2210>

00000000000102c0 <.LBB52_2082>:
   102c0:	f5843503          	ld	a0,-168(s0)
   102c4:	47d55a63          	bge	a0,t4,10738 <.LBB52_2211>

00000000000102c8 <.LBB52_2083>:
   102c8:	f6043503          	ld	a0,-160(s0)
   102cc:	47d55e63          	bge	a0,t4,10748 <.LBB52_2212>

00000000000102d0 <.LBB52_2084>:
   102d0:	f6843503          	ld	a0,-152(s0)
   102d4:	49d55263          	bge	a0,t4,10758 <.LBB52_2213>

00000000000102d8 <.LBB52_2085>:
   102d8:	f7043503          	ld	a0,-144(s0)
   102dc:	49d55663          	bge	a0,t4,10768 <.LBB52_2214>

00000000000102e0 <.LBB52_2086>:
   102e0:	f7843503          	ld	a0,-136(s0)
   102e4:	49d55a63          	bge	a0,t4,10778 <.LBB52_2215>

00000000000102e8 <.LBB52_2087>:
   102e8:	f8043503          	ld	a0,-128(s0)
   102ec:	49d55e63          	bge	a0,t4,10788 <.LBB52_2216>

00000000000102f0 <.LBB52_2088>:
   102f0:	f8843503          	ld	a0,-120(s0)
   102f4:	4bd55263          	bge	a0,t4,10798 <.LBB52_2217>

00000000000102f8 <.LBB52_2089>:
   102f8:	d4843503          	ld	a0,-696(s0)
   102fc:	4bd55663          	bge	a0,t4,107a8 <.LBB52_2218>

0000000000010300 <.LBB52_2090>:
   10300:	d5843503          	ld	a0,-680(s0)
   10304:	4bd55a63          	bge	a0,t4,107b8 <.LBB52_2219>

0000000000010308 <.LBB52_2091>:
   10308:	d6843503          	ld	a0,-664(s0)
   1030c:	4bd55e63          	bge	a0,t4,107c8 <.LBB52_2220>

0000000000010310 <.LBB52_2092>:
   10310:	d7843503          	ld	a0,-648(s0)
   10314:	4dd55263          	bge	a0,t4,107d8 <.LBB52_2221>

0000000000010318 <.LBB52_2093>:
   10318:	d8843503          	ld	a0,-632(s0)
   1031c:	4dd55663          	bge	a0,t4,107e8 <.LBB52_2222>

0000000000010320 <.LBB52_2094>:
   10320:	d9843503          	ld	a0,-616(s0)
   10324:	4dd55a63          	bge	a0,t4,107f8 <.LBB52_2223>

0000000000010328 <.LBB52_2095>:
   10328:	da843503          	ld	a0,-600(s0)
   1032c:	4dd55e63          	bge	a0,t4,10808 <.LBB52_2224>

0000000000010330 <.LBB52_2096>:
   10330:	db843503          	ld	a0,-584(s0)
   10334:	4fd55263          	bge	a0,t4,10818 <.LBB52_2225>

0000000000010338 <.LBB52_2097>:
   10338:	dc843503          	ld	a0,-568(s0)
   1033c:	4fd55663          	bge	a0,t4,10828 <.LBB52_2226>

0000000000010340 <.LBB52_2098>:
   10340:	dd843503          	ld	a0,-552(s0)
   10344:	4fd55a63          	bge	a0,t4,10838 <.LBB52_2227>

0000000000010348 <.LBB52_2099>:
   10348:	de843503          	ld	a0,-536(s0)
   1034c:	4fd55e63          	bge	a0,t4,10848 <.LBB52_2228>

0000000000010350 <.LBB52_2100>:
   10350:	df043503          	ld	a0,-528(s0)
   10354:	51d55263          	bge	a0,t4,10858 <.LBB52_2229>

0000000000010358 <.LBB52_2101>:
   10358:	df843503          	ld	a0,-520(s0)
   1035c:	51d55663          	bge	a0,t4,10868 <.LBB52_2230>

0000000000010360 <.LBB52_2102>:
   10360:	e0043503          	ld	a0,-512(s0)
   10364:	51d55a63          	bge	a0,t4,10878 <.LBB52_2231>

0000000000010368 <.LBB52_2103>:
   10368:	e0843503          	ld	a0,-504(s0)
   1036c:	51d55e63          	bge	a0,t4,10888 <.LBB52_2232>

0000000000010370 <.LBB52_2104>:
   10370:	e1043503          	ld	a0,-496(s0)
   10374:	53d55263          	bge	a0,t4,10898 <.LBB52_2233>

0000000000010378 <.LBB52_2105>:
   10378:	e1843503          	ld	a0,-488(s0)
   1037c:	53d55663          	bge	a0,t4,108a8 <.LBB52_2234>

0000000000010380 <.LBB52_2106>:
   10380:	e2043503          	ld	a0,-480(s0)
   10384:	53d55a63          	bge	a0,t4,108b8 <.LBB52_2235>

0000000000010388 <.LBB52_2107>:
   10388:	e2843503          	ld	a0,-472(s0)
   1038c:	53d55e63          	bge	a0,t4,108c8 <.LBB52_2236>

0000000000010390 <.LBB52_2108>:
   10390:	e3043503          	ld	a0,-464(s0)
   10394:	55d55263          	bge	a0,t4,108d8 <.LBB52_2237>

0000000000010398 <.LBB52_2109>:
   10398:	e3843503          	ld	a0,-456(s0)
   1039c:	55d55663          	bge	a0,t4,108e8 <.LBB52_2238>

00000000000103a0 <.LBB52_2110>:
   103a0:	e4043503          	ld	a0,-448(s0)
   103a4:	55d55a63          	bge	a0,t4,108f8 <.LBB52_2239>

00000000000103a8 <.LBB52_2111>:
   103a8:	e4843503          	ld	a0,-440(s0)
   103ac:	55d55e63          	bge	a0,t4,10908 <.LBB52_2240>

00000000000103b0 <.LBB52_2112>:
   103b0:	e5843503          	ld	a0,-424(s0)
   103b4:	57d55263          	bge	a0,t4,10918 <.LBB52_2241>

00000000000103b8 <.LBB52_2113>:
   103b8:	e6843503          	ld	a0,-408(s0)
   103bc:	57d55663          	bge	a0,t4,10928 <.LBB52_2242>

00000000000103c0 <.LBB52_2114>:
   103c0:	e7843503          	ld	a0,-392(s0)
   103c4:	57d55a63          	bge	a0,t4,10938 <.LBB52_2243>

00000000000103c8 <.LBB52_2115>:
   103c8:	e8843503          	ld	a0,-376(s0)
   103cc:	57d55e63          	bge	a0,t4,10948 <.LBB52_2244>

00000000000103d0 <.LBB52_2116>:
   103d0:	e9843503          	ld	a0,-360(s0)
   103d4:	59d55263          	bge	a0,t4,10958 <.LBB52_2245>

00000000000103d8 <.LBB52_2117>:
   103d8:	ea843503          	ld	a0,-344(s0)
   103dc:	59d55663          	bge	a0,t4,10968 <.LBB52_2246>

00000000000103e0 <.LBB52_2118>:
   103e0:	eb843503          	ld	a0,-328(s0)
   103e4:	59d55a63          	bge	a0,t4,10978 <.LBB52_2247>

00000000000103e8 <.LBB52_2119>:
   103e8:	ec843503          	ld	a0,-312(s0)
   103ec:	59d55e63          	bge	a0,t4,10988 <.LBB52_2248>

00000000000103f0 <.LBB52_2120>:
   103f0:	ed843503          	ld	a0,-296(s0)
   103f4:	5bd55263          	bge	a0,t4,10998 <.LBB52_2249>

00000000000103f8 <.LBB52_2121>:
   103f8:	c5043503          	ld	a0,-944(s0)
   103fc:	5bd55663          	bge	a0,t4,109a8 <.LBB52_2250>

0000000000010400 <.LBB52_2122>:
   10400:	c6043503          	ld	a0,-928(s0)
   10404:	5bd55a63          	bge	a0,t4,109b8 <.LBB52_2251>

0000000000010408 <.LBB52_2123>:
   10408:	c7043503          	ld	a0,-912(s0)
   1040c:	5bd55e63          	bge	a0,t4,109c8 <.LBB52_2252>

0000000000010410 <.LBB52_2124>:
   10410:	c8043503          	ld	a0,-896(s0)
   10414:	5dd55263          	bge	a0,t4,109d8 <.LBB52_2253>

0000000000010418 <.LBB52_2125>:
   10418:	c9043503          	ld	a0,-880(s0)
   1041c:	5dd55663          	bge	a0,t4,109e8 <.LBB52_2254>

0000000000010420 <.LBB52_2126>:
   10420:	ca043503          	ld	a0,-864(s0)
   10424:	5dd55a63          	bge	a0,t4,109f8 <.LBB52_2255>

0000000000010428 <.LBB52_2127>:
   10428:	cb043503          	ld	a0,-848(s0)
   1042c:	5dd55e63          	bge	a0,t4,10a08 <.LBB52_2256>

0000000000010430 <.LBB52_2128>:
   10430:	cc043503          	ld	a0,-832(s0)
   10434:	5fd55263          	bge	a0,t4,10a18 <.LBB52_2257>

0000000000010438 <.LBB52_2129>:
   10438:	cd043503          	ld	a0,-816(s0)
   1043c:	5fd55663          	bge	a0,t4,10a28 <.LBB52_2258>

0000000000010440 <.LBB52_2130>:
   10440:	ce043503          	ld	a0,-800(s0)
   10444:	5fd55a63          	bge	a0,t4,10a38 <.LBB52_2259>

0000000000010448 <.LBB52_2131>:
   10448:	ce843503          	ld	a0,-792(s0)
   1044c:	5fd55e63          	bge	a0,t4,10a48 <.LBB52_2260>

0000000000010450 <.LBB52_2132>:
   10450:	cf043503          	ld	a0,-784(s0)
   10454:	61d55263          	bge	a0,t4,10a58 <.LBB52_2261>

0000000000010458 <.LBB52_2133>:
   10458:	cf843503          	ld	a0,-776(s0)
   1045c:	61d55663          	bge	a0,t4,10a68 <.LBB52_2262>

0000000000010460 <.LBB52_2134>:
   10460:	d0043503          	ld	a0,-768(s0)
   10464:	61d55a63          	bge	a0,t4,10a78 <.LBB52_2263>

0000000000010468 <.LBB52_2135>:
   10468:	d0843503          	ld	a0,-760(s0)
   1046c:	61d55e63          	bge	a0,t4,10a88 <.LBB52_2264>

0000000000010470 <.LBB52_2136>:
   10470:	d1043503          	ld	a0,-752(s0)
   10474:	63d55263          	bge	a0,t4,10a98 <.LBB52_2265>

0000000000010478 <.LBB52_2137>:
   10478:	d1843503          	ld	a0,-744(s0)
   1047c:	63d55663          	bge	a0,t4,10aa8 <.LBB52_2266>

0000000000010480 <.LBB52_2138>:
   10480:	d2043503          	ld	a0,-736(s0)
   10484:	63d55a63          	bge	a0,t4,10ab8 <.LBB52_2267>

0000000000010488 <.LBB52_2139>:
   10488:	d2843503          	ld	a0,-728(s0)
   1048c:	63d55e63          	bge	a0,t4,10ac8 <.LBB52_2268>

0000000000010490 <.LBB52_2140>:
   10490:	d3043503          	ld	a0,-720(s0)
   10494:	65d55263          	bge	a0,t4,10ad8 <.LBB52_2269>

0000000000010498 <.LBB52_2141>:
   10498:	d3843503          	ld	a0,-712(s0)
   1049c:	65d55663          	bge	a0,t4,10ae8 <.LBB52_2270>

00000000000104a0 <.LBB52_2142>:
   104a0:	d4043503          	ld	a0,-704(s0)
   104a4:	65d55a63          	bge	a0,t4,10af8 <.LBB52_2271>

00000000000104a8 <.LBB52_2143>:
   104a8:	d5043503          	ld	a0,-688(s0)
   104ac:	65d55e63          	bge	a0,t4,10b08 <.LBB52_2272>

00000000000104b0 <.LBB52_2144>:
   104b0:	d6043503          	ld	a0,-672(s0)
   104b4:	67d55263          	bge	a0,t4,10b18 <.LBB52_2273>

00000000000104b8 <.LBB52_2145>:
   104b8:	d7043503          	ld	a0,-656(s0)
   104bc:	67d55663          	bge	a0,t4,10b28 <.LBB52_2274>

00000000000104c0 <.LBB52_2146>:
   104c0:	d8043503          	ld	a0,-640(s0)
   104c4:	67d55a63          	bge	a0,t4,10b38 <.LBB52_2275>

00000000000104c8 <.LBB52_2147>:
   104c8:	d9043503          	ld	a0,-624(s0)
   104cc:	67d55e63          	bge	a0,t4,10b48 <.LBB52_2276>

00000000000104d0 <.LBB52_2148>:
   104d0:	da043503          	ld	a0,-608(s0)
   104d4:	69d55263          	bge	a0,t4,10b58 <.LBB52_2277>

00000000000104d8 <.LBB52_2149>:
   104d8:	db043503          	ld	a0,-592(s0)
   104dc:	69d55663          	bge	a0,t4,10b68 <.LBB52_2278>

00000000000104e0 <.LBB52_2150>:
   104e0:	dc043503          	ld	a0,-576(s0)
   104e4:	69d55a63          	bge	a0,t4,10b78 <.LBB52_2279>

00000000000104e8 <.LBB52_2151>:
   104e8:	dd043503          	ld	a0,-560(s0)
   104ec:	69d55e63          	bge	a0,t4,10b88 <.LBB52_2280>

00000000000104f0 <.LBB52_2152>:
   104f0:	de043503          	ld	a0,-544(s0)
   104f4:	6bd55263          	bge	a0,t4,10b98 <.LBB52_2281>

00000000000104f8 <.LBB52_2153>:
   104f8:	6bd9d663          	bge	s3,t4,10ba4 <.LBB52_2282>

00000000000104fc <.LBB52_2154>:
   104fc:	6bd3d863          	bge	t2,t4,10bac <.LBB52_2283>

0000000000010500 <.LBB52_2155>:
   10500:	6bd85a63          	bge	a6,t4,10bb4 <.LBB52_2284>

0000000000010504 <.LBB52_2156>:
   10504:	6bd8dc63          	bge	a7,t4,10bbc <.LBB52_2285>

0000000000010508 <.LBB52_2157>:
   10508:	6bd7de63          	bge	a5,t4,10bc4 <.LBB52_2286>

000000000001050c <.LBB52_2158>:
   1050c:	6dd35063          	bge	t1,t4,10bcc <.LBB52_2287>

0000000000010510 <.LBB52_2159>:
   10510:	6dd0d263          	bge	ra,t4,10bd4 <.LBB52_2288>

0000000000010514 <.LBB52_2160>:
   10514:	6dddd463          	bge	s11,t4,10bdc <.LBB52_2289>

0000000000010518 <.LBB52_2161>:
   10518:	6ddd5663          	bge	s10,t4,10be4 <.LBB52_2290>

000000000001051c <.LBB52_2162>:
   1051c:	6ddcd863          	bge	s9,t4,10bec <.LBB52_2291>

0000000000010520 <.LBB52_2163>:
   10520:	6ddc5a63          	bge	s8,t4,10bf4 <.LBB52_2292>

0000000000010524 <.LBB52_2164>:
   10524:	6ddbdc63          	bge	s7,t4,10bfc <.LBB52_2293>

0000000000010528 <.LBB52_2165>:
   10528:	6ddb5e63          	bge	s6,t4,10c04 <.LBB52_2294>

000000000001052c <.LBB52_2166>:
   1052c:	6fdad063          	bge	s5,t4,10c0c <.LBB52_2295>

0000000000010530 <.LBB52_2167>:
   10530:	6fda5263          	bge	s4,t4,10c14 <.LBB52_2296>

0000000000010534 <.LBB52_2168>:
   10534:	6fde5463          	bge	t3,t4,10c1c <.LBB52_2297>

0000000000010538 <.LBB52_2169>:
   10538:	6fd95663          	bge	s2,t4,10c24 <.LBB52_2298>

000000000001053c <.LBB52_2170>:
   1053c:	6fd2d863          	bge	t0,t4,10c2c <.LBB52_2299>

0000000000010540 <.LBB52_2171>:
   10540:	6fd4da63          	bge	s1,t4,10c34 <.LBB52_2300>

0000000000010544 <.LBB52_2172>:
   10544:	6fd75c63          	bge	a4,t4,10c3c <.LBB52_2301>

0000000000010548 <.LBB52_2173>:
   10548:	6fd6de63          	bge	a3,t4,10c44 <.LBB52_2302>

000000000001054c <.LBB52_2174>:
   1054c:	71d65063          	bge	a2,t4,10c4c <.LBB52_2303>

0000000000010550 <.LBB52_2175>:
   10550:	c5843503          	ld	a0,-936(s0)
   10554:	71d55263          	bge	a0,t4,10c58 <.LBB52_2304>

0000000000010558 <.LBB52_2176>:
   10558:	c6843503          	ld	a0,-920(s0)
   1055c:	71d55663          	bge	a0,t4,10c68 <.LBB52_2305>

0000000000010560 <.LBB52_2177>:
   10560:	c7843503          	ld	a0,-904(s0)
   10564:	71d55a63          	bge	a0,t4,10c78 <.LBB52_2306>

0000000000010568 <.LBB52_2178>:
   10568:	c8843503          	ld	a0,-888(s0)
   1056c:	71d55e63          	bge	a0,t4,10c88 <.LBB52_2307>

0000000000010570 <.LBB52_2179>:
   10570:	c9843503          	ld	a0,-872(s0)
   10574:	73d55263          	bge	a0,t4,10c98 <.LBB52_2308>

0000000000010578 <.LBB52_2180>:
   10578:	ca843503          	ld	a0,-856(s0)
   1057c:	73d55663          	bge	a0,t4,10ca8 <.LBB52_2309>

0000000000010580 <.LBB52_2181>:
   10580:	cb843503          	ld	a0,-840(s0)
   10584:	73d55a63          	bge	a0,t4,10cb8 <.LBB52_2310>

0000000000010588 <.LBB52_2182>:
   10588:	cc843503          	ld	a0,-824(s0)
   1058c:	73d55e63          	bge	a0,t4,10cc8 <.LBB52_2311>

0000000000010590 <.LBB52_2183>:
   10590:	cd843503          	ld	a0,-808(s0)
   10594:	75d55263          	bge	a0,t4,10cd8 <.LBB52_2312>

0000000000010598 <.LBB52_2184>:
   10598:	75dfd863          	bge	t6,t4,10ce8 <.LBB52_2313>
   1059c:	8ddfb06f          	j	be78 <.LBB52_1543>

00000000000105a0 <.LBB52_2185>:
   105a0:	f8200993          	li	s3,-126
   105a4:	08100e93          	li	t4,129
   105a8:	c5d5cce3          	blt	a1,t4,10200 <.LBB52_2058>

00000000000105ac <.LBB52_2186>:
   105ac:	08100593          	li	a1,129
   105b0:	e5043503          	ld	a0,-432(s0)
   105b4:	c5d54ae3          	blt	a0,t4,10208 <.LBB52_2059>

00000000000105b8 <.LBB52_2187>:
   105b8:	08100513          	li	a0,129
   105bc:	e4a43823          	sd	a0,-432(s0)
   105c0:	e6043503          	ld	a0,-416(s0)
   105c4:	c5d546e3          	blt	a0,t4,10210 <.LBB52_2060>

00000000000105c8 <.LBB52_2188>:
   105c8:	08100513          	li	a0,129
   105cc:	e6a43023          	sd	a0,-416(s0)
   105d0:	e7043503          	ld	a0,-400(s0)
   105d4:	c5d542e3          	blt	a0,t4,10218 <.LBB52_2061>

00000000000105d8 <.LBB52_2189>:
   105d8:	08100513          	li	a0,129
   105dc:	e6a43823          	sd	a0,-400(s0)
   105e0:	e8043503          	ld	a0,-384(s0)
   105e4:	c3d54ee3          	blt	a0,t4,10220 <.LBB52_2062>

00000000000105e8 <.LBB52_2190>:
   105e8:	08100513          	li	a0,129
   105ec:	e8a43023          	sd	a0,-384(s0)
   105f0:	e9043503          	ld	a0,-368(s0)
   105f4:	c3d54ae3          	blt	a0,t4,10228 <.LBB52_2063>

00000000000105f8 <.LBB52_2191>:
   105f8:	08100513          	li	a0,129
   105fc:	e8a43823          	sd	a0,-368(s0)
   10600:	ea043503          	ld	a0,-352(s0)
   10604:	c3d546e3          	blt	a0,t4,10230 <.LBB52_2064>

0000000000010608 <.LBB52_2192>:
   10608:	08100513          	li	a0,129
   1060c:	eaa43023          	sd	a0,-352(s0)
   10610:	eb043503          	ld	a0,-336(s0)
   10614:	c3d542e3          	blt	a0,t4,10238 <.LBB52_2065>

0000000000010618 <.LBB52_2193>:
   10618:	08100513          	li	a0,129
   1061c:	eaa43823          	sd	a0,-336(s0)
   10620:	ec043503          	ld	a0,-320(s0)
   10624:	c1d54ee3          	blt	a0,t4,10240 <.LBB52_2066>

0000000000010628 <.LBB52_2194>:
   10628:	08100513          	li	a0,129
   1062c:	eca43023          	sd	a0,-320(s0)
   10630:	ed043503          	ld	a0,-304(s0)
   10634:	c1d54ae3          	blt	a0,t4,10248 <.LBB52_2067>

0000000000010638 <.LBB52_2195>:
   10638:	08100513          	li	a0,129
   1063c:	eca43823          	sd	a0,-304(s0)
   10640:	ee043503          	ld	a0,-288(s0)
   10644:	c1d546e3          	blt	a0,t4,10250 <.LBB52_2068>

0000000000010648 <.LBB52_2196>:
   10648:	08100513          	li	a0,129
   1064c:	eea43023          	sd	a0,-288(s0)
   10650:	ee843503          	ld	a0,-280(s0)
   10654:	c1d542e3          	blt	a0,t4,10258 <.LBB52_2069>

0000000000010658 <.LBB52_2197>:
   10658:	08100513          	li	a0,129
   1065c:	eea43423          	sd	a0,-280(s0)
   10660:	ef043503          	ld	a0,-272(s0)
   10664:	bfd54ee3          	blt	a0,t4,10260 <.LBB52_2070>

0000000000010668 <.LBB52_2198>:
   10668:	08100513          	li	a0,129
   1066c:	eea43823          	sd	a0,-272(s0)
   10670:	ef843503          	ld	a0,-264(s0)
   10674:	bfd54ae3          	blt	a0,t4,10268 <.LBB52_2071>

0000000000010678 <.LBB52_2199>:
   10678:	08100513          	li	a0,129
   1067c:	eea43c23          	sd	a0,-264(s0)
   10680:	f0043503          	ld	a0,-256(s0)
   10684:	bfd546e3          	blt	a0,t4,10270 <.LBB52_2072>

0000000000010688 <.LBB52_2200>:
   10688:	08100513          	li	a0,129
   1068c:	f0a43023          	sd	a0,-256(s0)
   10690:	f0843503          	ld	a0,-248(s0)
   10694:	bfd542e3          	blt	a0,t4,10278 <.LBB52_2073>

0000000000010698 <.LBB52_2201>:
   10698:	08100513          	li	a0,129
   1069c:	f0a43423          	sd	a0,-248(s0)
   106a0:	f1043503          	ld	a0,-240(s0)
   106a4:	bdd54ee3          	blt	a0,t4,10280 <.LBB52_2074>

00000000000106a8 <.LBB52_2202>:
   106a8:	08100513          	li	a0,129
   106ac:	f0a43823          	sd	a0,-240(s0)
   106b0:	f1843503          	ld	a0,-232(s0)
   106b4:	bdd54ae3          	blt	a0,t4,10288 <.LBB52_2075>

00000000000106b8 <.LBB52_2203>:
   106b8:	08100513          	li	a0,129
   106bc:	f0a43c23          	sd	a0,-232(s0)
   106c0:	f2043503          	ld	a0,-224(s0)
   106c4:	bdd546e3          	blt	a0,t4,10290 <.LBB52_2076>

00000000000106c8 <.LBB52_2204>:
   106c8:	08100513          	li	a0,129
   106cc:	f2a43023          	sd	a0,-224(s0)
   106d0:	f2843503          	ld	a0,-216(s0)
   106d4:	bdd542e3          	blt	a0,t4,10298 <.LBB52_2077>

00000000000106d8 <.LBB52_2205>:
   106d8:	08100513          	li	a0,129
   106dc:	f2a43423          	sd	a0,-216(s0)
   106e0:	f3043503          	ld	a0,-208(s0)
   106e4:	bbd54ee3          	blt	a0,t4,102a0 <.LBB52_2078>

00000000000106e8 <.LBB52_2206>:
   106e8:	08100513          	li	a0,129
   106ec:	f2a43823          	sd	a0,-208(s0)
   106f0:	f3843503          	ld	a0,-200(s0)
   106f4:	bbd54ae3          	blt	a0,t4,102a8 <.LBB52_2079>

00000000000106f8 <.LBB52_2207>:
   106f8:	08100513          	li	a0,129
   106fc:	f2a43c23          	sd	a0,-200(s0)
   10700:	f4043503          	ld	a0,-192(s0)
   10704:	bbd546e3          	blt	a0,t4,102b0 <.LBB52_2080>

0000000000010708 <.LBB52_2208>:
   10708:	08100513          	li	a0,129
   1070c:	f4a43023          	sd	a0,-192(s0)
   10710:	f4843503          	ld	a0,-184(s0)
   10714:	bbd542e3          	blt	a0,t4,102b8 <.LBB52_2081>

0000000000010718 <.LBB52_2209>:
   10718:	08100513          	li	a0,129
   1071c:	f4a43423          	sd	a0,-184(s0)
   10720:	f5043503          	ld	a0,-176(s0)
   10724:	b9d54ee3          	blt	a0,t4,102c0 <.LBB52_2082>

0000000000010728 <.LBB52_2210>:
   10728:	08100513          	li	a0,129
   1072c:	f4a43823          	sd	a0,-176(s0)
   10730:	f5843503          	ld	a0,-168(s0)
   10734:	b9d54ae3          	blt	a0,t4,102c8 <.LBB52_2083>

0000000000010738 <.LBB52_2211>:
   10738:	08100513          	li	a0,129
   1073c:	f4a43c23          	sd	a0,-168(s0)
   10740:	f6043503          	ld	a0,-160(s0)
   10744:	b9d546e3          	blt	a0,t4,102d0 <.LBB52_2084>

0000000000010748 <.LBB52_2212>:
   10748:	08100513          	li	a0,129
   1074c:	f6a43023          	sd	a0,-160(s0)
   10750:	f6843503          	ld	a0,-152(s0)
   10754:	b9d542e3          	blt	a0,t4,102d8 <.LBB52_2085>

0000000000010758 <.LBB52_2213>:
   10758:	08100513          	li	a0,129
   1075c:	f6a43423          	sd	a0,-152(s0)
   10760:	f7043503          	ld	a0,-144(s0)
   10764:	b7d54ee3          	blt	a0,t4,102e0 <.LBB52_2086>

0000000000010768 <.LBB52_2214>:
   10768:	08100513          	li	a0,129
   1076c:	f6a43823          	sd	a0,-144(s0)
   10770:	f7843503          	ld	a0,-136(s0)
   10774:	b7d54ae3          	blt	a0,t4,102e8 <.LBB52_2087>

0000000000010778 <.LBB52_2215>:
   10778:	08100513          	li	a0,129
   1077c:	f6a43c23          	sd	a0,-136(s0)
   10780:	f8043503          	ld	a0,-128(s0)
   10784:	b7d546e3          	blt	a0,t4,102f0 <.LBB52_2088>

0000000000010788 <.LBB52_2216>:
   10788:	08100513          	li	a0,129
   1078c:	f8a43023          	sd	a0,-128(s0)
   10790:	f8843503          	ld	a0,-120(s0)
   10794:	b7d542e3          	blt	a0,t4,102f8 <.LBB52_2089>

0000000000010798 <.LBB52_2217>:
   10798:	08100513          	li	a0,129
   1079c:	f8a43423          	sd	a0,-120(s0)
   107a0:	d4843503          	ld	a0,-696(s0)
   107a4:	b5d54ee3          	blt	a0,t4,10300 <.LBB52_2090>

00000000000107a8 <.LBB52_2218>:
   107a8:	08100513          	li	a0,129
   107ac:	d4a43423          	sd	a0,-696(s0)
   107b0:	d5843503          	ld	a0,-680(s0)
   107b4:	b5d54ae3          	blt	a0,t4,10308 <.LBB52_2091>

00000000000107b8 <.LBB52_2219>:
   107b8:	08100513          	li	a0,129
   107bc:	d4a43c23          	sd	a0,-680(s0)
   107c0:	d6843503          	ld	a0,-664(s0)
   107c4:	b5d546e3          	blt	a0,t4,10310 <.LBB52_2092>

00000000000107c8 <.LBB52_2220>:
   107c8:	08100513          	li	a0,129
   107cc:	d6a43423          	sd	a0,-664(s0)
   107d0:	d7843503          	ld	a0,-648(s0)
   107d4:	b5d542e3          	blt	a0,t4,10318 <.LBB52_2093>

00000000000107d8 <.LBB52_2221>:
   107d8:	08100513          	li	a0,129
   107dc:	d6a43c23          	sd	a0,-648(s0)
   107e0:	d8843503          	ld	a0,-632(s0)
   107e4:	b3d54ee3          	blt	a0,t4,10320 <.LBB52_2094>

00000000000107e8 <.LBB52_2222>:
   107e8:	08100513          	li	a0,129
   107ec:	d8a43423          	sd	a0,-632(s0)
   107f0:	d9843503          	ld	a0,-616(s0)
   107f4:	b3d54ae3          	blt	a0,t4,10328 <.LBB52_2095>

00000000000107f8 <.LBB52_2223>:
   107f8:	08100513          	li	a0,129
   107fc:	d8a43c23          	sd	a0,-616(s0)
   10800:	da843503          	ld	a0,-600(s0)
   10804:	b3d546e3          	blt	a0,t4,10330 <.LBB52_2096>

0000000000010808 <.LBB52_2224>:
   10808:	08100513          	li	a0,129
   1080c:	daa43423          	sd	a0,-600(s0)
   10810:	db843503          	ld	a0,-584(s0)
   10814:	b3d542e3          	blt	a0,t4,10338 <.LBB52_2097>

0000000000010818 <.LBB52_2225>:
   10818:	08100513          	li	a0,129
   1081c:	daa43c23          	sd	a0,-584(s0)
   10820:	dc843503          	ld	a0,-568(s0)
   10824:	b1d54ee3          	blt	a0,t4,10340 <.LBB52_2098>

0000000000010828 <.LBB52_2226>:
   10828:	08100513          	li	a0,129
   1082c:	dca43423          	sd	a0,-568(s0)
   10830:	dd843503          	ld	a0,-552(s0)
   10834:	b1d54ae3          	blt	a0,t4,10348 <.LBB52_2099>

0000000000010838 <.LBB52_2227>:
   10838:	08100513          	li	a0,129
   1083c:	dca43c23          	sd	a0,-552(s0)
   10840:	de843503          	ld	a0,-536(s0)
   10844:	b1d546e3          	blt	a0,t4,10350 <.LBB52_2100>

0000000000010848 <.LBB52_2228>:
   10848:	08100513          	li	a0,129
   1084c:	dea43423          	sd	a0,-536(s0)
   10850:	df043503          	ld	a0,-528(s0)
   10854:	b1d542e3          	blt	a0,t4,10358 <.LBB52_2101>

0000000000010858 <.LBB52_2229>:
   10858:	08100513          	li	a0,129
   1085c:	dea43823          	sd	a0,-528(s0)
   10860:	df843503          	ld	a0,-520(s0)
   10864:	afd54ee3          	blt	a0,t4,10360 <.LBB52_2102>

0000000000010868 <.LBB52_2230>:
   10868:	08100513          	li	a0,129
   1086c:	dea43c23          	sd	a0,-520(s0)
   10870:	e0043503          	ld	a0,-512(s0)
   10874:	afd54ae3          	blt	a0,t4,10368 <.LBB52_2103>

0000000000010878 <.LBB52_2231>:
   10878:	08100513          	li	a0,129
   1087c:	e0a43023          	sd	a0,-512(s0)
   10880:	e0843503          	ld	a0,-504(s0)
   10884:	afd546e3          	blt	a0,t4,10370 <.LBB52_2104>

0000000000010888 <.LBB52_2232>:
   10888:	08100513          	li	a0,129
   1088c:	e0a43423          	sd	a0,-504(s0)
   10890:	e1043503          	ld	a0,-496(s0)
   10894:	afd542e3          	blt	a0,t4,10378 <.LBB52_2105>

0000000000010898 <.LBB52_2233>:
   10898:	08100513          	li	a0,129
   1089c:	e0a43823          	sd	a0,-496(s0)
   108a0:	e1843503          	ld	a0,-488(s0)
   108a4:	add54ee3          	blt	a0,t4,10380 <.LBB52_2106>

00000000000108a8 <.LBB52_2234>:
   108a8:	08100513          	li	a0,129
   108ac:	e0a43c23          	sd	a0,-488(s0)
   108b0:	e2043503          	ld	a0,-480(s0)
   108b4:	add54ae3          	blt	a0,t4,10388 <.LBB52_2107>

00000000000108b8 <.LBB52_2235>:
   108b8:	08100513          	li	a0,129
   108bc:	e2a43023          	sd	a0,-480(s0)
   108c0:	e2843503          	ld	a0,-472(s0)
   108c4:	add546e3          	blt	a0,t4,10390 <.LBB52_2108>

00000000000108c8 <.LBB52_2236>:
   108c8:	08100513          	li	a0,129
   108cc:	e2a43423          	sd	a0,-472(s0)
   108d0:	e3043503          	ld	a0,-464(s0)
   108d4:	add542e3          	blt	a0,t4,10398 <.LBB52_2109>

00000000000108d8 <.LBB52_2237>:
   108d8:	08100513          	li	a0,129
   108dc:	e2a43823          	sd	a0,-464(s0)
   108e0:	e3843503          	ld	a0,-456(s0)
   108e4:	abd54ee3          	blt	a0,t4,103a0 <.LBB52_2110>

00000000000108e8 <.LBB52_2238>:
   108e8:	08100513          	li	a0,129
   108ec:	e2a43c23          	sd	a0,-456(s0)
   108f0:	e4043503          	ld	a0,-448(s0)
   108f4:	abd54ae3          	blt	a0,t4,103a8 <.LBB52_2111>

00000000000108f8 <.LBB52_2239>:
   108f8:	08100513          	li	a0,129
   108fc:	e4a43023          	sd	a0,-448(s0)
   10900:	e4843503          	ld	a0,-440(s0)
   10904:	abd546e3          	blt	a0,t4,103b0 <.LBB52_2112>

0000000000010908 <.LBB52_2240>:
   10908:	08100513          	li	a0,129
   1090c:	e4a43423          	sd	a0,-440(s0)
   10910:	e5843503          	ld	a0,-424(s0)
   10914:	abd542e3          	blt	a0,t4,103b8 <.LBB52_2113>

0000000000010918 <.LBB52_2241>:
   10918:	08100513          	li	a0,129
   1091c:	e4a43c23          	sd	a0,-424(s0)
   10920:	e6843503          	ld	a0,-408(s0)
   10924:	a9d54ee3          	blt	a0,t4,103c0 <.LBB52_2114>

0000000000010928 <.LBB52_2242>:
   10928:	08100513          	li	a0,129
   1092c:	e6a43423          	sd	a0,-408(s0)
   10930:	e7843503          	ld	a0,-392(s0)
   10934:	a9d54ae3          	blt	a0,t4,103c8 <.LBB52_2115>

0000000000010938 <.LBB52_2243>:
   10938:	08100513          	li	a0,129
   1093c:	e6a43c23          	sd	a0,-392(s0)
   10940:	e8843503          	ld	a0,-376(s0)
   10944:	a9d546e3          	blt	a0,t4,103d0 <.LBB52_2116>

0000000000010948 <.LBB52_2244>:
   10948:	08100513          	li	a0,129
   1094c:	e8a43423          	sd	a0,-376(s0)
   10950:	e9843503          	ld	a0,-360(s0)
   10954:	a9d542e3          	blt	a0,t4,103d8 <.LBB52_2117>

0000000000010958 <.LBB52_2245>:
   10958:	08100513          	li	a0,129
   1095c:	e8a43c23          	sd	a0,-360(s0)
   10960:	ea843503          	ld	a0,-344(s0)
   10964:	a7d54ee3          	blt	a0,t4,103e0 <.LBB52_2118>

0000000000010968 <.LBB52_2246>:
   10968:	08100513          	li	a0,129
   1096c:	eaa43423          	sd	a0,-344(s0)
   10970:	eb843503          	ld	a0,-328(s0)
   10974:	a7d54ae3          	blt	a0,t4,103e8 <.LBB52_2119>

0000000000010978 <.LBB52_2247>:
   10978:	08100513          	li	a0,129
   1097c:	eaa43c23          	sd	a0,-328(s0)
   10980:	ec843503          	ld	a0,-312(s0)
   10984:	a7d546e3          	blt	a0,t4,103f0 <.LBB52_2120>

0000000000010988 <.LBB52_2248>:
   10988:	08100513          	li	a0,129
   1098c:	eca43423          	sd	a0,-312(s0)
   10990:	ed843503          	ld	a0,-296(s0)
   10994:	a7d542e3          	blt	a0,t4,103f8 <.LBB52_2121>

0000000000010998 <.LBB52_2249>:
   10998:	08100513          	li	a0,129
   1099c:	eca43c23          	sd	a0,-296(s0)
   109a0:	c5043503          	ld	a0,-944(s0)
   109a4:	a5d54ee3          	blt	a0,t4,10400 <.LBB52_2122>

00000000000109a8 <.LBB52_2250>:
   109a8:	08100513          	li	a0,129
   109ac:	c4a43823          	sd	a0,-944(s0)
   109b0:	c6043503          	ld	a0,-928(s0)
   109b4:	a5d54ae3          	blt	a0,t4,10408 <.LBB52_2123>

00000000000109b8 <.LBB52_2251>:
   109b8:	08100513          	li	a0,129
   109bc:	c6a43023          	sd	a0,-928(s0)
   109c0:	c7043503          	ld	a0,-912(s0)
   109c4:	a5d546e3          	blt	a0,t4,10410 <.LBB52_2124>

00000000000109c8 <.LBB52_2252>:
   109c8:	08100513          	li	a0,129
   109cc:	c6a43823          	sd	a0,-912(s0)
   109d0:	c8043503          	ld	a0,-896(s0)
   109d4:	a5d542e3          	blt	a0,t4,10418 <.LBB52_2125>

00000000000109d8 <.LBB52_2253>:
   109d8:	08100513          	li	a0,129
   109dc:	c8a43023          	sd	a0,-896(s0)
   109e0:	c9043503          	ld	a0,-880(s0)
   109e4:	a3d54ee3          	blt	a0,t4,10420 <.LBB52_2126>

00000000000109e8 <.LBB52_2254>:
   109e8:	08100513          	li	a0,129
   109ec:	c8a43823          	sd	a0,-880(s0)
   109f0:	ca043503          	ld	a0,-864(s0)
   109f4:	a3d54ae3          	blt	a0,t4,10428 <.LBB52_2127>

00000000000109f8 <.LBB52_2255>:
   109f8:	08100513          	li	a0,129
   109fc:	caa43023          	sd	a0,-864(s0)
   10a00:	cb043503          	ld	a0,-848(s0)
   10a04:	a3d546e3          	blt	a0,t4,10430 <.LBB52_2128>

0000000000010a08 <.LBB52_2256>:
   10a08:	08100513          	li	a0,129
   10a0c:	caa43823          	sd	a0,-848(s0)
   10a10:	cc043503          	ld	a0,-832(s0)
   10a14:	a3d542e3          	blt	a0,t4,10438 <.LBB52_2129>

0000000000010a18 <.LBB52_2257>:
   10a18:	08100513          	li	a0,129
   10a1c:	cca43023          	sd	a0,-832(s0)
   10a20:	cd043503          	ld	a0,-816(s0)
   10a24:	a1d54ee3          	blt	a0,t4,10440 <.LBB52_2130>

0000000000010a28 <.LBB52_2258>:
   10a28:	08100513          	li	a0,129
   10a2c:	cca43823          	sd	a0,-816(s0)
   10a30:	ce043503          	ld	a0,-800(s0)
   10a34:	a1d54ae3          	blt	a0,t4,10448 <.LBB52_2131>

0000000000010a38 <.LBB52_2259>:
   10a38:	08100513          	li	a0,129
   10a3c:	cea43023          	sd	a0,-800(s0)
   10a40:	ce843503          	ld	a0,-792(s0)
   10a44:	a1d546e3          	blt	a0,t4,10450 <.LBB52_2132>

0000000000010a48 <.LBB52_2260>:
   10a48:	08100513          	li	a0,129
   10a4c:	cea43423          	sd	a0,-792(s0)
   10a50:	cf043503          	ld	a0,-784(s0)
   10a54:	a1d542e3          	blt	a0,t4,10458 <.LBB52_2133>

0000000000010a58 <.LBB52_2261>:
   10a58:	08100513          	li	a0,129
   10a5c:	cea43823          	sd	a0,-784(s0)
   10a60:	cf843503          	ld	a0,-776(s0)
   10a64:	9fd54ee3          	blt	a0,t4,10460 <.LBB52_2134>

0000000000010a68 <.LBB52_2262>:
   10a68:	08100513          	li	a0,129
   10a6c:	cea43c23          	sd	a0,-776(s0)
   10a70:	d0043503          	ld	a0,-768(s0)
   10a74:	9fd54ae3          	blt	a0,t4,10468 <.LBB52_2135>

0000000000010a78 <.LBB52_2263>:
   10a78:	08100513          	li	a0,129
   10a7c:	d0a43023          	sd	a0,-768(s0)
   10a80:	d0843503          	ld	a0,-760(s0)
   10a84:	9fd546e3          	blt	a0,t4,10470 <.LBB52_2136>

0000000000010a88 <.LBB52_2264>:
   10a88:	08100513          	li	a0,129
   10a8c:	d0a43423          	sd	a0,-760(s0)
   10a90:	d1043503          	ld	a0,-752(s0)
   10a94:	9fd542e3          	blt	a0,t4,10478 <.LBB52_2137>

0000000000010a98 <.LBB52_2265>:
   10a98:	08100513          	li	a0,129
   10a9c:	d0a43823          	sd	a0,-752(s0)
   10aa0:	d1843503          	ld	a0,-744(s0)
   10aa4:	9dd54ee3          	blt	a0,t4,10480 <.LBB52_2138>

0000000000010aa8 <.LBB52_2266>:
   10aa8:	08100513          	li	a0,129
   10aac:	d0a43c23          	sd	a0,-744(s0)
   10ab0:	d2043503          	ld	a0,-736(s0)
   10ab4:	9dd54ae3          	blt	a0,t4,10488 <.LBB52_2139>

0000000000010ab8 <.LBB52_2267>:
   10ab8:	08100513          	li	a0,129
   10abc:	d2a43023          	sd	a0,-736(s0)
   10ac0:	d2843503          	ld	a0,-728(s0)
   10ac4:	9dd546e3          	blt	a0,t4,10490 <.LBB52_2140>

0000000000010ac8 <.LBB52_2268>:
   10ac8:	08100513          	li	a0,129
   10acc:	d2a43423          	sd	a0,-728(s0)
   10ad0:	d3043503          	ld	a0,-720(s0)
   10ad4:	9dd542e3          	blt	a0,t4,10498 <.LBB52_2141>

0000000000010ad8 <.LBB52_2269>:
   10ad8:	08100513          	li	a0,129
   10adc:	d2a43823          	sd	a0,-720(s0)
   10ae0:	d3843503          	ld	a0,-712(s0)
   10ae4:	9bd54ee3          	blt	a0,t4,104a0 <.LBB52_2142>

0000000000010ae8 <.LBB52_2270>:
   10ae8:	08100513          	li	a0,129
   10aec:	d2a43c23          	sd	a0,-712(s0)
   10af0:	d4043503          	ld	a0,-704(s0)
   10af4:	9bd54ae3          	blt	a0,t4,104a8 <.LBB52_2143>

0000000000010af8 <.LBB52_2271>:
   10af8:	08100513          	li	a0,129
   10afc:	d4a43023          	sd	a0,-704(s0)
   10b00:	d5043503          	ld	a0,-688(s0)
   10b04:	9bd546e3          	blt	a0,t4,104b0 <.LBB52_2144>

0000000000010b08 <.LBB52_2272>:
   10b08:	08100513          	li	a0,129
   10b0c:	d4a43823          	sd	a0,-688(s0)
   10b10:	d6043503          	ld	a0,-672(s0)
   10b14:	9bd542e3          	blt	a0,t4,104b8 <.LBB52_2145>

0000000000010b18 <.LBB52_2273>:
   10b18:	08100513          	li	a0,129
   10b1c:	d6a43023          	sd	a0,-672(s0)
   10b20:	d7043503          	ld	a0,-656(s0)
   10b24:	99d54ee3          	blt	a0,t4,104c0 <.LBB52_2146>

0000000000010b28 <.LBB52_2274>:
   10b28:	08100513          	li	a0,129
   10b2c:	d6a43823          	sd	a0,-656(s0)
   10b30:	d8043503          	ld	a0,-640(s0)
   10b34:	99d54ae3          	blt	a0,t4,104c8 <.LBB52_2147>

0000000000010b38 <.LBB52_2275>:
   10b38:	08100513          	li	a0,129
   10b3c:	d8a43023          	sd	a0,-640(s0)
   10b40:	d9043503          	ld	a0,-624(s0)
   10b44:	99d546e3          	blt	a0,t4,104d0 <.LBB52_2148>

0000000000010b48 <.LBB52_2276>:
   10b48:	08100513          	li	a0,129
   10b4c:	d8a43823          	sd	a0,-624(s0)
   10b50:	da043503          	ld	a0,-608(s0)
   10b54:	99d542e3          	blt	a0,t4,104d8 <.LBB52_2149>

0000000000010b58 <.LBB52_2277>:
   10b58:	08100513          	li	a0,129
   10b5c:	daa43023          	sd	a0,-608(s0)
   10b60:	db043503          	ld	a0,-592(s0)
   10b64:	97d54ee3          	blt	a0,t4,104e0 <.LBB52_2150>

0000000000010b68 <.LBB52_2278>:
   10b68:	08100513          	li	a0,129
   10b6c:	daa43823          	sd	a0,-592(s0)
   10b70:	dc043503          	ld	a0,-576(s0)
   10b74:	97d54ae3          	blt	a0,t4,104e8 <.LBB52_2151>

0000000000010b78 <.LBB52_2279>:
   10b78:	08100513          	li	a0,129
   10b7c:	dca43023          	sd	a0,-576(s0)
   10b80:	dd043503          	ld	a0,-560(s0)
   10b84:	97d546e3          	blt	a0,t4,104f0 <.LBB52_2152>

0000000000010b88 <.LBB52_2280>:
   10b88:	08100513          	li	a0,129
   10b8c:	dca43823          	sd	a0,-560(s0)
   10b90:	de043503          	ld	a0,-544(s0)
   10b94:	97d542e3          	blt	a0,t4,104f8 <.LBB52_2153>

0000000000010b98 <.LBB52_2281>:
   10b98:	08100513          	li	a0,129
   10b9c:	dea43023          	sd	a0,-544(s0)
   10ba0:	95d9cee3          	blt	s3,t4,104fc <.LBB52_2154>

0000000000010ba4 <.LBB52_2282>:
   10ba4:	08100993          	li	s3,129
   10ba8:	95d3cce3          	blt	t2,t4,10500 <.LBB52_2155>

0000000000010bac <.LBB52_2283>:
   10bac:	08100393          	li	t2,129
   10bb0:	95d84ae3          	blt	a6,t4,10504 <.LBB52_2156>

0000000000010bb4 <.LBB52_2284>:
   10bb4:	08100813          	li	a6,129
   10bb8:	95d8c8e3          	blt	a7,t4,10508 <.LBB52_2157>

0000000000010bbc <.LBB52_2285>:
   10bbc:	08100893          	li	a7,129
   10bc0:	95d7c6e3          	blt	a5,t4,1050c <.LBB52_2158>

0000000000010bc4 <.LBB52_2286>:
   10bc4:	08100793          	li	a5,129
   10bc8:	95d344e3          	blt	t1,t4,10510 <.LBB52_2159>

0000000000010bcc <.LBB52_2287>:
   10bcc:	08100313          	li	t1,129
   10bd0:	95d0c2e3          	blt	ra,t4,10514 <.LBB52_2160>

0000000000010bd4 <.LBB52_2288>:
   10bd4:	08100093          	li	ra,129
   10bd8:	95ddc0e3          	blt	s11,t4,10518 <.LBB52_2161>

0000000000010bdc <.LBB52_2289>:
   10bdc:	08100d93          	li	s11,129
   10be0:	93dd4ee3          	blt	s10,t4,1051c <.LBB52_2162>

0000000000010be4 <.LBB52_2290>:
   10be4:	08100d13          	li	s10,129
   10be8:	93dccce3          	blt	s9,t4,10520 <.LBB52_2163>

0000000000010bec <.LBB52_2291>:
   10bec:	08100c93          	li	s9,129
   10bf0:	93dc4ae3          	blt	s8,t4,10524 <.LBB52_2164>

0000000000010bf4 <.LBB52_2292>:
   10bf4:	08100c13          	li	s8,129
   10bf8:	93dbc8e3          	blt	s7,t4,10528 <.LBB52_2165>

0000000000010bfc <.LBB52_2293>:
   10bfc:	08100b93          	li	s7,129
   10c00:	93db46e3          	blt	s6,t4,1052c <.LBB52_2166>

0000000000010c04 <.LBB52_2294>:
   10c04:	08100b13          	li	s6,129
   10c08:	93dac4e3          	blt	s5,t4,10530 <.LBB52_2167>

0000000000010c0c <.LBB52_2295>:
   10c0c:	08100a93          	li	s5,129
   10c10:	93da42e3          	blt	s4,t4,10534 <.LBB52_2168>

0000000000010c14 <.LBB52_2296>:
   10c14:	08100a13          	li	s4,129
   10c18:	93de40e3          	blt	t3,t4,10538 <.LBB52_2169>

0000000000010c1c <.LBB52_2297>:
   10c1c:	08100e13          	li	t3,129
   10c20:	91d94ee3          	blt	s2,t4,1053c <.LBB52_2170>

0000000000010c24 <.LBB52_2298>:
   10c24:	08100913          	li	s2,129
   10c28:	91d2cce3          	blt	t0,t4,10540 <.LBB52_2171>

0000000000010c2c <.LBB52_2299>:
   10c2c:	08100293          	li	t0,129
   10c30:	91d4cae3          	blt	s1,t4,10544 <.LBB52_2172>

0000000000010c34 <.LBB52_2300>:
   10c34:	08100493          	li	s1,129
   10c38:	91d748e3          	blt	a4,t4,10548 <.LBB52_2173>

0000000000010c3c <.LBB52_2301>:
   10c3c:	08100713          	li	a4,129
   10c40:	91d6c6e3          	blt	a3,t4,1054c <.LBB52_2174>

0000000000010c44 <.LBB52_2302>:
   10c44:	08100693          	li	a3,129
   10c48:	91d644e3          	blt	a2,t4,10550 <.LBB52_2175>

0000000000010c4c <.LBB52_2303>:
   10c4c:	08100613          	li	a2,129
   10c50:	c5843503          	ld	a0,-936(s0)
   10c54:	91d542e3          	blt	a0,t4,10558 <.LBB52_2176>

0000000000010c58 <.LBB52_2304>:
   10c58:	08100513          	li	a0,129
   10c5c:	c4a43c23          	sd	a0,-936(s0)
   10c60:	c6843503          	ld	a0,-920(s0)
   10c64:	8fd54ee3          	blt	a0,t4,10560 <.LBB52_2177>

0000000000010c68 <.LBB52_2305>:
   10c68:	08100513          	li	a0,129
   10c6c:	c6a43423          	sd	a0,-920(s0)
   10c70:	c7843503          	ld	a0,-904(s0)
   10c74:	8fd54ae3          	blt	a0,t4,10568 <.LBB52_2178>

0000000000010c78 <.LBB52_2306>:
   10c78:	08100513          	li	a0,129
   10c7c:	c6a43c23          	sd	a0,-904(s0)
   10c80:	c8843503          	ld	a0,-888(s0)
   10c84:	8fd546e3          	blt	a0,t4,10570 <.LBB52_2179>

0000000000010c88 <.LBB52_2307>:
   10c88:	08100513          	li	a0,129
   10c8c:	c8a43423          	sd	a0,-888(s0)
   10c90:	c9843503          	ld	a0,-872(s0)
   10c94:	8fd542e3          	blt	a0,t4,10578 <.LBB52_2180>

0000000000010c98 <.LBB52_2308>:
   10c98:	08100513          	li	a0,129
   10c9c:	c8a43c23          	sd	a0,-872(s0)
   10ca0:	ca843503          	ld	a0,-856(s0)
   10ca4:	8dd54ee3          	blt	a0,t4,10580 <.LBB52_2181>

0000000000010ca8 <.LBB52_2309>:
   10ca8:	08100513          	li	a0,129
   10cac:	caa43423          	sd	a0,-856(s0)
   10cb0:	cb843503          	ld	a0,-840(s0)
   10cb4:	8dd54ae3          	blt	a0,t4,10588 <.LBB52_2182>

0000000000010cb8 <.LBB52_2310>:
   10cb8:	08100513          	li	a0,129
   10cbc:	caa43c23          	sd	a0,-840(s0)
   10cc0:	cc843503          	ld	a0,-824(s0)
   10cc4:	8dd546e3          	blt	a0,t4,10590 <.LBB52_2183>

0000000000010cc8 <.LBB52_2311>:
   10cc8:	08100513          	li	a0,129
   10ccc:	cca43423          	sd	a0,-824(s0)
   10cd0:	cd843503          	ld	a0,-808(s0)
   10cd4:	8dd542e3          	blt	a0,t4,10598 <.LBB52_2184>

0000000000010cd8 <.LBB52_2312>:
   10cd8:	08100513          	li	a0,129
   10cdc:	cca43c23          	sd	a0,-808(s0)
   10ce0:	01dfd463          	bge	t6,t4,10ce8 <.LBB52_2313>
   10ce4:	994fb06f          	j	be78 <.LBB52_1543>

0000000000010ce8 <.LBB52_2313>:
   10ce8:	08100f93          	li	t6,129
   10cec:	98cfb06f          	j	be78 <.LBB52_1543>

0000000000010cf0 <.LBB52_2314>:
   10cf0:	7f010113          	addi	sp,sp,2032
   10cf4:	50010113          	addi	sp,sp,1280
   10cf8:	7e813083          	ld	ra,2024(sp)
   10cfc:	7e013403          	ld	s0,2016(sp)
   10d00:	7d813483          	ld	s1,2008(sp)
   10d04:	7d013903          	ld	s2,2000(sp)
   10d08:	7c813983          	ld	s3,1992(sp)
   10d0c:	7c013a03          	ld	s4,1984(sp)
   10d10:	7b813a83          	ld	s5,1976(sp)
   10d14:	7b013b03          	ld	s6,1968(sp)
   10d18:	7a813b83          	ld	s7,1960(sp)
   10d1c:	7a013c03          	ld	s8,1952(sp)
   10d20:	79813c83          	ld	s9,1944(sp)
   10d24:	79013d03          	ld	s10,1936(sp)
   10d28:	78813d83          	ld	s11,1928(sp)
   10d2c:	7f010113          	addi	sp,sp,2032
   10d30:	00008067          	ret
