
code.o:     file format elf64-littleriscv


Disassembly of section .text.main_dispatch_91_matmul_196x576x96_i8xi8xi32:

0000000000000000 <main_dispatch_91_matmul_196x576x96_i8xi8xi32>:
       0:	81010113          	addi	sp,sp,-2032
       4:	7e113423          	sd	ra,2024(sp)
       8:	7e813023          	sd	s0,2016(sp)
       c:	7c913c23          	sd	s1,2008(sp)
      10:	7d213823          	sd	s2,2000(sp)
      14:	7d313423          	sd	s3,1992(sp)
      18:	7d413023          	sd	s4,1984(sp)
      1c:	7b513c23          	sd	s5,1976(sp)
      20:	7b613823          	sd	s6,1968(sp)
      24:	7b713423          	sd	s7,1960(sp)
      28:	7b813023          	sd	s8,1952(sp)
      2c:	79913c23          	sd	s9,1944(sp)
      30:	79a13823          	sd	s10,1936(sp)
      34:	79b13423          	sd	s11,1928(sp)
      38:	7f010413          	addi	s0,sp,2032
      3c:	80010113          	addi	sp,sp,-2048
      40:	c8010113          	addi	sp,sp,-896
      44:	0205b583          	ld	a1,32(a1)
      48:	00000893          	li	a7,0
      4c:	00000513          	li	a0,0
      50:	0005b783          	ld	a5,0(a1)
      54:	00013637          	lui	a2,0x13
      58:	9406069b          	addiw	a3,a2,-1728 # 12940 <.LBB21_1104+0xc>
      5c:	0085b703          	ld	a4,8(a1)
      60:	00001837          	lui	a6,0x1
      64:	41040833          	sub	a6,s0,a6
      68:	caf83c23          	sd	a5,-840(a6) # cb8 <.LBB71_3+0xa40>
      6c:	00d786b3          	add	a3,a5,a3
      70:	000017b7          	lui	a5,0x1
      74:	40f407b3          	sub	a5,s0,a5
      78:	d0d7bc23          	sd	a3,-744(a5) # d18 <.LBB71_3+0xaa0>
      7c:	000696b7          	lui	a3,0x69
      80:	c006869b          	addiw	a3,a3,-1024 # 68c00 <.Lfunc_end80+0x40238>
      84:	00d70c33          	add	s8,a4,a3
      88:	0001a6b7          	lui	a3,0x1a
      8c:	6006869b          	addiw	a3,a3,1536 # 1a600 <.LBB27_2549>
      90:	00d706b3          	add	a3,a4,a3
      94:	000017b7          	lui	a5,0x1
      98:	40f407b3          	sub	a5,s0,a5
      9c:	d0d7b823          	sd	a3,-752(a5) # d10 <.LBB71_3+0xa98>
      a0:	000766b7          	lui	a3,0x76
      a4:	4006869b          	addiw	a3,a3,1024 # 76400 <.Lfunc_end80+0x4da38>
      a8:	0105b583          	ld	a1,16(a1)
      ac:	00d706b3          	add	a3,a4,a3
      b0:	00001737          	lui	a4,0x1
      b4:	40e40733          	sub	a4,s0,a4
      b8:	d0d73423          	sd	a3,-760(a4) # d08 <.LBB71_3+0xa90>
      bc:	000176b7          	lui	a3,0x17
      c0:	2c06869b          	addiw	a3,a3,704 # 172c0 <.LBB80_2561>
      c4:	00d585b3          	add	a1,a1,a3
      c8:	000016b7          	lui	a3,0x1
      cc:	40d406b3          	sub	a3,s0,a3
      d0:	cab6b423          	sd	a1,-856(a3) # ca8 <.LBB71_3+0xa30>
      d4:	9a06059b          	addiw	a1,a2,-1632
      d8:	00001637          	lui	a2,0x1
      dc:	40c40633          	sub	a2,s0,a2
      e0:	c8b63823          	sd	a1,-880(a2) # c90 <.LBB71_3+0xa18>
      e4:	60e265b7          	lui	a1,0x60e26
      e8:	7c65859b          	addiw	a1,a1,1990 # 60e267c6 <.Lfunc_end80+0x60dfddfe>
      ec:	00001637          	lui	a2,0x1
      f0:	40c40633          	sub	a2,s0,a2
      f4:	ccb63023          	sd	a1,-832(a2) # cc0 <.LBB71_3+0xa48>
      f8:	00100593          	li	a1,1
      fc:	02459593          	slli	a1,a1,0x24
     100:	00001637          	lui	a2,0x1
     104:	40c40633          	sub	a2,s0,a2
     108:	60b63c23          	sd	a1,1560(a2) # 1618 <.LBB71_4+0x418>
     10c:	000015b7          	lui	a1,0x1
     110:	40b405b3          	sub	a1,s0,a1
     114:	cb85b823          	sd	s8,-848(a1) # cb0 <.LBB71_3+0xa38>
     118:	0580006f          	j	170 <.LBB71_2>

000000000000011c <.LBB71_1>:
     11c:	00001537          	lui	a0,0x1
     120:	40a40533          	sub	a0,s0,a0
     124:	c9853603          	ld	a2,-872(a0) # c98 <.LBB71_3+0xa20>
     128:	00860513          	addi	a0,a2,8
     12c:	000015b7          	lui	a1,0x1
     130:	40b405b3          	sub	a1,s0,a1
     134:	d185b583          	ld	a1,-744(a1) # d18 <.LBB71_3+0xaa0>
     138:	30058593          	addi	a1,a1,768
     13c:	000016b7          	lui	a3,0x1
     140:	40d406b3          	sub	a3,s0,a3
     144:	d0b6bc23          	sd	a1,-744(a3) # d18 <.LBB71_3+0xaa0>
     148:	000015b7          	lui	a1,0x1
     14c:	40b405b3          	sub	a1,s0,a1
     150:	ca05b883          	ld	a7,-864(a1) # ca0 <.LBB71_3+0xa28>
     154:	00188893          	addi	a7,a7,1
     158:	000015b7          	lui	a1,0x1
     15c:	40b405b3          	sub	a1,s0,a1
     160:	cb05bc03          	ld	s8,-848(a1) # cb0 <.LBB71_3+0xa38>
     164:	0b800593          	li	a1,184
     168:	00b66463          	bltu	a2,a1,170 <.LBB71_2>
     16c:	6690a06f          	j	afd4 <.LBB71_1030>

0000000000000170 <.LBB71_2>:
     170:	00000593          	li	a1,0
     174:	00050713          	mv	a4,a0
     178:	00001537          	lui	a0,0x1
     17c:	40a40533          	sub	a0,s0,a0
     180:	cb153023          	sd	a7,-864(a0) # ca0 <.LBB71_3+0xa28>
     184:	30000513          	li	a0,768
     188:	02a88533          	mul	a0,a7,a0
     18c:	00001637          	lui	a2,0x1
     190:	40c40633          	sub	a2,s0,a2
     194:	cb863603          	ld	a2,-840(a2) # cb8 <.LBB71_3+0xa40>
     198:	00c50533          	add	a0,a0,a2
     19c:	000016b7          	lui	a3,0x1
     1a0:	40d406b3          	sub	a3,s0,a3
     1a4:	c906b683          	ld	a3,-880(a3) # c90 <.LBB71_3+0xa18>
     1a8:	00d507b3          	add	a5,a0,a3
     1ac:	00271513          	slli	a0,a4,0x2
     1b0:	00a60533          	add	a0,a2,a0
     1b4:	00001637          	lui	a2,0x1
     1b8:	40c40633          	sub	a2,s0,a2
     1bc:	62a63023          	sd	a0,1568(a2) # 1620 <.LBB71_4+0x420>
     1c0:	24000513          	li	a0,576
     1c4:	00001637          	lui	a2,0x1
     1c8:	40c40633          	sub	a2,s0,a2
     1cc:	c8e63c23          	sd	a4,-872(a2) # c98 <.LBB71_3+0xa20>
     1d0:	02a70533          	mul	a0,a4,a0
     1d4:	00001637          	lui	a2,0x1
     1d8:	40c40633          	sub	a2,s0,a2
     1dc:	ca863603          	ld	a2,-856(a2) # ca8 <.LBB71_3+0xa30>
     1e0:	00a60533          	add	a0,a2,a0
     1e4:	24050613          	addi	a2,a0,576
     1e8:	000016b7          	lui	a3,0x1
     1ec:	40d406b3          	sub	a3,s0,a3
     1f0:	cec6bc23          	sd	a2,-776(a3) # cf8 <.LBB71_3+0xa80>
     1f4:	48050613          	addi	a2,a0,1152
     1f8:	000016b7          	lui	a3,0x1
     1fc:	40d406b3          	sub	a3,s0,a3
     200:	cec6b823          	sd	a2,-784(a3) # cf0 <.LBB71_3+0xa78>
     204:	6c050613          	addi	a2,a0,1728
     208:	000016b7          	lui	a3,0x1
     20c:	40d406b3          	sub	a3,s0,a3
     210:	cec6b423          	sd	a2,-792(a3) # ce8 <.LBB71_3+0xa70>
     214:	00001637          	lui	a2,0x1
     218:	40c40633          	sub	a2,s0,a2
     21c:	d0a63023          	sd	a0,-768(a2) # d00 <.LBB71_3+0xa88>
     220:	7ff50513          	addi	a0,a0,2047
     224:	10150613          	addi	a2,a0,257
     228:	000016b7          	lui	a3,0x1
     22c:	40d406b3          	sub	a3,s0,a3
     230:	cec6b023          	sd	a2,-800(a3) # ce0 <.LBB71_3+0xa68>
     234:	34150613          	addi	a2,a0,833
     238:	000016b7          	lui	a3,0x1
     23c:	40d406b3          	sub	a3,s0,a3
     240:	ccc6bc23          	sd	a2,-808(a3) # cd8 <.LBB71_3+0xa60>
     244:	58150613          	addi	a2,a0,1409
     248:	000016b7          	lui	a3,0x1
     24c:	40d406b3          	sub	a3,s0,a3
     250:	ccc6b823          	sd	a2,-816(a3) # cd0 <.LBB71_3+0xa58>
     254:	7c150513          	addi	a0,a0,1985
     258:	00001637          	lui	a2,0x1
     25c:	40c40633          	sub	a2,s0,a2
     260:	cca63423          	sd	a0,-824(a2) # cc8 <.LBB71_3+0xa50>
     264:	000c0a93          	mv	s5,s8
     268:	00001537          	lui	a0,0x1
     26c:	40a40533          	sub	a0,s0,a0
     270:	66f53823          	sd	a5,1648(a0) # 1670 <.LBB71_4+0x470>
     274:	78d0006f          	j	1200 <.LBB71_4>

0000000000000278 <.LBB71_3>:
     278:	ee843c03          	ld	s8,-280(s0)
     27c:	080c4c93          	xori	s9,s8,128
     280:	00001c37          	lui	s8,0x1
     284:	41840c33          	sub	s8,s0,s8
     288:	d00c3c03          	ld	s8,-768(s8) # d00 <.LBB71_3+0xa88>
     28c:	00001d37          	lui	s10,0x1
     290:	41a40d33          	sub	s10,s0,s10
     294:	628d3d03          	ld	s10,1576(s10) # 1628 <.LBB71_4+0x428>
     298:	01ac0c33          	add	s8,s8,s10
     29c:	019c01a3          	sb	s9,3(s8)
     2a0:	f8843c83          	ld	s9,-120(s0)
     2a4:	080ccc93          	xori	s9,s9,128
     2a8:	019c0123          	sb	s9,2(s8)
     2ac:	f8043c83          	ld	s9,-128(s0)
     2b0:	080ccc93          	xori	s9,s9,128
     2b4:	019c00a3          	sb	s9,1(s8)
     2b8:	f7843c83          	ld	s9,-136(s0)
     2bc:	080ccc93          	xori	s9,s9,128
     2c0:	019c0023          	sb	s9,0(s8)
     2c4:	f7043c83          	ld	s9,-144(s0)
     2c8:	080ccc93          	xori	s9,s9,128
     2cc:	019c0223          	sb	s9,4(s8)
     2d0:	f6843c83          	ld	s9,-152(s0)
     2d4:	080ccc93          	xori	s9,s9,128
     2d8:	019c02a3          	sb	s9,5(s8)
     2dc:	f6043c83          	ld	s9,-160(s0)
     2e0:	080ccc93          	xori	s9,s9,128
     2e4:	019c0323          	sb	s9,6(s8)
     2e8:	f5843c83          	ld	s9,-168(s0)
     2ec:	080ccc93          	xori	s9,s9,128
     2f0:	019c03a3          	sb	s9,7(s8)
     2f4:	f5043c83          	ld	s9,-176(s0)
     2f8:	080ccc93          	xori	s9,s9,128
     2fc:	019c0423          	sb	s9,8(s8)
     300:	f4843c83          	ld	s9,-184(s0)
     304:	080ccc93          	xori	s9,s9,128
     308:	019c04a3          	sb	s9,9(s8)
     30c:	f4043c83          	ld	s9,-192(s0)
     310:	080ccc93          	xori	s9,s9,128
     314:	019c0523          	sb	s9,10(s8)
     318:	f3843c83          	ld	s9,-200(s0)
     31c:	080ccc93          	xori	s9,s9,128
     320:	019c05a3          	sb	s9,11(s8)
     324:	f3043c83          	ld	s9,-208(s0)
     328:	080ccc93          	xori	s9,s9,128
     32c:	019c0623          	sb	s9,12(s8)
     330:	f2843c83          	ld	s9,-216(s0)
     334:	080ccc93          	xori	s9,s9,128
     338:	019c06a3          	sb	s9,13(s8)
     33c:	f2043c83          	ld	s9,-224(s0)
     340:	080ccc93          	xori	s9,s9,128
     344:	019c0723          	sb	s9,14(s8)
     348:	f1843c83          	ld	s9,-232(s0)
     34c:	080ccc93          	xori	s9,s9,128
     350:	019c07a3          	sb	s9,15(s8)
     354:	f1043c83          	ld	s9,-240(s0)
     358:	080ccc93          	xori	s9,s9,128
     35c:	019c0823          	sb	s9,16(s8)
     360:	f0843c83          	ld	s9,-248(s0)
     364:	080ccc93          	xori	s9,s9,128
     368:	019c08a3          	sb	s9,17(s8)
     36c:	f0043c83          	ld	s9,-256(s0)
     370:	080ccc93          	xori	s9,s9,128
     374:	019c0923          	sb	s9,18(s8)
     378:	ef843c83          	ld	s9,-264(s0)
     37c:	080ccc93          	xori	s9,s9,128
     380:	019c09a3          	sb	s9,19(s8)
     384:	ef043c83          	ld	s9,-272(s0)
     388:	080ccc93          	xori	s9,s9,128
     38c:	019c0a23          	sb	s9,20(s8)
     390:	ee043c83          	ld	s9,-288(s0)
     394:	080ccc93          	xori	s9,s9,128
     398:	019c0aa3          	sb	s9,21(s8)
     39c:	ed843c83          	ld	s9,-296(s0)
     3a0:	080ccc93          	xori	s9,s9,128
     3a4:	019c0b23          	sb	s9,22(s8)
     3a8:	ec843c83          	ld	s9,-312(s0)
     3ac:	080ccc93          	xori	s9,s9,128
     3b0:	019c0ba3          	sb	s9,23(s8)
     3b4:	ea843c83          	ld	s9,-344(s0)
     3b8:	080ccc93          	xori	s9,s9,128
     3bc:	019c0c23          	sb	s9,24(s8)
     3c0:	e7843c83          	ld	s9,-392(s0)
     3c4:	080ccc93          	xori	s9,s9,128
     3c8:	019c0ca3          	sb	s9,25(s8)
     3cc:	e3843c83          	ld	s9,-456(s0)
     3d0:	080ccc93          	xori	s9,s9,128
     3d4:	019c0d23          	sb	s9,26(s8)
     3d8:	e0043c83          	ld	s9,-512(s0)
     3dc:	080ccc93          	xori	s9,s9,128
     3e0:	019c0da3          	sb	s9,27(s8)
     3e4:	dd043c83          	ld	s9,-560(s0)
     3e8:	080ccc93          	xori	s9,s9,128
     3ec:	019c0e23          	sb	s9,28(s8)
     3f0:	d9043c83          	ld	s9,-624(s0)
     3f4:	080ccc93          	xori	s9,s9,128
     3f8:	019c0ea3          	sb	s9,29(s8)
     3fc:	d5043c83          	ld	s9,-688(s0)
     400:	080ccc93          	xori	s9,s9,128
     404:	019c0f23          	sb	s9,30(s8)
     408:	d0843c83          	ld	s9,-760(s0)
     40c:	080ccc93          	xori	s9,s9,128
     410:	019c0fa3          	sb	s9,31(s8)
     414:	cc043c03          	ld	s8,-832(s0)
     418:	080c4c93          	xori	s9,s8,128
     41c:	00001c37          	lui	s8,0x1
     420:	41840c33          	sub	s8,s0,s8
     424:	cf8c3c03          	ld	s8,-776(s8) # cf8 <.LBB71_3+0xa80>
     428:	01ac0c33          	add	s8,s8,s10
     42c:	019c01a3          	sb	s9,3(s8)
     430:	c8843c83          	ld	s9,-888(s0)
     434:	080ccc93          	xori	s9,s9,128
     438:	019c0123          	sb	s9,2(s8)
     43c:	c4043c83          	ld	s9,-960(s0)
     440:	080ccc93          	xori	s9,s9,128
     444:	019c00a3          	sb	s9,1(s8)
     448:	c0043c83          	ld	s9,-1024(s0)
     44c:	080ccc93          	xori	s9,s9,128
     450:	019c0023          	sb	s9,0(s8)
     454:	bf043c83          	ld	s9,-1040(s0)
     458:	080ccc93          	xori	s9,s9,128
     45c:	019c0223          	sb	s9,4(s8)
     460:	be043c83          	ld	s9,-1056(s0)
     464:	080ccc93          	xori	s9,s9,128
     468:	019c02a3          	sb	s9,5(s8)
     46c:	b3843c83          	ld	s9,-1224(s0)
     470:	080ccc93          	xori	s9,s9,128
     474:	019c0323          	sb	s9,6(s8)
     478:	af843c83          	ld	s9,-1288(s0)
     47c:	080ccc93          	xori	s9,s9,128
     480:	019c03a3          	sb	s9,7(s8)
     484:	ab043c83          	ld	s9,-1360(s0)
     488:	080ccc93          	xori	s9,s9,128
     48c:	019c0423          	sb	s9,8(s8)
     490:	a6843c83          	ld	s9,-1432(s0)
     494:	080ccc93          	xori	s9,s9,128
     498:	019c04a3          	sb	s9,9(s8)
     49c:	a2843c83          	ld	s9,-1496(s0)
     4a0:	080ccc93          	xori	s9,s9,128
     4a4:	019c0523          	sb	s9,10(s8)
     4a8:	9e843c83          	ld	s9,-1560(s0)
     4ac:	080ccc93          	xori	s9,s9,128
     4b0:	019c05a3          	sb	s9,11(s8)
     4b4:	9a043c83          	ld	s9,-1632(s0)
     4b8:	080ccc93          	xori	s9,s9,128
     4bc:	019c0623          	sb	s9,12(s8)
     4c0:	96043c83          	ld	s9,-1696(s0)
     4c4:	080ccc93          	xori	s9,s9,128
     4c8:	019c06a3          	sb	s9,13(s8)
     4cc:	92043c83          	ld	s9,-1760(s0)
     4d0:	080ccc93          	xori	s9,s9,128
     4d4:	019c0723          	sb	s9,14(s8)
     4d8:	8d843c83          	ld	s9,-1832(s0)
     4dc:	080ccc93          	xori	s9,s9,128
     4e0:	019c07a3          	sb	s9,15(s8)
     4e4:	89843c83          	ld	s9,-1896(s0)
     4e8:	080ccc93          	xori	s9,s9,128
     4ec:	019c0823          	sb	s9,16(s8)
     4f0:	85043c83          	ld	s9,-1968(s0)
     4f4:	080ccc93          	xori	s9,s9,128
     4f8:	019c08a3          	sb	s9,17(s8)
     4fc:	84043c83          	ld	s9,-1984(s0)
     500:	080ccc93          	xori	s9,s9,128
     504:	019c0923          	sb	s9,18(s8)
     508:	80843c83          	ld	s9,-2040(s0)
     50c:	080ccc93          	xori	s9,s9,128
     510:	019c09a3          	sb	s9,19(s8)
     514:	00001cb7          	lui	s9,0x1
     518:	41940cb3          	sub	s9,s0,s9
     51c:	788cbc83          	ld	s9,1928(s9) # 1788 <.LBB71_5+0x54>
     520:	080ccc93          	xori	s9,s9,128
     524:	019c0a23          	sb	s9,20(s8)
     528:	00001cb7          	lui	s9,0x1
     52c:	41940cb3          	sub	s9,s0,s9
     530:	748cbc83          	ld	s9,1864(s9) # 1748 <.LBB71_5+0x14>
     534:	080ccc93          	xori	s9,s9,128
     538:	019c0aa3          	sb	s9,21(s8)
     53c:	00001cb7          	lui	s9,0x1
     540:	41940cb3          	sub	s9,s0,s9
     544:	728cbc83          	ld	s9,1832(s9) # 1728 <.LBB71_4+0x528>
     548:	080ccc93          	xori	s9,s9,128
     54c:	019c0b23          	sb	s9,22(s8)
     550:	00001cb7          	lui	s9,0x1
     554:	41940cb3          	sub	s9,s0,s9
     558:	720cbc83          	ld	s9,1824(s9) # 1720 <.LBB71_4+0x520>
     55c:	080ccc93          	xori	s9,s9,128
     560:	019c0ba3          	sb	s9,23(s8)
     564:	00001cb7          	lui	s9,0x1
     568:	41940cb3          	sub	s9,s0,s9
     56c:	718cbc83          	ld	s9,1816(s9) # 1718 <.LBB71_4+0x518>
     570:	080ccc93          	xori	s9,s9,128
     574:	019c0c23          	sb	s9,24(s8)
     578:	00001cb7          	lui	s9,0x1
     57c:	41940cb3          	sub	s9,s0,s9
     580:	710cbc83          	ld	s9,1808(s9) # 1710 <.LBB71_4+0x510>
     584:	080ccc93          	xori	s9,s9,128
     588:	019c0ca3          	sb	s9,25(s8)
     58c:	00001cb7          	lui	s9,0x1
     590:	41940cb3          	sub	s9,s0,s9
     594:	708cbc83          	ld	s9,1800(s9) # 1708 <.LBB71_4+0x508>
     598:	080ccc93          	xori	s9,s9,128
     59c:	019c0d23          	sb	s9,26(s8)
     5a0:	00001cb7          	lui	s9,0x1
     5a4:	41940cb3          	sub	s9,s0,s9
     5a8:	700cbc83          	ld	s9,1792(s9) # 1700 <.LBB71_4+0x500>
     5ac:	080ccc93          	xori	s9,s9,128
     5b0:	019c0da3          	sb	s9,27(s8)
     5b4:	00001cb7          	lui	s9,0x1
     5b8:	41940cb3          	sub	s9,s0,s9
     5bc:	6f8cbc83          	ld	s9,1784(s9) # 16f8 <.LBB71_4+0x4f8>
     5c0:	080ccc93          	xori	s9,s9,128
     5c4:	019c0e23          	sb	s9,28(s8)
     5c8:	00001cb7          	lui	s9,0x1
     5cc:	41940cb3          	sub	s9,s0,s9
     5d0:	6f0cbc83          	ld	s9,1776(s9) # 16f0 <.LBB71_4+0x4f0>
     5d4:	080ccc93          	xori	s9,s9,128
     5d8:	019c0ea3          	sb	s9,29(s8)
     5dc:	00001cb7          	lui	s9,0x1
     5e0:	41940cb3          	sub	s9,s0,s9
     5e4:	6e8cbc83          	ld	s9,1768(s9) # 16e8 <.LBB71_4+0x4e8>
     5e8:	080ccc93          	xori	s9,s9,128
     5ec:	019c0f23          	sb	s9,30(s8)
     5f0:	00001cb7          	lui	s9,0x1
     5f4:	41940cb3          	sub	s9,s0,s9
     5f8:	6e0cbc83          	ld	s9,1760(s9) # 16e0 <.LBB71_4+0x4e0>
     5fc:	080ccc93          	xori	s9,s9,128
     600:	019c0fa3          	sb	s9,31(s8)
     604:	00001c37          	lui	s8,0x1
     608:	41840c33          	sub	s8,s0,s8
     60c:	6d8c3c03          	ld	s8,1752(s8) # 16d8 <.LBB71_4+0x4d8>
     610:	080c4c93          	xori	s9,s8,128
     614:	00001c37          	lui	s8,0x1
     618:	41840c33          	sub	s8,s0,s8
     61c:	cf0c3c03          	ld	s8,-784(s8) # cf0 <.LBB71_3+0xa78>
     620:	01ac0c33          	add	s8,s8,s10
     624:	019c01a3          	sb	s9,3(s8)
     628:	00001cb7          	lui	s9,0x1
     62c:	41940cb3          	sub	s9,s0,s9
     630:	6d0cbc83          	ld	s9,1744(s9) # 16d0 <.LBB71_4+0x4d0>
     634:	080ccc93          	xori	s9,s9,128
     638:	019c0123          	sb	s9,2(s8)
     63c:	00001cb7          	lui	s9,0x1
     640:	41940cb3          	sub	s9,s0,s9
     644:	6c8cbc83          	ld	s9,1736(s9) # 16c8 <.LBB71_4+0x4c8>
     648:	080ccc93          	xori	s9,s9,128
     64c:	019c00a3          	sb	s9,1(s8)
     650:	00001cb7          	lui	s9,0x1
     654:	41940cb3          	sub	s9,s0,s9
     658:	6c0cbc83          	ld	s9,1728(s9) # 16c0 <.LBB71_4+0x4c0>
     65c:	080ccc93          	xori	s9,s9,128
     660:	019c0023          	sb	s9,0(s8)
     664:	00001cb7          	lui	s9,0x1
     668:	41940cb3          	sub	s9,s0,s9
     66c:	6b8cbc83          	ld	s9,1720(s9) # 16b8 <.LBB71_4+0x4b8>
     670:	080ccc93          	xori	s9,s9,128
     674:	019c0223          	sb	s9,4(s8)
     678:	00001cb7          	lui	s9,0x1
     67c:	41940cb3          	sub	s9,s0,s9
     680:	6b0cbc83          	ld	s9,1712(s9) # 16b0 <.LBB71_4+0x4b0>
     684:	080ccc93          	xori	s9,s9,128
     688:	019c02a3          	sb	s9,5(s8)
     68c:	00001cb7          	lui	s9,0x1
     690:	41940cb3          	sub	s9,s0,s9
     694:	6a8cbc83          	ld	s9,1704(s9) # 16a8 <.LBB71_4+0x4a8>
     698:	080ccc93          	xori	s9,s9,128
     69c:	019c0323          	sb	s9,6(s8)
     6a0:	00001cb7          	lui	s9,0x1
     6a4:	41940cb3          	sub	s9,s0,s9
     6a8:	6a0cbc83          	ld	s9,1696(s9) # 16a0 <.LBB71_4+0x4a0>
     6ac:	080ccc93          	xori	s9,s9,128
     6b0:	019c03a3          	sb	s9,7(s8)
     6b4:	00001cb7          	lui	s9,0x1
     6b8:	41940cb3          	sub	s9,s0,s9
     6bc:	698cbc83          	ld	s9,1688(s9) # 1698 <.LBB71_4+0x498>
     6c0:	080ccc93          	xori	s9,s9,128
     6c4:	019c0423          	sb	s9,8(s8)
     6c8:	00001cb7          	lui	s9,0x1
     6cc:	41940cb3          	sub	s9,s0,s9
     6d0:	690cbc83          	ld	s9,1680(s9) # 1690 <.LBB71_4+0x490>
     6d4:	080ccc93          	xori	s9,s9,128
     6d8:	019c04a3          	sb	s9,9(s8)
     6dc:	00001cb7          	lui	s9,0x1
     6e0:	41940cb3          	sub	s9,s0,s9
     6e4:	688cbc83          	ld	s9,1672(s9) # 1688 <.LBB71_4+0x488>
     6e8:	080ccc93          	xori	s9,s9,128
     6ec:	019c0523          	sb	s9,10(s8)
     6f0:	00001cb7          	lui	s9,0x1
     6f4:	41940cb3          	sub	s9,s0,s9
     6f8:	680cbc83          	ld	s9,1664(s9) # 1680 <.LBB71_4+0x480>
     6fc:	080ccc93          	xori	s9,s9,128
     700:	019c05a3          	sb	s9,11(s8)
     704:	00001cb7          	lui	s9,0x1
     708:	41940cb3          	sub	s9,s0,s9
     70c:	678cbc83          	ld	s9,1656(s9) # 1678 <.LBB71_4+0x478>
     710:	080ccc93          	xori	s9,s9,128
     714:	019c0623          	sb	s9,12(s8)
     718:	00001cb7          	lui	s9,0x1
     71c:	41940cb3          	sub	s9,s0,s9
     720:	668cbc83          	ld	s9,1640(s9) # 1668 <.LBB71_4+0x468>
     724:	080ccc93          	xori	s9,s9,128
     728:	019c06a3          	sb	s9,13(s8)
     72c:	00001cb7          	lui	s9,0x1
     730:	41940cb3          	sub	s9,s0,s9
     734:	660cbc83          	ld	s9,1632(s9) # 1660 <.LBB71_4+0x460>
     738:	080ccc93          	xori	s9,s9,128
     73c:	019c0723          	sb	s9,14(s8)
     740:	00001cb7          	lui	s9,0x1
     744:	41940cb3          	sub	s9,s0,s9
     748:	658cbc83          	ld	s9,1624(s9) # 1658 <.LBB71_4+0x458>
     74c:	080ccc93          	xori	s9,s9,128
     750:	019c07a3          	sb	s9,15(s8)
     754:	00001cb7          	lui	s9,0x1
     758:	41940cb3          	sub	s9,s0,s9
     75c:	650cbc83          	ld	s9,1616(s9) # 1650 <.LBB71_4+0x450>
     760:	080ccc93          	xori	s9,s9,128
     764:	019c0823          	sb	s9,16(s8)
     768:	00001cb7          	lui	s9,0x1
     76c:	41940cb3          	sub	s9,s0,s9
     770:	648cbc83          	ld	s9,1608(s9) # 1648 <.LBB71_4+0x448>
     774:	080ccc93          	xori	s9,s9,128
     778:	019c08a3          	sb	s9,17(s8)
     77c:	00001cb7          	lui	s9,0x1
     780:	41940cb3          	sub	s9,s0,s9
     784:	640cbc83          	ld	s9,1600(s9) # 1640 <.LBB71_4+0x440>
     788:	080ccc93          	xori	s9,s9,128
     78c:	019c0923          	sb	s9,18(s8)
     790:	00001cb7          	lui	s9,0x1
     794:	41940cb3          	sub	s9,s0,s9
     798:	638cbc83          	ld	s9,1592(s9) # 1638 <.LBB71_4+0x438>
     79c:	080ccc93          	xori	s9,s9,128
     7a0:	019c09a3          	sb	s9,19(s8)
     7a4:	00001cb7          	lui	s9,0x1
     7a8:	41940cb3          	sub	s9,s0,s9
     7ac:	630cbc83          	ld	s9,1584(s9) # 1630 <.LBB71_4+0x430>
     7b0:	080ccc93          	xori	s9,s9,128
     7b4:	019c0a23          	sb	s9,20(s8)
     7b8:	00001cb7          	lui	s9,0x1
     7bc:	41940cb3          	sub	s9,s0,s9
     7c0:	278cbc83          	ld	s9,632(s9) # 1278 <.LBB71_4+0x78>
     7c4:	080ccc93          	xori	s9,s9,128
     7c8:	019c0aa3          	sb	s9,21(s8)
     7cc:	00001cb7          	lui	s9,0x1
     7d0:	41940cb3          	sub	s9,s0,s9
     7d4:	288cbc83          	ld	s9,648(s9) # 1288 <.LBB71_4+0x88>
     7d8:	080ccc93          	xori	s9,s9,128
     7dc:	019c0b23          	sb	s9,22(s8)
     7e0:	00001cb7          	lui	s9,0x1
     7e4:	41940cb3          	sub	s9,s0,s9
     7e8:	298cbc83          	ld	s9,664(s9) # 1298 <.LBB71_4+0x98>
     7ec:	080ccc93          	xori	s9,s9,128
     7f0:	019c0ba3          	sb	s9,23(s8)
     7f4:	00001cb7          	lui	s9,0x1
     7f8:	41940cb3          	sub	s9,s0,s9
     7fc:	2a8cbc83          	ld	s9,680(s9) # 12a8 <.LBB71_4+0xa8>
     800:	080ccc93          	xori	s9,s9,128
     804:	019c0c23          	sb	s9,24(s8)
     808:	00001cb7          	lui	s9,0x1
     80c:	41940cb3          	sub	s9,s0,s9
     810:	2b8cbc83          	ld	s9,696(s9) # 12b8 <.LBB71_4+0xb8>
     814:	080ccc93          	xori	s9,s9,128
     818:	019c0ca3          	sb	s9,25(s8)
     81c:	00001cb7          	lui	s9,0x1
     820:	41940cb3          	sub	s9,s0,s9
     824:	2c8cbc83          	ld	s9,712(s9) # 12c8 <.LBB71_4+0xc8>
     828:	080ccc93          	xori	s9,s9,128
     82c:	019c0d23          	sb	s9,26(s8)
     830:	00001cb7          	lui	s9,0x1
     834:	41940cb3          	sub	s9,s0,s9
     838:	2d8cbc83          	ld	s9,728(s9) # 12d8 <.LBB71_4+0xd8>
     83c:	080ccc93          	xori	s9,s9,128
     840:	019c0da3          	sb	s9,27(s8)
     844:	00001cb7          	lui	s9,0x1
     848:	41940cb3          	sub	s9,s0,s9
     84c:	2e8cbc83          	ld	s9,744(s9) # 12e8 <.LBB71_4+0xe8>
     850:	080ccc93          	xori	s9,s9,128
     854:	019c0e23          	sb	s9,28(s8)
     858:	00001cb7          	lui	s9,0x1
     85c:	41940cb3          	sub	s9,s0,s9
     860:	2f8cbc83          	ld	s9,760(s9) # 12f8 <.LBB71_4+0xf8>
     864:	080ccc93          	xori	s9,s9,128
     868:	019c0ea3          	sb	s9,29(s8)
     86c:	00001cb7          	lui	s9,0x1
     870:	41940cb3          	sub	s9,s0,s9
     874:	308cbc83          	ld	s9,776(s9) # 1308 <.LBB71_4+0x108>
     878:	080ccc93          	xori	s9,s9,128
     87c:	019c0f23          	sb	s9,30(s8)
     880:	00001cb7          	lui	s9,0x1
     884:	41940cb3          	sub	s9,s0,s9
     888:	318cbc83          	ld	s9,792(s9) # 1318 <.LBB71_4+0x118>
     88c:	080ccc93          	xori	s9,s9,128
     890:	019c0fa3          	sb	s9,31(s8)
     894:	00001c37          	lui	s8,0x1
     898:	41840c33          	sub	s8,s0,s8
     89c:	328c3c03          	ld	s8,808(s8) # 1328 <.LBB71_4+0x128>
     8a0:	080c4c93          	xori	s9,s8,128
     8a4:	00001c37          	lui	s8,0x1
     8a8:	41840c33          	sub	s8,s0,s8
     8ac:	ce8c3c03          	ld	s8,-792(s8) # ce8 <.LBB71_3+0xa70>
     8b0:	01ac0c33          	add	s8,s8,s10
     8b4:	019c01a3          	sb	s9,3(s8)
     8b8:	00001cb7          	lui	s9,0x1
     8bc:	41940cb3          	sub	s9,s0,s9
     8c0:	338cbc83          	ld	s9,824(s9) # 1338 <.LBB71_4+0x138>
     8c4:	080ccc93          	xori	s9,s9,128
     8c8:	019c0123          	sb	s9,2(s8)
     8cc:	00001cb7          	lui	s9,0x1
     8d0:	41940cb3          	sub	s9,s0,s9
     8d4:	348cbc83          	ld	s9,840(s9) # 1348 <.LBB71_4+0x148>
     8d8:	080ccc93          	xori	s9,s9,128
     8dc:	019c00a3          	sb	s9,1(s8)
     8e0:	00001cb7          	lui	s9,0x1
     8e4:	41940cb3          	sub	s9,s0,s9
     8e8:	358cbc83          	ld	s9,856(s9) # 1358 <.LBB71_4+0x158>
     8ec:	080ccc93          	xori	s9,s9,128
     8f0:	019c0023          	sb	s9,0(s8)
     8f4:	00001cb7          	lui	s9,0x1
     8f8:	41940cb3          	sub	s9,s0,s9
     8fc:	368cbc83          	ld	s9,872(s9) # 1368 <.LBB71_4+0x168>
     900:	080ccc93          	xori	s9,s9,128
     904:	019c0223          	sb	s9,4(s8)
     908:	00001cb7          	lui	s9,0x1
     90c:	41940cb3          	sub	s9,s0,s9
     910:	378cbc83          	ld	s9,888(s9) # 1378 <.LBB71_4+0x178>
     914:	080ccc93          	xori	s9,s9,128
     918:	019c02a3          	sb	s9,5(s8)
     91c:	00001cb7          	lui	s9,0x1
     920:	41940cb3          	sub	s9,s0,s9
     924:	388cbc83          	ld	s9,904(s9) # 1388 <.LBB71_4+0x188>
     928:	080ccc93          	xori	s9,s9,128
     92c:	019c0323          	sb	s9,6(s8)
     930:	00001cb7          	lui	s9,0x1
     934:	41940cb3          	sub	s9,s0,s9
     938:	398cbc83          	ld	s9,920(s9) # 1398 <.LBB71_4+0x198>
     93c:	080ccc93          	xori	s9,s9,128
     940:	019c03a3          	sb	s9,7(s8)
     944:	00001cb7          	lui	s9,0x1
     948:	41940cb3          	sub	s9,s0,s9
     94c:	3a8cbc83          	ld	s9,936(s9) # 13a8 <.LBB71_4+0x1a8>
     950:	080ccc93          	xori	s9,s9,128
     954:	019c0423          	sb	s9,8(s8)
     958:	00001cb7          	lui	s9,0x1
     95c:	41940cb3          	sub	s9,s0,s9
     960:	3b8cbc83          	ld	s9,952(s9) # 13b8 <.LBB71_4+0x1b8>
     964:	080ccc93          	xori	s9,s9,128
     968:	019c04a3          	sb	s9,9(s8)
     96c:	00001cb7          	lui	s9,0x1
     970:	41940cb3          	sub	s9,s0,s9
     974:	3c8cbc83          	ld	s9,968(s9) # 13c8 <.LBB71_4+0x1c8>
     978:	080ccc93          	xori	s9,s9,128
     97c:	019c0523          	sb	s9,10(s8)
     980:	00001cb7          	lui	s9,0x1
     984:	41940cb3          	sub	s9,s0,s9
     988:	3d8cbc83          	ld	s9,984(s9) # 13d8 <.LBB71_4+0x1d8>
     98c:	080ccc93          	xori	s9,s9,128
     990:	019c05a3          	sb	s9,11(s8)
     994:	00001cb7          	lui	s9,0x1
     998:	41940cb3          	sub	s9,s0,s9
     99c:	3e8cbc83          	ld	s9,1000(s9) # 13e8 <.LBB71_4+0x1e8>
     9a0:	080ccc93          	xori	s9,s9,128
     9a4:	019c0623          	sb	s9,12(s8)
     9a8:	00001cb7          	lui	s9,0x1
     9ac:	41940cb3          	sub	s9,s0,s9
     9b0:	3f8cbc83          	ld	s9,1016(s9) # 13f8 <.LBB71_4+0x1f8>
     9b4:	080ccc93          	xori	s9,s9,128
     9b8:	019c06a3          	sb	s9,13(s8)
     9bc:	00001cb7          	lui	s9,0x1
     9c0:	41940cb3          	sub	s9,s0,s9
     9c4:	408cbc83          	ld	s9,1032(s9) # 1408 <.LBB71_4+0x208>
     9c8:	080ccc93          	xori	s9,s9,128
     9cc:	019c0723          	sb	s9,14(s8)
     9d0:	00001cb7          	lui	s9,0x1
     9d4:	41940cb3          	sub	s9,s0,s9
     9d8:	418cbc83          	ld	s9,1048(s9) # 1418 <.LBB71_4+0x218>
     9dc:	080ccc93          	xori	s9,s9,128
     9e0:	019c07a3          	sb	s9,15(s8)
     9e4:	00001cb7          	lui	s9,0x1
     9e8:	41940cb3          	sub	s9,s0,s9
     9ec:	428cbc83          	ld	s9,1064(s9) # 1428 <.LBB71_4+0x228>
     9f0:	080ccc93          	xori	s9,s9,128
     9f4:	019c0823          	sb	s9,16(s8)
     9f8:	00001cb7          	lui	s9,0x1
     9fc:	41940cb3          	sub	s9,s0,s9
     a00:	438cbc83          	ld	s9,1080(s9) # 1438 <.LBB71_4+0x238>
     a04:	080ccc93          	xori	s9,s9,128
     a08:	019c08a3          	sb	s9,17(s8)
     a0c:	00001cb7          	lui	s9,0x1
     a10:	41940cb3          	sub	s9,s0,s9
     a14:	448cbc83          	ld	s9,1096(s9) # 1448 <.LBB71_4+0x248>
     a18:	080ccc93          	xori	s9,s9,128
     a1c:	019c0923          	sb	s9,18(s8)
     a20:	00001cb7          	lui	s9,0x1
     a24:	41940cb3          	sub	s9,s0,s9
     a28:	458cbc83          	ld	s9,1112(s9) # 1458 <.LBB71_4+0x258>
     a2c:	080ccc93          	xori	s9,s9,128
     a30:	019c09a3          	sb	s9,19(s8)
     a34:	00001cb7          	lui	s9,0x1
     a38:	41940cb3          	sub	s9,s0,s9
     a3c:	468cbc83          	ld	s9,1128(s9) # 1468 <.LBB71_4+0x268>
     a40:	080ccc93          	xori	s9,s9,128
     a44:	019c0a23          	sb	s9,20(s8)
     a48:	00001cb7          	lui	s9,0x1
     a4c:	41940cb3          	sub	s9,s0,s9
     a50:	478cbc83          	ld	s9,1144(s9) # 1478 <.LBB71_4+0x278>
     a54:	080ccc93          	xori	s9,s9,128
     a58:	019c0aa3          	sb	s9,21(s8)
     a5c:	00001cb7          	lui	s9,0x1
     a60:	41940cb3          	sub	s9,s0,s9
     a64:	488cbc83          	ld	s9,1160(s9) # 1488 <.LBB71_4+0x288>
     a68:	080ccc93          	xori	s9,s9,128
     a6c:	019c0b23          	sb	s9,22(s8)
     a70:	00001cb7          	lui	s9,0x1
     a74:	41940cb3          	sub	s9,s0,s9
     a78:	498cbc83          	ld	s9,1176(s9) # 1498 <.LBB71_4+0x298>
     a7c:	080ccc93          	xori	s9,s9,128
     a80:	019c0ba3          	sb	s9,23(s8)
     a84:	00001cb7          	lui	s9,0x1
     a88:	41940cb3          	sub	s9,s0,s9
     a8c:	4a8cbc83          	ld	s9,1192(s9) # 14a8 <.LBB71_4+0x2a8>
     a90:	080ccc93          	xori	s9,s9,128
     a94:	019c0c23          	sb	s9,24(s8)
     a98:	00001cb7          	lui	s9,0x1
     a9c:	41940cb3          	sub	s9,s0,s9
     aa0:	4b8cbc83          	ld	s9,1208(s9) # 14b8 <.LBB71_4+0x2b8>
     aa4:	080ccc93          	xori	s9,s9,128
     aa8:	019c0ca3          	sb	s9,25(s8)
     aac:	00001cb7          	lui	s9,0x1
     ab0:	41940cb3          	sub	s9,s0,s9
     ab4:	4c8cbc83          	ld	s9,1224(s9) # 14c8 <.LBB71_4+0x2c8>
     ab8:	080ccc93          	xori	s9,s9,128
     abc:	019c0d23          	sb	s9,26(s8)
     ac0:	00001cb7          	lui	s9,0x1
     ac4:	41940cb3          	sub	s9,s0,s9
     ac8:	4d8cbc83          	ld	s9,1240(s9) # 14d8 <.LBB71_4+0x2d8>
     acc:	080ccc93          	xori	s9,s9,128
     ad0:	019c0da3          	sb	s9,27(s8)
     ad4:	00001cb7          	lui	s9,0x1
     ad8:	41940cb3          	sub	s9,s0,s9
     adc:	4e8cbc83          	ld	s9,1256(s9) # 14e8 <.LBB71_4+0x2e8>
     ae0:	080ccc93          	xori	s9,s9,128
     ae4:	019c0e23          	sb	s9,28(s8)
     ae8:	00001cb7          	lui	s9,0x1
     aec:	41940cb3          	sub	s9,s0,s9
     af0:	4f8cbc83          	ld	s9,1272(s9) # 14f8 <.LBB71_4+0x2f8>
     af4:	080ccc93          	xori	s9,s9,128
     af8:	019c0ea3          	sb	s9,29(s8)
     afc:	00001cb7          	lui	s9,0x1
     b00:	41940cb3          	sub	s9,s0,s9
     b04:	500cbc83          	ld	s9,1280(s9) # 1500 <.LBB71_4+0x300>
     b08:	080ccc93          	xori	s9,s9,128
     b0c:	019c0f23          	sb	s9,30(s8)
     b10:	00001cb7          	lui	s9,0x1
     b14:	41940cb3          	sub	s9,s0,s9
     b18:	510cbc83          	ld	s9,1296(s9) # 1510 <.LBB71_4+0x310>
     b1c:	080ccc93          	xori	s9,s9,128
     b20:	019c0fa3          	sb	s9,31(s8)
     b24:	00001c37          	lui	s8,0x1
     b28:	41840c33          	sub	s8,s0,s8
     b2c:	520c3c03          	ld	s8,1312(s8) # 1520 <.LBB71_4+0x320>
     b30:	080c4c93          	xori	s9,s8,128
     b34:	00001c37          	lui	s8,0x1
     b38:	41840c33          	sub	s8,s0,s8
     b3c:	ce0c3c03          	ld	s8,-800(s8) # ce0 <.LBB71_3+0xa68>
     b40:	01ac0c33          	add	s8,s8,s10
     b44:	019c01a3          	sb	s9,3(s8)
     b48:	00001cb7          	lui	s9,0x1
     b4c:	41940cb3          	sub	s9,s0,s9
     b50:	530cbc83          	ld	s9,1328(s9) # 1530 <.LBB71_4+0x330>
     b54:	080ccc93          	xori	s9,s9,128
     b58:	019c0123          	sb	s9,2(s8)
     b5c:	00001cb7          	lui	s9,0x1
     b60:	41940cb3          	sub	s9,s0,s9
     b64:	540cbc83          	ld	s9,1344(s9) # 1540 <.LBB71_4+0x340>
     b68:	080ccc93          	xori	s9,s9,128
     b6c:	019c00a3          	sb	s9,1(s8)
     b70:	00001cb7          	lui	s9,0x1
     b74:	41940cb3          	sub	s9,s0,s9
     b78:	550cbc83          	ld	s9,1360(s9) # 1550 <.LBB71_4+0x350>
     b7c:	080ccc93          	xori	s9,s9,128
     b80:	019c0023          	sb	s9,0(s8)
     b84:	00001cb7          	lui	s9,0x1
     b88:	41940cb3          	sub	s9,s0,s9
     b8c:	560cbc83          	ld	s9,1376(s9) # 1560 <.LBB71_4+0x360>
     b90:	080ccc93          	xori	s9,s9,128
     b94:	019c0223          	sb	s9,4(s8)
     b98:	00001cb7          	lui	s9,0x1
     b9c:	41940cb3          	sub	s9,s0,s9
     ba0:	570cbc83          	ld	s9,1392(s9) # 1570 <.LBB71_4+0x370>
     ba4:	080ccc93          	xori	s9,s9,128
     ba8:	019c02a3          	sb	s9,5(s8)
     bac:	00001cb7          	lui	s9,0x1
     bb0:	41940cb3          	sub	s9,s0,s9
     bb4:	580cbc83          	ld	s9,1408(s9) # 1580 <.LBB71_4+0x380>
     bb8:	080ccc93          	xori	s9,s9,128
     bbc:	019c0323          	sb	s9,6(s8)
     bc0:	00001cb7          	lui	s9,0x1
     bc4:	41940cb3          	sub	s9,s0,s9
     bc8:	590cbc83          	ld	s9,1424(s9) # 1590 <.LBB71_4+0x390>
     bcc:	080ccc93          	xori	s9,s9,128
     bd0:	019c03a3          	sb	s9,7(s8)
     bd4:	00001cb7          	lui	s9,0x1
     bd8:	41940cb3          	sub	s9,s0,s9
     bdc:	5a0cbc83          	ld	s9,1440(s9) # 15a0 <.LBB71_4+0x3a0>
     be0:	080ccc93          	xori	s9,s9,128
     be4:	019c0423          	sb	s9,8(s8)
     be8:	00001cb7          	lui	s9,0x1
     bec:	41940cb3          	sub	s9,s0,s9
     bf0:	5b0cbc83          	ld	s9,1456(s9) # 15b0 <.LBB71_4+0x3b0>
     bf4:	080ccc93          	xori	s9,s9,128
     bf8:	019c04a3          	sb	s9,9(s8)
     bfc:	00001cb7          	lui	s9,0x1
     c00:	41940cb3          	sub	s9,s0,s9
     c04:	5c0cbc83          	ld	s9,1472(s9) # 15c0 <.LBB71_4+0x3c0>
     c08:	080ccc93          	xori	s9,s9,128
     c0c:	019c0523          	sb	s9,10(s8)
     c10:	00001cb7          	lui	s9,0x1
     c14:	41940cb3          	sub	s9,s0,s9
     c18:	5d0cbc83          	ld	s9,1488(s9) # 15d0 <.LBB71_4+0x3d0>
     c1c:	080ccc93          	xori	s9,s9,128
     c20:	019c05a3          	sb	s9,11(s8)
     c24:	00001cb7          	lui	s9,0x1
     c28:	41940cb3          	sub	s9,s0,s9
     c2c:	5e0cbc83          	ld	s9,1504(s9) # 15e0 <.LBB71_4+0x3e0>
     c30:	080ccc93          	xori	s9,s9,128
     c34:	019c0623          	sb	s9,12(s8)
     c38:	00001cb7          	lui	s9,0x1
     c3c:	41940cb3          	sub	s9,s0,s9
     c40:	5f0cbc83          	ld	s9,1520(s9) # 15f0 <.LBB71_4+0x3f0>
     c44:	080ccc93          	xori	s9,s9,128
     c48:	019c06a3          	sb	s9,13(s8)
     c4c:	00001cb7          	lui	s9,0x1
     c50:	41940cb3          	sub	s9,s0,s9
     c54:	600cbc83          	ld	s9,1536(s9) # 1600 <.LBB71_4+0x400>
     c58:	080ccc93          	xori	s9,s9,128
     c5c:	019c0723          	sb	s9,14(s8)
     c60:	00001cb7          	lui	s9,0x1
     c64:	41940cb3          	sub	s9,s0,s9
     c68:	730cbc83          	ld	s9,1840(s9) # 1730 <.LBB71_4+0x530>
     c6c:	080ccc93          	xori	s9,s9,128
     c70:	019c07a3          	sb	s9,15(s8)
     c74:	00001cb7          	lui	s9,0x1
     c78:	41940cb3          	sub	s9,s0,s9
     c7c:	740cbc83          	ld	s9,1856(s9) # 1740 <.LBB71_5+0xc>
     c80:	080ccc93          	xori	s9,s9,128
     c84:	019c0823          	sb	s9,16(s8)
     c88:	00001cb7          	lui	s9,0x1
     c8c:	41940cb3          	sub	s9,s0,s9
     c90:	758cbc83          	ld	s9,1880(s9) # 1758 <.LBB71_5+0x24>
     c94:	080ccc93          	xori	s9,s9,128
     c98:	019c08a3          	sb	s9,17(s8)
     c9c:	00001cb7          	lui	s9,0x1
     ca0:	41940cb3          	sub	s9,s0,s9
     ca4:	768cbc83          	ld	s9,1896(s9) # 1768 <.LBB71_5+0x34>
     ca8:	080ccc93          	xori	s9,s9,128
     cac:	019c0923          	sb	s9,18(s8)
     cb0:	00001cb7          	lui	s9,0x1
     cb4:	41940cb3          	sub	s9,s0,s9
     cb8:	778cbc83          	ld	s9,1912(s9) # 1778 <.LBB71_5+0x44>
     cbc:	080ccc93          	xori	s9,s9,128
     cc0:	019c09a3          	sb	s9,19(s8)
     cc4:	00001cb7          	lui	s9,0x1
     cc8:	41940cb3          	sub	s9,s0,s9
     ccc:	790cbc83          	ld	s9,1936(s9) # 1790 <.LBB71_5+0x5c>
     cd0:	080ccc93          	xori	s9,s9,128
     cd4:	019c0a23          	sb	s9,20(s8)
     cd8:	00001cb7          	lui	s9,0x1
     cdc:	41940cb3          	sub	s9,s0,s9
     ce0:	7a0cbc83          	ld	s9,1952(s9) # 17a0 <.LBB71_5+0x6c>
     ce4:	080ccc93          	xori	s9,s9,128
     ce8:	019c0aa3          	sb	s9,21(s8)
     cec:	00001cb7          	lui	s9,0x1
     cf0:	41940cb3          	sub	s9,s0,s9
     cf4:	7b0cbc83          	ld	s9,1968(s9) # 17b0 <.LBB71_5+0x7c>
     cf8:	080ccc93          	xori	s9,s9,128
     cfc:	019c0b23          	sb	s9,22(s8)
     d00:	00001cb7          	lui	s9,0x1
     d04:	41940cb3          	sub	s9,s0,s9
     d08:	7c0cbc83          	ld	s9,1984(s9) # 17c0 <.LBB71_5+0x8c>
     d0c:	080ccc93          	xori	s9,s9,128
     d10:	019c0ba3          	sb	s9,23(s8)
     d14:	00001cb7          	lui	s9,0x1
     d18:	41940cb3          	sub	s9,s0,s9
     d1c:	7d0cbc83          	ld	s9,2000(s9) # 17d0 <.LBB71_5+0x9c>
     d20:	080ccc93          	xori	s9,s9,128
     d24:	019c0c23          	sb	s9,24(s8)
     d28:	00001cb7          	lui	s9,0x1
     d2c:	41940cb3          	sub	s9,s0,s9
     d30:	7e0cbc83          	ld	s9,2016(s9) # 17e0 <.LBB71_5+0xac>
     d34:	080ccc93          	xori	s9,s9,128
     d38:	019c0ca3          	sb	s9,25(s8)
     d3c:	00001cb7          	lui	s9,0x1
     d40:	41940cb3          	sub	s9,s0,s9
     d44:	7f0cbc83          	ld	s9,2032(s9) # 17f0 <.LBB71_5+0xbc>
     d48:	080ccc93          	xori	s9,s9,128
     d4c:	019c0d23          	sb	s9,26(s8)
     d50:	80043c83          	ld	s9,-2048(s0)
     d54:	080ccc93          	xori	s9,s9,128
     d58:	019c0da3          	sb	s9,27(s8)
     d5c:	81843c83          	ld	s9,-2024(s0)
     d60:	080ccc93          	xori	s9,s9,128
     d64:	019c0e23          	sb	s9,28(s8)
     d68:	82843c83          	ld	s9,-2008(s0)
     d6c:	080ccc93          	xori	s9,s9,128
     d70:	019c0ea3          	sb	s9,29(s8)
     d74:	83843c83          	ld	s9,-1992(s0)
     d78:	080ccc93          	xori	s9,s9,128
     d7c:	019c0f23          	sb	s9,30(s8)
     d80:	85843c83          	ld	s9,-1960(s0)
     d84:	080ccc93          	xori	s9,s9,128
     d88:	019c0fa3          	sb	s9,31(s8)
     d8c:	86843c03          	ld	s8,-1944(s0)
     d90:	080c4c93          	xori	s9,s8,128
     d94:	00001c37          	lui	s8,0x1
     d98:	41840c33          	sub	s8,s0,s8
     d9c:	cd8c3c03          	ld	s8,-808(s8) # cd8 <.LBB71_3+0xa60>
     da0:	01ac0c33          	add	s8,s8,s10
     da4:	019c01a3          	sb	s9,3(s8)
     da8:	87843c83          	ld	s9,-1928(s0)
     dac:	080ccc93          	xori	s9,s9,128
     db0:	019c0123          	sb	s9,2(s8)
     db4:	88843c83          	ld	s9,-1912(s0)
     db8:	080ccc93          	xori	s9,s9,128
     dbc:	019c00a3          	sb	s9,1(s8)
     dc0:	8a043c83          	ld	s9,-1888(s0)
     dc4:	080ccc93          	xori	s9,s9,128
     dc8:	019c0023          	sb	s9,0(s8)
     dcc:	8b043c83          	ld	s9,-1872(s0)
     dd0:	080ccc93          	xori	s9,s9,128
     dd4:	019c0223          	sb	s9,4(s8)
     dd8:	8c043c83          	ld	s9,-1856(s0)
     ddc:	080ccc93          	xori	s9,s9,128
     de0:	019c02a3          	sb	s9,5(s8)
     de4:	8d043c83          	ld	s9,-1840(s0)
     de8:	080ccc93          	xori	s9,s9,128
     dec:	019c0323          	sb	s9,6(s8)
     df0:	8e843c83          	ld	s9,-1816(s0)
     df4:	080ccc93          	xori	s9,s9,128
     df8:	019c03a3          	sb	s9,7(s8)
     dfc:	8f843c83          	ld	s9,-1800(s0)
     e00:	080ccc93          	xori	s9,s9,128
     e04:	019c0423          	sb	s9,8(s8)
     e08:	90843c83          	ld	s9,-1784(s0)
     e0c:	080ccc93          	xori	s9,s9,128
     e10:	019c04a3          	sb	s9,9(s8)
     e14:	91843c83          	ld	s9,-1768(s0)
     e18:	080ccc93          	xori	s9,s9,128
     e1c:	019c0523          	sb	s9,10(s8)
     e20:	93043c83          	ld	s9,-1744(s0)
     e24:	080ccc93          	xori	s9,s9,128
     e28:	019c05a3          	sb	s9,11(s8)
     e2c:	94043c83          	ld	s9,-1728(s0)
     e30:	080ccc93          	xori	s9,s9,128
     e34:	019c0623          	sb	s9,12(s8)
     e38:	95043c83          	ld	s9,-1712(s0)
     e3c:	080ccc93          	xori	s9,s9,128
     e40:	019c06a3          	sb	s9,13(s8)
     e44:	96843c83          	ld	s9,-1688(s0)
     e48:	080ccc93          	xori	s9,s9,128
     e4c:	019c0723          	sb	s9,14(s8)
     e50:	97843c83          	ld	s9,-1672(s0)
     e54:	080ccc93          	xori	s9,s9,128
     e58:	019c07a3          	sb	s9,15(s8)
     e5c:	98843c83          	ld	s9,-1656(s0)
     e60:	080ccc93          	xori	s9,s9,128
     e64:	019c0823          	sb	s9,16(s8)
     e68:	99843c83          	ld	s9,-1640(s0)
     e6c:	080ccc93          	xori	s9,s9,128
     e70:	019c08a3          	sb	s9,17(s8)
     e74:	9b043c83          	ld	s9,-1616(s0)
     e78:	080ccc93          	xori	s9,s9,128
     e7c:	019c0923          	sb	s9,18(s8)
     e80:	9c043c83          	ld	s9,-1600(s0)
     e84:	080ccc93          	xori	s9,s9,128
     e88:	019c09a3          	sb	s9,19(s8)
     e8c:	9d043c83          	ld	s9,-1584(s0)
     e90:	080ccc93          	xori	s9,s9,128
     e94:	019c0a23          	sb	s9,20(s8)
     e98:	9e043c83          	ld	s9,-1568(s0)
     e9c:	080ccc93          	xori	s9,s9,128
     ea0:	019c0aa3          	sb	s9,21(s8)
     ea4:	9f843c83          	ld	s9,-1544(s0)
     ea8:	080ccc93          	xori	s9,s9,128
     eac:	019c0b23          	sb	s9,22(s8)
     eb0:	a0843c83          	ld	s9,-1528(s0)
     eb4:	080ccc93          	xori	s9,s9,128
     eb8:	019c0ba3          	sb	s9,23(s8)
     ebc:	a1843c83          	ld	s9,-1512(s0)
     ec0:	080ccc93          	xori	s9,s9,128
     ec4:	019c0c23          	sb	s9,24(s8)
     ec8:	a3043c83          	ld	s9,-1488(s0)
     ecc:	080ccc93          	xori	s9,s9,128
     ed0:	019c0ca3          	sb	s9,25(s8)
     ed4:	a4043c83          	ld	s9,-1472(s0)
     ed8:	080ccc93          	xori	s9,s9,128
     edc:	019c0d23          	sb	s9,26(s8)
     ee0:	a5043c83          	ld	s9,-1456(s0)
     ee4:	080ccc93          	xori	s9,s9,128
     ee8:	019c0da3          	sb	s9,27(s8)
     eec:	a6043c83          	ld	s9,-1440(s0)
     ef0:	080ccc93          	xori	s9,s9,128
     ef4:	019c0e23          	sb	s9,28(s8)
     ef8:	a7843c83          	ld	s9,-1416(s0)
     efc:	080ccc93          	xori	s9,s9,128
     f00:	019c0ea3          	sb	s9,29(s8)
     f04:	a8843c83          	ld	s9,-1400(s0)
     f08:	080ccc93          	xori	s9,s9,128
     f0c:	019c0f23          	sb	s9,30(s8)
     f10:	a9843c83          	ld	s9,-1384(s0)
     f14:	080ccc93          	xori	s9,s9,128
     f18:	019c0fa3          	sb	s9,31(s8)
     f1c:	aa843c03          	ld	s8,-1368(s0)
     f20:	080c4c93          	xori	s9,s8,128
     f24:	00001c37          	lui	s8,0x1
     f28:	41840c33          	sub	s8,s0,s8
     f2c:	cd0c3c03          	ld	s8,-816(s8) # cd0 <.LBB71_3+0xa58>
     f30:	01ac0c33          	add	s8,s8,s10
     f34:	019c01a3          	sb	s9,3(s8)
     f38:	ac043c83          	ld	s9,-1344(s0)
     f3c:	080ccc93          	xori	s9,s9,128
     f40:	019c0123          	sb	s9,2(s8)
     f44:	ad043c83          	ld	s9,-1328(s0)
     f48:	080ccc93          	xori	s9,s9,128
     f4c:	019c00a3          	sb	s9,1(s8)
     f50:	ae043c83          	ld	s9,-1312(s0)
     f54:	080ccc93          	xori	s9,s9,128
     f58:	019c0023          	sb	s9,0(s8)
     f5c:	af043c83          	ld	s9,-1296(s0)
     f60:	080ccc93          	xori	s9,s9,128
     f64:	019c0223          	sb	s9,4(s8)
     f68:	b0843c83          	ld	s9,-1272(s0)
     f6c:	080ccc93          	xori	s9,s9,128
     f70:	019c02a3          	sb	s9,5(s8)
     f74:	b1843c83          	ld	s9,-1256(s0)
     f78:	080ccc93          	xori	s9,s9,128
     f7c:	019c0323          	sb	s9,6(s8)
     f80:	b2843c83          	ld	s9,-1240(s0)
     f84:	080ccc93          	xori	s9,s9,128
     f88:	019c03a3          	sb	s9,7(s8)
     f8c:	b4043c83          	ld	s9,-1216(s0)
     f90:	080ccc93          	xori	s9,s9,128
     f94:	019c0423          	sb	s9,8(s8)
     f98:	b5043c83          	ld	s9,-1200(s0)
     f9c:	080ccc93          	xori	s9,s9,128
     fa0:	019c04a3          	sb	s9,9(s8)
     fa4:	b6043c83          	ld	s9,-1184(s0)
     fa8:	080ccc93          	xori	s9,s9,128
     fac:	019c0523          	sb	s9,10(s8)
     fb0:	b7043c83          	ld	s9,-1168(s0)
     fb4:	080ccc93          	xori	s9,s9,128
     fb8:	019c05a3          	sb	s9,11(s8)
     fbc:	b8043c83          	ld	s9,-1152(s0)
     fc0:	080ccc93          	xori	s9,s9,128
     fc4:	019c0623          	sb	s9,12(s8)
     fc8:	b9043c83          	ld	s9,-1136(s0)
     fcc:	080ccc93          	xori	s9,s9,128
     fd0:	019c06a3          	sb	s9,13(s8)
     fd4:	ba043c83          	ld	s9,-1120(s0)
     fd8:	080ccc93          	xori	s9,s9,128
     fdc:	019c0723          	sb	s9,14(s8)
     fe0:	bb043c83          	ld	s9,-1104(s0)
     fe4:	080ccc93          	xori	s9,s9,128
     fe8:	019c07a3          	sb	s9,15(s8)
     fec:	bc043c83          	ld	s9,-1088(s0)
     ff0:	080ccc93          	xori	s9,s9,128
     ff4:	019c0823          	sb	s9,16(s8)
     ff8:	bd043c83          	ld	s9,-1072(s0)
     ffc:	080ccc93          	xori	s9,s9,128
    1000:	019c08a3          	sb	s9,17(s8)
    1004:	be843c83          	ld	s9,-1048(s0)
    1008:	080ccc93          	xori	s9,s9,128
    100c:	019c0923          	sb	s9,18(s8)
    1010:	c0843c83          	ld	s9,-1016(s0)
    1014:	080ccc93          	xori	s9,s9,128
    1018:	019c09a3          	sb	s9,19(s8)
    101c:	c1843c83          	ld	s9,-1000(s0)
    1020:	080ccc93          	xori	s9,s9,128
    1024:	019c0a23          	sb	s9,20(s8)
    1028:	c2843c83          	ld	s9,-984(s0)
    102c:	080ccc93          	xori	s9,s9,128
    1030:	019c0aa3          	sb	s9,21(s8)
    1034:	c3843c83          	ld	s9,-968(s0)
    1038:	080ccc93          	xori	s9,s9,128
    103c:	019c0b23          	sb	s9,22(s8)
    1040:	c5043c83          	ld	s9,-944(s0)
    1044:	080ccc93          	xori	s9,s9,128
    1048:	019c0ba3          	sb	s9,23(s8)
    104c:	c6043c83          	ld	s9,-928(s0)
    1050:	080ccc93          	xori	s9,s9,128
    1054:	019c0c23          	sb	s9,24(s8)
    1058:	c7043c83          	ld	s9,-912(s0)
    105c:	080ccc93          	xori	s9,s9,128
    1060:	019c0ca3          	sb	s9,25(s8)
    1064:	c8043c83          	ld	s9,-896(s0)
    1068:	080ccc93          	xori	s9,s9,128
    106c:	019c0d23          	sb	s9,26(s8)
    1070:	c9843c83          	ld	s9,-872(s0)
    1074:	080ccc93          	xori	s9,s9,128
    1078:	019c0da3          	sb	s9,27(s8)
    107c:	ca843c83          	ld	s9,-856(s0)
    1080:	080ccc93          	xori	s9,s9,128
    1084:	019c0e23          	sb	s9,28(s8)
    1088:	cb843c83          	ld	s9,-840(s0)
    108c:	080ccc93          	xori	s9,s9,128
    1090:	019c0ea3          	sb	s9,29(s8)
    1094:	cd043c83          	ld	s9,-816(s0)
    1098:	080ccc93          	xori	s9,s9,128
    109c:	019c0f23          	sb	s9,30(s8)
    10a0:	ce043c83          	ld	s9,-800(s0)
    10a4:	080ccc93          	xori	s9,s9,128
    10a8:	019c0fa3          	sb	s9,31(s8)
    10ac:	cf043c03          	ld	s8,-784(s0)
    10b0:	080c4c93          	xori	s9,s8,128
    10b4:	00001c37          	lui	s8,0x1
    10b8:	41840c33          	sub	s8,s0,s8
    10bc:	cc8c3c03          	ld	s8,-824(s8) # cc8 <.LBB71_3+0xa50>
    10c0:	01ac0c33          	add	s8,s8,s10
    10c4:	019c01a3          	sb	s9,3(s8)
    10c8:	d0043c83          	ld	s9,-768(s0)
    10cc:	080ccc93          	xori	s9,s9,128
    10d0:	019c0123          	sb	s9,2(s8)
    10d4:	d1843c83          	ld	s9,-744(s0)
    10d8:	080ccc93          	xori	s9,s9,128
    10dc:	019c00a3          	sb	s9,1(s8)
    10e0:	d2843c83          	ld	s9,-728(s0)
    10e4:	080ccc93          	xori	s9,s9,128
    10e8:	019c0023          	sb	s9,0(s8)
    10ec:	d3843c83          	ld	s9,-712(s0)
    10f0:	080ccc93          	xori	s9,s9,128
    10f4:	019c0223          	sb	s9,4(s8)
    10f8:	d4843c83          	ld	s9,-696(s0)
    10fc:	080ccc93          	xori	s9,s9,128
    1100:	019c02a3          	sb	s9,5(s8)
    1104:	d6043c83          	ld	s9,-672(s0)
    1108:	080ccc93          	xori	s9,s9,128
    110c:	019c0323          	sb	s9,6(s8)
    1110:	d7043c83          	ld	s9,-656(s0)
    1114:	080ccc93          	xori	s9,s9,128
    1118:	019c03a3          	sb	s9,7(s8)
    111c:	d8043c83          	ld	s9,-640(s0)
    1120:	080ccc93          	xori	s9,s9,128
    1124:	019c0423          	sb	s9,8(s8)
    1128:	080dcc93          	xori	s9,s11,128
    112c:	019c04a3          	sb	s9,9(s8)
    1130:	08054513          	xori	a0,a0,128
    1134:	00ac0523          	sb	a0,10(s8)
    1138:	0805c513          	xori	a0,a1,128
    113c:	00ac05a3          	sb	a0,11(s8)
    1140:	08064513          	xori	a0,a2,128
    1144:	00ac0623          	sb	a0,12(s8)
    1148:	0806c513          	xori	a0,a3,128
    114c:	00ac06a3          	sb	a0,13(s8)
    1150:	08074513          	xori	a0,a4,128
    1154:	00ac0723          	sb	a0,14(s8)
    1158:	0807c513          	xori	a0,a5,128
    115c:	00ac07a3          	sb	a0,15(s8)
    1160:	08084513          	xori	a0,a6,128
    1164:	00ac0823          	sb	a0,16(s8)
    1168:	0808c513          	xori	a0,a7,128
    116c:	00ac08a3          	sb	a0,17(s8)
    1170:	0802c513          	xori	a0,t0,128
    1174:	00ac0923          	sb	a0,18(s8)
    1178:	08034513          	xori	a0,t1,128
    117c:	00ac09a3          	sb	a0,19(s8)
    1180:	0803c513          	xori	a0,t2,128
    1184:	00ac0a23          	sb	a0,20(s8)
    1188:	080e4513          	xori	a0,t3,128
    118c:	00ac0aa3          	sb	a0,21(s8)
    1190:	080ec513          	xori	a0,t4,128
    1194:	00ac0b23          	sb	a0,22(s8)
    1198:	080f4513          	xori	a0,t5,128
    119c:	00ac0ba3          	sb	a0,23(s8)
    11a0:	080fc513          	xori	a0,t6,128
    11a4:	00ac0c23          	sb	a0,24(s8)
    11a8:	0804c513          	xori	a0,s1,128
    11ac:	00ac0ca3          	sb	a0,25(s8)
    11b0:	08094513          	xori	a0,s2,128
    11b4:	00ac0d23          	sb	a0,26(s8)
    11b8:	0809c513          	xori	a0,s3,128
    11bc:	00ac0da3          	sb	a0,27(s8)
    11c0:	080a4513          	xori	a0,s4,128
    11c4:	00ac0e23          	sb	a0,28(s8)
    11c8:	080ac513          	xori	a0,s5,128
    11cc:	00ac0ea3          	sb	a0,29(s8)
    11d0:	080b4513          	xori	a0,s6,128
    11d4:	00ac0f23          	sb	a0,30(s8)
    11d8:	080bc513          	xori	a0,s7,128
    11dc:	00ac0fa3          	sb	a0,31(s8)
    11e0:	020d0593          	addi	a1,s10,32
    11e4:	00001537          	lui	a0,0x1
    11e8:	40a40533          	sub	a0,s0,a0
    11ec:	61053a83          	ld	s5,1552(a0) # 1610 <.LBB71_4+0x410>
    11f0:	020a8a93          	addi	s5,s5,32
    11f4:	22000513          	li	a0,544
    11f8:	00ad6463          	bltu	s10,a0,1200 <.LBB71_4>
    11fc:	f21fe06f          	j	11c <.LBB71_1>

0000000000001200 <.LBB71_4>:
    1200:	00001537          	lui	a0,0x1
    1204:	40a40533          	sub	a0,s0,a0
    1208:	62b53423          	sd	a1,1576(a0) # 1628 <.LBB71_4+0x428>
    120c:	00001537          	lui	a0,0x1
    1210:	40a40533          	sub	a0,s0,a0
    1214:	61553823          	sd	s5,1552(a0) # 1610 <.LBB71_4+0x410>
    1218:	00001537          	lui	a0,0x1
    121c:	40a40533          	sub	a0,s0,a0
    1220:	d1853503          	ld	a0,-744(a0) # d18 <.LBB71_3+0xaa0>
    1224:	00000613          	li	a2,0
    1228:	000015b7          	lui	a1,0x1
    122c:	40b405b3          	sub	a1,s0,a1
    1230:	7005b823          	sd	zero,1808(a1) # 1710 <.LBB71_4+0x510>
    1234:	00000713          	li	a4,0
    1238:	000015b7          	lui	a1,0x1
    123c:	40b405b3          	sub	a1,s0,a1
    1240:	7005bc23          	sd	zero,1816(a1) # 1718 <.LBB71_4+0x518>
    1244:	000015b7          	lui	a1,0x1
    1248:	40b405b3          	sub	a1,s0,a1
    124c:	7005b423          	sd	zero,1800(a1) # 1708 <.LBB71_4+0x508>
    1250:	000015b7          	lui	a1,0x1
    1254:	40b405b3          	sub	a1,s0,a1
    1258:	7205b023          	sd	zero,1824(a1) # 1720 <.LBB71_4+0x520>
    125c:	000015b7          	lui	a1,0x1
    1260:	40b405b3          	sub	a1,s0,a1
    1264:	7205b423          	sd	zero,1832(a1) # 1728 <.LBB71_4+0x528>
    1268:	000015b7          	lui	a1,0x1
    126c:	40b405b3          	sub	a1,s0,a1
    1270:	7005b023          	sd	zero,1792(a1) # 1700 <.LBB71_4+0x500>
    1274:	000015b7          	lui	a1,0x1
    1278:	40b405b3          	sub	a1,s0,a1
    127c:	6e05bc23          	sd	zero,1784(a1) # 16f8 <.LBB71_4+0x4f8>
    1280:	000015b7          	lui	a1,0x1
    1284:	40b405b3          	sub	a1,s0,a1
    1288:	6e05b823          	sd	zero,1776(a1) # 16f0 <.LBB71_4+0x4f0>
    128c:	000015b7          	lui	a1,0x1
    1290:	40b405b3          	sub	a1,s0,a1
    1294:	7405b423          	sd	zero,1864(a1) # 1748 <.LBB71_5+0x14>
    1298:	000015b7          	lui	a1,0x1
    129c:	40b405b3          	sub	a1,s0,a1
    12a0:	7405bc23          	sd	zero,1880(a1) # 1758 <.LBB71_5+0x24>
    12a4:	000015b7          	lui	a1,0x1
    12a8:	40b405b3          	sub	a1,s0,a1
    12ac:	7605b023          	sd	zero,1888(a1) # 1760 <.LBB71_5+0x2c>
    12b0:	000015b7          	lui	a1,0x1
    12b4:	40b405b3          	sub	a1,s0,a1
    12b8:	7605b423          	sd	zero,1896(a1) # 1768 <.LBB71_5+0x34>
    12bc:	000015b7          	lui	a1,0x1
    12c0:	40b405b3          	sub	a1,s0,a1
    12c4:	7605b823          	sd	zero,1904(a1) # 1770 <.LBB71_5+0x3c>
    12c8:	000015b7          	lui	a1,0x1
    12cc:	40b405b3          	sub	a1,s0,a1
    12d0:	7605bc23          	sd	zero,1912(a1) # 1778 <.LBB71_5+0x44>
    12d4:	000015b7          	lui	a1,0x1
    12d8:	40b405b3          	sub	a1,s0,a1
    12dc:	7805b023          	sd	zero,1920(a1) # 1780 <.LBB71_5+0x4c>
    12e0:	000015b7          	lui	a1,0x1
    12e4:	40b405b3          	sub	a1,s0,a1
    12e8:	7405b023          	sd	zero,1856(a1) # 1740 <.LBB71_5+0xc>
    12ec:	000015b7          	lui	a1,0x1
    12f0:	40b405b3          	sub	a1,s0,a1
    12f4:	7805b823          	sd	zero,1936(a1) # 1790 <.LBB71_5+0x5c>
    12f8:	000015b7          	lui	a1,0x1
    12fc:	40b405b3          	sub	a1,s0,a1
    1300:	7805bc23          	sd	zero,1944(a1) # 1798 <.LBB71_5+0x64>
    1304:	000015b7          	lui	a1,0x1
    1308:	40b405b3          	sub	a1,s0,a1
    130c:	7a05b023          	sd	zero,1952(a1) # 17a0 <.LBB71_5+0x6c>
    1310:	000015b7          	lui	a1,0x1
    1314:	40b405b3          	sub	a1,s0,a1
    1318:	7a05b423          	sd	zero,1960(a1) # 17a8 <.LBB71_5+0x74>
    131c:	000015b7          	lui	a1,0x1
    1320:	40b405b3          	sub	a1,s0,a1
    1324:	7a05b823          	sd	zero,1968(a1) # 17b0 <.LBB71_5+0x7c>
    1328:	000015b7          	lui	a1,0x1
    132c:	40b405b3          	sub	a1,s0,a1
    1330:	7a05bc23          	sd	zero,1976(a1) # 17b8 <.LBB71_5+0x84>
    1334:	000015b7          	lui	a1,0x1
    1338:	40b405b3          	sub	a1,s0,a1
    133c:	7c05b023          	sd	zero,1984(a1) # 17c0 <.LBB71_5+0x8c>
    1340:	000015b7          	lui	a1,0x1
    1344:	40b405b3          	sub	a1,s0,a1
    1348:	7c05b423          	sd	zero,1992(a1) # 17c8 <.LBB71_5+0x94>
    134c:	000015b7          	lui	a1,0x1
    1350:	40b405b3          	sub	a1,s0,a1
    1354:	7c05b823          	sd	zero,2000(a1) # 17d0 <.LBB71_5+0x9c>
    1358:	000015b7          	lui	a1,0x1
    135c:	40b405b3          	sub	a1,s0,a1
    1360:	7c05bc23          	sd	zero,2008(a1) # 17d8 <.LBB71_5+0xa4>
    1364:	000015b7          	lui	a1,0x1
    1368:	40b405b3          	sub	a1,s0,a1
    136c:	7e05b023          	sd	zero,2016(a1) # 17e0 <.LBB71_5+0xac>
    1370:	000015b7          	lui	a1,0x1
    1374:	40b405b3          	sub	a1,s0,a1
    1378:	7e05b423          	sd	zero,2024(a1) # 17e8 <.LBB71_5+0xb4>
    137c:	000015b7          	lui	a1,0x1
    1380:	40b405b3          	sub	a1,s0,a1
    1384:	7e05b823          	sd	zero,2032(a1) # 17f0 <.LBB71_5+0xbc>
    1388:	000015b7          	lui	a1,0x1
    138c:	40b405b3          	sub	a1,s0,a1
    1390:	7e05bc23          	sd	zero,2040(a1) # 17f8 <.LBB71_5+0xc4>
    1394:	80043823          	sd	zero,-2032(s0)
    1398:	000015b7          	lui	a1,0x1
    139c:	40b405b3          	sub	a1,s0,a1
    13a0:	7205bc23          	sd	zero,1848(a1) # 1738 <.LBB71_5+0x4>
    13a4:	000015b7          	lui	a1,0x1
    13a8:	40b405b3          	sub	a1,s0,a1
    13ac:	7405b823          	sd	zero,1872(a1) # 1750 <.LBB71_5+0x1c>
    13b0:	000015b7          	lui	a1,0x1
    13b4:	40b405b3          	sub	a1,s0,a1
    13b8:	7805b423          	sd	zero,1928(a1) # 1788 <.LBB71_5+0x54>
    13bc:	80043c23          	sd	zero,-2024(s0)
    13c0:	82043023          	sd	zero,-2016(s0)
    13c4:	82043423          	sd	zero,-2008(s0)
    13c8:	82043823          	sd	zero,-2000(s0)
    13cc:	82043c23          	sd	zero,-1992(s0)
    13d0:	84043423          	sd	zero,-1976(s0)
    13d4:	84043823          	sd	zero,-1968(s0)
    13d8:	84043c23          	sd	zero,-1960(s0)
    13dc:	86043023          	sd	zero,-1952(s0)
    13e0:	86043423          	sd	zero,-1944(s0)
    13e4:	86043823          	sd	zero,-1936(s0)
    13e8:	86043c23          	sd	zero,-1928(s0)
    13ec:	88043023          	sd	zero,-1920(s0)
    13f0:	88043423          	sd	zero,-1912(s0)
    13f4:	88043823          	sd	zero,-1904(s0)
    13f8:	88043c23          	sd	zero,-1896(s0)
    13fc:	8a043023          	sd	zero,-1888(s0)
    1400:	8a043423          	sd	zero,-1880(s0)
    1404:	8a043823          	sd	zero,-1872(s0)
    1408:	8a043c23          	sd	zero,-1864(s0)
    140c:	8c043023          	sd	zero,-1856(s0)
    1410:	8c043423          	sd	zero,-1848(s0)
    1414:	8c043823          	sd	zero,-1840(s0)
    1418:	8c043c23          	sd	zero,-1832(s0)
    141c:	8e043023          	sd	zero,-1824(s0)
    1420:	8e043423          	sd	zero,-1816(s0)
    1424:	8e043823          	sd	zero,-1808(s0)
    1428:	8e043c23          	sd	zero,-1800(s0)
    142c:	90043c23          	sd	zero,-1768(s0)
    1430:	000015b7          	lui	a1,0x1
    1434:	40b405b3          	sub	a1,s0,a1
    1438:	7205b823          	sd	zero,1840(a1) # 1730 <.LBB71_4+0x530>
    143c:	90043423          	sd	zero,-1784(s0)
    1440:	90043023          	sd	zero,-1792(s0)
    1444:	92043023          	sd	zero,-1760(s0)
    1448:	92043423          	sd	zero,-1752(s0)
    144c:	92043823          	sd	zero,-1744(s0)
    1450:	92043c23          	sd	zero,-1736(s0)
    1454:	94043023          	sd	zero,-1728(s0)
    1458:	94043423          	sd	zero,-1720(s0)
    145c:	94043823          	sd	zero,-1712(s0)
    1460:	94043c23          	sd	zero,-1704(s0)
    1464:	96043023          	sd	zero,-1696(s0)
    1468:	96043423          	sd	zero,-1688(s0)
    146c:	96043823          	sd	zero,-1680(s0)
    1470:	96043c23          	sd	zero,-1672(s0)
    1474:	98043023          	sd	zero,-1664(s0)
    1478:	98043423          	sd	zero,-1656(s0)
    147c:	98043823          	sd	zero,-1648(s0)
    1480:	98043c23          	sd	zero,-1640(s0)
    1484:	9a043023          	sd	zero,-1632(s0)
    1488:	9a043423          	sd	zero,-1624(s0)
    148c:	9a043823          	sd	zero,-1616(s0)
    1490:	9a043c23          	sd	zero,-1608(s0)
    1494:	9c043023          	sd	zero,-1600(s0)
    1498:	9c043423          	sd	zero,-1592(s0)
    149c:	9c043823          	sd	zero,-1584(s0)
    14a0:	9c043c23          	sd	zero,-1576(s0)
    14a4:	9e043023          	sd	zero,-1568(s0)
    14a8:	9e043423          	sd	zero,-1560(s0)
    14ac:	9e043823          	sd	zero,-1552(s0)
    14b0:	9e043c23          	sd	zero,-1544(s0)
    14b4:	a0043c23          	sd	zero,-1512(s0)
    14b8:	a0043823          	sd	zero,-1520(s0)
    14bc:	a0043423          	sd	zero,-1528(s0)
    14c0:	a0043023          	sd	zero,-1536(s0)
    14c4:	a2043023          	sd	zero,-1504(s0)
    14c8:	a2043423          	sd	zero,-1496(s0)
    14cc:	a2043823          	sd	zero,-1488(s0)
    14d0:	a2043c23          	sd	zero,-1480(s0)
    14d4:	a4043023          	sd	zero,-1472(s0)
    14d8:	a4043423          	sd	zero,-1464(s0)
    14dc:	a4043823          	sd	zero,-1456(s0)
    14e0:	a4043c23          	sd	zero,-1448(s0)
    14e4:	a6043023          	sd	zero,-1440(s0)
    14e8:	a6043423          	sd	zero,-1432(s0)
    14ec:	a6043823          	sd	zero,-1424(s0)
    14f0:	a6043c23          	sd	zero,-1416(s0)
    14f4:	a8043023          	sd	zero,-1408(s0)
    14f8:	a8043423          	sd	zero,-1400(s0)
    14fc:	a8043823          	sd	zero,-1392(s0)
    1500:	a8043c23          	sd	zero,-1384(s0)
    1504:	aa043023          	sd	zero,-1376(s0)
    1508:	aa043423          	sd	zero,-1368(s0)
    150c:	aa043823          	sd	zero,-1360(s0)
    1510:	aa043c23          	sd	zero,-1352(s0)
    1514:	ac043023          	sd	zero,-1344(s0)
    1518:	ac043423          	sd	zero,-1336(s0)
    151c:	ac043823          	sd	zero,-1328(s0)
    1520:	ac043c23          	sd	zero,-1320(s0)
    1524:	ae043023          	sd	zero,-1312(s0)
    1528:	ae043423          	sd	zero,-1304(s0)
    152c:	80043023          	sd	zero,-2048(s0)
    1530:	ae043c23          	sd	zero,-1288(s0)
    1534:	b0043c23          	sd	zero,-1256(s0)
    1538:	b0043823          	sd	zero,-1264(s0)
    153c:	b0043423          	sd	zero,-1272(s0)
    1540:	b0043023          	sd	zero,-1280(s0)
    1544:	b2043023          	sd	zero,-1248(s0)
    1548:	b2043423          	sd	zero,-1240(s0)
    154c:	b2043823          	sd	zero,-1232(s0)
    1550:	b2043c23          	sd	zero,-1224(s0)
    1554:	b4043023          	sd	zero,-1216(s0)
    1558:	b4043423          	sd	zero,-1208(s0)
    155c:	b4043823          	sd	zero,-1200(s0)
    1560:	b4043c23          	sd	zero,-1192(s0)
    1564:	b6043023          	sd	zero,-1184(s0)
    1568:	b6043423          	sd	zero,-1176(s0)
    156c:	b6043823          	sd	zero,-1168(s0)
    1570:	b6043c23          	sd	zero,-1160(s0)
    1574:	b8043023          	sd	zero,-1152(s0)
    1578:	b8043423          	sd	zero,-1144(s0)
    157c:	b8043823          	sd	zero,-1136(s0)
    1580:	b8043c23          	sd	zero,-1128(s0)
    1584:	ba043023          	sd	zero,-1120(s0)
    1588:	ba043423          	sd	zero,-1112(s0)
    158c:	ba043823          	sd	zero,-1104(s0)
    1590:	ba043c23          	sd	zero,-1096(s0)
    1594:	bc043023          	sd	zero,-1088(s0)
    1598:	bc043423          	sd	zero,-1080(s0)
    159c:	bc043823          	sd	zero,-1072(s0)
    15a0:	bc043c23          	sd	zero,-1064(s0)
    15a4:	ae043823          	sd	zero,-1296(s0)
    15a8:	90043823          	sd	zero,-1776(s0)
    15ac:	80043423          	sd	zero,-2040(s0)
    15b0:	be043423          	sd	zero,-1048(s0)
    15b4:	c0043823          	sd	zero,-1008(s0)
    15b8:	c0043423          	sd	zero,-1016(s0)
    15bc:	c0043023          	sd	zero,-1024(s0)
    15c0:	be043c23          	sd	zero,-1032(s0)
    15c4:	c0043c23          	sd	zero,-1000(s0)
    15c8:	c2043023          	sd	zero,-992(s0)
    15cc:	c2043423          	sd	zero,-984(s0)
    15d0:	c2043823          	sd	zero,-976(s0)
    15d4:	c2043c23          	sd	zero,-968(s0)
    15d8:	c4043023          	sd	zero,-960(s0)
    15dc:	c4043423          	sd	zero,-952(s0)
    15e0:	c4043823          	sd	zero,-944(s0)
    15e4:	c4043c23          	sd	zero,-936(s0)
    15e8:	c6043023          	sd	zero,-928(s0)
    15ec:	c6043423          	sd	zero,-920(s0)
    15f0:	c6043823          	sd	zero,-912(s0)
    15f4:	c6043c23          	sd	zero,-904(s0)
    15f8:	c8043023          	sd	zero,-896(s0)
    15fc:	c8043423          	sd	zero,-888(s0)
    1600:	c8043823          	sd	zero,-880(s0)
    1604:	c8043c23          	sd	zero,-872(s0)
    1608:	ca043023          	sd	zero,-864(s0)
    160c:	ca043423          	sd	zero,-856(s0)
    1610:	ca043823          	sd	zero,-848(s0)
    1614:	ca043c23          	sd	zero,-840(s0)
    1618:	cc043023          	sd	zero,-832(s0)
    161c:	cc043423          	sd	zero,-824(s0)
    1620:	cc043823          	sd	zero,-816(s0)
    1624:	cc043c23          	sd	zero,-808(s0)
    1628:	ce043023          	sd	zero,-800(s0)
    162c:	ce043423          	sd	zero,-792(s0)
    1630:	ce043823          	sd	zero,-784(s0)
    1634:	d0043823          	sd	zero,-752(s0)
    1638:	d0043423          	sd	zero,-760(s0)
    163c:	d0043023          	sd	zero,-768(s0)
    1640:	ce043c23          	sd	zero,-776(s0)
    1644:	d0043c23          	sd	zero,-744(s0)
    1648:	d2043023          	sd	zero,-736(s0)
    164c:	d2043423          	sd	zero,-728(s0)
    1650:	d2043823          	sd	zero,-720(s0)
    1654:	d2043c23          	sd	zero,-712(s0)
    1658:	d4043023          	sd	zero,-704(s0)
    165c:	d4043423          	sd	zero,-696(s0)
    1660:	d4043823          	sd	zero,-688(s0)
    1664:	d4043c23          	sd	zero,-680(s0)
    1668:	d6043023          	sd	zero,-672(s0)
    166c:	d6043423          	sd	zero,-664(s0)
    1670:	d6043823          	sd	zero,-656(s0)
    1674:	d6043c23          	sd	zero,-648(s0)
    1678:	d8043023          	sd	zero,-640(s0)
    167c:	d8043423          	sd	zero,-632(s0)
    1680:	d8043823          	sd	zero,-624(s0)
    1684:	d8043c23          	sd	zero,-616(s0)
    1688:	da043023          	sd	zero,-608(s0)
    168c:	da043423          	sd	zero,-600(s0)
    1690:	da043823          	sd	zero,-592(s0)
    1694:	da043c23          	sd	zero,-584(s0)
    1698:	dc043023          	sd	zero,-576(s0)
    169c:	dc043423          	sd	zero,-568(s0)
    16a0:	dc043823          	sd	zero,-560(s0)
    16a4:	dc043c23          	sd	zero,-552(s0)
    16a8:	de043023          	sd	zero,-544(s0)
    16ac:	de043423          	sd	zero,-536(s0)
    16b0:	de043823          	sd	zero,-528(s0)
    16b4:	00000593          	li	a1,0
    16b8:	e0043423          	sd	zero,-504(s0)
    16bc:	e0043023          	sd	zero,-512(s0)
    16c0:	de043c23          	sd	zero,-520(s0)
    16c4:	e0043c23          	sd	zero,-488(s0)
    16c8:	e2043023          	sd	zero,-480(s0)
    16cc:	e2043423          	sd	zero,-472(s0)
    16d0:	e2043823          	sd	zero,-464(s0)
    16d4:	e2043c23          	sd	zero,-456(s0)
    16d8:	00000c13          	li	s8,0
    16dc:	e4043423          	sd	zero,-440(s0)
    16e0:	84043023          	sd	zero,-1984(s0)
    16e4:	be043023          	sd	zero,-1056(s0)
    16e8:	be043823          	sd	zero,-1040(s0)
    16ec:	e4043823          	sd	zero,-432(s0)
    16f0:	e6043823          	sd	zero,-400(s0)
    16f4:	e6043423          	sd	zero,-408(s0)
    16f8:	e4043c23          	sd	zero,-424(s0)
    16fc:	e6043023          	sd	zero,-416(s0)
    1700:	00000093          	li	ra,0
    1704:	00000d93          	li	s11,0
    1708:	00000c93          	li	s9,0
    170c:	00000a13          	li	s4,0
    1710:	00000993          	li	s3,0
    1714:	00000913          	li	s2,0
    1718:	00000493          	li	s1,0
    171c:	00000f93          	li	t6,0
    1720:	00000f13          	li	t5,0
    1724:	00000e93          	li	t4,0
    1728:	00000e13          	li	t3,0
    172c:	00000393          	li	t2,0
    1730:	00000313          	li	t1,0

0000000000001734 <.LBB71_5>:
    1734:	e0b43823          	sd	a1,-496(s0)
    1738:	f8a43423          	sd	a0,-120(s0)
    173c:	e5843023          	sd	s8,-448(s0)
    1740:	00001537          	lui	a0,0x1
    1744:	40a40533          	sub	a0,s0,a0
    1748:	68153c23          	sd	ra,1688(a0) # 1698 <.LBB71_4+0x498>
    174c:	00001537          	lui	a0,0x1
    1750:	40a40533          	sub	a0,s0,a0
    1754:	6bb53023          	sd	s11,1696(a0) # 16a0 <.LBB71_4+0x4a0>
    1758:	00001537          	lui	a0,0x1
    175c:	40a40533          	sub	a0,s0,a0
    1760:	6b953423          	sd	s9,1704(a0) # 16a8 <.LBB71_4+0x4a8>
    1764:	f1443823          	sd	s4,-240(s0)
    1768:	f1343c23          	sd	s3,-232(s0)
    176c:	00001537          	lui	a0,0x1
    1770:	40a40533          	sub	a0,s0,a0
    1774:	6b253823          	sd	s2,1712(a0) # 16b0 <.LBB71_4+0x4b0>
    1778:	00001537          	lui	a0,0x1
    177c:	40a40533          	sub	a0,s0,a0
    1780:	6a953c23          	sd	s1,1720(a0) # 16b8 <.LBB71_4+0x4b8>
    1784:	00001537          	lui	a0,0x1
    1788:	40a40533          	sub	a0,s0,a0
    178c:	6df53023          	sd	t6,1728(a0) # 16c0 <.LBB71_4+0x4c0>
    1790:	00001537          	lui	a0,0x1
    1794:	40a40533          	sub	a0,s0,a0
    1798:	6de53423          	sd	t5,1736(a0) # 16c8 <.LBB71_4+0x4c8>
    179c:	00001537          	lui	a0,0x1
    17a0:	40a40533          	sub	a0,s0,a0
    17a4:	6dd53823          	sd	t4,1744(a0) # 16d0 <.LBB71_4+0x4d0>
    17a8:	00001537          	lui	a0,0x1
    17ac:	40a40533          	sub	a0,s0,a0
    17b0:	6dc53c23          	sd	t3,1752(a0) # 16d8 <.LBB71_4+0x4d8>
    17b4:	00001537          	lui	a0,0x1
    17b8:	40a40533          	sub	a0,s0,a0
    17bc:	6e753023          	sd	t2,1760(a0) # 16e0 <.LBB71_4+0x4e0>
    17c0:	00001537          	lui	a0,0x1
    17c4:	40a40533          	sub	a0,s0,a0
    17c8:	6e653423          	sd	t1,1768(a0) # 16e8 <.LBB71_4+0x4e8>
    17cc:	f8843503          	ld	a0,-120(s0)
    17d0:	00050503          	lb	a0,0(a0)
    17d4:	002a8583          	lb	a1,2(s5)
    17d8:	f6b43c23          	sd	a1,-136(s0)
    17dc:	001a8c03          	lb	s8,1(s5)
    17e0:	ed843423          	sd	s8,-312(s0)
    17e4:	000a8783          	lb	a5,0(s5)
    17e8:	003a8d03          	lb	s10,3(s5)
    17ec:	f3a43c23          	sd	s10,-200(s0)
    17f0:	004a8d83          	lb	s11,4(s5)
    17f4:	f3b43823          	sd	s11,-208(s0)
    17f8:	005a8083          	lb	ra,5(s5)
    17fc:	006a8903          	lb	s2,6(s5)
    1800:	f9243023          	sd	s2,-128(s0)
    1804:	007a8803          	lb	a6,7(s5)
    1808:	f7043823          	sd	a6,-144(s0)
    180c:	008a8883          	lb	a7,8(s5)
    1810:	009a8683          	lb	a3,9(s5)
    1814:	e8d43023          	sd	a3,-384(s0)
    1818:	00aa8683          	lb	a3,10(s5)
    181c:	f4d43823          	sd	a3,-176(s0)
    1820:	00ba8283          	lb	t0,11(s5)
    1824:	f6543423          	sd	t0,-152(s0)
    1828:	00ca8383          	lb	t2,12(s5)
    182c:	e8743c23          	sd	t2,-360(s0)
    1830:	00da8b03          	lb	s6,13(s5)
    1834:	f3643423          	sd	s6,-216(s0)
    1838:	00ea8983          	lb	s3,14(s5)
    183c:	00fa8f03          	lb	t5,15(s5)
    1840:	010a8303          	lb	t1,16(s5)
    1844:	f4643423          	sd	t1,-184(s0)
    1848:	011a8e83          	lb	t4,17(s5)
    184c:	012a8e03          	lb	t3,18(s5)
    1850:	f5c43c23          	sd	t3,-168(s0)
    1854:	013a8483          	lb	s1,19(s5)
    1858:	ec943823          	sd	s1,-304(s0)
    185c:	014a8f83          	lb	t6,20(s5)
    1860:	e9f43823          	sd	t6,-368(s0)
    1864:	015a8303          	lb	t1,21(s5)
    1868:	e8643423          	sd	t1,-376(s0)
    186c:	016a8a03          	lb	s4,22(s5)
    1870:	f1443423          	sd	s4,-248(s0)
    1874:	017a8303          	lb	t1,23(s5)
    1878:	ee643423          	sd	t1,-280(s0)
    187c:	018a8b83          	lb	s7,24(s5)
    1880:	f7743023          	sd	s7,-160(s0)
    1884:	02b505b3          	mul	a1,a0,a1
    1888:	00e58733          	add	a4,a1,a4
    188c:	000015b7          	lui	a1,0x1
    1890:	40b405b3          	sub	a1,s0,a1
    1894:	68e5b423          	sd	a4,1672(a1) # 1688 <.LBB71_4+0x488>
    1898:	038505b3          	mul	a1,a0,s8
    189c:	00001737          	lui	a4,0x1
    18a0:	40e40733          	sub	a4,s0,a4
    18a4:	71073703          	ld	a4,1808(a4) # 1710 <.LBB71_4+0x510>
    18a8:	00e58733          	add	a4,a1,a4
    18ac:	000015b7          	lui	a1,0x1
    18b0:	40b405b3          	sub	a1,s0,a1
    18b4:	70e5b823          	sd	a4,1808(a1) # 1710 <.LBB71_4+0x510>
    18b8:	02f505b3          	mul	a1,a0,a5
    18bc:	00078713          	mv	a4,a5
    18c0:	00c58633          	add	a2,a1,a2
    18c4:	000015b7          	lui	a1,0x1
    18c8:	40b405b3          	sub	a1,s0,a1
    18cc:	68c5b823          	sd	a2,1680(a1) # 1690 <.LBB71_4+0x490>
    18d0:	03a505b3          	mul	a1,a0,s10
    18d4:	00001637          	lui	a2,0x1
    18d8:	40c40633          	sub	a2,s0,a2
    18dc:	71863603          	ld	a2,1816(a2) # 1718 <.LBB71_4+0x518>
    18e0:	00c58633          	add	a2,a1,a2
    18e4:	000015b7          	lui	a1,0x1
    18e8:	40b405b3          	sub	a1,s0,a1
    18ec:	70c5bc23          	sd	a2,1816(a1) # 1718 <.LBB71_4+0x518>
    18f0:	03b505b3          	mul	a1,a0,s11
    18f4:	00001637          	lui	a2,0x1
    18f8:	40c40633          	sub	a2,s0,a2
    18fc:	70863603          	ld	a2,1800(a2) # 1708 <.LBB71_4+0x508>
    1900:	00c58633          	add	a2,a1,a2
    1904:	000015b7          	lui	a1,0x1
    1908:	40b405b3          	sub	a1,s0,a1
    190c:	70c5b423          	sd	a2,1800(a1) # 1708 <.LBB71_4+0x508>
    1910:	021505b3          	mul	a1,a0,ra
    1914:	00001637          	lui	a2,0x1
    1918:	40c40633          	sub	a2,s0,a2
    191c:	72063603          	ld	a2,1824(a2) # 1720 <.LBB71_4+0x520>
    1920:	00c58633          	add	a2,a1,a2
    1924:	000015b7          	lui	a1,0x1
    1928:	40b405b3          	sub	a1,s0,a1
    192c:	72c5b023          	sd	a2,1824(a1) # 1720 <.LBB71_4+0x520>
    1930:	032505b3          	mul	a1,a0,s2
    1934:	00001637          	lui	a2,0x1
    1938:	40c40633          	sub	a2,s0,a2
    193c:	72863603          	ld	a2,1832(a2) # 1728 <.LBB71_4+0x528>
    1940:	00c58633          	add	a2,a1,a2
    1944:	000015b7          	lui	a1,0x1
    1948:	40b405b3          	sub	a1,s0,a1
    194c:	72c5b423          	sd	a2,1832(a1) # 1728 <.LBB71_4+0x528>
    1950:	030505b3          	mul	a1,a0,a6
    1954:	00001637          	lui	a2,0x1
    1958:	40c40633          	sub	a2,s0,a2
    195c:	70063603          	ld	a2,1792(a2) # 1700 <.LBB71_4+0x500>
    1960:	00c58633          	add	a2,a1,a2
    1964:	000015b7          	lui	a1,0x1
    1968:	40b405b3          	sub	a1,s0,a1
    196c:	70c5b023          	sd	a2,1792(a1) # 1700 <.LBB71_4+0x500>
    1970:	00088813          	mv	a6,a7
    1974:	ed143023          	sd	a7,-320(s0)
    1978:	031505b3          	mul	a1,a0,a7
    197c:	00001637          	lui	a2,0x1
    1980:	40c40633          	sub	a2,s0,a2
    1984:	6f863603          	ld	a2,1784(a2) # 16f8 <.LBB71_4+0x4f8>
    1988:	00c58633          	add	a2,a1,a2
    198c:	000015b7          	lui	a1,0x1
    1990:	40b405b3          	sub	a1,s0,a1
    1994:	6ec5bc23          	sd	a2,1784(a1) # 16f8 <.LBB71_4+0x4f8>
    1998:	e8043883          	ld	a7,-384(s0)
    199c:	031505b3          	mul	a1,a0,a7
    19a0:	00001637          	lui	a2,0x1
    19a4:	40c40633          	sub	a2,s0,a2
    19a8:	6f063603          	ld	a2,1776(a2) # 16f0 <.LBB71_4+0x4f0>
    19ac:	00c58633          	add	a2,a1,a2
    19b0:	000015b7          	lui	a1,0x1
    19b4:	40b405b3          	sub	a1,s0,a1
    19b8:	6ec5b823          	sd	a2,1776(a1) # 16f0 <.LBB71_4+0x4f0>
    19bc:	02d505b3          	mul	a1,a0,a3
    19c0:	00001637          	lui	a2,0x1
    19c4:	40c40633          	sub	a2,s0,a2
    19c8:	74863603          	ld	a2,1864(a2) # 1748 <.LBB71_5+0x14>
    19cc:	00c58633          	add	a2,a1,a2
    19d0:	000015b7          	lui	a1,0x1
    19d4:	40b405b3          	sub	a1,s0,a1
    19d8:	74c5b423          	sd	a2,1864(a1) # 1748 <.LBB71_5+0x14>
    19dc:	025505b3          	mul	a1,a0,t0
    19e0:	00001637          	lui	a2,0x1
    19e4:	40c40633          	sub	a2,s0,a2
    19e8:	75863603          	ld	a2,1880(a2) # 1758 <.LBB71_5+0x24>
    19ec:	00c58633          	add	a2,a1,a2
    19f0:	000015b7          	lui	a1,0x1
    19f4:	40b405b3          	sub	a1,s0,a1
    19f8:	74c5bc23          	sd	a2,1880(a1) # 1758 <.LBB71_5+0x24>
    19fc:	027505b3          	mul	a1,a0,t2
    1a00:	00001637          	lui	a2,0x1
    1a04:	40c40633          	sub	a2,s0,a2
    1a08:	76063603          	ld	a2,1888(a2) # 1760 <.LBB71_5+0x2c>
    1a0c:	00c58633          	add	a2,a1,a2
    1a10:	000015b7          	lui	a1,0x1
    1a14:	40b405b3          	sub	a1,s0,a1
    1a18:	76c5b023          	sd	a2,1888(a1) # 1760 <.LBB71_5+0x2c>
    1a1c:	036505b3          	mul	a1,a0,s6
    1a20:	00001637          	lui	a2,0x1
    1a24:	40c40633          	sub	a2,s0,a2
    1a28:	76863603          	ld	a2,1896(a2) # 1768 <.LBB71_5+0x34>
    1a2c:	00c58633          	add	a2,a1,a2
    1a30:	000015b7          	lui	a1,0x1
    1a34:	40b405b3          	sub	a1,s0,a1
    1a38:	76c5b423          	sd	a2,1896(a1) # 1768 <.LBB71_5+0x34>
    1a3c:	033505b3          	mul	a1,a0,s3
    1a40:	00001637          	lui	a2,0x1
    1a44:	40c40633          	sub	a2,s0,a2
    1a48:	77063603          	ld	a2,1904(a2) # 1770 <.LBB71_5+0x3c>
    1a4c:	00c58633          	add	a2,a1,a2
    1a50:	000015b7          	lui	a1,0x1
    1a54:	40b405b3          	sub	a1,s0,a1
    1a58:	76c5b823          	sd	a2,1904(a1) # 1770 <.LBB71_5+0x3c>
    1a5c:	03e505b3          	mul	a1,a0,t5
    1a60:	00001637          	lui	a2,0x1
    1a64:	40c40633          	sub	a2,s0,a2
    1a68:	77863603          	ld	a2,1912(a2) # 1778 <.LBB71_5+0x44>
    1a6c:	00c58633          	add	a2,a1,a2
    1a70:	000015b7          	lui	a1,0x1
    1a74:	40b405b3          	sub	a1,s0,a1
    1a78:	76c5bc23          	sd	a2,1912(a1) # 1778 <.LBB71_5+0x44>
    1a7c:	f4843283          	ld	t0,-184(s0)
    1a80:	025505b3          	mul	a1,a0,t0
    1a84:	00001637          	lui	a2,0x1
    1a88:	40c40633          	sub	a2,s0,a2
    1a8c:	78063603          	ld	a2,1920(a2) # 1780 <.LBB71_5+0x4c>
    1a90:	00c58633          	add	a2,a1,a2
    1a94:	000015b7          	lui	a1,0x1
    1a98:	40b405b3          	sub	a1,s0,a1
    1a9c:	78c5b023          	sd	a2,1920(a1) # 1780 <.LBB71_5+0x4c>
    1aa0:	03d505b3          	mul	a1,a0,t4
    1aa4:	00001637          	lui	a2,0x1
    1aa8:	40c40633          	sub	a2,s0,a2
    1aac:	74063603          	ld	a2,1856(a2) # 1740 <.LBB71_5+0xc>
    1ab0:	00c58633          	add	a2,a1,a2
    1ab4:	000015b7          	lui	a1,0x1
    1ab8:	40b405b3          	sub	a1,s0,a1
    1abc:	74c5b023          	sd	a2,1856(a1) # 1740 <.LBB71_5+0xc>
    1ac0:	03c505b3          	mul	a1,a0,t3
    1ac4:	00001637          	lui	a2,0x1
    1ac8:	40c40633          	sub	a2,s0,a2
    1acc:	79063603          	ld	a2,1936(a2) # 1790 <.LBB71_5+0x5c>
    1ad0:	00c58633          	add	a2,a1,a2
    1ad4:	000015b7          	lui	a1,0x1
    1ad8:	40b405b3          	sub	a1,s0,a1
    1adc:	78c5b823          	sd	a2,1936(a1) # 1790 <.LBB71_5+0x5c>
    1ae0:	029505b3          	mul	a1,a0,s1
    1ae4:	00001637          	lui	a2,0x1
    1ae8:	40c40633          	sub	a2,s0,a2
    1aec:	79863603          	ld	a2,1944(a2) # 1798 <.LBB71_5+0x64>
    1af0:	00c58633          	add	a2,a1,a2
    1af4:	000015b7          	lui	a1,0x1
    1af8:	40b405b3          	sub	a1,s0,a1
    1afc:	78c5bc23          	sd	a2,1944(a1) # 1798 <.LBB71_5+0x64>
    1b00:	03f505b3          	mul	a1,a0,t6
    1b04:	00001637          	lui	a2,0x1
    1b08:	40c40633          	sub	a2,s0,a2
    1b0c:	7a063603          	ld	a2,1952(a2) # 17a0 <.LBB71_5+0x6c>
    1b10:	00c58633          	add	a2,a1,a2
    1b14:	000015b7          	lui	a1,0x1
    1b18:	40b405b3          	sub	a1,s0,a1
    1b1c:	7ac5b023          	sd	a2,1952(a1) # 17a0 <.LBB71_5+0x6c>
    1b20:	e8843903          	ld	s2,-376(s0)
    1b24:	032505b3          	mul	a1,a0,s2
    1b28:	00001637          	lui	a2,0x1
    1b2c:	40c40633          	sub	a2,s0,a2
    1b30:	7a863603          	ld	a2,1960(a2) # 17a8 <.LBB71_5+0x74>
    1b34:	00c58633          	add	a2,a1,a2
    1b38:	000015b7          	lui	a1,0x1
    1b3c:	40b405b3          	sub	a1,s0,a1
    1b40:	7ac5b423          	sd	a2,1960(a1) # 17a8 <.LBB71_5+0x74>
    1b44:	034505b3          	mul	a1,a0,s4
    1b48:	00001637          	lui	a2,0x1
    1b4c:	40c40633          	sub	a2,s0,a2
    1b50:	7b063603          	ld	a2,1968(a2) # 17b0 <.LBB71_5+0x7c>
    1b54:	00c58633          	add	a2,a1,a2
    1b58:	000015b7          	lui	a1,0x1
    1b5c:	40b405b3          	sub	a1,s0,a1
    1b60:	7ac5b823          	sd	a2,1968(a1) # 17b0 <.LBB71_5+0x7c>
    1b64:	026505b3          	mul	a1,a0,t1
    1b68:	00001637          	lui	a2,0x1
    1b6c:	40c40633          	sub	a2,s0,a2
    1b70:	7b863603          	ld	a2,1976(a2) # 17b8 <.LBB71_5+0x84>
    1b74:	00c58633          	add	a2,a1,a2
    1b78:	000015b7          	lui	a1,0x1
    1b7c:	40b405b3          	sub	a1,s0,a1
    1b80:	7ac5bc23          	sd	a2,1976(a1) # 17b8 <.LBB71_5+0x84>
    1b84:	019a8483          	lb	s1,25(s5)
    1b88:	037505b3          	mul	a1,a0,s7
    1b8c:	00001637          	lui	a2,0x1
    1b90:	40c40633          	sub	a2,s0,a2
    1b94:	7c063603          	ld	a2,1984(a2) # 17c0 <.LBB71_5+0x8c>
    1b98:	00c58633          	add	a2,a1,a2
    1b9c:	000015b7          	lui	a1,0x1
    1ba0:	40b405b3          	sub	a1,s0,a1
    1ba4:	7cc5b023          	sd	a2,1984(a1) # 17c0 <.LBB71_5+0x8c>
    1ba8:	01aa8f83          	lb	t6,26(s5)
    1bac:	029505b3          	mul	a1,a0,s1
    1bb0:	00001637          	lui	a2,0x1
    1bb4:	40c40633          	sub	a2,s0,a2
    1bb8:	7c863603          	ld	a2,1992(a2) # 17c8 <.LBB71_5+0x94>
    1bbc:	00c58633          	add	a2,a1,a2
    1bc0:	000015b7          	lui	a1,0x1
    1bc4:	40b405b3          	sub	a1,s0,a1
    1bc8:	7cc5b423          	sd	a2,1992(a1) # 17c8 <.LBB71_5+0x94>
    1bcc:	01ba8383          	lb	t2,27(s5)
    1bd0:	03f505b3          	mul	a1,a0,t6
    1bd4:	eff43023          	sd	t6,-288(s0)
    1bd8:	00001637          	lui	a2,0x1
    1bdc:	40c40633          	sub	a2,s0,a2
    1be0:	7d063603          	ld	a2,2000(a2) # 17d0 <.LBB71_5+0x9c>
    1be4:	00c58633          	add	a2,a1,a2
    1be8:	000015b7          	lui	a1,0x1
    1bec:	40b405b3          	sub	a1,s0,a1
    1bf0:	7cc5b823          	sd	a2,2000(a1) # 17d0 <.LBB71_5+0x9c>
    1bf4:	01ca8683          	lb	a3,28(s5)
    1bf8:	f4d43023          	sd	a3,-192(s0)
    1bfc:	027505b3          	mul	a1,a0,t2
    1c00:	f2743023          	sd	t2,-224(s0)
    1c04:	00001637          	lui	a2,0x1
    1c08:	40c40633          	sub	a2,s0,a2
    1c0c:	7d863603          	ld	a2,2008(a2) # 17d8 <.LBB71_5+0xa4>
    1c10:	00c58633          	add	a2,a1,a2
    1c14:	000015b7          	lui	a1,0x1
    1c18:	40b405b3          	sub	a1,s0,a1
    1c1c:	7cc5bc23          	sd	a2,2008(a1) # 17d8 <.LBB71_5+0xa4>
    1c20:	01da8603          	lb	a2,29(s5)
    1c24:	eac43c23          	sd	a2,-328(s0)
    1c28:	02d505b3          	mul	a1,a0,a3
    1c2c:	000016b7          	lui	a3,0x1
    1c30:	40d406b3          	sub	a3,s0,a3
    1c34:	7e06bc03          	ld	s8,2016(a3) # 17e0 <.LBB71_5+0xac>
    1c38:	01858c33          	add	s8,a1,s8
    1c3c:	000015b7          	lui	a1,0x1
    1c40:	40b405b3          	sub	a1,s0,a1
    1c44:	7f85b023          	sd	s8,2016(a1) # 17e0 <.LBB71_5+0xac>
    1c48:	01ea8683          	lb	a3,30(s5)
    1c4c:	ead43823          	sd	a3,-336(s0)
    1c50:	02c505b3          	mul	a1,a0,a2
    1c54:	00001637          	lui	a2,0x1
    1c58:	40c40633          	sub	a2,s0,a2
    1c5c:	7e863c03          	ld	s8,2024(a2) # 17e8 <.LBB71_5+0xb4>
    1c60:	01858c33          	add	s8,a1,s8
    1c64:	000015b7          	lui	a1,0x1
    1c68:	40b405b3          	sub	a1,s0,a1
    1c6c:	7f85b423          	sd	s8,2024(a1) # 17e8 <.LBB71_5+0xb4>
    1c70:	01fa8783          	lb	a5,31(s5)
    1c74:	f8843c03          	ld	s8,-120(s0)
    1c78:	060c0c03          	lb	s8,96(s8)
    1c7c:	02d50db3          	mul	s11,a0,a3
    1c80:	000015b7          	lui	a1,0x1
    1c84:	40b405b3          	sub	a1,s0,a1
    1c88:	7f05bd03          	ld	s10,2032(a1) # 17f0 <.LBB71_5+0xbc>
    1c8c:	01ad8d33          	add	s10,s11,s10
    1c90:	000015b7          	lui	a1,0x1
    1c94:	40b405b3          	sub	a1,s0,a1
    1c98:	7fa5b823          	sd	s10,2032(a1) # 17f0 <.LBB71_5+0xbc>
    1c9c:	02f50533          	mul	a0,a0,a5
    1ca0:	000015b7          	lui	a1,0x1
    1ca4:	40b405b3          	sub	a1,s0,a1
    1ca8:	7f85bd03          	ld	s10,2040(a1) # 17f8 <.LBB71_5+0xc4>
    1cac:	01a50d33          	add	s10,a0,s10
    1cb0:	00001537          	lui	a0,0x1
    1cb4:	40a40533          	sub	a0,s0,a0
    1cb8:	7fa53c23          	sd	s10,2040(a0) # 17f8 <.LBB71_5+0xc4>
    1cbc:	02ec0533          	mul	a0,s8,a4
    1cc0:	81043d03          	ld	s10,-2032(s0)
    1cc4:	01a50d33          	add	s10,a0,s10
    1cc8:	81a43823          	sd	s10,-2032(s0)
    1ccc:	ec843c83          	ld	s9,-312(s0)
    1cd0:	039c0533          	mul	a0,s8,s9
    1cd4:	000015b7          	lui	a1,0x1
    1cd8:	40b405b3          	sub	a1,s0,a1
    1cdc:	7385bd03          	ld	s10,1848(a1) # 1738 <.LBB71_5+0x4>
    1ce0:	01a50d33          	add	s10,a0,s10
    1ce4:	00001537          	lui	a0,0x1
    1ce8:	40a40533          	sub	a0,s0,a0
    1cec:	73a53c23          	sd	s10,1848(a0) # 1738 <.LBB71_5+0x4>
    1cf0:	f7843a03          	ld	s4,-136(s0)
    1cf4:	034c0533          	mul	a0,s8,s4
    1cf8:	000015b7          	lui	a1,0x1
    1cfc:	40b405b3          	sub	a1,s0,a1
    1d00:	7505bd03          	ld	s10,1872(a1) # 1750 <.LBB71_5+0x1c>
    1d04:	01a50d33          	add	s10,a0,s10
    1d08:	00001537          	lui	a0,0x1
    1d0c:	40a40533          	sub	a0,s0,a0
    1d10:	75a53823          	sd	s10,1872(a0) # 1750 <.LBB71_5+0x1c>
    1d14:	f3843303          	ld	t1,-200(s0)
    1d18:	026c0533          	mul	a0,s8,t1
    1d1c:	000015b7          	lui	a1,0x1
    1d20:	40b405b3          	sub	a1,s0,a1
    1d24:	7885bd03          	ld	s10,1928(a1) # 1788 <.LBB71_5+0x54>
    1d28:	01a50d33          	add	s10,a0,s10
    1d2c:	00001537          	lui	a0,0x1
    1d30:	40a40533          	sub	a0,s0,a0
    1d34:	79a53423          	sd	s10,1928(a0) # 1788 <.LBB71_5+0x54>
    1d38:	f3043b03          	ld	s6,-208(s0)
    1d3c:	036c0533          	mul	a0,s8,s6
    1d40:	81843d03          	ld	s10,-2024(s0)
    1d44:	01a50d33          	add	s10,a0,s10
    1d48:	81a43c23          	sd	s10,-2024(s0)
    1d4c:	021c0533          	mul	a0,s8,ra
    1d50:	82043d03          	ld	s10,-2016(s0)
    1d54:	01a50d33          	add	s10,a0,s10
    1d58:	83a43023          	sd	s10,-2016(s0)
    1d5c:	f8043503          	ld	a0,-128(s0)
    1d60:	02ac0533          	mul	a0,s8,a0
    1d64:	82843d03          	ld	s10,-2008(s0)
    1d68:	01a50d33          	add	s10,a0,s10
    1d6c:	83a43423          	sd	s10,-2008(s0)
    1d70:	f7043b83          	ld	s7,-144(s0)
    1d74:	037c0533          	mul	a0,s8,s7
    1d78:	83043d03          	ld	s10,-2000(s0)
    1d7c:	01a50d33          	add	s10,a0,s10
    1d80:	83a43823          	sd	s10,-2000(s0)
    1d84:	030c0533          	mul	a0,s8,a6
    1d88:	83843d03          	ld	s10,-1992(s0)
    1d8c:	01a50d33          	add	s10,a0,s10
    1d90:	83a43c23          	sd	s10,-1992(s0)
    1d94:	031c0533          	mul	a0,s8,a7
    1d98:	84843d03          	ld	s10,-1976(s0)
    1d9c:	01a50d33          	add	s10,a0,s10
    1da0:	85a43423          	sd	s10,-1976(s0)
    1da4:	f5043683          	ld	a3,-176(s0)
    1da8:	02dc0533          	mul	a0,s8,a3
    1dac:	85043d03          	ld	s10,-1968(s0)
    1db0:	01a50d33          	add	s10,a0,s10
    1db4:	85a43823          	sd	s10,-1968(s0)
    1db8:	f6843503          	ld	a0,-152(s0)
    1dbc:	02ac0533          	mul	a0,s8,a0
    1dc0:	85843d03          	ld	s10,-1960(s0)
    1dc4:	01a50d33          	add	s10,a0,s10
    1dc8:	85a43c23          	sd	s10,-1960(s0)
    1dcc:	e9843e03          	ld	t3,-360(s0)
    1dd0:	03cc0533          	mul	a0,s8,t3
    1dd4:	86043d03          	ld	s10,-1952(s0)
    1dd8:	01a50d33          	add	s10,a0,s10
    1ddc:	87a43023          	sd	s10,-1952(s0)
    1de0:	f2843583          	ld	a1,-216(s0)
    1de4:	02bc0533          	mul	a0,s8,a1
    1de8:	86843d03          	ld	s10,-1944(s0)
    1dec:	01a50d33          	add	s10,a0,s10
    1df0:	87a43423          	sd	s10,-1944(s0)
    1df4:	ef343823          	sd	s3,-272(s0)
    1df8:	033c0533          	mul	a0,s8,s3
    1dfc:	87043d03          	ld	s10,-1936(s0)
    1e00:	01a50d33          	add	s10,a0,s10
    1e04:	87a43823          	sd	s10,-1936(s0)
    1e08:	efe43c23          	sd	t5,-264(s0)
    1e0c:	03ec0533          	mul	a0,s8,t5
    1e10:	87843d03          	ld	s10,-1928(s0)
    1e14:	01a50d33          	add	s10,a0,s10
    1e18:	87a43c23          	sd	s10,-1928(s0)
    1e1c:	025c0533          	mul	a0,s8,t0
    1e20:	88043d03          	ld	s10,-1920(s0)
    1e24:	01a50d33          	add	s10,a0,s10
    1e28:	89a43023          	sd	s10,-1920(s0)
    1e2c:	f1d43023          	sd	t4,-256(s0)
    1e30:	03dc0533          	mul	a0,s8,t4
    1e34:	88843d03          	ld	s10,-1912(s0)
    1e38:	01a50d33          	add	s10,a0,s10
    1e3c:	89a43423          	sd	s10,-1912(s0)
    1e40:	f5843883          	ld	a7,-168(s0)
    1e44:	031c0533          	mul	a0,s8,a7
    1e48:	89043d03          	ld	s10,-1904(s0)
    1e4c:	01a50d33          	add	s10,a0,s10
    1e50:	89a43823          	sd	s10,-1904(s0)
    1e54:	ed043603          	ld	a2,-304(s0)
    1e58:	02cc0533          	mul	a0,s8,a2
    1e5c:	89843d03          	ld	s10,-1896(s0)
    1e60:	01a50d33          	add	s10,a0,s10
    1e64:	89a43c23          	sd	s10,-1896(s0)
    1e68:	e9043803          	ld	a6,-368(s0)
    1e6c:	030c0533          	mul	a0,s8,a6
    1e70:	8a043d03          	ld	s10,-1888(s0)
    1e74:	01a50d33          	add	s10,a0,s10
    1e78:	8ba43023          	sd	s10,-1888(s0)
    1e7c:	032c0533          	mul	a0,s8,s2
    1e80:	8a843d03          	ld	s10,-1880(s0)
    1e84:	01a50d33          	add	s10,a0,s10
    1e88:	8ba43423          	sd	s10,-1880(s0)
    1e8c:	f0843503          	ld	a0,-248(s0)
    1e90:	02ac0533          	mul	a0,s8,a0
    1e94:	8b043d03          	ld	s10,-1872(s0)
    1e98:	01a50d33          	add	s10,a0,s10
    1e9c:	8ba43823          	sd	s10,-1872(s0)
    1ea0:	ee843903          	ld	s2,-280(s0)
    1ea4:	032c0533          	mul	a0,s8,s2
    1ea8:	8b843d03          	ld	s10,-1864(s0)
    1eac:	01a50d33          	add	s10,a0,s10
    1eb0:	8ba43c23          	sd	s10,-1864(s0)
    1eb4:	f6043503          	ld	a0,-160(s0)
    1eb8:	02ac0533          	mul	a0,s8,a0
    1ebc:	8c043d03          	ld	s10,-1856(s0)
    1ec0:	01a50d33          	add	s10,a0,s10
    1ec4:	8da43023          	sd	s10,-1856(s0)
    1ec8:	029c0533          	mul	a0,s8,s1
    1ecc:	8c843d03          	ld	s10,-1848(s0)
    1ed0:	01a50d33          	add	s10,a0,s10
    1ed4:	8da43423          	sd	s10,-1848(s0)
    1ed8:	03fc0533          	mul	a0,s8,t6
    1edc:	8d043d03          	ld	s10,-1840(s0)
    1ee0:	01a50d33          	add	s10,a0,s10
    1ee4:	8da43823          	sd	s10,-1840(s0)
    1ee8:	027c0533          	mul	a0,s8,t2
    1eec:	8d843d03          	ld	s10,-1832(s0)
    1ef0:	01a50d33          	add	s10,a0,s10
    1ef4:	8da43c23          	sd	s10,-1832(s0)
    1ef8:	f4043503          	ld	a0,-192(s0)
    1efc:	02ac0533          	mul	a0,s8,a0
    1f00:	8e043d03          	ld	s10,-1824(s0)
    1f04:	01a50d33          	add	s10,a0,s10
    1f08:	8fa43023          	sd	s10,-1824(s0)
    1f0c:	eb843503          	ld	a0,-328(s0)
    1f10:	02ac0533          	mul	a0,s8,a0
    1f14:	8e843d03          	ld	s10,-1816(s0)
    1f18:	01a50d33          	add	s10,a0,s10
    1f1c:	8fa43423          	sd	s10,-1816(s0)
    1f20:	f8843503          	ld	a0,-120(s0)
    1f24:	0c050503          	lb	a0,192(a0)
    1f28:	eb043283          	ld	t0,-336(s0)
    1f2c:	025c0db3          	mul	s11,s8,t0
    1f30:	8f043d03          	ld	s10,-1808(s0)
    1f34:	01ad8d33          	add	s10,s11,s10
    1f38:	8fa43823          	sd	s10,-1808(s0)
    1f3c:	02fc0c33          	mul	s8,s8,a5
    1f40:	8f843d03          	ld	s10,-1800(s0)
    1f44:	01ac0d33          	add	s10,s8,s10
    1f48:	8fa43c23          	sd	s10,-1800(s0)
    1f4c:	02e50c33          	mul	s8,a0,a4
    1f50:	91843d03          	ld	s10,-1768(s0)
    1f54:	01ac0d33          	add	s10,s8,s10
    1f58:	91a43c23          	sd	s10,-1768(s0)
    1f5c:	03950c33          	mul	s8,a0,s9
    1f60:	000012b7          	lui	t0,0x1
    1f64:	405402b3          	sub	t0,s0,t0
    1f68:	7302bd03          	ld	s10,1840(t0) # 1730 <.LBB71_4+0x530>
    1f6c:	01ac0d33          	add	s10,s8,s10
    1f70:	000012b7          	lui	t0,0x1
    1f74:	405402b3          	sub	t0,s0,t0
    1f78:	73a2b823          	sd	s10,1840(t0) # 1730 <.LBB71_4+0x530>
    1f7c:	03450c33          	mul	s8,a0,s4
    1f80:	90843d03          	ld	s10,-1784(s0)
    1f84:	01ac0d33          	add	s10,s8,s10
    1f88:	91a43423          	sd	s10,-1784(s0)
    1f8c:	02650c33          	mul	s8,a0,t1
    1f90:	90043d03          	ld	s10,-1792(s0)
    1f94:	01ac0d33          	add	s10,s8,s10
    1f98:	91a43023          	sd	s10,-1792(s0)
    1f9c:	03650c33          	mul	s8,a0,s6
    1fa0:	92043d03          	ld	s10,-1760(s0)
    1fa4:	01ac0d33          	add	s10,s8,s10
    1fa8:	93a43023          	sd	s10,-1760(s0)
    1fac:	02150c33          	mul	s8,a0,ra
    1fb0:	00008f93          	mv	t6,ra
    1fb4:	ec143c23          	sd	ra,-296(s0)
    1fb8:	92843d03          	ld	s10,-1752(s0)
    1fbc:	01ac0d33          	add	s10,s8,s10
    1fc0:	93a43423          	sd	s10,-1752(s0)
    1fc4:	f8043083          	ld	ra,-128(s0)
    1fc8:	02150c33          	mul	s8,a0,ra
    1fcc:	93043d03          	ld	s10,-1744(s0)
    1fd0:	01ac0d33          	add	s10,s8,s10
    1fd4:	93a43823          	sd	s10,-1744(s0)
    1fd8:	03750c33          	mul	s8,a0,s7
    1fdc:	93843d03          	ld	s10,-1736(s0)
    1fe0:	01ac0d33          	add	s10,s8,s10
    1fe4:	93a43c23          	sd	s10,-1736(s0)
    1fe8:	ec043b83          	ld	s7,-320(s0)
    1fec:	03750c33          	mul	s8,a0,s7
    1ff0:	94043d03          	ld	s10,-1728(s0)
    1ff4:	01ac0d33          	add	s10,s8,s10
    1ff8:	95a43023          	sd	s10,-1728(s0)
    1ffc:	e8043303          	ld	t1,-384(s0)
    2000:	02650c33          	mul	s8,a0,t1
    2004:	94843d03          	ld	s10,-1720(s0)
    2008:	01ac0d33          	add	s10,s8,s10
    200c:	95a43423          	sd	s10,-1720(s0)
    2010:	02d50c33          	mul	s8,a0,a3
    2014:	95043d03          	ld	s10,-1712(s0)
    2018:	01ac0d33          	add	s10,s8,s10
    201c:	95a43823          	sd	s10,-1712(s0)
    2020:	f6843383          	ld	t2,-152(s0)
    2024:	02750c33          	mul	s8,a0,t2
    2028:	95843d03          	ld	s10,-1704(s0)
    202c:	01ac0d33          	add	s10,s8,s10
    2030:	95a43c23          	sd	s10,-1704(s0)
    2034:	03c50c33          	mul	s8,a0,t3
    2038:	96043d03          	ld	s10,-1696(s0)
    203c:	01ac0d33          	add	s10,s8,s10
    2040:	97a43023          	sd	s10,-1696(s0)
    2044:	02b50c33          	mul	s8,a0,a1
    2048:	96843d03          	ld	s10,-1688(s0)
    204c:	01ac0d33          	add	s10,s8,s10
    2050:	97a43423          	sd	s10,-1688(s0)
    2054:	03350c33          	mul	s8,a0,s3
    2058:	97043d03          	ld	s10,-1680(s0)
    205c:	01ac0d33          	add	s10,s8,s10
    2060:	97a43823          	sd	s10,-1680(s0)
    2064:	03e50c33          	mul	s8,a0,t5
    2068:	97843d03          	ld	s10,-1672(s0)
    206c:	01ac0d33          	add	s10,s8,s10
    2070:	97a43c23          	sd	s10,-1672(s0)
    2074:	f4843583          	ld	a1,-184(s0)
    2078:	02b50c33          	mul	s8,a0,a1
    207c:	98043d03          	ld	s10,-1664(s0)
    2080:	01ac0d33          	add	s10,s8,s10
    2084:	99a43023          	sd	s10,-1664(s0)
    2088:	03d50c33          	mul	s8,a0,t4
    208c:	98843d03          	ld	s10,-1656(s0)
    2090:	01ac0d33          	add	s10,s8,s10
    2094:	99a43423          	sd	s10,-1656(s0)
    2098:	03150c33          	mul	s8,a0,a7
    209c:	99043d03          	ld	s10,-1648(s0)
    20a0:	01ac0d33          	add	s10,s8,s10
    20a4:	99a43823          	sd	s10,-1648(s0)
    20a8:	02c50c33          	mul	s8,a0,a2
    20ac:	00060b13          	mv	s6,a2
    20b0:	99843d03          	ld	s10,-1640(s0)
    20b4:	01ac0d33          	add	s10,s8,s10
    20b8:	99a43c23          	sd	s10,-1640(s0)
    20bc:	03050c33          	mul	s8,a0,a6
    20c0:	9a043d03          	ld	s10,-1632(s0)
    20c4:	01ac0d33          	add	s10,s8,s10
    20c8:	9ba43023          	sd	s10,-1632(s0)
    20cc:	e8843a03          	ld	s4,-376(s0)
    20d0:	03450c33          	mul	s8,a0,s4
    20d4:	9a843d03          	ld	s10,-1624(s0)
    20d8:	01ac0d33          	add	s10,s8,s10
    20dc:	9ba43423          	sd	s10,-1624(s0)
    20e0:	f0843603          	ld	a2,-248(s0)
    20e4:	02c50c33          	mul	s8,a0,a2
    20e8:	9b043d03          	ld	s10,-1616(s0)
    20ec:	01ac0d33          	add	s10,s8,s10
    20f0:	9ba43823          	sd	s10,-1616(s0)
    20f4:	00090893          	mv	a7,s2
    20f8:	03250c33          	mul	s8,a0,s2
    20fc:	9b843d03          	ld	s10,-1608(s0)
    2100:	01ac0d33          	add	s10,s8,s10
    2104:	9ba43c23          	sd	s10,-1608(s0)
    2108:	f6043903          	ld	s2,-160(s0)
    210c:	03250c33          	mul	s8,a0,s2
    2110:	9c043d03          	ld	s10,-1600(s0)
    2114:	01ac0d33          	add	s10,s8,s10
    2118:	9da43023          	sd	s10,-1600(s0)
    211c:	02950c33          	mul	s8,a0,s1
    2120:	9c843d03          	ld	s10,-1592(s0)
    2124:	01ac0d33          	add	s10,s8,s10
    2128:	9da43423          	sd	s10,-1592(s0)
    212c:	ee043283          	ld	t0,-288(s0)
    2130:	02550c33          	mul	s8,a0,t0
    2134:	9d043d03          	ld	s10,-1584(s0)
    2138:	01ac0d33          	add	s10,s8,s10
    213c:	9da43823          	sd	s10,-1584(s0)
    2140:	f2043583          	ld	a1,-224(s0)
    2144:	02b50c33          	mul	s8,a0,a1
    2148:	9d843d03          	ld	s10,-1576(s0)
    214c:	01ac0d33          	add	s10,s8,s10
    2150:	9da43c23          	sd	s10,-1576(s0)
    2154:	f4043e83          	ld	t4,-192(s0)
    2158:	03d50c33          	mul	s8,a0,t4
    215c:	9e043d03          	ld	s10,-1568(s0)
    2160:	01ac0d33          	add	s10,s8,s10
    2164:	9fa43023          	sd	s10,-1568(s0)
    2168:	eb843f03          	ld	t5,-328(s0)
    216c:	03e50c33          	mul	s8,a0,t5
    2170:	9e843d03          	ld	s10,-1560(s0)
    2174:	01ac0d33          	add	s10,s8,s10
    2178:	9fa43423          	sd	s10,-1560(s0)
    217c:	f8843c03          	ld	s8,-120(s0)
    2180:	120c0c03          	lb	s8,288(s8)
    2184:	eb043983          	ld	s3,-336(s0)
    2188:	03350db3          	mul	s11,a0,s3
    218c:	9f043d03          	ld	s10,-1552(s0)
    2190:	01ad8d33          	add	s10,s11,s10
    2194:	9fa43823          	sd	s10,-1552(s0)
    2198:	02f50533          	mul	a0,a0,a5
    219c:	e6f43c23          	sd	a5,-392(s0)
    21a0:	9f843d03          	ld	s10,-1544(s0)
    21a4:	01a50d33          	add	s10,a0,s10
    21a8:	9fa43c23          	sd	s10,-1544(s0)
    21ac:	eae43023          	sd	a4,-352(s0)
    21b0:	02ec0533          	mul	a0,s8,a4
    21b4:	a1843d03          	ld	s10,-1512(s0)
    21b8:	01a50d33          	add	s10,a0,s10
    21bc:	a1a43c23          	sd	s10,-1512(s0)
    21c0:	039c0533          	mul	a0,s8,s9
    21c4:	a1043d03          	ld	s10,-1520(s0)
    21c8:	01a50d33          	add	s10,a0,s10
    21cc:	a1a43823          	sd	s10,-1520(s0)
    21d0:	f7843503          	ld	a0,-136(s0)
    21d4:	02ac0533          	mul	a0,s8,a0
    21d8:	a0843d03          	ld	s10,-1528(s0)
    21dc:	01a50d33          	add	s10,a0,s10
    21e0:	a1a43423          	sd	s10,-1528(s0)
    21e4:	f3843583          	ld	a1,-200(s0)
    21e8:	02bc0533          	mul	a0,s8,a1
    21ec:	a0043d03          	ld	s10,-1536(s0)
    21f0:	01a50d33          	add	s10,a0,s10
    21f4:	a1a43023          	sd	s10,-1536(s0)
    21f8:	f3043683          	ld	a3,-208(s0)
    21fc:	02dc0533          	mul	a0,s8,a3
    2200:	a2043d03          	ld	s10,-1504(s0)
    2204:	01a50d33          	add	s10,a0,s10
    2208:	a3a43023          	sd	s10,-1504(s0)
    220c:	03fc0533          	mul	a0,s8,t6
    2210:	a2843d03          	ld	s10,-1496(s0)
    2214:	01a50d33          	add	s10,a0,s10
    2218:	a3a43423          	sd	s10,-1496(s0)
    221c:	021c0533          	mul	a0,s8,ra
    2220:	a3043d03          	ld	s10,-1488(s0)
    2224:	01a50d33          	add	s10,a0,s10
    2228:	a3a43823          	sd	s10,-1488(s0)
    222c:	f7043503          	ld	a0,-144(s0)
    2230:	02ac0533          	mul	a0,s8,a0
    2234:	a3843d03          	ld	s10,-1480(s0)
    2238:	01a50d33          	add	s10,a0,s10
    223c:	a3a43c23          	sd	s10,-1480(s0)
    2240:	037c0533          	mul	a0,s8,s7
    2244:	a4043d03          	ld	s10,-1472(s0)
    2248:	01a50d33          	add	s10,a0,s10
    224c:	a5a43023          	sd	s10,-1472(s0)
    2250:	00030093          	mv	ra,t1
    2254:	026c0533          	mul	a0,s8,t1
    2258:	a4843d03          	ld	s10,-1464(s0)
    225c:	01a50d33          	add	s10,a0,s10
    2260:	a5a43423          	sd	s10,-1464(s0)
    2264:	f5043503          	ld	a0,-176(s0)
    2268:	02ac0533          	mul	a0,s8,a0
    226c:	a5043d03          	ld	s10,-1456(s0)
    2270:	01a50d33          	add	s10,a0,s10
    2274:	a5a43823          	sd	s10,-1456(s0)
    2278:	027c0533          	mul	a0,s8,t2
    227c:	a5843d03          	ld	s10,-1448(s0)
    2280:	01a50d33          	add	s10,a0,s10
    2284:	a5a43c23          	sd	s10,-1448(s0)
    2288:	03cc0533          	mul	a0,s8,t3
    228c:	a6043d03          	ld	s10,-1440(s0)
    2290:	01a50d33          	add	s10,a0,s10
    2294:	a7a43023          	sd	s10,-1440(s0)
    2298:	f2843503          	ld	a0,-216(s0)
    229c:	02ac0533          	mul	a0,s8,a0
    22a0:	a6843d03          	ld	s10,-1432(s0)
    22a4:	01a50d33          	add	s10,a0,s10
    22a8:	a7a43423          	sd	s10,-1432(s0)
    22ac:	ef043503          	ld	a0,-272(s0)
    22b0:	02ac0533          	mul	a0,s8,a0
    22b4:	a7043d03          	ld	s10,-1424(s0)
    22b8:	01a50d33          	add	s10,a0,s10
    22bc:	a7a43823          	sd	s10,-1424(s0)
    22c0:	ef843503          	ld	a0,-264(s0)
    22c4:	02ac0533          	mul	a0,s8,a0
    22c8:	a7843d03          	ld	s10,-1416(s0)
    22cc:	01a50d33          	add	s10,a0,s10
    22d0:	a7a43c23          	sd	s10,-1416(s0)
    22d4:	f4843f83          	ld	t6,-184(s0)
    22d8:	03fc0533          	mul	a0,s8,t6
    22dc:	a8043d03          	ld	s10,-1408(s0)
    22e0:	01a50d33          	add	s10,a0,s10
    22e4:	a9a43023          	sd	s10,-1408(s0)
    22e8:	f0043503          	ld	a0,-256(s0)
    22ec:	02ac0533          	mul	a0,s8,a0
    22f0:	a8843d03          	ld	s10,-1400(s0)
    22f4:	01a50d33          	add	s10,a0,s10
    22f8:	a9a43423          	sd	s10,-1400(s0)
    22fc:	f5843503          	ld	a0,-168(s0)
    2300:	02ac0533          	mul	a0,s8,a0
    2304:	a9043d03          	ld	s10,-1392(s0)
    2308:	01a50d33          	add	s10,a0,s10
    230c:	a9a43823          	sd	s10,-1392(s0)
    2310:	036c0533          	mul	a0,s8,s6
    2314:	a9843d03          	ld	s10,-1384(s0)
    2318:	01a50d33          	add	s10,a0,s10
    231c:	a9a43c23          	sd	s10,-1384(s0)
    2320:	030c0533          	mul	a0,s8,a6
    2324:	00080b13          	mv	s6,a6
    2328:	aa043d03          	ld	s10,-1376(s0)
    232c:	01a50d33          	add	s10,a0,s10
    2330:	aba43023          	sd	s10,-1376(s0)
    2334:	034c0533          	mul	a0,s8,s4
    2338:	aa843d03          	ld	s10,-1368(s0)
    233c:	01a50d33          	add	s10,a0,s10
    2340:	aba43423          	sd	s10,-1368(s0)
    2344:	02cc0533          	mul	a0,s8,a2
    2348:	ab043d03          	ld	s10,-1360(s0)
    234c:	01a50d33          	add	s10,a0,s10
    2350:	aba43823          	sd	s10,-1360(s0)
    2354:	031c0533          	mul	a0,s8,a7
    2358:	ab843d03          	ld	s10,-1352(s0)
    235c:	01a50d33          	add	s10,a0,s10
    2360:	aba43c23          	sd	s10,-1352(s0)
    2364:	032c0533          	mul	a0,s8,s2
    2368:	ac043d03          	ld	s10,-1344(s0)
    236c:	01a50d33          	add	s10,a0,s10
    2370:	ada43023          	sd	s10,-1344(s0)
    2374:	00048613          	mv	a2,s1
    2378:	ea943423          	sd	s1,-344(s0)
    237c:	029c0533          	mul	a0,s8,s1
    2380:	ac843d03          	ld	s10,-1336(s0)
    2384:	01a50d33          	add	s10,a0,s10
    2388:	ada43423          	sd	s10,-1336(s0)
    238c:	00028893          	mv	a7,t0
    2390:	025c0533          	mul	a0,s8,t0
    2394:	ad043d03          	ld	s10,-1328(s0)
    2398:	01a50d33          	add	s10,a0,s10
    239c:	ada43823          	sd	s10,-1328(s0)
    23a0:	f2043503          	ld	a0,-224(s0)
    23a4:	02ac0533          	mul	a0,s8,a0
    23a8:	ad843d03          	ld	s10,-1320(s0)
    23ac:	01a50d33          	add	s10,a0,s10
    23b0:	ada43c23          	sd	s10,-1320(s0)
    23b4:	03dc0533          	mul	a0,s8,t4
    23b8:	ae043d03          	ld	s10,-1312(s0)
    23bc:	01a50d33          	add	s10,a0,s10
    23c0:	afa43023          	sd	s10,-1312(s0)
    23c4:	03ec0533          	mul	a0,s8,t5
    23c8:	ae843d03          	ld	s10,-1304(s0)
    23cc:	01a50d33          	add	s10,a0,s10
    23d0:	afa43423          	sd	s10,-1304(s0)
    23d4:	f8843503          	ld	a0,-120(s0)
    23d8:	18050503          	lb	a0,384(a0)
    23dc:	033c0db3          	mul	s11,s8,s3
    23e0:	80043d03          	ld	s10,-2048(s0)
    23e4:	01ad8d33          	add	s10,s11,s10
    23e8:	81a43023          	sd	s10,-2048(s0)
    23ec:	02fc0c33          	mul	s8,s8,a5
    23f0:	af843d03          	ld	s10,-1288(s0)
    23f4:	01ac0d33          	add	s10,s8,s10
    23f8:	afa43c23          	sd	s10,-1288(s0)
    23fc:	02e50c33          	mul	s8,a0,a4
    2400:	b1843d03          	ld	s10,-1256(s0)
    2404:	01ac0d33          	add	s10,s8,s10
    2408:	b1a43c23          	sd	s10,-1256(s0)
    240c:	03950c33          	mul	s8,a0,s9
    2410:	b1043d03          	ld	s10,-1264(s0)
    2414:	01ac0d33          	add	s10,s8,s10
    2418:	b1a43823          	sd	s10,-1264(s0)
    241c:	f7843283          	ld	t0,-136(s0)
    2420:	02550c33          	mul	s8,a0,t0
    2424:	b0843d03          	ld	s10,-1272(s0)
    2428:	01ac0d33          	add	s10,s8,s10
    242c:	b1a43423          	sd	s10,-1272(s0)
    2430:	02b50c33          	mul	s8,a0,a1
    2434:	b0043d03          	ld	s10,-1280(s0)
    2438:	01ac0d33          	add	s10,s8,s10
    243c:	b1a43023          	sd	s10,-1280(s0)
    2440:	02d50c33          	mul	s8,a0,a3
    2444:	b2043d03          	ld	s10,-1248(s0)
    2448:	01ac0d33          	add	s10,s8,s10
    244c:	b3a43023          	sd	s10,-1248(s0)
    2450:	ed843303          	ld	t1,-296(s0)
    2454:	02650c33          	mul	s8,a0,t1
    2458:	b2843d03          	ld	s10,-1240(s0)
    245c:	01ac0d33          	add	s10,s8,s10
    2460:	b3a43423          	sd	s10,-1240(s0)
    2464:	f8043583          	ld	a1,-128(s0)
    2468:	02b50c33          	mul	s8,a0,a1
    246c:	b3043d03          	ld	s10,-1232(s0)
    2470:	01ac0d33          	add	s10,s8,s10
    2474:	b3a43823          	sd	s10,-1232(s0)
    2478:	f7043803          	ld	a6,-144(s0)
    247c:	03050c33          	mul	s8,a0,a6
    2480:	b3843d03          	ld	s10,-1224(s0)
    2484:	01ac0d33          	add	s10,s8,s10
    2488:	b3a43c23          	sd	s10,-1224(s0)
    248c:	03750c33          	mul	s8,a0,s7
    2490:	b4043d03          	ld	s10,-1216(s0)
    2494:	01ac0d33          	add	s10,s8,s10
    2498:	b5a43023          	sd	s10,-1216(s0)
    249c:	02150c33          	mul	s8,a0,ra
    24a0:	b4843d03          	ld	s10,-1208(s0)
    24a4:	01ac0d33          	add	s10,s8,s10
    24a8:	b5a43423          	sd	s10,-1208(s0)
    24ac:	f5043783          	ld	a5,-176(s0)
    24b0:	02f50c33          	mul	s8,a0,a5
    24b4:	b5043d03          	ld	s10,-1200(s0)
    24b8:	01ac0d33          	add	s10,s8,s10
    24bc:	b5a43823          	sd	s10,-1200(s0)
    24c0:	02750c33          	mul	s8,a0,t2
    24c4:	b5843d03          	ld	s10,-1192(s0)
    24c8:	01ac0d33          	add	s10,s8,s10
    24cc:	b5a43c23          	sd	s10,-1192(s0)
    24d0:	03c50c33          	mul	s8,a0,t3
    24d4:	000e0c93          	mv	s9,t3
    24d8:	b6043d03          	ld	s10,-1184(s0)
    24dc:	01ac0d33          	add	s10,s8,s10
    24e0:	b7a43023          	sd	s10,-1184(s0)
    24e4:	f2843903          	ld	s2,-216(s0)
    24e8:	03250c33          	mul	s8,a0,s2
    24ec:	b6843d03          	ld	s10,-1176(s0)
    24f0:	01ac0d33          	add	s10,s8,s10
    24f4:	b7a43423          	sd	s10,-1176(s0)
    24f8:	ef043583          	ld	a1,-272(s0)
    24fc:	02b50c33          	mul	s8,a0,a1
    2500:	b7043d03          	ld	s10,-1168(s0)
    2504:	01ac0d33          	add	s10,s8,s10
    2508:	b7a43823          	sd	s10,-1168(s0)
    250c:	ef843e03          	ld	t3,-264(s0)
    2510:	03c50c33          	mul	s8,a0,t3
    2514:	b7843d03          	ld	s10,-1160(s0)
    2518:	01ac0d33          	add	s10,s8,s10
    251c:	b7a43c23          	sd	s10,-1160(s0)
    2520:	03f50c33          	mul	s8,a0,t6
    2524:	b8043d03          	ld	s10,-1152(s0)
    2528:	01ac0d33          	add	s10,s8,s10
    252c:	b9a43023          	sd	s10,-1152(s0)
    2530:	f0043383          	ld	t2,-256(s0)
    2534:	02750c33          	mul	s8,a0,t2
    2538:	b8843d03          	ld	s10,-1144(s0)
    253c:	01ac0d33          	add	s10,s8,s10
    2540:	b9a43423          	sd	s10,-1144(s0)
    2544:	f5843703          	ld	a4,-168(s0)
    2548:	02e50c33          	mul	s8,a0,a4
    254c:	b9043d03          	ld	s10,-1136(s0)
    2550:	01ac0d33          	add	s10,s8,s10
    2554:	b9a43823          	sd	s10,-1136(s0)
    2558:	ed043f83          	ld	t6,-304(s0)
    255c:	03f50c33          	mul	s8,a0,t6
    2560:	b9843d03          	ld	s10,-1128(s0)
    2564:	01ac0d33          	add	s10,s8,s10
    2568:	b9a43c23          	sd	s10,-1128(s0)
    256c:	03650c33          	mul	s8,a0,s6
    2570:	ba043d03          	ld	s10,-1120(s0)
    2574:	01ac0d33          	add	s10,s8,s10
    2578:	bba43023          	sd	s10,-1120(s0)
    257c:	03450c33          	mul	s8,a0,s4
    2580:	ba843d03          	ld	s10,-1112(s0)
    2584:	01ac0d33          	add	s10,s8,s10
    2588:	bba43423          	sd	s10,-1112(s0)
    258c:	f0843683          	ld	a3,-248(s0)
    2590:	02d50c33          	mul	s8,a0,a3
    2594:	bb043d03          	ld	s10,-1104(s0)
    2598:	01ac0d33          	add	s10,s8,s10
    259c:	bba43823          	sd	s10,-1104(s0)
    25a0:	ee843483          	ld	s1,-280(s0)
    25a4:	02950c33          	mul	s8,a0,s1
    25a8:	bb843d03          	ld	s10,-1096(s0)
    25ac:	01ac0d33          	add	s10,s8,s10
    25b0:	bba43c23          	sd	s10,-1096(s0)
    25b4:	f6043483          	ld	s1,-160(s0)
    25b8:	02950c33          	mul	s8,a0,s1
    25bc:	bc043d03          	ld	s10,-1088(s0)
    25c0:	01ac0d33          	add	s10,s8,s10
    25c4:	bda43023          	sd	s10,-1088(s0)
    25c8:	02c50c33          	mul	s8,a0,a2
    25cc:	bc843d03          	ld	s10,-1080(s0)
    25d0:	01ac0d33          	add	s10,s8,s10
    25d4:	bda43423          	sd	s10,-1080(s0)
    25d8:	03150c33          	mul	s8,a0,a7
    25dc:	bd043d03          	ld	s10,-1072(s0)
    25e0:	01ac0d33          	add	s10,s8,s10
    25e4:	bda43823          	sd	s10,-1072(s0)
    25e8:	f2043603          	ld	a2,-224(s0)
    25ec:	02c50c33          	mul	s8,a0,a2
    25f0:	bd843d03          	ld	s10,-1064(s0)
    25f4:	01ac0d33          	add	s10,s8,s10
    25f8:	bda43c23          	sd	s10,-1064(s0)
    25fc:	03d50c33          	mul	s8,a0,t4
    2600:	af043d03          	ld	s10,-1296(s0)
    2604:	01ac0d33          	add	s10,s8,s10
    2608:	afa43823          	sd	s10,-1296(s0)
    260c:	03e50c33          	mul	s8,a0,t5
    2610:	91043d03          	ld	s10,-1776(s0)
    2614:	01ac0d33          	add	s10,s8,s10
    2618:	91a43823          	sd	s10,-1776(s0)
    261c:	f8843c03          	ld	s8,-120(s0)
    2620:	1e0c0c03          	lb	s8,480(s8)
    2624:	03350db3          	mul	s11,a0,s3
    2628:	80843d03          	ld	s10,-2040(s0)
    262c:	01ad8d33          	add	s10,s11,s10
    2630:	81a43423          	sd	s10,-2040(s0)
    2634:	e7843b83          	ld	s7,-392(s0)
    2638:	03750533          	mul	a0,a0,s7
    263c:	be843d03          	ld	s10,-1048(s0)
    2640:	01a50d33          	add	s10,a0,s10
    2644:	bfa43423          	sd	s10,-1048(s0)
    2648:	ea043483          	ld	s1,-352(s0)
    264c:	029c0533          	mul	a0,s8,s1
    2650:	c1043d03          	ld	s10,-1008(s0)
    2654:	01a50d33          	add	s10,a0,s10
    2658:	c1a43823          	sd	s10,-1008(s0)
    265c:	ec843883          	ld	a7,-312(s0)
    2660:	031c0533          	mul	a0,s8,a7
    2664:	c0843d03          	ld	s10,-1016(s0)
    2668:	01a50d33          	add	s10,a0,s10
    266c:	c1a43423          	sd	s10,-1016(s0)
    2670:	025c0533          	mul	a0,s8,t0
    2674:	c0043d03          	ld	s10,-1024(s0)
    2678:	01a50d33          	add	s10,a0,s10
    267c:	c1a43023          	sd	s10,-1024(s0)
    2680:	f3843283          	ld	t0,-200(s0)
    2684:	025c0533          	mul	a0,s8,t0
    2688:	bf843d03          	ld	s10,-1032(s0)
    268c:	01a50d33          	add	s10,a0,s10
    2690:	bfa43c23          	sd	s10,-1032(s0)
    2694:	f3043e83          	ld	t4,-208(s0)
    2698:	03dc0533          	mul	a0,s8,t4
    269c:	c1843d03          	ld	s10,-1000(s0)
    26a0:	01a50d33          	add	s10,a0,s10
    26a4:	c1a43c23          	sd	s10,-1000(s0)
    26a8:	026c0533          	mul	a0,s8,t1
    26ac:	c2043d03          	ld	s10,-992(s0)
    26b0:	01a50d33          	add	s10,a0,s10
    26b4:	c3a43023          	sd	s10,-992(s0)
    26b8:	f8043303          	ld	t1,-128(s0)
    26bc:	026c0533          	mul	a0,s8,t1
    26c0:	c2843d03          	ld	s10,-984(s0)
    26c4:	01a50d33          	add	s10,a0,s10
    26c8:	c3a43423          	sd	s10,-984(s0)
    26cc:	030c0533          	mul	a0,s8,a6
    26d0:	c3043d03          	ld	s10,-976(s0)
    26d4:	01a50d33          	add	s10,a0,s10
    26d8:	c3a43823          	sd	s10,-976(s0)
    26dc:	ec043803          	ld	a6,-320(s0)
    26e0:	030c0533          	mul	a0,s8,a6
    26e4:	c3843d03          	ld	s10,-968(s0)
    26e8:	01a50d33          	add	s10,a0,s10
    26ec:	c3a43c23          	sd	s10,-968(s0)
    26f0:	021c0533          	mul	a0,s8,ra
    26f4:	c4043d03          	ld	s10,-960(s0)
    26f8:	01a50d33          	add	s10,a0,s10
    26fc:	c5a43023          	sd	s10,-960(s0)
    2700:	02fc0533          	mul	a0,s8,a5
    2704:	c4843d03          	ld	s10,-952(s0)
    2708:	01a50d33          	add	s10,a0,s10
    270c:	c5a43423          	sd	s10,-952(s0)
    2710:	f6843783          	ld	a5,-152(s0)
    2714:	02fc0533          	mul	a0,s8,a5
    2718:	c5043d03          	ld	s10,-944(s0)
    271c:	01a50d33          	add	s10,a0,s10
    2720:	c5a43823          	sd	s10,-944(s0)
    2724:	039c0533          	mul	a0,s8,s9
    2728:	c5843d03          	ld	s10,-936(s0)
    272c:	01a50d33          	add	s10,a0,s10
    2730:	c5a43c23          	sd	s10,-936(s0)
    2734:	032c0533          	mul	a0,s8,s2
    2738:	c6043d03          	ld	s10,-928(s0)
    273c:	01a50d33          	add	s10,a0,s10
    2740:	c7a43023          	sd	s10,-928(s0)
    2744:	02bc0533          	mul	a0,s8,a1
    2748:	c6843d03          	ld	s10,-920(s0)
    274c:	01a50d33          	add	s10,a0,s10
    2750:	c7a43423          	sd	s10,-920(s0)
    2754:	03cc0533          	mul	a0,s8,t3
    2758:	c7043d03          	ld	s10,-912(s0)
    275c:	01a50d33          	add	s10,a0,s10
    2760:	c7a43823          	sd	s10,-912(s0)
    2764:	f4843583          	ld	a1,-184(s0)
    2768:	02bc0533          	mul	a0,s8,a1
    276c:	c7843d03          	ld	s10,-904(s0)
    2770:	01a50d33          	add	s10,a0,s10
    2774:	c7a43c23          	sd	s10,-904(s0)
    2778:	027c0533          	mul	a0,s8,t2
    277c:	c8043d03          	ld	s10,-896(s0)
    2780:	01a50d33          	add	s10,a0,s10
    2784:	c9a43023          	sd	s10,-896(s0)
    2788:	02ec0533          	mul	a0,s8,a4
    278c:	c8843d03          	ld	s10,-888(s0)
    2790:	01a50d33          	add	s10,a0,s10
    2794:	c9a43423          	sd	s10,-888(s0)
    2798:	03fc0533          	mul	a0,s8,t6
    279c:	c9043d03          	ld	s10,-880(s0)
    27a0:	01a50d33          	add	s10,a0,s10
    27a4:	c9a43823          	sd	s10,-880(s0)
    27a8:	036c0533          	mul	a0,s8,s6
    27ac:	c9843d03          	ld	s10,-872(s0)
    27b0:	01a50d33          	add	s10,a0,s10
    27b4:	c9a43c23          	sd	s10,-872(s0)
    27b8:	034c0533          	mul	a0,s8,s4
    27bc:	000a0713          	mv	a4,s4
    27c0:	ca043d03          	ld	s10,-864(s0)
    27c4:	01a50d33          	add	s10,a0,s10
    27c8:	cba43023          	sd	s10,-864(s0)
    27cc:	02dc0533          	mul	a0,s8,a3
    27d0:	ca843d03          	ld	s10,-856(s0)
    27d4:	01a50d33          	add	s10,a0,s10
    27d8:	cba43423          	sd	s10,-856(s0)
    27dc:	ee843a03          	ld	s4,-280(s0)
    27e0:	034c0533          	mul	a0,s8,s4
    27e4:	cb043d03          	ld	s10,-848(s0)
    27e8:	01a50d33          	add	s10,a0,s10
    27ec:	cba43823          	sd	s10,-848(s0)
    27f0:	f6043b03          	ld	s6,-160(s0)
    27f4:	036c0533          	mul	a0,s8,s6
    27f8:	cb843d03          	ld	s10,-840(s0)
    27fc:	01a50d33          	add	s10,a0,s10
    2800:	cba43c23          	sd	s10,-840(s0)
    2804:	ea843503          	ld	a0,-344(s0)
    2808:	02ac0533          	mul	a0,s8,a0
    280c:	cc043d03          	ld	s10,-832(s0)
    2810:	01a50d33          	add	s10,a0,s10
    2814:	cda43023          	sd	s10,-832(s0)
    2818:	ee043503          	ld	a0,-288(s0)
    281c:	02ac0533          	mul	a0,s8,a0
    2820:	cc843d03          	ld	s10,-824(s0)
    2824:	01a50d33          	add	s10,a0,s10
    2828:	cda43423          	sd	s10,-824(s0)
    282c:	02cc0533          	mul	a0,s8,a2
    2830:	cd043d03          	ld	s10,-816(s0)
    2834:	01a50d33          	add	s10,a0,s10
    2838:	cda43823          	sd	s10,-816(s0)
    283c:	f4043503          	ld	a0,-192(s0)
    2840:	02ac0533          	mul	a0,s8,a0
    2844:	cd843d03          	ld	s10,-808(s0)
    2848:	01a50d33          	add	s10,a0,s10
    284c:	cda43c23          	sd	s10,-808(s0)
    2850:	03ec0533          	mul	a0,s8,t5
    2854:	ce043d03          	ld	s10,-800(s0)
    2858:	01a50d33          	add	s10,a0,s10
    285c:	cfa43023          	sd	s10,-800(s0)
    2860:	f8843503          	ld	a0,-120(s0)
    2864:	24050503          	lb	a0,576(a0)
    2868:	033c0db3          	mul	s11,s8,s3
    286c:	ce843d03          	ld	s10,-792(s0)
    2870:	01ad8d33          	add	s10,s11,s10
    2874:	cfa43423          	sd	s10,-792(s0)
    2878:	037c0c33          	mul	s8,s8,s7
    287c:	cf043d03          	ld	s10,-784(s0)
    2880:	01ac0d33          	add	s10,s8,s10
    2884:	cfa43823          	sd	s10,-784(s0)
    2888:	02950c33          	mul	s8,a0,s1
    288c:	d1043d03          	ld	s10,-752(s0)
    2890:	01ac0d33          	add	s10,s8,s10
    2894:	d1a43823          	sd	s10,-752(s0)
    2898:	03150c33          	mul	s8,a0,a7
    289c:	d0843d03          	ld	s10,-760(s0)
    28a0:	01ac0d33          	add	s10,s8,s10
    28a4:	d1a43423          	sd	s10,-760(s0)
    28a8:	f7843603          	ld	a2,-136(s0)
    28ac:	02c50c33          	mul	s8,a0,a2
    28b0:	d0043d03          	ld	s10,-768(s0)
    28b4:	01ac0d33          	add	s10,s8,s10
    28b8:	d1a43023          	sd	s10,-768(s0)
    28bc:	02550c33          	mul	s8,a0,t0
    28c0:	cf843d03          	ld	s10,-776(s0)
    28c4:	01ac0d33          	add	s10,s8,s10
    28c8:	cfa43c23          	sd	s10,-776(s0)
    28cc:	03d50c33          	mul	s8,a0,t4
    28d0:	d1843d03          	ld	s10,-744(s0)
    28d4:	01ac0d33          	add	s10,s8,s10
    28d8:	d1a43c23          	sd	s10,-744(s0)
    28dc:	ed843603          	ld	a2,-296(s0)
    28e0:	02c50c33          	mul	s8,a0,a2
    28e4:	d2043d03          	ld	s10,-736(s0)
    28e8:	01ac0d33          	add	s10,s8,s10
    28ec:	d3a43023          	sd	s10,-736(s0)
    28f0:	02650c33          	mul	s8,a0,t1
    28f4:	d2843d03          	ld	s10,-728(s0)
    28f8:	01ac0d33          	add	s10,s8,s10
    28fc:	d3a43423          	sd	s10,-728(s0)
    2900:	f7043603          	ld	a2,-144(s0)
    2904:	02c50c33          	mul	s8,a0,a2
    2908:	d3043d03          	ld	s10,-720(s0)
    290c:	01ac0d33          	add	s10,s8,s10
    2910:	d3a43823          	sd	s10,-720(s0)
    2914:	03050c33          	mul	s8,a0,a6
    2918:	d3843d03          	ld	s10,-712(s0)
    291c:	01ac0d33          	add	s10,s8,s10
    2920:	d3a43c23          	sd	s10,-712(s0)
    2924:	02150c33          	mul	s8,a0,ra
    2928:	d4043d03          	ld	s10,-704(s0)
    292c:	01ac0d33          	add	s10,s8,s10
    2930:	d5a43023          	sd	s10,-704(s0)
    2934:	f5043c83          	ld	s9,-176(s0)
    2938:	03950c33          	mul	s8,a0,s9
    293c:	d4843d03          	ld	s10,-696(s0)
    2940:	01ac0d33          	add	s10,s8,s10
    2944:	d5a43423          	sd	s10,-696(s0)
    2948:	02f50c33          	mul	s8,a0,a5
    294c:	d5043d03          	ld	s10,-688(s0)
    2950:	01ac0d33          	add	s10,s8,s10
    2954:	d5a43823          	sd	s10,-688(s0)
    2958:	e9843903          	ld	s2,-360(s0)
    295c:	03250c33          	mul	s8,a0,s2
    2960:	d5843d03          	ld	s10,-680(s0)
    2964:	01ac0d33          	add	s10,s8,s10
    2968:	d5a43c23          	sd	s10,-680(s0)
    296c:	f2843f83          	ld	t6,-216(s0)
    2970:	03f50c33          	mul	s8,a0,t6
    2974:	d6043d03          	ld	s10,-672(s0)
    2978:	01ac0d33          	add	s10,s8,s10
    297c:	d7a43023          	sd	s10,-672(s0)
    2980:	ef043e03          	ld	t3,-272(s0)
    2984:	03c50c33          	mul	s8,a0,t3
    2988:	d6843d03          	ld	s10,-664(s0)
    298c:	01ac0d33          	add	s10,s8,s10
    2990:	d7a43423          	sd	s10,-664(s0)
    2994:	ef843383          	ld	t2,-264(s0)
    2998:	02750c33          	mul	s8,a0,t2
    299c:	d7043d03          	ld	s10,-656(s0)
    29a0:	01ac0d33          	add	s10,s8,s10
    29a4:	d7a43823          	sd	s10,-656(s0)
    29a8:	00058e93          	mv	t4,a1
    29ac:	02b50c33          	mul	s8,a0,a1
    29b0:	d7843d03          	ld	s10,-648(s0)
    29b4:	01ac0d33          	add	s10,s8,s10
    29b8:	d7a43c23          	sd	s10,-648(s0)
    29bc:	f0043303          	ld	t1,-256(s0)
    29c0:	02650c33          	mul	s8,a0,t1
    29c4:	d8043d03          	ld	s10,-640(s0)
    29c8:	01ac0d33          	add	s10,s8,s10
    29cc:	d9a43023          	sd	s10,-640(s0)
    29d0:	f5843803          	ld	a6,-168(s0)
    29d4:	03050c33          	mul	s8,a0,a6
    29d8:	d8843d03          	ld	s10,-632(s0)
    29dc:	01ac0d33          	add	s10,s8,s10
    29e0:	d9a43423          	sd	s10,-632(s0)
    29e4:	ed043783          	ld	a5,-304(s0)
    29e8:	02f50c33          	mul	s8,a0,a5
    29ec:	d9043d03          	ld	s10,-624(s0)
    29f0:	01ac0d33          	add	s10,s8,s10
    29f4:	d9a43823          	sd	s10,-624(s0)
    29f8:	e9043b83          	ld	s7,-368(s0)
    29fc:	03750c33          	mul	s8,a0,s7
    2a00:	d9843d03          	ld	s10,-616(s0)
    2a04:	01ac0d33          	add	s10,s8,s10
    2a08:	d9a43c23          	sd	s10,-616(s0)
    2a0c:	00070893          	mv	a7,a4
    2a10:	02e50c33          	mul	s8,a0,a4
    2a14:	da043d03          	ld	s10,-608(s0)
    2a18:	01ac0d33          	add	s10,s8,s10
    2a1c:	dba43023          	sd	s10,-608(s0)
    2a20:	00068713          	mv	a4,a3
    2a24:	02d50c33          	mul	s8,a0,a3
    2a28:	da843d03          	ld	s10,-600(s0)
    2a2c:	01ac0d33          	add	s10,s8,s10
    2a30:	dba43423          	sd	s10,-600(s0)
    2a34:	000a0693          	mv	a3,s4
    2a38:	03450c33          	mul	s8,a0,s4
    2a3c:	db043d03          	ld	s10,-592(s0)
    2a40:	01ac0d33          	add	s10,s8,s10
    2a44:	dba43823          	sd	s10,-592(s0)
    2a48:	000b0613          	mv	a2,s6
    2a4c:	03650c33          	mul	s8,a0,s6
    2a50:	db843d03          	ld	s10,-584(s0)
    2a54:	01ac0d33          	add	s10,s8,s10
    2a58:	dba43c23          	sd	s10,-584(s0)
    2a5c:	ea843483          	ld	s1,-344(s0)
    2a60:	02950c33          	mul	s8,a0,s1
    2a64:	dc043d03          	ld	s10,-576(s0)
    2a68:	01ac0d33          	add	s10,s8,s10
    2a6c:	dda43023          	sd	s10,-576(s0)
    2a70:	ee043583          	ld	a1,-288(s0)
    2a74:	02b50c33          	mul	s8,a0,a1
    2a78:	dc843d03          	ld	s10,-568(s0)
    2a7c:	01ac0d33          	add	s10,s8,s10
    2a80:	dda43423          	sd	s10,-568(s0)
    2a84:	f2043a03          	ld	s4,-224(s0)
    2a88:	03450c33          	mul	s8,a0,s4
    2a8c:	dd043d03          	ld	s10,-560(s0)
    2a90:	01ac0d33          	add	s10,s8,s10
    2a94:	dda43823          	sd	s10,-560(s0)
    2a98:	f4043b03          	ld	s6,-192(s0)
    2a9c:	03650c33          	mul	s8,a0,s6
    2aa0:	dd843d03          	ld	s10,-552(s0)
    2aa4:	01ac0d33          	add	s10,s8,s10
    2aa8:	dda43c23          	sd	s10,-552(s0)
    2aac:	03e50c33          	mul	s8,a0,t5
    2ab0:	de043d03          	ld	s10,-544(s0)
    2ab4:	01ac0d33          	add	s10,s8,s10
    2ab8:	dfa43023          	sd	s10,-544(s0)
    2abc:	f8843c03          	ld	s8,-120(s0)
    2ac0:	2a0c0c03          	lb	s8,672(s8)
    2ac4:	03350db3          	mul	s11,a0,s3
    2ac8:	de843d03          	ld	s10,-536(s0)
    2acc:	01ad8d33          	add	s10,s11,s10
    2ad0:	dfa43423          	sd	s10,-536(s0)
    2ad4:	e7843283          	ld	t0,-392(s0)
    2ad8:	02550533          	mul	a0,a0,t0
    2adc:	df043d03          	ld	s10,-528(s0)
    2ae0:	01a50d33          	add	s10,a0,s10
    2ae4:	dfa43823          	sd	s10,-528(s0)
    2ae8:	025c0533          	mul	a0,s8,t0
    2aec:	e6a43c23          	sd	a0,-392(s0)
    2af0:	033c0533          	mul	a0,s8,s3
    2af4:	eaa43823          	sd	a0,-336(s0)
    2af8:	03ec0533          	mul	a0,s8,t5
    2afc:	eaa43c23          	sd	a0,-328(s0)
    2b00:	036c0533          	mul	a0,s8,s6
    2b04:	f4a43023          	sd	a0,-192(s0)
    2b08:	034c0533          	mul	a0,s8,s4
    2b0c:	000012b7          	lui	t0,0x1
    2b10:	405402b3          	sub	t0,s0,t0
    2b14:	68a2b023          	sd	a0,1664(t0) # 1680 <.LBB71_4+0x480>
    2b18:	02bc0533          	mul	a0,s8,a1
    2b1c:	eea43023          	sd	a0,-288(s0)
    2b20:	029c0533          	mul	a0,s8,s1
    2b24:	eaa43423          	sd	a0,-344(s0)
    2b28:	02cc0533          	mul	a0,s8,a2
    2b2c:	000015b7          	lui	a1,0x1
    2b30:	40b405b3          	sub	a1,s0,a1
    2b34:	66a5bc23          	sd	a0,1656(a1) # 1678 <.LBB71_4+0x478>
    2b38:	02dc0533          	mul	a0,s8,a3
    2b3c:	eea43423          	sd	a0,-280(s0)
    2b40:	02ec0533          	mul	a0,s8,a4
    2b44:	f6a43023          	sd	a0,-160(s0)
    2b48:	031c0533          	mul	a0,s8,a7
    2b4c:	f2a43023          	sd	a0,-224(s0)
    2b50:	037c0533          	mul	a0,s8,s7
    2b54:	f0a43423          	sd	a0,-248(s0)
    2b58:	02fc0b33          	mul	s6,s8,a5
    2b5c:	030c0bb3          	mul	s7,s8,a6
    2b60:	026c0f33          	mul	t5,s8,t1
    2b64:	03dc04b3          	mul	s1,s8,t4
    2b68:	027c02b3          	mul	t0,s8,t2
    2b6c:	03cc0eb3          	mul	t4,s8,t3
    2b70:	03fc08b3          	mul	a7,s8,t6
    2b74:	032c06b3          	mul	a3,s8,s2
    2b78:	f6843503          	ld	a0,-152(s0)
    2b7c:	02ac09b3          	mul	s3,s8,a0
    2b80:	039c0a33          	mul	s4,s8,s9
    2b84:	021c03b3          	mul	t2,s8,ra
    2b88:	ec043503          	ld	a0,-320(s0)
    2b8c:	02ac0d33          	mul	s10,s8,a0
    2b90:	f7043503          	ld	a0,-144(s0)
    2b94:	02ac0db3          	mul	s11,s8,a0
    2b98:	f8043503          	ld	a0,-128(s0)
    2b9c:	02ac0533          	mul	a0,s8,a0
    2ba0:	ed843583          	ld	a1,-296(s0)
    2ba4:	02bc00b3          	mul	ra,s8,a1
    2ba8:	f3043583          	ld	a1,-208(s0)
    2bac:	02bc0633          	mul	a2,s8,a1
    2bb0:	f3843583          	ld	a1,-200(s0)
    2bb4:	02bc0333          	mul	t1,s8,a1
    2bb8:	f7843583          	ld	a1,-136(s0)
    2bbc:	02bc0733          	mul	a4,s8,a1
    2bc0:	ec843583          	ld	a1,-312(s0)
    2bc4:	02bc0833          	mul	a6,s8,a1
    2bc8:	f8843583          	ld	a1,-120(s0)
    2bcc:	00158593          	addi	a1,a1,1
    2bd0:	f8b43423          	sd	a1,-120(s0)
    2bd4:	e1043583          	ld	a1,-496(s0)
    2bd8:	ea043783          	ld	a5,-352(s0)
    2bdc:	02fc0c33          	mul	s8,s8,a5
    2be0:	00bc05b3          	add	a1,s8,a1
    2be4:	e4043c03          	ld	s8,-448(s0)
    2be8:	e0843783          	ld	a5,-504(s0)
    2bec:	00f807b3          	add	a5,a6,a5
    2bf0:	e0f43423          	sd	a5,-504(s0)
    2bf4:	000017b7          	lui	a5,0x1
    2bf8:	40f407b3          	sub	a5,s0,a5
    2bfc:	6707b783          	ld	a5,1648(a5) # 1670 <.LBB71_4+0x470>
    2c00:	e0043803          	ld	a6,-512(s0)
    2c04:	01070833          	add	a6,a4,a6
    2c08:	e1043023          	sd	a6,-512(s0)
    2c0c:	00001737          	lui	a4,0x1
    2c10:	40e40733          	sub	a4,s0,a4
    2c14:	68873703          	ld	a4,1672(a4) # 1688 <.LBB71_4+0x488>
    2c18:	df843803          	ld	a6,-520(s0)
    2c1c:	01030833          	add	a6,t1,a6
    2c20:	df043c23          	sd	a6,-520(s0)
    2c24:	e1843803          	ld	a6,-488(s0)
    2c28:	01060833          	add	a6,a2,a6
    2c2c:	e1043c23          	sd	a6,-488(s0)
    2c30:	00001637          	lui	a2,0x1
    2c34:	40c40633          	sub	a2,s0,a2
    2c38:	69063603          	ld	a2,1680(a2) # 1690 <.LBB71_4+0x490>
    2c3c:	e2043803          	ld	a6,-480(s0)
    2c40:	01008833          	add	a6,ra,a6
    2c44:	e3043023          	sd	a6,-480(s0)
    2c48:	00001837          	lui	a6,0x1
    2c4c:	41040833          	sub	a6,s0,a6
    2c50:	69883083          	ld	ra,1688(a6) # 1698 <.LBB71_4+0x498>
    2c54:	e2843803          	ld	a6,-472(s0)
    2c58:	01050833          	add	a6,a0,a6
    2c5c:	e3043423          	sd	a6,-472(s0)
    2c60:	e3043503          	ld	a0,-464(s0)
    2c64:	00ad8533          	add	a0,s11,a0
    2c68:	e2a43823          	sd	a0,-464(s0)
    2c6c:	00001537          	lui	a0,0x1
    2c70:	40a40533          	sub	a0,s0,a0
    2c74:	6a053d83          	ld	s11,1696(a0) # 16a0 <.LBB71_4+0x4a0>
    2c78:	e3843503          	ld	a0,-456(s0)
    2c7c:	00ad0533          	add	a0,s10,a0
    2c80:	e2a43c23          	sd	a0,-456(s0)
    2c84:	01838c33          	add	s8,t2,s8
    2c88:	00001537          	lui	a0,0x1
    2c8c:	40a40533          	sub	a0,s0,a0
    2c90:	6a853c83          	ld	s9,1704(a0) # 16a8 <.LBB71_4+0x4a8>
    2c94:	e4843503          	ld	a0,-440(s0)
    2c98:	00aa0533          	add	a0,s4,a0
    2c9c:	e4a43423          	sd	a0,-440(s0)
    2ca0:	84043503          	ld	a0,-1984(s0)
    2ca4:	00a98533          	add	a0,s3,a0
    2ca8:	84a43023          	sd	a0,-1984(s0)
    2cac:	be043503          	ld	a0,-1056(s0)
    2cb0:	00a68533          	add	a0,a3,a0
    2cb4:	bea43023          	sd	a0,-1056(s0)
    2cb8:	00001537          	lui	a0,0x1
    2cbc:	40a40533          	sub	a0,s0,a0
    2cc0:	6b053903          	ld	s2,1712(a0) # 16b0 <.LBB71_4+0x4b0>
    2cc4:	bf043503          	ld	a0,-1040(s0)
    2cc8:	00a88533          	add	a0,a7,a0
    2ccc:	bea43823          	sd	a0,-1040(s0)
    2cd0:	00001537          	lui	a0,0x1
    2cd4:	40a40533          	sub	a0,s0,a0
    2cd8:	6c053f83          	ld	t6,1728(a0) # 16c0 <.LBB71_4+0x4c0>
    2cdc:	e5043503          	ld	a0,-432(s0)
    2ce0:	00ae8533          	add	a0,t4,a0
    2ce4:	e4a43823          	sd	a0,-432(s0)
    2ce8:	00001537          	lui	a0,0x1
    2cec:	40a40533          	sub	a0,s0,a0
    2cf0:	6d053e83          	ld	t4,1744(a0) # 16d0 <.LBB71_4+0x4d0>
    2cf4:	e7043503          	ld	a0,-400(s0)
    2cf8:	00a28533          	add	a0,t0,a0
    2cfc:	e6a43823          	sd	a0,-400(s0)
    2d00:	00001537          	lui	a0,0x1
    2d04:	40a40533          	sub	a0,s0,a0
    2d08:	6d853e03          	ld	t3,1752(a0) # 16d8 <.LBB71_4+0x4d8>
    2d0c:	e6843503          	ld	a0,-408(s0)
    2d10:	00a48533          	add	a0,s1,a0
    2d14:	e6a43423          	sd	a0,-408(s0)
    2d18:	00001537          	lui	a0,0x1
    2d1c:	40a40533          	sub	a0,s0,a0
    2d20:	6b853483          	ld	s1,1720(a0) # 16b8 <.LBB71_4+0x4b8>
    2d24:	e5843503          	ld	a0,-424(s0)
    2d28:	00af0533          	add	a0,t5,a0
    2d2c:	e4a43c23          	sd	a0,-424(s0)
    2d30:	00001537          	lui	a0,0x1
    2d34:	40a40533          	sub	a0,s0,a0
    2d38:	6e053383          	ld	t2,1760(a0) # 16e0 <.LBB71_4+0x4e0>
    2d3c:	e6043503          	ld	a0,-416(s0)
    2d40:	00ab8533          	add	a0,s7,a0
    2d44:	e6a43023          	sd	a0,-416(s0)
    2d48:	00001537          	lui	a0,0x1
    2d4c:	40a40533          	sub	a0,s0,a0
    2d50:	6e853303          	ld	t1,1768(a0) # 16e8 <.LBB71_4+0x4e8>
    2d54:	001b00b3          	add	ra,s6,ra
    2d58:	00001537          	lui	a0,0x1
    2d5c:	40a40533          	sub	a0,s0,a0
    2d60:	6c853f03          	ld	t5,1736(a0) # 16c8 <.LBB71_4+0x4c8>
    2d64:	f0843503          	ld	a0,-248(s0)
    2d68:	01b50db3          	add	s11,a0,s11
    2d6c:	f2043503          	ld	a0,-224(s0)
    2d70:	01950cb3          	add	s9,a0,s9
    2d74:	f1043503          	ld	a0,-240(s0)
    2d78:	f6043683          	ld	a3,-160(s0)
    2d7c:	00a68533          	add	a0,a3,a0
    2d80:	f0a43823          	sd	a0,-240(s0)
    2d84:	f1043a03          	ld	s4,-240(s0)
    2d88:	f1843503          	ld	a0,-232(s0)
    2d8c:	ee843683          	ld	a3,-280(s0)
    2d90:	00a68533          	add	a0,a3,a0
    2d94:	f0a43c23          	sd	a0,-232(s0)
    2d98:	f8843503          	ld	a0,-120(s0)
    2d9c:	f1843983          	ld	s3,-232(s0)
    2da0:	000016b7          	lui	a3,0x1
    2da4:	40d406b3          	sub	a3,s0,a3
    2da8:	6786b683          	ld	a3,1656(a3) # 1678 <.LBB71_4+0x478>
    2dac:	01268933          	add	s2,a3,s2
    2db0:	ea843683          	ld	a3,-344(s0)
    2db4:	009684b3          	add	s1,a3,s1
    2db8:	ee043683          	ld	a3,-288(s0)
    2dbc:	01f68fb3          	add	t6,a3,t6
    2dc0:	000016b7          	lui	a3,0x1
    2dc4:	40d406b3          	sub	a3,s0,a3
    2dc8:	6806b683          	ld	a3,1664(a3) # 1680 <.LBB71_4+0x480>
    2dcc:	01e68f33          	add	t5,a3,t5
    2dd0:	f4043683          	ld	a3,-192(s0)
    2dd4:	01d68eb3          	add	t4,a3,t4
    2dd8:	eb843683          	ld	a3,-328(s0)
    2ddc:	01c68e33          	add	t3,a3,t3
    2de0:	eb043683          	ld	a3,-336(s0)
    2de4:	007683b3          	add	t2,a3,t2
    2de8:	e7843683          	ld	a3,-392(s0)
    2dec:	00668333          	add	t1,a3,t1
    2df0:	240a8a93          	addi	s5,s5,576
    2df4:	00f50463          	beq	a0,a5,2dfc <.LBB71_6>
    2df8:	93dfe06f          	j	1734 <.LBB71_5>

0000000000002dfc <.LBB71_6>:
    2dfc:	00070a93          	mv	s5,a4
    2e00:	00001537          	lui	a0,0x1
    2e04:	40a40533          	sub	a0,s0,a0
    2e08:	71053b03          	ld	s6,1808(a0) # 1710 <.LBB71_4+0x510>
    2e0c:	00060d13          	mv	s10,a2
    2e10:	00001537          	lui	a0,0x1
    2e14:	40a40533          	sub	a0,s0,a0
    2e18:	70853283          	ld	t0,1800(a0) # 1708 <.LBB71_4+0x508>
    2e1c:	00001537          	lui	a0,0x1
    2e20:	40a40533          	sub	a0,s0,a0
    2e24:	70053b83          	ld	s7,1792(a0) # 1700 <.LBB71_4+0x500>
    2e28:	00001537          	lui	a0,0x1
    2e2c:	40a40533          	sub	a0,s0,a0
    2e30:	6f853883          	ld	a7,1784(a0) # 16f8 <.LBB71_4+0x4f8>
    2e34:	00001537          	lui	a0,0x1
    2e38:	40a40533          	sub	a0,s0,a0
    2e3c:	6f053803          	ld	a6,1776(a0) # 16f0 <.LBB71_4+0x4f0>
    2e40:	e0b43823          	sd	a1,-496(s0)
    2e44:	00001537          	lui	a0,0x1
    2e48:	40a40533          	sub	a0,s0,a0
    2e4c:	62853503          	ld	a0,1576(a0) # 1628 <.LBB71_4+0x428>
    2e50:	00251513          	slli	a0,a0,0x2
    2e54:	000015b7          	lui	a1,0x1
    2e58:	40b405b3          	sub	a1,s0,a1
    2e5c:	d105b583          	ld	a1,-752(a1) # d10 <.LBB71_3+0xa98>
    2e60:	00a585b3          	add	a1,a1,a0
    2e64:	00c5a783          	lw	a5,12(a1)
    2e68:	00001637          	lui	a2,0x1
    2e6c:	40c40633          	sub	a2,s0,a2
    2e70:	62063603          	ld	a2,1568(a2) # 1620 <.LBB71_4+0x420>
    2e74:	00062603          	lw	a2,0(a2)
    2e78:	000016b7          	lui	a3,0x1
    2e7c:	40d406b3          	sub	a3,s0,a3
    2e80:	d086b683          	ld	a3,-760(a3) # d08 <.LBB71_3+0xa90>
    2e84:	00a68533          	add	a0,a3,a0
    2e88:	00c52683          	lw	a3,12(a0)
    2e8c:	00600713          	li	a4,6
    2e90:	02e60733          	mul	a4,a2,a4
    2e94:	00001637          	lui	a2,0x1
    2e98:	40c40633          	sub	a2,s0,a2
    2e9c:	6cf63423          	sd	a5,1736(a2) # 16c8 <.LBB71_4+0x4c8>
    2ea0:	00001637          	lui	a2,0x1
    2ea4:	40c40633          	sub	a2,s0,a2
    2ea8:	71863603          	ld	a2,1816(a2) # 1718 <.LBB71_4+0x518>
    2eac:	00f60633          	add	a2,a2,a5
    2eb0:	000017b7          	lui	a5,0x1
    2eb4:	40f407b3          	sub	a5,s0,a5
    2eb8:	6cd7b023          	sd	a3,1728(a5) # 16c0 <.LBB71_4+0x4c0>
    2ebc:	00e686b3          	add	a3,a3,a4
    2ec0:	40d6063b          	subw	a2,a2,a3
    2ec4:	2406061b          	addiw	a2,a2,576
    2ec8:	400006b7          	lui	a3,0x40000
    2ecc:	000017b7          	lui	a5,0x1
    2ed0:	40f407b3          	sub	a5,s0,a5
    2ed4:	e4c7bc23          	sd	a2,-424(a5) # e58 <.LBB71_3+0xbe0>
    2ed8:	00065463          	bgez	a2,2ee0 <.LBB71_8>
    2edc:	c00006b7          	lui	a3,0xc0000

0000000000002ee0 <.LBB71_8>:
    2ee0:	00001637          	lui	a2,0x1
    2ee4:	40c40633          	sub	a2,s0,a2
    2ee8:	e2d63c23          	sd	a3,-456(a2) # e38 <.LBB71_3+0xbc0>
    2eec:	0085a603          	lw	a2,8(a1)
    2ef0:	00852683          	lw	a3,8(a0)
    2ef4:	000017b7          	lui	a5,0x1
    2ef8:	40f407b3          	sub	a5,s0,a5
    2efc:	6ac7bc23          	sd	a2,1720(a5) # 16b8 <.LBB71_4+0x4b8>
    2f00:	00ca8633          	add	a2,s5,a2
    2f04:	000017b7          	lui	a5,0x1
    2f08:	40f407b3          	sub	a5,s0,a5
    2f0c:	6ad7b823          	sd	a3,1712(a5) # 16b0 <.LBB71_4+0x4b0>
    2f10:	00e686b3          	add	a3,a3,a4
    2f14:	40d6063b          	subw	a2,a2,a3
    2f18:	2406061b          	addiw	a2,a2,576
    2f1c:	400006b7          	lui	a3,0x40000
    2f20:	000017b7          	lui	a5,0x1
    2f24:	40f407b3          	sub	a5,s0,a5
    2f28:	e6c7b823          	sd	a2,-400(a5) # e70 <.LBB71_3+0xbf8>
    2f2c:	00080793          	mv	a5,a6
    2f30:	00065463          	bgez	a2,2f38 <.LBB71_10>
    2f34:	c00006b7          	lui	a3,0xc0000

0000000000002f38 <.LBB71_10>:
    2f38:	00001637          	lui	a2,0x1
    2f3c:	40c40633          	sub	a2,s0,a2
    2f40:	e4d63823          	sd	a3,-432(a2) # e50 <.LBB71_3+0xbd8>
    2f44:	e5843023          	sd	s8,-448(s0)
    2f48:	0045a603          	lw	a2,4(a1)
    2f4c:	00452683          	lw	a3,4(a0)
    2f50:	00001837          	lui	a6,0x1
    2f54:	41040833          	sub	a6,s0,a6
    2f58:	6ac83423          	sd	a2,1704(a6) # 16a8 <.LBB71_4+0x4a8>
    2f5c:	00cb0633          	add	a2,s6,a2
    2f60:	00001837          	lui	a6,0x1
    2f64:	41040833          	sub	a6,s0,a6
    2f68:	6ad83023          	sd	a3,1696(a6) # 16a0 <.LBB71_4+0x4a0>
    2f6c:	00e686b3          	add	a3,a3,a4
    2f70:	40d6063b          	subw	a2,a2,a3
    2f74:	2406061b          	addiw	a2,a2,576
    2f78:	400006b7          	lui	a3,0x40000
    2f7c:	00001837          	lui	a6,0x1
    2f80:	41040833          	sub	a6,s0,a6
    2f84:	e8c83423          	sd	a2,-376(a6) # e88 <.LBB71_3+0xc10>
    2f88:	000b8813          	mv	a6,s7
    2f8c:	00065463          	bgez	a2,2f94 <.LBB71_12>
    2f90:	c00006b7          	lui	a3,0xc0000

0000000000002f94 <.LBB71_12>:
    2f94:	00001637          	lui	a2,0x1
    2f98:	40c40633          	sub	a2,s0,a2
    2f9c:	e6d63423          	sd	a3,-408(a2) # e68 <.LBB71_3+0xbf0>
    2fa0:	0005a603          	lw	a2,0(a1)
    2fa4:	00052683          	lw	a3,0(a0)
    2fa8:	00001ab7          	lui	s5,0x1
    2fac:	41540ab3          	sub	s5,s0,s5
    2fb0:	68cabc23          	sd	a2,1688(s5) # 1698 <.LBB71_4+0x498>
    2fb4:	00cd0633          	add	a2,s10,a2
    2fb8:	00001ab7          	lui	s5,0x1
    2fbc:	41540ab3          	sub	s5,s0,s5
    2fc0:	68dab823          	sd	a3,1680(s5) # 1690 <.LBB71_4+0x490>
    2fc4:	00e686b3          	add	a3,a3,a4
    2fc8:	40d6063b          	subw	a2,a2,a3
    2fcc:	2406061b          	addiw	a2,a2,576
    2fd0:	400006b7          	lui	a3,0x40000
    2fd4:	00001ab7          	lui	s5,0x1
    2fd8:	41540ab3          	sub	s5,s0,s5
    2fdc:	cc0abc03          	ld	s8,-832(s5) # cc0 <.LBB71_3+0xa48>
    2fe0:	00001ab7          	lui	s5,0x1
    2fe4:	41540ab3          	sub	s5,s0,s5
    2fe8:	618abb83          	ld	s7,1560(s5) # 1618 <.LBB71_4+0x418>
    2fec:	00001ab7          	lui	s5,0x1
    2ff0:	41540ab3          	sub	s5,s0,s5
    2ff4:	e8cabc23          	sd	a2,-360(s5) # e98 <.LBB71_3+0xc20>
    2ff8:	00065463          	bgez	a2,3000 <.LBB71_14>
    2ffc:	c00006b7          	lui	a3,0xc0000

0000000000003000 <.LBB71_14>:
    3000:	00001637          	lui	a2,0x1
    3004:	40c40633          	sub	a2,s0,a2
    3008:	e6d63c23          	sd	a3,-392(a2) # e78 <.LBB71_3+0xc00>
    300c:	0105a603          	lw	a2,16(a1)
    3010:	01052683          	lw	a3,16(a0)
    3014:	00001ab7          	lui	s5,0x1
    3018:	41540ab3          	sub	s5,s0,s5
    301c:	68cab423          	sd	a2,1672(s5) # 1688 <.LBB71_4+0x488>
    3020:	00c28633          	add	a2,t0,a2
    3024:	000012b7          	lui	t0,0x1
    3028:	405402b3          	sub	t0,s0,t0
    302c:	68d2b023          	sd	a3,1664(t0) # 1680 <.LBB71_4+0x480>
    3030:	00e686b3          	add	a3,a3,a4
    3034:	40d6063b          	subw	a2,a2,a3
    3038:	2406061b          	addiw	a2,a2,576
    303c:	400006b7          	lui	a3,0x40000
    3040:	000012b7          	lui	t0,0x1
    3044:	405402b3          	sub	t0,s0,t0
    3048:	eac2b823          	sd	a2,-336(t0) # eb0 <.LBB71_3+0xc38>
    304c:	00065463          	bgez	a2,3054 <.LBB71_16>
    3050:	c00006b7          	lui	a3,0xc0000

0000000000003054 <.LBB71_16>:
    3054:	00001637          	lui	a2,0x1
    3058:	40c40633          	sub	a2,s0,a2
    305c:	e8d63823          	sd	a3,-368(a2) # e90 <.LBB71_3+0xc18>
    3060:	0145a603          	lw	a2,20(a1)
    3064:	01452683          	lw	a3,20(a0)
    3068:	000012b7          	lui	t0,0x1
    306c:	405402b3          	sub	t0,s0,t0
    3070:	66c2bc23          	sd	a2,1656(t0) # 1678 <.LBB71_4+0x478>
    3074:	000012b7          	lui	t0,0x1
    3078:	405402b3          	sub	t0,s0,t0
    307c:	7202b283          	ld	t0,1824(t0) # 1720 <.LBB71_4+0x520>
    3080:	00c28633          	add	a2,t0,a2
    3084:	000012b7          	lui	t0,0x1
    3088:	405402b3          	sub	t0,s0,t0
    308c:	66d2b423          	sd	a3,1640(t0) # 1668 <.LBB71_4+0x468>
    3090:	00e686b3          	add	a3,a3,a4
    3094:	40d6063b          	subw	a2,a2,a3
    3098:	2406061b          	addiw	a2,a2,576
    309c:	400006b7          	lui	a3,0x40000
    30a0:	000012b7          	lui	t0,0x1
    30a4:	405402b3          	sub	t0,s0,t0
    30a8:	ecc2b423          	sd	a2,-312(t0) # ec8 <.LBB71_3+0xc50>
    30ac:	00065463          	bgez	a2,30b4 <.LBB71_18>
    30b0:	c00006b7          	lui	a3,0xc0000

00000000000030b4 <.LBB71_18>:
    30b4:	00001637          	lui	a2,0x1
    30b8:	40c40633          	sub	a2,s0,a2
    30bc:	ead63423          	sd	a3,-344(a2) # ea8 <.LBB71_3+0xc30>
    30c0:	0185a603          	lw	a2,24(a1)
    30c4:	01852683          	lw	a3,24(a0)
    30c8:	000012b7          	lui	t0,0x1
    30cc:	405402b3          	sub	t0,s0,t0
    30d0:	66c2b023          	sd	a2,1632(t0) # 1660 <.LBB71_4+0x460>
    30d4:	000012b7          	lui	t0,0x1
    30d8:	405402b3          	sub	t0,s0,t0
    30dc:	7282b283          	ld	t0,1832(t0) # 1728 <.LBB71_4+0x528>
    30e0:	00c28633          	add	a2,t0,a2
    30e4:	000012b7          	lui	t0,0x1
    30e8:	405402b3          	sub	t0,s0,t0
    30ec:	64d2bc23          	sd	a3,1624(t0) # 1658 <.LBB71_4+0x458>
    30f0:	00e686b3          	add	a3,a3,a4
    30f4:	40d6063b          	subw	a2,a2,a3
    30f8:	2406061b          	addiw	a2,a2,576
    30fc:	400006b7          	lui	a3,0x40000
    3100:	000012b7          	lui	t0,0x1
    3104:	405402b3          	sub	t0,s0,t0
    3108:	ecc2bc23          	sd	a2,-296(t0) # ed8 <.LBB71_3+0xc60>
    310c:	00065463          	bgez	a2,3114 <.LBB71_20>
    3110:	c00006b7          	lui	a3,0xc0000

0000000000003114 <.LBB71_20>:
    3114:	00001637          	lui	a2,0x1
    3118:	40c40633          	sub	a2,s0,a2
    311c:	ead63c23          	sd	a3,-328(a2) # eb8 <.LBB71_3+0xc40>
    3120:	01c5a603          	lw	a2,28(a1)
    3124:	01c52683          	lw	a3,28(a0)
    3128:	000012b7          	lui	t0,0x1
    312c:	405402b3          	sub	t0,s0,t0
    3130:	64c2b823          	sd	a2,1616(t0) # 1650 <.LBB71_4+0x450>
    3134:	00c80633          	add	a2,a6,a2
    3138:	00001837          	lui	a6,0x1
    313c:	41040833          	sub	a6,s0,a6
    3140:	64d83423          	sd	a3,1608(a6) # 1648 <.LBB71_4+0x448>
    3144:	00e686b3          	add	a3,a3,a4
    3148:	40d6063b          	subw	a2,a2,a3
    314c:	2406061b          	addiw	a2,a2,576
    3150:	400006b7          	lui	a3,0x40000
    3154:	00001837          	lui	a6,0x1
    3158:	41040833          	sub	a6,s0,a6
    315c:	eec83823          	sd	a2,-272(a6) # ef0 <.LBB71_3+0xc78>
    3160:	00065463          	bgez	a2,3168 <.LBB71_22>
    3164:	c00006b7          	lui	a3,0xc0000

0000000000003168 <.LBB71_22>:
    3168:	00001637          	lui	a2,0x1
    316c:	40c40633          	sub	a2,s0,a2
    3170:	ecd63823          	sd	a3,-304(a2) # ed0 <.LBB71_3+0xc58>
    3174:	0205a603          	lw	a2,32(a1)
    3178:	02052683          	lw	a3,32(a0)
    317c:	00001837          	lui	a6,0x1
    3180:	41040833          	sub	a6,s0,a6
    3184:	64c83023          	sd	a2,1600(a6) # 1640 <.LBB71_4+0x440>
    3188:	00c88633          	add	a2,a7,a2
    318c:	00001837          	lui	a6,0x1
    3190:	41040833          	sub	a6,s0,a6
    3194:	62d83c23          	sd	a3,1592(a6) # 1638 <.LBB71_4+0x438>
    3198:	00e686b3          	add	a3,a3,a4
    319c:	40d6063b          	subw	a2,a2,a3
    31a0:	2406061b          	addiw	a2,a2,576
    31a4:	400006b7          	lui	a3,0x40000
    31a8:	00001837          	lui	a6,0x1
    31ac:	41040833          	sub	a6,s0,a6
    31b0:	f0c83023          	sd	a2,-256(a6) # f00 <.LBB71_3+0xc88>
    31b4:	00065463          	bgez	a2,31bc <.LBB71_24>
    31b8:	c00006b7          	lui	a3,0xc0000

00000000000031bc <.LBB71_24>:
    31bc:	00001637          	lui	a2,0x1
    31c0:	40c40633          	sub	a2,s0,a2
    31c4:	eed63423          	sd	a3,-280(a2) # ee8 <.LBB71_3+0xc70>
    31c8:	0245a803          	lw	a6,36(a1)
    31cc:	0285a603          	lw	a2,40(a1)
    31d0:	000016b7          	lui	a3,0x1
    31d4:	40d406b3          	sub	a3,s0,a3
    31d8:	6ec6bc23          	sd	a2,1784(a3) # 16f8 <.LBB71_4+0x4f8>
    31dc:	02c5a603          	lw	a2,44(a1)
    31e0:	000016b7          	lui	a3,0x1
    31e4:	40d406b3          	sub	a3,s0,a3
    31e8:	70c6b423          	sd	a2,1800(a3) # 1708 <.LBB71_4+0x508>
    31ec:	0305a603          	lw	a2,48(a1)
    31f0:	000016b7          	lui	a3,0x1
    31f4:	40d406b3          	sub	a3,s0,a3
    31f8:	70c6bc23          	sd	a2,1816(a3) # 1718 <.LBB71_4+0x518>
    31fc:	0345a603          	lw	a2,52(a1)
    3200:	000016b7          	lui	a3,0x1
    3204:	40d406b3          	sub	a3,s0,a3
    3208:	72c6b423          	sd	a2,1832(a3) # 1728 <.LBB71_4+0x528>
    320c:	0385a603          	lw	a2,56(a1)
    3210:	e8c43023          	sd	a2,-384(s0)
    3214:	03c5a603          	lw	a2,60(a1)
    3218:	e8c43823          	sd	a2,-368(s0)
    321c:	0405a603          	lw	a2,64(a1)
    3220:	eac43023          	sd	a2,-352(s0)
    3224:	0445a603          	lw	a2,68(a1)
    3228:	eac43823          	sd	a2,-336(s0)
    322c:	0485a603          	lw	a2,72(a1)
    3230:	ecc43023          	sd	a2,-320(s0)
    3234:	04c5a603          	lw	a2,76(a1)
    3238:	ecc43823          	sd	a2,-304(s0)
    323c:	0505a603          	lw	a2,80(a1)
    3240:	eec43023          	sd	a2,-288(s0)
    3244:	0545a603          	lw	a2,84(a1)
    3248:	eec43823          	sd	a2,-272(s0)
    324c:	0585a603          	lw	a2,88(a1)
    3250:	f0c43023          	sd	a2,-256(s0)
    3254:	05c5a603          	lw	a2,92(a1)
    3258:	f2c43023          	sd	a2,-224(s0)
    325c:	0605a603          	lw	a2,96(a1)
    3260:	f2c43823          	sd	a2,-208(s0)
    3264:	0645a603          	lw	a2,100(a1)
    3268:	f4c43023          	sd	a2,-192(s0)
    326c:	0685a603          	lw	a2,104(a1)
    3270:	f4c43823          	sd	a2,-176(s0)
    3274:	06c5a603          	lw	a2,108(a1)
    3278:	f6c43023          	sd	a2,-160(s0)
    327c:	0705a603          	lw	a2,112(a1)
    3280:	f6c43823          	sd	a2,-144(s0)
    3284:	0745a603          	lw	a2,116(a1)
    3288:	f6c43c23          	sd	a2,-136(s0)
    328c:	0785a603          	lw	a2,120(a1)
    3290:	f8c43023          	sd	a2,-128(s0)
    3294:	07c5a583          	lw	a1,124(a1)
    3298:	f8b43423          	sd	a1,-120(s0)
    329c:	02452603          	lw	a2,36(a0)
    32a0:	02852583          	lw	a1,40(a0)
    32a4:	000016b7          	lui	a3,0x1
    32a8:	40d406b3          	sub	a3,s0,a3
    32ac:	6cb6b823          	sd	a1,1744(a3) # 16d0 <.LBB71_4+0x4d0>
    32b0:	02c52583          	lw	a1,44(a0)
    32b4:	000016b7          	lui	a3,0x1
    32b8:	40d406b3          	sub	a3,s0,a3
    32bc:	6cb6bc23          	sd	a1,1752(a3) # 16d8 <.LBB71_4+0x4d8>
    32c0:	03052583          	lw	a1,48(a0)
    32c4:	000016b7          	lui	a3,0x1
    32c8:	40d406b3          	sub	a3,s0,a3
    32cc:	6eb6b023          	sd	a1,1760(a3) # 16e0 <.LBB71_4+0x4e0>
    32d0:	03452583          	lw	a1,52(a0)
    32d4:	000016b7          	lui	a3,0x1
    32d8:	40d406b3          	sub	a3,s0,a3
    32dc:	6eb6b423          	sd	a1,1768(a3) # 16e8 <.LBB71_4+0x4e8>
    32e0:	03852583          	lw	a1,56(a0)
    32e4:	000016b7          	lui	a3,0x1
    32e8:	40d406b3          	sub	a3,s0,a3
    32ec:	70b6b023          	sd	a1,1792(a3) # 1700 <.LBB71_4+0x500>
    32f0:	03c52583          	lw	a1,60(a0)
    32f4:	000016b7          	lui	a3,0x1
    32f8:	40d406b3          	sub	a3,s0,a3
    32fc:	70b6b823          	sd	a1,1808(a3) # 1710 <.LBB71_4+0x510>
    3300:	04052583          	lw	a1,64(a0)
    3304:	000016b7          	lui	a3,0x1
    3308:	40d406b3          	sub	a3,s0,a3
    330c:	72b6b023          	sd	a1,1824(a3) # 1720 <.LBB71_4+0x520>
    3310:	04452583          	lw	a1,68(a0)
    3314:	e6b43c23          	sd	a1,-392(s0)
    3318:	04852583          	lw	a1,72(a0)
    331c:	e8b43423          	sd	a1,-376(s0)
    3320:	04c52583          	lw	a1,76(a0)
    3324:	e8b43c23          	sd	a1,-360(s0)
    3328:	05052583          	lw	a1,80(a0)
    332c:	eab43423          	sd	a1,-344(s0)
    3330:	05452583          	lw	a1,84(a0)
    3334:	eab43c23          	sd	a1,-328(s0)
    3338:	05852583          	lw	a1,88(a0)
    333c:	ecb43423          	sd	a1,-312(s0)
    3340:	05c52583          	lw	a1,92(a0)
    3344:	ecb43c23          	sd	a1,-296(s0)
    3348:	06052583          	lw	a1,96(a0)
    334c:	eeb43423          	sd	a1,-280(s0)
    3350:	06452583          	lw	a1,100(a0)
    3354:	eeb43c23          	sd	a1,-264(s0)
    3358:	06852583          	lw	a1,104(a0)
    335c:	f0b43423          	sd	a1,-248(s0)
    3360:	06c52583          	lw	a1,108(a0)
    3364:	f2b43423          	sd	a1,-216(s0)
    3368:	07052583          	lw	a1,112(a0)
    336c:	f2b43c23          	sd	a1,-200(s0)
    3370:	07452583          	lw	a1,116(a0)
    3374:	f4b43423          	sd	a1,-184(s0)
    3378:	07852583          	lw	a1,120(a0)
    337c:	f4b43c23          	sd	a1,-168(s0)
    3380:	07c52503          	lw	a0,124(a0)
    3384:	f6a43423          	sd	a0,-152(s0)
    3388:	00001537          	lui	a0,0x1
    338c:	40a40533          	sub	a0,s0,a0
    3390:	63053823          	sd	a6,1584(a0) # 1630 <.LBB71_4+0x430>
    3394:	01078833          	add	a6,a5,a6
    3398:	00001537          	lui	a0,0x1
    339c:	40a40533          	sub	a0,s0,a0
    33a0:	62053883          	ld	a7,1568(a0) # 1620 <.LBB71_4+0x420>
    33a4:	0048a783          	lw	a5,4(a7)
    33a8:	0088a683          	lw	a3,8(a7)
    33ac:	00c8a503          	lw	a0,12(a7)
    33b0:	0108a583          	lw	a1,16(a7)
    33b4:	000012b7          	lui	t0,0x1
    33b8:	405402b3          	sub	t0,s0,t0
    33bc:	60b2b423          	sd	a1,1544(t0) # 1608 <.LBB71_4+0x408>
    33c0:	0148a583          	lw	a1,20(a7)
    33c4:	000012b7          	lui	t0,0x1
    33c8:	405402b3          	sub	t0,s0,t0
    33cc:	d2b2b023          	sd	a1,-736(t0) # d20 <.LBB71_3+0xaa8>
    33d0:	0188a583          	lw	a1,24(a7)
    33d4:	000012b7          	lui	t0,0x1
    33d8:	405402b3          	sub	t0,s0,t0
    33dc:	d2b2b423          	sd	a1,-728(t0) # d28 <.LBB71_3+0xab0>
    33e0:	01c8a883          	lw	a7,28(a7)
    33e4:	000015b7          	lui	a1,0x1
    33e8:	40b405b3          	sub	a1,s0,a1
    33ec:	d315b823          	sd	a7,-720(a1) # d30 <.LBB71_3+0xab8>
    33f0:	000015b7          	lui	a1,0x1
    33f4:	40b405b3          	sub	a1,s0,a1
    33f8:	6ec5b823          	sd	a2,1776(a1) # 16f0 <.LBB71_4+0x4f0>
    33fc:	00e608b3          	add	a7,a2,a4
    3400:	4118083b          	subw	a6,a6,a7
    3404:	2408081b          	addiw	a6,a6,576
    3408:	400008b7          	lui	a7,0x40000
    340c:	000015b7          	lui	a1,0x1
    3410:	40b405b3          	sub	a1,s0,a1
    3414:	d505b023          	sd	a6,-704(a1) # d40 <.LBB71_3+0xac8>
    3418:	00085463          	bgez	a6,3420 <.LBB71_26>
    341c:	c00008b7          	lui	a7,0xc0000

0000000000003420 <.LBB71_26>:
    3420:	000015b7          	lui	a1,0x1
    3424:	40b405b3          	sub	a1,s0,a1
    3428:	d315bc23          	sd	a7,-712(a1) # d38 <.LBB71_3+0xac0>
    342c:	000015b7          	lui	a1,0x1
    3430:	40b405b3          	sub	a1,s0,a1
    3434:	6f85b803          	ld	a6,1784(a1) # 16f8 <.LBB71_4+0x4f8>
    3438:	000015b7          	lui	a1,0x1
    343c:	40b405b3          	sub	a1,s0,a1
    3440:	7485b583          	ld	a1,1864(a1) # 1748 <.LBB71_5+0x14>
    3444:	01058833          	add	a6,a1,a6
    3448:	000015b7          	lui	a1,0x1
    344c:	40b405b3          	sub	a1,s0,a1
    3450:	6d05b883          	ld	a7,1744(a1) # 16d0 <.LBB71_4+0x4d0>
    3454:	00e888b3          	add	a7,a7,a4
    3458:	4118083b          	subw	a6,a6,a7
    345c:	2408081b          	addiw	a6,a6,576
    3460:	400008b7          	lui	a7,0x40000
    3464:	000015b7          	lui	a1,0x1
    3468:	40b405b3          	sub	a1,s0,a1
    346c:	d505b823          	sd	a6,-688(a1) # d50 <.LBB71_3+0xad8>
    3470:	000015b7          	lui	a1,0x1
    3474:	40b405b3          	sub	a1,s0,a1
    3478:	7305b603          	ld	a2,1840(a1) # 1730 <.LBB71_4+0x530>
    347c:	000015b7          	lui	a1,0x1
    3480:	40b405b3          	sub	a1,s0,a1
    3484:	7405b583          	ld	a1,1856(a1) # 1740 <.LBB71_5+0xc>
    3488:	00085463          	bgez	a6,3490 <.LBB71_28>
    348c:	c00008b7          	lui	a7,0xc0000

0000000000003490 <.LBB71_28>:
    3490:	00001837          	lui	a6,0x1
    3494:	41040833          	sub	a6,s0,a6
    3498:	d5183423          	sd	a7,-696(a6) # d48 <.LBB71_3+0xad0>
    349c:	00001837          	lui	a6,0x1
    34a0:	41040833          	sub	a6,s0,a6
    34a4:	70883803          	ld	a6,1800(a6) # 1708 <.LBB71_4+0x508>
    34a8:	000018b7          	lui	a7,0x1
    34ac:	411408b3          	sub	a7,s0,a7
    34b0:	7588b883          	ld	a7,1880(a7) # 1758 <.LBB71_5+0x24>
    34b4:	01088833          	add	a6,a7,a6
    34b8:	000018b7          	lui	a7,0x1
    34bc:	411408b3          	sub	a7,s0,a7
    34c0:	6d88b883          	ld	a7,1752(a7) # 16d8 <.LBB71_4+0x4d8>
    34c4:	00e888b3          	add	a7,a7,a4
    34c8:	4118083b          	subw	a6,a6,a7
    34cc:	2408081b          	addiw	a6,a6,576
    34d0:	400008b7          	lui	a7,0x40000
    34d4:	000012b7          	lui	t0,0x1
    34d8:	405402b3          	sub	t0,s0,t0
    34dc:	d702b023          	sd	a6,-672(t0) # d60 <.LBB71_3+0xae8>
    34e0:	000012b7          	lui	t0,0x1
    34e4:	405402b3          	sub	t0,s0,t0
    34e8:	7382bd03          	ld	s10,1848(t0) # 1738 <.LBB71_5+0x4>
    34ec:	000012b7          	lui	t0,0x1
    34f0:	405402b3          	sub	t0,s0,t0
    34f4:	7682ba83          	ld	s5,1896(t0) # 1768 <.LBB71_5+0x34>
    34f8:	00085463          	bgez	a6,3500 <.LBB71_30>
    34fc:	c00008b7          	lui	a7,0xc0000

0000000000003500 <.LBB71_30>:
    3500:	00001837          	lui	a6,0x1
    3504:	41040833          	sub	a6,s0,a6
    3508:	d5183c23          	sd	a7,-680(a6) # d58 <.LBB71_3+0xae0>
    350c:	00001837          	lui	a6,0x1
    3510:	41040833          	sub	a6,s0,a6
    3514:	71883803          	ld	a6,1816(a6) # 1718 <.LBB71_4+0x518>
    3518:	000018b7          	lui	a7,0x1
    351c:	411408b3          	sub	a7,s0,a7
    3520:	7608b883          	ld	a7,1888(a7) # 1760 <.LBB71_5+0x2c>
    3524:	01088833          	add	a6,a7,a6
    3528:	000018b7          	lui	a7,0x1
    352c:	411408b3          	sub	a7,s0,a7
    3530:	6e08b883          	ld	a7,1760(a7) # 16e0 <.LBB71_4+0x4e0>
    3534:	00e888b3          	add	a7,a7,a4
    3538:	4118083b          	subw	a6,a6,a7
    353c:	2408081b          	addiw	a6,a6,576
    3540:	400008b7          	lui	a7,0x40000
    3544:	000012b7          	lui	t0,0x1
    3548:	405402b3          	sub	t0,s0,t0
    354c:	d702b823          	sd	a6,-656(t0) # d70 <.LBB71_3+0xaf8>
    3550:	000012b7          	lui	t0,0x1
    3554:	405402b3          	sub	t0,s0,t0
    3558:	7502b283          	ld	t0,1872(t0) # 1750 <.LBB71_5+0x1c>
    355c:	00085463          	bgez	a6,3564 <.LBB71_32>
    3560:	c00008b7          	lui	a7,0xc0000

0000000000003564 <.LBB71_32>:
    3564:	00001837          	lui	a6,0x1
    3568:	41040833          	sub	a6,s0,a6
    356c:	d7183423          	sd	a7,-664(a6) # d68 <.LBB71_3+0xaf0>
    3570:	00001837          	lui	a6,0x1
    3574:	41040833          	sub	a6,s0,a6
    3578:	72883803          	ld	a6,1832(a6) # 1728 <.LBB71_4+0x528>
    357c:	010a8833          	add	a6,s5,a6
    3580:	000018b7          	lui	a7,0x1
    3584:	411408b3          	sub	a7,s0,a7
    3588:	6e88b883          	ld	a7,1768(a7) # 16e8 <.LBB71_4+0x4e8>
    358c:	00e888b3          	add	a7,a7,a4
    3590:	4118083b          	subw	a6,a6,a7
    3594:	2408081b          	addiw	a6,a6,576
    3598:	400008b7          	lui	a7,0x40000
    359c:	00001ab7          	lui	s5,0x1
    35a0:	41540ab3          	sub	s5,s0,s5
    35a4:	d90ab023          	sd	a6,-640(s5) # d80 <.LBB71_3+0xb08>
    35a8:	00001ab7          	lui	s5,0x1
    35ac:	41540ab3          	sub	s5,s0,s5
    35b0:	788abb03          	ld	s6,1928(s5) # 1788 <.LBB71_5+0x54>
    35b4:	00001ab7          	lui	s5,0x1
    35b8:	41540ab3          	sub	s5,s0,s5
    35bc:	7f8aba83          	ld	s5,2040(s5) # 17f8 <.LBB71_5+0xc4>
    35c0:	00085463          	bgez	a6,35c8 <.LBB71_34>
    35c4:	c00008b7          	lui	a7,0xc0000

00000000000035c8 <.LBB71_34>:
    35c8:	f8a43823          	sd	a0,-112(s0)
    35cc:	00001537          	lui	a0,0x1
    35d0:	40a40533          	sub	a0,s0,a0
    35d4:	d7153c23          	sd	a7,-648(a0) # d78 <.LBB71_3+0xb00>
    35d8:	e8043803          	ld	a6,-384(s0)
    35dc:	00001537          	lui	a0,0x1
    35e0:	40a40533          	sub	a0,s0,a0
    35e4:	77053883          	ld	a7,1904(a0) # 1770 <.LBB71_5+0x3c>
    35e8:	01088833          	add	a6,a7,a6
    35ec:	00001537          	lui	a0,0x1
    35f0:	40a40533          	sub	a0,s0,a0
    35f4:	70053883          	ld	a7,1792(a0) # 1700 <.LBB71_4+0x500>
    35f8:	00e888b3          	add	a7,a7,a4
    35fc:	4118083b          	subw	a6,a6,a7
    3600:	2408081b          	addiw	a6,a6,576
    3604:	400008b7          	lui	a7,0x40000
    3608:	00001537          	lui	a0,0x1
    360c:	40a40533          	sub	a0,s0,a0
    3610:	d9053823          	sd	a6,-624(a0) # d90 <.LBB71_3+0xb18>
    3614:	f9043503          	ld	a0,-112(s0)
    3618:	00085463          	bgez	a6,3620 <.LBB71_36>
    361c:	c00008b7          	lui	a7,0xc0000

0000000000003620 <.LBB71_36>:
    3620:	f8a43823          	sd	a0,-112(s0)
    3624:	00001537          	lui	a0,0x1
    3628:	40a40533          	sub	a0,s0,a0
    362c:	d9153423          	sd	a7,-632(a0) # d88 <.LBB71_3+0xb10>
    3630:	e9043803          	ld	a6,-368(s0)
    3634:	00001537          	lui	a0,0x1
    3638:	40a40533          	sub	a0,s0,a0
    363c:	77853883          	ld	a7,1912(a0) # 1778 <.LBB71_5+0x44>
    3640:	01088833          	add	a6,a7,a6
    3644:	00001537          	lui	a0,0x1
    3648:	40a40533          	sub	a0,s0,a0
    364c:	71053883          	ld	a7,1808(a0) # 1710 <.LBB71_4+0x510>
    3650:	00e888b3          	add	a7,a7,a4
    3654:	4118083b          	subw	a6,a6,a7
    3658:	2408081b          	addiw	a6,a6,576
    365c:	400008b7          	lui	a7,0x40000
    3660:	00001537          	lui	a0,0x1
    3664:	40a40533          	sub	a0,s0,a0
    3668:	db053023          	sd	a6,-608(a0) # da0 <.LBB71_3+0xb28>
    366c:	f9043503          	ld	a0,-112(s0)
    3670:	00085463          	bgez	a6,3678 <.LBB71_38>
    3674:	c00008b7          	lui	a7,0xc0000

0000000000003678 <.LBB71_38>:
    3678:	f8a43823          	sd	a0,-112(s0)
    367c:	00001537          	lui	a0,0x1
    3680:	40a40533          	sub	a0,s0,a0
    3684:	d9153c23          	sd	a7,-616(a0) # d98 <.LBB71_3+0xb20>
    3688:	ea043803          	ld	a6,-352(s0)
    368c:	00001537          	lui	a0,0x1
    3690:	40a40533          	sub	a0,s0,a0
    3694:	78053883          	ld	a7,1920(a0) # 1780 <.LBB71_5+0x4c>
    3698:	01088833          	add	a6,a7,a6
    369c:	00001537          	lui	a0,0x1
    36a0:	40a40533          	sub	a0,s0,a0
    36a4:	72053883          	ld	a7,1824(a0) # 1720 <.LBB71_4+0x520>
    36a8:	00e888b3          	add	a7,a7,a4
    36ac:	4118083b          	subw	a6,a6,a7
    36b0:	2408081b          	addiw	a6,a6,576
    36b4:	400008b7          	lui	a7,0x40000
    36b8:	00001537          	lui	a0,0x1
    36bc:	40a40533          	sub	a0,s0,a0
    36c0:	db053823          	sd	a6,-592(a0) # db0 <.LBB71_3+0xb38>
    36c4:	f9043503          	ld	a0,-112(s0)
    36c8:	00085463          	bgez	a6,36d0 <.LBB71_40>
    36cc:	c00008b7          	lui	a7,0xc0000

00000000000036d0 <.LBB71_40>:
    36d0:	00001837          	lui	a6,0x1
    36d4:	41040833          	sub	a6,s0,a6
    36d8:	db183423          	sd	a7,-600(a6) # da8 <.LBB71_3+0xb30>
    36dc:	eb043803          	ld	a6,-336(s0)
    36e0:	01058833          	add	a6,a1,a6
    36e4:	e7843883          	ld	a7,-392(s0)
    36e8:	00e888b3          	add	a7,a7,a4
    36ec:	4118083b          	subw	a6,a6,a7
    36f0:	2408081b          	addiw	a6,a6,576
    36f4:	400008b7          	lui	a7,0x40000
    36f8:	000015b7          	lui	a1,0x1
    36fc:	40b405b3          	sub	a1,s0,a1
    3700:	dd05b023          	sd	a6,-576(a1) # dc0 <.LBB71_3+0xb48>
    3704:	00085463          	bgez	a6,370c <.LBB71_42>
    3708:	c00008b7          	lui	a7,0xc0000

000000000000370c <.LBB71_42>:
    370c:	000015b7          	lui	a1,0x1
    3710:	40b405b3          	sub	a1,s0,a1
    3714:	db15bc23          	sd	a7,-584(a1) # db8 <.LBB71_3+0xb40>
    3718:	ec043803          	ld	a6,-320(s0)
    371c:	000015b7          	lui	a1,0x1
    3720:	40b405b3          	sub	a1,s0,a1
    3724:	7905b883          	ld	a7,1936(a1) # 1790 <.LBB71_5+0x5c>
    3728:	01088833          	add	a6,a7,a6
    372c:	e8843883          	ld	a7,-376(s0)
    3730:	00e888b3          	add	a7,a7,a4
    3734:	4118083b          	subw	a6,a6,a7
    3738:	2408081b          	addiw	a6,a6,576
    373c:	400008b7          	lui	a7,0x40000
    3740:	000015b7          	lui	a1,0x1
    3744:	40b405b3          	sub	a1,s0,a1
    3748:	dd05b823          	sd	a6,-560(a1) # dd0 <.LBB71_3+0xb58>
    374c:	00085463          	bgez	a6,3754 <.LBB71_44>
    3750:	c00008b7          	lui	a7,0xc0000

0000000000003754 <.LBB71_44>:
    3754:	000015b7          	lui	a1,0x1
    3758:	40b405b3          	sub	a1,s0,a1
    375c:	dd15b423          	sd	a7,-568(a1) # dc8 <.LBB71_3+0xb50>
    3760:	ed043803          	ld	a6,-304(s0)
    3764:	000015b7          	lui	a1,0x1
    3768:	40b405b3          	sub	a1,s0,a1
    376c:	7985b883          	ld	a7,1944(a1) # 1798 <.LBB71_5+0x64>
    3770:	01088833          	add	a6,a7,a6
    3774:	e9843883          	ld	a7,-360(s0)
    3778:	00e888b3          	add	a7,a7,a4
    377c:	4118083b          	subw	a6,a6,a7
    3780:	2408081b          	addiw	a6,a6,576
    3784:	400008b7          	lui	a7,0x40000
    3788:	000015b7          	lui	a1,0x1
    378c:	40b405b3          	sub	a1,s0,a1
    3790:	df05b023          	sd	a6,-544(a1) # de0 <.LBB71_3+0xb68>
    3794:	00085463          	bgez	a6,379c <.LBB71_46>
    3798:	c00008b7          	lui	a7,0xc0000

000000000000379c <.LBB71_46>:
    379c:	000015b7          	lui	a1,0x1
    37a0:	40b405b3          	sub	a1,s0,a1
    37a4:	dd15bc23          	sd	a7,-552(a1) # dd8 <.LBB71_3+0xb60>
    37a8:	ee043803          	ld	a6,-288(s0)
    37ac:	000015b7          	lui	a1,0x1
    37b0:	40b405b3          	sub	a1,s0,a1
    37b4:	7a05b883          	ld	a7,1952(a1) # 17a0 <.LBB71_5+0x6c>
    37b8:	01088833          	add	a6,a7,a6
    37bc:	ea843883          	ld	a7,-344(s0)
    37c0:	00e888b3          	add	a7,a7,a4
    37c4:	4118083b          	subw	a6,a6,a7
    37c8:	2408081b          	addiw	a6,a6,576
    37cc:	400008b7          	lui	a7,0x40000
    37d0:	000015b7          	lui	a1,0x1
    37d4:	40b405b3          	sub	a1,s0,a1
    37d8:	df05b823          	sd	a6,-528(a1) # df0 <.LBB71_3+0xb78>
    37dc:	00085463          	bgez	a6,37e4 <.LBB71_48>
    37e0:	c00008b7          	lui	a7,0xc0000

00000000000037e4 <.LBB71_48>:
    37e4:	000015b7          	lui	a1,0x1
    37e8:	40b405b3          	sub	a1,s0,a1
    37ec:	df15b423          	sd	a7,-536(a1) # de8 <.LBB71_3+0xb70>
    37f0:	ef043803          	ld	a6,-272(s0)
    37f4:	000015b7          	lui	a1,0x1
    37f8:	40b405b3          	sub	a1,s0,a1
    37fc:	7a85b883          	ld	a7,1960(a1) # 17a8 <.LBB71_5+0x74>
    3800:	01088833          	add	a6,a7,a6
    3804:	eb843883          	ld	a7,-328(s0)
    3808:	00e888b3          	add	a7,a7,a4
    380c:	4118083b          	subw	a6,a6,a7
    3810:	2408081b          	addiw	a6,a6,576
    3814:	400008b7          	lui	a7,0x40000
    3818:	000015b7          	lui	a1,0x1
    381c:	40b405b3          	sub	a1,s0,a1
    3820:	e105b023          	sd	a6,-512(a1) # e00 <.LBB71_3+0xb88>
    3824:	00085463          	bgez	a6,382c <.LBB71_50>
    3828:	c00008b7          	lui	a7,0xc0000

000000000000382c <.LBB71_50>:
    382c:	000015b7          	lui	a1,0x1
    3830:	40b405b3          	sub	a1,s0,a1
    3834:	df15bc23          	sd	a7,-520(a1) # df8 <.LBB71_3+0xb80>
    3838:	f0043803          	ld	a6,-256(s0)
    383c:	000015b7          	lui	a1,0x1
    3840:	40b405b3          	sub	a1,s0,a1
    3844:	7b05b883          	ld	a7,1968(a1) # 17b0 <.LBB71_5+0x7c>
    3848:	01088833          	add	a6,a7,a6
    384c:	ec843883          	ld	a7,-312(s0)
    3850:	00e888b3          	add	a7,a7,a4
    3854:	4118083b          	subw	a6,a6,a7
    3858:	2408081b          	addiw	a6,a6,576
    385c:	400008b7          	lui	a7,0x40000
    3860:	000015b7          	lui	a1,0x1
    3864:	40b405b3          	sub	a1,s0,a1
    3868:	e105b823          	sd	a6,-496(a1) # e10 <.LBB71_3+0xb98>
    386c:	00085463          	bgez	a6,3874 <.LBB71_52>
    3870:	c00008b7          	lui	a7,0xc0000

0000000000003874 <.LBB71_52>:
    3874:	000015b7          	lui	a1,0x1
    3878:	40b405b3          	sub	a1,s0,a1
    387c:	e115b423          	sd	a7,-504(a1) # e08 <.LBB71_3+0xb90>
    3880:	f2043803          	ld	a6,-224(s0)
    3884:	000015b7          	lui	a1,0x1
    3888:	40b405b3          	sub	a1,s0,a1
    388c:	7b85b883          	ld	a7,1976(a1) # 17b8 <.LBB71_5+0x84>
    3890:	01088833          	add	a6,a7,a6
    3894:	ed843883          	ld	a7,-296(s0)
    3898:	00e888b3          	add	a7,a7,a4
    389c:	4118083b          	subw	a6,a6,a7
    38a0:	2408081b          	addiw	a6,a6,576
    38a4:	400008b7          	lui	a7,0x40000
    38a8:	000015b7          	lui	a1,0x1
    38ac:	40b405b3          	sub	a1,s0,a1
    38b0:	e305b023          	sd	a6,-480(a1) # e20 <.LBB71_3+0xba8>
    38b4:	00085463          	bgez	a6,38bc <.LBB71_54>
    38b8:	c00008b7          	lui	a7,0xc0000

00000000000038bc <.LBB71_54>:
    38bc:	000015b7          	lui	a1,0x1
    38c0:	40b405b3          	sub	a1,s0,a1
    38c4:	e115bc23          	sd	a7,-488(a1) # e18 <.LBB71_3+0xba0>
    38c8:	f3043803          	ld	a6,-208(s0)
    38cc:	000015b7          	lui	a1,0x1
    38d0:	40b405b3          	sub	a1,s0,a1
    38d4:	7c05b883          	ld	a7,1984(a1) # 17c0 <.LBB71_5+0x8c>
    38d8:	01088833          	add	a6,a7,a6
    38dc:	ee843883          	ld	a7,-280(s0)
    38e0:	00e888b3          	add	a7,a7,a4
    38e4:	4118083b          	subw	a6,a6,a7
    38e8:	2408081b          	addiw	a6,a6,576
    38ec:	400008b7          	lui	a7,0x40000
    38f0:	000015b7          	lui	a1,0x1
    38f4:	40b405b3          	sub	a1,s0,a1
    38f8:	e305b823          	sd	a6,-464(a1) # e30 <.LBB71_3+0xbb8>
    38fc:	00085463          	bgez	a6,3904 <.LBB71_56>
    3900:	c00008b7          	lui	a7,0xc0000

0000000000003904 <.LBB71_56>:
    3904:	000015b7          	lui	a1,0x1
    3908:	40b405b3          	sub	a1,s0,a1
    390c:	e315b423          	sd	a7,-472(a1) # e28 <.LBB71_3+0xbb0>
    3910:	f4043803          	ld	a6,-192(s0)
    3914:	000015b7          	lui	a1,0x1
    3918:	40b405b3          	sub	a1,s0,a1
    391c:	7c85b883          	ld	a7,1992(a1) # 17c8 <.LBB71_5+0x94>
    3920:	01088833          	add	a6,a7,a6
    3924:	ef843883          	ld	a7,-264(s0)
    3928:	00e888b3          	add	a7,a7,a4
    392c:	4118083b          	subw	a6,a6,a7
    3930:	2408081b          	addiw	a6,a6,576
    3934:	400008b7          	lui	a7,0x40000
    3938:	000015b7          	lui	a1,0x1
    393c:	40b405b3          	sub	a1,s0,a1
    3940:	e505b423          	sd	a6,-440(a1) # e48 <.LBB71_3+0xbd0>
    3944:	00085463          	bgez	a6,394c <.LBB71_58>
    3948:	c00008b7          	lui	a7,0xc0000

000000000000394c <.LBB71_58>:
    394c:	000015b7          	lui	a1,0x1
    3950:	40b405b3          	sub	a1,s0,a1
    3954:	e515b023          	sd	a7,-448(a1) # e40 <.LBB71_3+0xbc8>
    3958:	f5043803          	ld	a6,-176(s0)
    395c:	000015b7          	lui	a1,0x1
    3960:	40b405b3          	sub	a1,s0,a1
    3964:	7d05b883          	ld	a7,2000(a1) # 17d0 <.LBB71_5+0x9c>
    3968:	01088833          	add	a6,a7,a6
    396c:	f0843883          	ld	a7,-248(s0)
    3970:	00e888b3          	add	a7,a7,a4
    3974:	4118083b          	subw	a6,a6,a7
    3978:	2408081b          	addiw	a6,a6,576
    397c:	400008b7          	lui	a7,0x40000
    3980:	000015b7          	lui	a1,0x1
    3984:	40b405b3          	sub	a1,s0,a1
    3988:	e905b023          	sd	a6,-384(a1) # e80 <.LBB71_3+0xc08>
    398c:	00085463          	bgez	a6,3994 <.LBB71_60>
    3990:	c00008b7          	lui	a7,0xc0000

0000000000003994 <.LBB71_60>:
    3994:	000015b7          	lui	a1,0x1
    3998:	40b405b3          	sub	a1,s0,a1
    399c:	e715b023          	sd	a7,-416(a1) # e60 <.LBB71_3+0xbe8>
    39a0:	f6043803          	ld	a6,-160(s0)
    39a4:	000015b7          	lui	a1,0x1
    39a8:	40b405b3          	sub	a1,s0,a1
    39ac:	7d85b883          	ld	a7,2008(a1) # 17d8 <.LBB71_5+0xa4>
    39b0:	01088833          	add	a6,a7,a6
    39b4:	f2843883          	ld	a7,-216(s0)
    39b8:	00e888b3          	add	a7,a7,a4
    39bc:	4118083b          	subw	a6,a6,a7
    39c0:	2408081b          	addiw	a6,a6,576
    39c4:	400008b7          	lui	a7,0x40000
    39c8:	000015b7          	lui	a1,0x1
    39cc:	40b405b3          	sub	a1,s0,a1
    39d0:	ed05b023          	sd	a6,-320(a1) # ec0 <.LBB71_3+0xc48>
    39d4:	00085463          	bgez	a6,39dc <.LBB71_62>
    39d8:	c00008b7          	lui	a7,0xc0000

00000000000039dc <.LBB71_62>:
    39dc:	000015b7          	lui	a1,0x1
    39e0:	40b405b3          	sub	a1,s0,a1
    39e4:	eb15b023          	sd	a7,-352(a1) # ea0 <.LBB71_3+0xc28>
    39e8:	f7043803          	ld	a6,-144(s0)
    39ec:	000015b7          	lui	a1,0x1
    39f0:	40b405b3          	sub	a1,s0,a1
    39f4:	7e05b883          	ld	a7,2016(a1) # 17e0 <.LBB71_5+0xac>
    39f8:	01088833          	add	a6,a7,a6
    39fc:	f3843883          	ld	a7,-200(s0)
    3a00:	00e888b3          	add	a7,a7,a4
    3a04:	4118083b          	subw	a6,a6,a7
    3a08:	2408081b          	addiw	a6,a6,576
    3a0c:	400008b7          	lui	a7,0x40000
    3a10:	000015b7          	lui	a1,0x1
    3a14:	40b405b3          	sub	a1,s0,a1
    3a18:	ef05bc23          	sd	a6,-264(a1) # ef8 <.LBB71_3+0xc80>
    3a1c:	00085463          	bgez	a6,3a24 <.LBB71_64>
    3a20:	c00008b7          	lui	a7,0xc0000

0000000000003a24 <.LBB71_64>:
    3a24:	000015b7          	lui	a1,0x1
    3a28:	40b405b3          	sub	a1,s0,a1
    3a2c:	ef15b023          	sd	a7,-288(a1) # ee0 <.LBB71_3+0xc68>
    3a30:	f7843803          	ld	a6,-136(s0)
    3a34:	000015b7          	lui	a1,0x1
    3a38:	40b405b3          	sub	a1,s0,a1
    3a3c:	7e85b883          	ld	a7,2024(a1) # 17e8 <.LBB71_5+0xb4>
    3a40:	01088833          	add	a6,a7,a6
    3a44:	f4843883          	ld	a7,-184(s0)
    3a48:	00e888b3          	add	a7,a7,a4
    3a4c:	4118083b          	subw	a6,a6,a7
    3a50:	2408081b          	addiw	a6,a6,576
    3a54:	400008b7          	lui	a7,0x40000
    3a58:	000015b7          	lui	a1,0x1
    3a5c:	40b405b3          	sub	a1,s0,a1
    3a60:	f105b823          	sd	a6,-240(a1) # f10 <.LBB71_3+0xc98>
    3a64:	00085463          	bgez	a6,3a6c <.LBB71_66>
    3a68:	c00008b7          	lui	a7,0xc0000

0000000000003a6c <.LBB71_66>:
    3a6c:	000015b7          	lui	a1,0x1
    3a70:	40b405b3          	sub	a1,s0,a1
    3a74:	f115b423          	sd	a7,-248(a1) # f08 <.LBB71_3+0xc90>
    3a78:	f8043803          	ld	a6,-128(s0)
    3a7c:	000015b7          	lui	a1,0x1
    3a80:	40b405b3          	sub	a1,s0,a1
    3a84:	7f05b883          	ld	a7,2032(a1) # 17f0 <.LBB71_5+0xbc>
    3a88:	01088833          	add	a6,a7,a6
    3a8c:	f5843883          	ld	a7,-168(s0)
    3a90:	00e888b3          	add	a7,a7,a4
    3a94:	4118083b          	subw	a6,a6,a7
    3a98:	2408081b          	addiw	a6,a6,576
    3a9c:	400008b7          	lui	a7,0x40000
    3aa0:	000015b7          	lui	a1,0x1
    3aa4:	40b405b3          	sub	a1,s0,a1
    3aa8:	f305b023          	sd	a6,-224(a1) # f20 <.LBB71_3+0xca8>
    3aac:	00085463          	bgez	a6,3ab4 <.LBB71_68>
    3ab0:	c00008b7          	lui	a7,0xc0000

0000000000003ab4 <.LBB71_68>:
    3ab4:	000015b7          	lui	a1,0x1
    3ab8:	40b405b3          	sub	a1,s0,a1
    3abc:	f115bc23          	sd	a7,-232(a1) # f18 <.LBB71_3+0xca0>
    3ac0:	f8843803          	ld	a6,-120(s0)
    3ac4:	010a8833          	add	a6,s5,a6
    3ac8:	f6843883          	ld	a7,-152(s0)
    3acc:	00e88733          	add	a4,a7,a4
    3ad0:	40e8073b          	subw	a4,a6,a4
    3ad4:	2407071b          	addiw	a4,a4,576
    3ad8:	40000837          	lui	a6,0x40000
    3adc:	80043883          	ld	a7,-2048(s0)
    3ae0:	000015b7          	lui	a1,0x1
    3ae4:	40b405b3          	sub	a1,s0,a1
    3ae8:	f2e5b823          	sd	a4,-208(a1) # f30 <.LBB71_3+0xcb8>
    3aec:	00075463          	bgez	a4,3af4 <.LBB71_70>
    3af0:	c0000837          	lui	a6,0xc0000

0000000000003af4 <.LBB71_70>:
    3af4:	000015b7          	lui	a1,0x1
    3af8:	40b405b3          	sub	a1,s0,a1
    3afc:	f305b423          	sd	a6,-216(a1) # f28 <.LBB71_3+0xcb0>
    3b00:	00600713          	li	a4,6
    3b04:	02e78733          	mul	a4,a5,a4
    3b08:	000015b7          	lui	a1,0x1
    3b0c:	40b405b3          	sub	a1,s0,a1
    3b10:	6c85b783          	ld	a5,1736(a1) # 16c8 <.LBB71_4+0x4c8>
    3b14:	00fb07b3          	add	a5,s6,a5
    3b18:	000015b7          	lui	a1,0x1
    3b1c:	40b405b3          	sub	a1,s0,a1
    3b20:	6c05b803          	ld	a6,1728(a1) # 16c0 <.LBB71_4+0x4c0>
    3b24:	00e80833          	add	a6,a6,a4
    3b28:	410787bb          	subw	a5,a5,a6
    3b2c:	2407879b          	addiw	a5,a5,576
    3b30:	40000837          	lui	a6,0x40000
    3b34:	80843b03          	ld	s6,-2040(s0)
    3b38:	000015b7          	lui	a1,0x1
    3b3c:	40b405b3          	sub	a1,s0,a1
    3b40:	f4f5b023          	sd	a5,-192(a1) # f40 <.LBB71_3+0xcc8>
    3b44:	90043a83          	ld	s5,-1792(s0)
    3b48:	0007d463          	bgez	a5,3b50 <.LBB71_72>
    3b4c:	c0000837          	lui	a6,0xc0000

0000000000003b50 <.LBB71_72>:
    3b50:	000015b7          	lui	a1,0x1
    3b54:	40b405b3          	sub	a1,s0,a1
    3b58:	f305bc23          	sd	a6,-200(a1) # f38 <.LBB71_3+0xcc0>
    3b5c:	000015b7          	lui	a1,0x1
    3b60:	40b405b3          	sub	a1,s0,a1
    3b64:	6b85b783          	ld	a5,1720(a1) # 16b8 <.LBB71_4+0x4b8>
    3b68:	00f287b3          	add	a5,t0,a5
    3b6c:	000015b7          	lui	a1,0x1
    3b70:	40b405b3          	sub	a1,s0,a1
    3b74:	6b05b803          	ld	a6,1712(a1) # 16b0 <.LBB71_4+0x4b0>
    3b78:	00e80833          	add	a6,a6,a4
    3b7c:	410787bb          	subw	a5,a5,a6
    3b80:	2407879b          	addiw	a5,a5,576
    3b84:	40000837          	lui	a6,0x40000
    3b88:	91043283          	ld	t0,-1776(s0)
    3b8c:	000015b7          	lui	a1,0x1
    3b90:	40b405b3          	sub	a1,s0,a1
    3b94:	f4f5b823          	sd	a5,-176(a1) # f50 <.LBB71_3+0xcd8>
    3b98:	0007d463          	bgez	a5,3ba0 <.LBB71_74>
    3b9c:	c0000837          	lui	a6,0xc0000

0000000000003ba0 <.LBB71_74>:
    3ba0:	000015b7          	lui	a1,0x1
    3ba4:	40b405b3          	sub	a1,s0,a1
    3ba8:	f505b423          	sd	a6,-184(a1) # f48 <.LBB71_3+0xcd0>
    3bac:	000015b7          	lui	a1,0x1
    3bb0:	40b405b3          	sub	a1,s0,a1
    3bb4:	6a85b783          	ld	a5,1704(a1) # 16a8 <.LBB71_4+0x4a8>
    3bb8:	00fd07b3          	add	a5,s10,a5
    3bbc:	000015b7          	lui	a1,0x1
    3bc0:	40b405b3          	sub	a1,s0,a1
    3bc4:	6a05b803          	ld	a6,1696(a1) # 16a0 <.LBB71_4+0x4a0>
    3bc8:	00e80833          	add	a6,a6,a4
    3bcc:	410787bb          	subw	a5,a5,a6
    3bd0:	2407879b          	addiw	a5,a5,576
    3bd4:	40000837          	lui	a6,0x40000
    3bd8:	af043d03          	ld	s10,-1296(s0)
    3bdc:	000015b7          	lui	a1,0x1
    3be0:	40b405b3          	sub	a1,s0,a1
    3be4:	f6f5b023          	sd	a5,-160(a1) # f60 <.LBB71_3+0xce8>
    3be8:	0007d463          	bgez	a5,3bf0 <.LBB71_76>
    3bec:	c0000837          	lui	a6,0xc0000

0000000000003bf0 <.LBB71_76>:
    3bf0:	000015b7          	lui	a1,0x1
    3bf4:	40b405b3          	sub	a1,s0,a1
    3bf8:	f505bc23          	sd	a6,-168(a1) # f58 <.LBB71_3+0xce0>
    3bfc:	000015b7          	lui	a1,0x1
    3c00:	40b405b3          	sub	a1,s0,a1
    3c04:	6985b783          	ld	a5,1688(a1) # 1698 <.LBB71_4+0x498>
    3c08:	81043803          	ld	a6,-2032(s0)
    3c0c:	00f807b3          	add	a5,a6,a5
    3c10:	000015b7          	lui	a1,0x1
    3c14:	40b405b3          	sub	a1,s0,a1
    3c18:	6905b803          	ld	a6,1680(a1) # 1690 <.LBB71_4+0x490>
    3c1c:	00e80833          	add	a6,a6,a4
    3c20:	410787bb          	subw	a5,a5,a6
    3c24:	2407879b          	addiw	a5,a5,576
    3c28:	40000837          	lui	a6,0x40000
    3c2c:	000015b7          	lui	a1,0x1
    3c30:	40b405b3          	sub	a1,s0,a1
    3c34:	f6f5b823          	sd	a5,-144(a1) # f70 <.LBB71_3+0xcf8>
    3c38:	0007d463          	bgez	a5,3c40 <.LBB71_78>
    3c3c:	c0000837          	lui	a6,0xc0000

0000000000003c40 <.LBB71_78>:
    3c40:	000015b7          	lui	a1,0x1
    3c44:	40b405b3          	sub	a1,s0,a1
    3c48:	f705b423          	sd	a6,-152(a1) # f68 <.LBB71_3+0xcf0>
    3c4c:	000015b7          	lui	a1,0x1
    3c50:	40b405b3          	sub	a1,s0,a1
    3c54:	6885b783          	ld	a5,1672(a1) # 1688 <.LBB71_4+0x488>
    3c58:	81843803          	ld	a6,-2024(s0)
    3c5c:	00f807b3          	add	a5,a6,a5
    3c60:	000015b7          	lui	a1,0x1
    3c64:	40b405b3          	sub	a1,s0,a1
    3c68:	6805b803          	ld	a6,1664(a1) # 1680 <.LBB71_4+0x480>
    3c6c:	00e80833          	add	a6,a6,a4
    3c70:	410787bb          	subw	a5,a5,a6
    3c74:	2407879b          	addiw	a5,a5,576
    3c78:	40000837          	lui	a6,0x40000
    3c7c:	000015b7          	lui	a1,0x1
    3c80:	40b405b3          	sub	a1,s0,a1
    3c84:	f8f5b023          	sd	a5,-128(a1) # f80 <.LBB71_3+0xd08>
    3c88:	0007d463          	bgez	a5,3c90 <.LBB71_80>
    3c8c:	c0000837          	lui	a6,0xc0000

0000000000003c90 <.LBB71_80>:
    3c90:	000015b7          	lui	a1,0x1
    3c94:	40b405b3          	sub	a1,s0,a1
    3c98:	f705bc23          	sd	a6,-136(a1) # f78 <.LBB71_3+0xd00>
    3c9c:	000015b7          	lui	a1,0x1
    3ca0:	40b405b3          	sub	a1,s0,a1
    3ca4:	6785b783          	ld	a5,1656(a1) # 1678 <.LBB71_4+0x478>
    3ca8:	82043803          	ld	a6,-2016(s0)
    3cac:	00f807b3          	add	a5,a6,a5
    3cb0:	000015b7          	lui	a1,0x1
    3cb4:	40b405b3          	sub	a1,s0,a1
    3cb8:	6685b803          	ld	a6,1640(a1) # 1668 <.LBB71_4+0x468>
    3cbc:	00e80833          	add	a6,a6,a4
    3cc0:	410787bb          	subw	a5,a5,a6
    3cc4:	2407879b          	addiw	a5,a5,576
    3cc8:	40000837          	lui	a6,0x40000
    3ccc:	000015b7          	lui	a1,0x1
    3cd0:	40b405b3          	sub	a1,s0,a1
    3cd4:	f8f5b823          	sd	a5,-112(a1) # f90 <.LBB71_3+0xd18>
    3cd8:	0007d463          	bgez	a5,3ce0 <.LBB71_82>
    3cdc:	c0000837          	lui	a6,0xc0000

0000000000003ce0 <.LBB71_82>:
    3ce0:	000015b7          	lui	a1,0x1
    3ce4:	40b405b3          	sub	a1,s0,a1
    3ce8:	f905b423          	sd	a6,-120(a1) # f88 <.LBB71_3+0xd10>
    3cec:	000015b7          	lui	a1,0x1
    3cf0:	40b405b3          	sub	a1,s0,a1
    3cf4:	6605b783          	ld	a5,1632(a1) # 1660 <.LBB71_4+0x460>
    3cf8:	82843803          	ld	a6,-2008(s0)
    3cfc:	00f807b3          	add	a5,a6,a5
    3d00:	000015b7          	lui	a1,0x1
    3d04:	40b405b3          	sub	a1,s0,a1
    3d08:	6585b803          	ld	a6,1624(a1) # 1658 <.LBB71_4+0x458>
    3d0c:	00e80833          	add	a6,a6,a4
    3d10:	410787bb          	subw	a5,a5,a6
    3d14:	2407879b          	addiw	a5,a5,576
    3d18:	40000837          	lui	a6,0x40000
    3d1c:	000015b7          	lui	a1,0x1
    3d20:	40b405b3          	sub	a1,s0,a1
    3d24:	faf5b023          	sd	a5,-96(a1) # fa0 <.LBB71_3+0xd28>
    3d28:	0007d463          	bgez	a5,3d30 <.LBB71_84>
    3d2c:	c0000837          	lui	a6,0xc0000

0000000000003d30 <.LBB71_84>:
    3d30:	000015b7          	lui	a1,0x1
    3d34:	40b405b3          	sub	a1,s0,a1
    3d38:	f905bc23          	sd	a6,-104(a1) # f98 <.LBB71_3+0xd20>
    3d3c:	000015b7          	lui	a1,0x1
    3d40:	40b405b3          	sub	a1,s0,a1
    3d44:	6505b783          	ld	a5,1616(a1) # 1650 <.LBB71_4+0x450>
    3d48:	83043803          	ld	a6,-2000(s0)
    3d4c:	00f807b3          	add	a5,a6,a5
    3d50:	000015b7          	lui	a1,0x1
    3d54:	40b405b3          	sub	a1,s0,a1
    3d58:	6485b803          	ld	a6,1608(a1) # 1648 <.LBB71_4+0x448>
    3d5c:	00e80833          	add	a6,a6,a4
    3d60:	410787bb          	subw	a5,a5,a6
    3d64:	2407879b          	addiw	a5,a5,576
    3d68:	40000837          	lui	a6,0x40000
    3d6c:	000015b7          	lui	a1,0x1
    3d70:	40b405b3          	sub	a1,s0,a1
    3d74:	faf5b823          	sd	a5,-80(a1) # fb0 <.LBB71_3+0xd38>
    3d78:	0007d463          	bgez	a5,3d80 <.LBB71_86>
    3d7c:	c0000837          	lui	a6,0xc0000

0000000000003d80 <.LBB71_86>:
    3d80:	000015b7          	lui	a1,0x1
    3d84:	40b405b3          	sub	a1,s0,a1
    3d88:	fb05b423          	sd	a6,-88(a1) # fa8 <.LBB71_3+0xd30>
    3d8c:	000015b7          	lui	a1,0x1
    3d90:	40b405b3          	sub	a1,s0,a1
    3d94:	6405b783          	ld	a5,1600(a1) # 1640 <.LBB71_4+0x440>
    3d98:	83843803          	ld	a6,-1992(s0)
    3d9c:	00f807b3          	add	a5,a6,a5
    3da0:	000015b7          	lui	a1,0x1
    3da4:	40b405b3          	sub	a1,s0,a1
    3da8:	6385b803          	ld	a6,1592(a1) # 1638 <.LBB71_4+0x438>
    3dac:	00e80833          	add	a6,a6,a4
    3db0:	410787bb          	subw	a5,a5,a6
    3db4:	2407879b          	addiw	a5,a5,576
    3db8:	40000837          	lui	a6,0x40000
    3dbc:	000015b7          	lui	a1,0x1
    3dc0:	40b405b3          	sub	a1,s0,a1
    3dc4:	fcf5b023          	sd	a5,-64(a1) # fc0 <.LBB71_3+0xd48>
    3dc8:	0007d463          	bgez	a5,3dd0 <.LBB71_88>
    3dcc:	c0000837          	lui	a6,0xc0000

0000000000003dd0 <.LBB71_88>:
    3dd0:	000015b7          	lui	a1,0x1
    3dd4:	40b405b3          	sub	a1,s0,a1
    3dd8:	fb05bc23          	sd	a6,-72(a1) # fb8 <.LBB71_3+0xd40>
    3ddc:	000015b7          	lui	a1,0x1
    3de0:	40b405b3          	sub	a1,s0,a1
    3de4:	6305b783          	ld	a5,1584(a1) # 1630 <.LBB71_4+0x430>
    3de8:	84843803          	ld	a6,-1976(s0)
    3dec:	00f807b3          	add	a5,a6,a5
    3df0:	000015b7          	lui	a1,0x1
    3df4:	40b405b3          	sub	a1,s0,a1
    3df8:	6f05b803          	ld	a6,1776(a1) # 16f0 <.LBB71_4+0x4f0>
    3dfc:	00e80833          	add	a6,a6,a4
    3e00:	410787bb          	subw	a5,a5,a6
    3e04:	2407879b          	addiw	a5,a5,576
    3e08:	40000837          	lui	a6,0x40000
    3e0c:	000015b7          	lui	a1,0x1
    3e10:	40b405b3          	sub	a1,s0,a1
    3e14:	fcf5b823          	sd	a5,-48(a1) # fd0 <.LBB71_3+0xd58>
    3e18:	0007d463          	bgez	a5,3e20 <.LBB71_90>
    3e1c:	c0000837          	lui	a6,0xc0000

0000000000003e20 <.LBB71_90>:
    3e20:	000015b7          	lui	a1,0x1
    3e24:	40b405b3          	sub	a1,s0,a1
    3e28:	fd05b423          	sd	a6,-56(a1) # fc8 <.LBB71_3+0xd50>
    3e2c:	000015b7          	lui	a1,0x1
    3e30:	40b405b3          	sub	a1,s0,a1
    3e34:	6f85b783          	ld	a5,1784(a1) # 16f8 <.LBB71_4+0x4f8>
    3e38:	85043803          	ld	a6,-1968(s0)
    3e3c:	00f807b3          	add	a5,a6,a5
    3e40:	000015b7          	lui	a1,0x1
    3e44:	40b405b3          	sub	a1,s0,a1
    3e48:	6d05b803          	ld	a6,1744(a1) # 16d0 <.LBB71_4+0x4d0>
    3e4c:	00e80833          	add	a6,a6,a4
    3e50:	410787bb          	subw	a5,a5,a6
    3e54:	2407879b          	addiw	a5,a5,576
    3e58:	40000837          	lui	a6,0x40000
    3e5c:	000015b7          	lui	a1,0x1
    3e60:	40b405b3          	sub	a1,s0,a1
    3e64:	fef5b023          	sd	a5,-32(a1) # fe0 <.LBB71_3+0xd68>
    3e68:	0007d463          	bgez	a5,3e70 <.LBB71_92>
    3e6c:	c0000837          	lui	a6,0xc0000

0000000000003e70 <.LBB71_92>:
    3e70:	000015b7          	lui	a1,0x1
    3e74:	40b405b3          	sub	a1,s0,a1
    3e78:	fd05bc23          	sd	a6,-40(a1) # fd8 <.LBB71_3+0xd60>
    3e7c:	000015b7          	lui	a1,0x1
    3e80:	40b405b3          	sub	a1,s0,a1
    3e84:	7085b783          	ld	a5,1800(a1) # 1708 <.LBB71_4+0x508>
    3e88:	85843803          	ld	a6,-1960(s0)
    3e8c:	00f807b3          	add	a5,a6,a5
    3e90:	000015b7          	lui	a1,0x1
    3e94:	40b405b3          	sub	a1,s0,a1
    3e98:	6d85b803          	ld	a6,1752(a1) # 16d8 <.LBB71_4+0x4d8>
    3e9c:	00e80833          	add	a6,a6,a4
    3ea0:	410787bb          	subw	a5,a5,a6
    3ea4:	2407879b          	addiw	a5,a5,576
    3ea8:	40000837          	lui	a6,0x40000
    3eac:	000015b7          	lui	a1,0x1
    3eb0:	40b405b3          	sub	a1,s0,a1
    3eb4:	fef5b823          	sd	a5,-16(a1) # ff0 <.LBB71_3+0xd78>
    3eb8:	0007d463          	bgez	a5,3ec0 <.LBB71_94>
    3ebc:	c0000837          	lui	a6,0xc0000

0000000000003ec0 <.LBB71_94>:
    3ec0:	000015b7          	lui	a1,0x1
    3ec4:	40b405b3          	sub	a1,s0,a1
    3ec8:	ff05b423          	sd	a6,-24(a1) # fe8 <.LBB71_3+0xd70>
    3ecc:	000015b7          	lui	a1,0x1
    3ed0:	40b405b3          	sub	a1,s0,a1
    3ed4:	7185b783          	ld	a5,1816(a1) # 1718 <.LBB71_4+0x518>
    3ed8:	86043803          	ld	a6,-1952(s0)
    3edc:	00f807b3          	add	a5,a6,a5
    3ee0:	000015b7          	lui	a1,0x1
    3ee4:	40b405b3          	sub	a1,s0,a1
    3ee8:	6e05b803          	ld	a6,1760(a1) # 16e0 <.LBB71_4+0x4e0>
    3eec:	00e80833          	add	a6,a6,a4
    3ef0:	410787bb          	subw	a5,a5,a6
    3ef4:	2407879b          	addiw	a5,a5,576
    3ef8:	40000837          	lui	a6,0x40000
    3efc:	000015b7          	lui	a1,0x1
    3f00:	40b405b3          	sub	a1,s0,a1
    3f04:	00f5b023          	sd	a5,0(a1) # 1000 <.LBB71_3+0xd88>
    3f08:	0007d463          	bgez	a5,3f10 <.LBB71_96>
    3f0c:	c0000837          	lui	a6,0xc0000

0000000000003f10 <.LBB71_96>:
    3f10:	000015b7          	lui	a1,0x1
    3f14:	40b405b3          	sub	a1,s0,a1
    3f18:	ff05bc23          	sd	a6,-8(a1) # ff8 <.LBB71_3+0xd80>
    3f1c:	000015b7          	lui	a1,0x1
    3f20:	40b405b3          	sub	a1,s0,a1
    3f24:	7285b783          	ld	a5,1832(a1) # 1728 <.LBB71_4+0x528>
    3f28:	86843803          	ld	a6,-1944(s0)
    3f2c:	00f807b3          	add	a5,a6,a5
    3f30:	000015b7          	lui	a1,0x1
    3f34:	40b405b3          	sub	a1,s0,a1
    3f38:	6e85b803          	ld	a6,1768(a1) # 16e8 <.LBB71_4+0x4e8>
    3f3c:	00e80833          	add	a6,a6,a4
    3f40:	410787bb          	subw	a5,a5,a6
    3f44:	2407879b          	addiw	a5,a5,576
    3f48:	40000837          	lui	a6,0x40000
    3f4c:	000015b7          	lui	a1,0x1
    3f50:	40b405b3          	sub	a1,s0,a1
    3f54:	00f5b823          	sd	a5,16(a1) # 1010 <.LBB71_3+0xd98>
    3f58:	0007d463          	bgez	a5,3f60 <.LBB71_98>
    3f5c:	c0000837          	lui	a6,0xc0000

0000000000003f60 <.LBB71_98>:
    3f60:	000015b7          	lui	a1,0x1
    3f64:	40b405b3          	sub	a1,s0,a1
    3f68:	0105b423          	sd	a6,8(a1) # 1008 <.LBB71_3+0xd90>
    3f6c:	e8043783          	ld	a5,-384(s0)
    3f70:	87043803          	ld	a6,-1936(s0)
    3f74:	00f807b3          	add	a5,a6,a5
    3f78:	000015b7          	lui	a1,0x1
    3f7c:	40b405b3          	sub	a1,s0,a1
    3f80:	7005b803          	ld	a6,1792(a1) # 1700 <.LBB71_4+0x500>
    3f84:	00e80833          	add	a6,a6,a4
    3f88:	410787bb          	subw	a5,a5,a6
    3f8c:	2407879b          	addiw	a5,a5,576
    3f90:	40000837          	lui	a6,0x40000
    3f94:	000015b7          	lui	a1,0x1
    3f98:	40b405b3          	sub	a1,s0,a1
    3f9c:	02f5b023          	sd	a5,32(a1) # 1020 <.LBB71_3+0xda8>
    3fa0:	0007d463          	bgez	a5,3fa8 <.LBB71_100>
    3fa4:	c0000837          	lui	a6,0xc0000

0000000000003fa8 <.LBB71_100>:
    3fa8:	000015b7          	lui	a1,0x1
    3fac:	40b405b3          	sub	a1,s0,a1
    3fb0:	0105bc23          	sd	a6,24(a1) # 1018 <.LBB71_3+0xda0>
    3fb4:	e9043783          	ld	a5,-368(s0)
    3fb8:	87843803          	ld	a6,-1928(s0)
    3fbc:	00f807b3          	add	a5,a6,a5
    3fc0:	000015b7          	lui	a1,0x1
    3fc4:	40b405b3          	sub	a1,s0,a1
    3fc8:	7105b803          	ld	a6,1808(a1) # 1710 <.LBB71_4+0x510>
    3fcc:	00e80833          	add	a6,a6,a4
    3fd0:	410787bb          	subw	a5,a5,a6
    3fd4:	2407879b          	addiw	a5,a5,576
    3fd8:	40000837          	lui	a6,0x40000
    3fdc:	000015b7          	lui	a1,0x1
    3fe0:	40b405b3          	sub	a1,s0,a1
    3fe4:	02f5b823          	sd	a5,48(a1) # 1030 <.LBB71_3+0xdb8>
    3fe8:	0007d463          	bgez	a5,3ff0 <.LBB71_102>
    3fec:	c0000837          	lui	a6,0xc0000

0000000000003ff0 <.LBB71_102>:
    3ff0:	000015b7          	lui	a1,0x1
    3ff4:	40b405b3          	sub	a1,s0,a1
    3ff8:	0305b423          	sd	a6,40(a1) # 1028 <.LBB71_3+0xdb0>
    3ffc:	ea043783          	ld	a5,-352(s0)
    4000:	88043803          	ld	a6,-1920(s0)
    4004:	00f807b3          	add	a5,a6,a5
    4008:	000015b7          	lui	a1,0x1
    400c:	40b405b3          	sub	a1,s0,a1
    4010:	7205b803          	ld	a6,1824(a1) # 1720 <.LBB71_4+0x520>
    4014:	00e80833          	add	a6,a6,a4
    4018:	410787bb          	subw	a5,a5,a6
    401c:	2407879b          	addiw	a5,a5,576
    4020:	40000837          	lui	a6,0x40000
    4024:	000015b7          	lui	a1,0x1
    4028:	40b405b3          	sub	a1,s0,a1
    402c:	04f5b023          	sd	a5,64(a1) # 1040 <.LBB71_3+0xdc8>
    4030:	0007d463          	bgez	a5,4038 <.LBB71_104>
    4034:	c0000837          	lui	a6,0xc0000

0000000000004038 <.LBB71_104>:
    4038:	000015b7          	lui	a1,0x1
    403c:	40b405b3          	sub	a1,s0,a1
    4040:	0305bc23          	sd	a6,56(a1) # 1038 <.LBB71_3+0xdc0>
    4044:	eb043783          	ld	a5,-336(s0)
    4048:	88843803          	ld	a6,-1912(s0)
    404c:	00f807b3          	add	a5,a6,a5
    4050:	e7843803          	ld	a6,-392(s0)
    4054:	00e80833          	add	a6,a6,a4
    4058:	410787bb          	subw	a5,a5,a6
    405c:	2407879b          	addiw	a5,a5,576
    4060:	40000837          	lui	a6,0x40000
    4064:	84f43823          	sd	a5,-1968(s0)
    4068:	0007d463          	bgez	a5,4070 <.LBB71_106>
    406c:	c0000837          	lui	a6,0xc0000

0000000000004070 <.LBB71_106>:
    4070:	000015b7          	lui	a1,0x1
    4074:	40b405b3          	sub	a1,s0,a1
    4078:	0505b423          	sd	a6,72(a1) # 1048 <.LBB71_3+0xdd0>
    407c:	ec043783          	ld	a5,-320(s0)
    4080:	89043803          	ld	a6,-1904(s0)
    4084:	00f807b3          	add	a5,a6,a5
    4088:	e8843803          	ld	a6,-376(s0)
    408c:	00e80833          	add	a6,a6,a4
    4090:	410787bb          	subw	a5,a5,a6
    4094:	2407879b          	addiw	a5,a5,576
    4098:	40000837          	lui	a6,0x40000
    409c:	000015b7          	lui	a1,0x1
    40a0:	40b405b3          	sub	a1,s0,a1
    40a4:	04f5bc23          	sd	a5,88(a1) # 1058 <.LBB71_3+0xde0>
    40a8:	0007d463          	bgez	a5,40b0 <.LBB71_108>
    40ac:	c0000837          	lui	a6,0xc0000

00000000000040b0 <.LBB71_108>:
    40b0:	000015b7          	lui	a1,0x1
    40b4:	40b405b3          	sub	a1,s0,a1
    40b8:	0505b823          	sd	a6,80(a1) # 1050 <.LBB71_3+0xdd8>
    40bc:	ed043783          	ld	a5,-304(s0)
    40c0:	89843803          	ld	a6,-1896(s0)
    40c4:	00f807b3          	add	a5,a6,a5
    40c8:	e9843803          	ld	a6,-360(s0)
    40cc:	00e80833          	add	a6,a6,a4
    40d0:	410787bb          	subw	a5,a5,a6
    40d4:	2407879b          	addiw	a5,a5,576
    40d8:	40000837          	lui	a6,0x40000
    40dc:	000015b7          	lui	a1,0x1
    40e0:	40b405b3          	sub	a1,s0,a1
    40e4:	06f5b423          	sd	a5,104(a1) # 1068 <.LBB71_3+0xdf0>
    40e8:	0007d463          	bgez	a5,40f0 <.LBB71_110>
    40ec:	c0000837          	lui	a6,0xc0000

00000000000040f0 <.LBB71_110>:
    40f0:	000015b7          	lui	a1,0x1
    40f4:	40b405b3          	sub	a1,s0,a1
    40f8:	0705b023          	sd	a6,96(a1) # 1060 <.LBB71_3+0xde8>
    40fc:	ee043783          	ld	a5,-288(s0)
    4100:	8a043803          	ld	a6,-1888(s0)
    4104:	00f807b3          	add	a5,a6,a5
    4108:	ea843803          	ld	a6,-344(s0)
    410c:	00e80833          	add	a6,a6,a4
    4110:	410787bb          	subw	a5,a5,a6
    4114:	2407879b          	addiw	a5,a5,576
    4118:	40000837          	lui	a6,0x40000
    411c:	000015b7          	lui	a1,0x1
    4120:	40b405b3          	sub	a1,s0,a1
    4124:	78f5b423          	sd	a5,1928(a1) # 1788 <.LBB71_5+0x54>
    4128:	0007d463          	bgez	a5,4130 <.LBB71_112>
    412c:	c0000837          	lui	a6,0xc0000

0000000000004130 <.LBB71_112>:
    4130:	000015b7          	lui	a1,0x1
    4134:	40b405b3          	sub	a1,s0,a1
    4138:	0705b823          	sd	a6,112(a1) # 1070 <.LBB71_3+0xdf8>
    413c:	ef043783          	ld	a5,-272(s0)
    4140:	8a843803          	ld	a6,-1880(s0)
    4144:	00f807b3          	add	a5,a6,a5
    4148:	eb843803          	ld	a6,-328(s0)
    414c:	00e80833          	add	a6,a6,a4
    4150:	410787bb          	subw	a5,a5,a6
    4154:	2407879b          	addiw	a5,a5,576
    4158:	40000837          	lui	a6,0x40000
    415c:	000015b7          	lui	a1,0x1
    4160:	40b405b3          	sub	a1,s0,a1
    4164:	74f5b423          	sd	a5,1864(a1) # 1748 <.LBB71_5+0x14>
    4168:	0007d463          	bgez	a5,4170 <.LBB71_114>
    416c:	c0000837          	lui	a6,0xc0000

0000000000004170 <.LBB71_114>:
    4170:	000015b7          	lui	a1,0x1
    4174:	40b405b3          	sub	a1,s0,a1
    4178:	0705bc23          	sd	a6,120(a1) # 1078 <.LBB71_3+0xe00>
    417c:	f0043783          	ld	a5,-256(s0)
    4180:	8b043803          	ld	a6,-1872(s0)
    4184:	00f807b3          	add	a5,a6,a5
    4188:	ec843803          	ld	a6,-312(s0)
    418c:	00e80833          	add	a6,a6,a4
    4190:	410787bb          	subw	a5,a5,a6
    4194:	2407879b          	addiw	a5,a5,576
    4198:	40000837          	lui	a6,0x40000
    419c:	000015b7          	lui	a1,0x1
    41a0:	40b405b3          	sub	a1,s0,a1
    41a4:	08f5b423          	sd	a5,136(a1) # 1088 <.LBB71_3+0xe10>
    41a8:	0007d463          	bgez	a5,41b0 <.LBB71_116>
    41ac:	c0000837          	lui	a6,0xc0000

00000000000041b0 <.LBB71_116>:
    41b0:	000015b7          	lui	a1,0x1
    41b4:	40b405b3          	sub	a1,s0,a1
    41b8:	0905b023          	sd	a6,128(a1) # 1080 <.LBB71_3+0xe08>
    41bc:	f2043783          	ld	a5,-224(s0)
    41c0:	8b843803          	ld	a6,-1864(s0)
    41c4:	00f807b3          	add	a5,a6,a5
    41c8:	ed843803          	ld	a6,-296(s0)
    41cc:	00e80833          	add	a6,a6,a4
    41d0:	410787bb          	subw	a5,a5,a6
    41d4:	2407879b          	addiw	a5,a5,576
    41d8:	40000837          	lui	a6,0x40000
    41dc:	000015b7          	lui	a1,0x1
    41e0:	40b405b3          	sub	a1,s0,a1
    41e4:	08f5bc23          	sd	a5,152(a1) # 1098 <.LBB71_3+0xe20>
    41e8:	0007d463          	bgez	a5,41f0 <.LBB71_118>
    41ec:	c0000837          	lui	a6,0xc0000

00000000000041f0 <.LBB71_118>:
    41f0:	000015b7          	lui	a1,0x1
    41f4:	40b405b3          	sub	a1,s0,a1
    41f8:	0905b823          	sd	a6,144(a1) # 1090 <.LBB71_3+0xe18>
    41fc:	f3043783          	ld	a5,-208(s0)
    4200:	8c043803          	ld	a6,-1856(s0)
    4204:	00f807b3          	add	a5,a6,a5
    4208:	ee843803          	ld	a6,-280(s0)
    420c:	00e80833          	add	a6,a6,a4
    4210:	410787bb          	subw	a5,a5,a6
    4214:	2407879b          	addiw	a5,a5,576
    4218:	40000837          	lui	a6,0x40000
    421c:	000015b7          	lui	a1,0x1
    4220:	40b405b3          	sub	a1,s0,a1
    4224:	0af5b423          	sd	a5,168(a1) # 10a8 <.LBB71_3+0xe30>
    4228:	0007d463          	bgez	a5,4230 <.LBB71_120>
    422c:	c0000837          	lui	a6,0xc0000

0000000000004230 <.LBB71_120>:
    4230:	000015b7          	lui	a1,0x1
    4234:	40b405b3          	sub	a1,s0,a1
    4238:	0b05b023          	sd	a6,160(a1) # 10a0 <.LBB71_3+0xe28>
    423c:	f4043783          	ld	a5,-192(s0)
    4240:	8c843803          	ld	a6,-1848(s0)
    4244:	00f807b3          	add	a5,a6,a5
    4248:	ef843803          	ld	a6,-264(s0)
    424c:	00e80833          	add	a6,a6,a4
    4250:	410787bb          	subw	a5,a5,a6
    4254:	2407879b          	addiw	a5,a5,576
    4258:	40000837          	lui	a6,0x40000
    425c:	000015b7          	lui	a1,0x1
    4260:	40b405b3          	sub	a1,s0,a1
    4264:	0af5bc23          	sd	a5,184(a1) # 10b8 <.LBB71_3+0xe40>
    4268:	0007d463          	bgez	a5,4270 <.LBB71_122>
    426c:	c0000837          	lui	a6,0xc0000

0000000000004270 <.LBB71_122>:
    4270:	000015b7          	lui	a1,0x1
    4274:	40b405b3          	sub	a1,s0,a1
    4278:	0b05b823          	sd	a6,176(a1) # 10b0 <.LBB71_3+0xe38>
    427c:	f5043783          	ld	a5,-176(s0)
    4280:	8d043803          	ld	a6,-1840(s0)
    4284:	00f807b3          	add	a5,a6,a5
    4288:	f0843803          	ld	a6,-248(s0)
    428c:	00e80833          	add	a6,a6,a4
    4290:	410787bb          	subw	a5,a5,a6
    4294:	2407879b          	addiw	a5,a5,576
    4298:	40000837          	lui	a6,0x40000
    429c:	000015b7          	lui	a1,0x1
    42a0:	40b405b3          	sub	a1,s0,a1
    42a4:	0cf5b423          	sd	a5,200(a1) # 10c8 <.LBB71_3+0xe50>
    42a8:	0007d463          	bgez	a5,42b0 <.LBB71_124>
    42ac:	c0000837          	lui	a6,0xc0000

00000000000042b0 <.LBB71_124>:
    42b0:	000015b7          	lui	a1,0x1
    42b4:	40b405b3          	sub	a1,s0,a1
    42b8:	0d05b023          	sd	a6,192(a1) # 10c0 <.LBB71_3+0xe48>
    42bc:	f6043783          	ld	a5,-160(s0)
    42c0:	8d843803          	ld	a6,-1832(s0)
    42c4:	00f807b3          	add	a5,a6,a5
    42c8:	f2843803          	ld	a6,-216(s0)
    42cc:	00e80833          	add	a6,a6,a4
    42d0:	410787bb          	subw	a5,a5,a6
    42d4:	2407879b          	addiw	a5,a5,576
    42d8:	40000837          	lui	a6,0x40000
    42dc:	000015b7          	lui	a1,0x1
    42e0:	40b405b3          	sub	a1,s0,a1
    42e4:	0cf5bc23          	sd	a5,216(a1) # 10d8 <.LBB71_3+0xe60>
    42e8:	0007d463          	bgez	a5,42f0 <.LBB71_126>
    42ec:	c0000837          	lui	a6,0xc0000

00000000000042f0 <.LBB71_126>:
    42f0:	000015b7          	lui	a1,0x1
    42f4:	40b405b3          	sub	a1,s0,a1
    42f8:	0d05b823          	sd	a6,208(a1) # 10d0 <.LBB71_3+0xe58>
    42fc:	f7043783          	ld	a5,-144(s0)
    4300:	8e043803          	ld	a6,-1824(s0)
    4304:	00f807b3          	add	a5,a6,a5
    4308:	f3843803          	ld	a6,-200(s0)
    430c:	00e80833          	add	a6,a6,a4
    4310:	410787bb          	subw	a5,a5,a6
    4314:	2407879b          	addiw	a5,a5,576
    4318:	40000837          	lui	a6,0x40000
    431c:	000015b7          	lui	a1,0x1
    4320:	40b405b3          	sub	a1,s0,a1
    4324:	0ef5b423          	sd	a5,232(a1) # 10e8 <.LBB71_3+0xe70>
    4328:	0007d463          	bgez	a5,4330 <.LBB71_128>
    432c:	c0000837          	lui	a6,0xc0000

0000000000004330 <.LBB71_128>:
    4330:	000015b7          	lui	a1,0x1
    4334:	40b405b3          	sub	a1,s0,a1
    4338:	0f05b023          	sd	a6,224(a1) # 10e0 <.LBB71_3+0xe68>
    433c:	f7843783          	ld	a5,-136(s0)
    4340:	8e843803          	ld	a6,-1816(s0)
    4344:	00f807b3          	add	a5,a6,a5
    4348:	f4843803          	ld	a6,-184(s0)
    434c:	00e80833          	add	a6,a6,a4
    4350:	410787bb          	subw	a5,a5,a6
    4354:	2407879b          	addiw	a5,a5,576
    4358:	40000837          	lui	a6,0x40000
    435c:	000015b7          	lui	a1,0x1
    4360:	40b405b3          	sub	a1,s0,a1
    4364:	0ef5bc23          	sd	a5,248(a1) # 10f8 <.LBB71_3+0xe80>
    4368:	0007d463          	bgez	a5,4370 <.LBB71_130>
    436c:	c0000837          	lui	a6,0xc0000

0000000000004370 <.LBB71_130>:
    4370:	000015b7          	lui	a1,0x1
    4374:	40b405b3          	sub	a1,s0,a1
    4378:	0f05b823          	sd	a6,240(a1) # 10f0 <.LBB71_3+0xe78>
    437c:	f8043783          	ld	a5,-128(s0)
    4380:	8f043803          	ld	a6,-1808(s0)
    4384:	00f807b3          	add	a5,a6,a5
    4388:	f5843803          	ld	a6,-168(s0)
    438c:	00e80833          	add	a6,a6,a4
    4390:	410787bb          	subw	a5,a5,a6
    4394:	2407879b          	addiw	a5,a5,576
    4398:	40000837          	lui	a6,0x40000
    439c:	000015b7          	lui	a1,0x1
    43a0:	40b405b3          	sub	a1,s0,a1
    43a4:	10f5b423          	sd	a5,264(a1) # 1108 <.LBB71_3+0xe90>
    43a8:	0007d463          	bgez	a5,43b0 <.LBB71_132>
    43ac:	c0000837          	lui	a6,0xc0000

00000000000043b0 <.LBB71_132>:
    43b0:	000015b7          	lui	a1,0x1
    43b4:	40b405b3          	sub	a1,s0,a1
    43b8:	1105b023          	sd	a6,256(a1) # 1100 <.LBB71_3+0xe88>
    43bc:	f8843783          	ld	a5,-120(s0)
    43c0:	8f843803          	ld	a6,-1800(s0)
    43c4:	00f807b3          	add	a5,a6,a5
    43c8:	f6843803          	ld	a6,-152(s0)
    43cc:	00e80733          	add	a4,a6,a4
    43d0:	40e787bb          	subw	a5,a5,a4
    43d4:	2407871b          	addiw	a4,a5,576
    43d8:	400007b7          	lui	a5,0x40000
    43dc:	be043803          	ld	a6,-1056(s0)
    43e0:	000015b7          	lui	a1,0x1
    43e4:	40b405b3          	sub	a1,s0,a1
    43e8:	10e5bc23          	sd	a4,280(a1) # 1118 <.LBB71_3+0xea0>
    43ec:	00075463          	bgez	a4,43f4 <.LBB71_134>
    43f0:	c00007b7          	lui	a5,0xc0000

00000000000043f4 <.LBB71_134>:
    43f4:	000015b7          	lui	a1,0x1
    43f8:	40b405b3          	sub	a1,s0,a1
    43fc:	10f5b823          	sd	a5,272(a1) # 1110 <.LBB71_3+0xe98>
    4400:	00600713          	li	a4,6
    4404:	02e686b3          	mul	a3,a3,a4
    4408:	000015b7          	lui	a1,0x1
    440c:	40b405b3          	sub	a1,s0,a1
    4410:	6c85b703          	ld	a4,1736(a1) # 16c8 <.LBB71_4+0x4c8>
    4414:	00ea8733          	add	a4,s5,a4
    4418:	000015b7          	lui	a1,0x1
    441c:	40b405b3          	sub	a1,s0,a1
    4420:	6c05b783          	ld	a5,1728(a1) # 16c0 <.LBB71_4+0x4c0>
    4424:	00d787b3          	add	a5,a5,a3
    4428:	40f7073b          	subw	a4,a4,a5
    442c:	2407071b          	addiw	a4,a4,576
    4430:	400007b7          	lui	a5,0x40000
    4434:	be843a83          	ld	s5,-1048(s0)
    4438:	000015b7          	lui	a1,0x1
    443c:	40b405b3          	sub	a1,s0,a1
    4440:	12e5b423          	sd	a4,296(a1) # 1128 <.LBB71_3+0xeb0>
    4444:	00075463          	bgez	a4,444c <.LBB71_136>
    4448:	c00007b7          	lui	a5,0xc0000

000000000000444c <.LBB71_136>:
    444c:	000015b7          	lui	a1,0x1
    4450:	40b405b3          	sub	a1,s0,a1
    4454:	12f5b023          	sd	a5,288(a1) # 1120 <.LBB71_3+0xea8>
    4458:	000015b7          	lui	a1,0x1
    445c:	40b405b3          	sub	a1,s0,a1
    4460:	6b85b703          	ld	a4,1720(a1) # 16b8 <.LBB71_4+0x4b8>
    4464:	90843783          	ld	a5,-1784(s0)
    4468:	00e78733          	add	a4,a5,a4
    446c:	000015b7          	lui	a1,0x1
    4470:	40b405b3          	sub	a1,s0,a1
    4474:	6b05b783          	ld	a5,1712(a1) # 16b0 <.LBB71_4+0x4b0>
    4478:	00d787b3          	add	a5,a5,a3
    447c:	40f7073b          	subw	a4,a4,a5
    4480:	2407071b          	addiw	a4,a4,576
    4484:	400007b7          	lui	a5,0x40000
    4488:	000015b7          	lui	a1,0x1
    448c:	40b405b3          	sub	a1,s0,a1
    4490:	12e5bc23          	sd	a4,312(a1) # 1138 <.LBB71_3+0xec0>
    4494:	00075463          	bgez	a4,449c <.LBB71_138>
    4498:	c00007b7          	lui	a5,0xc0000

000000000000449c <.LBB71_138>:
    449c:	000015b7          	lui	a1,0x1
    44a0:	40b405b3          	sub	a1,s0,a1
    44a4:	12f5b823          	sd	a5,304(a1) # 1130 <.LBB71_3+0xeb8>
    44a8:	000015b7          	lui	a1,0x1
    44ac:	40b405b3          	sub	a1,s0,a1
    44b0:	6a85b703          	ld	a4,1704(a1) # 16a8 <.LBB71_4+0x4a8>
    44b4:	00e60733          	add	a4,a2,a4
    44b8:	000015b7          	lui	a1,0x1
    44bc:	40b405b3          	sub	a1,s0,a1
    44c0:	6a05b783          	ld	a5,1696(a1) # 16a0 <.LBB71_4+0x4a0>
    44c4:	00d787b3          	add	a5,a5,a3
    44c8:	40f7073b          	subw	a4,a4,a5
    44cc:	2407071b          	addiw	a4,a4,576
    44d0:	400007b7          	lui	a5,0x40000
    44d4:	000015b7          	lui	a1,0x1
    44d8:	40b405b3          	sub	a1,s0,a1
    44dc:	14e5b423          	sd	a4,328(a1) # 1148 <.LBB71_3+0xed0>
    44e0:	00075463          	bgez	a4,44e8 <.LBB71_140>
    44e4:	c00007b7          	lui	a5,0xc0000

00000000000044e8 <.LBB71_140>:
    44e8:	000015b7          	lui	a1,0x1
    44ec:	40b405b3          	sub	a1,s0,a1
    44f0:	14f5b023          	sd	a5,320(a1) # 1140 <.LBB71_3+0xec8>
    44f4:	000015b7          	lui	a1,0x1
    44f8:	40b405b3          	sub	a1,s0,a1
    44fc:	6985b703          	ld	a4,1688(a1) # 1698 <.LBB71_4+0x498>
    4500:	91843783          	ld	a5,-1768(s0)
    4504:	00e78733          	add	a4,a5,a4
    4508:	000015b7          	lui	a1,0x1
    450c:	40b405b3          	sub	a1,s0,a1
    4510:	6905b783          	ld	a5,1680(a1) # 1690 <.LBB71_4+0x490>
    4514:	00d787b3          	add	a5,a5,a3
    4518:	40f7073b          	subw	a4,a4,a5
    451c:	2407071b          	addiw	a4,a4,576
    4520:	400007b7          	lui	a5,0x40000
    4524:	000015b7          	lui	a1,0x1
    4528:	40b405b3          	sub	a1,s0,a1
    452c:	14e5bc23          	sd	a4,344(a1) # 1158 <.LBB71_3+0xee0>
    4530:	00075463          	bgez	a4,4538 <.LBB71_142>
    4534:	c00007b7          	lui	a5,0xc0000

0000000000004538 <.LBB71_142>:
    4538:	000015b7          	lui	a1,0x1
    453c:	40b405b3          	sub	a1,s0,a1
    4540:	14f5b823          	sd	a5,336(a1) # 1150 <.LBB71_3+0xed8>
    4544:	000015b7          	lui	a1,0x1
    4548:	40b405b3          	sub	a1,s0,a1
    454c:	6885b703          	ld	a4,1672(a1) # 1688 <.LBB71_4+0x488>
    4550:	92043783          	ld	a5,-1760(s0)
    4554:	00e78733          	add	a4,a5,a4
    4558:	000015b7          	lui	a1,0x1
    455c:	40b405b3          	sub	a1,s0,a1
    4560:	6805b783          	ld	a5,1664(a1) # 1680 <.LBB71_4+0x480>
    4564:	00d787b3          	add	a5,a5,a3
    4568:	40f7073b          	subw	a4,a4,a5
    456c:	2407071b          	addiw	a4,a4,576
    4570:	400007b7          	lui	a5,0x40000
    4574:	000015b7          	lui	a1,0x1
    4578:	40b405b3          	sub	a1,s0,a1
    457c:	16e5b423          	sd	a4,360(a1) # 1168 <.LBB71_3+0xef0>
    4580:	00075463          	bgez	a4,4588 <.LBB71_144>
    4584:	c00007b7          	lui	a5,0xc0000

0000000000004588 <.LBB71_144>:
    4588:	000015b7          	lui	a1,0x1
    458c:	40b405b3          	sub	a1,s0,a1
    4590:	16f5b023          	sd	a5,352(a1) # 1160 <.LBB71_3+0xee8>
    4594:	000015b7          	lui	a1,0x1
    4598:	40b405b3          	sub	a1,s0,a1
    459c:	6785b703          	ld	a4,1656(a1) # 1678 <.LBB71_4+0x478>
    45a0:	92843783          	ld	a5,-1752(s0)
    45a4:	00e78733          	add	a4,a5,a4
    45a8:	000015b7          	lui	a1,0x1
    45ac:	40b405b3          	sub	a1,s0,a1
    45b0:	6685b783          	ld	a5,1640(a1) # 1668 <.LBB71_4+0x468>
    45b4:	00d787b3          	add	a5,a5,a3
    45b8:	40f7073b          	subw	a4,a4,a5
    45bc:	2407071b          	addiw	a4,a4,576
    45c0:	400007b7          	lui	a5,0x40000
    45c4:	000015b7          	lui	a1,0x1
    45c8:	40b405b3          	sub	a1,s0,a1
    45cc:	16e5bc23          	sd	a4,376(a1) # 1178 <.LBB71_3+0xf00>
    45d0:	00075463          	bgez	a4,45d8 <.LBB71_146>
    45d4:	c00007b7          	lui	a5,0xc0000

00000000000045d8 <.LBB71_146>:
    45d8:	000015b7          	lui	a1,0x1
    45dc:	40b405b3          	sub	a1,s0,a1
    45e0:	16f5b823          	sd	a5,368(a1) # 1170 <.LBB71_3+0xef8>
    45e4:	000015b7          	lui	a1,0x1
    45e8:	40b405b3          	sub	a1,s0,a1
    45ec:	6605b703          	ld	a4,1632(a1) # 1660 <.LBB71_4+0x460>
    45f0:	93043783          	ld	a5,-1744(s0)
    45f4:	00e78733          	add	a4,a5,a4
    45f8:	000015b7          	lui	a1,0x1
    45fc:	40b405b3          	sub	a1,s0,a1
    4600:	6585b783          	ld	a5,1624(a1) # 1658 <.LBB71_4+0x458>
    4604:	00d787b3          	add	a5,a5,a3
    4608:	40f7073b          	subw	a4,a4,a5
    460c:	2407071b          	addiw	a4,a4,576
    4610:	400007b7          	lui	a5,0x40000
    4614:	000015b7          	lui	a1,0x1
    4618:	40b405b3          	sub	a1,s0,a1
    461c:	18e5b423          	sd	a4,392(a1) # 1188 <.LBB71_3+0xf10>
    4620:	00075463          	bgez	a4,4628 <.LBB71_148>
    4624:	c00007b7          	lui	a5,0xc0000

0000000000004628 <.LBB71_148>:
    4628:	000015b7          	lui	a1,0x1
    462c:	40b405b3          	sub	a1,s0,a1
    4630:	18f5b023          	sd	a5,384(a1) # 1180 <.LBB71_3+0xf08>
    4634:	93843703          	ld	a4,-1736(s0)
    4638:	000015b7          	lui	a1,0x1
    463c:	40b405b3          	sub	a1,s0,a1
    4640:	6505b783          	ld	a5,1616(a1) # 1650 <.LBB71_4+0x450>
    4644:	00f70733          	add	a4,a4,a5
    4648:	000015b7          	lui	a1,0x1
    464c:	40b405b3          	sub	a1,s0,a1
    4650:	6485b783          	ld	a5,1608(a1) # 1648 <.LBB71_4+0x448>
    4654:	00d787b3          	add	a5,a5,a3
    4658:	40f7073b          	subw	a4,a4,a5
    465c:	2407071b          	addiw	a4,a4,576
    4660:	400007b7          	lui	a5,0x40000
    4664:	000015b7          	lui	a1,0x1
    4668:	40b405b3          	sub	a1,s0,a1
    466c:	18e5bc23          	sd	a4,408(a1) # 1198 <.LBB71_3+0xf20>
    4670:	00075463          	bgez	a4,4678 <.LBB71_150>
    4674:	c00007b7          	lui	a5,0xc0000

0000000000004678 <.LBB71_150>:
    4678:	000015b7          	lui	a1,0x1
    467c:	40b405b3          	sub	a1,s0,a1
    4680:	18f5b823          	sd	a5,400(a1) # 1190 <.LBB71_3+0xf18>
    4684:	94043703          	ld	a4,-1728(s0)
    4688:	000015b7          	lui	a1,0x1
    468c:	40b405b3          	sub	a1,s0,a1
    4690:	6405b783          	ld	a5,1600(a1) # 1640 <.LBB71_4+0x440>
    4694:	00f70733          	add	a4,a4,a5
    4698:	000015b7          	lui	a1,0x1
    469c:	40b405b3          	sub	a1,s0,a1
    46a0:	6385b783          	ld	a5,1592(a1) # 1638 <.LBB71_4+0x438>
    46a4:	00d787b3          	add	a5,a5,a3
    46a8:	40f7073b          	subw	a4,a4,a5
    46ac:	2407071b          	addiw	a4,a4,576
    46b0:	400007b7          	lui	a5,0x40000
    46b4:	000015b7          	lui	a1,0x1
    46b8:	40b405b3          	sub	a1,s0,a1
    46bc:	1ae5b423          	sd	a4,424(a1) # 11a8 <.LBB71_3+0xf30>
    46c0:	00075463          	bgez	a4,46c8 <.LBB71_152>
    46c4:	c00007b7          	lui	a5,0xc0000

00000000000046c8 <.LBB71_152>:
    46c8:	000015b7          	lui	a1,0x1
    46cc:	40b405b3          	sub	a1,s0,a1
    46d0:	1af5b023          	sd	a5,416(a1) # 11a0 <.LBB71_3+0xf28>
    46d4:	94843703          	ld	a4,-1720(s0)
    46d8:	000015b7          	lui	a1,0x1
    46dc:	40b405b3          	sub	a1,s0,a1
    46e0:	6305b783          	ld	a5,1584(a1) # 1630 <.LBB71_4+0x430>
    46e4:	00f70733          	add	a4,a4,a5
    46e8:	000015b7          	lui	a1,0x1
    46ec:	40b405b3          	sub	a1,s0,a1
    46f0:	6f05b783          	ld	a5,1776(a1) # 16f0 <.LBB71_4+0x4f0>
    46f4:	00d787b3          	add	a5,a5,a3
    46f8:	40f7073b          	subw	a4,a4,a5
    46fc:	2407071b          	addiw	a4,a4,576
    4700:	400007b7          	lui	a5,0x40000
    4704:	000015b7          	lui	a1,0x1
    4708:	40b405b3          	sub	a1,s0,a1
    470c:	1ae5bc23          	sd	a4,440(a1) # 11b8 <.LBB71_3+0xf40>
    4710:	00075463          	bgez	a4,4718 <.LBB71_154>
    4714:	c00007b7          	lui	a5,0xc0000

0000000000004718 <.LBB71_154>:
    4718:	000015b7          	lui	a1,0x1
    471c:	40b405b3          	sub	a1,s0,a1
    4720:	1af5b823          	sd	a5,432(a1) # 11b0 <.LBB71_3+0xf38>
    4724:	95043703          	ld	a4,-1712(s0)
    4728:	000015b7          	lui	a1,0x1
    472c:	40b405b3          	sub	a1,s0,a1
    4730:	6f85b783          	ld	a5,1784(a1) # 16f8 <.LBB71_4+0x4f8>
    4734:	00f70733          	add	a4,a4,a5
    4738:	000015b7          	lui	a1,0x1
    473c:	40b405b3          	sub	a1,s0,a1
    4740:	6d05b783          	ld	a5,1744(a1) # 16d0 <.LBB71_4+0x4d0>
    4744:	00d787b3          	add	a5,a5,a3
    4748:	40f7073b          	subw	a4,a4,a5
    474c:	2407071b          	addiw	a4,a4,576
    4750:	400007b7          	lui	a5,0x40000
    4754:	000015b7          	lui	a1,0x1
    4758:	40b405b3          	sub	a1,s0,a1
    475c:	1ce5b423          	sd	a4,456(a1) # 11c8 <.LBB71_3+0xf50>
    4760:	00075463          	bgez	a4,4768 <.LBB71_156>
    4764:	c00007b7          	lui	a5,0xc0000

0000000000004768 <.LBB71_156>:
    4768:	000015b7          	lui	a1,0x1
    476c:	40b405b3          	sub	a1,s0,a1
    4770:	1cf5b023          	sd	a5,448(a1) # 11c0 <.LBB71_3+0xf48>
    4774:	95843703          	ld	a4,-1704(s0)
    4778:	000015b7          	lui	a1,0x1
    477c:	40b405b3          	sub	a1,s0,a1
    4780:	7085b783          	ld	a5,1800(a1) # 1708 <.LBB71_4+0x508>
    4784:	00f70733          	add	a4,a4,a5
    4788:	000015b7          	lui	a1,0x1
    478c:	40b405b3          	sub	a1,s0,a1
    4790:	6d85b783          	ld	a5,1752(a1) # 16d8 <.LBB71_4+0x4d8>
    4794:	00d787b3          	add	a5,a5,a3
    4798:	40f7073b          	subw	a4,a4,a5
    479c:	2407071b          	addiw	a4,a4,576
    47a0:	400007b7          	lui	a5,0x40000
    47a4:	000015b7          	lui	a1,0x1
    47a8:	40b405b3          	sub	a1,s0,a1
    47ac:	1ce5bc23          	sd	a4,472(a1) # 11d8 <.LBB71_3+0xf60>
    47b0:	00075463          	bgez	a4,47b8 <.LBB71_158>
    47b4:	c00007b7          	lui	a5,0xc0000

00000000000047b8 <.LBB71_158>:
    47b8:	000015b7          	lui	a1,0x1
    47bc:	40b405b3          	sub	a1,s0,a1
    47c0:	1cf5b823          	sd	a5,464(a1) # 11d0 <.LBB71_3+0xf58>
    47c4:	96043703          	ld	a4,-1696(s0)
    47c8:	000015b7          	lui	a1,0x1
    47cc:	40b405b3          	sub	a1,s0,a1
    47d0:	7185b783          	ld	a5,1816(a1) # 1718 <.LBB71_4+0x518>
    47d4:	00f70733          	add	a4,a4,a5
    47d8:	000015b7          	lui	a1,0x1
    47dc:	40b405b3          	sub	a1,s0,a1
    47e0:	6e05b783          	ld	a5,1760(a1) # 16e0 <.LBB71_4+0x4e0>
    47e4:	00d787b3          	add	a5,a5,a3
    47e8:	40f7073b          	subw	a4,a4,a5
    47ec:	2407071b          	addiw	a4,a4,576
    47f0:	400007b7          	lui	a5,0x40000
    47f4:	000015b7          	lui	a1,0x1
    47f8:	40b405b3          	sub	a1,s0,a1
    47fc:	1ee5b423          	sd	a4,488(a1) # 11e8 <.LBB71_3+0xf70>
    4800:	00075463          	bgez	a4,4808 <.LBB71_160>
    4804:	c00007b7          	lui	a5,0xc0000

0000000000004808 <.LBB71_160>:
    4808:	000015b7          	lui	a1,0x1
    480c:	40b405b3          	sub	a1,s0,a1
    4810:	1ef5b023          	sd	a5,480(a1) # 11e0 <.LBB71_3+0xf68>
    4814:	96843703          	ld	a4,-1688(s0)
    4818:	000015b7          	lui	a1,0x1
    481c:	40b405b3          	sub	a1,s0,a1
    4820:	7285b783          	ld	a5,1832(a1) # 1728 <.LBB71_4+0x528>
    4824:	00f70733          	add	a4,a4,a5
    4828:	000015b7          	lui	a1,0x1
    482c:	40b405b3          	sub	a1,s0,a1
    4830:	6e85b783          	ld	a5,1768(a1) # 16e8 <.LBB71_4+0x4e8>
    4834:	00d787b3          	add	a5,a5,a3
    4838:	40f7073b          	subw	a4,a4,a5
    483c:	2407071b          	addiw	a4,a4,576
    4840:	400007b7          	lui	a5,0x40000
    4844:	000015b7          	lui	a1,0x1
    4848:	40b405b3          	sub	a1,s0,a1
    484c:	1ee5bc23          	sd	a4,504(a1) # 11f8 <.LBB71_3+0xf80>
    4850:	00075463          	bgez	a4,4858 <.LBB71_162>
    4854:	c00007b7          	lui	a5,0xc0000

0000000000004858 <.LBB71_162>:
    4858:	000015b7          	lui	a1,0x1
    485c:	40b405b3          	sub	a1,s0,a1
    4860:	1ef5b823          	sd	a5,496(a1) # 11f0 <.LBB71_3+0xf78>
    4864:	97043703          	ld	a4,-1680(s0)
    4868:	e8043783          	ld	a5,-384(s0)
    486c:	00f70733          	add	a4,a4,a5
    4870:	000015b7          	lui	a1,0x1
    4874:	40b405b3          	sub	a1,s0,a1
    4878:	7005b783          	ld	a5,1792(a1) # 1700 <.LBB71_4+0x500>
    487c:	00d787b3          	add	a5,a5,a3
    4880:	40f7073b          	subw	a4,a4,a5
    4884:	2407071b          	addiw	a4,a4,576
    4888:	400007b7          	lui	a5,0x40000
    488c:	000015b7          	lui	a1,0x1
    4890:	40b405b3          	sub	a1,s0,a1
    4894:	20e5b423          	sd	a4,520(a1) # 1208 <.LBB71_4+0x8>
    4898:	00075463          	bgez	a4,48a0 <.LBB71_164>
    489c:	c00007b7          	lui	a5,0xc0000

00000000000048a0 <.LBB71_164>:
    48a0:	000015b7          	lui	a1,0x1
    48a4:	40b405b3          	sub	a1,s0,a1
    48a8:	20f5b023          	sd	a5,512(a1) # 1200 <.LBB71_4>
    48ac:	97843703          	ld	a4,-1672(s0)
    48b0:	e9043783          	ld	a5,-368(s0)
    48b4:	00f70733          	add	a4,a4,a5
    48b8:	000015b7          	lui	a1,0x1
    48bc:	40b405b3          	sub	a1,s0,a1
    48c0:	7105b783          	ld	a5,1808(a1) # 1710 <.LBB71_4+0x510>
    48c4:	00d787b3          	add	a5,a5,a3
    48c8:	40f7073b          	subw	a4,a4,a5
    48cc:	2407071b          	addiw	a4,a4,576
    48d0:	400007b7          	lui	a5,0x40000
    48d4:	000015b7          	lui	a1,0x1
    48d8:	40b405b3          	sub	a1,s0,a1
    48dc:	20e5bc23          	sd	a4,536(a1) # 1218 <.LBB71_4+0x18>
    48e0:	00075463          	bgez	a4,48e8 <.LBB71_166>
    48e4:	c00007b7          	lui	a5,0xc0000

00000000000048e8 <.LBB71_166>:
    48e8:	000015b7          	lui	a1,0x1
    48ec:	40b405b3          	sub	a1,s0,a1
    48f0:	20f5b823          	sd	a5,528(a1) # 1210 <.LBB71_4+0x10>
    48f4:	98043703          	ld	a4,-1664(s0)
    48f8:	ea043783          	ld	a5,-352(s0)
    48fc:	00f70733          	add	a4,a4,a5
    4900:	000015b7          	lui	a1,0x1
    4904:	40b405b3          	sub	a1,s0,a1
    4908:	7205b783          	ld	a5,1824(a1) # 1720 <.LBB71_4+0x520>
    490c:	00d787b3          	add	a5,a5,a3
    4910:	40f7073b          	subw	a4,a4,a5
    4914:	2407071b          	addiw	a4,a4,576
    4918:	400007b7          	lui	a5,0x40000
    491c:	000015b7          	lui	a1,0x1
    4920:	40b405b3          	sub	a1,s0,a1
    4924:	22e5b423          	sd	a4,552(a1) # 1228 <.LBB71_4+0x28>
    4928:	00075463          	bgez	a4,4930 <.LBB71_168>
    492c:	c00007b7          	lui	a5,0xc0000

0000000000004930 <.LBB71_168>:
    4930:	000015b7          	lui	a1,0x1
    4934:	40b405b3          	sub	a1,s0,a1
    4938:	22f5b023          	sd	a5,544(a1) # 1220 <.LBB71_4+0x20>
    493c:	98843703          	ld	a4,-1656(s0)
    4940:	eb043783          	ld	a5,-336(s0)
    4944:	00f70733          	add	a4,a4,a5
    4948:	e7843783          	ld	a5,-392(s0)
    494c:	00d787b3          	add	a5,a5,a3
    4950:	40f7073b          	subw	a4,a4,a5
    4954:	2407071b          	addiw	a4,a4,576
    4958:	400007b7          	lui	a5,0x40000
    495c:	000015b7          	lui	a1,0x1
    4960:	40b405b3          	sub	a1,s0,a1
    4964:	22e5bc23          	sd	a4,568(a1) # 1238 <.LBB71_4+0x38>
    4968:	00075463          	bgez	a4,4970 <.LBB71_170>
    496c:	c00007b7          	lui	a5,0xc0000

0000000000004970 <.LBB71_170>:
    4970:	000015b7          	lui	a1,0x1
    4974:	40b405b3          	sub	a1,s0,a1
    4978:	22f5b823          	sd	a5,560(a1) # 1230 <.LBB71_4+0x30>
    497c:	99043703          	ld	a4,-1648(s0)
    4980:	ec043783          	ld	a5,-320(s0)
    4984:	00f70733          	add	a4,a4,a5
    4988:	e8843783          	ld	a5,-376(s0)
    498c:	00d787b3          	add	a5,a5,a3
    4990:	40f7073b          	subw	a4,a4,a5
    4994:	2407071b          	addiw	a4,a4,576
    4998:	400007b7          	lui	a5,0x40000
    499c:	000015b7          	lui	a1,0x1
    49a0:	40b405b3          	sub	a1,s0,a1
    49a4:	24e5b423          	sd	a4,584(a1) # 1248 <.LBB71_4+0x48>
    49a8:	00075463          	bgez	a4,49b0 <.LBB71_172>
    49ac:	c00007b7          	lui	a5,0xc0000

00000000000049b0 <.LBB71_172>:
    49b0:	000015b7          	lui	a1,0x1
    49b4:	40b405b3          	sub	a1,s0,a1
    49b8:	24f5b023          	sd	a5,576(a1) # 1240 <.LBB71_4+0x40>
    49bc:	99843703          	ld	a4,-1640(s0)
    49c0:	ed043783          	ld	a5,-304(s0)
    49c4:	00f70733          	add	a4,a4,a5
    49c8:	e9843783          	ld	a5,-360(s0)
    49cc:	00d787b3          	add	a5,a5,a3
    49d0:	40f7073b          	subw	a4,a4,a5
    49d4:	2407071b          	addiw	a4,a4,576
    49d8:	400007b7          	lui	a5,0x40000
    49dc:	000015b7          	lui	a1,0x1
    49e0:	40b405b3          	sub	a1,s0,a1
    49e4:	24e5bc23          	sd	a4,600(a1) # 1258 <.LBB71_4+0x58>
    49e8:	00075463          	bgez	a4,49f0 <.LBB71_174>
    49ec:	c00007b7          	lui	a5,0xc0000

00000000000049f0 <.LBB71_174>:
    49f0:	000015b7          	lui	a1,0x1
    49f4:	40b405b3          	sub	a1,s0,a1
    49f8:	24f5b823          	sd	a5,592(a1) # 1250 <.LBB71_4+0x50>
    49fc:	9a043703          	ld	a4,-1632(s0)
    4a00:	ee043783          	ld	a5,-288(s0)
    4a04:	00f70733          	add	a4,a4,a5
    4a08:	ea843783          	ld	a5,-344(s0)
    4a0c:	00d787b3          	add	a5,a5,a3
    4a10:	40f7073b          	subw	a4,a4,a5
    4a14:	2407071b          	addiw	a4,a4,576
    4a18:	400007b7          	lui	a5,0x40000
    4a1c:	000015b7          	lui	a1,0x1
    4a20:	40b405b3          	sub	a1,s0,a1
    4a24:	26e5b423          	sd	a4,616(a1) # 1268 <.LBB71_4+0x68>
    4a28:	00075463          	bgez	a4,4a30 <.LBB71_176>
    4a2c:	c00007b7          	lui	a5,0xc0000

0000000000004a30 <.LBB71_176>:
    4a30:	000015b7          	lui	a1,0x1
    4a34:	40b405b3          	sub	a1,s0,a1
    4a38:	26f5b023          	sd	a5,608(a1) # 1260 <.LBB71_4+0x60>
    4a3c:	9a843703          	ld	a4,-1624(s0)
    4a40:	ef043783          	ld	a5,-272(s0)
    4a44:	00f70733          	add	a4,a4,a5
    4a48:	eb843783          	ld	a5,-328(s0)
    4a4c:	00d787b3          	add	a5,a5,a3
    4a50:	40f7073b          	subw	a4,a4,a5
    4a54:	2407071b          	addiw	a4,a4,576
    4a58:	400007b7          	lui	a5,0x40000
    4a5c:	000015b7          	lui	a1,0x1
    4a60:	40b405b3          	sub	a1,s0,a1
    4a64:	26e5bc23          	sd	a4,632(a1) # 1278 <.LBB71_4+0x78>
    4a68:	00075463          	bgez	a4,4a70 <.LBB71_178>
    4a6c:	c00007b7          	lui	a5,0xc0000

0000000000004a70 <.LBB71_178>:
    4a70:	000015b7          	lui	a1,0x1
    4a74:	40b405b3          	sub	a1,s0,a1
    4a78:	26f5b823          	sd	a5,624(a1) # 1270 <.LBB71_4+0x70>
    4a7c:	9b043703          	ld	a4,-1616(s0)
    4a80:	f0043783          	ld	a5,-256(s0)
    4a84:	00f70733          	add	a4,a4,a5
    4a88:	ec843783          	ld	a5,-312(s0)
    4a8c:	00d787b3          	add	a5,a5,a3
    4a90:	40f7073b          	subw	a4,a4,a5
    4a94:	2407071b          	addiw	a4,a4,576
    4a98:	400007b7          	lui	a5,0x40000
    4a9c:	000015b7          	lui	a1,0x1
    4aa0:	40b405b3          	sub	a1,s0,a1
    4aa4:	28e5b423          	sd	a4,648(a1) # 1288 <.LBB71_4+0x88>
    4aa8:	00075463          	bgez	a4,4ab0 <.LBB71_180>
    4aac:	c00007b7          	lui	a5,0xc0000

0000000000004ab0 <.LBB71_180>:
    4ab0:	000015b7          	lui	a1,0x1
    4ab4:	40b405b3          	sub	a1,s0,a1
    4ab8:	28f5b023          	sd	a5,640(a1) # 1280 <.LBB71_4+0x80>
    4abc:	9b843703          	ld	a4,-1608(s0)
    4ac0:	f2043783          	ld	a5,-224(s0)
    4ac4:	00f70733          	add	a4,a4,a5
    4ac8:	ed843783          	ld	a5,-296(s0)
    4acc:	00d787b3          	add	a5,a5,a3
    4ad0:	40f7073b          	subw	a4,a4,a5
    4ad4:	2407071b          	addiw	a4,a4,576
    4ad8:	400007b7          	lui	a5,0x40000
    4adc:	000015b7          	lui	a1,0x1
    4ae0:	40b405b3          	sub	a1,s0,a1
    4ae4:	28e5bc23          	sd	a4,664(a1) # 1298 <.LBB71_4+0x98>
    4ae8:	00075463          	bgez	a4,4af0 <.LBB71_182>
    4aec:	c00007b7          	lui	a5,0xc0000

0000000000004af0 <.LBB71_182>:
    4af0:	000015b7          	lui	a1,0x1
    4af4:	40b405b3          	sub	a1,s0,a1
    4af8:	28f5b823          	sd	a5,656(a1) # 1290 <.LBB71_4+0x90>
    4afc:	9c043703          	ld	a4,-1600(s0)
    4b00:	f3043783          	ld	a5,-208(s0)
    4b04:	00f70733          	add	a4,a4,a5
    4b08:	ee843783          	ld	a5,-280(s0)
    4b0c:	00d787b3          	add	a5,a5,a3
    4b10:	40f7073b          	subw	a4,a4,a5
    4b14:	2407071b          	addiw	a4,a4,576
    4b18:	400007b7          	lui	a5,0x40000
    4b1c:	000015b7          	lui	a1,0x1
    4b20:	40b405b3          	sub	a1,s0,a1
    4b24:	2ae5b423          	sd	a4,680(a1) # 12a8 <.LBB71_4+0xa8>
    4b28:	00075463          	bgez	a4,4b30 <.LBB71_184>
    4b2c:	c00007b7          	lui	a5,0xc0000

0000000000004b30 <.LBB71_184>:
    4b30:	000015b7          	lui	a1,0x1
    4b34:	40b405b3          	sub	a1,s0,a1
    4b38:	2af5b023          	sd	a5,672(a1) # 12a0 <.LBB71_4+0xa0>
    4b3c:	9c843703          	ld	a4,-1592(s0)
    4b40:	f4043783          	ld	a5,-192(s0)
    4b44:	00f70733          	add	a4,a4,a5
    4b48:	ef843783          	ld	a5,-264(s0)
    4b4c:	00d787b3          	add	a5,a5,a3
    4b50:	40f7073b          	subw	a4,a4,a5
    4b54:	2407071b          	addiw	a4,a4,576
    4b58:	400007b7          	lui	a5,0x40000
    4b5c:	000015b7          	lui	a1,0x1
    4b60:	40b405b3          	sub	a1,s0,a1
    4b64:	2ae5bc23          	sd	a4,696(a1) # 12b8 <.LBB71_4+0xb8>
    4b68:	00075463          	bgez	a4,4b70 <.LBB71_186>
    4b6c:	c00007b7          	lui	a5,0xc0000

0000000000004b70 <.LBB71_186>:
    4b70:	000015b7          	lui	a1,0x1
    4b74:	40b405b3          	sub	a1,s0,a1
    4b78:	2af5b823          	sd	a5,688(a1) # 12b0 <.LBB71_4+0xb0>
    4b7c:	9d043703          	ld	a4,-1584(s0)
    4b80:	f5043783          	ld	a5,-176(s0)
    4b84:	00f70733          	add	a4,a4,a5
    4b88:	f0843783          	ld	a5,-248(s0)
    4b8c:	00d787b3          	add	a5,a5,a3
    4b90:	40f7073b          	subw	a4,a4,a5
    4b94:	2407071b          	addiw	a4,a4,576
    4b98:	400007b7          	lui	a5,0x40000
    4b9c:	000015b7          	lui	a1,0x1
    4ba0:	40b405b3          	sub	a1,s0,a1
    4ba4:	2ce5b423          	sd	a4,712(a1) # 12c8 <.LBB71_4+0xc8>
    4ba8:	00075463          	bgez	a4,4bb0 <.LBB71_188>
    4bac:	c00007b7          	lui	a5,0xc0000

0000000000004bb0 <.LBB71_188>:
    4bb0:	000015b7          	lui	a1,0x1
    4bb4:	40b405b3          	sub	a1,s0,a1
    4bb8:	2cf5b023          	sd	a5,704(a1) # 12c0 <.LBB71_4+0xc0>
    4bbc:	9d843703          	ld	a4,-1576(s0)
    4bc0:	f6043783          	ld	a5,-160(s0)
    4bc4:	00f70733          	add	a4,a4,a5
    4bc8:	f2843783          	ld	a5,-216(s0)
    4bcc:	00d787b3          	add	a5,a5,a3
    4bd0:	40f7073b          	subw	a4,a4,a5
    4bd4:	2407071b          	addiw	a4,a4,576
    4bd8:	400007b7          	lui	a5,0x40000
    4bdc:	000015b7          	lui	a1,0x1
    4be0:	40b405b3          	sub	a1,s0,a1
    4be4:	2ce5bc23          	sd	a4,728(a1) # 12d8 <.LBB71_4+0xd8>
    4be8:	00075463          	bgez	a4,4bf0 <.LBB71_190>
    4bec:	c00007b7          	lui	a5,0xc0000

0000000000004bf0 <.LBB71_190>:
    4bf0:	000015b7          	lui	a1,0x1
    4bf4:	40b405b3          	sub	a1,s0,a1
    4bf8:	2cf5b823          	sd	a5,720(a1) # 12d0 <.LBB71_4+0xd0>
    4bfc:	9e043703          	ld	a4,-1568(s0)
    4c00:	f7043783          	ld	a5,-144(s0)
    4c04:	00f70733          	add	a4,a4,a5
    4c08:	f3843783          	ld	a5,-200(s0)
    4c0c:	00d787b3          	add	a5,a5,a3
    4c10:	40f7073b          	subw	a4,a4,a5
    4c14:	2407071b          	addiw	a4,a4,576
    4c18:	400007b7          	lui	a5,0x40000
    4c1c:	000015b7          	lui	a1,0x1
    4c20:	40b405b3          	sub	a1,s0,a1
    4c24:	2ee5b423          	sd	a4,744(a1) # 12e8 <.LBB71_4+0xe8>
    4c28:	00075463          	bgez	a4,4c30 <.LBB71_192>
    4c2c:	c00007b7          	lui	a5,0xc0000

0000000000004c30 <.LBB71_192>:
    4c30:	000015b7          	lui	a1,0x1
    4c34:	40b405b3          	sub	a1,s0,a1
    4c38:	2ef5b023          	sd	a5,736(a1) # 12e0 <.LBB71_4+0xe0>
    4c3c:	9e843703          	ld	a4,-1560(s0)
    4c40:	f7843783          	ld	a5,-136(s0)
    4c44:	00f70733          	add	a4,a4,a5
    4c48:	f4843783          	ld	a5,-184(s0)
    4c4c:	00d787b3          	add	a5,a5,a3
    4c50:	40f7073b          	subw	a4,a4,a5
    4c54:	2407071b          	addiw	a4,a4,576
    4c58:	400007b7          	lui	a5,0x40000
    4c5c:	000015b7          	lui	a1,0x1
    4c60:	40b405b3          	sub	a1,s0,a1
    4c64:	2ee5bc23          	sd	a4,760(a1) # 12f8 <.LBB71_4+0xf8>
    4c68:	00075463          	bgez	a4,4c70 <.LBB71_194>
    4c6c:	c00007b7          	lui	a5,0xc0000

0000000000004c70 <.LBB71_194>:
    4c70:	000015b7          	lui	a1,0x1
    4c74:	40b405b3          	sub	a1,s0,a1
    4c78:	2ef5b823          	sd	a5,752(a1) # 12f0 <.LBB71_4+0xf0>
    4c7c:	9f043703          	ld	a4,-1552(s0)
    4c80:	f8043783          	ld	a5,-128(s0)
    4c84:	00f70733          	add	a4,a4,a5
    4c88:	f5843783          	ld	a5,-168(s0)
    4c8c:	00d787b3          	add	a5,a5,a3
    4c90:	40f7073b          	subw	a4,a4,a5
    4c94:	2407071b          	addiw	a4,a4,576
    4c98:	400007b7          	lui	a5,0x40000
    4c9c:	000015b7          	lui	a1,0x1
    4ca0:	40b405b3          	sub	a1,s0,a1
    4ca4:	30e5b423          	sd	a4,776(a1) # 1308 <.LBB71_4+0x108>
    4ca8:	00075463          	bgez	a4,4cb0 <.LBB71_196>
    4cac:	c00007b7          	lui	a5,0xc0000

0000000000004cb0 <.LBB71_196>:
    4cb0:	000015b7          	lui	a1,0x1
    4cb4:	40b405b3          	sub	a1,s0,a1
    4cb8:	30f5b023          	sd	a5,768(a1) # 1300 <.LBB71_4+0x100>
    4cbc:	9f843703          	ld	a4,-1544(s0)
    4cc0:	f8843783          	ld	a5,-120(s0)
    4cc4:	00f70733          	add	a4,a4,a5
    4cc8:	f6843783          	ld	a5,-152(s0)
    4ccc:	00d786b3          	add	a3,a5,a3
    4cd0:	40d7073b          	subw	a4,a4,a3
    4cd4:	2407069b          	addiw	a3,a4,576
    4cd8:	40000737          	lui	a4,0x40000
    4cdc:	bf043783          	ld	a5,-1040(s0)
    4ce0:	000015b7          	lui	a1,0x1
    4ce4:	40b405b3          	sub	a1,s0,a1
    4ce8:	30d5bc23          	sd	a3,792(a1) # 1318 <.LBB71_4+0x118>
    4cec:	0006d463          	bgez	a3,4cf4 <.LBB71_198>
    4cf0:	c0000737          	lui	a4,0xc0000

0000000000004cf4 <.LBB71_198>:
    4cf4:	000015b7          	lui	a1,0x1
    4cf8:	40b405b3          	sub	a1,s0,a1
    4cfc:	30e5b823          	sd	a4,784(a1) # 1310 <.LBB71_4+0x110>
    4d00:	00600693          	li	a3,6
    4d04:	02d50633          	mul	a2,a0,a3
    4d08:	a0043683          	ld	a3,-1536(s0)
    4d0c:	00001537          	lui	a0,0x1
    4d10:	40a40533          	sub	a0,s0,a0
    4d14:	6c853703          	ld	a4,1736(a0) # 16c8 <.LBB71_4+0x4c8>
    4d18:	00e686b3          	add	a3,a3,a4
    4d1c:	00001537          	lui	a0,0x1
    4d20:	40a40533          	sub	a0,s0,a0
    4d24:	6c053703          	ld	a4,1728(a0) # 16c0 <.LBB71_4+0x4c0>
    4d28:	00c70733          	add	a4,a4,a2
    4d2c:	40e686bb          	subw	a3,a3,a4
    4d30:	2406869b          	addiw	a3,a3,576
    4d34:	40000737          	lui	a4,0x40000
    4d38:	00001537          	lui	a0,0x1
    4d3c:	40a40533          	sub	a0,s0,a0
    4d40:	32d53423          	sd	a3,808(a0) # 1328 <.LBB71_4+0x128>
    4d44:	0006d463          	bgez	a3,4d4c <.LBB71_200>
    4d48:	c0000737          	lui	a4,0xc0000

0000000000004d4c <.LBB71_200>:
    4d4c:	00001537          	lui	a0,0x1
    4d50:	40a40533          	sub	a0,s0,a0
    4d54:	32e53023          	sd	a4,800(a0) # 1320 <.LBB71_4+0x120>
    4d58:	a0843683          	ld	a3,-1528(s0)
    4d5c:	00001537          	lui	a0,0x1
    4d60:	40a40533          	sub	a0,s0,a0
    4d64:	6b853703          	ld	a4,1720(a0) # 16b8 <.LBB71_4+0x4b8>
    4d68:	00e686b3          	add	a3,a3,a4
    4d6c:	00001537          	lui	a0,0x1
    4d70:	40a40533          	sub	a0,s0,a0
    4d74:	6b053703          	ld	a4,1712(a0) # 16b0 <.LBB71_4+0x4b0>
    4d78:	00c70733          	add	a4,a4,a2
    4d7c:	40e686bb          	subw	a3,a3,a4
    4d80:	2406869b          	addiw	a3,a3,576
    4d84:	40000737          	lui	a4,0x40000
    4d88:	00001537          	lui	a0,0x1
    4d8c:	40a40533          	sub	a0,s0,a0
    4d90:	32d53c23          	sd	a3,824(a0) # 1338 <.LBB71_4+0x138>
    4d94:	0006d463          	bgez	a3,4d9c <.LBB71_202>
    4d98:	c0000737          	lui	a4,0xc0000

0000000000004d9c <.LBB71_202>:
    4d9c:	00001537          	lui	a0,0x1
    4da0:	40a40533          	sub	a0,s0,a0
    4da4:	32e53823          	sd	a4,816(a0) # 1330 <.LBB71_4+0x130>
    4da8:	a1043683          	ld	a3,-1520(s0)
    4dac:	00001537          	lui	a0,0x1
    4db0:	40a40533          	sub	a0,s0,a0
    4db4:	6a853703          	ld	a4,1704(a0) # 16a8 <.LBB71_4+0x4a8>
    4db8:	00e686b3          	add	a3,a3,a4
    4dbc:	00001537          	lui	a0,0x1
    4dc0:	40a40533          	sub	a0,s0,a0
    4dc4:	6a053703          	ld	a4,1696(a0) # 16a0 <.LBB71_4+0x4a0>
    4dc8:	00c70733          	add	a4,a4,a2
    4dcc:	40e686bb          	subw	a3,a3,a4
    4dd0:	2406869b          	addiw	a3,a3,576
    4dd4:	40000737          	lui	a4,0x40000
    4dd8:	00001537          	lui	a0,0x1
    4ddc:	40a40533          	sub	a0,s0,a0
    4de0:	34d53423          	sd	a3,840(a0) # 1348 <.LBB71_4+0x148>
    4de4:	0006d463          	bgez	a3,4dec <.LBB71_204>
    4de8:	c0000737          	lui	a4,0xc0000

0000000000004dec <.LBB71_204>:
    4dec:	00001537          	lui	a0,0x1
    4df0:	40a40533          	sub	a0,s0,a0
    4df4:	34e53023          	sd	a4,832(a0) # 1340 <.LBB71_4+0x140>
    4df8:	a1843683          	ld	a3,-1512(s0)
    4dfc:	00001537          	lui	a0,0x1
    4e00:	40a40533          	sub	a0,s0,a0
    4e04:	69853703          	ld	a4,1688(a0) # 1698 <.LBB71_4+0x498>
    4e08:	00e686b3          	add	a3,a3,a4
    4e0c:	00001537          	lui	a0,0x1
    4e10:	40a40533          	sub	a0,s0,a0
    4e14:	69053703          	ld	a4,1680(a0) # 1690 <.LBB71_4+0x490>
    4e18:	00c70733          	add	a4,a4,a2
    4e1c:	40e686bb          	subw	a3,a3,a4
    4e20:	2406869b          	addiw	a3,a3,576
    4e24:	40000737          	lui	a4,0x40000
    4e28:	00001537          	lui	a0,0x1
    4e2c:	40a40533          	sub	a0,s0,a0
    4e30:	34d53c23          	sd	a3,856(a0) # 1358 <.LBB71_4+0x158>
    4e34:	0006d463          	bgez	a3,4e3c <.LBB71_206>
    4e38:	c0000737          	lui	a4,0xc0000

0000000000004e3c <.LBB71_206>:
    4e3c:	00001537          	lui	a0,0x1
    4e40:	40a40533          	sub	a0,s0,a0
    4e44:	34e53823          	sd	a4,848(a0) # 1350 <.LBB71_4+0x150>
    4e48:	a2043683          	ld	a3,-1504(s0)
    4e4c:	00001537          	lui	a0,0x1
    4e50:	40a40533          	sub	a0,s0,a0
    4e54:	68853703          	ld	a4,1672(a0) # 1688 <.LBB71_4+0x488>
    4e58:	00e686b3          	add	a3,a3,a4
    4e5c:	00001537          	lui	a0,0x1
    4e60:	40a40533          	sub	a0,s0,a0
    4e64:	68053703          	ld	a4,1664(a0) # 1680 <.LBB71_4+0x480>
    4e68:	00c70733          	add	a4,a4,a2
    4e6c:	40e686bb          	subw	a3,a3,a4
    4e70:	2406869b          	addiw	a3,a3,576
    4e74:	40000737          	lui	a4,0x40000
    4e78:	00001537          	lui	a0,0x1
    4e7c:	40a40533          	sub	a0,s0,a0
    4e80:	36d53423          	sd	a3,872(a0) # 1368 <.LBB71_4+0x168>
    4e84:	0006d463          	bgez	a3,4e8c <.LBB71_208>
    4e88:	c0000737          	lui	a4,0xc0000

0000000000004e8c <.LBB71_208>:
    4e8c:	00001537          	lui	a0,0x1
    4e90:	40a40533          	sub	a0,s0,a0
    4e94:	36e53023          	sd	a4,864(a0) # 1360 <.LBB71_4+0x160>
    4e98:	a2843683          	ld	a3,-1496(s0)
    4e9c:	00001537          	lui	a0,0x1
    4ea0:	40a40533          	sub	a0,s0,a0
    4ea4:	67853703          	ld	a4,1656(a0) # 1678 <.LBB71_4+0x478>
    4ea8:	00e686b3          	add	a3,a3,a4
    4eac:	00001537          	lui	a0,0x1
    4eb0:	40a40533          	sub	a0,s0,a0
    4eb4:	66853703          	ld	a4,1640(a0) # 1668 <.LBB71_4+0x468>
    4eb8:	00c70733          	add	a4,a4,a2
    4ebc:	40e686bb          	subw	a3,a3,a4
    4ec0:	2406869b          	addiw	a3,a3,576
    4ec4:	40000737          	lui	a4,0x40000
    4ec8:	00001537          	lui	a0,0x1
    4ecc:	40a40533          	sub	a0,s0,a0
    4ed0:	36d53c23          	sd	a3,888(a0) # 1378 <.LBB71_4+0x178>
    4ed4:	0006d463          	bgez	a3,4edc <.LBB71_210>
    4ed8:	c0000737          	lui	a4,0xc0000

0000000000004edc <.LBB71_210>:
    4edc:	00001537          	lui	a0,0x1
    4ee0:	40a40533          	sub	a0,s0,a0
    4ee4:	36e53823          	sd	a4,880(a0) # 1370 <.LBB71_4+0x170>
    4ee8:	a3043683          	ld	a3,-1488(s0)
    4eec:	00001537          	lui	a0,0x1
    4ef0:	40a40533          	sub	a0,s0,a0
    4ef4:	66053703          	ld	a4,1632(a0) # 1660 <.LBB71_4+0x460>
    4ef8:	00e686b3          	add	a3,a3,a4
    4efc:	00001537          	lui	a0,0x1
    4f00:	40a40533          	sub	a0,s0,a0
    4f04:	65853703          	ld	a4,1624(a0) # 1658 <.LBB71_4+0x458>
    4f08:	00c70733          	add	a4,a4,a2
    4f0c:	40e686bb          	subw	a3,a3,a4
    4f10:	2406869b          	addiw	a3,a3,576
    4f14:	40000737          	lui	a4,0x40000
    4f18:	00001537          	lui	a0,0x1
    4f1c:	40a40533          	sub	a0,s0,a0
    4f20:	38d53423          	sd	a3,904(a0) # 1388 <.LBB71_4+0x188>
    4f24:	0006d463          	bgez	a3,4f2c <.LBB71_212>
    4f28:	c0000737          	lui	a4,0xc0000

0000000000004f2c <.LBB71_212>:
    4f2c:	00001537          	lui	a0,0x1
    4f30:	40a40533          	sub	a0,s0,a0
    4f34:	38e53023          	sd	a4,896(a0) # 1380 <.LBB71_4+0x180>
    4f38:	a3843683          	ld	a3,-1480(s0)
    4f3c:	00001537          	lui	a0,0x1
    4f40:	40a40533          	sub	a0,s0,a0
    4f44:	65053703          	ld	a4,1616(a0) # 1650 <.LBB71_4+0x450>
    4f48:	00e686b3          	add	a3,a3,a4
    4f4c:	00001537          	lui	a0,0x1
    4f50:	40a40533          	sub	a0,s0,a0
    4f54:	64853703          	ld	a4,1608(a0) # 1648 <.LBB71_4+0x448>
    4f58:	00c70733          	add	a4,a4,a2
    4f5c:	40e686bb          	subw	a3,a3,a4
    4f60:	2406869b          	addiw	a3,a3,576
    4f64:	40000737          	lui	a4,0x40000
    4f68:	00001537          	lui	a0,0x1
    4f6c:	40a40533          	sub	a0,s0,a0
    4f70:	38d53c23          	sd	a3,920(a0) # 1398 <.LBB71_4+0x198>
    4f74:	0006d463          	bgez	a3,4f7c <.LBB71_214>
    4f78:	c0000737          	lui	a4,0xc0000

0000000000004f7c <.LBB71_214>:
    4f7c:	00001537          	lui	a0,0x1
    4f80:	40a40533          	sub	a0,s0,a0
    4f84:	38e53823          	sd	a4,912(a0) # 1390 <.LBB71_4+0x190>
    4f88:	a4043683          	ld	a3,-1472(s0)
    4f8c:	00001537          	lui	a0,0x1
    4f90:	40a40533          	sub	a0,s0,a0
    4f94:	64053703          	ld	a4,1600(a0) # 1640 <.LBB71_4+0x440>
    4f98:	00e686b3          	add	a3,a3,a4
    4f9c:	00001537          	lui	a0,0x1
    4fa0:	40a40533          	sub	a0,s0,a0
    4fa4:	63853703          	ld	a4,1592(a0) # 1638 <.LBB71_4+0x438>
    4fa8:	00c70733          	add	a4,a4,a2
    4fac:	40e686bb          	subw	a3,a3,a4
    4fb0:	2406869b          	addiw	a3,a3,576
    4fb4:	40000737          	lui	a4,0x40000
    4fb8:	00001537          	lui	a0,0x1
    4fbc:	40a40533          	sub	a0,s0,a0
    4fc0:	3ad53423          	sd	a3,936(a0) # 13a8 <.LBB71_4+0x1a8>
    4fc4:	0006d463          	bgez	a3,4fcc <.LBB71_216>
    4fc8:	c0000737          	lui	a4,0xc0000

0000000000004fcc <.LBB71_216>:
    4fcc:	00001537          	lui	a0,0x1
    4fd0:	40a40533          	sub	a0,s0,a0
    4fd4:	3ae53023          	sd	a4,928(a0) # 13a0 <.LBB71_4+0x1a0>
    4fd8:	a4843683          	ld	a3,-1464(s0)
    4fdc:	00001537          	lui	a0,0x1
    4fe0:	40a40533          	sub	a0,s0,a0
    4fe4:	63053703          	ld	a4,1584(a0) # 1630 <.LBB71_4+0x430>
    4fe8:	00e686b3          	add	a3,a3,a4
    4fec:	00001537          	lui	a0,0x1
    4ff0:	40a40533          	sub	a0,s0,a0
    4ff4:	6f053703          	ld	a4,1776(a0) # 16f0 <.LBB71_4+0x4f0>
    4ff8:	00c70733          	add	a4,a4,a2
    4ffc:	40e686bb          	subw	a3,a3,a4
    5000:	2406869b          	addiw	a3,a3,576
    5004:	40000737          	lui	a4,0x40000
    5008:	00001537          	lui	a0,0x1
    500c:	40a40533          	sub	a0,s0,a0
    5010:	3ad53c23          	sd	a3,952(a0) # 13b8 <.LBB71_4+0x1b8>
    5014:	0006d463          	bgez	a3,501c <.LBB71_218>
    5018:	c0000737          	lui	a4,0xc0000

000000000000501c <.LBB71_218>:
    501c:	00001537          	lui	a0,0x1
    5020:	40a40533          	sub	a0,s0,a0
    5024:	3ae53823          	sd	a4,944(a0) # 13b0 <.LBB71_4+0x1b0>
    5028:	a5043683          	ld	a3,-1456(s0)
    502c:	00001537          	lui	a0,0x1
    5030:	40a40533          	sub	a0,s0,a0
    5034:	6f853703          	ld	a4,1784(a0) # 16f8 <.LBB71_4+0x4f8>
    5038:	00e686b3          	add	a3,a3,a4
    503c:	00001537          	lui	a0,0x1
    5040:	40a40533          	sub	a0,s0,a0
    5044:	6d053703          	ld	a4,1744(a0) # 16d0 <.LBB71_4+0x4d0>
    5048:	00c70733          	add	a4,a4,a2
    504c:	40e686bb          	subw	a3,a3,a4
    5050:	2406869b          	addiw	a3,a3,576
    5054:	40000737          	lui	a4,0x40000
    5058:	00001537          	lui	a0,0x1
    505c:	40a40533          	sub	a0,s0,a0
    5060:	3cd53423          	sd	a3,968(a0) # 13c8 <.LBB71_4+0x1c8>
    5064:	0006d463          	bgez	a3,506c <.LBB71_220>
    5068:	c0000737          	lui	a4,0xc0000

000000000000506c <.LBB71_220>:
    506c:	00001537          	lui	a0,0x1
    5070:	40a40533          	sub	a0,s0,a0
    5074:	3ce53023          	sd	a4,960(a0) # 13c0 <.LBB71_4+0x1c0>
    5078:	a5843683          	ld	a3,-1448(s0)
    507c:	00001537          	lui	a0,0x1
    5080:	40a40533          	sub	a0,s0,a0
    5084:	70853703          	ld	a4,1800(a0) # 1708 <.LBB71_4+0x508>
    5088:	00e686b3          	add	a3,a3,a4
    508c:	00001537          	lui	a0,0x1
    5090:	40a40533          	sub	a0,s0,a0
    5094:	6d853703          	ld	a4,1752(a0) # 16d8 <.LBB71_4+0x4d8>
    5098:	00c70733          	add	a4,a4,a2
    509c:	40e686bb          	subw	a3,a3,a4
    50a0:	2406869b          	addiw	a3,a3,576
    50a4:	40000737          	lui	a4,0x40000
    50a8:	00001537          	lui	a0,0x1
    50ac:	40a40533          	sub	a0,s0,a0
    50b0:	3cd53c23          	sd	a3,984(a0) # 13d8 <.LBB71_4+0x1d8>
    50b4:	0006d463          	bgez	a3,50bc <.LBB71_222>
    50b8:	c0000737          	lui	a4,0xc0000

00000000000050bc <.LBB71_222>:
    50bc:	00001537          	lui	a0,0x1
    50c0:	40a40533          	sub	a0,s0,a0
    50c4:	3ce53823          	sd	a4,976(a0) # 13d0 <.LBB71_4+0x1d0>
    50c8:	a6043683          	ld	a3,-1440(s0)
    50cc:	00001537          	lui	a0,0x1
    50d0:	40a40533          	sub	a0,s0,a0
    50d4:	71853703          	ld	a4,1816(a0) # 1718 <.LBB71_4+0x518>
    50d8:	00e686b3          	add	a3,a3,a4
    50dc:	00001537          	lui	a0,0x1
    50e0:	40a40533          	sub	a0,s0,a0
    50e4:	6e053703          	ld	a4,1760(a0) # 16e0 <.LBB71_4+0x4e0>
    50e8:	00c70733          	add	a4,a4,a2
    50ec:	40e686bb          	subw	a3,a3,a4
    50f0:	2406869b          	addiw	a3,a3,576
    50f4:	40000737          	lui	a4,0x40000
    50f8:	00001537          	lui	a0,0x1
    50fc:	40a40533          	sub	a0,s0,a0
    5100:	3ed53423          	sd	a3,1000(a0) # 13e8 <.LBB71_4+0x1e8>
    5104:	0006d463          	bgez	a3,510c <.LBB71_224>
    5108:	c0000737          	lui	a4,0xc0000

000000000000510c <.LBB71_224>:
    510c:	00001537          	lui	a0,0x1
    5110:	40a40533          	sub	a0,s0,a0
    5114:	3ee53023          	sd	a4,992(a0) # 13e0 <.LBB71_4+0x1e0>
    5118:	a6843683          	ld	a3,-1432(s0)
    511c:	00001537          	lui	a0,0x1
    5120:	40a40533          	sub	a0,s0,a0
    5124:	72853703          	ld	a4,1832(a0) # 1728 <.LBB71_4+0x528>
    5128:	00e686b3          	add	a3,a3,a4
    512c:	00001537          	lui	a0,0x1
    5130:	40a40533          	sub	a0,s0,a0
    5134:	6e853703          	ld	a4,1768(a0) # 16e8 <.LBB71_4+0x4e8>
    5138:	00c70733          	add	a4,a4,a2
    513c:	40e686bb          	subw	a3,a3,a4
    5140:	2406869b          	addiw	a3,a3,576
    5144:	40000737          	lui	a4,0x40000
    5148:	00001537          	lui	a0,0x1
    514c:	40a40533          	sub	a0,s0,a0
    5150:	3ed53c23          	sd	a3,1016(a0) # 13f8 <.LBB71_4+0x1f8>
    5154:	0006d463          	bgez	a3,515c <.LBB71_226>
    5158:	c0000737          	lui	a4,0xc0000

000000000000515c <.LBB71_226>:
    515c:	00001537          	lui	a0,0x1
    5160:	40a40533          	sub	a0,s0,a0
    5164:	3ee53823          	sd	a4,1008(a0) # 13f0 <.LBB71_4+0x1f0>
    5168:	a7043683          	ld	a3,-1424(s0)
    516c:	e8043703          	ld	a4,-384(s0)
    5170:	00e686b3          	add	a3,a3,a4
    5174:	00001537          	lui	a0,0x1
    5178:	40a40533          	sub	a0,s0,a0
    517c:	70053703          	ld	a4,1792(a0) # 1700 <.LBB71_4+0x500>
    5180:	00c70733          	add	a4,a4,a2
    5184:	40e686bb          	subw	a3,a3,a4
    5188:	2406869b          	addiw	a3,a3,576
    518c:	40000737          	lui	a4,0x40000
    5190:	00001537          	lui	a0,0x1
    5194:	40a40533          	sub	a0,s0,a0
    5198:	40d53423          	sd	a3,1032(a0) # 1408 <.LBB71_4+0x208>
    519c:	0006d463          	bgez	a3,51a4 <.LBB71_228>
    51a0:	c0000737          	lui	a4,0xc0000

00000000000051a4 <.LBB71_228>:
    51a4:	00001537          	lui	a0,0x1
    51a8:	40a40533          	sub	a0,s0,a0
    51ac:	40e53023          	sd	a4,1024(a0) # 1400 <.LBB71_4+0x200>
    51b0:	a7843683          	ld	a3,-1416(s0)
    51b4:	e9043703          	ld	a4,-368(s0)
    51b8:	00e686b3          	add	a3,a3,a4
    51bc:	00001537          	lui	a0,0x1
    51c0:	40a40533          	sub	a0,s0,a0
    51c4:	71053703          	ld	a4,1808(a0) # 1710 <.LBB71_4+0x510>
    51c8:	00c70733          	add	a4,a4,a2
    51cc:	40e686bb          	subw	a3,a3,a4
    51d0:	2406869b          	addiw	a3,a3,576
    51d4:	40000737          	lui	a4,0x40000
    51d8:	00001537          	lui	a0,0x1
    51dc:	40a40533          	sub	a0,s0,a0
    51e0:	40d53c23          	sd	a3,1048(a0) # 1418 <.LBB71_4+0x218>
    51e4:	0006d463          	bgez	a3,51ec <.LBB71_230>
    51e8:	c0000737          	lui	a4,0xc0000

00000000000051ec <.LBB71_230>:
    51ec:	00001537          	lui	a0,0x1
    51f0:	40a40533          	sub	a0,s0,a0
    51f4:	40e53823          	sd	a4,1040(a0) # 1410 <.LBB71_4+0x210>
    51f8:	a8043683          	ld	a3,-1408(s0)
    51fc:	ea043703          	ld	a4,-352(s0)
    5200:	00e686b3          	add	a3,a3,a4
    5204:	00001537          	lui	a0,0x1
    5208:	40a40533          	sub	a0,s0,a0
    520c:	72053703          	ld	a4,1824(a0) # 1720 <.LBB71_4+0x520>
    5210:	00c70733          	add	a4,a4,a2
    5214:	40e686bb          	subw	a3,a3,a4
    5218:	2406869b          	addiw	a3,a3,576
    521c:	40000737          	lui	a4,0x40000
    5220:	00001537          	lui	a0,0x1
    5224:	40a40533          	sub	a0,s0,a0
    5228:	42d53423          	sd	a3,1064(a0) # 1428 <.LBB71_4+0x228>
    522c:	0006d463          	bgez	a3,5234 <.LBB71_232>
    5230:	c0000737          	lui	a4,0xc0000

0000000000005234 <.LBB71_232>:
    5234:	00001537          	lui	a0,0x1
    5238:	40a40533          	sub	a0,s0,a0
    523c:	42e53023          	sd	a4,1056(a0) # 1420 <.LBB71_4+0x220>
    5240:	a8843683          	ld	a3,-1400(s0)
    5244:	eb043703          	ld	a4,-336(s0)
    5248:	00e686b3          	add	a3,a3,a4
    524c:	e7843703          	ld	a4,-392(s0)
    5250:	00c70733          	add	a4,a4,a2
    5254:	40e686bb          	subw	a3,a3,a4
    5258:	2406869b          	addiw	a3,a3,576
    525c:	40000737          	lui	a4,0x40000
    5260:	00001537          	lui	a0,0x1
    5264:	40a40533          	sub	a0,s0,a0
    5268:	42d53c23          	sd	a3,1080(a0) # 1438 <.LBB71_4+0x238>
    526c:	0006d463          	bgez	a3,5274 <.LBB71_234>
    5270:	c0000737          	lui	a4,0xc0000

0000000000005274 <.LBB71_234>:
    5274:	00001537          	lui	a0,0x1
    5278:	40a40533          	sub	a0,s0,a0
    527c:	42e53823          	sd	a4,1072(a0) # 1430 <.LBB71_4+0x230>
    5280:	a9043683          	ld	a3,-1392(s0)
    5284:	ec043703          	ld	a4,-320(s0)
    5288:	00e686b3          	add	a3,a3,a4
    528c:	e8843703          	ld	a4,-376(s0)
    5290:	00c70733          	add	a4,a4,a2
    5294:	40e686bb          	subw	a3,a3,a4
    5298:	2406869b          	addiw	a3,a3,576
    529c:	40000737          	lui	a4,0x40000
    52a0:	00001537          	lui	a0,0x1
    52a4:	40a40533          	sub	a0,s0,a0
    52a8:	44d53423          	sd	a3,1096(a0) # 1448 <.LBB71_4+0x248>
    52ac:	0006d463          	bgez	a3,52b4 <.LBB71_236>
    52b0:	c0000737          	lui	a4,0xc0000

00000000000052b4 <.LBB71_236>:
    52b4:	00001537          	lui	a0,0x1
    52b8:	40a40533          	sub	a0,s0,a0
    52bc:	44e53023          	sd	a4,1088(a0) # 1440 <.LBB71_4+0x240>
    52c0:	a9843683          	ld	a3,-1384(s0)
    52c4:	ed043703          	ld	a4,-304(s0)
    52c8:	00e686b3          	add	a3,a3,a4
    52cc:	e9843703          	ld	a4,-360(s0)
    52d0:	00c70733          	add	a4,a4,a2
    52d4:	40e686bb          	subw	a3,a3,a4
    52d8:	2406869b          	addiw	a3,a3,576
    52dc:	40000737          	lui	a4,0x40000
    52e0:	00001537          	lui	a0,0x1
    52e4:	40a40533          	sub	a0,s0,a0
    52e8:	44d53c23          	sd	a3,1112(a0) # 1458 <.LBB71_4+0x258>
    52ec:	0006d463          	bgez	a3,52f4 <.LBB71_238>
    52f0:	c0000737          	lui	a4,0xc0000

00000000000052f4 <.LBB71_238>:
    52f4:	00001537          	lui	a0,0x1
    52f8:	40a40533          	sub	a0,s0,a0
    52fc:	44e53823          	sd	a4,1104(a0) # 1450 <.LBB71_4+0x250>
    5300:	aa043683          	ld	a3,-1376(s0)
    5304:	ee043703          	ld	a4,-288(s0)
    5308:	00e686b3          	add	a3,a3,a4
    530c:	ea843703          	ld	a4,-344(s0)
    5310:	00c70733          	add	a4,a4,a2
    5314:	40e686bb          	subw	a3,a3,a4
    5318:	2406869b          	addiw	a3,a3,576
    531c:	40000737          	lui	a4,0x40000
    5320:	00001537          	lui	a0,0x1
    5324:	40a40533          	sub	a0,s0,a0
    5328:	46d53423          	sd	a3,1128(a0) # 1468 <.LBB71_4+0x268>
    532c:	0006d463          	bgez	a3,5334 <.LBB71_240>
    5330:	c0000737          	lui	a4,0xc0000

0000000000005334 <.LBB71_240>:
    5334:	00001537          	lui	a0,0x1
    5338:	40a40533          	sub	a0,s0,a0
    533c:	46e53023          	sd	a4,1120(a0) # 1460 <.LBB71_4+0x260>
    5340:	aa843683          	ld	a3,-1368(s0)
    5344:	ef043703          	ld	a4,-272(s0)
    5348:	00e686b3          	add	a3,a3,a4
    534c:	eb843703          	ld	a4,-328(s0)
    5350:	00c70733          	add	a4,a4,a2
    5354:	40e686bb          	subw	a3,a3,a4
    5358:	2406869b          	addiw	a3,a3,576
    535c:	40000737          	lui	a4,0x40000
    5360:	00001537          	lui	a0,0x1
    5364:	40a40533          	sub	a0,s0,a0
    5368:	46d53c23          	sd	a3,1144(a0) # 1478 <.LBB71_4+0x278>
    536c:	0006d463          	bgez	a3,5374 <.LBB71_242>
    5370:	c0000737          	lui	a4,0xc0000

0000000000005374 <.LBB71_242>:
    5374:	00001537          	lui	a0,0x1
    5378:	40a40533          	sub	a0,s0,a0
    537c:	46e53823          	sd	a4,1136(a0) # 1470 <.LBB71_4+0x270>
    5380:	ab043683          	ld	a3,-1360(s0)
    5384:	f0043703          	ld	a4,-256(s0)
    5388:	00e686b3          	add	a3,a3,a4
    538c:	ec843703          	ld	a4,-312(s0)
    5390:	00c70733          	add	a4,a4,a2
    5394:	40e686bb          	subw	a3,a3,a4
    5398:	2406869b          	addiw	a3,a3,576
    539c:	40000737          	lui	a4,0x40000
    53a0:	00001537          	lui	a0,0x1
    53a4:	40a40533          	sub	a0,s0,a0
    53a8:	48d53423          	sd	a3,1160(a0) # 1488 <.LBB71_4+0x288>
    53ac:	0006d463          	bgez	a3,53b4 <.LBB71_244>
    53b0:	c0000737          	lui	a4,0xc0000

00000000000053b4 <.LBB71_244>:
    53b4:	00001537          	lui	a0,0x1
    53b8:	40a40533          	sub	a0,s0,a0
    53bc:	48e53023          	sd	a4,1152(a0) # 1480 <.LBB71_4+0x280>
    53c0:	ab843683          	ld	a3,-1352(s0)
    53c4:	f2043703          	ld	a4,-224(s0)
    53c8:	00e686b3          	add	a3,a3,a4
    53cc:	ed843703          	ld	a4,-296(s0)
    53d0:	00c70733          	add	a4,a4,a2
    53d4:	40e686bb          	subw	a3,a3,a4
    53d8:	2406869b          	addiw	a3,a3,576
    53dc:	40000737          	lui	a4,0x40000
    53e0:	00001537          	lui	a0,0x1
    53e4:	40a40533          	sub	a0,s0,a0
    53e8:	48d53c23          	sd	a3,1176(a0) # 1498 <.LBB71_4+0x298>
    53ec:	0006d463          	bgez	a3,53f4 <.LBB71_246>
    53f0:	c0000737          	lui	a4,0xc0000

00000000000053f4 <.LBB71_246>:
    53f4:	00001537          	lui	a0,0x1
    53f8:	40a40533          	sub	a0,s0,a0
    53fc:	48e53823          	sd	a4,1168(a0) # 1490 <.LBB71_4+0x290>
    5400:	ac043683          	ld	a3,-1344(s0)
    5404:	f3043703          	ld	a4,-208(s0)
    5408:	00e686b3          	add	a3,a3,a4
    540c:	ee843703          	ld	a4,-280(s0)
    5410:	00c70733          	add	a4,a4,a2
    5414:	40e686bb          	subw	a3,a3,a4
    5418:	2406869b          	addiw	a3,a3,576
    541c:	40000737          	lui	a4,0x40000
    5420:	00001537          	lui	a0,0x1
    5424:	40a40533          	sub	a0,s0,a0
    5428:	4ad53423          	sd	a3,1192(a0) # 14a8 <.LBB71_4+0x2a8>
    542c:	0006d463          	bgez	a3,5434 <.LBB71_248>
    5430:	c0000737          	lui	a4,0xc0000

0000000000005434 <.LBB71_248>:
    5434:	00001537          	lui	a0,0x1
    5438:	40a40533          	sub	a0,s0,a0
    543c:	4ae53023          	sd	a4,1184(a0) # 14a0 <.LBB71_4+0x2a0>
    5440:	ac843683          	ld	a3,-1336(s0)
    5444:	f4043703          	ld	a4,-192(s0)
    5448:	00e686b3          	add	a3,a3,a4
    544c:	ef843703          	ld	a4,-264(s0)
    5450:	00c70733          	add	a4,a4,a2
    5454:	40e686bb          	subw	a3,a3,a4
    5458:	2406869b          	addiw	a3,a3,576
    545c:	40000737          	lui	a4,0x40000
    5460:	00001537          	lui	a0,0x1
    5464:	40a40533          	sub	a0,s0,a0
    5468:	4ad53c23          	sd	a3,1208(a0) # 14b8 <.LBB71_4+0x2b8>
    546c:	0006d463          	bgez	a3,5474 <.LBB71_250>
    5470:	c0000737          	lui	a4,0xc0000

0000000000005474 <.LBB71_250>:
    5474:	00001537          	lui	a0,0x1
    5478:	40a40533          	sub	a0,s0,a0
    547c:	4ae53823          	sd	a4,1200(a0) # 14b0 <.LBB71_4+0x2b0>
    5480:	ad043683          	ld	a3,-1328(s0)
    5484:	f5043703          	ld	a4,-176(s0)
    5488:	00e686b3          	add	a3,a3,a4
    548c:	f0843703          	ld	a4,-248(s0)
    5490:	00c70733          	add	a4,a4,a2
    5494:	40e686bb          	subw	a3,a3,a4
    5498:	2406869b          	addiw	a3,a3,576
    549c:	40000737          	lui	a4,0x40000
    54a0:	00001537          	lui	a0,0x1
    54a4:	40a40533          	sub	a0,s0,a0
    54a8:	4cd53423          	sd	a3,1224(a0) # 14c8 <.LBB71_4+0x2c8>
    54ac:	0006d463          	bgez	a3,54b4 <.LBB71_252>
    54b0:	c0000737          	lui	a4,0xc0000

00000000000054b4 <.LBB71_252>:
    54b4:	00001537          	lui	a0,0x1
    54b8:	40a40533          	sub	a0,s0,a0
    54bc:	4ce53023          	sd	a4,1216(a0) # 14c0 <.LBB71_4+0x2c0>
    54c0:	ad843683          	ld	a3,-1320(s0)
    54c4:	f6043703          	ld	a4,-160(s0)
    54c8:	00e686b3          	add	a3,a3,a4
    54cc:	f2843703          	ld	a4,-216(s0)
    54d0:	00c70733          	add	a4,a4,a2
    54d4:	40e686bb          	subw	a3,a3,a4
    54d8:	2406869b          	addiw	a3,a3,576
    54dc:	40000737          	lui	a4,0x40000
    54e0:	00001537          	lui	a0,0x1
    54e4:	40a40533          	sub	a0,s0,a0
    54e8:	4cd53c23          	sd	a3,1240(a0) # 14d8 <.LBB71_4+0x2d8>
    54ec:	0006d463          	bgez	a3,54f4 <.LBB71_254>
    54f0:	c0000737          	lui	a4,0xc0000

00000000000054f4 <.LBB71_254>:
    54f4:	00001537          	lui	a0,0x1
    54f8:	40a40533          	sub	a0,s0,a0
    54fc:	4ce53823          	sd	a4,1232(a0) # 14d0 <.LBB71_4+0x2d0>
    5500:	ae043683          	ld	a3,-1312(s0)
    5504:	f7043703          	ld	a4,-144(s0)
    5508:	00e686b3          	add	a3,a3,a4
    550c:	f3843703          	ld	a4,-200(s0)
    5510:	00c70733          	add	a4,a4,a2
    5514:	40e686bb          	subw	a3,a3,a4
    5518:	2406869b          	addiw	a3,a3,576
    551c:	40000737          	lui	a4,0x40000
    5520:	00001537          	lui	a0,0x1
    5524:	40a40533          	sub	a0,s0,a0
    5528:	4ed53423          	sd	a3,1256(a0) # 14e8 <.LBB71_4+0x2e8>
    552c:	0006d463          	bgez	a3,5534 <.LBB71_256>
    5530:	c0000737          	lui	a4,0xc0000

0000000000005534 <.LBB71_256>:
    5534:	00001537          	lui	a0,0x1
    5538:	40a40533          	sub	a0,s0,a0
    553c:	4ee53023          	sd	a4,1248(a0) # 14e0 <.LBB71_4+0x2e0>
    5540:	ae843683          	ld	a3,-1304(s0)
    5544:	f7843703          	ld	a4,-136(s0)
    5548:	00e686b3          	add	a3,a3,a4
    554c:	f4843703          	ld	a4,-184(s0)
    5550:	00c70733          	add	a4,a4,a2
    5554:	40e686bb          	subw	a3,a3,a4
    5558:	2406869b          	addiw	a3,a3,576
    555c:	40000737          	lui	a4,0x40000
    5560:	00001537          	lui	a0,0x1
    5564:	40a40533          	sub	a0,s0,a0
    5568:	4ed53c23          	sd	a3,1272(a0) # 14f8 <.LBB71_4+0x2f8>
    556c:	0006d463          	bgez	a3,5574 <.LBB71_258>
    5570:	c0000737          	lui	a4,0xc0000

0000000000005574 <.LBB71_258>:
    5574:	00001537          	lui	a0,0x1
    5578:	40a40533          	sub	a0,s0,a0
    557c:	4ee53823          	sd	a4,1264(a0) # 14f0 <.LBB71_4+0x2f0>
    5580:	f8043683          	ld	a3,-128(s0)
    5584:	00d886b3          	add	a3,a7,a3
    5588:	f5843703          	ld	a4,-168(s0)
    558c:	00c70733          	add	a4,a4,a2
    5590:	40e686bb          	subw	a3,a3,a4
    5594:	2406869b          	addiw	a3,a3,576
    5598:	400008b7          	lui	a7,0x40000
    559c:	00001537          	lui	a0,0x1
    55a0:	40a40533          	sub	a0,s0,a0
    55a4:	50d53023          	sd	a3,1280(a0) # 1500 <.LBB71_4+0x300>
    55a8:	0006d463          	bgez	a3,55b0 <.LBB71_260>
    55ac:	c00008b7          	lui	a7,0xc0000

00000000000055b0 <.LBB71_260>:
    55b0:	af843683          	ld	a3,-1288(s0)
    55b4:	f8843703          	ld	a4,-120(s0)
    55b8:	00e686b3          	add	a3,a3,a4
    55bc:	f6843703          	ld	a4,-152(s0)
    55c0:	00c70633          	add	a2,a4,a2
    55c4:	40c686bb          	subw	a3,a3,a2
    55c8:	2406861b          	addiw	a2,a3,576
    55cc:	400006b7          	lui	a3,0x40000
    55d0:	e5043703          	ld	a4,-432(s0)
    55d4:	00001537          	lui	a0,0x1
    55d8:	40a40533          	sub	a0,s0,a0
    55dc:	50c53823          	sd	a2,1296(a0) # 1510 <.LBB71_4+0x310>
    55e0:	00065463          	bgez	a2,55e8 <.LBB71_262>
    55e4:	c00006b7          	lui	a3,0xc0000

00000000000055e8 <.LBB71_262>:
    55e8:	00001537          	lui	a0,0x1
    55ec:	40a40533          	sub	a0,s0,a0
    55f0:	50d53423          	sd	a3,1288(a0) # 1508 <.LBB71_4+0x308>
    55f4:	00600613          	li	a2,6
    55f8:	00001537          	lui	a0,0x1
    55fc:	40a40533          	sub	a0,s0,a0
    5600:	60853503          	ld	a0,1544(a0) # 1608 <.LBB71_4+0x408>
    5604:	02c505b3          	mul	a1,a0,a2
    5608:	b0043603          	ld	a2,-1280(s0)
    560c:	00001537          	lui	a0,0x1
    5610:	40a40533          	sub	a0,s0,a0
    5614:	6c853683          	ld	a3,1736(a0) # 16c8 <.LBB71_4+0x4c8>
    5618:	00d60633          	add	a2,a2,a3
    561c:	00001537          	lui	a0,0x1
    5620:	40a40533          	sub	a0,s0,a0
    5624:	6c053683          	ld	a3,1728(a0) # 16c0 <.LBB71_4+0x4c0>
    5628:	00b686b3          	add	a3,a3,a1
    562c:	40d6063b          	subw	a2,a2,a3
    5630:	2406061b          	addiw	a2,a2,576
    5634:	400006b7          	lui	a3,0x40000
    5638:	00001537          	lui	a0,0x1
    563c:	40a40533          	sub	a0,s0,a0
    5640:	52c53023          	sd	a2,1312(a0) # 1520 <.LBB71_4+0x320>
    5644:	00065463          	bgez	a2,564c <.LBB71_264>
    5648:	c00006b7          	lui	a3,0xc0000

000000000000564c <.LBB71_264>:
    564c:	00001537          	lui	a0,0x1
    5650:	40a40533          	sub	a0,s0,a0
    5654:	50d53c23          	sd	a3,1304(a0) # 1518 <.LBB71_4+0x318>
    5658:	b0843603          	ld	a2,-1272(s0)
    565c:	00001537          	lui	a0,0x1
    5660:	40a40533          	sub	a0,s0,a0
    5664:	6b853683          	ld	a3,1720(a0) # 16b8 <.LBB71_4+0x4b8>
    5668:	00d60633          	add	a2,a2,a3
    566c:	00001537          	lui	a0,0x1
    5670:	40a40533          	sub	a0,s0,a0
    5674:	6b053683          	ld	a3,1712(a0) # 16b0 <.LBB71_4+0x4b0>
    5678:	00b686b3          	add	a3,a3,a1
    567c:	40d6063b          	subw	a2,a2,a3
    5680:	2406061b          	addiw	a2,a2,576
    5684:	400006b7          	lui	a3,0x40000
    5688:	00001537          	lui	a0,0x1
    568c:	40a40533          	sub	a0,s0,a0
    5690:	52c53823          	sd	a2,1328(a0) # 1530 <.LBB71_4+0x330>
    5694:	00065463          	bgez	a2,569c <.LBB71_266>
    5698:	c00006b7          	lui	a3,0xc0000

000000000000569c <.LBB71_266>:
    569c:	00001537          	lui	a0,0x1
    56a0:	40a40533          	sub	a0,s0,a0
    56a4:	52d53423          	sd	a3,1320(a0) # 1528 <.LBB71_4+0x328>
    56a8:	b1043603          	ld	a2,-1264(s0)
    56ac:	00001537          	lui	a0,0x1
    56b0:	40a40533          	sub	a0,s0,a0
    56b4:	6a853683          	ld	a3,1704(a0) # 16a8 <.LBB71_4+0x4a8>
    56b8:	00d60633          	add	a2,a2,a3
    56bc:	00001537          	lui	a0,0x1
    56c0:	40a40533          	sub	a0,s0,a0
    56c4:	6a053683          	ld	a3,1696(a0) # 16a0 <.LBB71_4+0x4a0>
    56c8:	00b686b3          	add	a3,a3,a1
    56cc:	40d6063b          	subw	a2,a2,a3
    56d0:	2406061b          	addiw	a2,a2,576
    56d4:	400006b7          	lui	a3,0x40000
    56d8:	00001537          	lui	a0,0x1
    56dc:	40a40533          	sub	a0,s0,a0
    56e0:	54c53023          	sd	a2,1344(a0) # 1540 <.LBB71_4+0x340>
    56e4:	00065463          	bgez	a2,56ec <.LBB71_268>
    56e8:	c00006b7          	lui	a3,0xc0000

00000000000056ec <.LBB71_268>:
    56ec:	00001537          	lui	a0,0x1
    56f0:	40a40533          	sub	a0,s0,a0
    56f4:	52d53c23          	sd	a3,1336(a0) # 1538 <.LBB71_4+0x338>
    56f8:	b1843603          	ld	a2,-1256(s0)
    56fc:	00001537          	lui	a0,0x1
    5700:	40a40533          	sub	a0,s0,a0
    5704:	69853683          	ld	a3,1688(a0) # 1698 <.LBB71_4+0x498>
    5708:	00d60633          	add	a2,a2,a3
    570c:	00001537          	lui	a0,0x1
    5710:	40a40533          	sub	a0,s0,a0
    5714:	69053683          	ld	a3,1680(a0) # 1690 <.LBB71_4+0x490>
    5718:	00b686b3          	add	a3,a3,a1
    571c:	40d6063b          	subw	a2,a2,a3
    5720:	2406061b          	addiw	a2,a2,576
    5724:	400006b7          	lui	a3,0x40000
    5728:	00001537          	lui	a0,0x1
    572c:	40a40533          	sub	a0,s0,a0
    5730:	54c53823          	sd	a2,1360(a0) # 1550 <.LBB71_4+0x350>
    5734:	00065463          	bgez	a2,573c <.LBB71_270>
    5738:	c00006b7          	lui	a3,0xc0000

000000000000573c <.LBB71_270>:
    573c:	00001537          	lui	a0,0x1
    5740:	40a40533          	sub	a0,s0,a0
    5744:	54d53423          	sd	a3,1352(a0) # 1548 <.LBB71_4+0x348>
    5748:	b2043603          	ld	a2,-1248(s0)
    574c:	00001537          	lui	a0,0x1
    5750:	40a40533          	sub	a0,s0,a0
    5754:	68853683          	ld	a3,1672(a0) # 1688 <.LBB71_4+0x488>
    5758:	00d60633          	add	a2,a2,a3
    575c:	00001537          	lui	a0,0x1
    5760:	40a40533          	sub	a0,s0,a0
    5764:	68053683          	ld	a3,1664(a0) # 1680 <.LBB71_4+0x480>
    5768:	00b686b3          	add	a3,a3,a1
    576c:	40d6063b          	subw	a2,a2,a3
    5770:	2406061b          	addiw	a2,a2,576
    5774:	400006b7          	lui	a3,0x40000
    5778:	00001537          	lui	a0,0x1
    577c:	40a40533          	sub	a0,s0,a0
    5780:	56c53023          	sd	a2,1376(a0) # 1560 <.LBB71_4+0x360>
    5784:	00065463          	bgez	a2,578c <.LBB71_272>
    5788:	c00006b7          	lui	a3,0xc0000

000000000000578c <.LBB71_272>:
    578c:	00001537          	lui	a0,0x1
    5790:	40a40533          	sub	a0,s0,a0
    5794:	54d53c23          	sd	a3,1368(a0) # 1558 <.LBB71_4+0x358>
    5798:	b2843603          	ld	a2,-1240(s0)
    579c:	00001537          	lui	a0,0x1
    57a0:	40a40533          	sub	a0,s0,a0
    57a4:	67853683          	ld	a3,1656(a0) # 1678 <.LBB71_4+0x478>
    57a8:	00d60633          	add	a2,a2,a3
    57ac:	00001537          	lui	a0,0x1
    57b0:	40a40533          	sub	a0,s0,a0
    57b4:	66853683          	ld	a3,1640(a0) # 1668 <.LBB71_4+0x468>
    57b8:	00b686b3          	add	a3,a3,a1
    57bc:	40d6063b          	subw	a2,a2,a3
    57c0:	2406061b          	addiw	a2,a2,576
    57c4:	400006b7          	lui	a3,0x40000
    57c8:	00001537          	lui	a0,0x1
    57cc:	40a40533          	sub	a0,s0,a0
    57d0:	56c53823          	sd	a2,1392(a0) # 1570 <.LBB71_4+0x370>
    57d4:	00065463          	bgez	a2,57dc <.LBB71_274>
    57d8:	c00006b7          	lui	a3,0xc0000

00000000000057dc <.LBB71_274>:
    57dc:	00001537          	lui	a0,0x1
    57e0:	40a40533          	sub	a0,s0,a0
    57e4:	56d53423          	sd	a3,1384(a0) # 1568 <.LBB71_4+0x368>
    57e8:	b3043603          	ld	a2,-1232(s0)
    57ec:	00001537          	lui	a0,0x1
    57f0:	40a40533          	sub	a0,s0,a0
    57f4:	66053683          	ld	a3,1632(a0) # 1660 <.LBB71_4+0x460>
    57f8:	00d60633          	add	a2,a2,a3
    57fc:	00001537          	lui	a0,0x1
    5800:	40a40533          	sub	a0,s0,a0
    5804:	65853683          	ld	a3,1624(a0) # 1658 <.LBB71_4+0x458>
    5808:	00b686b3          	add	a3,a3,a1
    580c:	40d6063b          	subw	a2,a2,a3
    5810:	2406061b          	addiw	a2,a2,576
    5814:	400006b7          	lui	a3,0x40000
    5818:	00001537          	lui	a0,0x1
    581c:	40a40533          	sub	a0,s0,a0
    5820:	58c53023          	sd	a2,1408(a0) # 1580 <.LBB71_4+0x380>
    5824:	00065463          	bgez	a2,582c <.LBB71_276>
    5828:	c00006b7          	lui	a3,0xc0000

000000000000582c <.LBB71_276>:
    582c:	00001537          	lui	a0,0x1
    5830:	40a40533          	sub	a0,s0,a0
    5834:	56d53c23          	sd	a3,1400(a0) # 1578 <.LBB71_4+0x378>
    5838:	b3843603          	ld	a2,-1224(s0)
    583c:	00001537          	lui	a0,0x1
    5840:	40a40533          	sub	a0,s0,a0
    5844:	65053683          	ld	a3,1616(a0) # 1650 <.LBB71_4+0x450>
    5848:	00d60633          	add	a2,a2,a3
    584c:	00001537          	lui	a0,0x1
    5850:	40a40533          	sub	a0,s0,a0
    5854:	64853683          	ld	a3,1608(a0) # 1648 <.LBB71_4+0x448>
    5858:	00b686b3          	add	a3,a3,a1
    585c:	40d6063b          	subw	a2,a2,a3
    5860:	2406061b          	addiw	a2,a2,576
    5864:	400006b7          	lui	a3,0x40000
    5868:	00001537          	lui	a0,0x1
    586c:	40a40533          	sub	a0,s0,a0
    5870:	58c53823          	sd	a2,1424(a0) # 1590 <.LBB71_4+0x390>
    5874:	00065463          	bgez	a2,587c <.LBB71_278>
    5878:	c00006b7          	lui	a3,0xc0000

000000000000587c <.LBB71_278>:
    587c:	00001537          	lui	a0,0x1
    5880:	40a40533          	sub	a0,s0,a0
    5884:	58d53423          	sd	a3,1416(a0) # 1588 <.LBB71_4+0x388>
    5888:	b4043603          	ld	a2,-1216(s0)
    588c:	00001537          	lui	a0,0x1
    5890:	40a40533          	sub	a0,s0,a0
    5894:	64053683          	ld	a3,1600(a0) # 1640 <.LBB71_4+0x440>
    5898:	00d60633          	add	a2,a2,a3
    589c:	00001537          	lui	a0,0x1
    58a0:	40a40533          	sub	a0,s0,a0
    58a4:	63853683          	ld	a3,1592(a0) # 1638 <.LBB71_4+0x438>
    58a8:	00b686b3          	add	a3,a3,a1
    58ac:	40d6063b          	subw	a2,a2,a3
    58b0:	2406061b          	addiw	a2,a2,576
    58b4:	400006b7          	lui	a3,0x40000
    58b8:	00001537          	lui	a0,0x1
    58bc:	40a40533          	sub	a0,s0,a0
    58c0:	5ac53023          	sd	a2,1440(a0) # 15a0 <.LBB71_4+0x3a0>
    58c4:	00065463          	bgez	a2,58cc <.LBB71_280>
    58c8:	c00006b7          	lui	a3,0xc0000

00000000000058cc <.LBB71_280>:
    58cc:	00001537          	lui	a0,0x1
    58d0:	40a40533          	sub	a0,s0,a0
    58d4:	58d53c23          	sd	a3,1432(a0) # 1598 <.LBB71_4+0x398>
    58d8:	b4843603          	ld	a2,-1208(s0)
    58dc:	00001537          	lui	a0,0x1
    58e0:	40a40533          	sub	a0,s0,a0
    58e4:	63053683          	ld	a3,1584(a0) # 1630 <.LBB71_4+0x430>
    58e8:	00d60633          	add	a2,a2,a3
    58ec:	00001537          	lui	a0,0x1
    58f0:	40a40533          	sub	a0,s0,a0
    58f4:	6f053683          	ld	a3,1776(a0) # 16f0 <.LBB71_4+0x4f0>
    58f8:	00b686b3          	add	a3,a3,a1
    58fc:	40d6063b          	subw	a2,a2,a3
    5900:	2406061b          	addiw	a2,a2,576
    5904:	400006b7          	lui	a3,0x40000
    5908:	00001537          	lui	a0,0x1
    590c:	40a40533          	sub	a0,s0,a0
    5910:	5ac53823          	sd	a2,1456(a0) # 15b0 <.LBB71_4+0x3b0>
    5914:	00065463          	bgez	a2,591c <.LBB71_282>
    5918:	c00006b7          	lui	a3,0xc0000

000000000000591c <.LBB71_282>:
    591c:	00001537          	lui	a0,0x1
    5920:	40a40533          	sub	a0,s0,a0
    5924:	5ad53423          	sd	a3,1448(a0) # 15a8 <.LBB71_4+0x3a8>
    5928:	b5043603          	ld	a2,-1200(s0)
    592c:	00001537          	lui	a0,0x1
    5930:	40a40533          	sub	a0,s0,a0
    5934:	6f853683          	ld	a3,1784(a0) # 16f8 <.LBB71_4+0x4f8>
    5938:	00d60633          	add	a2,a2,a3
    593c:	00001537          	lui	a0,0x1
    5940:	40a40533          	sub	a0,s0,a0
    5944:	6d053683          	ld	a3,1744(a0) # 16d0 <.LBB71_4+0x4d0>
    5948:	00b686b3          	add	a3,a3,a1
    594c:	40d6063b          	subw	a2,a2,a3
    5950:	2406061b          	addiw	a2,a2,576
    5954:	400006b7          	lui	a3,0x40000
    5958:	00001537          	lui	a0,0x1
    595c:	40a40533          	sub	a0,s0,a0
    5960:	5cc53023          	sd	a2,1472(a0) # 15c0 <.LBB71_4+0x3c0>
    5964:	00065463          	bgez	a2,596c <.LBB71_284>
    5968:	c00006b7          	lui	a3,0xc0000

000000000000596c <.LBB71_284>:
    596c:	00001537          	lui	a0,0x1
    5970:	40a40533          	sub	a0,s0,a0
    5974:	5ad53c23          	sd	a3,1464(a0) # 15b8 <.LBB71_4+0x3b8>
    5978:	b5843603          	ld	a2,-1192(s0)
    597c:	00001537          	lui	a0,0x1
    5980:	40a40533          	sub	a0,s0,a0
    5984:	70853683          	ld	a3,1800(a0) # 1708 <.LBB71_4+0x508>
    5988:	00d60633          	add	a2,a2,a3
    598c:	00001537          	lui	a0,0x1
    5990:	40a40533          	sub	a0,s0,a0
    5994:	6d853683          	ld	a3,1752(a0) # 16d8 <.LBB71_4+0x4d8>
    5998:	00b686b3          	add	a3,a3,a1
    599c:	40d6063b          	subw	a2,a2,a3
    59a0:	2406061b          	addiw	a2,a2,576
    59a4:	400006b7          	lui	a3,0x40000
    59a8:	00001537          	lui	a0,0x1
    59ac:	40a40533          	sub	a0,s0,a0
    59b0:	5cc53823          	sd	a2,1488(a0) # 15d0 <.LBB71_4+0x3d0>
    59b4:	00065463          	bgez	a2,59bc <.LBB71_286>
    59b8:	c00006b7          	lui	a3,0xc0000

00000000000059bc <.LBB71_286>:
    59bc:	00001537          	lui	a0,0x1
    59c0:	40a40533          	sub	a0,s0,a0
    59c4:	5cd53423          	sd	a3,1480(a0) # 15c8 <.LBB71_4+0x3c8>
    59c8:	b6043603          	ld	a2,-1184(s0)
    59cc:	00001537          	lui	a0,0x1
    59d0:	40a40533          	sub	a0,s0,a0
    59d4:	71853683          	ld	a3,1816(a0) # 1718 <.LBB71_4+0x518>
    59d8:	00d60633          	add	a2,a2,a3
    59dc:	00001537          	lui	a0,0x1
    59e0:	40a40533          	sub	a0,s0,a0
    59e4:	6e053683          	ld	a3,1760(a0) # 16e0 <.LBB71_4+0x4e0>
    59e8:	00b686b3          	add	a3,a3,a1
    59ec:	40d6063b          	subw	a2,a2,a3
    59f0:	2406061b          	addiw	a2,a2,576
    59f4:	400006b7          	lui	a3,0x40000
    59f8:	00001537          	lui	a0,0x1
    59fc:	40a40533          	sub	a0,s0,a0
    5a00:	5ec53023          	sd	a2,1504(a0) # 15e0 <.LBB71_4+0x3e0>
    5a04:	00065463          	bgez	a2,5a0c <.LBB71_288>
    5a08:	c00006b7          	lui	a3,0xc0000

0000000000005a0c <.LBB71_288>:
    5a0c:	00001537          	lui	a0,0x1
    5a10:	40a40533          	sub	a0,s0,a0
    5a14:	5cd53c23          	sd	a3,1496(a0) # 15d8 <.LBB71_4+0x3d8>
    5a18:	b6843603          	ld	a2,-1176(s0)
    5a1c:	00001537          	lui	a0,0x1
    5a20:	40a40533          	sub	a0,s0,a0
    5a24:	72853683          	ld	a3,1832(a0) # 1728 <.LBB71_4+0x528>
    5a28:	00d60633          	add	a2,a2,a3
    5a2c:	00001537          	lui	a0,0x1
    5a30:	40a40533          	sub	a0,s0,a0
    5a34:	6e853683          	ld	a3,1768(a0) # 16e8 <.LBB71_4+0x4e8>
    5a38:	00b686b3          	add	a3,a3,a1
    5a3c:	40d6063b          	subw	a2,a2,a3
    5a40:	2406061b          	addiw	a2,a2,576
    5a44:	400006b7          	lui	a3,0x40000
    5a48:	00001537          	lui	a0,0x1
    5a4c:	40a40533          	sub	a0,s0,a0
    5a50:	5ec53823          	sd	a2,1520(a0) # 15f0 <.LBB71_4+0x3f0>
    5a54:	00065463          	bgez	a2,5a5c <.LBB71_290>
    5a58:	c00006b7          	lui	a3,0xc0000

0000000000005a5c <.LBB71_290>:
    5a5c:	00001537          	lui	a0,0x1
    5a60:	40a40533          	sub	a0,s0,a0
    5a64:	5ed53423          	sd	a3,1512(a0) # 15e8 <.LBB71_4+0x3e8>
    5a68:	b7043603          	ld	a2,-1168(s0)
    5a6c:	e8043683          	ld	a3,-384(s0)
    5a70:	00d60633          	add	a2,a2,a3
    5a74:	00001537          	lui	a0,0x1
    5a78:	40a40533          	sub	a0,s0,a0
    5a7c:	70053683          	ld	a3,1792(a0) # 1700 <.LBB71_4+0x500>
    5a80:	00b686b3          	add	a3,a3,a1
    5a84:	40d6063b          	subw	a2,a2,a3
    5a88:	2406061b          	addiw	a2,a2,576
    5a8c:	400006b7          	lui	a3,0x40000
    5a90:	00001537          	lui	a0,0x1
    5a94:	40a40533          	sub	a0,s0,a0
    5a98:	60c53023          	sd	a2,1536(a0) # 1600 <.LBB71_4+0x400>
    5a9c:	00065463          	bgez	a2,5aa4 <.LBB71_292>
    5aa0:	c00006b7          	lui	a3,0xc0000

0000000000005aa4 <.LBB71_292>:
    5aa4:	00001537          	lui	a0,0x1
    5aa8:	40a40533          	sub	a0,s0,a0
    5aac:	5ed53c23          	sd	a3,1528(a0) # 15f8 <.LBB71_4+0x3f8>
    5ab0:	b7843603          	ld	a2,-1160(s0)
    5ab4:	e9043683          	ld	a3,-368(s0)
    5ab8:	00d60633          	add	a2,a2,a3
    5abc:	00001537          	lui	a0,0x1
    5ac0:	40a40533          	sub	a0,s0,a0
    5ac4:	71053683          	ld	a3,1808(a0) # 1710 <.LBB71_4+0x510>
    5ac8:	00b686b3          	add	a3,a3,a1
    5acc:	40d6063b          	subw	a2,a2,a3
    5ad0:	2406061b          	addiw	a2,a2,576
    5ad4:	400006b7          	lui	a3,0x40000
    5ad8:	00001537          	lui	a0,0x1
    5adc:	40a40533          	sub	a0,s0,a0
    5ae0:	72c53823          	sd	a2,1840(a0) # 1730 <.LBB71_4+0x530>
    5ae4:	00065463          	bgez	a2,5aec <.LBB71_294>
    5ae8:	c00006b7          	lui	a3,0xc0000

0000000000005aec <.LBB71_294>:
    5aec:	00001537          	lui	a0,0x1
    5af0:	40a40533          	sub	a0,s0,a0
    5af4:	60d53423          	sd	a3,1544(a0) # 1608 <.LBB71_4+0x408>
    5af8:	b8043603          	ld	a2,-1152(s0)
    5afc:	ea043683          	ld	a3,-352(s0)
    5b00:	00d60633          	add	a2,a2,a3
    5b04:	00001537          	lui	a0,0x1
    5b08:	40a40533          	sub	a0,s0,a0
    5b0c:	72053683          	ld	a3,1824(a0) # 1720 <.LBB71_4+0x520>
    5b10:	00b686b3          	add	a3,a3,a1
    5b14:	40d6063b          	subw	a2,a2,a3
    5b18:	2406061b          	addiw	a2,a2,576
    5b1c:	400006b7          	lui	a3,0x40000
    5b20:	00001537          	lui	a0,0x1
    5b24:	40a40533          	sub	a0,s0,a0
    5b28:	74c53023          	sd	a2,1856(a0) # 1740 <.LBB71_5+0xc>
    5b2c:	00065463          	bgez	a2,5b34 <.LBB71_296>
    5b30:	c00006b7          	lui	a3,0xc0000

0000000000005b34 <.LBB71_296>:
    5b34:	00001537          	lui	a0,0x1
    5b38:	40a40533          	sub	a0,s0,a0
    5b3c:	72d53c23          	sd	a3,1848(a0) # 1738 <.LBB71_5+0x4>
    5b40:	b8843603          	ld	a2,-1144(s0)
    5b44:	eb043683          	ld	a3,-336(s0)
    5b48:	00d60633          	add	a2,a2,a3
    5b4c:	e7843683          	ld	a3,-392(s0)
    5b50:	00b686b3          	add	a3,a3,a1
    5b54:	40d6063b          	subw	a2,a2,a3
    5b58:	2406061b          	addiw	a2,a2,576
    5b5c:	400006b7          	lui	a3,0x40000
    5b60:	00001537          	lui	a0,0x1
    5b64:	40a40533          	sub	a0,s0,a0
    5b68:	74c53c23          	sd	a2,1880(a0) # 1758 <.LBB71_5+0x24>
    5b6c:	00065463          	bgez	a2,5b74 <.LBB71_298>
    5b70:	c00006b7          	lui	a3,0xc0000

0000000000005b74 <.LBB71_298>:
    5b74:	00001537          	lui	a0,0x1
    5b78:	40a40533          	sub	a0,s0,a0
    5b7c:	74d53823          	sd	a3,1872(a0) # 1750 <.LBB71_5+0x1c>
    5b80:	b9043603          	ld	a2,-1136(s0)
    5b84:	ec043683          	ld	a3,-320(s0)
    5b88:	00d60633          	add	a2,a2,a3
    5b8c:	e8843683          	ld	a3,-376(s0)
    5b90:	00b686b3          	add	a3,a3,a1
    5b94:	40d6063b          	subw	a2,a2,a3
    5b98:	2406061b          	addiw	a2,a2,576
    5b9c:	400006b7          	lui	a3,0x40000
    5ba0:	00001537          	lui	a0,0x1
    5ba4:	40a40533          	sub	a0,s0,a0
    5ba8:	76c53423          	sd	a2,1896(a0) # 1768 <.LBB71_5+0x34>
    5bac:	00065463          	bgez	a2,5bb4 <.LBB71_300>
    5bb0:	c00006b7          	lui	a3,0xc0000

0000000000005bb4 <.LBB71_300>:
    5bb4:	00001537          	lui	a0,0x1
    5bb8:	40a40533          	sub	a0,s0,a0
    5bbc:	76d53023          	sd	a3,1888(a0) # 1760 <.LBB71_5+0x2c>
    5bc0:	b9843603          	ld	a2,-1128(s0)
    5bc4:	ed043683          	ld	a3,-304(s0)
    5bc8:	00d60633          	add	a2,a2,a3
    5bcc:	e9843683          	ld	a3,-360(s0)
    5bd0:	00b686b3          	add	a3,a3,a1
    5bd4:	40d6063b          	subw	a2,a2,a3
    5bd8:	2406061b          	addiw	a2,a2,576
    5bdc:	400006b7          	lui	a3,0x40000
    5be0:	00001537          	lui	a0,0x1
    5be4:	40a40533          	sub	a0,s0,a0
    5be8:	76c53c23          	sd	a2,1912(a0) # 1778 <.LBB71_5+0x44>
    5bec:	00065463          	bgez	a2,5bf4 <.LBB71_302>
    5bf0:	c00006b7          	lui	a3,0xc0000

0000000000005bf4 <.LBB71_302>:
    5bf4:	00001537          	lui	a0,0x1
    5bf8:	40a40533          	sub	a0,s0,a0
    5bfc:	76d53823          	sd	a3,1904(a0) # 1770 <.LBB71_5+0x3c>
    5c00:	ba043603          	ld	a2,-1120(s0)
    5c04:	ee043683          	ld	a3,-288(s0)
    5c08:	00d60633          	add	a2,a2,a3
    5c0c:	ea843683          	ld	a3,-344(s0)
    5c10:	00b686b3          	add	a3,a3,a1
    5c14:	40d6063b          	subw	a2,a2,a3
    5c18:	2406061b          	addiw	a2,a2,576
    5c1c:	400006b7          	lui	a3,0x40000
    5c20:	00001537          	lui	a0,0x1
    5c24:	40a40533          	sub	a0,s0,a0
    5c28:	78c53823          	sd	a2,1936(a0) # 1790 <.LBB71_5+0x5c>
    5c2c:	00065463          	bgez	a2,5c34 <.LBB71_304>
    5c30:	c00006b7          	lui	a3,0xc0000

0000000000005c34 <.LBB71_304>:
    5c34:	00001537          	lui	a0,0x1
    5c38:	40a40533          	sub	a0,s0,a0
    5c3c:	78d53023          	sd	a3,1920(a0) # 1780 <.LBB71_5+0x4c>
    5c40:	ba843603          	ld	a2,-1112(s0)
    5c44:	ef043683          	ld	a3,-272(s0)
    5c48:	00d60633          	add	a2,a2,a3
    5c4c:	eb843683          	ld	a3,-328(s0)
    5c50:	00b686b3          	add	a3,a3,a1
    5c54:	40d6063b          	subw	a2,a2,a3
    5c58:	2406061b          	addiw	a2,a2,576
    5c5c:	400006b7          	lui	a3,0x40000
    5c60:	00001537          	lui	a0,0x1
    5c64:	40a40533          	sub	a0,s0,a0
    5c68:	7ac53023          	sd	a2,1952(a0) # 17a0 <.LBB71_5+0x6c>
    5c6c:	00065463          	bgez	a2,5c74 <.LBB71_306>
    5c70:	c00006b7          	lui	a3,0xc0000

0000000000005c74 <.LBB71_306>:
    5c74:	00001537          	lui	a0,0x1
    5c78:	40a40533          	sub	a0,s0,a0
    5c7c:	78d53c23          	sd	a3,1944(a0) # 1798 <.LBB71_5+0x64>
    5c80:	bb043603          	ld	a2,-1104(s0)
    5c84:	f0043683          	ld	a3,-256(s0)
    5c88:	00d60633          	add	a2,a2,a3
    5c8c:	ec843683          	ld	a3,-312(s0)
    5c90:	00b686b3          	add	a3,a3,a1
    5c94:	40d6063b          	subw	a2,a2,a3
    5c98:	2406061b          	addiw	a2,a2,576
    5c9c:	400006b7          	lui	a3,0x40000
    5ca0:	00001537          	lui	a0,0x1
    5ca4:	40a40533          	sub	a0,s0,a0
    5ca8:	7ac53823          	sd	a2,1968(a0) # 17b0 <.LBB71_5+0x7c>
    5cac:	00065463          	bgez	a2,5cb4 <.LBB71_308>
    5cb0:	c00006b7          	lui	a3,0xc0000

0000000000005cb4 <.LBB71_308>:
    5cb4:	00001537          	lui	a0,0x1
    5cb8:	40a40533          	sub	a0,s0,a0
    5cbc:	7ad53423          	sd	a3,1960(a0) # 17a8 <.LBB71_5+0x74>
    5cc0:	bb843603          	ld	a2,-1096(s0)
    5cc4:	f2043683          	ld	a3,-224(s0)
    5cc8:	00d60633          	add	a2,a2,a3
    5ccc:	ed843683          	ld	a3,-296(s0)
    5cd0:	00b686b3          	add	a3,a3,a1
    5cd4:	40d6063b          	subw	a2,a2,a3
    5cd8:	2406061b          	addiw	a2,a2,576
    5cdc:	400006b7          	lui	a3,0x40000
    5ce0:	00001537          	lui	a0,0x1
    5ce4:	40a40533          	sub	a0,s0,a0
    5ce8:	7cc53023          	sd	a2,1984(a0) # 17c0 <.LBB71_5+0x8c>
    5cec:	00065463          	bgez	a2,5cf4 <.LBB71_310>
    5cf0:	c00006b7          	lui	a3,0xc0000

0000000000005cf4 <.LBB71_310>:
    5cf4:	00001537          	lui	a0,0x1
    5cf8:	40a40533          	sub	a0,s0,a0
    5cfc:	7ad53c23          	sd	a3,1976(a0) # 17b8 <.LBB71_5+0x84>
    5d00:	bc043603          	ld	a2,-1088(s0)
    5d04:	f3043683          	ld	a3,-208(s0)
    5d08:	00d60633          	add	a2,a2,a3
    5d0c:	ee843683          	ld	a3,-280(s0)
    5d10:	00b686b3          	add	a3,a3,a1
    5d14:	40d6063b          	subw	a2,a2,a3
    5d18:	2406061b          	addiw	a2,a2,576
    5d1c:	400006b7          	lui	a3,0x40000
    5d20:	00001537          	lui	a0,0x1
    5d24:	40a40533          	sub	a0,s0,a0
    5d28:	7cc53823          	sd	a2,2000(a0) # 17d0 <.LBB71_5+0x9c>
    5d2c:	00065463          	bgez	a2,5d34 <.LBB71_312>
    5d30:	c00006b7          	lui	a3,0xc0000

0000000000005d34 <.LBB71_312>:
    5d34:	00001537          	lui	a0,0x1
    5d38:	40a40533          	sub	a0,s0,a0
    5d3c:	7cd53423          	sd	a3,1992(a0) # 17c8 <.LBB71_5+0x94>
    5d40:	bc843603          	ld	a2,-1080(s0)
    5d44:	f4043683          	ld	a3,-192(s0)
    5d48:	00d60633          	add	a2,a2,a3
    5d4c:	ef843683          	ld	a3,-264(s0)
    5d50:	00b686b3          	add	a3,a3,a1
    5d54:	40d6063b          	subw	a2,a2,a3
    5d58:	2406061b          	addiw	a2,a2,576
    5d5c:	400006b7          	lui	a3,0x40000
    5d60:	00001537          	lui	a0,0x1
    5d64:	40a40533          	sub	a0,s0,a0
    5d68:	7ec53023          	sd	a2,2016(a0) # 17e0 <.LBB71_5+0xac>
    5d6c:	00065463          	bgez	a2,5d74 <.LBB71_314>
    5d70:	c00006b7          	lui	a3,0xc0000

0000000000005d74 <.LBB71_314>:
    5d74:	00001537          	lui	a0,0x1
    5d78:	40a40533          	sub	a0,s0,a0
    5d7c:	7cd53c23          	sd	a3,2008(a0) # 17d8 <.LBB71_5+0xa4>
    5d80:	bd043603          	ld	a2,-1072(s0)
    5d84:	f5043683          	ld	a3,-176(s0)
    5d88:	00d60633          	add	a2,a2,a3
    5d8c:	f0843683          	ld	a3,-248(s0)
    5d90:	00b686b3          	add	a3,a3,a1
    5d94:	40d6063b          	subw	a2,a2,a3
    5d98:	2406061b          	addiw	a2,a2,576
    5d9c:	400006b7          	lui	a3,0x40000
    5da0:	00001537          	lui	a0,0x1
    5da4:	40a40533          	sub	a0,s0,a0
    5da8:	7ec53823          	sd	a2,2032(a0) # 17f0 <.LBB71_5+0xbc>
    5dac:	00065463          	bgez	a2,5db4 <.LBB71_316>
    5db0:	c00006b7          	lui	a3,0xc0000

0000000000005db4 <.LBB71_316>:
    5db4:	00001537          	lui	a0,0x1
    5db8:	40a40533          	sub	a0,s0,a0
    5dbc:	7ed53423          	sd	a3,2024(a0) # 17e8 <.LBB71_5+0xb4>
    5dc0:	bd843603          	ld	a2,-1064(s0)
    5dc4:	f6043683          	ld	a3,-160(s0)
    5dc8:	00d60633          	add	a2,a2,a3
    5dcc:	f2843683          	ld	a3,-216(s0)
    5dd0:	00b686b3          	add	a3,a3,a1
    5dd4:	40d6063b          	subw	a2,a2,a3
    5dd8:	2406061b          	addiw	a2,a2,576
    5ddc:	400006b7          	lui	a3,0x40000
    5de0:	80c43023          	sd	a2,-2048(s0)
    5de4:	00065463          	bgez	a2,5dec <.LBB71_318>
    5de8:	c00006b7          	lui	a3,0xc0000

0000000000005dec <.LBB71_318>:
    5dec:	00001537          	lui	a0,0x1
    5df0:	40a40533          	sub	a0,s0,a0
    5df4:	7ed53c23          	sd	a3,2040(a0) # 17f8 <.LBB71_5+0xc4>
    5df8:	f7043603          	ld	a2,-144(s0)
    5dfc:	00cd0633          	add	a2,s10,a2
    5e00:	f3843683          	ld	a3,-200(s0)
    5e04:	00b686b3          	add	a3,a3,a1
    5e08:	40d6063b          	subw	a2,a2,a3
    5e0c:	2406061b          	addiw	a2,a2,576
    5e10:	400006b7          	lui	a3,0x40000
    5e14:	80c43c23          	sd	a2,-2024(s0)
    5e18:	00065463          	bgez	a2,5e20 <.LBB71_320>
    5e1c:	c00006b7          	lui	a3,0xc0000

0000000000005e20 <.LBB71_320>:
    5e20:	80d43823          	sd	a3,-2032(s0)
    5e24:	f7843603          	ld	a2,-136(s0)
    5e28:	00c28633          	add	a2,t0,a2
    5e2c:	f4843683          	ld	a3,-184(s0)
    5e30:	00b686b3          	add	a3,a3,a1
    5e34:	40d6063b          	subw	a2,a2,a3
    5e38:	2406061b          	addiw	a2,a2,576
    5e3c:	400006b7          	lui	a3,0x40000
    5e40:	82c43423          	sd	a2,-2008(s0)
    5e44:	00065463          	bgez	a2,5e4c <.LBB71_322>
    5e48:	c00006b7          	lui	a3,0xc0000

0000000000005e4c <.LBB71_322>:
    5e4c:	82d43023          	sd	a3,-2016(s0)
    5e50:	f8043603          	ld	a2,-128(s0)
    5e54:	00cb0633          	add	a2,s6,a2
    5e58:	f5843683          	ld	a3,-168(s0)
    5e5c:	00b686b3          	add	a3,a3,a1
    5e60:	40d6063b          	subw	a2,a2,a3
    5e64:	2406061b          	addiw	a2,a2,576
    5e68:	400006b7          	lui	a3,0x40000
    5e6c:	82c43c23          	sd	a2,-1992(s0)
    5e70:	00065463          	bgez	a2,5e78 <.LBB71_324>
    5e74:	c00006b7          	lui	a3,0xc0000

0000000000005e78 <.LBB71_324>:
    5e78:	82d43823          	sd	a3,-2000(s0)
    5e7c:	f8843603          	ld	a2,-120(s0)
    5e80:	00ca8633          	add	a2,s5,a2
    5e84:	f6843683          	ld	a3,-152(s0)
    5e88:	00b685b3          	add	a1,a3,a1
    5e8c:	40b6063b          	subw	a2,a2,a1
    5e90:	2406059b          	addiw	a1,a2,576
    5e94:	40000637          	lui	a2,0x40000
    5e98:	e6043a83          	ld	s5,-416(s0)
    5e9c:	e5843b03          	ld	s6,-424(s0)
    5ea0:	e6843d03          	ld	s10,-408(s0)
    5ea4:	e7043683          	ld	a3,-400(s0)
    5ea8:	84b43c23          	sd	a1,-1960(s0)
    5eac:	0005d463          	bgez	a1,5eb4 <.LBB71_326>
    5eb0:	c0000637          	lui	a2,0xc0000

0000000000005eb4 <.LBB71_326>:
    5eb4:	84c43423          	sd	a2,-1976(s0)
    5eb8:	00600593          	li	a1,6
    5ebc:	00001537          	lui	a0,0x1
    5ec0:	40a40533          	sub	a0,s0,a0
    5ec4:	d2053503          	ld	a0,-736(a0) # d20 <.LBB71_3+0xaa8>
    5ec8:	02b50533          	mul	a0,a0,a1
    5ecc:	bf843583          	ld	a1,-1032(s0)
    5ed0:	00001637          	lui	a2,0x1
    5ed4:	40c40633          	sub	a2,s0,a2
    5ed8:	6c863603          	ld	a2,1736(a2) # 16c8 <.LBB71_4+0x4c8>
    5edc:	00c585b3          	add	a1,a1,a2
    5ee0:	00001637          	lui	a2,0x1
    5ee4:	40c40633          	sub	a2,s0,a2
    5ee8:	6c063603          	ld	a2,1728(a2) # 16c0 <.LBB71_4+0x4c0>
    5eec:	00a60633          	add	a2,a2,a0
    5ef0:	40c585bb          	subw	a1,a1,a2
    5ef4:	2405859b          	addiw	a1,a1,576
    5ef8:	40000637          	lui	a2,0x40000
    5efc:	86b43423          	sd	a1,-1944(s0)
    5f00:	0005d463          	bgez	a1,5f08 <.LBB71_328>
    5f04:	c0000637          	lui	a2,0xc0000

0000000000005f08 <.LBB71_328>:
    5f08:	86c43023          	sd	a2,-1952(s0)
    5f0c:	c0043583          	ld	a1,-1024(s0)
    5f10:	00001637          	lui	a2,0x1
    5f14:	40c40633          	sub	a2,s0,a2
    5f18:	6b863603          	ld	a2,1720(a2) # 16b8 <.LBB71_4+0x4b8>
    5f1c:	00c585b3          	add	a1,a1,a2
    5f20:	00001637          	lui	a2,0x1
    5f24:	40c40633          	sub	a2,s0,a2
    5f28:	6b063603          	ld	a2,1712(a2) # 16b0 <.LBB71_4+0x4b0>
    5f2c:	00a60633          	add	a2,a2,a0
    5f30:	40c585bb          	subw	a1,a1,a2
    5f34:	2405859b          	addiw	a1,a1,576
    5f38:	40000637          	lui	a2,0x40000
    5f3c:	86b43c23          	sd	a1,-1928(s0)
    5f40:	0005d463          	bgez	a1,5f48 <.LBB71_330>
    5f44:	c0000637          	lui	a2,0xc0000

0000000000005f48 <.LBB71_330>:
    5f48:	86c43823          	sd	a2,-1936(s0)
    5f4c:	c0843583          	ld	a1,-1016(s0)
    5f50:	00001637          	lui	a2,0x1
    5f54:	40c40633          	sub	a2,s0,a2
    5f58:	6a863603          	ld	a2,1704(a2) # 16a8 <.LBB71_4+0x4a8>
    5f5c:	00c585b3          	add	a1,a1,a2
    5f60:	00001637          	lui	a2,0x1
    5f64:	40c40633          	sub	a2,s0,a2
    5f68:	6a063603          	ld	a2,1696(a2) # 16a0 <.LBB71_4+0x4a0>
    5f6c:	00a60633          	add	a2,a2,a0
    5f70:	40c585bb          	subw	a1,a1,a2
    5f74:	2405859b          	addiw	a1,a1,576
    5f78:	40000637          	lui	a2,0x40000
    5f7c:	88b43423          	sd	a1,-1912(s0)
    5f80:	0005d463          	bgez	a1,5f88 <.LBB71_332>
    5f84:	c0000637          	lui	a2,0xc0000

0000000000005f88 <.LBB71_332>:
    5f88:	88c43023          	sd	a2,-1920(s0)
    5f8c:	c1043583          	ld	a1,-1008(s0)
    5f90:	00001637          	lui	a2,0x1
    5f94:	40c40633          	sub	a2,s0,a2
    5f98:	69863603          	ld	a2,1688(a2) # 1698 <.LBB71_4+0x498>
    5f9c:	00c585b3          	add	a1,a1,a2
    5fa0:	00001637          	lui	a2,0x1
    5fa4:	40c40633          	sub	a2,s0,a2
    5fa8:	69063603          	ld	a2,1680(a2) # 1690 <.LBB71_4+0x490>
    5fac:	00a60633          	add	a2,a2,a0
    5fb0:	40c585bb          	subw	a1,a1,a2
    5fb4:	2405859b          	addiw	a1,a1,576
    5fb8:	40000637          	lui	a2,0x40000
    5fbc:	8ab43023          	sd	a1,-1888(s0)
    5fc0:	0005d463          	bgez	a1,5fc8 <.LBB71_334>
    5fc4:	c0000637          	lui	a2,0xc0000

0000000000005fc8 <.LBB71_334>:
    5fc8:	88c43823          	sd	a2,-1904(s0)
    5fcc:	c1843583          	ld	a1,-1000(s0)
    5fd0:	00001637          	lui	a2,0x1
    5fd4:	40c40633          	sub	a2,s0,a2
    5fd8:	68863603          	ld	a2,1672(a2) # 1688 <.LBB71_4+0x488>
    5fdc:	00c585b3          	add	a1,a1,a2
    5fe0:	00001637          	lui	a2,0x1
    5fe4:	40c40633          	sub	a2,s0,a2
    5fe8:	68063603          	ld	a2,1664(a2) # 1680 <.LBB71_4+0x480>
    5fec:	00a60633          	add	a2,a2,a0
    5ff0:	40c585bb          	subw	a1,a1,a2
    5ff4:	2405859b          	addiw	a1,a1,576
    5ff8:	40000637          	lui	a2,0x40000
    5ffc:	8ab43823          	sd	a1,-1872(s0)
    6000:	0005d463          	bgez	a1,6008 <.LBB71_336>
    6004:	c0000637          	lui	a2,0xc0000

0000000000006008 <.LBB71_336>:
    6008:	8ac43423          	sd	a2,-1880(s0)
    600c:	c2043583          	ld	a1,-992(s0)
    6010:	00001637          	lui	a2,0x1
    6014:	40c40633          	sub	a2,s0,a2
    6018:	67863603          	ld	a2,1656(a2) # 1678 <.LBB71_4+0x478>
    601c:	00c585b3          	add	a1,a1,a2
    6020:	00001637          	lui	a2,0x1
    6024:	40c40633          	sub	a2,s0,a2
    6028:	66863603          	ld	a2,1640(a2) # 1668 <.LBB71_4+0x468>
    602c:	00a60633          	add	a2,a2,a0
    6030:	40c585bb          	subw	a1,a1,a2
    6034:	2405859b          	addiw	a1,a1,576
    6038:	40000637          	lui	a2,0x40000
    603c:	8cb43023          	sd	a1,-1856(s0)
    6040:	0005d463          	bgez	a1,6048 <.LBB71_338>
    6044:	c0000637          	lui	a2,0xc0000

0000000000006048 <.LBB71_338>:
    6048:	8ac43c23          	sd	a2,-1864(s0)
    604c:	c2843583          	ld	a1,-984(s0)
    6050:	00001637          	lui	a2,0x1
    6054:	40c40633          	sub	a2,s0,a2
    6058:	66063603          	ld	a2,1632(a2) # 1660 <.LBB71_4+0x460>
    605c:	00c585b3          	add	a1,a1,a2
    6060:	00001637          	lui	a2,0x1
    6064:	40c40633          	sub	a2,s0,a2
    6068:	65863603          	ld	a2,1624(a2) # 1658 <.LBB71_4+0x458>
    606c:	00a60633          	add	a2,a2,a0
    6070:	40c585bb          	subw	a1,a1,a2
    6074:	2405859b          	addiw	a1,a1,576
    6078:	40000637          	lui	a2,0x40000
    607c:	8cb43823          	sd	a1,-1840(s0)
    6080:	0005d463          	bgez	a1,6088 <.LBB71_340>
    6084:	c0000637          	lui	a2,0xc0000

0000000000006088 <.LBB71_340>:
    6088:	8cc43423          	sd	a2,-1848(s0)
    608c:	c3043583          	ld	a1,-976(s0)
    6090:	00001637          	lui	a2,0x1
    6094:	40c40633          	sub	a2,s0,a2
    6098:	65063603          	ld	a2,1616(a2) # 1650 <.LBB71_4+0x450>
    609c:	00c585b3          	add	a1,a1,a2
    60a0:	00001637          	lui	a2,0x1
    60a4:	40c40633          	sub	a2,s0,a2
    60a8:	64863603          	ld	a2,1608(a2) # 1648 <.LBB71_4+0x448>
    60ac:	00a60633          	add	a2,a2,a0
    60b0:	40c585bb          	subw	a1,a1,a2
    60b4:	2405859b          	addiw	a1,a1,576
    60b8:	40000637          	lui	a2,0x40000
    60bc:	8eb43423          	sd	a1,-1816(s0)
    60c0:	0005d463          	bgez	a1,60c8 <.LBB71_342>
    60c4:	c0000637          	lui	a2,0xc0000

00000000000060c8 <.LBB71_342>:
    60c8:	8ec43023          	sd	a2,-1824(s0)
    60cc:	c3843583          	ld	a1,-968(s0)
    60d0:	00001637          	lui	a2,0x1
    60d4:	40c40633          	sub	a2,s0,a2
    60d8:	64063603          	ld	a2,1600(a2) # 1640 <.LBB71_4+0x440>
    60dc:	00c585b3          	add	a1,a1,a2
    60e0:	00001637          	lui	a2,0x1
    60e4:	40c40633          	sub	a2,s0,a2
    60e8:	63863603          	ld	a2,1592(a2) # 1638 <.LBB71_4+0x438>
    60ec:	00a60633          	add	a2,a2,a0
    60f0:	40c585bb          	subw	a1,a1,a2
    60f4:	2405859b          	addiw	a1,a1,576
    60f8:	40000637          	lui	a2,0x40000
    60fc:	8eb43c23          	sd	a1,-1800(s0)
    6100:	0005d463          	bgez	a1,6108 <.LBB71_344>
    6104:	c0000637          	lui	a2,0xc0000

0000000000006108 <.LBB71_344>:
    6108:	8ec43823          	sd	a2,-1808(s0)
    610c:	c4043583          	ld	a1,-960(s0)
    6110:	00001637          	lui	a2,0x1
    6114:	40c40633          	sub	a2,s0,a2
    6118:	63063603          	ld	a2,1584(a2) # 1630 <.LBB71_4+0x430>
    611c:	00c585b3          	add	a1,a1,a2
    6120:	00001637          	lui	a2,0x1
    6124:	40c40633          	sub	a2,s0,a2
    6128:	6f063603          	ld	a2,1776(a2) # 16f0 <.LBB71_4+0x4f0>
    612c:	00a60633          	add	a2,a2,a0
    6130:	40c585bb          	subw	a1,a1,a2
    6134:	2405859b          	addiw	a1,a1,576
    6138:	40000637          	lui	a2,0x40000
    613c:	90b43423          	sd	a1,-1784(s0)
    6140:	0005d463          	bgez	a1,6148 <.LBB71_346>
    6144:	c0000637          	lui	a2,0xc0000

0000000000006148 <.LBB71_346>:
    6148:	90c43023          	sd	a2,-1792(s0)
    614c:	c4843583          	ld	a1,-952(s0)
    6150:	00001637          	lui	a2,0x1
    6154:	40c40633          	sub	a2,s0,a2
    6158:	6f863603          	ld	a2,1784(a2) # 16f8 <.LBB71_4+0x4f8>
    615c:	00c585b3          	add	a1,a1,a2
    6160:	00001637          	lui	a2,0x1
    6164:	40c40633          	sub	a2,s0,a2
    6168:	6d063603          	ld	a2,1744(a2) # 16d0 <.LBB71_4+0x4d0>
    616c:	00a60633          	add	a2,a2,a0
    6170:	40c585bb          	subw	a1,a1,a2
    6174:	2405859b          	addiw	a1,a1,576
    6178:	40000637          	lui	a2,0x40000
    617c:	90b43c23          	sd	a1,-1768(s0)
    6180:	0005d463          	bgez	a1,6188 <.LBB71_348>
    6184:	c0000637          	lui	a2,0xc0000

0000000000006188 <.LBB71_348>:
    6188:	90c43823          	sd	a2,-1776(s0)
    618c:	c5043583          	ld	a1,-944(s0)
    6190:	00001637          	lui	a2,0x1
    6194:	40c40633          	sub	a2,s0,a2
    6198:	70863603          	ld	a2,1800(a2) # 1708 <.LBB71_4+0x508>
    619c:	00c585b3          	add	a1,a1,a2
    61a0:	00001637          	lui	a2,0x1
    61a4:	40c40633          	sub	a2,s0,a2
    61a8:	6d863603          	ld	a2,1752(a2) # 16d8 <.LBB71_4+0x4d8>
    61ac:	00a60633          	add	a2,a2,a0
    61b0:	40c585bb          	subw	a1,a1,a2
    61b4:	2405859b          	addiw	a1,a1,576
    61b8:	40000637          	lui	a2,0x40000
    61bc:	92b43823          	sd	a1,-1744(s0)
    61c0:	0005d463          	bgez	a1,61c8 <.LBB71_350>
    61c4:	c0000637          	lui	a2,0xc0000

00000000000061c8 <.LBB71_350>:
    61c8:	92c43423          	sd	a2,-1752(s0)
    61cc:	c5843583          	ld	a1,-936(s0)
    61d0:	00001637          	lui	a2,0x1
    61d4:	40c40633          	sub	a2,s0,a2
    61d8:	71863603          	ld	a2,1816(a2) # 1718 <.LBB71_4+0x518>
    61dc:	00c585b3          	add	a1,a1,a2
    61e0:	00001637          	lui	a2,0x1
    61e4:	40c40633          	sub	a2,s0,a2
    61e8:	6e063603          	ld	a2,1760(a2) # 16e0 <.LBB71_4+0x4e0>
    61ec:	00a60633          	add	a2,a2,a0
    61f0:	40c585bb          	subw	a1,a1,a2
    61f4:	2405859b          	addiw	a1,a1,576
    61f8:	40000637          	lui	a2,0x40000
    61fc:	94b43023          	sd	a1,-1728(s0)
    6200:	0005d463          	bgez	a1,6208 <.LBB71_352>
    6204:	c0000637          	lui	a2,0xc0000

0000000000006208 <.LBB71_352>:
    6208:	92c43c23          	sd	a2,-1736(s0)
    620c:	c6043583          	ld	a1,-928(s0)
    6210:	00001637          	lui	a2,0x1
    6214:	40c40633          	sub	a2,s0,a2
    6218:	72863603          	ld	a2,1832(a2) # 1728 <.LBB71_4+0x528>
    621c:	00c585b3          	add	a1,a1,a2
    6220:	00001637          	lui	a2,0x1
    6224:	40c40633          	sub	a2,s0,a2
    6228:	6e863603          	ld	a2,1768(a2) # 16e8 <.LBB71_4+0x4e8>
    622c:	00a60633          	add	a2,a2,a0
    6230:	40c585bb          	subw	a1,a1,a2
    6234:	2405859b          	addiw	a1,a1,576
    6238:	40000637          	lui	a2,0x40000
    623c:	94b43823          	sd	a1,-1712(s0)
    6240:	0005d463          	bgez	a1,6248 <.LBB71_354>
    6244:	c0000637          	lui	a2,0xc0000

0000000000006248 <.LBB71_354>:
    6248:	94c43423          	sd	a2,-1720(s0)
    624c:	c6843583          	ld	a1,-920(s0)
    6250:	e8043603          	ld	a2,-384(s0)
    6254:	00c585b3          	add	a1,a1,a2
    6258:	00001637          	lui	a2,0x1
    625c:	40c40633          	sub	a2,s0,a2
    6260:	70063603          	ld	a2,1792(a2) # 1700 <.LBB71_4+0x500>
    6264:	00a60633          	add	a2,a2,a0
    6268:	40c585bb          	subw	a1,a1,a2
    626c:	2405859b          	addiw	a1,a1,576
    6270:	40000637          	lui	a2,0x40000
    6274:	96b43423          	sd	a1,-1688(s0)
    6278:	0005d463          	bgez	a1,6280 <.LBB71_356>
    627c:	c0000637          	lui	a2,0xc0000

0000000000006280 <.LBB71_356>:
    6280:	94c43c23          	sd	a2,-1704(s0)
    6284:	c7043583          	ld	a1,-912(s0)
    6288:	e9043603          	ld	a2,-368(s0)
    628c:	00c585b3          	add	a1,a1,a2
    6290:	00001637          	lui	a2,0x1
    6294:	40c40633          	sub	a2,s0,a2
    6298:	71063603          	ld	a2,1808(a2) # 1710 <.LBB71_4+0x510>
    629c:	00a60633          	add	a2,a2,a0
    62a0:	40c585bb          	subw	a1,a1,a2
    62a4:	2405859b          	addiw	a1,a1,576
    62a8:	40000637          	lui	a2,0x40000
    62ac:	96b43c23          	sd	a1,-1672(s0)
    62b0:	0005d463          	bgez	a1,62b8 <.LBB71_358>
    62b4:	c0000637          	lui	a2,0xc0000

00000000000062b8 <.LBB71_358>:
    62b8:	96c43823          	sd	a2,-1680(s0)
    62bc:	c7843583          	ld	a1,-904(s0)
    62c0:	ea043603          	ld	a2,-352(s0)
    62c4:	00c585b3          	add	a1,a1,a2
    62c8:	00001637          	lui	a2,0x1
    62cc:	40c40633          	sub	a2,s0,a2
    62d0:	72063603          	ld	a2,1824(a2) # 1720 <.LBB71_4+0x520>
    62d4:	00a60633          	add	a2,a2,a0
    62d8:	40c585bb          	subw	a1,a1,a2
    62dc:	2405859b          	addiw	a1,a1,576
    62e0:	40000637          	lui	a2,0x40000
    62e4:	98b43423          	sd	a1,-1656(s0)
    62e8:	0005d463          	bgez	a1,62f0 <.LBB71_360>
    62ec:	c0000637          	lui	a2,0xc0000

00000000000062f0 <.LBB71_360>:
    62f0:	98c43023          	sd	a2,-1664(s0)
    62f4:	c8043583          	ld	a1,-896(s0)
    62f8:	eb043603          	ld	a2,-336(s0)
    62fc:	00c585b3          	add	a1,a1,a2
    6300:	e7843603          	ld	a2,-392(s0)
    6304:	00a60633          	add	a2,a2,a0
    6308:	40c585bb          	subw	a1,a1,a2
    630c:	2405859b          	addiw	a1,a1,576
    6310:	40000637          	lui	a2,0x40000
    6314:	98b43c23          	sd	a1,-1640(s0)
    6318:	0005d463          	bgez	a1,6320 <.LBB71_362>
    631c:	c0000637          	lui	a2,0xc0000

0000000000006320 <.LBB71_362>:
    6320:	98c43823          	sd	a2,-1648(s0)
    6324:	c8843583          	ld	a1,-888(s0)
    6328:	ec043603          	ld	a2,-320(s0)
    632c:	00c585b3          	add	a1,a1,a2
    6330:	e8843603          	ld	a2,-376(s0)
    6334:	00a60633          	add	a2,a2,a0
    6338:	40c585bb          	subw	a1,a1,a2
    633c:	2405859b          	addiw	a1,a1,576
    6340:	40000637          	lui	a2,0x40000
    6344:	9ab43823          	sd	a1,-1616(s0)
    6348:	0005d463          	bgez	a1,6350 <.LBB71_364>
    634c:	c0000637          	lui	a2,0xc0000

0000000000006350 <.LBB71_364>:
    6350:	9ac43423          	sd	a2,-1624(s0)
    6354:	c9043583          	ld	a1,-880(s0)
    6358:	ed043603          	ld	a2,-304(s0)
    635c:	00c585b3          	add	a1,a1,a2
    6360:	e9843603          	ld	a2,-360(s0)
    6364:	00a60633          	add	a2,a2,a0
    6368:	40c585bb          	subw	a1,a1,a2
    636c:	2405859b          	addiw	a1,a1,576
    6370:	40000637          	lui	a2,0x40000
    6374:	9cb43023          	sd	a1,-1600(s0)
    6378:	0005d463          	bgez	a1,6380 <.LBB71_366>
    637c:	c0000637          	lui	a2,0xc0000

0000000000006380 <.LBB71_366>:
    6380:	9ac43c23          	sd	a2,-1608(s0)
    6384:	c9843583          	ld	a1,-872(s0)
    6388:	ee043603          	ld	a2,-288(s0)
    638c:	00c585b3          	add	a1,a1,a2
    6390:	ea843603          	ld	a2,-344(s0)
    6394:	00a60633          	add	a2,a2,a0
    6398:	40c585bb          	subw	a1,a1,a2
    639c:	2405859b          	addiw	a1,a1,576
    63a0:	40000637          	lui	a2,0x40000
    63a4:	9cb43823          	sd	a1,-1584(s0)
    63a8:	0005d463          	bgez	a1,63b0 <.LBB71_368>
    63ac:	c0000637          	lui	a2,0xc0000

00000000000063b0 <.LBB71_368>:
    63b0:	9cc43423          	sd	a2,-1592(s0)
    63b4:	ca043583          	ld	a1,-864(s0)
    63b8:	ef043603          	ld	a2,-272(s0)
    63bc:	00c585b3          	add	a1,a1,a2
    63c0:	eb843603          	ld	a2,-328(s0)
    63c4:	00a60633          	add	a2,a2,a0
    63c8:	40c585bb          	subw	a1,a1,a2
    63cc:	2405859b          	addiw	a1,a1,576
    63d0:	40000637          	lui	a2,0x40000
    63d4:	9eb43023          	sd	a1,-1568(s0)
    63d8:	0005d463          	bgez	a1,63e0 <.LBB71_370>
    63dc:	c0000637          	lui	a2,0xc0000

00000000000063e0 <.LBB71_370>:
    63e0:	9cc43c23          	sd	a2,-1576(s0)
    63e4:	ca843583          	ld	a1,-856(s0)
    63e8:	f0043603          	ld	a2,-256(s0)
    63ec:	00c585b3          	add	a1,a1,a2
    63f0:	ec843603          	ld	a2,-312(s0)
    63f4:	00a60633          	add	a2,a2,a0
    63f8:	40c585bb          	subw	a1,a1,a2
    63fc:	2405859b          	addiw	a1,a1,576
    6400:	40000637          	lui	a2,0x40000
    6404:	9eb43c23          	sd	a1,-1544(s0)
    6408:	0005d463          	bgez	a1,6410 <.LBB71_372>
    640c:	c0000637          	lui	a2,0xc0000

0000000000006410 <.LBB71_372>:
    6410:	9ec43823          	sd	a2,-1552(s0)
    6414:	cb043583          	ld	a1,-848(s0)
    6418:	f2043603          	ld	a2,-224(s0)
    641c:	00c585b3          	add	a1,a1,a2
    6420:	ed843603          	ld	a2,-296(s0)
    6424:	00a60633          	add	a2,a2,a0
    6428:	40c585bb          	subw	a1,a1,a2
    642c:	2405859b          	addiw	a1,a1,576
    6430:	40000637          	lui	a2,0x40000
    6434:	a0b43423          	sd	a1,-1528(s0)
    6438:	0005d463          	bgez	a1,6440 <.LBB71_374>
    643c:	c0000637          	lui	a2,0xc0000

0000000000006440 <.LBB71_374>:
    6440:	a0c43023          	sd	a2,-1536(s0)
    6444:	cb843583          	ld	a1,-840(s0)
    6448:	f3043603          	ld	a2,-208(s0)
    644c:	00c585b3          	add	a1,a1,a2
    6450:	ee843603          	ld	a2,-280(s0)
    6454:	00a60633          	add	a2,a2,a0
    6458:	40c585bb          	subw	a1,a1,a2
    645c:	2405859b          	addiw	a1,a1,576
    6460:	40000637          	lui	a2,0x40000
    6464:	a0b43c23          	sd	a1,-1512(s0)
    6468:	0005d463          	bgez	a1,6470 <.LBB71_376>
    646c:	c0000637          	lui	a2,0xc0000

0000000000006470 <.LBB71_376>:
    6470:	a0c43823          	sd	a2,-1520(s0)
    6474:	cc043583          	ld	a1,-832(s0)
    6478:	f4043603          	ld	a2,-192(s0)
    647c:	00c585b3          	add	a1,a1,a2
    6480:	ef843603          	ld	a2,-264(s0)
    6484:	00a60633          	add	a2,a2,a0
    6488:	40c585bb          	subw	a1,a1,a2
    648c:	2405859b          	addiw	a1,a1,576
    6490:	40000637          	lui	a2,0x40000
    6494:	a2b43823          	sd	a1,-1488(s0)
    6498:	0005d463          	bgez	a1,64a0 <.LBB71_378>
    649c:	c0000637          	lui	a2,0xc0000

00000000000064a0 <.LBB71_378>:
    64a0:	a2c43023          	sd	a2,-1504(s0)
    64a4:	cc843583          	ld	a1,-824(s0)
    64a8:	f5043603          	ld	a2,-176(s0)
    64ac:	00c585b3          	add	a1,a1,a2
    64b0:	f0843603          	ld	a2,-248(s0)
    64b4:	00a60633          	add	a2,a2,a0
    64b8:	40c585bb          	subw	a1,a1,a2
    64bc:	2405859b          	addiw	a1,a1,576
    64c0:	40000637          	lui	a2,0x40000
    64c4:	a4b43023          	sd	a1,-1472(s0)
    64c8:	0005d463          	bgez	a1,64d0 <.LBB71_380>
    64cc:	c0000637          	lui	a2,0xc0000

00000000000064d0 <.LBB71_380>:
    64d0:	a2c43c23          	sd	a2,-1480(s0)
    64d4:	cd043583          	ld	a1,-816(s0)
    64d8:	f6043603          	ld	a2,-160(s0)
    64dc:	00c585b3          	add	a1,a1,a2
    64e0:	f2843603          	ld	a2,-216(s0)
    64e4:	00a60633          	add	a2,a2,a0
    64e8:	40c585bb          	subw	a1,a1,a2
    64ec:	2405859b          	addiw	a1,a1,576
    64f0:	40000637          	lui	a2,0x40000
    64f4:	a4b43823          	sd	a1,-1456(s0)
    64f8:	0005d463          	bgez	a1,6500 <.LBB71_382>
    64fc:	c0000637          	lui	a2,0xc0000

0000000000006500 <.LBB71_382>:
    6500:	a4c43423          	sd	a2,-1464(s0)
    6504:	cd843583          	ld	a1,-808(s0)
    6508:	f7043603          	ld	a2,-144(s0)
    650c:	00c585b3          	add	a1,a1,a2
    6510:	f3843603          	ld	a2,-200(s0)
    6514:	00a60633          	add	a2,a2,a0
    6518:	40c585bb          	subw	a1,a1,a2
    651c:	2405859b          	addiw	a1,a1,576
    6520:	40000637          	lui	a2,0x40000
    6524:	a6b43023          	sd	a1,-1440(s0)
    6528:	0005d463          	bgez	a1,6530 <.LBB71_384>
    652c:	c0000637          	lui	a2,0xc0000

0000000000006530 <.LBB71_384>:
    6530:	a4c43c23          	sd	a2,-1448(s0)
    6534:	ce043583          	ld	a1,-800(s0)
    6538:	f7843603          	ld	a2,-136(s0)
    653c:	00c585b3          	add	a1,a1,a2
    6540:	f4843603          	ld	a2,-184(s0)
    6544:	00a60633          	add	a2,a2,a0
    6548:	40c585bb          	subw	a1,a1,a2
    654c:	2405859b          	addiw	a1,a1,576
    6550:	40000637          	lui	a2,0x40000
    6554:	a6b43c23          	sd	a1,-1416(s0)
    6558:	0005d463          	bgez	a1,6560 <.LBB71_386>
    655c:	c0000637          	lui	a2,0xc0000

0000000000006560 <.LBB71_386>:
    6560:	a6c43823          	sd	a2,-1424(s0)
    6564:	ce843583          	ld	a1,-792(s0)
    6568:	f8043603          	ld	a2,-128(s0)
    656c:	00c585b3          	add	a1,a1,a2
    6570:	f5843603          	ld	a2,-168(s0)
    6574:	00a60633          	add	a2,a2,a0
    6578:	40c585bb          	subw	a1,a1,a2
    657c:	2405859b          	addiw	a1,a1,576
    6580:	40000637          	lui	a2,0x40000
    6584:	a8b43423          	sd	a1,-1400(s0)
    6588:	0005d463          	bgez	a1,6590 <.LBB71_388>
    658c:	c0000637          	lui	a2,0xc0000

0000000000006590 <.LBB71_388>:
    6590:	a8c43023          	sd	a2,-1408(s0)
    6594:	cf043583          	ld	a1,-784(s0)
    6598:	f8843603          	ld	a2,-120(s0)
    659c:	00c585b3          	add	a1,a1,a2
    65a0:	f6843603          	ld	a2,-152(s0)
    65a4:	00a60533          	add	a0,a2,a0
    65a8:	40a585bb          	subw	a1,a1,a0
    65ac:	2405851b          	addiw	a0,a1,576
    65b0:	40000637          	lui	a2,0x40000
    65b4:	cf843583          	ld	a1,-776(s0)
    65b8:	a8a43c23          	sd	a0,-1384(s0)
    65bc:	00055463          	bgez	a0,65c4 <.LBB71_390>
    65c0:	c0000637          	lui	a2,0xc0000

00000000000065c4 <.LBB71_390>:
    65c4:	a8c43823          	sd	a2,-1392(s0)
    65c8:	00600513          	li	a0,6
    65cc:	00001637          	lui	a2,0x1
    65d0:	40c40633          	sub	a2,s0,a2
    65d4:	d2863603          	ld	a2,-728(a2) # d28 <.LBB71_3+0xab0>
    65d8:	02a60533          	mul	a0,a2,a0
    65dc:	00001637          	lui	a2,0x1
    65e0:	40c40633          	sub	a2,s0,a2
    65e4:	6c863603          	ld	a2,1736(a2) # 16c8 <.LBB71_4+0x4c8>
    65e8:	00c585b3          	add	a1,a1,a2
    65ec:	00001637          	lui	a2,0x1
    65f0:	40c40633          	sub	a2,s0,a2
    65f4:	6c063603          	ld	a2,1728(a2) # 16c0 <.LBB71_4+0x4c0>
    65f8:	00a60633          	add	a2,a2,a0
    65fc:	40c585bb          	subw	a1,a1,a2
    6600:	2405859b          	addiw	a1,a1,576
    6604:	40000637          	lui	a2,0x40000
    6608:	aab43423          	sd	a1,-1368(s0)
    660c:	0005d463          	bgez	a1,6614 <.LBB71_392>
    6610:	c0000637          	lui	a2,0xc0000

0000000000006614 <.LBB71_392>:
    6614:	aac43023          	sd	a2,-1376(s0)
    6618:	d0043583          	ld	a1,-768(s0)
    661c:	00001637          	lui	a2,0x1
    6620:	40c40633          	sub	a2,s0,a2
    6624:	6b863603          	ld	a2,1720(a2) # 16b8 <.LBB71_4+0x4b8>
    6628:	00c585b3          	add	a1,a1,a2
    662c:	00001637          	lui	a2,0x1
    6630:	40c40633          	sub	a2,s0,a2
    6634:	6b063603          	ld	a2,1712(a2) # 16b0 <.LBB71_4+0x4b0>
    6638:	00a60633          	add	a2,a2,a0
    663c:	40c585bb          	subw	a1,a1,a2
    6640:	2405859b          	addiw	a1,a1,576
    6644:	40000637          	lui	a2,0x40000
    6648:	acb43023          	sd	a1,-1344(s0)
    664c:	0005d463          	bgez	a1,6654 <.LBB71_394>
    6650:	c0000637          	lui	a2,0xc0000

0000000000006654 <.LBB71_394>:
    6654:	aac43c23          	sd	a2,-1352(s0)
    6658:	d0843583          	ld	a1,-760(s0)
    665c:	00001637          	lui	a2,0x1
    6660:	40c40633          	sub	a2,s0,a2
    6664:	6a863603          	ld	a2,1704(a2) # 16a8 <.LBB71_4+0x4a8>
    6668:	00c585b3          	add	a1,a1,a2
    666c:	00001637          	lui	a2,0x1
    6670:	40c40633          	sub	a2,s0,a2
    6674:	6a063603          	ld	a2,1696(a2) # 16a0 <.LBB71_4+0x4a0>
    6678:	00a60633          	add	a2,a2,a0
    667c:	40c585bb          	subw	a1,a1,a2
    6680:	2405859b          	addiw	a1,a1,576
    6684:	40000637          	lui	a2,0x40000
    6688:	acb43823          	sd	a1,-1328(s0)
    668c:	0005d463          	bgez	a1,6694 <.LBB71_396>
    6690:	c0000637          	lui	a2,0xc0000

0000000000006694 <.LBB71_396>:
    6694:	acc43423          	sd	a2,-1336(s0)
    6698:	d1043583          	ld	a1,-752(s0)
    669c:	00001637          	lui	a2,0x1
    66a0:	40c40633          	sub	a2,s0,a2
    66a4:	69863603          	ld	a2,1688(a2) # 1698 <.LBB71_4+0x498>
    66a8:	00c585b3          	add	a1,a1,a2
    66ac:	00001637          	lui	a2,0x1
    66b0:	40c40633          	sub	a2,s0,a2
    66b4:	69063603          	ld	a2,1680(a2) # 1690 <.LBB71_4+0x490>
    66b8:	00a60633          	add	a2,a2,a0
    66bc:	40c585bb          	subw	a1,a1,a2
    66c0:	2405859b          	addiw	a1,a1,576
    66c4:	40000637          	lui	a2,0x40000
    66c8:	aeb43023          	sd	a1,-1312(s0)
    66cc:	0005d463          	bgez	a1,66d4 <.LBB71_398>
    66d0:	c0000637          	lui	a2,0xc0000

00000000000066d4 <.LBB71_398>:
    66d4:	acc43c23          	sd	a2,-1320(s0)
    66d8:	d1843583          	ld	a1,-744(s0)
    66dc:	00001637          	lui	a2,0x1
    66e0:	40c40633          	sub	a2,s0,a2
    66e4:	68863603          	ld	a2,1672(a2) # 1688 <.LBB71_4+0x488>
    66e8:	00c585b3          	add	a1,a1,a2
    66ec:	00001637          	lui	a2,0x1
    66f0:	40c40633          	sub	a2,s0,a2
    66f4:	68063603          	ld	a2,1664(a2) # 1680 <.LBB71_4+0x480>
    66f8:	00a60633          	add	a2,a2,a0
    66fc:	40c585bb          	subw	a1,a1,a2
    6700:	2405859b          	addiw	a1,a1,576
    6704:	40000637          	lui	a2,0x40000
    6708:	aeb43823          	sd	a1,-1296(s0)
    670c:	0005d463          	bgez	a1,6714 <.LBB71_400>
    6710:	c0000637          	lui	a2,0xc0000

0000000000006714 <.LBB71_400>:
    6714:	aec43423          	sd	a2,-1304(s0)
    6718:	d2043583          	ld	a1,-736(s0)
    671c:	00001637          	lui	a2,0x1
    6720:	40c40633          	sub	a2,s0,a2
    6724:	67863603          	ld	a2,1656(a2) # 1678 <.LBB71_4+0x478>
    6728:	00c585b3          	add	a1,a1,a2
    672c:	00001637          	lui	a2,0x1
    6730:	40c40633          	sub	a2,s0,a2
    6734:	66863603          	ld	a2,1640(a2) # 1668 <.LBB71_4+0x468>
    6738:	00a60633          	add	a2,a2,a0
    673c:	40c585bb          	subw	a1,a1,a2
    6740:	2405859b          	addiw	a1,a1,576
    6744:	40000637          	lui	a2,0x40000
    6748:	b0b43423          	sd	a1,-1272(s0)
    674c:	0005d463          	bgez	a1,6754 <.LBB71_402>
    6750:	c0000637          	lui	a2,0xc0000

0000000000006754 <.LBB71_402>:
    6754:	b0c43023          	sd	a2,-1280(s0)
    6758:	d2843583          	ld	a1,-728(s0)
    675c:	00001637          	lui	a2,0x1
    6760:	40c40633          	sub	a2,s0,a2
    6764:	66063603          	ld	a2,1632(a2) # 1660 <.LBB71_4+0x460>
    6768:	00c585b3          	add	a1,a1,a2
    676c:	00001637          	lui	a2,0x1
    6770:	40c40633          	sub	a2,s0,a2
    6774:	65863603          	ld	a2,1624(a2) # 1658 <.LBB71_4+0x458>
    6778:	00a60633          	add	a2,a2,a0
    677c:	40c585bb          	subw	a1,a1,a2
    6780:	2405859b          	addiw	a1,a1,576
    6784:	40000637          	lui	a2,0x40000
    6788:	b0b43c23          	sd	a1,-1256(s0)
    678c:	0005d463          	bgez	a1,6794 <.LBB71_404>
    6790:	c0000637          	lui	a2,0xc0000

0000000000006794 <.LBB71_404>:
    6794:	b0c43823          	sd	a2,-1264(s0)
    6798:	d3043583          	ld	a1,-720(s0)
    679c:	00001637          	lui	a2,0x1
    67a0:	40c40633          	sub	a2,s0,a2
    67a4:	65063603          	ld	a2,1616(a2) # 1650 <.LBB71_4+0x450>
    67a8:	00c585b3          	add	a1,a1,a2
    67ac:	00001637          	lui	a2,0x1
    67b0:	40c40633          	sub	a2,s0,a2
    67b4:	64863603          	ld	a2,1608(a2) # 1648 <.LBB71_4+0x448>
    67b8:	00a60633          	add	a2,a2,a0
    67bc:	40c585bb          	subw	a1,a1,a2
    67c0:	2405859b          	addiw	a1,a1,576
    67c4:	40000637          	lui	a2,0x40000
    67c8:	b2b43423          	sd	a1,-1240(s0)
    67cc:	0005d463          	bgez	a1,67d4 <.LBB71_406>
    67d0:	c0000637          	lui	a2,0xc0000

00000000000067d4 <.LBB71_406>:
    67d4:	b2c43023          	sd	a2,-1248(s0)
    67d8:	d3843583          	ld	a1,-712(s0)
    67dc:	00001637          	lui	a2,0x1
    67e0:	40c40633          	sub	a2,s0,a2
    67e4:	64063603          	ld	a2,1600(a2) # 1640 <.LBB71_4+0x440>
    67e8:	00c585b3          	add	a1,a1,a2
    67ec:	00001637          	lui	a2,0x1
    67f0:	40c40633          	sub	a2,s0,a2
    67f4:	63863603          	ld	a2,1592(a2) # 1638 <.LBB71_4+0x438>
    67f8:	00a60633          	add	a2,a2,a0
    67fc:	40c585bb          	subw	a1,a1,a2
    6800:	2405859b          	addiw	a1,a1,576
    6804:	40000637          	lui	a2,0x40000
    6808:	b4b43023          	sd	a1,-1216(s0)
    680c:	0005d463          	bgez	a1,6814 <.LBB71_408>
    6810:	c0000637          	lui	a2,0xc0000

0000000000006814 <.LBB71_408>:
    6814:	b2c43823          	sd	a2,-1232(s0)
    6818:	d4043583          	ld	a1,-704(s0)
    681c:	00001637          	lui	a2,0x1
    6820:	40c40633          	sub	a2,s0,a2
    6824:	63063603          	ld	a2,1584(a2) # 1630 <.LBB71_4+0x430>
    6828:	00c585b3          	add	a1,a1,a2
    682c:	00001637          	lui	a2,0x1
    6830:	40c40633          	sub	a2,s0,a2
    6834:	6f063603          	ld	a2,1776(a2) # 16f0 <.LBB71_4+0x4f0>
    6838:	00a60633          	add	a2,a2,a0
    683c:	40c585bb          	subw	a1,a1,a2
    6840:	2405859b          	addiw	a1,a1,576
    6844:	40000637          	lui	a2,0x40000
    6848:	b4b43823          	sd	a1,-1200(s0)
    684c:	0005d463          	bgez	a1,6854 <.LBB71_410>
    6850:	c0000637          	lui	a2,0xc0000

0000000000006854 <.LBB71_410>:
    6854:	b4c43423          	sd	a2,-1208(s0)
    6858:	d4843583          	ld	a1,-696(s0)
    685c:	00001637          	lui	a2,0x1
    6860:	40c40633          	sub	a2,s0,a2
    6864:	6f863603          	ld	a2,1784(a2) # 16f8 <.LBB71_4+0x4f8>
    6868:	00c585b3          	add	a1,a1,a2
    686c:	00001637          	lui	a2,0x1
    6870:	40c40633          	sub	a2,s0,a2
    6874:	6d063603          	ld	a2,1744(a2) # 16d0 <.LBB71_4+0x4d0>
    6878:	00a60633          	add	a2,a2,a0
    687c:	40c585bb          	subw	a1,a1,a2
    6880:	2405859b          	addiw	a1,a1,576
    6884:	40000637          	lui	a2,0x40000
    6888:	b6b43023          	sd	a1,-1184(s0)
    688c:	0005d463          	bgez	a1,6894 <.LBB71_412>
    6890:	c0000637          	lui	a2,0xc0000

0000000000006894 <.LBB71_412>:
    6894:	b4c43c23          	sd	a2,-1192(s0)
    6898:	d5043583          	ld	a1,-688(s0)
    689c:	00001637          	lui	a2,0x1
    68a0:	40c40633          	sub	a2,s0,a2
    68a4:	70863603          	ld	a2,1800(a2) # 1708 <.LBB71_4+0x508>
    68a8:	00c585b3          	add	a1,a1,a2
    68ac:	00001637          	lui	a2,0x1
    68b0:	40c40633          	sub	a2,s0,a2
    68b4:	6d863603          	ld	a2,1752(a2) # 16d8 <.LBB71_4+0x4d8>
    68b8:	00a60633          	add	a2,a2,a0
    68bc:	40c585bb          	subw	a1,a1,a2
    68c0:	2405859b          	addiw	a1,a1,576
    68c4:	40000637          	lui	a2,0x40000
    68c8:	b6b43823          	sd	a1,-1168(s0)
    68cc:	0005d463          	bgez	a1,68d4 <.LBB71_414>
    68d0:	c0000637          	lui	a2,0xc0000

00000000000068d4 <.LBB71_414>:
    68d4:	b6c43423          	sd	a2,-1176(s0)
    68d8:	d5843583          	ld	a1,-680(s0)
    68dc:	00001637          	lui	a2,0x1
    68e0:	40c40633          	sub	a2,s0,a2
    68e4:	71863603          	ld	a2,1816(a2) # 1718 <.LBB71_4+0x518>
    68e8:	00c585b3          	add	a1,a1,a2
    68ec:	00001637          	lui	a2,0x1
    68f0:	40c40633          	sub	a2,s0,a2
    68f4:	6e063603          	ld	a2,1760(a2) # 16e0 <.LBB71_4+0x4e0>
    68f8:	00a60633          	add	a2,a2,a0
    68fc:	40c585bb          	subw	a1,a1,a2
    6900:	2405859b          	addiw	a1,a1,576
    6904:	40000637          	lui	a2,0x40000
    6908:	b8b43023          	sd	a1,-1152(s0)
    690c:	0005d463          	bgez	a1,6914 <.LBB71_416>
    6910:	c0000637          	lui	a2,0xc0000

0000000000006914 <.LBB71_416>:
    6914:	b6c43c23          	sd	a2,-1160(s0)
    6918:	d6043583          	ld	a1,-672(s0)
    691c:	00001637          	lui	a2,0x1
    6920:	40c40633          	sub	a2,s0,a2
    6924:	72863603          	ld	a2,1832(a2) # 1728 <.LBB71_4+0x528>
    6928:	00c585b3          	add	a1,a1,a2
    692c:	00001637          	lui	a2,0x1
    6930:	40c40633          	sub	a2,s0,a2
    6934:	6e863603          	ld	a2,1768(a2) # 16e8 <.LBB71_4+0x4e8>
    6938:	00a60633          	add	a2,a2,a0
    693c:	40c585bb          	subw	a1,a1,a2
    6940:	2405859b          	addiw	a1,a1,576
    6944:	40000637          	lui	a2,0x40000
    6948:	b8b43823          	sd	a1,-1136(s0)
    694c:	0005d463          	bgez	a1,6954 <.LBB71_418>
    6950:	c0000637          	lui	a2,0xc0000

0000000000006954 <.LBB71_418>:
    6954:	b8c43423          	sd	a2,-1144(s0)
    6958:	d6843583          	ld	a1,-664(s0)
    695c:	e8043603          	ld	a2,-384(s0)
    6960:	00c585b3          	add	a1,a1,a2
    6964:	00001637          	lui	a2,0x1
    6968:	40c40633          	sub	a2,s0,a2
    696c:	70063603          	ld	a2,1792(a2) # 1700 <.LBB71_4+0x500>
    6970:	00a60633          	add	a2,a2,a0
    6974:	40c585bb          	subw	a1,a1,a2
    6978:	2405859b          	addiw	a1,a1,576
    697c:	40000637          	lui	a2,0x40000
    6980:	bab43023          	sd	a1,-1120(s0)
    6984:	0005d463          	bgez	a1,698c <.LBB71_420>
    6988:	c0000637          	lui	a2,0xc0000

000000000000698c <.LBB71_420>:
    698c:	b8c43c23          	sd	a2,-1128(s0)
    6990:	d7043583          	ld	a1,-656(s0)
    6994:	e9043603          	ld	a2,-368(s0)
    6998:	00c585b3          	add	a1,a1,a2
    699c:	00001637          	lui	a2,0x1
    69a0:	40c40633          	sub	a2,s0,a2
    69a4:	71063603          	ld	a2,1808(a2) # 1710 <.LBB71_4+0x510>
    69a8:	00a60633          	add	a2,a2,a0
    69ac:	40c585bb          	subw	a1,a1,a2
    69b0:	2405859b          	addiw	a1,a1,576
    69b4:	40000637          	lui	a2,0x40000
    69b8:	bab43823          	sd	a1,-1104(s0)
    69bc:	0005d463          	bgez	a1,69c4 <.LBB71_422>
    69c0:	c0000637          	lui	a2,0xc0000

00000000000069c4 <.LBB71_422>:
    69c4:	bac43423          	sd	a2,-1112(s0)
    69c8:	d7843583          	ld	a1,-648(s0)
    69cc:	ea043603          	ld	a2,-352(s0)
    69d0:	00c585b3          	add	a1,a1,a2
    69d4:	00001637          	lui	a2,0x1
    69d8:	40c40633          	sub	a2,s0,a2
    69dc:	72063603          	ld	a2,1824(a2) # 1720 <.LBB71_4+0x520>
    69e0:	00a60633          	add	a2,a2,a0
    69e4:	40c585bb          	subw	a1,a1,a2
    69e8:	2405859b          	addiw	a1,a1,576
    69ec:	40000637          	lui	a2,0x40000
    69f0:	bcb43023          	sd	a1,-1088(s0)
    69f4:	0005d463          	bgez	a1,69fc <.LBB71_424>
    69f8:	c0000637          	lui	a2,0xc0000

00000000000069fc <.LBB71_424>:
    69fc:	bac43c23          	sd	a2,-1096(s0)
    6a00:	d8043583          	ld	a1,-640(s0)
    6a04:	eb043603          	ld	a2,-336(s0)
    6a08:	00c585b3          	add	a1,a1,a2
    6a0c:	e7843603          	ld	a2,-392(s0)
    6a10:	00a60633          	add	a2,a2,a0
    6a14:	40c585bb          	subw	a1,a1,a2
    6a18:	2405859b          	addiw	a1,a1,576
    6a1c:	40000637          	lui	a2,0x40000
    6a20:	bcb43823          	sd	a1,-1072(s0)
    6a24:	0005d463          	bgez	a1,6a2c <.LBB71_426>
    6a28:	c0000637          	lui	a2,0xc0000

0000000000006a2c <.LBB71_426>:
    6a2c:	bcc43423          	sd	a2,-1080(s0)
    6a30:	d8843583          	ld	a1,-632(s0)
    6a34:	ec043603          	ld	a2,-320(s0)
    6a38:	00c585b3          	add	a1,a1,a2
    6a3c:	e8843603          	ld	a2,-376(s0)
    6a40:	00a60633          	add	a2,a2,a0
    6a44:	40c585bb          	subw	a1,a1,a2
    6a48:	2405859b          	addiw	a1,a1,576
    6a4c:	40000637          	lui	a2,0x40000
    6a50:	beb43423          	sd	a1,-1048(s0)
    6a54:	0005d463          	bgez	a1,6a5c <.LBB71_428>
    6a58:	c0000637          	lui	a2,0xc0000

0000000000006a5c <.LBB71_428>:
    6a5c:	bcc43c23          	sd	a2,-1064(s0)
    6a60:	d9043583          	ld	a1,-624(s0)
    6a64:	ed043603          	ld	a2,-304(s0)
    6a68:	00c585b3          	add	a1,a1,a2
    6a6c:	e9843603          	ld	a2,-360(s0)
    6a70:	00a60633          	add	a2,a2,a0
    6a74:	40c585bb          	subw	a1,a1,a2
    6a78:	2405859b          	addiw	a1,a1,576
    6a7c:	40000637          	lui	a2,0x40000
    6a80:	c0b43423          	sd	a1,-1016(s0)
    6a84:	0005d463          	bgez	a1,6a8c <.LBB71_430>
    6a88:	c0000637          	lui	a2,0xc0000

0000000000006a8c <.LBB71_430>:
    6a8c:	bec43c23          	sd	a2,-1032(s0)
    6a90:	d9843583          	ld	a1,-616(s0)
    6a94:	ee043603          	ld	a2,-288(s0)
    6a98:	00c585b3          	add	a1,a1,a2
    6a9c:	ea843603          	ld	a2,-344(s0)
    6aa0:	00a60633          	add	a2,a2,a0
    6aa4:	40c585bb          	subw	a1,a1,a2
    6aa8:	2405859b          	addiw	a1,a1,576
    6aac:	40000637          	lui	a2,0x40000
    6ab0:	c0b43c23          	sd	a1,-1000(s0)
    6ab4:	0005d463          	bgez	a1,6abc <.LBB71_432>
    6ab8:	c0000637          	lui	a2,0xc0000

0000000000006abc <.LBB71_432>:
    6abc:	c0c43823          	sd	a2,-1008(s0)
    6ac0:	da043583          	ld	a1,-608(s0)
    6ac4:	ef043603          	ld	a2,-272(s0)
    6ac8:	00c585b3          	add	a1,a1,a2
    6acc:	eb843603          	ld	a2,-328(s0)
    6ad0:	00a60633          	add	a2,a2,a0
    6ad4:	40c585bb          	subw	a1,a1,a2
    6ad8:	2405859b          	addiw	a1,a1,576
    6adc:	40000637          	lui	a2,0x40000
    6ae0:	c2b43423          	sd	a1,-984(s0)
    6ae4:	0005d463          	bgez	a1,6aec <.LBB71_434>
    6ae8:	c0000637          	lui	a2,0xc0000

0000000000006aec <.LBB71_434>:
    6aec:	c2c43023          	sd	a2,-992(s0)
    6af0:	da843583          	ld	a1,-600(s0)
    6af4:	f0043603          	ld	a2,-256(s0)
    6af8:	00c585b3          	add	a1,a1,a2
    6afc:	ec843603          	ld	a2,-312(s0)
    6b00:	00a60633          	add	a2,a2,a0
    6b04:	40c585bb          	subw	a1,a1,a2
    6b08:	2405859b          	addiw	a1,a1,576
    6b0c:	40000637          	lui	a2,0x40000
    6b10:	c2b43c23          	sd	a1,-968(s0)
    6b14:	0005d463          	bgez	a1,6b1c <.LBB71_436>
    6b18:	c0000637          	lui	a2,0xc0000

0000000000006b1c <.LBB71_436>:
    6b1c:	c2c43823          	sd	a2,-976(s0)
    6b20:	db043583          	ld	a1,-592(s0)
    6b24:	f2043603          	ld	a2,-224(s0)
    6b28:	00c585b3          	add	a1,a1,a2
    6b2c:	ed843603          	ld	a2,-296(s0)
    6b30:	00a60633          	add	a2,a2,a0
    6b34:	40c585bb          	subw	a1,a1,a2
    6b38:	2405859b          	addiw	a1,a1,576
    6b3c:	40000637          	lui	a2,0x40000
    6b40:	c4b43823          	sd	a1,-944(s0)
    6b44:	0005d463          	bgez	a1,6b4c <.LBB71_438>
    6b48:	c0000637          	lui	a2,0xc0000

0000000000006b4c <.LBB71_438>:
    6b4c:	c4c43423          	sd	a2,-952(s0)
    6b50:	db843583          	ld	a1,-584(s0)
    6b54:	f3043603          	ld	a2,-208(s0)
    6b58:	00c585b3          	add	a1,a1,a2
    6b5c:	ee843603          	ld	a2,-280(s0)
    6b60:	00a60633          	add	a2,a2,a0
    6b64:	40c585bb          	subw	a1,a1,a2
    6b68:	2405859b          	addiw	a1,a1,576
    6b6c:	40000637          	lui	a2,0x40000
    6b70:	c6b43023          	sd	a1,-928(s0)
    6b74:	0005d463          	bgez	a1,6b7c <.LBB71_440>
    6b78:	c0000637          	lui	a2,0xc0000

0000000000006b7c <.LBB71_440>:
    6b7c:	c4c43c23          	sd	a2,-936(s0)
    6b80:	dc043583          	ld	a1,-576(s0)
    6b84:	f4043603          	ld	a2,-192(s0)
    6b88:	00c585b3          	add	a1,a1,a2
    6b8c:	ef843603          	ld	a2,-264(s0)
    6b90:	00a60633          	add	a2,a2,a0
    6b94:	40c585bb          	subw	a1,a1,a2
    6b98:	2405859b          	addiw	a1,a1,576
    6b9c:	40000637          	lui	a2,0x40000
    6ba0:	c6b43823          	sd	a1,-912(s0)
    6ba4:	0005d463          	bgez	a1,6bac <.LBB71_442>
    6ba8:	c0000637          	lui	a2,0xc0000

0000000000006bac <.LBB71_442>:
    6bac:	c6c43423          	sd	a2,-920(s0)
    6bb0:	dc843583          	ld	a1,-568(s0)
    6bb4:	f5043603          	ld	a2,-176(s0)
    6bb8:	00c585b3          	add	a1,a1,a2
    6bbc:	f0843603          	ld	a2,-248(s0)
    6bc0:	00a60633          	add	a2,a2,a0
    6bc4:	40c585bb          	subw	a1,a1,a2
    6bc8:	2405859b          	addiw	a1,a1,576
    6bcc:	40000637          	lui	a2,0x40000
    6bd0:	c8b43023          	sd	a1,-896(s0)
    6bd4:	0005d463          	bgez	a1,6bdc <.LBB71_444>
    6bd8:	c0000637          	lui	a2,0xc0000

0000000000006bdc <.LBB71_444>:
    6bdc:	c6c43c23          	sd	a2,-904(s0)
    6be0:	dd043583          	ld	a1,-560(s0)
    6be4:	f6043603          	ld	a2,-160(s0)
    6be8:	00c585b3          	add	a1,a1,a2
    6bec:	f2843603          	ld	a2,-216(s0)
    6bf0:	00a60633          	add	a2,a2,a0
    6bf4:	40c585bb          	subw	a1,a1,a2
    6bf8:	2405859b          	addiw	a1,a1,576
    6bfc:	40000637          	lui	a2,0x40000
    6c00:	c8b43c23          	sd	a1,-872(s0)
    6c04:	0005d463          	bgez	a1,6c0c <.LBB71_446>
    6c08:	c0000637          	lui	a2,0xc0000

0000000000006c0c <.LBB71_446>:
    6c0c:	c8c43823          	sd	a2,-880(s0)
    6c10:	dd843583          	ld	a1,-552(s0)
    6c14:	f7043603          	ld	a2,-144(s0)
    6c18:	00c585b3          	add	a1,a1,a2
    6c1c:	f3843603          	ld	a2,-200(s0)
    6c20:	00a60633          	add	a2,a2,a0
    6c24:	40c585bb          	subw	a1,a1,a2
    6c28:	2405859b          	addiw	a1,a1,576
    6c2c:	40000637          	lui	a2,0x40000
    6c30:	cab43423          	sd	a1,-856(s0)
    6c34:	0005d463          	bgez	a1,6c3c <.LBB71_448>
    6c38:	c0000637          	lui	a2,0xc0000

0000000000006c3c <.LBB71_448>:
    6c3c:	cac43023          	sd	a2,-864(s0)
    6c40:	de043583          	ld	a1,-544(s0)
    6c44:	f7843603          	ld	a2,-136(s0)
    6c48:	00c585b3          	add	a1,a1,a2
    6c4c:	f4843603          	ld	a2,-184(s0)
    6c50:	00a60633          	add	a2,a2,a0
    6c54:	40c585bb          	subw	a1,a1,a2
    6c58:	2405859b          	addiw	a1,a1,576
    6c5c:	40000637          	lui	a2,0x40000
    6c60:	cab43c23          	sd	a1,-840(s0)
    6c64:	0005d463          	bgez	a1,6c6c <.LBB71_450>
    6c68:	c0000637          	lui	a2,0xc0000

0000000000006c6c <.LBB71_450>:
    6c6c:	cac43823          	sd	a2,-848(s0)
    6c70:	de843583          	ld	a1,-536(s0)
    6c74:	f8043603          	ld	a2,-128(s0)
    6c78:	00c585b3          	add	a1,a1,a2
    6c7c:	f5843603          	ld	a2,-168(s0)
    6c80:	00a60633          	add	a2,a2,a0
    6c84:	40c585bb          	subw	a1,a1,a2
    6c88:	2405859b          	addiw	a1,a1,576
    6c8c:	40000637          	lui	a2,0x40000
    6c90:	ccb43823          	sd	a1,-816(s0)
    6c94:	0005d463          	bgez	a1,6c9c <.LBB71_452>
    6c98:	c0000637          	lui	a2,0xc0000

0000000000006c9c <.LBB71_452>:
    6c9c:	ccc43423          	sd	a2,-824(s0)
    6ca0:	df043583          	ld	a1,-528(s0)
    6ca4:	f8843603          	ld	a2,-120(s0)
    6ca8:	00c585b3          	add	a1,a1,a2
    6cac:	f6843603          	ld	a2,-152(s0)
    6cb0:	00a60533          	add	a0,a2,a0
    6cb4:	40a585bb          	subw	a1,a1,a0
    6cb8:	2405851b          	addiw	a0,a1,576
    6cbc:	40000637          	lui	a2,0x40000
    6cc0:	df843583          	ld	a1,-520(s0)
    6cc4:	cea43023          	sd	a0,-800(s0)
    6cc8:	00055463          	bgez	a0,6cd0 <.LBB71_454>
    6ccc:	c0000637          	lui	a2,0xc0000

0000000000006cd0 <.LBB71_454>:
    6cd0:	ccc43c23          	sd	a2,-808(s0)
    6cd4:	00600513          	li	a0,6
    6cd8:	00001637          	lui	a2,0x1
    6cdc:	40c40633          	sub	a2,s0,a2
    6ce0:	d3063603          	ld	a2,-720(a2) # d30 <.LBB71_3+0xab8>
    6ce4:	02a60533          	mul	a0,a2,a0
    6ce8:	00001637          	lui	a2,0x1
    6cec:	40c40633          	sub	a2,s0,a2
    6cf0:	6c863603          	ld	a2,1736(a2) # 16c8 <.LBB71_4+0x4c8>
    6cf4:	00c585b3          	add	a1,a1,a2
    6cf8:	00001637          	lui	a2,0x1
    6cfc:	40c40633          	sub	a2,s0,a2
    6d00:	6c063603          	ld	a2,1728(a2) # 16c0 <.LBB71_4+0x4c0>
    6d04:	00a60633          	add	a2,a2,a0
    6d08:	40c585bb          	subw	a1,a1,a2
    6d0c:	2405859b          	addiw	a1,a1,576
    6d10:	40000637          	lui	a2,0x40000
    6d14:	ceb43823          	sd	a1,-784(s0)
    6d18:	0005d463          	bgez	a1,6d20 <.LBB71_456>
    6d1c:	c0000637          	lui	a2,0xc0000

0000000000006d20 <.LBB71_456>:
    6d20:	cec43423          	sd	a2,-792(s0)
    6d24:	e0043583          	ld	a1,-512(s0)
    6d28:	00001637          	lui	a2,0x1
    6d2c:	40c40633          	sub	a2,s0,a2
    6d30:	6b863603          	ld	a2,1720(a2) # 16b8 <.LBB71_4+0x4b8>
    6d34:	00c585b3          	add	a1,a1,a2
    6d38:	00001637          	lui	a2,0x1
    6d3c:	40c40633          	sub	a2,s0,a2
    6d40:	6b063603          	ld	a2,1712(a2) # 16b0 <.LBB71_4+0x4b0>
    6d44:	00a60633          	add	a2,a2,a0
    6d48:	40c585bb          	subw	a1,a1,a2
    6d4c:	2405859b          	addiw	a1,a1,576
    6d50:	40000637          	lui	a2,0x40000
    6d54:	e4843283          	ld	t0,-440(s0)
    6d58:	d0b43023          	sd	a1,-768(s0)
    6d5c:	0005d463          	bgez	a1,6d64 <.LBB71_458>
    6d60:	c0000637          	lui	a2,0xc0000

0000000000006d64 <.LBB71_458>:
    6d64:	cec43c23          	sd	a2,-776(s0)
    6d68:	e0843583          	ld	a1,-504(s0)
    6d6c:	00001637          	lui	a2,0x1
    6d70:	40c40633          	sub	a2,s0,a2
    6d74:	6a863603          	ld	a2,1704(a2) # 16a8 <.LBB71_4+0x4a8>
    6d78:	00c585b3          	add	a1,a1,a2
    6d7c:	00001637          	lui	a2,0x1
    6d80:	40c40633          	sub	a2,s0,a2
    6d84:	6a063603          	ld	a2,1696(a2) # 16a0 <.LBB71_4+0x4a0>
    6d88:	00a60633          	add	a2,a2,a0
    6d8c:	40c585bb          	subw	a1,a1,a2
    6d90:	2405859b          	addiw	a1,a1,576
    6d94:	40000637          	lui	a2,0x40000
    6d98:	d0b43c23          	sd	a1,-744(s0)
    6d9c:	0005d463          	bgez	a1,6da4 <.LBB71_460>
    6da0:	c0000637          	lui	a2,0xc0000

0000000000006da4 <.LBB71_460>:
    6da4:	d0c43823          	sd	a2,-752(s0)
    6da8:	e1043583          	ld	a1,-496(s0)
    6dac:	00001637          	lui	a2,0x1
    6db0:	40c40633          	sub	a2,s0,a2
    6db4:	69863603          	ld	a2,1688(a2) # 1698 <.LBB71_4+0x498>
    6db8:	00c585b3          	add	a1,a1,a2
    6dbc:	00001637          	lui	a2,0x1
    6dc0:	40c40633          	sub	a2,s0,a2
    6dc4:	69063603          	ld	a2,1680(a2) # 1690 <.LBB71_4+0x490>
    6dc8:	00a60633          	add	a2,a2,a0
    6dcc:	40c585bb          	subw	a1,a1,a2
    6dd0:	2405859b          	addiw	a1,a1,576
    6dd4:	40000637          	lui	a2,0x40000
    6dd8:	d2b43423          	sd	a1,-728(s0)
    6ddc:	0005d463          	bgez	a1,6de4 <.LBB71_462>
    6de0:	c0000637          	lui	a2,0xc0000

0000000000006de4 <.LBB71_462>:
    6de4:	d2c43023          	sd	a2,-736(s0)
    6de8:	e1843583          	ld	a1,-488(s0)
    6dec:	00001637          	lui	a2,0x1
    6df0:	40c40633          	sub	a2,s0,a2
    6df4:	68863603          	ld	a2,1672(a2) # 1688 <.LBB71_4+0x488>
    6df8:	00c585b3          	add	a1,a1,a2
    6dfc:	00001637          	lui	a2,0x1
    6e00:	40c40633          	sub	a2,s0,a2
    6e04:	68063603          	ld	a2,1664(a2) # 1680 <.LBB71_4+0x480>
    6e08:	00a60633          	add	a2,a2,a0
    6e0c:	40c585bb          	subw	a1,a1,a2
    6e10:	2405859b          	addiw	a1,a1,576
    6e14:	40000637          	lui	a2,0x40000
    6e18:	d2b43c23          	sd	a1,-712(s0)
    6e1c:	0005d463          	bgez	a1,6e24 <.LBB71_464>
    6e20:	c0000637          	lui	a2,0xc0000

0000000000006e24 <.LBB71_464>:
    6e24:	d2c43823          	sd	a2,-720(s0)
    6e28:	e2043583          	ld	a1,-480(s0)
    6e2c:	00001637          	lui	a2,0x1
    6e30:	40c40633          	sub	a2,s0,a2
    6e34:	67863603          	ld	a2,1656(a2) # 1678 <.LBB71_4+0x478>
    6e38:	00c585b3          	add	a1,a1,a2
    6e3c:	00001637          	lui	a2,0x1
    6e40:	40c40633          	sub	a2,s0,a2
    6e44:	66863603          	ld	a2,1640(a2) # 1668 <.LBB71_4+0x468>
    6e48:	00a60633          	add	a2,a2,a0
    6e4c:	40c585bb          	subw	a1,a1,a2
    6e50:	2405859b          	addiw	a1,a1,576
    6e54:	40000637          	lui	a2,0x40000
    6e58:	d4b43423          	sd	a1,-696(s0)
    6e5c:	0005d463          	bgez	a1,6e64 <.LBB71_466>
    6e60:	c0000637          	lui	a2,0xc0000

0000000000006e64 <.LBB71_466>:
    6e64:	d4c43023          	sd	a2,-704(s0)
    6e68:	e2843583          	ld	a1,-472(s0)
    6e6c:	00001637          	lui	a2,0x1
    6e70:	40c40633          	sub	a2,s0,a2
    6e74:	66063603          	ld	a2,1632(a2) # 1660 <.LBB71_4+0x460>
    6e78:	00c585b3          	add	a1,a1,a2
    6e7c:	00001637          	lui	a2,0x1
    6e80:	40c40633          	sub	a2,s0,a2
    6e84:	65863603          	ld	a2,1624(a2) # 1658 <.LBB71_4+0x458>
    6e88:	00a60633          	add	a2,a2,a0
    6e8c:	40c585bb          	subw	a1,a1,a2
    6e90:	2405859b          	addiw	a1,a1,576
    6e94:	40000637          	lui	a2,0x40000
    6e98:	d6b43023          	sd	a1,-672(s0)
    6e9c:	0005d463          	bgez	a1,6ea4 <.LBB71_468>
    6ea0:	c0000637          	lui	a2,0xc0000

0000000000006ea4 <.LBB71_468>:
    6ea4:	d4c43c23          	sd	a2,-680(s0)
    6ea8:	e3043583          	ld	a1,-464(s0)
    6eac:	00001637          	lui	a2,0x1
    6eb0:	40c40633          	sub	a2,s0,a2
    6eb4:	65063603          	ld	a2,1616(a2) # 1650 <.LBB71_4+0x450>
    6eb8:	00c585b3          	add	a1,a1,a2
    6ebc:	00001637          	lui	a2,0x1
    6ec0:	40c40633          	sub	a2,s0,a2
    6ec4:	64863603          	ld	a2,1608(a2) # 1648 <.LBB71_4+0x448>
    6ec8:	00a60633          	add	a2,a2,a0
    6ecc:	40c585bb          	subw	a1,a1,a2
    6ed0:	2405859b          	addiw	a1,a1,576
    6ed4:	40000637          	lui	a2,0x40000
    6ed8:	d6b43823          	sd	a1,-656(s0)
    6edc:	0005d463          	bgez	a1,6ee4 <.LBB71_470>
    6ee0:	c0000637          	lui	a2,0xc0000

0000000000006ee4 <.LBB71_470>:
    6ee4:	d6c43423          	sd	a2,-664(s0)
    6ee8:	e3843583          	ld	a1,-456(s0)
    6eec:	00001637          	lui	a2,0x1
    6ef0:	40c40633          	sub	a2,s0,a2
    6ef4:	64063603          	ld	a2,1600(a2) # 1640 <.LBB71_4+0x440>
    6ef8:	00c585b3          	add	a1,a1,a2
    6efc:	00001637          	lui	a2,0x1
    6f00:	40c40633          	sub	a2,s0,a2
    6f04:	63863603          	ld	a2,1592(a2) # 1638 <.LBB71_4+0x438>
    6f08:	00a60633          	add	a2,a2,a0
    6f0c:	40c585bb          	subw	a1,a1,a2
    6f10:	2405859b          	addiw	a1,a1,576
    6f14:	40000637          	lui	a2,0x40000
    6f18:	d8b43023          	sd	a1,-640(s0)
    6f1c:	0005d463          	bgez	a1,6f24 <.LBB71_472>
    6f20:	c0000637          	lui	a2,0xc0000

0000000000006f24 <.LBB71_472>:
    6f24:	d6c43c23          	sd	a2,-648(s0)
    6f28:	e4043583          	ld	a1,-448(s0)
    6f2c:	00001637          	lui	a2,0x1
    6f30:	40c40633          	sub	a2,s0,a2
    6f34:	63063603          	ld	a2,1584(a2) # 1630 <.LBB71_4+0x430>
    6f38:	00c585b3          	add	a1,a1,a2
    6f3c:	00001637          	lui	a2,0x1
    6f40:	40c40633          	sub	a2,s0,a2
    6f44:	6f063603          	ld	a2,1776(a2) # 16f0 <.LBB71_4+0x4f0>
    6f48:	00a60633          	add	a2,a2,a0
    6f4c:	40c585bb          	subw	a1,a1,a2
    6f50:	2405859b          	addiw	a1,a1,576
    6f54:	40000637          	lui	a2,0x40000
    6f58:	d8b43c23          	sd	a1,-616(s0)
    6f5c:	0005d463          	bgez	a1,6f64 <.LBB71_474>
    6f60:	c0000637          	lui	a2,0xc0000

0000000000006f64 <.LBB71_474>:
    6f64:	d8c43423          	sd	a2,-632(s0)
    6f68:	000015b7          	lui	a1,0x1
    6f6c:	40b405b3          	sub	a1,s0,a1
    6f70:	6f85b583          	ld	a1,1784(a1) # 16f8 <.LBB71_4+0x4f8>
    6f74:	00b285b3          	add	a1,t0,a1
    6f78:	00001637          	lui	a2,0x1
    6f7c:	40c40633          	sub	a2,s0,a2
    6f80:	6d063603          	ld	a2,1744(a2) # 16d0 <.LBB71_4+0x4d0>
    6f84:	00a60633          	add	a2,a2,a0
    6f88:	40c585bb          	subw	a1,a1,a2
    6f8c:	2405859b          	addiw	a1,a1,576
    6f90:	40000637          	lui	a2,0x40000
    6f94:	dab43423          	sd	a1,-600(s0)
    6f98:	0005d463          	bgez	a1,6fa0 <.LBB71_476>
    6f9c:	c0000637          	lui	a2,0xc0000

0000000000006fa0 <.LBB71_476>:
    6fa0:	dac43023          	sd	a2,-608(s0)
    6fa4:	000015b7          	lui	a1,0x1
    6fa8:	40b405b3          	sub	a1,s0,a1
    6fac:	7085b583          	ld	a1,1800(a1) # 1708 <.LBB71_4+0x508>
    6fb0:	84043603          	ld	a2,-1984(s0)
    6fb4:	00b605b3          	add	a1,a2,a1
    6fb8:	00001637          	lui	a2,0x1
    6fbc:	40c40633          	sub	a2,s0,a2
    6fc0:	6d863603          	ld	a2,1752(a2) # 16d8 <.LBB71_4+0x4d8>
    6fc4:	00a60633          	add	a2,a2,a0
    6fc8:	40c585bb          	subw	a1,a1,a2
    6fcc:	2405859b          	addiw	a1,a1,576
    6fd0:	40000637          	lui	a2,0x40000
    6fd4:	dab43c23          	sd	a1,-584(s0)
    6fd8:	0005d463          	bgez	a1,6fe0 <.LBB71_478>
    6fdc:	c0000637          	lui	a2,0xc0000

0000000000006fe0 <.LBB71_478>:
    6fe0:	dac43823          	sd	a2,-592(s0)
    6fe4:	000015b7          	lui	a1,0x1
    6fe8:	40b405b3          	sub	a1,s0,a1
    6fec:	7185b583          	ld	a1,1816(a1) # 1718 <.LBB71_4+0x518>
    6ff0:	00b805b3          	add	a1,a6,a1
    6ff4:	00001637          	lui	a2,0x1
    6ff8:	40c40633          	sub	a2,s0,a2
    6ffc:	6e063603          	ld	a2,1760(a2) # 16e0 <.LBB71_4+0x4e0>
    7000:	00a60633          	add	a2,a2,a0
    7004:	40c585bb          	subw	a1,a1,a2
    7008:	2405859b          	addiw	a1,a1,576
    700c:	40000637          	lui	a2,0x40000
    7010:	dcb43423          	sd	a1,-568(s0)
    7014:	0005d463          	bgez	a1,701c <.LBB71_480>
    7018:	c0000637          	lui	a2,0xc0000

000000000000701c <.LBB71_480>:
    701c:	dcc43023          	sd	a2,-576(s0)
    7020:	000015b7          	lui	a1,0x1
    7024:	40b405b3          	sub	a1,s0,a1
    7028:	7285b583          	ld	a1,1832(a1) # 1728 <.LBB71_4+0x528>
    702c:	00b785b3          	add	a1,a5,a1
    7030:	00001637          	lui	a2,0x1
    7034:	40c40633          	sub	a2,s0,a2
    7038:	6e863603          	ld	a2,1768(a2) # 16e8 <.LBB71_4+0x4e8>
    703c:	00a60633          	add	a2,a2,a0
    7040:	40c585bb          	subw	a1,a1,a2
    7044:	2405859b          	addiw	a1,a1,576
    7048:	40000637          	lui	a2,0x40000
    704c:	deb43023          	sd	a1,-544(s0)
    7050:	0005d463          	bgez	a1,7058 <.LBB71_482>
    7054:	c0000637          	lui	a2,0xc0000

0000000000007058 <.LBB71_482>:
    7058:	dcc43c23          	sd	a2,-552(s0)
    705c:	e8043583          	ld	a1,-384(s0)
    7060:	00b705b3          	add	a1,a4,a1
    7064:	00001637          	lui	a2,0x1
    7068:	40c40633          	sub	a2,s0,a2
    706c:	70063603          	ld	a2,1792(a2) # 1700 <.LBB71_4+0x500>
    7070:	00a60633          	add	a2,a2,a0
    7074:	40c585bb          	subw	a1,a1,a2
    7078:	2405879b          	addiw	a5,a1,576
    707c:	400005b7          	lui	a1,0x40000
    7080:	0007d463          	bgez	a5,7088 <.LBB71_484>
    7084:	c00005b7          	lui	a1,0xc0000

0000000000007088 <.LBB71_484>:
    7088:	deb43423          	sd	a1,-536(s0)
    708c:	e9043583          	ld	a1,-368(s0)
    7090:	00b685b3          	add	a1,a3,a1
    7094:	00001637          	lui	a2,0x1
    7098:	40c40633          	sub	a2,s0,a2
    709c:	71063603          	ld	a2,1808(a2) # 1710 <.LBB71_4+0x510>
    70a0:	00a60633          	add	a2,a2,a0
    70a4:	40c585bb          	subw	a1,a1,a2
    70a8:	2405881b          	addiw	a6,a1,576 # ffffffffc0000240 <.Lfunc_end80+0xffffffffbffd7878>
    70ac:	400005b7          	lui	a1,0x40000
    70b0:	00088713          	mv	a4,a7
    70b4:	00085463          	bgez	a6,70bc <.LBB71_486>
    70b8:	c00005b7          	lui	a1,0xc0000

00000000000070bc <.LBB71_486>:
    70bc:	deb43823          	sd	a1,-528(s0)
    70c0:	ea043583          	ld	a1,-352(s0)
    70c4:	00bd05b3          	add	a1,s10,a1
    70c8:	00001637          	lui	a2,0x1
    70cc:	40c40633          	sub	a2,s0,a2
    70d0:	72063603          	ld	a2,1824(a2) # 1720 <.LBB71_4+0x520>
    70d4:	00a60633          	add	a2,a2,a0
    70d8:	40c585bb          	subw	a1,a1,a2
    70dc:	2405889b          	addiw	a7,a1,576 # ffffffffc0000240 <.Lfunc_end80+0xffffffffbffd7878>
    70e0:	400005b7          	lui	a1,0x40000
    70e4:	0008d463          	bgez	a7,70ec <.LBB71_488>
    70e8:	c00005b7          	lui	a1,0xc0000

00000000000070ec <.LBB71_488>:
    70ec:	deb43c23          	sd	a1,-520(s0)
    70f0:	eb043583          	ld	a1,-336(s0)
    70f4:	00bb05b3          	add	a1,s6,a1
    70f8:	e7843603          	ld	a2,-392(s0)
    70fc:	00a60633          	add	a2,a2,a0
    7100:	40c585bb          	subw	a1,a1,a2
    7104:	2405829b          	addiw	t0,a1,576 # ffffffffc0000240 <.Lfunc_end80+0xffffffffbffd7878>
    7108:	400005b7          	lui	a1,0x40000
    710c:	400006b7          	lui	a3,0x40000
    7110:	0002d463          	bgez	t0,7118 <.LBB71_490>
    7114:	c00005b7          	lui	a1,0xc0000

0000000000007118 <.LBB71_490>:
    7118:	e0b43423          	sd	a1,-504(s0)
    711c:	ec043583          	ld	a1,-320(s0)
    7120:	00ba85b3          	add	a1,s5,a1
    7124:	e8843603          	ld	a2,-376(s0)
    7128:	00a60633          	add	a2,a2,a0
    712c:	40c585bb          	subw	a1,a1,a2
    7130:	2405859b          	addiw	a1,a1,576 # ffffffffc0000240 <.Lfunc_end80+0xffffffffbffd7878>
    7134:	40000637          	lui	a2,0x40000
    7138:	e0b43c23          	sd	a1,-488(s0)
    713c:	0005d463          	bgez	a1,7144 <.LBB71_492>
    7140:	c0000637          	lui	a2,0xc0000

0000000000007144 <.LBB71_492>:
    7144:	e0c43823          	sd	a2,-496(s0)
    7148:	ed043583          	ld	a1,-304(s0)
    714c:	00b085b3          	add	a1,ra,a1
    7150:	e9843603          	ld	a2,-360(s0)
    7154:	00a60633          	add	a2,a2,a0
    7158:	40c585bb          	subw	a1,a1,a2
    715c:	2405859b          	addiw	a1,a1,576
    7160:	40000637          	lui	a2,0x40000
    7164:	e2b43423          	sd	a1,-472(s0)
    7168:	0005d463          	bgez	a1,7170 <.LBB71_494>
    716c:	c0000637          	lui	a2,0xc0000

0000000000007170 <.LBB71_494>:
    7170:	e2c43023          	sd	a2,-480(s0)
    7174:	ee043583          	ld	a1,-288(s0)
    7178:	00bd85b3          	add	a1,s11,a1
    717c:	ea843603          	ld	a2,-344(s0)
    7180:	00a60633          	add	a2,a2,a0
    7184:	40c585bb          	subw	a1,a1,a2
    7188:	2405859b          	addiw	a1,a1,576
    718c:	40000637          	lui	a2,0x40000
    7190:	e4b43023          	sd	a1,-448(s0)
    7194:	0005d463          	bgez	a1,719c <.LBB71_496>
    7198:	c0000637          	lui	a2,0xc0000

000000000000719c <.LBB71_496>:
    719c:	e2c43823          	sd	a2,-464(s0)
    71a0:	ef043583          	ld	a1,-272(s0)
    71a4:	00bc85b3          	add	a1,s9,a1
    71a8:	eb843603          	ld	a2,-328(s0)
    71ac:	00a60633          	add	a2,a2,a0
    71b0:	40c585bb          	subw	a1,a1,a2
    71b4:	2405859b          	addiw	a1,a1,576
    71b8:	40000637          	lui	a2,0x40000
    71bc:	e4b43823          	sd	a1,-432(s0)
    71c0:	0005d463          	bgez	a1,71c8 <.LBB71_498>
    71c4:	c0000637          	lui	a2,0xc0000

00000000000071c8 <.LBB71_498>:
    71c8:	e4c43423          	sd	a2,-440(s0)
    71cc:	f0043583          	ld	a1,-256(s0)
    71d0:	00ba05b3          	add	a1,s4,a1
    71d4:	ec843603          	ld	a2,-312(s0)
    71d8:	00a60633          	add	a2,a2,a0
    71dc:	40c585bb          	subw	a1,a1,a2
    71e0:	2405859b          	addiw	a1,a1,576
    71e4:	40000637          	lui	a2,0x40000
    71e8:	e6b43023          	sd	a1,-416(s0)
    71ec:	0005d463          	bgez	a1,71f4 <.LBB71_500>
    71f0:	c0000637          	lui	a2,0xc0000

00000000000071f4 <.LBB71_500>:
    71f4:	e4c43c23          	sd	a2,-424(s0)
    71f8:	f2043583          	ld	a1,-224(s0)
    71fc:	00b985b3          	add	a1,s3,a1
    7200:	ed843603          	ld	a2,-296(s0)
    7204:	00a60633          	add	a2,a2,a0
    7208:	40c585bb          	subw	a1,a1,a2
    720c:	2405859b          	addiw	a1,a1,576
    7210:	40000637          	lui	a2,0x40000
    7214:	e6b43823          	sd	a1,-400(s0)
    7218:	0005d463          	bgez	a1,7220 <.LBB71_502>
    721c:	c0000637          	lui	a2,0xc0000

0000000000007220 <.LBB71_502>:
    7220:	e6c43423          	sd	a2,-408(s0)
    7224:	f3043583          	ld	a1,-208(s0)
    7228:	00b905b3          	add	a1,s2,a1
    722c:	ee843603          	ld	a2,-280(s0)
    7230:	00a60633          	add	a2,a2,a0
    7234:	40c585bb          	subw	a1,a1,a2
    7238:	2405859b          	addiw	a1,a1,576
    723c:	40000637          	lui	a2,0x40000
    7240:	e8b43423          	sd	a1,-376(s0)
    7244:	0005d463          	bgez	a1,724c <.LBB71_504>
    7248:	c0000637          	lui	a2,0xc0000

000000000000724c <.LBB71_504>:
    724c:	e8c43023          	sd	a2,-384(s0)
    7250:	f4043583          	ld	a1,-192(s0)
    7254:	00b485b3          	add	a1,s1,a1
    7258:	ef843603          	ld	a2,-264(s0)
    725c:	00a60633          	add	a2,a2,a0
    7260:	40c585bb          	subw	a1,a1,a2
    7264:	2405891b          	addiw	s2,a1,576
    7268:	400005b7          	lui	a1,0x40000
    726c:	00095463          	bgez	s2,7274 <.LBB71_506>
    7270:	c00005b7          	lui	a1,0xc0000

0000000000007274 <.LBB71_506>:
    7274:	e8b43823          	sd	a1,-368(s0)
    7278:	f5043583          	ld	a1,-176(s0)
    727c:	00bf85b3          	add	a1,t6,a1
    7280:	f0843603          	ld	a2,-248(s0)
    7284:	00a60633          	add	a2,a2,a0
    7288:	40c585bb          	subw	a1,a1,a2
    728c:	2405899b          	addiw	s3,a1,576 # ffffffffc0000240 <.Lfunc_end80+0xffffffffbffd7878>
    7290:	400005b7          	lui	a1,0x40000
    7294:	0009d463          	bgez	s3,729c <.LBB71_508>
    7298:	c00005b7          	lui	a1,0xc0000

000000000000729c <.LBB71_508>:
    729c:	e8b43c23          	sd	a1,-360(s0)
    72a0:	f6043583          	ld	a1,-160(s0)
    72a4:	00bf05b3          	add	a1,t5,a1
    72a8:	f2843603          	ld	a2,-216(s0)
    72ac:	00a60633          	add	a2,a2,a0
    72b0:	40c585bb          	subw	a1,a1,a2
    72b4:	24058a1b          	addiw	s4,a1,576 # ffffffffc0000240 <.Lfunc_end80+0xffffffffbffd7878>
    72b8:	400005b7          	lui	a1,0x40000
    72bc:	000a5463          	bgez	s4,72c4 <.LBB71_510>
    72c0:	c00005b7          	lui	a1,0xc0000

00000000000072c4 <.LBB71_510>:
    72c4:	eab43023          	sd	a1,-352(s0)
    72c8:	f7043583          	ld	a1,-144(s0)
    72cc:	00be85b3          	add	a1,t4,a1
    72d0:	f3843603          	ld	a2,-200(s0)
    72d4:	00a60633          	add	a2,a2,a0
    72d8:	40c585bb          	subw	a1,a1,a2
    72dc:	24058a9b          	addiw	s5,a1,576 # ffffffffc0000240 <.Lfunc_end80+0xffffffffbffd7878>
    72e0:	400005b7          	lui	a1,0x40000
    72e4:	000ad463          	bgez	s5,72ec <.LBB71_512>
    72e8:	c00005b7          	lui	a1,0xc0000

00000000000072ec <.LBB71_512>:
    72ec:	eab43823          	sd	a1,-336(s0)
    72f0:	f7843583          	ld	a1,-136(s0)
    72f4:	00be05b3          	add	a1,t3,a1
    72f8:	f4843603          	ld	a2,-184(s0)
    72fc:	00a60633          	add	a2,a2,a0
    7300:	40c585bb          	subw	a1,a1,a2
    7304:	24058b1b          	addiw	s6,a1,576 # ffffffffc0000240 <.Lfunc_end80+0xffffffffbffd7878>
    7308:	400005b7          	lui	a1,0x40000
    730c:	000b5463          	bgez	s6,7314 <.LBB71_514>
    7310:	c00005b7          	lui	a1,0xc0000

0000000000007314 <.LBB71_514>:
    7314:	eab43c23          	sd	a1,-328(s0)
    7318:	f8043583          	ld	a1,-128(s0)
    731c:	00b385b3          	add	a1,t2,a1
    7320:	f5843603          	ld	a2,-168(s0)
    7324:	00a60633          	add	a2,a2,a0
    7328:	40c585bb          	subw	a1,a1,a2
    732c:	2405859b          	addiw	a1,a1,576 # ffffffffc0000240 <.Lfunc_end80+0xffffffffbffd7878>
    7330:	40000d37          	lui	s10,0x40000
    7334:	ecb43023          	sd	a1,-320(s0)
    7338:	0005d463          	bgez	a1,7340 <.LBB71_516>
    733c:	c0000d37          	lui	s10,0xc0000

0000000000007340 <.LBB71_516>:
    7340:	f8843583          	ld	a1,-120(s0)
    7344:	00b305b3          	add	a1,t1,a1
    7348:	f6843303          	ld	t1,-152(s0)
    734c:	00a30533          	add	a0,t1,a0
    7350:	40a585bb          	subw	a1,a1,a0
    7354:	2405851b          	addiw	a0,a1,576
    7358:	eca43823          	sd	a0,-304(s0)
    735c:	00055463          	bgez	a0,7364 <.LBB71_518>
    7360:	c00006b7          	lui	a3,0xc0000

0000000000007364 <.LBB71_518>:
    7364:	00001537          	lui	a0,0x1
    7368:	40a40533          	sub	a0,s0,a0
    736c:	e5853503          	ld	a0,-424(a0) # e58 <.LBB71_3+0xbe0>
    7370:	03850533          	mul	a0,a0,s8
    7374:	000015b7          	lui	a1,0x1
    7378:	40b405b3          	sub	a1,s0,a1
    737c:	e385b583          	ld	a1,-456(a1) # e38 <.LBB71_3+0xbc0>
    7380:	017585b3          	add	a1,a1,s7
    7384:	00b50533          	add	a0,a0,a1
    7388:	42555513          	srai	a0,a0,0x25
    738c:	00a025b3          	sgtz	a1,a0
    7390:	40b005b3          	neg	a1,a1
    7394:	00a5f533          	and	a0,a1,a0
    7398:	0ff00c93          	li	s9,255
    739c:	01954463          	blt	a0,s9,73a4 <.LBB71_520>
    73a0:	0ff00513          	li	a0,255

00000000000073a4 <.LBB71_520>:
    73a4:	eea43423          	sd	a0,-280(s0)
    73a8:	00001537          	lui	a0,0x1
    73ac:	40a40533          	sub	a0,s0,a0
    73b0:	e7053503          	ld	a0,-400(a0) # e70 <.LBB71_3+0xbf8>
    73b4:	03850533          	mul	a0,a0,s8
    73b8:	000015b7          	lui	a1,0x1
    73bc:	40b405b3          	sub	a1,s0,a1
    73c0:	e505b583          	ld	a1,-432(a1) # e50 <.LBB71_3+0xbd8>
    73c4:	017585b3          	add	a1,a1,s7
    73c8:	00b50533          	add	a0,a0,a1
    73cc:	42555513          	srai	a0,a0,0x25
    73d0:	00a025b3          	sgtz	a1,a0
    73d4:	40b005b3          	neg	a1,a1
    73d8:	00a5f533          	and	a0,a1,a0
    73dc:	01954463          	blt	a0,s9,73e4 <.LBB71_522>
    73e0:	0ff00513          	li	a0,255

00000000000073e4 <.LBB71_522>:
    73e4:	f8a43423          	sd	a0,-120(s0)
    73e8:	00001537          	lui	a0,0x1
    73ec:	40a40533          	sub	a0,s0,a0
    73f0:	e8853503          	ld	a0,-376(a0) # e88 <.LBB71_3+0xc10>
    73f4:	03850533          	mul	a0,a0,s8
    73f8:	000015b7          	lui	a1,0x1
    73fc:	40b405b3          	sub	a1,s0,a1
    7400:	e685b583          	ld	a1,-408(a1) # e68 <.LBB71_3+0xbf0>
    7404:	017585b3          	add	a1,a1,s7
    7408:	00b50533          	add	a0,a0,a1
    740c:	42555513          	srai	a0,a0,0x25
    7410:	00a025b3          	sgtz	a1,a0
    7414:	40b005b3          	neg	a1,a1
    7418:	00a5f533          	and	a0,a1,a0
    741c:	01954463          	blt	a0,s9,7424 <.LBB71_524>
    7420:	0ff00513          	li	a0,255

0000000000007424 <.LBB71_524>:
    7424:	f8a43023          	sd	a0,-128(s0)
    7428:	00001537          	lui	a0,0x1
    742c:	40a40533          	sub	a0,s0,a0
    7430:	e9853503          	ld	a0,-360(a0) # e98 <.LBB71_3+0xc20>
    7434:	03850533          	mul	a0,a0,s8
    7438:	000015b7          	lui	a1,0x1
    743c:	40b405b3          	sub	a1,s0,a1
    7440:	e785b583          	ld	a1,-392(a1) # e78 <.LBB71_3+0xc00>
    7444:	017585b3          	add	a1,a1,s7
    7448:	00b50533          	add	a0,a0,a1
    744c:	42555513          	srai	a0,a0,0x25
    7450:	00a025b3          	sgtz	a1,a0
    7454:	40b005b3          	neg	a1,a1
    7458:	00a5f533          	and	a0,a1,a0
    745c:	01954463          	blt	a0,s9,7464 <.LBB71_526>
    7460:	0ff00513          	li	a0,255

0000000000007464 <.LBB71_526>:
    7464:	f6a43c23          	sd	a0,-136(s0)
    7468:	00001537          	lui	a0,0x1
    746c:	40a40533          	sub	a0,s0,a0
    7470:	eb053503          	ld	a0,-336(a0) # eb0 <.LBB71_3+0xc38>
    7474:	03850533          	mul	a0,a0,s8
    7478:	000015b7          	lui	a1,0x1
    747c:	40b405b3          	sub	a1,s0,a1
    7480:	e905b583          	ld	a1,-368(a1) # e90 <.LBB71_3+0xc18>
    7484:	017585b3          	add	a1,a1,s7
    7488:	00b50533          	add	a0,a0,a1
    748c:	42555513          	srai	a0,a0,0x25
    7490:	00a025b3          	sgtz	a1,a0
    7494:	40b005b3          	neg	a1,a1
    7498:	00a5f533          	and	a0,a1,a0
    749c:	01954463          	blt	a0,s9,74a4 <.LBB71_528>
    74a0:	0ff00513          	li	a0,255

00000000000074a4 <.LBB71_528>:
    74a4:	f6a43823          	sd	a0,-144(s0)
    74a8:	00001537          	lui	a0,0x1
    74ac:	40a40533          	sub	a0,s0,a0
    74b0:	ec853503          	ld	a0,-312(a0) # ec8 <.LBB71_3+0xc50>
    74b4:	03850533          	mul	a0,a0,s8
    74b8:	000015b7          	lui	a1,0x1
    74bc:	40b405b3          	sub	a1,s0,a1
    74c0:	ea85b583          	ld	a1,-344(a1) # ea8 <.LBB71_3+0xc30>
    74c4:	017585b3          	add	a1,a1,s7
    74c8:	00b50533          	add	a0,a0,a1
    74cc:	42555513          	srai	a0,a0,0x25
    74d0:	00a025b3          	sgtz	a1,a0
    74d4:	40b005b3          	neg	a1,a1
    74d8:	00a5f533          	and	a0,a1,a0
    74dc:	01954463          	blt	a0,s9,74e4 <.LBB71_530>
    74e0:	0ff00513          	li	a0,255

00000000000074e4 <.LBB71_530>:
    74e4:	f6a43423          	sd	a0,-152(s0)
    74e8:	00001537          	lui	a0,0x1
    74ec:	40a40533          	sub	a0,s0,a0
    74f0:	ed853503          	ld	a0,-296(a0) # ed8 <.LBB71_3+0xc60>
    74f4:	03850533          	mul	a0,a0,s8
    74f8:	000015b7          	lui	a1,0x1
    74fc:	40b405b3          	sub	a1,s0,a1
    7500:	eb85b583          	ld	a1,-328(a1) # eb8 <.LBB71_3+0xc40>
    7504:	017585b3          	add	a1,a1,s7
    7508:	00b50533          	add	a0,a0,a1
    750c:	42555513          	srai	a0,a0,0x25
    7510:	00a025b3          	sgtz	a1,a0
    7514:	40b005b3          	neg	a1,a1
    7518:	00a5f533          	and	a0,a1,a0
    751c:	01954463          	blt	a0,s9,7524 <.LBB71_532>
    7520:	0ff00513          	li	a0,255

0000000000007524 <.LBB71_532>:
    7524:	f6a43023          	sd	a0,-160(s0)
    7528:	00001537          	lui	a0,0x1
    752c:	40a40533          	sub	a0,s0,a0
    7530:	ef053503          	ld	a0,-272(a0) # ef0 <.LBB71_3+0xc78>
    7534:	03850533          	mul	a0,a0,s8
    7538:	000015b7          	lui	a1,0x1
    753c:	40b405b3          	sub	a1,s0,a1
    7540:	ed05b583          	ld	a1,-304(a1) # ed0 <.LBB71_3+0xc58>
    7544:	017585b3          	add	a1,a1,s7
    7548:	00b50533          	add	a0,a0,a1
    754c:	42555513          	srai	a0,a0,0x25
    7550:	00a025b3          	sgtz	a1,a0
    7554:	40b005b3          	neg	a1,a1
    7558:	00a5f533          	and	a0,a1,a0
    755c:	01954463          	blt	a0,s9,7564 <.LBB71_534>
    7560:	0ff00513          	li	a0,255

0000000000007564 <.LBB71_534>:
    7564:	f4a43c23          	sd	a0,-168(s0)
    7568:	00001537          	lui	a0,0x1
    756c:	40a40533          	sub	a0,s0,a0
    7570:	f0053503          	ld	a0,-256(a0) # f00 <.LBB71_3+0xc88>
    7574:	03850533          	mul	a0,a0,s8
    7578:	000015b7          	lui	a1,0x1
    757c:	40b405b3          	sub	a1,s0,a1
    7580:	ee85b583          	ld	a1,-280(a1) # ee8 <.LBB71_3+0xc70>
    7584:	017585b3          	add	a1,a1,s7
    7588:	00b50533          	add	a0,a0,a1
    758c:	42555513          	srai	a0,a0,0x25
    7590:	00a025b3          	sgtz	a1,a0
    7594:	40b005b3          	neg	a1,a1
    7598:	00a5f533          	and	a0,a1,a0
    759c:	01954463          	blt	a0,s9,75a4 <.LBB71_536>
    75a0:	0ff00513          	li	a0,255

00000000000075a4 <.LBB71_536>:
    75a4:	f4a43823          	sd	a0,-176(s0)
    75a8:	00001537          	lui	a0,0x1
    75ac:	40a40533          	sub	a0,s0,a0
    75b0:	d4053503          	ld	a0,-704(a0) # d40 <.LBB71_3+0xac8>
    75b4:	03850533          	mul	a0,a0,s8
    75b8:	000015b7          	lui	a1,0x1
    75bc:	40b405b3          	sub	a1,s0,a1
    75c0:	d385b583          	ld	a1,-712(a1) # d38 <.LBB71_3+0xac0>
    75c4:	017585b3          	add	a1,a1,s7
    75c8:	00b50533          	add	a0,a0,a1
    75cc:	42555513          	srai	a0,a0,0x25
    75d0:	00a025b3          	sgtz	a1,a0
    75d4:	40b005b3          	neg	a1,a1
    75d8:	00a5f533          	and	a0,a1,a0
    75dc:	01954463          	blt	a0,s9,75e4 <.LBB71_538>
    75e0:	0ff00513          	li	a0,255

00000000000075e4 <.LBB71_538>:
    75e4:	f4a43423          	sd	a0,-184(s0)
    75e8:	00001537          	lui	a0,0x1
    75ec:	40a40533          	sub	a0,s0,a0
    75f0:	d5053503          	ld	a0,-688(a0) # d50 <.LBB71_3+0xad8>
    75f4:	03850533          	mul	a0,a0,s8
    75f8:	000015b7          	lui	a1,0x1
    75fc:	40b405b3          	sub	a1,s0,a1
    7600:	d485b583          	ld	a1,-696(a1) # d48 <.LBB71_3+0xad0>
    7604:	017585b3          	add	a1,a1,s7
    7608:	00b50533          	add	a0,a0,a1
    760c:	42555513          	srai	a0,a0,0x25
    7610:	00a025b3          	sgtz	a1,a0
    7614:	40b005b3          	neg	a1,a1
    7618:	00a5f533          	and	a0,a1,a0
    761c:	01954463          	blt	a0,s9,7624 <.LBB71_540>
    7620:	0ff00513          	li	a0,255

0000000000007624 <.LBB71_540>:
    7624:	f4a43023          	sd	a0,-192(s0)
    7628:	00001537          	lui	a0,0x1
    762c:	40a40533          	sub	a0,s0,a0
    7630:	d6053503          	ld	a0,-672(a0) # d60 <.LBB71_3+0xae8>
    7634:	03850533          	mul	a0,a0,s8
    7638:	000015b7          	lui	a1,0x1
    763c:	40b405b3          	sub	a1,s0,a1
    7640:	d585b583          	ld	a1,-680(a1) # d58 <.LBB71_3+0xae0>
    7644:	017585b3          	add	a1,a1,s7
    7648:	00b50533          	add	a0,a0,a1
    764c:	42555513          	srai	a0,a0,0x25
    7650:	00a025b3          	sgtz	a1,a0
    7654:	40b005b3          	neg	a1,a1
    7658:	00a5f533          	and	a0,a1,a0
    765c:	01954463          	blt	a0,s9,7664 <.LBB71_542>
    7660:	0ff00513          	li	a0,255

0000000000007664 <.LBB71_542>:
    7664:	f2a43c23          	sd	a0,-200(s0)
    7668:	00001537          	lui	a0,0x1
    766c:	40a40533          	sub	a0,s0,a0
    7670:	d7053503          	ld	a0,-656(a0) # d70 <.LBB71_3+0xaf8>
    7674:	03850533          	mul	a0,a0,s8
    7678:	000015b7          	lui	a1,0x1
    767c:	40b405b3          	sub	a1,s0,a1
    7680:	d685b583          	ld	a1,-664(a1) # d68 <.LBB71_3+0xaf0>
    7684:	017585b3          	add	a1,a1,s7
    7688:	00b50533          	add	a0,a0,a1
    768c:	42555513          	srai	a0,a0,0x25
    7690:	00a025b3          	sgtz	a1,a0
    7694:	40b005b3          	neg	a1,a1
    7698:	00a5f533          	and	a0,a1,a0
    769c:	01954463          	blt	a0,s9,76a4 <.LBB71_544>
    76a0:	0ff00513          	li	a0,255

00000000000076a4 <.LBB71_544>:
    76a4:	f2a43823          	sd	a0,-208(s0)
    76a8:	00001537          	lui	a0,0x1
    76ac:	40a40533          	sub	a0,s0,a0
    76b0:	d8053503          	ld	a0,-640(a0) # d80 <.LBB71_3+0xb08>
    76b4:	03850533          	mul	a0,a0,s8
    76b8:	000015b7          	lui	a1,0x1
    76bc:	40b405b3          	sub	a1,s0,a1
    76c0:	d785b583          	ld	a1,-648(a1) # d78 <.LBB71_3+0xb00>
    76c4:	017585b3          	add	a1,a1,s7
    76c8:	00b50533          	add	a0,a0,a1
    76cc:	42555513          	srai	a0,a0,0x25
    76d0:	00a025b3          	sgtz	a1,a0
    76d4:	40b005b3          	neg	a1,a1
    76d8:	00a5f533          	and	a0,a1,a0
    76dc:	01954463          	blt	a0,s9,76e4 <.LBB71_546>
    76e0:	0ff00513          	li	a0,255

00000000000076e4 <.LBB71_546>:
    76e4:	f2a43423          	sd	a0,-216(s0)
    76e8:	00001537          	lui	a0,0x1
    76ec:	40a40533          	sub	a0,s0,a0
    76f0:	d9053503          	ld	a0,-624(a0) # d90 <.LBB71_3+0xb18>
    76f4:	03850533          	mul	a0,a0,s8
    76f8:	000015b7          	lui	a1,0x1
    76fc:	40b405b3          	sub	a1,s0,a1
    7700:	d885b583          	ld	a1,-632(a1) # d88 <.LBB71_3+0xb10>
    7704:	017585b3          	add	a1,a1,s7
    7708:	00b50533          	add	a0,a0,a1
    770c:	42555513          	srai	a0,a0,0x25
    7710:	00a025b3          	sgtz	a1,a0
    7714:	40b005b3          	neg	a1,a1
    7718:	00a5f533          	and	a0,a1,a0
    771c:	01954463          	blt	a0,s9,7724 <.LBB71_548>
    7720:	0ff00513          	li	a0,255

0000000000007724 <.LBB71_548>:
    7724:	f2a43023          	sd	a0,-224(s0)
    7728:	00001537          	lui	a0,0x1
    772c:	40a40533          	sub	a0,s0,a0
    7730:	da053503          	ld	a0,-608(a0) # da0 <.LBB71_3+0xb28>
    7734:	03850533          	mul	a0,a0,s8
    7738:	000015b7          	lui	a1,0x1
    773c:	40b405b3          	sub	a1,s0,a1
    7740:	d985b583          	ld	a1,-616(a1) # d98 <.LBB71_3+0xb20>
    7744:	017585b3          	add	a1,a1,s7
    7748:	00b50533          	add	a0,a0,a1
    774c:	42555513          	srai	a0,a0,0x25
    7750:	00a025b3          	sgtz	a1,a0
    7754:	40b005b3          	neg	a1,a1
    7758:	00a5f533          	and	a0,a1,a0
    775c:	01954463          	blt	a0,s9,7764 <.LBB71_550>
    7760:	0ff00513          	li	a0,255

0000000000007764 <.LBB71_550>:
    7764:	f0a43c23          	sd	a0,-232(s0)
    7768:	00001537          	lui	a0,0x1
    776c:	40a40533          	sub	a0,s0,a0
    7770:	db053503          	ld	a0,-592(a0) # db0 <.LBB71_3+0xb38>
    7774:	03850533          	mul	a0,a0,s8
    7778:	000015b7          	lui	a1,0x1
    777c:	40b405b3          	sub	a1,s0,a1
    7780:	da85b583          	ld	a1,-600(a1) # da8 <.LBB71_3+0xb30>
    7784:	017585b3          	add	a1,a1,s7
    7788:	00b50533          	add	a0,a0,a1
    778c:	42555513          	srai	a0,a0,0x25
    7790:	00a025b3          	sgtz	a1,a0
    7794:	40b005b3          	neg	a1,a1
    7798:	00a5f533          	and	a0,a1,a0
    779c:	01954463          	blt	a0,s9,77a4 <.LBB71_552>
    77a0:	0ff00513          	li	a0,255

00000000000077a4 <.LBB71_552>:
    77a4:	f0a43823          	sd	a0,-240(s0)
    77a8:	00001537          	lui	a0,0x1
    77ac:	40a40533          	sub	a0,s0,a0
    77b0:	dc053503          	ld	a0,-576(a0) # dc0 <.LBB71_3+0xb48>
    77b4:	03850533          	mul	a0,a0,s8
    77b8:	000015b7          	lui	a1,0x1
    77bc:	40b405b3          	sub	a1,s0,a1
    77c0:	db85b583          	ld	a1,-584(a1) # db8 <.LBB71_3+0xb40>
    77c4:	017585b3          	add	a1,a1,s7
    77c8:	00b50533          	add	a0,a0,a1
    77cc:	42555513          	srai	a0,a0,0x25
    77d0:	00a025b3          	sgtz	a1,a0
    77d4:	40b005b3          	neg	a1,a1
    77d8:	00a5f533          	and	a0,a1,a0
    77dc:	01954463          	blt	a0,s9,77e4 <.LBB71_554>
    77e0:	0ff00513          	li	a0,255

00000000000077e4 <.LBB71_554>:
    77e4:	f0a43423          	sd	a0,-248(s0)
    77e8:	00001537          	lui	a0,0x1
    77ec:	40a40533          	sub	a0,s0,a0
    77f0:	dd053503          	ld	a0,-560(a0) # dd0 <.LBB71_3+0xb58>
    77f4:	03850533          	mul	a0,a0,s8
    77f8:	000015b7          	lui	a1,0x1
    77fc:	40b405b3          	sub	a1,s0,a1
    7800:	dc85b583          	ld	a1,-568(a1) # dc8 <.LBB71_3+0xb50>
    7804:	017585b3          	add	a1,a1,s7
    7808:	00b50533          	add	a0,a0,a1
    780c:	42555513          	srai	a0,a0,0x25
    7810:	00a025b3          	sgtz	a1,a0
    7814:	40b005b3          	neg	a1,a1
    7818:	00a5f533          	and	a0,a1,a0
    781c:	01954463          	blt	a0,s9,7824 <.LBB71_556>
    7820:	0ff00513          	li	a0,255

0000000000007824 <.LBB71_556>:
    7824:	f0a43023          	sd	a0,-256(s0)
    7828:	00001537          	lui	a0,0x1
    782c:	40a40533          	sub	a0,s0,a0
    7830:	de053503          	ld	a0,-544(a0) # de0 <.LBB71_3+0xb68>
    7834:	03850533          	mul	a0,a0,s8
    7838:	000015b7          	lui	a1,0x1
    783c:	40b405b3          	sub	a1,s0,a1
    7840:	dd85b583          	ld	a1,-552(a1) # dd8 <.LBB71_3+0xb60>
    7844:	017585b3          	add	a1,a1,s7
    7848:	00b50533          	add	a0,a0,a1
    784c:	42555513          	srai	a0,a0,0x25
    7850:	00a025b3          	sgtz	a1,a0
    7854:	40b005b3          	neg	a1,a1
    7858:	00a5f533          	and	a0,a1,a0
    785c:	01954463          	blt	a0,s9,7864 <.LBB71_558>
    7860:	0ff00513          	li	a0,255

0000000000007864 <.LBB71_558>:
    7864:	eea43c23          	sd	a0,-264(s0)
    7868:	00001537          	lui	a0,0x1
    786c:	40a40533          	sub	a0,s0,a0
    7870:	df053503          	ld	a0,-528(a0) # df0 <.LBB71_3+0xb78>
    7874:	03850533          	mul	a0,a0,s8
    7878:	000015b7          	lui	a1,0x1
    787c:	40b405b3          	sub	a1,s0,a1
    7880:	de85b583          	ld	a1,-536(a1) # de8 <.LBB71_3+0xb70>
    7884:	017585b3          	add	a1,a1,s7
    7888:	00b50533          	add	a0,a0,a1
    788c:	42555513          	srai	a0,a0,0x25
    7890:	00a025b3          	sgtz	a1,a0
    7894:	40b005b3          	neg	a1,a1
    7898:	00a5f533          	and	a0,a1,a0
    789c:	01954463          	blt	a0,s9,78a4 <.LBB71_560>
    78a0:	0ff00513          	li	a0,255

00000000000078a4 <.LBB71_560>:
    78a4:	eea43823          	sd	a0,-272(s0)
    78a8:	00001537          	lui	a0,0x1
    78ac:	40a40533          	sub	a0,s0,a0
    78b0:	e0053503          	ld	a0,-512(a0) # e00 <.LBB71_3+0xb88>
    78b4:	03850533          	mul	a0,a0,s8
    78b8:	000015b7          	lui	a1,0x1
    78bc:	40b405b3          	sub	a1,s0,a1
    78c0:	df85b583          	ld	a1,-520(a1) # df8 <.LBB71_3+0xb80>
    78c4:	017585b3          	add	a1,a1,s7
    78c8:	00b50533          	add	a0,a0,a1
    78cc:	42555513          	srai	a0,a0,0x25
    78d0:	00a025b3          	sgtz	a1,a0
    78d4:	40b005b3          	neg	a1,a1
    78d8:	00a5f533          	and	a0,a1,a0
    78dc:	01954463          	blt	a0,s9,78e4 <.LBB71_562>
    78e0:	0ff00513          	li	a0,255

00000000000078e4 <.LBB71_562>:
    78e4:	eea43023          	sd	a0,-288(s0)
    78e8:	00001537          	lui	a0,0x1
    78ec:	40a40533          	sub	a0,s0,a0
    78f0:	e1053503          	ld	a0,-496(a0) # e10 <.LBB71_3+0xb98>
    78f4:	03850533          	mul	a0,a0,s8
    78f8:	000015b7          	lui	a1,0x1
    78fc:	40b405b3          	sub	a1,s0,a1
    7900:	e085b583          	ld	a1,-504(a1) # e08 <.LBB71_3+0xb90>
    7904:	017585b3          	add	a1,a1,s7
    7908:	00b50533          	add	a0,a0,a1
    790c:	42555513          	srai	a0,a0,0x25
    7910:	00a025b3          	sgtz	a1,a0
    7914:	40b005b3          	neg	a1,a1
    7918:	00a5f533          	and	a0,a1,a0
    791c:	01954463          	blt	a0,s9,7924 <.LBB71_564>
    7920:	0ff00513          	li	a0,255

0000000000007924 <.LBB71_564>:
    7924:	eca43c23          	sd	a0,-296(s0)
    7928:	00001537          	lui	a0,0x1
    792c:	40a40533          	sub	a0,s0,a0
    7930:	e2053503          	ld	a0,-480(a0) # e20 <.LBB71_3+0xba8>
    7934:	03850533          	mul	a0,a0,s8
    7938:	000015b7          	lui	a1,0x1
    793c:	40b405b3          	sub	a1,s0,a1
    7940:	e185b583          	ld	a1,-488(a1) # e18 <.LBB71_3+0xba0>
    7944:	017585b3          	add	a1,a1,s7
    7948:	00b50533          	add	a0,a0,a1
    794c:	42555513          	srai	a0,a0,0x25
    7950:	00a025b3          	sgtz	a1,a0
    7954:	40b005b3          	neg	a1,a1
    7958:	00a5f533          	and	a0,a1,a0
    795c:	01954463          	blt	a0,s9,7964 <.LBB71_566>
    7960:	0ff00513          	li	a0,255

0000000000007964 <.LBB71_566>:
    7964:	eca43423          	sd	a0,-312(s0)
    7968:	00001537          	lui	a0,0x1
    796c:	40a40533          	sub	a0,s0,a0
    7970:	e3053503          	ld	a0,-464(a0) # e30 <.LBB71_3+0xbb8>
    7974:	03850533          	mul	a0,a0,s8
    7978:	000015b7          	lui	a1,0x1
    797c:	40b405b3          	sub	a1,s0,a1
    7980:	e285b583          	ld	a1,-472(a1) # e28 <.LBB71_3+0xbb0>
    7984:	017585b3          	add	a1,a1,s7
    7988:	00b50533          	add	a0,a0,a1
    798c:	42555513          	srai	a0,a0,0x25
    7990:	00a025b3          	sgtz	a1,a0
    7994:	40b005b3          	neg	a1,a1
    7998:	00a5f533          	and	a0,a1,a0
    799c:	01954463          	blt	a0,s9,79a4 <.LBB71_568>
    79a0:	0ff00513          	li	a0,255

00000000000079a4 <.LBB71_568>:
    79a4:	eaa43423          	sd	a0,-344(s0)
    79a8:	00001537          	lui	a0,0x1
    79ac:	40a40533          	sub	a0,s0,a0
    79b0:	e4853503          	ld	a0,-440(a0) # e48 <.LBB71_3+0xbd0>
    79b4:	03850533          	mul	a0,a0,s8
    79b8:	000015b7          	lui	a1,0x1
    79bc:	40b405b3          	sub	a1,s0,a1
    79c0:	e405b583          	ld	a1,-448(a1) # e40 <.LBB71_3+0xbc8>
    79c4:	017585b3          	add	a1,a1,s7
    79c8:	00b50533          	add	a0,a0,a1
    79cc:	42555513          	srai	a0,a0,0x25
    79d0:	00a025b3          	sgtz	a1,a0
    79d4:	40b005b3          	neg	a1,a1
    79d8:	00a5f533          	and	a0,a1,a0
    79dc:	01954463          	blt	a0,s9,79e4 <.LBB71_570>
    79e0:	0ff00513          	li	a0,255

00000000000079e4 <.LBB71_570>:
    79e4:	e6a43c23          	sd	a0,-392(s0)
    79e8:	00001537          	lui	a0,0x1
    79ec:	40a40533          	sub	a0,s0,a0
    79f0:	e8053503          	ld	a0,-384(a0) # e80 <.LBB71_3+0xc08>
    79f4:	03850533          	mul	a0,a0,s8
    79f8:	000015b7          	lui	a1,0x1
    79fc:	40b405b3          	sub	a1,s0,a1
    7a00:	e605b583          	ld	a1,-416(a1) # e60 <.LBB71_3+0xbe8>
    7a04:	017585b3          	add	a1,a1,s7
    7a08:	00b50533          	add	a0,a0,a1
    7a0c:	42555513          	srai	a0,a0,0x25
    7a10:	00a025b3          	sgtz	a1,a0
    7a14:	40b005b3          	neg	a1,a1
    7a18:	00a5f533          	and	a0,a1,a0
    7a1c:	01954463          	blt	a0,s9,7a24 <.LBB71_572>
    7a20:	0ff00513          	li	a0,255

0000000000007a24 <.LBB71_572>:
    7a24:	e2a43c23          	sd	a0,-456(s0)
    7a28:	00001537          	lui	a0,0x1
    7a2c:	40a40533          	sub	a0,s0,a0
    7a30:	ec053503          	ld	a0,-320(a0) # ec0 <.LBB71_3+0xc48>
    7a34:	03850533          	mul	a0,a0,s8
    7a38:	000015b7          	lui	a1,0x1
    7a3c:	40b405b3          	sub	a1,s0,a1
    7a40:	ea05b583          	ld	a1,-352(a1) # ea0 <.LBB71_3+0xc28>
    7a44:	017585b3          	add	a1,a1,s7
    7a48:	00b50533          	add	a0,a0,a1
    7a4c:	42555513          	srai	a0,a0,0x25
    7a50:	00a025b3          	sgtz	a1,a0
    7a54:	40b005b3          	neg	a1,a1
    7a58:	00a5f533          	and	a0,a1,a0
    7a5c:	01954463          	blt	a0,s9,7a64 <.LBB71_574>
    7a60:	0ff00513          	li	a0,255

0000000000007a64 <.LBB71_574>:
    7a64:	e0a43023          	sd	a0,-512(s0)
    7a68:	00001537          	lui	a0,0x1
    7a6c:	40a40533          	sub	a0,s0,a0
    7a70:	ef853503          	ld	a0,-264(a0) # ef8 <.LBB71_3+0xc80>
    7a74:	03850533          	mul	a0,a0,s8
    7a78:	000015b7          	lui	a1,0x1
    7a7c:	40b405b3          	sub	a1,s0,a1
    7a80:	ee05b583          	ld	a1,-288(a1) # ee0 <.LBB71_3+0xc68>
    7a84:	017585b3          	add	a1,a1,s7
    7a88:	00b50533          	add	a0,a0,a1
    7a8c:	42555513          	srai	a0,a0,0x25
    7a90:	00a025b3          	sgtz	a1,a0
    7a94:	40b005b3          	neg	a1,a1
    7a98:	00a5f533          	and	a0,a1,a0
    7a9c:	01954463          	blt	a0,s9,7aa4 <.LBB71_576>
    7aa0:	0ff00513          	li	a0,255

0000000000007aa4 <.LBB71_576>:
    7aa4:	dca43823          	sd	a0,-560(s0)
    7aa8:	00001537          	lui	a0,0x1
    7aac:	40a40533          	sub	a0,s0,a0
    7ab0:	f1053503          	ld	a0,-240(a0) # f10 <.LBB71_3+0xc98>
    7ab4:	03850533          	mul	a0,a0,s8
    7ab8:	000015b7          	lui	a1,0x1
    7abc:	40b405b3          	sub	a1,s0,a1
    7ac0:	f085b583          	ld	a1,-248(a1) # f08 <.LBB71_3+0xc90>
    7ac4:	017585b3          	add	a1,a1,s7
    7ac8:	00b50533          	add	a0,a0,a1
    7acc:	42555513          	srai	a0,a0,0x25
    7ad0:	00a025b3          	sgtz	a1,a0
    7ad4:	40b005b3          	neg	a1,a1
    7ad8:	00a5f533          	and	a0,a1,a0
    7adc:	01954463          	blt	a0,s9,7ae4 <.LBB71_578>
    7ae0:	0ff00513          	li	a0,255

0000000000007ae4 <.LBB71_578>:
    7ae4:	d8a43823          	sd	a0,-624(s0)
    7ae8:	00001537          	lui	a0,0x1
    7aec:	40a40533          	sub	a0,s0,a0
    7af0:	f2053503          	ld	a0,-224(a0) # f20 <.LBB71_3+0xca8>
    7af4:	03850533          	mul	a0,a0,s8
    7af8:	000015b7          	lui	a1,0x1
    7afc:	40b405b3          	sub	a1,s0,a1
    7b00:	f185b583          	ld	a1,-232(a1) # f18 <.LBB71_3+0xca0>
    7b04:	017585b3          	add	a1,a1,s7
    7b08:	00b50533          	add	a0,a0,a1
    7b0c:	42555513          	srai	a0,a0,0x25
    7b10:	00a025b3          	sgtz	a1,a0
    7b14:	40b005b3          	neg	a1,a1
    7b18:	00a5f533          	and	a0,a1,a0
    7b1c:	01954463          	blt	a0,s9,7b24 <.LBB71_580>
    7b20:	0ff00513          	li	a0,255

0000000000007b24 <.LBB71_580>:
    7b24:	d4a43823          	sd	a0,-688(s0)
    7b28:	00001537          	lui	a0,0x1
    7b2c:	40a40533          	sub	a0,s0,a0
    7b30:	f3053503          	ld	a0,-208(a0) # f30 <.LBB71_3+0xcb8>
    7b34:	03850533          	mul	a0,a0,s8
    7b38:	000015b7          	lui	a1,0x1
    7b3c:	40b405b3          	sub	a1,s0,a1
    7b40:	f285b583          	ld	a1,-216(a1) # f28 <.LBB71_3+0xcb0>
    7b44:	017585b3          	add	a1,a1,s7
    7b48:	00b50533          	add	a0,a0,a1
    7b4c:	42555513          	srai	a0,a0,0x25
    7b50:	00a025b3          	sgtz	a1,a0
    7b54:	40b005b3          	neg	a1,a1
    7b58:	00a5f533          	and	a0,a1,a0
    7b5c:	01954463          	blt	a0,s9,7b64 <.LBB71_582>
    7b60:	0ff00513          	li	a0,255

0000000000007b64 <.LBB71_582>:
    7b64:	d0a43423          	sd	a0,-760(s0)
    7b68:	00001537          	lui	a0,0x1
    7b6c:	40a40533          	sub	a0,s0,a0
    7b70:	f4053503          	ld	a0,-192(a0) # f40 <.LBB71_3+0xcc8>
    7b74:	03850533          	mul	a0,a0,s8
    7b78:	000015b7          	lui	a1,0x1
    7b7c:	40b405b3          	sub	a1,s0,a1
    7b80:	f385b583          	ld	a1,-200(a1) # f38 <.LBB71_3+0xcc0>
    7b84:	017585b3          	add	a1,a1,s7
    7b88:	00b50533          	add	a0,a0,a1
    7b8c:	42555513          	srai	a0,a0,0x25
    7b90:	00a025b3          	sgtz	a1,a0
    7b94:	40b005b3          	neg	a1,a1
    7b98:	00a5f533          	and	a0,a1,a0
    7b9c:	01954463          	blt	a0,s9,7ba4 <.LBB71_584>
    7ba0:	0ff00513          	li	a0,255

0000000000007ba4 <.LBB71_584>:
    7ba4:	cca43023          	sd	a0,-832(s0)
    7ba8:	00001537          	lui	a0,0x1
    7bac:	40a40533          	sub	a0,s0,a0
    7bb0:	f5053503          	ld	a0,-176(a0) # f50 <.LBB71_3+0xcd8>
    7bb4:	03850533          	mul	a0,a0,s8
    7bb8:	000015b7          	lui	a1,0x1
    7bbc:	40b405b3          	sub	a1,s0,a1
    7bc0:	f485b583          	ld	a1,-184(a1) # f48 <.LBB71_3+0xcd0>
    7bc4:	017585b3          	add	a1,a1,s7
    7bc8:	00b50533          	add	a0,a0,a1
    7bcc:	42555513          	srai	a0,a0,0x25
    7bd0:	00a025b3          	sgtz	a1,a0
    7bd4:	40b005b3          	neg	a1,a1
    7bd8:	00a5f533          	and	a0,a1,a0
    7bdc:	01954463          	blt	a0,s9,7be4 <.LBB71_586>
    7be0:	0ff00513          	li	a0,255

0000000000007be4 <.LBB71_586>:
    7be4:	c8a43423          	sd	a0,-888(s0)
    7be8:	00001537          	lui	a0,0x1
    7bec:	40a40533          	sub	a0,s0,a0
    7bf0:	f6053503          	ld	a0,-160(a0) # f60 <.LBB71_3+0xce8>
    7bf4:	03850533          	mul	a0,a0,s8
    7bf8:	000015b7          	lui	a1,0x1
    7bfc:	40b405b3          	sub	a1,s0,a1
    7c00:	f585b583          	ld	a1,-168(a1) # f58 <.LBB71_3+0xce0>
    7c04:	017585b3          	add	a1,a1,s7
    7c08:	00b50533          	add	a0,a0,a1
    7c0c:	42555513          	srai	a0,a0,0x25
    7c10:	00a025b3          	sgtz	a1,a0
    7c14:	40b005b3          	neg	a1,a1
    7c18:	00a5f533          	and	a0,a1,a0
    7c1c:	01954463          	blt	a0,s9,7c24 <.LBB71_588>
    7c20:	0ff00513          	li	a0,255

0000000000007c24 <.LBB71_588>:
    7c24:	c4a43023          	sd	a0,-960(s0)
    7c28:	00001537          	lui	a0,0x1
    7c2c:	40a40533          	sub	a0,s0,a0
    7c30:	f7053503          	ld	a0,-144(a0) # f70 <.LBB71_3+0xcf8>
    7c34:	03850533          	mul	a0,a0,s8
    7c38:	000015b7          	lui	a1,0x1
    7c3c:	40b405b3          	sub	a1,s0,a1
    7c40:	f685b583          	ld	a1,-152(a1) # f68 <.LBB71_3+0xcf0>
    7c44:	017585b3          	add	a1,a1,s7
    7c48:	00b50533          	add	a0,a0,a1
    7c4c:	42555513          	srai	a0,a0,0x25
    7c50:	00a025b3          	sgtz	a1,a0
    7c54:	40b005b3          	neg	a1,a1
    7c58:	00a5f533          	and	a0,a1,a0
    7c5c:	01954463          	blt	a0,s9,7c64 <.LBB71_590>
    7c60:	0ff00513          	li	a0,255

0000000000007c64 <.LBB71_590>:
    7c64:	c0a43023          	sd	a0,-1024(s0)
    7c68:	00001537          	lui	a0,0x1
    7c6c:	40a40533          	sub	a0,s0,a0
    7c70:	f8053503          	ld	a0,-128(a0) # f80 <.LBB71_3+0xd08>
    7c74:	03850533          	mul	a0,a0,s8
    7c78:	000015b7          	lui	a1,0x1
    7c7c:	40b405b3          	sub	a1,s0,a1
    7c80:	f785b583          	ld	a1,-136(a1) # f78 <.LBB71_3+0xd00>
    7c84:	017585b3          	add	a1,a1,s7
    7c88:	00b50533          	add	a0,a0,a1
    7c8c:	42555513          	srai	a0,a0,0x25
    7c90:	00a025b3          	sgtz	a1,a0
    7c94:	40b005b3          	neg	a1,a1
    7c98:	00a5f533          	and	a0,a1,a0
    7c9c:	01954463          	blt	a0,s9,7ca4 <.LBB71_592>
    7ca0:	0ff00513          	li	a0,255

0000000000007ca4 <.LBB71_592>:
    7ca4:	bea43823          	sd	a0,-1040(s0)
    7ca8:	00001537          	lui	a0,0x1
    7cac:	40a40533          	sub	a0,s0,a0
    7cb0:	f9053503          	ld	a0,-112(a0) # f90 <.LBB71_3+0xd18>
    7cb4:	03850533          	mul	a0,a0,s8
    7cb8:	000015b7          	lui	a1,0x1
    7cbc:	40b405b3          	sub	a1,s0,a1
    7cc0:	f885b583          	ld	a1,-120(a1) # f88 <.LBB71_3+0xd10>
    7cc4:	017585b3          	add	a1,a1,s7
    7cc8:	00b50533          	add	a0,a0,a1
    7ccc:	42555513          	srai	a0,a0,0x25
    7cd0:	00a025b3          	sgtz	a1,a0
    7cd4:	40b005b3          	neg	a1,a1
    7cd8:	00a5f533          	and	a0,a1,a0
    7cdc:	01954463          	blt	a0,s9,7ce4 <.LBB71_594>
    7ce0:	0ff00513          	li	a0,255

0000000000007ce4 <.LBB71_594>:
    7ce4:	bea43023          	sd	a0,-1056(s0)
    7ce8:	00001537          	lui	a0,0x1
    7cec:	40a40533          	sub	a0,s0,a0
    7cf0:	fa053503          	ld	a0,-96(a0) # fa0 <.LBB71_3+0xd28>
    7cf4:	03850533          	mul	a0,a0,s8
    7cf8:	000015b7          	lui	a1,0x1
    7cfc:	40b405b3          	sub	a1,s0,a1
    7d00:	f985b583          	ld	a1,-104(a1) # f98 <.LBB71_3+0xd20>
    7d04:	017585b3          	add	a1,a1,s7
    7d08:	00b50533          	add	a0,a0,a1
    7d0c:	42555513          	srai	a0,a0,0x25
    7d10:	00a025b3          	sgtz	a1,a0
    7d14:	40b005b3          	neg	a1,a1
    7d18:	00a5f533          	and	a0,a1,a0
    7d1c:	01954463          	blt	a0,s9,7d24 <.LBB71_596>
    7d20:	0ff00513          	li	a0,255

0000000000007d24 <.LBB71_596>:
    7d24:	b2a43c23          	sd	a0,-1224(s0)
    7d28:	00001537          	lui	a0,0x1
    7d2c:	40a40533          	sub	a0,s0,a0
    7d30:	fb053503          	ld	a0,-80(a0) # fb0 <.LBB71_3+0xd38>
    7d34:	03850533          	mul	a0,a0,s8
    7d38:	000015b7          	lui	a1,0x1
    7d3c:	40b405b3          	sub	a1,s0,a1
    7d40:	fa85b583          	ld	a1,-88(a1) # fa8 <.LBB71_3+0xd30>
    7d44:	017585b3          	add	a1,a1,s7
    7d48:	00b50533          	add	a0,a0,a1
    7d4c:	42555513          	srai	a0,a0,0x25
    7d50:	00a025b3          	sgtz	a1,a0
    7d54:	40b005b3          	neg	a1,a1
    7d58:	00a5f533          	and	a0,a1,a0
    7d5c:	01954463          	blt	a0,s9,7d64 <.LBB71_598>
    7d60:	0ff00513          	li	a0,255

0000000000007d64 <.LBB71_598>:
    7d64:	aea43c23          	sd	a0,-1288(s0)
    7d68:	00001537          	lui	a0,0x1
    7d6c:	40a40533          	sub	a0,s0,a0
    7d70:	fc053503          	ld	a0,-64(a0) # fc0 <.LBB71_3+0xd48>
    7d74:	03850533          	mul	a0,a0,s8
    7d78:	000015b7          	lui	a1,0x1
    7d7c:	40b405b3          	sub	a1,s0,a1
    7d80:	fb85b583          	ld	a1,-72(a1) # fb8 <.LBB71_3+0xd40>
    7d84:	017585b3          	add	a1,a1,s7
    7d88:	00b50533          	add	a0,a0,a1
    7d8c:	42555513          	srai	a0,a0,0x25
    7d90:	00a025b3          	sgtz	a1,a0
    7d94:	40b005b3          	neg	a1,a1
    7d98:	00a5f533          	and	a0,a1,a0
    7d9c:	01954463          	blt	a0,s9,7da4 <.LBB71_600>
    7da0:	0ff00513          	li	a0,255

0000000000007da4 <.LBB71_600>:
    7da4:	aaa43823          	sd	a0,-1360(s0)
    7da8:	00001537          	lui	a0,0x1
    7dac:	40a40533          	sub	a0,s0,a0
    7db0:	fd053503          	ld	a0,-48(a0) # fd0 <.LBB71_3+0xd58>
    7db4:	03850533          	mul	a0,a0,s8
    7db8:	000015b7          	lui	a1,0x1
    7dbc:	40b405b3          	sub	a1,s0,a1
    7dc0:	fc85b583          	ld	a1,-56(a1) # fc8 <.LBB71_3+0xd50>
    7dc4:	017585b3          	add	a1,a1,s7
    7dc8:	00b50533          	add	a0,a0,a1
    7dcc:	42555513          	srai	a0,a0,0x25
    7dd0:	00a025b3          	sgtz	a1,a0
    7dd4:	40b005b3          	neg	a1,a1
    7dd8:	00a5f533          	and	a0,a1,a0
    7ddc:	01954463          	blt	a0,s9,7de4 <.LBB71_602>
    7de0:	0ff00513          	li	a0,255

0000000000007de4 <.LBB71_602>:
    7de4:	a6a43423          	sd	a0,-1432(s0)
    7de8:	00001537          	lui	a0,0x1
    7dec:	40a40533          	sub	a0,s0,a0
    7df0:	fe053503          	ld	a0,-32(a0) # fe0 <.LBB71_3+0xd68>
    7df4:	03850533          	mul	a0,a0,s8
    7df8:	000015b7          	lui	a1,0x1
    7dfc:	40b405b3          	sub	a1,s0,a1
    7e00:	fd85b583          	ld	a1,-40(a1) # fd8 <.LBB71_3+0xd60>
    7e04:	017585b3          	add	a1,a1,s7
    7e08:	00b50533          	add	a0,a0,a1
    7e0c:	42555513          	srai	a0,a0,0x25
    7e10:	00a025b3          	sgtz	a1,a0
    7e14:	40b005b3          	neg	a1,a1
    7e18:	00a5f533          	and	a0,a1,a0
    7e1c:	01954463          	blt	a0,s9,7e24 <.LBB71_604>
    7e20:	0ff00513          	li	a0,255

0000000000007e24 <.LBB71_604>:
    7e24:	a2a43423          	sd	a0,-1496(s0)
    7e28:	00001537          	lui	a0,0x1
    7e2c:	40a40533          	sub	a0,s0,a0
    7e30:	ff053503          	ld	a0,-16(a0) # ff0 <.LBB71_3+0xd78>
    7e34:	03850533          	mul	a0,a0,s8
    7e38:	000015b7          	lui	a1,0x1
    7e3c:	40b405b3          	sub	a1,s0,a1
    7e40:	fe85b583          	ld	a1,-24(a1) # fe8 <.LBB71_3+0xd70>
    7e44:	017585b3          	add	a1,a1,s7
    7e48:	00b50533          	add	a0,a0,a1
    7e4c:	42555513          	srai	a0,a0,0x25
    7e50:	00a025b3          	sgtz	a1,a0
    7e54:	40b005b3          	neg	a1,a1
    7e58:	00a5f533          	and	a0,a1,a0
    7e5c:	01954463          	blt	a0,s9,7e64 <.LBB71_606>
    7e60:	0ff00513          	li	a0,255

0000000000007e64 <.LBB71_606>:
    7e64:	9ea43423          	sd	a0,-1560(s0)
    7e68:	00001537          	lui	a0,0x1
    7e6c:	40a40533          	sub	a0,s0,a0
    7e70:	00053503          	ld	a0,0(a0) # 1000 <.LBB71_3+0xd88>
    7e74:	03850533          	mul	a0,a0,s8
    7e78:	000015b7          	lui	a1,0x1
    7e7c:	40b405b3          	sub	a1,s0,a1
    7e80:	ff85b583          	ld	a1,-8(a1) # ff8 <.LBB71_3+0xd80>
    7e84:	017585b3          	add	a1,a1,s7
    7e88:	00b50533          	add	a0,a0,a1
    7e8c:	42555513          	srai	a0,a0,0x25
    7e90:	00a025b3          	sgtz	a1,a0
    7e94:	40b005b3          	neg	a1,a1
    7e98:	00a5f533          	and	a0,a1,a0
    7e9c:	01954463          	blt	a0,s9,7ea4 <.LBB71_608>
    7ea0:	0ff00513          	li	a0,255

0000000000007ea4 <.LBB71_608>:
    7ea4:	9aa43023          	sd	a0,-1632(s0)
    7ea8:	00001537          	lui	a0,0x1
    7eac:	40a40533          	sub	a0,s0,a0
    7eb0:	01053503          	ld	a0,16(a0) # 1010 <.LBB71_3+0xd98>
    7eb4:	03850533          	mul	a0,a0,s8
    7eb8:	000015b7          	lui	a1,0x1
    7ebc:	40b405b3          	sub	a1,s0,a1
    7ec0:	0085b583          	ld	a1,8(a1) # 1008 <.LBB71_3+0xd90>
    7ec4:	017585b3          	add	a1,a1,s7
    7ec8:	00b50533          	add	a0,a0,a1
    7ecc:	42555513          	srai	a0,a0,0x25
    7ed0:	00a025b3          	sgtz	a1,a0
    7ed4:	40b005b3          	neg	a1,a1
    7ed8:	00a5f533          	and	a0,a1,a0
    7edc:	01954463          	blt	a0,s9,7ee4 <.LBB71_610>
    7ee0:	0ff00513          	li	a0,255

0000000000007ee4 <.LBB71_610>:
    7ee4:	96a43023          	sd	a0,-1696(s0)
    7ee8:	00001537          	lui	a0,0x1
    7eec:	40a40533          	sub	a0,s0,a0
    7ef0:	02053503          	ld	a0,32(a0) # 1020 <.LBB71_3+0xda8>
    7ef4:	03850533          	mul	a0,a0,s8
    7ef8:	000015b7          	lui	a1,0x1
    7efc:	40b405b3          	sub	a1,s0,a1
    7f00:	0185b583          	ld	a1,24(a1) # 1018 <.LBB71_3+0xda0>
    7f04:	017585b3          	add	a1,a1,s7
    7f08:	00b50533          	add	a0,a0,a1
    7f0c:	42555513          	srai	a0,a0,0x25
    7f10:	00a025b3          	sgtz	a1,a0
    7f14:	40b005b3          	neg	a1,a1
    7f18:	00a5f533          	and	a0,a1,a0
    7f1c:	01954463          	blt	a0,s9,7f24 <.LBB71_612>
    7f20:	0ff00513          	li	a0,255

0000000000007f24 <.LBB71_612>:
    7f24:	92a43023          	sd	a0,-1760(s0)
    7f28:	00001537          	lui	a0,0x1
    7f2c:	40a40533          	sub	a0,s0,a0
    7f30:	03053503          	ld	a0,48(a0) # 1030 <.LBB71_3+0xdb8>
    7f34:	03850533          	mul	a0,a0,s8
    7f38:	000015b7          	lui	a1,0x1
    7f3c:	40b405b3          	sub	a1,s0,a1
    7f40:	0285b583          	ld	a1,40(a1) # 1028 <.LBB71_3+0xdb0>
    7f44:	017585b3          	add	a1,a1,s7
    7f48:	00b50533          	add	a0,a0,a1
    7f4c:	42555513          	srai	a0,a0,0x25
    7f50:	00a025b3          	sgtz	a1,a0
    7f54:	40b005b3          	neg	a1,a1
    7f58:	00a5f533          	and	a0,a1,a0
    7f5c:	01954463          	blt	a0,s9,7f64 <.LBB71_614>
    7f60:	0ff00513          	li	a0,255

0000000000007f64 <.LBB71_614>:
    7f64:	8ca43c23          	sd	a0,-1832(s0)
    7f68:	00001537          	lui	a0,0x1
    7f6c:	40a40533          	sub	a0,s0,a0
    7f70:	04053503          	ld	a0,64(a0) # 1040 <.LBB71_3+0xdc8>
    7f74:	03850533          	mul	a0,a0,s8
    7f78:	000015b7          	lui	a1,0x1
    7f7c:	40b405b3          	sub	a1,s0,a1
    7f80:	0385b583          	ld	a1,56(a1) # 1038 <.LBB71_3+0xdc0>
    7f84:	017585b3          	add	a1,a1,s7
    7f88:	00b50533          	add	a0,a0,a1
    7f8c:	42555513          	srai	a0,a0,0x25
    7f90:	00a025b3          	sgtz	a1,a0
    7f94:	40b005b3          	neg	a1,a1
    7f98:	00a5f533          	and	a0,a1,a0
    7f9c:	01954463          	blt	a0,s9,7fa4 <.LBB71_616>
    7fa0:	0ff00513          	li	a0,255

0000000000007fa4 <.LBB71_616>:
    7fa4:	88a43c23          	sd	a0,-1896(s0)
    7fa8:	85043503          	ld	a0,-1968(s0)
    7fac:	03850533          	mul	a0,a0,s8
    7fb0:	000015b7          	lui	a1,0x1
    7fb4:	40b405b3          	sub	a1,s0,a1
    7fb8:	0485b583          	ld	a1,72(a1) # 1048 <.LBB71_3+0xdd0>
    7fbc:	017585b3          	add	a1,a1,s7
    7fc0:	00b50533          	add	a0,a0,a1
    7fc4:	42555513          	srai	a0,a0,0x25
    7fc8:	00a025b3          	sgtz	a1,a0
    7fcc:	40b005b3          	neg	a1,a1
    7fd0:	00a5f533          	and	a0,a1,a0
    7fd4:	01954463          	blt	a0,s9,7fdc <.LBB71_618>
    7fd8:	0ff00513          	li	a0,255

0000000000007fdc <.LBB71_618>:
    7fdc:	84a43823          	sd	a0,-1968(s0)
    7fe0:	00001537          	lui	a0,0x1
    7fe4:	40a40533          	sub	a0,s0,a0
    7fe8:	05853503          	ld	a0,88(a0) # 1058 <.LBB71_3+0xde0>
    7fec:	03850533          	mul	a0,a0,s8
    7ff0:	000015b7          	lui	a1,0x1
    7ff4:	40b405b3          	sub	a1,s0,a1
    7ff8:	0505b583          	ld	a1,80(a1) # 1050 <.LBB71_3+0xdd8>
    7ffc:	017585b3          	add	a1,a1,s7
    8000:	00b50533          	add	a0,a0,a1
    8004:	42555513          	srai	a0,a0,0x25
    8008:	00a025b3          	sgtz	a1,a0
    800c:	40b005b3          	neg	a1,a1
    8010:	00a5f533          	and	a0,a1,a0
    8014:	01954463          	blt	a0,s9,801c <.LBB71_620>
    8018:	0ff00513          	li	a0,255

000000000000801c <.LBB71_620>:
    801c:	84a43023          	sd	a0,-1984(s0)
    8020:	00001537          	lui	a0,0x1
    8024:	40a40533          	sub	a0,s0,a0
    8028:	06853503          	ld	a0,104(a0) # 1068 <.LBB71_3+0xdf0>
    802c:	03850533          	mul	a0,a0,s8
    8030:	000015b7          	lui	a1,0x1
    8034:	40b405b3          	sub	a1,s0,a1
    8038:	0605b583          	ld	a1,96(a1) # 1060 <.LBB71_3+0xde8>
    803c:	017585b3          	add	a1,a1,s7
    8040:	00b50533          	add	a0,a0,a1
    8044:	42555513          	srai	a0,a0,0x25
    8048:	00a025b3          	sgtz	a1,a0
    804c:	40b005b3          	neg	a1,a1
    8050:	00a5f533          	and	a0,a1,a0
    8054:	01954463          	blt	a0,s9,805c <.LBB71_622>
    8058:	0ff00513          	li	a0,255

000000000000805c <.LBB71_622>:
    805c:	80a43423          	sd	a0,-2040(s0)
    8060:	00001537          	lui	a0,0x1
    8064:	40a40533          	sub	a0,s0,a0
    8068:	78853503          	ld	a0,1928(a0) # 1788 <.LBB71_5+0x54>
    806c:	03850533          	mul	a0,a0,s8
    8070:	000015b7          	lui	a1,0x1
    8074:	40b405b3          	sub	a1,s0,a1
    8078:	0705b583          	ld	a1,112(a1) # 1070 <.LBB71_3+0xdf8>
    807c:	017585b3          	add	a1,a1,s7
    8080:	00b50533          	add	a0,a0,a1
    8084:	42555513          	srai	a0,a0,0x25
    8088:	00a025b3          	sgtz	a1,a0
    808c:	40b005b3          	neg	a1,a1
    8090:	00a5f533          	and	a0,a1,a0
    8094:	01954463          	blt	a0,s9,809c <.LBB71_624>
    8098:	0ff00513          	li	a0,255

000000000000809c <.LBB71_624>:
    809c:	000015b7          	lui	a1,0x1
    80a0:	40b405b3          	sub	a1,s0,a1
    80a4:	78a5b423          	sd	a0,1928(a1) # 1788 <.LBB71_5+0x54>
    80a8:	00001537          	lui	a0,0x1
    80ac:	40a40533          	sub	a0,s0,a0
    80b0:	74853503          	ld	a0,1864(a0) # 1748 <.LBB71_5+0x14>
    80b4:	03850533          	mul	a0,a0,s8
    80b8:	000015b7          	lui	a1,0x1
    80bc:	40b405b3          	sub	a1,s0,a1
    80c0:	0785b583          	ld	a1,120(a1) # 1078 <.LBB71_3+0xe00>
    80c4:	017585b3          	add	a1,a1,s7
    80c8:	00b50533          	add	a0,a0,a1
    80cc:	42555513          	srai	a0,a0,0x25
    80d0:	00a025b3          	sgtz	a1,a0
    80d4:	40b005b3          	neg	a1,a1
    80d8:	00a5f533          	and	a0,a1,a0
    80dc:	01954463          	blt	a0,s9,80e4 <.LBB71_626>
    80e0:	0ff00513          	li	a0,255

00000000000080e4 <.LBB71_626>:
    80e4:	000015b7          	lui	a1,0x1
    80e8:	40b405b3          	sub	a1,s0,a1
    80ec:	74a5b423          	sd	a0,1864(a1) # 1748 <.LBB71_5+0x14>
    80f0:	00001537          	lui	a0,0x1
    80f4:	40a40533          	sub	a0,s0,a0
    80f8:	08853503          	ld	a0,136(a0) # 1088 <.LBB71_3+0xe10>
    80fc:	03850533          	mul	a0,a0,s8
    8100:	000015b7          	lui	a1,0x1
    8104:	40b405b3          	sub	a1,s0,a1
    8108:	0805b583          	ld	a1,128(a1) # 1080 <.LBB71_3+0xe08>
    810c:	017585b3          	add	a1,a1,s7
    8110:	00b50533          	add	a0,a0,a1
    8114:	42555513          	srai	a0,a0,0x25
    8118:	00a025b3          	sgtz	a1,a0
    811c:	40b005b3          	neg	a1,a1
    8120:	00a5f533          	and	a0,a1,a0
    8124:	01954463          	blt	a0,s9,812c <.LBB71_628>
    8128:	0ff00513          	li	a0,255

000000000000812c <.LBB71_628>:
    812c:	000015b7          	lui	a1,0x1
    8130:	40b405b3          	sub	a1,s0,a1
    8134:	72a5b423          	sd	a0,1832(a1) # 1728 <.LBB71_4+0x528>
    8138:	00001537          	lui	a0,0x1
    813c:	40a40533          	sub	a0,s0,a0
    8140:	09853503          	ld	a0,152(a0) # 1098 <.LBB71_3+0xe20>
    8144:	03850533          	mul	a0,a0,s8
    8148:	000015b7          	lui	a1,0x1
    814c:	40b405b3          	sub	a1,s0,a1
    8150:	0905b583          	ld	a1,144(a1) # 1090 <.LBB71_3+0xe18>
    8154:	017585b3          	add	a1,a1,s7
    8158:	00b50533          	add	a0,a0,a1
    815c:	42555513          	srai	a0,a0,0x25
    8160:	00a025b3          	sgtz	a1,a0
    8164:	40b005b3          	neg	a1,a1
    8168:	00a5f533          	and	a0,a1,a0
    816c:	01954463          	blt	a0,s9,8174 <.LBB71_630>
    8170:	0ff00513          	li	a0,255

0000000000008174 <.LBB71_630>:
    8174:	000015b7          	lui	a1,0x1
    8178:	40b405b3          	sub	a1,s0,a1
    817c:	72a5b023          	sd	a0,1824(a1) # 1720 <.LBB71_4+0x520>
    8180:	00001537          	lui	a0,0x1
    8184:	40a40533          	sub	a0,s0,a0
    8188:	0a853503          	ld	a0,168(a0) # 10a8 <.LBB71_3+0xe30>
    818c:	03850533          	mul	a0,a0,s8
    8190:	000015b7          	lui	a1,0x1
    8194:	40b405b3          	sub	a1,s0,a1
    8198:	0a05b583          	ld	a1,160(a1) # 10a0 <.LBB71_3+0xe28>
    819c:	017585b3          	add	a1,a1,s7
    81a0:	00b50533          	add	a0,a0,a1
    81a4:	42555513          	srai	a0,a0,0x25
    81a8:	00a025b3          	sgtz	a1,a0
    81ac:	40b005b3          	neg	a1,a1
    81b0:	00a5f533          	and	a0,a1,a0
    81b4:	01954463          	blt	a0,s9,81bc <.LBB71_632>
    81b8:	0ff00513          	li	a0,255

00000000000081bc <.LBB71_632>:
    81bc:	000015b7          	lui	a1,0x1
    81c0:	40b405b3          	sub	a1,s0,a1
    81c4:	70a5bc23          	sd	a0,1816(a1) # 1718 <.LBB71_4+0x518>
    81c8:	00001537          	lui	a0,0x1
    81cc:	40a40533          	sub	a0,s0,a0
    81d0:	0b853503          	ld	a0,184(a0) # 10b8 <.LBB71_3+0xe40>
    81d4:	03850533          	mul	a0,a0,s8
    81d8:	000015b7          	lui	a1,0x1
    81dc:	40b405b3          	sub	a1,s0,a1
    81e0:	0b05b583          	ld	a1,176(a1) # 10b0 <.LBB71_3+0xe38>
    81e4:	017585b3          	add	a1,a1,s7
    81e8:	00b50533          	add	a0,a0,a1
    81ec:	42555513          	srai	a0,a0,0x25
    81f0:	00a025b3          	sgtz	a1,a0
    81f4:	40b005b3          	neg	a1,a1
    81f8:	00a5f533          	and	a0,a1,a0
    81fc:	01954463          	blt	a0,s9,8204 <.LBB71_634>
    8200:	0ff00513          	li	a0,255

0000000000008204 <.LBB71_634>:
    8204:	000015b7          	lui	a1,0x1
    8208:	40b405b3          	sub	a1,s0,a1
    820c:	70a5b823          	sd	a0,1808(a1) # 1710 <.LBB71_4+0x510>
    8210:	00001537          	lui	a0,0x1
    8214:	40a40533          	sub	a0,s0,a0
    8218:	0c853503          	ld	a0,200(a0) # 10c8 <.LBB71_3+0xe50>
    821c:	03850533          	mul	a0,a0,s8
    8220:	000015b7          	lui	a1,0x1
    8224:	40b405b3          	sub	a1,s0,a1
    8228:	0c05b583          	ld	a1,192(a1) # 10c0 <.LBB71_3+0xe48>
    822c:	017585b3          	add	a1,a1,s7
    8230:	00b50533          	add	a0,a0,a1
    8234:	42555513          	srai	a0,a0,0x25
    8238:	00a025b3          	sgtz	a1,a0
    823c:	40b005b3          	neg	a1,a1
    8240:	00a5f533          	and	a0,a1,a0
    8244:	01954463          	blt	a0,s9,824c <.LBB71_636>
    8248:	0ff00513          	li	a0,255

000000000000824c <.LBB71_636>:
    824c:	000015b7          	lui	a1,0x1
    8250:	40b405b3          	sub	a1,s0,a1
    8254:	70a5b423          	sd	a0,1800(a1) # 1708 <.LBB71_4+0x508>
    8258:	00001537          	lui	a0,0x1
    825c:	40a40533          	sub	a0,s0,a0
    8260:	0d853503          	ld	a0,216(a0) # 10d8 <.LBB71_3+0xe60>
    8264:	03850533          	mul	a0,a0,s8
    8268:	000015b7          	lui	a1,0x1
    826c:	40b405b3          	sub	a1,s0,a1
    8270:	0d05b583          	ld	a1,208(a1) # 10d0 <.LBB71_3+0xe58>
    8274:	017585b3          	add	a1,a1,s7
    8278:	00b50533          	add	a0,a0,a1
    827c:	42555513          	srai	a0,a0,0x25
    8280:	00a025b3          	sgtz	a1,a0
    8284:	40b005b3          	neg	a1,a1
    8288:	00a5f533          	and	a0,a1,a0
    828c:	01954463          	blt	a0,s9,8294 <.LBB71_638>
    8290:	0ff00513          	li	a0,255

0000000000008294 <.LBB71_638>:
    8294:	000015b7          	lui	a1,0x1
    8298:	40b405b3          	sub	a1,s0,a1
    829c:	70a5b023          	sd	a0,1792(a1) # 1700 <.LBB71_4+0x500>
    82a0:	00001537          	lui	a0,0x1
    82a4:	40a40533          	sub	a0,s0,a0
    82a8:	0e853503          	ld	a0,232(a0) # 10e8 <.LBB71_3+0xe70>
    82ac:	03850533          	mul	a0,a0,s8
    82b0:	000015b7          	lui	a1,0x1
    82b4:	40b405b3          	sub	a1,s0,a1
    82b8:	0e05b583          	ld	a1,224(a1) # 10e0 <.LBB71_3+0xe68>
    82bc:	017585b3          	add	a1,a1,s7
    82c0:	00b50533          	add	a0,a0,a1
    82c4:	42555513          	srai	a0,a0,0x25
    82c8:	00a025b3          	sgtz	a1,a0
    82cc:	40b005b3          	neg	a1,a1
    82d0:	00a5f533          	and	a0,a1,a0
    82d4:	01954463          	blt	a0,s9,82dc <.LBB71_640>
    82d8:	0ff00513          	li	a0,255

00000000000082dc <.LBB71_640>:
    82dc:	000015b7          	lui	a1,0x1
    82e0:	40b405b3          	sub	a1,s0,a1
    82e4:	6ea5bc23          	sd	a0,1784(a1) # 16f8 <.LBB71_4+0x4f8>
    82e8:	00001537          	lui	a0,0x1
    82ec:	40a40533          	sub	a0,s0,a0
    82f0:	0f853503          	ld	a0,248(a0) # 10f8 <.LBB71_3+0xe80>
    82f4:	03850533          	mul	a0,a0,s8
    82f8:	000015b7          	lui	a1,0x1
    82fc:	40b405b3          	sub	a1,s0,a1
    8300:	0f05b583          	ld	a1,240(a1) # 10f0 <.LBB71_3+0xe78>
    8304:	017585b3          	add	a1,a1,s7
    8308:	00b50533          	add	a0,a0,a1
    830c:	42555513          	srai	a0,a0,0x25
    8310:	00a025b3          	sgtz	a1,a0
    8314:	40b005b3          	neg	a1,a1
    8318:	00a5f533          	and	a0,a1,a0
    831c:	01954463          	blt	a0,s9,8324 <.LBB71_642>
    8320:	0ff00513          	li	a0,255

0000000000008324 <.LBB71_642>:
    8324:	000015b7          	lui	a1,0x1
    8328:	40b405b3          	sub	a1,s0,a1
    832c:	6ea5b823          	sd	a0,1776(a1) # 16f0 <.LBB71_4+0x4f0>
    8330:	00001537          	lui	a0,0x1
    8334:	40a40533          	sub	a0,s0,a0
    8338:	10853503          	ld	a0,264(a0) # 1108 <.LBB71_3+0xe90>
    833c:	03850533          	mul	a0,a0,s8
    8340:	000015b7          	lui	a1,0x1
    8344:	40b405b3          	sub	a1,s0,a1
    8348:	1005b583          	ld	a1,256(a1) # 1100 <.LBB71_3+0xe88>
    834c:	017585b3          	add	a1,a1,s7
    8350:	00b50533          	add	a0,a0,a1
    8354:	42555513          	srai	a0,a0,0x25
    8358:	00a025b3          	sgtz	a1,a0
    835c:	40b005b3          	neg	a1,a1
    8360:	00a5f533          	and	a0,a1,a0
    8364:	01954463          	blt	a0,s9,836c <.LBB71_644>
    8368:	0ff00513          	li	a0,255

000000000000836c <.LBB71_644>:
    836c:	000015b7          	lui	a1,0x1
    8370:	40b405b3          	sub	a1,s0,a1
    8374:	6ea5b423          	sd	a0,1768(a1) # 16e8 <.LBB71_4+0x4e8>
    8378:	00001537          	lui	a0,0x1
    837c:	40a40533          	sub	a0,s0,a0
    8380:	11853503          	ld	a0,280(a0) # 1118 <.LBB71_3+0xea0>
    8384:	03850533          	mul	a0,a0,s8
    8388:	000015b7          	lui	a1,0x1
    838c:	40b405b3          	sub	a1,s0,a1
    8390:	1105b583          	ld	a1,272(a1) # 1110 <.LBB71_3+0xe98>
    8394:	017585b3          	add	a1,a1,s7
    8398:	00b50533          	add	a0,a0,a1
    839c:	42555513          	srai	a0,a0,0x25
    83a0:	00a025b3          	sgtz	a1,a0
    83a4:	40b005b3          	neg	a1,a1
    83a8:	00a5f533          	and	a0,a1,a0
    83ac:	01954463          	blt	a0,s9,83b4 <.LBB71_646>
    83b0:	0ff00513          	li	a0,255

00000000000083b4 <.LBB71_646>:
    83b4:	000015b7          	lui	a1,0x1
    83b8:	40b405b3          	sub	a1,s0,a1
    83bc:	6ea5b023          	sd	a0,1760(a1) # 16e0 <.LBB71_4+0x4e0>
    83c0:	00001537          	lui	a0,0x1
    83c4:	40a40533          	sub	a0,s0,a0
    83c8:	12853503          	ld	a0,296(a0) # 1128 <.LBB71_3+0xeb0>
    83cc:	03850533          	mul	a0,a0,s8
    83d0:	000015b7          	lui	a1,0x1
    83d4:	40b405b3          	sub	a1,s0,a1
    83d8:	1205b583          	ld	a1,288(a1) # 1120 <.LBB71_3+0xea8>
    83dc:	017585b3          	add	a1,a1,s7
    83e0:	00b50533          	add	a0,a0,a1
    83e4:	42555513          	srai	a0,a0,0x25
    83e8:	00a025b3          	sgtz	a1,a0
    83ec:	40b005b3          	neg	a1,a1
    83f0:	00a5f533          	and	a0,a1,a0
    83f4:	01954463          	blt	a0,s9,83fc <.LBB71_648>
    83f8:	0ff00513          	li	a0,255

00000000000083fc <.LBB71_648>:
    83fc:	000015b7          	lui	a1,0x1
    8400:	40b405b3          	sub	a1,s0,a1
    8404:	6ca5bc23          	sd	a0,1752(a1) # 16d8 <.LBB71_4+0x4d8>
    8408:	00001537          	lui	a0,0x1
    840c:	40a40533          	sub	a0,s0,a0
    8410:	13853503          	ld	a0,312(a0) # 1138 <.LBB71_3+0xec0>
    8414:	03850533          	mul	a0,a0,s8
    8418:	000015b7          	lui	a1,0x1
    841c:	40b405b3          	sub	a1,s0,a1
    8420:	1305b583          	ld	a1,304(a1) # 1130 <.LBB71_3+0xeb8>
    8424:	017585b3          	add	a1,a1,s7
    8428:	00b50533          	add	a0,a0,a1
    842c:	42555513          	srai	a0,a0,0x25
    8430:	00a025b3          	sgtz	a1,a0
    8434:	40b005b3          	neg	a1,a1
    8438:	00a5f533          	and	a0,a1,a0
    843c:	01954463          	blt	a0,s9,8444 <.LBB71_650>
    8440:	0ff00513          	li	a0,255

0000000000008444 <.LBB71_650>:
    8444:	000015b7          	lui	a1,0x1
    8448:	40b405b3          	sub	a1,s0,a1
    844c:	6ca5b823          	sd	a0,1744(a1) # 16d0 <.LBB71_4+0x4d0>
    8450:	00001537          	lui	a0,0x1
    8454:	40a40533          	sub	a0,s0,a0
    8458:	14853503          	ld	a0,328(a0) # 1148 <.LBB71_3+0xed0>
    845c:	03850533          	mul	a0,a0,s8
    8460:	000015b7          	lui	a1,0x1
    8464:	40b405b3          	sub	a1,s0,a1
    8468:	1405b583          	ld	a1,320(a1) # 1140 <.LBB71_3+0xec8>
    846c:	017585b3          	add	a1,a1,s7
    8470:	00b50533          	add	a0,a0,a1
    8474:	42555513          	srai	a0,a0,0x25
    8478:	00a025b3          	sgtz	a1,a0
    847c:	40b005b3          	neg	a1,a1
    8480:	00a5f533          	and	a0,a1,a0
    8484:	01954463          	blt	a0,s9,848c <.LBB71_652>
    8488:	0ff00513          	li	a0,255

000000000000848c <.LBB71_652>:
    848c:	000015b7          	lui	a1,0x1
    8490:	40b405b3          	sub	a1,s0,a1
    8494:	6ca5b423          	sd	a0,1736(a1) # 16c8 <.LBB71_4+0x4c8>
    8498:	00001537          	lui	a0,0x1
    849c:	40a40533          	sub	a0,s0,a0
    84a0:	15853503          	ld	a0,344(a0) # 1158 <.LBB71_3+0xee0>
    84a4:	03850533          	mul	a0,a0,s8
    84a8:	000015b7          	lui	a1,0x1
    84ac:	40b405b3          	sub	a1,s0,a1
    84b0:	1505b583          	ld	a1,336(a1) # 1150 <.LBB71_3+0xed8>
    84b4:	017585b3          	add	a1,a1,s7
    84b8:	00b50533          	add	a0,a0,a1
    84bc:	42555513          	srai	a0,a0,0x25
    84c0:	00a025b3          	sgtz	a1,a0
    84c4:	40b005b3          	neg	a1,a1
    84c8:	00a5f533          	and	a0,a1,a0
    84cc:	01954463          	blt	a0,s9,84d4 <.LBB71_654>
    84d0:	0ff00513          	li	a0,255

00000000000084d4 <.LBB71_654>:
    84d4:	000015b7          	lui	a1,0x1
    84d8:	40b405b3          	sub	a1,s0,a1
    84dc:	6ca5b023          	sd	a0,1728(a1) # 16c0 <.LBB71_4+0x4c0>
    84e0:	00001537          	lui	a0,0x1
    84e4:	40a40533          	sub	a0,s0,a0
    84e8:	16853503          	ld	a0,360(a0) # 1168 <.LBB71_3+0xef0>
    84ec:	03850533          	mul	a0,a0,s8
    84f0:	000015b7          	lui	a1,0x1
    84f4:	40b405b3          	sub	a1,s0,a1
    84f8:	1605b583          	ld	a1,352(a1) # 1160 <.LBB71_3+0xee8>
    84fc:	017585b3          	add	a1,a1,s7
    8500:	00b50533          	add	a0,a0,a1
    8504:	42555513          	srai	a0,a0,0x25
    8508:	00a025b3          	sgtz	a1,a0
    850c:	40b005b3          	neg	a1,a1
    8510:	00a5f533          	and	a0,a1,a0
    8514:	01954463          	blt	a0,s9,851c <.LBB71_656>
    8518:	0ff00513          	li	a0,255

000000000000851c <.LBB71_656>:
    851c:	000015b7          	lui	a1,0x1
    8520:	40b405b3          	sub	a1,s0,a1
    8524:	6aa5bc23          	sd	a0,1720(a1) # 16b8 <.LBB71_4+0x4b8>
    8528:	00001537          	lui	a0,0x1
    852c:	40a40533          	sub	a0,s0,a0
    8530:	17853503          	ld	a0,376(a0) # 1178 <.LBB71_3+0xf00>
    8534:	03850533          	mul	a0,a0,s8
    8538:	000015b7          	lui	a1,0x1
    853c:	40b405b3          	sub	a1,s0,a1
    8540:	1705b583          	ld	a1,368(a1) # 1170 <.LBB71_3+0xef8>
    8544:	017585b3          	add	a1,a1,s7
    8548:	00b50533          	add	a0,a0,a1
    854c:	42555513          	srai	a0,a0,0x25
    8550:	00a025b3          	sgtz	a1,a0
    8554:	40b005b3          	neg	a1,a1
    8558:	00a5f533          	and	a0,a1,a0
    855c:	01954463          	blt	a0,s9,8564 <.LBB71_658>
    8560:	0ff00513          	li	a0,255

0000000000008564 <.LBB71_658>:
    8564:	000015b7          	lui	a1,0x1
    8568:	40b405b3          	sub	a1,s0,a1
    856c:	6aa5b823          	sd	a0,1712(a1) # 16b0 <.LBB71_4+0x4b0>
    8570:	00001537          	lui	a0,0x1
    8574:	40a40533          	sub	a0,s0,a0
    8578:	18853503          	ld	a0,392(a0) # 1188 <.LBB71_3+0xf10>
    857c:	03850533          	mul	a0,a0,s8
    8580:	000015b7          	lui	a1,0x1
    8584:	40b405b3          	sub	a1,s0,a1
    8588:	1805b583          	ld	a1,384(a1) # 1180 <.LBB71_3+0xf08>
    858c:	017585b3          	add	a1,a1,s7
    8590:	00b50533          	add	a0,a0,a1
    8594:	42555513          	srai	a0,a0,0x25
    8598:	00a025b3          	sgtz	a1,a0
    859c:	40b005b3          	neg	a1,a1
    85a0:	00a5f533          	and	a0,a1,a0
    85a4:	01954463          	blt	a0,s9,85ac <.LBB71_660>
    85a8:	0ff00513          	li	a0,255

00000000000085ac <.LBB71_660>:
    85ac:	000015b7          	lui	a1,0x1
    85b0:	40b405b3          	sub	a1,s0,a1
    85b4:	6aa5b423          	sd	a0,1704(a1) # 16a8 <.LBB71_4+0x4a8>
    85b8:	00001537          	lui	a0,0x1
    85bc:	40a40533          	sub	a0,s0,a0
    85c0:	19853503          	ld	a0,408(a0) # 1198 <.LBB71_3+0xf20>
    85c4:	03850533          	mul	a0,a0,s8
    85c8:	000015b7          	lui	a1,0x1
    85cc:	40b405b3          	sub	a1,s0,a1
    85d0:	1905b583          	ld	a1,400(a1) # 1190 <.LBB71_3+0xf18>
    85d4:	017585b3          	add	a1,a1,s7
    85d8:	00b50533          	add	a0,a0,a1
    85dc:	42555513          	srai	a0,a0,0x25
    85e0:	00a025b3          	sgtz	a1,a0
    85e4:	40b005b3          	neg	a1,a1
    85e8:	00a5f533          	and	a0,a1,a0
    85ec:	01954463          	blt	a0,s9,85f4 <.LBB71_662>
    85f0:	0ff00513          	li	a0,255

00000000000085f4 <.LBB71_662>:
    85f4:	000015b7          	lui	a1,0x1
    85f8:	40b405b3          	sub	a1,s0,a1
    85fc:	6aa5b023          	sd	a0,1696(a1) # 16a0 <.LBB71_4+0x4a0>
    8600:	00001537          	lui	a0,0x1
    8604:	40a40533          	sub	a0,s0,a0
    8608:	1a853503          	ld	a0,424(a0) # 11a8 <.LBB71_3+0xf30>
    860c:	03850533          	mul	a0,a0,s8
    8610:	000015b7          	lui	a1,0x1
    8614:	40b405b3          	sub	a1,s0,a1
    8618:	1a05b583          	ld	a1,416(a1) # 11a0 <.LBB71_3+0xf28>
    861c:	017585b3          	add	a1,a1,s7
    8620:	00b50533          	add	a0,a0,a1
    8624:	42555513          	srai	a0,a0,0x25
    8628:	00a025b3          	sgtz	a1,a0
    862c:	40b005b3          	neg	a1,a1
    8630:	00a5f533          	and	a0,a1,a0
    8634:	01954463          	blt	a0,s9,863c <.LBB71_664>
    8638:	0ff00513          	li	a0,255

000000000000863c <.LBB71_664>:
    863c:	000015b7          	lui	a1,0x1
    8640:	40b405b3          	sub	a1,s0,a1
    8644:	68a5bc23          	sd	a0,1688(a1) # 1698 <.LBB71_4+0x498>
    8648:	00001537          	lui	a0,0x1
    864c:	40a40533          	sub	a0,s0,a0
    8650:	1b853503          	ld	a0,440(a0) # 11b8 <.LBB71_3+0xf40>
    8654:	03850533          	mul	a0,a0,s8
    8658:	000015b7          	lui	a1,0x1
    865c:	40b405b3          	sub	a1,s0,a1
    8660:	1b05b583          	ld	a1,432(a1) # 11b0 <.LBB71_3+0xf38>
    8664:	017585b3          	add	a1,a1,s7
    8668:	00b50533          	add	a0,a0,a1
    866c:	42555513          	srai	a0,a0,0x25
    8670:	00a025b3          	sgtz	a1,a0
    8674:	40b005b3          	neg	a1,a1
    8678:	00a5f533          	and	a0,a1,a0
    867c:	01954463          	blt	a0,s9,8684 <.LBB71_666>
    8680:	0ff00513          	li	a0,255

0000000000008684 <.LBB71_666>:
    8684:	000015b7          	lui	a1,0x1
    8688:	40b405b3          	sub	a1,s0,a1
    868c:	68a5b823          	sd	a0,1680(a1) # 1690 <.LBB71_4+0x490>
    8690:	00001537          	lui	a0,0x1
    8694:	40a40533          	sub	a0,s0,a0
    8698:	1c853503          	ld	a0,456(a0) # 11c8 <.LBB71_3+0xf50>
    869c:	03850533          	mul	a0,a0,s8
    86a0:	000015b7          	lui	a1,0x1
    86a4:	40b405b3          	sub	a1,s0,a1
    86a8:	1c05b583          	ld	a1,448(a1) # 11c0 <.LBB71_3+0xf48>
    86ac:	017585b3          	add	a1,a1,s7
    86b0:	00b50533          	add	a0,a0,a1
    86b4:	42555513          	srai	a0,a0,0x25
    86b8:	00a025b3          	sgtz	a1,a0
    86bc:	40b005b3          	neg	a1,a1
    86c0:	00a5f533          	and	a0,a1,a0
    86c4:	01954463          	blt	a0,s9,86cc <.LBB71_668>
    86c8:	0ff00513          	li	a0,255

00000000000086cc <.LBB71_668>:
    86cc:	000015b7          	lui	a1,0x1
    86d0:	40b405b3          	sub	a1,s0,a1
    86d4:	68a5b423          	sd	a0,1672(a1) # 1688 <.LBB71_4+0x488>
    86d8:	00001537          	lui	a0,0x1
    86dc:	40a40533          	sub	a0,s0,a0
    86e0:	1d853503          	ld	a0,472(a0) # 11d8 <.LBB71_3+0xf60>
    86e4:	03850533          	mul	a0,a0,s8
    86e8:	000015b7          	lui	a1,0x1
    86ec:	40b405b3          	sub	a1,s0,a1
    86f0:	1d05b583          	ld	a1,464(a1) # 11d0 <.LBB71_3+0xf58>
    86f4:	017585b3          	add	a1,a1,s7
    86f8:	00b50533          	add	a0,a0,a1
    86fc:	42555513          	srai	a0,a0,0x25
    8700:	00a025b3          	sgtz	a1,a0
    8704:	40b005b3          	neg	a1,a1
    8708:	00a5f533          	and	a0,a1,a0
    870c:	01954463          	blt	a0,s9,8714 <.LBB71_670>
    8710:	0ff00513          	li	a0,255

0000000000008714 <.LBB71_670>:
    8714:	000015b7          	lui	a1,0x1
    8718:	40b405b3          	sub	a1,s0,a1
    871c:	68a5b023          	sd	a0,1664(a1) # 1680 <.LBB71_4+0x480>
    8720:	00001537          	lui	a0,0x1
    8724:	40a40533          	sub	a0,s0,a0
    8728:	1e853503          	ld	a0,488(a0) # 11e8 <.LBB71_3+0xf70>
    872c:	03850533          	mul	a0,a0,s8
    8730:	000015b7          	lui	a1,0x1
    8734:	40b405b3          	sub	a1,s0,a1
    8738:	1e05b583          	ld	a1,480(a1) # 11e0 <.LBB71_3+0xf68>
    873c:	017585b3          	add	a1,a1,s7
    8740:	00b50533          	add	a0,a0,a1
    8744:	42555513          	srai	a0,a0,0x25
    8748:	00a025b3          	sgtz	a1,a0
    874c:	40b005b3          	neg	a1,a1
    8750:	00a5f533          	and	a0,a1,a0
    8754:	01954463          	blt	a0,s9,875c <.LBB71_672>
    8758:	0ff00513          	li	a0,255

000000000000875c <.LBB71_672>:
    875c:	000015b7          	lui	a1,0x1
    8760:	40b405b3          	sub	a1,s0,a1
    8764:	66a5bc23          	sd	a0,1656(a1) # 1678 <.LBB71_4+0x478>
    8768:	00001537          	lui	a0,0x1
    876c:	40a40533          	sub	a0,s0,a0
    8770:	1f853503          	ld	a0,504(a0) # 11f8 <.LBB71_3+0xf80>
    8774:	03850533          	mul	a0,a0,s8
    8778:	000015b7          	lui	a1,0x1
    877c:	40b405b3          	sub	a1,s0,a1
    8780:	1f05b583          	ld	a1,496(a1) # 11f0 <.LBB71_3+0xf78>
    8784:	017585b3          	add	a1,a1,s7
    8788:	00b50533          	add	a0,a0,a1
    878c:	42555513          	srai	a0,a0,0x25
    8790:	00a025b3          	sgtz	a1,a0
    8794:	40b005b3          	neg	a1,a1
    8798:	00a5f533          	and	a0,a1,a0
    879c:	01954463          	blt	a0,s9,87a4 <.LBB71_674>
    87a0:	0ff00513          	li	a0,255

00000000000087a4 <.LBB71_674>:
    87a4:	000015b7          	lui	a1,0x1
    87a8:	40b405b3          	sub	a1,s0,a1
    87ac:	66a5b423          	sd	a0,1640(a1) # 1668 <.LBB71_4+0x468>
    87b0:	00001537          	lui	a0,0x1
    87b4:	40a40533          	sub	a0,s0,a0
    87b8:	20853503          	ld	a0,520(a0) # 1208 <.LBB71_4+0x8>
    87bc:	03850533          	mul	a0,a0,s8
    87c0:	000015b7          	lui	a1,0x1
    87c4:	40b405b3          	sub	a1,s0,a1
    87c8:	2005b583          	ld	a1,512(a1) # 1200 <.LBB71_4>
    87cc:	017585b3          	add	a1,a1,s7
    87d0:	00b50533          	add	a0,a0,a1
    87d4:	42555513          	srai	a0,a0,0x25
    87d8:	00a025b3          	sgtz	a1,a0
    87dc:	40b005b3          	neg	a1,a1
    87e0:	00a5f533          	and	a0,a1,a0
    87e4:	01954463          	blt	a0,s9,87ec <.LBB71_676>
    87e8:	0ff00513          	li	a0,255

00000000000087ec <.LBB71_676>:
    87ec:	000015b7          	lui	a1,0x1
    87f0:	40b405b3          	sub	a1,s0,a1
    87f4:	66a5b023          	sd	a0,1632(a1) # 1660 <.LBB71_4+0x460>
    87f8:	00001537          	lui	a0,0x1
    87fc:	40a40533          	sub	a0,s0,a0
    8800:	21853503          	ld	a0,536(a0) # 1218 <.LBB71_4+0x18>
    8804:	03850533          	mul	a0,a0,s8
    8808:	000015b7          	lui	a1,0x1
    880c:	40b405b3          	sub	a1,s0,a1
    8810:	2105b583          	ld	a1,528(a1) # 1210 <.LBB71_4+0x10>
    8814:	017585b3          	add	a1,a1,s7
    8818:	00b50533          	add	a0,a0,a1
    881c:	42555513          	srai	a0,a0,0x25
    8820:	00a025b3          	sgtz	a1,a0
    8824:	40b005b3          	neg	a1,a1
    8828:	00a5f533          	and	a0,a1,a0
    882c:	01954463          	blt	a0,s9,8834 <.LBB71_678>
    8830:	0ff00513          	li	a0,255

0000000000008834 <.LBB71_678>:
    8834:	000015b7          	lui	a1,0x1
    8838:	40b405b3          	sub	a1,s0,a1
    883c:	64a5bc23          	sd	a0,1624(a1) # 1658 <.LBB71_4+0x458>
    8840:	00001537          	lui	a0,0x1
    8844:	40a40533          	sub	a0,s0,a0
    8848:	22853503          	ld	a0,552(a0) # 1228 <.LBB71_4+0x28>
    884c:	03850533          	mul	a0,a0,s8
    8850:	000015b7          	lui	a1,0x1
    8854:	40b405b3          	sub	a1,s0,a1
    8858:	2205b583          	ld	a1,544(a1) # 1220 <.LBB71_4+0x20>
    885c:	017585b3          	add	a1,a1,s7
    8860:	00b50533          	add	a0,a0,a1
    8864:	42555513          	srai	a0,a0,0x25
    8868:	00a025b3          	sgtz	a1,a0
    886c:	40b005b3          	neg	a1,a1
    8870:	00a5f533          	and	a0,a1,a0
    8874:	01954463          	blt	a0,s9,887c <.LBB71_680>
    8878:	0ff00513          	li	a0,255

000000000000887c <.LBB71_680>:
    887c:	000015b7          	lui	a1,0x1
    8880:	40b405b3          	sub	a1,s0,a1
    8884:	64a5b823          	sd	a0,1616(a1) # 1650 <.LBB71_4+0x450>
    8888:	00001537          	lui	a0,0x1
    888c:	40a40533          	sub	a0,s0,a0
    8890:	23853503          	ld	a0,568(a0) # 1238 <.LBB71_4+0x38>
    8894:	03850533          	mul	a0,a0,s8
    8898:	000015b7          	lui	a1,0x1
    889c:	40b405b3          	sub	a1,s0,a1
    88a0:	2305b583          	ld	a1,560(a1) # 1230 <.LBB71_4+0x30>
    88a4:	017585b3          	add	a1,a1,s7
    88a8:	00b50533          	add	a0,a0,a1
    88ac:	42555513          	srai	a0,a0,0x25
    88b0:	00a025b3          	sgtz	a1,a0
    88b4:	40b005b3          	neg	a1,a1
    88b8:	00a5f533          	and	a0,a1,a0
    88bc:	01954463          	blt	a0,s9,88c4 <.LBB71_682>
    88c0:	0ff00513          	li	a0,255

00000000000088c4 <.LBB71_682>:
    88c4:	000015b7          	lui	a1,0x1
    88c8:	40b405b3          	sub	a1,s0,a1
    88cc:	64a5b423          	sd	a0,1608(a1) # 1648 <.LBB71_4+0x448>
    88d0:	00001537          	lui	a0,0x1
    88d4:	40a40533          	sub	a0,s0,a0
    88d8:	24853503          	ld	a0,584(a0) # 1248 <.LBB71_4+0x48>
    88dc:	03850533          	mul	a0,a0,s8
    88e0:	000015b7          	lui	a1,0x1
    88e4:	40b405b3          	sub	a1,s0,a1
    88e8:	2405b583          	ld	a1,576(a1) # 1240 <.LBB71_4+0x40>
    88ec:	017585b3          	add	a1,a1,s7
    88f0:	00b50533          	add	a0,a0,a1
    88f4:	42555513          	srai	a0,a0,0x25
    88f8:	00a025b3          	sgtz	a1,a0
    88fc:	40b005b3          	neg	a1,a1
    8900:	00a5f533          	and	a0,a1,a0
    8904:	01954463          	blt	a0,s9,890c <.LBB71_684>
    8908:	0ff00513          	li	a0,255

000000000000890c <.LBB71_684>:
    890c:	000015b7          	lui	a1,0x1
    8910:	40b405b3          	sub	a1,s0,a1
    8914:	64a5b023          	sd	a0,1600(a1) # 1640 <.LBB71_4+0x440>
    8918:	00001537          	lui	a0,0x1
    891c:	40a40533          	sub	a0,s0,a0
    8920:	25853503          	ld	a0,600(a0) # 1258 <.LBB71_4+0x58>
    8924:	03850533          	mul	a0,a0,s8
    8928:	000015b7          	lui	a1,0x1
    892c:	40b405b3          	sub	a1,s0,a1
    8930:	2505b583          	ld	a1,592(a1) # 1250 <.LBB71_4+0x50>
    8934:	017585b3          	add	a1,a1,s7
    8938:	00b50533          	add	a0,a0,a1
    893c:	42555513          	srai	a0,a0,0x25
    8940:	00a025b3          	sgtz	a1,a0
    8944:	40b005b3          	neg	a1,a1
    8948:	00a5f533          	and	a0,a1,a0
    894c:	01954463          	blt	a0,s9,8954 <.LBB71_686>
    8950:	0ff00513          	li	a0,255

0000000000008954 <.LBB71_686>:
    8954:	000015b7          	lui	a1,0x1
    8958:	40b405b3          	sub	a1,s0,a1
    895c:	62a5bc23          	sd	a0,1592(a1) # 1638 <.LBB71_4+0x438>
    8960:	00001537          	lui	a0,0x1
    8964:	40a40533          	sub	a0,s0,a0
    8968:	26853503          	ld	a0,616(a0) # 1268 <.LBB71_4+0x68>
    896c:	03850533          	mul	a0,a0,s8
    8970:	000015b7          	lui	a1,0x1
    8974:	40b405b3          	sub	a1,s0,a1
    8978:	2605b583          	ld	a1,608(a1) # 1260 <.LBB71_4+0x60>
    897c:	017585b3          	add	a1,a1,s7
    8980:	00b50533          	add	a0,a0,a1
    8984:	42555513          	srai	a0,a0,0x25
    8988:	00a025b3          	sgtz	a1,a0
    898c:	40b005b3          	neg	a1,a1
    8990:	00a5f533          	and	a0,a1,a0
    8994:	01954463          	blt	a0,s9,899c <.LBB71_688>
    8998:	0ff00513          	li	a0,255

000000000000899c <.LBB71_688>:
    899c:	000015b7          	lui	a1,0x1
    89a0:	40b405b3          	sub	a1,s0,a1
    89a4:	62a5b823          	sd	a0,1584(a1) # 1630 <.LBB71_4+0x430>
    89a8:	00001537          	lui	a0,0x1
    89ac:	40a40533          	sub	a0,s0,a0
    89b0:	27853503          	ld	a0,632(a0) # 1278 <.LBB71_4+0x78>
    89b4:	03850533          	mul	a0,a0,s8
    89b8:	000015b7          	lui	a1,0x1
    89bc:	40b405b3          	sub	a1,s0,a1
    89c0:	2705b583          	ld	a1,624(a1) # 1270 <.LBB71_4+0x70>
    89c4:	017585b3          	add	a1,a1,s7
    89c8:	00b50533          	add	a0,a0,a1
    89cc:	42555513          	srai	a0,a0,0x25
    89d0:	00a025b3          	sgtz	a1,a0
    89d4:	40b005b3          	neg	a1,a1
    89d8:	00a5f533          	and	a0,a1,a0
    89dc:	01954463          	blt	a0,s9,89e4 <.LBB71_690>
    89e0:	0ff00513          	li	a0,255

00000000000089e4 <.LBB71_690>:
    89e4:	000015b7          	lui	a1,0x1
    89e8:	40b405b3          	sub	a1,s0,a1
    89ec:	26a5bc23          	sd	a0,632(a1) # 1278 <.LBB71_4+0x78>
    89f0:	00001537          	lui	a0,0x1
    89f4:	40a40533          	sub	a0,s0,a0
    89f8:	28853503          	ld	a0,648(a0) # 1288 <.LBB71_4+0x88>
    89fc:	03850533          	mul	a0,a0,s8
    8a00:	000015b7          	lui	a1,0x1
    8a04:	40b405b3          	sub	a1,s0,a1
    8a08:	2805b583          	ld	a1,640(a1) # 1280 <.LBB71_4+0x80>
    8a0c:	017585b3          	add	a1,a1,s7
    8a10:	00b50533          	add	a0,a0,a1
    8a14:	42555513          	srai	a0,a0,0x25
    8a18:	00a025b3          	sgtz	a1,a0
    8a1c:	40b005b3          	neg	a1,a1
    8a20:	00a5f533          	and	a0,a1,a0
    8a24:	01954463          	blt	a0,s9,8a2c <.LBB71_692>
    8a28:	0ff00513          	li	a0,255

0000000000008a2c <.LBB71_692>:
    8a2c:	000015b7          	lui	a1,0x1
    8a30:	40b405b3          	sub	a1,s0,a1
    8a34:	28a5b423          	sd	a0,648(a1) # 1288 <.LBB71_4+0x88>
    8a38:	00001537          	lui	a0,0x1
    8a3c:	40a40533          	sub	a0,s0,a0
    8a40:	29853503          	ld	a0,664(a0) # 1298 <.LBB71_4+0x98>
    8a44:	03850533          	mul	a0,a0,s8
    8a48:	000015b7          	lui	a1,0x1
    8a4c:	40b405b3          	sub	a1,s0,a1
    8a50:	2905b583          	ld	a1,656(a1) # 1290 <.LBB71_4+0x90>
    8a54:	017585b3          	add	a1,a1,s7
    8a58:	00b50533          	add	a0,a0,a1
    8a5c:	42555513          	srai	a0,a0,0x25
    8a60:	00a025b3          	sgtz	a1,a0
    8a64:	40b005b3          	neg	a1,a1
    8a68:	00a5f533          	and	a0,a1,a0
    8a6c:	01954463          	blt	a0,s9,8a74 <.LBB71_694>
    8a70:	0ff00513          	li	a0,255

0000000000008a74 <.LBB71_694>:
    8a74:	000015b7          	lui	a1,0x1
    8a78:	40b405b3          	sub	a1,s0,a1
    8a7c:	28a5bc23          	sd	a0,664(a1) # 1298 <.LBB71_4+0x98>
    8a80:	00001537          	lui	a0,0x1
    8a84:	40a40533          	sub	a0,s0,a0
    8a88:	2a853503          	ld	a0,680(a0) # 12a8 <.LBB71_4+0xa8>
    8a8c:	03850533          	mul	a0,a0,s8
    8a90:	000015b7          	lui	a1,0x1
    8a94:	40b405b3          	sub	a1,s0,a1
    8a98:	2a05b583          	ld	a1,672(a1) # 12a0 <.LBB71_4+0xa0>
    8a9c:	017585b3          	add	a1,a1,s7
    8aa0:	00b50533          	add	a0,a0,a1
    8aa4:	42555513          	srai	a0,a0,0x25
    8aa8:	00a025b3          	sgtz	a1,a0
    8aac:	40b005b3          	neg	a1,a1
    8ab0:	00a5f533          	and	a0,a1,a0
    8ab4:	01954463          	blt	a0,s9,8abc <.LBB71_696>
    8ab8:	0ff00513          	li	a0,255

0000000000008abc <.LBB71_696>:
    8abc:	000015b7          	lui	a1,0x1
    8ac0:	40b405b3          	sub	a1,s0,a1
    8ac4:	2aa5b423          	sd	a0,680(a1) # 12a8 <.LBB71_4+0xa8>
    8ac8:	00001537          	lui	a0,0x1
    8acc:	40a40533          	sub	a0,s0,a0
    8ad0:	2b853503          	ld	a0,696(a0) # 12b8 <.LBB71_4+0xb8>
    8ad4:	03850533          	mul	a0,a0,s8
    8ad8:	000015b7          	lui	a1,0x1
    8adc:	40b405b3          	sub	a1,s0,a1
    8ae0:	2b05b583          	ld	a1,688(a1) # 12b0 <.LBB71_4+0xb0>
    8ae4:	017585b3          	add	a1,a1,s7
    8ae8:	00b50533          	add	a0,a0,a1
    8aec:	42555513          	srai	a0,a0,0x25
    8af0:	00a025b3          	sgtz	a1,a0
    8af4:	40b005b3          	neg	a1,a1
    8af8:	00a5f533          	and	a0,a1,a0
    8afc:	01954463          	blt	a0,s9,8b04 <.LBB71_698>
    8b00:	0ff00513          	li	a0,255

0000000000008b04 <.LBB71_698>:
    8b04:	000015b7          	lui	a1,0x1
    8b08:	40b405b3          	sub	a1,s0,a1
    8b0c:	2aa5bc23          	sd	a0,696(a1) # 12b8 <.LBB71_4+0xb8>
    8b10:	00001537          	lui	a0,0x1
    8b14:	40a40533          	sub	a0,s0,a0
    8b18:	2c853503          	ld	a0,712(a0) # 12c8 <.LBB71_4+0xc8>
    8b1c:	03850533          	mul	a0,a0,s8
    8b20:	000015b7          	lui	a1,0x1
    8b24:	40b405b3          	sub	a1,s0,a1
    8b28:	2c05b583          	ld	a1,704(a1) # 12c0 <.LBB71_4+0xc0>
    8b2c:	017585b3          	add	a1,a1,s7
    8b30:	00b50533          	add	a0,a0,a1
    8b34:	42555513          	srai	a0,a0,0x25
    8b38:	00a025b3          	sgtz	a1,a0
    8b3c:	40b005b3          	neg	a1,a1
    8b40:	00a5f533          	and	a0,a1,a0
    8b44:	01954463          	blt	a0,s9,8b4c <.LBB71_700>
    8b48:	0ff00513          	li	a0,255

0000000000008b4c <.LBB71_700>:
    8b4c:	000015b7          	lui	a1,0x1
    8b50:	40b405b3          	sub	a1,s0,a1
    8b54:	2ca5b423          	sd	a0,712(a1) # 12c8 <.LBB71_4+0xc8>
    8b58:	00001537          	lui	a0,0x1
    8b5c:	40a40533          	sub	a0,s0,a0
    8b60:	2d853503          	ld	a0,728(a0) # 12d8 <.LBB71_4+0xd8>
    8b64:	03850533          	mul	a0,a0,s8
    8b68:	000015b7          	lui	a1,0x1
    8b6c:	40b405b3          	sub	a1,s0,a1
    8b70:	2d05b583          	ld	a1,720(a1) # 12d0 <.LBB71_4+0xd0>
    8b74:	017585b3          	add	a1,a1,s7
    8b78:	00b50533          	add	a0,a0,a1
    8b7c:	42555513          	srai	a0,a0,0x25
    8b80:	00a025b3          	sgtz	a1,a0
    8b84:	40b005b3          	neg	a1,a1
    8b88:	00a5f533          	and	a0,a1,a0
    8b8c:	01954463          	blt	a0,s9,8b94 <.LBB71_702>
    8b90:	0ff00513          	li	a0,255

0000000000008b94 <.LBB71_702>:
    8b94:	000015b7          	lui	a1,0x1
    8b98:	40b405b3          	sub	a1,s0,a1
    8b9c:	2ca5bc23          	sd	a0,728(a1) # 12d8 <.LBB71_4+0xd8>
    8ba0:	00001537          	lui	a0,0x1
    8ba4:	40a40533          	sub	a0,s0,a0
    8ba8:	2e853503          	ld	a0,744(a0) # 12e8 <.LBB71_4+0xe8>
    8bac:	03850533          	mul	a0,a0,s8
    8bb0:	000015b7          	lui	a1,0x1
    8bb4:	40b405b3          	sub	a1,s0,a1
    8bb8:	2e05b583          	ld	a1,736(a1) # 12e0 <.LBB71_4+0xe0>
    8bbc:	017585b3          	add	a1,a1,s7
    8bc0:	00b50533          	add	a0,a0,a1
    8bc4:	42555513          	srai	a0,a0,0x25
    8bc8:	00a025b3          	sgtz	a1,a0
    8bcc:	40b005b3          	neg	a1,a1
    8bd0:	00a5f533          	and	a0,a1,a0
    8bd4:	01954463          	blt	a0,s9,8bdc <.LBB71_704>
    8bd8:	0ff00513          	li	a0,255

0000000000008bdc <.LBB71_704>:
    8bdc:	000015b7          	lui	a1,0x1
    8be0:	40b405b3          	sub	a1,s0,a1
    8be4:	2ea5b423          	sd	a0,744(a1) # 12e8 <.LBB71_4+0xe8>
    8be8:	00001537          	lui	a0,0x1
    8bec:	40a40533          	sub	a0,s0,a0
    8bf0:	2f853503          	ld	a0,760(a0) # 12f8 <.LBB71_4+0xf8>
    8bf4:	03850533          	mul	a0,a0,s8
    8bf8:	000015b7          	lui	a1,0x1
    8bfc:	40b405b3          	sub	a1,s0,a1
    8c00:	2f05b583          	ld	a1,752(a1) # 12f0 <.LBB71_4+0xf0>
    8c04:	017585b3          	add	a1,a1,s7
    8c08:	00b50533          	add	a0,a0,a1
    8c0c:	42555513          	srai	a0,a0,0x25
    8c10:	00a025b3          	sgtz	a1,a0
    8c14:	40b005b3          	neg	a1,a1
    8c18:	00a5f533          	and	a0,a1,a0
    8c1c:	01954463          	blt	a0,s9,8c24 <.LBB71_706>
    8c20:	0ff00513          	li	a0,255

0000000000008c24 <.LBB71_706>:
    8c24:	000015b7          	lui	a1,0x1
    8c28:	40b405b3          	sub	a1,s0,a1
    8c2c:	2ea5bc23          	sd	a0,760(a1) # 12f8 <.LBB71_4+0xf8>
    8c30:	00001537          	lui	a0,0x1
    8c34:	40a40533          	sub	a0,s0,a0
    8c38:	30853503          	ld	a0,776(a0) # 1308 <.LBB71_4+0x108>
    8c3c:	03850533          	mul	a0,a0,s8
    8c40:	000015b7          	lui	a1,0x1
    8c44:	40b405b3          	sub	a1,s0,a1
    8c48:	3005b583          	ld	a1,768(a1) # 1300 <.LBB71_4+0x100>
    8c4c:	017585b3          	add	a1,a1,s7
    8c50:	00b50533          	add	a0,a0,a1
    8c54:	42555513          	srai	a0,a0,0x25
    8c58:	00a025b3          	sgtz	a1,a0
    8c5c:	40b005b3          	neg	a1,a1
    8c60:	00a5f533          	and	a0,a1,a0
    8c64:	01954463          	blt	a0,s9,8c6c <.LBB71_708>
    8c68:	0ff00513          	li	a0,255

0000000000008c6c <.LBB71_708>:
    8c6c:	000015b7          	lui	a1,0x1
    8c70:	40b405b3          	sub	a1,s0,a1
    8c74:	30a5b423          	sd	a0,776(a1) # 1308 <.LBB71_4+0x108>
    8c78:	00001537          	lui	a0,0x1
    8c7c:	40a40533          	sub	a0,s0,a0
    8c80:	31853503          	ld	a0,792(a0) # 1318 <.LBB71_4+0x118>
    8c84:	03850533          	mul	a0,a0,s8
    8c88:	000015b7          	lui	a1,0x1
    8c8c:	40b405b3          	sub	a1,s0,a1
    8c90:	3105b583          	ld	a1,784(a1) # 1310 <.LBB71_4+0x110>
    8c94:	017585b3          	add	a1,a1,s7
    8c98:	00b50533          	add	a0,a0,a1
    8c9c:	42555513          	srai	a0,a0,0x25
    8ca0:	00a025b3          	sgtz	a1,a0
    8ca4:	40b005b3          	neg	a1,a1
    8ca8:	00a5f533          	and	a0,a1,a0
    8cac:	01954463          	blt	a0,s9,8cb4 <.LBB71_710>
    8cb0:	0ff00513          	li	a0,255

0000000000008cb4 <.LBB71_710>:
    8cb4:	000015b7          	lui	a1,0x1
    8cb8:	40b405b3          	sub	a1,s0,a1
    8cbc:	30a5bc23          	sd	a0,792(a1) # 1318 <.LBB71_4+0x118>
    8cc0:	00001537          	lui	a0,0x1
    8cc4:	40a40533          	sub	a0,s0,a0
    8cc8:	32853503          	ld	a0,808(a0) # 1328 <.LBB71_4+0x128>
    8ccc:	03850533          	mul	a0,a0,s8
    8cd0:	000015b7          	lui	a1,0x1
    8cd4:	40b405b3          	sub	a1,s0,a1
    8cd8:	3205b583          	ld	a1,800(a1) # 1320 <.LBB71_4+0x120>
    8cdc:	017585b3          	add	a1,a1,s7
    8ce0:	00b50533          	add	a0,a0,a1
    8ce4:	42555513          	srai	a0,a0,0x25
    8ce8:	00a025b3          	sgtz	a1,a0
    8cec:	40b005b3          	neg	a1,a1
    8cf0:	00a5f533          	and	a0,a1,a0
    8cf4:	01954463          	blt	a0,s9,8cfc <.LBB71_712>
    8cf8:	0ff00513          	li	a0,255

0000000000008cfc <.LBB71_712>:
    8cfc:	000015b7          	lui	a1,0x1
    8d00:	40b405b3          	sub	a1,s0,a1
    8d04:	32a5b423          	sd	a0,808(a1) # 1328 <.LBB71_4+0x128>
    8d08:	00001537          	lui	a0,0x1
    8d0c:	40a40533          	sub	a0,s0,a0
    8d10:	33853503          	ld	a0,824(a0) # 1338 <.LBB71_4+0x138>
    8d14:	03850533          	mul	a0,a0,s8
    8d18:	000015b7          	lui	a1,0x1
    8d1c:	40b405b3          	sub	a1,s0,a1
    8d20:	3305b583          	ld	a1,816(a1) # 1330 <.LBB71_4+0x130>
    8d24:	017585b3          	add	a1,a1,s7
    8d28:	00b50533          	add	a0,a0,a1
    8d2c:	42555513          	srai	a0,a0,0x25
    8d30:	00a025b3          	sgtz	a1,a0
    8d34:	40b005b3          	neg	a1,a1
    8d38:	00a5f533          	and	a0,a1,a0
    8d3c:	01954463          	blt	a0,s9,8d44 <.LBB71_714>
    8d40:	0ff00513          	li	a0,255

0000000000008d44 <.LBB71_714>:
    8d44:	000015b7          	lui	a1,0x1
    8d48:	40b405b3          	sub	a1,s0,a1
    8d4c:	32a5bc23          	sd	a0,824(a1) # 1338 <.LBB71_4+0x138>
    8d50:	00001537          	lui	a0,0x1
    8d54:	40a40533          	sub	a0,s0,a0
    8d58:	34853503          	ld	a0,840(a0) # 1348 <.LBB71_4+0x148>
    8d5c:	03850533          	mul	a0,a0,s8
    8d60:	000015b7          	lui	a1,0x1
    8d64:	40b405b3          	sub	a1,s0,a1
    8d68:	3405b583          	ld	a1,832(a1) # 1340 <.LBB71_4+0x140>
    8d6c:	017585b3          	add	a1,a1,s7
    8d70:	00b50533          	add	a0,a0,a1
    8d74:	42555513          	srai	a0,a0,0x25
    8d78:	00a025b3          	sgtz	a1,a0
    8d7c:	40b005b3          	neg	a1,a1
    8d80:	00a5f533          	and	a0,a1,a0
    8d84:	01954463          	blt	a0,s9,8d8c <.LBB71_716>
    8d88:	0ff00513          	li	a0,255

0000000000008d8c <.LBB71_716>:
    8d8c:	000015b7          	lui	a1,0x1
    8d90:	40b405b3          	sub	a1,s0,a1
    8d94:	34a5b423          	sd	a0,840(a1) # 1348 <.LBB71_4+0x148>
    8d98:	00001537          	lui	a0,0x1
    8d9c:	40a40533          	sub	a0,s0,a0
    8da0:	35853503          	ld	a0,856(a0) # 1358 <.LBB71_4+0x158>
    8da4:	03850533          	mul	a0,a0,s8
    8da8:	000015b7          	lui	a1,0x1
    8dac:	40b405b3          	sub	a1,s0,a1
    8db0:	3505b583          	ld	a1,848(a1) # 1350 <.LBB71_4+0x150>
    8db4:	017585b3          	add	a1,a1,s7
    8db8:	00b50533          	add	a0,a0,a1
    8dbc:	42555513          	srai	a0,a0,0x25
    8dc0:	00a025b3          	sgtz	a1,a0
    8dc4:	40b005b3          	neg	a1,a1
    8dc8:	00a5f533          	and	a0,a1,a0
    8dcc:	01954463          	blt	a0,s9,8dd4 <.LBB71_718>
    8dd0:	0ff00513          	li	a0,255

0000000000008dd4 <.LBB71_718>:
    8dd4:	000015b7          	lui	a1,0x1
    8dd8:	40b405b3          	sub	a1,s0,a1
    8ddc:	34a5bc23          	sd	a0,856(a1) # 1358 <.LBB71_4+0x158>
    8de0:	00001537          	lui	a0,0x1
    8de4:	40a40533          	sub	a0,s0,a0
    8de8:	36853503          	ld	a0,872(a0) # 1368 <.LBB71_4+0x168>
    8dec:	03850533          	mul	a0,a0,s8
    8df0:	000015b7          	lui	a1,0x1
    8df4:	40b405b3          	sub	a1,s0,a1
    8df8:	3605b583          	ld	a1,864(a1) # 1360 <.LBB71_4+0x160>
    8dfc:	017585b3          	add	a1,a1,s7
    8e00:	00b50533          	add	a0,a0,a1
    8e04:	42555513          	srai	a0,a0,0x25
    8e08:	00a025b3          	sgtz	a1,a0
    8e0c:	40b005b3          	neg	a1,a1
    8e10:	00a5f533          	and	a0,a1,a0
    8e14:	01954463          	blt	a0,s9,8e1c <.LBB71_720>
    8e18:	0ff00513          	li	a0,255

0000000000008e1c <.LBB71_720>:
    8e1c:	000015b7          	lui	a1,0x1
    8e20:	40b405b3          	sub	a1,s0,a1
    8e24:	36a5b423          	sd	a0,872(a1) # 1368 <.LBB71_4+0x168>
    8e28:	00001537          	lui	a0,0x1
    8e2c:	40a40533          	sub	a0,s0,a0
    8e30:	37853503          	ld	a0,888(a0) # 1378 <.LBB71_4+0x178>
    8e34:	03850533          	mul	a0,a0,s8
    8e38:	000015b7          	lui	a1,0x1
    8e3c:	40b405b3          	sub	a1,s0,a1
    8e40:	3705b583          	ld	a1,880(a1) # 1370 <.LBB71_4+0x170>
    8e44:	017585b3          	add	a1,a1,s7
    8e48:	00b50533          	add	a0,a0,a1
    8e4c:	42555513          	srai	a0,a0,0x25
    8e50:	00a025b3          	sgtz	a1,a0
    8e54:	40b005b3          	neg	a1,a1
    8e58:	00a5f533          	and	a0,a1,a0
    8e5c:	01954463          	blt	a0,s9,8e64 <.LBB71_722>
    8e60:	0ff00513          	li	a0,255

0000000000008e64 <.LBB71_722>:
    8e64:	000015b7          	lui	a1,0x1
    8e68:	40b405b3          	sub	a1,s0,a1
    8e6c:	36a5bc23          	sd	a0,888(a1) # 1378 <.LBB71_4+0x178>
    8e70:	00001537          	lui	a0,0x1
    8e74:	40a40533          	sub	a0,s0,a0
    8e78:	38853503          	ld	a0,904(a0) # 1388 <.LBB71_4+0x188>
    8e7c:	03850533          	mul	a0,a0,s8
    8e80:	000015b7          	lui	a1,0x1
    8e84:	40b405b3          	sub	a1,s0,a1
    8e88:	3805b583          	ld	a1,896(a1) # 1380 <.LBB71_4+0x180>
    8e8c:	017585b3          	add	a1,a1,s7
    8e90:	00b50533          	add	a0,a0,a1
    8e94:	42555513          	srai	a0,a0,0x25
    8e98:	00a025b3          	sgtz	a1,a0
    8e9c:	40b005b3          	neg	a1,a1
    8ea0:	00a5f533          	and	a0,a1,a0
    8ea4:	01954463          	blt	a0,s9,8eac <.LBB71_724>
    8ea8:	0ff00513          	li	a0,255

0000000000008eac <.LBB71_724>:
    8eac:	000015b7          	lui	a1,0x1
    8eb0:	40b405b3          	sub	a1,s0,a1
    8eb4:	38a5b423          	sd	a0,904(a1) # 1388 <.LBB71_4+0x188>
    8eb8:	00001537          	lui	a0,0x1
    8ebc:	40a40533          	sub	a0,s0,a0
    8ec0:	39853503          	ld	a0,920(a0) # 1398 <.LBB71_4+0x198>
    8ec4:	03850533          	mul	a0,a0,s8
    8ec8:	000015b7          	lui	a1,0x1
    8ecc:	40b405b3          	sub	a1,s0,a1
    8ed0:	3905b583          	ld	a1,912(a1) # 1390 <.LBB71_4+0x190>
    8ed4:	017585b3          	add	a1,a1,s7
    8ed8:	00b50533          	add	a0,a0,a1
    8edc:	42555513          	srai	a0,a0,0x25
    8ee0:	00a025b3          	sgtz	a1,a0
    8ee4:	40b005b3          	neg	a1,a1
    8ee8:	00a5f533          	and	a0,a1,a0
    8eec:	01954463          	blt	a0,s9,8ef4 <.LBB71_726>
    8ef0:	0ff00513          	li	a0,255

0000000000008ef4 <.LBB71_726>:
    8ef4:	000015b7          	lui	a1,0x1
    8ef8:	40b405b3          	sub	a1,s0,a1
    8efc:	38a5bc23          	sd	a0,920(a1) # 1398 <.LBB71_4+0x198>
    8f00:	00001537          	lui	a0,0x1
    8f04:	40a40533          	sub	a0,s0,a0
    8f08:	3a853503          	ld	a0,936(a0) # 13a8 <.LBB71_4+0x1a8>
    8f0c:	03850533          	mul	a0,a0,s8
    8f10:	000015b7          	lui	a1,0x1
    8f14:	40b405b3          	sub	a1,s0,a1
    8f18:	3a05b583          	ld	a1,928(a1) # 13a0 <.LBB71_4+0x1a0>
    8f1c:	017585b3          	add	a1,a1,s7
    8f20:	00b50533          	add	a0,a0,a1
    8f24:	42555513          	srai	a0,a0,0x25
    8f28:	00a025b3          	sgtz	a1,a0
    8f2c:	40b005b3          	neg	a1,a1
    8f30:	00a5f533          	and	a0,a1,a0
    8f34:	01954463          	blt	a0,s9,8f3c <.LBB71_728>
    8f38:	0ff00513          	li	a0,255

0000000000008f3c <.LBB71_728>:
    8f3c:	000015b7          	lui	a1,0x1
    8f40:	40b405b3          	sub	a1,s0,a1
    8f44:	3aa5b423          	sd	a0,936(a1) # 13a8 <.LBB71_4+0x1a8>
    8f48:	00001537          	lui	a0,0x1
    8f4c:	40a40533          	sub	a0,s0,a0
    8f50:	3b853503          	ld	a0,952(a0) # 13b8 <.LBB71_4+0x1b8>
    8f54:	03850533          	mul	a0,a0,s8
    8f58:	000015b7          	lui	a1,0x1
    8f5c:	40b405b3          	sub	a1,s0,a1
    8f60:	3b05b583          	ld	a1,944(a1) # 13b0 <.LBB71_4+0x1b0>
    8f64:	017585b3          	add	a1,a1,s7
    8f68:	00b50533          	add	a0,a0,a1
    8f6c:	42555513          	srai	a0,a0,0x25
    8f70:	00a025b3          	sgtz	a1,a0
    8f74:	40b005b3          	neg	a1,a1
    8f78:	00a5f533          	and	a0,a1,a0
    8f7c:	01954463          	blt	a0,s9,8f84 <.LBB71_730>
    8f80:	0ff00513          	li	a0,255

0000000000008f84 <.LBB71_730>:
    8f84:	000015b7          	lui	a1,0x1
    8f88:	40b405b3          	sub	a1,s0,a1
    8f8c:	3aa5bc23          	sd	a0,952(a1) # 13b8 <.LBB71_4+0x1b8>
    8f90:	00001537          	lui	a0,0x1
    8f94:	40a40533          	sub	a0,s0,a0
    8f98:	3c853503          	ld	a0,968(a0) # 13c8 <.LBB71_4+0x1c8>
    8f9c:	03850533          	mul	a0,a0,s8
    8fa0:	000015b7          	lui	a1,0x1
    8fa4:	40b405b3          	sub	a1,s0,a1
    8fa8:	3c05b583          	ld	a1,960(a1) # 13c0 <.LBB71_4+0x1c0>
    8fac:	017585b3          	add	a1,a1,s7
    8fb0:	00b50533          	add	a0,a0,a1
    8fb4:	42555513          	srai	a0,a0,0x25
    8fb8:	00a025b3          	sgtz	a1,a0
    8fbc:	40b005b3          	neg	a1,a1
    8fc0:	00a5f533          	and	a0,a1,a0
    8fc4:	01954463          	blt	a0,s9,8fcc <.LBB71_732>
    8fc8:	0ff00513          	li	a0,255

0000000000008fcc <.LBB71_732>:
    8fcc:	000015b7          	lui	a1,0x1
    8fd0:	40b405b3          	sub	a1,s0,a1
    8fd4:	3ca5b423          	sd	a0,968(a1) # 13c8 <.LBB71_4+0x1c8>
    8fd8:	00001537          	lui	a0,0x1
    8fdc:	40a40533          	sub	a0,s0,a0
    8fe0:	3d853503          	ld	a0,984(a0) # 13d8 <.LBB71_4+0x1d8>
    8fe4:	03850533          	mul	a0,a0,s8
    8fe8:	000015b7          	lui	a1,0x1
    8fec:	40b405b3          	sub	a1,s0,a1
    8ff0:	3d05b583          	ld	a1,976(a1) # 13d0 <.LBB71_4+0x1d0>
    8ff4:	017585b3          	add	a1,a1,s7
    8ff8:	00b50533          	add	a0,a0,a1
    8ffc:	42555513          	srai	a0,a0,0x25
    9000:	00a025b3          	sgtz	a1,a0
    9004:	40b005b3          	neg	a1,a1
    9008:	00a5f533          	and	a0,a1,a0
    900c:	01954463          	blt	a0,s9,9014 <.LBB71_734>
    9010:	0ff00513          	li	a0,255

0000000000009014 <.LBB71_734>:
    9014:	000015b7          	lui	a1,0x1
    9018:	40b405b3          	sub	a1,s0,a1
    901c:	3ca5bc23          	sd	a0,984(a1) # 13d8 <.LBB71_4+0x1d8>
    9020:	00001537          	lui	a0,0x1
    9024:	40a40533          	sub	a0,s0,a0
    9028:	3e853503          	ld	a0,1000(a0) # 13e8 <.LBB71_4+0x1e8>
    902c:	03850533          	mul	a0,a0,s8
    9030:	000015b7          	lui	a1,0x1
    9034:	40b405b3          	sub	a1,s0,a1
    9038:	3e05b583          	ld	a1,992(a1) # 13e0 <.LBB71_4+0x1e0>
    903c:	017585b3          	add	a1,a1,s7
    9040:	00b50533          	add	a0,a0,a1
    9044:	42555513          	srai	a0,a0,0x25
    9048:	00a025b3          	sgtz	a1,a0
    904c:	40b005b3          	neg	a1,a1
    9050:	00a5f533          	and	a0,a1,a0
    9054:	01954463          	blt	a0,s9,905c <.LBB71_736>
    9058:	0ff00513          	li	a0,255

000000000000905c <.LBB71_736>:
    905c:	000015b7          	lui	a1,0x1
    9060:	40b405b3          	sub	a1,s0,a1
    9064:	3ea5b423          	sd	a0,1000(a1) # 13e8 <.LBB71_4+0x1e8>
    9068:	00001537          	lui	a0,0x1
    906c:	40a40533          	sub	a0,s0,a0
    9070:	3f853503          	ld	a0,1016(a0) # 13f8 <.LBB71_4+0x1f8>
    9074:	03850533          	mul	a0,a0,s8
    9078:	000015b7          	lui	a1,0x1
    907c:	40b405b3          	sub	a1,s0,a1
    9080:	3f05b583          	ld	a1,1008(a1) # 13f0 <.LBB71_4+0x1f0>
    9084:	017585b3          	add	a1,a1,s7
    9088:	00b50533          	add	a0,a0,a1
    908c:	42555513          	srai	a0,a0,0x25
    9090:	00a025b3          	sgtz	a1,a0
    9094:	40b005b3          	neg	a1,a1
    9098:	00a5f533          	and	a0,a1,a0
    909c:	01954463          	blt	a0,s9,90a4 <.LBB71_738>
    90a0:	0ff00513          	li	a0,255

00000000000090a4 <.LBB71_738>:
    90a4:	000015b7          	lui	a1,0x1
    90a8:	40b405b3          	sub	a1,s0,a1
    90ac:	3ea5bc23          	sd	a0,1016(a1) # 13f8 <.LBB71_4+0x1f8>
    90b0:	00001537          	lui	a0,0x1
    90b4:	40a40533          	sub	a0,s0,a0
    90b8:	40853503          	ld	a0,1032(a0) # 1408 <.LBB71_4+0x208>
    90bc:	03850533          	mul	a0,a0,s8
    90c0:	000015b7          	lui	a1,0x1
    90c4:	40b405b3          	sub	a1,s0,a1
    90c8:	4005b583          	ld	a1,1024(a1) # 1400 <.LBB71_4+0x200>
    90cc:	017585b3          	add	a1,a1,s7
    90d0:	00b50533          	add	a0,a0,a1
    90d4:	42555513          	srai	a0,a0,0x25
    90d8:	00a025b3          	sgtz	a1,a0
    90dc:	40b005b3          	neg	a1,a1
    90e0:	00a5f533          	and	a0,a1,a0
    90e4:	01954463          	blt	a0,s9,90ec <.LBB71_740>
    90e8:	0ff00513          	li	a0,255

00000000000090ec <.LBB71_740>:
    90ec:	000015b7          	lui	a1,0x1
    90f0:	40b405b3          	sub	a1,s0,a1
    90f4:	40a5b423          	sd	a0,1032(a1) # 1408 <.LBB71_4+0x208>
    90f8:	00001537          	lui	a0,0x1
    90fc:	40a40533          	sub	a0,s0,a0
    9100:	41853503          	ld	a0,1048(a0) # 1418 <.LBB71_4+0x218>
    9104:	03850533          	mul	a0,a0,s8
    9108:	000015b7          	lui	a1,0x1
    910c:	40b405b3          	sub	a1,s0,a1
    9110:	4105b583          	ld	a1,1040(a1) # 1410 <.LBB71_4+0x210>
    9114:	017585b3          	add	a1,a1,s7
    9118:	00b50533          	add	a0,a0,a1
    911c:	42555513          	srai	a0,a0,0x25
    9120:	00a025b3          	sgtz	a1,a0
    9124:	40b005b3          	neg	a1,a1
    9128:	00a5f533          	and	a0,a1,a0
    912c:	01954463          	blt	a0,s9,9134 <.LBB71_742>
    9130:	0ff00513          	li	a0,255

0000000000009134 <.LBB71_742>:
    9134:	000015b7          	lui	a1,0x1
    9138:	40b405b3          	sub	a1,s0,a1
    913c:	40a5bc23          	sd	a0,1048(a1) # 1418 <.LBB71_4+0x218>
    9140:	00001537          	lui	a0,0x1
    9144:	40a40533          	sub	a0,s0,a0
    9148:	42853503          	ld	a0,1064(a0) # 1428 <.LBB71_4+0x228>
    914c:	03850533          	mul	a0,a0,s8
    9150:	000015b7          	lui	a1,0x1
    9154:	40b405b3          	sub	a1,s0,a1
    9158:	4205b583          	ld	a1,1056(a1) # 1420 <.LBB71_4+0x220>
    915c:	017585b3          	add	a1,a1,s7
    9160:	00b50533          	add	a0,a0,a1
    9164:	42555513          	srai	a0,a0,0x25
    9168:	00a025b3          	sgtz	a1,a0
    916c:	40b005b3          	neg	a1,a1
    9170:	00a5f533          	and	a0,a1,a0
    9174:	01954463          	blt	a0,s9,917c <.LBB71_744>
    9178:	0ff00513          	li	a0,255

000000000000917c <.LBB71_744>:
    917c:	000015b7          	lui	a1,0x1
    9180:	40b405b3          	sub	a1,s0,a1
    9184:	42a5b423          	sd	a0,1064(a1) # 1428 <.LBB71_4+0x228>
    9188:	00001537          	lui	a0,0x1
    918c:	40a40533          	sub	a0,s0,a0
    9190:	43853503          	ld	a0,1080(a0) # 1438 <.LBB71_4+0x238>
    9194:	03850533          	mul	a0,a0,s8
    9198:	000015b7          	lui	a1,0x1
    919c:	40b405b3          	sub	a1,s0,a1
    91a0:	4305b583          	ld	a1,1072(a1) # 1430 <.LBB71_4+0x230>
    91a4:	017585b3          	add	a1,a1,s7
    91a8:	00b50533          	add	a0,a0,a1
    91ac:	42555513          	srai	a0,a0,0x25
    91b0:	00a025b3          	sgtz	a1,a0
    91b4:	40b005b3          	neg	a1,a1
    91b8:	00a5f533          	and	a0,a1,a0
    91bc:	01954463          	blt	a0,s9,91c4 <.LBB71_746>
    91c0:	0ff00513          	li	a0,255

00000000000091c4 <.LBB71_746>:
    91c4:	000015b7          	lui	a1,0x1
    91c8:	40b405b3          	sub	a1,s0,a1
    91cc:	42a5bc23          	sd	a0,1080(a1) # 1438 <.LBB71_4+0x238>
    91d0:	00001537          	lui	a0,0x1
    91d4:	40a40533          	sub	a0,s0,a0
    91d8:	44853503          	ld	a0,1096(a0) # 1448 <.LBB71_4+0x248>
    91dc:	03850533          	mul	a0,a0,s8
    91e0:	000015b7          	lui	a1,0x1
    91e4:	40b405b3          	sub	a1,s0,a1
    91e8:	4405b583          	ld	a1,1088(a1) # 1440 <.LBB71_4+0x240>
    91ec:	017585b3          	add	a1,a1,s7
    91f0:	00b50533          	add	a0,a0,a1
    91f4:	42555513          	srai	a0,a0,0x25
    91f8:	00a025b3          	sgtz	a1,a0
    91fc:	40b005b3          	neg	a1,a1
    9200:	00a5f533          	and	a0,a1,a0
    9204:	01954463          	blt	a0,s9,920c <.LBB71_748>
    9208:	0ff00513          	li	a0,255

000000000000920c <.LBB71_748>:
    920c:	000015b7          	lui	a1,0x1
    9210:	40b405b3          	sub	a1,s0,a1
    9214:	44a5b423          	sd	a0,1096(a1) # 1448 <.LBB71_4+0x248>
    9218:	00001537          	lui	a0,0x1
    921c:	40a40533          	sub	a0,s0,a0
    9220:	45853503          	ld	a0,1112(a0) # 1458 <.LBB71_4+0x258>
    9224:	03850533          	mul	a0,a0,s8
    9228:	000015b7          	lui	a1,0x1
    922c:	40b405b3          	sub	a1,s0,a1
    9230:	4505b583          	ld	a1,1104(a1) # 1450 <.LBB71_4+0x250>
    9234:	017585b3          	add	a1,a1,s7
    9238:	00b50533          	add	a0,a0,a1
    923c:	42555513          	srai	a0,a0,0x25
    9240:	00a025b3          	sgtz	a1,a0
    9244:	40b005b3          	neg	a1,a1
    9248:	00a5f533          	and	a0,a1,a0
    924c:	01954463          	blt	a0,s9,9254 <.LBB71_750>
    9250:	0ff00513          	li	a0,255

0000000000009254 <.LBB71_750>:
    9254:	000015b7          	lui	a1,0x1
    9258:	40b405b3          	sub	a1,s0,a1
    925c:	44a5bc23          	sd	a0,1112(a1) # 1458 <.LBB71_4+0x258>
    9260:	00001537          	lui	a0,0x1
    9264:	40a40533          	sub	a0,s0,a0
    9268:	46853503          	ld	a0,1128(a0) # 1468 <.LBB71_4+0x268>
    926c:	03850533          	mul	a0,a0,s8
    9270:	000015b7          	lui	a1,0x1
    9274:	40b405b3          	sub	a1,s0,a1
    9278:	4605b583          	ld	a1,1120(a1) # 1460 <.LBB71_4+0x260>
    927c:	017585b3          	add	a1,a1,s7
    9280:	00b50533          	add	a0,a0,a1
    9284:	42555513          	srai	a0,a0,0x25
    9288:	00a025b3          	sgtz	a1,a0
    928c:	40b005b3          	neg	a1,a1
    9290:	00a5f533          	and	a0,a1,a0
    9294:	01954463          	blt	a0,s9,929c <.LBB71_752>
    9298:	0ff00513          	li	a0,255

000000000000929c <.LBB71_752>:
    929c:	000015b7          	lui	a1,0x1
    92a0:	40b405b3          	sub	a1,s0,a1
    92a4:	46a5b423          	sd	a0,1128(a1) # 1468 <.LBB71_4+0x268>
    92a8:	00001537          	lui	a0,0x1
    92ac:	40a40533          	sub	a0,s0,a0
    92b0:	47853503          	ld	a0,1144(a0) # 1478 <.LBB71_4+0x278>
    92b4:	03850533          	mul	a0,a0,s8
    92b8:	000015b7          	lui	a1,0x1
    92bc:	40b405b3          	sub	a1,s0,a1
    92c0:	4705b583          	ld	a1,1136(a1) # 1470 <.LBB71_4+0x270>
    92c4:	017585b3          	add	a1,a1,s7
    92c8:	00b50533          	add	a0,a0,a1
    92cc:	42555513          	srai	a0,a0,0x25
    92d0:	00a025b3          	sgtz	a1,a0
    92d4:	40b005b3          	neg	a1,a1
    92d8:	00a5f533          	and	a0,a1,a0
    92dc:	01954463          	blt	a0,s9,92e4 <.LBB71_754>
    92e0:	0ff00513          	li	a0,255

00000000000092e4 <.LBB71_754>:
    92e4:	000015b7          	lui	a1,0x1
    92e8:	40b405b3          	sub	a1,s0,a1
    92ec:	46a5bc23          	sd	a0,1144(a1) # 1478 <.LBB71_4+0x278>
    92f0:	00001537          	lui	a0,0x1
    92f4:	40a40533          	sub	a0,s0,a0
    92f8:	48853503          	ld	a0,1160(a0) # 1488 <.LBB71_4+0x288>
    92fc:	03850533          	mul	a0,a0,s8
    9300:	000015b7          	lui	a1,0x1
    9304:	40b405b3          	sub	a1,s0,a1
    9308:	4805b583          	ld	a1,1152(a1) # 1480 <.LBB71_4+0x280>
    930c:	017585b3          	add	a1,a1,s7
    9310:	00b50533          	add	a0,a0,a1
    9314:	42555513          	srai	a0,a0,0x25
    9318:	00a025b3          	sgtz	a1,a0
    931c:	40b005b3          	neg	a1,a1
    9320:	00a5f533          	and	a0,a1,a0
    9324:	01954463          	blt	a0,s9,932c <.LBB71_756>
    9328:	0ff00513          	li	a0,255

000000000000932c <.LBB71_756>:
    932c:	000015b7          	lui	a1,0x1
    9330:	40b405b3          	sub	a1,s0,a1
    9334:	48a5b423          	sd	a0,1160(a1) # 1488 <.LBB71_4+0x288>
    9338:	00001537          	lui	a0,0x1
    933c:	40a40533          	sub	a0,s0,a0
    9340:	49853503          	ld	a0,1176(a0) # 1498 <.LBB71_4+0x298>
    9344:	03850533          	mul	a0,a0,s8
    9348:	000015b7          	lui	a1,0x1
    934c:	40b405b3          	sub	a1,s0,a1
    9350:	4905b583          	ld	a1,1168(a1) # 1490 <.LBB71_4+0x290>
    9354:	017585b3          	add	a1,a1,s7
    9358:	00b50533          	add	a0,a0,a1
    935c:	42555513          	srai	a0,a0,0x25
    9360:	00a025b3          	sgtz	a1,a0
    9364:	40b005b3          	neg	a1,a1
    9368:	00a5f533          	and	a0,a1,a0
    936c:	01954463          	blt	a0,s9,9374 <.LBB71_758>
    9370:	0ff00513          	li	a0,255

0000000000009374 <.LBB71_758>:
    9374:	000015b7          	lui	a1,0x1
    9378:	40b405b3          	sub	a1,s0,a1
    937c:	48a5bc23          	sd	a0,1176(a1) # 1498 <.LBB71_4+0x298>
    9380:	00001537          	lui	a0,0x1
    9384:	40a40533          	sub	a0,s0,a0
    9388:	4a853503          	ld	a0,1192(a0) # 14a8 <.LBB71_4+0x2a8>
    938c:	03850533          	mul	a0,a0,s8
    9390:	000015b7          	lui	a1,0x1
    9394:	40b405b3          	sub	a1,s0,a1
    9398:	4a05b583          	ld	a1,1184(a1) # 14a0 <.LBB71_4+0x2a0>
    939c:	017585b3          	add	a1,a1,s7
    93a0:	00b50533          	add	a0,a0,a1
    93a4:	42555513          	srai	a0,a0,0x25
    93a8:	00a025b3          	sgtz	a1,a0
    93ac:	40b005b3          	neg	a1,a1
    93b0:	00a5f533          	and	a0,a1,a0
    93b4:	01954463          	blt	a0,s9,93bc <.LBB71_760>
    93b8:	0ff00513          	li	a0,255

00000000000093bc <.LBB71_760>:
    93bc:	000015b7          	lui	a1,0x1
    93c0:	40b405b3          	sub	a1,s0,a1
    93c4:	4aa5b423          	sd	a0,1192(a1) # 14a8 <.LBB71_4+0x2a8>
    93c8:	00001537          	lui	a0,0x1
    93cc:	40a40533          	sub	a0,s0,a0
    93d0:	4b853503          	ld	a0,1208(a0) # 14b8 <.LBB71_4+0x2b8>
    93d4:	03850533          	mul	a0,a0,s8
    93d8:	000015b7          	lui	a1,0x1
    93dc:	40b405b3          	sub	a1,s0,a1
    93e0:	4b05b583          	ld	a1,1200(a1) # 14b0 <.LBB71_4+0x2b0>
    93e4:	017585b3          	add	a1,a1,s7
    93e8:	00b50533          	add	a0,a0,a1
    93ec:	42555513          	srai	a0,a0,0x25
    93f0:	00a025b3          	sgtz	a1,a0
    93f4:	40b005b3          	neg	a1,a1
    93f8:	00a5f533          	and	a0,a1,a0
    93fc:	01954463          	blt	a0,s9,9404 <.LBB71_762>
    9400:	0ff00513          	li	a0,255

0000000000009404 <.LBB71_762>:
    9404:	000015b7          	lui	a1,0x1
    9408:	40b405b3          	sub	a1,s0,a1
    940c:	4aa5bc23          	sd	a0,1208(a1) # 14b8 <.LBB71_4+0x2b8>
    9410:	00001537          	lui	a0,0x1
    9414:	40a40533          	sub	a0,s0,a0
    9418:	4c853503          	ld	a0,1224(a0) # 14c8 <.LBB71_4+0x2c8>
    941c:	03850533          	mul	a0,a0,s8
    9420:	000015b7          	lui	a1,0x1
    9424:	40b405b3          	sub	a1,s0,a1
    9428:	4c05b583          	ld	a1,1216(a1) # 14c0 <.LBB71_4+0x2c0>
    942c:	017585b3          	add	a1,a1,s7
    9430:	00b50533          	add	a0,a0,a1
    9434:	42555513          	srai	a0,a0,0x25
    9438:	00a025b3          	sgtz	a1,a0
    943c:	40b005b3          	neg	a1,a1
    9440:	00a5f533          	and	a0,a1,a0
    9444:	01954463          	blt	a0,s9,944c <.LBB71_764>
    9448:	0ff00513          	li	a0,255

000000000000944c <.LBB71_764>:
    944c:	000015b7          	lui	a1,0x1
    9450:	40b405b3          	sub	a1,s0,a1
    9454:	4ca5b423          	sd	a0,1224(a1) # 14c8 <.LBB71_4+0x2c8>
    9458:	00001537          	lui	a0,0x1
    945c:	40a40533          	sub	a0,s0,a0
    9460:	4d853503          	ld	a0,1240(a0) # 14d8 <.LBB71_4+0x2d8>
    9464:	03850533          	mul	a0,a0,s8
    9468:	000015b7          	lui	a1,0x1
    946c:	40b405b3          	sub	a1,s0,a1
    9470:	4d05b583          	ld	a1,1232(a1) # 14d0 <.LBB71_4+0x2d0>
    9474:	017585b3          	add	a1,a1,s7
    9478:	00b50533          	add	a0,a0,a1
    947c:	42555513          	srai	a0,a0,0x25
    9480:	00a025b3          	sgtz	a1,a0
    9484:	40b005b3          	neg	a1,a1
    9488:	00a5f533          	and	a0,a1,a0
    948c:	01954463          	blt	a0,s9,9494 <.LBB71_766>
    9490:	0ff00513          	li	a0,255

0000000000009494 <.LBB71_766>:
    9494:	000015b7          	lui	a1,0x1
    9498:	40b405b3          	sub	a1,s0,a1
    949c:	4ca5bc23          	sd	a0,1240(a1) # 14d8 <.LBB71_4+0x2d8>
    94a0:	00001537          	lui	a0,0x1
    94a4:	40a40533          	sub	a0,s0,a0
    94a8:	4e853503          	ld	a0,1256(a0) # 14e8 <.LBB71_4+0x2e8>
    94ac:	03850533          	mul	a0,a0,s8
    94b0:	000015b7          	lui	a1,0x1
    94b4:	40b405b3          	sub	a1,s0,a1
    94b8:	4e05b583          	ld	a1,1248(a1) # 14e0 <.LBB71_4+0x2e0>
    94bc:	017585b3          	add	a1,a1,s7
    94c0:	00b50533          	add	a0,a0,a1
    94c4:	42555513          	srai	a0,a0,0x25
    94c8:	00a025b3          	sgtz	a1,a0
    94cc:	40b005b3          	neg	a1,a1
    94d0:	00a5f533          	and	a0,a1,a0
    94d4:	01954463          	blt	a0,s9,94dc <.LBB71_768>
    94d8:	0ff00513          	li	a0,255

00000000000094dc <.LBB71_768>:
    94dc:	000015b7          	lui	a1,0x1
    94e0:	40b405b3          	sub	a1,s0,a1
    94e4:	4ea5b423          	sd	a0,1256(a1) # 14e8 <.LBB71_4+0x2e8>
    94e8:	00001537          	lui	a0,0x1
    94ec:	40a40533          	sub	a0,s0,a0
    94f0:	4f853503          	ld	a0,1272(a0) # 14f8 <.LBB71_4+0x2f8>
    94f4:	03850533          	mul	a0,a0,s8
    94f8:	000015b7          	lui	a1,0x1
    94fc:	40b405b3          	sub	a1,s0,a1
    9500:	4f05b583          	ld	a1,1264(a1) # 14f0 <.LBB71_4+0x2f0>
    9504:	017585b3          	add	a1,a1,s7
    9508:	00b50533          	add	a0,a0,a1
    950c:	42555513          	srai	a0,a0,0x25
    9510:	00a025b3          	sgtz	a1,a0
    9514:	40b005b3          	neg	a1,a1
    9518:	00a5f533          	and	a0,a1,a0
    951c:	01954463          	blt	a0,s9,9524 <.LBB71_770>
    9520:	0ff00513          	li	a0,255

0000000000009524 <.LBB71_770>:
    9524:	000015b7          	lui	a1,0x1
    9528:	40b405b3          	sub	a1,s0,a1
    952c:	4ea5bc23          	sd	a0,1272(a1) # 14f8 <.LBB71_4+0x2f8>
    9530:	00001537          	lui	a0,0x1
    9534:	40a40533          	sub	a0,s0,a0
    9538:	50053503          	ld	a0,1280(a0) # 1500 <.LBB71_4+0x300>
    953c:	03850533          	mul	a0,a0,s8
    9540:	017705b3          	add	a1,a4,s7
    9544:	00b50533          	add	a0,a0,a1
    9548:	42555513          	srai	a0,a0,0x25
    954c:	00a025b3          	sgtz	a1,a0
    9550:	40b005b3          	neg	a1,a1
    9554:	00a5f533          	and	a0,a1,a0
    9558:	01954463          	blt	a0,s9,9560 <.LBB71_772>
    955c:	0ff00513          	li	a0,255

0000000000009560 <.LBB71_772>:
    9560:	000015b7          	lui	a1,0x1
    9564:	40b405b3          	sub	a1,s0,a1
    9568:	50a5b023          	sd	a0,1280(a1) # 1500 <.LBB71_4+0x300>
    956c:	00001537          	lui	a0,0x1
    9570:	40a40533          	sub	a0,s0,a0
    9574:	51053503          	ld	a0,1296(a0) # 1510 <.LBB71_4+0x310>
    9578:	03850533          	mul	a0,a0,s8
    957c:	000015b7          	lui	a1,0x1
    9580:	40b405b3          	sub	a1,s0,a1
    9584:	5085b583          	ld	a1,1288(a1) # 1508 <.LBB71_4+0x308>
    9588:	017585b3          	add	a1,a1,s7
    958c:	00b50533          	add	a0,a0,a1
    9590:	42555513          	srai	a0,a0,0x25
    9594:	00a025b3          	sgtz	a1,a0
    9598:	40b005b3          	neg	a1,a1
    959c:	00a5f533          	and	a0,a1,a0
    95a0:	01954463          	blt	a0,s9,95a8 <.LBB71_774>
    95a4:	0ff00513          	li	a0,255

00000000000095a8 <.LBB71_774>:
    95a8:	000015b7          	lui	a1,0x1
    95ac:	40b405b3          	sub	a1,s0,a1
    95b0:	50a5b823          	sd	a0,1296(a1) # 1510 <.LBB71_4+0x310>
    95b4:	00001537          	lui	a0,0x1
    95b8:	40a40533          	sub	a0,s0,a0
    95bc:	52053503          	ld	a0,1312(a0) # 1520 <.LBB71_4+0x320>
    95c0:	03850533          	mul	a0,a0,s8
    95c4:	000015b7          	lui	a1,0x1
    95c8:	40b405b3          	sub	a1,s0,a1
    95cc:	5185b583          	ld	a1,1304(a1) # 1518 <.LBB71_4+0x318>
    95d0:	017585b3          	add	a1,a1,s7
    95d4:	00b50533          	add	a0,a0,a1
    95d8:	42555513          	srai	a0,a0,0x25
    95dc:	00a025b3          	sgtz	a1,a0
    95e0:	40b005b3          	neg	a1,a1
    95e4:	00a5f533          	and	a0,a1,a0
    95e8:	01954463          	blt	a0,s9,95f0 <.LBB71_776>
    95ec:	0ff00513          	li	a0,255

00000000000095f0 <.LBB71_776>:
    95f0:	000015b7          	lui	a1,0x1
    95f4:	40b405b3          	sub	a1,s0,a1
    95f8:	52a5b023          	sd	a0,1312(a1) # 1520 <.LBB71_4+0x320>
    95fc:	00001537          	lui	a0,0x1
    9600:	40a40533          	sub	a0,s0,a0
    9604:	53053503          	ld	a0,1328(a0) # 1530 <.LBB71_4+0x330>
    9608:	03850533          	mul	a0,a0,s8
    960c:	000015b7          	lui	a1,0x1
    9610:	40b405b3          	sub	a1,s0,a1
    9614:	5285b583          	ld	a1,1320(a1) # 1528 <.LBB71_4+0x328>
    9618:	017585b3          	add	a1,a1,s7
    961c:	00b50533          	add	a0,a0,a1
    9620:	42555513          	srai	a0,a0,0x25
    9624:	00a025b3          	sgtz	a1,a0
    9628:	40b005b3          	neg	a1,a1
    962c:	00a5f533          	and	a0,a1,a0
    9630:	01954463          	blt	a0,s9,9638 <.LBB71_778>
    9634:	0ff00513          	li	a0,255

0000000000009638 <.LBB71_778>:
    9638:	000015b7          	lui	a1,0x1
    963c:	40b405b3          	sub	a1,s0,a1
    9640:	52a5b823          	sd	a0,1328(a1) # 1530 <.LBB71_4+0x330>
    9644:	00001537          	lui	a0,0x1
    9648:	40a40533          	sub	a0,s0,a0
    964c:	54053503          	ld	a0,1344(a0) # 1540 <.LBB71_4+0x340>
    9650:	03850533          	mul	a0,a0,s8
    9654:	000015b7          	lui	a1,0x1
    9658:	40b405b3          	sub	a1,s0,a1
    965c:	5385b583          	ld	a1,1336(a1) # 1538 <.LBB71_4+0x338>
    9660:	017585b3          	add	a1,a1,s7
    9664:	00b50533          	add	a0,a0,a1
    9668:	42555513          	srai	a0,a0,0x25
    966c:	00a025b3          	sgtz	a1,a0
    9670:	40b005b3          	neg	a1,a1
    9674:	00a5f533          	and	a0,a1,a0
    9678:	01954463          	blt	a0,s9,9680 <.LBB71_780>
    967c:	0ff00513          	li	a0,255

0000000000009680 <.LBB71_780>:
    9680:	000015b7          	lui	a1,0x1
    9684:	40b405b3          	sub	a1,s0,a1
    9688:	54a5b023          	sd	a0,1344(a1) # 1540 <.LBB71_4+0x340>
    968c:	00001537          	lui	a0,0x1
    9690:	40a40533          	sub	a0,s0,a0
    9694:	55053503          	ld	a0,1360(a0) # 1550 <.LBB71_4+0x350>
    9698:	03850533          	mul	a0,a0,s8
    969c:	000015b7          	lui	a1,0x1
    96a0:	40b405b3          	sub	a1,s0,a1
    96a4:	5485b583          	ld	a1,1352(a1) # 1548 <.LBB71_4+0x348>
    96a8:	017585b3          	add	a1,a1,s7
    96ac:	00b50533          	add	a0,a0,a1
    96b0:	42555513          	srai	a0,a0,0x25
    96b4:	00a025b3          	sgtz	a1,a0
    96b8:	40b005b3          	neg	a1,a1
    96bc:	00a5f533          	and	a0,a1,a0
    96c0:	01954463          	blt	a0,s9,96c8 <.LBB71_782>
    96c4:	0ff00513          	li	a0,255

00000000000096c8 <.LBB71_782>:
    96c8:	000015b7          	lui	a1,0x1
    96cc:	40b405b3          	sub	a1,s0,a1
    96d0:	54a5b823          	sd	a0,1360(a1) # 1550 <.LBB71_4+0x350>
    96d4:	00001537          	lui	a0,0x1
    96d8:	40a40533          	sub	a0,s0,a0
    96dc:	56053503          	ld	a0,1376(a0) # 1560 <.LBB71_4+0x360>
    96e0:	03850533          	mul	a0,a0,s8
    96e4:	000015b7          	lui	a1,0x1
    96e8:	40b405b3          	sub	a1,s0,a1
    96ec:	5585b583          	ld	a1,1368(a1) # 1558 <.LBB71_4+0x358>
    96f0:	017585b3          	add	a1,a1,s7
    96f4:	00b50533          	add	a0,a0,a1
    96f8:	42555513          	srai	a0,a0,0x25
    96fc:	00a025b3          	sgtz	a1,a0
    9700:	40b005b3          	neg	a1,a1
    9704:	00a5f533          	and	a0,a1,a0
    9708:	01954463          	blt	a0,s9,9710 <.LBB71_784>
    970c:	0ff00513          	li	a0,255

0000000000009710 <.LBB71_784>:
    9710:	000015b7          	lui	a1,0x1
    9714:	40b405b3          	sub	a1,s0,a1
    9718:	56a5b023          	sd	a0,1376(a1) # 1560 <.LBB71_4+0x360>
    971c:	00001537          	lui	a0,0x1
    9720:	40a40533          	sub	a0,s0,a0
    9724:	57053503          	ld	a0,1392(a0) # 1570 <.LBB71_4+0x370>
    9728:	03850533          	mul	a0,a0,s8
    972c:	000015b7          	lui	a1,0x1
    9730:	40b405b3          	sub	a1,s0,a1
    9734:	5685b583          	ld	a1,1384(a1) # 1568 <.LBB71_4+0x368>
    9738:	017585b3          	add	a1,a1,s7
    973c:	00b50533          	add	a0,a0,a1
    9740:	42555513          	srai	a0,a0,0x25
    9744:	00a025b3          	sgtz	a1,a0
    9748:	40b005b3          	neg	a1,a1
    974c:	00a5f533          	and	a0,a1,a0
    9750:	01954463          	blt	a0,s9,9758 <.LBB71_786>
    9754:	0ff00513          	li	a0,255

0000000000009758 <.LBB71_786>:
    9758:	000015b7          	lui	a1,0x1
    975c:	40b405b3          	sub	a1,s0,a1
    9760:	56a5b823          	sd	a0,1392(a1) # 1570 <.LBB71_4+0x370>
    9764:	00001537          	lui	a0,0x1
    9768:	40a40533          	sub	a0,s0,a0
    976c:	58053503          	ld	a0,1408(a0) # 1580 <.LBB71_4+0x380>
    9770:	03850533          	mul	a0,a0,s8
    9774:	000015b7          	lui	a1,0x1
    9778:	40b405b3          	sub	a1,s0,a1
    977c:	5785b583          	ld	a1,1400(a1) # 1578 <.LBB71_4+0x378>
    9780:	017585b3          	add	a1,a1,s7
    9784:	00b50533          	add	a0,a0,a1
    9788:	42555513          	srai	a0,a0,0x25
    978c:	00a025b3          	sgtz	a1,a0
    9790:	40b005b3          	neg	a1,a1
    9794:	00a5f533          	and	a0,a1,a0
    9798:	01954463          	blt	a0,s9,97a0 <.LBB71_788>
    979c:	0ff00513          	li	a0,255

00000000000097a0 <.LBB71_788>:
    97a0:	000015b7          	lui	a1,0x1
    97a4:	40b405b3          	sub	a1,s0,a1
    97a8:	58a5b023          	sd	a0,1408(a1) # 1580 <.LBB71_4+0x380>
    97ac:	00001537          	lui	a0,0x1
    97b0:	40a40533          	sub	a0,s0,a0
    97b4:	59053503          	ld	a0,1424(a0) # 1590 <.LBB71_4+0x390>
    97b8:	03850533          	mul	a0,a0,s8
    97bc:	000015b7          	lui	a1,0x1
    97c0:	40b405b3          	sub	a1,s0,a1
    97c4:	5885b583          	ld	a1,1416(a1) # 1588 <.LBB71_4+0x388>
    97c8:	017585b3          	add	a1,a1,s7
    97cc:	00b50533          	add	a0,a0,a1
    97d0:	42555513          	srai	a0,a0,0x25
    97d4:	00a025b3          	sgtz	a1,a0
    97d8:	40b005b3          	neg	a1,a1
    97dc:	00a5f533          	and	a0,a1,a0
    97e0:	01954463          	blt	a0,s9,97e8 <.LBB71_790>
    97e4:	0ff00513          	li	a0,255

00000000000097e8 <.LBB71_790>:
    97e8:	000015b7          	lui	a1,0x1
    97ec:	40b405b3          	sub	a1,s0,a1
    97f0:	58a5b823          	sd	a0,1424(a1) # 1590 <.LBB71_4+0x390>
    97f4:	00001537          	lui	a0,0x1
    97f8:	40a40533          	sub	a0,s0,a0
    97fc:	5a053503          	ld	a0,1440(a0) # 15a0 <.LBB71_4+0x3a0>
    9800:	03850533          	mul	a0,a0,s8
    9804:	000015b7          	lui	a1,0x1
    9808:	40b405b3          	sub	a1,s0,a1
    980c:	5985b583          	ld	a1,1432(a1) # 1598 <.LBB71_4+0x398>
    9810:	017585b3          	add	a1,a1,s7
    9814:	00b50533          	add	a0,a0,a1
    9818:	42555513          	srai	a0,a0,0x25
    981c:	00a025b3          	sgtz	a1,a0
    9820:	40b005b3          	neg	a1,a1
    9824:	00a5f533          	and	a0,a1,a0
    9828:	01954463          	blt	a0,s9,9830 <.LBB71_792>
    982c:	0ff00513          	li	a0,255

0000000000009830 <.LBB71_792>:
    9830:	000015b7          	lui	a1,0x1
    9834:	40b405b3          	sub	a1,s0,a1
    9838:	5aa5b023          	sd	a0,1440(a1) # 15a0 <.LBB71_4+0x3a0>
    983c:	00001537          	lui	a0,0x1
    9840:	40a40533          	sub	a0,s0,a0
    9844:	5b053503          	ld	a0,1456(a0) # 15b0 <.LBB71_4+0x3b0>
    9848:	03850533          	mul	a0,a0,s8
    984c:	000015b7          	lui	a1,0x1
    9850:	40b405b3          	sub	a1,s0,a1
    9854:	5a85b583          	ld	a1,1448(a1) # 15a8 <.LBB71_4+0x3a8>
    9858:	017585b3          	add	a1,a1,s7
    985c:	00b50533          	add	a0,a0,a1
    9860:	42555513          	srai	a0,a0,0x25
    9864:	00a025b3          	sgtz	a1,a0
    9868:	40b005b3          	neg	a1,a1
    986c:	00a5f533          	and	a0,a1,a0
    9870:	01954463          	blt	a0,s9,9878 <.LBB71_794>
    9874:	0ff00513          	li	a0,255

0000000000009878 <.LBB71_794>:
    9878:	000015b7          	lui	a1,0x1
    987c:	40b405b3          	sub	a1,s0,a1
    9880:	5aa5b823          	sd	a0,1456(a1) # 15b0 <.LBB71_4+0x3b0>
    9884:	00001537          	lui	a0,0x1
    9888:	40a40533          	sub	a0,s0,a0
    988c:	5c053503          	ld	a0,1472(a0) # 15c0 <.LBB71_4+0x3c0>
    9890:	03850533          	mul	a0,a0,s8
    9894:	000015b7          	lui	a1,0x1
    9898:	40b405b3          	sub	a1,s0,a1
    989c:	5b85b583          	ld	a1,1464(a1) # 15b8 <.LBB71_4+0x3b8>
    98a0:	017585b3          	add	a1,a1,s7
    98a4:	00b50533          	add	a0,a0,a1
    98a8:	42555513          	srai	a0,a0,0x25
    98ac:	00a025b3          	sgtz	a1,a0
    98b0:	40b005b3          	neg	a1,a1
    98b4:	00a5f533          	and	a0,a1,a0
    98b8:	01954463          	blt	a0,s9,98c0 <.LBB71_796>
    98bc:	0ff00513          	li	a0,255

00000000000098c0 <.LBB71_796>:
    98c0:	000015b7          	lui	a1,0x1
    98c4:	40b405b3          	sub	a1,s0,a1
    98c8:	5ca5b023          	sd	a0,1472(a1) # 15c0 <.LBB71_4+0x3c0>
    98cc:	00001537          	lui	a0,0x1
    98d0:	40a40533          	sub	a0,s0,a0
    98d4:	5d053503          	ld	a0,1488(a0) # 15d0 <.LBB71_4+0x3d0>
    98d8:	03850533          	mul	a0,a0,s8
    98dc:	000015b7          	lui	a1,0x1
    98e0:	40b405b3          	sub	a1,s0,a1
    98e4:	5c85b583          	ld	a1,1480(a1) # 15c8 <.LBB71_4+0x3c8>
    98e8:	017585b3          	add	a1,a1,s7
    98ec:	00b50533          	add	a0,a0,a1
    98f0:	42555513          	srai	a0,a0,0x25
    98f4:	00a025b3          	sgtz	a1,a0
    98f8:	40b005b3          	neg	a1,a1
    98fc:	00a5f533          	and	a0,a1,a0
    9900:	01954463          	blt	a0,s9,9908 <.LBB71_798>
    9904:	0ff00513          	li	a0,255

0000000000009908 <.LBB71_798>:
    9908:	000015b7          	lui	a1,0x1
    990c:	40b405b3          	sub	a1,s0,a1
    9910:	5ca5b823          	sd	a0,1488(a1) # 15d0 <.LBB71_4+0x3d0>
    9914:	00001537          	lui	a0,0x1
    9918:	40a40533          	sub	a0,s0,a0
    991c:	5e053503          	ld	a0,1504(a0) # 15e0 <.LBB71_4+0x3e0>
    9920:	03850533          	mul	a0,a0,s8
    9924:	000015b7          	lui	a1,0x1
    9928:	40b405b3          	sub	a1,s0,a1
    992c:	5d85b583          	ld	a1,1496(a1) # 15d8 <.LBB71_4+0x3d8>
    9930:	017585b3          	add	a1,a1,s7
    9934:	00b50533          	add	a0,a0,a1
    9938:	42555513          	srai	a0,a0,0x25
    993c:	00a025b3          	sgtz	a1,a0
    9940:	40b005b3          	neg	a1,a1
    9944:	00a5f533          	and	a0,a1,a0
    9948:	01954463          	blt	a0,s9,9950 <.LBB71_800>
    994c:	0ff00513          	li	a0,255

0000000000009950 <.LBB71_800>:
    9950:	000015b7          	lui	a1,0x1
    9954:	40b405b3          	sub	a1,s0,a1
    9958:	5ea5b023          	sd	a0,1504(a1) # 15e0 <.LBB71_4+0x3e0>
    995c:	00001537          	lui	a0,0x1
    9960:	40a40533          	sub	a0,s0,a0
    9964:	5f053503          	ld	a0,1520(a0) # 15f0 <.LBB71_4+0x3f0>
    9968:	03850533          	mul	a0,a0,s8
    996c:	000015b7          	lui	a1,0x1
    9970:	40b405b3          	sub	a1,s0,a1
    9974:	5e85b583          	ld	a1,1512(a1) # 15e8 <.LBB71_4+0x3e8>
    9978:	017585b3          	add	a1,a1,s7
    997c:	00b50533          	add	a0,a0,a1
    9980:	42555513          	srai	a0,a0,0x25
    9984:	00a025b3          	sgtz	a1,a0
    9988:	40b005b3          	neg	a1,a1
    998c:	00a5f533          	and	a0,a1,a0
    9990:	01954463          	blt	a0,s9,9998 <.LBB71_802>
    9994:	0ff00513          	li	a0,255

0000000000009998 <.LBB71_802>:
    9998:	000015b7          	lui	a1,0x1
    999c:	40b405b3          	sub	a1,s0,a1
    99a0:	5ea5b823          	sd	a0,1520(a1) # 15f0 <.LBB71_4+0x3f0>
    99a4:	00001537          	lui	a0,0x1
    99a8:	40a40533          	sub	a0,s0,a0
    99ac:	60053503          	ld	a0,1536(a0) # 1600 <.LBB71_4+0x400>
    99b0:	03850533          	mul	a0,a0,s8
    99b4:	000015b7          	lui	a1,0x1
    99b8:	40b405b3          	sub	a1,s0,a1
    99bc:	5f85b583          	ld	a1,1528(a1) # 15f8 <.LBB71_4+0x3f8>
    99c0:	017585b3          	add	a1,a1,s7
    99c4:	00b50533          	add	a0,a0,a1
    99c8:	42555513          	srai	a0,a0,0x25
    99cc:	00a025b3          	sgtz	a1,a0
    99d0:	40b005b3          	neg	a1,a1
    99d4:	00a5f533          	and	a0,a1,a0
    99d8:	01954463          	blt	a0,s9,99e0 <.LBB71_804>
    99dc:	0ff00513          	li	a0,255

00000000000099e0 <.LBB71_804>:
    99e0:	000015b7          	lui	a1,0x1
    99e4:	40b405b3          	sub	a1,s0,a1
    99e8:	60a5b023          	sd	a0,1536(a1) # 1600 <.LBB71_4+0x400>
    99ec:	00001537          	lui	a0,0x1
    99f0:	40a40533          	sub	a0,s0,a0
    99f4:	73053503          	ld	a0,1840(a0) # 1730 <.LBB71_4+0x530>
    99f8:	03850533          	mul	a0,a0,s8
    99fc:	000015b7          	lui	a1,0x1
    9a00:	40b405b3          	sub	a1,s0,a1
    9a04:	6085b583          	ld	a1,1544(a1) # 1608 <.LBB71_4+0x408>
    9a08:	017585b3          	add	a1,a1,s7
    9a0c:	00b50533          	add	a0,a0,a1
    9a10:	42555513          	srai	a0,a0,0x25
    9a14:	00a025b3          	sgtz	a1,a0
    9a18:	40b005b3          	neg	a1,a1
    9a1c:	00a5f533          	and	a0,a1,a0
    9a20:	01954463          	blt	a0,s9,9a28 <.LBB71_806>
    9a24:	0ff00513          	li	a0,255

0000000000009a28 <.LBB71_806>:
    9a28:	000015b7          	lui	a1,0x1
    9a2c:	40b405b3          	sub	a1,s0,a1
    9a30:	72a5b823          	sd	a0,1840(a1) # 1730 <.LBB71_4+0x530>
    9a34:	00001537          	lui	a0,0x1
    9a38:	40a40533          	sub	a0,s0,a0
    9a3c:	74053503          	ld	a0,1856(a0) # 1740 <.LBB71_5+0xc>
    9a40:	03850533          	mul	a0,a0,s8
    9a44:	000015b7          	lui	a1,0x1
    9a48:	40b405b3          	sub	a1,s0,a1
    9a4c:	7385b583          	ld	a1,1848(a1) # 1738 <.LBB71_5+0x4>
    9a50:	017585b3          	add	a1,a1,s7
    9a54:	00b50533          	add	a0,a0,a1
    9a58:	42555513          	srai	a0,a0,0x25
    9a5c:	00a025b3          	sgtz	a1,a0
    9a60:	40b005b3          	neg	a1,a1
    9a64:	00a5f533          	and	a0,a1,a0
    9a68:	01954463          	blt	a0,s9,9a70 <.LBB71_808>
    9a6c:	0ff00513          	li	a0,255

0000000000009a70 <.LBB71_808>:
    9a70:	000015b7          	lui	a1,0x1
    9a74:	40b405b3          	sub	a1,s0,a1
    9a78:	74a5b023          	sd	a0,1856(a1) # 1740 <.LBB71_5+0xc>
    9a7c:	00001537          	lui	a0,0x1
    9a80:	40a40533          	sub	a0,s0,a0
    9a84:	75853503          	ld	a0,1880(a0) # 1758 <.LBB71_5+0x24>
    9a88:	03850533          	mul	a0,a0,s8
    9a8c:	000015b7          	lui	a1,0x1
    9a90:	40b405b3          	sub	a1,s0,a1
    9a94:	7505b583          	ld	a1,1872(a1) # 1750 <.LBB71_5+0x1c>
    9a98:	017585b3          	add	a1,a1,s7
    9a9c:	00b50533          	add	a0,a0,a1
    9aa0:	42555513          	srai	a0,a0,0x25
    9aa4:	00a025b3          	sgtz	a1,a0
    9aa8:	40b005b3          	neg	a1,a1
    9aac:	00a5f533          	and	a0,a1,a0
    9ab0:	01954463          	blt	a0,s9,9ab8 <.LBB71_810>
    9ab4:	0ff00513          	li	a0,255

0000000000009ab8 <.LBB71_810>:
    9ab8:	000015b7          	lui	a1,0x1
    9abc:	40b405b3          	sub	a1,s0,a1
    9ac0:	74a5bc23          	sd	a0,1880(a1) # 1758 <.LBB71_5+0x24>
    9ac4:	00001537          	lui	a0,0x1
    9ac8:	40a40533          	sub	a0,s0,a0
    9acc:	76853503          	ld	a0,1896(a0) # 1768 <.LBB71_5+0x34>
    9ad0:	03850533          	mul	a0,a0,s8
    9ad4:	000015b7          	lui	a1,0x1
    9ad8:	40b405b3          	sub	a1,s0,a1
    9adc:	7605b583          	ld	a1,1888(a1) # 1760 <.LBB71_5+0x2c>
    9ae0:	017585b3          	add	a1,a1,s7
    9ae4:	00b50533          	add	a0,a0,a1
    9ae8:	42555513          	srai	a0,a0,0x25
    9aec:	00a025b3          	sgtz	a1,a0
    9af0:	40b005b3          	neg	a1,a1
    9af4:	00a5f533          	and	a0,a1,a0
    9af8:	01954463          	blt	a0,s9,9b00 <.LBB71_812>
    9afc:	0ff00513          	li	a0,255

0000000000009b00 <.LBB71_812>:
    9b00:	000015b7          	lui	a1,0x1
    9b04:	40b405b3          	sub	a1,s0,a1
    9b08:	76a5b423          	sd	a0,1896(a1) # 1768 <.LBB71_5+0x34>
    9b0c:	00001537          	lui	a0,0x1
    9b10:	40a40533          	sub	a0,s0,a0
    9b14:	77853503          	ld	a0,1912(a0) # 1778 <.LBB71_5+0x44>
    9b18:	03850533          	mul	a0,a0,s8
    9b1c:	000015b7          	lui	a1,0x1
    9b20:	40b405b3          	sub	a1,s0,a1
    9b24:	7705b583          	ld	a1,1904(a1) # 1770 <.LBB71_5+0x3c>
    9b28:	017585b3          	add	a1,a1,s7
    9b2c:	00b50533          	add	a0,a0,a1
    9b30:	42555513          	srai	a0,a0,0x25
    9b34:	00a025b3          	sgtz	a1,a0
    9b38:	40b005b3          	neg	a1,a1
    9b3c:	00a5f533          	and	a0,a1,a0
    9b40:	01954463          	blt	a0,s9,9b48 <.LBB71_814>
    9b44:	0ff00513          	li	a0,255

0000000000009b48 <.LBB71_814>:
    9b48:	000015b7          	lui	a1,0x1
    9b4c:	40b405b3          	sub	a1,s0,a1
    9b50:	76a5bc23          	sd	a0,1912(a1) # 1778 <.LBB71_5+0x44>
    9b54:	00001537          	lui	a0,0x1
    9b58:	40a40533          	sub	a0,s0,a0
    9b5c:	79053503          	ld	a0,1936(a0) # 1790 <.LBB71_5+0x5c>
    9b60:	03850533          	mul	a0,a0,s8
    9b64:	000015b7          	lui	a1,0x1
    9b68:	40b405b3          	sub	a1,s0,a1
    9b6c:	7805b583          	ld	a1,1920(a1) # 1780 <.LBB71_5+0x4c>
    9b70:	017585b3          	add	a1,a1,s7
    9b74:	00b50533          	add	a0,a0,a1
    9b78:	42555513          	srai	a0,a0,0x25
    9b7c:	00a025b3          	sgtz	a1,a0
    9b80:	40b005b3          	neg	a1,a1
    9b84:	00a5f533          	and	a0,a1,a0
    9b88:	01954463          	blt	a0,s9,9b90 <.LBB71_816>
    9b8c:	0ff00513          	li	a0,255

0000000000009b90 <.LBB71_816>:
    9b90:	000015b7          	lui	a1,0x1
    9b94:	40b405b3          	sub	a1,s0,a1
    9b98:	78a5b823          	sd	a0,1936(a1) # 1790 <.LBB71_5+0x5c>
    9b9c:	00001537          	lui	a0,0x1
    9ba0:	40a40533          	sub	a0,s0,a0
    9ba4:	7a053503          	ld	a0,1952(a0) # 17a0 <.LBB71_5+0x6c>
    9ba8:	03850533          	mul	a0,a0,s8
    9bac:	000015b7          	lui	a1,0x1
    9bb0:	40b405b3          	sub	a1,s0,a1
    9bb4:	7985b583          	ld	a1,1944(a1) # 1798 <.LBB71_5+0x64>
    9bb8:	017585b3          	add	a1,a1,s7
    9bbc:	00b50533          	add	a0,a0,a1
    9bc0:	42555513          	srai	a0,a0,0x25
    9bc4:	00a025b3          	sgtz	a1,a0
    9bc8:	40b005b3          	neg	a1,a1
    9bcc:	00a5f533          	and	a0,a1,a0
    9bd0:	01954463          	blt	a0,s9,9bd8 <.LBB71_818>
    9bd4:	0ff00513          	li	a0,255

0000000000009bd8 <.LBB71_818>:
    9bd8:	000015b7          	lui	a1,0x1
    9bdc:	40b405b3          	sub	a1,s0,a1
    9be0:	7aa5b023          	sd	a0,1952(a1) # 17a0 <.LBB71_5+0x6c>
    9be4:	00001537          	lui	a0,0x1
    9be8:	40a40533          	sub	a0,s0,a0
    9bec:	7b053503          	ld	a0,1968(a0) # 17b0 <.LBB71_5+0x7c>
    9bf0:	03850533          	mul	a0,a0,s8
    9bf4:	000015b7          	lui	a1,0x1
    9bf8:	40b405b3          	sub	a1,s0,a1
    9bfc:	7a85b583          	ld	a1,1960(a1) # 17a8 <.LBB71_5+0x74>
    9c00:	017585b3          	add	a1,a1,s7
    9c04:	00b50533          	add	a0,a0,a1
    9c08:	42555513          	srai	a0,a0,0x25
    9c0c:	00a025b3          	sgtz	a1,a0
    9c10:	40b005b3          	neg	a1,a1
    9c14:	00a5f533          	and	a0,a1,a0
    9c18:	01954463          	blt	a0,s9,9c20 <.LBB71_820>
    9c1c:	0ff00513          	li	a0,255

0000000000009c20 <.LBB71_820>:
    9c20:	000015b7          	lui	a1,0x1
    9c24:	40b405b3          	sub	a1,s0,a1
    9c28:	7aa5b823          	sd	a0,1968(a1) # 17b0 <.LBB71_5+0x7c>
    9c2c:	00001537          	lui	a0,0x1
    9c30:	40a40533          	sub	a0,s0,a0
    9c34:	7c053503          	ld	a0,1984(a0) # 17c0 <.LBB71_5+0x8c>
    9c38:	03850533          	mul	a0,a0,s8
    9c3c:	000015b7          	lui	a1,0x1
    9c40:	40b405b3          	sub	a1,s0,a1
    9c44:	7b85b583          	ld	a1,1976(a1) # 17b8 <.LBB71_5+0x84>
    9c48:	017585b3          	add	a1,a1,s7
    9c4c:	00b50533          	add	a0,a0,a1
    9c50:	42555513          	srai	a0,a0,0x25
    9c54:	00a025b3          	sgtz	a1,a0
    9c58:	40b005b3          	neg	a1,a1
    9c5c:	00a5f533          	and	a0,a1,a0
    9c60:	01954463          	blt	a0,s9,9c68 <.LBB71_822>
    9c64:	0ff00513          	li	a0,255

0000000000009c68 <.LBB71_822>:
    9c68:	000015b7          	lui	a1,0x1
    9c6c:	40b405b3          	sub	a1,s0,a1
    9c70:	7ca5b023          	sd	a0,1984(a1) # 17c0 <.LBB71_5+0x8c>
    9c74:	00001537          	lui	a0,0x1
    9c78:	40a40533          	sub	a0,s0,a0
    9c7c:	7d053503          	ld	a0,2000(a0) # 17d0 <.LBB71_5+0x9c>
    9c80:	03850533          	mul	a0,a0,s8
    9c84:	000015b7          	lui	a1,0x1
    9c88:	40b405b3          	sub	a1,s0,a1
    9c8c:	7c85b583          	ld	a1,1992(a1) # 17c8 <.LBB71_5+0x94>
    9c90:	017585b3          	add	a1,a1,s7
    9c94:	00b50533          	add	a0,a0,a1
    9c98:	42555513          	srai	a0,a0,0x25
    9c9c:	00a025b3          	sgtz	a1,a0
    9ca0:	40b005b3          	neg	a1,a1
    9ca4:	00a5f533          	and	a0,a1,a0
    9ca8:	01954463          	blt	a0,s9,9cb0 <.LBB71_824>
    9cac:	0ff00513          	li	a0,255

0000000000009cb0 <.LBB71_824>:
    9cb0:	000015b7          	lui	a1,0x1
    9cb4:	40b405b3          	sub	a1,s0,a1
    9cb8:	7ca5b823          	sd	a0,2000(a1) # 17d0 <.LBB71_5+0x9c>
    9cbc:	00001537          	lui	a0,0x1
    9cc0:	40a40533          	sub	a0,s0,a0
    9cc4:	7e053503          	ld	a0,2016(a0) # 17e0 <.LBB71_5+0xac>
    9cc8:	03850533          	mul	a0,a0,s8
    9ccc:	000015b7          	lui	a1,0x1
    9cd0:	40b405b3          	sub	a1,s0,a1
    9cd4:	7d85b583          	ld	a1,2008(a1) # 17d8 <.LBB71_5+0xa4>
    9cd8:	017585b3          	add	a1,a1,s7
    9cdc:	00b50533          	add	a0,a0,a1
    9ce0:	42555513          	srai	a0,a0,0x25
    9ce4:	00a025b3          	sgtz	a1,a0
    9ce8:	40b005b3          	neg	a1,a1
    9cec:	00a5f533          	and	a0,a1,a0
    9cf0:	01954463          	blt	a0,s9,9cf8 <.LBB71_826>
    9cf4:	0ff00513          	li	a0,255

0000000000009cf8 <.LBB71_826>:
    9cf8:	000015b7          	lui	a1,0x1
    9cfc:	40b405b3          	sub	a1,s0,a1
    9d00:	7ea5b023          	sd	a0,2016(a1) # 17e0 <.LBB71_5+0xac>
    9d04:	00001537          	lui	a0,0x1
    9d08:	40a40533          	sub	a0,s0,a0
    9d0c:	7f053503          	ld	a0,2032(a0) # 17f0 <.LBB71_5+0xbc>
    9d10:	03850533          	mul	a0,a0,s8
    9d14:	000015b7          	lui	a1,0x1
    9d18:	40b405b3          	sub	a1,s0,a1
    9d1c:	7e85b583          	ld	a1,2024(a1) # 17e8 <.LBB71_5+0xb4>
    9d20:	017585b3          	add	a1,a1,s7
    9d24:	00b50533          	add	a0,a0,a1
    9d28:	42555513          	srai	a0,a0,0x25
    9d2c:	00a025b3          	sgtz	a1,a0
    9d30:	40b005b3          	neg	a1,a1
    9d34:	00a5f533          	and	a0,a1,a0
    9d38:	01954463          	blt	a0,s9,9d40 <.LBB71_828>
    9d3c:	0ff00513          	li	a0,255

0000000000009d40 <.LBB71_828>:
    9d40:	000015b7          	lui	a1,0x1
    9d44:	40b405b3          	sub	a1,s0,a1
    9d48:	7ea5b823          	sd	a0,2032(a1) # 17f0 <.LBB71_5+0xbc>
    9d4c:	80043503          	ld	a0,-2048(s0)
    9d50:	03850533          	mul	a0,a0,s8
    9d54:	000015b7          	lui	a1,0x1
    9d58:	40b405b3          	sub	a1,s0,a1
    9d5c:	7f85b583          	ld	a1,2040(a1) # 17f8 <.LBB71_5+0xc4>
    9d60:	017585b3          	add	a1,a1,s7
    9d64:	00b50533          	add	a0,a0,a1
    9d68:	42555513          	srai	a0,a0,0x25
    9d6c:	00a025b3          	sgtz	a1,a0
    9d70:	40b005b3          	neg	a1,a1
    9d74:	00a5f533          	and	a0,a1,a0
    9d78:	01954463          	blt	a0,s9,9d80 <.LBB71_830>
    9d7c:	0ff00513          	li	a0,255

0000000000009d80 <.LBB71_830>:
    9d80:	80a43023          	sd	a0,-2048(s0)
    9d84:	81843503          	ld	a0,-2024(s0)
    9d88:	03850533          	mul	a0,a0,s8
    9d8c:	81043583          	ld	a1,-2032(s0)
    9d90:	017585b3          	add	a1,a1,s7
    9d94:	00b50533          	add	a0,a0,a1
    9d98:	42555513          	srai	a0,a0,0x25
    9d9c:	00a025b3          	sgtz	a1,a0
    9da0:	40b005b3          	neg	a1,a1
    9da4:	00a5f533          	and	a0,a1,a0
    9da8:	01954463          	blt	a0,s9,9db0 <.LBB71_832>
    9dac:	0ff00513          	li	a0,255

0000000000009db0 <.LBB71_832>:
    9db0:	80a43c23          	sd	a0,-2024(s0)
    9db4:	82843503          	ld	a0,-2008(s0)
    9db8:	03850533          	mul	a0,a0,s8
    9dbc:	82043583          	ld	a1,-2016(s0)
    9dc0:	017585b3          	add	a1,a1,s7
    9dc4:	00b50533          	add	a0,a0,a1
    9dc8:	42555513          	srai	a0,a0,0x25
    9dcc:	00a025b3          	sgtz	a1,a0
    9dd0:	40b005b3          	neg	a1,a1
    9dd4:	00a5f533          	and	a0,a1,a0
    9dd8:	01954463          	blt	a0,s9,9de0 <.LBB71_834>
    9ddc:	0ff00513          	li	a0,255

0000000000009de0 <.LBB71_834>:
    9de0:	82a43423          	sd	a0,-2008(s0)
    9de4:	83843503          	ld	a0,-1992(s0)
    9de8:	03850533          	mul	a0,a0,s8
    9dec:	83043583          	ld	a1,-2000(s0)
    9df0:	017585b3          	add	a1,a1,s7
    9df4:	00b50533          	add	a0,a0,a1
    9df8:	42555513          	srai	a0,a0,0x25
    9dfc:	00a025b3          	sgtz	a1,a0
    9e00:	40b005b3          	neg	a1,a1
    9e04:	00a5f533          	and	a0,a1,a0
    9e08:	01954463          	blt	a0,s9,9e10 <.LBB71_836>
    9e0c:	0ff00513          	li	a0,255

0000000000009e10 <.LBB71_836>:
    9e10:	82a43c23          	sd	a0,-1992(s0)
    9e14:	85843503          	ld	a0,-1960(s0)
    9e18:	03850533          	mul	a0,a0,s8
    9e1c:	84843583          	ld	a1,-1976(s0)
    9e20:	017585b3          	add	a1,a1,s7
    9e24:	00b50533          	add	a0,a0,a1
    9e28:	42555513          	srai	a0,a0,0x25
    9e2c:	00a025b3          	sgtz	a1,a0
    9e30:	40b005b3          	neg	a1,a1
    9e34:	00a5f533          	and	a0,a1,a0
    9e38:	01954463          	blt	a0,s9,9e40 <.LBB71_838>
    9e3c:	0ff00513          	li	a0,255

0000000000009e40 <.LBB71_838>:
    9e40:	84a43c23          	sd	a0,-1960(s0)
    9e44:	86843503          	ld	a0,-1944(s0)
    9e48:	03850533          	mul	a0,a0,s8
    9e4c:	86043583          	ld	a1,-1952(s0)
    9e50:	017585b3          	add	a1,a1,s7
    9e54:	00b50533          	add	a0,a0,a1
    9e58:	42555513          	srai	a0,a0,0x25
    9e5c:	00a025b3          	sgtz	a1,a0
    9e60:	40b005b3          	neg	a1,a1
    9e64:	00a5f533          	and	a0,a1,a0
    9e68:	01954463          	blt	a0,s9,9e70 <.LBB71_840>
    9e6c:	0ff00513          	li	a0,255

0000000000009e70 <.LBB71_840>:
    9e70:	86a43423          	sd	a0,-1944(s0)
    9e74:	87843503          	ld	a0,-1928(s0)
    9e78:	03850533          	mul	a0,a0,s8
    9e7c:	87043583          	ld	a1,-1936(s0)
    9e80:	017585b3          	add	a1,a1,s7
    9e84:	00b50533          	add	a0,a0,a1
    9e88:	42555513          	srai	a0,a0,0x25
    9e8c:	00a025b3          	sgtz	a1,a0
    9e90:	40b005b3          	neg	a1,a1
    9e94:	00a5f533          	and	a0,a1,a0
    9e98:	01954463          	blt	a0,s9,9ea0 <.LBB71_842>
    9e9c:	0ff00513          	li	a0,255

0000000000009ea0 <.LBB71_842>:
    9ea0:	86a43c23          	sd	a0,-1928(s0)
    9ea4:	88843503          	ld	a0,-1912(s0)
    9ea8:	03850533          	mul	a0,a0,s8
    9eac:	88043583          	ld	a1,-1920(s0)
    9eb0:	017585b3          	add	a1,a1,s7
    9eb4:	00b50533          	add	a0,a0,a1
    9eb8:	42555513          	srai	a0,a0,0x25
    9ebc:	00a025b3          	sgtz	a1,a0
    9ec0:	40b005b3          	neg	a1,a1
    9ec4:	00a5f533          	and	a0,a1,a0
    9ec8:	01954463          	blt	a0,s9,9ed0 <.LBB71_844>
    9ecc:	0ff00513          	li	a0,255

0000000000009ed0 <.LBB71_844>:
    9ed0:	88a43423          	sd	a0,-1912(s0)
    9ed4:	8a043503          	ld	a0,-1888(s0)
    9ed8:	03850533          	mul	a0,a0,s8
    9edc:	89043583          	ld	a1,-1904(s0)
    9ee0:	017585b3          	add	a1,a1,s7
    9ee4:	00b50533          	add	a0,a0,a1
    9ee8:	42555513          	srai	a0,a0,0x25
    9eec:	00a025b3          	sgtz	a1,a0
    9ef0:	40b005b3          	neg	a1,a1
    9ef4:	00a5f533          	and	a0,a1,a0
    9ef8:	01954463          	blt	a0,s9,9f00 <.LBB71_846>
    9efc:	0ff00513          	li	a0,255

0000000000009f00 <.LBB71_846>:
    9f00:	8aa43023          	sd	a0,-1888(s0)
    9f04:	8b043503          	ld	a0,-1872(s0)
    9f08:	03850533          	mul	a0,a0,s8
    9f0c:	8a843583          	ld	a1,-1880(s0)
    9f10:	017585b3          	add	a1,a1,s7
    9f14:	00b50533          	add	a0,a0,a1
    9f18:	42555513          	srai	a0,a0,0x25
    9f1c:	00a025b3          	sgtz	a1,a0
    9f20:	40b005b3          	neg	a1,a1
    9f24:	00a5f533          	and	a0,a1,a0
    9f28:	01954463          	blt	a0,s9,9f30 <.LBB71_848>
    9f2c:	0ff00513          	li	a0,255

0000000000009f30 <.LBB71_848>:
    9f30:	8aa43823          	sd	a0,-1872(s0)
    9f34:	8c043503          	ld	a0,-1856(s0)
    9f38:	03850533          	mul	a0,a0,s8
    9f3c:	8b843583          	ld	a1,-1864(s0)
    9f40:	017585b3          	add	a1,a1,s7
    9f44:	00b50533          	add	a0,a0,a1
    9f48:	42555513          	srai	a0,a0,0x25
    9f4c:	00a025b3          	sgtz	a1,a0
    9f50:	40b005b3          	neg	a1,a1
    9f54:	00a5f533          	and	a0,a1,a0
    9f58:	01954463          	blt	a0,s9,9f60 <.LBB71_850>
    9f5c:	0ff00513          	li	a0,255

0000000000009f60 <.LBB71_850>:
    9f60:	8ca43023          	sd	a0,-1856(s0)
    9f64:	8d043503          	ld	a0,-1840(s0)
    9f68:	03850533          	mul	a0,a0,s8
    9f6c:	8c843583          	ld	a1,-1848(s0)
    9f70:	017585b3          	add	a1,a1,s7
    9f74:	00b50533          	add	a0,a0,a1
    9f78:	42555513          	srai	a0,a0,0x25
    9f7c:	00a025b3          	sgtz	a1,a0
    9f80:	40b005b3          	neg	a1,a1
    9f84:	00a5f533          	and	a0,a1,a0
    9f88:	01954463          	blt	a0,s9,9f90 <.LBB71_852>
    9f8c:	0ff00513          	li	a0,255

0000000000009f90 <.LBB71_852>:
    9f90:	8ca43823          	sd	a0,-1840(s0)
    9f94:	8e843503          	ld	a0,-1816(s0)
    9f98:	03850533          	mul	a0,a0,s8
    9f9c:	8e043583          	ld	a1,-1824(s0)
    9fa0:	017585b3          	add	a1,a1,s7
    9fa4:	00b50533          	add	a0,a0,a1
    9fa8:	42555513          	srai	a0,a0,0x25
    9fac:	00a025b3          	sgtz	a1,a0
    9fb0:	40b005b3          	neg	a1,a1
    9fb4:	00a5f533          	and	a0,a1,a0
    9fb8:	01954463          	blt	a0,s9,9fc0 <.LBB71_854>
    9fbc:	0ff00513          	li	a0,255

0000000000009fc0 <.LBB71_854>:
    9fc0:	8ea43423          	sd	a0,-1816(s0)
    9fc4:	8f843503          	ld	a0,-1800(s0)
    9fc8:	03850533          	mul	a0,a0,s8
    9fcc:	8f043583          	ld	a1,-1808(s0)
    9fd0:	017585b3          	add	a1,a1,s7
    9fd4:	00b50533          	add	a0,a0,a1
    9fd8:	42555513          	srai	a0,a0,0x25
    9fdc:	00a025b3          	sgtz	a1,a0
    9fe0:	40b005b3          	neg	a1,a1
    9fe4:	00a5f533          	and	a0,a1,a0
    9fe8:	01954463          	blt	a0,s9,9ff0 <.LBB71_856>
    9fec:	0ff00513          	li	a0,255

0000000000009ff0 <.LBB71_856>:
    9ff0:	8ea43c23          	sd	a0,-1800(s0)
    9ff4:	90843503          	ld	a0,-1784(s0)
    9ff8:	03850533          	mul	a0,a0,s8
    9ffc:	90043583          	ld	a1,-1792(s0)
    a000:	017585b3          	add	a1,a1,s7
    a004:	00b50533          	add	a0,a0,a1
    a008:	42555513          	srai	a0,a0,0x25
    a00c:	00a025b3          	sgtz	a1,a0
    a010:	40b005b3          	neg	a1,a1
    a014:	00a5f533          	and	a0,a1,a0
    a018:	01954463          	blt	a0,s9,a020 <.LBB71_858>
    a01c:	0ff00513          	li	a0,255

000000000000a020 <.LBB71_858>:
    a020:	90a43423          	sd	a0,-1784(s0)
    a024:	91843503          	ld	a0,-1768(s0)
    a028:	03850533          	mul	a0,a0,s8
    a02c:	91043583          	ld	a1,-1776(s0)
    a030:	017585b3          	add	a1,a1,s7
    a034:	00b50533          	add	a0,a0,a1
    a038:	42555513          	srai	a0,a0,0x25
    a03c:	00a025b3          	sgtz	a1,a0
    a040:	40b005b3          	neg	a1,a1
    a044:	00a5f533          	and	a0,a1,a0
    a048:	01954463          	blt	a0,s9,a050 <.LBB71_860>
    a04c:	0ff00513          	li	a0,255

000000000000a050 <.LBB71_860>:
    a050:	90a43c23          	sd	a0,-1768(s0)
    a054:	93043503          	ld	a0,-1744(s0)
    a058:	03850533          	mul	a0,a0,s8
    a05c:	92843583          	ld	a1,-1752(s0)
    a060:	017585b3          	add	a1,a1,s7
    a064:	00b50533          	add	a0,a0,a1
    a068:	42555513          	srai	a0,a0,0x25
    a06c:	00a025b3          	sgtz	a1,a0
    a070:	40b005b3          	neg	a1,a1
    a074:	00a5f533          	and	a0,a1,a0
    a078:	01954463          	blt	a0,s9,a080 <.LBB71_862>
    a07c:	0ff00513          	li	a0,255

000000000000a080 <.LBB71_862>:
    a080:	92a43823          	sd	a0,-1744(s0)
    a084:	94043503          	ld	a0,-1728(s0)
    a088:	03850533          	mul	a0,a0,s8
    a08c:	93843583          	ld	a1,-1736(s0)
    a090:	017585b3          	add	a1,a1,s7
    a094:	00b50533          	add	a0,a0,a1
    a098:	42555513          	srai	a0,a0,0x25
    a09c:	00a025b3          	sgtz	a1,a0
    a0a0:	40b005b3          	neg	a1,a1
    a0a4:	00a5f533          	and	a0,a1,a0
    a0a8:	01954463          	blt	a0,s9,a0b0 <.LBB71_864>
    a0ac:	0ff00513          	li	a0,255

000000000000a0b0 <.LBB71_864>:
    a0b0:	94a43023          	sd	a0,-1728(s0)
    a0b4:	95043503          	ld	a0,-1712(s0)
    a0b8:	03850533          	mul	a0,a0,s8
    a0bc:	94843583          	ld	a1,-1720(s0)
    a0c0:	017585b3          	add	a1,a1,s7
    a0c4:	00b50533          	add	a0,a0,a1
    a0c8:	42555513          	srai	a0,a0,0x25
    a0cc:	00a025b3          	sgtz	a1,a0
    a0d0:	40b005b3          	neg	a1,a1
    a0d4:	00a5f533          	and	a0,a1,a0
    a0d8:	01954463          	blt	a0,s9,a0e0 <.LBB71_866>
    a0dc:	0ff00513          	li	a0,255

000000000000a0e0 <.LBB71_866>:
    a0e0:	94a43823          	sd	a0,-1712(s0)
    a0e4:	96843503          	ld	a0,-1688(s0)
    a0e8:	03850533          	mul	a0,a0,s8
    a0ec:	95843583          	ld	a1,-1704(s0)
    a0f0:	017585b3          	add	a1,a1,s7
    a0f4:	00b50533          	add	a0,a0,a1
    a0f8:	42555513          	srai	a0,a0,0x25
    a0fc:	00a025b3          	sgtz	a1,a0
    a100:	40b005b3          	neg	a1,a1
    a104:	00a5f533          	and	a0,a1,a0
    a108:	01954463          	blt	a0,s9,a110 <.LBB71_868>
    a10c:	0ff00513          	li	a0,255

000000000000a110 <.LBB71_868>:
    a110:	96a43423          	sd	a0,-1688(s0)
    a114:	97843503          	ld	a0,-1672(s0)
    a118:	03850533          	mul	a0,a0,s8
    a11c:	97043583          	ld	a1,-1680(s0)
    a120:	017585b3          	add	a1,a1,s7
    a124:	00b50533          	add	a0,a0,a1
    a128:	42555513          	srai	a0,a0,0x25
    a12c:	00a025b3          	sgtz	a1,a0
    a130:	40b005b3          	neg	a1,a1
    a134:	00a5f533          	and	a0,a1,a0
    a138:	01954463          	blt	a0,s9,a140 <.LBB71_870>
    a13c:	0ff00513          	li	a0,255

000000000000a140 <.LBB71_870>:
    a140:	96a43c23          	sd	a0,-1672(s0)
    a144:	98843503          	ld	a0,-1656(s0)
    a148:	03850533          	mul	a0,a0,s8
    a14c:	98043583          	ld	a1,-1664(s0)
    a150:	017585b3          	add	a1,a1,s7
    a154:	00b50533          	add	a0,a0,a1
    a158:	42555513          	srai	a0,a0,0x25
    a15c:	00a025b3          	sgtz	a1,a0
    a160:	40b005b3          	neg	a1,a1
    a164:	00a5f533          	and	a0,a1,a0
    a168:	01954463          	blt	a0,s9,a170 <.LBB71_872>
    a16c:	0ff00513          	li	a0,255

000000000000a170 <.LBB71_872>:
    a170:	98a43423          	sd	a0,-1656(s0)
    a174:	99843503          	ld	a0,-1640(s0)
    a178:	03850533          	mul	a0,a0,s8
    a17c:	99043583          	ld	a1,-1648(s0)
    a180:	017585b3          	add	a1,a1,s7
    a184:	00b50533          	add	a0,a0,a1
    a188:	42555513          	srai	a0,a0,0x25
    a18c:	00a025b3          	sgtz	a1,a0
    a190:	40b005b3          	neg	a1,a1
    a194:	00a5f533          	and	a0,a1,a0
    a198:	01954463          	blt	a0,s9,a1a0 <.LBB71_874>
    a19c:	0ff00513          	li	a0,255

000000000000a1a0 <.LBB71_874>:
    a1a0:	98a43c23          	sd	a0,-1640(s0)
    a1a4:	9b043503          	ld	a0,-1616(s0)
    a1a8:	03850533          	mul	a0,a0,s8
    a1ac:	9a843583          	ld	a1,-1624(s0)
    a1b0:	017585b3          	add	a1,a1,s7
    a1b4:	00b50533          	add	a0,a0,a1
    a1b8:	42555513          	srai	a0,a0,0x25
    a1bc:	00a025b3          	sgtz	a1,a0
    a1c0:	40b005b3          	neg	a1,a1
    a1c4:	00a5f533          	and	a0,a1,a0
    a1c8:	01954463          	blt	a0,s9,a1d0 <.LBB71_876>
    a1cc:	0ff00513          	li	a0,255

000000000000a1d0 <.LBB71_876>:
    a1d0:	9aa43823          	sd	a0,-1616(s0)
    a1d4:	9c043503          	ld	a0,-1600(s0)
    a1d8:	03850533          	mul	a0,a0,s8
    a1dc:	9b843583          	ld	a1,-1608(s0)
    a1e0:	017585b3          	add	a1,a1,s7
    a1e4:	00b50533          	add	a0,a0,a1
    a1e8:	42555513          	srai	a0,a0,0x25
    a1ec:	00a025b3          	sgtz	a1,a0
    a1f0:	40b005b3          	neg	a1,a1
    a1f4:	00a5f533          	and	a0,a1,a0
    a1f8:	01954463          	blt	a0,s9,a200 <.LBB71_878>
    a1fc:	0ff00513          	li	a0,255

000000000000a200 <.LBB71_878>:
    a200:	9ca43023          	sd	a0,-1600(s0)
    a204:	9d043503          	ld	a0,-1584(s0)
    a208:	03850533          	mul	a0,a0,s8
    a20c:	9c843583          	ld	a1,-1592(s0)
    a210:	017585b3          	add	a1,a1,s7
    a214:	00b50533          	add	a0,a0,a1
    a218:	42555513          	srai	a0,a0,0x25
    a21c:	00a025b3          	sgtz	a1,a0
    a220:	40b005b3          	neg	a1,a1
    a224:	00a5f533          	and	a0,a1,a0
    a228:	01954463          	blt	a0,s9,a230 <.LBB71_880>
    a22c:	0ff00513          	li	a0,255

000000000000a230 <.LBB71_880>:
    a230:	9ca43823          	sd	a0,-1584(s0)
    a234:	9e043503          	ld	a0,-1568(s0)
    a238:	03850533          	mul	a0,a0,s8
    a23c:	9d843583          	ld	a1,-1576(s0)
    a240:	017585b3          	add	a1,a1,s7
    a244:	00b50533          	add	a0,a0,a1
    a248:	42555513          	srai	a0,a0,0x25
    a24c:	00a025b3          	sgtz	a1,a0
    a250:	40b005b3          	neg	a1,a1
    a254:	00a5f533          	and	a0,a1,a0
    a258:	01954463          	blt	a0,s9,a260 <.LBB71_882>
    a25c:	0ff00513          	li	a0,255

000000000000a260 <.LBB71_882>:
    a260:	9ea43023          	sd	a0,-1568(s0)
    a264:	9f843503          	ld	a0,-1544(s0)
    a268:	03850533          	mul	a0,a0,s8
    a26c:	9f043583          	ld	a1,-1552(s0)
    a270:	017585b3          	add	a1,a1,s7
    a274:	00b50533          	add	a0,a0,a1
    a278:	42555513          	srai	a0,a0,0x25
    a27c:	00a025b3          	sgtz	a1,a0
    a280:	40b005b3          	neg	a1,a1
    a284:	00a5f533          	and	a0,a1,a0
    a288:	01954463          	blt	a0,s9,a290 <.LBB71_884>
    a28c:	0ff00513          	li	a0,255

000000000000a290 <.LBB71_884>:
    a290:	9ea43c23          	sd	a0,-1544(s0)
    a294:	a0843503          	ld	a0,-1528(s0)
    a298:	03850533          	mul	a0,a0,s8
    a29c:	a0043583          	ld	a1,-1536(s0)
    a2a0:	017585b3          	add	a1,a1,s7
    a2a4:	00b50533          	add	a0,a0,a1
    a2a8:	42555513          	srai	a0,a0,0x25
    a2ac:	00a025b3          	sgtz	a1,a0
    a2b0:	40b005b3          	neg	a1,a1
    a2b4:	00a5f533          	and	a0,a1,a0
    a2b8:	01954463          	blt	a0,s9,a2c0 <.LBB71_886>
    a2bc:	0ff00513          	li	a0,255

000000000000a2c0 <.LBB71_886>:
    a2c0:	a0a43423          	sd	a0,-1528(s0)
    a2c4:	a1843503          	ld	a0,-1512(s0)
    a2c8:	03850533          	mul	a0,a0,s8
    a2cc:	a1043583          	ld	a1,-1520(s0)
    a2d0:	017585b3          	add	a1,a1,s7
    a2d4:	00b50533          	add	a0,a0,a1
    a2d8:	42555513          	srai	a0,a0,0x25
    a2dc:	00a025b3          	sgtz	a1,a0
    a2e0:	40b005b3          	neg	a1,a1
    a2e4:	00a5f533          	and	a0,a1,a0
    a2e8:	01954463          	blt	a0,s9,a2f0 <.LBB71_888>
    a2ec:	0ff00513          	li	a0,255

000000000000a2f0 <.LBB71_888>:
    a2f0:	a0a43c23          	sd	a0,-1512(s0)
    a2f4:	a3043503          	ld	a0,-1488(s0)
    a2f8:	03850533          	mul	a0,a0,s8
    a2fc:	a2043583          	ld	a1,-1504(s0)
    a300:	017585b3          	add	a1,a1,s7
    a304:	00b50533          	add	a0,a0,a1
    a308:	42555513          	srai	a0,a0,0x25
    a30c:	00a025b3          	sgtz	a1,a0
    a310:	40b005b3          	neg	a1,a1
    a314:	00a5f533          	and	a0,a1,a0
    a318:	01954463          	blt	a0,s9,a320 <.LBB71_890>
    a31c:	0ff00513          	li	a0,255

000000000000a320 <.LBB71_890>:
    a320:	a2a43823          	sd	a0,-1488(s0)
    a324:	a4043503          	ld	a0,-1472(s0)
    a328:	03850533          	mul	a0,a0,s8
    a32c:	a3843583          	ld	a1,-1480(s0)
    a330:	017585b3          	add	a1,a1,s7
    a334:	00b50533          	add	a0,a0,a1
    a338:	42555513          	srai	a0,a0,0x25
    a33c:	00a025b3          	sgtz	a1,a0
    a340:	40b005b3          	neg	a1,a1
    a344:	00a5f533          	and	a0,a1,a0
    a348:	01954463          	blt	a0,s9,a350 <.LBB71_892>
    a34c:	0ff00513          	li	a0,255

000000000000a350 <.LBB71_892>:
    a350:	a4a43023          	sd	a0,-1472(s0)
    a354:	a5043503          	ld	a0,-1456(s0)
    a358:	03850533          	mul	a0,a0,s8
    a35c:	a4843583          	ld	a1,-1464(s0)
    a360:	017585b3          	add	a1,a1,s7
    a364:	00b50533          	add	a0,a0,a1
    a368:	42555513          	srai	a0,a0,0x25
    a36c:	00a025b3          	sgtz	a1,a0
    a370:	40b005b3          	neg	a1,a1
    a374:	00a5f533          	and	a0,a1,a0
    a378:	01954463          	blt	a0,s9,a380 <.LBB71_894>
    a37c:	0ff00513          	li	a0,255

000000000000a380 <.LBB71_894>:
    a380:	a4a43823          	sd	a0,-1456(s0)
    a384:	a6043503          	ld	a0,-1440(s0)
    a388:	03850533          	mul	a0,a0,s8
    a38c:	a5843583          	ld	a1,-1448(s0)
    a390:	017585b3          	add	a1,a1,s7
    a394:	00b50533          	add	a0,a0,a1
    a398:	42555513          	srai	a0,a0,0x25
    a39c:	00a025b3          	sgtz	a1,a0
    a3a0:	40b005b3          	neg	a1,a1
    a3a4:	00a5f533          	and	a0,a1,a0
    a3a8:	01954463          	blt	a0,s9,a3b0 <.LBB71_896>
    a3ac:	0ff00513          	li	a0,255

000000000000a3b0 <.LBB71_896>:
    a3b0:	a6a43023          	sd	a0,-1440(s0)
    a3b4:	a7843503          	ld	a0,-1416(s0)
    a3b8:	03850533          	mul	a0,a0,s8
    a3bc:	a7043583          	ld	a1,-1424(s0)
    a3c0:	017585b3          	add	a1,a1,s7
    a3c4:	00b50533          	add	a0,a0,a1
    a3c8:	42555513          	srai	a0,a0,0x25
    a3cc:	00a025b3          	sgtz	a1,a0
    a3d0:	40b005b3          	neg	a1,a1
    a3d4:	00a5f533          	and	a0,a1,a0
    a3d8:	01954463          	blt	a0,s9,a3e0 <.LBB71_898>
    a3dc:	0ff00513          	li	a0,255

000000000000a3e0 <.LBB71_898>:
    a3e0:	a6a43c23          	sd	a0,-1416(s0)
    a3e4:	a8843503          	ld	a0,-1400(s0)
    a3e8:	03850533          	mul	a0,a0,s8
    a3ec:	a8043583          	ld	a1,-1408(s0)
    a3f0:	017585b3          	add	a1,a1,s7
    a3f4:	00b50533          	add	a0,a0,a1
    a3f8:	42555513          	srai	a0,a0,0x25
    a3fc:	00a025b3          	sgtz	a1,a0
    a400:	40b005b3          	neg	a1,a1
    a404:	00a5f533          	and	a0,a1,a0
    a408:	01954463          	blt	a0,s9,a410 <.LBB71_900>
    a40c:	0ff00513          	li	a0,255

000000000000a410 <.LBB71_900>:
    a410:	a8a43423          	sd	a0,-1400(s0)
    a414:	a9843503          	ld	a0,-1384(s0)
    a418:	03850533          	mul	a0,a0,s8
    a41c:	a9043583          	ld	a1,-1392(s0)
    a420:	017585b3          	add	a1,a1,s7
    a424:	00b50533          	add	a0,a0,a1
    a428:	42555513          	srai	a0,a0,0x25
    a42c:	00a025b3          	sgtz	a1,a0
    a430:	40b005b3          	neg	a1,a1
    a434:	00a5f533          	and	a0,a1,a0
    a438:	01954463          	blt	a0,s9,a440 <.LBB71_902>
    a43c:	0ff00513          	li	a0,255

000000000000a440 <.LBB71_902>:
    a440:	a8a43c23          	sd	a0,-1384(s0)
    a444:	aa843503          	ld	a0,-1368(s0)
    a448:	03850533          	mul	a0,a0,s8
    a44c:	aa043583          	ld	a1,-1376(s0)
    a450:	017585b3          	add	a1,a1,s7
    a454:	00b50533          	add	a0,a0,a1
    a458:	42555513          	srai	a0,a0,0x25
    a45c:	00a025b3          	sgtz	a1,a0
    a460:	40b005b3          	neg	a1,a1
    a464:	00a5f533          	and	a0,a1,a0
    a468:	01954463          	blt	a0,s9,a470 <.LBB71_904>
    a46c:	0ff00513          	li	a0,255

000000000000a470 <.LBB71_904>:
    a470:	aaa43423          	sd	a0,-1368(s0)
    a474:	ac043503          	ld	a0,-1344(s0)
    a478:	03850533          	mul	a0,a0,s8
    a47c:	ab843583          	ld	a1,-1352(s0)
    a480:	017585b3          	add	a1,a1,s7
    a484:	00b50533          	add	a0,a0,a1
    a488:	42555513          	srai	a0,a0,0x25
    a48c:	00a025b3          	sgtz	a1,a0
    a490:	40b005b3          	neg	a1,a1
    a494:	00a5f533          	and	a0,a1,a0
    a498:	01954463          	blt	a0,s9,a4a0 <.LBB71_906>
    a49c:	0ff00513          	li	a0,255

000000000000a4a0 <.LBB71_906>:
    a4a0:	aca43023          	sd	a0,-1344(s0)
    a4a4:	ad043503          	ld	a0,-1328(s0)
    a4a8:	03850533          	mul	a0,a0,s8
    a4ac:	ac843583          	ld	a1,-1336(s0)
    a4b0:	017585b3          	add	a1,a1,s7
    a4b4:	00b50533          	add	a0,a0,a1
    a4b8:	42555513          	srai	a0,a0,0x25
    a4bc:	00a025b3          	sgtz	a1,a0
    a4c0:	40b005b3          	neg	a1,a1
    a4c4:	00a5f533          	and	a0,a1,a0
    a4c8:	01954463          	blt	a0,s9,a4d0 <.LBB71_908>
    a4cc:	0ff00513          	li	a0,255

000000000000a4d0 <.LBB71_908>:
    a4d0:	aca43823          	sd	a0,-1328(s0)
    a4d4:	ae043503          	ld	a0,-1312(s0)
    a4d8:	03850533          	mul	a0,a0,s8
    a4dc:	ad843583          	ld	a1,-1320(s0)
    a4e0:	017585b3          	add	a1,a1,s7
    a4e4:	00b50533          	add	a0,a0,a1
    a4e8:	42555513          	srai	a0,a0,0x25
    a4ec:	00a025b3          	sgtz	a1,a0
    a4f0:	40b005b3          	neg	a1,a1
    a4f4:	00a5f533          	and	a0,a1,a0
    a4f8:	01954463          	blt	a0,s9,a500 <.LBB71_910>
    a4fc:	0ff00513          	li	a0,255

000000000000a500 <.LBB71_910>:
    a500:	aea43023          	sd	a0,-1312(s0)
    a504:	af043503          	ld	a0,-1296(s0)
    a508:	03850533          	mul	a0,a0,s8
    a50c:	ae843583          	ld	a1,-1304(s0)
    a510:	017585b3          	add	a1,a1,s7
    a514:	00b50533          	add	a0,a0,a1
    a518:	42555513          	srai	a0,a0,0x25
    a51c:	00a025b3          	sgtz	a1,a0
    a520:	40b005b3          	neg	a1,a1
    a524:	00a5f533          	and	a0,a1,a0
    a528:	01954463          	blt	a0,s9,a530 <.LBB71_912>
    a52c:	0ff00513          	li	a0,255

000000000000a530 <.LBB71_912>:
    a530:	aea43823          	sd	a0,-1296(s0)
    a534:	b0843503          	ld	a0,-1272(s0)
    a538:	03850533          	mul	a0,a0,s8
    a53c:	b0043583          	ld	a1,-1280(s0)
    a540:	017585b3          	add	a1,a1,s7
    a544:	00b50533          	add	a0,a0,a1
    a548:	42555513          	srai	a0,a0,0x25
    a54c:	00a025b3          	sgtz	a1,a0
    a550:	40b005b3          	neg	a1,a1
    a554:	00a5f533          	and	a0,a1,a0
    a558:	01954463          	blt	a0,s9,a560 <.LBB71_914>
    a55c:	0ff00513          	li	a0,255

000000000000a560 <.LBB71_914>:
    a560:	b0a43423          	sd	a0,-1272(s0)
    a564:	b1843503          	ld	a0,-1256(s0)
    a568:	03850533          	mul	a0,a0,s8
    a56c:	b1043583          	ld	a1,-1264(s0)
    a570:	017585b3          	add	a1,a1,s7
    a574:	00b50533          	add	a0,a0,a1
    a578:	42555513          	srai	a0,a0,0x25
    a57c:	00a025b3          	sgtz	a1,a0
    a580:	40b005b3          	neg	a1,a1
    a584:	00a5f533          	and	a0,a1,a0
    a588:	01954463          	blt	a0,s9,a590 <.LBB71_916>
    a58c:	0ff00513          	li	a0,255

000000000000a590 <.LBB71_916>:
    a590:	b0a43c23          	sd	a0,-1256(s0)
    a594:	b2843503          	ld	a0,-1240(s0)
    a598:	03850533          	mul	a0,a0,s8
    a59c:	b2043583          	ld	a1,-1248(s0)
    a5a0:	017585b3          	add	a1,a1,s7
    a5a4:	00b50533          	add	a0,a0,a1
    a5a8:	42555513          	srai	a0,a0,0x25
    a5ac:	00a025b3          	sgtz	a1,a0
    a5b0:	40b005b3          	neg	a1,a1
    a5b4:	00a5f533          	and	a0,a1,a0
    a5b8:	01954463          	blt	a0,s9,a5c0 <.LBB71_918>
    a5bc:	0ff00513          	li	a0,255

000000000000a5c0 <.LBB71_918>:
    a5c0:	b2a43423          	sd	a0,-1240(s0)
    a5c4:	b4043503          	ld	a0,-1216(s0)
    a5c8:	03850533          	mul	a0,a0,s8
    a5cc:	b3043583          	ld	a1,-1232(s0)
    a5d0:	017585b3          	add	a1,a1,s7
    a5d4:	00b50533          	add	a0,a0,a1
    a5d8:	42555513          	srai	a0,a0,0x25
    a5dc:	00a025b3          	sgtz	a1,a0
    a5e0:	40b005b3          	neg	a1,a1
    a5e4:	00a5f533          	and	a0,a1,a0
    a5e8:	01954463          	blt	a0,s9,a5f0 <.LBB71_920>
    a5ec:	0ff00513          	li	a0,255

000000000000a5f0 <.LBB71_920>:
    a5f0:	b4a43023          	sd	a0,-1216(s0)
    a5f4:	b5043503          	ld	a0,-1200(s0)
    a5f8:	03850533          	mul	a0,a0,s8
    a5fc:	b4843583          	ld	a1,-1208(s0)
    a600:	017585b3          	add	a1,a1,s7
    a604:	00b50533          	add	a0,a0,a1
    a608:	42555513          	srai	a0,a0,0x25
    a60c:	00a025b3          	sgtz	a1,a0
    a610:	40b005b3          	neg	a1,a1
    a614:	00a5f533          	and	a0,a1,a0
    a618:	01954463          	blt	a0,s9,a620 <.LBB71_922>
    a61c:	0ff00513          	li	a0,255

000000000000a620 <.LBB71_922>:
    a620:	b4a43823          	sd	a0,-1200(s0)
    a624:	b6043503          	ld	a0,-1184(s0)
    a628:	03850533          	mul	a0,a0,s8
    a62c:	b5843583          	ld	a1,-1192(s0)
    a630:	017585b3          	add	a1,a1,s7
    a634:	00b50533          	add	a0,a0,a1
    a638:	42555513          	srai	a0,a0,0x25
    a63c:	00a025b3          	sgtz	a1,a0
    a640:	40b005b3          	neg	a1,a1
    a644:	00a5f533          	and	a0,a1,a0
    a648:	01954463          	blt	a0,s9,a650 <.LBB71_924>
    a64c:	0ff00513          	li	a0,255

000000000000a650 <.LBB71_924>:
    a650:	b6a43023          	sd	a0,-1184(s0)
    a654:	b7043503          	ld	a0,-1168(s0)
    a658:	03850533          	mul	a0,a0,s8
    a65c:	b6843583          	ld	a1,-1176(s0)
    a660:	017585b3          	add	a1,a1,s7
    a664:	00b50533          	add	a0,a0,a1
    a668:	42555513          	srai	a0,a0,0x25
    a66c:	00a025b3          	sgtz	a1,a0
    a670:	40b005b3          	neg	a1,a1
    a674:	00a5f533          	and	a0,a1,a0
    a678:	01954463          	blt	a0,s9,a680 <.LBB71_926>
    a67c:	0ff00513          	li	a0,255

000000000000a680 <.LBB71_926>:
    a680:	b6a43823          	sd	a0,-1168(s0)
    a684:	b8043503          	ld	a0,-1152(s0)
    a688:	03850533          	mul	a0,a0,s8
    a68c:	b7843583          	ld	a1,-1160(s0)
    a690:	017585b3          	add	a1,a1,s7
    a694:	00b50533          	add	a0,a0,a1
    a698:	42555513          	srai	a0,a0,0x25
    a69c:	00a025b3          	sgtz	a1,a0
    a6a0:	40b005b3          	neg	a1,a1
    a6a4:	00a5f533          	and	a0,a1,a0
    a6a8:	01954463          	blt	a0,s9,a6b0 <.LBB71_928>
    a6ac:	0ff00513          	li	a0,255

000000000000a6b0 <.LBB71_928>:
    a6b0:	b8a43023          	sd	a0,-1152(s0)
    a6b4:	b9043503          	ld	a0,-1136(s0)
    a6b8:	03850533          	mul	a0,a0,s8
    a6bc:	b8843583          	ld	a1,-1144(s0)
    a6c0:	017585b3          	add	a1,a1,s7
    a6c4:	00b50533          	add	a0,a0,a1
    a6c8:	42555513          	srai	a0,a0,0x25
    a6cc:	00a025b3          	sgtz	a1,a0
    a6d0:	40b005b3          	neg	a1,a1
    a6d4:	00a5f533          	and	a0,a1,a0
    a6d8:	01954463          	blt	a0,s9,a6e0 <.LBB71_930>
    a6dc:	0ff00513          	li	a0,255

000000000000a6e0 <.LBB71_930>:
    a6e0:	b8a43823          	sd	a0,-1136(s0)
    a6e4:	ba043503          	ld	a0,-1120(s0)
    a6e8:	03850533          	mul	a0,a0,s8
    a6ec:	b9843583          	ld	a1,-1128(s0)
    a6f0:	017585b3          	add	a1,a1,s7
    a6f4:	00b50533          	add	a0,a0,a1
    a6f8:	42555513          	srai	a0,a0,0x25
    a6fc:	00a025b3          	sgtz	a1,a0
    a700:	40b005b3          	neg	a1,a1
    a704:	00a5f533          	and	a0,a1,a0
    a708:	01954463          	blt	a0,s9,a710 <.LBB71_932>
    a70c:	0ff00513          	li	a0,255

000000000000a710 <.LBB71_932>:
    a710:	baa43023          	sd	a0,-1120(s0)
    a714:	bb043503          	ld	a0,-1104(s0)
    a718:	03850533          	mul	a0,a0,s8
    a71c:	ba843583          	ld	a1,-1112(s0)
    a720:	017585b3          	add	a1,a1,s7
    a724:	00b50533          	add	a0,a0,a1
    a728:	42555513          	srai	a0,a0,0x25
    a72c:	00a025b3          	sgtz	a1,a0
    a730:	40b005b3          	neg	a1,a1
    a734:	00a5f533          	and	a0,a1,a0
    a738:	01954463          	blt	a0,s9,a740 <.LBB71_934>
    a73c:	0ff00513          	li	a0,255

000000000000a740 <.LBB71_934>:
    a740:	baa43823          	sd	a0,-1104(s0)
    a744:	bc043503          	ld	a0,-1088(s0)
    a748:	03850533          	mul	a0,a0,s8
    a74c:	bb843583          	ld	a1,-1096(s0)
    a750:	017585b3          	add	a1,a1,s7
    a754:	00b50533          	add	a0,a0,a1
    a758:	42555513          	srai	a0,a0,0x25
    a75c:	00a025b3          	sgtz	a1,a0
    a760:	40b005b3          	neg	a1,a1
    a764:	00a5f533          	and	a0,a1,a0
    a768:	01954463          	blt	a0,s9,a770 <.LBB71_936>
    a76c:	0ff00513          	li	a0,255

000000000000a770 <.LBB71_936>:
    a770:	bca43023          	sd	a0,-1088(s0)
    a774:	bd043503          	ld	a0,-1072(s0)
    a778:	03850533          	mul	a0,a0,s8
    a77c:	bc843583          	ld	a1,-1080(s0)
    a780:	017585b3          	add	a1,a1,s7
    a784:	00b50533          	add	a0,a0,a1
    a788:	42555513          	srai	a0,a0,0x25
    a78c:	00a025b3          	sgtz	a1,a0
    a790:	40b005b3          	neg	a1,a1
    a794:	00a5f533          	and	a0,a1,a0
    a798:	01954463          	blt	a0,s9,a7a0 <.LBB71_938>
    a79c:	0ff00513          	li	a0,255

000000000000a7a0 <.LBB71_938>:
    a7a0:	bca43823          	sd	a0,-1072(s0)
    a7a4:	be843503          	ld	a0,-1048(s0)
    a7a8:	03850533          	mul	a0,a0,s8
    a7ac:	bd843583          	ld	a1,-1064(s0)
    a7b0:	017585b3          	add	a1,a1,s7
    a7b4:	00b50533          	add	a0,a0,a1
    a7b8:	42555513          	srai	a0,a0,0x25
    a7bc:	00a025b3          	sgtz	a1,a0
    a7c0:	40b005b3          	neg	a1,a1
    a7c4:	00a5f533          	and	a0,a1,a0
    a7c8:	01954463          	blt	a0,s9,a7d0 <.LBB71_940>
    a7cc:	0ff00513          	li	a0,255

000000000000a7d0 <.LBB71_940>:
    a7d0:	bea43423          	sd	a0,-1048(s0)
    a7d4:	c0843503          	ld	a0,-1016(s0)
    a7d8:	03850533          	mul	a0,a0,s8
    a7dc:	bf843583          	ld	a1,-1032(s0)
    a7e0:	017585b3          	add	a1,a1,s7
    a7e4:	00b50533          	add	a0,a0,a1
    a7e8:	42555513          	srai	a0,a0,0x25
    a7ec:	00a025b3          	sgtz	a1,a0
    a7f0:	40b005b3          	neg	a1,a1
    a7f4:	00a5f533          	and	a0,a1,a0
    a7f8:	01954463          	blt	a0,s9,a800 <.LBB71_942>
    a7fc:	0ff00513          	li	a0,255

000000000000a800 <.LBB71_942>:
    a800:	c0a43423          	sd	a0,-1016(s0)
    a804:	c1843503          	ld	a0,-1000(s0)
    a808:	03850533          	mul	a0,a0,s8
    a80c:	c1043583          	ld	a1,-1008(s0)
    a810:	017585b3          	add	a1,a1,s7
    a814:	00b50533          	add	a0,a0,a1
    a818:	42555513          	srai	a0,a0,0x25
    a81c:	00a025b3          	sgtz	a1,a0
    a820:	40b005b3          	neg	a1,a1
    a824:	00a5f533          	and	a0,a1,a0
    a828:	01954463          	blt	a0,s9,a830 <.LBB71_944>
    a82c:	0ff00513          	li	a0,255

000000000000a830 <.LBB71_944>:
    a830:	c0a43c23          	sd	a0,-1000(s0)
    a834:	c2843503          	ld	a0,-984(s0)
    a838:	03850533          	mul	a0,a0,s8
    a83c:	c2043583          	ld	a1,-992(s0)
    a840:	017585b3          	add	a1,a1,s7
    a844:	00b50533          	add	a0,a0,a1
    a848:	42555513          	srai	a0,a0,0x25
    a84c:	00a025b3          	sgtz	a1,a0
    a850:	40b005b3          	neg	a1,a1
    a854:	00a5f533          	and	a0,a1,a0
    a858:	01954463          	blt	a0,s9,a860 <.LBB71_946>
    a85c:	0ff00513          	li	a0,255

000000000000a860 <.LBB71_946>:
    a860:	c2a43423          	sd	a0,-984(s0)
    a864:	c3843503          	ld	a0,-968(s0)
    a868:	03850533          	mul	a0,a0,s8
    a86c:	c3043583          	ld	a1,-976(s0)
    a870:	017585b3          	add	a1,a1,s7
    a874:	00b50533          	add	a0,a0,a1
    a878:	42555513          	srai	a0,a0,0x25
    a87c:	00a025b3          	sgtz	a1,a0
    a880:	40b005b3          	neg	a1,a1
    a884:	00a5f533          	and	a0,a1,a0
    a888:	01954463          	blt	a0,s9,a890 <.LBB71_948>
    a88c:	0ff00513          	li	a0,255

000000000000a890 <.LBB71_948>:
    a890:	c2a43c23          	sd	a0,-968(s0)
    a894:	c5043503          	ld	a0,-944(s0)
    a898:	03850533          	mul	a0,a0,s8
    a89c:	c4843583          	ld	a1,-952(s0)
    a8a0:	017585b3          	add	a1,a1,s7
    a8a4:	00b50533          	add	a0,a0,a1
    a8a8:	42555513          	srai	a0,a0,0x25
    a8ac:	00a025b3          	sgtz	a1,a0
    a8b0:	40b005b3          	neg	a1,a1
    a8b4:	00a5f533          	and	a0,a1,a0
    a8b8:	01954463          	blt	a0,s9,a8c0 <.LBB71_950>
    a8bc:	0ff00513          	li	a0,255

000000000000a8c0 <.LBB71_950>:
    a8c0:	c4a43823          	sd	a0,-944(s0)
    a8c4:	c6043503          	ld	a0,-928(s0)
    a8c8:	03850533          	mul	a0,a0,s8
    a8cc:	c5843583          	ld	a1,-936(s0)
    a8d0:	017585b3          	add	a1,a1,s7
    a8d4:	00b50533          	add	a0,a0,a1
    a8d8:	42555513          	srai	a0,a0,0x25
    a8dc:	00a025b3          	sgtz	a1,a0
    a8e0:	40b005b3          	neg	a1,a1
    a8e4:	00a5f533          	and	a0,a1,a0
    a8e8:	01954463          	blt	a0,s9,a8f0 <.LBB71_952>
    a8ec:	0ff00513          	li	a0,255

000000000000a8f0 <.LBB71_952>:
    a8f0:	c6a43023          	sd	a0,-928(s0)
    a8f4:	c7043503          	ld	a0,-912(s0)
    a8f8:	03850533          	mul	a0,a0,s8
    a8fc:	c6843583          	ld	a1,-920(s0)
    a900:	017585b3          	add	a1,a1,s7
    a904:	00b50533          	add	a0,a0,a1
    a908:	42555513          	srai	a0,a0,0x25
    a90c:	00a025b3          	sgtz	a1,a0
    a910:	40b005b3          	neg	a1,a1
    a914:	00a5f533          	and	a0,a1,a0
    a918:	01954463          	blt	a0,s9,a920 <.LBB71_954>
    a91c:	0ff00513          	li	a0,255

000000000000a920 <.LBB71_954>:
    a920:	c6a43823          	sd	a0,-912(s0)
    a924:	c8043503          	ld	a0,-896(s0)
    a928:	03850533          	mul	a0,a0,s8
    a92c:	c7843583          	ld	a1,-904(s0)
    a930:	017585b3          	add	a1,a1,s7
    a934:	00b50533          	add	a0,a0,a1
    a938:	42555513          	srai	a0,a0,0x25
    a93c:	00a025b3          	sgtz	a1,a0
    a940:	40b005b3          	neg	a1,a1
    a944:	00a5f533          	and	a0,a1,a0
    a948:	01954463          	blt	a0,s9,a950 <.LBB71_956>
    a94c:	0ff00513          	li	a0,255

000000000000a950 <.LBB71_956>:
    a950:	c8a43023          	sd	a0,-896(s0)
    a954:	c9843503          	ld	a0,-872(s0)
    a958:	03850533          	mul	a0,a0,s8
    a95c:	c9043583          	ld	a1,-880(s0)
    a960:	017585b3          	add	a1,a1,s7
    a964:	00b50533          	add	a0,a0,a1
    a968:	42555513          	srai	a0,a0,0x25
    a96c:	00a025b3          	sgtz	a1,a0
    a970:	40b005b3          	neg	a1,a1
    a974:	00a5f533          	and	a0,a1,a0
    a978:	01954463          	blt	a0,s9,a980 <.LBB71_958>
    a97c:	0ff00513          	li	a0,255

000000000000a980 <.LBB71_958>:
    a980:	c8a43c23          	sd	a0,-872(s0)
    a984:	ca843503          	ld	a0,-856(s0)
    a988:	03850533          	mul	a0,a0,s8
    a98c:	ca043583          	ld	a1,-864(s0)
    a990:	017585b3          	add	a1,a1,s7
    a994:	00b50533          	add	a0,a0,a1
    a998:	42555513          	srai	a0,a0,0x25
    a99c:	00a025b3          	sgtz	a1,a0
    a9a0:	40b005b3          	neg	a1,a1
    a9a4:	00a5f533          	and	a0,a1,a0
    a9a8:	01954463          	blt	a0,s9,a9b0 <.LBB71_960>
    a9ac:	0ff00513          	li	a0,255

000000000000a9b0 <.LBB71_960>:
    a9b0:	caa43423          	sd	a0,-856(s0)
    a9b4:	cb843503          	ld	a0,-840(s0)
    a9b8:	03850533          	mul	a0,a0,s8
    a9bc:	cb043583          	ld	a1,-848(s0)
    a9c0:	017585b3          	add	a1,a1,s7
    a9c4:	00b50533          	add	a0,a0,a1
    a9c8:	42555513          	srai	a0,a0,0x25
    a9cc:	00a025b3          	sgtz	a1,a0
    a9d0:	40b005b3          	neg	a1,a1
    a9d4:	00a5f533          	and	a0,a1,a0
    a9d8:	01954463          	blt	a0,s9,a9e0 <.LBB71_962>
    a9dc:	0ff00513          	li	a0,255

000000000000a9e0 <.LBB71_962>:
    a9e0:	caa43c23          	sd	a0,-840(s0)
    a9e4:	cd043503          	ld	a0,-816(s0)
    a9e8:	03850533          	mul	a0,a0,s8
    a9ec:	cc843583          	ld	a1,-824(s0)
    a9f0:	017585b3          	add	a1,a1,s7
    a9f4:	00b50533          	add	a0,a0,a1
    a9f8:	42555513          	srai	a0,a0,0x25
    a9fc:	00a025b3          	sgtz	a1,a0
    aa00:	40b005b3          	neg	a1,a1
    aa04:	00a5f533          	and	a0,a1,a0
    aa08:	01954463          	blt	a0,s9,aa10 <.LBB71_964>
    aa0c:	0ff00513          	li	a0,255

000000000000aa10 <.LBB71_964>:
    aa10:	cca43823          	sd	a0,-816(s0)
    aa14:	ce043503          	ld	a0,-800(s0)
    aa18:	03850533          	mul	a0,a0,s8
    aa1c:	cd843583          	ld	a1,-808(s0)
    aa20:	017585b3          	add	a1,a1,s7
    aa24:	00b50533          	add	a0,a0,a1
    aa28:	42555513          	srai	a0,a0,0x25
    aa2c:	00a025b3          	sgtz	a1,a0
    aa30:	40b005b3          	neg	a1,a1
    aa34:	00a5f533          	and	a0,a1,a0
    aa38:	01954463          	blt	a0,s9,aa40 <.LBB71_966>
    aa3c:	0ff00513          	li	a0,255

000000000000aa40 <.LBB71_966>:
    aa40:	cea43023          	sd	a0,-800(s0)
    aa44:	cf043503          	ld	a0,-784(s0)
    aa48:	03850533          	mul	a0,a0,s8
    aa4c:	ce843583          	ld	a1,-792(s0)
    aa50:	017585b3          	add	a1,a1,s7
    aa54:	00b50533          	add	a0,a0,a1
    aa58:	42555513          	srai	a0,a0,0x25
    aa5c:	00a025b3          	sgtz	a1,a0
    aa60:	40b005b3          	neg	a1,a1
    aa64:	00a5f533          	and	a0,a1,a0
    aa68:	01954463          	blt	a0,s9,aa70 <.LBB71_968>
    aa6c:	0ff00513          	li	a0,255

000000000000aa70 <.LBB71_968>:
    aa70:	cea43823          	sd	a0,-784(s0)
    aa74:	d0043503          	ld	a0,-768(s0)
    aa78:	03850533          	mul	a0,a0,s8
    aa7c:	cf843583          	ld	a1,-776(s0)
    aa80:	017585b3          	add	a1,a1,s7
    aa84:	00b50533          	add	a0,a0,a1
    aa88:	42555513          	srai	a0,a0,0x25
    aa8c:	00a025b3          	sgtz	a1,a0
    aa90:	40b005b3          	neg	a1,a1
    aa94:	00a5f533          	and	a0,a1,a0
    aa98:	01954463          	blt	a0,s9,aaa0 <.LBB71_970>
    aa9c:	0ff00513          	li	a0,255

000000000000aaa0 <.LBB71_970>:
    aaa0:	d0a43023          	sd	a0,-768(s0)
    aaa4:	d1843503          	ld	a0,-744(s0)
    aaa8:	03850533          	mul	a0,a0,s8
    aaac:	d1043583          	ld	a1,-752(s0)
    aab0:	017585b3          	add	a1,a1,s7
    aab4:	00b50533          	add	a0,a0,a1
    aab8:	42555513          	srai	a0,a0,0x25
    aabc:	00a025b3          	sgtz	a1,a0
    aac0:	40b005b3          	neg	a1,a1
    aac4:	00a5f533          	and	a0,a1,a0
    aac8:	01954463          	blt	a0,s9,aad0 <.LBB71_972>
    aacc:	0ff00513          	li	a0,255

000000000000aad0 <.LBB71_972>:
    aad0:	d0a43c23          	sd	a0,-744(s0)
    aad4:	d2843503          	ld	a0,-728(s0)
    aad8:	03850533          	mul	a0,a0,s8
    aadc:	d2043583          	ld	a1,-736(s0)
    aae0:	017585b3          	add	a1,a1,s7
    aae4:	00b50533          	add	a0,a0,a1
    aae8:	42555513          	srai	a0,a0,0x25
    aaec:	00a025b3          	sgtz	a1,a0
    aaf0:	40b005b3          	neg	a1,a1
    aaf4:	00a5f533          	and	a0,a1,a0
    aaf8:	01954463          	blt	a0,s9,ab00 <.LBB71_974>
    aafc:	0ff00513          	li	a0,255

000000000000ab00 <.LBB71_974>:
    ab00:	d2a43423          	sd	a0,-728(s0)
    ab04:	d3843503          	ld	a0,-712(s0)
    ab08:	03850533          	mul	a0,a0,s8
    ab0c:	d3043583          	ld	a1,-720(s0)
    ab10:	017585b3          	add	a1,a1,s7
    ab14:	00b50533          	add	a0,a0,a1
    ab18:	42555513          	srai	a0,a0,0x25
    ab1c:	00a025b3          	sgtz	a1,a0
    ab20:	40b005b3          	neg	a1,a1
    ab24:	00a5f533          	and	a0,a1,a0
    ab28:	01954463          	blt	a0,s9,ab30 <.LBB71_976>
    ab2c:	0ff00513          	li	a0,255

000000000000ab30 <.LBB71_976>:
    ab30:	d2a43c23          	sd	a0,-712(s0)
    ab34:	d4843503          	ld	a0,-696(s0)
    ab38:	03850533          	mul	a0,a0,s8
    ab3c:	d4043583          	ld	a1,-704(s0)
    ab40:	017585b3          	add	a1,a1,s7
    ab44:	00b50533          	add	a0,a0,a1
    ab48:	42555513          	srai	a0,a0,0x25
    ab4c:	00a025b3          	sgtz	a1,a0
    ab50:	40b005b3          	neg	a1,a1
    ab54:	00a5f533          	and	a0,a1,a0
    ab58:	01954463          	blt	a0,s9,ab60 <.LBB71_978>
    ab5c:	0ff00513          	li	a0,255

000000000000ab60 <.LBB71_978>:
    ab60:	d4a43423          	sd	a0,-696(s0)
    ab64:	d6043503          	ld	a0,-672(s0)
    ab68:	03850533          	mul	a0,a0,s8
    ab6c:	d5843583          	ld	a1,-680(s0)
    ab70:	017585b3          	add	a1,a1,s7
    ab74:	00b50533          	add	a0,a0,a1
    ab78:	42555513          	srai	a0,a0,0x25
    ab7c:	00a025b3          	sgtz	a1,a0
    ab80:	40b005b3          	neg	a1,a1
    ab84:	00a5f533          	and	a0,a1,a0
    ab88:	01954463          	blt	a0,s9,ab90 <.LBB71_980>
    ab8c:	0ff00513          	li	a0,255

000000000000ab90 <.LBB71_980>:
    ab90:	d6a43023          	sd	a0,-672(s0)
    ab94:	d7043503          	ld	a0,-656(s0)
    ab98:	03850533          	mul	a0,a0,s8
    ab9c:	d6843583          	ld	a1,-664(s0)
    aba0:	017585b3          	add	a1,a1,s7
    aba4:	00b50533          	add	a0,a0,a1
    aba8:	42555513          	srai	a0,a0,0x25
    abac:	00a025b3          	sgtz	a1,a0
    abb0:	40b005b3          	neg	a1,a1
    abb4:	00a5f533          	and	a0,a1,a0
    abb8:	01954463          	blt	a0,s9,abc0 <.LBB71_982>
    abbc:	0ff00513          	li	a0,255

000000000000abc0 <.LBB71_982>:
    abc0:	d6a43823          	sd	a0,-656(s0)
    abc4:	d8043503          	ld	a0,-640(s0)
    abc8:	03850533          	mul	a0,a0,s8
    abcc:	d7843583          	ld	a1,-648(s0)
    abd0:	017585b3          	add	a1,a1,s7
    abd4:	00b50533          	add	a0,a0,a1
    abd8:	42555513          	srai	a0,a0,0x25
    abdc:	00a025b3          	sgtz	a1,a0
    abe0:	40b005b3          	neg	a1,a1
    abe4:	00a5f533          	and	a0,a1,a0
    abe8:	01954463          	blt	a0,s9,abf0 <.LBB71_984>
    abec:	0ff00513          	li	a0,255

000000000000abf0 <.LBB71_984>:
    abf0:	d8a43023          	sd	a0,-640(s0)
    abf4:	d9843503          	ld	a0,-616(s0)
    abf8:	03850533          	mul	a0,a0,s8
    abfc:	d8843583          	ld	a1,-632(s0)
    ac00:	017585b3          	add	a1,a1,s7
    ac04:	00b50533          	add	a0,a0,a1
    ac08:	42555513          	srai	a0,a0,0x25
    ac0c:	00a025b3          	sgtz	a1,a0
    ac10:	40b005b3          	neg	a1,a1
    ac14:	00a5fdb3          	and	s11,a1,a0
    ac18:	019dc463          	blt	s11,s9,ac20 <.LBB71_986>
    ac1c:	0ff00d93          	li	s11,255

000000000000ac20 <.LBB71_986>:
    ac20:	da843503          	ld	a0,-600(s0)
    ac24:	03850533          	mul	a0,a0,s8
    ac28:	da043583          	ld	a1,-608(s0)
    ac2c:	017585b3          	add	a1,a1,s7
    ac30:	00b50533          	add	a0,a0,a1
    ac34:	42555513          	srai	a0,a0,0x25
    ac38:	00a025b3          	sgtz	a1,a0
    ac3c:	40b005b3          	neg	a1,a1
    ac40:	00a5f533          	and	a0,a1,a0
    ac44:	01954463          	blt	a0,s9,ac4c <.LBB71_988>
    ac48:	0ff00513          	li	a0,255

000000000000ac4c <.LBB71_988>:
    ac4c:	00068093          	mv	ra,a3
    ac50:	db843583          	ld	a1,-584(s0)
    ac54:	038585b3          	mul	a1,a1,s8
    ac58:	db043603          	ld	a2,-592(s0)
    ac5c:	01760633          	add	a2,a2,s7
    ac60:	00c585b3          	add	a1,a1,a2
    ac64:	4255d593          	srai	a1,a1,0x25
    ac68:	00b02633          	sgtz	a2,a1
    ac6c:	40c00633          	neg	a2,a2
    ac70:	00b675b3          	and	a1,a2,a1
    ac74:	0195c463          	blt	a1,s9,ac7c <.LBB71_990>
    ac78:	0ff00593          	li	a1,255

000000000000ac7c <.LBB71_990>:
    ac7c:	dc843603          	ld	a2,-568(s0)
    ac80:	03860633          	mul	a2,a2,s8
    ac84:	dc043683          	ld	a3,-576(s0)
    ac88:	017686b3          	add	a3,a3,s7
    ac8c:	00d60633          	add	a2,a2,a3
    ac90:	42565613          	srai	a2,a2,0x25
    ac94:	00c026b3          	sgtz	a3,a2
    ac98:	40d006b3          	neg	a3,a3
    ac9c:	00c6f633          	and	a2,a3,a2
    aca0:	01964463          	blt	a2,s9,aca8 <.LBB71_992>
    aca4:	0ff00613          	li	a2,255

000000000000aca8 <.LBB71_992>:
    aca8:	de043683          	ld	a3,-544(s0)
    acac:	038686b3          	mul	a3,a3,s8
    acb0:	dd843703          	ld	a4,-552(s0)
    acb4:	01770733          	add	a4,a4,s7
    acb8:	00e686b3          	add	a3,a3,a4
    acbc:	4256d693          	srai	a3,a3,0x25
    acc0:	00d02733          	sgtz	a4,a3
    acc4:	40e00733          	neg	a4,a4
    acc8:	00d776b3          	and	a3,a4,a3
    accc:	0196c463          	blt	a3,s9,acd4 <.LBB71_994>
    acd0:	0ff00693          	li	a3,255

000000000000acd4 <.LBB71_994>:
    acd4:	03878733          	mul	a4,a5,s8
    acd8:	de843783          	ld	a5,-536(s0)
    acdc:	017787b3          	add	a5,a5,s7
    ace0:	00f70733          	add	a4,a4,a5
    ace4:	42575713          	srai	a4,a4,0x25
    ace8:	00e027b3          	sgtz	a5,a4
    acec:	40f007b3          	neg	a5,a5
    acf0:	00e7f733          	and	a4,a5,a4
    acf4:	01974463          	blt	a4,s9,acfc <.LBB71_996>
    acf8:	0ff00713          	li	a4,255

000000000000acfc <.LBB71_996>:
    acfc:	038807b3          	mul	a5,a6,s8
    ad00:	df043803          	ld	a6,-528(s0)
    ad04:	01780833          	add	a6,a6,s7
    ad08:	010787b3          	add	a5,a5,a6
    ad0c:	4257d793          	srai	a5,a5,0x25
    ad10:	00f02833          	sgtz	a6,a5
    ad14:	41000833          	neg	a6,a6
    ad18:	00f877b3          	and	a5,a6,a5
    ad1c:	0197c463          	blt	a5,s9,ad24 <.LBB71_998>
    ad20:	0ff00793          	li	a5,255

000000000000ad24 <.LBB71_998>:
    ad24:	03888833          	mul	a6,a7,s8
    ad28:	df843883          	ld	a7,-520(s0)
    ad2c:	017888b3          	add	a7,a7,s7
    ad30:	01180833          	add	a6,a6,a7
    ad34:	42585813          	srai	a6,a6,0x25
    ad38:	010028b3          	sgtz	a7,a6
    ad3c:	411008b3          	neg	a7,a7
    ad40:	0108f833          	and	a6,a7,a6
    ad44:	01984463          	blt	a6,s9,ad4c <.LBB71_1000>
    ad48:	0ff00813          	li	a6,255

000000000000ad4c <.LBB71_1000>:
    ad4c:	038288b3          	mul	a7,t0,s8
    ad50:	e0843283          	ld	t0,-504(s0)
    ad54:	017282b3          	add	t0,t0,s7
    ad58:	005888b3          	add	a7,a7,t0
    ad5c:	4258d893          	srai	a7,a7,0x25
    ad60:	011022b3          	sgtz	t0,a7
    ad64:	405002b3          	neg	t0,t0
    ad68:	0112f8b3          	and	a7,t0,a7
    ad6c:	0198c463          	blt	a7,s9,ad74 <.LBB71_1002>
    ad70:	0ff00893          	li	a7,255

000000000000ad74 <.LBB71_1002>:
    ad74:	e1843283          	ld	t0,-488(s0)
    ad78:	038282b3          	mul	t0,t0,s8
    ad7c:	e1043303          	ld	t1,-496(s0)
    ad80:	01730333          	add	t1,t1,s7
    ad84:	006282b3          	add	t0,t0,t1
    ad88:	4252d293          	srai	t0,t0,0x25
    ad8c:	00502333          	sgtz	t1,t0
    ad90:	40600333          	neg	t1,t1
    ad94:	005372b3          	and	t0,t1,t0
    ad98:	0192c463          	blt	t0,s9,ada0 <.LBB71_1004>
    ad9c:	0ff00293          	li	t0,255

000000000000ada0 <.LBB71_1004>:
    ada0:	e2843303          	ld	t1,-472(s0)
    ada4:	03830333          	mul	t1,t1,s8
    ada8:	e2043383          	ld	t2,-480(s0)
    adac:	017383b3          	add	t2,t2,s7
    adb0:	00730333          	add	t1,t1,t2
    adb4:	42535313          	srai	t1,t1,0x25
    adb8:	006023b3          	sgtz	t2,t1
    adbc:	407003b3          	neg	t2,t2
    adc0:	0063f333          	and	t1,t2,t1
    adc4:	01934463          	blt	t1,s9,adcc <.LBB71_1006>
    adc8:	0ff00313          	li	t1,255

000000000000adcc <.LBB71_1006>:
    adcc:	e4043383          	ld	t2,-448(s0)
    add0:	038383b3          	mul	t2,t2,s8
    add4:	e3043e03          	ld	t3,-464(s0)
    add8:	017e0e33          	add	t3,t3,s7
    addc:	01c383b3          	add	t2,t2,t3
    ade0:	4253d393          	srai	t2,t2,0x25
    ade4:	00702e33          	sgtz	t3,t2
    ade8:	41c00e33          	neg	t3,t3
    adec:	007e73b3          	and	t2,t3,t2
    adf0:	0193c463          	blt	t2,s9,adf8 <.LBB71_1008>
    adf4:	0ff00393          	li	t2,255

000000000000adf8 <.LBB71_1008>:
    adf8:	e5043e03          	ld	t3,-432(s0)
    adfc:	038e0e33          	mul	t3,t3,s8
    ae00:	e4843e83          	ld	t4,-440(s0)
    ae04:	017e8eb3          	add	t4,t4,s7
    ae08:	01de0e33          	add	t3,t3,t4
    ae0c:	425e5e13          	srai	t3,t3,0x25
    ae10:	01c02eb3          	sgtz	t4,t3
    ae14:	41d00eb3          	neg	t4,t4
    ae18:	01cefe33          	and	t3,t4,t3
    ae1c:	019e4463          	blt	t3,s9,ae24 <.LBB71_1010>
    ae20:	0ff00e13          	li	t3,255

000000000000ae24 <.LBB71_1010>:
    ae24:	e6043e83          	ld	t4,-416(s0)
    ae28:	038e8eb3          	mul	t4,t4,s8
    ae2c:	e5843f03          	ld	t5,-424(s0)
    ae30:	017f0f33          	add	t5,t5,s7
    ae34:	01ee8eb3          	add	t4,t4,t5
    ae38:	425ede93          	srai	t4,t4,0x25
    ae3c:	01d02f33          	sgtz	t5,t4
    ae40:	41e00f33          	neg	t5,t5
    ae44:	01df7eb3          	and	t4,t5,t4
    ae48:	019ec463          	blt	t4,s9,ae50 <.LBB71_1012>
    ae4c:	0ff00e93          	li	t4,255

000000000000ae50 <.LBB71_1012>:
    ae50:	e7043f03          	ld	t5,-400(s0)
    ae54:	038f0f33          	mul	t5,t5,s8
    ae58:	e6843f83          	ld	t6,-408(s0)
    ae5c:	017f8fb3          	add	t6,t6,s7
    ae60:	01ff0f33          	add	t5,t5,t6
    ae64:	425f5f13          	srai	t5,t5,0x25
    ae68:	01e02fb3          	sgtz	t6,t5
    ae6c:	41f00fb3          	neg	t6,t6
    ae70:	01efff33          	and	t5,t6,t5
    ae74:	019f4463          	blt	t5,s9,ae7c <.LBB71_1014>
    ae78:	0ff00f13          	li	t5,255

000000000000ae7c <.LBB71_1014>:
    ae7c:	e8843f83          	ld	t6,-376(s0)
    ae80:	038f8fb3          	mul	t6,t6,s8
    ae84:	e8043483          	ld	s1,-384(s0)
    ae88:	017484b3          	add	s1,s1,s7
    ae8c:	009f8fb3          	add	t6,t6,s1
    ae90:	425fdf93          	srai	t6,t6,0x25
    ae94:	01f024b3          	sgtz	s1,t6
    ae98:	409004b3          	neg	s1,s1
    ae9c:	01f4ffb3          	and	t6,s1,t6
    aea0:	019fc463          	blt	t6,s9,aea8 <.LBB71_1016>
    aea4:	0ff00f93          	li	t6,255

000000000000aea8 <.LBB71_1016>:
    aea8:	038904b3          	mul	s1,s2,s8
    aeac:	e9043903          	ld	s2,-368(s0)
    aeb0:	01790933          	add	s2,s2,s7
    aeb4:	012484b3          	add	s1,s1,s2
    aeb8:	4254d493          	srai	s1,s1,0x25
    aebc:	00902933          	sgtz	s2,s1
    aec0:	41200933          	neg	s2,s2
    aec4:	009974b3          	and	s1,s2,s1
    aec8:	0194c463          	blt	s1,s9,aed0 <.LBB71_1018>
    aecc:	0ff00493          	li	s1,255

000000000000aed0 <.LBB71_1018>:
    aed0:	03898933          	mul	s2,s3,s8
    aed4:	e9843983          	ld	s3,-360(s0)
    aed8:	017989b3          	add	s3,s3,s7
    aedc:	01390933          	add	s2,s2,s3
    aee0:	42595913          	srai	s2,s2,0x25
    aee4:	012029b3          	sgtz	s3,s2
    aee8:	413009b3          	neg	s3,s3
    aeec:	0129f933          	and	s2,s3,s2
    aef0:	01994463          	blt	s2,s9,aef8 <.LBB71_1020>
    aef4:	0ff00913          	li	s2,255

000000000000aef8 <.LBB71_1020>:
    aef8:	038a09b3          	mul	s3,s4,s8
    aefc:	ea043a03          	ld	s4,-352(s0)
    af00:	017a0a33          	add	s4,s4,s7
    af04:	014989b3          	add	s3,s3,s4
    af08:	4259d993          	srai	s3,s3,0x25
    af0c:	01302a33          	sgtz	s4,s3
    af10:	41400a33          	neg	s4,s4
    af14:	013a79b3          	and	s3,s4,s3
    af18:	0199c463          	blt	s3,s9,af20 <.LBB71_1022>
    af1c:	0ff00993          	li	s3,255

000000000000af20 <.LBB71_1022>:
    af20:	038a8a33          	mul	s4,s5,s8
    af24:	eb043a83          	ld	s5,-336(s0)
    af28:	017a8ab3          	add	s5,s5,s7
    af2c:	015a0a33          	add	s4,s4,s5
    af30:	425a5a13          	srai	s4,s4,0x25
    af34:	01402ab3          	sgtz	s5,s4
    af38:	41500ab3          	neg	s5,s5
    af3c:	014afa33          	and	s4,s5,s4
    af40:	019a4463          	blt	s4,s9,af48 <.LBB71_1024>
    af44:	0ff00a13          	li	s4,255

000000000000af48 <.LBB71_1024>:
    af48:	038b0ab3          	mul	s5,s6,s8
    af4c:	eb843b03          	ld	s6,-328(s0)
    af50:	017b0b33          	add	s6,s6,s7
    af54:	016a8ab3          	add	s5,s5,s6
    af58:	425ada93          	srai	s5,s5,0x25
    af5c:	01502b33          	sgtz	s6,s5
    af60:	41600b33          	neg	s6,s6
    af64:	015b7ab3          	and	s5,s6,s5
    af68:	019ac463          	blt	s5,s9,af70 <.LBB71_1026>
    af6c:	0ff00a93          	li	s5,255

000000000000af70 <.LBB71_1026>:
    af70:	ec043b03          	ld	s6,-320(s0)
    af74:	038b0b33          	mul	s6,s6,s8
    af78:	017d0bb3          	add	s7,s10,s7
    af7c:	017b0b33          	add	s6,s6,s7
    af80:	425b5b13          	srai	s6,s6,0x25
    af84:	01602bb3          	sgtz	s7,s6
    af88:	41700bb3          	neg	s7,s7
    af8c:	016bfb33          	and	s6,s7,s6
    af90:	019b4463          	blt	s6,s9,af98 <.LBB71_1028>
    af94:	0ff00b13          	li	s6,255

000000000000af98 <.LBB71_1028>:
    af98:	ed043b83          	ld	s7,-304(s0)
    af9c:	038b8bb3          	mul	s7,s7,s8
    afa0:	00001c37          	lui	s8,0x1
    afa4:	41840c33          	sub	s8,s0,s8
    afa8:	618c3c03          	ld	s8,1560(s8) # 1618 <.LBB71_4+0x418>
    afac:	01808c33          	add	s8,ra,s8
    afb0:	018b8bb3          	add	s7,s7,s8
    afb4:	425bdb93          	srai	s7,s7,0x25
    afb8:	01702c33          	sgtz	s8,s7
    afbc:	41800c33          	neg	s8,s8
    afc0:	017c7bb3          	and	s7,s8,s7
    afc4:	019bd463          	bge	s7,s9,afcc <.LBB71_1029>
    afc8:	ab0f506f          	j	278 <.LBB71_3>

000000000000afcc <.LBB71_1029>:
    afcc:	0ff00b93          	li	s7,255
    afd0:	aa8f506f          	j	278 <.LBB71_3>

000000000000afd4 <.LBB71_1030>:
    afd4:	00000513          	li	a0,0
    afd8:	000175b7          	lui	a1,0x17
    afdc:	1405859b          	addiw	a1,a1,320 # 17140 <.LBB98_2537+0x4>
    afe0:	00001637          	lui	a2,0x1
    afe4:	40c40633          	sub	a2,s0,a2
    afe8:	cb863603          	ld	a2,-840(a2) # cb8 <.LBB71_3+0xa40>
    afec:	00b605b3          	add	a1,a2,a1
    aff0:	00001637          	lui	a2,0x1
    aff4:	40c40633          	sub	a2,s0,a2
    aff8:	58b63423          	sd	a1,1416(a2) # 1588 <.LBB71_4+0x388>
    affc:	01b00593          	li	a1,27
    b000:	00b59593          	slli	a1,a1,0xb
    b004:	00001637          	lui	a2,0x1
    b008:	40c40633          	sub	a2,s0,a2
    b00c:	58b63023          	sd	a1,1408(a2) # 1580 <.LBB71_4+0x380>
    b010:	60e265b7          	lui	a1,0x60e26
    b014:	7c65859b          	addiw	a1,a1,1990 # 60e267c6 <.Lfunc_end80+0x60dfddfe>
    b018:	00001637          	lui	a2,0x1
    b01c:	40c40633          	sub	a2,s0,a2
    b020:	56b63c23          	sd	a1,1400(a2) # 1578 <.LBB71_4+0x378>
    b024:	00100593          	li	a1,1
    b028:	02459593          	slli	a1,a1,0x24
    b02c:	00001637          	lui	a2,0x1
    b030:	40c40633          	sub	a2,s0,a2
    b034:	56b63823          	sd	a1,1392(a2) # 1570 <.LBB71_4+0x370>
    b038:	6000006f          	j	b638 <.LBB71_1032>

000000000000b03c <.LBB71_1031>:
    b03c:	f4843503          	ld	a0,-184(s0)
    b040:	08054c93          	xori	s9,a0,128
    b044:	00001537          	lui	a0,0x1
    b048:	40a40533          	sub	a0,s0,a0
    b04c:	ca853083          	ld	ra,-856(a0) # ca8 <.LBB71_3+0xa30>
    b050:	a4043603          	ld	a2,-1472(s0)
    b054:	00c080b3          	add	ra,ra,a2
    b058:	0001b537          	lui	a0,0x1b
    b05c:	00a089b3          	add	s3,ra,a0
    b060:	019981a3          	sb	s9,3(s3)
    b064:	f8843c83          	ld	s9,-120(s0)
    b068:	080ccc93          	xori	s9,s9,128
    b06c:	01998123          	sb	s9,2(s3)
    b070:	f8043c83          	ld	s9,-128(s0)
    b074:	080ccc93          	xori	s9,s9,128
    b078:	019980a3          	sb	s9,1(s3)
    b07c:	f7843c83          	ld	s9,-136(s0)
    b080:	080ccc93          	xori	s9,s9,128
    b084:	01998023          	sb	s9,0(s3)
    b088:	f7043c83          	ld	s9,-144(s0)
    b08c:	080ccc93          	xori	s9,s9,128
    b090:	01998223          	sb	s9,4(s3)
    b094:	f6843c83          	ld	s9,-152(s0)
    b098:	080ccc93          	xori	s9,s9,128
    b09c:	019982a3          	sb	s9,5(s3)
    b0a0:	f6043c83          	ld	s9,-160(s0)
    b0a4:	080ccc93          	xori	s9,s9,128
    b0a8:	01998323          	sb	s9,6(s3)
    b0ac:	f5843c83          	ld	s9,-168(s0)
    b0b0:	080ccc93          	xori	s9,s9,128
    b0b4:	019983a3          	sb	s9,7(s3)
    b0b8:	f5043c83          	ld	s9,-176(s0)
    b0bc:	080ccc93          	xori	s9,s9,128
    b0c0:	01998423          	sb	s9,8(s3)
    b0c4:	f4043c83          	ld	s9,-192(s0)
    b0c8:	080ccc93          	xori	s9,s9,128
    b0cc:	019984a3          	sb	s9,9(s3)
    b0d0:	f3843c83          	ld	s9,-200(s0)
    b0d4:	080ccc93          	xori	s9,s9,128
    b0d8:	01998523          	sb	s9,10(s3)
    b0dc:	f3043c83          	ld	s9,-208(s0)
    b0e0:	080ccc93          	xori	s9,s9,128
    b0e4:	019985a3          	sb	s9,11(s3)
    b0e8:	f1043c83          	ld	s9,-240(s0)
    b0ec:	080ccc93          	xori	s9,s9,128
    b0f0:	01998623          	sb	s9,12(s3)
    b0f4:	ee843c83          	ld	s9,-280(s0)
    b0f8:	080ccc93          	xori	s9,s9,128
    b0fc:	019986a3          	sb	s9,13(s3)
    b100:	ec043c83          	ld	s9,-320(s0)
    b104:	080ccc93          	xori	s9,s9,128
    b108:	01998723          	sb	s9,14(s3)
    b10c:	e8843c83          	ld	s9,-376(s0)
    b110:	080ccc93          	xori	s9,s9,128
    b114:	019987a3          	sb	s9,15(s3)
    b118:	e4843c83          	ld	s9,-440(s0)
    b11c:	080ccc93          	xori	s9,s9,128
    b120:	01998823          	sb	s9,16(s3)
    b124:	e1843c83          	ld	s9,-488(s0)
    b128:	080ccc93          	xori	s9,s9,128
    b12c:	019988a3          	sb	s9,17(s3)
    b130:	de043c83          	ld	s9,-544(s0)
    b134:	080ccc93          	xori	s9,s9,128
    b138:	01998923          	sb	s9,18(s3)
    b13c:	da043c83          	ld	s9,-608(s0)
    b140:	080ccc93          	xori	s9,s9,128
    b144:	019989a3          	sb	s9,19(s3)
    b148:	d5843c83          	ld	s9,-680(s0)
    b14c:	080ccc93          	xori	s9,s9,128
    b150:	01998a23          	sb	s9,20(s3)
    b154:	d1043c83          	ld	s9,-752(s0)
    b158:	080ccc93          	xori	s9,s9,128
    b15c:	01998aa3          	sb	s9,21(s3)
    b160:	cd043c83          	ld	s9,-816(s0)
    b164:	080ccc93          	xori	s9,s9,128
    b168:	01998b23          	sb	s9,22(s3)
    b16c:	c9043c83          	ld	s9,-880(s0)
    b170:	080ccc93          	xori	s9,s9,128
    b174:	01998ba3          	sb	s9,23(s3)
    b178:	c6043c83          	ld	s9,-928(s0)
    b17c:	080ccc93          	xori	s9,s9,128
    b180:	01998c23          	sb	s9,24(s3)
    b184:	c4043c83          	ld	s9,-960(s0)
    b188:	080ccc93          	xori	s9,s9,128
    b18c:	01998ca3          	sb	s9,25(s3)
    b190:	c3843c83          	ld	s9,-968(s0)
    b194:	080ccc93          	xori	s9,s9,128
    b198:	01998d23          	sb	s9,26(s3)
    b19c:	bd843c83          	ld	s9,-1064(s0)
    b1a0:	080ccc93          	xori	s9,s9,128
    b1a4:	01998da3          	sb	s9,27(s3)
    b1a8:	bc843c83          	ld	s9,-1080(s0)
    b1ac:	080ccc93          	xori	s9,s9,128
    b1b0:	01998e23          	sb	s9,28(s3)
    b1b4:	bc043c83          	ld	s9,-1088(s0)
    b1b8:	080ccc93          	xori	s9,s9,128
    b1bc:	01998ea3          	sb	s9,29(s3)
    b1c0:	bb843c83          	ld	s9,-1096(s0)
    b1c4:	080ccc93          	xori	s9,s9,128
    b1c8:	01998f23          	sb	s9,30(s3)
    b1cc:	bb043c83          	ld	s9,-1104(s0)
    b1d0:	080ccc93          	xori	s9,s9,128
    b1d4:	01998fa3          	sb	s9,31(s3)
    b1d8:	ba843983          	ld	s3,-1112(s0)
    b1dc:	0809cc93          	xori	s9,s3,128
    b1e0:	2405099b          	addiw	s3,a0,576 # 1b240 <.LBB66_3482>
    b1e4:	013089b3          	add	s3,ra,s3
    b1e8:	019981a3          	sb	s9,3(s3)
    b1ec:	ba043c83          	ld	s9,-1120(s0)
    b1f0:	080ccc93          	xori	s9,s9,128
    b1f4:	01998123          	sb	s9,2(s3)
    b1f8:	b9843c83          	ld	s9,-1128(s0)
    b1fc:	080ccc93          	xori	s9,s9,128
    b200:	019980a3          	sb	s9,1(s3)
    b204:	b9043c83          	ld	s9,-1136(s0)
    b208:	080ccc93          	xori	s9,s9,128
    b20c:	01998023          	sb	s9,0(s3)
    b210:	b8843c83          	ld	s9,-1144(s0)
    b214:	080ccc93          	xori	s9,s9,128
    b218:	01998223          	sb	s9,4(s3)
    b21c:	b8043c83          	ld	s9,-1152(s0)
    b220:	080ccc93          	xori	s9,s9,128
    b224:	019982a3          	sb	s9,5(s3)
    b228:	b6043c83          	ld	s9,-1184(s0)
    b22c:	080ccc93          	xori	s9,s9,128
    b230:	01998323          	sb	s9,6(s3)
    b234:	b5843c83          	ld	s9,-1192(s0)
    b238:	080ccc93          	xori	s9,s9,128
    b23c:	019983a3          	sb	s9,7(s3)
    b240:	b5043c83          	ld	s9,-1200(s0)
    b244:	080ccc93          	xori	s9,s9,128
    b248:	01998423          	sb	s9,8(s3)
    b24c:	b4843c83          	ld	s9,-1208(s0)
    b250:	080ccc93          	xori	s9,s9,128
    b254:	019984a3          	sb	s9,9(s3)
    b258:	b4043c83          	ld	s9,-1216(s0)
    b25c:	080ccc93          	xori	s9,s9,128
    b260:	01998523          	sb	s9,10(s3)
    b264:	b3843c83          	ld	s9,-1224(s0)
    b268:	080ccc93          	xori	s9,s9,128
    b26c:	019985a3          	sb	s9,11(s3)
    b270:	b3043c83          	ld	s9,-1232(s0)
    b274:	080ccc93          	xori	s9,s9,128
    b278:	01998623          	sb	s9,12(s3)
    b27c:	b2843c83          	ld	s9,-1240(s0)
    b280:	080ccc93          	xori	s9,s9,128
    b284:	019986a3          	sb	s9,13(s3)
    b288:	b2043c83          	ld	s9,-1248(s0)
    b28c:	080ccc93          	xori	s9,s9,128
    b290:	01998723          	sb	s9,14(s3)
    b294:	b1843c83          	ld	s9,-1256(s0)
    b298:	080ccc93          	xori	s9,s9,128
    b29c:	019987a3          	sb	s9,15(s3)
    b2a0:	b1043c83          	ld	s9,-1264(s0)
    b2a4:	080ccc93          	xori	s9,s9,128
    b2a8:	01998823          	sb	s9,16(s3)
    b2ac:	b0843c83          	ld	s9,-1272(s0)
    b2b0:	080ccc93          	xori	s9,s9,128
    b2b4:	019988a3          	sb	s9,17(s3)
    b2b8:	b0043c83          	ld	s9,-1280(s0)
    b2bc:	080ccc93          	xori	s9,s9,128
    b2c0:	01998923          	sb	s9,18(s3)
    b2c4:	af843c83          	ld	s9,-1288(s0)
    b2c8:	080ccc93          	xori	s9,s9,128
    b2cc:	019989a3          	sb	s9,19(s3)
    b2d0:	af043c83          	ld	s9,-1296(s0)
    b2d4:	080ccc93          	xori	s9,s9,128
    b2d8:	01998a23          	sb	s9,20(s3)
    b2dc:	ae843c83          	ld	s9,-1304(s0)
    b2e0:	080ccc93          	xori	s9,s9,128
    b2e4:	01998aa3          	sb	s9,21(s3)
    b2e8:	ae043c83          	ld	s9,-1312(s0)
    b2ec:	080ccc93          	xori	s9,s9,128
    b2f0:	01998b23          	sb	s9,22(s3)
    b2f4:	ad843c83          	ld	s9,-1320(s0)
    b2f8:	080ccc93          	xori	s9,s9,128
    b2fc:	01998ba3          	sb	s9,23(s3)
    b300:	ad043c83          	ld	s9,-1328(s0)
    b304:	080ccc93          	xori	s9,s9,128
    b308:	01998c23          	sb	s9,24(s3)
    b30c:	ac843c83          	ld	s9,-1336(s0)
    b310:	080ccc93          	xori	s9,s9,128
    b314:	01998ca3          	sb	s9,25(s3)
    b318:	ac043c83          	ld	s9,-1344(s0)
    b31c:	080ccc93          	xori	s9,s9,128
    b320:	01998d23          	sb	s9,26(s3)
    b324:	ab843c83          	ld	s9,-1352(s0)
    b328:	080ccc93          	xori	s9,s9,128
    b32c:	01998da3          	sb	s9,27(s3)
    b330:	ab043c83          	ld	s9,-1360(s0)
    b334:	080ccc93          	xori	s9,s9,128
    b338:	01998e23          	sb	s9,28(s3)
    b33c:	aa843c83          	ld	s9,-1368(s0)
    b340:	080ccc93          	xori	s9,s9,128
    b344:	01998ea3          	sb	s9,29(s3)
    b348:	aa043c83          	ld	s9,-1376(s0)
    b34c:	080ccc93          	xori	s9,s9,128
    b350:	01998f23          	sb	s9,30(s3)
    b354:	a9843c83          	ld	s9,-1384(s0)
    b358:	080ccc93          	xori	s9,s9,128
    b35c:	01998fa3          	sb	s9,31(s3)
    b360:	a9043983          	ld	s3,-1392(s0)
    b364:	0809cc93          	xori	s9,s3,128
    b368:	4805099b          	addiw	s3,a0,1152
    b36c:	013089b3          	add	s3,ra,s3
    b370:	019981a3          	sb	s9,3(s3)
    b374:	a8843c83          	ld	s9,-1400(s0)
    b378:	080ccc93          	xori	s9,s9,128
    b37c:	01998123          	sb	s9,2(s3)
    b380:	a8043c83          	ld	s9,-1408(s0)
    b384:	080ccc93          	xori	s9,s9,128
    b388:	019980a3          	sb	s9,1(s3)
    b38c:	a7843c83          	ld	s9,-1416(s0)
    b390:	080ccc93          	xori	s9,s9,128
    b394:	01998023          	sb	s9,0(s3)
    b398:	a7043c83          	ld	s9,-1424(s0)
    b39c:	080ccc93          	xori	s9,s9,128
    b3a0:	01998223          	sb	s9,4(s3)
    b3a4:	a6843c83          	ld	s9,-1432(s0)
    b3a8:	080ccc93          	xori	s9,s9,128
    b3ac:	019982a3          	sb	s9,5(s3)
    b3b0:	a6043c83          	ld	s9,-1440(s0)
    b3b4:	080ccc93          	xori	s9,s9,128
    b3b8:	01998323          	sb	s9,6(s3)
    b3bc:	a5843c83          	ld	s9,-1448(s0)
    b3c0:	080ccc93          	xori	s9,s9,128
    b3c4:	019983a3          	sb	s9,7(s3)
    b3c8:	a5043c83          	ld	s9,-1456(s0)
    b3cc:	080ccc93          	xori	s9,s9,128
    b3d0:	01998423          	sb	s9,8(s3)
    b3d4:	b6843c83          	ld	s9,-1176(s0)
    b3d8:	080ccc93          	xori	s9,s9,128
    b3dc:	019984a3          	sb	s9,9(s3)
    b3e0:	b7843c83          	ld	s9,-1160(s0)
    b3e4:	080ccc93          	xori	s9,s9,128
    b3e8:	01998523          	sb	s9,10(s3)
    b3ec:	be043c83          	ld	s9,-1056(s0)
    b3f0:	080ccc93          	xori	s9,s9,128
    b3f4:	019985a3          	sb	s9,11(s3)
    b3f8:	bf043c83          	ld	s9,-1040(s0)
    b3fc:	080ccc93          	xori	s9,s9,128
    b400:	01998623          	sb	s9,12(s3)
    b404:	c0043c83          	ld	s9,-1024(s0)
    b408:	080ccc93          	xori	s9,s9,128
    b40c:	019986a3          	sb	s9,13(s3)
    b410:	c1043c83          	ld	s9,-1008(s0)
    b414:	080ccc93          	xori	s9,s9,128
    b418:	01998723          	sb	s9,14(s3)
    b41c:	c2043c83          	ld	s9,-992(s0)
    b420:	080ccc93          	xori	s9,s9,128
    b424:	019987a3          	sb	s9,15(s3)
    b428:	c3043c83          	ld	s9,-976(s0)
    b42c:	080ccc93          	xori	s9,s9,128
    b430:	01998823          	sb	s9,16(s3)
    b434:	c5043c83          	ld	s9,-944(s0)
    b438:	080ccc93          	xori	s9,s9,128
    b43c:	019988a3          	sb	s9,17(s3)
    b440:	c6843c83          	ld	s9,-920(s0)
    b444:	080ccc93          	xori	s9,s9,128
    b448:	01998923          	sb	s9,18(s3)
    b44c:	c7843c83          	ld	s9,-904(s0)
    b450:	080ccc93          	xori	s9,s9,128
    b454:	019989a3          	sb	s9,19(s3)
    b458:	c8843c83          	ld	s9,-888(s0)
    b45c:	080ccc93          	xori	s9,s9,128
    b460:	01998a23          	sb	s9,20(s3)
    b464:	ca043c83          	ld	s9,-864(s0)
    b468:	080ccc93          	xori	s9,s9,128
    b46c:	01998aa3          	sb	s9,21(s3)
    b470:	cb043c83          	ld	s9,-848(s0)
    b474:	080ccc93          	xori	s9,s9,128
    b478:	01998b23          	sb	s9,22(s3)
    b47c:	cc043c83          	ld	s9,-832(s0)
    b480:	080ccc93          	xori	s9,s9,128
    b484:	01998ba3          	sb	s9,23(s3)
    b488:	cd843c83          	ld	s9,-808(s0)
    b48c:	080ccc93          	xori	s9,s9,128
    b490:	01998c23          	sb	s9,24(s3)
    b494:	ce843c83          	ld	s9,-792(s0)
    b498:	080ccc93          	xori	s9,s9,128
    b49c:	01998ca3          	sb	s9,25(s3)
    b4a0:	cf843c83          	ld	s9,-776(s0)
    b4a4:	080ccc93          	xori	s9,s9,128
    b4a8:	01998d23          	sb	s9,26(s3)
    b4ac:	d0843c83          	ld	s9,-760(s0)
    b4b0:	080ccc93          	xori	s9,s9,128
    b4b4:	01998da3          	sb	s9,27(s3)
    b4b8:	d2043c83          	ld	s9,-736(s0)
    b4bc:	080ccc93          	xori	s9,s9,128
    b4c0:	01998e23          	sb	s9,28(s3)
    b4c4:	d3043c83          	ld	s9,-720(s0)
    b4c8:	080ccc93          	xori	s9,s9,128
    b4cc:	01998ea3          	sb	s9,29(s3)
    b4d0:	d4043c83          	ld	s9,-704(s0)
    b4d4:	080ccc93          	xori	s9,s9,128
    b4d8:	01998f23          	sb	s9,30(s3)
    b4dc:	d5043c83          	ld	s9,-688(s0)
    b4e0:	080ccc93          	xori	s9,s9,128
    b4e4:	01998fa3          	sb	s9,31(s3)
    b4e8:	6c05099b          	addiw	s3,a0,1728
    b4ec:	013089b3          	add	s3,ra,s3
    b4f0:	d6843503          	ld	a0,-664(s0)
    b4f4:	08054c93          	xori	s9,a0,128
    b4f8:	019981a3          	sb	s9,3(s3)
    b4fc:	d7843503          	ld	a0,-648(s0)
    b500:	08054c93          	xori	s9,a0,128
    b504:	01998123          	sb	s9,2(s3)
    b508:	d8843503          	ld	a0,-632(s0)
    b50c:	08054c93          	xori	s9,a0,128
    b510:	019980a3          	sb	s9,1(s3)
    b514:	d9843503          	ld	a0,-616(s0)
    b518:	08054c93          	xori	s9,a0,128
    b51c:	01998023          	sb	s9,0(s3)
    b520:	db043503          	ld	a0,-592(s0)
    b524:	08054c93          	xori	s9,a0,128
    b528:	01998223          	sb	s9,4(s3)
    b52c:	dc043503          	ld	a0,-576(s0)
    b530:	08054c93          	xori	s9,a0,128
    b534:	019982a3          	sb	s9,5(s3)
    b538:	dd043503          	ld	a0,-560(s0)
    b53c:	08054c93          	xori	s9,a0,128
    b540:	01998323          	sb	s9,6(s3)
    b544:	de843503          	ld	a0,-536(s0)
    b548:	08054c93          	xori	s9,a0,128
    b54c:	019983a3          	sb	s9,7(s3)
    b550:	df843503          	ld	a0,-520(s0)
    b554:	08054513          	xori	a0,a0,128
    b558:	00a98423          	sb	a0,8(s3)
    b55c:	e0843503          	ld	a0,-504(s0)
    b560:	08054513          	xori	a0,a0,128
    b564:	00a984a3          	sb	a0,9(s3)
    b568:	0805c513          	xori	a0,a1,128
    b56c:	00a98523          	sb	a0,10(s3)
    b570:	0806c513          	xori	a0,a3,128
    b574:	00a985a3          	sb	a0,11(s3)
    b578:	08074513          	xori	a0,a4,128
    b57c:	00a98623          	sb	a0,12(s3)
    b580:	0807c513          	xori	a0,a5,128
    b584:	00a986a3          	sb	a0,13(s3)
    b588:	08084513          	xori	a0,a6,128
    b58c:	00a98723          	sb	a0,14(s3)
    b590:	0808c513          	xori	a0,a7,128
    b594:	00a987a3          	sb	a0,15(s3)
    b598:	0802c513          	xori	a0,t0,128
    b59c:	00a98823          	sb	a0,16(s3)
    b5a0:	08034513          	xori	a0,t1,128
    b5a4:	00a988a3          	sb	a0,17(s3)
    b5a8:	0803c513          	xori	a0,t2,128
    b5ac:	00a98923          	sb	a0,18(s3)
    b5b0:	080e4513          	xori	a0,t3,128
    b5b4:	00a989a3          	sb	a0,19(s3)
    b5b8:	08094513          	xori	a0,s2,128
    b5bc:	00a98a23          	sb	a0,20(s3)
    b5c0:	080dc513          	xori	a0,s11,128
    b5c4:	00a98aa3          	sb	a0,21(s3)
    b5c8:	080d4513          	xori	a0,s10,128
    b5cc:	00a98b23          	sb	a0,22(s3)
    b5d0:	080ac513          	xori	a0,s5,128
    b5d4:	00a98ba3          	sb	a0,23(s3)
    b5d8:	080a4513          	xori	a0,s4,128
    b5dc:	00a98c23          	sb	a0,24(s3)
    b5e0:	080f4513          	xori	a0,t5,128
    b5e4:	00a98ca3          	sb	a0,25(s3)
    b5e8:	080c4513          	xori	a0,s8,128
    b5ec:	00a98d23          	sb	a0,26(s3)
    b5f0:	0804c513          	xori	a0,s1,128
    b5f4:	00a98da3          	sb	a0,27(s3)
    b5f8:	080b4513          	xori	a0,s6,128
    b5fc:	00a98e23          	sb	a0,28(s3)
    b600:	080fc513          	xori	a0,t6,128
    b604:	00a98ea3          	sb	a0,29(s3)
    b608:	080ec513          	xori	a0,t4,128
    b60c:	00a98f23          	sb	a0,30(s3)
    b610:	080bc513          	xori	a0,s7,128
    b614:	00a98fa3          	sb	a0,31(s3)
    b618:	02060513          	addi	a0,a2,32
    b61c:	000015b7          	lui	a1,0x1
    b620:	40b405b3          	sub	a1,s0,a1
    b624:	cb05bc03          	ld	s8,-848(a1) # cb0 <.LBB71_3+0xa38>
    b628:	020c0c13          	addi	s8,s8,32
    b62c:	22000593          	li	a1,544
    b630:	00b66463          	bltu	a2,a1,b638 <.LBB71_1032>
    b634:	3200406f          	j	f954 <.LBB71_1546>

000000000000b638 <.LBB71_1032>:
    b638:	00000f93          	li	t6,0
    b63c:	e8043c23          	sd	zero,-360(s0)
    b640:	e8043823          	sd	zero,-368(s0)
    b644:	e8043423          	sd	zero,-376(s0)
    b648:	ea043423          	sd	zero,-344(s0)
    b64c:	ea043823          	sd	zero,-336(s0)
    b650:	ea043c23          	sd	zero,-328(s0)
    b654:	ec043023          	sd	zero,-320(s0)
    b658:	00000293          	li	t0,0
    b65c:	ec043823          	sd	zero,-304(s0)
    b660:	00000093          	li	ra,0
    b664:	c2043c23          	sd	zero,-968(s0)
    b668:	e8043023          	sd	zero,-384(s0)
    b66c:	ee043423          	sd	zero,-280(s0)
    b670:	ee043023          	sd	zero,-288(s0)
    b674:	c6043023          	sd	zero,-928(s0)
    b678:	00000f13          	li	t5,0
    b67c:	ee043823          	sd	zero,-272(s0)
    b680:	00000893          	li	a7,0
    b684:	ee043c23          	sd	zero,-264(s0)
    b688:	00000d93          	li	s11,0
    b68c:	00000a13          	li	s4,0
    b690:	00000993          	li	s3,0
    b694:	00000913          	li	s2,0
    b698:	00000393          	li	t2,0
    b69c:	00000e93          	li	t4,0
    b6a0:	ba043823          	sd	zero,-1104(s0)
    b6a4:	00000713          	li	a4,0
    b6a8:	00000493          	li	s1,0
    b6ac:	00000a93          	li	s5,0
    b6b0:	00000313          	li	t1,0
    b6b4:	00000b13          	li	s6,0
    b6b8:	da043423          	sd	zero,-600(s0)
    b6bc:	da043023          	sd	zero,-608(s0)
    b6c0:	d8043c23          	sd	zero,-616(s0)
    b6c4:	d8043823          	sd	zero,-624(s0)
    b6c8:	da043823          	sd	zero,-592(s0)
    b6cc:	da043c23          	sd	zero,-584(s0)
    b6d0:	dc043023          	sd	zero,-576(s0)
    b6d4:	dc043423          	sd	zero,-568(s0)
    b6d8:	dc043823          	sd	zero,-560(s0)
    b6dc:	dc043c23          	sd	zero,-552(s0)
    b6e0:	de043023          	sd	zero,-544(s0)
    b6e4:	bc043823          	sd	zero,-1072(s0)
    b6e8:	de043823          	sd	zero,-528(s0)
    b6ec:	de043423          	sd	zero,-536(s0)
    b6f0:	de043c23          	sd	zero,-520(s0)
    b6f4:	e0043023          	sd	zero,-512(s0)
    b6f8:	e0043423          	sd	zero,-504(s0)
    b6fc:	e0043823          	sd	zero,-496(s0)
    b700:	e0043c23          	sd	zero,-488(s0)
    b704:	e2043023          	sd	zero,-480(s0)
    b708:	e2043423          	sd	zero,-472(s0)
    b70c:	e2043823          	sd	zero,-464(s0)
    b710:	e2043c23          	sd	zero,-456(s0)
    b714:	e4043023          	sd	zero,-448(s0)
    b718:	e4043423          	sd	zero,-440(s0)
    b71c:	e4043823          	sd	zero,-432(s0)
    b720:	e4043c23          	sd	zero,-424(s0)
    b724:	e6043023          	sd	zero,-416(s0)
    b728:	e6043423          	sd	zero,-408(s0)
    b72c:	e6043823          	sd	zero,-400(s0)
    b730:	e6043c23          	sd	zero,-392(s0)
    b734:	c4043023          	sd	zero,-960(s0)
    b738:	ca043423          	sd	zero,-856(s0)
    b73c:	ca043023          	sd	zero,-864(s0)
    b740:	c8043c23          	sd	zero,-872(s0)
    b744:	c8043823          	sd	zero,-880(s0)
    b748:	ca043823          	sd	zero,-848(s0)
    b74c:	ca043c23          	sd	zero,-840(s0)
    b750:	cc043023          	sd	zero,-832(s0)
    b754:	cc043423          	sd	zero,-824(s0)
    b758:	cc043823          	sd	zero,-816(s0)
    b75c:	cc043c23          	sd	zero,-808(s0)
    b760:	ce043023          	sd	zero,-800(s0)
    b764:	ce043423          	sd	zero,-792(s0)
    b768:	ce043823          	sd	zero,-784(s0)
    b76c:	ce043c23          	sd	zero,-776(s0)
    b770:	d0043023          	sd	zero,-768(s0)
    b774:	d0043423          	sd	zero,-760(s0)
    b778:	d0043823          	sd	zero,-752(s0)
    b77c:	d0043c23          	sd	zero,-744(s0)
    b780:	d2043023          	sd	zero,-736(s0)
    b784:	d2043423          	sd	zero,-728(s0)
    b788:	d2043823          	sd	zero,-720(s0)
    b78c:	d2043c23          	sd	zero,-712(s0)
    b790:	d4043023          	sd	zero,-704(s0)
    b794:	d4043423          	sd	zero,-696(s0)
    b798:	d4043823          	sd	zero,-688(s0)
    b79c:	d4043c23          	sd	zero,-680(s0)
    b7a0:	d6043023          	sd	zero,-672(s0)
    b7a4:	d6043423          	sd	zero,-664(s0)
    b7a8:	d6043823          	sd	zero,-656(s0)
    b7ac:	d6043c23          	sd	zero,-648(s0)
    b7b0:	d8043023          	sd	zero,-640(s0)
    b7b4:	d8043423          	sd	zero,-632(s0)
    b7b8:	ba043c23          	sd	zero,-1096(s0)
    b7bc:	b8043023          	sd	zero,-1152(s0)
    b7c0:	b8043c23          	sd	zero,-1128(s0)
    b7c4:	ba043023          	sd	zero,-1120(s0)
    b7c8:	bc043023          	sd	zero,-1088(s0)
    b7cc:	ba043423          	sd	zero,-1112(s0)
    b7d0:	b8043823          	sd	zero,-1136(s0)
    b7d4:	bc043423          	sd	zero,-1080(s0)
    b7d8:	b8043423          	sd	zero,-1144(s0)
    b7dc:	bc043c23          	sd	zero,-1064(s0)
    b7e0:	be043023          	sd	zero,-1056(s0)
    b7e4:	be043423          	sd	zero,-1048(s0)
    b7e8:	be043823          	sd	zero,-1040(s0)
    b7ec:	be043c23          	sd	zero,-1032(s0)
    b7f0:	c0043023          	sd	zero,-1024(s0)
    b7f4:	c0043423          	sd	zero,-1016(s0)
    b7f8:	c0043823          	sd	zero,-1008(s0)
    b7fc:	c0043c23          	sd	zero,-1000(s0)
    b800:	c2043023          	sd	zero,-992(s0)
    b804:	c2043423          	sd	zero,-984(s0)
    b808:	c2043823          	sd	zero,-976(s0)
    b80c:	00000793          	li	a5,0
    b810:	00000613          	li	a2,0
    b814:	00000593          	li	a1,0
    b818:	c4043423          	sd	zero,-952(s0)
    b81c:	c4043823          	sd	zero,-944(s0)
    b820:	c4043c23          	sd	zero,-936(s0)
    b824:	c6043423          	sd	zero,-920(s0)
    b828:	c6043823          	sd	zero,-912(s0)
    b82c:	c6043c23          	sd	zero,-904(s0)
    b830:	c8043023          	sd	zero,-896(s0)
    b834:	c8043423          	sd	zero,-888(s0)
    b838:	a4a43023          	sd	a0,-1472(s0)
    b83c:	00001537          	lui	a0,0x1
    b840:	40a40533          	sub	a0,s0,a0
    b844:	58053503          	ld	a0,1408(a0) # 1580 <.LBB71_4+0x380>
    b848:	000016b7          	lui	a3,0x1
    b84c:	40d406b3          	sub	a3,s0,a3
    b850:	5886b683          	ld	a3,1416(a3) # 1588 <.LBB71_4+0x388>
    b854:	00001837          	lui	a6,0x1
    b858:	41040833          	sub	a6,s0,a6
    b85c:	cb883823          	sd	s8,-848(a6) # cb0 <.LBB71_3+0xa38>

000000000000b860 <.LBB71_1033>:
    b860:	f8d43423          	sd	a3,-120(s0)
    b864:	aea43c23          	sd	a0,-1288(s0)
    b868:	ec543423          	sd	t0,-312(s0)
    b86c:	ebf43023          	sd	t6,-352(s0)
    b870:	ec143c23          	sd	ra,-296(s0)
    b874:	b1e43023          	sd	t5,-1280(s0)
    b878:	b1143423          	sd	a7,-1272(s0)
    b87c:	b1b43823          	sd	s11,-1264(s0)
    b880:	b1443c23          	sd	s4,-1256(s0)
    b884:	b3343023          	sd	s3,-1248(s0)
    b888:	b3243423          	sd	s2,-1240(s0)
    b88c:	b2743823          	sd	t2,-1232(s0)
    b890:	b3d43c23          	sd	t4,-1224(s0)
    b894:	b4e43023          	sd	a4,-1216(s0)
    b898:	b4943423          	sd	s1,-1208(s0)
    b89c:	b5543823          	sd	s5,-1200(s0)
    b8a0:	b4643c23          	sd	t1,-1192(s0)
    b8a4:	b7643023          	sd	s6,-1184(s0)
    b8a8:	f8843503          	ld	a0,-120(s0)
    b8ac:	00050683          	lb	a3,0(a0)
    b8b0:	002c0503          	lb	a0,2(s8)
    b8b4:	f2a43423          	sd	a0,-216(s0)
    b8b8:	001c0283          	lb	t0,1(s8)
    b8bc:	f2543023          	sd	t0,-224(s0)
    b8c0:	000c0303          	lb	t1,0(s8)
    b8c4:	f6643423          	sd	t1,-152(s0)
    b8c8:	003c0383          	lb	t2,3(s8)
    b8cc:	f6743023          	sd	t2,-160(s0)
    b8d0:	004c0903          	lb	s2,4(s8)
    b8d4:	f5243c23          	sd	s2,-168(s0)
    b8d8:	005c0f83          	lb	t6,5(s8)
    b8dc:	f5f43823          	sd	t6,-176(s0)
    b8e0:	006c0f03          	lb	t5,6(s8)
    b8e4:	f5e43423          	sd	t5,-184(s0)
    b8e8:	007c0703          	lb	a4,7(s8)
    b8ec:	f0e43823          	sd	a4,-240(s0)
    b8f0:	008c0703          	lb	a4,8(s8)
    b8f4:	f0e43423          	sd	a4,-248(s0)
    b8f8:	009c0703          	lb	a4,9(s8)
    b8fc:	f0e43023          	sd	a4,-256(s0)
    b900:	00ac0b83          	lb	s7,10(s8)
    b904:	f3743823          	sd	s7,-208(s0)
    b908:	00bc0883          	lb	a7,11(s8)
    b90c:	f3143c23          	sd	a7,-200(s0)
    b910:	00cc0e03          	lb	t3,12(s8)
    b914:	f5c43023          	sd	t3,-192(s0)
    b918:	00dc0703          	lb	a4,13(s8)
    b91c:	ace43823          	sd	a4,-1328(s0)
    b920:	00ec0a83          	lb	s5,14(s8)
    b924:	af543823          	sd	s5,-1296(s0)
    b928:	00fc0983          	lb	s3,15(s8)
    b92c:	ad343c23          	sd	s3,-1320(s0)
    b930:	010c0483          	lb	s1,16(s8)
    b934:	ae943023          	sd	s1,-1312(s0)
    b938:	011c0c83          	lb	s9,17(s8)
    b93c:	af943423          	sd	s9,-1304(s0)
    b940:	012c0e83          	lb	t4,18(s8)
    b944:	013c0d03          	lb	s10,19(s8)
    b948:	f9a43023          	sd	s10,-128(s0)
    b94c:	014c0a03          	lb	s4,20(s8)
    b950:	015c0083          	lb	ra,21(s8)
    b954:	016c0d83          	lb	s11,22(s8)
    b958:	adb43423          	sd	s11,-1336(s0)
    b95c:	017c0b03          	lb	s6,23(s8)
    b960:	018c0803          	lb	a6,24(s8)
    b964:	f1043c23          	sd	a6,-232(s0)
    b968:	02a68533          	mul	a0,a3,a0
    b96c:	b9843803          	ld	a6,-1128(s0)
    b970:	01050833          	add	a6,a0,a6
    b974:	b9043c23          	sd	a6,-1128(s0)
    b978:	02568533          	mul	a0,a3,t0
    b97c:	b8043803          	ld	a6,-1152(s0)
    b980:	01050833          	add	a6,a0,a6
    b984:	b9043023          	sd	a6,-1152(s0)
    b988:	02668533          	mul	a0,a3,t1
    b98c:	bb843803          	ld	a6,-1096(s0)
    b990:	01050833          	add	a6,a0,a6
    b994:	bb043c23          	sd	a6,-1096(s0)
    b998:	02768533          	mul	a0,a3,t2
    b99c:	ba043803          	ld	a6,-1120(s0)
    b9a0:	01050833          	add	a6,a0,a6
    b9a4:	bb043023          	sd	a6,-1120(s0)
    b9a8:	03268533          	mul	a0,a3,s2
    b9ac:	bc043803          	ld	a6,-1088(s0)
    b9b0:	01050833          	add	a6,a0,a6
    b9b4:	bd043023          	sd	a6,-1088(s0)
    b9b8:	03f68533          	mul	a0,a3,t6
    b9bc:	ba843803          	ld	a6,-1112(s0)
    b9c0:	01050833          	add	a6,a0,a6
    b9c4:	bb043423          	sd	a6,-1112(s0)
    b9c8:	03e68533          	mul	a0,a3,t5
    b9cc:	b9043803          	ld	a6,-1136(s0)
    b9d0:	01050833          	add	a6,a0,a6
    b9d4:	b9043823          	sd	a6,-1136(s0)
    b9d8:	f1043383          	ld	t2,-240(s0)
    b9dc:	02768533          	mul	a0,a3,t2
    b9e0:	bc843803          	ld	a6,-1080(s0)
    b9e4:	01050833          	add	a6,a0,a6
    b9e8:	bd043423          	sd	a6,-1080(s0)
    b9ec:	f0843f03          	ld	t5,-248(s0)
    b9f0:	03e68533          	mul	a0,a3,t5
    b9f4:	b8843803          	ld	a6,-1144(s0)
    b9f8:	01050833          	add	a6,a0,a6
    b9fc:	b9043423          	sd	a6,-1144(s0)
    ba00:	f0043903          	ld	s2,-256(s0)
    ba04:	03268533          	mul	a0,a3,s2
    ba08:	bd843803          	ld	a6,-1064(s0)
    ba0c:	01050833          	add	a6,a0,a6
    ba10:	bd043c23          	sd	a6,-1064(s0)
    ba14:	03768533          	mul	a0,a3,s7
    ba18:	be043803          	ld	a6,-1056(s0)
    ba1c:	01050833          	add	a6,a0,a6
    ba20:	bf043023          	sd	a6,-1056(s0)
    ba24:	03168533          	mul	a0,a3,a7
    ba28:	be843803          	ld	a6,-1048(s0)
    ba2c:	01050833          	add	a6,a0,a6
    ba30:	bf043423          	sd	a6,-1048(s0)
    ba34:	03c68533          	mul	a0,a3,t3
    ba38:	bf043803          	ld	a6,-1040(s0)
    ba3c:	01050833          	add	a6,a0,a6
    ba40:	bf043823          	sd	a6,-1040(s0)
    ba44:	02e68533          	mul	a0,a3,a4
    ba48:	bf843803          	ld	a6,-1032(s0)
    ba4c:	01050833          	add	a6,a0,a6
    ba50:	bf043c23          	sd	a6,-1032(s0)
    ba54:	03568533          	mul	a0,a3,s5
    ba58:	c0043803          	ld	a6,-1024(s0)
    ba5c:	01050833          	add	a6,a0,a6
    ba60:	c1043023          	sd	a6,-1024(s0)
    ba64:	03368533          	mul	a0,a3,s3
    ba68:	c0843803          	ld	a6,-1016(s0)
    ba6c:	01050833          	add	a6,a0,a6
    ba70:	c1043423          	sd	a6,-1016(s0)
    ba74:	02968533          	mul	a0,a3,s1
    ba78:	c1043803          	ld	a6,-1008(s0)
    ba7c:	01050833          	add	a6,a0,a6
    ba80:	c1043823          	sd	a6,-1008(s0)
    ba84:	03968533          	mul	a0,a3,s9
    ba88:	c1843803          	ld	a6,-1000(s0)
    ba8c:	01050833          	add	a6,a0,a6
    ba90:	c1043c23          	sd	a6,-1000(s0)
    ba94:	03d68533          	mul	a0,a3,t4
    ba98:	000e8c93          	mv	s9,t4
    ba9c:	abd43023          	sd	t4,-1376(s0)
    baa0:	c2043803          	ld	a6,-992(s0)
    baa4:	01050833          	add	a6,a0,a6
    baa8:	c3043023          	sd	a6,-992(s0)
    baac:	03a68533          	mul	a0,a3,s10
    bab0:	c2843803          	ld	a6,-984(s0)
    bab4:	01050833          	add	a6,a0,a6
    bab8:	c3043423          	sd	a6,-984(s0)
    babc:	03468533          	mul	a0,a3,s4
    bac0:	000a0e93          	mv	t4,s4
    bac4:	a9443c23          	sd	s4,-1384(s0)
    bac8:	c3043803          	ld	a6,-976(s0)
    bacc:	01050833          	add	a6,a0,a6
    bad0:	c3043823          	sd	a6,-976(s0)
    bad4:	02168533          	mul	a0,a3,ra
    bad8:	00008a13          	mv	s4,ra
    badc:	00f507b3          	add	a5,a0,a5
    bae0:	b6f43423          	sd	a5,-1176(s0)
    bae4:	03b68533          	mul	a0,a3,s11
    bae8:	00c50633          	add	a2,a0,a2
    baec:	b6c43823          	sd	a2,-1168(s0)
    baf0:	03668533          	mul	a0,a3,s6
    baf4:	a9643823          	sd	s6,-1392(s0)
    baf8:	00b505b3          	add	a1,a0,a1
    bafc:	b6b43c23          	sd	a1,-1160(s0)
    bb00:	019c0603          	lb	a2,25(s8)
    bb04:	acc43023          	sd	a2,-1344(s0)
    bb08:	f1843b83          	ld	s7,-232(s0)
    bb0c:	037685b3          	mul	a1,a3,s7
    bb10:	c4843503          	ld	a0,-952(s0)
    bb14:	00a58533          	add	a0,a1,a0
    bb18:	c4a43423          	sd	a0,-952(s0)
    bb1c:	01ac0703          	lb	a4,26(s8)
    bb20:	aae43c23          	sd	a4,-1352(s0)
    bb24:	02c685b3          	mul	a1,a3,a2
    bb28:	c5043503          	ld	a0,-944(s0)
    bb2c:	00a58533          	add	a0,a1,a0
    bb30:	c4a43823          	sd	a0,-944(s0)
    bb34:	01bc0603          	lb	a2,27(s8)
    bb38:	aac43823          	sd	a2,-1360(s0)
    bb3c:	02e685b3          	mul	a1,a3,a4
    bb40:	c5843503          	ld	a0,-936(s0)
    bb44:	00a58533          	add	a0,a1,a0
    bb48:	c4a43c23          	sd	a0,-936(s0)
    bb4c:	01cc0083          	lb	ra,28(s8)
    bb50:	02c685b3          	mul	a1,a3,a2
    bb54:	c6843503          	ld	a0,-920(s0)
    bb58:	00a58533          	add	a0,a1,a0
    bb5c:	c6a43423          	sd	a0,-920(s0)
    bb60:	01dc0503          	lb	a0,29(s8)
    bb64:	aaa43423          	sd	a0,-1368(s0)
    bb68:	021685b3          	mul	a1,a3,ra
    bb6c:	a8143423          	sd	ra,-1400(s0)
    bb70:	c7043603          	ld	a2,-912(s0)
    bb74:	00c58633          	add	a2,a1,a2
    bb78:	c6c43823          	sd	a2,-912(s0)
    bb7c:	01ec0583          	lb	a1,30(s8)
    bb80:	f6b43c23          	sd	a1,-136(s0)
    bb84:	02a68633          	mul	a2,a3,a0
    bb88:	c7843703          	ld	a4,-904(s0)
    bb8c:	00e60733          	add	a4,a2,a4
    bb90:	c6e43c23          	sd	a4,-904(s0)
    bb94:	01fc0503          	lb	a0,31(s8)
    bb98:	f6a43823          	sd	a0,-144(s0)
    bb9c:	f8843703          	ld	a4,-120(s0)
    bba0:	06070703          	lb	a4,96(a4) # ffffffffc0000060 <.Lfunc_end80+0xffffffffbffd7698>
    bba4:	02b68fb3          	mul	t6,a3,a1
    bba8:	c8043303          	ld	t1,-896(s0)
    bbac:	006f8333          	add	t1,t6,t1
    bbb0:	c8643023          	sd	t1,-896(s0)
    bbb4:	02a686b3          	mul	a3,a3,a0
    bbb8:	c8843303          	ld	t1,-888(s0)
    bbbc:	00668333          	add	t1,a3,t1
    bbc0:	c8643423          	sd	t1,-888(s0)
    bbc4:	f2843283          	ld	t0,-216(s0)
    bbc8:	025706b3          	mul	a3,a4,t0
    bbcc:	c9843303          	ld	t1,-872(s0)
    bbd0:	00668333          	add	t1,a3,t1
    bbd4:	c8643c23          	sd	t1,-872(s0)
    bbd8:	f2043503          	ld	a0,-224(s0)
    bbdc:	02a706b3          	mul	a3,a4,a0
    bbe0:	ca043303          	ld	t1,-864(s0)
    bbe4:	00668333          	add	t1,a3,t1
    bbe8:	ca643023          	sd	t1,-864(s0)
    bbec:	f6843583          	ld	a1,-152(s0)
    bbf0:	02b706b3          	mul	a3,a4,a1
    bbf4:	ca843303          	ld	t1,-856(s0)
    bbf8:	00668333          	add	t1,a3,t1
    bbfc:	ca643423          	sd	t1,-856(s0)
    bc00:	f6043603          	ld	a2,-160(s0)
    bc04:	02c706b3          	mul	a3,a4,a2
    bc08:	c9043303          	ld	t1,-880(s0)
    bc0c:	00668333          	add	t1,a3,t1
    bc10:	c8643823          	sd	t1,-880(s0)
    bc14:	f5843783          	ld	a5,-168(s0)
    bc18:	02f706b3          	mul	a3,a4,a5
    bc1c:	cb043303          	ld	t1,-848(s0)
    bc20:	00668333          	add	t1,a3,t1
    bc24:	ca643823          	sd	t1,-848(s0)
    bc28:	f5043803          	ld	a6,-176(s0)
    bc2c:	030706b3          	mul	a3,a4,a6
    bc30:	cb843303          	ld	t1,-840(s0)
    bc34:	00668333          	add	t1,a3,t1
    bc38:	ca643c23          	sd	t1,-840(s0)
    bc3c:	f4843883          	ld	a7,-184(s0)
    bc40:	031706b3          	mul	a3,a4,a7
    bc44:	cc043303          	ld	t1,-832(s0)
    bc48:	00668333          	add	t1,a3,t1
    bc4c:	cc643023          	sd	t1,-832(s0)
    bc50:	027706b3          	mul	a3,a4,t2
    bc54:	cc843303          	ld	t1,-824(s0)
    bc58:	00668333          	add	t1,a3,t1
    bc5c:	cc643423          	sd	t1,-824(s0)
    bc60:	03e706b3          	mul	a3,a4,t5
    bc64:	cd043303          	ld	t1,-816(s0)
    bc68:	00668333          	add	t1,a3,t1
    bc6c:	cc643823          	sd	t1,-816(s0)
    bc70:	00090e13          	mv	t3,s2
    bc74:	032706b3          	mul	a3,a4,s2
    bc78:	cd843303          	ld	t1,-808(s0)
    bc7c:	00668333          	add	t1,a3,t1
    bc80:	cc643c23          	sd	t1,-808(s0)
    bc84:	f3043483          	ld	s1,-208(s0)
    bc88:	029706b3          	mul	a3,a4,s1
    bc8c:	ce043303          	ld	t1,-800(s0)
    bc90:	00668333          	add	t1,a3,t1
    bc94:	ce643023          	sd	t1,-800(s0)
    bc98:	f3843903          	ld	s2,-200(s0)
    bc9c:	032706b3          	mul	a3,a4,s2
    bca0:	ce843303          	ld	t1,-792(s0)
    bca4:	00668333          	add	t1,a3,t1
    bca8:	ce643423          	sd	t1,-792(s0)
    bcac:	f4043983          	ld	s3,-192(s0)
    bcb0:	033706b3          	mul	a3,a4,s3
    bcb4:	cf043303          	ld	t1,-784(s0)
    bcb8:	00668333          	add	t1,a3,t1
    bcbc:	ce643823          	sd	t1,-784(s0)
    bcc0:	ad043a83          	ld	s5,-1328(s0)
    bcc4:	035706b3          	mul	a3,a4,s5
    bcc8:	cf843303          	ld	t1,-776(s0)
    bccc:	00668333          	add	t1,a3,t1
    bcd0:	ce643c23          	sd	t1,-776(s0)
    bcd4:	af043383          	ld	t2,-1296(s0)
    bcd8:	027706b3          	mul	a3,a4,t2
    bcdc:	d0043303          	ld	t1,-768(s0)
    bce0:	00668333          	add	t1,a3,t1
    bce4:	d0643023          	sd	t1,-768(s0)
    bce8:	ad843d03          	ld	s10,-1320(s0)
    bcec:	03a706b3          	mul	a3,a4,s10
    bcf0:	d0843303          	ld	t1,-760(s0)
    bcf4:	00668333          	add	t1,a3,t1
    bcf8:	d0643423          	sd	t1,-760(s0)
    bcfc:	ae043d83          	ld	s11,-1312(s0)
    bd00:	03b706b3          	mul	a3,a4,s11
    bd04:	d1043303          	ld	t1,-752(s0)
    bd08:	00668333          	add	t1,a3,t1
    bd0c:	d0643823          	sd	t1,-752(s0)
    bd10:	ae843f03          	ld	t5,-1304(s0)
    bd14:	03e706b3          	mul	a3,a4,t5
    bd18:	d1843303          	ld	t1,-744(s0)
    bd1c:	00668333          	add	t1,a3,t1
    bd20:	d0643c23          	sd	t1,-744(s0)
    bd24:	039706b3          	mul	a3,a4,s9
    bd28:	d2043303          	ld	t1,-736(s0)
    bd2c:	00668333          	add	t1,a3,t1
    bd30:	d2643023          	sd	t1,-736(s0)
    bd34:	f8043683          	ld	a3,-128(s0)
    bd38:	02d706b3          	mul	a3,a4,a3
    bd3c:	d2843303          	ld	t1,-728(s0)
    bd40:	00668333          	add	t1,a3,t1
    bd44:	d2643423          	sd	t1,-728(s0)
    bd48:	03d706b3          	mul	a3,a4,t4
    bd4c:	d3043303          	ld	t1,-720(s0)
    bd50:	00668333          	add	t1,a3,t1
    bd54:	d2643823          	sd	t1,-720(s0)
    bd58:	034706b3          	mul	a3,a4,s4
    bd5c:	d3843303          	ld	t1,-712(s0)
    bd60:	00668333          	add	t1,a3,t1
    bd64:	d2643c23          	sd	t1,-712(s0)
    bd68:	ac843e83          	ld	t4,-1336(s0)
    bd6c:	03d706b3          	mul	a3,a4,t4
    bd70:	d4043303          	ld	t1,-704(s0)
    bd74:	00668333          	add	t1,a3,t1
    bd78:	d4643023          	sd	t1,-704(s0)
    bd7c:	036706b3          	mul	a3,a4,s6
    bd80:	d4843303          	ld	t1,-696(s0)
    bd84:	00668333          	add	t1,a3,t1
    bd88:	d4643423          	sd	t1,-696(s0)
    bd8c:	037706b3          	mul	a3,a4,s7
    bd90:	d5043303          	ld	t1,-688(s0)
    bd94:	00668333          	add	t1,a3,t1
    bd98:	d4643823          	sd	t1,-688(s0)
    bd9c:	ac043b03          	ld	s6,-1344(s0)
    bda0:	036706b3          	mul	a3,a4,s6
    bda4:	d5843303          	ld	t1,-680(s0)
    bda8:	00668333          	add	t1,a3,t1
    bdac:	d4643c23          	sd	t1,-680(s0)
    bdb0:	ab843b83          	ld	s7,-1352(s0)
    bdb4:	037706b3          	mul	a3,a4,s7
    bdb8:	d6043303          	ld	t1,-672(s0)
    bdbc:	00668333          	add	t1,a3,t1
    bdc0:	d6643023          	sd	t1,-672(s0)
    bdc4:	ab043c83          	ld	s9,-1360(s0)
    bdc8:	039706b3          	mul	a3,a4,s9
    bdcc:	d6843303          	ld	t1,-664(s0)
    bdd0:	00668333          	add	t1,a3,t1
    bdd4:	d6643423          	sd	t1,-664(s0)
    bdd8:	021706b3          	mul	a3,a4,ra
    bddc:	d7043303          	ld	t1,-656(s0)
    bde0:	00668333          	add	t1,a3,t1
    bde4:	d6643823          	sd	t1,-656(s0)
    bde8:	aa843083          	ld	ra,-1368(s0)
    bdec:	021706b3          	mul	a3,a4,ra
    bdf0:	d7843303          	ld	t1,-648(s0)
    bdf4:	00668333          	add	t1,a3,t1
    bdf8:	d6643c23          	sd	t1,-648(s0)
    bdfc:	f8843683          	ld	a3,-120(s0)
    be00:	0c068683          	lb	a3,192(a3)
    be04:	f7843303          	ld	t1,-136(s0)
    be08:	02670fb3          	mul	t6,a4,t1
    be0c:	d8043303          	ld	t1,-640(s0)
    be10:	006f8333          	add	t1,t6,t1
    be14:	d8643023          	sd	t1,-640(s0)
    be18:	f7043303          	ld	t1,-144(s0)
    be1c:	02670733          	mul	a4,a4,t1
    be20:	d8843303          	ld	t1,-632(s0)
    be24:	00670333          	add	t1,a4,t1
    be28:	d8643423          	sd	t1,-632(s0)
    be2c:	02568733          	mul	a4,a3,t0
    be30:	d9843f83          	ld	t6,-616(s0)
    be34:	01f70fb3          	add	t6,a4,t6
    be38:	d9f43c23          	sd	t6,-616(s0)
    be3c:	02a68733          	mul	a4,a3,a0
    be40:	da043f83          	ld	t6,-608(s0)
    be44:	01f70fb3          	add	t6,a4,t6
    be48:	dbf43023          	sd	t6,-608(s0)
    be4c:	02b68733          	mul	a4,a3,a1
    be50:	da843f83          	ld	t6,-600(s0)
    be54:	01f70fb3          	add	t6,a4,t6
    be58:	dbf43423          	sd	t6,-600(s0)
    be5c:	02c68733          	mul	a4,a3,a2
    be60:	d9043f83          	ld	t6,-624(s0)
    be64:	01f70fb3          	add	t6,a4,t6
    be68:	d9f43823          	sd	t6,-624(s0)
    be6c:	02f68733          	mul	a4,a3,a5
    be70:	db043f83          	ld	t6,-592(s0)
    be74:	01f70fb3          	add	t6,a4,t6
    be78:	dbf43823          	sd	t6,-592(s0)
    be7c:	03068733          	mul	a4,a3,a6
    be80:	db843f83          	ld	t6,-584(s0)
    be84:	01f70fb3          	add	t6,a4,t6
    be88:	dbf43c23          	sd	t6,-584(s0)
    be8c:	03168733          	mul	a4,a3,a7
    be90:	dc043f83          	ld	t6,-576(s0)
    be94:	01f70fb3          	add	t6,a4,t6
    be98:	ddf43023          	sd	t6,-576(s0)
    be9c:	f1043283          	ld	t0,-240(s0)
    bea0:	02568733          	mul	a4,a3,t0
    bea4:	dc843f83          	ld	t6,-568(s0)
    bea8:	01f70fb3          	add	t6,a4,t6
    beac:	ddf43423          	sd	t6,-568(s0)
    beb0:	f0843883          	ld	a7,-248(s0)
    beb4:	03168733          	mul	a4,a3,a7
    beb8:	dd043f83          	ld	t6,-560(s0)
    bebc:	01f70fb3          	add	t6,a4,t6
    bec0:	ddf43823          	sd	t6,-560(s0)
    bec4:	03c68733          	mul	a4,a3,t3
    bec8:	dd843f83          	ld	t6,-552(s0)
    becc:	01f70fb3          	add	t6,a4,t6
    bed0:	ddf43c23          	sd	t6,-552(s0)
    bed4:	02968733          	mul	a4,a3,s1
    bed8:	de043f83          	ld	t6,-544(s0)
    bedc:	01f70fb3          	add	t6,a4,t6
    bee0:	dff43023          	sd	t6,-544(s0)
    bee4:	03268733          	mul	a4,a3,s2
    bee8:	bd043f83          	ld	t6,-1072(s0)
    beec:	01f70fb3          	add	t6,a4,t6
    bef0:	bdf43823          	sd	t6,-1072(s0)
    bef4:	03368733          	mul	a4,a3,s3
    bef8:	df043f83          	ld	t6,-528(s0)
    befc:	01f70fb3          	add	t6,a4,t6
    bf00:	dff43823          	sd	t6,-528(s0)
    bf04:	03568733          	mul	a4,a3,s5
    bf08:	000a8993          	mv	s3,s5
    bf0c:	de843f83          	ld	t6,-536(s0)
    bf10:	01f70fb3          	add	t6,a4,t6
    bf14:	dff43423          	sd	t6,-536(s0)
    bf18:	00038a93          	mv	s5,t2
    bf1c:	02768733          	mul	a4,a3,t2
    bf20:	df843f83          	ld	t6,-520(s0)
    bf24:	01f70fb3          	add	t6,a4,t6
    bf28:	dff43c23          	sd	t6,-520(s0)
    bf2c:	03a68733          	mul	a4,a3,s10
    bf30:	000d0913          	mv	s2,s10
    bf34:	e0043f83          	ld	t6,-512(s0)
    bf38:	01f70fb3          	add	t6,a4,t6
    bf3c:	e1f43023          	sd	t6,-512(s0)
    bf40:	03b68733          	mul	a4,a3,s11
    bf44:	e0843f83          	ld	t6,-504(s0)
    bf48:	01f70fb3          	add	t6,a4,t6
    bf4c:	e1f43423          	sd	t6,-504(s0)
    bf50:	03e68733          	mul	a4,a3,t5
    bf54:	000f0493          	mv	s1,t5
    bf58:	e1043f83          	ld	t6,-496(s0)
    bf5c:	01f70fb3          	add	t6,a4,t6
    bf60:	e1f43823          	sd	t6,-496(s0)
    bf64:	aa043803          	ld	a6,-1376(s0)
    bf68:	03068733          	mul	a4,a3,a6
    bf6c:	e1843f83          	ld	t6,-488(s0)
    bf70:	01f70fb3          	add	t6,a4,t6
    bf74:	e1f43c23          	sd	t6,-488(s0)
    bf78:	f8043d03          	ld	s10,-128(s0)
    bf7c:	03a68733          	mul	a4,a3,s10
    bf80:	e2043f83          	ld	t6,-480(s0)
    bf84:	01f70fb3          	add	t6,a4,t6
    bf88:	e3f43023          	sd	t6,-480(s0)
    bf8c:	a9843603          	ld	a2,-1384(s0)
    bf90:	02c68733          	mul	a4,a3,a2
    bf94:	e2843f83          	ld	t6,-472(s0)
    bf98:	01f70fb3          	add	t6,a4,t6
    bf9c:	e3f43423          	sd	t6,-472(s0)
    bfa0:	03468733          	mul	a4,a3,s4
    bfa4:	e3043f83          	ld	t6,-464(s0)
    bfa8:	01f70fb3          	add	t6,a4,t6
    bfac:	e3f43823          	sd	t6,-464(s0)
    bfb0:	000e8593          	mv	a1,t4
    bfb4:	03d68733          	mul	a4,a3,t4
    bfb8:	e3843f83          	ld	t6,-456(s0)
    bfbc:	01f70fb3          	add	t6,a4,t6
    bfc0:	e3f43c23          	sd	t6,-456(s0)
    bfc4:	a9043503          	ld	a0,-1392(s0)
    bfc8:	02a68733          	mul	a4,a3,a0
    bfcc:	e4043f83          	ld	t6,-448(s0)
    bfd0:	01f70fb3          	add	t6,a4,t6
    bfd4:	e5f43023          	sd	t6,-448(s0)
    bfd8:	f1843783          	ld	a5,-232(s0)
    bfdc:	02f68733          	mul	a4,a3,a5
    bfe0:	e4843f83          	ld	t6,-440(s0)
    bfe4:	01f70fb3          	add	t6,a4,t6
    bfe8:	e5f43423          	sd	t6,-440(s0)
    bfec:	000b0313          	mv	t1,s6
    bff0:	03668733          	mul	a4,a3,s6
    bff4:	e5043f83          	ld	t6,-432(s0)
    bff8:	01f70fb3          	add	t6,a4,t6
    bffc:	e5f43823          	sd	t6,-432(s0)
    c000:	03768733          	mul	a4,a3,s7
    c004:	e5843f83          	ld	t6,-424(s0)
    c008:	01f70fb3          	add	t6,a4,t6
    c00c:	e5f43c23          	sd	t6,-424(s0)
    c010:	03968733          	mul	a4,a3,s9
    c014:	e6043f83          	ld	t6,-416(s0)
    c018:	01f70fb3          	add	t6,a4,t6
    c01c:	e7f43023          	sd	t6,-416(s0)
    c020:	a8843e83          	ld	t4,-1400(s0)
    c024:	03d68733          	mul	a4,a3,t4
    c028:	e6843f83          	ld	t6,-408(s0)
    c02c:	01f70fb3          	add	t6,a4,t6
    c030:	e7f43423          	sd	t6,-408(s0)
    c034:	02168733          	mul	a4,a3,ra
    c038:	e7043f83          	ld	t6,-400(s0)
    c03c:	01f70fb3          	add	t6,a4,t6
    c040:	e7f43823          	sd	t6,-400(s0)
    c044:	f8843703          	ld	a4,-120(s0)
    c048:	12070f83          	lb	t6,288(a4)
    c04c:	f7843383          	ld	t2,-136(s0)
    c050:	02768733          	mul	a4,a3,t2
    c054:	e7843f03          	ld	t5,-392(s0)
    c058:	01e70f33          	add	t5,a4,t5
    c05c:	e7e43c23          	sd	t5,-392(s0)
    c060:	f7043f03          	ld	t5,-144(s0)
    c064:	03e686b3          	mul	a3,a3,t5
    c068:	c4043703          	ld	a4,-960(s0)
    c06c:	00e68733          	add	a4,a3,a4
    c070:	c4e43023          	sd	a4,-960(s0)
    c074:	03ef86b3          	mul	a3,t6,t5
    c078:	f6d43823          	sd	a3,-144(s0)
    c07c:	027f86b3          	mul	a3,t6,t2
    c080:	f6d43c23          	sd	a3,-136(s0)
    c084:	021f86b3          	mul	a3,t6,ra
    c088:	aad43423          	sd	a3,-1368(s0)
    c08c:	03df86b3          	mul	a3,t6,t4
    c090:	a8d43423          	sd	a3,-1400(s0)
    c094:	039f86b3          	mul	a3,t6,s9
    c098:	aad43823          	sd	a3,-1360(s0)
    c09c:	037f86b3          	mul	a3,t6,s7
    c0a0:	aad43c23          	sd	a3,-1352(s0)
    c0a4:	036f86b3          	mul	a3,t6,s6
    c0a8:	acd43023          	sd	a3,-1344(s0)
    c0ac:	02ff86b3          	mul	a3,t6,a5
    c0b0:	a8d43023          	sd	a3,-1408(s0)
    c0b4:	02af8533          	mul	a0,t6,a0
    c0b8:	f0a43c23          	sd	a0,-232(s0)
    c0bc:	02bf8533          	mul	a0,t6,a1
    c0c0:	aca43423          	sd	a0,-1336(s0)
    c0c4:	034f8e33          	mul	t3,t6,s4
    c0c8:	02cf8cb3          	mul	s9,t6,a2
    c0cc:	03af8d33          	mul	s10,t6,s10
    c0d0:	030f8333          	mul	t1,t6,a6
    c0d4:	029f87b3          	mul	a5,t6,s1
    c0d8:	03bf8bb3          	mul	s7,t6,s11
    c0dc:	032f8733          	mul	a4,t6,s2
    c0e0:	035f86b3          	mul	a3,t6,s5
    c0e4:	033f8a33          	mul	s4,t6,s3
    c0e8:	f4043503          	ld	a0,-192(s0)
    c0ec:	02af89b3          	mul	s3,t6,a0
    c0f0:	f3843503          	ld	a0,-200(s0)
    c0f4:	02af8933          	mul	s2,t6,a0
    c0f8:	f3043503          	ld	a0,-208(s0)
    c0fc:	02af84b3          	mul	s1,t6,a0
    c100:	f0043503          	ld	a0,-256(s0)
    c104:	02af8db3          	mul	s11,t6,a0
    c108:	031f80b3          	mul	ra,t6,a7
    c10c:	025f8f33          	mul	t5,t6,t0
    c110:	f4843503          	ld	a0,-184(s0)
    c114:	02af8633          	mul	a2,t6,a0
    c118:	f5043503          	ld	a0,-176(s0)
    c11c:	02af85b3          	mul	a1,t6,a0
    c120:	f5843503          	ld	a0,-168(s0)
    c124:	02af8533          	mul	a0,t6,a0
    c128:	f6043803          	ld	a6,-160(s0)
    c12c:	030f83b3          	mul	t2,t6,a6
    c130:	f6843803          	ld	a6,-152(s0)
    c134:	030f82b3          	mul	t0,t6,a6
    c138:	f2043803          	ld	a6,-224(s0)
    c13c:	030f8833          	mul	a6,t6,a6
    c140:	f2843883          	ld	a7,-216(s0)
    c144:	031f8fb3          	mul	t6,t6,a7
    c148:	e9043883          	ld	a7,-368(s0)
    c14c:	011f88b3          	add	a7,t6,a7
    c150:	e9143823          	sd	a7,-368(s0)
    c154:	b3843e83          	ld	t4,-1224(s0)
    c158:	e9843883          	ld	a7,-360(s0)
    c15c:	011808b3          	add	a7,a6,a7
    c160:	e9143c23          	sd	a7,-360(s0)
    c164:	ea043f83          	ld	t6,-352(s0)
    c168:	01f28fb3          	add	t6,t0,t6
    c16c:	b6043b03          	ld	s6,-1184(s0)
    c170:	e8843803          	ld	a6,-376(s0)
    c174:	01038833          	add	a6,t2,a6
    c178:	e9043423          	sd	a6,-376(s0)
    c17c:	b5043a83          	ld	s5,-1200(s0)
    c180:	ea843803          	ld	a6,-344(s0)
    c184:	01050833          	add	a6,a0,a6
    c188:	eb043423          	sd	a6,-344(s0)
    c18c:	eb043503          	ld	a0,-336(s0)
    c190:	00a58533          	add	a0,a1,a0
    c194:	eaa43823          	sd	a0,-336(s0)
    c198:	eb843503          	ld	a0,-328(s0)
    c19c:	00a60533          	add	a0,a2,a0
    c1a0:	eaa43c23          	sd	a0,-328(s0)
    c1a4:	ec043503          	ld	a0,-320(s0)
    c1a8:	00af0533          	add	a0,t5,a0
    c1ac:	eca43023          	sd	a0,-320(s0)
    c1b0:	bb043803          	ld	a6,-1104(s0)
    c1b4:	ec843283          	ld	t0,-312(s0)
    c1b8:	005082b3          	add	t0,ra,t0
    c1bc:	ed843083          	ld	ra,-296(s0)
    c1c0:	ed043503          	ld	a0,-304(s0)
    c1c4:	00ad8533          	add	a0,s11,a0
    c1c8:	eca43823          	sd	a0,-304(s0)
    c1cc:	b0043f03          	ld	t5,-1280(s0)
    c1d0:	001480b3          	add	ra,s1,ra
    c1d4:	b3043383          	ld	t2,-1232(s0)
    c1d8:	c3843503          	ld	a0,-968(s0)
    c1dc:	00a90533          	add	a0,s2,a0
    c1e0:	c2a43c23          	sd	a0,-968(s0)
    c1e4:	b2843903          	ld	s2,-1240(s0)
    c1e8:	e8043503          	ld	a0,-384(s0)
    c1ec:	00a98533          	add	a0,s3,a0
    c1f0:	e8a43023          	sd	a0,-384(s0)
    c1f4:	b2043983          	ld	s3,-1248(s0)
    c1f8:	ee843503          	ld	a0,-280(s0)
    c1fc:	00aa0533          	add	a0,s4,a0
    c200:	eea43423          	sd	a0,-280(s0)
    c204:	b1843a03          	ld	s4,-1256(s0)
    c208:	ee043503          	ld	a0,-288(s0)
    c20c:	00a68533          	add	a0,a3,a0
    c210:	eea43023          	sd	a0,-288(s0)
    c214:	b1043d83          	ld	s11,-1264(s0)
    c218:	c6043503          	ld	a0,-928(s0)
    c21c:	00a70533          	add	a0,a4,a0
    c220:	f8843683          	ld	a3,-120(s0)
    c224:	c6a43023          	sd	a0,-928(s0)
    c228:	01eb8f33          	add	t5,s7,t5
    c22c:	b0843883          	ld	a7,-1272(s0)
    c230:	ef043503          	ld	a0,-272(s0)
    c234:	00a78533          	add	a0,a5,a0
    c238:	eea43823          	sd	a0,-272(s0)
    c23c:	011308b3          	add	a7,t1,a7
    c240:	ef843503          	ld	a0,-264(s0)
    c244:	00ad0533          	add	a0,s10,a0
    c248:	eea43c23          	sd	a0,-264(s0)
    c24c:	af843503          	ld	a0,-1288(s0)
    c250:	01bc8db3          	add	s11,s9,s11
    c254:	b4043703          	ld	a4,-1216(s0)
    c258:	014e0a33          	add	s4,t3,s4
    c25c:	b4843483          	ld	s1,-1208(s0)
    c260:	ac843583          	ld	a1,-1336(s0)
    c264:	013589b3          	add	s3,a1,s3
    c268:	b5843303          	ld	t1,-1192(s0)
    c26c:	f1843583          	ld	a1,-232(s0)
    c270:	01258933          	add	s2,a1,s2
    c274:	a8043583          	ld	a1,-1408(s0)
    c278:	007583b3          	add	t2,a1,t2
    c27c:	b6843783          	ld	a5,-1176(s0)
    c280:	b7043603          	ld	a2,-1168(s0)
    c284:	b7843583          	ld	a1,-1160(s0)
    c288:	ac043e03          	ld	t3,-1344(s0)
    c28c:	01de0eb3          	add	t4,t3,t4
    c290:	ab843e03          	ld	t3,-1352(s0)
    c294:	010e0833          	add	a6,t3,a6
    c298:	bb043823          	sd	a6,-1104(s0)
    c29c:	ab043803          	ld	a6,-1360(s0)
    c2a0:	00e80733          	add	a4,a6,a4
    c2a4:	a8843803          	ld	a6,-1400(s0)
    c2a8:	009804b3          	add	s1,a6,s1
    c2ac:	aa843803          	ld	a6,-1368(s0)
    c2b0:	01580ab3          	add	s5,a6,s5
    c2b4:	f7843803          	ld	a6,-136(s0)
    c2b8:	00680333          	add	t1,a6,t1
    c2bc:	f7043803          	ld	a6,-144(s0)
    c2c0:	01680b33          	add	s6,a6,s6
    c2c4:	240c0c13          	addi	s8,s8,576
    c2c8:	dc050513          	addi	a0,a0,-576
    c2cc:	00168693          	addi	a3,a3,1
    c2d0:	d8051863          	bnez	a0,b860 <.LBB71_1033>
    c2d4:	b9843783          	ld	a5,-1128(s0)
    c2d8:	b9043d03          	ld	s10,-1136(s0)
    c2dc:	b8843e03          	ld	t3,-1144(s0)
    c2e0:	ebf43023          	sd	t6,-352(s0)
    c2e4:	ec543423          	sd	t0,-312(s0)
    c2e8:	a4043503          	ld	a0,-1472(s0)
    c2ec:	00251513          	slli	a0,a0,0x2
    c2f0:	000015b7          	lui	a1,0x1
    c2f4:	40b405b3          	sub	a1,s0,a1
    c2f8:	d105b583          	ld	a1,-752(a1) # d10 <.LBB71_3+0xa98>
    c2fc:	00a585b3          	add	a1,a1,a0
    c300:	00c5ac83          	lw	s9,12(a1)
    c304:	00001637          	lui	a2,0x1
    c308:	40c40633          	sub	a2,s0,a2
    c30c:	cb863603          	ld	a2,-840(a2) # cb8 <.LBB71_3+0xa40>
    c310:	30062603          	lw	a2,768(a2)
    c314:	000016b7          	lui	a3,0x1
    c318:	40d406b3          	sub	a3,s0,a3
    c31c:	d086b683          	ld	a3,-760(a3) # d08 <.LBB71_3+0xa90>
    c320:	00a68533          	add	a0,a3,a0
    c324:	00c52683          	lw	a3,12(a0)
    c328:	00600813          	li	a6,6
    c32c:	03060833          	mul	a6,a2,a6
    c330:	ad943c23          	sd	s9,-1320(s0)
    c334:	ba043603          	ld	a2,-1120(s0)
    c338:	01960633          	add	a2,a2,s9
    c33c:	acd43823          	sd	a3,-1328(s0)
    c340:	010686b3          	add	a3,a3,a6
    c344:	40d6063b          	subw	a2,a2,a3
    c348:	2406061b          	addiw	a2,a2,576
    c34c:	400006b7          	lui	a3,0x40000
    c350:	000012b7          	lui	t0,0x1
    c354:	405402b3          	sub	t0,s0,t0
    c358:	6ac2b023          	sd	a2,1696(t0) # 16a0 <.LBB71_4+0x4a0>
    c35c:	00065463          	bgez	a2,c364 <.LBB71_1036>
    c360:	c00006b7          	lui	a3,0xc0000

000000000000c364 <.LBB71_1036>:
    c364:	00001637          	lui	a2,0x1
    c368:	40c40633          	sub	a2,s0,a2
    c36c:	68d63023          	sd	a3,1664(a2) # 1680 <.LBB71_4+0x480>
    c370:	0085a603          	lw	a2,8(a1)
    c374:	00852683          	lw	a3,8(a0)
    c378:	acc43423          	sd	a2,-1336(s0)
    c37c:	00c78633          	add	a2,a5,a2
    c380:	acd43023          	sd	a3,-1344(s0)
    c384:	010686b3          	add	a3,a3,a6
    c388:	40d6063b          	subw	a2,a2,a3
    c38c:	2406061b          	addiw	a2,a2,576
    c390:	400006b7          	lui	a3,0x40000
    c394:	000017b7          	lui	a5,0x1
    c398:	40f407b3          	sub	a5,s0,a5
    c39c:	6ac7bc23          	sd	a2,1720(a5) # 16b8 <.LBB71_4+0x4b8>
    c3a0:	ba843783          	ld	a5,-1112(s0)
    c3a4:	bc043f83          	ld	t6,-1088(s0)
    c3a8:	bb843c83          	ld	s9,-1096(s0)
    c3ac:	00065463          	bgez	a2,c3b4 <.LBB71_1038>
    c3b0:	c00006b7          	lui	a3,0xc0000

000000000000c3b4 <.LBB71_1038>:
    c3b4:	00001637          	lui	a2,0x1
    c3b8:	40c40633          	sub	a2,s0,a2
    c3bc:	68d63c23          	sd	a3,1688(a2) # 1698 <.LBB71_4+0x498>
    c3c0:	ec143c23          	sd	ra,-296(s0)
    c3c4:	0045a603          	lw	a2,4(a1)
    c3c8:	00452683          	lw	a3,4(a0)
    c3cc:	aac43c23          	sd	a2,-1352(s0)
    c3d0:	b8043283          	ld	t0,-1152(s0)
    c3d4:	00c28633          	add	a2,t0,a2
    c3d8:	aad43823          	sd	a3,-1360(s0)
    c3dc:	010686b3          	add	a3,a3,a6
    c3e0:	40d6063b          	subw	a2,a2,a3
    c3e4:	2406061b          	addiw	a2,a2,576
    c3e8:	400006b7          	lui	a3,0x40000
    c3ec:	000012b7          	lui	t0,0x1
    c3f0:	405402b3          	sub	t0,s0,t0
    c3f4:	6cc2b423          	sd	a2,1736(t0) # 16c8 <.LBB71_4+0x4c8>
    c3f8:	00065463          	bgez	a2,c400 <.LBB71_1040>
    c3fc:	c00006b7          	lui	a3,0xc0000

000000000000c400 <.LBB71_1040>:
    c400:	00001637          	lui	a2,0x1
    c404:	40c40633          	sub	a2,s0,a2
    c408:	6ad63423          	sd	a3,1704(a2) # 16a8 <.LBB71_4+0x4a8>
    c40c:	0005a603          	lw	a2,0(a1)
    c410:	00052683          	lw	a3,0(a0)
    c414:	aac43423          	sd	a2,-1368(s0)
    c418:	00cc8633          	add	a2,s9,a2
    c41c:	aad43023          	sd	a3,-1376(s0)
    c420:	010686b3          	add	a3,a3,a6
    c424:	40d6063b          	subw	a2,a2,a3
    c428:	2406061b          	addiw	a2,a2,576
    c42c:	400006b7          	lui	a3,0x40000
    c430:	000012b7          	lui	t0,0x1
    c434:	405402b3          	sub	t0,s0,t0
    c438:	5782bc83          	ld	s9,1400(t0) # 1578 <.LBB71_4+0x378>
    c43c:	000012b7          	lui	t0,0x1
    c440:	405402b3          	sub	t0,s0,t0
    c444:	5702b083          	ld	ra,1392(t0) # 1570 <.LBB71_4+0x370>
    c448:	000012b7          	lui	t0,0x1
    c44c:	405402b3          	sub	t0,s0,t0
    c450:	6ec2b023          	sd	a2,1760(t0) # 16e0 <.LBB71_4+0x4e0>
    c454:	00065463          	bgez	a2,c45c <.LBB71_1042>
    c458:	c00006b7          	lui	a3,0xc0000

000000000000c45c <.LBB71_1042>:
    c45c:	00001637          	lui	a2,0x1
    c460:	40c40633          	sub	a2,s0,a2
    c464:	6cd63023          	sd	a3,1728(a2) # 16c0 <.LBB71_4+0x4c0>
    c468:	0105a603          	lw	a2,16(a1)
    c46c:	01052683          	lw	a3,16(a0)
    c470:	a8c43c23          	sd	a2,-1384(s0)
    c474:	00cf8633          	add	a2,t6,a2
    c478:	a8d43823          	sd	a3,-1392(s0)
    c47c:	010686b3          	add	a3,a3,a6
    c480:	40d6063b          	subw	a2,a2,a3
    c484:	2406061b          	addiw	a2,a2,576
    c488:	400006b7          	lui	a3,0x40000
    c48c:	000012b7          	lui	t0,0x1
    c490:	405402b3          	sub	t0,s0,t0
    c494:	6ec2bc23          	sd	a2,1784(t0) # 16f8 <.LBB71_4+0x4f8>
    c498:	00065463          	bgez	a2,c4a0 <.LBB71_1044>
    c49c:	c00006b7          	lui	a3,0xc0000

000000000000c4a0 <.LBB71_1044>:
    c4a0:	00001637          	lui	a2,0x1
    c4a4:	40c40633          	sub	a2,s0,a2
    c4a8:	6cd63c23          	sd	a3,1752(a2) # 16d8 <.LBB71_4+0x4d8>
    c4ac:	0145a603          	lw	a2,20(a1)
    c4b0:	01452683          	lw	a3,20(a0)
    c4b4:	a8c43423          	sd	a2,-1400(s0)
    c4b8:	00c78633          	add	a2,a5,a2
    c4bc:	a8d43023          	sd	a3,-1408(s0)
    c4c0:	010686b3          	add	a3,a3,a6
    c4c4:	40d6063b          	subw	a2,a2,a3
    c4c8:	2406061b          	addiw	a2,a2,576
    c4cc:	400006b7          	lui	a3,0x40000
    c4d0:	000017b7          	lui	a5,0x1
    c4d4:	40f407b3          	sub	a5,s0,a5
    c4d8:	70c7b423          	sd	a2,1800(a5) # 1708 <.LBB71_4+0x508>
    c4dc:	00065463          	bgez	a2,c4e4 <.LBB71_1046>
    c4e0:	c00006b7          	lui	a3,0xc0000

000000000000c4e4 <.LBB71_1046>:
    c4e4:	00001637          	lui	a2,0x1
    c4e8:	40c40633          	sub	a2,s0,a2
    c4ec:	6ed63423          	sd	a3,1768(a2) # 16e8 <.LBB71_4+0x4e8>
    c4f0:	0185a603          	lw	a2,24(a1)
    c4f4:	01852683          	lw	a3,24(a0)
    c4f8:	a6c43c23          	sd	a2,-1416(s0)
    c4fc:	00cd0633          	add	a2,s10,a2
    c500:	a6d43823          	sd	a3,-1424(s0)
    c504:	010686b3          	add	a3,a3,a6
    c508:	40d6063b          	subw	a2,a2,a3
    c50c:	2406061b          	addiw	a2,a2,576
    c510:	400006b7          	lui	a3,0x40000
    c514:	000017b7          	lui	a5,0x1
    c518:	40f407b3          	sub	a5,s0,a5
    c51c:	72c7b023          	sd	a2,1824(a5) # 1720 <.LBB71_4+0x520>
    c520:	00065463          	bgez	a2,c528 <.LBB71_1048>
    c524:	c00006b7          	lui	a3,0xc0000

000000000000c528 <.LBB71_1048>:
    c528:	00001637          	lui	a2,0x1
    c52c:	40c40633          	sub	a2,s0,a2
    c530:	70d63023          	sd	a3,1792(a2) # 1700 <.LBB71_4+0x500>
    c534:	01c5a603          	lw	a2,28(a1)
    c538:	01c52683          	lw	a3,28(a0)
    c53c:	a6c43423          	sd	a2,-1432(s0)
    c540:	bc843783          	ld	a5,-1080(s0)
    c544:	00c78633          	add	a2,a5,a2
    c548:	a6d43023          	sd	a3,-1440(s0)
    c54c:	010686b3          	add	a3,a3,a6
    c550:	40d6063b          	subw	a2,a2,a3
    c554:	2406061b          	addiw	a2,a2,576
    c558:	400006b7          	lui	a3,0x40000
    c55c:	000017b7          	lui	a5,0x1
    c560:	40f407b3          	sub	a5,s0,a5
    c564:	72c7bc23          	sd	a2,1848(a5) # 1738 <.LBB71_5+0x4>
    c568:	00065463          	bgez	a2,c570 <.LBB71_1050>
    c56c:	c00006b7          	lui	a3,0xc0000

000000000000c570 <.LBB71_1050>:
    c570:	00001637          	lui	a2,0x1
    c574:	40c40633          	sub	a2,s0,a2
    c578:	70d63c23          	sd	a3,1816(a2) # 1718 <.LBB71_4+0x518>
    c57c:	0205a603          	lw	a2,32(a1)
    c580:	02052683          	lw	a3,32(a0)
    c584:	a4c43c23          	sd	a2,-1448(s0)
    c588:	00ce0633          	add	a2,t3,a2
    c58c:	a4d43823          	sd	a3,-1456(s0)
    c590:	010686b3          	add	a3,a3,a6
    c594:	40d6063b          	subw	a2,a2,a3
    c598:	2406061b          	addiw	a2,a2,576
    c59c:	400006b7          	lui	a3,0x40000
    c5a0:	000017b7          	lui	a5,0x1
    c5a4:	40f407b3          	sub	a5,s0,a5
    c5a8:	74c7b023          	sd	a2,1856(a5) # 1740 <.LBB71_5+0xc>
    c5ac:	00065463          	bgez	a2,c5b4 <.LBB71_1052>
    c5b0:	c00006b7          	lui	a3,0xc0000

000000000000c5b4 <.LBB71_1052>:
    c5b4:	00001637          	lui	a2,0x1
    c5b8:	40c40633          	sub	a2,s0,a2
    c5bc:	72d63423          	sd	a3,1832(a2) # 1728 <.LBB71_4+0x528>
    c5c0:	0245a683          	lw	a3,36(a1)
    c5c4:	0285a603          	lw	a2,40(a1)
    c5c8:	aec43c23          	sd	a2,-1288(s0)
    c5cc:	02c5a603          	lw	a2,44(a1)
    c5d0:	b0c43423          	sd	a2,-1272(s0)
    c5d4:	0305a603          	lw	a2,48(a1)
    c5d8:	b0c43c23          	sd	a2,-1256(s0)
    c5dc:	0345a603          	lw	a2,52(a1)
    c5e0:	b2c43423          	sd	a2,-1240(s0)
    c5e4:	0385a603          	lw	a2,56(a1)
    c5e8:	b2c43c23          	sd	a2,-1224(s0)
    c5ec:	03c5a603          	lw	a2,60(a1)
    c5f0:	b4c43423          	sd	a2,-1208(s0)
    c5f4:	0405a603          	lw	a2,64(a1)
    c5f8:	b4c43c23          	sd	a2,-1192(s0)
    c5fc:	0445a603          	lw	a2,68(a1)
    c600:	b8c43023          	sd	a2,-1152(s0)
    c604:	0485a603          	lw	a2,72(a1)
    c608:	b8c43823          	sd	a2,-1136(s0)
    c60c:	04c5a603          	lw	a2,76(a1)
    c610:	bac43023          	sd	a2,-1120(s0)
    c614:	0505a603          	lw	a2,80(a1)
    c618:	bac43c23          	sd	a2,-1096(s0)
    c61c:	0545a603          	lw	a2,84(a1)
    c620:	bcc43423          	sd	a2,-1080(s0)
    c624:	0585a603          	lw	a2,88(a1)
    c628:	f0c43423          	sd	a2,-248(s0)
    c62c:	05c5a603          	lw	a2,92(a1)
    c630:	f0c43c23          	sd	a2,-232(s0)
    c634:	0605a603          	lw	a2,96(a1)
    c638:	f2c43423          	sd	a2,-216(s0)
    c63c:	0645a603          	lw	a2,100(a1)
    c640:	f2c43c23          	sd	a2,-200(s0)
    c644:	0685a603          	lw	a2,104(a1)
    c648:	f4c43423          	sd	a2,-184(s0)
    c64c:	06c5a603          	lw	a2,108(a1)
    c650:	f4c43c23          	sd	a2,-168(s0)
    c654:	0705a603          	lw	a2,112(a1)
    c658:	f6c43423          	sd	a2,-152(s0)
    c65c:	0745a603          	lw	a2,116(a1)
    c660:	f6c43c23          	sd	a2,-136(s0)
    c664:	0785a603          	lw	a2,120(a1)
    c668:	f8c43023          	sd	a2,-128(s0)
    c66c:	07c5a583          	lw	a1,124(a1)
    c670:	f8b43423          	sd	a1,-120(s0)
    c674:	02452783          	lw	a5,36(a0)
    c678:	02852583          	lw	a1,40(a0)
    c67c:	aeb43023          	sd	a1,-1312(s0)
    c680:	02c52583          	lw	a1,44(a0)
    c684:	aeb43423          	sd	a1,-1304(s0)
    c688:	03052583          	lw	a1,48(a0)
    c68c:	aeb43823          	sd	a1,-1296(s0)
    c690:	03452583          	lw	a1,52(a0)
    c694:	b0b43023          	sd	a1,-1280(s0)
    c698:	03852583          	lw	a1,56(a0)
    c69c:	b0b43823          	sd	a1,-1264(s0)
    c6a0:	03c52583          	lw	a1,60(a0)
    c6a4:	b2b43023          	sd	a1,-1248(s0)
    c6a8:	04052583          	lw	a1,64(a0)
    c6ac:	b2b43823          	sd	a1,-1232(s0)
    c6b0:	04452583          	lw	a1,68(a0)
    c6b4:	b4b43023          	sd	a1,-1216(s0)
    c6b8:	04852583          	lw	a1,72(a0)
    c6bc:	b4b43823          	sd	a1,-1200(s0)
    c6c0:	04c52583          	lw	a1,76(a0)
    c6c4:	b6b43023          	sd	a1,-1184(s0)
    c6c8:	05052583          	lw	a1,80(a0)
    c6cc:	b8b43423          	sd	a1,-1144(s0)
    c6d0:	05452583          	lw	a1,84(a0)
    c6d4:	b8b43c23          	sd	a1,-1128(s0)
    c6d8:	05852583          	lw	a1,88(a0)
    c6dc:	bab43423          	sd	a1,-1112(s0)
    c6e0:	05c52583          	lw	a1,92(a0)
    c6e4:	bcb43023          	sd	a1,-1088(s0)
    c6e8:	06052583          	lw	a1,96(a0)
    c6ec:	f0b43023          	sd	a1,-256(s0)
    c6f0:	06452583          	lw	a1,100(a0)
    c6f4:	f0b43823          	sd	a1,-240(s0)
    c6f8:	06852583          	lw	a1,104(a0)
    c6fc:	f2b43023          	sd	a1,-224(s0)
    c700:	06c52583          	lw	a1,108(a0)
    c704:	f2b43823          	sd	a1,-208(s0)
    c708:	07052583          	lw	a1,112(a0)
    c70c:	f4b43023          	sd	a1,-192(s0)
    c710:	07452583          	lw	a1,116(a0)
    c714:	f4b43823          	sd	a1,-176(s0)
    c718:	07852583          	lw	a1,120(a0)
    c71c:	f6b43023          	sd	a1,-160(s0)
    c720:	07c52503          	lw	a0,124(a0)
    c724:	f6a43823          	sd	a0,-144(s0)
    c728:	a4d43423          	sd	a3,-1464(s0)
    c72c:	bd843583          	ld	a1,-1064(s0)
    c730:	00d585b3          	add	a1,a1,a3
    c734:	00001537          	lui	a0,0x1
    c738:	40a40533          	sub	a0,s0,a0
    c73c:	cb853603          	ld	a2,-840(a0) # cb8 <.LBB71_3+0xa40>
    c740:	30462503          	lw	a0,772(a2)
    c744:	30862683          	lw	a3,776(a2)
    c748:	30c62603          	lw	a2,780(a2)
    c74c:	000012b7          	lui	t0,0x1
    c750:	405402b3          	sub	t0,s0,t0
    c754:	5ac2b023          	sd	a2,1440(t0) # 15a0 <.LBB71_4+0x3a0>
    c758:	bcf43c23          	sd	a5,-1064(s0)
    c75c:	01078633          	add	a2,a5,a6
    c760:	40c585bb          	subw	a1,a1,a2
    c764:	2405859b          	addiw	a1,a1,576
    c768:	40000637          	lui	a2,0x40000
    c76c:	000017b7          	lui	a5,0x1
    c770:	40f407b3          	sub	a5,s0,a5
    c774:	5ab7b823          	sd	a1,1456(a5) # 15b0 <.LBB71_4+0x3b0>
    c778:	0005d463          	bgez	a1,c780 <.LBB71_1054>
    c77c:	c0000637          	lui	a2,0xc0000

000000000000c780 <.LBB71_1054>:
    c780:	000015b7          	lui	a1,0x1
    c784:	40b405b3          	sub	a1,s0,a1
    c788:	5ac5b423          	sd	a2,1448(a1) # 15a8 <.LBB71_4+0x3a8>
    c78c:	af843583          	ld	a1,-1288(s0)
    c790:	be043603          	ld	a2,-1056(s0)
    c794:	00b605b3          	add	a1,a2,a1
    c798:	ae043603          	ld	a2,-1312(s0)
    c79c:	01060633          	add	a2,a2,a6
    c7a0:	40c585bb          	subw	a1,a1,a2
    c7a4:	2405859b          	addiw	a1,a1,576
    c7a8:	40000637          	lui	a2,0x40000
    c7ac:	bd043d03          	ld	s10,-1072(s0)
    c7b0:	000017b7          	lui	a5,0x1
    c7b4:	40f407b3          	sub	a5,s0,a5
    c7b8:	5cb7b023          	sd	a1,1472(a5) # 15c0 <.LBB71_4+0x3c0>
    c7bc:	bf043283          	ld	t0,-1040(s0)
    c7c0:	0005d463          	bgez	a1,c7c8 <.LBB71_1056>
    c7c4:	c0000637          	lui	a2,0xc0000

000000000000c7c8 <.LBB71_1056>:
    c7c8:	000015b7          	lui	a1,0x1
    c7cc:	40b405b3          	sub	a1,s0,a1
    c7d0:	5ac5bc23          	sd	a2,1464(a1) # 15b8 <.LBB71_4+0x3b8>
    c7d4:	b0843583          	ld	a1,-1272(s0)
    c7d8:	be843603          	ld	a2,-1048(s0)
    c7dc:	00b605b3          	add	a1,a2,a1
    c7e0:	ae843603          	ld	a2,-1304(s0)
    c7e4:	01060633          	add	a2,a2,a6
    c7e8:	40c585bb          	subw	a1,a1,a2
    c7ec:	2405859b          	addiw	a1,a1,576
    c7f0:	40000637          	lui	a2,0x40000
    c7f4:	c4043e03          	ld	t3,-960(s0)
    c7f8:	d9843783          	ld	a5,-616(s0)
    c7fc:	00001fb7          	lui	t6,0x1
    c800:	41f40fb3          	sub	t6,s0,t6
    c804:	5cbfb823          	sd	a1,1488(t6) # 15d0 <.LBB71_4+0x3d0>
    c808:	0005d463          	bgez	a1,c810 <.LBB71_1058>
    c80c:	c0000637          	lui	a2,0xc0000

000000000000c810 <.LBB71_1058>:
    c810:	000015b7          	lui	a1,0x1
    c814:	40b405b3          	sub	a1,s0,a1
    c818:	5cc5b423          	sd	a2,1480(a1) # 15c8 <.LBB71_4+0x3c8>
    c81c:	b1843583          	ld	a1,-1256(s0)
    c820:	00b285b3          	add	a1,t0,a1
    c824:	af043603          	ld	a2,-1296(s0)
    c828:	01060633          	add	a2,a2,a6
    c82c:	40c585bb          	subw	a1,a1,a2
    c830:	2405859b          	addiw	a1,a1,576
    c834:	40000637          	lui	a2,0x40000
    c838:	da043283          	ld	t0,-608(s0)
    c83c:	00001fb7          	lui	t6,0x1
    c840:	41f40fb3          	sub	t6,s0,t6
    c844:	5ebfb023          	sd	a1,1504(t6) # 15e0 <.LBB71_4+0x3e0>
    c848:	0005d463          	bgez	a1,c850 <.LBB71_1060>
    c84c:	c0000637          	lui	a2,0xc0000

000000000000c850 <.LBB71_1060>:
    c850:	000015b7          	lui	a1,0x1
    c854:	40b405b3          	sub	a1,s0,a1
    c858:	5cc5bc23          	sd	a2,1496(a1) # 15d8 <.LBB71_4+0x3d8>
    c85c:	b2843583          	ld	a1,-1240(s0)
    c860:	bf843603          	ld	a2,-1032(s0)
    c864:	00b605b3          	add	a1,a2,a1
    c868:	b0043603          	ld	a2,-1280(s0)
    c86c:	01060633          	add	a2,a2,a6
    c870:	40c585bb          	subw	a1,a1,a2
    c874:	2405859b          	addiw	a1,a1,576
    c878:	40000637          	lui	a2,0x40000
    c87c:	00001fb7          	lui	t6,0x1
    c880:	41f40fb3          	sub	t6,s0,t6
    c884:	5ebfb823          	sd	a1,1520(t6) # 15f0 <.LBB71_4+0x3f0>
    c888:	0005d463          	bgez	a1,c890 <.LBB71_1062>
    c88c:	c0000637          	lui	a2,0xc0000

000000000000c890 <.LBB71_1062>:
    c890:	000015b7          	lui	a1,0x1
    c894:	40b405b3          	sub	a1,s0,a1
    c898:	5ec5b423          	sd	a2,1512(a1) # 15e8 <.LBB71_4+0x3e8>
    c89c:	b3843583          	ld	a1,-1224(s0)
    c8a0:	c0043603          	ld	a2,-1024(s0)
    c8a4:	00b605b3          	add	a1,a2,a1
    c8a8:	b1043603          	ld	a2,-1264(s0)
    c8ac:	01060633          	add	a2,a2,a6
    c8b0:	40c585bb          	subw	a1,a1,a2
    c8b4:	2405859b          	addiw	a1,a1,576
    c8b8:	40000637          	lui	a2,0x40000
    c8bc:	00001fb7          	lui	t6,0x1
    c8c0:	41f40fb3          	sub	t6,s0,t6
    c8c4:	60bfb023          	sd	a1,1536(t6) # 1600 <.LBB71_4+0x400>
    c8c8:	0005d463          	bgez	a1,c8d0 <.LBB71_1064>
    c8cc:	c0000637          	lui	a2,0xc0000

000000000000c8d0 <.LBB71_1064>:
    c8d0:	000015b7          	lui	a1,0x1
    c8d4:	40b405b3          	sub	a1,s0,a1
    c8d8:	5ec5bc23          	sd	a2,1528(a1) # 15f8 <.LBB71_4+0x3f8>
    c8dc:	b4843583          	ld	a1,-1208(s0)
    c8e0:	c0843603          	ld	a2,-1016(s0)
    c8e4:	00b605b3          	add	a1,a2,a1
    c8e8:	b2043603          	ld	a2,-1248(s0)
    c8ec:	01060633          	add	a2,a2,a6
    c8f0:	40c585bb          	subw	a1,a1,a2
    c8f4:	2405859b          	addiw	a1,a1,576
    c8f8:	40000637          	lui	a2,0x40000
    c8fc:	00001fb7          	lui	t6,0x1
    c900:	41f40fb3          	sub	t6,s0,t6
    c904:	60bfb823          	sd	a1,1552(t6) # 1610 <.LBB71_4+0x410>
    c908:	0005d463          	bgez	a1,c910 <.LBB71_1066>
    c90c:	c0000637          	lui	a2,0xc0000

000000000000c910 <.LBB71_1066>:
    c910:	000015b7          	lui	a1,0x1
    c914:	40b405b3          	sub	a1,s0,a1
    c918:	60c5b423          	sd	a2,1544(a1) # 1608 <.LBB71_4+0x408>
    c91c:	b5843583          	ld	a1,-1192(s0)
    c920:	c1043603          	ld	a2,-1008(s0)
    c924:	00b605b3          	add	a1,a2,a1
    c928:	b3043603          	ld	a2,-1232(s0)
    c92c:	01060633          	add	a2,a2,a6
    c930:	40c585bb          	subw	a1,a1,a2
    c934:	2405859b          	addiw	a1,a1,576
    c938:	40000637          	lui	a2,0x40000
    c93c:	00001fb7          	lui	t6,0x1
    c940:	41f40fb3          	sub	t6,s0,t6
    c944:	62bfb023          	sd	a1,1568(t6) # 1620 <.LBB71_4+0x420>
    c948:	0005d463          	bgez	a1,c950 <.LBB71_1068>
    c94c:	c0000637          	lui	a2,0xc0000

000000000000c950 <.LBB71_1068>:
    c950:	000015b7          	lui	a1,0x1
    c954:	40b405b3          	sub	a1,s0,a1
    c958:	60c5bc23          	sd	a2,1560(a1) # 1618 <.LBB71_4+0x418>
    c95c:	b8043583          	ld	a1,-1152(s0)
    c960:	c1843603          	ld	a2,-1000(s0)
    c964:	00b605b3          	add	a1,a2,a1
    c968:	b4043603          	ld	a2,-1216(s0)
    c96c:	01060633          	add	a2,a2,a6
    c970:	40c585bb          	subw	a1,a1,a2
    c974:	2405859b          	addiw	a1,a1,576
    c978:	40000637          	lui	a2,0x40000
    c97c:	00001fb7          	lui	t6,0x1
    c980:	41f40fb3          	sub	t6,s0,t6
    c984:	62bfb823          	sd	a1,1584(t6) # 1630 <.LBB71_4+0x430>
    c988:	0005d463          	bgez	a1,c990 <.LBB71_1070>
    c98c:	c0000637          	lui	a2,0xc0000

000000000000c990 <.LBB71_1070>:
    c990:	000015b7          	lui	a1,0x1
    c994:	40b405b3          	sub	a1,s0,a1
    c998:	62c5b423          	sd	a2,1576(a1) # 1628 <.LBB71_4+0x428>
    c99c:	b9043583          	ld	a1,-1136(s0)
    c9a0:	c2043603          	ld	a2,-992(s0)
    c9a4:	00b605b3          	add	a1,a2,a1
    c9a8:	b5043603          	ld	a2,-1200(s0)
    c9ac:	01060633          	add	a2,a2,a6
    c9b0:	40c585bb          	subw	a1,a1,a2
    c9b4:	2405859b          	addiw	a1,a1,576
    c9b8:	40000637          	lui	a2,0x40000
    c9bc:	00001fb7          	lui	t6,0x1
    c9c0:	41f40fb3          	sub	t6,s0,t6
    c9c4:	64bfb023          	sd	a1,1600(t6) # 1640 <.LBB71_4+0x440>
    c9c8:	0005d463          	bgez	a1,c9d0 <.LBB71_1072>
    c9cc:	c0000637          	lui	a2,0xc0000

000000000000c9d0 <.LBB71_1072>:
    c9d0:	000015b7          	lui	a1,0x1
    c9d4:	40b405b3          	sub	a1,s0,a1
    c9d8:	62c5bc23          	sd	a2,1592(a1) # 1638 <.LBB71_4+0x438>
    c9dc:	ba043583          	ld	a1,-1120(s0)
    c9e0:	c2843603          	ld	a2,-984(s0)
    c9e4:	00b605b3          	add	a1,a2,a1
    c9e8:	b6043603          	ld	a2,-1184(s0)
    c9ec:	01060633          	add	a2,a2,a6
    c9f0:	40c585bb          	subw	a1,a1,a2
    c9f4:	2405859b          	addiw	a1,a1,576
    c9f8:	40000637          	lui	a2,0x40000
    c9fc:	00001fb7          	lui	t6,0x1
    ca00:	41f40fb3          	sub	t6,s0,t6
    ca04:	64bfb823          	sd	a1,1616(t6) # 1650 <.LBB71_4+0x450>
    ca08:	0005d463          	bgez	a1,ca10 <.LBB71_1074>
    ca0c:	c0000637          	lui	a2,0xc0000

000000000000ca10 <.LBB71_1074>:
    ca10:	000015b7          	lui	a1,0x1
    ca14:	40b405b3          	sub	a1,s0,a1
    ca18:	64c5b423          	sd	a2,1608(a1) # 1648 <.LBB71_4+0x448>
    ca1c:	bb843583          	ld	a1,-1096(s0)
    ca20:	c3043603          	ld	a2,-976(s0)
    ca24:	00b605b3          	add	a1,a2,a1
    ca28:	b8843603          	ld	a2,-1144(s0)
    ca2c:	01060633          	add	a2,a2,a6
    ca30:	40c585bb          	subw	a1,a1,a2
    ca34:	2405859b          	addiw	a1,a1,576
    ca38:	40000637          	lui	a2,0x40000
    ca3c:	00001fb7          	lui	t6,0x1
    ca40:	41f40fb3          	sub	t6,s0,t6
    ca44:	66bfb023          	sd	a1,1632(t6) # 1660 <.LBB71_4+0x460>
    ca48:	0005d463          	bgez	a1,ca50 <.LBB71_1076>
    ca4c:	c0000637          	lui	a2,0xc0000

000000000000ca50 <.LBB71_1076>:
    ca50:	000015b7          	lui	a1,0x1
    ca54:	40b405b3          	sub	a1,s0,a1
    ca58:	64c5bc23          	sd	a2,1624(a1) # 1658 <.LBB71_4+0x458>
    ca5c:	bc843583          	ld	a1,-1080(s0)
    ca60:	b6843603          	ld	a2,-1176(s0)
    ca64:	00b605b3          	add	a1,a2,a1
    ca68:	b9843603          	ld	a2,-1128(s0)
    ca6c:	01060633          	add	a2,a2,a6
    ca70:	40c585bb          	subw	a1,a1,a2
    ca74:	2405859b          	addiw	a1,a1,576
    ca78:	40000637          	lui	a2,0x40000
    ca7c:	00001fb7          	lui	t6,0x1
    ca80:	41f40fb3          	sub	t6,s0,t6
    ca84:	66bfb823          	sd	a1,1648(t6) # 1670 <.LBB71_4+0x470>
    ca88:	0005d463          	bgez	a1,ca90 <.LBB71_1078>
    ca8c:	c0000637          	lui	a2,0xc0000

000000000000ca90 <.LBB71_1078>:
    ca90:	000015b7          	lui	a1,0x1
    ca94:	40b405b3          	sub	a1,s0,a1
    ca98:	66c5b423          	sd	a2,1640(a1) # 1668 <.LBB71_4+0x468>
    ca9c:	f0843583          	ld	a1,-248(s0)
    caa0:	b7043603          	ld	a2,-1168(s0)
    caa4:	00b605b3          	add	a1,a2,a1
    caa8:	ba843603          	ld	a2,-1112(s0)
    caac:	01060633          	add	a2,a2,a6
    cab0:	40c585bb          	subw	a1,a1,a2
    cab4:	2405859b          	addiw	a1,a1,576
    cab8:	40000637          	lui	a2,0x40000
    cabc:	00001fb7          	lui	t6,0x1
    cac0:	41f40fb3          	sub	t6,s0,t6
    cac4:	68bfb423          	sd	a1,1672(t6) # 1688 <.LBB71_4+0x488>
    cac8:	0005d463          	bgez	a1,cad0 <.LBB71_1080>
    cacc:	c0000637          	lui	a2,0xc0000

000000000000cad0 <.LBB71_1080>:
    cad0:	000015b7          	lui	a1,0x1
    cad4:	40b405b3          	sub	a1,s0,a1
    cad8:	66c5bc23          	sd	a2,1656(a1) # 1678 <.LBB71_4+0x478>
    cadc:	f1843583          	ld	a1,-232(s0)
    cae0:	b7843603          	ld	a2,-1160(s0)
    cae4:	00b605b3          	add	a1,a2,a1
    cae8:	bc043603          	ld	a2,-1088(s0)
    caec:	01060633          	add	a2,a2,a6
    caf0:	40c585bb          	subw	a1,a1,a2
    caf4:	2405859b          	addiw	a1,a1,576
    caf8:	40000637          	lui	a2,0x40000
    cafc:	00001fb7          	lui	t6,0x1
    cb00:	41f40fb3          	sub	t6,s0,t6
    cb04:	6abfb823          	sd	a1,1712(t6) # 16b0 <.LBB71_4+0x4b0>
    cb08:	0005d463          	bgez	a1,cb10 <.LBB71_1082>
    cb0c:	c0000637          	lui	a2,0xc0000

000000000000cb10 <.LBB71_1082>:
    cb10:	000015b7          	lui	a1,0x1
    cb14:	40b405b3          	sub	a1,s0,a1
    cb18:	68c5b823          	sd	a2,1680(a1) # 1690 <.LBB71_4+0x490>
    cb1c:	f2843583          	ld	a1,-216(s0)
    cb20:	c4843603          	ld	a2,-952(s0)
    cb24:	00b605b3          	add	a1,a2,a1
    cb28:	f0043603          	ld	a2,-256(s0)
    cb2c:	01060633          	add	a2,a2,a6
    cb30:	40c585bb          	subw	a1,a1,a2
    cb34:	2405859b          	addiw	a1,a1,576
    cb38:	40000637          	lui	a2,0x40000
    cb3c:	00001fb7          	lui	t6,0x1
    cb40:	41f40fb3          	sub	t6,s0,t6
    cb44:	6ebfb823          	sd	a1,1776(t6) # 16f0 <.LBB71_4+0x4f0>
    cb48:	0005d463          	bgez	a1,cb50 <.LBB71_1084>
    cb4c:	c0000637          	lui	a2,0xc0000

000000000000cb50 <.LBB71_1084>:
    cb50:	000015b7          	lui	a1,0x1
    cb54:	40b405b3          	sub	a1,s0,a1
    cb58:	6cc5b823          	sd	a2,1744(a1) # 16d0 <.LBB71_4+0x4d0>
    cb5c:	f3843583          	ld	a1,-200(s0)
    cb60:	c5043603          	ld	a2,-944(s0)
    cb64:	00b605b3          	add	a1,a2,a1
    cb68:	f1043603          	ld	a2,-240(s0)
    cb6c:	01060633          	add	a2,a2,a6
    cb70:	40c585bb          	subw	a1,a1,a2
    cb74:	2405859b          	addiw	a1,a1,576
    cb78:	40000637          	lui	a2,0x40000
    cb7c:	00001fb7          	lui	t6,0x1
    cb80:	41f40fb3          	sub	t6,s0,t6
    cb84:	72bfb823          	sd	a1,1840(t6) # 1730 <.LBB71_4+0x530>
    cb88:	0005d463          	bgez	a1,cb90 <.LBB71_1086>
    cb8c:	c0000637          	lui	a2,0xc0000

000000000000cb90 <.LBB71_1086>:
    cb90:	000015b7          	lui	a1,0x1
    cb94:	40b405b3          	sub	a1,s0,a1
    cb98:	70c5b823          	sd	a2,1808(a1) # 1710 <.LBB71_4+0x510>
    cb9c:	f4843583          	ld	a1,-184(s0)
    cba0:	c5843603          	ld	a2,-936(s0)
    cba4:	00b605b3          	add	a1,a2,a1
    cba8:	f2043603          	ld	a2,-224(s0)
    cbac:	01060633          	add	a2,a2,a6
    cbb0:	40c585bb          	subw	a1,a1,a2
    cbb4:	2405859b          	addiw	a1,a1,576
    cbb8:	40000637          	lui	a2,0x40000
    cbbc:	00001fb7          	lui	t6,0x1
    cbc0:	41f40fb3          	sub	t6,s0,t6
    cbc4:	74bfb823          	sd	a1,1872(t6) # 1750 <.LBB71_5+0x1c>
    cbc8:	0005d463          	bgez	a1,cbd0 <.LBB71_1088>
    cbcc:	c0000637          	lui	a2,0xc0000

000000000000cbd0 <.LBB71_1088>:
    cbd0:	000015b7          	lui	a1,0x1
    cbd4:	40b405b3          	sub	a1,s0,a1
    cbd8:	74c5b423          	sd	a2,1864(a1) # 1748 <.LBB71_5+0x14>
    cbdc:	f5843583          	ld	a1,-168(s0)
    cbe0:	c6843603          	ld	a2,-920(s0)
    cbe4:	00b605b3          	add	a1,a2,a1
    cbe8:	f3043603          	ld	a2,-208(s0)
    cbec:	01060633          	add	a2,a2,a6
    cbf0:	40c585bb          	subw	a1,a1,a2
    cbf4:	2405859b          	addiw	a1,a1,576
    cbf8:	40000637          	lui	a2,0x40000
    cbfc:	00001fb7          	lui	t6,0x1
    cc00:	41f40fb3          	sub	t6,s0,t6
    cc04:	76bfb023          	sd	a1,1888(t6) # 1760 <.LBB71_5+0x2c>
    cc08:	0005d463          	bgez	a1,cc10 <.LBB71_1090>
    cc0c:	c0000637          	lui	a2,0xc0000

000000000000cc10 <.LBB71_1090>:
    cc10:	000015b7          	lui	a1,0x1
    cc14:	40b405b3          	sub	a1,s0,a1
    cc18:	74c5bc23          	sd	a2,1880(a1) # 1758 <.LBB71_5+0x24>
    cc1c:	f6843583          	ld	a1,-152(s0)
    cc20:	c7043603          	ld	a2,-912(s0)
    cc24:	00b605b3          	add	a1,a2,a1
    cc28:	f4043603          	ld	a2,-192(s0)
    cc2c:	01060633          	add	a2,a2,a6
    cc30:	40c585bb          	subw	a1,a1,a2
    cc34:	2405859b          	addiw	a1,a1,576
    cc38:	40000637          	lui	a2,0x40000
    cc3c:	00001fb7          	lui	t6,0x1
    cc40:	41f40fb3          	sub	t6,s0,t6
    cc44:	76bfb823          	sd	a1,1904(t6) # 1770 <.LBB71_5+0x3c>
    cc48:	0005d463          	bgez	a1,cc50 <.LBB71_1092>
    cc4c:	c0000637          	lui	a2,0xc0000

000000000000cc50 <.LBB71_1092>:
    cc50:	000015b7          	lui	a1,0x1
    cc54:	40b405b3          	sub	a1,s0,a1
    cc58:	76c5b423          	sd	a2,1896(a1) # 1768 <.LBB71_5+0x34>
    cc5c:	f7843583          	ld	a1,-136(s0)
    cc60:	c7843603          	ld	a2,-904(s0)
    cc64:	00b605b3          	add	a1,a2,a1
    cc68:	f5043603          	ld	a2,-176(s0)
    cc6c:	01060633          	add	a2,a2,a6
    cc70:	40c585bb          	subw	a1,a1,a2
    cc74:	2405859b          	addiw	a1,a1,576
    cc78:	40000637          	lui	a2,0x40000
    cc7c:	00001fb7          	lui	t6,0x1
    cc80:	41f40fb3          	sub	t6,s0,t6
    cc84:	78bfb023          	sd	a1,1920(t6) # 1780 <.LBB71_5+0x4c>
    cc88:	0005d463          	bgez	a1,cc90 <.LBB71_1094>
    cc8c:	c0000637          	lui	a2,0xc0000

000000000000cc90 <.LBB71_1094>:
    cc90:	000015b7          	lui	a1,0x1
    cc94:	40b405b3          	sub	a1,s0,a1
    cc98:	76c5bc23          	sd	a2,1912(a1) # 1778 <.LBB71_5+0x44>
    cc9c:	f8043583          	ld	a1,-128(s0)
    cca0:	c8043603          	ld	a2,-896(s0)
    cca4:	00b605b3          	add	a1,a2,a1
    cca8:	f6043603          	ld	a2,-160(s0)
    ccac:	01060633          	add	a2,a2,a6
    ccb0:	40c585bb          	subw	a1,a1,a2
    ccb4:	2405859b          	addiw	a1,a1,576
    ccb8:	40000637          	lui	a2,0x40000
    ccbc:	00001fb7          	lui	t6,0x1
    ccc0:	41f40fb3          	sub	t6,s0,t6
    ccc4:	78bfb823          	sd	a1,1936(t6) # 1790 <.LBB71_5+0x5c>
    ccc8:	0005d463          	bgez	a1,ccd0 <.LBB71_1096>
    cccc:	c0000637          	lui	a2,0xc0000

000000000000ccd0 <.LBB71_1096>:
    ccd0:	000015b7          	lui	a1,0x1
    ccd4:	40b405b3          	sub	a1,s0,a1
    ccd8:	78c5b423          	sd	a2,1928(a1) # 1788 <.LBB71_5+0x54>
    ccdc:	f8843583          	ld	a1,-120(s0)
    cce0:	c8843603          	ld	a2,-888(s0)
    cce4:	00b605b3          	add	a1,a2,a1
    cce8:	f7043603          	ld	a2,-144(s0)
    ccec:	01060833          	add	a6,a2,a6
    ccf0:	410585bb          	subw	a1,a1,a6
    ccf4:	2405859b          	addiw	a1,a1,576
    ccf8:	40000637          	lui	a2,0x40000
    ccfc:	00001837          	lui	a6,0x1
    cd00:	41040833          	sub	a6,s0,a6
    cd04:	7ab83023          	sd	a1,1952(a6) # 17a0 <.LBB71_5+0x6c>
    cd08:	0005d463          	bgez	a1,cd10 <.LBB71_1098>
    cd0c:	c0000637          	lui	a2,0xc0000

000000000000cd10 <.LBB71_1098>:
    cd10:	000015b7          	lui	a1,0x1
    cd14:	40b405b3          	sub	a1,s0,a1
    cd18:	78c5bc23          	sd	a2,1944(a1) # 1798 <.LBB71_5+0x64>
    cd1c:	00600593          	li	a1,6
    cd20:	02b50533          	mul	a0,a0,a1
    cd24:	c9043583          	ld	a1,-880(s0)
    cd28:	ad843603          	ld	a2,-1320(s0)
    cd2c:	00c585b3          	add	a1,a1,a2
    cd30:	ad043603          	ld	a2,-1328(s0)
    cd34:	00a60633          	add	a2,a2,a0
    cd38:	40c585bb          	subw	a1,a1,a2
    cd3c:	2405859b          	addiw	a1,a1,576
    cd40:	40000637          	lui	a2,0x40000
    cd44:	de843803          	ld	a6,-536(s0)
    cd48:	00001fb7          	lui	t6,0x1
    cd4c:	41f40fb3          	sub	t6,s0,t6
    cd50:	7abfb823          	sd	a1,1968(t6) # 17b0 <.LBB71_5+0x7c>
    cd54:	0005d463          	bgez	a1,cd5c <.LBB71_1100>
    cd58:	c0000637          	lui	a2,0xc0000

000000000000cd5c <.LBB71_1100>:
    cd5c:	000015b7          	lui	a1,0x1
    cd60:	40b405b3          	sub	a1,s0,a1
    cd64:	7ac5b423          	sd	a2,1960(a1) # 17a8 <.LBB71_5+0x74>
    cd68:	c9843583          	ld	a1,-872(s0)
    cd6c:	ac843603          	ld	a2,-1336(s0)
    cd70:	00c585b3          	add	a1,a1,a2
    cd74:	ac043603          	ld	a2,-1344(s0)
    cd78:	00a60633          	add	a2,a2,a0
    cd7c:	40c585bb          	subw	a1,a1,a2
    cd80:	2405859b          	addiw	a1,a1,576
    cd84:	40000637          	lui	a2,0x40000
    cd88:	00001fb7          	lui	t6,0x1
    cd8c:	41f40fb3          	sub	t6,s0,t6
    cd90:	7cbfb023          	sd	a1,1984(t6) # 17c0 <.LBB71_5+0x8c>
    cd94:	0005d463          	bgez	a1,cd9c <.LBB71_1102>
    cd98:	c0000637          	lui	a2,0xc0000

000000000000cd9c <.LBB71_1102>:
    cd9c:	000015b7          	lui	a1,0x1
    cda0:	40b405b3          	sub	a1,s0,a1
    cda4:	7ac5bc23          	sd	a2,1976(a1) # 17b8 <.LBB71_5+0x84>
    cda8:	ca043583          	ld	a1,-864(s0)
    cdac:	ab843603          	ld	a2,-1352(s0)
    cdb0:	00c585b3          	add	a1,a1,a2
    cdb4:	ab043603          	ld	a2,-1360(s0)
    cdb8:	00a60633          	add	a2,a2,a0
    cdbc:	40c585bb          	subw	a1,a1,a2
    cdc0:	2405859b          	addiw	a1,a1,576
    cdc4:	40000637          	lui	a2,0x40000
    cdc8:	00001fb7          	lui	t6,0x1
    cdcc:	41f40fb3          	sub	t6,s0,t6
    cdd0:	7cbfb823          	sd	a1,2000(t6) # 17d0 <.LBB71_5+0x9c>
    cdd4:	0005d463          	bgez	a1,cddc <.LBB71_1104>
    cdd8:	c0000637          	lui	a2,0xc0000

000000000000cddc <.LBB71_1104>:
    cddc:	000015b7          	lui	a1,0x1
    cde0:	40b405b3          	sub	a1,s0,a1
    cde4:	7cc5b423          	sd	a2,1992(a1) # 17c8 <.LBB71_5+0x94>
    cde8:	ca843583          	ld	a1,-856(s0)
    cdec:	aa843603          	ld	a2,-1368(s0)
    cdf0:	00c585b3          	add	a1,a1,a2
    cdf4:	aa043603          	ld	a2,-1376(s0)
    cdf8:	00a60633          	add	a2,a2,a0
    cdfc:	40c585bb          	subw	a1,a1,a2
    ce00:	2405859b          	addiw	a1,a1,576
    ce04:	40000637          	lui	a2,0x40000
    ce08:	00001fb7          	lui	t6,0x1
    ce0c:	41f40fb3          	sub	t6,s0,t6
    ce10:	7ebfb023          	sd	a1,2016(t6) # 17e0 <.LBB71_5+0xac>
    ce14:	0005d463          	bgez	a1,ce1c <.LBB71_1106>
    ce18:	c0000637          	lui	a2,0xc0000

000000000000ce1c <.LBB71_1106>:
    ce1c:	000015b7          	lui	a1,0x1
    ce20:	40b405b3          	sub	a1,s0,a1
    ce24:	7cc5bc23          	sd	a2,2008(a1) # 17d8 <.LBB71_5+0xa4>
    ce28:	cb043583          	ld	a1,-848(s0)
    ce2c:	a9843603          	ld	a2,-1384(s0)
    ce30:	00c585b3          	add	a1,a1,a2
    ce34:	a9043603          	ld	a2,-1392(s0)
    ce38:	00a60633          	add	a2,a2,a0
    ce3c:	40c585bb          	subw	a1,a1,a2
    ce40:	2405859b          	addiw	a1,a1,576
    ce44:	40000637          	lui	a2,0x40000
    ce48:	00001fb7          	lui	t6,0x1
    ce4c:	41f40fb3          	sub	t6,s0,t6
    ce50:	7ebfb823          	sd	a1,2032(t6) # 17f0 <.LBB71_5+0xbc>
    ce54:	0005d463          	bgez	a1,ce5c <.LBB71_1108>
    ce58:	c0000637          	lui	a2,0xc0000

000000000000ce5c <.LBB71_1108>:
    ce5c:	000015b7          	lui	a1,0x1
    ce60:	40b405b3          	sub	a1,s0,a1
    ce64:	7ec5b423          	sd	a2,2024(a1) # 17e8 <.LBB71_5+0xb4>
    ce68:	cb843583          	ld	a1,-840(s0)
    ce6c:	a8843603          	ld	a2,-1400(s0)
    ce70:	00c585b3          	add	a1,a1,a2
    ce74:	a8043603          	ld	a2,-1408(s0)
    ce78:	00a60633          	add	a2,a2,a0
    ce7c:	40c585bb          	subw	a1,a1,a2
    ce80:	2405859b          	addiw	a1,a1,576
    ce84:	40000637          	lui	a2,0x40000
    ce88:	80b43023          	sd	a1,-2048(s0)
    ce8c:	0005d463          	bgez	a1,ce94 <.LBB71_1110>
    ce90:	c0000637          	lui	a2,0xc0000

000000000000ce94 <.LBB71_1110>:
    ce94:	000015b7          	lui	a1,0x1
    ce98:	40b405b3          	sub	a1,s0,a1
    ce9c:	7ec5bc23          	sd	a2,2040(a1) # 17f8 <.LBB71_5+0xc4>
    cea0:	cc043583          	ld	a1,-832(s0)
    cea4:	a7843603          	ld	a2,-1416(s0)
    cea8:	00c585b3          	add	a1,a1,a2
    ceac:	a7043603          	ld	a2,-1424(s0)
    ceb0:	00a60633          	add	a2,a2,a0
    ceb4:	40c585bb          	subw	a1,a1,a2
    ceb8:	2405859b          	addiw	a1,a1,576
    cebc:	40000637          	lui	a2,0x40000
    cec0:	80b43823          	sd	a1,-2032(s0)
    cec4:	0005d463          	bgez	a1,cecc <.LBB71_1112>
    cec8:	c0000637          	lui	a2,0xc0000

000000000000cecc <.LBB71_1112>:
    cecc:	80c43423          	sd	a2,-2040(s0)
    ced0:	cc843583          	ld	a1,-824(s0)
    ced4:	a6843603          	ld	a2,-1432(s0)
    ced8:	00c585b3          	add	a1,a1,a2
    cedc:	a6043603          	ld	a2,-1440(s0)
    cee0:	00a60633          	add	a2,a2,a0
    cee4:	40c585bb          	subw	a1,a1,a2
    cee8:	2405859b          	addiw	a1,a1,576
    ceec:	40000637          	lui	a2,0x40000
    cef0:	82b43023          	sd	a1,-2016(s0)
    cef4:	0005d463          	bgez	a1,cefc <.LBB71_1114>
    cef8:	c0000637          	lui	a2,0xc0000

000000000000cefc <.LBB71_1114>:
    cefc:	80c43c23          	sd	a2,-2024(s0)
    cf00:	cd043583          	ld	a1,-816(s0)
    cf04:	a5843603          	ld	a2,-1448(s0)
    cf08:	00c585b3          	add	a1,a1,a2
    cf0c:	a5043603          	ld	a2,-1456(s0)
    cf10:	00a60633          	add	a2,a2,a0
    cf14:	40c585bb          	subw	a1,a1,a2
    cf18:	2405859b          	addiw	a1,a1,576
    cf1c:	40000637          	lui	a2,0x40000
    cf20:	82b43823          	sd	a1,-2000(s0)
    cf24:	0005d463          	bgez	a1,cf2c <.LBB71_1116>
    cf28:	c0000637          	lui	a2,0xc0000

000000000000cf2c <.LBB71_1116>:
    cf2c:	82c43423          	sd	a2,-2008(s0)
    cf30:	cd843583          	ld	a1,-808(s0)
    cf34:	a4843603          	ld	a2,-1464(s0)
    cf38:	00c585b3          	add	a1,a1,a2
    cf3c:	bd843603          	ld	a2,-1064(s0)
    cf40:	00a60633          	add	a2,a2,a0
    cf44:	40c585bb          	subw	a1,a1,a2
    cf48:	2405859b          	addiw	a1,a1,576
    cf4c:	40000637          	lui	a2,0x40000
    cf50:	84b43023          	sd	a1,-1984(s0)
    cf54:	0005d463          	bgez	a1,cf5c <.LBB71_1118>
    cf58:	c0000637          	lui	a2,0xc0000

000000000000cf5c <.LBB71_1118>:
    cf5c:	82c43c23          	sd	a2,-1992(s0)
    cf60:	ce043583          	ld	a1,-800(s0)
    cf64:	af843603          	ld	a2,-1288(s0)
    cf68:	00c585b3          	add	a1,a1,a2
    cf6c:	ae043603          	ld	a2,-1312(s0)
    cf70:	00a60633          	add	a2,a2,a0
    cf74:	40c585bb          	subw	a1,a1,a2
    cf78:	2405859b          	addiw	a1,a1,576
    cf7c:	40000637          	lui	a2,0x40000
    cf80:	84b43823          	sd	a1,-1968(s0)
    cf84:	0005d463          	bgez	a1,cf8c <.LBB71_1120>
    cf88:	c0000637          	lui	a2,0xc0000

000000000000cf8c <.LBB71_1120>:
    cf8c:	84c43423          	sd	a2,-1976(s0)
    cf90:	ce843583          	ld	a1,-792(s0)
    cf94:	b0843603          	ld	a2,-1272(s0)
    cf98:	00c585b3          	add	a1,a1,a2
    cf9c:	ae843603          	ld	a2,-1304(s0)
    cfa0:	00a60633          	add	a2,a2,a0
    cfa4:	40c585bb          	subw	a1,a1,a2
    cfa8:	2405859b          	addiw	a1,a1,576
    cfac:	40000637          	lui	a2,0x40000
    cfb0:	86b43023          	sd	a1,-1952(s0)
    cfb4:	0005d463          	bgez	a1,cfbc <.LBB71_1122>
    cfb8:	c0000637          	lui	a2,0xc0000

000000000000cfbc <.LBB71_1122>:
    cfbc:	84c43c23          	sd	a2,-1960(s0)
    cfc0:	cf043583          	ld	a1,-784(s0)
    cfc4:	b1843603          	ld	a2,-1256(s0)
    cfc8:	00c585b3          	add	a1,a1,a2
    cfcc:	af043603          	ld	a2,-1296(s0)
    cfd0:	00a60633          	add	a2,a2,a0
    cfd4:	40c585bb          	subw	a1,a1,a2
    cfd8:	2405859b          	addiw	a1,a1,576
    cfdc:	40000637          	lui	a2,0x40000
    cfe0:	86b43823          	sd	a1,-1936(s0)
    cfe4:	0005d463          	bgez	a1,cfec <.LBB71_1124>
    cfe8:	c0000637          	lui	a2,0xc0000

000000000000cfec <.LBB71_1124>:
    cfec:	86c43423          	sd	a2,-1944(s0)
    cff0:	cf843583          	ld	a1,-776(s0)
    cff4:	b2843603          	ld	a2,-1240(s0)
    cff8:	00c585b3          	add	a1,a1,a2
    cffc:	b0043603          	ld	a2,-1280(s0)
    d000:	00a60633          	add	a2,a2,a0
    d004:	40c585bb          	subw	a1,a1,a2
    d008:	2405859b          	addiw	a1,a1,576
    d00c:	40000637          	lui	a2,0x40000
    d010:	88b43023          	sd	a1,-1920(s0)
    d014:	0005d463          	bgez	a1,d01c <.LBB71_1126>
    d018:	c0000637          	lui	a2,0xc0000

000000000000d01c <.LBB71_1126>:
    d01c:	86c43c23          	sd	a2,-1928(s0)
    d020:	d0043583          	ld	a1,-768(s0)
    d024:	b3843603          	ld	a2,-1224(s0)
    d028:	00c585b3          	add	a1,a1,a2
    d02c:	b1043603          	ld	a2,-1264(s0)
    d030:	00a60633          	add	a2,a2,a0
    d034:	40c585bb          	subw	a1,a1,a2
    d038:	2405859b          	addiw	a1,a1,576
    d03c:	40000637          	lui	a2,0x40000
    d040:	88b43823          	sd	a1,-1904(s0)
    d044:	0005d463          	bgez	a1,d04c <.LBB71_1128>
    d048:	c0000637          	lui	a2,0xc0000

000000000000d04c <.LBB71_1128>:
    d04c:	88c43423          	sd	a2,-1912(s0)
    d050:	d0843583          	ld	a1,-760(s0)
    d054:	b4843603          	ld	a2,-1208(s0)
    d058:	00c585b3          	add	a1,a1,a2
    d05c:	b2043603          	ld	a2,-1248(s0)
    d060:	00a60633          	add	a2,a2,a0
    d064:	40c585bb          	subw	a1,a1,a2
    d068:	2405859b          	addiw	a1,a1,576
    d06c:	40000637          	lui	a2,0x40000
    d070:	8ab43023          	sd	a1,-1888(s0)
    d074:	0005d463          	bgez	a1,d07c <.LBB71_1130>
    d078:	c0000637          	lui	a2,0xc0000

000000000000d07c <.LBB71_1130>:
    d07c:	88c43c23          	sd	a2,-1896(s0)
    d080:	d1043583          	ld	a1,-752(s0)
    d084:	b5843603          	ld	a2,-1192(s0)
    d088:	00c585b3          	add	a1,a1,a2
    d08c:	b3043603          	ld	a2,-1232(s0)
    d090:	00a60633          	add	a2,a2,a0
    d094:	40c585bb          	subw	a1,a1,a2
    d098:	2405859b          	addiw	a1,a1,576
    d09c:	40000637          	lui	a2,0x40000
    d0a0:	8ab43823          	sd	a1,-1872(s0)
    d0a4:	0005d463          	bgez	a1,d0ac <.LBB71_1132>
    d0a8:	c0000637          	lui	a2,0xc0000

000000000000d0ac <.LBB71_1132>:
    d0ac:	8ac43423          	sd	a2,-1880(s0)
    d0b0:	d1843583          	ld	a1,-744(s0)
    d0b4:	b8043603          	ld	a2,-1152(s0)
    d0b8:	00c585b3          	add	a1,a1,a2
    d0bc:	b4043603          	ld	a2,-1216(s0)
    d0c0:	00a60633          	add	a2,a2,a0
    d0c4:	40c585bb          	subw	a1,a1,a2
    d0c8:	2405859b          	addiw	a1,a1,576
    d0cc:	40000637          	lui	a2,0x40000
    d0d0:	8cb43023          	sd	a1,-1856(s0)
    d0d4:	0005d463          	bgez	a1,d0dc <.LBB71_1134>
    d0d8:	c0000637          	lui	a2,0xc0000

000000000000d0dc <.LBB71_1134>:
    d0dc:	8ac43c23          	sd	a2,-1864(s0)
    d0e0:	d2043583          	ld	a1,-736(s0)
    d0e4:	b9043603          	ld	a2,-1136(s0)
    d0e8:	00c585b3          	add	a1,a1,a2
    d0ec:	b5043603          	ld	a2,-1200(s0)
    d0f0:	00a60633          	add	a2,a2,a0
    d0f4:	40c585bb          	subw	a1,a1,a2
    d0f8:	2405859b          	addiw	a1,a1,576
    d0fc:	40000637          	lui	a2,0x40000
    d100:	8cb43823          	sd	a1,-1840(s0)
    d104:	0005d463          	bgez	a1,d10c <.LBB71_1136>
    d108:	c0000637          	lui	a2,0xc0000

000000000000d10c <.LBB71_1136>:
    d10c:	8cc43423          	sd	a2,-1848(s0)
    d110:	d2843583          	ld	a1,-728(s0)
    d114:	ba043603          	ld	a2,-1120(s0)
    d118:	00c585b3          	add	a1,a1,a2
    d11c:	b6043603          	ld	a2,-1184(s0)
    d120:	00a60633          	add	a2,a2,a0
    d124:	40c585bb          	subw	a1,a1,a2
    d128:	2405859b          	addiw	a1,a1,576
    d12c:	40000637          	lui	a2,0x40000
    d130:	8eb43023          	sd	a1,-1824(s0)
    d134:	0005d463          	bgez	a1,d13c <.LBB71_1138>
    d138:	c0000637          	lui	a2,0xc0000

000000000000d13c <.LBB71_1138>:
    d13c:	8cc43c23          	sd	a2,-1832(s0)
    d140:	d3043583          	ld	a1,-720(s0)
    d144:	bb843603          	ld	a2,-1096(s0)
    d148:	00c585b3          	add	a1,a1,a2
    d14c:	b8843603          	ld	a2,-1144(s0)
    d150:	00a60633          	add	a2,a2,a0
    d154:	40c585bb          	subw	a1,a1,a2
    d158:	2405859b          	addiw	a1,a1,576
    d15c:	40000637          	lui	a2,0x40000
    d160:	8eb43823          	sd	a1,-1808(s0)
    d164:	0005d463          	bgez	a1,d16c <.LBB71_1140>
    d168:	c0000637          	lui	a2,0xc0000

000000000000d16c <.LBB71_1140>:
    d16c:	8ec43423          	sd	a2,-1816(s0)
    d170:	d3843583          	ld	a1,-712(s0)
    d174:	bc843603          	ld	a2,-1080(s0)
    d178:	00c585b3          	add	a1,a1,a2
    d17c:	b9843603          	ld	a2,-1128(s0)
    d180:	00a60633          	add	a2,a2,a0
    d184:	40c585bb          	subw	a1,a1,a2
    d188:	2405859b          	addiw	a1,a1,576
    d18c:	40000637          	lui	a2,0x40000
    d190:	90b43023          	sd	a1,-1792(s0)
    d194:	0005d463          	bgez	a1,d19c <.LBB71_1142>
    d198:	c0000637          	lui	a2,0xc0000

000000000000d19c <.LBB71_1142>:
    d19c:	8ec43c23          	sd	a2,-1800(s0)
    d1a0:	d4043583          	ld	a1,-704(s0)
    d1a4:	f0843603          	ld	a2,-248(s0)
    d1a8:	00c585b3          	add	a1,a1,a2
    d1ac:	ba843603          	ld	a2,-1112(s0)
    d1b0:	00a60633          	add	a2,a2,a0
    d1b4:	40c585bb          	subw	a1,a1,a2
    d1b8:	2405859b          	addiw	a1,a1,576
    d1bc:	40000637          	lui	a2,0x40000
    d1c0:	90b43823          	sd	a1,-1776(s0)
    d1c4:	0005d463          	bgez	a1,d1cc <.LBB71_1144>
    d1c8:	c0000637          	lui	a2,0xc0000

000000000000d1cc <.LBB71_1144>:
    d1cc:	90c43423          	sd	a2,-1784(s0)
    d1d0:	d4843583          	ld	a1,-696(s0)
    d1d4:	f1843603          	ld	a2,-232(s0)
    d1d8:	00c585b3          	add	a1,a1,a2
    d1dc:	bc043603          	ld	a2,-1088(s0)
    d1e0:	00a60633          	add	a2,a2,a0
    d1e4:	40c585bb          	subw	a1,a1,a2
    d1e8:	2405859b          	addiw	a1,a1,576
    d1ec:	40000637          	lui	a2,0x40000
    d1f0:	92b43023          	sd	a1,-1760(s0)
    d1f4:	0005d463          	bgez	a1,d1fc <.LBB71_1146>
    d1f8:	c0000637          	lui	a2,0xc0000

000000000000d1fc <.LBB71_1146>:
    d1fc:	90c43c23          	sd	a2,-1768(s0)
    d200:	d5043583          	ld	a1,-688(s0)
    d204:	f2843603          	ld	a2,-216(s0)
    d208:	00c585b3          	add	a1,a1,a2
    d20c:	f0043603          	ld	a2,-256(s0)
    d210:	00a60633          	add	a2,a2,a0
    d214:	40c585bb          	subw	a1,a1,a2
    d218:	2405859b          	addiw	a1,a1,576
    d21c:	40000637          	lui	a2,0x40000
    d220:	92b43823          	sd	a1,-1744(s0)
    d224:	0005d463          	bgez	a1,d22c <.LBB71_1148>
    d228:	c0000637          	lui	a2,0xc0000

000000000000d22c <.LBB71_1148>:
    d22c:	92c43423          	sd	a2,-1752(s0)
    d230:	d5843583          	ld	a1,-680(s0)
    d234:	f3843603          	ld	a2,-200(s0)
    d238:	00c585b3          	add	a1,a1,a2
    d23c:	f1043603          	ld	a2,-240(s0)
    d240:	00a60633          	add	a2,a2,a0
    d244:	40c585bb          	subw	a1,a1,a2
    d248:	2405859b          	addiw	a1,a1,576
    d24c:	40000637          	lui	a2,0x40000
    d250:	94b43023          	sd	a1,-1728(s0)
    d254:	0005d463          	bgez	a1,d25c <.LBB71_1150>
    d258:	c0000637          	lui	a2,0xc0000

000000000000d25c <.LBB71_1150>:
    d25c:	92c43c23          	sd	a2,-1736(s0)
    d260:	d6043583          	ld	a1,-672(s0)
    d264:	f4843603          	ld	a2,-184(s0)
    d268:	00c585b3          	add	a1,a1,a2
    d26c:	f2043603          	ld	a2,-224(s0)
    d270:	00a60633          	add	a2,a2,a0
    d274:	40c585bb          	subw	a1,a1,a2
    d278:	2405859b          	addiw	a1,a1,576
    d27c:	40000637          	lui	a2,0x40000
    d280:	94b43823          	sd	a1,-1712(s0)
    d284:	0005d463          	bgez	a1,d28c <.LBB71_1152>
    d288:	c0000637          	lui	a2,0xc0000

000000000000d28c <.LBB71_1152>:
    d28c:	94c43423          	sd	a2,-1720(s0)
    d290:	d6843583          	ld	a1,-664(s0)
    d294:	f5843603          	ld	a2,-168(s0)
    d298:	00c585b3          	add	a1,a1,a2
    d29c:	f3043603          	ld	a2,-208(s0)
    d2a0:	00a60633          	add	a2,a2,a0
    d2a4:	40c585bb          	subw	a1,a1,a2
    d2a8:	2405859b          	addiw	a1,a1,576
    d2ac:	40000637          	lui	a2,0x40000
    d2b0:	96b43023          	sd	a1,-1696(s0)
    d2b4:	0005d463          	bgez	a1,d2bc <.LBB71_1154>
    d2b8:	c0000637          	lui	a2,0xc0000

000000000000d2bc <.LBB71_1154>:
    d2bc:	94c43c23          	sd	a2,-1704(s0)
    d2c0:	d7043583          	ld	a1,-656(s0)
    d2c4:	f6843603          	ld	a2,-152(s0)
    d2c8:	00c585b3          	add	a1,a1,a2
    d2cc:	f4043603          	ld	a2,-192(s0)
    d2d0:	00a60633          	add	a2,a2,a0
    d2d4:	40c585bb          	subw	a1,a1,a2
    d2d8:	2405859b          	addiw	a1,a1,576
    d2dc:	40000637          	lui	a2,0x40000
    d2e0:	96b43823          	sd	a1,-1680(s0)
    d2e4:	0005d463          	bgez	a1,d2ec <.LBB71_1156>
    d2e8:	c0000637          	lui	a2,0xc0000

000000000000d2ec <.LBB71_1156>:
    d2ec:	96c43423          	sd	a2,-1688(s0)
    d2f0:	d7843583          	ld	a1,-648(s0)
    d2f4:	f7843603          	ld	a2,-136(s0)
    d2f8:	00c585b3          	add	a1,a1,a2
    d2fc:	f5043603          	ld	a2,-176(s0)
    d300:	00a60633          	add	a2,a2,a0
    d304:	40c585bb          	subw	a1,a1,a2
    d308:	2405859b          	addiw	a1,a1,576
    d30c:	40000637          	lui	a2,0x40000
    d310:	98b43023          	sd	a1,-1664(s0)
    d314:	0005d463          	bgez	a1,d31c <.LBB71_1158>
    d318:	c0000637          	lui	a2,0xc0000

000000000000d31c <.LBB71_1158>:
    d31c:	96c43c23          	sd	a2,-1672(s0)
    d320:	d8043583          	ld	a1,-640(s0)
    d324:	f8043603          	ld	a2,-128(s0)
    d328:	00c585b3          	add	a1,a1,a2
    d32c:	f6043603          	ld	a2,-160(s0)
    d330:	00a60633          	add	a2,a2,a0
    d334:	40c585bb          	subw	a1,a1,a2
    d338:	2405859b          	addiw	a1,a1,576
    d33c:	40000637          	lui	a2,0x40000
    d340:	98b43823          	sd	a1,-1648(s0)
    d344:	0005d463          	bgez	a1,d34c <.LBB71_1160>
    d348:	c0000637          	lui	a2,0xc0000

000000000000d34c <.LBB71_1160>:
    d34c:	98c43423          	sd	a2,-1656(s0)
    d350:	d8843583          	ld	a1,-632(s0)
    d354:	f8843603          	ld	a2,-120(s0)
    d358:	00c585b3          	add	a1,a1,a2
    d35c:	f7043603          	ld	a2,-144(s0)
    d360:	00a60533          	add	a0,a2,a0
    d364:	40a585bb          	subw	a1,a1,a0
    d368:	2405851b          	addiw	a0,a1,576
    d36c:	40000637          	lui	a2,0x40000
    d370:	d9043583          	ld	a1,-624(s0)
    d374:	9aa43023          	sd	a0,-1632(s0)
    d378:	00055463          	bgez	a0,d380 <.LBB71_1162>
    d37c:	c0000637          	lui	a2,0xc0000

000000000000d380 <.LBB71_1162>:
    d380:	98c43c23          	sd	a2,-1640(s0)
    d384:	00600513          	li	a0,6
    d388:	02a68533          	mul	a0,a3,a0
    d38c:	ad843603          	ld	a2,-1320(s0)
    d390:	00c585b3          	add	a1,a1,a2
    d394:	ad043603          	ld	a2,-1328(s0)
    d398:	00a60633          	add	a2,a2,a0
    d39c:	40c585bb          	subw	a1,a1,a2
    d3a0:	2405859b          	addiw	a1,a1,576
    d3a4:	40000637          	lui	a2,0x40000
    d3a8:	9ab43823          	sd	a1,-1616(s0)
    d3ac:	0005d463          	bgez	a1,d3b4 <.LBB71_1164>
    d3b0:	c0000637          	lui	a2,0xc0000

000000000000d3b4 <.LBB71_1164>:
    d3b4:	9ac43423          	sd	a2,-1624(s0)
    d3b8:	ac843583          	ld	a1,-1336(s0)
    d3bc:	00b785b3          	add	a1,a5,a1
    d3c0:	ac043603          	ld	a2,-1344(s0)
    d3c4:	00a60633          	add	a2,a2,a0
    d3c8:	40c585bb          	subw	a1,a1,a2
    d3cc:	2405859b          	addiw	a1,a1,576
    d3d0:	40000637          	lui	a2,0x40000
    d3d4:	e8043783          	ld	a5,-384(s0)
    d3d8:	df043683          	ld	a3,-528(s0)
    d3dc:	9cb43023          	sd	a1,-1600(s0)
    d3e0:	0005d463          	bgez	a1,d3e8 <.LBB71_1166>
    d3e4:	c0000637          	lui	a2,0xc0000

000000000000d3e8 <.LBB71_1166>:
    d3e8:	9ac43c23          	sd	a2,-1608(s0)
    d3ec:	ab843583          	ld	a1,-1352(s0)
    d3f0:	00b285b3          	add	a1,t0,a1
    d3f4:	ab043603          	ld	a2,-1360(s0)
    d3f8:	00a60633          	add	a2,a2,a0
    d3fc:	40c585bb          	subw	a1,a1,a2
    d400:	2405859b          	addiw	a1,a1,576
    d404:	40000637          	lui	a2,0x40000
    d408:	e9043283          	ld	t0,-368(s0)
    d40c:	9cb43823          	sd	a1,-1584(s0)
    d410:	0005d463          	bgez	a1,d418 <.LBB71_1168>
    d414:	c0000637          	lui	a2,0xc0000

000000000000d418 <.LBB71_1168>:
    d418:	9cc43423          	sd	a2,-1592(s0)
    d41c:	da843583          	ld	a1,-600(s0)
    d420:	aa843603          	ld	a2,-1368(s0)
    d424:	00c585b3          	add	a1,a1,a2
    d428:	aa043603          	ld	a2,-1376(s0)
    d42c:	00a60633          	add	a2,a2,a0
    d430:	40c585bb          	subw	a1,a1,a2
    d434:	2405859b          	addiw	a1,a1,576
    d438:	40000637          	lui	a2,0x40000
    d43c:	9eb43023          	sd	a1,-1568(s0)
    d440:	0005d463          	bgez	a1,d448 <.LBB71_1170>
    d444:	c0000637          	lui	a2,0xc0000

000000000000d448 <.LBB71_1170>:
    d448:	9cc43c23          	sd	a2,-1576(s0)
    d44c:	db043583          	ld	a1,-592(s0)
    d450:	a9843603          	ld	a2,-1384(s0)
    d454:	00c585b3          	add	a1,a1,a2
    d458:	a9043603          	ld	a2,-1392(s0)
    d45c:	00a60633          	add	a2,a2,a0
    d460:	40c585bb          	subw	a1,a1,a2
    d464:	2405859b          	addiw	a1,a1,576
    d468:	40000637          	lui	a2,0x40000
    d46c:	9eb43823          	sd	a1,-1552(s0)
    d470:	0005d463          	bgez	a1,d478 <.LBB71_1172>
    d474:	c0000637          	lui	a2,0xc0000

000000000000d478 <.LBB71_1172>:
    d478:	9ec43423          	sd	a2,-1560(s0)
    d47c:	db843583          	ld	a1,-584(s0)
    d480:	a8843603          	ld	a2,-1400(s0)
    d484:	00c585b3          	add	a1,a1,a2
    d488:	a8043603          	ld	a2,-1408(s0)
    d48c:	00a60633          	add	a2,a2,a0
    d490:	40c585bb          	subw	a1,a1,a2
    d494:	2405859b          	addiw	a1,a1,576
    d498:	40000637          	lui	a2,0x40000
    d49c:	a0b43023          	sd	a1,-1536(s0)
    d4a0:	0005d463          	bgez	a1,d4a8 <.LBB71_1174>
    d4a4:	c0000637          	lui	a2,0xc0000

000000000000d4a8 <.LBB71_1174>:
    d4a8:	9ec43c23          	sd	a2,-1544(s0)
    d4ac:	dc043583          	ld	a1,-576(s0)
    d4b0:	a7843603          	ld	a2,-1416(s0)
    d4b4:	00c585b3          	add	a1,a1,a2
    d4b8:	a7043603          	ld	a2,-1424(s0)
    d4bc:	00a60633          	add	a2,a2,a0
    d4c0:	40c585bb          	subw	a1,a1,a2
    d4c4:	2405859b          	addiw	a1,a1,576
    d4c8:	40000637          	lui	a2,0x40000
    d4cc:	a0b43823          	sd	a1,-1520(s0)
    d4d0:	0005d463          	bgez	a1,d4d8 <.LBB71_1176>
    d4d4:	c0000637          	lui	a2,0xc0000

000000000000d4d8 <.LBB71_1176>:
    d4d8:	a0c43423          	sd	a2,-1528(s0)
    d4dc:	dc843583          	ld	a1,-568(s0)
    d4e0:	a6843603          	ld	a2,-1432(s0)
    d4e4:	00c585b3          	add	a1,a1,a2
    d4e8:	a6043603          	ld	a2,-1440(s0)
    d4ec:	00a60633          	add	a2,a2,a0
    d4f0:	40c585bb          	subw	a1,a1,a2
    d4f4:	2405859b          	addiw	a1,a1,576
    d4f8:	40000637          	lui	a2,0x40000
    d4fc:	a2b43023          	sd	a1,-1504(s0)
    d500:	0005d463          	bgez	a1,d508 <.LBB71_1178>
    d504:	c0000637          	lui	a2,0xc0000

000000000000d508 <.LBB71_1178>:
    d508:	a0c43c23          	sd	a2,-1512(s0)
    d50c:	dd043583          	ld	a1,-560(s0)
    d510:	a5843603          	ld	a2,-1448(s0)
    d514:	00c585b3          	add	a1,a1,a2
    d518:	a5043603          	ld	a2,-1456(s0)
    d51c:	00a60633          	add	a2,a2,a0
    d520:	40c585bb          	subw	a1,a1,a2
    d524:	2405859b          	addiw	a1,a1,576
    d528:	40000637          	lui	a2,0x40000
    d52c:	a2b43823          	sd	a1,-1488(s0)
    d530:	0005d463          	bgez	a1,d538 <.LBB71_1180>
    d534:	c0000637          	lui	a2,0xc0000

000000000000d538 <.LBB71_1180>:
    d538:	a2c43423          	sd	a2,-1496(s0)
    d53c:	dd843583          	ld	a1,-552(s0)
    d540:	a4843603          	ld	a2,-1464(s0)
    d544:	00c585b3          	add	a1,a1,a2
    d548:	bd843603          	ld	a2,-1064(s0)
    d54c:	00a60633          	add	a2,a2,a0
    d550:	40c585bb          	subw	a1,a1,a2
    d554:	2405859b          	addiw	a1,a1,576
    d558:	40000637          	lui	a2,0x40000
    d55c:	b6b43423          	sd	a1,-1176(s0)
    d560:	0005d463          	bgez	a1,d568 <.LBB71_1182>
    d564:	c0000637          	lui	a2,0xc0000

000000000000d568 <.LBB71_1182>:
    d568:	a2c43c23          	sd	a2,-1480(s0)
    d56c:	de043583          	ld	a1,-544(s0)
    d570:	af843603          	ld	a2,-1288(s0)
    d574:	00c585b3          	add	a1,a1,a2
    d578:	ae043603          	ld	a2,-1312(s0)
    d57c:	00a60633          	add	a2,a2,a0
    d580:	40c585bb          	subw	a1,a1,a2
    d584:	2405859b          	addiw	a1,a1,576
    d588:	40000637          	lui	a2,0x40000
    d58c:	b6b43c23          	sd	a1,-1160(s0)
    d590:	0005d463          	bgez	a1,d598 <.LBB71_1184>
    d594:	c0000637          	lui	a2,0xc0000

000000000000d598 <.LBB71_1184>:
    d598:	b6c43823          	sd	a2,-1168(s0)
    d59c:	b0843583          	ld	a1,-1272(s0)
    d5a0:	00bd05b3          	add	a1,s10,a1
    d5a4:	ae843603          	ld	a2,-1304(s0)
    d5a8:	00a60633          	add	a2,a2,a0
    d5ac:	40c585bb          	subw	a1,a1,a2
    d5b0:	2405859b          	addiw	a1,a1,576
    d5b4:	40000637          	lui	a2,0x40000
    d5b8:	beb43023          	sd	a1,-1056(s0)
    d5bc:	0005d463          	bgez	a1,d5c4 <.LBB71_1186>
    d5c0:	c0000637          	lui	a2,0xc0000

000000000000d5c4 <.LBB71_1186>:
    d5c4:	bcc43823          	sd	a2,-1072(s0)
    d5c8:	b1843583          	ld	a1,-1256(s0)
    d5cc:	00b685b3          	add	a1,a3,a1
    d5d0:	af043603          	ld	a2,-1296(s0)
    d5d4:	00a60633          	add	a2,a2,a0
    d5d8:	40c585bb          	subw	a1,a1,a2
    d5dc:	2405859b          	addiw	a1,a1,576
    d5e0:	40000637          	lui	a2,0x40000
    d5e4:	beb43823          	sd	a1,-1040(s0)
    d5e8:	0005d463          	bgez	a1,d5f0 <.LBB71_1188>
    d5ec:	c0000637          	lui	a2,0xc0000

000000000000d5f0 <.LBB71_1188>:
    d5f0:	bec43423          	sd	a2,-1048(s0)
    d5f4:	b2843583          	ld	a1,-1240(s0)
    d5f8:	00b805b3          	add	a1,a6,a1
    d5fc:	b0043603          	ld	a2,-1280(s0)
    d600:	00a60633          	add	a2,a2,a0
    d604:	40c585bb          	subw	a1,a1,a2
    d608:	2405859b          	addiw	a1,a1,576
    d60c:	40000637          	lui	a2,0x40000
    d610:	c0b43023          	sd	a1,-1024(s0)
    d614:	0005d463          	bgez	a1,d61c <.LBB71_1190>
    d618:	c0000637          	lui	a2,0xc0000

000000000000d61c <.LBB71_1190>:
    d61c:	bec43c23          	sd	a2,-1032(s0)
    d620:	df843583          	ld	a1,-520(s0)
    d624:	b3843603          	ld	a2,-1224(s0)
    d628:	00c585b3          	add	a1,a1,a2
    d62c:	b1043603          	ld	a2,-1264(s0)
    d630:	00a60633          	add	a2,a2,a0
    d634:	40c585bb          	subw	a1,a1,a2
    d638:	2405859b          	addiw	a1,a1,576
    d63c:	40000637          	lui	a2,0x40000
    d640:	c0b43823          	sd	a1,-1008(s0)
    d644:	0005d463          	bgez	a1,d64c <.LBB71_1192>
    d648:	c0000637          	lui	a2,0xc0000

000000000000d64c <.LBB71_1192>:
    d64c:	c0c43423          	sd	a2,-1016(s0)
    d650:	e0043583          	ld	a1,-512(s0)
    d654:	b4843603          	ld	a2,-1208(s0)
    d658:	00c585b3          	add	a1,a1,a2
    d65c:	b2043603          	ld	a2,-1248(s0)
    d660:	00a60633          	add	a2,a2,a0
    d664:	40c585bb          	subw	a1,a1,a2
    d668:	2405859b          	addiw	a1,a1,576
    d66c:	40000637          	lui	a2,0x40000
    d670:	c2b43023          	sd	a1,-992(s0)
    d674:	0005d463          	bgez	a1,d67c <.LBB71_1194>
    d678:	c0000637          	lui	a2,0xc0000

000000000000d67c <.LBB71_1194>:
    d67c:	c0c43c23          	sd	a2,-1000(s0)
    d680:	e0843583          	ld	a1,-504(s0)
    d684:	b5843603          	ld	a2,-1192(s0)
    d688:	00c585b3          	add	a1,a1,a2
    d68c:	b3043603          	ld	a2,-1232(s0)
    d690:	00a60633          	add	a2,a2,a0
    d694:	40c585bb          	subw	a1,a1,a2
    d698:	2405859b          	addiw	a1,a1,576
    d69c:	40000637          	lui	a2,0x40000
    d6a0:	c2b43823          	sd	a1,-976(s0)
    d6a4:	0005d463          	bgez	a1,d6ac <.LBB71_1196>
    d6a8:	c0000637          	lui	a2,0xc0000

000000000000d6ac <.LBB71_1196>:
    d6ac:	c2c43423          	sd	a2,-984(s0)
    d6b0:	e1043583          	ld	a1,-496(s0)
    d6b4:	b8043603          	ld	a2,-1152(s0)
    d6b8:	00c585b3          	add	a1,a1,a2
    d6bc:	b4043603          	ld	a2,-1216(s0)
    d6c0:	00a60633          	add	a2,a2,a0
    d6c4:	40c585bb          	subw	a1,a1,a2
    d6c8:	2405859b          	addiw	a1,a1,576
    d6cc:	40000637          	lui	a2,0x40000
    d6d0:	c4b43823          	sd	a1,-944(s0)
    d6d4:	0005d463          	bgez	a1,d6dc <.LBB71_1198>
    d6d8:	c0000637          	lui	a2,0xc0000

000000000000d6dc <.LBB71_1198>:
    d6dc:	c4c43423          	sd	a2,-952(s0)
    d6e0:	e1843583          	ld	a1,-488(s0)
    d6e4:	b9043603          	ld	a2,-1136(s0)
    d6e8:	00c585b3          	add	a1,a1,a2
    d6ec:	b5043603          	ld	a2,-1200(s0)
    d6f0:	00a60633          	add	a2,a2,a0
    d6f4:	40c585bb          	subw	a1,a1,a2
    d6f8:	2405859b          	addiw	a1,a1,576
    d6fc:	40000637          	lui	a2,0x40000
    d700:	c6b43423          	sd	a1,-920(s0)
    d704:	0005d463          	bgez	a1,d70c <.LBB71_1200>
    d708:	c0000637          	lui	a2,0xc0000

000000000000d70c <.LBB71_1200>:
    d70c:	c4c43c23          	sd	a2,-936(s0)
    d710:	e2043583          	ld	a1,-480(s0)
    d714:	ba043603          	ld	a2,-1120(s0)
    d718:	00c585b3          	add	a1,a1,a2
    d71c:	b6043603          	ld	a2,-1184(s0)
    d720:	00a60633          	add	a2,a2,a0
    d724:	40c585bb          	subw	a1,a1,a2
    d728:	2405859b          	addiw	a1,a1,576
    d72c:	40000637          	lui	a2,0x40000
    d730:	c6b43c23          	sd	a1,-904(s0)
    d734:	0005d463          	bgez	a1,d73c <.LBB71_1202>
    d738:	c0000637          	lui	a2,0xc0000

000000000000d73c <.LBB71_1202>:
    d73c:	c6c43823          	sd	a2,-912(s0)
    d740:	e2843583          	ld	a1,-472(s0)
    d744:	bb843603          	ld	a2,-1096(s0)
    d748:	00c585b3          	add	a1,a1,a2
    d74c:	b8843603          	ld	a2,-1144(s0)
    d750:	00a60633          	add	a2,a2,a0
    d754:	40c585bb          	subw	a1,a1,a2
    d758:	2405859b          	addiw	a1,a1,576
    d75c:	40000637          	lui	a2,0x40000
    d760:	c8b43423          	sd	a1,-888(s0)
    d764:	0005d463          	bgez	a1,d76c <.LBB71_1204>
    d768:	c0000637          	lui	a2,0xc0000

000000000000d76c <.LBB71_1204>:
    d76c:	c8c43023          	sd	a2,-896(s0)
    d770:	e3043583          	ld	a1,-464(s0)
    d774:	bc843603          	ld	a2,-1080(s0)
    d778:	00c585b3          	add	a1,a1,a2
    d77c:	b9843603          	ld	a2,-1128(s0)
    d780:	00a60633          	add	a2,a2,a0
    d784:	40c585bb          	subw	a1,a1,a2
    d788:	2405859b          	addiw	a1,a1,576
    d78c:	40000637          	lui	a2,0x40000
    d790:	cab43023          	sd	a1,-864(s0)
    d794:	0005d463          	bgez	a1,d79c <.LBB71_1206>
    d798:	c0000637          	lui	a2,0xc0000

000000000000d79c <.LBB71_1206>:
    d79c:	c8c43c23          	sd	a2,-872(s0)
    d7a0:	e3843583          	ld	a1,-456(s0)
    d7a4:	f0843603          	ld	a2,-248(s0)
    d7a8:	00c585b3          	add	a1,a1,a2
    d7ac:	ba843603          	ld	a2,-1112(s0)
    d7b0:	00a60633          	add	a2,a2,a0
    d7b4:	40c585bb          	subw	a1,a1,a2
    d7b8:	2405859b          	addiw	a1,a1,576
    d7bc:	40000637          	lui	a2,0x40000
    d7c0:	cab43823          	sd	a1,-848(s0)
    d7c4:	0005d463          	bgez	a1,d7cc <.LBB71_1208>
    d7c8:	c0000637          	lui	a2,0xc0000

000000000000d7cc <.LBB71_1208>:
    d7cc:	cac43423          	sd	a2,-856(s0)
    d7d0:	e4043583          	ld	a1,-448(s0)
    d7d4:	f1843603          	ld	a2,-232(s0)
    d7d8:	00c585b3          	add	a1,a1,a2
    d7dc:	bc043603          	ld	a2,-1088(s0)
    d7e0:	00a60633          	add	a2,a2,a0
    d7e4:	40c585bb          	subw	a1,a1,a2
    d7e8:	2405859b          	addiw	a1,a1,576
    d7ec:	40000637          	lui	a2,0x40000
    d7f0:	ccb43023          	sd	a1,-832(s0)
    d7f4:	0005d463          	bgez	a1,d7fc <.LBB71_1210>
    d7f8:	c0000637          	lui	a2,0xc0000

000000000000d7fc <.LBB71_1210>:
    d7fc:	cac43c23          	sd	a2,-840(s0)
    d800:	e4843583          	ld	a1,-440(s0)
    d804:	f2843603          	ld	a2,-216(s0)
    d808:	00c585b3          	add	a1,a1,a2
    d80c:	f0043603          	ld	a2,-256(s0)
    d810:	00a60633          	add	a2,a2,a0
    d814:	40c585bb          	subw	a1,a1,a2
    d818:	2405859b          	addiw	a1,a1,576
    d81c:	40000637          	lui	a2,0x40000
    d820:	ccb43c23          	sd	a1,-808(s0)
    d824:	0005d463          	bgez	a1,d82c <.LBB71_1212>
    d828:	c0000637          	lui	a2,0xc0000

000000000000d82c <.LBB71_1212>:
    d82c:	ccc43423          	sd	a2,-824(s0)
    d830:	e5043583          	ld	a1,-432(s0)
    d834:	f3843603          	ld	a2,-200(s0)
    d838:	00c585b3          	add	a1,a1,a2
    d83c:	f1043603          	ld	a2,-240(s0)
    d840:	00a60633          	add	a2,a2,a0
    d844:	40c585bb          	subw	a1,a1,a2
    d848:	2405859b          	addiw	a1,a1,576
    d84c:	40000637          	lui	a2,0x40000
    d850:	ceb43423          	sd	a1,-792(s0)
    d854:	0005d463          	bgez	a1,d85c <.LBB71_1214>
    d858:	c0000637          	lui	a2,0xc0000

000000000000d85c <.LBB71_1214>:
    d85c:	cec43023          	sd	a2,-800(s0)
    d860:	e5843583          	ld	a1,-424(s0)
    d864:	f4843603          	ld	a2,-184(s0)
    d868:	00c585b3          	add	a1,a1,a2
    d86c:	f2043603          	ld	a2,-224(s0)
    d870:	00a60633          	add	a2,a2,a0
    d874:	40c585bb          	subw	a1,a1,a2
    d878:	2405859b          	addiw	a1,a1,576
    d87c:	40000637          	lui	a2,0x40000
    d880:	ceb43c23          	sd	a1,-776(s0)
    d884:	0005d463          	bgez	a1,d88c <.LBB71_1216>
    d888:	c0000637          	lui	a2,0xc0000

000000000000d88c <.LBB71_1216>:
    d88c:	cec43823          	sd	a2,-784(s0)
    d890:	e6043583          	ld	a1,-416(s0)
    d894:	f5843603          	ld	a2,-168(s0)
    d898:	00c585b3          	add	a1,a1,a2
    d89c:	f3043603          	ld	a2,-208(s0)
    d8a0:	00a60633          	add	a2,a2,a0
    d8a4:	40c585bb          	subw	a1,a1,a2
    d8a8:	2405859b          	addiw	a1,a1,576
    d8ac:	40000637          	lui	a2,0x40000
    d8b0:	d0b43423          	sd	a1,-760(s0)
    d8b4:	0005d463          	bgez	a1,d8bc <.LBB71_1218>
    d8b8:	c0000637          	lui	a2,0xc0000

000000000000d8bc <.LBB71_1218>:
    d8bc:	d0c43023          	sd	a2,-768(s0)
    d8c0:	e6843583          	ld	a1,-408(s0)
    d8c4:	f6843603          	ld	a2,-152(s0)
    d8c8:	00c585b3          	add	a1,a1,a2
    d8cc:	f4043603          	ld	a2,-192(s0)
    d8d0:	00a60633          	add	a2,a2,a0
    d8d4:	40c585bb          	subw	a1,a1,a2
    d8d8:	2405859b          	addiw	a1,a1,576
    d8dc:	40000637          	lui	a2,0x40000
    d8e0:	d2b43023          	sd	a1,-736(s0)
    d8e4:	0005d463          	bgez	a1,d8ec <.LBB71_1220>
    d8e8:	c0000637          	lui	a2,0xc0000

000000000000d8ec <.LBB71_1220>:
    d8ec:	d0c43c23          	sd	a2,-744(s0)
    d8f0:	e7043583          	ld	a1,-400(s0)
    d8f4:	f7843603          	ld	a2,-136(s0)
    d8f8:	00c585b3          	add	a1,a1,a2
    d8fc:	f5043603          	ld	a2,-176(s0)
    d900:	00a60633          	add	a2,a2,a0
    d904:	40c585bb          	subw	a1,a1,a2
    d908:	2405859b          	addiw	a1,a1,576
    d90c:	40000637          	lui	a2,0x40000
    d910:	d2b43823          	sd	a1,-720(s0)
    d914:	0005d463          	bgez	a1,d91c <.LBB71_1222>
    d918:	c0000637          	lui	a2,0xc0000

000000000000d91c <.LBB71_1222>:
    d91c:	d2c43423          	sd	a2,-728(s0)
    d920:	e7843583          	ld	a1,-392(s0)
    d924:	f8043603          	ld	a2,-128(s0)
    d928:	00c585b3          	add	a1,a1,a2
    d92c:	f6043603          	ld	a2,-160(s0)
    d930:	00a60633          	add	a2,a2,a0
    d934:	40c585bb          	subw	a1,a1,a2
    d938:	2405859b          	addiw	a1,a1,576
    d93c:	40000637          	lui	a2,0x40000
    d940:	d4b43023          	sd	a1,-704(s0)
    d944:	0005d463          	bgez	a1,d94c <.LBB71_1224>
    d948:	c0000637          	lui	a2,0xc0000

000000000000d94c <.LBB71_1224>:
    d94c:	d2c43c23          	sd	a2,-712(s0)
    d950:	f8843583          	ld	a1,-120(s0)
    d954:	00be05b3          	add	a1,t3,a1
    d958:	f7043603          	ld	a2,-144(s0)
    d95c:	00a60533          	add	a0,a2,a0
    d960:	40a585bb          	subw	a1,a1,a0
    d964:	2405851b          	addiw	a0,a1,576
    d968:	40000637          	lui	a2,0x40000
    d96c:	e8843583          	ld	a1,-376(s0)
    d970:	d4a43823          	sd	a0,-688(s0)
    d974:	00055463          	bgez	a0,d97c <.LBB71_1226>
    d978:	c0000637          	lui	a2,0xc0000

000000000000d97c <.LBB71_1226>:
    d97c:	d4c43423          	sd	a2,-696(s0)
    d980:	00600513          	li	a0,6
    d984:	00001637          	lui	a2,0x1
    d988:	40c40633          	sub	a2,s0,a2
    d98c:	5a063603          	ld	a2,1440(a2) # 15a0 <.LBB71_4+0x3a0>
    d990:	02a60533          	mul	a0,a2,a0
    d994:	ad843603          	ld	a2,-1320(s0)
    d998:	00c585b3          	add	a1,a1,a2
    d99c:	ad043603          	ld	a2,-1328(s0)
    d9a0:	00a60633          	add	a2,a2,a0
    d9a4:	40c585bb          	subw	a1,a1,a2
    d9a8:	2405859b          	addiw	a1,a1,576
    d9ac:	40000637          	lui	a2,0x40000
    d9b0:	d6b43423          	sd	a1,-664(s0)
    d9b4:	0005d463          	bgez	a1,d9bc <.LBB71_1228>
    d9b8:	c0000637          	lui	a2,0xc0000

000000000000d9bc <.LBB71_1228>:
    d9bc:	d6c43023          	sd	a2,-672(s0)
    d9c0:	ac843583          	ld	a1,-1336(s0)
    d9c4:	00b285b3          	add	a1,t0,a1
    d9c8:	ac043603          	ld	a2,-1344(s0)
    d9cc:	00a60633          	add	a2,a2,a0
    d9d0:	40c585bb          	subw	a1,a1,a2
    d9d4:	2405859b          	addiw	a1,a1,576
    d9d8:	40000637          	lui	a2,0x40000
    d9dc:	ee043e03          	ld	t3,-288(s0)
    d9e0:	ee843283          	ld	t0,-280(s0)
    d9e4:	d6b43c23          	sd	a1,-648(s0)
    d9e8:	0005d463          	bgez	a1,d9f0 <.LBB71_1230>
    d9ec:	c0000637          	lui	a2,0xc0000

000000000000d9f0 <.LBB71_1230>:
    d9f0:	d6c43823          	sd	a2,-656(s0)
    d9f4:	e9843583          	ld	a1,-360(s0)
    d9f8:	ab843603          	ld	a2,-1352(s0)
    d9fc:	00c585b3          	add	a1,a1,a2
    da00:	ab043603          	ld	a2,-1360(s0)
    da04:	00a60633          	add	a2,a2,a0
    da08:	40c585bb          	subw	a1,a1,a2
    da0c:	2405859b          	addiw	a1,a1,576
    da10:	40000637          	lui	a2,0x40000
    da14:	d8b43423          	sd	a1,-632(s0)
    da18:	0005d463          	bgez	a1,da20 <.LBB71_1232>
    da1c:	c0000637          	lui	a2,0xc0000

000000000000da20 <.LBB71_1232>:
    da20:	d8c43023          	sd	a2,-640(s0)
    da24:	ea043583          	ld	a1,-352(s0)
    da28:	aa843603          	ld	a2,-1368(s0)
    da2c:	00c585b3          	add	a1,a1,a2
    da30:	aa043603          	ld	a2,-1376(s0)
    da34:	00a60633          	add	a2,a2,a0
    da38:	40c585bb          	subw	a1,a1,a2
    da3c:	2405859b          	addiw	a1,a1,576
    da40:	40000637          	lui	a2,0x40000
    da44:	d8b43c23          	sd	a1,-616(s0)
    da48:	0005d463          	bgez	a1,da50 <.LBB71_1234>
    da4c:	c0000637          	lui	a2,0xc0000

000000000000da50 <.LBB71_1234>:
    da50:	d8c43823          	sd	a2,-624(s0)
    da54:	ea843583          	ld	a1,-344(s0)
    da58:	a9843603          	ld	a2,-1384(s0)
    da5c:	00c585b3          	add	a1,a1,a2
    da60:	a9043603          	ld	a2,-1392(s0)
    da64:	00a60633          	add	a2,a2,a0
    da68:	40c585bb          	subw	a1,a1,a2
    da6c:	2405859b          	addiw	a1,a1,576
    da70:	40000637          	lui	a2,0x40000
    da74:	dab43823          	sd	a1,-592(s0)
    da78:	0005d463          	bgez	a1,da80 <.LBB71_1236>
    da7c:	c0000637          	lui	a2,0xc0000

000000000000da80 <.LBB71_1236>:
    da80:	dac43423          	sd	a2,-600(s0)
    da84:	eb043583          	ld	a1,-336(s0)
    da88:	a8843603          	ld	a2,-1400(s0)
    da8c:	00c585b3          	add	a1,a1,a2
    da90:	a8043603          	ld	a2,-1408(s0)
    da94:	00a60633          	add	a2,a2,a0
    da98:	40c585bb          	subw	a1,a1,a2
    da9c:	2405859b          	addiw	a1,a1,576
    daa0:	40000637          	lui	a2,0x40000
    daa4:	dcb43023          	sd	a1,-576(s0)
    daa8:	0005d463          	bgez	a1,dab0 <.LBB71_1238>
    daac:	c0000637          	lui	a2,0xc0000

000000000000dab0 <.LBB71_1238>:
    dab0:	dac43c23          	sd	a2,-584(s0)
    dab4:	eb843583          	ld	a1,-328(s0)
    dab8:	a7843603          	ld	a2,-1416(s0)
    dabc:	00c585b3          	add	a1,a1,a2
    dac0:	a7043603          	ld	a2,-1424(s0)
    dac4:	00a60633          	add	a2,a2,a0
    dac8:	40c585bb          	subw	a1,a1,a2
    dacc:	2405859b          	addiw	a1,a1,576
    dad0:	40000637          	lui	a2,0x40000
    dad4:	dcb43823          	sd	a1,-560(s0)
    dad8:	0005d463          	bgez	a1,dae0 <.LBB71_1240>
    dadc:	c0000637          	lui	a2,0xc0000

000000000000dae0 <.LBB71_1240>:
    dae0:	dcc43423          	sd	a2,-568(s0)
    dae4:	ec043583          	ld	a1,-320(s0)
    dae8:	a6843603          	ld	a2,-1432(s0)
    daec:	00c585b3          	add	a1,a1,a2
    daf0:	a6043603          	ld	a2,-1440(s0)
    daf4:	00a60633          	add	a2,a2,a0
    daf8:	40c585bb          	subw	a1,a1,a2
    dafc:	2405859b          	addiw	a1,a1,576
    db00:	40000637          	lui	a2,0x40000
    db04:	deb43423          	sd	a1,-536(s0)
    db08:	0005d463          	bgez	a1,db10 <.LBB71_1242>
    db0c:	c0000637          	lui	a2,0xc0000

000000000000db10 <.LBB71_1242>:
    db10:	dcc43c23          	sd	a2,-552(s0)
    db14:	ec843583          	ld	a1,-312(s0)
    db18:	a5843603          	ld	a2,-1448(s0)
    db1c:	00c585b3          	add	a1,a1,a2
    db20:	a5043603          	ld	a2,-1456(s0)
    db24:	00a60633          	add	a2,a2,a0
    db28:	40c585bb          	subw	a1,a1,a2
    db2c:	2405859b          	addiw	a1,a1,576
    db30:	40000637          	lui	a2,0x40000
    db34:	deb43c23          	sd	a1,-520(s0)
    db38:	0005d463          	bgez	a1,db40 <.LBB71_1244>
    db3c:	c0000637          	lui	a2,0xc0000

000000000000db40 <.LBB71_1244>:
    db40:	dec43823          	sd	a2,-528(s0)
    db44:	ed043583          	ld	a1,-304(s0)
    db48:	a4843603          	ld	a2,-1464(s0)
    db4c:	00c585b3          	add	a1,a1,a2
    db50:	bd843603          	ld	a2,-1064(s0)
    db54:	00a60633          	add	a2,a2,a0
    db58:	40c585bb          	subw	a1,a1,a2
    db5c:	2405859b          	addiw	a1,a1,576
    db60:	40000d37          	lui	s10,0x40000
    db64:	e0b43423          	sd	a1,-504(s0)
    db68:	0005d463          	bgez	a1,db70 <.LBB71_1246>
    db6c:	c0000d37          	lui	s10,0xc0000

000000000000db70 <.LBB71_1246>:
    db70:	ed843583          	ld	a1,-296(s0)
    db74:	af843603          	ld	a2,-1288(s0)
    db78:	00c585b3          	add	a1,a1,a2
    db7c:	ae043603          	ld	a2,-1312(s0)
    db80:	00a60633          	add	a2,a2,a0
    db84:	40c585bb          	subw	a1,a1,a2
    db88:	2405859b          	addiw	a1,a1,576
    db8c:	400006b7          	lui	a3,0x40000
    db90:	e0b43823          	sd	a1,-496(s0)
    db94:	0005d463          	bgez	a1,db9c <.LBB71_1248>
    db98:	c00006b7          	lui	a3,0xc0000

000000000000db9c <.LBB71_1248>:
    db9c:	b0843583          	ld	a1,-1272(s0)
    dba0:	c3843603          	ld	a2,-968(s0)
    dba4:	00b605b3          	add	a1,a2,a1
    dba8:	ae843603          	ld	a2,-1304(s0)
    dbac:	00a60633          	add	a2,a2,a0
    dbb0:	40c585bb          	subw	a1,a1,a2
    dbb4:	2405859b          	addiw	a1,a1,576
    dbb8:	40000637          	lui	a2,0x40000
    dbbc:	e2b43423          	sd	a1,-472(s0)
    dbc0:	0005d463          	bgez	a1,dbc8 <.LBB71_1250>
    dbc4:	c0000637          	lui	a2,0xc0000

000000000000dbc8 <.LBB71_1250>:
    dbc8:	e2c43023          	sd	a2,-480(s0)
    dbcc:	b1843583          	ld	a1,-1256(s0)
    dbd0:	00b785b3          	add	a1,a5,a1
    dbd4:	af043603          	ld	a2,-1296(s0)
    dbd8:	00a60633          	add	a2,a2,a0
    dbdc:	40c585bb          	subw	a1,a1,a2
    dbe0:	2405859b          	addiw	a1,a1,576
    dbe4:	40000837          	lui	a6,0x40000
    dbe8:	e2b43823          	sd	a1,-464(s0)
    dbec:	0005d463          	bgez	a1,dbf4 <.LBB71_1252>
    dbf0:	c0000837          	lui	a6,0xc0000

000000000000dbf4 <.LBB71_1252>:
    dbf4:	b2843583          	ld	a1,-1240(s0)
    dbf8:	00b285b3          	add	a1,t0,a1
    dbfc:	b0043603          	ld	a2,-1280(s0)
    dc00:	00a60633          	add	a2,a2,a0
    dc04:	40c585bb          	subw	a1,a1,a2
    dc08:	2405859b          	addiw	a1,a1,576
    dc0c:	400007b7          	lui	a5,0x40000
    dc10:	e2b43c23          	sd	a1,-456(s0)
    dc14:	0005d463          	bgez	a1,dc1c <.LBB71_1254>
    dc18:	c00007b7          	lui	a5,0xc0000

000000000000dc1c <.LBB71_1254>:
    dc1c:	b3843583          	ld	a1,-1224(s0)
    dc20:	00be05b3          	add	a1,t3,a1
    dc24:	b1043603          	ld	a2,-1264(s0)
    dc28:	00a60633          	add	a2,a2,a0
    dc2c:	40c585bb          	subw	a1,a1,a2
    dc30:	24058e1b          	addiw	t3,a1,576
    dc34:	400005b7          	lui	a1,0x40000
    dc38:	000e5463          	bgez	t3,dc40 <.LBB71_1256>
    dc3c:	c00005b7          	lui	a1,0xc0000

000000000000dc40 <.LBB71_1256>:
    dc40:	e4b43023          	sd	a1,-448(s0)
    dc44:	b4843583          	ld	a1,-1208(s0)
    dc48:	c6043603          	ld	a2,-928(s0)
    dc4c:	00b605b3          	add	a1,a2,a1
    dc50:	b2043603          	ld	a2,-1248(s0)
    dc54:	00a60633          	add	a2,a2,a0
    dc58:	40c585bb          	subw	a1,a1,a2
    dc5c:	2405859b          	addiw	a1,a1,576 # ffffffffc0000240 <.Lfunc_end80+0xffffffffbffd7878>
    dc60:	40000637          	lui	a2,0x40000
    dc64:	e4b43c23          	sd	a1,-424(s0)
    dc68:	0005d463          	bgez	a1,dc70 <.LBB71_1258>
    dc6c:	c0000637          	lui	a2,0xc0000

000000000000dc70 <.LBB71_1258>:
    dc70:	e4c43823          	sd	a2,-432(s0)
    dc74:	b5843583          	ld	a1,-1192(s0)
    dc78:	00bf05b3          	add	a1,t5,a1
    dc7c:	b3043603          	ld	a2,-1232(s0)
    dc80:	00a60633          	add	a2,a2,a0
    dc84:	40c585bb          	subw	a1,a1,a2
    dc88:	2405859b          	addiw	a1,a1,576
    dc8c:	40000637          	lui	a2,0x40000
    dc90:	e6b43423          	sd	a1,-408(s0)
    dc94:	0005d463          	bgez	a1,dc9c <.LBB71_1260>
    dc98:	c0000637          	lui	a2,0xc0000

000000000000dc9c <.LBB71_1260>:
    dc9c:	e6c43023          	sd	a2,-416(s0)
    dca0:	b8043583          	ld	a1,-1152(s0)
    dca4:	ef043603          	ld	a2,-272(s0)
    dca8:	00b605b3          	add	a1,a2,a1
    dcac:	b4043603          	ld	a2,-1216(s0)
    dcb0:	00a60633          	add	a2,a2,a0
    dcb4:	40c585bb          	subw	a1,a1,a2
    dcb8:	2405859b          	addiw	a1,a1,576
    dcbc:	40000637          	lui	a2,0x40000
    dcc0:	e6b43c23          	sd	a1,-392(s0)
    dcc4:	0005d463          	bgez	a1,dccc <.LBB71_1262>
    dcc8:	c0000637          	lui	a2,0xc0000

000000000000dccc <.LBB71_1262>:
    dccc:	e6c43823          	sd	a2,-400(s0)
    dcd0:	b9043583          	ld	a1,-1136(s0)
    dcd4:	00b885b3          	add	a1,a7,a1
    dcd8:	b5043603          	ld	a2,-1200(s0)
    dcdc:	00a60633          	add	a2,a2,a0
    dce0:	40c585bb          	subw	a1,a1,a2
    dce4:	2405859b          	addiw	a1,a1,576
    dce8:	40000637          	lui	a2,0x40000
    dcec:	e8b43823          	sd	a1,-368(s0)
    dcf0:	0005d463          	bgez	a1,dcf8 <.LBB71_1264>
    dcf4:	c0000637          	lui	a2,0xc0000

000000000000dcf8 <.LBB71_1264>:
    dcf8:	e8c43023          	sd	a2,-384(s0)
    dcfc:	ba043583          	ld	a1,-1120(s0)
    dd00:	ef843603          	ld	a2,-264(s0)
    dd04:	00b605b3          	add	a1,a2,a1
    dd08:	b6043603          	ld	a2,-1184(s0)
    dd0c:	00a60633          	add	a2,a2,a0
    dd10:	40c585bb          	subw	a1,a1,a2
    dd14:	2405859b          	addiw	a1,a1,576
    dd18:	40000637          	lui	a2,0x40000
    dd1c:	eab43023          	sd	a1,-352(s0)
    dd20:	0005d463          	bgez	a1,dd28 <.LBB71_1266>
    dd24:	c0000637          	lui	a2,0xc0000

000000000000dd28 <.LBB71_1266>:
    dd28:	e8c43c23          	sd	a2,-360(s0)
    dd2c:	bb843583          	ld	a1,-1096(s0)
    dd30:	00bd85b3          	add	a1,s11,a1
    dd34:	b8843603          	ld	a2,-1144(s0)
    dd38:	00a60633          	add	a2,a2,a0
    dd3c:	40c585bb          	subw	a1,a1,a2
    dd40:	2405859b          	addiw	a1,a1,576
    dd44:	40000637          	lui	a2,0x40000
    dd48:	eab43823          	sd	a1,-336(s0)
    dd4c:	0005d463          	bgez	a1,dd54 <.LBB71_1268>
    dd50:	c0000637          	lui	a2,0xc0000

000000000000dd54 <.LBB71_1268>:
    dd54:	eac43423          	sd	a2,-344(s0)
    dd58:	bc843583          	ld	a1,-1080(s0)
    dd5c:	00ba05b3          	add	a1,s4,a1
    dd60:	b9843603          	ld	a2,-1128(s0)
    dd64:	00a60633          	add	a2,a2,a0
    dd68:	40c585bb          	subw	a1,a1,a2
    dd6c:	24058d9b          	addiw	s11,a1,576
    dd70:	400005b7          	lui	a1,0x40000
    dd74:	000dd463          	bgez	s11,dd7c <.LBB71_1270>
    dd78:	c00005b7          	lui	a1,0xc0000

000000000000dd7c <.LBB71_1270>:
    dd7c:	eab43c23          	sd	a1,-328(s0)
    dd80:	f0843583          	ld	a1,-248(s0)
    dd84:	00b985b3          	add	a1,s3,a1
    dd88:	ba843603          	ld	a2,-1112(s0)
    dd8c:	00a60633          	add	a2,a2,a0
    dd90:	40c585bb          	subw	a1,a1,a2
    dd94:	2405861b          	addiw	a2,a1,576 # ffffffffc0000240 <.Lfunc_end80+0xffffffffbffd7878>
    dd98:	400005b7          	lui	a1,0x40000
    dd9c:	e0c43023          	sd	a2,-512(s0)
    dda0:	00065463          	bgez	a2,dda8 <.LBB71_1272>
    dda4:	c00005b7          	lui	a1,0xc0000

000000000000dda8 <.LBB71_1272>:
    dda8:	ecb43423          	sd	a1,-312(s0)
    ddac:	f1843583          	ld	a1,-232(s0)
    ddb0:	00b905b3          	add	a1,s2,a1
    ddb4:	bc043603          	ld	a2,-1088(s0)
    ddb8:	00a60633          	add	a2,a2,a0
    ddbc:	40c585bb          	subw	a1,a1,a2
    ddc0:	2405861b          	addiw	a2,a1,576 # ffffffffc0000240 <.Lfunc_end80+0xffffffffbffd7878>
    ddc4:	400005b7          	lui	a1,0x40000
    ddc8:	000018b7          	lui	a7,0x1
    ddcc:	411408b3          	sub	a7,s0,a7
    ddd0:	5ac8b023          	sd	a2,1440(a7) # 15a0 <.LBB71_4+0x3a0>
    ddd4:	00065463          	bgez	a2,dddc <.LBB71_1274>
    ddd8:	c00005b7          	lui	a1,0xc0000

000000000000dddc <.LBB71_1274>:
    dddc:	ecb43823          	sd	a1,-304(s0)
    dde0:	f2843583          	ld	a1,-216(s0)
    dde4:	00b385b3          	add	a1,t2,a1
    dde8:	f0043603          	ld	a2,-256(s0)
    ddec:	00a60633          	add	a2,a2,a0
    ddf0:	40c585bb          	subw	a1,a1,a2
    ddf4:	24058a1b          	addiw	s4,a1,576 # ffffffffc0000240 <.Lfunc_end80+0xffffffffbffd7878>
    ddf8:	40000bb7          	lui	s7,0x40000
    ddfc:	000a5463          	bgez	s4,de04 <.LBB71_1276>
    de00:	c0000bb7          	lui	s7,0xc0000

000000000000de04 <.LBB71_1276>:
    de04:	00068293          	mv	t0,a3
    de08:	f3843583          	ld	a1,-200(s0)
    de0c:	00be85b3          	add	a1,t4,a1
    de10:	f1043603          	ld	a2,-240(s0)
    de14:	00a60633          	add	a2,a2,a0
    de18:	40c585bb          	subw	a1,a1,a2
    de1c:	2405859b          	addiw	a1,a1,576
    de20:	40000637          	lui	a2,0x40000
    de24:	eeb43023          	sd	a1,-288(s0)
    de28:	0005d463          	bgez	a1,de30 <.LBB71_1278>
    de2c:	c0000637          	lui	a2,0xc0000

000000000000de30 <.LBB71_1278>:
    de30:	ecc43c23          	sd	a2,-296(s0)
    de34:	f4843583          	ld	a1,-184(s0)
    de38:	bb043603          	ld	a2,-1104(s0)
    de3c:	00b605b3          	add	a1,a2,a1
    de40:	f2043603          	ld	a2,-224(s0)
    de44:	00a60633          	add	a2,a2,a0
    de48:	40c585bb          	subw	a1,a1,a2
    de4c:	2405859b          	addiw	a1,a1,576
    de50:	400006b7          	lui	a3,0x40000
    de54:	00001637          	lui	a2,0x1
    de58:	40c40633          	sub	a2,s0,a2
    de5c:	58b63c23          	sd	a1,1432(a2) # 1598 <.LBB71_4+0x398>
    de60:	0005d463          	bgez	a1,de68 <.LBB71_1280>
    de64:	c00006b7          	lui	a3,0xc0000

000000000000de68 <.LBB71_1280>:
    de68:	f5843583          	ld	a1,-168(s0)
    de6c:	00b705b3          	add	a1,a4,a1
    de70:	f3043603          	ld	a2,-208(s0)
    de74:	00a60633          	add	a2,a2,a0
    de78:	40c585bb          	subw	a1,a1,a2
    de7c:	2405861b          	addiw	a2,a1,576
    de80:	400005b7          	lui	a1,0x40000
    de84:	00001737          	lui	a4,0x1
    de88:	40e40733          	sub	a4,s0,a4
    de8c:	58c73823          	sd	a2,1424(a4) # 1590 <.LBB71_4+0x390>
    de90:	00065463          	bgez	a2,de98 <.LBB71_1282>
    de94:	c00005b7          	lui	a1,0xc0000

000000000000de98 <.LBB71_1282>:
    de98:	eed43823          	sd	a3,-272(s0)
    de9c:	eeb43c23          	sd	a1,-264(s0)
    dea0:	f6843583          	ld	a1,-152(s0)
    dea4:	00b485b3          	add	a1,s1,a1
    dea8:	f4043603          	ld	a2,-192(s0)
    deac:	00a60633          	add	a2,a2,a0
    deb0:	40c585bb          	subw	a1,a1,a2
    deb4:	2405861b          	addiw	a2,a1,576 # ffffffffc0000240 <.Lfunc_end80+0xffffffffbffd7878>
    deb8:	400005b7          	lui	a1,0x40000
    debc:	a4c43423          	sd	a2,-1464(s0)
    dec0:	00065463          	bgez	a2,dec8 <.LBB71_1284>
    dec4:	c00005b7          	lui	a1,0xc0000

000000000000dec8 <.LBB71_1284>:
    dec8:	f0b43023          	sd	a1,-256(s0)
    decc:	f7843583          	ld	a1,-136(s0)
    ded0:	00ba85b3          	add	a1,s5,a1
    ded4:	f5043603          	ld	a2,-176(s0)
    ded8:	00a60633          	add	a2,a2,a0
    dedc:	40c585bb          	subw	a1,a1,a2
    dee0:	2405859b          	addiw	a1,a1,576 # ffffffffc0000240 <.Lfunc_end80+0xffffffffbffd7878>
    dee4:	40000fb7          	lui	t6,0x40000
    dee8:	f0b43c23          	sd	a1,-232(s0)
    deec:	00028693          	mv	a3,t0
    def0:	0005d463          	bgez	a1,def8 <.LBB71_1286>
    def4:	c0000fb7          	lui	t6,0xc0000

000000000000def8 <.LBB71_1286>:
    def8:	f8043583          	ld	a1,-128(s0)
    defc:	00b305b3          	add	a1,t1,a1
    df00:	f6043603          	ld	a2,-160(s0)
    df04:	00a60633          	add	a2,a2,a0
    df08:	40c585bb          	subw	a1,a1,a2
    df0c:	2405861b          	addiw	a2,a1,576
    df10:	400005b7          	lui	a1,0x40000
    df14:	f0c43423          	sd	a2,-248(s0)
    df18:	00065463          	bgez	a2,df20 <.LBB71_1288>
    df1c:	c00005b7          	lui	a1,0xc0000

000000000000df20 <.LBB71_1288>:
    df20:	f2b43023          	sd	a1,-224(s0)
    df24:	f8843583          	ld	a1,-120(s0)
    df28:	00bb05b3          	add	a1,s6,a1
    df2c:	f7043603          	ld	a2,-144(s0)
    df30:	00a60533          	add	a0,a2,a0
    df34:	40a585bb          	subw	a1,a1,a0
    df38:	2405851b          	addiw	a0,a1,576 # ffffffffc0000240 <.Lfunc_end80+0xffffffffbffd7878>
    df3c:	f2a43423          	sd	a0,-216(s0)
    df40:	400002b7          	lui	t0,0x40000
    df44:	00055463          	bgez	a0,df4c <.LBB71_1290>
    df48:	c00002b7          	lui	t0,0xc0000

000000000000df4c <.LBB71_1290>:
    df4c:	00001537          	lui	a0,0x1
    df50:	40a40533          	sub	a0,s0,a0
    df54:	6a053503          	ld	a0,1696(a0) # 16a0 <.LBB71_4+0x4a0>
    df58:	03950533          	mul	a0,a0,s9
    df5c:	000015b7          	lui	a1,0x1
    df60:	40b405b3          	sub	a1,s0,a1
    df64:	6805b583          	ld	a1,1664(a1) # 1680 <.LBB71_4+0x480>
    df68:	001585b3          	add	a1,a1,ra
    df6c:	00b50533          	add	a0,a0,a1
    df70:	42555513          	srai	a0,a0,0x25
    df74:	00a025b3          	sgtz	a1,a0
    df78:	40b005b3          	neg	a1,a1
    df7c:	00a5f533          	and	a0,a1,a0
    df80:	0ff00993          	li	s3,255
    df84:	01354463          	blt	a0,s3,df8c <.LBB71_1292>
    df88:	0ff00513          	li	a0,255

000000000000df8c <.LBB71_1292>:
    df8c:	f4a43423          	sd	a0,-184(s0)
    df90:	00001537          	lui	a0,0x1
    df94:	40a40533          	sub	a0,s0,a0
    df98:	6b853503          	ld	a0,1720(a0) # 16b8 <.LBB71_4+0x4b8>
    df9c:	03950533          	mul	a0,a0,s9
    dfa0:	000015b7          	lui	a1,0x1
    dfa4:	40b405b3          	sub	a1,s0,a1
    dfa8:	6985b583          	ld	a1,1688(a1) # 1698 <.LBB71_4+0x498>
    dfac:	001585b3          	add	a1,a1,ra
    dfb0:	00b50533          	add	a0,a0,a1
    dfb4:	42555513          	srai	a0,a0,0x25
    dfb8:	00a025b3          	sgtz	a1,a0
    dfbc:	40b005b3          	neg	a1,a1
    dfc0:	00a5f533          	and	a0,a1,a0
    dfc4:	01354463          	blt	a0,s3,dfcc <.LBB71_1294>
    dfc8:	0ff00513          	li	a0,255

000000000000dfcc <.LBB71_1294>:
    dfcc:	f8a43423          	sd	a0,-120(s0)
    dfd0:	00001537          	lui	a0,0x1
    dfd4:	40a40533          	sub	a0,s0,a0
    dfd8:	6c853503          	ld	a0,1736(a0) # 16c8 <.LBB71_4+0x4c8>
    dfdc:	03950533          	mul	a0,a0,s9
    dfe0:	000015b7          	lui	a1,0x1
    dfe4:	40b405b3          	sub	a1,s0,a1
    dfe8:	6a85b583          	ld	a1,1704(a1) # 16a8 <.LBB71_4+0x4a8>
    dfec:	001585b3          	add	a1,a1,ra
    dff0:	00b50533          	add	a0,a0,a1
    dff4:	42555513          	srai	a0,a0,0x25
    dff8:	00a025b3          	sgtz	a1,a0
    dffc:	40b005b3          	neg	a1,a1
    e000:	00a5f533          	and	a0,a1,a0
    e004:	01354463          	blt	a0,s3,e00c <.LBB71_1296>
    e008:	0ff00513          	li	a0,255

000000000000e00c <.LBB71_1296>:
    e00c:	f8a43023          	sd	a0,-128(s0)
    e010:	00001537          	lui	a0,0x1
    e014:	40a40533          	sub	a0,s0,a0
    e018:	6e053503          	ld	a0,1760(a0) # 16e0 <.LBB71_4+0x4e0>
    e01c:	03950533          	mul	a0,a0,s9
    e020:	000015b7          	lui	a1,0x1
    e024:	40b405b3          	sub	a1,s0,a1
    e028:	6c05b583          	ld	a1,1728(a1) # 16c0 <.LBB71_4+0x4c0>
    e02c:	001585b3          	add	a1,a1,ra
    e030:	00b50533          	add	a0,a0,a1
    e034:	42555513          	srai	a0,a0,0x25
    e038:	00a025b3          	sgtz	a1,a0
    e03c:	40b005b3          	neg	a1,a1
    e040:	00a5f533          	and	a0,a1,a0
    e044:	01354463          	blt	a0,s3,e04c <.LBB71_1298>
    e048:	0ff00513          	li	a0,255

000000000000e04c <.LBB71_1298>:
    e04c:	f6a43c23          	sd	a0,-136(s0)
    e050:	00001537          	lui	a0,0x1
    e054:	40a40533          	sub	a0,s0,a0
    e058:	6f853503          	ld	a0,1784(a0) # 16f8 <.LBB71_4+0x4f8>
    e05c:	03950533          	mul	a0,a0,s9
    e060:	000015b7          	lui	a1,0x1
    e064:	40b405b3          	sub	a1,s0,a1
    e068:	6d85b583          	ld	a1,1752(a1) # 16d8 <.LBB71_4+0x4d8>
    e06c:	001585b3          	add	a1,a1,ra
    e070:	00b50533          	add	a0,a0,a1
    e074:	42555513          	srai	a0,a0,0x25
    e078:	00a025b3          	sgtz	a1,a0
    e07c:	40b005b3          	neg	a1,a1
    e080:	00a5f533          	and	a0,a1,a0
    e084:	01354463          	blt	a0,s3,e08c <.LBB71_1300>
    e088:	0ff00513          	li	a0,255

000000000000e08c <.LBB71_1300>:
    e08c:	f6a43823          	sd	a0,-144(s0)
    e090:	00001537          	lui	a0,0x1
    e094:	40a40533          	sub	a0,s0,a0
    e098:	70853503          	ld	a0,1800(a0) # 1708 <.LBB71_4+0x508>
    e09c:	03950533          	mul	a0,a0,s9
    e0a0:	000015b7          	lui	a1,0x1
    e0a4:	40b405b3          	sub	a1,s0,a1
    e0a8:	6e85b583          	ld	a1,1768(a1) # 16e8 <.LBB71_4+0x4e8>
    e0ac:	001585b3          	add	a1,a1,ra
    e0b0:	00b50533          	add	a0,a0,a1
    e0b4:	42555513          	srai	a0,a0,0x25
    e0b8:	00a025b3          	sgtz	a1,a0
    e0bc:	40b005b3          	neg	a1,a1
    e0c0:	00a5f533          	and	a0,a1,a0
    e0c4:	01354463          	blt	a0,s3,e0cc <.LBB71_1302>
    e0c8:	0ff00513          	li	a0,255

000000000000e0cc <.LBB71_1302>:
    e0cc:	f6a43423          	sd	a0,-152(s0)
    e0d0:	00001537          	lui	a0,0x1
    e0d4:	40a40533          	sub	a0,s0,a0
    e0d8:	72053503          	ld	a0,1824(a0) # 1720 <.LBB71_4+0x520>
    e0dc:	03950533          	mul	a0,a0,s9
    e0e0:	000015b7          	lui	a1,0x1
    e0e4:	40b405b3          	sub	a1,s0,a1
    e0e8:	7005b583          	ld	a1,1792(a1) # 1700 <.LBB71_4+0x500>
    e0ec:	001585b3          	add	a1,a1,ra
    e0f0:	00b50533          	add	a0,a0,a1
    e0f4:	42555513          	srai	a0,a0,0x25
    e0f8:	00a025b3          	sgtz	a1,a0
    e0fc:	40b005b3          	neg	a1,a1
    e100:	00a5f533          	and	a0,a1,a0
    e104:	01354463          	blt	a0,s3,e10c <.LBB71_1304>
    e108:	0ff00513          	li	a0,255

000000000000e10c <.LBB71_1304>:
    e10c:	f6a43023          	sd	a0,-160(s0)
    e110:	00001537          	lui	a0,0x1
    e114:	40a40533          	sub	a0,s0,a0
    e118:	73853503          	ld	a0,1848(a0) # 1738 <.LBB71_5+0x4>
    e11c:	03950533          	mul	a0,a0,s9
    e120:	000015b7          	lui	a1,0x1
    e124:	40b405b3          	sub	a1,s0,a1
    e128:	7185b583          	ld	a1,1816(a1) # 1718 <.LBB71_4+0x518>
    e12c:	001585b3          	add	a1,a1,ra
    e130:	00b50533          	add	a0,a0,a1
    e134:	42555513          	srai	a0,a0,0x25
    e138:	00a025b3          	sgtz	a1,a0
    e13c:	40b005b3          	neg	a1,a1
    e140:	00a5f533          	and	a0,a1,a0
    e144:	01354463          	blt	a0,s3,e14c <.LBB71_1306>
    e148:	0ff00513          	li	a0,255

000000000000e14c <.LBB71_1306>:
    e14c:	f4a43c23          	sd	a0,-168(s0)
    e150:	00001537          	lui	a0,0x1
    e154:	40a40533          	sub	a0,s0,a0
    e158:	74053503          	ld	a0,1856(a0) # 1740 <.LBB71_5+0xc>
    e15c:	03950533          	mul	a0,a0,s9
    e160:	000015b7          	lui	a1,0x1
    e164:	40b405b3          	sub	a1,s0,a1
    e168:	7285b583          	ld	a1,1832(a1) # 1728 <.LBB71_4+0x528>
    e16c:	001585b3          	add	a1,a1,ra
    e170:	00b50533          	add	a0,a0,a1
    e174:	42555513          	srai	a0,a0,0x25
    e178:	00a025b3          	sgtz	a1,a0
    e17c:	40b005b3          	neg	a1,a1
    e180:	00a5f533          	and	a0,a1,a0
    e184:	01354463          	blt	a0,s3,e18c <.LBB71_1308>
    e188:	0ff00513          	li	a0,255

000000000000e18c <.LBB71_1308>:
    e18c:	f4a43823          	sd	a0,-176(s0)
    e190:	00001537          	lui	a0,0x1
    e194:	40a40533          	sub	a0,s0,a0
    e198:	5b053503          	ld	a0,1456(a0) # 15b0 <.LBB71_4+0x3b0>
    e19c:	03950533          	mul	a0,a0,s9
    e1a0:	000015b7          	lui	a1,0x1
    e1a4:	40b405b3          	sub	a1,s0,a1
    e1a8:	5a85b583          	ld	a1,1448(a1) # 15a8 <.LBB71_4+0x3a8>
    e1ac:	001585b3          	add	a1,a1,ra
    e1b0:	00b50533          	add	a0,a0,a1
    e1b4:	42555513          	srai	a0,a0,0x25
    e1b8:	00a025b3          	sgtz	a1,a0
    e1bc:	40b005b3          	neg	a1,a1
    e1c0:	00a5f533          	and	a0,a1,a0
    e1c4:	01354463          	blt	a0,s3,e1cc <.LBB71_1310>
    e1c8:	0ff00513          	li	a0,255

000000000000e1cc <.LBB71_1310>:
    e1cc:	f4a43023          	sd	a0,-192(s0)
    e1d0:	00001537          	lui	a0,0x1
    e1d4:	40a40533          	sub	a0,s0,a0
    e1d8:	5c053503          	ld	a0,1472(a0) # 15c0 <.LBB71_4+0x3c0>
    e1dc:	03950533          	mul	a0,a0,s9
    e1e0:	000015b7          	lui	a1,0x1
    e1e4:	40b405b3          	sub	a1,s0,a1
    e1e8:	5b85b583          	ld	a1,1464(a1) # 15b8 <.LBB71_4+0x3b8>
    e1ec:	001585b3          	add	a1,a1,ra
    e1f0:	00b50533          	add	a0,a0,a1
    e1f4:	42555513          	srai	a0,a0,0x25
    e1f8:	00a025b3          	sgtz	a1,a0
    e1fc:	40b005b3          	neg	a1,a1
    e200:	00a5f533          	and	a0,a1,a0
    e204:	01354463          	blt	a0,s3,e20c <.LBB71_1312>
    e208:	0ff00513          	li	a0,255

000000000000e20c <.LBB71_1312>:
    e20c:	f2a43c23          	sd	a0,-200(s0)
    e210:	00001537          	lui	a0,0x1
    e214:	40a40533          	sub	a0,s0,a0
    e218:	5d053503          	ld	a0,1488(a0) # 15d0 <.LBB71_4+0x3d0>
    e21c:	03950533          	mul	a0,a0,s9
    e220:	000015b7          	lui	a1,0x1
    e224:	40b405b3          	sub	a1,s0,a1
    e228:	5c85b583          	ld	a1,1480(a1) # 15c8 <.LBB71_4+0x3c8>
    e22c:	001585b3          	add	a1,a1,ra
    e230:	00b50533          	add	a0,a0,a1
    e234:	42555513          	srai	a0,a0,0x25
    e238:	00a025b3          	sgtz	a1,a0
    e23c:	40b005b3          	neg	a1,a1
    e240:	00a5f533          	and	a0,a1,a0
    e244:	01354463          	blt	a0,s3,e24c <.LBB71_1314>
    e248:	0ff00513          	li	a0,255

000000000000e24c <.LBB71_1314>:
    e24c:	f2a43823          	sd	a0,-208(s0)
    e250:	00001537          	lui	a0,0x1
    e254:	40a40533          	sub	a0,s0,a0
    e258:	5e053503          	ld	a0,1504(a0) # 15e0 <.LBB71_4+0x3e0>
    e25c:	03950533          	mul	a0,a0,s9
    e260:	000015b7          	lui	a1,0x1
    e264:	40b405b3          	sub	a1,s0,a1
    e268:	5d85b583          	ld	a1,1496(a1) # 15d8 <.LBB71_4+0x3d8>
    e26c:	001585b3          	add	a1,a1,ra
    e270:	00b50533          	add	a0,a0,a1
    e274:	42555513          	srai	a0,a0,0x25
    e278:	00a025b3          	sgtz	a1,a0
    e27c:	40b005b3          	neg	a1,a1
    e280:	00a5f533          	and	a0,a1,a0
    e284:	01354463          	blt	a0,s3,e28c <.LBB71_1316>
    e288:	0ff00513          	li	a0,255

000000000000e28c <.LBB71_1316>:
    e28c:	f0a43823          	sd	a0,-240(s0)
    e290:	00001537          	lui	a0,0x1
    e294:	40a40533          	sub	a0,s0,a0
    e298:	5f053503          	ld	a0,1520(a0) # 15f0 <.LBB71_4+0x3f0>
    e29c:	03950533          	mul	a0,a0,s9
    e2a0:	000015b7          	lui	a1,0x1
    e2a4:	40b405b3          	sub	a1,s0,a1
    e2a8:	5e85b583          	ld	a1,1512(a1) # 15e8 <.LBB71_4+0x3e8>
    e2ac:	001585b3          	add	a1,a1,ra
    e2b0:	00b50533          	add	a0,a0,a1
    e2b4:	42555513          	srai	a0,a0,0x25
    e2b8:	00a025b3          	sgtz	a1,a0
    e2bc:	40b005b3          	neg	a1,a1
    e2c0:	00a5f533          	and	a0,a1,a0
    e2c4:	01354463          	blt	a0,s3,e2cc <.LBB71_1318>
    e2c8:	0ff00513          	li	a0,255

000000000000e2cc <.LBB71_1318>:
    e2cc:	eea43423          	sd	a0,-280(s0)
    e2d0:	00001537          	lui	a0,0x1
    e2d4:	40a40533          	sub	a0,s0,a0
    e2d8:	60053503          	ld	a0,1536(a0) # 1600 <.LBB71_4+0x400>
    e2dc:	03950533          	mul	a0,a0,s9
    e2e0:	000015b7          	lui	a1,0x1
    e2e4:	40b405b3          	sub	a1,s0,a1
    e2e8:	5f85b583          	ld	a1,1528(a1) # 15f8 <.LBB71_4+0x3f8>
    e2ec:	001585b3          	add	a1,a1,ra
    e2f0:	00b50533          	add	a0,a0,a1
    e2f4:	42555513          	srai	a0,a0,0x25
    e2f8:	00a025b3          	sgtz	a1,a0
    e2fc:	40b005b3          	neg	a1,a1
    e300:	00a5f533          	and	a0,a1,a0
    e304:	01354463          	blt	a0,s3,e30c <.LBB71_1320>
    e308:	0ff00513          	li	a0,255

000000000000e30c <.LBB71_1320>:
    e30c:	eca43023          	sd	a0,-320(s0)
    e310:	00001537          	lui	a0,0x1
    e314:	40a40533          	sub	a0,s0,a0
    e318:	61053503          	ld	a0,1552(a0) # 1610 <.LBB71_4+0x410>
    e31c:	03950533          	mul	a0,a0,s9
    e320:	000015b7          	lui	a1,0x1
    e324:	40b405b3          	sub	a1,s0,a1
    e328:	6085b583          	ld	a1,1544(a1) # 1608 <.LBB71_4+0x408>
    e32c:	001585b3          	add	a1,a1,ra
    e330:	00b50533          	add	a0,a0,a1
    e334:	42555513          	srai	a0,a0,0x25
    e338:	00a025b3          	sgtz	a1,a0
    e33c:	40b005b3          	neg	a1,a1
    e340:	00a5f533          	and	a0,a1,a0
    e344:	01354463          	blt	a0,s3,e34c <.LBB71_1322>
    e348:	0ff00513          	li	a0,255

000000000000e34c <.LBB71_1322>:
    e34c:	e8a43423          	sd	a0,-376(s0)
    e350:	00001537          	lui	a0,0x1
    e354:	40a40533          	sub	a0,s0,a0
    e358:	62053503          	ld	a0,1568(a0) # 1620 <.LBB71_4+0x420>
    e35c:	03950533          	mul	a0,a0,s9
    e360:	000015b7          	lui	a1,0x1
    e364:	40b405b3          	sub	a1,s0,a1
    e368:	6185b583          	ld	a1,1560(a1) # 1618 <.LBB71_4+0x418>
    e36c:	001585b3          	add	a1,a1,ra
    e370:	00b50533          	add	a0,a0,a1
    e374:	42555513          	srai	a0,a0,0x25
    e378:	00a025b3          	sgtz	a1,a0
    e37c:	40b005b3          	neg	a1,a1
    e380:	00a5f533          	and	a0,a1,a0
    e384:	01354463          	blt	a0,s3,e38c <.LBB71_1324>
    e388:	0ff00513          	li	a0,255

000000000000e38c <.LBB71_1324>:
    e38c:	e4a43423          	sd	a0,-440(s0)
    e390:	00001537          	lui	a0,0x1
    e394:	40a40533          	sub	a0,s0,a0
    e398:	63053503          	ld	a0,1584(a0) # 1630 <.LBB71_4+0x430>
    e39c:	03950533          	mul	a0,a0,s9
    e3a0:	000015b7          	lui	a1,0x1
    e3a4:	40b405b3          	sub	a1,s0,a1
    e3a8:	6285b583          	ld	a1,1576(a1) # 1628 <.LBB71_4+0x428>
    e3ac:	001585b3          	add	a1,a1,ra
    e3b0:	00b50533          	add	a0,a0,a1
    e3b4:	42555513          	srai	a0,a0,0x25
    e3b8:	00a025b3          	sgtz	a1,a0
    e3bc:	40b005b3          	neg	a1,a1
    e3c0:	00a5f533          	and	a0,a1,a0
    e3c4:	01354463          	blt	a0,s3,e3cc <.LBB71_1326>
    e3c8:	0ff00513          	li	a0,255

000000000000e3cc <.LBB71_1326>:
    e3cc:	e0a43c23          	sd	a0,-488(s0)
    e3d0:	00001537          	lui	a0,0x1
    e3d4:	40a40533          	sub	a0,s0,a0
    e3d8:	64053503          	ld	a0,1600(a0) # 1640 <.LBB71_4+0x440>
    e3dc:	03950533          	mul	a0,a0,s9
    e3e0:	000015b7          	lui	a1,0x1
    e3e4:	40b405b3          	sub	a1,s0,a1
    e3e8:	6385b583          	ld	a1,1592(a1) # 1638 <.LBB71_4+0x438>
    e3ec:	001585b3          	add	a1,a1,ra
    e3f0:	00b50533          	add	a0,a0,a1
    e3f4:	42555513          	srai	a0,a0,0x25
    e3f8:	00a025b3          	sgtz	a1,a0
    e3fc:	40b005b3          	neg	a1,a1
    e400:	00a5f533          	and	a0,a1,a0
    e404:	01354463          	blt	a0,s3,e40c <.LBB71_1328>
    e408:	0ff00513          	li	a0,255

000000000000e40c <.LBB71_1328>:
    e40c:	dea43023          	sd	a0,-544(s0)
    e410:	00001537          	lui	a0,0x1
    e414:	40a40533          	sub	a0,s0,a0
    e418:	65053503          	ld	a0,1616(a0) # 1650 <.LBB71_4+0x450>
    e41c:	03950533          	mul	a0,a0,s9
    e420:	000015b7          	lui	a1,0x1
    e424:	40b405b3          	sub	a1,s0,a1
    e428:	6485b583          	ld	a1,1608(a1) # 1648 <.LBB71_4+0x448>
    e42c:	001585b3          	add	a1,a1,ra
    e430:	00b50533          	add	a0,a0,a1
    e434:	42555513          	srai	a0,a0,0x25
    e438:	00a025b3          	sgtz	a1,a0
    e43c:	40b005b3          	neg	a1,a1
    e440:	00a5f533          	and	a0,a1,a0
    e444:	01354463          	blt	a0,s3,e44c <.LBB71_1330>
    e448:	0ff00513          	li	a0,255

000000000000e44c <.LBB71_1330>:
    e44c:	daa43023          	sd	a0,-608(s0)
    e450:	00001537          	lui	a0,0x1
    e454:	40a40533          	sub	a0,s0,a0
    e458:	66053503          	ld	a0,1632(a0) # 1660 <.LBB71_4+0x460>
    e45c:	03950533          	mul	a0,a0,s9
    e460:	000015b7          	lui	a1,0x1
    e464:	40b405b3          	sub	a1,s0,a1
    e468:	6585b583          	ld	a1,1624(a1) # 1658 <.LBB71_4+0x458>
    e46c:	001585b3          	add	a1,a1,ra
    e470:	00b50533          	add	a0,a0,a1
    e474:	42555513          	srai	a0,a0,0x25
    e478:	00a025b3          	sgtz	a1,a0
    e47c:	40b005b3          	neg	a1,a1
    e480:	00a5f533          	and	a0,a1,a0
    e484:	01354463          	blt	a0,s3,e48c <.LBB71_1332>
    e488:	0ff00513          	li	a0,255

000000000000e48c <.LBB71_1332>:
    e48c:	d4a43c23          	sd	a0,-680(s0)
    e490:	00001537          	lui	a0,0x1
    e494:	40a40533          	sub	a0,s0,a0
    e498:	67053503          	ld	a0,1648(a0) # 1670 <.LBB71_4+0x470>
    e49c:	03950533          	mul	a0,a0,s9
    e4a0:	000015b7          	lui	a1,0x1
    e4a4:	40b405b3          	sub	a1,s0,a1
    e4a8:	6685b583          	ld	a1,1640(a1) # 1668 <.LBB71_4+0x468>
    e4ac:	001585b3          	add	a1,a1,ra
    e4b0:	00b50533          	add	a0,a0,a1
    e4b4:	42555513          	srai	a0,a0,0x25
    e4b8:	00a025b3          	sgtz	a1,a0
    e4bc:	40b005b3          	neg	a1,a1
    e4c0:	00a5f533          	and	a0,a1,a0
    e4c4:	01354463          	blt	a0,s3,e4cc <.LBB71_1334>
    e4c8:	0ff00513          	li	a0,255

000000000000e4cc <.LBB71_1334>:
    e4cc:	d0a43823          	sd	a0,-752(s0)
    e4d0:	00001537          	lui	a0,0x1
    e4d4:	40a40533          	sub	a0,s0,a0
    e4d8:	68853503          	ld	a0,1672(a0) # 1688 <.LBB71_4+0x488>
    e4dc:	03950533          	mul	a0,a0,s9
    e4e0:	000015b7          	lui	a1,0x1
    e4e4:	40b405b3          	sub	a1,s0,a1
    e4e8:	6785b583          	ld	a1,1656(a1) # 1678 <.LBB71_4+0x478>
    e4ec:	001585b3          	add	a1,a1,ra
    e4f0:	00b50533          	add	a0,a0,a1
    e4f4:	42555513          	srai	a0,a0,0x25
    e4f8:	00a025b3          	sgtz	a1,a0
    e4fc:	40b005b3          	neg	a1,a1
    e500:	00a5f533          	and	a0,a1,a0
    e504:	01354463          	blt	a0,s3,e50c <.LBB71_1336>
    e508:	0ff00513          	li	a0,255

000000000000e50c <.LBB71_1336>:
    e50c:	cca43823          	sd	a0,-816(s0)
    e510:	00001537          	lui	a0,0x1
    e514:	40a40533          	sub	a0,s0,a0
    e518:	6b053503          	ld	a0,1712(a0) # 16b0 <.LBB71_4+0x4b0>
    e51c:	03950533          	mul	a0,a0,s9
    e520:	000015b7          	lui	a1,0x1
    e524:	40b405b3          	sub	a1,s0,a1
    e528:	6905b583          	ld	a1,1680(a1) # 1690 <.LBB71_4+0x490>
    e52c:	001585b3          	add	a1,a1,ra
    e530:	00b50533          	add	a0,a0,a1
    e534:	42555513          	srai	a0,a0,0x25
    e538:	00a025b3          	sgtz	a1,a0
    e53c:	40b005b3          	neg	a1,a1
    e540:	00a5f533          	and	a0,a1,a0
    e544:	01354463          	blt	a0,s3,e54c <.LBB71_1338>
    e548:	0ff00513          	li	a0,255

000000000000e54c <.LBB71_1338>:
    e54c:	c8a43823          	sd	a0,-880(s0)
    e550:	00001537          	lui	a0,0x1
    e554:	40a40533          	sub	a0,s0,a0
    e558:	6f053503          	ld	a0,1776(a0) # 16f0 <.LBB71_4+0x4f0>
    e55c:	03950533          	mul	a0,a0,s9
    e560:	000015b7          	lui	a1,0x1
    e564:	40b405b3          	sub	a1,s0,a1
    e568:	6d05b583          	ld	a1,1744(a1) # 16d0 <.LBB71_4+0x4d0>
    e56c:	001585b3          	add	a1,a1,ra
    e570:	00b50533          	add	a0,a0,a1
    e574:	42555513          	srai	a0,a0,0x25
    e578:	00a025b3          	sgtz	a1,a0
    e57c:	40b005b3          	neg	a1,a1
    e580:	00a5f533          	and	a0,a1,a0
    e584:	01354463          	blt	a0,s3,e58c <.LBB71_1340>
    e588:	0ff00513          	li	a0,255

000000000000e58c <.LBB71_1340>:
    e58c:	c6a43023          	sd	a0,-928(s0)
    e590:	00001537          	lui	a0,0x1
    e594:	40a40533          	sub	a0,s0,a0
    e598:	73053503          	ld	a0,1840(a0) # 1730 <.LBB71_4+0x530>
    e59c:	03950533          	mul	a0,a0,s9
    e5a0:	000015b7          	lui	a1,0x1
    e5a4:	40b405b3          	sub	a1,s0,a1
    e5a8:	7105b583          	ld	a1,1808(a1) # 1710 <.LBB71_4+0x510>
    e5ac:	001585b3          	add	a1,a1,ra
    e5b0:	00b50533          	add	a0,a0,a1
    e5b4:	42555513          	srai	a0,a0,0x25
    e5b8:	00a025b3          	sgtz	a1,a0
    e5bc:	40b005b3          	neg	a1,a1
    e5c0:	00a5f533          	and	a0,a1,a0
    e5c4:	01354463          	blt	a0,s3,e5cc <.LBB71_1342>
    e5c8:	0ff00513          	li	a0,255

000000000000e5cc <.LBB71_1342>:
    e5cc:	c4a43023          	sd	a0,-960(s0)
    e5d0:	00001537          	lui	a0,0x1
    e5d4:	40a40533          	sub	a0,s0,a0
    e5d8:	75053503          	ld	a0,1872(a0) # 1750 <.LBB71_5+0x1c>
    e5dc:	03950533          	mul	a0,a0,s9
    e5e0:	000015b7          	lui	a1,0x1
    e5e4:	40b405b3          	sub	a1,s0,a1
    e5e8:	7485b583          	ld	a1,1864(a1) # 1748 <.LBB71_5+0x14>
    e5ec:	001585b3          	add	a1,a1,ra
    e5f0:	00b50533          	add	a0,a0,a1
    e5f4:	42555513          	srai	a0,a0,0x25
    e5f8:	00a025b3          	sgtz	a1,a0
    e5fc:	40b005b3          	neg	a1,a1
    e600:	00a5f533          	and	a0,a1,a0
    e604:	01354463          	blt	a0,s3,e60c <.LBB71_1344>
    e608:	0ff00513          	li	a0,255

000000000000e60c <.LBB71_1344>:
    e60c:	c2a43c23          	sd	a0,-968(s0)
    e610:	00001537          	lui	a0,0x1
    e614:	40a40533          	sub	a0,s0,a0
    e618:	76053503          	ld	a0,1888(a0) # 1760 <.LBB71_5+0x2c>
    e61c:	03950533          	mul	a0,a0,s9
    e620:	000015b7          	lui	a1,0x1
    e624:	40b405b3          	sub	a1,s0,a1
    e628:	7585b583          	ld	a1,1880(a1) # 1758 <.LBB71_5+0x24>
    e62c:	001585b3          	add	a1,a1,ra
    e630:	00b50533          	add	a0,a0,a1
    e634:	42555513          	srai	a0,a0,0x25
    e638:	00a025b3          	sgtz	a1,a0
    e63c:	40b005b3          	neg	a1,a1
    e640:	00a5f533          	and	a0,a1,a0
    e644:	01354463          	blt	a0,s3,e64c <.LBB71_1346>
    e648:	0ff00513          	li	a0,255

000000000000e64c <.LBB71_1346>:
    e64c:	bca43c23          	sd	a0,-1064(s0)
    e650:	00001537          	lui	a0,0x1
    e654:	40a40533          	sub	a0,s0,a0
    e658:	77053503          	ld	a0,1904(a0) # 1770 <.LBB71_5+0x3c>
    e65c:	03950533          	mul	a0,a0,s9
    e660:	000015b7          	lui	a1,0x1
    e664:	40b405b3          	sub	a1,s0,a1
    e668:	7685b583          	ld	a1,1896(a1) # 1768 <.LBB71_5+0x34>
    e66c:	001585b3          	add	a1,a1,ra
    e670:	00b50533          	add	a0,a0,a1
    e674:	42555513          	srai	a0,a0,0x25
    e678:	00a025b3          	sgtz	a1,a0
    e67c:	40b005b3          	neg	a1,a1
    e680:	00a5f533          	and	a0,a1,a0
    e684:	01354463          	blt	a0,s3,e68c <.LBB71_1348>
    e688:	0ff00513          	li	a0,255

000000000000e68c <.LBB71_1348>:
    e68c:	bca43423          	sd	a0,-1080(s0)
    e690:	00001537          	lui	a0,0x1
    e694:	40a40533          	sub	a0,s0,a0
    e698:	78053503          	ld	a0,1920(a0) # 1780 <.LBB71_5+0x4c>
    e69c:	03950533          	mul	a0,a0,s9
    e6a0:	000015b7          	lui	a1,0x1
    e6a4:	40b405b3          	sub	a1,s0,a1
    e6a8:	7785b583          	ld	a1,1912(a1) # 1778 <.LBB71_5+0x44>
    e6ac:	001585b3          	add	a1,a1,ra
    e6b0:	00b50533          	add	a0,a0,a1
    e6b4:	42555513          	srai	a0,a0,0x25
    e6b8:	00a025b3          	sgtz	a1,a0
    e6bc:	40b005b3          	neg	a1,a1
    e6c0:	00a5f533          	and	a0,a1,a0
    e6c4:	01354463          	blt	a0,s3,e6cc <.LBB71_1350>
    e6c8:	0ff00513          	li	a0,255

000000000000e6cc <.LBB71_1350>:
    e6cc:	bca43023          	sd	a0,-1088(s0)
    e6d0:	00001537          	lui	a0,0x1
    e6d4:	40a40533          	sub	a0,s0,a0
    e6d8:	79053503          	ld	a0,1936(a0) # 1790 <.LBB71_5+0x5c>
    e6dc:	03950533          	mul	a0,a0,s9
    e6e0:	000015b7          	lui	a1,0x1
    e6e4:	40b405b3          	sub	a1,s0,a1
    e6e8:	7885b583          	ld	a1,1928(a1) # 1788 <.LBB71_5+0x54>
    e6ec:	001585b3          	add	a1,a1,ra
    e6f0:	00b50533          	add	a0,a0,a1
    e6f4:	42555513          	srai	a0,a0,0x25
    e6f8:	00a025b3          	sgtz	a1,a0
    e6fc:	40b005b3          	neg	a1,a1
    e700:	00a5f533          	and	a0,a1,a0
    e704:	01354463          	blt	a0,s3,e70c <.LBB71_1352>
    e708:	0ff00513          	li	a0,255

000000000000e70c <.LBB71_1352>:
    e70c:	baa43c23          	sd	a0,-1096(s0)
    e710:	00001537          	lui	a0,0x1
    e714:	40a40533          	sub	a0,s0,a0
    e718:	7a053503          	ld	a0,1952(a0) # 17a0 <.LBB71_5+0x6c>
    e71c:	03950533          	mul	a0,a0,s9
    e720:	000015b7          	lui	a1,0x1
    e724:	40b405b3          	sub	a1,s0,a1
    e728:	7985b583          	ld	a1,1944(a1) # 1798 <.LBB71_5+0x64>
    e72c:	001585b3          	add	a1,a1,ra
    e730:	00b50533          	add	a0,a0,a1
    e734:	42555513          	srai	a0,a0,0x25
    e738:	00a025b3          	sgtz	a1,a0
    e73c:	40b005b3          	neg	a1,a1
    e740:	00a5f533          	and	a0,a1,a0
    e744:	01354463          	blt	a0,s3,e74c <.LBB71_1354>
    e748:	0ff00513          	li	a0,255

000000000000e74c <.LBB71_1354>:
    e74c:	baa43823          	sd	a0,-1104(s0)
    e750:	00001537          	lui	a0,0x1
    e754:	40a40533          	sub	a0,s0,a0
    e758:	7b053503          	ld	a0,1968(a0) # 17b0 <.LBB71_5+0x7c>
    e75c:	03950533          	mul	a0,a0,s9
    e760:	000015b7          	lui	a1,0x1
    e764:	40b405b3          	sub	a1,s0,a1
    e768:	7a85b583          	ld	a1,1960(a1) # 17a8 <.LBB71_5+0x74>
    e76c:	001585b3          	add	a1,a1,ra
    e770:	00b50533          	add	a0,a0,a1
    e774:	42555513          	srai	a0,a0,0x25
    e778:	00a025b3          	sgtz	a1,a0
    e77c:	40b005b3          	neg	a1,a1
    e780:	00a5f533          	and	a0,a1,a0
    e784:	01354463          	blt	a0,s3,e78c <.LBB71_1356>
    e788:	0ff00513          	li	a0,255

000000000000e78c <.LBB71_1356>:
    e78c:	baa43423          	sd	a0,-1112(s0)
    e790:	00001537          	lui	a0,0x1
    e794:	40a40533          	sub	a0,s0,a0
    e798:	7c053503          	ld	a0,1984(a0) # 17c0 <.LBB71_5+0x8c>
    e79c:	03950533          	mul	a0,a0,s9
    e7a0:	000015b7          	lui	a1,0x1
    e7a4:	40b405b3          	sub	a1,s0,a1
    e7a8:	7b85b583          	ld	a1,1976(a1) # 17b8 <.LBB71_5+0x84>
    e7ac:	001585b3          	add	a1,a1,ra
    e7b0:	00b50533          	add	a0,a0,a1
    e7b4:	42555513          	srai	a0,a0,0x25
    e7b8:	00a025b3          	sgtz	a1,a0
    e7bc:	40b005b3          	neg	a1,a1
    e7c0:	00a5f533          	and	a0,a1,a0
    e7c4:	01354463          	blt	a0,s3,e7cc <.LBB71_1358>
    e7c8:	0ff00513          	li	a0,255

000000000000e7cc <.LBB71_1358>:
    e7cc:	baa43023          	sd	a0,-1120(s0)
    e7d0:	00001537          	lui	a0,0x1
    e7d4:	40a40533          	sub	a0,s0,a0
    e7d8:	7d053503          	ld	a0,2000(a0) # 17d0 <.LBB71_5+0x9c>
    e7dc:	03950533          	mul	a0,a0,s9
    e7e0:	000015b7          	lui	a1,0x1
    e7e4:	40b405b3          	sub	a1,s0,a1
    e7e8:	7c85b583          	ld	a1,1992(a1) # 17c8 <.LBB71_5+0x94>
    e7ec:	001585b3          	add	a1,a1,ra
    e7f0:	00b50533          	add	a0,a0,a1
    e7f4:	42555513          	srai	a0,a0,0x25
    e7f8:	00a025b3          	sgtz	a1,a0
    e7fc:	40b005b3          	neg	a1,a1
    e800:	00a5f533          	and	a0,a1,a0
    e804:	01354463          	blt	a0,s3,e80c <.LBB71_1360>
    e808:	0ff00513          	li	a0,255

000000000000e80c <.LBB71_1360>:
    e80c:	b8a43c23          	sd	a0,-1128(s0)
    e810:	00001537          	lui	a0,0x1
    e814:	40a40533          	sub	a0,s0,a0
    e818:	7e053503          	ld	a0,2016(a0) # 17e0 <.LBB71_5+0xac>
    e81c:	03950533          	mul	a0,a0,s9
    e820:	000015b7          	lui	a1,0x1
    e824:	40b405b3          	sub	a1,s0,a1
    e828:	7d85b583          	ld	a1,2008(a1) # 17d8 <.LBB71_5+0xa4>
    e82c:	001585b3          	add	a1,a1,ra
    e830:	00b50533          	add	a0,a0,a1
    e834:	42555513          	srai	a0,a0,0x25
    e838:	00a025b3          	sgtz	a1,a0
    e83c:	40b005b3          	neg	a1,a1
    e840:	00a5f533          	and	a0,a1,a0
    e844:	01354463          	blt	a0,s3,e84c <.LBB71_1362>
    e848:	0ff00513          	li	a0,255

000000000000e84c <.LBB71_1362>:
    e84c:	b8a43823          	sd	a0,-1136(s0)
    e850:	00001537          	lui	a0,0x1
    e854:	40a40533          	sub	a0,s0,a0
    e858:	7f053503          	ld	a0,2032(a0) # 17f0 <.LBB71_5+0xbc>
    e85c:	03950533          	mul	a0,a0,s9
    e860:	000015b7          	lui	a1,0x1
    e864:	40b405b3          	sub	a1,s0,a1
    e868:	7e85b583          	ld	a1,2024(a1) # 17e8 <.LBB71_5+0xb4>
    e86c:	001585b3          	add	a1,a1,ra
    e870:	00b50533          	add	a0,a0,a1
    e874:	42555513          	srai	a0,a0,0x25
    e878:	00a025b3          	sgtz	a1,a0
    e87c:	40b005b3          	neg	a1,a1
    e880:	00a5f533          	and	a0,a1,a0
    e884:	01354463          	blt	a0,s3,e88c <.LBB71_1364>
    e888:	0ff00513          	li	a0,255

000000000000e88c <.LBB71_1364>:
    e88c:	b8a43423          	sd	a0,-1144(s0)
    e890:	80043503          	ld	a0,-2048(s0)
    e894:	03950533          	mul	a0,a0,s9
    e898:	000015b7          	lui	a1,0x1
    e89c:	40b405b3          	sub	a1,s0,a1
    e8a0:	7f85b583          	ld	a1,2040(a1) # 17f8 <.LBB71_5+0xc4>
    e8a4:	001585b3          	add	a1,a1,ra
    e8a8:	00b50533          	add	a0,a0,a1
    e8ac:	42555513          	srai	a0,a0,0x25
    e8b0:	00a025b3          	sgtz	a1,a0
    e8b4:	40b005b3          	neg	a1,a1
    e8b8:	00a5f533          	and	a0,a1,a0
    e8bc:	01354463          	blt	a0,s3,e8c4 <.LBB71_1366>
    e8c0:	0ff00513          	li	a0,255

000000000000e8c4 <.LBB71_1366>:
    e8c4:	b8a43023          	sd	a0,-1152(s0)
    e8c8:	81043503          	ld	a0,-2032(s0)
    e8cc:	03950533          	mul	a0,a0,s9
    e8d0:	80843583          	ld	a1,-2040(s0)
    e8d4:	001585b3          	add	a1,a1,ra
    e8d8:	00b50533          	add	a0,a0,a1
    e8dc:	42555513          	srai	a0,a0,0x25
    e8e0:	00a025b3          	sgtz	a1,a0
    e8e4:	40b005b3          	neg	a1,a1
    e8e8:	00a5f533          	and	a0,a1,a0
    e8ec:	01354463          	blt	a0,s3,e8f4 <.LBB71_1368>
    e8f0:	0ff00513          	li	a0,255

000000000000e8f4 <.LBB71_1368>:
    e8f4:	b6a43023          	sd	a0,-1184(s0)
    e8f8:	82043503          	ld	a0,-2016(s0)
    e8fc:	03950533          	mul	a0,a0,s9
    e900:	81843583          	ld	a1,-2024(s0)
    e904:	001585b3          	add	a1,a1,ra
    e908:	00b50533          	add	a0,a0,a1
    e90c:	42555513          	srai	a0,a0,0x25
    e910:	00a025b3          	sgtz	a1,a0
    e914:	40b005b3          	neg	a1,a1
    e918:	00a5f533          	and	a0,a1,a0
    e91c:	01354463          	blt	a0,s3,e924 <.LBB71_1370>
    e920:	0ff00513          	li	a0,255

000000000000e924 <.LBB71_1370>:
    e924:	b4a43c23          	sd	a0,-1192(s0)
    e928:	83043503          	ld	a0,-2000(s0)
    e92c:	03950533          	mul	a0,a0,s9
    e930:	82843583          	ld	a1,-2008(s0)
    e934:	001585b3          	add	a1,a1,ra
    e938:	00b50533          	add	a0,a0,a1
    e93c:	42555513          	srai	a0,a0,0x25
    e940:	00a025b3          	sgtz	a1,a0
    e944:	40b005b3          	neg	a1,a1
    e948:	00a5f533          	and	a0,a1,a0
    e94c:	01354463          	blt	a0,s3,e954 <.LBB71_1372>
    e950:	0ff00513          	li	a0,255

000000000000e954 <.LBB71_1372>:
    e954:	b4a43823          	sd	a0,-1200(s0)
    e958:	84043503          	ld	a0,-1984(s0)
    e95c:	03950533          	mul	a0,a0,s9
    e960:	83843583          	ld	a1,-1992(s0)
    e964:	001585b3          	add	a1,a1,ra
    e968:	00b50533          	add	a0,a0,a1
    e96c:	42555513          	srai	a0,a0,0x25
    e970:	00a025b3          	sgtz	a1,a0
    e974:	40b005b3          	neg	a1,a1
    e978:	00a5f533          	and	a0,a1,a0
    e97c:	01354463          	blt	a0,s3,e984 <.LBB71_1374>
    e980:	0ff00513          	li	a0,255

000000000000e984 <.LBB71_1374>:
    e984:	b4a43423          	sd	a0,-1208(s0)
    e988:	85043503          	ld	a0,-1968(s0)
    e98c:	03950533          	mul	a0,a0,s9
    e990:	84843583          	ld	a1,-1976(s0)
    e994:	001585b3          	add	a1,a1,ra
    e998:	00b50533          	add	a0,a0,a1
    e99c:	42555513          	srai	a0,a0,0x25
    e9a0:	00a025b3          	sgtz	a1,a0
    e9a4:	40b005b3          	neg	a1,a1
    e9a8:	00a5f533          	and	a0,a1,a0
    e9ac:	01354463          	blt	a0,s3,e9b4 <.LBB71_1376>
    e9b0:	0ff00513          	li	a0,255

000000000000e9b4 <.LBB71_1376>:
    e9b4:	b4a43023          	sd	a0,-1216(s0)
    e9b8:	86043503          	ld	a0,-1952(s0)
    e9bc:	03950533          	mul	a0,a0,s9
    e9c0:	85843583          	ld	a1,-1960(s0)
    e9c4:	001585b3          	add	a1,a1,ra
    e9c8:	00b50533          	add	a0,a0,a1
    e9cc:	42555513          	srai	a0,a0,0x25
    e9d0:	00a025b3          	sgtz	a1,a0
    e9d4:	40b005b3          	neg	a1,a1
    e9d8:	00a5f533          	and	a0,a1,a0
    e9dc:	01354463          	blt	a0,s3,e9e4 <.LBB71_1378>
    e9e0:	0ff00513          	li	a0,255

000000000000e9e4 <.LBB71_1378>:
    e9e4:	b2a43c23          	sd	a0,-1224(s0)
    e9e8:	87043503          	ld	a0,-1936(s0)
    e9ec:	03950533          	mul	a0,a0,s9
    e9f0:	86843583          	ld	a1,-1944(s0)
    e9f4:	001585b3          	add	a1,a1,ra
    e9f8:	00b50533          	add	a0,a0,a1
    e9fc:	42555513          	srai	a0,a0,0x25
    ea00:	00a025b3          	sgtz	a1,a0
    ea04:	40b005b3          	neg	a1,a1
    ea08:	00a5f533          	and	a0,a1,a0
    ea0c:	01354463          	blt	a0,s3,ea14 <.LBB71_1380>
    ea10:	0ff00513          	li	a0,255

000000000000ea14 <.LBB71_1380>:
    ea14:	b2a43823          	sd	a0,-1232(s0)
    ea18:	88043503          	ld	a0,-1920(s0)
    ea1c:	03950533          	mul	a0,a0,s9
    ea20:	87843583          	ld	a1,-1928(s0)
    ea24:	001585b3          	add	a1,a1,ra
    ea28:	00b50533          	add	a0,a0,a1
    ea2c:	42555513          	srai	a0,a0,0x25
    ea30:	00a025b3          	sgtz	a1,a0
    ea34:	40b005b3          	neg	a1,a1
    ea38:	00a5f533          	and	a0,a1,a0
    ea3c:	01354463          	blt	a0,s3,ea44 <.LBB71_1382>
    ea40:	0ff00513          	li	a0,255

000000000000ea44 <.LBB71_1382>:
    ea44:	b2a43423          	sd	a0,-1240(s0)
    ea48:	89043503          	ld	a0,-1904(s0)
    ea4c:	03950533          	mul	a0,a0,s9
    ea50:	88843583          	ld	a1,-1912(s0)
    ea54:	001585b3          	add	a1,a1,ra
    ea58:	00b50533          	add	a0,a0,a1
    ea5c:	42555513          	srai	a0,a0,0x25
    ea60:	00a025b3          	sgtz	a1,a0
    ea64:	40b005b3          	neg	a1,a1
    ea68:	00a5f533          	and	a0,a1,a0
    ea6c:	01354463          	blt	a0,s3,ea74 <.LBB71_1384>
    ea70:	0ff00513          	li	a0,255

000000000000ea74 <.LBB71_1384>:
    ea74:	b2a43023          	sd	a0,-1248(s0)
    ea78:	8a043503          	ld	a0,-1888(s0)
    ea7c:	03950533          	mul	a0,a0,s9
    ea80:	89843583          	ld	a1,-1896(s0)
    ea84:	001585b3          	add	a1,a1,ra
    ea88:	00b50533          	add	a0,a0,a1
    ea8c:	42555513          	srai	a0,a0,0x25
    ea90:	00a025b3          	sgtz	a1,a0
    ea94:	40b005b3          	neg	a1,a1
    ea98:	00a5f533          	and	a0,a1,a0
    ea9c:	01354463          	blt	a0,s3,eaa4 <.LBB71_1386>
    eaa0:	0ff00513          	li	a0,255

000000000000eaa4 <.LBB71_1386>:
    eaa4:	b0a43c23          	sd	a0,-1256(s0)
    eaa8:	8b043503          	ld	a0,-1872(s0)
    eaac:	03950533          	mul	a0,a0,s9
    eab0:	8a843583          	ld	a1,-1880(s0)
    eab4:	001585b3          	add	a1,a1,ra
    eab8:	00b50533          	add	a0,a0,a1
    eabc:	42555513          	srai	a0,a0,0x25
    eac0:	00a025b3          	sgtz	a1,a0
    eac4:	40b005b3          	neg	a1,a1
    eac8:	00a5f533          	and	a0,a1,a0
    eacc:	01354463          	blt	a0,s3,ead4 <.LBB71_1388>
    ead0:	0ff00513          	li	a0,255

000000000000ead4 <.LBB71_1388>:
    ead4:	b0a43823          	sd	a0,-1264(s0)
    ead8:	8c043503          	ld	a0,-1856(s0)
    eadc:	03950533          	mul	a0,a0,s9
    eae0:	8b843583          	ld	a1,-1864(s0)
    eae4:	001585b3          	add	a1,a1,ra
    eae8:	00b50533          	add	a0,a0,a1
    eaec:	42555513          	srai	a0,a0,0x25
    eaf0:	00a025b3          	sgtz	a1,a0
    eaf4:	40b005b3          	neg	a1,a1
    eaf8:	00a5f533          	and	a0,a1,a0
    eafc:	01354463          	blt	a0,s3,eb04 <.LBB71_1390>
    eb00:	0ff00513          	li	a0,255

000000000000eb04 <.LBB71_1390>:
    eb04:	b0a43423          	sd	a0,-1272(s0)
    eb08:	8d043503          	ld	a0,-1840(s0)
    eb0c:	03950533          	mul	a0,a0,s9
    eb10:	8c843583          	ld	a1,-1848(s0)
    eb14:	001585b3          	add	a1,a1,ra
    eb18:	00b50533          	add	a0,a0,a1
    eb1c:	42555513          	srai	a0,a0,0x25
    eb20:	00a025b3          	sgtz	a1,a0
    eb24:	40b005b3          	neg	a1,a1
    eb28:	00a5f533          	and	a0,a1,a0
    eb2c:	01354463          	blt	a0,s3,eb34 <.LBB71_1392>
    eb30:	0ff00513          	li	a0,255

000000000000eb34 <.LBB71_1392>:
    eb34:	b0a43023          	sd	a0,-1280(s0)
    eb38:	8e043503          	ld	a0,-1824(s0)
    eb3c:	03950533          	mul	a0,a0,s9
    eb40:	8d843583          	ld	a1,-1832(s0)
    eb44:	001585b3          	add	a1,a1,ra
    eb48:	00b50533          	add	a0,a0,a1
    eb4c:	42555513          	srai	a0,a0,0x25
    eb50:	00a025b3          	sgtz	a1,a0
    eb54:	40b005b3          	neg	a1,a1
    eb58:	00a5f533          	and	a0,a1,a0
    eb5c:	01354463          	blt	a0,s3,eb64 <.LBB71_1394>
    eb60:	0ff00513          	li	a0,255

000000000000eb64 <.LBB71_1394>:
    eb64:	aea43c23          	sd	a0,-1288(s0)
    eb68:	8f043503          	ld	a0,-1808(s0)
    eb6c:	03950533          	mul	a0,a0,s9
    eb70:	8e843583          	ld	a1,-1816(s0)
    eb74:	001585b3          	add	a1,a1,ra
    eb78:	00b50533          	add	a0,a0,a1
    eb7c:	42555513          	srai	a0,a0,0x25
    eb80:	00a025b3          	sgtz	a1,a0
    eb84:	40b005b3          	neg	a1,a1
    eb88:	00a5f533          	and	a0,a1,a0
    eb8c:	01354463          	blt	a0,s3,eb94 <.LBB71_1396>
    eb90:	0ff00513          	li	a0,255

000000000000eb94 <.LBB71_1396>:
    eb94:	aea43823          	sd	a0,-1296(s0)
    eb98:	90043503          	ld	a0,-1792(s0)
    eb9c:	03950533          	mul	a0,a0,s9
    eba0:	8f843583          	ld	a1,-1800(s0)
    eba4:	001585b3          	add	a1,a1,ra
    eba8:	00b50533          	add	a0,a0,a1
    ebac:	42555513          	srai	a0,a0,0x25
    ebb0:	00a025b3          	sgtz	a1,a0
    ebb4:	40b005b3          	neg	a1,a1
    ebb8:	00a5f533          	and	a0,a1,a0
    ebbc:	01354463          	blt	a0,s3,ebc4 <.LBB71_1398>
    ebc0:	0ff00513          	li	a0,255

000000000000ebc4 <.LBB71_1398>:
    ebc4:	aea43423          	sd	a0,-1304(s0)
    ebc8:	91043503          	ld	a0,-1776(s0)
    ebcc:	03950533          	mul	a0,a0,s9
    ebd0:	90843583          	ld	a1,-1784(s0)
    ebd4:	001585b3          	add	a1,a1,ra
    ebd8:	00b50533          	add	a0,a0,a1
    ebdc:	42555513          	srai	a0,a0,0x25
    ebe0:	00a025b3          	sgtz	a1,a0
    ebe4:	40b005b3          	neg	a1,a1
    ebe8:	00a5f533          	and	a0,a1,a0
    ebec:	01354463          	blt	a0,s3,ebf4 <.LBB71_1400>
    ebf0:	0ff00513          	li	a0,255

000000000000ebf4 <.LBB71_1400>:
    ebf4:	aea43023          	sd	a0,-1312(s0)
    ebf8:	92043503          	ld	a0,-1760(s0)
    ebfc:	03950533          	mul	a0,a0,s9
    ec00:	91843583          	ld	a1,-1768(s0)
    ec04:	001585b3          	add	a1,a1,ra
    ec08:	00b50533          	add	a0,a0,a1
    ec0c:	42555513          	srai	a0,a0,0x25
    ec10:	00a025b3          	sgtz	a1,a0
    ec14:	40b005b3          	neg	a1,a1
    ec18:	00a5f533          	and	a0,a1,a0
    ec1c:	01354463          	blt	a0,s3,ec24 <.LBB71_1402>
    ec20:	0ff00513          	li	a0,255

000000000000ec24 <.LBB71_1402>:
    ec24:	aca43c23          	sd	a0,-1320(s0)
    ec28:	93043503          	ld	a0,-1744(s0)
    ec2c:	03950533          	mul	a0,a0,s9
    ec30:	92843583          	ld	a1,-1752(s0)
    ec34:	001585b3          	add	a1,a1,ra
    ec38:	00b50533          	add	a0,a0,a1
    ec3c:	42555513          	srai	a0,a0,0x25
    ec40:	00a025b3          	sgtz	a1,a0
    ec44:	40b005b3          	neg	a1,a1
    ec48:	00a5f533          	and	a0,a1,a0
    ec4c:	01354463          	blt	a0,s3,ec54 <.LBB71_1404>
    ec50:	0ff00513          	li	a0,255

000000000000ec54 <.LBB71_1404>:
    ec54:	aca43823          	sd	a0,-1328(s0)
    ec58:	94043503          	ld	a0,-1728(s0)
    ec5c:	03950533          	mul	a0,a0,s9
    ec60:	93843583          	ld	a1,-1736(s0)
    ec64:	001585b3          	add	a1,a1,ra
    ec68:	00b50533          	add	a0,a0,a1
    ec6c:	42555513          	srai	a0,a0,0x25
    ec70:	00a025b3          	sgtz	a1,a0
    ec74:	40b005b3          	neg	a1,a1
    ec78:	00a5f533          	and	a0,a1,a0
    ec7c:	01354463          	blt	a0,s3,ec84 <.LBB71_1406>
    ec80:	0ff00513          	li	a0,255

000000000000ec84 <.LBB71_1406>:
    ec84:	aca43423          	sd	a0,-1336(s0)
    ec88:	95043503          	ld	a0,-1712(s0)
    ec8c:	03950533          	mul	a0,a0,s9
    ec90:	94843583          	ld	a1,-1720(s0)
    ec94:	001585b3          	add	a1,a1,ra
    ec98:	00b50533          	add	a0,a0,a1
    ec9c:	42555513          	srai	a0,a0,0x25
    eca0:	00a025b3          	sgtz	a1,a0
    eca4:	40b005b3          	neg	a1,a1
    eca8:	00a5f533          	and	a0,a1,a0
    ecac:	01354463          	blt	a0,s3,ecb4 <.LBB71_1408>
    ecb0:	0ff00513          	li	a0,255

000000000000ecb4 <.LBB71_1408>:
    ecb4:	aca43023          	sd	a0,-1344(s0)
    ecb8:	96043503          	ld	a0,-1696(s0)
    ecbc:	03950533          	mul	a0,a0,s9
    ecc0:	95843583          	ld	a1,-1704(s0)
    ecc4:	001585b3          	add	a1,a1,ra
    ecc8:	00b50533          	add	a0,a0,a1
    eccc:	42555513          	srai	a0,a0,0x25
    ecd0:	00a025b3          	sgtz	a1,a0
    ecd4:	40b005b3          	neg	a1,a1
    ecd8:	00a5f533          	and	a0,a1,a0
    ecdc:	01354463          	blt	a0,s3,ece4 <.LBB71_1410>
    ece0:	0ff00513          	li	a0,255

000000000000ece4 <.LBB71_1410>:
    ece4:	aaa43c23          	sd	a0,-1352(s0)
    ece8:	97043503          	ld	a0,-1680(s0)
    ecec:	03950533          	mul	a0,a0,s9
    ecf0:	96843583          	ld	a1,-1688(s0)
    ecf4:	001585b3          	add	a1,a1,ra
    ecf8:	00b50533          	add	a0,a0,a1
    ecfc:	42555513          	srai	a0,a0,0x25
    ed00:	00a025b3          	sgtz	a1,a0
    ed04:	40b005b3          	neg	a1,a1
    ed08:	00a5f533          	and	a0,a1,a0
    ed0c:	01354463          	blt	a0,s3,ed14 <.LBB71_1412>
    ed10:	0ff00513          	li	a0,255

000000000000ed14 <.LBB71_1412>:
    ed14:	aaa43823          	sd	a0,-1360(s0)
    ed18:	98043503          	ld	a0,-1664(s0)
    ed1c:	03950533          	mul	a0,a0,s9
    ed20:	97843583          	ld	a1,-1672(s0)
    ed24:	001585b3          	add	a1,a1,ra
    ed28:	00b50533          	add	a0,a0,a1
    ed2c:	42555513          	srai	a0,a0,0x25
    ed30:	00a025b3          	sgtz	a1,a0
    ed34:	40b005b3          	neg	a1,a1
    ed38:	00a5f533          	and	a0,a1,a0
    ed3c:	01354463          	blt	a0,s3,ed44 <.LBB71_1414>
    ed40:	0ff00513          	li	a0,255

000000000000ed44 <.LBB71_1414>:
    ed44:	aaa43423          	sd	a0,-1368(s0)
    ed48:	99043503          	ld	a0,-1648(s0)
    ed4c:	03950533          	mul	a0,a0,s9
    ed50:	98843583          	ld	a1,-1656(s0)
    ed54:	001585b3          	add	a1,a1,ra
    ed58:	00b50533          	add	a0,a0,a1
    ed5c:	42555513          	srai	a0,a0,0x25
    ed60:	00a025b3          	sgtz	a1,a0
    ed64:	40b005b3          	neg	a1,a1
    ed68:	00a5f533          	and	a0,a1,a0
    ed6c:	01354463          	blt	a0,s3,ed74 <.LBB71_1416>
    ed70:	0ff00513          	li	a0,255

000000000000ed74 <.LBB71_1416>:
    ed74:	aaa43023          	sd	a0,-1376(s0)
    ed78:	9a043503          	ld	a0,-1632(s0)
    ed7c:	03950533          	mul	a0,a0,s9
    ed80:	99843583          	ld	a1,-1640(s0)
    ed84:	001585b3          	add	a1,a1,ra
    ed88:	00b50533          	add	a0,a0,a1
    ed8c:	42555513          	srai	a0,a0,0x25
    ed90:	00a025b3          	sgtz	a1,a0
    ed94:	40b005b3          	neg	a1,a1
    ed98:	00a5f533          	and	a0,a1,a0
    ed9c:	01354463          	blt	a0,s3,eda4 <.LBB71_1418>
    eda0:	0ff00513          	li	a0,255

000000000000eda4 <.LBB71_1418>:
    eda4:	a8a43c23          	sd	a0,-1384(s0)
    eda8:	9b043503          	ld	a0,-1616(s0)
    edac:	03950533          	mul	a0,a0,s9
    edb0:	9a843583          	ld	a1,-1624(s0)
    edb4:	001585b3          	add	a1,a1,ra
    edb8:	00b50533          	add	a0,a0,a1
    edbc:	42555513          	srai	a0,a0,0x25
    edc0:	00a025b3          	sgtz	a1,a0
    edc4:	40b005b3          	neg	a1,a1
    edc8:	00a5f533          	and	a0,a1,a0
    edcc:	01354463          	blt	a0,s3,edd4 <.LBB71_1420>
    edd0:	0ff00513          	li	a0,255

000000000000edd4 <.LBB71_1420>:
    edd4:	a8a43823          	sd	a0,-1392(s0)
    edd8:	9c043503          	ld	a0,-1600(s0)
    eddc:	03950533          	mul	a0,a0,s9
    ede0:	9b843583          	ld	a1,-1608(s0)
    ede4:	001585b3          	add	a1,a1,ra
    ede8:	00b50533          	add	a0,a0,a1
    edec:	42555513          	srai	a0,a0,0x25
    edf0:	00a025b3          	sgtz	a1,a0
    edf4:	40b005b3          	neg	a1,a1
    edf8:	00a5f533          	and	a0,a1,a0
    edfc:	01354463          	blt	a0,s3,ee04 <.LBB71_1422>
    ee00:	0ff00513          	li	a0,255

000000000000ee04 <.LBB71_1422>:
    ee04:	a8a43423          	sd	a0,-1400(s0)
    ee08:	9d043503          	ld	a0,-1584(s0)
    ee0c:	03950533          	mul	a0,a0,s9
    ee10:	9c843583          	ld	a1,-1592(s0)
    ee14:	001585b3          	add	a1,a1,ra
    ee18:	00b50533          	add	a0,a0,a1
    ee1c:	42555513          	srai	a0,a0,0x25
    ee20:	00a025b3          	sgtz	a1,a0
    ee24:	40b005b3          	neg	a1,a1
    ee28:	00a5f533          	and	a0,a1,a0
    ee2c:	01354463          	blt	a0,s3,ee34 <.LBB71_1424>
    ee30:	0ff00513          	li	a0,255

000000000000ee34 <.LBB71_1424>:
    ee34:	a8a43023          	sd	a0,-1408(s0)
    ee38:	9e043503          	ld	a0,-1568(s0)
    ee3c:	03950533          	mul	a0,a0,s9
    ee40:	9d843583          	ld	a1,-1576(s0)
    ee44:	001585b3          	add	a1,a1,ra
    ee48:	00b50533          	add	a0,a0,a1
    ee4c:	42555513          	srai	a0,a0,0x25
    ee50:	00a025b3          	sgtz	a1,a0
    ee54:	40b005b3          	neg	a1,a1
    ee58:	00a5f533          	and	a0,a1,a0
    ee5c:	01354463          	blt	a0,s3,ee64 <.LBB71_1426>
    ee60:	0ff00513          	li	a0,255

000000000000ee64 <.LBB71_1426>:
    ee64:	a6a43c23          	sd	a0,-1416(s0)
    ee68:	9f043503          	ld	a0,-1552(s0)
    ee6c:	03950533          	mul	a0,a0,s9
    ee70:	9e843583          	ld	a1,-1560(s0)
    ee74:	001585b3          	add	a1,a1,ra
    ee78:	00b50533          	add	a0,a0,a1
    ee7c:	42555513          	srai	a0,a0,0x25
    ee80:	00a025b3          	sgtz	a1,a0
    ee84:	40b005b3          	neg	a1,a1
    ee88:	00a5f533          	and	a0,a1,a0
    ee8c:	01354463          	blt	a0,s3,ee94 <.LBB71_1428>
    ee90:	0ff00513          	li	a0,255

000000000000ee94 <.LBB71_1428>:
    ee94:	a6a43823          	sd	a0,-1424(s0)
    ee98:	a0043503          	ld	a0,-1536(s0)
    ee9c:	03950533          	mul	a0,a0,s9
    eea0:	9f843583          	ld	a1,-1544(s0)
    eea4:	001585b3          	add	a1,a1,ra
    eea8:	00b50533          	add	a0,a0,a1
    eeac:	42555513          	srai	a0,a0,0x25
    eeb0:	00a025b3          	sgtz	a1,a0
    eeb4:	40b005b3          	neg	a1,a1
    eeb8:	00a5f533          	and	a0,a1,a0
    eebc:	01354463          	blt	a0,s3,eec4 <.LBB71_1430>
    eec0:	0ff00513          	li	a0,255

000000000000eec4 <.LBB71_1430>:
    eec4:	a6a43423          	sd	a0,-1432(s0)
    eec8:	a1043503          	ld	a0,-1520(s0)
    eecc:	03950533          	mul	a0,a0,s9
    eed0:	a0843583          	ld	a1,-1528(s0)
    eed4:	001585b3          	add	a1,a1,ra
    eed8:	00b50533          	add	a0,a0,a1
    eedc:	42555513          	srai	a0,a0,0x25
    eee0:	00a025b3          	sgtz	a1,a0
    eee4:	40b005b3          	neg	a1,a1
    eee8:	00a5f533          	and	a0,a1,a0
    eeec:	01354463          	blt	a0,s3,eef4 <.LBB71_1432>
    eef0:	0ff00513          	li	a0,255

000000000000eef4 <.LBB71_1432>:
    eef4:	a6a43023          	sd	a0,-1440(s0)
    eef8:	a2043503          	ld	a0,-1504(s0)
    eefc:	03950533          	mul	a0,a0,s9
    ef00:	a1843583          	ld	a1,-1512(s0)
    ef04:	001585b3          	add	a1,a1,ra
    ef08:	00b50533          	add	a0,a0,a1
    ef0c:	42555513          	srai	a0,a0,0x25
    ef10:	00a025b3          	sgtz	a1,a0
    ef14:	40b005b3          	neg	a1,a1
    ef18:	00a5f533          	and	a0,a1,a0
    ef1c:	01354463          	blt	a0,s3,ef24 <.LBB71_1434>
    ef20:	0ff00513          	li	a0,255

000000000000ef24 <.LBB71_1434>:
    ef24:	a4a43c23          	sd	a0,-1448(s0)
    ef28:	a3043503          	ld	a0,-1488(s0)
    ef2c:	03950533          	mul	a0,a0,s9
    ef30:	a2843583          	ld	a1,-1496(s0)
    ef34:	001585b3          	add	a1,a1,ra
    ef38:	00b50533          	add	a0,a0,a1
    ef3c:	42555513          	srai	a0,a0,0x25
    ef40:	00a025b3          	sgtz	a1,a0
    ef44:	40b005b3          	neg	a1,a1
    ef48:	00a5f533          	and	a0,a1,a0
    ef4c:	01354463          	blt	a0,s3,ef54 <.LBB71_1436>
    ef50:	0ff00513          	li	a0,255

000000000000ef54 <.LBB71_1436>:
    ef54:	a4a43823          	sd	a0,-1456(s0)
    ef58:	b6843503          	ld	a0,-1176(s0)
    ef5c:	03950533          	mul	a0,a0,s9
    ef60:	a3843583          	ld	a1,-1480(s0)
    ef64:	001585b3          	add	a1,a1,ra
    ef68:	00b50533          	add	a0,a0,a1
    ef6c:	42555513          	srai	a0,a0,0x25
    ef70:	00a025b3          	sgtz	a1,a0
    ef74:	40b005b3          	neg	a1,a1
    ef78:	00a5f533          	and	a0,a1,a0
    ef7c:	01354463          	blt	a0,s3,ef84 <.LBB71_1438>
    ef80:	0ff00513          	li	a0,255

000000000000ef84 <.LBB71_1438>:
    ef84:	b6a43423          	sd	a0,-1176(s0)
    ef88:	b7843503          	ld	a0,-1160(s0)
    ef8c:	03950533          	mul	a0,a0,s9
    ef90:	b7043583          	ld	a1,-1168(s0)
    ef94:	001585b3          	add	a1,a1,ra
    ef98:	00b50533          	add	a0,a0,a1
    ef9c:	42555513          	srai	a0,a0,0x25
    efa0:	00a025b3          	sgtz	a1,a0
    efa4:	40b005b3          	neg	a1,a1
    efa8:	00a5f533          	and	a0,a1,a0
    efac:	01354463          	blt	a0,s3,efb4 <.LBB71_1440>
    efb0:	0ff00513          	li	a0,255

000000000000efb4 <.LBB71_1440>:
    efb4:	b6a43c23          	sd	a0,-1160(s0)
    efb8:	be043503          	ld	a0,-1056(s0)
    efbc:	03950533          	mul	a0,a0,s9
    efc0:	bd043583          	ld	a1,-1072(s0)
    efc4:	001585b3          	add	a1,a1,ra
    efc8:	00b50533          	add	a0,a0,a1
    efcc:	42555513          	srai	a0,a0,0x25
    efd0:	00a025b3          	sgtz	a1,a0
    efd4:	40b005b3          	neg	a1,a1
    efd8:	00a5f533          	and	a0,a1,a0
    efdc:	01354463          	blt	a0,s3,efe4 <.LBB71_1442>
    efe0:	0ff00513          	li	a0,255

000000000000efe4 <.LBB71_1442>:
    efe4:	bea43023          	sd	a0,-1056(s0)
    efe8:	bf043503          	ld	a0,-1040(s0)
    efec:	03950533          	mul	a0,a0,s9
    eff0:	be843583          	ld	a1,-1048(s0)
    eff4:	001585b3          	add	a1,a1,ra
    eff8:	00b50533          	add	a0,a0,a1
    effc:	42555513          	srai	a0,a0,0x25
    f000:	00a025b3          	sgtz	a1,a0
    f004:	40b005b3          	neg	a1,a1
    f008:	00a5f533          	and	a0,a1,a0
    f00c:	01354463          	blt	a0,s3,f014 <.LBB71_1444>
    f010:	0ff00513          	li	a0,255

000000000000f014 <.LBB71_1444>:
    f014:	bea43823          	sd	a0,-1040(s0)
    f018:	c0043503          	ld	a0,-1024(s0)
    f01c:	03950533          	mul	a0,a0,s9
    f020:	bf843583          	ld	a1,-1032(s0)
    f024:	001585b3          	add	a1,a1,ra
    f028:	00b50533          	add	a0,a0,a1
    f02c:	42555513          	srai	a0,a0,0x25
    f030:	00a025b3          	sgtz	a1,a0
    f034:	40b005b3          	neg	a1,a1
    f038:	00a5f533          	and	a0,a1,a0
    f03c:	01354463          	blt	a0,s3,f044 <.LBB71_1446>
    f040:	0ff00513          	li	a0,255

000000000000f044 <.LBB71_1446>:
    f044:	c0a43023          	sd	a0,-1024(s0)
    f048:	c1043503          	ld	a0,-1008(s0)
    f04c:	03950533          	mul	a0,a0,s9
    f050:	c0843583          	ld	a1,-1016(s0)
    f054:	001585b3          	add	a1,a1,ra
    f058:	00b50533          	add	a0,a0,a1
    f05c:	42555513          	srai	a0,a0,0x25
    f060:	00a025b3          	sgtz	a1,a0
    f064:	40b005b3          	neg	a1,a1
    f068:	00a5f533          	and	a0,a1,a0
    f06c:	01354463          	blt	a0,s3,f074 <.LBB71_1448>
    f070:	0ff00513          	li	a0,255

000000000000f074 <.LBB71_1448>:
    f074:	c0a43823          	sd	a0,-1008(s0)
    f078:	c2043503          	ld	a0,-992(s0)
    f07c:	03950533          	mul	a0,a0,s9
    f080:	c1843583          	ld	a1,-1000(s0)
    f084:	001585b3          	add	a1,a1,ra
    f088:	00b50533          	add	a0,a0,a1
    f08c:	42555513          	srai	a0,a0,0x25
    f090:	00a025b3          	sgtz	a1,a0
    f094:	40b005b3          	neg	a1,a1
    f098:	00a5f533          	and	a0,a1,a0
    f09c:	01354463          	blt	a0,s3,f0a4 <.LBB71_1450>
    f0a0:	0ff00513          	li	a0,255

000000000000f0a4 <.LBB71_1450>:
    f0a4:	c2a43023          	sd	a0,-992(s0)
    f0a8:	c3043503          	ld	a0,-976(s0)
    f0ac:	03950533          	mul	a0,a0,s9
    f0b0:	c2843583          	ld	a1,-984(s0)
    f0b4:	001585b3          	add	a1,a1,ra
    f0b8:	00b50533          	add	a0,a0,a1
    f0bc:	42555513          	srai	a0,a0,0x25
    f0c0:	00a025b3          	sgtz	a1,a0
    f0c4:	40b005b3          	neg	a1,a1
    f0c8:	00a5f533          	and	a0,a1,a0
    f0cc:	01354463          	blt	a0,s3,f0d4 <.LBB71_1452>
    f0d0:	0ff00513          	li	a0,255

000000000000f0d4 <.LBB71_1452>:
    f0d4:	c2a43823          	sd	a0,-976(s0)
    f0d8:	c5043503          	ld	a0,-944(s0)
    f0dc:	03950533          	mul	a0,a0,s9
    f0e0:	c4843583          	ld	a1,-952(s0)
    f0e4:	001585b3          	add	a1,a1,ra
    f0e8:	00b50533          	add	a0,a0,a1
    f0ec:	42555513          	srai	a0,a0,0x25
    f0f0:	00a025b3          	sgtz	a1,a0
    f0f4:	40b005b3          	neg	a1,a1
    f0f8:	00a5f533          	and	a0,a1,a0
    f0fc:	01354463          	blt	a0,s3,f104 <.LBB71_1454>
    f100:	0ff00513          	li	a0,255

000000000000f104 <.LBB71_1454>:
    f104:	c4a43823          	sd	a0,-944(s0)
    f108:	c6843503          	ld	a0,-920(s0)
    f10c:	03950533          	mul	a0,a0,s9
    f110:	c5843583          	ld	a1,-936(s0)
    f114:	001585b3          	add	a1,a1,ra
    f118:	00b50533          	add	a0,a0,a1
    f11c:	42555513          	srai	a0,a0,0x25
    f120:	00a025b3          	sgtz	a1,a0
    f124:	40b005b3          	neg	a1,a1
    f128:	00a5f533          	and	a0,a1,a0
    f12c:	01354463          	blt	a0,s3,f134 <.LBB71_1456>
    f130:	0ff00513          	li	a0,255

000000000000f134 <.LBB71_1456>:
    f134:	c6a43423          	sd	a0,-920(s0)
    f138:	c7843503          	ld	a0,-904(s0)
    f13c:	03950533          	mul	a0,a0,s9
    f140:	c7043583          	ld	a1,-912(s0)
    f144:	001585b3          	add	a1,a1,ra
    f148:	00b50533          	add	a0,a0,a1
    f14c:	42555513          	srai	a0,a0,0x25
    f150:	00a025b3          	sgtz	a1,a0
    f154:	40b005b3          	neg	a1,a1
    f158:	00a5f533          	and	a0,a1,a0
    f15c:	01354463          	blt	a0,s3,f164 <.LBB71_1458>
    f160:	0ff00513          	li	a0,255

000000000000f164 <.LBB71_1458>:
    f164:	c6a43c23          	sd	a0,-904(s0)
    f168:	c8843503          	ld	a0,-888(s0)
    f16c:	03950533          	mul	a0,a0,s9
    f170:	c8043583          	ld	a1,-896(s0)
    f174:	001585b3          	add	a1,a1,ra
    f178:	00b50533          	add	a0,a0,a1
    f17c:	42555513          	srai	a0,a0,0x25
    f180:	00a025b3          	sgtz	a1,a0
    f184:	40b005b3          	neg	a1,a1
    f188:	00a5f533          	and	a0,a1,a0
    f18c:	01354463          	blt	a0,s3,f194 <.LBB71_1460>
    f190:	0ff00513          	li	a0,255

000000000000f194 <.LBB71_1460>:
    f194:	c8a43423          	sd	a0,-888(s0)
    f198:	ca043503          	ld	a0,-864(s0)
    f19c:	03950533          	mul	a0,a0,s9
    f1a0:	c9843583          	ld	a1,-872(s0)
    f1a4:	001585b3          	add	a1,a1,ra
    f1a8:	00b50533          	add	a0,a0,a1
    f1ac:	42555513          	srai	a0,a0,0x25
    f1b0:	00a025b3          	sgtz	a1,a0
    f1b4:	40b005b3          	neg	a1,a1
    f1b8:	00a5f533          	and	a0,a1,a0
    f1bc:	01354463          	blt	a0,s3,f1c4 <.LBB71_1462>
    f1c0:	0ff00513          	li	a0,255

000000000000f1c4 <.LBB71_1462>:
    f1c4:	caa43023          	sd	a0,-864(s0)
    f1c8:	cb043503          	ld	a0,-848(s0)
    f1cc:	03950533          	mul	a0,a0,s9
    f1d0:	ca843583          	ld	a1,-856(s0)
    f1d4:	001585b3          	add	a1,a1,ra
    f1d8:	00b50533          	add	a0,a0,a1
    f1dc:	42555513          	srai	a0,a0,0x25
    f1e0:	00a025b3          	sgtz	a1,a0
    f1e4:	40b005b3          	neg	a1,a1
    f1e8:	00a5f533          	and	a0,a1,a0
    f1ec:	01354463          	blt	a0,s3,f1f4 <.LBB71_1464>
    f1f0:	0ff00513          	li	a0,255

000000000000f1f4 <.LBB71_1464>:
    f1f4:	caa43823          	sd	a0,-848(s0)
    f1f8:	cc043503          	ld	a0,-832(s0)
    f1fc:	03950533          	mul	a0,a0,s9
    f200:	cb843583          	ld	a1,-840(s0)
    f204:	001585b3          	add	a1,a1,ra
    f208:	00b50533          	add	a0,a0,a1
    f20c:	42555513          	srai	a0,a0,0x25
    f210:	00a025b3          	sgtz	a1,a0
    f214:	40b005b3          	neg	a1,a1
    f218:	00a5f533          	and	a0,a1,a0
    f21c:	01354463          	blt	a0,s3,f224 <.LBB71_1466>
    f220:	0ff00513          	li	a0,255

000000000000f224 <.LBB71_1466>:
    f224:	cca43023          	sd	a0,-832(s0)
    f228:	cd843503          	ld	a0,-808(s0)
    f22c:	03950533          	mul	a0,a0,s9
    f230:	cc843583          	ld	a1,-824(s0)
    f234:	001585b3          	add	a1,a1,ra
    f238:	00b50533          	add	a0,a0,a1
    f23c:	42555513          	srai	a0,a0,0x25
    f240:	00a025b3          	sgtz	a1,a0
    f244:	40b005b3          	neg	a1,a1
    f248:	00a5f533          	and	a0,a1,a0
    f24c:	01354463          	blt	a0,s3,f254 <.LBB71_1468>
    f250:	0ff00513          	li	a0,255

000000000000f254 <.LBB71_1468>:
    f254:	cca43c23          	sd	a0,-808(s0)
    f258:	ce843503          	ld	a0,-792(s0)
    f25c:	03950533          	mul	a0,a0,s9
    f260:	ce043583          	ld	a1,-800(s0)
    f264:	001585b3          	add	a1,a1,ra
    f268:	00b50533          	add	a0,a0,a1
    f26c:	42555513          	srai	a0,a0,0x25
    f270:	00a025b3          	sgtz	a1,a0
    f274:	40b005b3          	neg	a1,a1
    f278:	00a5f533          	and	a0,a1,a0
    f27c:	01354463          	blt	a0,s3,f284 <.LBB71_1470>
    f280:	0ff00513          	li	a0,255

000000000000f284 <.LBB71_1470>:
    f284:	cea43423          	sd	a0,-792(s0)
    f288:	cf843503          	ld	a0,-776(s0)
    f28c:	03950533          	mul	a0,a0,s9
    f290:	cf043583          	ld	a1,-784(s0)
    f294:	001585b3          	add	a1,a1,ra
    f298:	00b50533          	add	a0,a0,a1
    f29c:	42555513          	srai	a0,a0,0x25
    f2a0:	00a025b3          	sgtz	a1,a0
    f2a4:	40b005b3          	neg	a1,a1
    f2a8:	00a5f533          	and	a0,a1,a0
    f2ac:	01354463          	blt	a0,s3,f2b4 <.LBB71_1472>
    f2b0:	0ff00513          	li	a0,255

000000000000f2b4 <.LBB71_1472>:
    f2b4:	cea43c23          	sd	a0,-776(s0)
    f2b8:	d0843503          	ld	a0,-760(s0)
    f2bc:	03950533          	mul	a0,a0,s9
    f2c0:	d0043583          	ld	a1,-768(s0)
    f2c4:	001585b3          	add	a1,a1,ra
    f2c8:	00b50533          	add	a0,a0,a1
    f2cc:	42555513          	srai	a0,a0,0x25
    f2d0:	00a025b3          	sgtz	a1,a0
    f2d4:	40b005b3          	neg	a1,a1
    f2d8:	00a5f533          	and	a0,a1,a0
    f2dc:	01354463          	blt	a0,s3,f2e4 <.LBB71_1474>
    f2e0:	0ff00513          	li	a0,255

000000000000f2e4 <.LBB71_1474>:
    f2e4:	d0a43423          	sd	a0,-760(s0)
    f2e8:	d2043503          	ld	a0,-736(s0)
    f2ec:	03950533          	mul	a0,a0,s9
    f2f0:	d1843583          	ld	a1,-744(s0)
    f2f4:	001585b3          	add	a1,a1,ra
    f2f8:	00b50533          	add	a0,a0,a1
    f2fc:	42555513          	srai	a0,a0,0x25
    f300:	00a025b3          	sgtz	a1,a0
    f304:	40b005b3          	neg	a1,a1
    f308:	00a5f533          	and	a0,a1,a0
    f30c:	01354463          	blt	a0,s3,f314 <.LBB71_1476>
    f310:	0ff00513          	li	a0,255

000000000000f314 <.LBB71_1476>:
    f314:	d2a43023          	sd	a0,-736(s0)
    f318:	d3043503          	ld	a0,-720(s0)
    f31c:	03950533          	mul	a0,a0,s9
    f320:	d2843583          	ld	a1,-728(s0)
    f324:	001585b3          	add	a1,a1,ra
    f328:	00b50533          	add	a0,a0,a1
    f32c:	42555513          	srai	a0,a0,0x25
    f330:	00a025b3          	sgtz	a1,a0
    f334:	40b005b3          	neg	a1,a1
    f338:	00a5f533          	and	a0,a1,a0
    f33c:	01354463          	blt	a0,s3,f344 <.LBB71_1478>
    f340:	0ff00513          	li	a0,255

000000000000f344 <.LBB71_1478>:
    f344:	d2a43823          	sd	a0,-720(s0)
    f348:	d4043503          	ld	a0,-704(s0)
    f34c:	03950533          	mul	a0,a0,s9
    f350:	d3843583          	ld	a1,-712(s0)
    f354:	001585b3          	add	a1,a1,ra
    f358:	00b50533          	add	a0,a0,a1
    f35c:	42555513          	srai	a0,a0,0x25
    f360:	00a025b3          	sgtz	a1,a0
    f364:	40b005b3          	neg	a1,a1
    f368:	00a5f533          	and	a0,a1,a0
    f36c:	01354463          	blt	a0,s3,f374 <.LBB71_1480>
    f370:	0ff00513          	li	a0,255

000000000000f374 <.LBB71_1480>:
    f374:	d4a43023          	sd	a0,-704(s0)
    f378:	d5043503          	ld	a0,-688(s0)
    f37c:	03950533          	mul	a0,a0,s9
    f380:	d4843583          	ld	a1,-696(s0)
    f384:	001585b3          	add	a1,a1,ra
    f388:	00b50533          	add	a0,a0,a1
    f38c:	42555513          	srai	a0,a0,0x25
    f390:	00a025b3          	sgtz	a1,a0
    f394:	40b005b3          	neg	a1,a1
    f398:	00a5f533          	and	a0,a1,a0
    f39c:	01354463          	blt	a0,s3,f3a4 <.LBB71_1482>
    f3a0:	0ff00513          	li	a0,255

000000000000f3a4 <.LBB71_1482>:
    f3a4:	d4a43823          	sd	a0,-688(s0)
    f3a8:	d6843503          	ld	a0,-664(s0)
    f3ac:	03950533          	mul	a0,a0,s9
    f3b0:	d6043583          	ld	a1,-672(s0)
    f3b4:	001585b3          	add	a1,a1,ra
    f3b8:	00b50533          	add	a0,a0,a1
    f3bc:	42555513          	srai	a0,a0,0x25
    f3c0:	00a025b3          	sgtz	a1,a0
    f3c4:	40b005b3          	neg	a1,a1
    f3c8:	00a5f533          	and	a0,a1,a0
    f3cc:	01354463          	blt	a0,s3,f3d4 <.LBB71_1484>
    f3d0:	0ff00513          	li	a0,255

000000000000f3d4 <.LBB71_1484>:
    f3d4:	d6a43423          	sd	a0,-664(s0)
    f3d8:	d7843503          	ld	a0,-648(s0)
    f3dc:	03950533          	mul	a0,a0,s9
    f3e0:	d7043583          	ld	a1,-656(s0)
    f3e4:	001585b3          	add	a1,a1,ra
    f3e8:	00b50533          	add	a0,a0,a1
    f3ec:	42555513          	srai	a0,a0,0x25
    f3f0:	00a025b3          	sgtz	a1,a0
    f3f4:	40b005b3          	neg	a1,a1
    f3f8:	00a5f533          	and	a0,a1,a0
    f3fc:	01354463          	blt	a0,s3,f404 <.LBB71_1486>
    f400:	0ff00513          	li	a0,255

000000000000f404 <.LBB71_1486>:
    f404:	d6a43c23          	sd	a0,-648(s0)
    f408:	d8843503          	ld	a0,-632(s0)
    f40c:	03950533          	mul	a0,a0,s9
    f410:	d8043583          	ld	a1,-640(s0)
    f414:	001585b3          	add	a1,a1,ra
    f418:	00b50533          	add	a0,a0,a1
    f41c:	42555513          	srai	a0,a0,0x25
    f420:	00a025b3          	sgtz	a1,a0
    f424:	40b005b3          	neg	a1,a1
    f428:	00a5f533          	and	a0,a1,a0
    f42c:	01354463          	blt	a0,s3,f434 <.LBB71_1488>
    f430:	0ff00513          	li	a0,255

000000000000f434 <.LBB71_1488>:
    f434:	d8a43423          	sd	a0,-632(s0)
    f438:	d9843503          	ld	a0,-616(s0)
    f43c:	03950533          	mul	a0,a0,s9
    f440:	d9043583          	ld	a1,-624(s0)
    f444:	001585b3          	add	a1,a1,ra
    f448:	00b50533          	add	a0,a0,a1
    f44c:	42555513          	srai	a0,a0,0x25
    f450:	00a025b3          	sgtz	a1,a0
    f454:	40b005b3          	neg	a1,a1
    f458:	00a5f533          	and	a0,a1,a0
    f45c:	01354463          	blt	a0,s3,f464 <.LBB71_1490>
    f460:	0ff00513          	li	a0,255

000000000000f464 <.LBB71_1490>:
    f464:	d8a43c23          	sd	a0,-616(s0)
    f468:	db043503          	ld	a0,-592(s0)
    f46c:	03950533          	mul	a0,a0,s9
    f470:	da843583          	ld	a1,-600(s0)
    f474:	001585b3          	add	a1,a1,ra
    f478:	00b50533          	add	a0,a0,a1
    f47c:	42555513          	srai	a0,a0,0x25
    f480:	00a025b3          	sgtz	a1,a0
    f484:	40b005b3          	neg	a1,a1
    f488:	00a5f533          	and	a0,a1,a0
    f48c:	01354463          	blt	a0,s3,f494 <.LBB71_1492>
    f490:	0ff00513          	li	a0,255

000000000000f494 <.LBB71_1492>:
    f494:	daa43823          	sd	a0,-592(s0)
    f498:	dc043503          	ld	a0,-576(s0)
    f49c:	03950533          	mul	a0,a0,s9
    f4a0:	db843583          	ld	a1,-584(s0)
    f4a4:	001585b3          	add	a1,a1,ra
    f4a8:	00b50533          	add	a0,a0,a1
    f4ac:	42555513          	srai	a0,a0,0x25
    f4b0:	00a025b3          	sgtz	a1,a0
    f4b4:	40b005b3          	neg	a1,a1
    f4b8:	00a5f533          	and	a0,a1,a0
    f4bc:	01354463          	blt	a0,s3,f4c4 <.LBB71_1494>
    f4c0:	0ff00513          	li	a0,255

000000000000f4c4 <.LBB71_1494>:
    f4c4:	dca43023          	sd	a0,-576(s0)
    f4c8:	dd043503          	ld	a0,-560(s0)
    f4cc:	03950533          	mul	a0,a0,s9
    f4d0:	dc843583          	ld	a1,-568(s0)
    f4d4:	001585b3          	add	a1,a1,ra
    f4d8:	00b50533          	add	a0,a0,a1
    f4dc:	42555513          	srai	a0,a0,0x25
    f4e0:	00a025b3          	sgtz	a1,a0
    f4e4:	40b005b3          	neg	a1,a1
    f4e8:	00a5f533          	and	a0,a1,a0
    f4ec:	01354463          	blt	a0,s3,f4f4 <.LBB71_1496>
    f4f0:	0ff00513          	li	a0,255

000000000000f4f4 <.LBB71_1496>:
    f4f4:	dca43823          	sd	a0,-560(s0)
    f4f8:	de843503          	ld	a0,-536(s0)
    f4fc:	03950533          	mul	a0,a0,s9
    f500:	dd843583          	ld	a1,-552(s0)
    f504:	001585b3          	add	a1,a1,ra
    f508:	00b50533          	add	a0,a0,a1
    f50c:	42555513          	srai	a0,a0,0x25
    f510:	00a025b3          	sgtz	a1,a0
    f514:	40b005b3          	neg	a1,a1
    f518:	00a5f533          	and	a0,a1,a0
    f51c:	01354463          	blt	a0,s3,f524 <.LBB71_1498>
    f520:	0ff00513          	li	a0,255

000000000000f524 <.LBB71_1498>:
    f524:	dea43423          	sd	a0,-536(s0)
    f528:	df843503          	ld	a0,-520(s0)
    f52c:	03950533          	mul	a0,a0,s9
    f530:	df043583          	ld	a1,-528(s0)
    f534:	001585b3          	add	a1,a1,ra
    f538:	00b50533          	add	a0,a0,a1
    f53c:	42555513          	srai	a0,a0,0x25
    f540:	00a025b3          	sgtz	a1,a0
    f544:	40b005b3          	neg	a1,a1
    f548:	00a5f533          	and	a0,a1,a0
    f54c:	01354463          	blt	a0,s3,f554 <.LBB71_1500>
    f550:	0ff00513          	li	a0,255

000000000000f554 <.LBB71_1500>:
    f554:	dea43c23          	sd	a0,-520(s0)
    f558:	e0843503          	ld	a0,-504(s0)
    f55c:	039505b3          	mul	a1,a0,s9
    f560:	001d0633          	add	a2,s10,ra
    f564:	00c585b3          	add	a1,a1,a2
    f568:	4255d593          	srai	a1,a1,0x25
    f56c:	00b02633          	sgtz	a2,a1
    f570:	40c00633          	neg	a2,a2
    f574:	00b675b3          	and	a1,a2,a1
    f578:	0135c463          	blt	a1,s3,f580 <.LBB71_1502>
    f57c:	0ff00593          	li	a1,255

000000000000f580 <.LBB71_1502>:
    f580:	e0b43423          	sd	a1,-504(s0)
    f584:	e1043503          	ld	a0,-496(s0)
    f588:	03950633          	mul	a2,a0,s9
    f58c:	001686b3          	add	a3,a3,ra
    f590:	00d60633          	add	a2,a2,a3
    f594:	42565613          	srai	a2,a2,0x25
    f598:	00c026b3          	sgtz	a3,a2
    f59c:	40d006b3          	neg	a3,a3
    f5a0:	00c6f5b3          	and	a1,a3,a2
    f5a4:	0135c463          	blt	a1,s3,f5ac <.LBB71_1504>
    f5a8:	0ff00593          	li	a1,255

000000000000f5ac <.LBB71_1504>:
    f5ac:	e2843503          	ld	a0,-472(s0)
    f5b0:	039506b3          	mul	a3,a0,s9
    f5b4:	e2043703          	ld	a4,-480(s0)
    f5b8:	00170733          	add	a4,a4,ra
    f5bc:	00e686b3          	add	a3,a3,a4
    f5c0:	4256d693          	srai	a3,a3,0x25
    f5c4:	00d02733          	sgtz	a4,a3
    f5c8:	40e00733          	neg	a4,a4
    f5cc:	00d776b3          	and	a3,a4,a3
    f5d0:	00078613          	mv	a2,a5
    f5d4:	0136c463          	blt	a3,s3,f5dc <.LBB71_1506>
    f5d8:	0ff00693          	li	a3,255

000000000000f5dc <.LBB71_1506>:
    f5dc:	e3043503          	ld	a0,-464(s0)
    f5e0:	03950733          	mul	a4,a0,s9
    f5e4:	001807b3          	add	a5,a6,ra
    f5e8:	00f70733          	add	a4,a4,a5
    f5ec:	42575713          	srai	a4,a4,0x25
    f5f0:	00e027b3          	sgtz	a5,a4
    f5f4:	40f007b3          	neg	a5,a5
    f5f8:	00e7f733          	and	a4,a5,a4
    f5fc:	01374463          	blt	a4,s3,f604 <.LBB71_1508>
    f600:	0ff00713          	li	a4,255

000000000000f604 <.LBB71_1508>:
    f604:	00028513          	mv	a0,t0
    f608:	e3843783          	ld	a5,-456(s0)
    f60c:	039787b3          	mul	a5,a5,s9
    f610:	00160833          	add	a6,a2,ra
    f614:	010787b3          	add	a5,a5,a6
    f618:	4257d793          	srai	a5,a5,0x25
    f61c:	00f02833          	sgtz	a6,a5
    f620:	41000833          	neg	a6,a6
    f624:	00f877b3          	and	a5,a6,a5
    f628:	0137c463          	blt	a5,s3,f630 <.LBB71_1510>
    f62c:	0ff00793          	li	a5,255

000000000000f630 <.LBB71_1510>:
    f630:	039e0833          	mul	a6,t3,s9
    f634:	e4043883          	ld	a7,-448(s0)
    f638:	001888b3          	add	a7,a7,ra
    f63c:	01180833          	add	a6,a6,a7
    f640:	42585813          	srai	a6,a6,0x25
    f644:	010028b3          	sgtz	a7,a6
    f648:	411008b3          	neg	a7,a7
    f64c:	0108f833          	and	a6,a7,a6
    f650:	01384463          	blt	a6,s3,f658 <.LBB71_1512>
    f654:	0ff00813          	li	a6,255

000000000000f658 <.LBB71_1512>:
    f658:	e5843603          	ld	a2,-424(s0)
    f65c:	039608b3          	mul	a7,a2,s9
    f660:	e5043283          	ld	t0,-432(s0)
    f664:	001282b3          	add	t0,t0,ra
    f668:	005888b3          	add	a7,a7,t0
    f66c:	4258d893          	srai	a7,a7,0x25
    f670:	011022b3          	sgtz	t0,a7
    f674:	405002b3          	neg	t0,t0
    f678:	0112f8b3          	and	a7,t0,a7
    f67c:	0138c463          	blt	a7,s3,f684 <.LBB71_1514>
    f680:	0ff00893          	li	a7,255

000000000000f684 <.LBB71_1514>:
    f684:	e6843603          	ld	a2,-408(s0)
    f688:	039602b3          	mul	t0,a2,s9
    f68c:	e6043303          	ld	t1,-416(s0)
    f690:	00130333          	add	t1,t1,ra
    f694:	006282b3          	add	t0,t0,t1
    f698:	4252d293          	srai	t0,t0,0x25
    f69c:	00502333          	sgtz	t1,t0
    f6a0:	40600333          	neg	t1,t1
    f6a4:	005372b3          	and	t0,t1,t0
    f6a8:	0132c463          	blt	t0,s3,f6b0 <.LBB71_1516>
    f6ac:	0ff00293          	li	t0,255

000000000000f6b0 <.LBB71_1516>:
    f6b0:	e7843603          	ld	a2,-392(s0)
    f6b4:	03960333          	mul	t1,a2,s9
    f6b8:	e7043383          	ld	t2,-400(s0)
    f6bc:	001383b3          	add	t2,t2,ra
    f6c0:	00730333          	add	t1,t1,t2
    f6c4:	42535313          	srai	t1,t1,0x25
    f6c8:	006023b3          	sgtz	t2,t1
    f6cc:	407003b3          	neg	t2,t2
    f6d0:	0063f333          	and	t1,t2,t1
    f6d4:	01334463          	blt	t1,s3,f6dc <.LBB71_1518>
    f6d8:	0ff00313          	li	t1,255

000000000000f6dc <.LBB71_1518>:
    f6dc:	e9043603          	ld	a2,-368(s0)
    f6e0:	039603b3          	mul	t2,a2,s9
    f6e4:	e8043e03          	ld	t3,-384(s0)
    f6e8:	001e0e33          	add	t3,t3,ra
    f6ec:	01c383b3          	add	t2,t2,t3
    f6f0:	4253d393          	srai	t2,t2,0x25
    f6f4:	00702e33          	sgtz	t3,t2
    f6f8:	41c00e33          	neg	t3,t3
    f6fc:	007e73b3          	and	t2,t3,t2
    f700:	0133c463          	blt	t2,s3,f708 <.LBB71_1520>
    f704:	0ff00393          	li	t2,255

000000000000f708 <.LBB71_1520>:
    f708:	ea043603          	ld	a2,-352(s0)
    f70c:	03960e33          	mul	t3,a2,s9
    f710:	e9843e83          	ld	t4,-360(s0)
    f714:	001e8eb3          	add	t4,t4,ra
    f718:	01de0e33          	add	t3,t3,t4
    f71c:	425e5e13          	srai	t3,t3,0x25
    f720:	01c02eb3          	sgtz	t4,t3
    f724:	41d00eb3          	neg	t4,t4
    f728:	01cefe33          	and	t3,t4,t3
    f72c:	013e4463          	blt	t3,s3,f734 <.LBB71_1522>
    f730:	0ff00e13          	li	t3,255

000000000000f734 <.LBB71_1522>:
    f734:	eb043603          	ld	a2,-336(s0)
    f738:	03960eb3          	mul	t4,a2,s9
    f73c:	ea843f03          	ld	t5,-344(s0)
    f740:	001f0f33          	add	t5,t5,ra
    f744:	01ee8eb3          	add	t4,t4,t5
    f748:	425ede93          	srai	t4,t4,0x25
    f74c:	01d02f33          	sgtz	t5,t4
    f750:	41e00f33          	neg	t5,t5
    f754:	01df7933          	and	s2,t5,t4
    f758:	01394463          	blt	s2,s3,f760 <.LBB71_1524>
    f75c:	0ff00913          	li	s2,255

000000000000f760 <.LBB71_1524>:
    f760:	039d8eb3          	mul	t4,s11,s9
    f764:	eb843f03          	ld	t5,-328(s0)
    f768:	001f0f33          	add	t5,t5,ra
    f76c:	01ee8eb3          	add	t4,t4,t5
    f770:	425ede93          	srai	t4,t4,0x25
    f774:	01d02f33          	sgtz	t5,t4
    f778:	41e00f33          	neg	t5,t5
    f77c:	01df7db3          	and	s11,t5,t4
    f780:	013dc463          	blt	s11,s3,f788 <.LBB71_1526>
    f784:	0ff00d93          	li	s11,255

000000000000f788 <.LBB71_1526>:
    f788:	e0043603          	ld	a2,-512(s0)
    f78c:	03960eb3          	mul	t4,a2,s9
    f790:	ec843f03          	ld	t5,-312(s0)
    f794:	001f0f33          	add	t5,t5,ra
    f798:	01ee8eb3          	add	t4,t4,t5
    f79c:	425ede93          	srai	t4,t4,0x25
    f7a0:	01d02f33          	sgtz	t5,t4
    f7a4:	41e00f33          	neg	t5,t5
    f7a8:	01df7d33          	and	s10,t5,t4
    f7ac:	013d4463          	blt	s10,s3,f7b4 <.LBB71_1528>
    f7b0:	0ff00d13          	li	s10,255

000000000000f7b4 <.LBB71_1528>:
    f7b4:	00001637          	lui	a2,0x1
    f7b8:	40c40633          	sub	a2,s0,a2
    f7bc:	5a063603          	ld	a2,1440(a2) # 15a0 <.LBB71_4+0x3a0>
    f7c0:	03960eb3          	mul	t4,a2,s9
    f7c4:	ed043f03          	ld	t5,-304(s0)
    f7c8:	001f0f33          	add	t5,t5,ra
    f7cc:	01ee8eb3          	add	t4,t4,t5
    f7d0:	425ede93          	srai	t4,t4,0x25
    f7d4:	01d02f33          	sgtz	t5,t4
    f7d8:	41e00f33          	neg	t5,t5
    f7dc:	01df7ab3          	and	s5,t5,t4
    f7e0:	013ac463          	blt	s5,s3,f7e8 <.LBB71_1530>
    f7e4:	0ff00a93          	li	s5,255

000000000000f7e8 <.LBB71_1530>:
    f7e8:	039a0eb3          	mul	t4,s4,s9
    f7ec:	001b8f33          	add	t5,s7,ra
    f7f0:	01ee8eb3          	add	t4,t4,t5
    f7f4:	425ede93          	srai	t4,t4,0x25
    f7f8:	01d02f33          	sgtz	t5,t4
    f7fc:	41e00f33          	neg	t5,t5
    f800:	01df7a33          	and	s4,t5,t4
    f804:	013a4463          	blt	s4,s3,f80c <.LBB71_1532>
    f808:	0ff00a13          	li	s4,255

000000000000f80c <.LBB71_1532>:
    f80c:	000f8b93          	mv	s7,t6
    f810:	ee043603          	ld	a2,-288(s0)
    f814:	03960eb3          	mul	t4,a2,s9
    f818:	ed843f03          	ld	t5,-296(s0)
    f81c:	001f0f33          	add	t5,t5,ra
    f820:	01ee8eb3          	add	t4,t4,t5
    f824:	425ede93          	srai	t4,t4,0x25
    f828:	01d02f33          	sgtz	t5,t4
    f82c:	41e00f33          	neg	t5,t5
    f830:	01df7f33          	and	t5,t5,t4
    f834:	013f4463          	blt	t5,s3,f83c <.LBB71_1534>
    f838:	0ff00f13          	li	t5,255

000000000000f83c <.LBB71_1534>:
    f83c:	00001637          	lui	a2,0x1
    f840:	40c40633          	sub	a2,s0,a2
    f844:	59863603          	ld	a2,1432(a2) # 1598 <.LBB71_4+0x398>
    f848:	03960eb3          	mul	t4,a2,s9
    f84c:	ef043f83          	ld	t6,-272(s0)
    f850:	001f8fb3          	add	t6,t6,ra
    f854:	01fe8eb3          	add	t4,t4,t6
    f858:	425ede93          	srai	t4,t4,0x25
    f85c:	01d02fb3          	sgtz	t6,t4
    f860:	41f00fb3          	neg	t6,t6
    f864:	01dffc33          	and	s8,t6,t4
    f868:	013c4463          	blt	s8,s3,f870 <.LBB71_1536>
    f86c:	0ff00c13          	li	s8,255

000000000000f870 <.LBB71_1536>:
    f870:	00001637          	lui	a2,0x1
    f874:	40c40633          	sub	a2,s0,a2
    f878:	59063603          	ld	a2,1424(a2) # 1590 <.LBB71_4+0x390>
    f87c:	03960eb3          	mul	t4,a2,s9
    f880:	ef843f83          	ld	t6,-264(s0)
    f884:	001f8fb3          	add	t6,t6,ra
    f888:	01fe8eb3          	add	t4,t4,t6
    f88c:	425ede93          	srai	t4,t4,0x25
    f890:	01d02fb3          	sgtz	t6,t4
    f894:	41f00fb3          	neg	t6,t6
    f898:	01dff4b3          	and	s1,t6,t4
    f89c:	0134c463          	blt	s1,s3,f8a4 <.LBB71_1538>
    f8a0:	0ff00493          	li	s1,255

000000000000f8a4 <.LBB71_1538>:
    f8a4:	a4843603          	ld	a2,-1464(s0)
    f8a8:	03960eb3          	mul	t4,a2,s9
    f8ac:	f0043f83          	ld	t6,-256(s0)
    f8b0:	001f8fb3          	add	t6,t6,ra
    f8b4:	01fe8eb3          	add	t4,t4,t6
    f8b8:	425ede93          	srai	t4,t4,0x25
    f8bc:	01d02fb3          	sgtz	t6,t4
    f8c0:	41f00fb3          	neg	t6,t6
    f8c4:	01dffb33          	and	s6,t6,t4
    f8c8:	013b4463          	blt	s6,s3,f8d0 <.LBB71_1540>
    f8cc:	0ff00b13          	li	s6,255

000000000000f8d0 <.LBB71_1540>:
    f8d0:	f1843603          	ld	a2,-232(s0)
    f8d4:	03960eb3          	mul	t4,a2,s9
    f8d8:	001b8fb3          	add	t6,s7,ra
    f8dc:	01fe8eb3          	add	t4,t4,t6
    f8e0:	425ede93          	srai	t4,t4,0x25
    f8e4:	01d02fb3          	sgtz	t6,t4
    f8e8:	41f00fb3          	neg	t6,t6
    f8ec:	01dfffb3          	and	t6,t6,t4
    f8f0:	013fc463          	blt	t6,s3,f8f8 <.LBB71_1542>
    f8f4:	0ff00f93          	li	t6,255

000000000000f8f8 <.LBB71_1542>:
    f8f8:	f0843603          	ld	a2,-248(s0)
    f8fc:	03960eb3          	mul	t4,a2,s9
    f900:	f2043b83          	ld	s7,-224(s0)
    f904:	001b8bb3          	add	s7,s7,ra
    f908:	017e8eb3          	add	t4,t4,s7
    f90c:	425ede93          	srai	t4,t4,0x25
    f910:	01d02bb3          	sgtz	s7,t4
    f914:	41700bb3          	neg	s7,s7
    f918:	01dbfeb3          	and	t4,s7,t4
    f91c:	013ec463          	blt	t4,s3,f924 <.LBB71_1544>
    f920:	0ff00e93          	li	t4,255

000000000000f924 <.LBB71_1544>:
    f924:	f2843603          	ld	a2,-216(s0)
    f928:	03960bb3          	mul	s7,a2,s9
    f92c:	00150cb3          	add	s9,a0,ra
    f930:	019b8bb3          	add	s7,s7,s9
    f934:	425bdb93          	srai	s7,s7,0x25
    f938:	01702cb3          	sgtz	s9,s7
    f93c:	41900cb3          	neg	s9,s9
    f940:	017cfbb3          	and	s7,s9,s7
    f944:	013bd463          	bge	s7,s3,f94c <.LBB71_1545>
    f948:	ef4fb06f          	j	b03c <.LBB71_1031>

000000000000f94c <.LBB71_1545>:
    f94c:	0ff00b93          	li	s7,255
    f950:	eecfb06f          	j	b03c <.LBB71_1031>

000000000000f954 <.LBB71_1546>:
    f954:	00000513          	li	a0,0
    f958:	7f010113          	addi	sp,sp,2032
    f95c:	39010113          	addi	sp,sp,912
    f960:	7e813083          	ld	ra,2024(sp)
    f964:	7e013403          	ld	s0,2016(sp)
    f968:	7d813483          	ld	s1,2008(sp)
    f96c:	7d013903          	ld	s2,2000(sp)
    f970:	7c813983          	ld	s3,1992(sp)
    f974:	7c013a03          	ld	s4,1984(sp)
    f978:	7b813a83          	ld	s5,1976(sp)
    f97c:	7b013b03          	ld	s6,1968(sp)
    f980:	7a813b83          	ld	s7,1960(sp)
    f984:	7a013c03          	ld	s8,1952(sp)
    f988:	79813c83          	ld	s9,1944(sp)
    f98c:	79013d03          	ld	s10,1936(sp)
    f990:	78813d83          	ld	s11,1928(sp)
    f994:	7f010113          	addi	sp,sp,2032
    f998:	00008067          	ret
