
code.o:     file format elf64-littleriscv


Disassembly of section .text.main_dispatch_73_matmul_196x64x384_i8xi8xi32:

0000000000000000 <main_dispatch_73_matmul_196x64x384_i8xi8xi32>:
       0:	81010113          	addi	sp,sp,-2032
       4:	7e113423          	sd	ra,2024(sp)
       8:	7e813023          	sd	s0,2016(sp)
       c:	7c913c23          	sd	s1,2008(sp)
      10:	7d213823          	sd	s2,2000(sp)
      14:	7d313423          	sd	s3,1992(sp)
      18:	7d413023          	sd	s4,1984(sp)
      1c:	7b513c23          	sd	s5,1976(sp)
      20:	7b613823          	sd	s6,1968(sp)
      24:	7b713423          	sd	s7,1960(sp)
      28:	7b813023          	sd	s8,1952(sp)
      2c:	79913c23          	sd	s9,1944(sp)
      30:	79a13823          	sd	s10,1936(sp)
      34:	79b13423          	sd	s11,1928(sp)
      38:	7f010413          	addi	s0,sp,2032
      3c:	00002537          	lui	a0,0x2
      40:	8405051b          	addiw	a0,a0,-1984 # 1840 <.LBB63_5+0x418>
      44:	40a10133          	sub	sp,sp,a0
      48:	0205b583          	ld	a1,32(a1)
      4c:	00000513          	li	a0,0
      50:	0085b603          	ld	a2,8(a1)
      54:	0005b703          	ld	a4,0(a1)
      58:	000466b7          	lui	a3,0x46
      5c:	0806869b          	addiw	a3,a3,128 # 46080 <.Lfunc_end80+0x1d6b8>
      60:	00d606b3          	add	a3,a2,a3
      64:	000027b7          	lui	a5,0x2
      68:	40f407b3          	sub	a5,s0,a5
      6c:	06d7b023          	sd	a3,96(a5) # 2060 <.LBB63_5+0xc38>
      70:	000126b7          	lui	a3,0x12
      74:	6006869b          	addiw	a3,a3,1536 # 12600 <.LBB63_2093+0x50>
      78:	00d706b3          	add	a3,a4,a3
      7c:	000027b7          	lui	a5,0x2
      80:	40f407b3          	sub	a5,s0,a5
      84:	fed7b023          	sd	a3,-32(a5) # 1fe0 <.LBB63_5+0xbb8>
      88:	0004c6b7          	lui	a3,0x4c
      8c:	0806869b          	addiw	a3,a3,128 # 4c080 <.Lfunc_end80+0x236b8>
      90:	00d60633          	add	a2,a2,a3
      94:	000026b7          	lui	a3,0x2
      98:	40d406b3          	sub	a3,s0,a3
      9c:	04c6bc23          	sd	a2,88(a3) # 2058 <.LBB63_5+0xc30>
      a0:	00016637          	lui	a2,0x16
      a4:	a406061b          	addiw	a2,a2,-1472 # 15a40 <.LBB63_2393+0x20>
      a8:	0105b583          	ld	a1,16(a1)
      ac:	00c70633          	add	a2,a4,a2
      b0:	000026b7          	lui	a3,0x2
      b4:	40d406b3          	sub	a3,s0,a3
      b8:	04c6b823          	sd	a2,80(a3) # 2050 <.LBB63_5+0xc28>
      bc:	00013637          	lui	a2,0x13
      c0:	9406061b          	addiw	a2,a2,-1728 # 12940 <.LBB63_2109+0x50>
      c4:	00c585b3          	add	a1,a1,a2
      c8:	00002637          	lui	a2,0x2
      cc:	40c40633          	sub	a2,s0,a2
      d0:	04b63423          	sd	a1,72(a2) # 2048 <.LBB63_5+0xc20>
      d4:	000025b7          	lui	a1,0x2
      d8:	40b405b3          	sub	a1,s0,a1
      dc:	fce5bc23          	sd	a4,-40(a1) # 1fd8 <.LBB63_5+0xbb0>
      e0:	60070593          	addi	a1,a4,1536
      e4:	00002637          	lui	a2,0x2
      e8:	40c40633          	sub	a2,s0,a2
      ec:	06b63423          	sd	a1,104(a2) # 2068 <.LBB63_5+0xc40>
      f0:	4393c5b7          	lui	a1,0x4393c
      f4:	a345859b          	addiw	a1,a1,-1484 # 4393ba34 <.Lfunc_end80+0x4391306c>
      f8:	00002637          	lui	a2,0x2
      fc:	40c40633          	sub	a2,s0,a2
     100:	feb63c23          	sd	a1,-8(a2) # 1ff8 <.LBB63_5+0xbd0>
     104:	639a45b7          	lui	a1,0x639a4
     108:	18b5859b          	addiw	a1,a1,395 # 639a418b <.Lfunc_end80+0x6397b7c3>
     10c:	01459593          	slli	a1,a1,0x14
     110:	00001637          	lui	a2,0x1
     114:	40c40633          	sub	a2,s0,a2
     118:	66b63c23          	sd	a1,1656(a2) # 1678 <.LBB63_5+0x250>
     11c:	00300593          	li	a1,3
     120:	01e59593          	slli	a1,a1,0x1e
     124:	00002637          	lui	a2,0x2
     128:	40c40633          	sub	a2,s0,a2
     12c:	feb63823          	sd	a1,-16(a2) # 1ff0 <.LBB63_5+0xbc8>
     130:	7c80d5b7          	lui	a1,0x7c80d
     134:	00259593          	slli	a1,a1,0x2
     138:	7b758593          	addi	a1,a1,1975 # 7c80d7b7 <.Lfunc_end80+0x7c7e4def>
     13c:	01459593          	slli	a1,a1,0x14
     140:	00001637          	lui	a2,0x1
     144:	40c40633          	sub	a2,s0,a2
     148:	66b63823          	sd	a1,1648(a2) # 1670 <.LBB63_5+0x248>
     14c:	793955b7          	lui	a1,0x79395
     150:	ecb5859b          	addiw	a1,a1,-309 # 79394ecb <.Lfunc_end80+0x7936c503>
     154:	f6b43c23          	sd	a1,-136(s0)
     158:	0400006f          	j	198 <.LBB63_2>

000000000000015c <.LBB63_1>:
     15c:	00002537          	lui	a0,0x2
     160:	40a40533          	sub	a0,s0,a0
     164:	fe853603          	ld	a2,-24(a0) # 1fe8 <.LBB63_5+0xbc0>
     168:	00860513          	addi	a0,a2,8
     16c:	000025b7          	lui	a1,0x2
     170:	40b405b3          	sub	a1,s0,a1
     174:	0685b583          	ld	a1,104(a1) # 2068 <.LBB63_5+0xc40>
     178:	7ff58593          	addi	a1,a1,2047
     17c:	40158593          	addi	a1,a1,1025
     180:	000026b7          	lui	a3,0x2
     184:	40d406b3          	sub	a3,s0,a3
     188:	06b6b423          	sd	a1,104(a3) # 2068 <.LBB63_5+0xc40>
     18c:	0b800593          	li	a1,184
     190:	00b66463          	bltu	a2,a1,198 <.LBB63_2>
     194:	7c41b06f          	j	1b958 <.LBB63_3590>

0000000000000198 <.LBB63_2>:
     198:	00000693          	li	a3,0
     19c:	00050613          	mv	a2,a0
     1a0:	00251513          	slli	a0,a0,0x2
     1a4:	000025b7          	lui	a1,0x2
     1a8:	40b405b3          	sub	a1,s0,a1
     1ac:	fe05b583          	ld	a1,-32(a1) # 1fe0 <.LBB63_5+0xbb8>
     1b0:	00a58533          	add	a0,a1,a0
     1b4:	000015b7          	lui	a1,0x1
     1b8:	40b405b3          	sub	a1,s0,a1
     1bc:	04a5b423          	sd	a0,72(a1) # 1048 <.LBB63_4+0x1a8>
     1c0:	00002537          	lui	a0,0x2
     1c4:	40a40533          	sub	a0,s0,a0
     1c8:	fec53423          	sd	a2,-24(a0) # 1fe8 <.LBB63_5+0xbc0>
     1cc:	00661613          	slli	a2,a2,0x6
     1d0:	04060513          	addi	a0,a2,64
     1d4:	000025b7          	lui	a1,0x2
     1d8:	40b405b3          	sub	a1,s0,a1
     1dc:	02a5b823          	sd	a0,48(a1) # 2030 <.LBB63_5+0xc08>
     1e0:	08060513          	addi	a0,a2,128
     1e4:	000025b7          	lui	a1,0x2
     1e8:	40b405b3          	sub	a1,s0,a1
     1ec:	02a5b423          	sd	a0,40(a1) # 2028 <.LBB63_5+0xc00>
     1f0:	0c060513          	addi	a0,a2,192
     1f4:	000025b7          	lui	a1,0x2
     1f8:	40b405b3          	sub	a1,s0,a1
     1fc:	02a5b023          	sd	a0,32(a1) # 2020 <.LBB63_5+0xbf8>
     200:	10060513          	addi	a0,a2,256
     204:	000025b7          	lui	a1,0x2
     208:	40b405b3          	sub	a1,s0,a1
     20c:	00a5bc23          	sd	a0,24(a1) # 2018 <.LBB63_5+0xbf0>
     210:	14060513          	addi	a0,a2,320
     214:	000025b7          	lui	a1,0x2
     218:	40b405b3          	sub	a1,s0,a1
     21c:	00a5b823          	sd	a0,16(a1) # 2010 <.LBB63_5+0xbe8>
     220:	18060513          	addi	a0,a2,384
     224:	000025b7          	lui	a1,0x2
     228:	40b405b3          	sub	a1,s0,a1
     22c:	00a5b423          	sd	a0,8(a1) # 2008 <.LBB63_5+0xbe0>
     230:	00002537          	lui	a0,0x2
     234:	40a40533          	sub	a0,s0,a0
     238:	02c53c23          	sd	a2,56(a0) # 2038 <.LBB63_5+0xc10>
     23c:	1c060513          	addi	a0,a2,448
     240:	000025b7          	lui	a1,0x2
     244:	40b405b3          	sub	a1,s0,a1
     248:	00a5b023          	sd	a0,0(a1) # 2000 <.LBB63_5+0xbd8>
     24c:	00100593          	li	a1,1
     250:	4510006f          	j	ea0 <.LBB63_4>

0000000000000254 <.LBB63_3>:
     254:	8d843c23          	sd	s8,-1832(s0)
     258:	ffcd8b93          	addi	s7,s11,-4
     25c:	000022b7          	lui	t0,0x2
     260:	405402b3          	sub	t0,s0,t0
     264:	0482bd83          	ld	s11,72(t0) # 2048 <.LBB63_5+0xc20>
     268:	000012b7          	lui	t0,0x1
     26c:	405402b3          	sub	t0,s0,t0
     270:	0002bc03          	ld	s8,0(t0) # 1000 <.LBB63_4+0x160>
     274:	018d8c33          	add	s8,s11,s8
     278:	017c01a3          	sb	s7,3(s8)
     27c:	e4843b83          	ld	s7,-440(s0)
     280:	ffcb8b93          	addi	s7,s7,-4
     284:	017c0123          	sb	s7,2(s8)
     288:	e5843b83          	ld	s7,-424(s0)
     28c:	ffcb8b93          	addi	s7,s7,-4
     290:	017c00a3          	sb	s7,1(s8)
     294:	e6843b83          	ld	s7,-408(s0)
     298:	ffcb8b93          	addi	s7,s7,-4
     29c:	017c0023          	sb	s7,0(s8)
     2a0:	e7843b83          	ld	s7,-392(s0)
     2a4:	ffcb8b93          	addi	s7,s7,-4
     2a8:	017c0223          	sb	s7,4(s8)
     2ac:	e8843b83          	ld	s7,-376(s0)
     2b0:	ffcb8b93          	addi	s7,s7,-4
     2b4:	017c02a3          	sb	s7,5(s8)
     2b8:	e9843b83          	ld	s7,-360(s0)
     2bc:	ffcb8b93          	addi	s7,s7,-4
     2c0:	017c0323          	sb	s7,6(s8)
     2c4:	ea843b83          	ld	s7,-344(s0)
     2c8:	ffcb8b93          	addi	s7,s7,-4
     2cc:	017c03a3          	sb	s7,7(s8)
     2d0:	eb843b83          	ld	s7,-328(s0)
     2d4:	ffcb8b93          	addi	s7,s7,-4
     2d8:	017c0423          	sb	s7,8(s8)
     2dc:	ec843b83          	ld	s7,-312(s0)
     2e0:	ffcb8b93          	addi	s7,s7,-4
     2e4:	017c04a3          	sb	s7,9(s8)
     2e8:	ed843b83          	ld	s7,-296(s0)
     2ec:	ffcb8b93          	addi	s7,s7,-4
     2f0:	017c0523          	sb	s7,10(s8)
     2f4:	ee043b83          	ld	s7,-288(s0)
     2f8:	ffcb8b93          	addi	s7,s7,-4
     2fc:	017c05a3          	sb	s7,11(s8)
     300:	ee843b83          	ld	s7,-280(s0)
     304:	ffcb8b93          	addi	s7,s7,-4
     308:	017c0623          	sb	s7,12(s8)
     30c:	ef043b83          	ld	s7,-272(s0)
     310:	ffcb8b93          	addi	s7,s7,-4
     314:	017c06a3          	sb	s7,13(s8)
     318:	ef843b83          	ld	s7,-264(s0)
     31c:	ffcb8b93          	addi	s7,s7,-4
     320:	017c0723          	sb	s7,14(s8)
     324:	f0043b83          	ld	s7,-256(s0)
     328:	ffcb8b93          	addi	s7,s7,-4
     32c:	017c07a3          	sb	s7,15(s8)
     330:	f0843b83          	ld	s7,-248(s0)
     334:	ffcb8b93          	addi	s7,s7,-4
     338:	017c0823          	sb	s7,16(s8)
     33c:	f1043b83          	ld	s7,-240(s0)
     340:	ffcb8b93          	addi	s7,s7,-4
     344:	017c08a3          	sb	s7,17(s8)
     348:	f1843b83          	ld	s7,-232(s0)
     34c:	ffcb8b93          	addi	s7,s7,-4
     350:	017c0923          	sb	s7,18(s8)
     354:	f2043b83          	ld	s7,-224(s0)
     358:	ffcb8b93          	addi	s7,s7,-4
     35c:	017c09a3          	sb	s7,19(s8)
     360:	f2843b83          	ld	s7,-216(s0)
     364:	ffcb8b93          	addi	s7,s7,-4
     368:	017c0a23          	sb	s7,20(s8)
     36c:	f3043b83          	ld	s7,-208(s0)
     370:	ffcb8b93          	addi	s7,s7,-4
     374:	017c0aa3          	sb	s7,21(s8)
     378:	f3843b83          	ld	s7,-200(s0)
     37c:	ffcb8b93          	addi	s7,s7,-4
     380:	017c0b23          	sb	s7,22(s8)
     384:	f4043b83          	ld	s7,-192(s0)
     388:	ffcb8b93          	addi	s7,s7,-4
     38c:	017c0ba3          	sb	s7,23(s8)
     390:	f4843b83          	ld	s7,-184(s0)
     394:	ffcb8b93          	addi	s7,s7,-4
     398:	017c0c23          	sb	s7,24(s8)
     39c:	f5043b83          	ld	s7,-176(s0)
     3a0:	ffcb8b93          	addi	s7,s7,-4
     3a4:	017c0ca3          	sb	s7,25(s8)
     3a8:	f5843b83          	ld	s7,-168(s0)
     3ac:	ffcb8b93          	addi	s7,s7,-4
     3b0:	017c0d23          	sb	s7,26(s8)
     3b4:	f6043b83          	ld	s7,-160(s0)
     3b8:	ffcb8b93          	addi	s7,s7,-4
     3bc:	017c0da3          	sb	s7,27(s8)
     3c0:	f6843b83          	ld	s7,-152(s0)
     3c4:	ffcb8b93          	addi	s7,s7,-4
     3c8:	017c0e23          	sb	s7,28(s8)
     3cc:	f7043b83          	ld	s7,-144(s0)
     3d0:	ffcb8b93          	addi	s7,s7,-4
     3d4:	017c0ea3          	sb	s7,29(s8)
     3d8:	f8043b83          	ld	s7,-128(s0)
     3dc:	ffcb8b93          	addi	s7,s7,-4
     3e0:	017c0f23          	sb	s7,30(s8)
     3e4:	f8843b83          	ld	s7,-120(s0)
     3e8:	ffcb8b93          	addi	s7,s7,-4
     3ec:	017c0fa3          	sb	s7,31(s8)
     3f0:	d4043c03          	ld	s8,-704(s0)
     3f4:	ffcc0c13          	addi	s8,s8,-4
     3f8:	000012b7          	lui	t0,0x1
     3fc:	405402b3          	sub	t0,s0,t0
     400:	0082bb83          	ld	s7,8(t0) # 1008 <.LBB63_4+0x168>
     404:	017d8bb3          	add	s7,s11,s7
     408:	018b8fa3          	sb	s8,31(s7)
     40c:	d5043c03          	ld	s8,-688(s0)
     410:	ffcc0c13          	addi	s8,s8,-4
     414:	018b8f23          	sb	s8,30(s7)
     418:	d6043c03          	ld	s8,-672(s0)
     41c:	ffcc0c13          	addi	s8,s8,-4
     420:	018b8ea3          	sb	s8,29(s7)
     424:	d7043c03          	ld	s8,-656(s0)
     428:	ffcc0c13          	addi	s8,s8,-4
     42c:	018b8e23          	sb	s8,28(s7)
     430:	d8043c03          	ld	s8,-640(s0)
     434:	ffcc0c13          	addi	s8,s8,-4
     438:	018b8da3          	sb	s8,27(s7)
     43c:	d9043c03          	ld	s8,-624(s0)
     440:	ffcc0c13          	addi	s8,s8,-4
     444:	018b8d23          	sb	s8,26(s7)
     448:	da043c03          	ld	s8,-608(s0)
     44c:	ffcc0c13          	addi	s8,s8,-4
     450:	018b8ca3          	sb	s8,25(s7)
     454:	db043c03          	ld	s8,-592(s0)
     458:	ffcc0c13          	addi	s8,s8,-4
     45c:	018b8c23          	sb	s8,24(s7)
     460:	dc043c03          	ld	s8,-576(s0)
     464:	ffcc0c13          	addi	s8,s8,-4
     468:	018b8ba3          	sb	s8,23(s7)
     46c:	dd043c03          	ld	s8,-560(s0)
     470:	ffcc0c13          	addi	s8,s8,-4
     474:	018b8b23          	sb	s8,22(s7)
     478:	de043c03          	ld	s8,-544(s0)
     47c:	ffcc0c13          	addi	s8,s8,-4
     480:	018b8aa3          	sb	s8,21(s7)
     484:	de843c03          	ld	s8,-536(s0)
     488:	ffcc0c13          	addi	s8,s8,-4
     48c:	018b8a23          	sb	s8,20(s7)
     490:	df043c03          	ld	s8,-528(s0)
     494:	ffcc0c13          	addi	s8,s8,-4
     498:	018b89a3          	sb	s8,19(s7)
     49c:	df843c03          	ld	s8,-520(s0)
     4a0:	ffcc0c13          	addi	s8,s8,-4
     4a4:	018b8923          	sb	s8,18(s7)
     4a8:	e0043c03          	ld	s8,-512(s0)
     4ac:	ffcc0c13          	addi	s8,s8,-4
     4b0:	018b88a3          	sb	s8,17(s7)
     4b4:	e0843c03          	ld	s8,-504(s0)
     4b8:	ffcc0c13          	addi	s8,s8,-4
     4bc:	018b8823          	sb	s8,16(s7)
     4c0:	e1043c03          	ld	s8,-496(s0)
     4c4:	ffcc0c13          	addi	s8,s8,-4
     4c8:	018b87a3          	sb	s8,15(s7)
     4cc:	e1843c03          	ld	s8,-488(s0)
     4d0:	ffcc0c13          	addi	s8,s8,-4
     4d4:	018b8723          	sb	s8,14(s7)
     4d8:	e2043c03          	ld	s8,-480(s0)
     4dc:	ffcc0c13          	addi	s8,s8,-4
     4e0:	018b86a3          	sb	s8,13(s7)
     4e4:	e2843c03          	ld	s8,-472(s0)
     4e8:	ffcc0c13          	addi	s8,s8,-4
     4ec:	018b8623          	sb	s8,12(s7)
     4f0:	e3043c03          	ld	s8,-464(s0)
     4f4:	ffcc0c13          	addi	s8,s8,-4
     4f8:	018b85a3          	sb	s8,11(s7)
     4fc:	e3843c03          	ld	s8,-456(s0)
     500:	ffcc0c13          	addi	s8,s8,-4
     504:	018b8523          	sb	s8,10(s7)
     508:	e4043c03          	ld	s8,-448(s0)
     50c:	ffcc0c13          	addi	s8,s8,-4
     510:	018b84a3          	sb	s8,9(s7)
     514:	e5043c03          	ld	s8,-432(s0)
     518:	ffcc0c13          	addi	s8,s8,-4
     51c:	018b8423          	sb	s8,8(s7)
     520:	e6043c03          	ld	s8,-416(s0)
     524:	ffcc0c13          	addi	s8,s8,-4
     528:	018b83a3          	sb	s8,7(s7)
     52c:	e7043c03          	ld	s8,-400(s0)
     530:	ffcc0c13          	addi	s8,s8,-4
     534:	018b8323          	sb	s8,6(s7)
     538:	e8043c03          	ld	s8,-384(s0)
     53c:	ffcc0c13          	addi	s8,s8,-4
     540:	018b82a3          	sb	s8,5(s7)
     544:	e9043c03          	ld	s8,-368(s0)
     548:	ffcc0c13          	addi	s8,s8,-4
     54c:	018b8223          	sb	s8,4(s7)
     550:	ea043c03          	ld	s8,-352(s0)
     554:	ffcc0c13          	addi	s8,s8,-4
     558:	018b81a3          	sb	s8,3(s7)
     55c:	eb043c03          	ld	s8,-336(s0)
     560:	ffcc0c13          	addi	s8,s8,-4
     564:	018b8123          	sb	s8,2(s7)
     568:	ec043c03          	ld	s8,-320(s0)
     56c:	ffcc0c13          	addi	s8,s8,-4
     570:	018b80a3          	sb	s8,1(s7)
     574:	ed043c03          	ld	s8,-304(s0)
     578:	ffcc0c13          	addi	s8,s8,-4
     57c:	018b8023          	sb	s8,0(s7)
     580:	c4043c03          	ld	s8,-960(s0)
     584:	ffcc0c13          	addi	s8,s8,-4
     588:	000012b7          	lui	t0,0x1
     58c:	405402b3          	sub	t0,s0,t0
     590:	0102bb83          	ld	s7,16(t0) # 1010 <.LBB63_4+0x170>
     594:	017d8bb3          	add	s7,s11,s7
     598:	018b8fa3          	sb	s8,31(s7)
     59c:	c5043c03          	ld	s8,-944(s0)
     5a0:	ffcc0c13          	addi	s8,s8,-4
     5a4:	018b8f23          	sb	s8,30(s7)
     5a8:	c6043c03          	ld	s8,-928(s0)
     5ac:	ffcc0c13          	addi	s8,s8,-4
     5b0:	018b8ea3          	sb	s8,29(s7)
     5b4:	c7043c03          	ld	s8,-912(s0)
     5b8:	ffcc0c13          	addi	s8,s8,-4
     5bc:	018b8e23          	sb	s8,28(s7)
     5c0:	c8043c03          	ld	s8,-896(s0)
     5c4:	ffcc0c13          	addi	s8,s8,-4
     5c8:	018b8da3          	sb	s8,27(s7)
     5cc:	c9043c03          	ld	s8,-880(s0)
     5d0:	ffcc0c13          	addi	s8,s8,-4
     5d4:	018b8d23          	sb	s8,26(s7)
     5d8:	ca043c03          	ld	s8,-864(s0)
     5dc:	ffcc0c13          	addi	s8,s8,-4
     5e0:	018b8ca3          	sb	s8,25(s7)
     5e4:	cb043c03          	ld	s8,-848(s0)
     5e8:	ffcc0c13          	addi	s8,s8,-4
     5ec:	018b8c23          	sb	s8,24(s7)
     5f0:	cc043c03          	ld	s8,-832(s0)
     5f4:	ffcc0c13          	addi	s8,s8,-4
     5f8:	018b8ba3          	sb	s8,23(s7)
     5fc:	cd043c03          	ld	s8,-816(s0)
     600:	ffcc0c13          	addi	s8,s8,-4
     604:	018b8b23          	sb	s8,22(s7)
     608:	ce043c03          	ld	s8,-800(s0)
     60c:	ffcc0c13          	addi	s8,s8,-4
     610:	018b8aa3          	sb	s8,21(s7)
     614:	ce843c03          	ld	s8,-792(s0)
     618:	ffcc0c13          	addi	s8,s8,-4
     61c:	018b8a23          	sb	s8,20(s7)
     620:	cf043c03          	ld	s8,-784(s0)
     624:	ffcc0c13          	addi	s8,s8,-4
     628:	018b89a3          	sb	s8,19(s7)
     62c:	cf843c03          	ld	s8,-776(s0)
     630:	ffcc0c13          	addi	s8,s8,-4
     634:	018b8923          	sb	s8,18(s7)
     638:	d0043c03          	ld	s8,-768(s0)
     63c:	ffcc0c13          	addi	s8,s8,-4
     640:	018b88a3          	sb	s8,17(s7)
     644:	d0843c03          	ld	s8,-760(s0)
     648:	ffcc0c13          	addi	s8,s8,-4
     64c:	018b8823          	sb	s8,16(s7)
     650:	d1043c03          	ld	s8,-752(s0)
     654:	ffcc0c13          	addi	s8,s8,-4
     658:	018b87a3          	sb	s8,15(s7)
     65c:	d1843c03          	ld	s8,-744(s0)
     660:	ffcc0c13          	addi	s8,s8,-4
     664:	018b8723          	sb	s8,14(s7)
     668:	d2043c03          	ld	s8,-736(s0)
     66c:	ffcc0c13          	addi	s8,s8,-4
     670:	018b86a3          	sb	s8,13(s7)
     674:	d2843c03          	ld	s8,-728(s0)
     678:	ffcc0c13          	addi	s8,s8,-4
     67c:	018b8623          	sb	s8,12(s7)
     680:	d3043c03          	ld	s8,-720(s0)
     684:	ffcc0c13          	addi	s8,s8,-4
     688:	018b85a3          	sb	s8,11(s7)
     68c:	d3843c03          	ld	s8,-712(s0)
     690:	ffcc0c13          	addi	s8,s8,-4
     694:	018b8523          	sb	s8,10(s7)
     698:	d4843c03          	ld	s8,-696(s0)
     69c:	ffcc0c13          	addi	s8,s8,-4
     6a0:	018b84a3          	sb	s8,9(s7)
     6a4:	d5843c03          	ld	s8,-680(s0)
     6a8:	ffcc0c13          	addi	s8,s8,-4
     6ac:	018b8423          	sb	s8,8(s7)
     6b0:	d6843c03          	ld	s8,-664(s0)
     6b4:	ffcc0c13          	addi	s8,s8,-4
     6b8:	018b83a3          	sb	s8,7(s7)
     6bc:	d7843c03          	ld	s8,-648(s0)
     6c0:	ffcc0c13          	addi	s8,s8,-4
     6c4:	018b8323          	sb	s8,6(s7)
     6c8:	d8843c03          	ld	s8,-632(s0)
     6cc:	ffcc0c13          	addi	s8,s8,-4
     6d0:	018b82a3          	sb	s8,5(s7)
     6d4:	d9843c03          	ld	s8,-616(s0)
     6d8:	ffcc0c13          	addi	s8,s8,-4
     6dc:	018b8223          	sb	s8,4(s7)
     6e0:	da843c03          	ld	s8,-600(s0)
     6e4:	ffcc0c13          	addi	s8,s8,-4
     6e8:	018b81a3          	sb	s8,3(s7)
     6ec:	db843c03          	ld	s8,-584(s0)
     6f0:	ffcc0c13          	addi	s8,s8,-4
     6f4:	018b8123          	sb	s8,2(s7)
     6f8:	dc843c03          	ld	s8,-568(s0)
     6fc:	ffcc0c13          	addi	s8,s8,-4
     700:	018b80a3          	sb	s8,1(s7)
     704:	dd843c03          	ld	s8,-552(s0)
     708:	ffcc0c13          	addi	s8,s8,-4
     70c:	018b8023          	sb	s8,0(s7)
     710:	b4043c03          	ld	s8,-1216(s0)
     714:	ffcc0c13          	addi	s8,s8,-4
     718:	000012b7          	lui	t0,0x1
     71c:	405402b3          	sub	t0,s0,t0
     720:	0182bb83          	ld	s7,24(t0) # 1018 <.LBB63_4+0x178>
     724:	017d8bb3          	add	s7,s11,s7
     728:	018b8fa3          	sb	s8,31(s7)
     72c:	b5043c03          	ld	s8,-1200(s0)
     730:	ffcc0c13          	addi	s8,s8,-4
     734:	018b8f23          	sb	s8,30(s7)
     738:	b6043c03          	ld	s8,-1184(s0)
     73c:	ffcc0c13          	addi	s8,s8,-4
     740:	018b8ea3          	sb	s8,29(s7)
     744:	b7043c03          	ld	s8,-1168(s0)
     748:	ffcc0c13          	addi	s8,s8,-4
     74c:	018b8e23          	sb	s8,28(s7)
     750:	b8043c03          	ld	s8,-1152(s0)
     754:	ffcc0c13          	addi	s8,s8,-4
     758:	018b8da3          	sb	s8,27(s7)
     75c:	b9043c03          	ld	s8,-1136(s0)
     760:	ffcc0c13          	addi	s8,s8,-4
     764:	018b8d23          	sb	s8,26(s7)
     768:	ba043c03          	ld	s8,-1120(s0)
     76c:	ffcc0c13          	addi	s8,s8,-4
     770:	018b8ca3          	sb	s8,25(s7)
     774:	bb043c03          	ld	s8,-1104(s0)
     778:	ffcc0c13          	addi	s8,s8,-4
     77c:	018b8c23          	sb	s8,24(s7)
     780:	bc043c03          	ld	s8,-1088(s0)
     784:	ffcc0c13          	addi	s8,s8,-4
     788:	018b8ba3          	sb	s8,23(s7)
     78c:	bd043c03          	ld	s8,-1072(s0)
     790:	ffcc0c13          	addi	s8,s8,-4
     794:	018b8b23          	sb	s8,22(s7)
     798:	be043c03          	ld	s8,-1056(s0)
     79c:	ffcc0c13          	addi	s8,s8,-4
     7a0:	018b8aa3          	sb	s8,21(s7)
     7a4:	be843c03          	ld	s8,-1048(s0)
     7a8:	ffcc0c13          	addi	s8,s8,-4
     7ac:	018b8a23          	sb	s8,20(s7)
     7b0:	bf043c03          	ld	s8,-1040(s0)
     7b4:	ffcc0c13          	addi	s8,s8,-4
     7b8:	018b89a3          	sb	s8,19(s7)
     7bc:	bf843c03          	ld	s8,-1032(s0)
     7c0:	ffcc0c13          	addi	s8,s8,-4
     7c4:	018b8923          	sb	s8,18(s7)
     7c8:	c0043c03          	ld	s8,-1024(s0)
     7cc:	ffcc0c13          	addi	s8,s8,-4
     7d0:	018b88a3          	sb	s8,17(s7)
     7d4:	c0843c03          	ld	s8,-1016(s0)
     7d8:	ffcc0c13          	addi	s8,s8,-4
     7dc:	018b8823          	sb	s8,16(s7)
     7e0:	c1043c03          	ld	s8,-1008(s0)
     7e4:	ffcc0c13          	addi	s8,s8,-4
     7e8:	018b87a3          	sb	s8,15(s7)
     7ec:	c1843c03          	ld	s8,-1000(s0)
     7f0:	ffcc0c13          	addi	s8,s8,-4
     7f4:	018b8723          	sb	s8,14(s7)
     7f8:	c2043c03          	ld	s8,-992(s0)
     7fc:	ffcc0c13          	addi	s8,s8,-4
     800:	018b86a3          	sb	s8,13(s7)
     804:	c2843c03          	ld	s8,-984(s0)
     808:	ffcc0c13          	addi	s8,s8,-4
     80c:	018b8623          	sb	s8,12(s7)
     810:	c3043c03          	ld	s8,-976(s0)
     814:	ffcc0c13          	addi	s8,s8,-4
     818:	018b85a3          	sb	s8,11(s7)
     81c:	c3843c03          	ld	s8,-968(s0)
     820:	ffcc0c13          	addi	s8,s8,-4
     824:	018b8523          	sb	s8,10(s7)
     828:	c4843c03          	ld	s8,-952(s0)
     82c:	ffcc0c13          	addi	s8,s8,-4
     830:	018b84a3          	sb	s8,9(s7)
     834:	c5843c03          	ld	s8,-936(s0)
     838:	ffcc0c13          	addi	s8,s8,-4
     83c:	018b8423          	sb	s8,8(s7)
     840:	c6843c03          	ld	s8,-920(s0)
     844:	ffcc0c13          	addi	s8,s8,-4
     848:	018b83a3          	sb	s8,7(s7)
     84c:	c7843c03          	ld	s8,-904(s0)
     850:	ffcc0c13          	addi	s8,s8,-4
     854:	018b8323          	sb	s8,6(s7)
     858:	c8843c03          	ld	s8,-888(s0)
     85c:	ffcc0c13          	addi	s8,s8,-4
     860:	018b82a3          	sb	s8,5(s7)
     864:	c9843c03          	ld	s8,-872(s0)
     868:	ffcc0c13          	addi	s8,s8,-4
     86c:	018b8223          	sb	s8,4(s7)
     870:	ca843c03          	ld	s8,-856(s0)
     874:	ffcc0c13          	addi	s8,s8,-4
     878:	018b81a3          	sb	s8,3(s7)
     87c:	cb843c03          	ld	s8,-840(s0)
     880:	ffcc0c13          	addi	s8,s8,-4
     884:	018b8123          	sb	s8,2(s7)
     888:	cc843c03          	ld	s8,-824(s0)
     88c:	ffcc0c13          	addi	s8,s8,-4
     890:	018b80a3          	sb	s8,1(s7)
     894:	cd843c03          	ld	s8,-808(s0)
     898:	ffcc0c13          	addi	s8,s8,-4
     89c:	018b8023          	sb	s8,0(s7)
     8a0:	a4043c03          	ld	s8,-1472(s0)
     8a4:	ffcc0c13          	addi	s8,s8,-4
     8a8:	000012b7          	lui	t0,0x1
     8ac:	405402b3          	sub	t0,s0,t0
     8b0:	0202bb83          	ld	s7,32(t0) # 1020 <.LBB63_4+0x180>
     8b4:	017d8bb3          	add	s7,s11,s7
     8b8:	018b8fa3          	sb	s8,31(s7)
     8bc:	a5043c03          	ld	s8,-1456(s0)
     8c0:	ffcc0c13          	addi	s8,s8,-4
     8c4:	018b8f23          	sb	s8,30(s7)
     8c8:	a6043c03          	ld	s8,-1440(s0)
     8cc:	ffcc0c13          	addi	s8,s8,-4
     8d0:	018b8ea3          	sb	s8,29(s7)
     8d4:	a7043c03          	ld	s8,-1424(s0)
     8d8:	ffcc0c13          	addi	s8,s8,-4
     8dc:	018b8e23          	sb	s8,28(s7)
     8e0:	a8043c03          	ld	s8,-1408(s0)
     8e4:	ffcc0c13          	addi	s8,s8,-4
     8e8:	018b8da3          	sb	s8,27(s7)
     8ec:	a9043c03          	ld	s8,-1392(s0)
     8f0:	ffcc0c13          	addi	s8,s8,-4
     8f4:	018b8d23          	sb	s8,26(s7)
     8f8:	aa043c03          	ld	s8,-1376(s0)
     8fc:	ffcc0c13          	addi	s8,s8,-4
     900:	018b8ca3          	sb	s8,25(s7)
     904:	ab043c03          	ld	s8,-1360(s0)
     908:	ffcc0c13          	addi	s8,s8,-4
     90c:	018b8c23          	sb	s8,24(s7)
     910:	ac043c03          	ld	s8,-1344(s0)
     914:	ffcc0c13          	addi	s8,s8,-4
     918:	018b8ba3          	sb	s8,23(s7)
     91c:	ad043c03          	ld	s8,-1328(s0)
     920:	ffcc0c13          	addi	s8,s8,-4
     924:	018b8b23          	sb	s8,22(s7)
     928:	ae043c03          	ld	s8,-1312(s0)
     92c:	ffcc0c13          	addi	s8,s8,-4
     930:	018b8aa3          	sb	s8,21(s7)
     934:	ae843c03          	ld	s8,-1304(s0)
     938:	ffcc0c13          	addi	s8,s8,-4
     93c:	018b8a23          	sb	s8,20(s7)
     940:	af043c03          	ld	s8,-1296(s0)
     944:	ffcc0c13          	addi	s8,s8,-4
     948:	018b89a3          	sb	s8,19(s7)
     94c:	af843c03          	ld	s8,-1288(s0)
     950:	ffcc0c13          	addi	s8,s8,-4
     954:	018b8923          	sb	s8,18(s7)
     958:	b0043c03          	ld	s8,-1280(s0)
     95c:	ffcc0c13          	addi	s8,s8,-4
     960:	018b88a3          	sb	s8,17(s7)
     964:	b0843c03          	ld	s8,-1272(s0)
     968:	ffcc0c13          	addi	s8,s8,-4
     96c:	018b8823          	sb	s8,16(s7)
     970:	b1043c03          	ld	s8,-1264(s0)
     974:	ffcc0c13          	addi	s8,s8,-4
     978:	018b87a3          	sb	s8,15(s7)
     97c:	b1843c03          	ld	s8,-1256(s0)
     980:	ffcc0c13          	addi	s8,s8,-4
     984:	018b8723          	sb	s8,14(s7)
     988:	b2043c03          	ld	s8,-1248(s0)
     98c:	ffcc0c13          	addi	s8,s8,-4
     990:	018b86a3          	sb	s8,13(s7)
     994:	b2843c03          	ld	s8,-1240(s0)
     998:	ffcc0c13          	addi	s8,s8,-4
     99c:	018b8623          	sb	s8,12(s7)
     9a0:	b3043c03          	ld	s8,-1232(s0)
     9a4:	ffcc0c13          	addi	s8,s8,-4
     9a8:	018b85a3          	sb	s8,11(s7)
     9ac:	b3843c03          	ld	s8,-1224(s0)
     9b0:	ffcc0c13          	addi	s8,s8,-4
     9b4:	018b8523          	sb	s8,10(s7)
     9b8:	b4843c03          	ld	s8,-1208(s0)
     9bc:	ffcc0c13          	addi	s8,s8,-4
     9c0:	018b84a3          	sb	s8,9(s7)
     9c4:	b5843c03          	ld	s8,-1192(s0)
     9c8:	ffcc0c13          	addi	s8,s8,-4
     9cc:	018b8423          	sb	s8,8(s7)
     9d0:	b6843c03          	ld	s8,-1176(s0)
     9d4:	ffcc0c13          	addi	s8,s8,-4
     9d8:	018b83a3          	sb	s8,7(s7)
     9dc:	b7843c03          	ld	s8,-1160(s0)
     9e0:	ffcc0c13          	addi	s8,s8,-4
     9e4:	018b8323          	sb	s8,6(s7)
     9e8:	b8843c03          	ld	s8,-1144(s0)
     9ec:	ffcc0c13          	addi	s8,s8,-4
     9f0:	018b82a3          	sb	s8,5(s7)
     9f4:	b9843c03          	ld	s8,-1128(s0)
     9f8:	ffcc0c13          	addi	s8,s8,-4
     9fc:	018b8223          	sb	s8,4(s7)
     a00:	ba843c03          	ld	s8,-1112(s0)
     a04:	ffcc0c13          	addi	s8,s8,-4
     a08:	018b81a3          	sb	s8,3(s7)
     a0c:	bb843c03          	ld	s8,-1096(s0)
     a10:	ffcc0c13          	addi	s8,s8,-4
     a14:	018b8123          	sb	s8,2(s7)
     a18:	bc843c03          	ld	s8,-1080(s0)
     a1c:	ffcc0c13          	addi	s8,s8,-4
     a20:	018b80a3          	sb	s8,1(s7)
     a24:	bd843c03          	ld	s8,-1064(s0)
     a28:	ffcc0c13          	addi	s8,s8,-4
     a2c:	018b8023          	sb	s8,0(s7)
     a30:	94043c03          	ld	s8,-1728(s0)
     a34:	ffcc0c13          	addi	s8,s8,-4
     a38:	000012b7          	lui	t0,0x1
     a3c:	405402b3          	sub	t0,s0,t0
     a40:	0282bb83          	ld	s7,40(t0) # 1028 <.LBB63_4+0x188>
     a44:	017d8bb3          	add	s7,s11,s7
     a48:	018b8fa3          	sb	s8,31(s7)
     a4c:	95043c03          	ld	s8,-1712(s0)
     a50:	ffcc0c13          	addi	s8,s8,-4
     a54:	018b8f23          	sb	s8,30(s7)
     a58:	96043c03          	ld	s8,-1696(s0)
     a5c:	ffcc0c13          	addi	s8,s8,-4
     a60:	018b8ea3          	sb	s8,29(s7)
     a64:	97043c03          	ld	s8,-1680(s0)
     a68:	ffcc0c13          	addi	s8,s8,-4
     a6c:	018b8e23          	sb	s8,28(s7)
     a70:	98043c03          	ld	s8,-1664(s0)
     a74:	ffcc0c13          	addi	s8,s8,-4
     a78:	018b8da3          	sb	s8,27(s7)
     a7c:	99043c03          	ld	s8,-1648(s0)
     a80:	ffcc0c13          	addi	s8,s8,-4
     a84:	018b8d23          	sb	s8,26(s7)
     a88:	9a043c03          	ld	s8,-1632(s0)
     a8c:	ffcc0c13          	addi	s8,s8,-4
     a90:	018b8ca3          	sb	s8,25(s7)
     a94:	9b043c03          	ld	s8,-1616(s0)
     a98:	ffcc0c13          	addi	s8,s8,-4
     a9c:	018b8c23          	sb	s8,24(s7)
     aa0:	9c043c03          	ld	s8,-1600(s0)
     aa4:	ffcc0c13          	addi	s8,s8,-4
     aa8:	018b8ba3          	sb	s8,23(s7)
     aac:	9d043c03          	ld	s8,-1584(s0)
     ab0:	ffcc0c13          	addi	s8,s8,-4
     ab4:	018b8b23          	sb	s8,22(s7)
     ab8:	9e043c03          	ld	s8,-1568(s0)
     abc:	ffcc0c13          	addi	s8,s8,-4
     ac0:	018b8aa3          	sb	s8,21(s7)
     ac4:	9e843c03          	ld	s8,-1560(s0)
     ac8:	ffcc0c13          	addi	s8,s8,-4
     acc:	018b8a23          	sb	s8,20(s7)
     ad0:	9f043c03          	ld	s8,-1552(s0)
     ad4:	ffcc0c13          	addi	s8,s8,-4
     ad8:	018b89a3          	sb	s8,19(s7)
     adc:	9f843c03          	ld	s8,-1544(s0)
     ae0:	ffcc0c13          	addi	s8,s8,-4
     ae4:	018b8923          	sb	s8,18(s7)
     ae8:	a0043c03          	ld	s8,-1536(s0)
     aec:	ffcc0c13          	addi	s8,s8,-4
     af0:	018b88a3          	sb	s8,17(s7)
     af4:	a0843c03          	ld	s8,-1528(s0)
     af8:	ffcc0c13          	addi	s8,s8,-4
     afc:	018b8823          	sb	s8,16(s7)
     b00:	a1043c03          	ld	s8,-1520(s0)
     b04:	ffcc0c13          	addi	s8,s8,-4
     b08:	018b87a3          	sb	s8,15(s7)
     b0c:	a1843c03          	ld	s8,-1512(s0)
     b10:	ffcc0c13          	addi	s8,s8,-4
     b14:	018b8723          	sb	s8,14(s7)
     b18:	a2043c03          	ld	s8,-1504(s0)
     b1c:	ffcc0c13          	addi	s8,s8,-4
     b20:	018b86a3          	sb	s8,13(s7)
     b24:	a2843c03          	ld	s8,-1496(s0)
     b28:	ffcc0c13          	addi	s8,s8,-4
     b2c:	018b8623          	sb	s8,12(s7)
     b30:	a3043c03          	ld	s8,-1488(s0)
     b34:	ffcc0c13          	addi	s8,s8,-4
     b38:	018b85a3          	sb	s8,11(s7)
     b3c:	a3843c03          	ld	s8,-1480(s0)
     b40:	ffcc0c13          	addi	s8,s8,-4
     b44:	018b8523          	sb	s8,10(s7)
     b48:	a4843c03          	ld	s8,-1464(s0)
     b4c:	ffcc0c13          	addi	s8,s8,-4
     b50:	018b84a3          	sb	s8,9(s7)
     b54:	a5843c03          	ld	s8,-1448(s0)
     b58:	ffcc0c13          	addi	s8,s8,-4
     b5c:	018b8423          	sb	s8,8(s7)
     b60:	a6843c03          	ld	s8,-1432(s0)
     b64:	ffcc0c13          	addi	s8,s8,-4
     b68:	018b83a3          	sb	s8,7(s7)
     b6c:	a7843c03          	ld	s8,-1416(s0)
     b70:	ffcc0c13          	addi	s8,s8,-4
     b74:	018b8323          	sb	s8,6(s7)
     b78:	a8843c03          	ld	s8,-1400(s0)
     b7c:	ffcc0c13          	addi	s8,s8,-4
     b80:	018b82a3          	sb	s8,5(s7)
     b84:	a9843c03          	ld	s8,-1384(s0)
     b88:	ffcc0c13          	addi	s8,s8,-4
     b8c:	018b8223          	sb	s8,4(s7)
     b90:	aa843c03          	ld	s8,-1368(s0)
     b94:	ffcc0c13          	addi	s8,s8,-4
     b98:	018b81a3          	sb	s8,3(s7)
     b9c:	ab843c03          	ld	s8,-1352(s0)
     ba0:	ffcc0c13          	addi	s8,s8,-4
     ba4:	018b8123          	sb	s8,2(s7)
     ba8:	ac843c03          	ld	s8,-1336(s0)
     bac:	ffcc0c13          	addi	s8,s8,-4
     bb0:	018b80a3          	sb	s8,1(s7)
     bb4:	ad843c03          	ld	s8,-1320(s0)
     bb8:	ffcc0c13          	addi	s8,s8,-4
     bbc:	018b8023          	sb	s8,0(s7)
     bc0:	ffc50b93          	addi	s7,a0,-4
     bc4:	00001537          	lui	a0,0x1
     bc8:	40a40533          	sub	a0,s0,a0
     bcc:	03053503          	ld	a0,48(a0) # 1030 <.LBB63_4+0x190>
     bd0:	00ad8533          	add	a0,s11,a0
     bd4:	01750fa3          	sb	s7,31(a0)
     bd8:	85843b83          	ld	s7,-1960(s0)
     bdc:	ffcb8b93          	addi	s7,s7,-4
     be0:	01750f23          	sb	s7,30(a0)
     be4:	86843b83          	ld	s7,-1944(s0)
     be8:	ffcb8b93          	addi	s7,s7,-4
     bec:	01750ea3          	sb	s7,29(a0)
     bf0:	87843b83          	ld	s7,-1928(s0)
     bf4:	ffcb8b93          	addi	s7,s7,-4
     bf8:	01750e23          	sb	s7,28(a0)
     bfc:	88843b83          	ld	s7,-1912(s0)
     c00:	ffcb8b93          	addi	s7,s7,-4
     c04:	01750da3          	sb	s7,27(a0)
     c08:	89843b83          	ld	s7,-1896(s0)
     c0c:	ffcb8b93          	addi	s7,s7,-4
     c10:	01750d23          	sb	s7,26(a0)
     c14:	8a843b83          	ld	s7,-1880(s0)
     c18:	ffcb8b93          	addi	s7,s7,-4
     c1c:	01750ca3          	sb	s7,25(a0)
     c20:	8b843b83          	ld	s7,-1864(s0)
     c24:	ffcb8b93          	addi	s7,s7,-4
     c28:	01750c23          	sb	s7,24(a0)
     c2c:	ffc58b93          	addi	s7,a1,-4
     c30:	01750ba3          	sb	s7,23(a0)
     c34:	8d043b83          	ld	s7,-1840(s0)
     c38:	ffcb8b93          	addi	s7,s7,-4
     c3c:	01750b23          	sb	s7,22(a0)
     c40:	8e043b83          	ld	s7,-1824(s0)
     c44:	ffcb8b93          	addi	s7,s7,-4
     c48:	01750aa3          	sb	s7,21(a0)
     c4c:	8e843b83          	ld	s7,-1816(s0)
     c50:	ffcb8b93          	addi	s7,s7,-4
     c54:	01750a23          	sb	s7,20(a0)
     c58:	8f043b83          	ld	s7,-1808(s0)
     c5c:	ffcb8b93          	addi	s7,s7,-4
     c60:	017509a3          	sb	s7,19(a0)
     c64:	8f843b83          	ld	s7,-1800(s0)
     c68:	ffcb8b93          	addi	s7,s7,-4
     c6c:	01750923          	sb	s7,18(a0)
     c70:	90043b83          	ld	s7,-1792(s0)
     c74:	ffcb8b93          	addi	s7,s7,-4
     c78:	017508a3          	sb	s7,17(a0)
     c7c:	90843b83          	ld	s7,-1784(s0)
     c80:	ffcb8b93          	addi	s7,s7,-4
     c84:	01750823          	sb	s7,16(a0)
     c88:	91043b83          	ld	s7,-1776(s0)
     c8c:	ffcb8b93          	addi	s7,s7,-4
     c90:	017507a3          	sb	s7,15(a0)
     c94:	91843b83          	ld	s7,-1768(s0)
     c98:	ffcb8b93          	addi	s7,s7,-4
     c9c:	01750723          	sb	s7,14(a0)
     ca0:	92043b83          	ld	s7,-1760(s0)
     ca4:	ffcb8b93          	addi	s7,s7,-4
     ca8:	017506a3          	sb	s7,13(a0)
     cac:	92843b83          	ld	s7,-1752(s0)
     cb0:	ffcb8b93          	addi	s7,s7,-4
     cb4:	01750623          	sb	s7,12(a0)
     cb8:	93043b83          	ld	s7,-1744(s0)
     cbc:	ffcb8b93          	addi	s7,s7,-4
     cc0:	017505a3          	sb	s7,11(a0)
     cc4:	93843b83          	ld	s7,-1736(s0)
     cc8:	ffcb8b93          	addi	s7,s7,-4
     ccc:	01750523          	sb	s7,10(a0)
     cd0:	94843b83          	ld	s7,-1720(s0)
     cd4:	ffcb8b93          	addi	s7,s7,-4
     cd8:	017504a3          	sb	s7,9(a0)
     cdc:	95843b83          	ld	s7,-1704(s0)
     ce0:	ffcb8b93          	addi	s7,s7,-4
     ce4:	01750423          	sb	s7,8(a0)
     ce8:	96843b83          	ld	s7,-1688(s0)
     cec:	ffcb8b93          	addi	s7,s7,-4
     cf0:	017503a3          	sb	s7,7(a0)
     cf4:	97843b83          	ld	s7,-1672(s0)
     cf8:	ffcb8b93          	addi	s7,s7,-4
     cfc:	01750323          	sb	s7,6(a0)
     d00:	98843b83          	ld	s7,-1656(s0)
     d04:	ffcb8b93          	addi	s7,s7,-4
     d08:	017502a3          	sb	s7,5(a0)
     d0c:	99843b83          	ld	s7,-1640(s0)
     d10:	ffcb8b93          	addi	s7,s7,-4
     d14:	01750223          	sb	s7,4(a0)
     d18:	9a843b83          	ld	s7,-1624(s0)
     d1c:	ffcb8b93          	addi	s7,s7,-4
     d20:	017501a3          	sb	s7,3(a0)
     d24:	9b843b83          	ld	s7,-1608(s0)
     d28:	ffcb8b93          	addi	s7,s7,-4
     d2c:	01750123          	sb	s7,2(a0)
     d30:	9c843b83          	ld	s7,-1592(s0)
     d34:	ffcb8b93          	addi	s7,s7,-4
     d38:	017500a3          	sb	s7,1(a0)
     d3c:	9d843b83          	ld	s7,-1576(s0)
     d40:	ffcb8b93          	addi	s7,s7,-4
     d44:	01750023          	sb	s7,0(a0)
     d48:	ffcb0b13          	addi	s6,s6,-4
     d4c:	00001537          	lui	a0,0x1
     d50:	40a40533          	sub	a0,s0,a0
     d54:	03853503          	ld	a0,56(a0) # 1038 <.LBB63_4+0x198>
     d58:	00ad8533          	add	a0,s11,a0
     d5c:	01650fa3          	sb	s6,31(a0)
     d60:	ffc08093          	addi	ra,ra,-4
     d64:	00150f23          	sb	ra,30(a0)
     d68:	ffcd0d13          	addi	s10,s10,-4
     d6c:	01a50ea3          	sb	s10,29(a0)
     d70:	ffcc8c93          	addi	s9,s9,-4
     d74:	01950e23          	sb	s9,28(a0)
     d78:	ffca8a93          	addi	s5,s5,-4
     d7c:	01550da3          	sb	s5,27(a0)
     d80:	ffca0a13          	addi	s4,s4,-4
     d84:	01450d23          	sb	s4,26(a0)
     d88:	ffc98993          	addi	s3,s3,-4
     d8c:	01350ca3          	sb	s3,25(a0)
     d90:	ffce8e93          	addi	t4,t4,-4
     d94:	01d50c23          	sb	t4,24(a0)
     d98:	ffc90913          	addi	s2,s2,-4
     d9c:	01250ba3          	sb	s2,23(a0)
     da0:	ffc38393          	addi	t2,t2,-4
     da4:	00750b23          	sb	t2,22(a0)
     da8:	ffce0e13          	addi	t3,t3,-4
     dac:	01c50aa3          	sb	t3,21(a0)
     db0:	ffc80813          	addi	a6,a6,-4
     db4:	01050a23          	sb	a6,20(a0)
     db8:	ffc30313          	addi	t1,t1,-4
     dbc:	006509a3          	sb	t1,19(a0)
     dc0:	ffcf8f93          	addi	t6,t6,-4
     dc4:	01f50923          	sb	t6,18(a0)
     dc8:	ffc48493          	addi	s1,s1,-4
     dcc:	009508a3          	sb	s1,17(a0)
     dd0:	ffc78793          	addi	a5,a5,-4
     dd4:	00f50823          	sb	a5,16(a0)
     dd8:	ffcf0f13          	addi	t5,t5,-4
     ddc:	01e507a3          	sb	t5,15(a0)
     de0:	ffc70713          	addi	a4,a4,-4
     de4:	00e50723          	sb	a4,14(a0)
     de8:	ffc88893          	addi	a7,a7,-4
     dec:	011506a3          	sb	a7,13(a0)
     df0:	ffc68693          	addi	a3,a3,-4
     df4:	00d50623          	sb	a3,12(a0)
     df8:	ffc60613          	addi	a2,a2,-4
     dfc:	00c505a3          	sb	a2,11(a0)
     e00:	84843583          	ld	a1,-1976(s0)
     e04:	ffc58593          	addi	a1,a1,-4
     e08:	00b50523          	sb	a1,10(a0)
     e0c:	85043283          	ld	t0,-1968(s0)
     e10:	ffc28293          	addi	t0,t0,-4
     e14:	005504a3          	sb	t0,9(a0)
     e18:	86043583          	ld	a1,-1952(s0)
     e1c:	ffc58593          	addi	a1,a1,-4
     e20:	00b50423          	sb	a1,8(a0)
     e24:	87043583          	ld	a1,-1936(s0)
     e28:	ffc58593          	addi	a1,a1,-4
     e2c:	00b503a3          	sb	a1,7(a0)
     e30:	88043583          	ld	a1,-1920(s0)
     e34:	ffc58593          	addi	a1,a1,-4
     e38:	00b50323          	sb	a1,6(a0)
     e3c:	89043583          	ld	a1,-1904(s0)
     e40:	ffc58593          	addi	a1,a1,-4
     e44:	00b502a3          	sb	a1,5(a0)
     e48:	8a043583          	ld	a1,-1888(s0)
     e4c:	ffc58593          	addi	a1,a1,-4
     e50:	00b50223          	sb	a1,4(a0)
     e54:	8b043583          	ld	a1,-1872(s0)
     e58:	ffc58593          	addi	a1,a1,-4
     e5c:	00b501a3          	sb	a1,3(a0)
     e60:	8c043583          	ld	a1,-1856(s0)
     e64:	ffc58593          	addi	a1,a1,-4
     e68:	00b50123          	sb	a1,2(a0)
     e6c:	8c843583          	ld	a1,-1848(s0)
     e70:	ffc58593          	addi	a1,a1,-4
     e74:	00b500a3          	sb	a1,1(a0)
     e78:	8d843583          	ld	a1,-1832(s0)
     e7c:	ffc58593          	addi	a1,a1,-4
     e80:	00b50023          	sb	a1,0(a0)
     e84:	00001537          	lui	a0,0x1
     e88:	40a40533          	sub	a0,s0,a0
     e8c:	04053503          	ld	a0,64(a0) # 1040 <.LBB63_4+0x1a0>
     e90:	00157513          	andi	a0,a0,1
     e94:	02000693          	li	a3,32
     e98:	00000593          	li	a1,0
     e9c:	ac050063          	beqz	a0,15c <.LBB63_1>

0000000000000ea0 <.LBB63_4>:
     ea0:	00001537          	lui	a0,0x1
     ea4:	40a40533          	sub	a0,s0,a0
     ea8:	04b53023          	sd	a1,64(a0) # 1040 <.LBB63_4+0x1a0>
     eac:	00002537          	lui	a0,0x2
     eb0:	40a40533          	sub	a0,s0,a0
     eb4:	06053503          	ld	a0,96(a0) # 2060 <.LBB63_5+0xc38>
     eb8:	000015b7          	lui	a1,0x1
     ebc:	40b405b3          	sub	a1,s0,a1
     ec0:	5ed5b023          	sd	a3,1504(a1) # 15e0 <.LBB63_5+0x1b8>
     ec4:	00d509b3          	add	s3,a0,a3
     ec8:	00006a37          	lui	s4,0x6
     ecc:	00002537          	lui	a0,0x2
     ed0:	40a40533          	sub	a0,s0,a0
     ed4:	06853b03          	ld	s6,104(a0) # 2068 <.LBB63_5+0xc40>
     ed8:	00001537          	lui	a0,0x1
     edc:	40a40533          	sub	a0,s0,a0
     ee0:	78053823          	sd	zero,1936(a0) # 1790 <.LBB63_5+0x368>
     ee4:	00001537          	lui	a0,0x1
     ee8:	40a40533          	sub	a0,s0,a0
     eec:	78053c23          	sd	zero,1944(a0) # 1798 <.LBB63_5+0x370>
     ef0:	00001537          	lui	a0,0x1
     ef4:	40a40533          	sub	a0,s0,a0
     ef8:	7a053423          	sd	zero,1960(a0) # 17a8 <.LBB63_5+0x380>
     efc:	00000b93          	li	s7,0
     f00:	00001537          	lui	a0,0x1
     f04:	40a40533          	sub	a0,s0,a0
     f08:	78053423          	sd	zero,1928(a0) # 1788 <.LBB63_5+0x360>
     f0c:	00001537          	lui	a0,0x1
     f10:	40a40533          	sub	a0,s0,a0
     f14:	78053023          	sd	zero,1920(a0) # 1780 <.LBB63_5+0x358>
     f18:	00001537          	lui	a0,0x1
     f1c:	40a40533          	sub	a0,s0,a0
     f20:	76053c23          	sd	zero,1912(a0) # 1778 <.LBB63_5+0x350>
     f24:	00001537          	lui	a0,0x1
     f28:	40a40533          	sub	a0,s0,a0
     f2c:	76053823          	sd	zero,1904(a0) # 1770 <.LBB63_5+0x348>
     f30:	00001537          	lui	a0,0x1
     f34:	40a40533          	sub	a0,s0,a0
     f38:	76053423          	sd	zero,1896(a0) # 1768 <.LBB63_5+0x340>
     f3c:	00001537          	lui	a0,0x1
     f40:	40a40533          	sub	a0,s0,a0
     f44:	76053023          	sd	zero,1888(a0) # 1760 <.LBB63_5+0x338>
     f48:	00001537          	lui	a0,0x1
     f4c:	40a40533          	sub	a0,s0,a0
     f50:	74053c23          	sd	zero,1880(a0) # 1758 <.LBB63_5+0x330>
     f54:	00001537          	lui	a0,0x1
     f58:	40a40533          	sub	a0,s0,a0
     f5c:	74053823          	sd	zero,1872(a0) # 1750 <.LBB63_5+0x328>
     f60:	00001537          	lui	a0,0x1
     f64:	40a40533          	sub	a0,s0,a0
     f68:	74053423          	sd	zero,1864(a0) # 1748 <.LBB63_5+0x320>
     f6c:	00001537          	lui	a0,0x1
     f70:	40a40533          	sub	a0,s0,a0
     f74:	74053023          	sd	zero,1856(a0) # 1740 <.LBB63_5+0x318>
     f78:	00001537          	lui	a0,0x1
     f7c:	40a40533          	sub	a0,s0,a0
     f80:	72053c23          	sd	zero,1848(a0) # 1738 <.LBB63_5+0x310>
     f84:	00001537          	lui	a0,0x1
     f88:	40a40533          	sub	a0,s0,a0
     f8c:	72053823          	sd	zero,1840(a0) # 1730 <.LBB63_5+0x308>
     f90:	00001537          	lui	a0,0x1
     f94:	40a40533          	sub	a0,s0,a0
     f98:	72053423          	sd	zero,1832(a0) # 1728 <.LBB63_5+0x300>
     f9c:	00001537          	lui	a0,0x1
     fa0:	40a40533          	sub	a0,s0,a0
     fa4:	72053023          	sd	zero,1824(a0) # 1720 <.LBB63_5+0x2f8>
     fa8:	00001537          	lui	a0,0x1
     fac:	40a40533          	sub	a0,s0,a0
     fb0:	70053c23          	sd	zero,1816(a0) # 1718 <.LBB63_5+0x2f0>
     fb4:	00001537          	lui	a0,0x1
     fb8:	40a40533          	sub	a0,s0,a0
     fbc:	70053823          	sd	zero,1808(a0) # 1710 <.LBB63_5+0x2e8>
     fc0:	00001537          	lui	a0,0x1
     fc4:	40a40533          	sub	a0,s0,a0
     fc8:	70053423          	sd	zero,1800(a0) # 1708 <.LBB63_5+0x2e0>
     fcc:	00001537          	lui	a0,0x1
     fd0:	40a40533          	sub	a0,s0,a0
     fd4:	70053023          	sd	zero,1792(a0) # 1700 <.LBB63_5+0x2d8>
     fd8:	00001537          	lui	a0,0x1
     fdc:	40a40533          	sub	a0,s0,a0
     fe0:	6e053823          	sd	zero,1776(a0) # 16f0 <.LBB63_5+0x2c8>
     fe4:	00001537          	lui	a0,0x1
     fe8:	40a40533          	sub	a0,s0,a0
     fec:	6e053c23          	sd	zero,1784(a0) # 16f8 <.LBB63_5+0x2d0>
     ff0:	00001537          	lui	a0,0x1
     ff4:	40a40533          	sub	a0,s0,a0
     ff8:	6e053423          	sd	zero,1768(a0) # 16e8 <.LBB63_5+0x2c0>
     ffc:	00001537          	lui	a0,0x1
    1000:	40a40533          	sub	a0,s0,a0
    1004:	6e053023          	sd	zero,1760(a0) # 16e0 <.LBB63_5+0x2b8>
    1008:	00001537          	lui	a0,0x1
    100c:	40a40533          	sub	a0,s0,a0
    1010:	6c053c23          	sd	zero,1752(a0) # 16d8 <.LBB63_5+0x2b0>
    1014:	00001537          	lui	a0,0x1
    1018:	40a40533          	sub	a0,s0,a0
    101c:	6c053823          	sd	zero,1744(a0) # 16d0 <.LBB63_5+0x2a8>
    1020:	00001537          	lui	a0,0x1
    1024:	40a40533          	sub	a0,s0,a0
    1028:	6c053423          	sd	zero,1736(a0) # 16c8 <.LBB63_5+0x2a0>
    102c:	00001537          	lui	a0,0x1
    1030:	40a40533          	sub	a0,s0,a0
    1034:	6a053c23          	sd	zero,1720(a0) # 16b8 <.LBB63_5+0x290>
    1038:	00001537          	lui	a0,0x1
    103c:	40a40533          	sub	a0,s0,a0
    1040:	6a053823          	sd	zero,1712(a0) # 16b0 <.LBB63_5+0x288>
    1044:	00001537          	lui	a0,0x1
    1048:	40a40533          	sub	a0,s0,a0
    104c:	6c053023          	sd	zero,1728(a0) # 16c0 <.LBB63_5+0x298>
    1050:	00001537          	lui	a0,0x1
    1054:	40a40533          	sub	a0,s0,a0
    1058:	7a053023          	sd	zero,1952(a0) # 17a0 <.LBB63_5+0x378>
    105c:	00001537          	lui	a0,0x1
    1060:	40a40533          	sub	a0,s0,a0
    1064:	7a053823          	sd	zero,1968(a0) # 17b0 <.LBB63_5+0x388>
    1068:	00001537          	lui	a0,0x1
    106c:	40a40533          	sub	a0,s0,a0
    1070:	7a053c23          	sd	zero,1976(a0) # 17b8 <.LBB63_5+0x390>
    1074:	00001537          	lui	a0,0x1
    1078:	40a40533          	sub	a0,s0,a0
    107c:	7c053023          	sd	zero,1984(a0) # 17c0 <.LBB63_5+0x398>
    1080:	00001537          	lui	a0,0x1
    1084:	40a40533          	sub	a0,s0,a0
    1088:	7c053423          	sd	zero,1992(a0) # 17c8 <.LBB63_5+0x3a0>
    108c:	00001537          	lui	a0,0x1
    1090:	40a40533          	sub	a0,s0,a0
    1094:	7c053823          	sd	zero,2000(a0) # 17d0 <.LBB63_5+0x3a8>
    1098:	00001537          	lui	a0,0x1
    109c:	40a40533          	sub	a0,s0,a0
    10a0:	7c053c23          	sd	zero,2008(a0) # 17d8 <.LBB63_5+0x3b0>
    10a4:	00001537          	lui	a0,0x1
    10a8:	40a40533          	sub	a0,s0,a0
    10ac:	7e053023          	sd	zero,2016(a0) # 17e0 <.LBB63_5+0x3b8>
    10b0:	00001537          	lui	a0,0x1
    10b4:	40a40533          	sub	a0,s0,a0
    10b8:	7e053423          	sd	zero,2024(a0) # 17e8 <.LBB63_5+0x3c0>
    10bc:	00001537          	lui	a0,0x1
    10c0:	40a40533          	sub	a0,s0,a0
    10c4:	7e053823          	sd	zero,2032(a0) # 17f0 <.LBB63_5+0x3c8>
    10c8:	00001537          	lui	a0,0x1
    10cc:	40a40533          	sub	a0,s0,a0
    10d0:	7e053c23          	sd	zero,2040(a0) # 17f8 <.LBB63_5+0x3d0>
    10d4:	80043023          	sd	zero,-2048(s0)
    10d8:	80043423          	sd	zero,-2040(s0)
    10dc:	80043823          	sd	zero,-2032(s0)
    10e0:	80043c23          	sd	zero,-2024(s0)
    10e4:	82043023          	sd	zero,-2016(s0)
    10e8:	82043423          	sd	zero,-2008(s0)
    10ec:	82043823          	sd	zero,-2000(s0)
    10f0:	82043c23          	sd	zero,-1992(s0)
    10f4:	84043023          	sd	zero,-1984(s0)
    10f8:	84043423          	sd	zero,-1976(s0)
    10fc:	84043823          	sd	zero,-1968(s0)
    1100:	84043c23          	sd	zero,-1960(s0)
    1104:	86043023          	sd	zero,-1952(s0)
    1108:	86043423          	sd	zero,-1944(s0)
    110c:	86043823          	sd	zero,-1936(s0)
    1110:	86043c23          	sd	zero,-1928(s0)
    1114:	88043023          	sd	zero,-1920(s0)
    1118:	88043423          	sd	zero,-1912(s0)
    111c:	88043823          	sd	zero,-1904(s0)
    1120:	88043c23          	sd	zero,-1896(s0)
    1124:	8a043023          	sd	zero,-1888(s0)
    1128:	8a043423          	sd	zero,-1880(s0)
    112c:	8a043823          	sd	zero,-1872(s0)
    1130:	8a043c23          	sd	zero,-1864(s0)
    1134:	8c043023          	sd	zero,-1856(s0)
    1138:	8c043423          	sd	zero,-1848(s0)
    113c:	8c043823          	sd	zero,-1840(s0)
    1140:	8c043c23          	sd	zero,-1832(s0)
    1144:	8e043023          	sd	zero,-1824(s0)
    1148:	8e043423          	sd	zero,-1816(s0)
    114c:	8e043823          	sd	zero,-1808(s0)
    1150:	8e043c23          	sd	zero,-1800(s0)
    1154:	90043023          	sd	zero,-1792(s0)
    1158:	90043423          	sd	zero,-1784(s0)
    115c:	90043823          	sd	zero,-1776(s0)
    1160:	90043c23          	sd	zero,-1768(s0)
    1164:	92043023          	sd	zero,-1760(s0)
    1168:	92043423          	sd	zero,-1752(s0)
    116c:	92043823          	sd	zero,-1744(s0)
    1170:	92043c23          	sd	zero,-1736(s0)
    1174:	94043023          	sd	zero,-1728(s0)
    1178:	94043423          	sd	zero,-1720(s0)
    117c:	94043823          	sd	zero,-1712(s0)
    1180:	94043c23          	sd	zero,-1704(s0)
    1184:	96043023          	sd	zero,-1696(s0)
    1188:	96043423          	sd	zero,-1688(s0)
    118c:	96043823          	sd	zero,-1680(s0)
    1190:	96043c23          	sd	zero,-1672(s0)
    1194:	98043023          	sd	zero,-1664(s0)
    1198:	98043423          	sd	zero,-1656(s0)
    119c:	98043823          	sd	zero,-1648(s0)
    11a0:	98043c23          	sd	zero,-1640(s0)
    11a4:	9a043023          	sd	zero,-1632(s0)
    11a8:	9a043423          	sd	zero,-1624(s0)
    11ac:	9a043823          	sd	zero,-1616(s0)
    11b0:	9a043c23          	sd	zero,-1608(s0)
    11b4:	9c043023          	sd	zero,-1600(s0)
    11b8:	9c043423          	sd	zero,-1592(s0)
    11bc:	9c043823          	sd	zero,-1584(s0)
    11c0:	9c043c23          	sd	zero,-1576(s0)
    11c4:	9e043023          	sd	zero,-1568(s0)
    11c8:	9e043423          	sd	zero,-1560(s0)
    11cc:	9e043823          	sd	zero,-1552(s0)
    11d0:	9e043c23          	sd	zero,-1544(s0)
    11d4:	a0043023          	sd	zero,-1536(s0)
    11d8:	a0043423          	sd	zero,-1528(s0)
    11dc:	a0043823          	sd	zero,-1520(s0)
    11e0:	a0043c23          	sd	zero,-1512(s0)
    11e4:	a2043023          	sd	zero,-1504(s0)
    11e8:	a2043423          	sd	zero,-1496(s0)
    11ec:	a2043823          	sd	zero,-1488(s0)
    11f0:	a2043c23          	sd	zero,-1480(s0)
    11f4:	a4043023          	sd	zero,-1472(s0)
    11f8:	a4043423          	sd	zero,-1464(s0)
    11fc:	a4043823          	sd	zero,-1456(s0)
    1200:	a4043c23          	sd	zero,-1448(s0)
    1204:	a6043023          	sd	zero,-1440(s0)
    1208:	a6043423          	sd	zero,-1432(s0)
    120c:	a6043823          	sd	zero,-1424(s0)
    1210:	a6043c23          	sd	zero,-1416(s0)
    1214:	a8043023          	sd	zero,-1408(s0)
    1218:	a8043423          	sd	zero,-1400(s0)
    121c:	a8043823          	sd	zero,-1392(s0)
    1220:	a8043c23          	sd	zero,-1384(s0)
    1224:	aa043023          	sd	zero,-1376(s0)
    1228:	aa043423          	sd	zero,-1368(s0)
    122c:	aa043823          	sd	zero,-1360(s0)
    1230:	aa043c23          	sd	zero,-1352(s0)
    1234:	ac043023          	sd	zero,-1344(s0)
    1238:	ac043423          	sd	zero,-1336(s0)
    123c:	ac043823          	sd	zero,-1328(s0)
    1240:	ac043c23          	sd	zero,-1320(s0)
    1244:	ae043023          	sd	zero,-1312(s0)
    1248:	ae043423          	sd	zero,-1304(s0)
    124c:	ae043823          	sd	zero,-1296(s0)
    1250:	ae043c23          	sd	zero,-1288(s0)
    1254:	b0043023          	sd	zero,-1280(s0)
    1258:	b0043423          	sd	zero,-1272(s0)
    125c:	b0043823          	sd	zero,-1264(s0)
    1260:	b0043c23          	sd	zero,-1256(s0)
    1264:	b2043023          	sd	zero,-1248(s0)
    1268:	b2043423          	sd	zero,-1240(s0)
    126c:	b2043823          	sd	zero,-1232(s0)
    1270:	b2043c23          	sd	zero,-1224(s0)
    1274:	b4043023          	sd	zero,-1216(s0)
    1278:	b4043423          	sd	zero,-1208(s0)
    127c:	b4043823          	sd	zero,-1200(s0)
    1280:	b4043c23          	sd	zero,-1192(s0)
    1284:	b6043023          	sd	zero,-1184(s0)
    1288:	b6043423          	sd	zero,-1176(s0)
    128c:	b6043823          	sd	zero,-1168(s0)
    1290:	b6043c23          	sd	zero,-1160(s0)
    1294:	b8043023          	sd	zero,-1152(s0)
    1298:	b8043423          	sd	zero,-1144(s0)
    129c:	b8043823          	sd	zero,-1136(s0)
    12a0:	b8043c23          	sd	zero,-1128(s0)
    12a4:	ba043023          	sd	zero,-1120(s0)
    12a8:	ba043423          	sd	zero,-1112(s0)
    12ac:	ba043823          	sd	zero,-1104(s0)
    12b0:	ba043c23          	sd	zero,-1096(s0)
    12b4:	bc043023          	sd	zero,-1088(s0)
    12b8:	bc043423          	sd	zero,-1080(s0)
    12bc:	bc043823          	sd	zero,-1072(s0)
    12c0:	bc043c23          	sd	zero,-1064(s0)
    12c4:	be043023          	sd	zero,-1056(s0)
    12c8:	be043423          	sd	zero,-1048(s0)
    12cc:	be043823          	sd	zero,-1040(s0)
    12d0:	be043c23          	sd	zero,-1032(s0)
    12d4:	c0043023          	sd	zero,-1024(s0)
    12d8:	c0043423          	sd	zero,-1016(s0)
    12dc:	c0043823          	sd	zero,-1008(s0)
    12e0:	c0043c23          	sd	zero,-1000(s0)
    12e4:	c2043023          	sd	zero,-992(s0)
    12e8:	c2043423          	sd	zero,-984(s0)
    12ec:	c2043823          	sd	zero,-976(s0)
    12f0:	c2043c23          	sd	zero,-968(s0)
    12f4:	c4043023          	sd	zero,-960(s0)
    12f8:	c4043423          	sd	zero,-952(s0)
    12fc:	c4043823          	sd	zero,-944(s0)
    1300:	c4043c23          	sd	zero,-936(s0)
    1304:	c6043023          	sd	zero,-928(s0)
    1308:	c6043423          	sd	zero,-920(s0)
    130c:	c6043823          	sd	zero,-912(s0)
    1310:	c6043c23          	sd	zero,-904(s0)
    1314:	c8043023          	sd	zero,-896(s0)
    1318:	c8043423          	sd	zero,-888(s0)
    131c:	c8043823          	sd	zero,-880(s0)
    1320:	c8043c23          	sd	zero,-872(s0)
    1324:	ca043023          	sd	zero,-864(s0)
    1328:	ca043423          	sd	zero,-856(s0)
    132c:	ca043823          	sd	zero,-848(s0)
    1330:	ca043c23          	sd	zero,-840(s0)
    1334:	cc043023          	sd	zero,-832(s0)
    1338:	cc043423          	sd	zero,-824(s0)
    133c:	cc043823          	sd	zero,-816(s0)
    1340:	cc043c23          	sd	zero,-808(s0)
    1344:	ce043023          	sd	zero,-800(s0)
    1348:	ce043423          	sd	zero,-792(s0)
    134c:	ce043823          	sd	zero,-784(s0)
    1350:	ce043c23          	sd	zero,-776(s0)
    1354:	d0043023          	sd	zero,-768(s0)
    1358:	d0043423          	sd	zero,-760(s0)
    135c:	d0043823          	sd	zero,-752(s0)
    1360:	d0043c23          	sd	zero,-744(s0)
    1364:	d2043023          	sd	zero,-736(s0)
    1368:	d2043423          	sd	zero,-728(s0)
    136c:	d2043823          	sd	zero,-720(s0)
    1370:	d2043c23          	sd	zero,-712(s0)
    1374:	d4043023          	sd	zero,-704(s0)
    1378:	d4043423          	sd	zero,-696(s0)
    137c:	d4043823          	sd	zero,-688(s0)
    1380:	d4043c23          	sd	zero,-680(s0)
    1384:	d6043023          	sd	zero,-672(s0)
    1388:	d6043423          	sd	zero,-664(s0)
    138c:	d6043823          	sd	zero,-656(s0)
    1390:	d6043c23          	sd	zero,-648(s0)
    1394:	d8043023          	sd	zero,-640(s0)
    1398:	d8043423          	sd	zero,-632(s0)
    139c:	d8043823          	sd	zero,-624(s0)
    13a0:	d8043c23          	sd	zero,-616(s0)
    13a4:	da043023          	sd	zero,-608(s0)
    13a8:	da043423          	sd	zero,-600(s0)
    13ac:	da043823          	sd	zero,-592(s0)
    13b0:	da043c23          	sd	zero,-584(s0)
    13b4:	dc043023          	sd	zero,-576(s0)
    13b8:	dc043423          	sd	zero,-568(s0)
    13bc:	dc043823          	sd	zero,-560(s0)
    13c0:	dc043c23          	sd	zero,-552(s0)
    13c4:	de043023          	sd	zero,-544(s0)
    13c8:	de043423          	sd	zero,-536(s0)
    13cc:	de043823          	sd	zero,-528(s0)
    13d0:	00000093          	li	ra,0
    13d4:	00000d13          	li	s10,0
    13d8:	00000c93          	li	s9,0
    13dc:	e0043823          	sd	zero,-496(s0)
    13e0:	00000a93          	li	s5,0
    13e4:	00000913          	li	s2,0
    13e8:	00000493          	li	s1,0
    13ec:	00000f93          	li	t6,0
    13f0:	00000f13          	li	t5,0
    13f4:	00000e93          	li	t4,0
    13f8:	00000293          	li	t0,0
    13fc:	00000613          	li	a2,0
    1400:	00000593          	li	a1,0
    1404:	00000513          	li	a0,0
    1408:	00000e13          	li	t3,0
    140c:	00000393          	li	t2,0
    1410:	00000313          	li	t1,0
    1414:	00000893          	li	a7,0
    1418:	00000813          	li	a6,0
    141c:	00000793          	li	a5,0
    1420:	00000713          	li	a4,0
    1424:	00000693          	li	a3,0

0000000000001428 <.LBB63_5>:
    1428:	f9643023          	sd	s6,-128(s0)
    142c:	00001c37          	lui	s8,0x1
    1430:	41840c33          	sub	s8,s0,s8
    1434:	6b4c3023          	sd	s4,1696(s8) # 16a0 <.LBB63_5+0x278>
    1438:	f9343423          	sd	s3,-120(s0)
    143c:	de143c23          	sd	ra,-520(s0)
    1440:	e1a43023          	sd	s10,-512(s0)
    1444:	e1943423          	sd	s9,-504(s0)
    1448:	e1543c23          	sd	s5,-488(s0)
    144c:	e3243023          	sd	s2,-480(s0)
    1450:	e2943423          	sd	s1,-472(s0)
    1454:	e3f43823          	sd	t6,-464(s0)
    1458:	e3e43c23          	sd	t5,-456(s0)
    145c:	e5d43023          	sd	t4,-448(s0)
    1460:	ee543823          	sd	t0,-272(s0)
    1464:	eec43c23          	sd	a2,-264(s0)
    1468:	f0b43023          	sd	a1,-256(s0)
    146c:	f0a43423          	sd	a0,-248(s0)
    1470:	e5c43423          	sd	t3,-440(s0)
    1474:	e4743823          	sd	t2,-432(s0)
    1478:	e4643c23          	sd	t1,-424(s0)
    147c:	e7143023          	sd	a7,-416(s0)
    1480:	e7043423          	sd	a6,-408(s0)
    1484:	e6f43823          	sd	a5,-400(s0)
    1488:	e6e43c23          	sd	a4,-392(s0)
    148c:	e8d43023          	sd	a3,-384(s0)
    1490:	a00b0503          	lb	a0,-1536(s6)
    1494:	00298603          	lb	a2,2(s3)
    1498:	f0c43823          	sd	a2,-240(s0)
    149c:	00198683          	lb	a3,1(s3)
    14a0:	00098703          	lb	a4,0(s3)
    14a4:	00398783          	lb	a5,3(s3)
    14a8:	00498803          	lb	a6,4(s3)
    14ac:	00598a83          	lb	s5,5(s3)
    14b0:	00698083          	lb	ra,6(s3)
    14b4:	f2143423          	sd	ra,-216(s0)
    14b8:	00798d83          	lb	s11,7(s3)
    14bc:	f7b43023          	sd	s11,-160(s0)
    14c0:	00898883          	lb	a7,8(s3)
    14c4:	f7143823          	sd	a7,-144(s0)
    14c8:	00998d03          	lb	s10,9(s3)
    14cc:	00a98903          	lb	s2,10(s3)
    14d0:	00b98483          	lb	s1,11(s3)
    14d4:	00c98f83          	lb	t6,12(s3)
    14d8:	00d98f03          	lb	t5,13(s3)
    14dc:	00e98e83          	lb	t4,14(s3)
    14e0:	00f98e03          	lb	t3,15(s3)
    14e4:	01098303          	lb	t1,16(s3)
    14e8:	01198283          	lb	t0,17(s3)
    14ec:	01298383          	lb	t2,18(s3)
    14f0:	01398b03          	lb	s6,19(s3)
    14f4:	f8843583          	ld	a1,-120(s0)
    14f8:	01458583          	lb	a1,20(a1)
    14fc:	f6b43423          	sd	a1,-152(s0)
    1500:	f8843583          	ld	a1,-120(s0)
    1504:	01558a03          	lb	s4,21(a1)
    1508:	eb443023          	sd	s4,-352(s0)
    150c:	f8843583          	ld	a1,-120(s0)
    1510:	01658983          	lb	s3,22(a1)
    1514:	f5343c23          	sd	s3,-168(s0)
    1518:	f8843583          	ld	a1,-120(s0)
    151c:	01758c03          	lb	s8,23(a1)
    1520:	ef843023          	sd	s8,-288(s0)
    1524:	f8843583          	ld	a1,-120(s0)
    1528:	01858c83          	lb	s9,24(a1)
    152c:	eb943423          	sd	s9,-344(s0)
    1530:	02c505b3          	mul	a1,a0,a2
    1534:	00001637          	lui	a2,0x1
    1538:	40c40633          	sub	a2,s0,a2
    153c:	7a863603          	ld	a2,1960(a2) # 17a8 <.LBB63_5+0x380>
    1540:	00c58633          	add	a2,a1,a2
    1544:	000015b7          	lui	a1,0x1
    1548:	40b405b3          	sub	a1,s0,a1
    154c:	7ac5b423          	sd	a2,1960(a1) # 17a8 <.LBB63_5+0x380>
    1550:	02d505b3          	mul	a1,a0,a3
    1554:	00001637          	lui	a2,0x1
    1558:	40c40633          	sub	a2,s0,a2
    155c:	79863603          	ld	a2,1944(a2) # 1798 <.LBB63_5+0x370>
    1560:	00c58633          	add	a2,a1,a2
    1564:	000015b7          	lui	a1,0x1
    1568:	40b405b3          	sub	a1,s0,a1
    156c:	78c5bc23          	sd	a2,1944(a1) # 1798 <.LBB63_5+0x370>
    1570:	02e505b3          	mul	a1,a0,a4
    1574:	00001637          	lui	a2,0x1
    1578:	40c40633          	sub	a2,s0,a2
    157c:	79063603          	ld	a2,1936(a2) # 1790 <.LBB63_5+0x368>
    1580:	00c58633          	add	a2,a1,a2
    1584:	000015b7          	lui	a1,0x1
    1588:	40b405b3          	sub	a1,s0,a1
    158c:	78c5b823          	sd	a2,1936(a1) # 1790 <.LBB63_5+0x368>
    1590:	02f505b3          	mul	a1,a0,a5
    1594:	01758bb3          	add	s7,a1,s7
    1598:	000015b7          	lui	a1,0x1
    159c:	40b405b3          	sub	a1,s0,a1
    15a0:	6b75b423          	sd	s7,1704(a1) # 16a8 <.LBB63_5+0x280>
    15a4:	030505b3          	mul	a1,a0,a6
    15a8:	00001637          	lui	a2,0x1
    15ac:	40c40633          	sub	a2,s0,a2
    15b0:	78863603          	ld	a2,1928(a2) # 1788 <.LBB63_5+0x360>
    15b4:	00c58633          	add	a2,a1,a2
    15b8:	000015b7          	lui	a1,0x1
    15bc:	40b405b3          	sub	a1,s0,a1
    15c0:	78c5b423          	sd	a2,1928(a1) # 1788 <.LBB63_5+0x360>
    15c4:	035505b3          	mul	a1,a0,s5
    15c8:	000a8b93          	mv	s7,s5
    15cc:	00001637          	lui	a2,0x1
    15d0:	40c40633          	sub	a2,s0,a2
    15d4:	78063603          	ld	a2,1920(a2) # 1780 <.LBB63_5+0x358>
    15d8:	00c58633          	add	a2,a1,a2
    15dc:	000015b7          	lui	a1,0x1
    15e0:	40b405b3          	sub	a1,s0,a1
    15e4:	78c5b023          	sd	a2,1920(a1) # 1780 <.LBB63_5+0x358>
    15e8:	021505b3          	mul	a1,a0,ra
    15ec:	00001637          	lui	a2,0x1
    15f0:	40c40633          	sub	a2,s0,a2
    15f4:	77863603          	ld	a2,1912(a2) # 1778 <.LBB63_5+0x350>
    15f8:	00c58633          	add	a2,a1,a2
    15fc:	000015b7          	lui	a1,0x1
    1600:	40b405b3          	sub	a1,s0,a1
    1604:	76c5bc23          	sd	a2,1912(a1) # 1778 <.LBB63_5+0x350>
    1608:	03b505b3          	mul	a1,a0,s11
    160c:	00001637          	lui	a2,0x1
    1610:	40c40633          	sub	a2,s0,a2
    1614:	77063603          	ld	a2,1904(a2) # 1770 <.LBB63_5+0x348>
    1618:	00c58633          	add	a2,a1,a2
    161c:	000015b7          	lui	a1,0x1
    1620:	40b405b3          	sub	a1,s0,a1
    1624:	76c5b823          	sd	a2,1904(a1) # 1770 <.LBB63_5+0x348>
    1628:	031505b3          	mul	a1,a0,a7
    162c:	00001637          	lui	a2,0x1
    1630:	40c40633          	sub	a2,s0,a2
    1634:	76863603          	ld	a2,1896(a2) # 1768 <.LBB63_5+0x340>
    1638:	00c58633          	add	a2,a1,a2
    163c:	000015b7          	lui	a1,0x1
    1640:	40b405b3          	sub	a1,s0,a1
    1644:	76c5b423          	sd	a2,1896(a1) # 1768 <.LBB63_5+0x340>
    1648:	03a505b3          	mul	a1,a0,s10
    164c:	00001637          	lui	a2,0x1
    1650:	40c40633          	sub	a2,s0,a2
    1654:	76063603          	ld	a2,1888(a2) # 1760 <.LBB63_5+0x338>
    1658:	00c58633          	add	a2,a1,a2
    165c:	000015b7          	lui	a1,0x1
    1660:	40b405b3          	sub	a1,s0,a1
    1664:	76c5b023          	sd	a2,1888(a1) # 1760 <.LBB63_5+0x338>
    1668:	032505b3          	mul	a1,a0,s2
    166c:	00001637          	lui	a2,0x1
    1670:	40c40633          	sub	a2,s0,a2
    1674:	75863603          	ld	a2,1880(a2) # 1758 <.LBB63_5+0x330>
    1678:	00c58633          	add	a2,a1,a2
    167c:	000015b7          	lui	a1,0x1
    1680:	40b405b3          	sub	a1,s0,a1
    1684:	74c5bc23          	sd	a2,1880(a1) # 1758 <.LBB63_5+0x330>
    1688:	029505b3          	mul	a1,a0,s1
    168c:	00001637          	lui	a2,0x1
    1690:	40c40633          	sub	a2,s0,a2
    1694:	75063603          	ld	a2,1872(a2) # 1750 <.LBB63_5+0x328>
    1698:	00c58633          	add	a2,a1,a2
    169c:	000015b7          	lui	a1,0x1
    16a0:	40b405b3          	sub	a1,s0,a1
    16a4:	74c5b823          	sd	a2,1872(a1) # 1750 <.LBB63_5+0x328>
    16a8:	03f505b3          	mul	a1,a0,t6
    16ac:	00001637          	lui	a2,0x1
    16b0:	40c40633          	sub	a2,s0,a2
    16b4:	74863603          	ld	a2,1864(a2) # 1748 <.LBB63_5+0x320>
    16b8:	00c58633          	add	a2,a1,a2
    16bc:	000015b7          	lui	a1,0x1
    16c0:	40b405b3          	sub	a1,s0,a1
    16c4:	74c5b423          	sd	a2,1864(a1) # 1748 <.LBB63_5+0x320>
    16c8:	ebe43823          	sd	t5,-336(s0)
    16cc:	03e505b3          	mul	a1,a0,t5
    16d0:	00001637          	lui	a2,0x1
    16d4:	40c40633          	sub	a2,s0,a2
    16d8:	74063603          	ld	a2,1856(a2) # 1740 <.LBB63_5+0x318>
    16dc:	00c58633          	add	a2,a1,a2
    16e0:	000015b7          	lui	a1,0x1
    16e4:	40b405b3          	sub	a1,s0,a1
    16e8:	74c5b023          	sd	a2,1856(a1) # 1740 <.LBB63_5+0x318>
    16ec:	03d505b3          	mul	a1,a0,t4
    16f0:	00001637          	lui	a2,0x1
    16f4:	40c40633          	sub	a2,s0,a2
    16f8:	73863603          	ld	a2,1848(a2) # 1738 <.LBB63_5+0x310>
    16fc:	00c58633          	add	a2,a1,a2
    1700:	000015b7          	lui	a1,0x1
    1704:	40b405b3          	sub	a1,s0,a1
    1708:	72c5bc23          	sd	a2,1848(a1) # 1738 <.LBB63_5+0x310>
    170c:	03c505b3          	mul	a1,a0,t3
    1710:	00001637          	lui	a2,0x1
    1714:	40c40633          	sub	a2,s0,a2
    1718:	73063603          	ld	a2,1840(a2) # 1730 <.LBB63_5+0x308>
    171c:	00c58633          	add	a2,a1,a2
    1720:	000015b7          	lui	a1,0x1
    1724:	40b405b3          	sub	a1,s0,a1
    1728:	72c5b823          	sd	a2,1840(a1) # 1730 <.LBB63_5+0x308>
    172c:	e8643423          	sd	t1,-376(s0)
    1730:	026505b3          	mul	a1,a0,t1
    1734:	00001637          	lui	a2,0x1
    1738:	40c40633          	sub	a2,s0,a2
    173c:	72863603          	ld	a2,1832(a2) # 1728 <.LBB63_5+0x300>
    1740:	00c58633          	add	a2,a1,a2
    1744:	000015b7          	lui	a1,0x1
    1748:	40b405b3          	sub	a1,s0,a1
    174c:	72c5b423          	sd	a2,1832(a1) # 1728 <.LBB63_5+0x300>
    1750:	00028893          	mv	a7,t0
    1754:	e8543823          	sd	t0,-368(s0)
    1758:	025505b3          	mul	a1,a0,t0
    175c:	00001637          	lui	a2,0x1
    1760:	40c40633          	sub	a2,s0,a2
    1764:	72063603          	ld	a2,1824(a2) # 1720 <.LBB63_5+0x2f8>
    1768:	00c58633          	add	a2,a1,a2
    176c:	000015b7          	lui	a1,0x1
    1770:	40b405b3          	sub	a1,s0,a1
    1774:	72c5b023          	sd	a2,1824(a1) # 1720 <.LBB63_5+0x2f8>
    1778:	00038293          	mv	t0,t2
    177c:	f4743823          	sd	t2,-176(s0)
    1780:	027505b3          	mul	a1,a0,t2
    1784:	00001637          	lui	a2,0x1
    1788:	40c40633          	sub	a2,s0,a2
    178c:	71863603          	ld	a2,1816(a2) # 1718 <.LBB63_5+0x2f0>
    1790:	00c58633          	add	a2,a1,a2
    1794:	000015b7          	lui	a1,0x1
    1798:	40b405b3          	sub	a1,s0,a1
    179c:	70c5bc23          	sd	a2,1816(a1) # 1718 <.LBB63_5+0x2f0>
    17a0:	000b0393          	mv	t2,s6
    17a4:	f5643423          	sd	s6,-184(s0)
    17a8:	036505b3          	mul	a1,a0,s6
    17ac:	00001637          	lui	a2,0x1
    17b0:	40c40633          	sub	a2,s0,a2
    17b4:	71063603          	ld	a2,1808(a2) # 1710 <.LBB63_5+0x2e8>
    17b8:	00c58633          	add	a2,a1,a2
    17bc:	000015b7          	lui	a1,0x1
    17c0:	40b405b3          	sub	a1,s0,a1
    17c4:	70c5b823          	sd	a2,1808(a1) # 1710 <.LBB63_5+0x2e8>
    17c8:	f6843583          	ld	a1,-152(s0)
    17cc:	02b505b3          	mul	a1,a0,a1
    17d0:	00001637          	lui	a2,0x1
    17d4:	40c40633          	sub	a2,s0,a2
    17d8:	70863603          	ld	a2,1800(a2) # 1708 <.LBB63_5+0x2e0>
    17dc:	00c58633          	add	a2,a1,a2
    17e0:	000015b7          	lui	a1,0x1
    17e4:	40b405b3          	sub	a1,s0,a1
    17e8:	70c5b423          	sd	a2,1800(a1) # 1708 <.LBB63_5+0x2e0>
    17ec:	034505b3          	mul	a1,a0,s4
    17f0:	00001637          	lui	a2,0x1
    17f4:	40c40633          	sub	a2,s0,a2
    17f8:	70063603          	ld	a2,1792(a2) # 1700 <.LBB63_5+0x2d8>
    17fc:	00c58633          	add	a2,a1,a2
    1800:	000015b7          	lui	a1,0x1
    1804:	40b405b3          	sub	a1,s0,a1
    1808:	70c5b023          	sd	a2,1792(a1) # 1700 <.LBB63_5+0x2d8>
    180c:	033505b3          	mul	a1,a0,s3
    1810:	00001637          	lui	a2,0x1
    1814:	40c40633          	sub	a2,s0,a2
    1818:	6f063603          	ld	a2,1776(a2) # 16f0 <.LBB63_5+0x2c8>
    181c:	00c58633          	add	a2,a1,a2
    1820:	000015b7          	lui	a1,0x1
    1824:	40b405b3          	sub	a1,s0,a1
    1828:	6ec5b823          	sd	a2,1776(a1) # 16f0 <.LBB63_5+0x2c8>
    182c:	038505b3          	mul	a1,a0,s8
    1830:	00001637          	lui	a2,0x1
    1834:	40c40633          	sub	a2,s0,a2
    1838:	6f863603          	ld	a2,1784(a2) # 16f8 <.LBB63_5+0x2d0>
    183c:	00c58633          	add	a2,a1,a2
    1840:	000015b7          	lui	a1,0x1
    1844:	40b405b3          	sub	a1,s0,a1
    1848:	6ec5bc23          	sd	a2,1784(a1) # 16f8 <.LBB63_5+0x2d0>
    184c:	f8843583          	ld	a1,-120(s0)
    1850:	01958983          	lb	s3,25(a1)
    1854:	ed343c23          	sd	s3,-296(s0)
    1858:	039505b3          	mul	a1,a0,s9
    185c:	00001637          	lui	a2,0x1
    1860:	40c40633          	sub	a2,s0,a2
    1864:	6e863603          	ld	a2,1768(a2) # 16e8 <.LBB63_5+0x2c0>
    1868:	00c58633          	add	a2,a1,a2
    186c:	000015b7          	lui	a1,0x1
    1870:	40b405b3          	sub	a1,s0,a1
    1874:	6ec5b423          	sd	a2,1768(a1) # 16e8 <.LBB63_5+0x2c0>
    1878:	f8843583          	ld	a1,-120(s0)
    187c:	01a58a83          	lb	s5,26(a1)
    1880:	f3543023          	sd	s5,-224(s0)
    1884:	033505b3          	mul	a1,a0,s3
    1888:	00001637          	lui	a2,0x1
    188c:	40c40633          	sub	a2,s0,a2
    1890:	6e063603          	ld	a2,1760(a2) # 16e0 <.LBB63_5+0x2b8>
    1894:	00c58633          	add	a2,a1,a2
    1898:	000015b7          	lui	a1,0x1
    189c:	40b405b3          	sub	a1,s0,a1
    18a0:	6ec5b023          	sd	a2,1760(a1) # 16e0 <.LBB63_5+0x2b8>
    18a4:	f8843583          	ld	a1,-120(s0)
    18a8:	01b58a03          	lb	s4,27(a1)
    18ac:	035505b3          	mul	a1,a0,s5
    18b0:	00001637          	lui	a2,0x1
    18b4:	40c40633          	sub	a2,s0,a2
    18b8:	6d863603          	ld	a2,1752(a2) # 16d8 <.LBB63_5+0x2b0>
    18bc:	00c58633          	add	a2,a1,a2
    18c0:	000015b7          	lui	a1,0x1
    18c4:	40b405b3          	sub	a1,s0,a1
    18c8:	6cc5bc23          	sd	a2,1752(a1) # 16d8 <.LBB63_5+0x2b0>
    18cc:	f8843583          	ld	a1,-120(s0)
    18d0:	01c58983          	lb	s3,28(a1)
    18d4:	ed343023          	sd	s3,-320(s0)
    18d8:	034505b3          	mul	a1,a0,s4
    18dc:	f5443023          	sd	s4,-192(s0)
    18e0:	00001637          	lui	a2,0x1
    18e4:	40c40633          	sub	a2,s0,a2
    18e8:	6d063603          	ld	a2,1744(a2) # 16d0 <.LBB63_5+0x2a8>
    18ec:	00c58633          	add	a2,a1,a2
    18f0:	000015b7          	lui	a1,0x1
    18f4:	40b405b3          	sub	a1,s0,a1
    18f8:	6cc5b823          	sd	a2,1744(a1) # 16d0 <.LBB63_5+0x2a8>
    18fc:	f8843583          	ld	a1,-120(s0)
    1900:	01d58a83          	lb	s5,29(a1)
    1904:	eb543c23          	sd	s5,-328(s0)
    1908:	033505b3          	mul	a1,a0,s3
    190c:	00001637          	lui	a2,0x1
    1910:	40c40633          	sub	a2,s0,a2
    1914:	6c863603          	ld	a2,1736(a2) # 16c8 <.LBB63_5+0x2a0>
    1918:	00c58633          	add	a2,a1,a2
    191c:	000015b7          	lui	a1,0x1
    1920:	40b405b3          	sub	a1,s0,a1
    1924:	6cc5b423          	sd	a2,1736(a1) # 16c8 <.LBB63_5+0x2a0>
    1928:	f8843583          	ld	a1,-120(s0)
    192c:	01e58083          	lb	ra,30(a1)
    1930:	035505b3          	mul	a1,a0,s5
    1934:	00001637          	lui	a2,0x1
    1938:	40c40633          	sub	a2,s0,a2
    193c:	6b863603          	ld	a2,1720(a2) # 16b8 <.LBB63_5+0x290>
    1940:	00c58633          	add	a2,a1,a2
    1944:	000015b7          	lui	a1,0x1
    1948:	40b405b3          	sub	a1,s0,a1
    194c:	6ac5bc23          	sd	a2,1720(a1) # 16b8 <.LBB63_5+0x290>
    1950:	f8843583          	ld	a1,-120(s0)
    1954:	01f58583          	lb	a1,31(a1)
    1958:	f8043603          	ld	a2,-128(s0)
    195c:	b8060a83          	lb	s5,-1152(a2)
    1960:	02150db3          	mul	s11,a0,ra
    1964:	f0143c23          	sd	ra,-232(s0)
    1968:	00001637          	lui	a2,0x1
    196c:	40c40633          	sub	a2,s0,a2
    1970:	6b063603          	ld	a2,1712(a2) # 16b0 <.LBB63_5+0x288>
    1974:	00cd8633          	add	a2,s11,a2
    1978:	000019b7          	lui	s3,0x1
    197c:	413409b3          	sub	s3,s0,s3
    1980:	6ac9b823          	sd	a2,1712(s3) # 16b0 <.LBB63_5+0x288>
    1984:	02b50533          	mul	a0,a0,a1
    1988:	00058c13          	mv	s8,a1
    198c:	000015b7          	lui	a1,0x1
    1990:	40b405b3          	sub	a1,s0,a1
    1994:	6c05b603          	ld	a2,1728(a1) # 16c0 <.LBB63_5+0x298>
    1998:	00c50633          	add	a2,a0,a2
    199c:	00001537          	lui	a0,0x1
    19a0:	40a40533          	sub	a0,s0,a0
    19a4:	6cc53023          	sd	a2,1728(a0) # 16c0 <.LBB63_5+0x298>
    19a8:	eee43423          	sd	a4,-280(s0)
    19ac:	02ea8533          	mul	a0,s5,a4
    19b0:	000015b7          	lui	a1,0x1
    19b4:	40b405b3          	sub	a1,s0,a1
    19b8:	7a05b603          	ld	a2,1952(a1) # 17a0 <.LBB63_5+0x378>
    19bc:	00c50633          	add	a2,a0,a2
    19c0:	00001537          	lui	a0,0x1
    19c4:	40a40533          	sub	a0,s0,a0
    19c8:	7ac53023          	sd	a2,1952(a0) # 17a0 <.LBB63_5+0x378>
    19cc:	ecd43823          	sd	a3,-304(s0)
    19d0:	02da8533          	mul	a0,s5,a3
    19d4:	000015b7          	lui	a1,0x1
    19d8:	40b405b3          	sub	a1,s0,a1
    19dc:	7b05b603          	ld	a2,1968(a1) # 17b0 <.LBB63_5+0x388>
    19e0:	00c50633          	add	a2,a0,a2
    19e4:	00001537          	lui	a0,0x1
    19e8:	40a40533          	sub	a0,s0,a0
    19ec:	7ac53823          	sd	a2,1968(a0) # 17b0 <.LBB63_5+0x388>
    19f0:	f1043b03          	ld	s6,-240(s0)
    19f4:	036a8533          	mul	a0,s5,s6
    19f8:	000015b7          	lui	a1,0x1
    19fc:	40b405b3          	sub	a1,s0,a1
    1a00:	7b85b603          	ld	a2,1976(a1) # 17b8 <.LBB63_5+0x390>
    1a04:	00c50633          	add	a2,a0,a2
    1a08:	00001537          	lui	a0,0x1
    1a0c:	40a40533          	sub	a0,s0,a0
    1a10:	7ac53c23          	sd	a2,1976(a0) # 17b8 <.LBB63_5+0x390>
    1a14:	f2f43c23          	sd	a5,-200(s0)
    1a18:	02fa8533          	mul	a0,s5,a5
    1a1c:	000015b7          	lui	a1,0x1
    1a20:	40b405b3          	sub	a1,s0,a1
    1a24:	7c05b603          	ld	a2,1984(a1) # 17c0 <.LBB63_5+0x398>
    1a28:	00c50633          	add	a2,a0,a2
    1a2c:	00001537          	lui	a0,0x1
    1a30:	40a40533          	sub	a0,s0,a0
    1a34:	7cc53023          	sd	a2,1984(a0) # 17c0 <.LBB63_5+0x398>
    1a38:	f3043823          	sd	a6,-208(s0)
    1a3c:	030a8533          	mul	a0,s5,a6
    1a40:	000015b7          	lui	a1,0x1
    1a44:	40b405b3          	sub	a1,s0,a1
    1a48:	7c85b603          	ld	a2,1992(a1) # 17c8 <.LBB63_5+0x3a0>
    1a4c:	00c50633          	add	a2,a0,a2
    1a50:	00001537          	lui	a0,0x1
    1a54:	40a40533          	sub	a0,s0,a0
    1a58:	7cc53423          	sd	a2,1992(a0) # 17c8 <.LBB63_5+0x3a0>
    1a5c:	ed743423          	sd	s7,-312(s0)
    1a60:	037a8533          	mul	a0,s5,s7
    1a64:	000015b7          	lui	a1,0x1
    1a68:	40b405b3          	sub	a1,s0,a1
    1a6c:	7d05b603          	ld	a2,2000(a1) # 17d0 <.LBB63_5+0x3a8>
    1a70:	00c50633          	add	a2,a0,a2
    1a74:	00001537          	lui	a0,0x1
    1a78:	40a40533          	sub	a0,s0,a0
    1a7c:	7cc53823          	sd	a2,2000(a0) # 17d0 <.LBB63_5+0x3a8>
    1a80:	f2843c83          	ld	s9,-216(s0)
    1a84:	039a8533          	mul	a0,s5,s9
    1a88:	000015b7          	lui	a1,0x1
    1a8c:	40b405b3          	sub	a1,s0,a1
    1a90:	7d85b603          	ld	a2,2008(a1) # 17d8 <.LBB63_5+0x3b0>
    1a94:	00c50633          	add	a2,a0,a2
    1a98:	00001537          	lui	a0,0x1
    1a9c:	40a40533          	sub	a0,s0,a0
    1aa0:	7cc53c23          	sd	a2,2008(a0) # 17d8 <.LBB63_5+0x3b0>
    1aa4:	f6043503          	ld	a0,-160(s0)
    1aa8:	02aa8533          	mul	a0,s5,a0
    1aac:	000015b7          	lui	a1,0x1
    1ab0:	40b405b3          	sub	a1,s0,a1
    1ab4:	7e05b603          	ld	a2,2016(a1) # 17e0 <.LBB63_5+0x3b8>
    1ab8:	00c50633          	add	a2,a0,a2
    1abc:	00001537          	lui	a0,0x1
    1ac0:	40a40533          	sub	a0,s0,a0
    1ac4:	7ec53023          	sd	a2,2016(a0) # 17e0 <.LBB63_5+0x3b8>
    1ac8:	f7043503          	ld	a0,-144(s0)
    1acc:	02aa8533          	mul	a0,s5,a0
    1ad0:	000015b7          	lui	a1,0x1
    1ad4:	40b405b3          	sub	a1,s0,a1
    1ad8:	7e85b603          	ld	a2,2024(a1) # 17e8 <.LBB63_5+0x3c0>
    1adc:	00c50633          	add	a2,a0,a2
    1ae0:	00001537          	lui	a0,0x1
    1ae4:	40a40533          	sub	a0,s0,a0
    1ae8:	7ec53423          	sd	a2,2024(a0) # 17e8 <.LBB63_5+0x3c0>
    1aec:	03aa8533          	mul	a0,s5,s10
    1af0:	000015b7          	lui	a1,0x1
    1af4:	40b405b3          	sub	a1,s0,a1
    1af8:	7f05b603          	ld	a2,2032(a1) # 17f0 <.LBB63_5+0x3c8>
    1afc:	00c50633          	add	a2,a0,a2
    1b00:	00001537          	lui	a0,0x1
    1b04:	40a40533          	sub	a0,s0,a0
    1b08:	7ec53823          	sd	a2,2032(a0) # 17f0 <.LBB63_5+0x3c8>
    1b0c:	032a8533          	mul	a0,s5,s2
    1b10:	000015b7          	lui	a1,0x1
    1b14:	40b405b3          	sub	a1,s0,a1
    1b18:	7f85b603          	ld	a2,2040(a1) # 17f8 <.LBB63_5+0x3d0>
    1b1c:	00c50633          	add	a2,a0,a2
    1b20:	00001537          	lui	a0,0x1
    1b24:	40a40533          	sub	a0,s0,a0
    1b28:	7ec53c23          	sd	a2,2040(a0) # 17f8 <.LBB63_5+0x3d0>
    1b2c:	029a8533          	mul	a0,s5,s1
    1b30:	80043603          	ld	a2,-2048(s0)
    1b34:	00c50633          	add	a2,a0,a2
    1b38:	80c43023          	sd	a2,-2048(s0)
    1b3c:	03fa8533          	mul	a0,s5,t6
    1b40:	80843603          	ld	a2,-2040(s0)
    1b44:	00c50633          	add	a2,a0,a2
    1b48:	80c43423          	sd	a2,-2040(s0)
    1b4c:	03ea8533          	mul	a0,s5,t5
    1b50:	81043603          	ld	a2,-2032(s0)
    1b54:	00c50633          	add	a2,a0,a2
    1b58:	80c43823          	sd	a2,-2032(s0)
    1b5c:	03da8533          	mul	a0,s5,t4
    1b60:	81843603          	ld	a2,-2024(s0)
    1b64:	00c50633          	add	a2,a0,a2
    1b68:	80c43c23          	sd	a2,-2024(s0)
    1b6c:	03ca8533          	mul	a0,s5,t3
    1b70:	82043603          	ld	a2,-2016(s0)
    1b74:	00c50633          	add	a2,a0,a2
    1b78:	82c43023          	sd	a2,-2016(s0)
    1b7c:	026a8533          	mul	a0,s5,t1
    1b80:	82843603          	ld	a2,-2008(s0)
    1b84:	00c50633          	add	a2,a0,a2
    1b88:	82c43423          	sd	a2,-2008(s0)
    1b8c:	031a8533          	mul	a0,s5,a7
    1b90:	83043603          	ld	a2,-2000(s0)
    1b94:	00c50633          	add	a2,a0,a2
    1b98:	82c43823          	sd	a2,-2000(s0)
    1b9c:	025a8533          	mul	a0,s5,t0
    1ba0:	83843603          	ld	a2,-1992(s0)
    1ba4:	00c50633          	add	a2,a0,a2
    1ba8:	82c43c23          	sd	a2,-1992(s0)
    1bac:	027a8533          	mul	a0,s5,t2
    1bb0:	84043603          	ld	a2,-1984(s0)
    1bb4:	00c50633          	add	a2,a0,a2
    1bb8:	84c43023          	sd	a2,-1984(s0)
    1bbc:	f6843503          	ld	a0,-152(s0)
    1bc0:	02aa8533          	mul	a0,s5,a0
    1bc4:	84843603          	ld	a2,-1976(s0)
    1bc8:	00c50633          	add	a2,a0,a2
    1bcc:	84c43423          	sd	a2,-1976(s0)
    1bd0:	ea043983          	ld	s3,-352(s0)
    1bd4:	033a8533          	mul	a0,s5,s3
    1bd8:	85043603          	ld	a2,-1968(s0)
    1bdc:	00c50633          	add	a2,a0,a2
    1be0:	84c43823          	sd	a2,-1968(s0)
    1be4:	f5843503          	ld	a0,-168(s0)
    1be8:	02aa8533          	mul	a0,s5,a0
    1bec:	85843603          	ld	a2,-1960(s0)
    1bf0:	00c50633          	add	a2,a0,a2
    1bf4:	84c43c23          	sd	a2,-1960(s0)
    1bf8:	ee043883          	ld	a7,-288(s0)
    1bfc:	031a8533          	mul	a0,s5,a7
    1c00:	86043603          	ld	a2,-1952(s0)
    1c04:	00c50633          	add	a2,a0,a2
    1c08:	86c43023          	sd	a2,-1952(s0)
    1c0c:	ea843503          	ld	a0,-344(s0)
    1c10:	02aa8533          	mul	a0,s5,a0
    1c14:	86843603          	ld	a2,-1944(s0)
    1c18:	00c50633          	add	a2,a0,a2
    1c1c:	86c43423          	sd	a2,-1944(s0)
    1c20:	ed843f03          	ld	t5,-296(s0)
    1c24:	03ea8533          	mul	a0,s5,t5
    1c28:	87043603          	ld	a2,-1936(s0)
    1c2c:	00c50633          	add	a2,a0,a2
    1c30:	86c43823          	sd	a2,-1936(s0)
    1c34:	f2043283          	ld	t0,-224(s0)
    1c38:	025a8533          	mul	a0,s5,t0
    1c3c:	87843603          	ld	a2,-1928(s0)
    1c40:	00c50633          	add	a2,a0,a2
    1c44:	86c43c23          	sd	a2,-1928(s0)
    1c48:	034a8533          	mul	a0,s5,s4
    1c4c:	88043603          	ld	a2,-1920(s0)
    1c50:	00c50633          	add	a2,a0,a2
    1c54:	88c43023          	sd	a2,-1920(s0)
    1c58:	ec043583          	ld	a1,-320(s0)
    1c5c:	02ba8533          	mul	a0,s5,a1
    1c60:	88843603          	ld	a2,-1912(s0)
    1c64:	00c50633          	add	a2,a0,a2
    1c68:	88c43423          	sd	a2,-1912(s0)
    1c6c:	eb843303          	ld	t1,-328(s0)
    1c70:	026a8533          	mul	a0,s5,t1
    1c74:	89043603          	ld	a2,-1904(s0)
    1c78:	00c50633          	add	a2,a0,a2
    1c7c:	88c43823          	sd	a2,-1904(s0)
    1c80:	f8043503          	ld	a0,-128(s0)
    1c84:	d0050503          	lb	a0,-768(a0)
    1c88:	021a8db3          	mul	s11,s5,ra
    1c8c:	89843603          	ld	a2,-1896(s0)
    1c90:	00cd8633          	add	a2,s11,a2
    1c94:	88c43c23          	sd	a2,-1896(s0)
    1c98:	038a8ab3          	mul	s5,s5,s8
    1c9c:	e9843c23          	sd	s8,-360(s0)
    1ca0:	8a043603          	ld	a2,-1888(s0)
    1ca4:	00ca8633          	add	a2,s5,a2
    1ca8:	8ac43023          	sd	a2,-1888(s0)
    1cac:	02e50ab3          	mul	s5,a0,a4
    1cb0:	8a843603          	ld	a2,-1880(s0)
    1cb4:	00ca8633          	add	a2,s5,a2
    1cb8:	8ac43423          	sd	a2,-1880(s0)
    1cbc:	02d50ab3          	mul	s5,a0,a3
    1cc0:	8b043603          	ld	a2,-1872(s0)
    1cc4:	00ca8633          	add	a2,s5,a2
    1cc8:	8ac43823          	sd	a2,-1872(s0)
    1ccc:	03650ab3          	mul	s5,a0,s6
    1cd0:	8b843603          	ld	a2,-1864(s0)
    1cd4:	00ca8633          	add	a2,s5,a2
    1cd8:	8ac43c23          	sd	a2,-1864(s0)
    1cdc:	02f50ab3          	mul	s5,a0,a5
    1ce0:	8c043603          	ld	a2,-1856(s0)
    1ce4:	00ca8633          	add	a2,s5,a2
    1ce8:	8cc43023          	sd	a2,-1856(s0)
    1cec:	03050ab3          	mul	s5,a0,a6
    1cf0:	8c843603          	ld	a2,-1848(s0)
    1cf4:	00ca8633          	add	a2,s5,a2
    1cf8:	8cc43423          	sd	a2,-1848(s0)
    1cfc:	03750ab3          	mul	s5,a0,s7
    1d00:	8d043603          	ld	a2,-1840(s0)
    1d04:	00ca8633          	add	a2,s5,a2
    1d08:	8cc43823          	sd	a2,-1840(s0)
    1d0c:	000c8713          	mv	a4,s9
    1d10:	03950ab3          	mul	s5,a0,s9
    1d14:	8d843603          	ld	a2,-1832(s0)
    1d18:	00ca8633          	add	a2,s5,a2
    1d1c:	8cc43c23          	sd	a2,-1832(s0)
    1d20:	f6043683          	ld	a3,-160(s0)
    1d24:	02d50ab3          	mul	s5,a0,a3
    1d28:	8e043603          	ld	a2,-1824(s0)
    1d2c:	00ca8633          	add	a2,s5,a2
    1d30:	8ec43023          	sd	a2,-1824(s0)
    1d34:	f7043803          	ld	a6,-144(s0)
    1d38:	03050ab3          	mul	s5,a0,a6
    1d3c:	8e843603          	ld	a2,-1816(s0)
    1d40:	00ca8633          	add	a2,s5,a2
    1d44:	8ec43423          	sd	a2,-1816(s0)
    1d48:	03a50ab3          	mul	s5,a0,s10
    1d4c:	8f043603          	ld	a2,-1808(s0)
    1d50:	00ca8633          	add	a2,s5,a2
    1d54:	8ec43823          	sd	a2,-1808(s0)
    1d58:	03250ab3          	mul	s5,a0,s2
    1d5c:	8f843603          	ld	a2,-1800(s0)
    1d60:	00ca8633          	add	a2,s5,a2
    1d64:	8ec43c23          	sd	a2,-1800(s0)
    1d68:	02950ab3          	mul	s5,a0,s1
    1d6c:	90043603          	ld	a2,-1792(s0)
    1d70:	00ca8633          	add	a2,s5,a2
    1d74:	90c43023          	sd	a2,-1792(s0)
    1d78:	03f50ab3          	mul	s5,a0,t6
    1d7c:	90843603          	ld	a2,-1784(s0)
    1d80:	00ca8633          	add	a2,s5,a2
    1d84:	90c43423          	sd	a2,-1784(s0)
    1d88:	eb043603          	ld	a2,-336(s0)
    1d8c:	02c50ab3          	mul	s5,a0,a2
    1d90:	91043603          	ld	a2,-1776(s0)
    1d94:	00ca8633          	add	a2,s5,a2
    1d98:	90c43823          	sd	a2,-1776(s0)
    1d9c:	03d50ab3          	mul	s5,a0,t4
    1da0:	91843603          	ld	a2,-1768(s0)
    1da4:	00ca8633          	add	a2,s5,a2
    1da8:	90c43c23          	sd	a2,-1768(s0)
    1dac:	03c50ab3          	mul	s5,a0,t3
    1db0:	92043603          	ld	a2,-1760(s0)
    1db4:	00ca8633          	add	a2,s5,a2
    1db8:	92c43023          	sd	a2,-1760(s0)
    1dbc:	e8843383          	ld	t2,-376(s0)
    1dc0:	02750ab3          	mul	s5,a0,t2
    1dc4:	92843603          	ld	a2,-1752(s0)
    1dc8:	00ca8633          	add	a2,s5,a2
    1dcc:	92c43423          	sd	a2,-1752(s0)
    1dd0:	e9043083          	ld	ra,-368(s0)
    1dd4:	02150ab3          	mul	s5,a0,ra
    1dd8:	93043603          	ld	a2,-1744(s0)
    1ddc:	00ca8633          	add	a2,s5,a2
    1de0:	92c43823          	sd	a2,-1744(s0)
    1de4:	f5043603          	ld	a2,-176(s0)
    1de8:	02c50ab3          	mul	s5,a0,a2
    1dec:	93843603          	ld	a2,-1736(s0)
    1df0:	00ca8633          	add	a2,s5,a2
    1df4:	92c43c23          	sd	a2,-1736(s0)
    1df8:	f4843603          	ld	a2,-184(s0)
    1dfc:	02c50ab3          	mul	s5,a0,a2
    1e00:	94043603          	ld	a2,-1728(s0)
    1e04:	00ca8633          	add	a2,s5,a2
    1e08:	94c43023          	sd	a2,-1728(s0)
    1e0c:	f6843603          	ld	a2,-152(s0)
    1e10:	02c50ab3          	mul	s5,a0,a2
    1e14:	94843603          	ld	a2,-1720(s0)
    1e18:	00ca8633          	add	a2,s5,a2
    1e1c:	94c43423          	sd	a2,-1720(s0)
    1e20:	00098a13          	mv	s4,s3
    1e24:	03350ab3          	mul	s5,a0,s3
    1e28:	95043603          	ld	a2,-1712(s0)
    1e2c:	00ca8633          	add	a2,s5,a2
    1e30:	94c43823          	sd	a2,-1712(s0)
    1e34:	f5843c83          	ld	s9,-168(s0)
    1e38:	03950ab3          	mul	s5,a0,s9
    1e3c:	95843603          	ld	a2,-1704(s0)
    1e40:	00ca8633          	add	a2,s5,a2
    1e44:	94c43c23          	sd	a2,-1704(s0)
    1e48:	03150ab3          	mul	s5,a0,a7
    1e4c:	96043603          	ld	a2,-1696(s0)
    1e50:	00ca8633          	add	a2,s5,a2
    1e54:	96c43023          	sd	a2,-1696(s0)
    1e58:	ea843b03          	ld	s6,-344(s0)
    1e5c:	03650ab3          	mul	s5,a0,s6
    1e60:	96843603          	ld	a2,-1688(s0)
    1e64:	00ca8633          	add	a2,s5,a2
    1e68:	96c43423          	sd	a2,-1688(s0)
    1e6c:	000f0b93          	mv	s7,t5
    1e70:	03e50ab3          	mul	s5,a0,t5
    1e74:	97043603          	ld	a2,-1680(s0)
    1e78:	00ca8633          	add	a2,s5,a2
    1e7c:	96c43823          	sd	a2,-1680(s0)
    1e80:	02550ab3          	mul	s5,a0,t0
    1e84:	97843603          	ld	a2,-1672(s0)
    1e88:	00ca8633          	add	a2,s5,a2
    1e8c:	96c43c23          	sd	a2,-1672(s0)
    1e90:	f4043603          	ld	a2,-192(s0)
    1e94:	02c50ab3          	mul	s5,a0,a2
    1e98:	98043603          	ld	a2,-1664(s0)
    1e9c:	00ca8633          	add	a2,s5,a2
    1ea0:	98c43023          	sd	a2,-1664(s0)
    1ea4:	02b50ab3          	mul	s5,a0,a1
    1ea8:	98843603          	ld	a2,-1656(s0)
    1eac:	00ca8633          	add	a2,s5,a2
    1eb0:	98c43423          	sd	a2,-1656(s0)
    1eb4:	02650ab3          	mul	s5,a0,t1
    1eb8:	99043603          	ld	a2,-1648(s0)
    1ebc:	00ca8633          	add	a2,s5,a2
    1ec0:	98c43823          	sd	a2,-1648(s0)
    1ec4:	f8043603          	ld	a2,-128(s0)
    1ec8:	e8060a83          	lb	s5,-384(a2)
    1ecc:	f1843603          	ld	a2,-232(s0)
    1ed0:	02c50db3          	mul	s11,a0,a2
    1ed4:	99843603          	ld	a2,-1640(s0)
    1ed8:	00cd8633          	add	a2,s11,a2
    1edc:	98c43c23          	sd	a2,-1640(s0)
    1ee0:	03850533          	mul	a0,a0,s8
    1ee4:	9a043603          	ld	a2,-1632(s0)
    1ee8:	00c50633          	add	a2,a0,a2
    1eec:	9ac43023          	sd	a2,-1632(s0)
    1ef0:	ee843503          	ld	a0,-280(s0)
    1ef4:	02aa8533          	mul	a0,s5,a0
    1ef8:	9a843603          	ld	a2,-1624(s0)
    1efc:	00c50633          	add	a2,a0,a2
    1f00:	9ac43423          	sd	a2,-1624(s0)
    1f04:	ed043983          	ld	s3,-304(s0)
    1f08:	033a8533          	mul	a0,s5,s3
    1f0c:	9b043603          	ld	a2,-1616(s0)
    1f10:	00c50633          	add	a2,a0,a2
    1f14:	9ac43823          	sd	a2,-1616(s0)
    1f18:	f1043783          	ld	a5,-240(s0)
    1f1c:	02fa8533          	mul	a0,s5,a5
    1f20:	9b843603          	ld	a2,-1608(s0)
    1f24:	00c50633          	add	a2,a0,a2
    1f28:	9ac43c23          	sd	a2,-1608(s0)
    1f2c:	f3843503          	ld	a0,-200(s0)
    1f30:	02aa8533          	mul	a0,s5,a0
    1f34:	9c043603          	ld	a2,-1600(s0)
    1f38:	00c50633          	add	a2,a0,a2
    1f3c:	9cc43023          	sd	a2,-1600(s0)
    1f40:	f3043503          	ld	a0,-208(s0)
    1f44:	02aa8533          	mul	a0,s5,a0
    1f48:	9c843603          	ld	a2,-1592(s0)
    1f4c:	00c50633          	add	a2,a0,a2
    1f50:	9cc43423          	sd	a2,-1592(s0)
    1f54:	ec843c03          	ld	s8,-312(s0)
    1f58:	038a8533          	mul	a0,s5,s8
    1f5c:	9d043603          	ld	a2,-1584(s0)
    1f60:	00c50633          	add	a2,a0,a2
    1f64:	9cc43823          	sd	a2,-1584(s0)
    1f68:	02ea8533          	mul	a0,s5,a4
    1f6c:	9d843603          	ld	a2,-1576(s0)
    1f70:	00c50633          	add	a2,a0,a2
    1f74:	9cc43c23          	sd	a2,-1576(s0)
    1f78:	02da8533          	mul	a0,s5,a3
    1f7c:	9e043603          	ld	a2,-1568(s0)
    1f80:	00c50633          	add	a2,a0,a2
    1f84:	9ec43023          	sd	a2,-1568(s0)
    1f88:	030a8533          	mul	a0,s5,a6
    1f8c:	9e843603          	ld	a2,-1560(s0)
    1f90:	00c50633          	add	a2,a0,a2
    1f94:	9ec43423          	sd	a2,-1560(s0)
    1f98:	03aa8533          	mul	a0,s5,s10
    1f9c:	9f043603          	ld	a2,-1552(s0)
    1fa0:	00c50633          	add	a2,a0,a2
    1fa4:	9ec43823          	sd	a2,-1552(s0)
    1fa8:	032a8533          	mul	a0,s5,s2
    1fac:	9f843603          	ld	a2,-1544(s0)
    1fb0:	00c50633          	add	a2,a0,a2
    1fb4:	9ec43c23          	sd	a2,-1544(s0)
    1fb8:	029a8533          	mul	a0,s5,s1
    1fbc:	a0043603          	ld	a2,-1536(s0)
    1fc0:	00c50633          	add	a2,a0,a2
    1fc4:	a0c43023          	sd	a2,-1536(s0)
    1fc8:	03fa8533          	mul	a0,s5,t6
    1fcc:	a0843603          	ld	a2,-1528(s0)
    1fd0:	00c50633          	add	a2,a0,a2
    1fd4:	a0c43423          	sd	a2,-1528(s0)
    1fd8:	eb043f03          	ld	t5,-336(s0)
    1fdc:	03ea8533          	mul	a0,s5,t5
    1fe0:	a1043603          	ld	a2,-1520(s0)
    1fe4:	00c50633          	add	a2,a0,a2
    1fe8:	a0c43823          	sd	a2,-1520(s0)
    1fec:	00001537          	lui	a0,0x1
    1ff0:	40a40533          	sub	a0,s0,a0
    1ff4:	69d53c23          	sd	t4,1688(a0) # 1698 <.LBB63_5+0x270>
    1ff8:	03da8533          	mul	a0,s5,t4
    1ffc:	a1843603          	ld	a2,-1512(s0)
    2000:	00c50633          	add	a2,a0,a2
    2004:	a0c43c23          	sd	a2,-1512(s0)
    2008:	00001537          	lui	a0,0x1
    200c:	40a40533          	sub	a0,s0,a0
    2010:	69c53823          	sd	t3,1680(a0) # 1690 <.LBB63_5+0x268>
    2014:	03ca8533          	mul	a0,s5,t3
    2018:	a2043603          	ld	a2,-1504(s0)
    201c:	00c50633          	add	a2,a0,a2
    2020:	a2c43023          	sd	a2,-1504(s0)
    2024:	00038313          	mv	t1,t2
    2028:	027a8533          	mul	a0,s5,t2
    202c:	a2843603          	ld	a2,-1496(s0)
    2030:	00c50633          	add	a2,a0,a2
    2034:	a2c43423          	sd	a2,-1496(s0)
    2038:	00008893          	mv	a7,ra
    203c:	021a8533          	mul	a0,s5,ra
    2040:	a3043603          	ld	a2,-1488(s0)
    2044:	00c50633          	add	a2,a0,a2
    2048:	a2c43823          	sd	a2,-1488(s0)
    204c:	f5043283          	ld	t0,-176(s0)
    2050:	025a8533          	mul	a0,s5,t0
    2054:	a3843603          	ld	a2,-1480(s0)
    2058:	00c50633          	add	a2,a0,a2
    205c:	a2c43c23          	sd	a2,-1480(s0)
    2060:	f4843383          	ld	t2,-184(s0)
    2064:	027a8533          	mul	a0,s5,t2
    2068:	a4043603          	ld	a2,-1472(s0)
    206c:	00c50633          	add	a2,a0,a2
    2070:	a4c43023          	sd	a2,-1472(s0)
    2074:	f6843503          	ld	a0,-152(s0)
    2078:	02aa8533          	mul	a0,s5,a0
    207c:	a4843603          	ld	a2,-1464(s0)
    2080:	00c50633          	add	a2,a0,a2
    2084:	a4c43423          	sd	a2,-1464(s0)
    2088:	034a8533          	mul	a0,s5,s4
    208c:	a5043603          	ld	a2,-1456(s0)
    2090:	00c50633          	add	a2,a0,a2
    2094:	a4c43823          	sd	a2,-1456(s0)
    2098:	039a8533          	mul	a0,s5,s9
    209c:	a5843603          	ld	a2,-1448(s0)
    20a0:	00c50633          	add	a2,a0,a2
    20a4:	a4c43c23          	sd	a2,-1448(s0)
    20a8:	ee043c83          	ld	s9,-288(s0)
    20ac:	039a8533          	mul	a0,s5,s9
    20b0:	a6043603          	ld	a2,-1440(s0)
    20b4:	00c50633          	add	a2,a0,a2
    20b8:	a6c43023          	sd	a2,-1440(s0)
    20bc:	036a8533          	mul	a0,s5,s6
    20c0:	a6843603          	ld	a2,-1432(s0)
    20c4:	00c50633          	add	a2,a0,a2
    20c8:	a6c43423          	sd	a2,-1432(s0)
    20cc:	037a8533          	mul	a0,s5,s7
    20d0:	a7043603          	ld	a2,-1424(s0)
    20d4:	00c50633          	add	a2,a0,a2
    20d8:	a6c43823          	sd	a2,-1424(s0)
    20dc:	f2043b83          	ld	s7,-224(s0)
    20e0:	037a8533          	mul	a0,s5,s7
    20e4:	a7843603          	ld	a2,-1416(s0)
    20e8:	00c50633          	add	a2,a0,a2
    20ec:	a6c43c23          	sd	a2,-1416(s0)
    20f0:	f4043703          	ld	a4,-192(s0)
    20f4:	02ea8533          	mul	a0,s5,a4
    20f8:	a8043603          	ld	a2,-1408(s0)
    20fc:	00c50633          	add	a2,a0,a2
    2100:	a8c43023          	sd	a2,-1408(s0)
    2104:	02ba8533          	mul	a0,s5,a1
    2108:	a8843603          	ld	a2,-1400(s0)
    210c:	00c50633          	add	a2,a0,a2
    2110:	a8c43423          	sd	a2,-1400(s0)
    2114:	eb843583          	ld	a1,-328(s0)
    2118:	02ba8533          	mul	a0,s5,a1
    211c:	a9043603          	ld	a2,-1392(s0)
    2120:	00c50633          	add	a2,a0,a2
    2124:	a8c43823          	sd	a2,-1392(s0)
    2128:	f8043503          	ld	a0,-128(s0)
    212c:	00050503          	lb	a0,0(a0)
    2130:	f1843083          	ld	ra,-232(s0)
    2134:	021a8db3          	mul	s11,s5,ra
    2138:	a9843603          	ld	a2,-1384(s0)
    213c:	00cd8633          	add	a2,s11,a2
    2140:	a8c43c23          	sd	a2,-1384(s0)
    2144:	e9843683          	ld	a3,-360(s0)
    2148:	02da8ab3          	mul	s5,s5,a3
    214c:	aa043603          	ld	a2,-1376(s0)
    2150:	00ca8633          	add	a2,s5,a2
    2154:	aac43023          	sd	a2,-1376(s0)
    2158:	ee843a03          	ld	s4,-280(s0)
    215c:	03450ab3          	mul	s5,a0,s4
    2160:	aa843603          	ld	a2,-1368(s0)
    2164:	00ca8633          	add	a2,s5,a2
    2168:	aac43423          	sd	a2,-1368(s0)
    216c:	03350ab3          	mul	s5,a0,s3
    2170:	ab043603          	ld	a2,-1360(s0)
    2174:	00ca8633          	add	a2,s5,a2
    2178:	aac43823          	sd	a2,-1360(s0)
    217c:	02f50ab3          	mul	s5,a0,a5
    2180:	ab843603          	ld	a2,-1352(s0)
    2184:	00ca8633          	add	a2,s5,a2
    2188:	aac43c23          	sd	a2,-1352(s0)
    218c:	f3843783          	ld	a5,-200(s0)
    2190:	02f50ab3          	mul	s5,a0,a5
    2194:	ac043603          	ld	a2,-1344(s0)
    2198:	00ca8633          	add	a2,s5,a2
    219c:	acc43023          	sd	a2,-1344(s0)
    21a0:	f3043803          	ld	a6,-208(s0)
    21a4:	03050ab3          	mul	s5,a0,a6
    21a8:	ac843603          	ld	a2,-1336(s0)
    21ac:	00ca8633          	add	a2,s5,a2
    21b0:	acc43423          	sd	a2,-1336(s0)
    21b4:	03850ab3          	mul	s5,a0,s8
    21b8:	ad043603          	ld	a2,-1328(s0)
    21bc:	00ca8633          	add	a2,s5,a2
    21c0:	acc43823          	sd	a2,-1328(s0)
    21c4:	f2843603          	ld	a2,-216(s0)
    21c8:	02c50ab3          	mul	s5,a0,a2
    21cc:	ad843603          	ld	a2,-1320(s0)
    21d0:	00ca8633          	add	a2,s5,a2
    21d4:	acc43c23          	sd	a2,-1320(s0)
    21d8:	f6043c03          	ld	s8,-160(s0)
    21dc:	03850ab3          	mul	s5,a0,s8
    21e0:	ae043603          	ld	a2,-1312(s0)
    21e4:	00ca8633          	add	a2,s5,a2
    21e8:	aec43023          	sd	a2,-1312(s0)
    21ec:	f7043983          	ld	s3,-144(s0)
    21f0:	03350ab3          	mul	s5,a0,s3
    21f4:	ae843603          	ld	a2,-1304(s0)
    21f8:	00ca8633          	add	a2,s5,a2
    21fc:	aec43423          	sd	a2,-1304(s0)
    2200:	03a50ab3          	mul	s5,a0,s10
    2204:	af043603          	ld	a2,-1296(s0)
    2208:	00ca8633          	add	a2,s5,a2
    220c:	aec43823          	sd	a2,-1296(s0)
    2210:	03250ab3          	mul	s5,a0,s2
    2214:	af843603          	ld	a2,-1288(s0)
    2218:	00ca8633          	add	a2,s5,a2
    221c:	aec43c23          	sd	a2,-1288(s0)
    2220:	02950ab3          	mul	s5,a0,s1
    2224:	b0043603          	ld	a2,-1280(s0)
    2228:	00ca8633          	add	a2,s5,a2
    222c:	b0c43023          	sd	a2,-1280(s0)
    2230:	03f50ab3          	mul	s5,a0,t6
    2234:	b0843603          	ld	a2,-1272(s0)
    2238:	00ca8633          	add	a2,s5,a2
    223c:	b0c43423          	sd	a2,-1272(s0)
    2240:	03e50ab3          	mul	s5,a0,t5
    2244:	b1043603          	ld	a2,-1264(s0)
    2248:	00ca8633          	add	a2,s5,a2
    224c:	b0c43823          	sd	a2,-1264(s0)
    2250:	03d50ab3          	mul	s5,a0,t4
    2254:	b1843603          	ld	a2,-1256(s0)
    2258:	00ca8633          	add	a2,s5,a2
    225c:	b0c43c23          	sd	a2,-1256(s0)
    2260:	03c50ab3          	mul	s5,a0,t3
    2264:	b2043603          	ld	a2,-1248(s0)
    2268:	00ca8633          	add	a2,s5,a2
    226c:	b2c43023          	sd	a2,-1248(s0)
    2270:	02650ab3          	mul	s5,a0,t1
    2274:	00030e13          	mv	t3,t1
    2278:	b2843603          	ld	a2,-1240(s0)
    227c:	00ca8633          	add	a2,s5,a2
    2280:	b2c43423          	sd	a2,-1240(s0)
    2284:	03150ab3          	mul	s5,a0,a7
    2288:	b3043603          	ld	a2,-1232(s0)
    228c:	00ca8633          	add	a2,s5,a2
    2290:	b2c43823          	sd	a2,-1232(s0)
    2294:	02550ab3          	mul	s5,a0,t0
    2298:	b3843603          	ld	a2,-1224(s0)
    229c:	00ca8633          	add	a2,s5,a2
    22a0:	b2c43c23          	sd	a2,-1224(s0)
    22a4:	02750ab3          	mul	s5,a0,t2
    22a8:	b4043603          	ld	a2,-1216(s0)
    22ac:	00ca8633          	add	a2,s5,a2
    22b0:	b4c43023          	sd	a2,-1216(s0)
    22b4:	f6843e83          	ld	t4,-152(s0)
    22b8:	03d50ab3          	mul	s5,a0,t4
    22bc:	b4843603          	ld	a2,-1208(s0)
    22c0:	00ca8633          	add	a2,s5,a2
    22c4:	b4c43423          	sd	a2,-1208(s0)
    22c8:	ea043883          	ld	a7,-352(s0)
    22cc:	03150ab3          	mul	s5,a0,a7
    22d0:	b5043603          	ld	a2,-1200(s0)
    22d4:	00ca8633          	add	a2,s5,a2
    22d8:	b4c43823          	sd	a2,-1200(s0)
    22dc:	f5843603          	ld	a2,-168(s0)
    22e0:	02c50ab3          	mul	s5,a0,a2
    22e4:	b5843603          	ld	a2,-1192(s0)
    22e8:	00ca8633          	add	a2,s5,a2
    22ec:	b4c43c23          	sd	a2,-1192(s0)
    22f0:	03950ab3          	mul	s5,a0,s9
    22f4:	b6043603          	ld	a2,-1184(s0)
    22f8:	00ca8633          	add	a2,s5,a2
    22fc:	b6c43023          	sd	a2,-1184(s0)
    2300:	03650ab3          	mul	s5,a0,s6
    2304:	b6843603          	ld	a2,-1176(s0)
    2308:	00ca8633          	add	a2,s5,a2
    230c:	b6c43423          	sd	a2,-1176(s0)
    2310:	ed843303          	ld	t1,-296(s0)
    2314:	02650ab3          	mul	s5,a0,t1
    2318:	b7043603          	ld	a2,-1168(s0)
    231c:	00ca8633          	add	a2,s5,a2
    2320:	b6c43823          	sd	a2,-1168(s0)
    2324:	03750ab3          	mul	s5,a0,s7
    2328:	b7843603          	ld	a2,-1160(s0)
    232c:	00ca8633          	add	a2,s5,a2
    2330:	b6c43c23          	sd	a2,-1160(s0)
    2334:	02e50ab3          	mul	s5,a0,a4
    2338:	b8043603          	ld	a2,-1152(s0)
    233c:	00ca8633          	add	a2,s5,a2
    2340:	b8c43023          	sd	a2,-1152(s0)
    2344:	ec043703          	ld	a4,-320(s0)
    2348:	02e50ab3          	mul	s5,a0,a4
    234c:	b8843603          	ld	a2,-1144(s0)
    2350:	00ca8633          	add	a2,s5,a2
    2354:	b8c43423          	sd	a2,-1144(s0)
    2358:	02b50ab3          	mul	s5,a0,a1
    235c:	00058393          	mv	t2,a1
    2360:	b9043603          	ld	a2,-1136(s0)
    2364:	00ca8633          	add	a2,s5,a2
    2368:	b8c43823          	sd	a2,-1136(s0)
    236c:	f8043603          	ld	a2,-128(s0)
    2370:	18060a83          	lb	s5,384(a2)
    2374:	02150db3          	mul	s11,a0,ra
    2378:	b9843603          	ld	a2,-1128(s0)
    237c:	00cd8633          	add	a2,s11,a2
    2380:	b8c43c23          	sd	a2,-1128(s0)
    2384:	02d50533          	mul	a0,a0,a3
    2388:	ba043603          	ld	a2,-1120(s0)
    238c:	00c50633          	add	a2,a0,a2
    2390:	bac43023          	sd	a2,-1120(s0)
    2394:	034a8533          	mul	a0,s5,s4
    2398:	000a0293          	mv	t0,s4
    239c:	ba843603          	ld	a2,-1112(s0)
    23a0:	00c50633          	add	a2,a0,a2
    23a4:	bac43423          	sd	a2,-1112(s0)
    23a8:	ed043683          	ld	a3,-304(s0)
    23ac:	02da8533          	mul	a0,s5,a3
    23b0:	bb043603          	ld	a2,-1104(s0)
    23b4:	00c50633          	add	a2,a0,a2
    23b8:	bac43823          	sd	a2,-1104(s0)
    23bc:	f1043583          	ld	a1,-240(s0)
    23c0:	02ba8533          	mul	a0,s5,a1
    23c4:	bb843603          	ld	a2,-1096(s0)
    23c8:	00c50633          	add	a2,a0,a2
    23cc:	bac43c23          	sd	a2,-1096(s0)
    23d0:	02fa8533          	mul	a0,s5,a5
    23d4:	bc043603          	ld	a2,-1088(s0)
    23d8:	00c50633          	add	a2,a0,a2
    23dc:	bcc43023          	sd	a2,-1088(s0)
    23e0:	030a8533          	mul	a0,s5,a6
    23e4:	bc843603          	ld	a2,-1080(s0)
    23e8:	00c50633          	add	a2,a0,a2
    23ec:	bcc43423          	sd	a2,-1080(s0)
    23f0:	ec843803          	ld	a6,-312(s0)
    23f4:	030a8533          	mul	a0,s5,a6
    23f8:	bd043603          	ld	a2,-1072(s0)
    23fc:	00c50633          	add	a2,a0,a2
    2400:	bcc43823          	sd	a2,-1072(s0)
    2404:	f2843083          	ld	ra,-216(s0)
    2408:	021a8533          	mul	a0,s5,ra
    240c:	bd843603          	ld	a2,-1064(s0)
    2410:	00c50633          	add	a2,a0,a2
    2414:	bcc43c23          	sd	a2,-1064(s0)
    2418:	038a8533          	mul	a0,s5,s8
    241c:	be043603          	ld	a2,-1056(s0)
    2420:	00c50633          	add	a2,a0,a2
    2424:	bec43023          	sd	a2,-1056(s0)
    2428:	033a8533          	mul	a0,s5,s3
    242c:	be843603          	ld	a2,-1048(s0)
    2430:	00c50633          	add	a2,a0,a2
    2434:	bec43423          	sd	a2,-1048(s0)
    2438:	00001537          	lui	a0,0x1
    243c:	40a40533          	sub	a0,s0,a0
    2440:	69a53423          	sd	s10,1672(a0) # 1688 <.LBB63_5+0x260>
    2444:	03aa8533          	mul	a0,s5,s10
    2448:	bf043603          	ld	a2,-1040(s0)
    244c:	00c50633          	add	a2,a0,a2
    2450:	bec43823          	sd	a2,-1040(s0)
    2454:	032a8533          	mul	a0,s5,s2
    2458:	bf843603          	ld	a2,-1032(s0)
    245c:	00c50633          	add	a2,a0,a2
    2460:	bec43c23          	sd	a2,-1032(s0)
    2464:	029a8533          	mul	a0,s5,s1
    2468:	c0043603          	ld	a2,-1024(s0)
    246c:	00c50633          	add	a2,a0,a2
    2470:	c0c43023          	sd	a2,-1024(s0)
    2474:	03fa8533          	mul	a0,s5,t6
    2478:	c0843603          	ld	a2,-1016(s0)
    247c:	00c50633          	add	a2,a0,a2
    2480:	c0c43423          	sd	a2,-1016(s0)
    2484:	03ea8533          	mul	a0,s5,t5
    2488:	c1043603          	ld	a2,-1008(s0)
    248c:	00c50633          	add	a2,a0,a2
    2490:	c0c43823          	sd	a2,-1008(s0)
    2494:	00001537          	lui	a0,0x1
    2498:	40a40533          	sub	a0,s0,a0
    249c:	69853b83          	ld	s7,1688(a0) # 1698 <.LBB63_5+0x270>
    24a0:	037a8533          	mul	a0,s5,s7
    24a4:	c1843603          	ld	a2,-1000(s0)
    24a8:	00c50633          	add	a2,a0,a2
    24ac:	c0c43c23          	sd	a2,-1000(s0)
    24b0:	00001537          	lui	a0,0x1
    24b4:	40a40533          	sub	a0,s0,a0
    24b8:	69053c83          	ld	s9,1680(a0) # 1690 <.LBB63_5+0x268>
    24bc:	039a8533          	mul	a0,s5,s9
    24c0:	c2043603          	ld	a2,-992(s0)
    24c4:	00c50633          	add	a2,a0,a2
    24c8:	c2c43023          	sd	a2,-992(s0)
    24cc:	03ca8533          	mul	a0,s5,t3
    24d0:	c2843603          	ld	a2,-984(s0)
    24d4:	00c50633          	add	a2,a0,a2
    24d8:	c2c43423          	sd	a2,-984(s0)
    24dc:	e9043e03          	ld	t3,-368(s0)
    24e0:	03ca8533          	mul	a0,s5,t3
    24e4:	c3043603          	ld	a2,-976(s0)
    24e8:	00c50633          	add	a2,a0,a2
    24ec:	c2c43823          	sd	a2,-976(s0)
    24f0:	f5043503          	ld	a0,-176(s0)
    24f4:	02aa8533          	mul	a0,s5,a0
    24f8:	c3843603          	ld	a2,-968(s0)
    24fc:	00c50633          	add	a2,a0,a2
    2500:	c2c43c23          	sd	a2,-968(s0)
    2504:	f4843503          	ld	a0,-184(s0)
    2508:	02aa8533          	mul	a0,s5,a0
    250c:	c4043603          	ld	a2,-960(s0)
    2510:	00c50633          	add	a2,a0,a2
    2514:	c4c43023          	sd	a2,-960(s0)
    2518:	000e8993          	mv	s3,t4
    251c:	03da8533          	mul	a0,s5,t4
    2520:	c4843603          	ld	a2,-952(s0)
    2524:	00c50633          	add	a2,a0,a2
    2528:	c4c43423          	sd	a2,-952(s0)
    252c:	00088a13          	mv	s4,a7
    2530:	031a8533          	mul	a0,s5,a7
    2534:	c5043603          	ld	a2,-944(s0)
    2538:	00c50633          	add	a2,a0,a2
    253c:	c4c43823          	sd	a2,-944(s0)
    2540:	f5843783          	ld	a5,-168(s0)
    2544:	02fa8533          	mul	a0,s5,a5
    2548:	c5843603          	ld	a2,-936(s0)
    254c:	00c50633          	add	a2,a0,a2
    2550:	c4c43c23          	sd	a2,-936(s0)
    2554:	ee043883          	ld	a7,-288(s0)
    2558:	031a8533          	mul	a0,s5,a7
    255c:	c6043603          	ld	a2,-928(s0)
    2560:	00c50633          	add	a2,a0,a2
    2564:	c6c43023          	sd	a2,-928(s0)
    2568:	036a8533          	mul	a0,s5,s6
    256c:	c6843603          	ld	a2,-920(s0)
    2570:	00c50633          	add	a2,a0,a2
    2574:	c6c43423          	sd	a2,-920(s0)
    2578:	026a8533          	mul	a0,s5,t1
    257c:	c7043603          	ld	a2,-912(s0)
    2580:	00c50633          	add	a2,a0,a2
    2584:	c6c43823          	sd	a2,-912(s0)
    2588:	f2043503          	ld	a0,-224(s0)
    258c:	02aa8533          	mul	a0,s5,a0
    2590:	c7843603          	ld	a2,-904(s0)
    2594:	00c50633          	add	a2,a0,a2
    2598:	c6c43c23          	sd	a2,-904(s0)
    259c:	f4043503          	ld	a0,-192(s0)
    25a0:	02aa8533          	mul	a0,s5,a0
    25a4:	c8043603          	ld	a2,-896(s0)
    25a8:	00c50633          	add	a2,a0,a2
    25ac:	c8c43023          	sd	a2,-896(s0)
    25b0:	02ea8533          	mul	a0,s5,a4
    25b4:	c8843603          	ld	a2,-888(s0)
    25b8:	00c50633          	add	a2,a0,a2
    25bc:	c8c43423          	sd	a2,-888(s0)
    25c0:	027a8533          	mul	a0,s5,t2
    25c4:	c9043603          	ld	a2,-880(s0)
    25c8:	00c50633          	add	a2,a0,a2
    25cc:	c8c43823          	sd	a2,-880(s0)
    25d0:	f8043503          	ld	a0,-128(s0)
    25d4:	30050503          	lb	a0,768(a0)
    25d8:	f1843603          	ld	a2,-232(s0)
    25dc:	02ca8db3          	mul	s11,s5,a2
    25e0:	c9843603          	ld	a2,-872(s0)
    25e4:	00cd8633          	add	a2,s11,a2
    25e8:	c8c43c23          	sd	a2,-872(s0)
    25ec:	e9843c03          	ld	s8,-360(s0)
    25f0:	038a8ab3          	mul	s5,s5,s8
    25f4:	ca043603          	ld	a2,-864(s0)
    25f8:	00ca8633          	add	a2,s5,a2
    25fc:	cac43023          	sd	a2,-864(s0)
    2600:	02550ab3          	mul	s5,a0,t0
    2604:	ca843603          	ld	a2,-856(s0)
    2608:	00ca8633          	add	a2,s5,a2
    260c:	cac43423          	sd	a2,-856(s0)
    2610:	02d50ab3          	mul	s5,a0,a3
    2614:	cb043603          	ld	a2,-848(s0)
    2618:	00ca8633          	add	a2,s5,a2
    261c:	cac43823          	sd	a2,-848(s0)
    2620:	02b50ab3          	mul	s5,a0,a1
    2624:	cb843603          	ld	a2,-840(s0)
    2628:	00ca8633          	add	a2,s5,a2
    262c:	cac43c23          	sd	a2,-840(s0)
    2630:	f3843583          	ld	a1,-200(s0)
    2634:	02b50ab3          	mul	s5,a0,a1
    2638:	cc043603          	ld	a2,-832(s0)
    263c:	00ca8633          	add	a2,s5,a2
    2640:	ccc43023          	sd	a2,-832(s0)
    2644:	f3043583          	ld	a1,-208(s0)
    2648:	02b50ab3          	mul	s5,a0,a1
    264c:	cc843603          	ld	a2,-824(s0)
    2650:	00ca8633          	add	a2,s5,a2
    2654:	ccc43423          	sd	a2,-824(s0)
    2658:	03050ab3          	mul	s5,a0,a6
    265c:	cd043603          	ld	a2,-816(s0)
    2660:	00ca8633          	add	a2,s5,a2
    2664:	ccc43823          	sd	a2,-816(s0)
    2668:	02150ab3          	mul	s5,a0,ra
    266c:	cd843603          	ld	a2,-808(s0)
    2670:	00ca8633          	add	a2,s5,a2
    2674:	ccc43c23          	sd	a2,-808(s0)
    2678:	f6043083          	ld	ra,-160(s0)
    267c:	02150ab3          	mul	s5,a0,ra
    2680:	ce043603          	ld	a2,-800(s0)
    2684:	00ca8633          	add	a2,s5,a2
    2688:	cec43023          	sd	a2,-800(s0)
    268c:	f7043583          	ld	a1,-144(s0)
    2690:	02b50ab3          	mul	s5,a0,a1
    2694:	ce843603          	ld	a2,-792(s0)
    2698:	00ca8633          	add	a2,s5,a2
    269c:	cec43423          	sd	a2,-792(s0)
    26a0:	03a50ab3          	mul	s5,a0,s10
    26a4:	cf043603          	ld	a2,-784(s0)
    26a8:	00ca8633          	add	a2,s5,a2
    26ac:	cec43823          	sd	a2,-784(s0)
    26b0:	03250ab3          	mul	s5,a0,s2
    26b4:	00090d13          	mv	s10,s2
    26b8:	cf843603          	ld	a2,-776(s0)
    26bc:	00ca8633          	add	a2,s5,a2
    26c0:	cec43c23          	sd	a2,-776(s0)
    26c4:	02950ab3          	mul	s5,a0,s1
    26c8:	00048913          	mv	s2,s1
    26cc:	d0043603          	ld	a2,-768(s0)
    26d0:	00ca8633          	add	a2,s5,a2
    26d4:	d0c43023          	sd	a2,-768(s0)
    26d8:	03f50ab3          	mul	s5,a0,t6
    26dc:	000f8493          	mv	s1,t6
    26e0:	d0843603          	ld	a2,-760(s0)
    26e4:	00ca8633          	add	a2,s5,a2
    26e8:	d0c43423          	sd	a2,-760(s0)
    26ec:	03e50ab3          	mul	s5,a0,t5
    26f0:	000f0f93          	mv	t6,t5
    26f4:	d1043603          	ld	a2,-752(s0)
    26f8:	00ca8633          	add	a2,s5,a2
    26fc:	d0c43823          	sd	a2,-752(s0)
    2700:	000b8f13          	mv	t5,s7
    2704:	03750ab3          	mul	s5,a0,s7
    2708:	d1843603          	ld	a2,-744(s0)
    270c:	00ca8633          	add	a2,s5,a2
    2710:	d0c43c23          	sd	a2,-744(s0)
    2714:	000c8e93          	mv	t4,s9
    2718:	03950ab3          	mul	s5,a0,s9
    271c:	d2043603          	ld	a2,-736(s0)
    2720:	00ca8633          	add	a2,s5,a2
    2724:	d2c43023          	sd	a2,-736(s0)
    2728:	e8843c83          	ld	s9,-376(s0)
    272c:	03950ab3          	mul	s5,a0,s9
    2730:	d2843603          	ld	a2,-728(s0)
    2734:	00ca8633          	add	a2,s5,a2
    2738:	d2c43423          	sd	a2,-728(s0)
    273c:	03c50ab3          	mul	s5,a0,t3
    2740:	d3043603          	ld	a2,-720(s0)
    2744:	00ca8633          	add	a2,s5,a2
    2748:	d2c43823          	sd	a2,-720(s0)
    274c:	f5043383          	ld	t2,-176(s0)
    2750:	02750ab3          	mul	s5,a0,t2
    2754:	d3843603          	ld	a2,-712(s0)
    2758:	00ca8633          	add	a2,s5,a2
    275c:	d2c43c23          	sd	a2,-712(s0)
    2760:	f4843303          	ld	t1,-184(s0)
    2764:	02650ab3          	mul	s5,a0,t1
    2768:	d4043603          	ld	a2,-704(s0)
    276c:	00ca8633          	add	a2,s5,a2
    2770:	d4c43023          	sd	a2,-704(s0)
    2774:	03350ab3          	mul	s5,a0,s3
    2778:	d4843603          	ld	a2,-696(s0)
    277c:	00ca8633          	add	a2,s5,a2
    2780:	d4c43423          	sd	a2,-696(s0)
    2784:	03450ab3          	mul	s5,a0,s4
    2788:	d5043603          	ld	a2,-688(s0)
    278c:	00ca8633          	add	a2,s5,a2
    2790:	d4c43823          	sd	a2,-688(s0)
    2794:	00078293          	mv	t0,a5
    2798:	02f50ab3          	mul	s5,a0,a5
    279c:	d5843603          	ld	a2,-680(s0)
    27a0:	00ca8633          	add	a2,s5,a2
    27a4:	d4c43c23          	sd	a2,-680(s0)
    27a8:	03150ab3          	mul	s5,a0,a7
    27ac:	d6043603          	ld	a2,-672(s0)
    27b0:	00ca8633          	add	a2,s5,a2
    27b4:	d6c43023          	sd	a2,-672(s0)
    27b8:	000b0793          	mv	a5,s6
    27bc:	03650ab3          	mul	s5,a0,s6
    27c0:	d6843603          	ld	a2,-664(s0)
    27c4:	00ca8633          	add	a2,s5,a2
    27c8:	d6c43423          	sd	a2,-664(s0)
    27cc:	ed843b03          	ld	s6,-296(s0)
    27d0:	03650ab3          	mul	s5,a0,s6
    27d4:	d7043603          	ld	a2,-656(s0)
    27d8:	00ca8633          	add	a2,s5,a2
    27dc:	d6c43823          	sd	a2,-656(s0)
    27e0:	f2043703          	ld	a4,-224(s0)
    27e4:	02e50ab3          	mul	s5,a0,a4
    27e8:	d7843603          	ld	a2,-648(s0)
    27ec:	00ca8633          	add	a2,s5,a2
    27f0:	d6c43c23          	sd	a2,-648(s0)
    27f4:	f4043b83          	ld	s7,-192(s0)
    27f8:	03750ab3          	mul	s5,a0,s7
    27fc:	d8043603          	ld	a2,-640(s0)
    2800:	00ca8633          	add	a2,s5,a2
    2804:	d8c43023          	sd	a2,-640(s0)
    2808:	ec043683          	ld	a3,-320(s0)
    280c:	02d50ab3          	mul	s5,a0,a3
    2810:	d8843603          	ld	a2,-632(s0)
    2814:	00ca8633          	add	a2,s5,a2
    2818:	d8c43423          	sd	a2,-632(s0)
    281c:	eb843583          	ld	a1,-328(s0)
    2820:	02b50ab3          	mul	s5,a0,a1
    2824:	d9043603          	ld	a2,-624(s0)
    2828:	00ca8633          	add	a2,s5,a2
    282c:	d8c43823          	sd	a2,-624(s0)
    2830:	f8043603          	ld	a2,-128(s0)
    2834:	48060a83          	lb	s5,1152(a2)
    2838:	f1843803          	ld	a6,-232(s0)
    283c:	03050db3          	mul	s11,a0,a6
    2840:	d9843603          	ld	a2,-616(s0)
    2844:	00cd8633          	add	a2,s11,a2
    2848:	d8c43c23          	sd	a2,-616(s0)
    284c:	03850533          	mul	a0,a0,s8
    2850:	da043603          	ld	a2,-608(s0)
    2854:	00c50633          	add	a2,a0,a2
    2858:	dac43023          	sd	a2,-608(s0)
    285c:	038a8533          	mul	a0,s5,s8
    2860:	e8a43c23          	sd	a0,-360(s0)
    2864:	030a8533          	mul	a0,s5,a6
    2868:	f0a43c23          	sd	a0,-232(s0)
    286c:	02ba8533          	mul	a0,s5,a1
    2870:	eaa43c23          	sd	a0,-328(s0)
    2874:	02da8533          	mul	a0,s5,a3
    2878:	eca43023          	sd	a0,-320(s0)
    287c:	037a8533          	mul	a0,s5,s7
    2880:	000015b7          	lui	a1,0x1
    2884:	40b405b3          	sub	a1,s0,a1
    2888:	68a5b023          	sd	a0,1664(a1) # 1680 <.LBB63_5+0x258>
    288c:	02ea8533          	mul	a0,s5,a4
    2890:	f4a43023          	sd	a0,-192(s0)
    2894:	036a8533          	mul	a0,s5,s6
    2898:	f2a43023          	sd	a0,-224(s0)
    289c:	02fa8533          	mul	a0,s5,a5
    28a0:	eca43c23          	sd	a0,-296(s0)
    28a4:	031a8533          	mul	a0,s5,a7
    28a8:	eea43023          	sd	a0,-288(s0)
    28ac:	025a8c33          	mul	s8,s5,t0
    28b0:	034a8bb3          	mul	s7,s5,s4
    28b4:	033a8b33          	mul	s6,s5,s3
    28b8:	026a8a33          	mul	s4,s5,t1
    28bc:	027a89b3          	mul	s3,s5,t2
    28c0:	03ca8833          	mul	a6,s5,t3
    28c4:	039a88b3          	mul	a7,s5,s9
    28c8:	03da82b3          	mul	t0,s5,t4
    28cc:	03ea8eb3          	mul	t4,s5,t5
    28d0:	03fa8f33          	mul	t5,s5,t6
    28d4:	029a8fb3          	mul	t6,s5,s1
    28d8:	032a84b3          	mul	s1,s5,s2
    28dc:	03aa8933          	mul	s2,s5,s10
    28e0:	00001537          	lui	a0,0x1
    28e4:	40a40533          	sub	a0,s0,a0
    28e8:	68853503          	ld	a0,1672(a0) # 1688 <.LBB63_5+0x260>
    28ec:	02aa8cb3          	mul	s9,s5,a0
    28f0:	f7043503          	ld	a0,-144(s0)
    28f4:	02aa8d33          	mul	s10,s5,a0
    28f8:	021a8db3          	mul	s11,s5,ra
    28fc:	f2843503          	ld	a0,-216(s0)
    2900:	02aa8733          	mul	a4,s5,a0
    2904:	ec843503          	ld	a0,-312(s0)
    2908:	02aa80b3          	mul	ra,s5,a0
    290c:	f3043503          	ld	a0,-208(s0)
    2910:	02aa86b3          	mul	a3,s5,a0
    2914:	f3843503          	ld	a0,-200(s0)
    2918:	02aa8633          	mul	a2,s5,a0
    291c:	f1043503          	ld	a0,-240(s0)
    2920:	02aa85b3          	mul	a1,s5,a0
    2924:	ed043503          	ld	a0,-304(s0)
    2928:	02aa8533          	mul	a0,s5,a0
    292c:	ee843783          	ld	a5,-280(s0)
    2930:	02fa8ab3          	mul	s5,s5,a5
    2934:	da843783          	ld	a5,-600(s0)
    2938:	00fa87b3          	add	a5,s5,a5
    293c:	daf43423          	sd	a5,-600(s0)
    2940:	e1843a83          	ld	s5,-488(s0)
    2944:	db043783          	ld	a5,-592(s0)
    2948:	00f507b3          	add	a5,a0,a5
    294c:	daf43823          	sd	a5,-592(s0)
    2950:	db843503          	ld	a0,-584(s0)
    2954:	00a58533          	add	a0,a1,a0
    2958:	daa43c23          	sd	a0,-584(s0)
    295c:	dc043503          	ld	a0,-576(s0)
    2960:	00a60533          	add	a0,a2,a0
    2964:	dca43023          	sd	a0,-576(s0)
    2968:	dc843503          	ld	a0,-568(s0)
    296c:	00a68533          	add	a0,a3,a0
    2970:	dca43423          	sd	a0,-568(s0)
    2974:	e8043683          	ld	a3,-384(s0)
    2978:	dd043503          	ld	a0,-560(s0)
    297c:	00a08533          	add	a0,ra,a0
    2980:	dca43823          	sd	a0,-560(s0)
    2984:	df843083          	ld	ra,-520(s0)
    2988:	dd843503          	ld	a0,-552(s0)
    298c:	00a70533          	add	a0,a4,a0
    2990:	dca43c23          	sd	a0,-552(s0)
    2994:	e7843703          	ld	a4,-392(s0)
    2998:	de043503          	ld	a0,-544(s0)
    299c:	00ad8533          	add	a0,s11,a0
    29a0:	dea43023          	sd	a0,-544(s0)
    29a4:	de843503          	ld	a0,-536(s0)
    29a8:	00ad0533          	add	a0,s10,a0
    29ac:	dea43423          	sd	a0,-536(s0)
    29b0:	e0043d03          	ld	s10,-512(s0)
    29b4:	df043503          	ld	a0,-528(s0)
    29b8:	00ac8533          	add	a0,s9,a0
    29bc:	dea43823          	sd	a0,-528(s0)
    29c0:	e0843c83          	ld	s9,-504(s0)
    29c4:	001900b3          	add	ra,s2,ra
    29c8:	e2043903          	ld	s2,-480(s0)
    29cc:	01a48d33          	add	s10,s1,s10
    29d0:	e2843483          	ld	s1,-472(s0)
    29d4:	019f8cb3          	add	s9,t6,s9
    29d8:	e3043f83          	ld	t6,-464(s0)
    29dc:	e1043503          	ld	a0,-496(s0)
    29e0:	00af0533          	add	a0,t5,a0
    29e4:	e0a43823          	sd	a0,-496(s0)
    29e8:	e3843f03          	ld	t5,-456(s0)
    29ec:	015e8ab3          	add	s5,t4,s5
    29f0:	e4043e83          	ld	t4,-448(s0)
    29f4:	01228933          	add	s2,t0,s2
    29f8:	e4843e03          	ld	t3,-440(s0)
    29fc:	009884b3          	add	s1,a7,s1
    2a00:	e5843303          	ld	t1,-424(s0)
    2a04:	01f80fb3          	add	t6,a6,t6
    2a08:	e6043883          	ld	a7,-416(s0)
    2a0c:	01e98f33          	add	t5,s3,t5
    2a10:	01da0eb3          	add	t4,s4,t4
    2a14:	e5043383          	ld	t2,-432(s0)
    2a18:	ef043503          	ld	a0,-272(s0)
    2a1c:	00ab0533          	add	a0,s6,a0
    2a20:	f8843983          	ld	s3,-120(s0)
    2a24:	eea43823          	sd	a0,-272(s0)
    2a28:	ef043283          	ld	t0,-272(s0)
    2a2c:	ef843503          	ld	a0,-264(s0)
    2a30:	00ab8533          	add	a0,s7,a0
    2a34:	000015b7          	lui	a1,0x1
    2a38:	40b405b3          	sub	a1,s0,a1
    2a3c:	6a05ba03          	ld	s4,1696(a1) # 16a0 <.LBB63_5+0x278>
    2a40:	eea43c23          	sd	a0,-264(s0)
    2a44:	ef843603          	ld	a2,-264(s0)
    2a48:	f0043503          	ld	a0,-256(s0)
    2a4c:	00ac0533          	add	a0,s8,a0
    2a50:	f0a43023          	sd	a0,-256(s0)
    2a54:	f0043583          	ld	a1,-256(s0)
    2a58:	f0843503          	ld	a0,-248(s0)
    2a5c:	ee043783          	ld	a5,-288(s0)
    2a60:	00a78533          	add	a0,a5,a0
    2a64:	000017b7          	lui	a5,0x1
    2a68:	40f407b3          	sub	a5,s0,a5
    2a6c:	6a87bb83          	ld	s7,1704(a5) # 16a8 <.LBB63_5+0x280>
    2a70:	f0a43423          	sd	a0,-248(s0)
    2a74:	f0843503          	ld	a0,-248(s0)
    2a78:	ed843783          	ld	a5,-296(s0)
    2a7c:	01c78e33          	add	t3,a5,t3
    2a80:	f8043b03          	ld	s6,-128(s0)
    2a84:	f2043783          	ld	a5,-224(s0)
    2a88:	007783b3          	add	t2,a5,t2
    2a8c:	e6843803          	ld	a6,-408(s0)
    2a90:	f4043783          	ld	a5,-192(s0)
    2a94:	00678333          	add	t1,a5,t1
    2a98:	e7043783          	ld	a5,-400(s0)
    2a9c:	00001c37          	lui	s8,0x1
    2aa0:	41840c33          	sub	s8,s0,s8
    2aa4:	680c3c03          	ld	s8,1664(s8) # 1680 <.LBB63_5+0x258>
    2aa8:	011c08b3          	add	a7,s8,a7
    2aac:	ec043c03          	ld	s8,-320(s0)
    2ab0:	010c0833          	add	a6,s8,a6
    2ab4:	eb843c03          	ld	s8,-328(s0)
    2ab8:	00fc07b3          	add	a5,s8,a5
    2abc:	f1843c03          	ld	s8,-232(s0)
    2ac0:	00ec0733          	add	a4,s8,a4
    2ac4:	e9843c03          	ld	s8,-360(s0)
    2ac8:	00dc06b3          	add	a3,s8,a3
    2acc:	fc0a0a13          	addi	s4,s4,-64 # 5fc0 <.LBB63_236+0x1c>
    2ad0:	04098993          	addi	s3,s3,64
    2ad4:	001b0b13          	addi	s6,s6,1
    2ad8:	000a0463          	beqz	s4,2ae0 <.LBB63_6>
    2adc:	94dfe06f          	j	1428 <.LBB63_5>

0000000000002ae0 <.LBB63_6>:
    2ae0:	00001537          	lui	a0,0x1
    2ae4:	40a40533          	sub	a0,s0,a0
    2ae8:	6b053c03          	ld	s8,1712(a0) # 16b0 <.LBB63_5+0x288>
    2aec:	00001537          	lui	a0,0x1
    2af0:	40a40533          	sub	a0,s0,a0
    2af4:	6b853a03          	ld	s4,1720(a0) # 16b8 <.LBB63_5+0x290>
    2af8:	00001537          	lui	a0,0x1
    2afc:	40a40533          	sub	a0,s0,a0
    2b00:	5e053b83          	ld	s7,1504(a0) # 15e0 <.LBB63_5+0x1b8>
    2b04:	002b9d93          	slli	s11,s7,0x2

0000000000002b08 <.Lpcrel_hi11>:
    2b08:	00000517          	auipc	a0,0x0
    2b0c:	00050513          	mv	a0,a0
    2b10:	000025b7          	lui	a1,0x2
    2b14:	40b405b3          	sub	a1,s0,a1
    2b18:	04a5b023          	sd	a0,64(a1) # 2040 <.LBB63_5+0xc18>
    2b1c:	01b50533          	add	a0,a0,s11
    2b20:	000015b7          	lui	a1,0x1
    2b24:	40b405b3          	sub	a1,s0,a1
    2b28:	0485b583          	ld	a1,72(a1) # 1048 <.LBB63_4+0x1a8>
    2b2c:	0005ab03          	lw	s6,0(a1)
    2b30:	000025b7          	lui	a1,0x2
    2b34:	40b405b3          	sub	a1,s0,a1
    2b38:	0585b583          	ld	a1,88(a1) # 2058 <.LBB63_5+0xc30>
    2b3c:	01b58db3          	add	s11,a1,s11
    2b40:	07cda583          	lw	a1,124(s11)
    2b44:	07c52283          	lw	t0,124(a0) # 2b84 <.Lpcrel_hi11+0x7c>
    2b48:	001b1613          	slli	a2,s6,0x1
    2b4c:	01660b33          	add	s6,a2,s6
    2b50:	00759613          	slli	a2,a1,0x7
    2b54:	ea543823          	sd	t0,-336(s0)
    2b58:	000015b7          	lui	a1,0x1
    2b5c:	40b405b3          	sub	a1,s0,a1
    2b60:	6c05b583          	ld	a1,1728(a1) # 16c0 <.LBB63_5+0x298>
    2b64:	005585b3          	add	a1,a1,t0
    2b68:	eac43423          	sd	a2,-344(s0)
    2b6c:	00c585b3          	add	a1,a1,a2
    2b70:	000242b7          	lui	t0,0x24
    2b74:	005b0633          	add	a2,s6,t0
    2b78:	00c5863b          	addw	a2,a1,a2
    2b7c:	400005b7          	lui	a1,0x40000
    2b80:	000019b7          	lui	s3,0x1
    2b84:	413409b3          	sub	s3,s0,s3
    2b88:	66b9b423          	sd	a1,1640(s3) # 1668 <.LBB63_5+0x240>
    2b8c:	000019b7          	lui	s3,0x1
    2b90:	413409b3          	sub	s3,s0,s3
    2b94:	66c9b023          	sd	a2,1632(s3) # 1660 <.LBB63_5+0x238>
    2b98:	00065463          	bgez	a2,2ba0 <.LBB63_8>
    2b9c:	c00005b7          	lui	a1,0xc0000

0000000000002ba0 <.LBB63_8>:
    2ba0:	00001637          	lui	a2,0x1
    2ba4:	40c40633          	sub	a2,s0,a2
    2ba8:	64b63c23          	sd	a1,1624(a2) # 1658 <.LBB63_5+0x230>
    2bac:	078da583          	lw	a1,120(s11)
    2bb0:	07852603          	lw	a2,120(a0)
    2bb4:	00759993          	slli	s3,a1,0x7
    2bb8:	eac43023          	sd	a2,-352(s0)
    2bbc:	00cc05b3          	add	a1,s8,a2
    2bc0:	e9343c23          	sd	s3,-360(s0)
    2bc4:	013585b3          	add	a1,a1,s3
    2bc8:	005b0633          	add	a2,s6,t0
    2bcc:	00c585bb          	addw	a1,a1,a2
    2bd0:	40000637          	lui	a2,0x40000
    2bd4:	000019b7          	lui	s3,0x1
    2bd8:	413409b3          	sub	s3,s0,s3
    2bdc:	64b9b823          	sd	a1,1616(s3) # 1650 <.LBB63_5+0x228>
    2be0:	0005d463          	bgez	a1,2be8 <.LBB63_10>
    2be4:	c0000637          	lui	a2,0xc0000

0000000000002be8 <.LBB63_10>:
    2be8:	000015b7          	lui	a1,0x1
    2bec:	40b405b3          	sub	a1,s0,a1
    2bf0:	64c5b423          	sd	a2,1608(a1) # 1648 <.LBB63_5+0x220>
    2bf4:	074da583          	lw	a1,116(s11)
    2bf8:	07452603          	lw	a2,116(a0)
    2bfc:	00759993          	slli	s3,a1,0x7
    2c00:	e8c43823          	sd	a2,-368(s0)
    2c04:	00ca05b3          	add	a1,s4,a2
    2c08:	e9343423          	sd	s3,-376(s0)
    2c0c:	013585b3          	add	a1,a1,s3
    2c10:	005b0633          	add	a2,s6,t0
    2c14:	00c585bb          	addw	a1,a1,a2
    2c18:	40000637          	lui	a2,0x40000
    2c1c:	000019b7          	lui	s3,0x1
    2c20:	413409b3          	sub	s3,s0,s3
    2c24:	64b9b023          	sd	a1,1600(s3) # 1640 <.LBB63_5+0x218>
    2c28:	0005d463          	bgez	a1,2c30 <.LBB63_12>
    2c2c:	c0000637          	lui	a2,0xc0000

0000000000002c30 <.LBB63_12>:
    2c30:	000015b7          	lui	a1,0x1
    2c34:	40b405b3          	sub	a1,s0,a1
    2c38:	62c5bc23          	sd	a2,1592(a1) # 1638 <.LBB63_5+0x210>
    2c3c:	070da583          	lw	a1,112(s11)
    2c40:	07052603          	lw	a2,112(a0)
    2c44:	00759993          	slli	s3,a1,0x7
    2c48:	000015b7          	lui	a1,0x1
    2c4c:	40b405b3          	sub	a1,s0,a1
    2c50:	6cc5b023          	sd	a2,1728(a1) # 16c0 <.LBB63_5+0x298>
    2c54:	000015b7          	lui	a1,0x1
    2c58:	40b405b3          	sub	a1,s0,a1
    2c5c:	6c85b583          	ld	a1,1736(a1) # 16c8 <.LBB63_5+0x2a0>
    2c60:	00c585b3          	add	a1,a1,a2
    2c64:	00001637          	lui	a2,0x1
    2c68:	40c40633          	sub	a2,s0,a2
    2c6c:	6d363423          	sd	s3,1736(a2) # 16c8 <.LBB63_5+0x2a0>
    2c70:	013585b3          	add	a1,a1,s3
    2c74:	005b0633          	add	a2,s6,t0
    2c78:	00c585bb          	addw	a1,a1,a2
    2c7c:	40000637          	lui	a2,0x40000
    2c80:	000019b7          	lui	s3,0x1
    2c84:	413409b3          	sub	s3,s0,s3
    2c88:	62b9b823          	sd	a1,1584(s3) # 1630 <.LBB63_5+0x208>
    2c8c:	0005d463          	bgez	a1,2c94 <.LBB63_14>
    2c90:	c0000637          	lui	a2,0xc0000

0000000000002c94 <.LBB63_14>:
    2c94:	000015b7          	lui	a1,0x1
    2c98:	40b405b3          	sub	a1,s0,a1
    2c9c:	62c5b423          	sd	a2,1576(a1) # 1628 <.LBB63_5+0x200>
    2ca0:	06cda583          	lw	a1,108(s11)
    2ca4:	06c52603          	lw	a2,108(a0)
    2ca8:	00759993          	slli	s3,a1,0x7
    2cac:	000015b7          	lui	a1,0x1
    2cb0:	40b405b3          	sub	a1,s0,a1
    2cb4:	6ac5bc23          	sd	a2,1720(a1) # 16b8 <.LBB63_5+0x290>
    2cb8:	000015b7          	lui	a1,0x1
    2cbc:	40b405b3          	sub	a1,s0,a1
    2cc0:	6d05b583          	ld	a1,1744(a1) # 16d0 <.LBB63_5+0x2a8>
    2cc4:	00c585b3          	add	a1,a1,a2
    2cc8:	00001637          	lui	a2,0x1
    2ccc:	40c40633          	sub	a2,s0,a2
    2cd0:	6d363823          	sd	s3,1744(a2) # 16d0 <.LBB63_5+0x2a8>
    2cd4:	013585b3          	add	a1,a1,s3
    2cd8:	005b0633          	add	a2,s6,t0
    2cdc:	00c585bb          	addw	a1,a1,a2
    2ce0:	40000637          	lui	a2,0x40000
    2ce4:	000019b7          	lui	s3,0x1
    2ce8:	413409b3          	sub	s3,s0,s3
    2cec:	62b9b023          	sd	a1,1568(s3) # 1620 <.LBB63_5+0x1f8>
    2cf0:	0005d463          	bgez	a1,2cf8 <.LBB63_16>
    2cf4:	c0000637          	lui	a2,0xc0000

0000000000002cf8 <.LBB63_16>:
    2cf8:	000015b7          	lui	a1,0x1
    2cfc:	40b405b3          	sub	a1,s0,a1
    2d00:	60c5bc23          	sd	a2,1560(a1) # 1618 <.LBB63_5+0x1f0>
    2d04:	068da583          	lw	a1,104(s11)
    2d08:	06852603          	lw	a2,104(a0)
    2d0c:	00759993          	slli	s3,a1,0x7
    2d10:	000015b7          	lui	a1,0x1
    2d14:	40b405b3          	sub	a1,s0,a1
    2d18:	6ac5b823          	sd	a2,1712(a1) # 16b0 <.LBB63_5+0x288>
    2d1c:	000015b7          	lui	a1,0x1
    2d20:	40b405b3          	sub	a1,s0,a1
    2d24:	6d85b583          	ld	a1,1752(a1) # 16d8 <.LBB63_5+0x2b0>
    2d28:	00c585b3          	add	a1,a1,a2
    2d2c:	00001637          	lui	a2,0x1
    2d30:	40c40633          	sub	a2,s0,a2
    2d34:	6d363c23          	sd	s3,1752(a2) # 16d8 <.LBB63_5+0x2b0>
    2d38:	013585b3          	add	a1,a1,s3
    2d3c:	005b0633          	add	a2,s6,t0
    2d40:	00c585bb          	addw	a1,a1,a2
    2d44:	40000637          	lui	a2,0x40000
    2d48:	000019b7          	lui	s3,0x1
    2d4c:	413409b3          	sub	s3,s0,s3
    2d50:	60b9b823          	sd	a1,1552(s3) # 1610 <.LBB63_5+0x1e8>
    2d54:	0005d463          	bgez	a1,2d5c <.LBB63_18>
    2d58:	c0000637          	lui	a2,0xc0000

0000000000002d5c <.LBB63_18>:
    2d5c:	000015b7          	lui	a1,0x1
    2d60:	40b405b3          	sub	a1,s0,a1
    2d64:	60c5b423          	sd	a2,1544(a1) # 1608 <.LBB63_5+0x1e0>
    2d68:	064da583          	lw	a1,100(s11)
    2d6c:	06452603          	lw	a2,100(a0)
    2d70:	00759993          	slli	s3,a1,0x7
    2d74:	000015b7          	lui	a1,0x1
    2d78:	40b405b3          	sub	a1,s0,a1
    2d7c:	6ac5b023          	sd	a2,1696(a1) # 16a0 <.LBB63_5+0x278>
    2d80:	000015b7          	lui	a1,0x1
    2d84:	40b405b3          	sub	a1,s0,a1
    2d88:	6e05b583          	ld	a1,1760(a1) # 16e0 <.LBB63_5+0x2b8>
    2d8c:	00c585b3          	add	a1,a1,a2
    2d90:	00001637          	lui	a2,0x1
    2d94:	40c40633          	sub	a2,s0,a2
    2d98:	6f363023          	sd	s3,1760(a2) # 16e0 <.LBB63_5+0x2b8>
    2d9c:	013585b3          	add	a1,a1,s3
    2da0:	005b0633          	add	a2,s6,t0
    2da4:	00c585bb          	addw	a1,a1,a2
    2da8:	40000637          	lui	a2,0x40000
    2dac:	000019b7          	lui	s3,0x1
    2db0:	413409b3          	sub	s3,s0,s3
    2db4:	60b9b023          	sd	a1,1536(s3) # 1600 <.LBB63_5+0x1d8>
    2db8:	0005d463          	bgez	a1,2dc0 <.LBB63_20>
    2dbc:	c0000637          	lui	a2,0xc0000

0000000000002dc0 <.LBB63_20>:
    2dc0:	000015b7          	lui	a1,0x1
    2dc4:	40b405b3          	sub	a1,s0,a1
    2dc8:	5ec5bc23          	sd	a2,1528(a1) # 15f8 <.LBB63_5+0x1d0>
    2dcc:	e1543c23          	sd	s5,-488(s0)
    2dd0:	e3243023          	sd	s2,-480(s0)
    2dd4:	e4743823          	sd	t2,-432(s0)
    2dd8:	e7143023          	sd	a7,-416(s0)
    2ddc:	e7043423          	sd	a6,-408(s0)
    2de0:	e6f43823          	sd	a5,-400(s0)
    2de4:	e6e43c23          	sd	a4,-392(s0)
    2de8:	e8d43023          	sd	a3,-384(s0)
    2dec:	060da583          	lw	a1,96(s11)
    2df0:	06052603          	lw	a2,96(a0)
    2df4:	00759693          	slli	a3,a1,0x7
    2df8:	000015b7          	lui	a1,0x1
    2dfc:	40b405b3          	sub	a1,s0,a1
    2e00:	68c5bc23          	sd	a2,1688(a1) # 1698 <.LBB63_5+0x270>
    2e04:	000015b7          	lui	a1,0x1
    2e08:	40b405b3          	sub	a1,s0,a1
    2e0c:	6e85b583          	ld	a1,1768(a1) # 16e8 <.LBB63_5+0x2c0>
    2e10:	00c585b3          	add	a1,a1,a2
    2e14:	00001637          	lui	a2,0x1
    2e18:	40c40633          	sub	a2,s0,a2
    2e1c:	6ed63423          	sd	a3,1768(a2) # 16e8 <.LBB63_5+0x2c0>
    2e20:	00d585b3          	add	a1,a1,a3
    2e24:	005b0633          	add	a2,s6,t0
    2e28:	00c585bb          	addw	a1,a1,a2
    2e2c:	40000637          	lui	a2,0x40000
    2e30:	000016b7          	lui	a3,0x1
    2e34:	40d406b3          	sub	a3,s0,a3
    2e38:	5eb6b823          	sd	a1,1520(a3) # 15f0 <.LBB63_5+0x1c8>
    2e3c:	000016b7          	lui	a3,0x1
    2e40:	40d406b3          	sub	a3,s0,a3
    2e44:	6f06b903          	ld	s2,1776(a3) # 16f0 <.LBB63_5+0x2c8>
    2e48:	000016b7          	lui	a3,0x1
    2e4c:	40d406b3          	sub	a3,s0,a3
    2e50:	6f86b983          	ld	s3,1784(a3) # 16f8 <.LBB63_5+0x2d0>
    2e54:	0005d463          	bgez	a1,2e5c <.LBB63_22>
    2e58:	c0000637          	lui	a2,0xc0000

0000000000002e5c <.LBB63_22>:
    2e5c:	000015b7          	lui	a1,0x1
    2e60:	40b405b3          	sub	a1,s0,a1
    2e64:	5ec5b423          	sd	a2,1512(a1) # 15e8 <.LBB63_5+0x1c0>
    2e68:	de143c23          	sd	ra,-520(s0)
    2e6c:	e1a43023          	sd	s10,-512(s0)
    2e70:	e1943423          	sd	s9,-504(s0)
    2e74:	e2943423          	sd	s1,-472(s0)
    2e78:	e3f43823          	sd	t6,-464(s0)
    2e7c:	e3e43c23          	sd	t5,-456(s0)
    2e80:	e5d43023          	sd	t4,-448(s0)
    2e84:	e5c43423          	sd	t3,-440(s0)
    2e88:	e4643c23          	sd	t1,-424(s0)
    2e8c:	05852e03          	lw	t3,88(a0)
    2e90:	05c52303          	lw	t1,92(a0)
    2e94:	058da583          	lw	a1,88(s11)
    2e98:	05cda783          	lw	a5,92(s11)
    2e9c:	00002637          	lui	a2,0x2
    2ea0:	40c40633          	sub	a2,s0,a2
    2ea4:	03863603          	ld	a2,56(a2) # 2038 <.LBB63_5+0xc10>
    2ea8:	00cbec33          	or	s8,s7,a2
    2eac:	00002637          	lui	a2,0x2
    2eb0:	40c40633          	sub	a2,s0,a2
    2eb4:	05063683          	ld	a3,80(a2) # 2050 <.LBB63_5+0xc28>
    2eb8:	00001637          	lui	a2,0x1
    2ebc:	40c40633          	sub	a2,s0,a2
    2ec0:	01863023          	sd	s8,0(a2) # 1000 <.LBB63_4+0x160>
    2ec4:	01868c33          	add	s8,a3,s8
    2ec8:	00002637          	lui	a2,0x2
    2ecc:	40c40633          	sub	a2,s0,a2
    2ed0:	03063603          	ld	a2,48(a2) # 2030 <.LBB63_5+0xc08>
    2ed4:	00cbeab3          	or	s5,s7,a2
    2ed8:	00001637          	lui	a2,0x1
    2edc:	40c40633          	sub	a2,s0,a2
    2ee0:	01563423          	sd	s5,8(a2) # 1008 <.LBB63_4+0x168>
    2ee4:	01568ab3          	add	s5,a3,s5
    2ee8:	00002637          	lui	a2,0x2
    2eec:	40c40633          	sub	a2,s0,a2
    2ef0:	02863603          	ld	a2,40(a2) # 2028 <.LBB63_5+0xc00>
    2ef4:	00cbea33          	or	s4,s7,a2
    2ef8:	00001637          	lui	a2,0x1
    2efc:	40c40633          	sub	a2,s0,a2
    2f00:	01463823          	sd	s4,16(a2) # 1010 <.LBB63_4+0x170>
    2f04:	01468a33          	add	s4,a3,s4
    2f08:	00002637          	lui	a2,0x2
    2f0c:	40c40633          	sub	a2,s0,a2
    2f10:	02063603          	ld	a2,32(a2) # 2020 <.LBB63_5+0xbf8>
    2f14:	00cbe3b3          	or	t2,s7,a2
    2f18:	00001637          	lui	a2,0x1
    2f1c:	40c40633          	sub	a2,s0,a2
    2f20:	00763c23          	sd	t2,24(a2) # 1018 <.LBB63_4+0x178>
    2f24:	007683b3          	add	t2,a3,t2
    2f28:	00002637          	lui	a2,0x2
    2f2c:	40c40633          	sub	a2,s0,a2
    2f30:	01863603          	ld	a2,24(a2) # 2018 <.LBB63_5+0xbf0>
    2f34:	00cbe833          	or	a6,s7,a2
    2f38:	00001637          	lui	a2,0x1
    2f3c:	40c40633          	sub	a2,s0,a2
    2f40:	03063023          	sd	a6,32(a2) # 1020 <.LBB63_4+0x180>
    2f44:	01068833          	add	a6,a3,a6
    2f48:	00002637          	lui	a2,0x2
    2f4c:	40c40633          	sub	a2,s0,a2
    2f50:	01063603          	ld	a2,16(a2) # 2010 <.LBB63_5+0xbe8>
    2f54:	00cbe733          	or	a4,s7,a2
    2f58:	00001637          	lui	a2,0x1
    2f5c:	40c40633          	sub	a2,s0,a2
    2f60:	02e63423          	sd	a4,40(a2) # 1028 <.LBB63_4+0x188>
    2f64:	00e68733          	add	a4,a3,a4
    2f68:	00002637          	lui	a2,0x2
    2f6c:	40c40633          	sub	a2,s0,a2
    2f70:	00863603          	ld	a2,8(a2) # 2008 <.LBB63_5+0xbe0>
    2f74:	00cbe633          	or	a2,s7,a2
    2f78:	000018b7          	lui	a7,0x1
    2f7c:	411408b3          	sub	a7,s0,a7
    2f80:	02c8b823          	sd	a2,48(a7) # 1030 <.LBB63_4+0x190>
    2f84:	00c68633          	add	a2,a3,a2
    2f88:	000028b7          	lui	a7,0x2
    2f8c:	411408b3          	sub	a7,s0,a7
    2f90:	0008b883          	ld	a7,0(a7) # 2000 <.LBB63_5+0xbd8>
    2f94:	011be8b3          	or	a7,s7,a7
    2f98:	00001eb7          	lui	t4,0x1
    2f9c:	41d40eb3          	sub	t4,s0,t4
    2fa0:	031ebc23          	sd	a7,56(t4) # 1038 <.LBB63_4+0x198>
    2fa4:	011686b3          	add	a3,a3,a7
    2fa8:	00779893          	slli	a7,a5,0x7
    2fac:	00759e93          	slli	t4,a1,0x7
    2fb0:	000015b7          	lui	a1,0x1
    2fb4:	40b405b3          	sub	a1,s0,a1
    2fb8:	6865b823          	sd	t1,1680(a1) # 1690 <.LBB63_5+0x268>
    2fbc:	006985b3          	add	a1,s3,t1
    2fc0:	000017b7          	lui	a5,0x1
    2fc4:	40f407b3          	sub	a5,s0,a5
    2fc8:	6fc7bc23          	sd	t3,1784(a5) # 16f8 <.LBB63_5+0x2d0>
    2fcc:	01c907b3          	add	a5,s2,t3
    2fd0:	00001337          	lui	t1,0x1
    2fd4:	40640333          	sub	t1,s0,t1
    2fd8:	69d33423          	sd	t4,1672(t1) # 1688 <.LBB63_5+0x260>
    2fdc:	01d787b3          	add	a5,a5,t4
    2fe0:	00001337          	lui	t1,0x1
    2fe4:	40640333          	sub	t1,s0,t1
    2fe8:	6f133823          	sd	a7,1776(t1) # 16f0 <.LBB63_5+0x2c8>
    2fec:	011585b3          	add	a1,a1,a7
    2ff0:	005b08b3          	add	a7,s6,t0
    2ff4:	011588bb          	addw	a7,a1,a7
    2ff8:	00024937          	lui	s2,0x24
    2ffc:	005b05b3          	add	a1,s6,t0
    3000:	00b785bb          	addw	a1,a5,a1
    3004:	000017b7          	lui	a5,0x1
    3008:	40f407b3          	sub	a5,s0,a5
    300c:	68b7b023          	sd	a1,1664(a5) # 1680 <.LBB63_5+0x258>
    3010:	400005b7          	lui	a1,0x40000
    3014:	000017b7          	lui	a5,0x1
    3018:	40f407b3          	sub	a5,s0,a5
    301c:	5f17b023          	sd	a7,1504(a5) # 15e0 <.LBB63_5+0x1b8>
    3020:	0008d463          	bgez	a7,3028 <.LBB63_24>
    3024:	c00005b7          	lui	a1,0xc0000

0000000000003028 <.LBB63_24>:
    3028:	000017b7          	lui	a5,0x1
    302c:	40f407b3          	sub	a5,s0,a5
    3030:	5cb7bc23          	sd	a1,1496(a5) # 15d8 <.LBB63_5+0x1b0>
    3034:	05452583          	lw	a1,84(a0)
    3038:	f8b43423          	sd	a1,-120(s0)
    303c:	00c52583          	lw	a1,12(a0)
    3040:	ecb43823          	sd	a1,-304(s0)
    3044:	00852583          	lw	a1,8(a0)
    3048:	ecb43423          	sd	a1,-312(s0)
    304c:	00452583          	lw	a1,4(a0)
    3050:	ecb43023          	sd	a1,-320(s0)
    3054:	00052583          	lw	a1,0(a0)
    3058:	eab43c23          	sd	a1,-328(s0)
    305c:	01052583          	lw	a1,16(a0)
    3060:	ecb43c23          	sd	a1,-296(s0)
    3064:	01452583          	lw	a1,20(a0)
    3068:	eeb43023          	sd	a1,-288(s0)
    306c:	01852583          	lw	a1,24(a0)
    3070:	eeb43423          	sd	a1,-280(s0)
    3074:	01c52583          	lw	a1,28(a0)
    3078:	f0b43823          	sd	a1,-240(s0)
    307c:	02052583          	lw	a1,32(a0)
    3080:	f0b43c23          	sd	a1,-232(s0)
    3084:	02452583          	lw	a1,36(a0)
    3088:	f2b43023          	sd	a1,-224(s0)
    308c:	02852583          	lw	a1,40(a0)
    3090:	f2b43423          	sd	a1,-216(s0)
    3094:	02c52583          	lw	a1,44(a0)
    3098:	f2b43823          	sd	a1,-208(s0)
    309c:	03052583          	lw	a1,48(a0)
    30a0:	f2b43c23          	sd	a1,-200(s0)
    30a4:	03452583          	lw	a1,52(a0)
    30a8:	f4b43023          	sd	a1,-192(s0)
    30ac:	03852583          	lw	a1,56(a0)
    30b0:	f4b43423          	sd	a1,-184(s0)
    30b4:	03c52583          	lw	a1,60(a0)
    30b8:	f4b43823          	sd	a1,-176(s0)
    30bc:	04052583          	lw	a1,64(a0)
    30c0:	f4b43c23          	sd	a1,-168(s0)
    30c4:	04452583          	lw	a1,68(a0)
    30c8:	f6b43023          	sd	a1,-160(s0)
    30cc:	04852583          	lw	a1,72(a0)
    30d0:	f6b43423          	sd	a1,-152(s0)
    30d4:	04c52583          	lw	a1,76(a0)
    30d8:	f6b43823          	sd	a1,-144(s0)
    30dc:	05052503          	lw	a0,80(a0)
    30e0:	f8a43023          	sd	a0,-128(s0)
    30e4:	054dad03          	lw	s10,84(s11)
    30e8:	00cda503          	lw	a0,12(s11)
    30ec:	f8c43823          	sd	a2,-112(s0)
    30f0:	000015b7          	lui	a1,0x1
    30f4:	40b405b3          	sub	a1,s0,a1
    30f8:	5ca5b823          	sd	a0,1488(a1) # 15d0 <.LBB63_5+0x1a8>
    30fc:	008da503          	lw	a0,8(s11)
    3100:	000015b7          	lui	a1,0x1
    3104:	40b405b3          	sub	a1,s0,a1
    3108:	5ca5b423          	sd	a0,1480(a1) # 15c8 <.LBB63_5+0x1a0>
    310c:	004da503          	lw	a0,4(s11)
    3110:	000015b7          	lui	a1,0x1
    3114:	40b405b3          	sub	a1,s0,a1
    3118:	5ca5b023          	sd	a0,1472(a1) # 15c0 <.LBB63_5+0x198>
    311c:	000da503          	lw	a0,0(s11)
    3120:	000015b7          	lui	a1,0x1
    3124:	40b405b3          	sub	a1,s0,a1
    3128:	5aa5bc23          	sd	a0,1464(a1) # 15b8 <.LBB63_5+0x190>
    312c:	010da503          	lw	a0,16(s11)
    3130:	000015b7          	lui	a1,0x1
    3134:	40b405b3          	sub	a1,s0,a1
    3138:	5aa5b823          	sd	a0,1456(a1) # 15b0 <.LBB63_5+0x188>
    313c:	014da503          	lw	a0,20(s11)
    3140:	000015b7          	lui	a1,0x1
    3144:	40b405b3          	sub	a1,s0,a1
    3148:	5aa5b023          	sd	a0,1440(a1) # 15a0 <.LBB63_5+0x178>
    314c:	018da503          	lw	a0,24(s11)
    3150:	01cda083          	lw	ra,28(s11)
    3154:	020dae03          	lw	t3,32(s11)
    3158:	024da303          	lw	t1,36(s11)
    315c:	028da883          	lw	a7,40(s11)
    3160:	02cda783          	lw	a5,44(s11)
    3164:	030da283          	lw	t0,48(s11)
    3168:	034dae83          	lw	t4,52(s11)
    316c:	038daf03          	lw	t5,56(s11)
    3170:	03cdaf83          	lw	t6,60(s11)
    3174:	040da483          	lw	s1,64(s11)
    3178:	044dab83          	lw	s7,68(s11)
    317c:	048da983          	lw	s3,72(s11)
    3180:	04cdac83          	lw	s9,76(s11)
    3184:	050dad83          	lw	s11,80(s11)
    3188:	01fc0583          	lb	a1,31(s8)
    318c:	00001637          	lui	a2,0x1
    3190:	40c40633          	sub	a2,s0,a2
    3194:	90b63823          	sd	a1,-1776(a2) # 910 <.LBB63_3+0x6bc>
    3198:	01ec0583          	lb	a1,30(s8)
    319c:	00001637          	lui	a2,0x1
    31a0:	40c40633          	sub	a2,s0,a2
    31a4:	90b63023          	sd	a1,-1792(a2) # 900 <.LBB63_3+0x6ac>
    31a8:	01dc0583          	lb	a1,29(s8)
    31ac:	00001637          	lui	a2,0x1
    31b0:	40c40633          	sub	a2,s0,a2
    31b4:	8eb63823          	sd	a1,-1808(a2) # 8f0 <.LBB63_3+0x69c>
    31b8:	01cc0583          	lb	a1,28(s8)
    31bc:	00001637          	lui	a2,0x1
    31c0:	40c40633          	sub	a2,s0,a2
    31c4:	8eb63023          	sd	a1,-1824(a2) # 8e0 <.LBB63_3+0x68c>
    31c8:	01bc0583          	lb	a1,27(s8)
    31cc:	00001637          	lui	a2,0x1
    31d0:	40c40633          	sub	a2,s0,a2
    31d4:	8cb63c23          	sd	a1,-1832(a2) # 8d8 <.LBB63_3+0x684>
    31d8:	01ac0583          	lb	a1,26(s8)
    31dc:	00001637          	lui	a2,0x1
    31e0:	40c40633          	sub	a2,s0,a2
    31e4:	8cb63823          	sd	a1,-1840(a2) # 8d0 <.LBB63_3+0x67c>
    31e8:	019c0583          	lb	a1,25(s8)
    31ec:	00001637          	lui	a2,0x1
    31f0:	40c40633          	sub	a2,s0,a2
    31f4:	8cb63423          	sd	a1,-1848(a2) # 8c8 <.LBB63_3+0x674>
    31f8:	018c0583          	lb	a1,24(s8)
    31fc:	00001637          	lui	a2,0x1
    3200:	40c40633          	sub	a2,s0,a2
    3204:	8cb63023          	sd	a1,-1856(a2) # 8c0 <.LBB63_3+0x66c>
    3208:	017c0583          	lb	a1,23(s8)
    320c:	00001637          	lui	a2,0x1
    3210:	40c40633          	sub	a2,s0,a2
    3214:	8ab63c23          	sd	a1,-1864(a2) # 8b8 <.LBB63_3+0x664>
    3218:	016c0583          	lb	a1,22(s8)
    321c:	00001637          	lui	a2,0x1
    3220:	40c40633          	sub	a2,s0,a2
    3224:	8ab63823          	sd	a1,-1872(a2) # 8b0 <.LBB63_3+0x65c>
    3228:	015c0583          	lb	a1,21(s8)
    322c:	00001637          	lui	a2,0x1
    3230:	40c40633          	sub	a2,s0,a2
    3234:	8ab63423          	sd	a1,-1880(a2) # 8a8 <.LBB63_3+0x654>
    3238:	014c0583          	lb	a1,20(s8)
    323c:	00001637          	lui	a2,0x1
    3240:	40c40633          	sub	a2,s0,a2
    3244:	8ab63023          	sd	a1,-1888(a2) # 8a0 <.LBB63_3+0x64c>
    3248:	013c0583          	lb	a1,19(s8)
    324c:	00001637          	lui	a2,0x1
    3250:	40c40633          	sub	a2,s0,a2
    3254:	88b63c23          	sd	a1,-1896(a2) # 898 <.LBB63_3+0x644>
    3258:	012c0583          	lb	a1,18(s8)
    325c:	00001637          	lui	a2,0x1
    3260:	40c40633          	sub	a2,s0,a2
    3264:	88b63823          	sd	a1,-1904(a2) # 890 <.LBB63_3+0x63c>
    3268:	011c0583          	lb	a1,17(s8)
    326c:	00001637          	lui	a2,0x1
    3270:	40c40633          	sub	a2,s0,a2
    3274:	88b63423          	sd	a1,-1912(a2) # 888 <.LBB63_3+0x634>
    3278:	010c0583          	lb	a1,16(s8)
    327c:	00001637          	lui	a2,0x1
    3280:	40c40633          	sub	a2,s0,a2
    3284:	88b63023          	sd	a1,-1920(a2) # 880 <.LBB63_3+0x62c>
    3288:	00fc0583          	lb	a1,15(s8)
    328c:	00001637          	lui	a2,0x1
    3290:	40c40633          	sub	a2,s0,a2
    3294:	86b63c23          	sd	a1,-1928(a2) # 878 <.LBB63_3+0x624>
    3298:	00ec0583          	lb	a1,14(s8)
    329c:	00001637          	lui	a2,0x1
    32a0:	40c40633          	sub	a2,s0,a2
    32a4:	86b63823          	sd	a1,-1936(a2) # 870 <.LBB63_3+0x61c>
    32a8:	00dc0583          	lb	a1,13(s8)
    32ac:	00001637          	lui	a2,0x1
    32b0:	40c40633          	sub	a2,s0,a2
    32b4:	86b63423          	sd	a1,-1944(a2) # 868 <.LBB63_3+0x614>
    32b8:	00cc0583          	lb	a1,12(s8)
    32bc:	00001637          	lui	a2,0x1
    32c0:	40c40633          	sub	a2,s0,a2
    32c4:	86b63023          	sd	a1,-1952(a2) # 860 <.LBB63_3+0x60c>
    32c8:	00bc0583          	lb	a1,11(s8)
    32cc:	00001637          	lui	a2,0x1
    32d0:	40c40633          	sub	a2,s0,a2
    32d4:	84b63c23          	sd	a1,-1960(a2) # 858 <.LBB63_3+0x604>
    32d8:	00ac0583          	lb	a1,10(s8)
    32dc:	00001637          	lui	a2,0x1
    32e0:	40c40633          	sub	a2,s0,a2
    32e4:	84b63823          	sd	a1,-1968(a2) # 850 <.LBB63_3+0x5fc>
    32e8:	009c0583          	lb	a1,9(s8)
    32ec:	00001637          	lui	a2,0x1
    32f0:	40c40633          	sub	a2,s0,a2
    32f4:	84b63423          	sd	a1,-1976(a2) # 848 <.LBB63_3+0x5f4>
    32f8:	008c0583          	lb	a1,8(s8)
    32fc:	00001637          	lui	a2,0x1
    3300:	40c40633          	sub	a2,s0,a2
    3304:	84b63023          	sd	a1,-1984(a2) # 840 <.LBB63_3+0x5ec>
    3308:	007c0583          	lb	a1,7(s8)
    330c:	00001637          	lui	a2,0x1
    3310:	40c40633          	sub	a2,s0,a2
    3314:	82b63c23          	sd	a1,-1992(a2) # 838 <.LBB63_3+0x5e4>
    3318:	006c0583          	lb	a1,6(s8)
    331c:	00001637          	lui	a2,0x1
    3320:	40c40633          	sub	a2,s0,a2
    3324:	82b63823          	sd	a1,-2000(a2) # 830 <.LBB63_3+0x5dc>
    3328:	005c0583          	lb	a1,5(s8)
    332c:	00001637          	lui	a2,0x1
    3330:	40c40633          	sub	a2,s0,a2
    3334:	82b63423          	sd	a1,-2008(a2) # 828 <.LBB63_3+0x5d4>
    3338:	004c0583          	lb	a1,4(s8)
    333c:	00001637          	lui	a2,0x1
    3340:	40c40633          	sub	a2,s0,a2
    3344:	82b63023          	sd	a1,-2016(a2) # 820 <.LBB63_3+0x5cc>
    3348:	000c0583          	lb	a1,0(s8)
    334c:	00001637          	lui	a2,0x1
    3350:	40c40633          	sub	a2,s0,a2
    3354:	80b63c23          	sd	a1,-2024(a2) # 818 <.LBB63_3+0x5c4>
    3358:	001c0583          	lb	a1,1(s8)
    335c:	00001637          	lui	a2,0x1
    3360:	40c40633          	sub	a2,s0,a2
    3364:	80b63823          	sd	a1,-2032(a2) # 810 <.LBB63_3+0x5bc>
    3368:	002c0583          	lb	a1,2(s8)
    336c:	00001637          	lui	a2,0x1
    3370:	40c40633          	sub	a2,s0,a2
    3374:	80b63423          	sd	a1,-2040(a2) # 808 <.LBB63_3+0x5b4>
    3378:	f9043603          	ld	a2,-112(s0)
    337c:	003c0583          	lb	a1,3(s8)
    3380:	00001c37          	lui	s8,0x1
    3384:	41840c33          	sub	s8,s0,s8
    3388:	80bc3023          	sd	a1,-2048(s8) # 800 <.LBB63_3+0x5ac>
    338c:	000a8c03          	lb	s8,0(s5)
    3390:	000015b7          	lui	a1,0x1
    3394:	40b405b3          	sub	a1,s0,a1
    3398:	a185b823          	sd	s8,-1520(a1) # a10 <.LBB63_3+0x7bc>
    339c:	001a8c03          	lb	s8,1(s5)
    33a0:	000015b7          	lui	a1,0x1
    33a4:	40b405b3          	sub	a1,s0,a1
    33a8:	a185b023          	sd	s8,-1536(a1) # a00 <.LBB63_3+0x7ac>
    33ac:	002a8c03          	lb	s8,2(s5)
    33b0:	000015b7          	lui	a1,0x1
    33b4:	40b405b3          	sub	a1,s0,a1
    33b8:	9f85b823          	sd	s8,-1552(a1) # 9f0 <.LBB63_3+0x79c>
    33bc:	003a8c03          	lb	s8,3(s5)
    33c0:	000015b7          	lui	a1,0x1
    33c4:	40b405b3          	sub	a1,s0,a1
    33c8:	9f85b023          	sd	s8,-1568(a1) # 9e0 <.LBB63_3+0x78c>
    33cc:	004a8c03          	lb	s8,4(s5)
    33d0:	000015b7          	lui	a1,0x1
    33d4:	40b405b3          	sub	a1,s0,a1
    33d8:	9d85bc23          	sd	s8,-1576(a1) # 9d8 <.LBB63_3+0x784>
    33dc:	005a8c03          	lb	s8,5(s5)
    33e0:	000015b7          	lui	a1,0x1
    33e4:	40b405b3          	sub	a1,s0,a1
    33e8:	9d85b823          	sd	s8,-1584(a1) # 9d0 <.LBB63_3+0x77c>
    33ec:	006a8c03          	lb	s8,6(s5)
    33f0:	000015b7          	lui	a1,0x1
    33f4:	40b405b3          	sub	a1,s0,a1
    33f8:	9d85b423          	sd	s8,-1592(a1) # 9c8 <.LBB63_3+0x774>
    33fc:	007a8c03          	lb	s8,7(s5)
    3400:	000015b7          	lui	a1,0x1
    3404:	40b405b3          	sub	a1,s0,a1
    3408:	9d85b023          	sd	s8,-1600(a1) # 9c0 <.LBB63_3+0x76c>
    340c:	008a8c03          	lb	s8,8(s5)
    3410:	000015b7          	lui	a1,0x1
    3414:	40b405b3          	sub	a1,s0,a1
    3418:	9b85bc23          	sd	s8,-1608(a1) # 9b8 <.LBB63_3+0x764>
    341c:	009a8c03          	lb	s8,9(s5)
    3420:	000015b7          	lui	a1,0x1
    3424:	40b405b3          	sub	a1,s0,a1
    3428:	9b85b823          	sd	s8,-1616(a1) # 9b0 <.LBB63_3+0x75c>
    342c:	00aa8c03          	lb	s8,10(s5)
    3430:	000015b7          	lui	a1,0x1
    3434:	40b405b3          	sub	a1,s0,a1
    3438:	9b85b423          	sd	s8,-1624(a1) # 9a8 <.LBB63_3+0x754>
    343c:	00ba8c03          	lb	s8,11(s5)
    3440:	000015b7          	lui	a1,0x1
    3444:	40b405b3          	sub	a1,s0,a1
    3448:	9b85b023          	sd	s8,-1632(a1) # 9a0 <.LBB63_3+0x74c>
    344c:	00ca8c03          	lb	s8,12(s5)
    3450:	000015b7          	lui	a1,0x1
    3454:	40b405b3          	sub	a1,s0,a1
    3458:	9985bc23          	sd	s8,-1640(a1) # 998 <.LBB63_3+0x744>
    345c:	00da8c03          	lb	s8,13(s5)
    3460:	000015b7          	lui	a1,0x1
    3464:	40b405b3          	sub	a1,s0,a1
    3468:	9985b823          	sd	s8,-1648(a1) # 990 <.LBB63_3+0x73c>
    346c:	00ea8c03          	lb	s8,14(s5)
    3470:	000015b7          	lui	a1,0x1
    3474:	40b405b3          	sub	a1,s0,a1
    3478:	9985b423          	sd	s8,-1656(a1) # 988 <.LBB63_3+0x734>
    347c:	00fa8c03          	lb	s8,15(s5)
    3480:	000015b7          	lui	a1,0x1
    3484:	40b405b3          	sub	a1,s0,a1
    3488:	9985b023          	sd	s8,-1664(a1) # 980 <.LBB63_3+0x72c>
    348c:	010a8c03          	lb	s8,16(s5)
    3490:	000015b7          	lui	a1,0x1
    3494:	40b405b3          	sub	a1,s0,a1
    3498:	9785bc23          	sd	s8,-1672(a1) # 978 <.LBB63_3+0x724>
    349c:	011a8c03          	lb	s8,17(s5)
    34a0:	000015b7          	lui	a1,0x1
    34a4:	40b405b3          	sub	a1,s0,a1
    34a8:	9785b823          	sd	s8,-1680(a1) # 970 <.LBB63_3+0x71c>
    34ac:	012a8c03          	lb	s8,18(s5)
    34b0:	000015b7          	lui	a1,0x1
    34b4:	40b405b3          	sub	a1,s0,a1
    34b8:	9785b423          	sd	s8,-1688(a1) # 968 <.LBB63_3+0x714>
    34bc:	013a8c03          	lb	s8,19(s5)
    34c0:	000015b7          	lui	a1,0x1
    34c4:	40b405b3          	sub	a1,s0,a1
    34c8:	9785b023          	sd	s8,-1696(a1) # 960 <.LBB63_3+0x70c>
    34cc:	014a8c03          	lb	s8,20(s5)
    34d0:	000015b7          	lui	a1,0x1
    34d4:	40b405b3          	sub	a1,s0,a1
    34d8:	9585bc23          	sd	s8,-1704(a1) # 958 <.LBB63_3+0x704>
    34dc:	015a8c03          	lb	s8,21(s5)
    34e0:	000015b7          	lui	a1,0x1
    34e4:	40b405b3          	sub	a1,s0,a1
    34e8:	9585b823          	sd	s8,-1712(a1) # 950 <.LBB63_3+0x6fc>
    34ec:	016a8c03          	lb	s8,22(s5)
    34f0:	000015b7          	lui	a1,0x1
    34f4:	40b405b3          	sub	a1,s0,a1
    34f8:	9585b423          	sd	s8,-1720(a1) # 948 <.LBB63_3+0x6f4>
    34fc:	017a8c03          	lb	s8,23(s5)
    3500:	000015b7          	lui	a1,0x1
    3504:	40b405b3          	sub	a1,s0,a1
    3508:	9585b023          	sd	s8,-1728(a1) # 940 <.LBB63_3+0x6ec>
    350c:	018a8c03          	lb	s8,24(s5)
    3510:	000015b7          	lui	a1,0x1
    3514:	40b405b3          	sub	a1,s0,a1
    3518:	9385bc23          	sd	s8,-1736(a1) # 938 <.LBB63_3+0x6e4>
    351c:	019a8c03          	lb	s8,25(s5)
    3520:	000015b7          	lui	a1,0x1
    3524:	40b405b3          	sub	a1,s0,a1
    3528:	9385b823          	sd	s8,-1744(a1) # 930 <.LBB63_3+0x6dc>
    352c:	01aa8c03          	lb	s8,26(s5)
    3530:	000015b7          	lui	a1,0x1
    3534:	40b405b3          	sub	a1,s0,a1
    3538:	9385b423          	sd	s8,-1752(a1) # 928 <.LBB63_3+0x6d4>
    353c:	01ba8c03          	lb	s8,27(s5)
    3540:	000015b7          	lui	a1,0x1
    3544:	40b405b3          	sub	a1,s0,a1
    3548:	9385b023          	sd	s8,-1760(a1) # 920 <.LBB63_3+0x6cc>
    354c:	01ca8c03          	lb	s8,28(s5)
    3550:	000015b7          	lui	a1,0x1
    3554:	40b405b3          	sub	a1,s0,a1
    3558:	9185bc23          	sd	s8,-1768(a1) # 918 <.LBB63_3+0x6c4>
    355c:	01da8583          	lb	a1,29(s5)
    3560:	00001c37          	lui	s8,0x1
    3564:	41840c33          	sub	s8,s0,s8
    3568:	90bc3423          	sd	a1,-1784(s8) # 908 <.LBB63_3+0x6b4>
    356c:	01ea8583          	lb	a1,30(s5)
    3570:	00001c37          	lui	s8,0x1
    3574:	41840c33          	sub	s8,s0,s8
    3578:	8ebc3c23          	sd	a1,-1800(s8) # 8f8 <.LBB63_3+0x6a4>
    357c:	01fa8583          	lb	a1,31(s5)
    3580:	00001ab7          	lui	s5,0x1
    3584:	41540ab3          	sub	s5,s0,s5
    3588:	8ebab423          	sd	a1,-1816(s5) # 8e8 <.LBB63_3+0x694>
    358c:	000a0a83          	lb	s5,0(s4)
    3590:	000015b7          	lui	a1,0x1
    3594:	40b405b3          	sub	a1,s0,a1
    3598:	b155b823          	sd	s5,-1264(a1) # b10 <.LBB63_3+0x8bc>
    359c:	001a0a83          	lb	s5,1(s4)
    35a0:	000015b7          	lui	a1,0x1
    35a4:	40b405b3          	sub	a1,s0,a1
    35a8:	b155b023          	sd	s5,-1280(a1) # b00 <.LBB63_3+0x8ac>
    35ac:	002a0a83          	lb	s5,2(s4)
    35b0:	000015b7          	lui	a1,0x1
    35b4:	40b405b3          	sub	a1,s0,a1
    35b8:	af55b823          	sd	s5,-1296(a1) # af0 <.LBB63_3+0x89c>
    35bc:	003a0a83          	lb	s5,3(s4)
    35c0:	000015b7          	lui	a1,0x1
    35c4:	40b405b3          	sub	a1,s0,a1
    35c8:	af55b023          	sd	s5,-1312(a1) # ae0 <.LBB63_3+0x88c>
    35cc:	004a0a83          	lb	s5,4(s4)
    35d0:	000015b7          	lui	a1,0x1
    35d4:	40b405b3          	sub	a1,s0,a1
    35d8:	ad55bc23          	sd	s5,-1320(a1) # ad8 <.LBB63_3+0x884>
    35dc:	005a0a83          	lb	s5,5(s4)
    35e0:	000015b7          	lui	a1,0x1
    35e4:	40b405b3          	sub	a1,s0,a1
    35e8:	ad55b823          	sd	s5,-1328(a1) # ad0 <.LBB63_3+0x87c>
    35ec:	006a0a83          	lb	s5,6(s4)
    35f0:	000015b7          	lui	a1,0x1
    35f4:	40b405b3          	sub	a1,s0,a1
    35f8:	ad55b423          	sd	s5,-1336(a1) # ac8 <.LBB63_3+0x874>
    35fc:	007a0a83          	lb	s5,7(s4)
    3600:	000015b7          	lui	a1,0x1
    3604:	40b405b3          	sub	a1,s0,a1
    3608:	ad55b023          	sd	s5,-1344(a1) # ac0 <.LBB63_3+0x86c>
    360c:	008a0a83          	lb	s5,8(s4)
    3610:	000015b7          	lui	a1,0x1
    3614:	40b405b3          	sub	a1,s0,a1
    3618:	ab55bc23          	sd	s5,-1352(a1) # ab8 <.LBB63_3+0x864>
    361c:	009a0a83          	lb	s5,9(s4)
    3620:	000015b7          	lui	a1,0x1
    3624:	40b405b3          	sub	a1,s0,a1
    3628:	ab55b823          	sd	s5,-1360(a1) # ab0 <.LBB63_3+0x85c>
    362c:	00aa0a83          	lb	s5,10(s4)
    3630:	000015b7          	lui	a1,0x1
    3634:	40b405b3          	sub	a1,s0,a1
    3638:	ab55b423          	sd	s5,-1368(a1) # aa8 <.LBB63_3+0x854>
    363c:	00ba0a83          	lb	s5,11(s4)
    3640:	000015b7          	lui	a1,0x1
    3644:	40b405b3          	sub	a1,s0,a1
    3648:	ab55b023          	sd	s5,-1376(a1) # aa0 <.LBB63_3+0x84c>
    364c:	00ca0a83          	lb	s5,12(s4)
    3650:	000015b7          	lui	a1,0x1
    3654:	40b405b3          	sub	a1,s0,a1
    3658:	a955bc23          	sd	s5,-1384(a1) # a98 <.LBB63_3+0x844>
    365c:	00da0a83          	lb	s5,13(s4)
    3660:	000015b7          	lui	a1,0x1
    3664:	40b405b3          	sub	a1,s0,a1
    3668:	a955b823          	sd	s5,-1392(a1) # a90 <.LBB63_3+0x83c>
    366c:	00ea0a83          	lb	s5,14(s4)
    3670:	000015b7          	lui	a1,0x1
    3674:	40b405b3          	sub	a1,s0,a1
    3678:	a955b423          	sd	s5,-1400(a1) # a88 <.LBB63_3+0x834>
    367c:	00fa0a83          	lb	s5,15(s4)
    3680:	000015b7          	lui	a1,0x1
    3684:	40b405b3          	sub	a1,s0,a1
    3688:	a955b023          	sd	s5,-1408(a1) # a80 <.LBB63_3+0x82c>
    368c:	010a0a83          	lb	s5,16(s4)
    3690:	000015b7          	lui	a1,0x1
    3694:	40b405b3          	sub	a1,s0,a1
    3698:	a755bc23          	sd	s5,-1416(a1) # a78 <.LBB63_3+0x824>
    369c:	011a0a83          	lb	s5,17(s4)
    36a0:	000015b7          	lui	a1,0x1
    36a4:	40b405b3          	sub	a1,s0,a1
    36a8:	a755b823          	sd	s5,-1424(a1) # a70 <.LBB63_3+0x81c>
    36ac:	012a0a83          	lb	s5,18(s4)
    36b0:	000015b7          	lui	a1,0x1
    36b4:	40b405b3          	sub	a1,s0,a1
    36b8:	a755b423          	sd	s5,-1432(a1) # a68 <.LBB63_3+0x814>
    36bc:	013a0a83          	lb	s5,19(s4)
    36c0:	000015b7          	lui	a1,0x1
    36c4:	40b405b3          	sub	a1,s0,a1
    36c8:	a755b023          	sd	s5,-1440(a1) # a60 <.LBB63_3+0x80c>
    36cc:	014a0a83          	lb	s5,20(s4)
    36d0:	000015b7          	lui	a1,0x1
    36d4:	40b405b3          	sub	a1,s0,a1
    36d8:	a555bc23          	sd	s5,-1448(a1) # a58 <.LBB63_3+0x804>
    36dc:	015a0a83          	lb	s5,21(s4)
    36e0:	000015b7          	lui	a1,0x1
    36e4:	40b405b3          	sub	a1,s0,a1
    36e8:	a555b823          	sd	s5,-1456(a1) # a50 <.LBB63_3+0x7fc>
    36ec:	016a0a83          	lb	s5,22(s4)
    36f0:	000015b7          	lui	a1,0x1
    36f4:	40b405b3          	sub	a1,s0,a1
    36f8:	a555b423          	sd	s5,-1464(a1) # a48 <.LBB63_3+0x7f4>
    36fc:	017a0a83          	lb	s5,23(s4)
    3700:	000015b7          	lui	a1,0x1
    3704:	40b405b3          	sub	a1,s0,a1
    3708:	a555b023          	sd	s5,-1472(a1) # a40 <.LBB63_3+0x7ec>
    370c:	018a0a83          	lb	s5,24(s4)
    3710:	000015b7          	lui	a1,0x1
    3714:	40b405b3          	sub	a1,s0,a1
    3718:	a355bc23          	sd	s5,-1480(a1) # a38 <.LBB63_3+0x7e4>
    371c:	019a0a83          	lb	s5,25(s4)
    3720:	000015b7          	lui	a1,0x1
    3724:	40b405b3          	sub	a1,s0,a1
    3728:	a355b823          	sd	s5,-1488(a1) # a30 <.LBB63_3+0x7dc>
    372c:	01aa0a83          	lb	s5,26(s4)
    3730:	000015b7          	lui	a1,0x1
    3734:	40b405b3          	sub	a1,s0,a1
    3738:	a355b423          	sd	s5,-1496(a1) # a28 <.LBB63_3+0x7d4>
    373c:	01ba0a83          	lb	s5,27(s4)
    3740:	000015b7          	lui	a1,0x1
    3744:	40b405b3          	sub	a1,s0,a1
    3748:	a355b023          	sd	s5,-1504(a1) # a20 <.LBB63_3+0x7cc>
    374c:	01ca0a83          	lb	s5,28(s4)
    3750:	000015b7          	lui	a1,0x1
    3754:	40b405b3          	sub	a1,s0,a1
    3758:	a155bc23          	sd	s5,-1512(a1) # a18 <.LBB63_3+0x7c4>
    375c:	01da0a83          	lb	s5,29(s4)
    3760:	000015b7          	lui	a1,0x1
    3764:	40b405b3          	sub	a1,s0,a1
    3768:	a155b423          	sd	s5,-1528(a1) # a08 <.LBB63_3+0x7b4>
    376c:	01ea0a83          	lb	s5,30(s4)
    3770:	000015b7          	lui	a1,0x1
    3774:	40b405b3          	sub	a1,s0,a1
    3778:	9f55bc23          	sd	s5,-1544(a1) # 9f8 <.LBB63_3+0x7a4>
    377c:	01fa0a03          	lb	s4,31(s4)
    3780:	000015b7          	lui	a1,0x1
    3784:	40b405b3          	sub	a1,s0,a1
    3788:	9f45b423          	sd	s4,-1560(a1) # 9e8 <.LBB63_3+0x794>
    378c:	00038a03          	lb	s4,0(t2)
    3790:	000015b7          	lui	a1,0x1
    3794:	40b405b3          	sub	a1,s0,a1
    3798:	c145b823          	sd	s4,-1008(a1) # c10 <.LBB63_3+0x9bc>
    379c:	00138a03          	lb	s4,1(t2)
    37a0:	000015b7          	lui	a1,0x1
    37a4:	40b405b3          	sub	a1,s0,a1
    37a8:	c145b023          	sd	s4,-1024(a1) # c00 <.LBB63_3+0x9ac>
    37ac:	00238a03          	lb	s4,2(t2)
    37b0:	000015b7          	lui	a1,0x1
    37b4:	40b405b3          	sub	a1,s0,a1
    37b8:	bf45b823          	sd	s4,-1040(a1) # bf0 <.LBB63_3+0x99c>
    37bc:	00338a03          	lb	s4,3(t2)
    37c0:	000015b7          	lui	a1,0x1
    37c4:	40b405b3          	sub	a1,s0,a1
    37c8:	bf45b023          	sd	s4,-1056(a1) # be0 <.LBB63_3+0x98c>
    37cc:	00438a03          	lb	s4,4(t2)
    37d0:	000015b7          	lui	a1,0x1
    37d4:	40b405b3          	sub	a1,s0,a1
    37d8:	bd45bc23          	sd	s4,-1064(a1) # bd8 <.LBB63_3+0x984>
    37dc:	00538a03          	lb	s4,5(t2)
    37e0:	000015b7          	lui	a1,0x1
    37e4:	40b405b3          	sub	a1,s0,a1
    37e8:	bd45b823          	sd	s4,-1072(a1) # bd0 <.LBB63_3+0x97c>
    37ec:	00638a03          	lb	s4,6(t2)
    37f0:	000015b7          	lui	a1,0x1
    37f4:	40b405b3          	sub	a1,s0,a1
    37f8:	bd45b423          	sd	s4,-1080(a1) # bc8 <.LBB63_3+0x974>
    37fc:	00738a03          	lb	s4,7(t2)
    3800:	000015b7          	lui	a1,0x1
    3804:	40b405b3          	sub	a1,s0,a1
    3808:	bd45b023          	sd	s4,-1088(a1) # bc0 <.LBB63_3+0x96c>
    380c:	00838a03          	lb	s4,8(t2)
    3810:	000015b7          	lui	a1,0x1
    3814:	40b405b3          	sub	a1,s0,a1
    3818:	bb45bc23          	sd	s4,-1096(a1) # bb8 <.LBB63_3+0x964>
    381c:	00938a03          	lb	s4,9(t2)
    3820:	000015b7          	lui	a1,0x1
    3824:	40b405b3          	sub	a1,s0,a1
    3828:	bb45b823          	sd	s4,-1104(a1) # bb0 <.LBB63_3+0x95c>
    382c:	00a38a03          	lb	s4,10(t2)
    3830:	000015b7          	lui	a1,0x1
    3834:	40b405b3          	sub	a1,s0,a1
    3838:	bb45b423          	sd	s4,-1112(a1) # ba8 <.LBB63_3+0x954>
    383c:	00b38a03          	lb	s4,11(t2)
    3840:	000015b7          	lui	a1,0x1
    3844:	40b405b3          	sub	a1,s0,a1
    3848:	bb45b023          	sd	s4,-1120(a1) # ba0 <.LBB63_3+0x94c>
    384c:	00c38a03          	lb	s4,12(t2)
    3850:	000015b7          	lui	a1,0x1
    3854:	40b405b3          	sub	a1,s0,a1
    3858:	b945bc23          	sd	s4,-1128(a1) # b98 <.LBB63_3+0x944>
    385c:	00d38a03          	lb	s4,13(t2)
    3860:	000015b7          	lui	a1,0x1
    3864:	40b405b3          	sub	a1,s0,a1
    3868:	b945b823          	sd	s4,-1136(a1) # b90 <.LBB63_3+0x93c>
    386c:	00e38a03          	lb	s4,14(t2)
    3870:	000015b7          	lui	a1,0x1
    3874:	40b405b3          	sub	a1,s0,a1
    3878:	b945b423          	sd	s4,-1144(a1) # b88 <.LBB63_3+0x934>
    387c:	00f38a03          	lb	s4,15(t2)
    3880:	000015b7          	lui	a1,0x1
    3884:	40b405b3          	sub	a1,s0,a1
    3888:	b945b023          	sd	s4,-1152(a1) # b80 <.LBB63_3+0x92c>
    388c:	01038a03          	lb	s4,16(t2)
    3890:	000015b7          	lui	a1,0x1
    3894:	40b405b3          	sub	a1,s0,a1
    3898:	b745bc23          	sd	s4,-1160(a1) # b78 <.LBB63_3+0x924>
    389c:	01138a03          	lb	s4,17(t2)
    38a0:	000015b7          	lui	a1,0x1
    38a4:	40b405b3          	sub	a1,s0,a1
    38a8:	b745b823          	sd	s4,-1168(a1) # b70 <.LBB63_3+0x91c>
    38ac:	01238a03          	lb	s4,18(t2)
    38b0:	000015b7          	lui	a1,0x1
    38b4:	40b405b3          	sub	a1,s0,a1
    38b8:	b745b423          	sd	s4,-1176(a1) # b68 <.LBB63_3+0x914>
    38bc:	01338a03          	lb	s4,19(t2)
    38c0:	000015b7          	lui	a1,0x1
    38c4:	40b405b3          	sub	a1,s0,a1
    38c8:	b745b023          	sd	s4,-1184(a1) # b60 <.LBB63_3+0x90c>
    38cc:	01438a03          	lb	s4,20(t2)
    38d0:	000015b7          	lui	a1,0x1
    38d4:	40b405b3          	sub	a1,s0,a1
    38d8:	b545bc23          	sd	s4,-1192(a1) # b58 <.LBB63_3+0x904>
    38dc:	01538a03          	lb	s4,21(t2)
    38e0:	000015b7          	lui	a1,0x1
    38e4:	40b405b3          	sub	a1,s0,a1
    38e8:	b545b823          	sd	s4,-1200(a1) # b50 <.LBB63_3+0x8fc>
    38ec:	01638a03          	lb	s4,22(t2)
    38f0:	000015b7          	lui	a1,0x1
    38f4:	40b405b3          	sub	a1,s0,a1
    38f8:	b545b423          	sd	s4,-1208(a1) # b48 <.LBB63_3+0x8f4>
    38fc:	01738a03          	lb	s4,23(t2)
    3900:	000015b7          	lui	a1,0x1
    3904:	40b405b3          	sub	a1,s0,a1
    3908:	b545b023          	sd	s4,-1216(a1) # b40 <.LBB63_3+0x8ec>
    390c:	01838a03          	lb	s4,24(t2)
    3910:	000015b7          	lui	a1,0x1
    3914:	40b405b3          	sub	a1,s0,a1
    3918:	b345bc23          	sd	s4,-1224(a1) # b38 <.LBB63_3+0x8e4>
    391c:	01938a03          	lb	s4,25(t2)
    3920:	000015b7          	lui	a1,0x1
    3924:	40b405b3          	sub	a1,s0,a1
    3928:	b345b823          	sd	s4,-1232(a1) # b30 <.LBB63_3+0x8dc>
    392c:	01a38a03          	lb	s4,26(t2)
    3930:	000015b7          	lui	a1,0x1
    3934:	40b405b3          	sub	a1,s0,a1
    3938:	b345b423          	sd	s4,-1240(a1) # b28 <.LBB63_3+0x8d4>
    393c:	01b38a03          	lb	s4,27(t2)
    3940:	000015b7          	lui	a1,0x1
    3944:	40b405b3          	sub	a1,s0,a1
    3948:	b345b023          	sd	s4,-1248(a1) # b20 <.LBB63_3+0x8cc>
    394c:	01c38a03          	lb	s4,28(t2)
    3950:	000015b7          	lui	a1,0x1
    3954:	40b405b3          	sub	a1,s0,a1
    3958:	b145bc23          	sd	s4,-1256(a1) # b18 <.LBB63_3+0x8c4>
    395c:	01d38a03          	lb	s4,29(t2)
    3960:	000015b7          	lui	a1,0x1
    3964:	40b405b3          	sub	a1,s0,a1
    3968:	b145b423          	sd	s4,-1272(a1) # b08 <.LBB63_3+0x8b4>
    396c:	01e38a03          	lb	s4,30(t2)
    3970:	000015b7          	lui	a1,0x1
    3974:	40b405b3          	sub	a1,s0,a1
    3978:	af45bc23          	sd	s4,-1288(a1) # af8 <.LBB63_3+0x8a4>
    397c:	01f38383          	lb	t2,31(t2)
    3980:	000015b7          	lui	a1,0x1
    3984:	40b405b3          	sub	a1,s0,a1
    3988:	ae75b423          	sd	t2,-1304(a1) # ae8 <.LBB63_3+0x894>
    398c:	00080383          	lb	t2,0(a6)
    3990:	000015b7          	lui	a1,0x1
    3994:	40b405b3          	sub	a1,s0,a1
    3998:	d075b823          	sd	t2,-752(a1) # d10 <.LBB63_3+0xabc>
    399c:	00180383          	lb	t2,1(a6)
    39a0:	000015b7          	lui	a1,0x1
    39a4:	40b405b3          	sub	a1,s0,a1
    39a8:	d075b023          	sd	t2,-768(a1) # d00 <.LBB63_3+0xaac>
    39ac:	00280383          	lb	t2,2(a6)
    39b0:	000015b7          	lui	a1,0x1
    39b4:	40b405b3          	sub	a1,s0,a1
    39b8:	ce75b823          	sd	t2,-784(a1) # cf0 <.LBB63_3+0xa9c>
    39bc:	00380383          	lb	t2,3(a6)
    39c0:	000015b7          	lui	a1,0x1
    39c4:	40b405b3          	sub	a1,s0,a1
    39c8:	ce75b023          	sd	t2,-800(a1) # ce0 <.LBB63_3+0xa8c>
    39cc:	00480383          	lb	t2,4(a6)
    39d0:	000015b7          	lui	a1,0x1
    39d4:	40b405b3          	sub	a1,s0,a1
    39d8:	cc75bc23          	sd	t2,-808(a1) # cd8 <.LBB63_3+0xa84>
    39dc:	00580383          	lb	t2,5(a6)
    39e0:	000015b7          	lui	a1,0x1
    39e4:	40b405b3          	sub	a1,s0,a1
    39e8:	cc75b823          	sd	t2,-816(a1) # cd0 <.LBB63_3+0xa7c>
    39ec:	00680383          	lb	t2,6(a6)
    39f0:	000015b7          	lui	a1,0x1
    39f4:	40b405b3          	sub	a1,s0,a1
    39f8:	cc75b423          	sd	t2,-824(a1) # cc8 <.LBB63_3+0xa74>
    39fc:	00780383          	lb	t2,7(a6)
    3a00:	000015b7          	lui	a1,0x1
    3a04:	40b405b3          	sub	a1,s0,a1
    3a08:	cc75b023          	sd	t2,-832(a1) # cc0 <.LBB63_3+0xa6c>
    3a0c:	00880383          	lb	t2,8(a6)
    3a10:	000015b7          	lui	a1,0x1
    3a14:	40b405b3          	sub	a1,s0,a1
    3a18:	ca75bc23          	sd	t2,-840(a1) # cb8 <.LBB63_3+0xa64>
    3a1c:	00980383          	lb	t2,9(a6)
    3a20:	000015b7          	lui	a1,0x1
    3a24:	40b405b3          	sub	a1,s0,a1
    3a28:	ca75b823          	sd	t2,-848(a1) # cb0 <.LBB63_3+0xa5c>
    3a2c:	00a80383          	lb	t2,10(a6)
    3a30:	000015b7          	lui	a1,0x1
    3a34:	40b405b3          	sub	a1,s0,a1
    3a38:	ca75b423          	sd	t2,-856(a1) # ca8 <.LBB63_3+0xa54>
    3a3c:	00b80383          	lb	t2,11(a6)
    3a40:	000015b7          	lui	a1,0x1
    3a44:	40b405b3          	sub	a1,s0,a1
    3a48:	ca75b023          	sd	t2,-864(a1) # ca0 <.LBB63_3+0xa4c>
    3a4c:	00c80383          	lb	t2,12(a6)
    3a50:	000015b7          	lui	a1,0x1
    3a54:	40b405b3          	sub	a1,s0,a1
    3a58:	c875bc23          	sd	t2,-872(a1) # c98 <.LBB63_3+0xa44>
    3a5c:	00d80383          	lb	t2,13(a6)
    3a60:	000015b7          	lui	a1,0x1
    3a64:	40b405b3          	sub	a1,s0,a1
    3a68:	c875b823          	sd	t2,-880(a1) # c90 <.LBB63_3+0xa3c>
    3a6c:	00e80383          	lb	t2,14(a6)
    3a70:	000015b7          	lui	a1,0x1
    3a74:	40b405b3          	sub	a1,s0,a1
    3a78:	c875b423          	sd	t2,-888(a1) # c88 <.LBB63_3+0xa34>
    3a7c:	00f80383          	lb	t2,15(a6)
    3a80:	000015b7          	lui	a1,0x1
    3a84:	40b405b3          	sub	a1,s0,a1
    3a88:	c875b023          	sd	t2,-896(a1) # c80 <.LBB63_3+0xa2c>
    3a8c:	01080383          	lb	t2,16(a6)
    3a90:	000015b7          	lui	a1,0x1
    3a94:	40b405b3          	sub	a1,s0,a1
    3a98:	c675bc23          	sd	t2,-904(a1) # c78 <.LBB63_3+0xa24>
    3a9c:	01180383          	lb	t2,17(a6)
    3aa0:	000015b7          	lui	a1,0x1
    3aa4:	40b405b3          	sub	a1,s0,a1
    3aa8:	c675b823          	sd	t2,-912(a1) # c70 <.LBB63_3+0xa1c>
    3aac:	01280383          	lb	t2,18(a6)
    3ab0:	000015b7          	lui	a1,0x1
    3ab4:	40b405b3          	sub	a1,s0,a1
    3ab8:	c675b423          	sd	t2,-920(a1) # c68 <.LBB63_3+0xa14>
    3abc:	01380383          	lb	t2,19(a6)
    3ac0:	000015b7          	lui	a1,0x1
    3ac4:	40b405b3          	sub	a1,s0,a1
    3ac8:	c675b023          	sd	t2,-928(a1) # c60 <.LBB63_3+0xa0c>
    3acc:	01480383          	lb	t2,20(a6)
    3ad0:	000015b7          	lui	a1,0x1
    3ad4:	40b405b3          	sub	a1,s0,a1
    3ad8:	c475bc23          	sd	t2,-936(a1) # c58 <.LBB63_3+0xa04>
    3adc:	01580383          	lb	t2,21(a6)
    3ae0:	000015b7          	lui	a1,0x1
    3ae4:	40b405b3          	sub	a1,s0,a1
    3ae8:	c475b823          	sd	t2,-944(a1) # c50 <.LBB63_3+0x9fc>
    3aec:	01680383          	lb	t2,22(a6)
    3af0:	000015b7          	lui	a1,0x1
    3af4:	40b405b3          	sub	a1,s0,a1
    3af8:	c475b423          	sd	t2,-952(a1) # c48 <.LBB63_3+0x9f4>
    3afc:	01780383          	lb	t2,23(a6)
    3b00:	000015b7          	lui	a1,0x1
    3b04:	40b405b3          	sub	a1,s0,a1
    3b08:	c475b023          	sd	t2,-960(a1) # c40 <.LBB63_3+0x9ec>
    3b0c:	01880383          	lb	t2,24(a6)
    3b10:	000015b7          	lui	a1,0x1
    3b14:	40b405b3          	sub	a1,s0,a1
    3b18:	c275bc23          	sd	t2,-968(a1) # c38 <.LBB63_3+0x9e4>
    3b1c:	01980383          	lb	t2,25(a6)
    3b20:	000015b7          	lui	a1,0x1
    3b24:	40b405b3          	sub	a1,s0,a1
    3b28:	c275b823          	sd	t2,-976(a1) # c30 <.LBB63_3+0x9dc>
    3b2c:	01a80383          	lb	t2,26(a6)
    3b30:	000015b7          	lui	a1,0x1
    3b34:	40b405b3          	sub	a1,s0,a1
    3b38:	c275b423          	sd	t2,-984(a1) # c28 <.LBB63_3+0x9d4>
    3b3c:	01b80383          	lb	t2,27(a6)
    3b40:	000015b7          	lui	a1,0x1
    3b44:	40b405b3          	sub	a1,s0,a1
    3b48:	c275b023          	sd	t2,-992(a1) # c20 <.LBB63_3+0x9cc>
    3b4c:	01c80383          	lb	t2,28(a6)
    3b50:	000015b7          	lui	a1,0x1
    3b54:	40b405b3          	sub	a1,s0,a1
    3b58:	c075bc23          	sd	t2,-1000(a1) # c18 <.LBB63_3+0x9c4>
    3b5c:	01d80383          	lb	t2,29(a6)
    3b60:	000015b7          	lui	a1,0x1
    3b64:	40b405b3          	sub	a1,s0,a1
    3b68:	c075b423          	sd	t2,-1016(a1) # c08 <.LBB63_3+0x9b4>
    3b6c:	01e80383          	lb	t2,30(a6)
    3b70:	000015b7          	lui	a1,0x1
    3b74:	40b405b3          	sub	a1,s0,a1
    3b78:	be75bc23          	sd	t2,-1032(a1) # bf8 <.LBB63_3+0x9a4>
    3b7c:	01f80803          	lb	a6,31(a6)
    3b80:	000015b7          	lui	a1,0x1
    3b84:	40b405b3          	sub	a1,s0,a1
    3b88:	bf05b423          	sd	a6,-1048(a1) # be8 <.LBB63_3+0x994>
    3b8c:	00070803          	lb	a6,0(a4)
    3b90:	000015b7          	lui	a1,0x1
    3b94:	40b405b3          	sub	a1,s0,a1
    3b98:	e305bc23          	sd	a6,-456(a1) # e38 <.LBB63_3+0xbe4>
    3b9c:	00170803          	lb	a6,1(a4)
    3ba0:	000015b7          	lui	a1,0x1
    3ba4:	40b405b3          	sub	a1,s0,a1
    3ba8:	e305b423          	sd	a6,-472(a1) # e28 <.LBB63_3+0xbd4>
    3bac:	00270803          	lb	a6,2(a4)
    3bb0:	000015b7          	lui	a1,0x1
    3bb4:	40b405b3          	sub	a1,s0,a1
    3bb8:	e105bc23          	sd	a6,-488(a1) # e18 <.LBB63_3+0xbc4>
    3bbc:	00370803          	lb	a6,3(a4)
    3bc0:	000015b7          	lui	a1,0x1
    3bc4:	40b405b3          	sub	a1,s0,a1
    3bc8:	e105b423          	sd	a6,-504(a1) # e08 <.LBB63_3+0xbb4>
    3bcc:	00470803          	lb	a6,4(a4)
    3bd0:	000015b7          	lui	a1,0x1
    3bd4:	40b405b3          	sub	a1,s0,a1
    3bd8:	df05bc23          	sd	a6,-520(a1) # df8 <.LBB63_3+0xba4>
    3bdc:	00570803          	lb	a6,5(a4)
    3be0:	000015b7          	lui	a1,0x1
    3be4:	40b405b3          	sub	a1,s0,a1
    3be8:	df05b023          	sd	a6,-544(a1) # de0 <.LBB63_3+0xb8c>
    3bec:	00670803          	lb	a6,6(a4)
    3bf0:	000015b7          	lui	a1,0x1
    3bf4:	40b405b3          	sub	a1,s0,a1
    3bf8:	dd05b823          	sd	a6,-560(a1) # dd0 <.LBB63_3+0xb7c>
    3bfc:	00770803          	lb	a6,7(a4)
    3c00:	000015b7          	lui	a1,0x1
    3c04:	40b405b3          	sub	a1,s0,a1
    3c08:	dd05b023          	sd	a6,-576(a1) # dc0 <.LBB63_3+0xb6c>
    3c0c:	00870803          	lb	a6,8(a4)
    3c10:	000015b7          	lui	a1,0x1
    3c14:	40b405b3          	sub	a1,s0,a1
    3c18:	db05bc23          	sd	a6,-584(a1) # db8 <.LBB63_3+0xb64>
    3c1c:	00970803          	lb	a6,9(a4)
    3c20:	000015b7          	lui	a1,0x1
    3c24:	40b405b3          	sub	a1,s0,a1
    3c28:	db05b823          	sd	a6,-592(a1) # db0 <.LBB63_3+0xb5c>
    3c2c:	00a70803          	lb	a6,10(a4)
    3c30:	000015b7          	lui	a1,0x1
    3c34:	40b405b3          	sub	a1,s0,a1
    3c38:	db05b423          	sd	a6,-600(a1) # da8 <.LBB63_3+0xb54>
    3c3c:	00b70803          	lb	a6,11(a4)
    3c40:	000015b7          	lui	a1,0x1
    3c44:	40b405b3          	sub	a1,s0,a1
    3c48:	db05b023          	sd	a6,-608(a1) # da0 <.LBB63_3+0xb4c>
    3c4c:	00c70803          	lb	a6,12(a4)
    3c50:	000015b7          	lui	a1,0x1
    3c54:	40b405b3          	sub	a1,s0,a1
    3c58:	d905bc23          	sd	a6,-616(a1) # d98 <.LBB63_3+0xb44>
    3c5c:	00d70803          	lb	a6,13(a4)
    3c60:	000015b7          	lui	a1,0x1
    3c64:	40b405b3          	sub	a1,s0,a1
    3c68:	d905b823          	sd	a6,-624(a1) # d90 <.LBB63_3+0xb3c>
    3c6c:	00e70803          	lb	a6,14(a4)
    3c70:	000015b7          	lui	a1,0x1
    3c74:	40b405b3          	sub	a1,s0,a1
    3c78:	d905b423          	sd	a6,-632(a1) # d88 <.LBB63_3+0xb34>
    3c7c:	00f70803          	lb	a6,15(a4)
    3c80:	000015b7          	lui	a1,0x1
    3c84:	40b405b3          	sub	a1,s0,a1
    3c88:	d905b023          	sd	a6,-640(a1) # d80 <.LBB63_3+0xb2c>
    3c8c:	01070803          	lb	a6,16(a4)
    3c90:	000015b7          	lui	a1,0x1
    3c94:	40b405b3          	sub	a1,s0,a1
    3c98:	d705bc23          	sd	a6,-648(a1) # d78 <.LBB63_3+0xb24>
    3c9c:	01170803          	lb	a6,17(a4)
    3ca0:	000015b7          	lui	a1,0x1
    3ca4:	40b405b3          	sub	a1,s0,a1
    3ca8:	d705b823          	sd	a6,-656(a1) # d70 <.LBB63_3+0xb1c>
    3cac:	01270803          	lb	a6,18(a4)
    3cb0:	000015b7          	lui	a1,0x1
    3cb4:	40b405b3          	sub	a1,s0,a1
    3cb8:	d705b423          	sd	a6,-664(a1) # d68 <.LBB63_3+0xb14>
    3cbc:	01370803          	lb	a6,19(a4)
    3cc0:	000015b7          	lui	a1,0x1
    3cc4:	40b405b3          	sub	a1,s0,a1
    3cc8:	d705b023          	sd	a6,-672(a1) # d60 <.LBB63_3+0xb0c>
    3ccc:	01470803          	lb	a6,20(a4)
    3cd0:	000015b7          	lui	a1,0x1
    3cd4:	40b405b3          	sub	a1,s0,a1
    3cd8:	d505bc23          	sd	a6,-680(a1) # d58 <.LBB63_3+0xb04>
    3cdc:	01570803          	lb	a6,21(a4)
    3ce0:	000015b7          	lui	a1,0x1
    3ce4:	40b405b3          	sub	a1,s0,a1
    3ce8:	d505b823          	sd	a6,-688(a1) # d50 <.LBB63_3+0xafc>
    3cec:	01670803          	lb	a6,22(a4)
    3cf0:	000015b7          	lui	a1,0x1
    3cf4:	40b405b3          	sub	a1,s0,a1
    3cf8:	d505b423          	sd	a6,-696(a1) # d48 <.LBB63_3+0xaf4>
    3cfc:	01770803          	lb	a6,23(a4)
    3d00:	000015b7          	lui	a1,0x1
    3d04:	40b405b3          	sub	a1,s0,a1
    3d08:	d505b023          	sd	a6,-704(a1) # d40 <.LBB63_3+0xaec>
    3d0c:	01870803          	lb	a6,24(a4)
    3d10:	000015b7          	lui	a1,0x1
    3d14:	40b405b3          	sub	a1,s0,a1
    3d18:	d305bc23          	sd	a6,-712(a1) # d38 <.LBB63_3+0xae4>
    3d1c:	01970803          	lb	a6,25(a4)
    3d20:	000015b7          	lui	a1,0x1
    3d24:	40b405b3          	sub	a1,s0,a1
    3d28:	d305b823          	sd	a6,-720(a1) # d30 <.LBB63_3+0xadc>
    3d2c:	01a70803          	lb	a6,26(a4)
    3d30:	000015b7          	lui	a1,0x1
    3d34:	40b405b3          	sub	a1,s0,a1
    3d38:	d305b423          	sd	a6,-728(a1) # d28 <.LBB63_3+0xad4>
    3d3c:	01b70803          	lb	a6,27(a4)
    3d40:	000015b7          	lui	a1,0x1
    3d44:	40b405b3          	sub	a1,s0,a1
    3d48:	d305b023          	sd	a6,-736(a1) # d20 <.LBB63_3+0xacc>
    3d4c:	01c70803          	lb	a6,28(a4)
    3d50:	000015b7          	lui	a1,0x1
    3d54:	40b405b3          	sub	a1,s0,a1
    3d58:	d105bc23          	sd	a6,-744(a1) # d18 <.LBB63_3+0xac4>
    3d5c:	01d70803          	lb	a6,29(a4)
    3d60:	000015b7          	lui	a1,0x1
    3d64:	40b405b3          	sub	a1,s0,a1
    3d68:	d105b423          	sd	a6,-760(a1) # d08 <.LBB63_3+0xab4>
    3d6c:	01e70803          	lb	a6,30(a4)
    3d70:	000015b7          	lui	a1,0x1
    3d74:	40b405b3          	sub	a1,s0,a1
    3d78:	cf05bc23          	sd	a6,-776(a1) # cf8 <.LBB63_3+0xaa4>
    3d7c:	01f70703          	lb	a4,31(a4)
    3d80:	000015b7          	lui	a1,0x1
    3d84:	40b405b3          	sub	a1,s0,a1
    3d88:	cee5b423          	sd	a4,-792(a1) # ce8 <.LBB63_3+0xa94>
    3d8c:	00060703          	lb	a4,0(a2)
    3d90:	000015b7          	lui	a1,0x1
    3d94:	40b405b3          	sub	a1,s0,a1
    3d98:	f0e5bc23          	sd	a4,-232(a1) # f18 <.LBB63_4+0x78>
    3d9c:	00160703          	lb	a4,1(a2)
    3da0:	000015b7          	lui	a1,0x1
    3da4:	40b405b3          	sub	a1,s0,a1
    3da8:	f0e5b023          	sd	a4,-256(a1) # f00 <.LBB63_4+0x60>
    3dac:	00260703          	lb	a4,2(a2)
    3db0:	000015b7          	lui	a1,0x1
    3db4:	40b405b3          	sub	a1,s0,a1
    3db8:	eee5b823          	sd	a4,-272(a1) # ef0 <.LBB63_4+0x50>
    3dbc:	00360703          	lb	a4,3(a2)
    3dc0:	000015b7          	lui	a1,0x1
    3dc4:	40b405b3          	sub	a1,s0,a1
    3dc8:	eee5b423          	sd	a4,-280(a1) # ee8 <.LBB63_4+0x48>
    3dcc:	00460703          	lb	a4,4(a2)
    3dd0:	000015b7          	lui	a1,0x1
    3dd4:	40b405b3          	sub	a1,s0,a1
    3dd8:	eee5b023          	sd	a4,-288(a1) # ee0 <.LBB63_4+0x40>
    3ddc:	00560703          	lb	a4,5(a2)
    3de0:	000015b7          	lui	a1,0x1
    3de4:	40b405b3          	sub	a1,s0,a1
    3de8:	ece5bc23          	sd	a4,-296(a1) # ed8 <.LBB63_4+0x38>
    3dec:	00660703          	lb	a4,6(a2)
    3df0:	000015b7          	lui	a1,0x1
    3df4:	40b405b3          	sub	a1,s0,a1
    3df8:	ece5b423          	sd	a4,-312(a1) # ec8 <.LBB63_4+0x28>
    3dfc:	00760703          	lb	a4,7(a2)
    3e00:	000015b7          	lui	a1,0x1
    3e04:	40b405b3          	sub	a1,s0,a1
    3e08:	ece5b023          	sd	a4,-320(a1) # ec0 <.LBB63_4+0x20>
    3e0c:	00860703          	lb	a4,8(a2)
    3e10:	000015b7          	lui	a1,0x1
    3e14:	40b405b3          	sub	a1,s0,a1
    3e18:	eae5bc23          	sd	a4,-328(a1) # eb8 <.LBB63_4+0x18>
    3e1c:	00960703          	lb	a4,9(a2)
    3e20:	000015b7          	lui	a1,0x1
    3e24:	40b405b3          	sub	a1,s0,a1
    3e28:	eae5b823          	sd	a4,-336(a1) # eb0 <.LBB63_4+0x10>
    3e2c:	00a60703          	lb	a4,10(a2)
    3e30:	000015b7          	lui	a1,0x1
    3e34:	40b405b3          	sub	a1,s0,a1
    3e38:	eae5b423          	sd	a4,-344(a1) # ea8 <.LBB63_4+0x8>
    3e3c:	00b60703          	lb	a4,11(a2)
    3e40:	000015b7          	lui	a1,0x1
    3e44:	40b405b3          	sub	a1,s0,a1
    3e48:	eae5b023          	sd	a4,-352(a1) # ea0 <.LBB63_4>
    3e4c:	00c60703          	lb	a4,12(a2)
    3e50:	000015b7          	lui	a1,0x1
    3e54:	40b405b3          	sub	a1,s0,a1
    3e58:	e8e5bc23          	sd	a4,-360(a1) # e98 <.LBB63_3+0xc44>
    3e5c:	00d60703          	lb	a4,13(a2)
    3e60:	000015b7          	lui	a1,0x1
    3e64:	40b405b3          	sub	a1,s0,a1
    3e68:	e8e5b823          	sd	a4,-368(a1) # e90 <.LBB63_3+0xc3c>
    3e6c:	00e60703          	lb	a4,14(a2)
    3e70:	000015b7          	lui	a1,0x1
    3e74:	40b405b3          	sub	a1,s0,a1
    3e78:	e8e5b423          	sd	a4,-376(a1) # e88 <.LBB63_3+0xc34>
    3e7c:	00f60703          	lb	a4,15(a2)
    3e80:	000015b7          	lui	a1,0x1
    3e84:	40b405b3          	sub	a1,s0,a1
    3e88:	e8e5b023          	sd	a4,-384(a1) # e80 <.LBB63_3+0xc2c>
    3e8c:	01060703          	lb	a4,16(a2)
    3e90:	000015b7          	lui	a1,0x1
    3e94:	40b405b3          	sub	a1,s0,a1
    3e98:	e6e5bc23          	sd	a4,-392(a1) # e78 <.LBB63_3+0xc24>
    3e9c:	01160703          	lb	a4,17(a2)
    3ea0:	000015b7          	lui	a1,0x1
    3ea4:	40b405b3          	sub	a1,s0,a1
    3ea8:	e6e5b823          	sd	a4,-400(a1) # e70 <.LBB63_3+0xc1c>
    3eac:	01260703          	lb	a4,18(a2)
    3eb0:	000015b7          	lui	a1,0x1
    3eb4:	40b405b3          	sub	a1,s0,a1
    3eb8:	e6e5b423          	sd	a4,-408(a1) # e68 <.LBB63_3+0xc14>
    3ebc:	01e68703          	lb	a4,30(a3)
    3ec0:	000015b7          	lui	a1,0x1
    3ec4:	40b405b3          	sub	a1,s0,a1
    3ec8:	eee5bc23          	sd	a4,-264(a1) # ef8 <.LBB63_4+0x58>
    3ecc:	01d68703          	lb	a4,29(a3)
    3ed0:	000015b7          	lui	a1,0x1
    3ed4:	40b405b3          	sub	a1,s0,a1
    3ed8:	f0e5b423          	sd	a4,-248(a1) # f08 <.LBB63_4+0x68>
    3edc:	01c68703          	lb	a4,28(a3)
    3ee0:	000015b7          	lui	a1,0x1
    3ee4:	40b405b3          	sub	a1,s0,a1
    3ee8:	f0e5b823          	sd	a4,-240(a1) # f10 <.LBB63_4+0x70>
    3eec:	01b68703          	lb	a4,27(a3)
    3ef0:	000015b7          	lui	a1,0x1
    3ef4:	40b405b3          	sub	a1,s0,a1
    3ef8:	f2e5b023          	sd	a4,-224(a1) # f20 <.LBB63_4+0x80>
    3efc:	01a68703          	lb	a4,26(a3)
    3f00:	000015b7          	lui	a1,0x1
    3f04:	40b405b3          	sub	a1,s0,a1
    3f08:	f2e5b423          	sd	a4,-216(a1) # f28 <.LBB63_4+0x88>
    3f0c:	01968703          	lb	a4,25(a3)
    3f10:	000015b7          	lui	a1,0x1
    3f14:	40b405b3          	sub	a1,s0,a1
    3f18:	f2e5b823          	sd	a4,-208(a1) # f30 <.LBB63_4+0x90>
    3f1c:	01868703          	lb	a4,24(a3)
    3f20:	000015b7          	lui	a1,0x1
    3f24:	40b405b3          	sub	a1,s0,a1
    3f28:	f2e5bc23          	sd	a4,-200(a1) # f38 <.LBB63_4+0x98>
    3f2c:	01768703          	lb	a4,23(a3)
    3f30:	000015b7          	lui	a1,0x1
    3f34:	40b405b3          	sub	a1,s0,a1
    3f38:	f4e5b023          	sd	a4,-192(a1) # f40 <.LBB63_4+0xa0>
    3f3c:	01668703          	lb	a4,22(a3)
    3f40:	000015b7          	lui	a1,0x1
    3f44:	40b405b3          	sub	a1,s0,a1
    3f48:	f4e5b423          	sd	a4,-184(a1) # f48 <.LBB63_4+0xa8>
    3f4c:	01568703          	lb	a4,21(a3)
    3f50:	000015b7          	lui	a1,0x1
    3f54:	40b405b3          	sub	a1,s0,a1
    3f58:	f4e5b823          	sd	a4,-176(a1) # f50 <.LBB63_4+0xb0>
    3f5c:	01468703          	lb	a4,20(a3)
    3f60:	000015b7          	lui	a1,0x1
    3f64:	40b405b3          	sub	a1,s0,a1
    3f68:	f4e5bc23          	sd	a4,-168(a1) # f58 <.LBB63_4+0xb8>
    3f6c:	01368703          	lb	a4,19(a3)
    3f70:	000015b7          	lui	a1,0x1
    3f74:	40b405b3          	sub	a1,s0,a1
    3f78:	f6e5b023          	sd	a4,-160(a1) # f60 <.LBB63_4+0xc0>
    3f7c:	01268703          	lb	a4,18(a3)
    3f80:	000015b7          	lui	a1,0x1
    3f84:	40b405b3          	sub	a1,s0,a1
    3f88:	f6e5b423          	sd	a4,-152(a1) # f68 <.LBB63_4+0xc8>
    3f8c:	01168703          	lb	a4,17(a3)
    3f90:	000015b7          	lui	a1,0x1
    3f94:	40b405b3          	sub	a1,s0,a1
    3f98:	f6e5b823          	sd	a4,-144(a1) # f70 <.LBB63_4+0xd0>
    3f9c:	01068703          	lb	a4,16(a3)
    3fa0:	000015b7          	lui	a1,0x1
    3fa4:	40b405b3          	sub	a1,s0,a1
    3fa8:	f6e5bc23          	sd	a4,-136(a1) # f78 <.LBB63_4+0xd8>
    3fac:	00f68703          	lb	a4,15(a3)
    3fb0:	000015b7          	lui	a1,0x1
    3fb4:	40b405b3          	sub	a1,s0,a1
    3fb8:	f8e5b023          	sd	a4,-128(a1) # f80 <.LBB63_4+0xe0>
    3fbc:	00e68703          	lb	a4,14(a3)
    3fc0:	000015b7          	lui	a1,0x1
    3fc4:	40b405b3          	sub	a1,s0,a1
    3fc8:	f8e5b423          	sd	a4,-120(a1) # f88 <.LBB63_4+0xe8>
    3fcc:	00d68703          	lb	a4,13(a3)
    3fd0:	000015b7          	lui	a1,0x1
    3fd4:	40b405b3          	sub	a1,s0,a1
    3fd8:	f8e5b823          	sd	a4,-112(a1) # f90 <.LBB63_4+0xf0>
    3fdc:	00c68703          	lb	a4,12(a3)
    3fe0:	000015b7          	lui	a1,0x1
    3fe4:	40b405b3          	sub	a1,s0,a1
    3fe8:	f8e5bc23          	sd	a4,-104(a1) # f98 <.LBB63_4+0xf8>
    3fec:	00b68703          	lb	a4,11(a3)
    3ff0:	000015b7          	lui	a1,0x1
    3ff4:	40b405b3          	sub	a1,s0,a1
    3ff8:	fae5b023          	sd	a4,-96(a1) # fa0 <.LBB63_4+0x100>
    3ffc:	00a68703          	lb	a4,10(a3)
    4000:	000015b7          	lui	a1,0x1
    4004:	40b405b3          	sub	a1,s0,a1
    4008:	fae5b423          	sd	a4,-88(a1) # fa8 <.LBB63_4+0x108>
    400c:	00968703          	lb	a4,9(a3)
    4010:	000015b7          	lui	a1,0x1
    4014:	40b405b3          	sub	a1,s0,a1
    4018:	fae5b823          	sd	a4,-80(a1) # fb0 <.LBB63_4+0x110>
    401c:	00868703          	lb	a4,8(a3)
    4020:	000015b7          	lui	a1,0x1
    4024:	40b405b3          	sub	a1,s0,a1
    4028:	fae5bc23          	sd	a4,-72(a1) # fb8 <.LBB63_4+0x118>
    402c:	00768703          	lb	a4,7(a3)
    4030:	000015b7          	lui	a1,0x1
    4034:	40b405b3          	sub	a1,s0,a1
    4038:	fce5b023          	sd	a4,-64(a1) # fc0 <.LBB63_4+0x120>
    403c:	00668703          	lb	a4,6(a3)
    4040:	000015b7          	lui	a1,0x1
    4044:	40b405b3          	sub	a1,s0,a1
    4048:	fce5b423          	sd	a4,-56(a1) # fc8 <.LBB63_4+0x128>
    404c:	00568703          	lb	a4,5(a3)
    4050:	000015b7          	lui	a1,0x1
    4054:	40b405b3          	sub	a1,s0,a1
    4058:	fce5b823          	sd	a4,-48(a1) # fd0 <.LBB63_4+0x130>
    405c:	00468703          	lb	a4,4(a3)
    4060:	000015b7          	lui	a1,0x1
    4064:	40b405b3          	sub	a1,s0,a1
    4068:	fce5bc23          	sd	a4,-40(a1) # fd8 <.LBB63_4+0x138>
    406c:	00368703          	lb	a4,3(a3)
    4070:	000015b7          	lui	a1,0x1
    4074:	40b405b3          	sub	a1,s0,a1
    4078:	fee5b023          	sd	a4,-32(a1) # fe0 <.LBB63_4+0x140>
    407c:	00268703          	lb	a4,2(a3)
    4080:	000015b7          	lui	a1,0x1
    4084:	40b405b3          	sub	a1,s0,a1
    4088:	fee5b423          	sd	a4,-24(a1) # fe8 <.LBB63_4+0x148>
    408c:	00168703          	lb	a4,1(a3)
    4090:	000015b7          	lui	a1,0x1
    4094:	40b405b3          	sub	a1,s0,a1
    4098:	fee5b823          	sd	a4,-16(a1) # ff0 <.LBB63_4+0x150>
    409c:	00068703          	lb	a4,0(a3)
    40a0:	000015b7          	lui	a1,0x1
    40a4:	40b405b3          	sub	a1,s0,a1
    40a8:	fee5bc23          	sd	a4,-8(a1) # ff8 <.LBB63_4+0x158>
    40ac:	01f60703          	lb	a4,31(a2)
    40b0:	000015b7          	lui	a1,0x1
    40b4:	40b405b3          	sub	a1,s0,a1
    40b8:	dce5b423          	sd	a4,-568(a1) # dc8 <.LBB63_3+0xb74>
    40bc:	01e60703          	lb	a4,30(a2)
    40c0:	000015b7          	lui	a1,0x1
    40c4:	40b405b3          	sub	a1,s0,a1
    40c8:	dce5bc23          	sd	a4,-552(a1) # dd8 <.LBB63_3+0xb84>
    40cc:	01d60703          	lb	a4,29(a2)
    40d0:	000015b7          	lui	a1,0x1
    40d4:	40b405b3          	sub	a1,s0,a1
    40d8:	dee5b423          	sd	a4,-536(a1) # de8 <.LBB63_3+0xb94>
    40dc:	01c60703          	lb	a4,28(a2)
    40e0:	000015b7          	lui	a1,0x1
    40e4:	40b405b3          	sub	a1,s0,a1
    40e8:	dee5b823          	sd	a4,-528(a1) # df0 <.LBB63_3+0xb9c>
    40ec:	01b60703          	lb	a4,27(a2)
    40f0:	000015b7          	lui	a1,0x1
    40f4:	40b405b3          	sub	a1,s0,a1
    40f8:	e0e5b023          	sd	a4,-512(a1) # e00 <.LBB63_3+0xbac>
    40fc:	01a60703          	lb	a4,26(a2)
    4100:	000015b7          	lui	a1,0x1
    4104:	40b405b3          	sub	a1,s0,a1
    4108:	e0e5b823          	sd	a4,-496(a1) # e10 <.LBB63_3+0xbbc>
    410c:	01960703          	lb	a4,25(a2)
    4110:	000015b7          	lui	a1,0x1
    4114:	40b405b3          	sub	a1,s0,a1
    4118:	e2e5b023          	sd	a4,-480(a1) # e20 <.LBB63_3+0xbcc>
    411c:	01860703          	lb	a4,24(a2)
    4120:	000015b7          	lui	a1,0x1
    4124:	40b405b3          	sub	a1,s0,a1
    4128:	e2e5b823          	sd	a4,-464(a1) # e30 <.LBB63_3+0xbdc>
    412c:	01760703          	lb	a4,23(a2)
    4130:	000015b7          	lui	a1,0x1
    4134:	40b405b3          	sub	a1,s0,a1
    4138:	e4e5b023          	sd	a4,-448(a1) # e40 <.LBB63_3+0xbec>
    413c:	01660703          	lb	a4,22(a2)
    4140:	000015b7          	lui	a1,0x1
    4144:	40b405b3          	sub	a1,s0,a1
    4148:	e4e5b423          	sd	a4,-440(a1) # e48 <.LBB63_3+0xbf4>
    414c:	01560703          	lb	a4,21(a2)
    4150:	000015b7          	lui	a1,0x1
    4154:	40b405b3          	sub	a1,s0,a1
    4158:	e4e5b823          	sd	a4,-432(a1) # e50 <.LBB63_3+0xbfc>
    415c:	01460703          	lb	a4,20(a2)
    4160:	000015b7          	lui	a1,0x1
    4164:	40b405b3          	sub	a1,s0,a1
    4168:	e4e5bc23          	sd	a4,-424(a1) # e58 <.LBB63_3+0xc04>
    416c:	01360603          	lb	a2,19(a2)
    4170:	000015b7          	lui	a1,0x1
    4174:	40b405b3          	sub	a1,s0,a1
    4178:	e6c5b023          	sd	a2,-416(a1) # e60 <.LBB63_3+0xc0c>
    417c:	01f68603          	lb	a2,31(a3)
    4180:	000015b7          	lui	a1,0x1
    4184:	40b405b3          	sub	a1,s0,a1
    4188:	ecc5b823          	sd	a2,-304(a1) # ed0 <.LBB63_4+0x30>
    418c:	000015b7          	lui	a1,0x1
    4190:	40b405b3          	sub	a1,s0,a1
    4194:	0485b383          	ld	t2,72(a1) # 1048 <.LBB63_4+0x1a8>
    4198:	0043a803          	lw	a6,4(t2)
    419c:	0083a603          	lw	a2,8(t2)
    41a0:	00c3a683          	lw	a3,12(t2)
    41a4:	0103a703          	lw	a4,16(t2)
    41a8:	0143a583          	lw	a1,20(t2)
    41ac:	00001a37          	lui	s4,0x1
    41b0:	41440a33          	sub	s4,s0,s4
    41b4:	5aba3423          	sd	a1,1448(s4) # 15a8 <.LBB63_5+0x180>
    41b8:	0183a583          	lw	a1,24(t2)
    41bc:	00001a37          	lui	s4,0x1
    41c0:	41440a33          	sub	s4,s0,s4
    41c4:	58ba3c23          	sd	a1,1432(s4) # 1598 <.LBB63_5+0x170>
    41c8:	01c3a583          	lw	a1,28(t2)
    41cc:	000013b7          	lui	t2,0x1
    41d0:	407403b3          	sub	t2,s0,t2
    41d4:	58b3b423          	sd	a1,1416(t2) # 1588 <.LBB63_5+0x160>
    41d8:	400003b7          	lui	t2,0x40000
    41dc:	000015b7          	lui	a1,0x1
    41e0:	40b405b3          	sub	a1,s0,a1
    41e4:	6805b583          	ld	a1,1664(a1) # 1680 <.LBB63_5+0x258>
    41e8:	0005d463          	bgez	a1,41f0 <.LBB63_26>
    41ec:	c00003b7          	lui	t2,0xc0000

00000000000041f0 <.LBB63_26>:
    41f0:	000015b7          	lui	a1,0x1
    41f4:	40b405b3          	sub	a1,s0,a1
    41f8:	3475b423          	sd	t2,840(a1) # 1348 <.LBB63_4+0x4a8>
    41fc:	007d1d13          	slli	s10,s10,0x7
    4200:	f8843383          	ld	t2,-120(s0)
    4204:	000015b7          	lui	a1,0x1
    4208:	40b405b3          	sub	a1,s0,a1
    420c:	7005b583          	ld	a1,1792(a1) # 1700 <.LBB63_5+0x2d8>
    4210:	007583b3          	add	t2,a1,t2
    4214:	000015b7          	lui	a1,0x1
    4218:	40b405b3          	sub	a1,s0,a1
    421c:	71a5b023          	sd	s10,1792(a1) # 1700 <.LBB63_5+0x2d8>
    4220:	01a383b3          	add	t2,t2,s10
    4224:	012b0a33          	add	s4,s6,s2
    4228:	014385bb          	addw	a1,t2,s4
    422c:	400003b7          	lui	t2,0x40000
    4230:	00001a37          	lui	s4,0x1
    4234:	41440a33          	sub	s4,s0,s4
    4238:	2cba3823          	sd	a1,720(s4) # 12d0 <.LBB63_4+0x430>
    423c:	00001a37          	lui	s4,0x1
    4240:	41440a33          	sub	s4,s0,s4
    4244:	788a3a83          	ld	s5,1928(s4) # 1788 <.LBB63_5+0x360>
    4248:	00001a37          	lui	s4,0x1
    424c:	41440a33          	sub	s4,s0,s4
    4250:	778a3c03          	ld	s8,1912(s4) # 1778 <.LBB63_5+0x350>
    4254:	0005d463          	bgez	a1,425c <.LBB63_28>
    4258:	c00003b7          	lui	t2,0xc0000

000000000000425c <.LBB63_28>:
    425c:	000015b7          	lui	a1,0x1
    4260:	40b405b3          	sub	a1,s0,a1
    4264:	2c75b423          	sd	t2,712(a1) # 12c8 <.LBB63_4+0x428>
    4268:	007d9d93          	slli	s11,s11,0x7
    426c:	f8043383          	ld	t2,-128(s0)
    4270:	000015b7          	lui	a1,0x1
    4274:	40b405b3          	sub	a1,s0,a1
    4278:	7085b583          	ld	a1,1800(a1) # 1708 <.LBB63_5+0x2e0>
    427c:	007583b3          	add	t2,a1,t2
    4280:	000015b7          	lui	a1,0x1
    4284:	40b405b3          	sub	a1,s0,a1
    4288:	71b5b423          	sd	s11,1800(a1) # 1708 <.LBB63_5+0x2e0>
    428c:	01b383b3          	add	t2,t2,s11
    4290:	012b0a33          	add	s4,s6,s2
    4294:	014385bb          	addw	a1,t2,s4
    4298:	400003b7          	lui	t2,0x40000
    429c:	00001a37          	lui	s4,0x1
    42a0:	41440a33          	sub	s4,s0,s4
    42a4:	24ba3823          	sd	a1,592(s4) # 1250 <.LBB63_4+0x3b0>
    42a8:	00001a37          	lui	s4,0x1
    42ac:	41440a33          	sub	s4,s0,s4
    42b0:	720a3d03          	ld	s10,1824(s4) # 1720 <.LBB63_5+0x2f8>
    42b4:	0005d463          	bgez	a1,42bc <.LBB63_30>
    42b8:	c00003b7          	lui	t2,0xc0000

00000000000042bc <.LBB63_30>:
    42bc:	000015b7          	lui	a1,0x1
    42c0:	40b405b3          	sub	a1,s0,a1
    42c4:	2475b423          	sd	t2,584(a1) # 1248 <.LBB63_4+0x3a8>
    42c8:	007c9c93          	slli	s9,s9,0x7
    42cc:	f7043383          	ld	t2,-144(s0)
    42d0:	000015b7          	lui	a1,0x1
    42d4:	40b405b3          	sub	a1,s0,a1
    42d8:	7105b583          	ld	a1,1808(a1) # 1710 <.LBB63_5+0x2e8>
    42dc:	007583b3          	add	t2,a1,t2
    42e0:	000015b7          	lui	a1,0x1
    42e4:	40b405b3          	sub	a1,s0,a1
    42e8:	7195b823          	sd	s9,1808(a1) # 1710 <.LBB63_5+0x2e8>
    42ec:	019383b3          	add	t2,t2,s9
    42f0:	012b0a33          	add	s4,s6,s2
    42f4:	014385bb          	addw	a1,t2,s4
    42f8:	400003b7          	lui	t2,0x40000
    42fc:	aa043d83          	ld	s11,-1376(s0)
    4300:	00001a37          	lui	s4,0x1
    4304:	41440a33          	sub	s4,s0,s4
    4308:	1cba3823          	sd	a1,464(s4) # 11d0 <.LBB63_4+0x330>
    430c:	0005d463          	bgez	a1,4314 <.LBB63_32>
    4310:	c00003b7          	lui	t2,0xc0000

0000000000004314 <.LBB63_32>:
    4314:	000015b7          	lui	a1,0x1
    4318:	40b405b3          	sub	a1,s0,a1
    431c:	1c75b023          	sd	t2,448(a1) # 11c0 <.LBB63_4+0x320>
    4320:	00799993          	slli	s3,s3,0x7
    4324:	f6843383          	ld	t2,-152(s0)
    4328:	000015b7          	lui	a1,0x1
    432c:	40b405b3          	sub	a1,s0,a1
    4330:	7185b583          	ld	a1,1816(a1) # 1718 <.LBB63_5+0x2f0>
    4334:	007583b3          	add	t2,a1,t2
    4338:	000015b7          	lui	a1,0x1
    433c:	40b405b3          	sub	a1,s0,a1
    4340:	7135bc23          	sd	s3,1816(a1) # 1718 <.LBB63_5+0x2f0>
    4344:	013383b3          	add	t2,t2,s3
    4348:	012b09b3          	add	s3,s6,s2
    434c:	013385bb          	addw	a1,t2,s3
    4350:	400003b7          	lui	t2,0x40000
    4354:	000019b7          	lui	s3,0x1
    4358:	413409b3          	sub	s3,s0,s3
    435c:	14b9b823          	sd	a1,336(s3) # 1150 <.LBB63_4+0x2b0>
    4360:	87843c83          	ld	s9,-1928(s0)
    4364:	000019b7          	lui	s3,0x1
    4368:	413409b3          	sub	s3,s0,s3
    436c:	7909ba03          	ld	s4,1936(s3) # 1790 <.LBB63_5+0x368>
    4370:	0005d463          	bgez	a1,4378 <.LBB63_34>
    4374:	c00003b7          	lui	t2,0xc0000

0000000000004378 <.LBB63_34>:
    4378:	000015b7          	lui	a1,0x1
    437c:	40b405b3          	sub	a1,s0,a1
    4380:	1475b023          	sd	t2,320(a1) # 1140 <.LBB63_4+0x2a0>
    4384:	007b9b93          	slli	s7,s7,0x7
    4388:	f6043383          	ld	t2,-160(s0)
    438c:	007d03b3          	add	t2,s10,t2
    4390:	000015b7          	lui	a1,0x1
    4394:	40b405b3          	sub	a1,s0,a1
    4398:	7375b023          	sd	s7,1824(a1) # 1720 <.LBB63_5+0x2f8>
    439c:	017383b3          	add	t2,t2,s7
    43a0:	012b0933          	add	s2,s6,s2
    43a4:	012385bb          	addw	a1,t2,s2
    43a8:	400003b7          	lui	t2,0x40000
    43ac:	99843d03          	ld	s10,-1640(s0)
    43b0:	00001937          	lui	s2,0x1
    43b4:	41240933          	sub	s2,s0,s2
    43b8:	0cb93823          	sd	a1,208(s2) # 10d0 <.LBB63_4+0x230>
    43bc:	00001937          	lui	s2,0x1
    43c0:	41240933          	sub	s2,s0,s2
    43c4:	74893983          	ld	s3,1864(s2) # 1748 <.LBB63_5+0x320>
    43c8:	0005d463          	bgez	a1,43d0 <.LBB63_36>
    43cc:	c00003b7          	lui	t2,0xc0000

00000000000043d0 <.LBB63_36>:
    43d0:	000015b7          	lui	a1,0x1
    43d4:	40b405b3          	sub	a1,s0,a1
    43d8:	0a75bc23          	sd	t2,184(a1) # 10b8 <.LBB63_4+0x218>
    43dc:	00749493          	slli	s1,s1,0x7
    43e0:	f5843383          	ld	t2,-168(s0)
    43e4:	000015b7          	lui	a1,0x1
    43e8:	40b405b3          	sub	a1,s0,a1
    43ec:	7285b583          	ld	a1,1832(a1) # 1728 <.LBB63_5+0x300>
    43f0:	007583b3          	add	t2,a1,t2
    43f4:	000015b7          	lui	a1,0x1
    43f8:	40b405b3          	sub	a1,s0,a1
    43fc:	7295b423          	sd	s1,1832(a1) # 1728 <.LBB63_5+0x300>
    4400:	009383b3          	add	t2,t2,s1
    4404:	00024937          	lui	s2,0x24
    4408:	012b04b3          	add	s1,s6,s2
    440c:	009385bb          	addw	a1,t2,s1
    4410:	400003b7          	lui	t2,0x40000
    4414:	000014b7          	lui	s1,0x1
    4418:	409404b3          	sub	s1,s0,s1
    441c:	04b4b823          	sd	a1,80(s1) # 1050 <.LBB63_4+0x1b0>
    4420:	000014b7          	lui	s1,0x1
    4424:	409404b3          	sub	s1,s0,s1
    4428:	7804bb83          	ld	s7,1920(s1) # 1780 <.LBB63_5+0x358>
    442c:	0005d463          	bgez	a1,4434 <.LBB63_38>
    4430:	c00003b7          	lui	t2,0xc0000

0000000000004434 <.LBB63_38>:
    4434:	000025b7          	lui	a1,0x2
    4438:	40b405b3          	sub	a1,s0,a1
    443c:	7e75b823          	sd	t2,2032(a1) # 27f0 <.LBB63_5+0x13c8>
    4440:	007f9f93          	slli	t6,t6,0x7
    4444:	f5043383          	ld	t2,-176(s0)
    4448:	000015b7          	lui	a1,0x1
    444c:	40b405b3          	sub	a1,s0,a1
    4450:	7305b583          	ld	a1,1840(a1) # 1730 <.LBB63_5+0x308>
    4454:	007583b3          	add	t2,a1,t2
    4458:	000015b7          	lui	a1,0x1
    445c:	40b405b3          	sub	a1,s0,a1
    4460:	73f5b823          	sd	t6,1840(a1) # 1730 <.LBB63_5+0x308>
    4464:	01f383b3          	add	t2,t2,t6
    4468:	012b0fb3          	add	t6,s6,s2
    446c:	01f385bb          	addw	a1,t2,t6
    4470:	400003b7          	lui	t2,0x40000
    4474:	b9843483          	ld	s1,-1128(s0)
    4478:	00002fb7          	lui	t6,0x2
    447c:	41f40fb3          	sub	t6,s0,t6
    4480:	78bfb023          	sd	a1,1920(t6) # 2780 <.LBB63_5+0x1358>
    4484:	0005d463          	bgez	a1,448c <.LBB63_40>
    4488:	c00003b7          	lui	t2,0xc0000

000000000000448c <.LBB63_40>:
    448c:	000025b7          	lui	a1,0x2
    4490:	40b405b3          	sub	a1,s0,a1
    4494:	7675b423          	sd	t2,1896(a1) # 2768 <.LBB63_5+0x1340>
    4498:	007f1f13          	slli	t5,t5,0x7
    449c:	f4843383          	ld	t2,-184(s0)
    44a0:	000015b7          	lui	a1,0x1
    44a4:	40b405b3          	sub	a1,s0,a1
    44a8:	7385b583          	ld	a1,1848(a1) # 1738 <.LBB63_5+0x310>
    44ac:	007583b3          	add	t2,a1,t2
    44b0:	000015b7          	lui	a1,0x1
    44b4:	40b405b3          	sub	a1,s0,a1
    44b8:	73e5bc23          	sd	t5,1848(a1) # 1738 <.LBB63_5+0x310>
    44bc:	01e383b3          	add	t2,t2,t5
    44c0:	012b0f33          	add	t5,s6,s2
    44c4:	01e385bb          	addw	a1,t2,t5
    44c8:	400003b7          	lui	t2,0x40000
    44cc:	00002f37          	lui	t5,0x2
    44d0:	41e40f33          	sub	t5,s0,t5
    44d4:	70bf3023          	sd	a1,1792(t5) # 2700 <.LBB63_5+0x12d8>
    44d8:	00001f37          	lui	t5,0x1
    44dc:	41e40f33          	sub	t5,s0,t5
    44e0:	798f3f83          	ld	t6,1944(t5) # 1798 <.LBB63_5+0x370>
    44e4:	0005d463          	bgez	a1,44ec <.LBB63_42>
    44e8:	c00003b7          	lui	t2,0xc0000

00000000000044ec <.LBB63_42>:
    44ec:	000025b7          	lui	a1,0x2
    44f0:	40b405b3          	sub	a1,s0,a1
    44f4:	6e75b823          	sd	t2,1776(a1) # 26f0 <.LBB63_5+0x12c8>
    44f8:	007e9e93          	slli	t4,t4,0x7
    44fc:	f4043383          	ld	t2,-192(s0)
    4500:	000015b7          	lui	a1,0x1
    4504:	40b405b3          	sub	a1,s0,a1
    4508:	7405b583          	ld	a1,1856(a1) # 1740 <.LBB63_5+0x318>
    450c:	007583b3          	add	t2,a1,t2
    4510:	000015b7          	lui	a1,0x1
    4514:	40b405b3          	sub	a1,s0,a1
    4518:	75d5b023          	sd	t4,1856(a1) # 1740 <.LBB63_5+0x318>
    451c:	01d383b3          	add	t2,t2,t4
    4520:	012b0eb3          	add	t4,s6,s2
    4524:	01d385bb          	addw	a1,t2,t4
    4528:	400003b7          	lui	t2,0x40000
    452c:	89843f03          	ld	t5,-1896(s0)
    4530:	00002eb7          	lui	t4,0x2
    4534:	41d40eb3          	sub	t4,s0,t4
    4538:	68beb023          	sd	a1,1664(t4) # 2680 <.LBB63_5+0x1258>
    453c:	0005d463          	bgez	a1,4544 <.LBB63_44>
    4540:	c00003b7          	lui	t2,0xc0000

0000000000004544 <.LBB63_44>:
    4544:	000025b7          	lui	a1,0x2
    4548:	40b405b3          	sub	a1,s0,a1
    454c:	6675b423          	sd	t2,1640(a1) # 2668 <.LBB63_5+0x1240>
    4550:	00729593          	slli	a1,t0,0x7
    4554:	f3843283          	ld	t0,-200(s0)
    4558:	005982b3          	add	t0,s3,t0
    455c:	000013b7          	lui	t2,0x1
    4560:	407403b3          	sub	t2,s0,t2
    4564:	74b3b423          	sd	a1,1864(t2) # 1748 <.LBB63_5+0x320>
    4568:	00b282b3          	add	t0,t0,a1
    456c:	012b03b3          	add	t2,s6,s2
    4570:	007285bb          	addw	a1,t0,t2
    4574:	400003b7          	lui	t2,0x40000
    4578:	8a043e83          	ld	t4,-1888(s0)
    457c:	000022b7          	lui	t0,0x2
    4580:	405402b3          	sub	t0,s0,t0
    4584:	60b2b423          	sd	a1,1544(t0) # 2608 <.LBB63_5+0x11e0>
    4588:	0005d463          	bgez	a1,4590 <.LBB63_46>
    458c:	c00003b7          	lui	t2,0xc0000

0000000000004590 <.LBB63_46>:
    4590:	00779293          	slli	t0,a5,0x7
    4594:	f3043783          	ld	a5,-208(s0)
    4598:	000015b7          	lui	a1,0x1
    459c:	40b405b3          	sub	a1,s0,a1
    45a0:	7505b583          	ld	a1,1872(a1) # 1750 <.LBB63_5+0x328>
    45a4:	00f587b3          	add	a5,a1,a5
    45a8:	00028993          	mv	s3,t0
    45ac:	005787b3          	add	a5,a5,t0
    45b0:	012b02b3          	add	t0,s6,s2
    45b4:	005785bb          	addw	a1,a5,t0
    45b8:	400007b7          	lui	a5,0x40000
    45bc:	000022b7          	lui	t0,0x2
    45c0:	405402b3          	sub	t0,s0,t0
    45c4:	58b2b823          	sd	a1,1424(t0) # 2590 <.LBB63_5+0x1168>
    45c8:	0005d463          	bgez	a1,45d0 <.LBB63_48>
    45cc:	c00007b7          	lui	a5,0xc0000

00000000000045d0 <.LBB63_48>:
    45d0:	000025b7          	lui	a1,0x2
    45d4:	40b405b3          	sub	a1,s0,a1
    45d8:	56f5bc23          	sd	a5,1400(a1) # 2578 <.LBB63_5+0x1150>
    45dc:	00789893          	slli	a7,a7,0x7
    45e0:	f2843783          	ld	a5,-216(s0)
    45e4:	000015b7          	lui	a1,0x1
    45e8:	40b405b3          	sub	a1,s0,a1
    45ec:	7585b583          	ld	a1,1880(a1) # 1758 <.LBB63_5+0x330>
    45f0:	00f587b3          	add	a5,a1,a5
    45f4:	011787b3          	add	a5,a5,a7
    45f8:	012b02b3          	add	t0,s6,s2
    45fc:	005785bb          	addw	a1,a5,t0
    4600:	400007b7          	lui	a5,0x40000
    4604:	000022b7          	lui	t0,0x2
    4608:	405402b3          	sub	t0,s0,t0
    460c:	50b2bc23          	sd	a1,1304(t0) # 2518 <.LBB63_5+0x10f0>
    4610:	0005d463          	bgez	a1,4618 <.LBB63_50>
    4614:	c00007b7          	lui	a5,0xc0000

0000000000004618 <.LBB63_50>:
    4618:	000025b7          	lui	a1,0x2
    461c:	40b405b3          	sub	a1,s0,a1
    4620:	50f5b423          	sd	a5,1288(a1) # 2508 <.LBB63_5+0x10e0>
    4624:	00731313          	slli	t1,t1,0x7
    4628:	f2043783          	ld	a5,-224(s0)
    462c:	000015b7          	lui	a1,0x1
    4630:	40b405b3          	sub	a1,s0,a1
    4634:	7605b583          	ld	a1,1888(a1) # 1760 <.LBB63_5+0x338>
    4638:	00f587b3          	add	a5,a1,a5
    463c:	006787b3          	add	a5,a5,t1
    4640:	012b02b3          	add	t0,s6,s2
    4644:	005785bb          	addw	a1,a5,t0
    4648:	400007b7          	lui	a5,0x40000
    464c:	000022b7          	lui	t0,0x2
    4650:	405402b3          	sub	t0,s0,t0
    4654:	48b2bc23          	sd	a1,1176(t0) # 2498 <.LBB63_5+0x1070>
    4658:	0005d463          	bgez	a1,4660 <.LBB63_52>
    465c:	c00007b7          	lui	a5,0xc0000

0000000000004660 <.LBB63_52>:
    4660:	000025b7          	lui	a1,0x2
    4664:	40b405b3          	sub	a1,s0,a1
    4668:	48f5b023          	sd	a5,1152(a1) # 2480 <.LBB63_5+0x1058>
    466c:	007e1e13          	slli	t3,t3,0x7
    4670:	f1843783          	ld	a5,-232(s0)
    4674:	000015b7          	lui	a1,0x1
    4678:	40b405b3          	sub	a1,s0,a1
    467c:	7685b583          	ld	a1,1896(a1) # 1768 <.LBB63_5+0x340>
    4680:	00f587b3          	add	a5,a1,a5
    4684:	01c787b3          	add	a5,a5,t3
    4688:	012b02b3          	add	t0,s6,s2
    468c:	005785bb          	addw	a1,a5,t0
    4690:	400007b7          	lui	a5,0x40000
    4694:	000022b7          	lui	t0,0x2
    4698:	405402b3          	sub	t0,s0,t0
    469c:	40b2bc23          	sd	a1,1048(t0) # 2418 <.LBB63_5+0xff0>
    46a0:	0005d463          	bgez	a1,46a8 <.LBB63_54>
    46a4:	c00007b7          	lui	a5,0xc0000

00000000000046a8 <.LBB63_54>:
    46a8:	000025b7          	lui	a1,0x2
    46ac:	40b405b3          	sub	a1,s0,a1
    46b0:	40f5b423          	sd	a5,1032(a1) # 2408 <.LBB63_5+0xfe0>
    46b4:	00709093          	slli	ra,ra,0x7
    46b8:	f1043783          	ld	a5,-240(s0)
    46bc:	000015b7          	lui	a1,0x1
    46c0:	40b405b3          	sub	a1,s0,a1
    46c4:	7705b583          	ld	a1,1904(a1) # 1770 <.LBB63_5+0x348>
    46c8:	00f587b3          	add	a5,a1,a5
    46cc:	001787b3          	add	a5,a5,ra
    46d0:	012b02b3          	add	t0,s6,s2
    46d4:	005785bb          	addw	a1,a5,t0
    46d8:	400007b7          	lui	a5,0x40000
    46dc:	000022b7          	lui	t0,0x2
    46e0:	405402b3          	sub	t0,s0,t0
    46e4:	3ab2b023          	sd	a1,928(t0) # 23a0 <.LBB63_5+0xf78>
    46e8:	0005d463          	bgez	a1,46f0 <.LBB63_56>
    46ec:	c00007b7          	lui	a5,0xc0000

00000000000046f0 <.LBB63_56>:
    46f0:	000025b7          	lui	a1,0x2
    46f4:	40b405b3          	sub	a1,s0,a1
    46f8:	38f5b823          	sd	a5,912(a1) # 2390 <.LBB63_5+0xf68>
    46fc:	00751513          	slli	a0,a0,0x7
    4700:	ee843783          	ld	a5,-280(s0)
    4704:	00fc07b3          	add	a5,s8,a5
    4708:	00a787b3          	add	a5,a5,a0
    470c:	012b02b3          	add	t0,s6,s2
    4710:	005785bb          	addw	a1,a5,t0
    4714:	400007b7          	lui	a5,0x40000
    4718:	000022b7          	lui	t0,0x2
    471c:	405402b3          	sub	t0,s0,t0
    4720:	32b2b423          	sd	a1,808(t0) # 2328 <.LBB63_5+0xf00>
    4724:	0005d463          	bgez	a1,472c <.LBB63_58>
    4728:	c00007b7          	lui	a5,0xc0000

000000000000472c <.LBB63_58>:
    472c:	000025b7          	lui	a1,0x2
    4730:	40b405b3          	sub	a1,s0,a1
    4734:	32f5b023          	sd	a5,800(a1) # 2320 <.LBB63_5+0xef8>
    4738:	000015b7          	lui	a1,0x1
    473c:	40b405b3          	sub	a1,s0,a1
    4740:	5a05b583          	ld	a1,1440(a1) # 15a0 <.LBB63_5+0x178>
    4744:	00759593          	slli	a1,a1,0x7
    4748:	ee043783          	ld	a5,-288(s0)
    474c:	00fb87b3          	add	a5,s7,a5
    4750:	00b787b3          	add	a5,a5,a1
    4754:	012b02b3          	add	t0,s6,s2
    4758:	005787bb          	addw	a5,a5,t0
    475c:	400002b7          	lui	t0,0x40000
    4760:	00002bb7          	lui	s7,0x2
    4764:	41740bb3          	sub	s7,s0,s7
    4768:	2afbbc23          	sd	a5,696(s7) # 22b8 <.LBB63_5+0xe90>
    476c:	0007d463          	bgez	a5,4774 <.LBB63_60>
    4770:	c00002b7          	lui	t0,0xc0000

0000000000004774 <.LBB63_60>:
    4774:	000027b7          	lui	a5,0x2
    4778:	40f407b3          	sub	a5,s0,a5
    477c:	2a57b823          	sd	t0,688(a5) # 22b0 <.LBB63_5+0xe88>
    4780:	000017b7          	lui	a5,0x1
    4784:	40f407b3          	sub	a5,s0,a5
    4788:	5b07bb83          	ld	s7,1456(a5) # 15b0 <.LBB63_5+0x188>
    478c:	007b9b93          	slli	s7,s7,0x7
    4790:	ed843783          	ld	a5,-296(s0)
    4794:	00fa87b3          	add	a5,s5,a5
    4798:	017787b3          	add	a5,a5,s7
    479c:	012b02b3          	add	t0,s6,s2
    47a0:	005787bb          	addw	a5,a5,t0
    47a4:	400002b7          	lui	t0,0x40000
    47a8:	00002ab7          	lui	s5,0x2
    47ac:	41540ab3          	sub	s5,s0,s5
    47b0:	24fab423          	sd	a5,584(s5) # 2248 <.LBB63_5+0xe20>
    47b4:	0007d463          	bgez	a5,47bc <.LBB63_62>
    47b8:	c00002b7          	lui	t0,0xc0000

00000000000047bc <.LBB63_62>:
    47bc:	000027b7          	lui	a5,0x2
    47c0:	40f407b3          	sub	a5,s0,a5
    47c4:	2457b023          	sd	t0,576(a5) # 2240 <.LBB63_5+0xe18>
    47c8:	000017b7          	lui	a5,0x1
    47cc:	40f407b3          	sub	a5,s0,a5
    47d0:	5b87bc03          	ld	s8,1464(a5) # 15b8 <.LBB63_5+0x190>
    47d4:	007c1c13          	slli	s8,s8,0x7
    47d8:	eb843783          	ld	a5,-328(s0)
    47dc:	00fa07b3          	add	a5,s4,a5
    47e0:	018787b3          	add	a5,a5,s8
    47e4:	012b02b3          	add	t0,s6,s2
    47e8:	005787bb          	addw	a5,a5,t0
    47ec:	400002b7          	lui	t0,0x40000
    47f0:	00002a37          	lui	s4,0x2
    47f4:	41440a33          	sub	s4,s0,s4
    47f8:	1cfa3c23          	sd	a5,472(s4) # 21d8 <.LBB63_5+0xdb0>
    47fc:	0007d463          	bgez	a5,4804 <.LBB63_64>
    4800:	c00002b7          	lui	t0,0xc0000

0000000000004804 <.LBB63_64>:
    4804:	000027b7          	lui	a5,0x2
    4808:	40f407b3          	sub	a5,s0,a5
    480c:	1c57b823          	sd	t0,464(a5) # 21d0 <.LBB63_5+0xda8>
    4810:	000017b7          	lui	a5,0x1
    4814:	40f407b3          	sub	a5,s0,a5
    4818:	5c07ba83          	ld	s5,1472(a5) # 15c0 <.LBB63_5+0x198>
    481c:	007a9a93          	slli	s5,s5,0x7
    4820:	ec043783          	ld	a5,-320(s0)
    4824:	00ff87b3          	add	a5,t6,a5
    4828:	015787b3          	add	a5,a5,s5
    482c:	012b02b3          	add	t0,s6,s2
    4830:	005787bb          	addw	a5,a5,t0
    4834:	400002b7          	lui	t0,0x40000
    4838:	00002fb7          	lui	t6,0x2
    483c:	41f40fb3          	sub	t6,s0,t6
    4840:	16ffb423          	sd	a5,360(t6) # 2168 <.LBB63_5+0xd40>
    4844:	0007d463          	bgez	a5,484c <.LBB63_66>
    4848:	c00002b7          	lui	t0,0xc0000

000000000000484c <.LBB63_66>:
    484c:	000027b7          	lui	a5,0x2
    4850:	40f407b3          	sub	a5,s0,a5
    4854:	1657b023          	sd	t0,352(a5) # 2160 <.LBB63_5+0xd38>
    4858:	000027b7          	lui	a5,0x2
    485c:	40f407b3          	sub	a5,s0,a5
    4860:	5e77bc23          	sd	t2,1528(a5) # 25f8 <.LBB63_5+0x11d0>
    4864:	000017b7          	lui	a5,0x1
    4868:	40f407b3          	sub	a5,s0,a5
    486c:	5c87ba03          	ld	s4,1480(a5) # 15c8 <.LBB63_5+0x1a0>
    4870:	007a1a13          	slli	s4,s4,0x7
    4874:	ec843783          	ld	a5,-312(s0)
    4878:	000012b7          	lui	t0,0x1
    487c:	405402b3          	sub	t0,s0,t0
    4880:	7a82b283          	ld	t0,1960(t0) # 17a8 <.LBB63_5+0x380>
    4884:	00f287b3          	add	a5,t0,a5
    4888:	014787b3          	add	a5,a5,s4
    488c:	012b02b3          	add	t0,s6,s2
    4890:	005787bb          	addw	a5,a5,t0
    4894:	400002b7          	lui	t0,0x40000
    4898:	000023b7          	lui	t2,0x2
    489c:	407403b3          	sub	t2,s0,t2
    48a0:	10f3b023          	sd	a5,256(t2) # 2100 <.LBB63_5+0xcd8>
    48a4:	0007d463          	bgez	a5,48ac <.LBB63_68>
    48a8:	c00002b7          	lui	t0,0xc0000

00000000000048ac <.LBB63_68>:
    48ac:	000027b7          	lui	a5,0x2
    48b0:	40f407b3          	sub	a5,s0,a5
    48b4:	0e57bc23          	sd	t0,248(a5) # 20f8 <.LBB63_5+0xcd0>
    48b8:	000017b7          	lui	a5,0x1
    48bc:	40f407b3          	sub	a5,s0,a5
    48c0:	5d07b383          	ld	t2,1488(a5) # 15d0 <.LBB63_5+0x1a8>
    48c4:	00739393          	slli	t2,t2,0x7
    48c8:	ed043783          	ld	a5,-304(s0)
    48cc:	000012b7          	lui	t0,0x1
    48d0:	405402b3          	sub	t0,s0,t0
    48d4:	6a82b283          	ld	t0,1704(t0) # 16a8 <.LBB63_5+0x280>
    48d8:	00f287b3          	add	a5,t0,a5
    48dc:	007787b3          	add	a5,a5,t2
    48e0:	012b0b33          	add	s6,s6,s2
    48e4:	01678b3b          	addw	s6,a5,s6
    48e8:	400007b7          	lui	a5,0x40000
    48ec:	000b5463          	bgez	s6,48f4 <.LBB63_70>
    48f0:	c00007b7          	lui	a5,0xc0000

00000000000048f4 <.LBB63_70>:
    48f4:	000022b7          	lui	t0,0x2
    48f8:	405402b3          	sub	t0,s0,t0
    48fc:	0af2b423          	sd	a5,168(t0) # 20a8 <.LBB63_5+0xc80>
    4900:	00181793          	slli	a5,a6,0x1
    4904:	eb843283          	ld	t0,-328(s0)
    4908:	00001fb7          	lui	t6,0x1
    490c:	41f40fb3          	sub	t6,s0,t6
    4910:	7a0fbf83          	ld	t6,1952(t6) # 17a0 <.LBB63_5+0x378>
    4914:	005f82b3          	add	t0,t6,t0
    4918:	01078833          	add	a6,a5,a6
    491c:	018282b3          	add	t0,t0,s8
    4920:	012807b3          	add	a5,a6,s2
    4924:	00f287bb          	addw	a5,t0,a5
    4928:	400002b7          	lui	t0,0x40000
    492c:	00001fb7          	lui	t6,0x1
    4930:	41f40fb3          	sub	t6,s0,t6
    4934:	7affb423          	sd	a5,1960(t6) # 17a8 <.LBB63_5+0x380>
    4938:	0007d463          	bgez	a5,4940 <.LBB63_72>
    493c:	c00002b7          	lui	t0,0xc0000

0000000000004940 <.LBB63_72>:
    4940:	000017b7          	lui	a5,0x1
    4944:	40f407b3          	sub	a5,s0,a5
    4948:	7a57b023          	sd	t0,1952(a5) # 17a0 <.LBB63_5+0x378>
    494c:	ec043783          	ld	a5,-320(s0)
    4950:	000012b7          	lui	t0,0x1
    4954:	405402b3          	sub	t0,s0,t0
    4958:	7b02b283          	ld	t0,1968(t0) # 17b0 <.LBB63_5+0x388>
    495c:	00f287b3          	add	a5,t0,a5
    4960:	015787b3          	add	a5,a5,s5
    4964:	012802b3          	add	t0,a6,s2
    4968:	005787bb          	addw	a5,a5,t0
    496c:	400002b7          	lui	t0,0x40000
    4970:	00001fb7          	lui	t6,0x1
    4974:	41f40fb3          	sub	t6,s0,t6
    4978:	7affb823          	sd	a5,1968(t6) # 17b0 <.LBB63_5+0x388>
    497c:	00001fb7          	lui	t6,0x1
    4980:	41f40fb3          	sub	t6,s0,t6
    4984:	728fbf83          	ld	t6,1832(t6) # 1728 <.LBB63_5+0x300>
    4988:	0007d463          	bgez	a5,4990 <.LBB63_74>
    498c:	c00002b7          	lui	t0,0xc0000

0000000000004990 <.LBB63_74>:
    4990:	f8a43823          	sd	a0,-112(s0)
    4994:	00001537          	lui	a0,0x1
    4998:	40a40533          	sub	a0,s0,a0
    499c:	78553c23          	sd	t0,1944(a0) # 1798 <.LBB63_5+0x370>
    49a0:	ec843783          	ld	a5,-312(s0)
    49a4:	00001537          	lui	a0,0x1
    49a8:	40a40533          	sub	a0,s0,a0
    49ac:	7b853283          	ld	t0,1976(a0) # 17b8 <.LBB63_5+0x390>
    49b0:	00f287b3          	add	a5,t0,a5
    49b4:	014787b3          	add	a5,a5,s4
    49b8:	012802b3          	add	t0,a6,s2
    49bc:	005787bb          	addw	a5,a5,t0
    49c0:	400002b7          	lui	t0,0x40000
    49c4:	00001537          	lui	a0,0x1
    49c8:	40a40533          	sub	a0,s0,a0
    49cc:	74f53c23          	sd	a5,1880(a0) # 1758 <.LBB63_5+0x330>
    49d0:	f9043503          	ld	a0,-112(s0)
    49d4:	0007d463          	bgez	a5,49dc <.LBB63_76>
    49d8:	c00002b7          	lui	t0,0xc0000

00000000000049dc <.LBB63_76>:
    49dc:	f8a43823          	sd	a0,-112(s0)
    49e0:	00001537          	lui	a0,0x1
    49e4:	40a40533          	sub	a0,s0,a0
    49e8:	74553823          	sd	t0,1872(a0) # 1750 <.LBB63_5+0x328>
    49ec:	ed043783          	ld	a5,-304(s0)
    49f0:	00001537          	lui	a0,0x1
    49f4:	40a40533          	sub	a0,s0,a0
    49f8:	7c053283          	ld	t0,1984(a0) # 17c0 <.LBB63_5+0x398>
    49fc:	00f287b3          	add	a5,t0,a5
    4a00:	007787b3          	add	a5,a5,t2
    4a04:	012802b3          	add	t0,a6,s2
    4a08:	005787bb          	addw	a5,a5,t0
    4a0c:	400002b7          	lui	t0,0x40000
    4a10:	00001537          	lui	a0,0x1
    4a14:	40a40533          	sub	a0,s0,a0
    4a18:	56f53c23          	sd	a5,1400(a0) # 1578 <.LBB63_5+0x150>
    4a1c:	f9043503          	ld	a0,-112(s0)
    4a20:	0007d463          	bgez	a5,4a28 <.LBB63_78>
    4a24:	c00002b7          	lui	t0,0xc0000

0000000000004a28 <.LBB63_78>:
    4a28:	f8a43823          	sd	a0,-112(s0)
    4a2c:	00001537          	lui	a0,0x1
    4a30:	40a40533          	sub	a0,s0,a0
    4a34:	56553823          	sd	t0,1392(a0) # 1570 <.LBB63_5+0x148>
    4a38:	ed843783          	ld	a5,-296(s0)
    4a3c:	00001537          	lui	a0,0x1
    4a40:	40a40533          	sub	a0,s0,a0
    4a44:	7c853283          	ld	t0,1992(a0) # 17c8 <.LBB63_5+0x3a0>
    4a48:	00f287b3          	add	a5,t0,a5
    4a4c:	017787b3          	add	a5,a5,s7
    4a50:	012802b3          	add	t0,a6,s2
    4a54:	005787bb          	addw	a5,a5,t0
    4a58:	400002b7          	lui	t0,0x40000
    4a5c:	00001537          	lui	a0,0x1
    4a60:	40a40533          	sub	a0,s0,a0
    4a64:	50f53423          	sd	a5,1288(a0) # 1508 <.LBB63_5+0xe0>
    4a68:	f9043503          	ld	a0,-112(s0)
    4a6c:	0007d463          	bgez	a5,4a74 <.LBB63_80>
    4a70:	c00002b7          	lui	t0,0xc0000

0000000000004a74 <.LBB63_80>:
    4a74:	f8a43823          	sd	a0,-112(s0)
    4a78:	00001537          	lui	a0,0x1
    4a7c:	40a40533          	sub	a0,s0,a0
    4a80:	50553023          	sd	t0,1280(a0) # 1500 <.LBB63_5+0xd8>
    4a84:	ee043783          	ld	a5,-288(s0)
    4a88:	00001537          	lui	a0,0x1
    4a8c:	40a40533          	sub	a0,s0,a0
    4a90:	7d053283          	ld	t0,2000(a0) # 17d0 <.LBB63_5+0x3a8>
    4a94:	00f287b3          	add	a5,t0,a5
    4a98:	00b787b3          	add	a5,a5,a1
    4a9c:	012802b3          	add	t0,a6,s2
    4aa0:	005787bb          	addw	a5,a5,t0
    4aa4:	400002b7          	lui	t0,0x40000
    4aa8:	00001537          	lui	a0,0x1
    4aac:	40a40533          	sub	a0,s0,a0
    4ab0:	48f53c23          	sd	a5,1176(a0) # 1498 <.LBB63_5+0x70>
    4ab4:	f9043503          	ld	a0,-112(s0)
    4ab8:	0007d463          	bgez	a5,4ac0 <.LBB63_82>
    4abc:	c00002b7          	lui	t0,0xc0000

0000000000004ac0 <.LBB63_82>:
    4ac0:	f8b43823          	sd	a1,-112(s0)
    4ac4:	000015b7          	lui	a1,0x1
    4ac8:	40b405b3          	sub	a1,s0,a1
    4acc:	4855b823          	sd	t0,1168(a1) # 1490 <.LBB63_5+0x68>
    4ad0:	ee843783          	ld	a5,-280(s0)
    4ad4:	000015b7          	lui	a1,0x1
    4ad8:	40b405b3          	sub	a1,s0,a1
    4adc:	7d85b283          	ld	t0,2008(a1) # 17d8 <.LBB63_5+0x3b0>
    4ae0:	00f287b3          	add	a5,t0,a5
    4ae4:	00a787b3          	add	a5,a5,a0
    4ae8:	012802b3          	add	t0,a6,s2
    4aec:	005787bb          	addw	a5,a5,t0
    4af0:	400002b7          	lui	t0,0x40000
    4af4:	000015b7          	lui	a1,0x1
    4af8:	40b405b3          	sub	a1,s0,a1
    4afc:	42f5b423          	sd	a5,1064(a1) # 1428 <.LBB63_5>
    4b00:	f9043583          	ld	a1,-112(s0)
    4b04:	0007d463          	bgez	a5,4b0c <.LBB63_84>
    4b08:	c00002b7          	lui	t0,0xc0000

0000000000004b0c <.LBB63_84>:
    4b0c:	f8a43823          	sd	a0,-112(s0)
    4b10:	00001537          	lui	a0,0x1
    4b14:	40a40533          	sub	a0,s0,a0
    4b18:	42553023          	sd	t0,1056(a0) # 1420 <.LBB63_4+0x580>
    4b1c:	f1043783          	ld	a5,-240(s0)
    4b20:	00001537          	lui	a0,0x1
    4b24:	40a40533          	sub	a0,s0,a0
    4b28:	7e053283          	ld	t0,2016(a0) # 17e0 <.LBB63_5+0x3b8>
    4b2c:	00f287b3          	add	a5,t0,a5
    4b30:	001787b3          	add	a5,a5,ra
    4b34:	012802b3          	add	t0,a6,s2
    4b38:	005787bb          	addw	a5,a5,t0
    4b3c:	400002b7          	lui	t0,0x40000
    4b40:	00001537          	lui	a0,0x1
    4b44:	40a40533          	sub	a0,s0,a0
    4b48:	3af53c23          	sd	a5,952(a0) # 13b8 <.LBB63_4+0x518>
    4b4c:	f9043503          	ld	a0,-112(s0)
    4b50:	0007d463          	bgez	a5,4b58 <.LBB63_86>
    4b54:	c00002b7          	lui	t0,0xc0000

0000000000004b58 <.LBB63_86>:
    4b58:	f8a43823          	sd	a0,-112(s0)
    4b5c:	00001537          	lui	a0,0x1
    4b60:	40a40533          	sub	a0,s0,a0
    4b64:	3a553823          	sd	t0,944(a0) # 13b0 <.LBB63_4+0x510>
    4b68:	f1843783          	ld	a5,-232(s0)
    4b6c:	00001537          	lui	a0,0x1
    4b70:	40a40533          	sub	a0,s0,a0
    4b74:	7e853283          	ld	t0,2024(a0) # 17e8 <.LBB63_5+0x3c0>
    4b78:	00f287b3          	add	a5,t0,a5
    4b7c:	01c787b3          	add	a5,a5,t3
    4b80:	012802b3          	add	t0,a6,s2
    4b84:	005787bb          	addw	a5,a5,t0
    4b88:	400002b7          	lui	t0,0x40000
    4b8c:	00001537          	lui	a0,0x1
    4b90:	40a40533          	sub	a0,s0,a0
    4b94:	34f53023          	sd	a5,832(a0) # 1340 <.LBB63_4+0x4a0>
    4b98:	f9043503          	ld	a0,-112(s0)
    4b9c:	0007d463          	bgez	a5,4ba4 <.LBB63_88>
    4ba0:	c00002b7          	lui	t0,0xc0000

0000000000004ba4 <.LBB63_88>:
    4ba4:	f8a43823          	sd	a0,-112(s0)
    4ba8:	00001537          	lui	a0,0x1
    4bac:	40a40533          	sub	a0,s0,a0
    4bb0:	32553c23          	sd	t0,824(a0) # 1338 <.LBB63_4+0x498>
    4bb4:	f2043783          	ld	a5,-224(s0)
    4bb8:	00001537          	lui	a0,0x1
    4bbc:	40a40533          	sub	a0,s0,a0
    4bc0:	7f053283          	ld	t0,2032(a0) # 17f0 <.LBB63_5+0x3c8>
    4bc4:	00f287b3          	add	a5,t0,a5
    4bc8:	006787b3          	add	a5,a5,t1
    4bcc:	012802b3          	add	t0,a6,s2
    4bd0:	005787bb          	addw	a5,a5,t0
    4bd4:	400002b7          	lui	t0,0x40000
    4bd8:	00001537          	lui	a0,0x1
    4bdc:	40a40533          	sub	a0,s0,a0
    4be0:	2cf53023          	sd	a5,704(a0) # 12c0 <.LBB63_4+0x420>
    4be4:	f9043503          	ld	a0,-112(s0)
    4be8:	0007d463          	bgez	a5,4bf0 <.LBB63_90>
    4bec:	c00002b7          	lui	t0,0xc0000

0000000000004bf0 <.LBB63_90>:
    4bf0:	f8a43823          	sd	a0,-112(s0)
    4bf4:	00001537          	lui	a0,0x1
    4bf8:	40a40533          	sub	a0,s0,a0
    4bfc:	2a553c23          	sd	t0,696(a0) # 12b8 <.LBB63_4+0x418>
    4c00:	f2843783          	ld	a5,-216(s0)
    4c04:	00001537          	lui	a0,0x1
    4c08:	40a40533          	sub	a0,s0,a0
    4c0c:	7f853283          	ld	t0,2040(a0) # 17f8 <.LBB63_5+0x3d0>
    4c10:	00f287b3          	add	a5,t0,a5
    4c14:	011787b3          	add	a5,a5,a7
    4c18:	012802b3          	add	t0,a6,s2
    4c1c:	005787bb          	addw	a5,a5,t0
    4c20:	400002b7          	lui	t0,0x40000
    4c24:	00001537          	lui	a0,0x1
    4c28:	40a40533          	sub	a0,s0,a0
    4c2c:	24f53023          	sd	a5,576(a0) # 1240 <.LBB63_4+0x3a0>
    4c30:	f9043503          	ld	a0,-112(s0)
    4c34:	0007d463          	bgez	a5,4c3c <.LBB63_92>
    4c38:	c00002b7          	lui	t0,0xc0000

0000000000004c3c <.LBB63_92>:
    4c3c:	f8a43823          	sd	a0,-112(s0)
    4c40:	00001537          	lui	a0,0x1
    4c44:	40a40533          	sub	a0,s0,a0
    4c48:	22553c23          	sd	t0,568(a0) # 1238 <.LBB63_4+0x398>
    4c4c:	f3043783          	ld	a5,-208(s0)
    4c50:	80043283          	ld	t0,-2048(s0)
    4c54:	00f287b3          	add	a5,t0,a5
    4c58:	013787b3          	add	a5,a5,s3
    4c5c:	012802b3          	add	t0,a6,s2
    4c60:	005787bb          	addw	a5,a5,t0
    4c64:	400002b7          	lui	t0,0x40000
    4c68:	00001537          	lui	a0,0x1
    4c6c:	40a40533          	sub	a0,s0,a0
    4c70:	1cf53423          	sd	a5,456(a0) # 11c8 <.LBB63_4+0x328>
    4c74:	f9043503          	ld	a0,-112(s0)
    4c78:	0007d463          	bgez	a5,4c80 <.LBB63_94>
    4c7c:	c00002b7          	lui	t0,0xc0000

0000000000004c80 <.LBB63_94>:
    4c80:	f8a43823          	sd	a0,-112(s0)
    4c84:	00001537          	lui	a0,0x1
    4c88:	40a40533          	sub	a0,s0,a0
    4c8c:	1a553c23          	sd	t0,440(a0) # 11b8 <.LBB63_4+0x318>
    4c90:	f3843783          	ld	a5,-200(s0)
    4c94:	80843283          	ld	t0,-2040(s0)
    4c98:	00f287b3          	add	a5,t0,a5
    4c9c:	00001537          	lui	a0,0x1
    4ca0:	40a40533          	sub	a0,s0,a0
    4ca4:	74853283          	ld	t0,1864(a0) # 1748 <.LBB63_5+0x320>
    4ca8:	005787b3          	add	a5,a5,t0
    4cac:	012802b3          	add	t0,a6,s2
    4cb0:	005787bb          	addw	a5,a5,t0
    4cb4:	400002b7          	lui	t0,0x40000
    4cb8:	00001537          	lui	a0,0x1
    4cbc:	40a40533          	sub	a0,s0,a0
    4cc0:	14f53423          	sd	a5,328(a0) # 1148 <.LBB63_4+0x2a8>
    4cc4:	f9043503          	ld	a0,-112(s0)
    4cc8:	0007d463          	bgez	a5,4cd0 <.LBB63_96>
    4ccc:	c00002b7          	lui	t0,0xc0000

0000000000004cd0 <.LBB63_96>:
    4cd0:	f8a43823          	sd	a0,-112(s0)
    4cd4:	00001537          	lui	a0,0x1
    4cd8:	40a40533          	sub	a0,s0,a0
    4cdc:	12553c23          	sd	t0,312(a0) # 1138 <.LBB63_4+0x298>
    4ce0:	f4043783          	ld	a5,-192(s0)
    4ce4:	81043283          	ld	t0,-2032(s0)
    4ce8:	00f287b3          	add	a5,t0,a5
    4cec:	00001537          	lui	a0,0x1
    4cf0:	40a40533          	sub	a0,s0,a0
    4cf4:	74053283          	ld	t0,1856(a0) # 1740 <.LBB63_5+0x318>
    4cf8:	005787b3          	add	a5,a5,t0
    4cfc:	012802b3          	add	t0,a6,s2
    4d00:	005787bb          	addw	a5,a5,t0
    4d04:	400002b7          	lui	t0,0x40000
    4d08:	00001537          	lui	a0,0x1
    4d0c:	40a40533          	sub	a0,s0,a0
    4d10:	0cf53c23          	sd	a5,216(a0) # 10d8 <.LBB63_4+0x238>
    4d14:	f9043503          	ld	a0,-112(s0)
    4d18:	0007d463          	bgez	a5,4d20 <.LBB63_98>
    4d1c:	c00002b7          	lui	t0,0xc0000

0000000000004d20 <.LBB63_98>:
    4d20:	f8a43823          	sd	a0,-112(s0)
    4d24:	00001537          	lui	a0,0x1
    4d28:	40a40533          	sub	a0,s0,a0
    4d2c:	0c553423          	sd	t0,200(a0) # 10c8 <.LBB63_4+0x228>
    4d30:	f4843783          	ld	a5,-184(s0)
    4d34:	81843283          	ld	t0,-2024(s0)
    4d38:	00f287b3          	add	a5,t0,a5
    4d3c:	00001537          	lui	a0,0x1
    4d40:	40a40533          	sub	a0,s0,a0
    4d44:	73853283          	ld	t0,1848(a0) # 1738 <.LBB63_5+0x310>
    4d48:	005787b3          	add	a5,a5,t0
    4d4c:	012802b3          	add	t0,a6,s2
    4d50:	005787bb          	addw	a5,a5,t0
    4d54:	400002b7          	lui	t0,0x40000
    4d58:	00001537          	lui	a0,0x1
    4d5c:	40a40533          	sub	a0,s0,a0
    4d60:	06f53023          	sd	a5,96(a0) # 1060 <.LBB63_4+0x1c0>
    4d64:	f9043503          	ld	a0,-112(s0)
    4d68:	0007d463          	bgez	a5,4d70 <.LBB63_100>
    4d6c:	c00002b7          	lui	t0,0xc0000

0000000000004d70 <.LBB63_100>:
    4d70:	f8a43823          	sd	a0,-112(s0)
    4d74:	00001537          	lui	a0,0x1
    4d78:	40a40533          	sub	a0,s0,a0
    4d7c:	04553c23          	sd	t0,88(a0) # 1058 <.LBB63_4+0x1b8>
    4d80:	f5043783          	ld	a5,-176(s0)
    4d84:	82043283          	ld	t0,-2016(s0)
    4d88:	00f287b3          	add	a5,t0,a5
    4d8c:	00001537          	lui	a0,0x1
    4d90:	40a40533          	sub	a0,s0,a0
    4d94:	73053283          	ld	t0,1840(a0) # 1730 <.LBB63_5+0x308>
    4d98:	005787b3          	add	a5,a5,t0
    4d9c:	012802b3          	add	t0,a6,s2
    4da0:	005787bb          	addw	a5,a5,t0
    4da4:	400002b7          	lui	t0,0x40000
    4da8:	00002537          	lui	a0,0x2
    4dac:	40a40533          	sub	a0,s0,a0
    4db0:	78f53c23          	sd	a5,1944(a0) # 2798 <.LBB63_5+0x1370>
    4db4:	f9043503          	ld	a0,-112(s0)
    4db8:	0007d463          	bgez	a5,4dc0 <.LBB63_102>
    4dbc:	c00002b7          	lui	t0,0xc0000

0000000000004dc0 <.LBB63_102>:
    4dc0:	f8a43823          	sd	a0,-112(s0)
    4dc4:	00002537          	lui	a0,0x2
    4dc8:	40a40533          	sub	a0,s0,a0
    4dcc:	78553823          	sd	t0,1936(a0) # 2790 <.LBB63_5+0x1368>
    4dd0:	f5843783          	ld	a5,-168(s0)
    4dd4:	82843283          	ld	t0,-2008(s0)
    4dd8:	00f287b3          	add	a5,t0,a5
    4ddc:	01f787b3          	add	a5,a5,t6
    4de0:	012802b3          	add	t0,a6,s2
    4de4:	005787bb          	addw	a5,a5,t0
    4de8:	400002b7          	lui	t0,0x40000
    4dec:	00002537          	lui	a0,0x2
    4df0:	40a40533          	sub	a0,s0,a0
    4df4:	72f53023          	sd	a5,1824(a0) # 2720 <.LBB63_5+0x12f8>
    4df8:	f9043503          	ld	a0,-112(s0)
    4dfc:	0007d463          	bgez	a5,4e04 <.LBB63_104>
    4e00:	c00002b7          	lui	t0,0xc0000

0000000000004e04 <.LBB63_104>:
    4e04:	f8a43823          	sd	a0,-112(s0)
    4e08:	00002537          	lui	a0,0x2
    4e0c:	40a40533          	sub	a0,s0,a0
    4e10:	70553c23          	sd	t0,1816(a0) # 2718 <.LBB63_5+0x12f0>
    4e14:	f6043783          	ld	a5,-160(s0)
    4e18:	83043283          	ld	t0,-2000(s0)
    4e1c:	00f287b3          	add	a5,t0,a5
    4e20:	00001537          	lui	a0,0x1
    4e24:	40a40533          	sub	a0,s0,a0
    4e28:	72053283          	ld	t0,1824(a0) # 1720 <.LBB63_5+0x2f8>
    4e2c:	005787b3          	add	a5,a5,t0
    4e30:	012802b3          	add	t0,a6,s2
    4e34:	005787bb          	addw	a5,a5,t0
    4e38:	400002b7          	lui	t0,0x40000
    4e3c:	00002537          	lui	a0,0x2
    4e40:	40a40533          	sub	a0,s0,a0
    4e44:	6af53423          	sd	a5,1704(a0) # 26a8 <.LBB63_5+0x1280>
    4e48:	f9043503          	ld	a0,-112(s0)
    4e4c:	0007d463          	bgez	a5,4e54 <.LBB63_106>
    4e50:	c00002b7          	lui	t0,0xc0000

0000000000004e54 <.LBB63_106>:
    4e54:	f8a43823          	sd	a0,-112(s0)
    4e58:	00002537          	lui	a0,0x2
    4e5c:	40a40533          	sub	a0,s0,a0
    4e60:	6a553023          	sd	t0,1696(a0) # 26a0 <.LBB63_5+0x1278>
    4e64:	f6843783          	ld	a5,-152(s0)
    4e68:	83843283          	ld	t0,-1992(s0)
    4e6c:	00f287b3          	add	a5,t0,a5
    4e70:	00001537          	lui	a0,0x1
    4e74:	40a40533          	sub	a0,s0,a0
    4e78:	71853283          	ld	t0,1816(a0) # 1718 <.LBB63_5+0x2f0>
    4e7c:	005787b3          	add	a5,a5,t0
    4e80:	012802b3          	add	t0,a6,s2
    4e84:	005787bb          	addw	a5,a5,t0
    4e88:	400002b7          	lui	t0,0x40000
    4e8c:	00002537          	lui	a0,0x2
    4e90:	40a40533          	sub	a0,s0,a0
    4e94:	62f53823          	sd	a5,1584(a0) # 2630 <.LBB63_5+0x1208>
    4e98:	f9043503          	ld	a0,-112(s0)
    4e9c:	0007d463          	bgez	a5,4ea4 <.LBB63_108>
    4ea0:	c00002b7          	lui	t0,0xc0000

0000000000004ea4 <.LBB63_108>:
    4ea4:	f8a43823          	sd	a0,-112(s0)
    4ea8:	00002537          	lui	a0,0x2
    4eac:	40a40533          	sub	a0,s0,a0
    4eb0:	62553423          	sd	t0,1576(a0) # 2628 <.LBB63_5+0x1200>
    4eb4:	f7043783          	ld	a5,-144(s0)
    4eb8:	84043283          	ld	t0,-1984(s0)
    4ebc:	00f287b3          	add	a5,t0,a5
    4ec0:	00001537          	lui	a0,0x1
    4ec4:	40a40533          	sub	a0,s0,a0
    4ec8:	71053283          	ld	t0,1808(a0) # 1710 <.LBB63_5+0x2e8>
    4ecc:	005787b3          	add	a5,a5,t0
    4ed0:	012802b3          	add	t0,a6,s2
    4ed4:	005787bb          	addw	a5,a5,t0
    4ed8:	400002b7          	lui	t0,0x40000
    4edc:	00002537          	lui	a0,0x2
    4ee0:	40a40533          	sub	a0,s0,a0
    4ee4:	5cf53423          	sd	a5,1480(a0) # 25c8 <.LBB63_5+0x11a0>
    4ee8:	f9043503          	ld	a0,-112(s0)
    4eec:	0007d463          	bgez	a5,4ef4 <.LBB63_110>
    4ef0:	c00002b7          	lui	t0,0xc0000

0000000000004ef4 <.LBB63_110>:
    4ef4:	f8a43823          	sd	a0,-112(s0)
    4ef8:	00002537          	lui	a0,0x2
    4efc:	40a40533          	sub	a0,s0,a0
    4f00:	5c553023          	sd	t0,1472(a0) # 25c0 <.LBB63_5+0x1198>
    4f04:	f8043783          	ld	a5,-128(s0)
    4f08:	84843283          	ld	t0,-1976(s0)
    4f0c:	00f287b3          	add	a5,t0,a5
    4f10:	00001537          	lui	a0,0x1
    4f14:	40a40533          	sub	a0,s0,a0
    4f18:	70853283          	ld	t0,1800(a0) # 1708 <.LBB63_5+0x2e0>
    4f1c:	005787b3          	add	a5,a5,t0
    4f20:	012802b3          	add	t0,a6,s2
    4f24:	005787bb          	addw	a5,a5,t0
    4f28:	400002b7          	lui	t0,0x40000
    4f2c:	00002537          	lui	a0,0x2
    4f30:	40a40533          	sub	a0,s0,a0
    4f34:	54f53c23          	sd	a5,1368(a0) # 2558 <.LBB63_5+0x1130>
    4f38:	f9043503          	ld	a0,-112(s0)
    4f3c:	0007d463          	bgez	a5,4f44 <.LBB63_112>
    4f40:	c00002b7          	lui	t0,0xc0000

0000000000004f44 <.LBB63_112>:
    4f44:	f8a43823          	sd	a0,-112(s0)
    4f48:	00002537          	lui	a0,0x2
    4f4c:	40a40533          	sub	a0,s0,a0
    4f50:	54553823          	sd	t0,1360(a0) # 2550 <.LBB63_5+0x1128>
    4f54:	f8843783          	ld	a5,-120(s0)
    4f58:	85043283          	ld	t0,-1968(s0)
    4f5c:	00f287b3          	add	a5,t0,a5
    4f60:	00001537          	lui	a0,0x1
    4f64:	40a40533          	sub	a0,s0,a0
    4f68:	70053283          	ld	t0,1792(a0) # 1700 <.LBB63_5+0x2d8>
    4f6c:	005787b3          	add	a5,a5,t0
    4f70:	012802b3          	add	t0,a6,s2
    4f74:	005787bb          	addw	a5,a5,t0
    4f78:	400002b7          	lui	t0,0x40000
    4f7c:	00002537          	lui	a0,0x2
    4f80:	40a40533          	sub	a0,s0,a0
    4f84:	4ef53023          	sd	a5,1248(a0) # 24e0 <.LBB63_5+0x10b8>
    4f88:	f9043503          	ld	a0,-112(s0)
    4f8c:	0007d463          	bgez	a5,4f94 <.LBB63_114>
    4f90:	c00002b7          	lui	t0,0xc0000

0000000000004f94 <.LBB63_114>:
    4f94:	f8a43823          	sd	a0,-112(s0)
    4f98:	00002537          	lui	a0,0x2
    4f9c:	40a40533          	sub	a0,s0,a0
    4fa0:	4c553c23          	sd	t0,1240(a0) # 24d8 <.LBB63_5+0x10b0>
    4fa4:	00001537          	lui	a0,0x1
    4fa8:	40a40533          	sub	a0,s0,a0
    4fac:	6f853783          	ld	a5,1784(a0) # 16f8 <.LBB63_5+0x2d0>
    4fb0:	85843283          	ld	t0,-1960(s0)
    4fb4:	00f287b3          	add	a5,t0,a5
    4fb8:	00001537          	lui	a0,0x1
    4fbc:	40a40533          	sub	a0,s0,a0
    4fc0:	68853283          	ld	t0,1672(a0) # 1688 <.LBB63_5+0x260>
    4fc4:	005787b3          	add	a5,a5,t0
    4fc8:	012802b3          	add	t0,a6,s2
    4fcc:	005787bb          	addw	a5,a5,t0
    4fd0:	400002b7          	lui	t0,0x40000
    4fd4:	00002537          	lui	a0,0x2
    4fd8:	40a40533          	sub	a0,s0,a0
    4fdc:	46f53423          	sd	a5,1128(a0) # 2468 <.LBB63_5+0x1040>
    4fe0:	f9043503          	ld	a0,-112(s0)
    4fe4:	0007d463          	bgez	a5,4fec <.LBB63_116>
    4fe8:	c00002b7          	lui	t0,0xc0000

0000000000004fec <.LBB63_116>:
    4fec:	f8a43823          	sd	a0,-112(s0)
    4ff0:	00002537          	lui	a0,0x2
    4ff4:	40a40533          	sub	a0,s0,a0
    4ff8:	46553023          	sd	t0,1120(a0) # 2460 <.LBB63_5+0x1038>
    4ffc:	00001537          	lui	a0,0x1
    5000:	40a40533          	sub	a0,s0,a0
    5004:	69053783          	ld	a5,1680(a0) # 1690 <.LBB63_5+0x268>
    5008:	86043283          	ld	t0,-1952(s0)
    500c:	00f287b3          	add	a5,t0,a5
    5010:	00001537          	lui	a0,0x1
    5014:	40a40533          	sub	a0,s0,a0
    5018:	6f053283          	ld	t0,1776(a0) # 16f0 <.LBB63_5+0x2c8>
    501c:	005787b3          	add	a5,a5,t0
    5020:	012802b3          	add	t0,a6,s2
    5024:	005787bb          	addw	a5,a5,t0
    5028:	400002b7          	lui	t0,0x40000
    502c:	00002537          	lui	a0,0x2
    5030:	40a40533          	sub	a0,s0,a0
    5034:	3ef53c23          	sd	a5,1016(a0) # 23f8 <.LBB63_5+0xfd0>
    5038:	f9043503          	ld	a0,-112(s0)
    503c:	0007d463          	bgez	a5,5044 <.LBB63_118>
    5040:	c00002b7          	lui	t0,0xc0000

0000000000005044 <.LBB63_118>:
    5044:	f8a43823          	sd	a0,-112(s0)
    5048:	00002537          	lui	a0,0x2
    504c:	40a40533          	sub	a0,s0,a0
    5050:	3e553823          	sd	t0,1008(a0) # 23f0 <.LBB63_5+0xfc8>
    5054:	00001537          	lui	a0,0x1
    5058:	40a40533          	sub	a0,s0,a0
    505c:	69853783          	ld	a5,1688(a0) # 1698 <.LBB63_5+0x270>
    5060:	86843283          	ld	t0,-1944(s0)
    5064:	00f287b3          	add	a5,t0,a5
    5068:	00001537          	lui	a0,0x1
    506c:	40a40533          	sub	a0,s0,a0
    5070:	6e853283          	ld	t0,1768(a0) # 16e8 <.LBB63_5+0x2c0>
    5074:	005787b3          	add	a5,a5,t0
    5078:	012802b3          	add	t0,a6,s2
    507c:	005787bb          	addw	a5,a5,t0
    5080:	400002b7          	lui	t0,0x40000
    5084:	00002537          	lui	a0,0x2
    5088:	40a40533          	sub	a0,s0,a0
    508c:	38f53423          	sd	a5,904(a0) # 2388 <.LBB63_5+0xf60>
    5090:	f9043503          	ld	a0,-112(s0)
    5094:	0007d463          	bgez	a5,509c <.LBB63_120>
    5098:	c00002b7          	lui	t0,0xc0000

000000000000509c <.LBB63_120>:
    509c:	f8a43823          	sd	a0,-112(s0)
    50a0:	00002537          	lui	a0,0x2
    50a4:	40a40533          	sub	a0,s0,a0
    50a8:	38553023          	sd	t0,896(a0) # 2380 <.LBB63_5+0xf58>
    50ac:	00001537          	lui	a0,0x1
    50b0:	40a40533          	sub	a0,s0,a0
    50b4:	6a053783          	ld	a5,1696(a0) # 16a0 <.LBB63_5+0x278>
    50b8:	87043283          	ld	t0,-1936(s0)
    50bc:	00f287b3          	add	a5,t0,a5
    50c0:	00001537          	lui	a0,0x1
    50c4:	40a40533          	sub	a0,s0,a0
    50c8:	6e053283          	ld	t0,1760(a0) # 16e0 <.LBB63_5+0x2b8>
    50cc:	005787b3          	add	a5,a5,t0
    50d0:	012802b3          	add	t0,a6,s2
    50d4:	005787bb          	addw	a5,a5,t0
    50d8:	400002b7          	lui	t0,0x40000
    50dc:	00002537          	lui	a0,0x2
    50e0:	40a40533          	sub	a0,s0,a0
    50e4:	30f53c23          	sd	a5,792(a0) # 2318 <.LBB63_5+0xef0>
    50e8:	f9043503          	ld	a0,-112(s0)
    50ec:	0007d463          	bgez	a5,50f4 <.LBB63_122>
    50f0:	c00002b7          	lui	t0,0xc0000

00000000000050f4 <.LBB63_122>:
    50f4:	000027b7          	lui	a5,0x2
    50f8:	40f407b3          	sub	a5,s0,a5
    50fc:	3057b823          	sd	t0,784(a5) # 2310 <.LBB63_5+0xee8>
    5100:	000017b7          	lui	a5,0x1
    5104:	40f407b3          	sub	a5,s0,a5
    5108:	6b07b783          	ld	a5,1712(a5) # 16b0 <.LBB63_5+0x288>
    510c:	00fc87b3          	add	a5,s9,a5
    5110:	000012b7          	lui	t0,0x1
    5114:	405402b3          	sub	t0,s0,t0
    5118:	6d82b283          	ld	t0,1752(t0) # 16d8 <.LBB63_5+0x2b0>
    511c:	005787b3          	add	a5,a5,t0
    5120:	012802b3          	add	t0,a6,s2
    5124:	005787bb          	addw	a5,a5,t0
    5128:	400002b7          	lui	t0,0x40000
    512c:	00002cb7          	lui	s9,0x2
    5130:	41940cb3          	sub	s9,s0,s9
    5134:	2afcb423          	sd	a5,680(s9) # 22a8 <.LBB63_5+0xe80>
    5138:	0007d463          	bgez	a5,5140 <.LBB63_124>
    513c:	c00002b7          	lui	t0,0xc0000

0000000000005140 <.LBB63_124>:
    5140:	000027b7          	lui	a5,0x2
    5144:	40f407b3          	sub	a5,s0,a5
    5148:	2a57b023          	sd	t0,672(a5) # 22a0 <.LBB63_5+0xe78>
    514c:	000017b7          	lui	a5,0x1
    5150:	40f407b3          	sub	a5,s0,a5
    5154:	6b87b783          	ld	a5,1720(a5) # 16b8 <.LBB63_5+0x290>
    5158:	88043283          	ld	t0,-1920(s0)
    515c:	00f287b3          	add	a5,t0,a5
    5160:	000012b7          	lui	t0,0x1
    5164:	405402b3          	sub	t0,s0,t0
    5168:	6d02b283          	ld	t0,1744(t0) # 16d0 <.LBB63_5+0x2a8>
    516c:	005787b3          	add	a5,a5,t0
    5170:	012802b3          	add	t0,a6,s2
    5174:	005787bb          	addw	a5,a5,t0
    5178:	400002b7          	lui	t0,0x40000
    517c:	00002cb7          	lui	s9,0x2
    5180:	41940cb3          	sub	s9,s0,s9
    5184:	22fcbc23          	sd	a5,568(s9) # 2238 <.LBB63_5+0xe10>
    5188:	0007d463          	bgez	a5,5190 <.LBB63_126>
    518c:	c00002b7          	lui	t0,0xc0000

0000000000005190 <.LBB63_126>:
    5190:	000027b7          	lui	a5,0x2
    5194:	40f407b3          	sub	a5,s0,a5
    5198:	2257b823          	sd	t0,560(a5) # 2230 <.LBB63_5+0xe08>
    519c:	000017b7          	lui	a5,0x1
    51a0:	40f407b3          	sub	a5,s0,a5
    51a4:	6c07b783          	ld	a5,1728(a5) # 16c0 <.LBB63_5+0x298>
    51a8:	88843283          	ld	t0,-1912(s0)
    51ac:	00f287b3          	add	a5,t0,a5
    51b0:	000012b7          	lui	t0,0x1
    51b4:	405402b3          	sub	t0,s0,t0
    51b8:	6c82b283          	ld	t0,1736(t0) # 16c8 <.LBB63_5+0x2a0>
    51bc:	005787b3          	add	a5,a5,t0
    51c0:	012802b3          	add	t0,a6,s2
    51c4:	005787bb          	addw	a5,a5,t0
    51c8:	400002b7          	lui	t0,0x40000
    51cc:	00002cb7          	lui	s9,0x2
    51d0:	41940cb3          	sub	s9,s0,s9
    51d4:	1cfcb423          	sd	a5,456(s9) # 21c8 <.LBB63_5+0xda0>
    51d8:	0007d463          	bgez	a5,51e0 <.LBB63_128>
    51dc:	c00002b7          	lui	t0,0xc0000

00000000000051e0 <.LBB63_128>:
    51e0:	000027b7          	lui	a5,0x2
    51e4:	40f407b3          	sub	a5,s0,a5
    51e8:	1c57b023          	sd	t0,448(a5) # 21c0 <.LBB63_5+0xd98>
    51ec:	e9043783          	ld	a5,-368(s0)
    51f0:	89043283          	ld	t0,-1904(s0)
    51f4:	00f287b3          	add	a5,t0,a5
    51f8:	e8843283          	ld	t0,-376(s0)
    51fc:	005787b3          	add	a5,a5,t0
    5200:	012802b3          	add	t0,a6,s2
    5204:	005787bb          	addw	a5,a5,t0
    5208:	400002b7          	lui	t0,0x40000
    520c:	00002cb7          	lui	s9,0x2
    5210:	41940cb3          	sub	s9,s0,s9
    5214:	14fcbc23          	sd	a5,344(s9) # 2158 <.LBB63_5+0xd30>
    5218:	0007d463          	bgez	a5,5220 <.LBB63_130>
    521c:	c00002b7          	lui	t0,0xc0000

0000000000005220 <.LBB63_130>:
    5220:	000027b7          	lui	a5,0x2
    5224:	40f407b3          	sub	a5,s0,a5
    5228:	1457b823          	sd	t0,336(a5) # 2150 <.LBB63_5+0xd28>
    522c:	ea043783          	ld	a5,-352(s0)
    5230:	00ff07b3          	add	a5,t5,a5
    5234:	e9843283          	ld	t0,-360(s0)
    5238:	005787b3          	add	a5,a5,t0
    523c:	012802b3          	add	t0,a6,s2
    5240:	005787bb          	addw	a5,a5,t0
    5244:	400002b7          	lui	t0,0x40000
    5248:	00002f37          	lui	t5,0x2
    524c:	41e40f33          	sub	t5,s0,t5
    5250:	0eff3823          	sd	a5,240(t5) # 20f0 <.LBB63_5+0xcc8>
    5254:	0007d463          	bgez	a5,525c <.LBB63_132>
    5258:	c00002b7          	lui	t0,0xc0000

000000000000525c <.LBB63_132>:
    525c:	eb043783          	ld	a5,-336(s0)
    5260:	00fe87b3          	add	a5,t4,a5
    5264:	ea843e83          	ld	t4,-344(s0)
    5268:	01d787b3          	add	a5,a5,t4
    526c:	01280833          	add	a6,a6,s2
    5270:	01078f3b          	addw	t5,a5,a6
    5274:	400007b7          	lui	a5,0x40000
    5278:	000f5463          	bgez	t5,5280 <.LBB63_134>
    527c:	c00007b7          	lui	a5,0xc0000

0000000000005280 <.LBB63_134>:
    5280:	00002837          	lui	a6,0x2
    5284:	41040833          	sub	a6,s0,a6
    5288:	0af83023          	sd	a5,160(a6) # 20a0 <.LBB63_5+0xc78>
    528c:	00161793          	slli	a5,a2,0x1
    5290:	8a843803          	ld	a6,-1880(s0)
    5294:	eb843e83          	ld	t4,-328(s0)
    5298:	01d80833          	add	a6,a6,t4
    529c:	00c78633          	add	a2,a5,a2
    52a0:	01880833          	add	a6,a6,s8
    52a4:	012607b3          	add	a5,a2,s2
    52a8:	00f807bb          	addw	a5,a6,a5
    52ac:	40000837          	lui	a6,0x40000
    52b0:	82f43c23          	sd	a5,-1992(s0)
    52b4:	9a043e83          	ld	t4,-1632(s0)
    52b8:	0007d463          	bgez	a5,52c0 <.LBB63_136>
    52bc:	c0000837          	lui	a6,0xc0000

00000000000052c0 <.LBB63_136>:
    52c0:	83043823          	sd	a6,-2000(s0)
    52c4:	8b043783          	ld	a5,-1872(s0)
    52c8:	ec043803          	ld	a6,-320(s0)
    52cc:	010787b3          	add	a5,a5,a6
    52d0:	015787b3          	add	a5,a5,s5
    52d4:	01260833          	add	a6,a2,s2
    52d8:	010787bb          	addw	a5,a5,a6
    52dc:	40000837          	lui	a6,0x40000
    52e0:	00001cb7          	lui	s9,0x1
    52e4:	41940cb3          	sub	s9,s0,s9
    52e8:	7cfcbc23          	sd	a5,2008(s9) # 17d8 <.LBB63_5+0x3b0>
    52ec:	0007d463          	bgez	a5,52f4 <.LBB63_138>
    52f0:	c0000837          	lui	a6,0xc0000

00000000000052f4 <.LBB63_138>:
    52f4:	000017b7          	lui	a5,0x1
    52f8:	40f407b3          	sub	a5,s0,a5
    52fc:	7d07b823          	sd	a6,2000(a5) # 17d0 <.LBB63_5+0x3a8>
    5300:	8b843783          	ld	a5,-1864(s0)
    5304:	ec843803          	ld	a6,-312(s0)
    5308:	010787b3          	add	a5,a5,a6
    530c:	014787b3          	add	a5,a5,s4
    5310:	01260833          	add	a6,a2,s2
    5314:	010787bb          	addw	a5,a5,a6
    5318:	40000837          	lui	a6,0x40000
    531c:	00001cb7          	lui	s9,0x1
    5320:	41940cb3          	sub	s9,s0,s9
    5324:	6afcb423          	sd	a5,1704(s9) # 16a8 <.LBB63_5+0x280>
    5328:	0007d463          	bgez	a5,5330 <.LBB63_140>
    532c:	c0000837          	lui	a6,0xc0000

0000000000005330 <.LBB63_140>:
    5330:	000017b7          	lui	a5,0x1
    5334:	40f407b3          	sub	a5,s0,a5
    5338:	5d07b823          	sd	a6,1488(a5) # 15d0 <.LBB63_5+0x1a8>
    533c:	8c043783          	ld	a5,-1856(s0)
    5340:	ed043803          	ld	a6,-304(s0)
    5344:	010787b3          	add	a5,a5,a6
    5348:	007787b3          	add	a5,a5,t2
    534c:	01260833          	add	a6,a2,s2
    5350:	010787bb          	addw	a5,a5,a6
    5354:	40000837          	lui	a6,0x40000
    5358:	00001cb7          	lui	s9,0x1
    535c:	41940cb3          	sub	s9,s0,s9
    5360:	56fcb423          	sd	a5,1384(s9) # 1568 <.LBB63_5+0x140>
    5364:	0007d463          	bgez	a5,536c <.LBB63_142>
    5368:	c0000837          	lui	a6,0xc0000

000000000000536c <.LBB63_142>:
    536c:	000017b7          	lui	a5,0x1
    5370:	40f407b3          	sub	a5,s0,a5
    5374:	5707b023          	sd	a6,1376(a5) # 1560 <.LBB63_5+0x138>
    5378:	8c843783          	ld	a5,-1848(s0)
    537c:	ed843803          	ld	a6,-296(s0)
    5380:	010787b3          	add	a5,a5,a6
    5384:	017787b3          	add	a5,a5,s7
    5388:	01260833          	add	a6,a2,s2
    538c:	010787bb          	addw	a5,a5,a6
    5390:	40000837          	lui	a6,0x40000
    5394:	00001cb7          	lui	s9,0x1
    5398:	41940cb3          	sub	s9,s0,s9
    539c:	4efcbc23          	sd	a5,1272(s9) # 14f8 <.LBB63_5+0xd0>
    53a0:	0007d463          	bgez	a5,53a8 <.LBB63_144>
    53a4:	c0000837          	lui	a6,0xc0000

00000000000053a8 <.LBB63_144>:
    53a8:	000017b7          	lui	a5,0x1
    53ac:	40f407b3          	sub	a5,s0,a5
    53b0:	4f07b823          	sd	a6,1264(a5) # 14f0 <.LBB63_5+0xc8>
    53b4:	8d043783          	ld	a5,-1840(s0)
    53b8:	ee043803          	ld	a6,-288(s0)
    53bc:	010787b3          	add	a5,a5,a6
    53c0:	00b787b3          	add	a5,a5,a1
    53c4:	01260833          	add	a6,a2,s2
    53c8:	010787bb          	addw	a5,a5,a6
    53cc:	40000837          	lui	a6,0x40000
    53d0:	00001cb7          	lui	s9,0x1
    53d4:	41940cb3          	sub	s9,s0,s9
    53d8:	48fcb423          	sd	a5,1160(s9) # 1488 <.LBB63_5+0x60>
    53dc:	0007d463          	bgez	a5,53e4 <.LBB63_146>
    53e0:	c0000837          	lui	a6,0xc0000

00000000000053e4 <.LBB63_146>:
    53e4:	000017b7          	lui	a5,0x1
    53e8:	40f407b3          	sub	a5,s0,a5
    53ec:	4907b023          	sd	a6,1152(a5) # 1480 <.LBB63_5+0x58>
    53f0:	8d843783          	ld	a5,-1832(s0)
    53f4:	ee843803          	ld	a6,-280(s0)
    53f8:	010787b3          	add	a5,a5,a6
    53fc:	00a787b3          	add	a5,a5,a0
