
code.o:     file format elf64-littleriscv


Disassembly of section .text.main_dispatch_31_depthwise_conv_2d_nhwc_hwc_1x28x28x144x3x3_i8xi8xi32:

0000000000000000 <main_dispatch_31_depthwise_conv_2d_nhwc_hwc_1x28x28x144x3x3_i8xi8xi32>:
   0:	e4010113          	addi	sp,sp,-448
   4:	1a113c23          	sd	ra,440(sp)
   8:	1a813823          	sd	s0,432(sp)
   c:	1a913423          	sd	s1,424(sp)
  10:	1b213023          	sd	s2,416(sp)
  14:	19313c23          	sd	s3,408(sp)
  18:	19413823          	sd	s4,400(sp)
  1c:	19513423          	sd	s5,392(sp)
  20:	19613023          	sd	s6,384(sp)
  24:	17713c23          	sd	s7,376(sp)
  28:	17813823          	sd	s8,368(sp)
  2c:	17913423          	sd	s9,360(sp)
  30:	17a13023          	sd	s10,352(sp)
  34:	15b13c23          	sd	s11,344(sp)
  38:	1c010413          	addi	s0,sp,448
  3c:	0205b503          	ld	a0,32(a1)
  40:	00000713          	li	a4,0
  44:	00853583          	ld	a1,8(a0)
  48:	00053603          	ld	a2,0(a0)
  4c:	0000f6b7          	lui	a3,0xf
  50:	c406869b          	addiw	a3,a3,-960 # ec40 <.LBB45_1738>
  54:	00d585b3          	add	a1,a1,a3
  58:	e6b43423          	sd	a1,-408(s0)
  5c:	01053503          	ld	a0,16(a0)
  60:	e4a43823          	sd	a0,-432(s0)
  64:	00096537          	lui	a0,0x96
  68:	3405051b          	addiw	a0,a0,832 # 96340 <.Lfunc_end80+0x6d978>
  6c:	00a606b3          	add	a3,a2,a0
  70:	00002537          	lui	a0,0x2
  74:	0105081b          	addiw	a6,a0,16 # 2010 <.LBB28_4+0x2fc>
  78:	00004537          	lui	a0,0x4
  7c:	0205051b          	addiw	a0,a0,32 # 4020 <.LBB103_96>
  80:	e4a43423          	sd	a0,-440(s0)
  84:	ed043023          	sd	a6,-320(s0)

0000000000000088 <.LBB30_1>:
  88:	00000513          	li	a0,0
  8c:	00871593          	slli	a1,a4,0x8
  90:	e6e43023          	sd	a4,-416(s0)
  94:	00e71613          	slli	a2,a4,0xe
  98:	40b60633          	sub	a2,a2,a1
  9c:	e5043583          	ld	a1,-432(s0)
  a0:	00c585b3          	add	a1,a1,a2
  a4:	e6b43823          	sd	a1,-400(s0)
  a8:	e4d43c23          	sd	a3,-424(s0)

00000000000000ac <.LBB30_2>:
  ac:	00000613          	li	a2,0
  b0:	00050593          	mv	a1,a0
  b4:	24000513          	li	a0,576
  b8:	e6b43c23          	sd	a1,-392(s0)
  bc:	02a58533          	mul	a0,a1,a0
  c0:	e7043583          	ld	a1,-400(s0)
  c4:	00a58533          	add	a0,a1,a0
  c8:	24050593          	addi	a1,a0,576
  cc:	e8b43c23          	sd	a1,-360(s0)
  d0:	48050593          	addi	a1,a0,1152
  d4:	e8b43823          	sd	a1,-368(s0)
  d8:	eaa43023          	sd	a0,-352(s0)
  dc:	6c050513          	addi	a0,a0,1728
  e0:	e8a43423          	sd	a0,-376(s0)
  e4:	e6843b83          	ld	s7,-408(s0)
  e8:	e8d43023          	sd	a3,-384(s0)
  ec:	00068c13          	mv	s8,a3

00000000000000f0 <.LBB30_3>:
  f0:	00000d93          	li	s11,0
  f4:	00000f13          	li	t5,0
  f8:	00000913          	li	s2,0
  fc:	00000d13          	li	s10,0
 100:	00000e93          	li	t4,0
 104:	00000c93          	li	s9,0
 108:	00000513          	li	a0,0
 10c:	00000493          	li	s1,0
 110:	00000a13          	li	s4,0
 114:	00000593          	li	a1,0
 118:	00000f93          	li	t6,0
 11c:	00000e13          	li	t3,0
 120:	00000293          	li	t0,0
 124:	00000313          	li	t1,0
 128:	00000713          	li	a4,0
 12c:	00000693          	li	a3,0
 130:	eac43423          	sd	a2,-344(s0)
 134:	ffd00a93          	li	s5,-3
 138:	eb743c23          	sd	s7,-328(s0)
 13c:	eb843823          	sd	s8,-336(s0)

0000000000000140 <.LBB30_4>:
 140:	f8543823          	sd	t0,-112(s0)
 144:	f4d43823          	sd	a3,-176(s0)
 148:	f8643423          	sd	t1,-120(s0)
 14c:	dc2c0303          	lb	t1,-574(s8)
 150:	dc1c0283          	lb	t0,-575(s8)
 154:	dc0c0783          	lb	a5,-576(s8)
 158:	dc3c0603          	lb	a2,-573(s8)
 15c:	ee0c0983          	lb	s3,-288(s8)
 160:	f1343823          	sd	s3,-240(s0)
 164:	ee1c0083          	lb	ra,-287(s8)
 168:	ee143823          	sd	ra,-272(s0)
 16c:	000d0693          	mv	a3,s10
 170:	000d8d13          	mv	s10,s11
 174:	ee2c0d83          	lb	s11,-286(s8)
 178:	efb43023          	sd	s11,-288(s0)
 17c:	002b8883          	lb	a7,2(s7)
 180:	ee3c0383          	lb	t2,-285(s8)
 184:	ee743c23          	sd	t2,-264(s0)
 188:	00058b13          	mv	s6,a1
 18c:	000a0593          	mv	a1,s4
 190:	000c0a03          	lb	s4,0(s8)
 194:	f1443423          	sd	s4,-248(s0)
 198:	001b8803          	lb	a6,1(s7)
 19c:	02688333          	mul	t1,a7,t1
 1a0:	01230333          	add	t1,t1,s2
 1a4:	f0643c23          	sd	t1,-232(s0)
 1a8:	000b8303          	lb	t1,0(s7)
 1ac:	025802b3          	mul	t0,a6,t0
 1b0:	01e282b3          	add	t0,t0,t5
 1b4:	f2543023          	sd	t0,-224(s0)
 1b8:	003b8283          	lb	t0,3(s7)
 1bc:	02f307b3          	mul	a5,t1,a5
 1c0:	01a787b3          	add	a5,a5,s10
 1c4:	f2f43823          	sd	a5,-208(s0)
 1c8:	001c0783          	lb	a5,1(s8)
 1cc:	f0f43023          	sd	a5,-256(s0)
 1d0:	02c28633          	mul	a2,t0,a2
 1d4:	00d60633          	add	a2,a2,a3
 1d8:	f2c43423          	sd	a2,-216(s0)
 1dc:	03330633          	mul	a2,t1,s3
 1e0:	01d60633          	add	a2,a2,t4
 1e4:	f2c43c23          	sd	a2,-200(s0)
 1e8:	02180633          	mul	a2,a6,ra
 1ec:	01960633          	add	a2,a2,s9
 1f0:	f4c43023          	sd	a2,-192(s0)
 1f4:	03b88633          	mul	a2,a7,s11
 1f8:	00a60533          	add	a0,a2,a0
 1fc:	f4a43423          	sd	a0,-184(s0)
 200:	02728533          	mul	a0,t0,t2
 204:	00950533          	add	a0,a0,s1
 208:	f4a43c23          	sd	a0,-168(s0)
 20c:	03430533          	mul	a0,t1,s4
 210:	00b50533          	add	a0,a0,a1
 214:	f6a43823          	sd	a0,-144(s0)
 218:	002c0503          	lb	a0,2(s8)
 21c:	02f80633          	mul	a2,a6,a5
 220:	01660633          	add	a2,a2,s6
 224:	f6c43423          	sd	a2,-152(s0)
 228:	003c0583          	lb	a1,3(s8)
 22c:	02a88633          	mul	a2,a7,a0
 230:	01f60633          	add	a2,a2,t6
 234:	f6c43023          	sd	a2,-160(s0)
 238:	120c0a03          	lb	s4,288(s8)
 23c:	02b28633          	mul	a2,t0,a1
 240:	01c60633          	add	a2,a2,t3
 244:	f6c43c23          	sd	a2,-136(s0)
 248:	121c0983          	lb	s3,289(s8)
 24c:	03430333          	mul	t1,t1,s4
 250:	122c0603          	lb	a2,290(s8)
 254:	f9043683          	ld	a3,-112(s0)
 258:	00d30333          	add	t1,t1,a3
 25c:	f8643823          	sd	t1,-112(s0)
 260:	03380833          	mul	a6,a6,s3
 264:	f8843683          	ld	a3,-120(s0)
 268:	00d80833          	add	a6,a6,a3
 26c:	f9043423          	sd	a6,-120(s0)
 270:	02c88833          	mul	a6,a7,a2
 274:	00e80733          	add	a4,a6,a4
 278:	f8e43023          	sd	a4,-128(s0)
 27c:	123c0b03          	lb	s6,291(s8)
 280:	e50c0703          	lb	a4,-432(s8)
 284:	090b8803          	lb	a6,144(s7)
 288:	f70c0883          	lb	a7,-144(s8)
 28c:	036282b3          	mul	t0,t0,s6
 290:	f5043683          	ld	a3,-176(s0)
 294:	00d282b3          	add	t0,t0,a3
 298:	f4543823          	sd	t0,-176(s0)
 29c:	02e80d33          	mul	s10,a6,a4
 2a0:	03180733          	mul	a4,a6,a7
 2a4:	e51c0683          	lb	a3,-431(s8)
 2a8:	090c0883          	lb	a7,144(s8)
 2ac:	1b0c0283          	lb	t0,432(s8)
 2b0:	091b8303          	lb	t1,145(s7)
 2b4:	f71c0903          	lb	s2,-143(s8)
 2b8:	031807b3          	mul	a5,a6,a7
 2bc:	ecf43423          	sd	a5,-312(s0)
 2c0:	025807b3          	mul	a5,a6,t0
 2c4:	eef43423          	sd	a5,-280(s0)
 2c8:	02d30db3          	mul	s11,t1,a3
 2cc:	03230cb3          	mul	s9,t1,s2
 2d0:	e52c0803          	lb	a6,-430(s8)
 2d4:	091c0683          	lb	a3,145(s8)
 2d8:	1b1c0283          	lb	t0,433(s8)
 2dc:	092b8903          	lb	s2,146(s7)
 2e0:	f72c0083          	lb	ra,-142(s8)
 2e4:	02d306b3          	mul	a3,t1,a3
 2e8:	025307b3          	mul	a5,t1,t0
 2ec:	ecf43c23          	sd	a5,-296(s0)
 2f0:	030902b3          	mul	t0,s2,a6
 2f4:	021904b3          	mul	s1,s2,ra
 2f8:	092c0803          	lb	a6,146(s8)
 2fc:	1b2c0083          	lb	ra,434(s8)
 300:	e53c0f83          	lb	t6,-429(s8)
 304:	093b8383          	lb	t2,147(s7)
 308:	03090e33          	mul	t3,s2,a6
 30c:	021907b3          	mul	a5,s2,ra
 310:	ecf43823          	sd	a5,-304(s0)
 314:	f73c0803          	lb	a6,-141(s8)
 318:	03f38fb3          	mul	t6,t2,t6
 31c:	093c0e83          	lb	t4,147(s8)
 320:	1b3c0f03          	lb	t5,435(s8)
 324:	03038833          	mul	a6,t2,a6
 328:	122b8903          	lb	s2,290(s7)
 32c:	03d387b3          	mul	a5,t2,t4
 330:	03e380b3          	mul	ra,t2,t5
 334:	121b8383          	lb	t2,289(s7)
 338:	ee043883          	ld	a7,-288(s0)
 33c:	03190333          	mul	t1,s2,a7
 340:	006282b3          	add	t0,t0,t1
 344:	f1843883          	ld	a7,-232(s0)
 348:	005888b3          	add	a7,a7,t0
 34c:	ef043283          	ld	t0,-272(s0)
 350:	025382b3          	mul	t0,t2,t0
 354:	120b8303          	lb	t1,288(s7)
 358:	005d82b3          	add	t0,s11,t0
 35c:	f2043f03          	ld	t5,-224(s0)
 360:	005f0f33          	add	t5,t5,t0
 364:	123b8283          	lb	t0,291(s7)
 368:	f1043e83          	ld	t4,-240(s0)
 36c:	03d30db3          	mul	s11,t1,t4
 370:	01bd0d33          	add	s10,s10,s11
 374:	f3043d83          	ld	s11,-208(s0)
 378:	01ad8db3          	add	s11,s11,s10
 37c:	ef843e83          	ld	t4,-264(s0)
 380:	03d28d33          	mul	s10,t0,t4
 384:	01af8fb3          	add	t6,t6,s10
 388:	f2843d03          	ld	s10,-216(s0)
 38c:	01fd0d33          	add	s10,s10,t6
 390:	f0843e83          	ld	t4,-248(s0)
 394:	03d30fb3          	mul	t6,t1,t4
 398:	01f70733          	add	a4,a4,t6
 39c:	f3843e83          	ld	t4,-200(s0)
 3a0:	00ee8eb3          	add	t4,t4,a4
 3a4:	f0043703          	ld	a4,-256(s0)
 3a8:	02e38733          	mul	a4,t2,a4
 3ac:	00ec8733          	add	a4,s9,a4
 3b0:	f4043c83          	ld	s9,-192(s0)
 3b4:	00ec8cb3          	add	s9,s9,a4
 3b8:	02a90533          	mul	a0,s2,a0
 3bc:	00a48533          	add	a0,s1,a0
 3c0:	f4843703          	ld	a4,-184(s0)
 3c4:	00a70533          	add	a0,a4,a0
 3c8:	02b285b3          	mul	a1,t0,a1
 3cc:	00b805b3          	add	a1,a6,a1
 3d0:	f5843483          	ld	s1,-168(s0)
 3d4:	00b484b3          	add	s1,s1,a1
 3d8:	034305b3          	mul	a1,t1,s4
 3dc:	ec843703          	ld	a4,-312(s0)
 3e0:	00b705b3          	add	a1,a4,a1
 3e4:	f7043a03          	ld	s4,-144(s0)
 3e8:	00ba0a33          	add	s4,s4,a1
 3ec:	033385b3          	mul	a1,t2,s3
 3f0:	00b685b3          	add	a1,a3,a1
 3f4:	f6843683          	ld	a3,-152(s0)
 3f8:	00b685b3          	add	a1,a3,a1
 3fc:	02c90633          	mul	a2,s2,a2
 400:	00ce0633          	add	a2,t3,a2
 404:	f6043f83          	ld	t6,-160(s0)
 408:	00cf8fb3          	add	t6,t6,a2
 40c:	242c0603          	lb	a2,578(s8)
 410:	036286b3          	mul	a3,t0,s6
 414:	00d786b3          	add	a3,a5,a3
 418:	243c0703          	lb	a4,579(s8)
 41c:	f7843e03          	ld	t3,-136(s0)
 420:	00de0e33          	add	t3,t3,a3
 424:	241c0683          	lb	a3,577(s8)
 428:	240c0783          	lb	a5,576(s8)
 42c:	02e28833          	mul	a6,t0,a4
 430:	02c90633          	mul	a2,s2,a2
 434:	00088913          	mv	s2,a7
 438:	02d386b3          	mul	a3,t2,a3
 43c:	02f30733          	mul	a4,t1,a5
 440:	ee843783          	ld	a5,-280(s0)
 444:	00e78733          	add	a4,a5,a4
 448:	f9043283          	ld	t0,-112(s0)
 44c:	00e282b3          	add	t0,t0,a4
 450:	ed843703          	ld	a4,-296(s0)
 454:	00d706b3          	add	a3,a4,a3
 458:	f8843303          	ld	t1,-120(s0)
 45c:	00d30333          	add	t1,t1,a3
 460:	ed043683          	ld	a3,-304(s0)
 464:	00c68633          	add	a2,a3,a2
 468:	f8043703          	ld	a4,-128(s0)
 46c:	00c70733          	add	a4,a4,a2
 470:	010086b3          	add	a3,ra,a6
 474:	ec043803          	ld	a6,-320(s0)
 478:	f5043603          	ld	a2,-176(s0)
 47c:	00d606b3          	add	a3,a2,a3
 480:	010c0c33          	add	s8,s8,a6
 484:	001a8a93          	addi	s5,s5,1
 488:	1b0b8b93          	addi	s7,s7,432
 48c:	ca0a9ae3          	bnez	s5,140 <.LBB30_4>
 490:	ea843883          	ld	a7,-344(s0)
 494:	00289613          	slli	a2,a7,0x2
 498:	ea043783          	ld	a5,-352(s0)
 49c:	00c787b3          	add	a5,a5,a2
 4a0:	0127a423          	sw	s2,8(a5)
 4a4:	01e7a223          	sw	t5,4(a5)
 4a8:	01b7a023          	sw	s11,0(a5)
 4ac:	01a7a623          	sw	s10,12(a5)
 4b0:	e9843783          	ld	a5,-360(s0)
 4b4:	00c787b3          	add	a5,a5,a2
 4b8:	00a7a423          	sw	a0,8(a5)
 4bc:	0197a223          	sw	s9,4(a5)
 4c0:	01d7a023          	sw	t4,0(a5)
 4c4:	0097a623          	sw	s1,12(a5)
 4c8:	e9043503          	ld	a0,-368(s0)
 4cc:	00c50533          	add	a0,a0,a2
 4d0:	01f52423          	sw	t6,8(a0)
 4d4:	00b52223          	sw	a1,4(a0)
 4d8:	01452023          	sw	s4,0(a0)
 4dc:	01c52623          	sw	t3,12(a0)
 4e0:	e8843503          	ld	a0,-376(s0)
 4e4:	00c50633          	add	a2,a0,a2
 4e8:	00e62423          	sw	a4,8(a2)
 4ec:	00662223          	sw	t1,4(a2)
 4f0:	00562023          	sw	t0,0(a2)
 4f4:	00d62623          	sw	a3,12(a2)
 4f8:	00488613          	addi	a2,a7,4
 4fc:	eb043c03          	ld	s8,-336(s0)
 500:	004c0c13          	addi	s8,s8,4
 504:	eb843b83          	ld	s7,-328(s0)
 508:	004b8b93          	addi	s7,s7,4
 50c:	08c00513          	li	a0,140
 510:	bea8e0e3          	bltu	a7,a0,f0 <.LBB30_3>
 514:	e7843603          	ld	a2,-392(s0)
 518:	00460513          	addi	a0,a2,4
 51c:	e8043683          	ld	a3,-384(s0)
 520:	48068693          	addi	a3,a3,1152
 524:	01800593          	li	a1,24
 528:	b8b662e3          	bltu	a2,a1,ac <.LBB30_2>
 52c:	e6043703          	ld	a4,-416(s0)
 530:	00170713          	addi	a4,a4,1
 534:	e5843683          	ld	a3,-424(s0)
 538:	e4843503          	ld	a0,-440(s0)
 53c:	00a686b3          	add	a3,a3,a0
 540:	01c00513          	li	a0,28
 544:	b4a712e3          	bne	a4,a0,88 <.LBB30_1>
 548:	00000513          	li	a0,0
 54c:	1b813083          	ld	ra,440(sp)
 550:	1b013403          	ld	s0,432(sp)
 554:	1a813483          	ld	s1,424(sp)
 558:	1a013903          	ld	s2,416(sp)
 55c:	19813983          	ld	s3,408(sp)
 560:	19013a03          	ld	s4,400(sp)
 564:	18813a83          	ld	s5,392(sp)
 568:	18013b03          	ld	s6,384(sp)
 56c:	17813b83          	ld	s7,376(sp)
 570:	17013c03          	ld	s8,368(sp)
 574:	16813c83          	ld	s9,360(sp)
 578:	16013d03          	ld	s10,352(sp)
 57c:	15813d83          	ld	s11,344(sp)
 580:	1c010113          	addi	sp,sp,448
 584:	00008067          	ret
