
code.o:     file format elf64-littleriscv


Disassembly of section .text.main_dispatch_110_pooling_nhwc_sum_1x7x7x576x3x3_i8xi32xi32:

0000000000000000 <main_dispatch_110_pooling_nhwc_sum_1x7x7x576x3x3_i8xi32xi32>:
   0:	d6010113          	addi	sp,sp,-672
   4:	28113c23          	sd	ra,664(sp)
   8:	28813823          	sd	s0,656(sp)
   c:	28913423          	sd	s1,648(sp)
  10:	29213023          	sd	s2,640(sp)
  14:	27313c23          	sd	s3,632(sp)
  18:	27413823          	sd	s4,624(sp)
  1c:	27513423          	sd	s5,616(sp)
  20:	27613023          	sd	s6,608(sp)
  24:	25713c23          	sd	s7,600(sp)
  28:	25813823          	sd	s8,592(sp)
  2c:	25913423          	sd	s9,584(sp)
  30:	25a13023          	sd	s10,576(sp)
  34:	23b13c23          	sd	s11,568(sp)
  38:	2a010413          	addi	s0,sp,672
  3c:	0205b503          	ld	a0,32(a1)
  40:	00000f13          	li	t5,0
  44:	00000713          	li	a4,0
  48:	00053583          	ld	a1,0(a0)
  4c:	00025637          	lui	a2,0x25
  50:	f406061b          	addiw	a2,a2,-192 # 24f40 <.LBB60_4691+0x14>
  54:	00853503          	ld	a0,8(a0)
  58:	00c58eb3          	add	t4,a1,a2
  5c:	00045637          	lui	a2,0x45
  60:	9806061b          	addiw	a2,a2,-1664 # 44980 <.Lfunc_end80+0x1bfb8>
  64:	00c50533          	add	a0,a0,a2
  68:	d8a43823          	sd	a0,-624(s0)
  6c:	00027537          	lui	a0,0x27
  70:	ec05051b          	addiw	a0,a0,-320 # 26ec0 <.LBB60_5134+0x4>
  74:	00a58533          	add	a0,a1,a0
  78:	e0a43823          	sd	a0,-496(s0)
  7c:	00026537          	lui	a0,0x26
  80:	f005061b          	addiw	a2,a0,-256 # 25f00 <.LBB63_4981+0x8>
  84:	00c58633          	add	a2,a1,a2
  88:	e0c43423          	sd	a2,-504(s0)
  8c:	cc05061b          	addiw	a2,a0,-832
  90:	00c58633          	add	a2,a1,a2
  94:	e0c43023          	sd	a2,-512(s0)
  98:	a805061b          	addiw	a2,a0,-1408
  9c:	00c58633          	add	a2,a1,a2
  a0:	dec43c23          	sd	a2,-520(s0)
  a4:	8405051b          	addiw	a0,a0,-1984
  a8:	00a58a33          	add	s4,a1,a0
  ac:	00900513          	li	a0,9
  b0:	00951593          	slli	a1,a0,0x9
  b4:	d8b43423          	sd	a1,-632(s0)
  b8:	01b00593          	li	a1,27
  bc:	00859613          	slli	a2,a1,0x8
  c0:	d8c43023          	sd	a2,-640(s0)
  c4:	00a51513          	slli	a0,a0,0xa
  c8:	d6a43c23          	sd	a0,-648(s0)
  cc:	00003537          	lui	a0,0x3
  d0:	d005051b          	addiw	a0,a0,-768 # 2d00 <.LBB87_10>
  d4:	d6a43823          	sd	a0,-656(s0)
  d8:	00959593          	slli	a1,a1,0x9
  dc:	d6b43423          	sd	a1,-664(s0)
  e0:	00002537          	lui	a0,0x2
  e4:	1c05061b          	addiw	a2,a0,448 # 21c0 <.LBB28_4+0x4ac>
  e8:	00004537          	lui	a0,0x4
  ec:	3805051b          	addiw	a0,a0,896 # 4380 <.LBB101_150+0x4>
  f0:	d6a43023          	sd	a0,-672(s0)
  f4:	e1d43c23          	sd	t4,-488(s0)
  f8:	dec43823          	sd	a2,-528(s0)

00000000000000fc <.LBB84_1>:
  fc:	00000e13          	li	t3,0
 100:	00871513          	slli	a0,a4,0x8
 104:	d8e43c23          	sd	a4,-616(s0)
 108:	00e71593          	slli	a1,a4,0xe
 10c:	40a585b3          	sub	a1,a1,a0
 110:	d9043503          	ld	a0,-624(s0)
 114:	00b505b3          	add	a1,a0,a1
 118:	7ff58513          	addi	a0,a1,2047
 11c:	10150513          	addi	a0,a0,257
 120:	dca43823          	sd	a0,-560(s0)
 124:	d8843503          	ld	a0,-632(s0)
 128:	00a58533          	add	a0,a1,a0
 12c:	dca43423          	sd	a0,-568(s0)
 130:	d8043503          	ld	a0,-640(s0)
 134:	00a58533          	add	a0,a1,a0
 138:	dca43023          	sd	a0,-576(s0)
 13c:	d7843503          	ld	a0,-648(s0)
 140:	00a58533          	add	a0,a1,a0
 144:	daa43c23          	sd	a0,-584(s0)
 148:	d7043503          	ld	a0,-656(s0)
 14c:	00a58533          	add	a0,a1,a0
 150:	daa43823          	sd	a0,-592(s0)
 154:	d6843503          	ld	a0,-664(s0)
 158:	dcb43c23          	sd	a1,-552(s0)
 15c:	00a58533          	add	a0,a1,a0
 160:	daa43423          	sd	a0,-600(s0)
 164:	dbe43023          	sd	t5,-608(s0)

0000000000000168 <.LBB84_2>:
 168:	00000293          	li	t0,0
 16c:	00000793          	li	a5,0
 170:	00000693          	li	a3,0
 174:	00000313          	li	t1,0
 178:	e8043023          	sd	zero,-384(s0)
 17c:	e6043c23          	sd	zero,-392(s0)
 180:	e6043823          	sd	zero,-400(s0)
 184:	e6043423          	sd	zero,-408(s0)
 188:	00000a93          	li	s5,0
 18c:	ec043423          	sd	zero,-312(s0)
 190:	00000393          	li	t2,0
 194:	00000c93          	li	s9,0
 198:	ec043023          	sd	zero,-320(s0)
 19c:	00000b13          	li	s6,0
 1a0:	ea043c23          	sd	zero,-328(s0)
 1a4:	e8043423          	sd	zero,-376(s0)
 1a8:	f0043823          	sd	zero,-240(s0)
 1ac:	ea043823          	sd	zero,-336(s0)
 1b0:	00000d13          	li	s10,0
 1b4:	ec043823          	sd	zero,-304(s0)
 1b8:	ea043423          	sd	zero,-344(s0)
 1bc:	ea043023          	sd	zero,-352(s0)
 1c0:	f2043423          	sd	zero,-216(s0)
 1c4:	e8043823          	sd	zero,-368(s0)
 1c8:	f6043823          	sd	zero,-144(s0)
 1cc:	f0043423          	sd	zero,-248(s0)
 1d0:	e8043c23          	sd	zero,-360(s0)
 1d4:	f0043023          	sd	zero,-256(s0)
 1d8:	ee043c23          	sd	zero,-264(s0)
 1dc:	ee043823          	sd	zero,-272(s0)
 1e0:	f2043023          	sd	zero,-224(s0)
 1e4:	ee043423          	sd	zero,-280(s0)
 1e8:	f8043823          	sd	zero,-112(s0)
 1ec:	f6043423          	sd	zero,-152(s0)
 1f0:	ee043023          	sd	zero,-288(s0)
 1f4:	f6043023          	sd	zero,-160(s0)
 1f8:	f4043c23          	sd	zero,-168(s0)
 1fc:	f4043823          	sd	zero,-176(s0)
 200:	f8043023          	sd	zero,-128(s0)
 204:	f0043c23          	sd	zero,-232(s0)
 208:	f8043423          	sd	zero,-120(s0)
 20c:	f4043423          	sd	zero,-184(s0)
 210:	ec043c23          	sd	zero,-296(s0)
 214:	f4043023          	sd	zero,-192(s0)
 218:	f2043c23          	sd	zero,-200(s0)
 21c:	f6043c23          	sd	zero,-136(s0)
 220:	f2043823          	sd	zero,-208(s0)
 224:	00000d93          	li	s11,0
 228:	00000b93          	li	s7,0
 22c:	00000c13          	li	s8,0
 230:	00000993          	li	s3,0
 234:	00000f93          	li	t6,0
 238:	00000813          	li	a6,0
 23c:	00000913          	li	s2,0
 240:	00000493          	li	s1,0
 244:	00000713          	li	a4,0
 248:	dfc43023          	sd	t3,-544(s0)
 24c:	ffd00e13          	li	t3,-3
 250:	dfe43423          	sd	t5,-536(s0)

0000000000000254 <.LBB84_3>:
 254:	e2943023          	sd	s1,-480(s0)
 258:	e5b43023          	sd	s11,-448(s0)
 25c:	e5343423          	sd	s3,-440(s0)
 260:	e5043823          	sd	a6,-432(s0)
 264:	e5f43c23          	sd	t6,-424(s0)
 268:	e7243023          	sd	s2,-416(s0)
 26c:	e1843e83          	ld	t4,-488(s0)
 270:	01ee8eb3          	add	t4,t4,t5
 274:	002e8903          	lb	s2,2(t4)
 278:	001e8f83          	lb	t6,1(t4)
 27c:	01268933          	add	s2,a3,s2
 280:	000e8d83          	lb	s11,0(t4)
 284:	01f787b3          	add	a5,a5,t6
 288:	003e8f83          	lb	t6,3(t4)
 28c:	004e8883          	lb	a7,4(t4)
 290:	01b280b3          	add	ra,t0,s11
 294:	005e8d83          	lb	s11,5(t4)
 298:	01f30833          	add	a6,t1,t6
 29c:	e8043503          	ld	a0,-384(s0)
 2a0:	011508b3          	add	a7,a0,a7
 2a4:	006e8f83          	lb	t6,6(t4)
 2a8:	e7843683          	ld	a3,-392(s0)
 2ac:	01b686b3          	add	a3,a3,s11
 2b0:	007e8983          	lb	s3,7(t4)
 2b4:	482e8d83          	lb	s11,1154(t4)
 2b8:	e7043283          	ld	t0,-400(s0)
 2bc:	01f282b3          	add	t0,t0,t6
 2c0:	242e8f83          	lb	t6,578(t4)
 2c4:	e6843303          	ld	t1,-408(s0)
 2c8:	01330333          	add	t1,t1,s3
 2cc:	01b383b3          	add	t2,t2,s11
 2d0:	481e8983          	lb	s3,1153(t4)
 2d4:	01bf8fb3          	add	t6,t6,s11
 2d8:	241e8503          	lb	a0,577(t4)
 2dc:	01f90db3          	add	s11,s2,t6
 2e0:	ec843483          	ld	s1,-312(s0)
 2e4:	013484b3          	add	s1,s1,s3
 2e8:	480e8f83          	lb	t6,1152(t4)
 2ec:	01350533          	add	a0,a0,s3
 2f0:	240e8903          	lb	s2,576(t4)
 2f4:	00a78533          	add	a0,a5,a0
 2f8:	e2a43c23          	sd	a0,-456(s0)
 2fc:	01fa8533          	add	a0,s5,t6
 300:	483e8983          	lb	s3,1155(t4)
 304:	01f90fb3          	add	t6,s2,t6
 308:	243e8903          	lb	s2,579(t4)
 30c:	01f08fb3          	add	t6,ra,t6
 310:	e3f43823          	sd	t6,-464(s0)
 314:	013c8fb3          	add	t6,s9,s3
 318:	484e8583          	lb	a1,1156(t4)
 31c:	01390933          	add	s2,s2,s3
 320:	244e8983          	lb	s3,580(t4)
 324:	01280833          	add	a6,a6,s2
 328:	e3043423          	sd	a6,-472(s0)
 32c:	ec043a83          	ld	s5,-320(s0)
 330:	00ba8ab3          	add	s5,s5,a1
 334:	485e8903          	lb	s2,1157(t4)
 338:	00b985b3          	add	a1,s3,a1
 33c:	245e8603          	lb	a2,581(t4)
 340:	00b885b3          	add	a1,a7,a1
 344:	e8b43023          	sd	a1,-384(s0)
 348:	012b05b3          	add	a1,s6,s2
 34c:	486e8883          	lb	a7,1158(t4)
 350:	01260633          	add	a2,a2,s2
 354:	246e8903          	lb	s2,582(t4)
 358:	00c68633          	add	a2,a3,a2
 35c:	e6c43c23          	sd	a2,-392(s0)
 360:	eb843b03          	ld	s6,-328(s0)
 364:	011b0b33          	add	s6,s6,a7
 368:	487e8603          	lb	a2,1159(t4)
 36c:	011908b3          	add	a7,s2,a7
 370:	011288b3          	add	a7,t0,a7
 374:	e7143823          	sd	a7,-400(s0)
 378:	247e8883          	lb	a7,583(t4)
 37c:	e8843c83          	ld	s9,-376(s0)
 380:	00cc8cb3          	add	s9,s9,a2
 384:	01ea0933          	add	s2,s4,t5
 388:	00070093          	mv	ra,a4
 38c:	00090703          	lb	a4,0(s2)
 390:	00c88633          	add	a2,a7,a2
 394:	6c0e8883          	lb	a7,1728(t4)
 398:	00c30633          	add	a2,t1,a2
 39c:	e6c43423          	sd	a2,-408(s0)
 3a0:	f1043603          	ld	a2,-240(s0)
 3a4:	00e60633          	add	a2,a2,a4
 3a8:	000a0793          	mv	a5,s4
 3ac:	00190a03          	lb	s4,1(s2)
 3b0:	00e88733          	add	a4,a7,a4
 3b4:	6c1e8883          	lb	a7,1729(t4)
 3b8:	00e50833          	add	a6,a0,a4
 3bc:	eb043503          	ld	a0,-336(s0)
 3c0:	01450533          	add	a0,a0,s4
 3c4:	00290703          	lb	a4,2(s2)
 3c8:	014888b3          	add	a7,a7,s4
 3cc:	6c2e8a03          	lb	s4,1730(t4)
 3d0:	011488b3          	add	a7,s1,a7
 3d4:	ed143423          	sd	a7,-312(s0)
 3d8:	00ed0d33          	add	s10,s10,a4
 3dc:	00390883          	lb	a7,3(s2)
 3e0:	00ea0733          	add	a4,s4,a4
 3e4:	6c3e8a03          	lb	s4,1731(t4)
 3e8:	00e383b3          	add	t2,t2,a4
 3ec:	ed043703          	ld	a4,-304(s0)
 3f0:	01170733          	add	a4,a4,a7
 3f4:	00490483          	lb	s1,4(s2)
 3f8:	011a08b3          	add	a7,s4,a7
 3fc:	011f8333          	add	t1,t6,a7
 400:	6c4e8883          	lb	a7,1732(t4)
 404:	ea843f83          	ld	t6,-344(s0)
 408:	009f8fb3          	add	t6,t6,s1
 40c:	00590a03          	lb	s4,5(s2)
 410:	000b8993          	mv	s3,s7
 414:	6c5e8b83          	lb	s7,1733(t4)
 418:	009888b3          	add	a7,a7,s1
 41c:	011a88b3          	add	a7,s5,a7
 420:	ed143023          	sd	a7,-320(s0)
 424:	ea043883          	ld	a7,-352(s0)
 428:	014888b3          	add	a7,a7,s4
 42c:	014b8a33          	add	s4,s7,s4
 430:	014582b3          	add	t0,a1,s4
 434:	00690583          	lb	a1,6(s2)
 438:	6c6e8483          	lb	s1,1734(t4)
 43c:	6c7e8e83          	lb	t4,1735(t4)
 440:	00790903          	lb	s2,7(s2)
 444:	f2843a03          	ld	s4,-216(s0)
 448:	00ba0a33          	add	s4,s4,a1
 44c:	00b485b3          	add	a1,s1,a1
 450:	00bb05b3          	add	a1,s6,a1
 454:	eab43c23          	sd	a1,-328(s0)
 458:	000c0693          	mv	a3,s8
 45c:	e9043c03          	ld	s8,-368(s0)
 460:	012c0c33          	add	s8,s8,s2
 464:	012e8eb3          	add	t4,t4,s2
 468:	e0043583          	ld	a1,-512(s0)
 46c:	01e585b3          	add	a1,a1,t5
 470:	00058483          	lb	s1,0(a1)
 474:	df843903          	ld	s2,-520(s0)
 478:	01e90933          	add	s2,s2,t5
 47c:	00090b83          	lb	s7,0(s2)
 480:	01dc8eb3          	add	t4,s9,t4
 484:	e9d43423          	sd	t4,-376(s0)
 488:	f7043a83          	ld	s5,-144(s0)
 48c:	009a8ab3          	add	s5,s5,s1
 490:	00158e83          	lb	t4,1(a1)
 494:	009b84b3          	add	s1,s7,s1
 498:	00190b83          	lb	s7,1(s2)
 49c:	00960633          	add	a2,a2,s1
 4a0:	f0c43823          	sd	a2,-240(s0)
 4a4:	f0843603          	ld	a2,-248(s0)
 4a8:	01d60633          	add	a2,a2,t4
 4ac:	00258483          	lb	s1,2(a1)
 4b0:	01db8eb3          	add	t4,s7,t4
 4b4:	00290b83          	lb	s7,2(s2)
 4b8:	01d50533          	add	a0,a0,t4
 4bc:	eaa43823          	sd	a0,-336(s0)
 4c0:	e9843503          	ld	a0,-360(s0)
 4c4:	00950533          	add	a0,a0,s1
 4c8:	00358e83          	lb	t4,3(a1)
 4cc:	009b84b3          	add	s1,s7,s1
 4d0:	00390b83          	lb	s7,3(s2)
 4d4:	009d0d33          	add	s10,s10,s1
 4d8:	f0043483          	ld	s1,-256(s0)
 4dc:	01d484b3          	add	s1,s1,t4
 4e0:	00458b03          	lb	s6,4(a1)
 4e4:	01db8eb3          	add	t4,s7,t4
 4e8:	01d70733          	add	a4,a4,t4
 4ec:	ece43823          	sd	a4,-304(s0)
 4f0:	00490703          	lb	a4,4(s2)
 4f4:	ef843b83          	ld	s7,-264(s0)
 4f8:	016b8bb3          	add	s7,s7,s6
 4fc:	00558e83          	lb	t4,5(a1)
 500:	00590c83          	lb	s9,5(s2)
 504:	01670733          	add	a4,a4,s6
 508:	00ef8733          	add	a4,t6,a4
 50c:	eae43423          	sd	a4,-344(s0)
 510:	ef043703          	ld	a4,-272(s0)
 514:	01d70733          	add	a4,a4,t4
 518:	01dc8eb3          	add	t4,s9,t4
 51c:	00658f83          	lb	t6,6(a1)
 520:	00690b03          	lb	s6,6(s2)
 524:	01d888b3          	add	a7,a7,t4
 528:	eb143023          	sd	a7,-352(s0)
 52c:	00758583          	lb	a1,7(a1)
 530:	f2043883          	ld	a7,-224(s0)
 534:	01f888b3          	add	a7,a7,t6
 538:	01fb0fb3          	add	t6,s6,t6
 53c:	01fa0fb3          	add	t6,s4,t6
 540:	f3f43423          	sd	t6,-216(s0)
 544:	00790f83          	lb	t6,7(s2)
 548:	ee843903          	ld	s2,-280(s0)
 54c:	00b90933          	add	s2,s2,a1
 550:	e0843e83          	ld	t4,-504(s0)
 554:	01ee8eb3          	add	t4,t4,t5
 558:	240e8a03          	lb	s4,576(t4)
 55c:	00bf85b3          	add	a1,t6,a1
 560:	000e8f83          	lb	t6,0(t4)
 564:	00bc05b3          	add	a1,s8,a1
 568:	e8b43823          	sd	a1,-368(s0)
 56c:	f9043583          	ld	a1,-112(s0)
 570:	014585b3          	add	a1,a1,s4
 574:	241e8b03          	lb	s6,577(t4)
 578:	014f8fb3          	add	t6,t6,s4
 57c:	001e8a03          	lb	s4,1(t4)
 580:	01fa8fb3          	add	t6,s5,t6
 584:	f7f43823          	sd	t6,-144(s0)
 588:	f6843f83          	ld	t6,-152(s0)
 58c:	016f8fb3          	add	t6,t6,s6
 590:	242e8a83          	lb	s5,578(t4)
 594:	016a0a33          	add	s4,s4,s6
 598:	002e8b03          	lb	s6,2(t4)
 59c:	01460633          	add	a2,a2,s4
 5a0:	f0c43423          	sd	a2,-248(s0)
 5a4:	ee043603          	ld	a2,-288(s0)
 5a8:	01560633          	add	a2,a2,s5
 5ac:	243e8a03          	lb	s4,579(t4)
 5b0:	015b0ab3          	add	s5,s6,s5
 5b4:	003e8b03          	lb	s6,3(t4)
 5b8:	01550533          	add	a0,a0,s5
 5bc:	e8a43c23          	sd	a0,-360(s0)
 5c0:	f6043503          	ld	a0,-160(s0)
 5c4:	01450533          	add	a0,a0,s4
 5c8:	244e8a83          	lb	s5,580(t4)
 5cc:	014b0a33          	add	s4,s6,s4
 5d0:	004e8b03          	lb	s6,4(t4)
 5d4:	014484b3          	add	s1,s1,s4
 5d8:	f0943023          	sd	s1,-256(s0)
 5dc:	f5843483          	ld	s1,-168(s0)
 5e0:	015484b3          	add	s1,s1,s5
 5e4:	245e8a03          	lb	s4,581(t4)
 5e8:	015b0ab3          	add	s5,s6,s5
 5ec:	005e8b03          	lb	s6,5(t4)
 5f0:	015b8ab3          	add	s5,s7,s5
 5f4:	ef543c23          	sd	s5,-264(s0)
 5f8:	f5043a83          	ld	s5,-176(s0)
 5fc:	014a8ab3          	add	s5,s5,s4
 600:	246e8b83          	lb	s7,582(t4)
 604:	014b0a33          	add	s4,s6,s4
 608:	006e8b03          	lb	s6,6(t4)
 60c:	01470733          	add	a4,a4,s4
 610:	eee43823          	sd	a4,-272(s0)
 614:	f8043703          	ld	a4,-128(s0)
 618:	01770733          	add	a4,a4,s7
 61c:	247e8a03          	lb	s4,583(t4)
 620:	017b0b33          	add	s6,s6,s7
 624:	007e8b83          	lb	s7,7(t4)
 628:	016888b3          	add	a7,a7,s6
 62c:	f3143023          	sd	a7,-224(s0)
 630:	f1843883          	ld	a7,-232(s0)
 634:	014888b3          	add	a7,a7,s4
 638:	6c0e8b03          	lb	s6,1728(t4)
 63c:	014b8a33          	add	s4,s7,s4
 640:	480e8b83          	lb	s7,1152(t4)
 644:	01490933          	add	s2,s2,s4
 648:	ef243423          	sd	s2,-280(s0)
 64c:	f8843903          	ld	s2,-120(s0)
 650:	01690933          	add	s2,s2,s6
 654:	6c1e8a03          	lb	s4,1729(t4)
 658:	016b8b33          	add	s6,s7,s6
 65c:	481e8b83          	lb	s7,1153(t4)
 660:	016585b3          	add	a1,a1,s6
 664:	f8b43823          	sd	a1,-112(s0)
 668:	f4843583          	ld	a1,-184(s0)
 66c:	014585b3          	add	a1,a1,s4
 670:	6c2e8b03          	lb	s6,1730(t4)
 674:	014b8a33          	add	s4,s7,s4
 678:	482e8b83          	lb	s7,1154(t4)
 67c:	014f8fb3          	add	t6,t6,s4
 680:	f7f43423          	sd	t6,-152(s0)
 684:	ed843f83          	ld	t6,-296(s0)
 688:	016f8fb3          	add	t6,t6,s6
 68c:	6c3e8a03          	lb	s4,1731(t4)
 690:	016b8b33          	add	s6,s7,s6
 694:	483e8b83          	lb	s7,1155(t4)
 698:	01660633          	add	a2,a2,s6
 69c:	eec43023          	sd	a2,-288(s0)
 6a0:	f4043603          	ld	a2,-192(s0)
 6a4:	01460633          	add	a2,a2,s4
 6a8:	6c4e8b03          	lb	s6,1732(t4)
 6ac:	014b8a33          	add	s4,s7,s4
 6b0:	484e8b83          	lb	s7,1156(t4)
 6b4:	01450533          	add	a0,a0,s4
 6b8:	f6a43023          	sd	a0,-160(s0)
 6bc:	f3843503          	ld	a0,-200(s0)
 6c0:	01650533          	add	a0,a0,s6
 6c4:	6c5e8a03          	lb	s4,1733(t4)
 6c8:	016b8b33          	add	s6,s7,s6
 6cc:	485e8b83          	lb	s7,1157(t4)
 6d0:	016484b3          	add	s1,s1,s6
 6d4:	f4943c23          	sd	s1,-168(s0)
 6d8:	f7843483          	ld	s1,-136(s0)
 6dc:	014484b3          	add	s1,s1,s4
 6e0:	6c6e8b03          	lb	s6,1734(t4)
 6e4:	014b8a33          	add	s4,s7,s4
 6e8:	486e8b83          	lb	s7,1158(t4)
 6ec:	014a8a33          	add	s4,s5,s4
 6f0:	f5443823          	sd	s4,-176(s0)
 6f4:	f3043a03          	ld	s4,-208(s0)
 6f8:	016a0a33          	add	s4,s4,s6
 6fc:	6c7e8a83          	lb	s5,1735(t4)
 700:	016b8b33          	add	s6,s7,s6
 704:	01670733          	add	a4,a4,s6
 708:	f8e43023          	sd	a4,-128(s0)
 70c:	487e8703          	lb	a4,1159(t4)
 710:	e4043b03          	ld	s6,-448(s0)
 714:	015b0b33          	add	s6,s6,s5
 718:	e1043e83          	ld	t4,-496(s0)
 71c:	01ee8eb3          	add	t4,t4,t5
 720:	b80e8b83          	lb	s7,-1152(t4)
 724:	01570733          	add	a4,a4,s5
 728:	940e8a83          	lb	s5,-1728(t4)
 72c:	00e88733          	add	a4,a7,a4
 730:	f0e43c23          	sd	a4,-232(s0)
 734:	01798733          	add	a4,s3,s7
 738:	b81e8883          	lb	a7,-1151(t4)
 73c:	017a8ab3          	add	s5,s5,s7
 740:	941e8b83          	lb	s7,-1727(t4)
 744:	01590933          	add	s2,s2,s5
 748:	f9243423          	sd	s2,-120(s0)
 74c:	01168933          	add	s2,a3,a7
 750:	000d8693          	mv	a3,s11
 754:	b82e8a83          	lb	s5,-1150(t4)
 758:	011b88b3          	add	a7,s7,a7
 75c:	942e8b83          	lb	s7,-1726(t4)
 760:	011585b3          	add	a1,a1,a7
 764:	f4b43423          	sd	a1,-184(s0)
 768:	e4843583          	ld	a1,-440(s0)
 76c:	015585b3          	add	a1,a1,s5
 770:	b83e8883          	lb	a7,-1149(t4)
 774:	015b8ab3          	add	s5,s7,s5
 778:	943e8b83          	lb	s7,-1725(t4)
 77c:	015f8fb3          	add	t6,t6,s5
 780:	edf43c23          	sd	t6,-296(s0)
 784:	e5843f83          	ld	t6,-424(s0)
 788:	011f8fb3          	add	t6,t6,a7
 78c:	b84e8a83          	lb	s5,-1148(t4)
 790:	011b88b3          	add	a7,s7,a7
 794:	944e8b83          	lb	s7,-1724(t4)
 798:	01160633          	add	a2,a2,a7
 79c:	f4c43023          	sd	a2,-192(s0)
 7a0:	e5043603          	ld	a2,-432(s0)
 7a4:	01560633          	add	a2,a2,s5
 7a8:	b85e8883          	lb	a7,-1147(t4)
 7ac:	015b8ab3          	add	s5,s7,s5
 7b0:	945e8b83          	lb	s7,-1723(t4)
 7b4:	01550533          	add	a0,a0,s5
 7b8:	f2a43c23          	sd	a0,-200(s0)
 7bc:	e6043503          	ld	a0,-416(s0)
 7c0:	01150533          	add	a0,a0,a7
 7c4:	b86e8a83          	lb	s5,-1146(t4)
 7c8:	011b88b3          	add	a7,s7,a7
 7cc:	011488b3          	add	a7,s1,a7
 7d0:	f7143c23          	sd	a7,-136(s0)
 7d4:	946e8883          	lb	a7,-1722(t4)
 7d8:	e2043483          	ld	s1,-480(s0)
 7dc:	015484b3          	add	s1,s1,s5
 7e0:	b87e8b83          	lb	s7,-1145(t4)
 7e4:	947e8c83          	lb	s9,-1721(t4)
 7e8:	015888b3          	add	a7,a7,s5
 7ec:	011a08b3          	add	a7,s4,a7
 7f0:	f3143823          	sd	a7,-208(s0)
 7f4:	017088b3          	add	a7,ra,s7
 7f8:	017c8bb3          	add	s7,s9,s7
 7fc:	dc0e8a03          	lb	s4,-576(t4)
 800:	000e8a83          	lb	s5,0(t4)
 804:	dc1e8c83          	lb	s9,-575(t4)
 808:	001e8c03          	lb	s8,1(t4)
 80c:	017b0db3          	add	s11,s6,s7
 810:	015a0a33          	add	s4,s4,s5
 814:	01470bb3          	add	s7,a4,s4
 818:	018c8c33          	add	s8,s9,s8
 81c:	00030c93          	mv	s9,t1
 820:	e2843303          	ld	t1,-472(s0)
 824:	dc2e8703          	lb	a4,-574(t4)
 828:	002e8a03          	lb	s4,2(t4)
 82c:	dc3e8a83          	lb	s5,-573(t4)
 830:	003e8b03          	lb	s6,3(t4)
 834:	01890c33          	add	s8,s2,s8
 838:	01470733          	add	a4,a4,s4
 83c:	00e589b3          	add	s3,a1,a4
 840:	016a8ab3          	add	s5,s5,s6
 844:	00028b13          	mv	s6,t0
 848:	e3043283          	ld	t0,-464(s0)
 84c:	dc4e8583          	lb	a1,-572(t4)
 850:	004e8703          	lb	a4,4(t4)
 854:	dc5e8903          	lb	s2,-571(t4)
 858:	005e8a03          	lb	s4,5(t4)
 85c:	015f8fb3          	add	t6,t6,s5
 860:	00080a93          	mv	s5,a6
 864:	00e585b3          	add	a1,a1,a4
 868:	00b60833          	add	a6,a2,a1
 86c:	01490933          	add	s2,s2,s4
 870:	00078a13          	mv	s4,a5
 874:	e3843783          	ld	a5,-456(s0)
 878:	dc6e8583          	lb	a1,-570(t4)
 87c:	006e8603          	lb	a2,6(t4)
 880:	dc7e8703          	lb	a4,-569(t4)
 884:	007e8e83          	lb	t4,7(t4)
 888:	01250933          	add	s2,a0,s2
 88c:	00c585b3          	add	a1,a1,a2
 890:	df043603          	ld	a2,-528(s0)
 894:	00b484b3          	add	s1,s1,a1
 898:	01d70733          	add	a4,a4,t4
 89c:	00e88733          	add	a4,a7,a4
 8a0:	001e0e13          	addi	t3,t3,1
 8a4:	00cf0f33          	add	t5,t5,a2
 8a8:	9a0e16e3          	bnez	t3,254 <.LBB84_3>
 8ac:	de043583          	ld	a1,-544(s0)
 8b0:	00259e13          	slli	t3,a1,0x2
 8b4:	dd843503          	ld	a0,-552(s0)
 8b8:	01c50533          	add	a0,a0,t3
 8bc:	00d52423          	sw	a3,8(a0)
 8c0:	00f52223          	sw	a5,4(a0)
 8c4:	00552023          	sw	t0,0(a0)
 8c8:	00652623          	sw	t1,12(a0)
 8cc:	e8043683          	ld	a3,-384(s0)
 8d0:	00d52823          	sw	a3,16(a0)
 8d4:	e7843683          	ld	a3,-392(s0)
 8d8:	00d52a23          	sw	a3,20(a0)
 8dc:	e7043683          	ld	a3,-400(s0)
 8e0:	00d52c23          	sw	a3,24(a0)
 8e4:	e6843683          	ld	a3,-408(s0)
 8e8:	00d52e23          	sw	a3,28(a0)
 8ec:	dd043503          	ld	a0,-560(s0)
 8f0:	01c50533          	add	a0,a0,t3
 8f4:	00752423          	sw	t2,8(a0)
 8f8:	ec843683          	ld	a3,-312(s0)
 8fc:	00d52223          	sw	a3,4(a0)
 900:	01552023          	sw	s5,0(a0)
 904:	01952623          	sw	s9,12(a0)
 908:	ec043683          	ld	a3,-320(s0)
 90c:	00d52823          	sw	a3,16(a0)
 910:	01652a23          	sw	s6,20(a0)
 914:	eb843683          	ld	a3,-328(s0)
 918:	00d52c23          	sw	a3,24(a0)
 91c:	e8843683          	ld	a3,-376(s0)
 920:	00d52e23          	sw	a3,28(a0)
 924:	dc843503          	ld	a0,-568(s0)
 928:	01c50533          	add	a0,a0,t3
 92c:	01a52423          	sw	s10,8(a0)
 930:	eb043683          	ld	a3,-336(s0)
 934:	00d52223          	sw	a3,4(a0)
 938:	f1043683          	ld	a3,-240(s0)
 93c:	00d52023          	sw	a3,0(a0)
 940:	ed043683          	ld	a3,-304(s0)
 944:	00d52623          	sw	a3,12(a0)
 948:	ea843683          	ld	a3,-344(s0)
 94c:	00d52823          	sw	a3,16(a0)
 950:	ea043683          	ld	a3,-352(s0)
 954:	00d52a23          	sw	a3,20(a0)
 958:	f2843683          	ld	a3,-216(s0)
 95c:	00d52c23          	sw	a3,24(a0)
 960:	e9043683          	ld	a3,-368(s0)
 964:	00d52e23          	sw	a3,28(a0)
 968:	dc043503          	ld	a0,-576(s0)
 96c:	01c50533          	add	a0,a0,t3
 970:	e9843683          	ld	a3,-360(s0)
 974:	00d52423          	sw	a3,8(a0)
 978:	f0843683          	ld	a3,-248(s0)
 97c:	00d52223          	sw	a3,4(a0)
 980:	f7043683          	ld	a3,-144(s0)
 984:	00d52023          	sw	a3,0(a0)
 988:	f0043683          	ld	a3,-256(s0)
 98c:	00d52623          	sw	a3,12(a0)
 990:	ef843683          	ld	a3,-264(s0)
 994:	00d52823          	sw	a3,16(a0)
 998:	ef043683          	ld	a3,-272(s0)
 99c:	00d52a23          	sw	a3,20(a0)
 9a0:	f2043683          	ld	a3,-224(s0)
 9a4:	00d52c23          	sw	a3,24(a0)
 9a8:	ee843683          	ld	a3,-280(s0)
 9ac:	00d52e23          	sw	a3,28(a0)
 9b0:	db843503          	ld	a0,-584(s0)
 9b4:	01c50533          	add	a0,a0,t3
 9b8:	ee043683          	ld	a3,-288(s0)
 9bc:	00d52423          	sw	a3,8(a0)
 9c0:	f6843683          	ld	a3,-152(s0)
 9c4:	00d52223          	sw	a3,4(a0)
 9c8:	f9043683          	ld	a3,-112(s0)
 9cc:	00d52023          	sw	a3,0(a0)
 9d0:	f6043683          	ld	a3,-160(s0)
 9d4:	00d52623          	sw	a3,12(a0)
 9d8:	f5843683          	ld	a3,-168(s0)
 9dc:	00d52823          	sw	a3,16(a0)
 9e0:	f5043683          	ld	a3,-176(s0)
 9e4:	00d52a23          	sw	a3,20(a0)
 9e8:	f8043683          	ld	a3,-128(s0)
 9ec:	00d52c23          	sw	a3,24(a0)
 9f0:	f1843683          	ld	a3,-232(s0)
 9f4:	00d52e23          	sw	a3,28(a0)
 9f8:	db043503          	ld	a0,-592(s0)
 9fc:	01c50533          	add	a0,a0,t3
 a00:	ed843683          	ld	a3,-296(s0)
 a04:	00d52423          	sw	a3,8(a0)
 a08:	f4843683          	ld	a3,-184(s0)
 a0c:	00d52223          	sw	a3,4(a0)
 a10:	f8843683          	ld	a3,-120(s0)
 a14:	00d52023          	sw	a3,0(a0)
 a18:	f4043683          	ld	a3,-192(s0)
 a1c:	00d52623          	sw	a3,12(a0)
 a20:	f3843683          	ld	a3,-200(s0)
 a24:	00d52823          	sw	a3,16(a0)
 a28:	f7843683          	ld	a3,-136(s0)
 a2c:	00d52a23          	sw	a3,20(a0)
 a30:	f3043683          	ld	a3,-208(s0)
 a34:	00d52c23          	sw	a3,24(a0)
 a38:	01b52e23          	sw	s11,28(a0)
 a3c:	da843503          	ld	a0,-600(s0)
 a40:	01c50e33          	add	t3,a0,t3
 a44:	013e2423          	sw	s3,8(t3)
 a48:	018e2223          	sw	s8,4(t3)
 a4c:	017e2023          	sw	s7,0(t3)
 a50:	01fe2623          	sw	t6,12(t3)
 a54:	010e2823          	sw	a6,16(t3)
 a58:	012e2a23          	sw	s2,20(t3)
 a5c:	009e2c23          	sw	s1,24(t3)
 a60:	00ee2e23          	sw	a4,28(t3)
 a64:	00858e13          	addi	t3,a1,8
 a68:	de843f03          	ld	t5,-536(s0)
 a6c:	008f0f13          	addi	t5,t5,8
 a70:	23800513          	li	a0,568
 a74:	eea5ea63          	bltu	a1,a0,168 <.LBB84_2>
 a78:	d9843703          	ld	a4,-616(s0)
 a7c:	00170713          	addi	a4,a4,1
 a80:	da043f03          	ld	t5,-608(s0)
 a84:	d6043503          	ld	a0,-672(s0)
 a88:	00af0f33          	add	t5,t5,a0
 a8c:	00700513          	li	a0,7
 a90:	e6a71663          	bne	a4,a0,fc <.LBB84_1>
 a94:	00000513          	li	a0,0
 a98:	29813083          	ld	ra,664(sp)
 a9c:	29013403          	ld	s0,656(sp)
 aa0:	28813483          	ld	s1,648(sp)
 aa4:	28013903          	ld	s2,640(sp)
 aa8:	27813983          	ld	s3,632(sp)
 aac:	27013a03          	ld	s4,624(sp)
 ab0:	26813a83          	ld	s5,616(sp)
 ab4:	26013b03          	ld	s6,608(sp)
 ab8:	25813b83          	ld	s7,600(sp)
 abc:	25013c03          	ld	s8,592(sp)
 ac0:	24813c83          	ld	s9,584(sp)
 ac4:	24013d03          	ld	s10,576(sp)
 ac8:	23813d83          	ld	s11,568(sp)
 acc:	2a010113          	addi	sp,sp,672
 ad0:	00008067          	ret
