
code.o:     file format elf64-littleriscv


Disassembly of section .text.main_dispatch_39_pooling_nhwc_sum_1x28x28x192x3x3_i8xi32xi32:

0000000000000000 <main_dispatch_39_pooling_nhwc_sum_1x28x28x192x3x3_i8xi32xi32>:
   0:	e5010113          	addi	sp,sp,-432
   4:	1a113423          	sd	ra,424(sp)
   8:	1a813023          	sd	s0,416(sp)
   c:	18913c23          	sd	s1,408(sp)
  10:	19213823          	sd	s2,400(sp)
  14:	19313423          	sd	s3,392(sp)
  18:	19413023          	sd	s4,384(sp)
  1c:	17513c23          	sd	s5,376(sp)
  20:	17613823          	sd	s6,368(sp)
  24:	17713423          	sd	s7,360(sp)
  28:	17813023          	sd	s8,352(sp)
  2c:	15913c23          	sd	s9,344(sp)
  30:	15a13823          	sd	s10,336(sp)
  34:	15b13423          	sd	s11,328(sp)
  38:	1b010413          	addi	s0,sp,432
  3c:	0185b503          	ld	a0,24(a1)
  40:	0205b583          	ld	a1,32(a1)
  44:	00056603          	lwu	a2,0(a0)
  48:	00456503          	lwu	a0,4(a0)
  4c:	0085b683          	ld	a3,8(a1)
  50:	0005b583          	ld	a1,0(a1)
  54:	00000713          	li	a4,0
  58:	ffc57513          	andi	a0,a0,-4
  5c:	00a68533          	add	a0,a3,a0
  60:	e6a43023          	sd	a0,-416(s0)
  64:	00b605b3          	add	a1,a2,a1
  68:	24058d13          	addi	s10,a1,576
  6c:	01500513          	li	a0,21
  70:	00a51513          	slli	a0,a0,0xa
  74:	e4a43c23          	sd	a0,-424(s0)
  78:	00001537          	lui	a0,0x1
  7c:	6805081b          	addiw	a6,a0,1664 # 1680 <.LBB107_241>
  80:	ed043023          	sd	a6,-320(s0)

0000000000000084 <.LBB38_1>:
  84:	00000593          	li	a1,0
  88:	e6e43823          	sd	a4,-400(s0)
  8c:	e5843503          	ld	a0,-424(s0)
  90:	02a70533          	mul	a0,a4,a0
  94:	e6043603          	ld	a2,-416(s0)
  98:	00a60533          	add	a0,a2,a0
  9c:	e6a43c23          	sd	a0,-392(s0)
  a0:	e7a43423          	sd	s10,-408(s0)

00000000000000a4 <.LBB38_2>:
  a4:	00000513          	li	a0,0
  a8:	00058613          	mv	a2,a1
  ac:	30000593          	li	a1,768
  b0:	e8c43023          	sd	a2,-384(s0)
  b4:	02b605b3          	mul	a1,a2,a1
  b8:	e7843603          	ld	a2,-392(s0)
  bc:	00b605b3          	add	a1,a2,a1
  c0:	30058613          	addi	a2,a1,768
  c4:	eac43023          	sd	a2,-352(s0)
  c8:	60058613          	addi	a2,a1,1536
  cc:	e8c43c23          	sd	a2,-360(s0)
  d0:	eab43423          	sd	a1,-344(s0)
  d4:	7ff58593          	addi	a1,a1,2047
  d8:	10158593          	addi	a1,a1,257
  dc:	e8b43823          	sd	a1,-368(s0)
  e0:	e9a43423          	sd	s10,-376(s0)

00000000000000e4 <.LBB38_3>:
  e4:	00000a93          	li	s5,0
  e8:	00000913          	li	s2,0
  ec:	00000a13          	li	s4,0
  f0:	f4043023          	sd	zero,-192(s0)
  f4:	f2043c23          	sd	zero,-200(s0)
  f8:	00000b13          	li	s6,0
  fc:	00000b93          	li	s7,0
 100:	00000c13          	li	s8,0
 104:	00000893          	li	a7,0
 108:	00000493          	li	s1,0
 10c:	f4043423          	sd	zero,-184(s0)
 110:	00000093          	li	ra,0
 114:	00000993          	li	s3,0
 118:	f8043023          	sd	zero,-128(s0)
 11c:	f6043023          	sd	zero,-160(s0)
 120:	f4043c23          	sd	zero,-168(s0)
 124:	f8043823          	sd	zero,-112(s0)
 128:	f6043c23          	sd	zero,-136(s0)
 12c:	f4043823          	sd	zero,-176(s0)
 130:	f6043823          	sd	zero,-144(s0)
 134:	f8043423          	sd	zero,-120(s0)
 138:	f6043423          	sd	zero,-152(s0)
 13c:	00000f93          	li	t6,0
 140:	00000e93          	li	t4,0
 144:	00000d93          	li	s11,0
 148:	00000293          	li	t0,0
 14c:	00000793          	li	a5,0
 150:	00000713          	li	a4,0
 154:	00000313          	li	t1,0
 158:	00000f13          	li	t5,0
 15c:	00000393          	li	t2,0
 160:	00000e13          	li	t3,0
 164:	eaa43823          	sd	a0,-336(s0)
 168:	ffd00c93          	li	s9,-3
 16c:	eba43c23          	sd	s10,-328(s0)

0000000000000170 <.LBB38_4>:
 170:	edd43423          	sd	t4,-312(s0)
 174:	efe43423          	sd	t5,-280(s0)
 178:	ee543c23          	sd	t0,-264(s0)
 17c:	f1c43023          	sd	t3,-256(s0)
 180:	f0643423          	sd	t1,-248(s0)
 184:	f0743823          	sd	t2,-240(s0)
 188:	f1b43c23          	sd	s11,-232(s0)
 18c:	f2e43423          	sd	a4,-216(s0)
 190:	f2f43823          	sd	a5,-208(s0)
 194:	dc2d0503          	lb	a0,-574(s10)
 198:	00aa0a33          	add	s4,s4,a0
 19c:	dc1d0503          	lb	a0,-575(s10)
 1a0:	dc0d0583          	lb	a1,-576(s10)
 1a4:	dc3d0603          	lb	a2,-573(s10)
 1a8:	dc4d0683          	lb	a3,-572(s10)
 1ac:	00a90933          	add	s2,s2,a0
 1b0:	00ba85b3          	add	a1,s5,a1
 1b4:	f4043783          	ld	a5,-192(s0)
 1b8:	00c787b3          	add	a5,a5,a2
 1bc:	f3843a83          	ld	s5,-200(s0)
 1c0:	00da8ab3          	add	s5,s5,a3
 1c4:	dc7d0503          	lb	a0,-569(s10)
 1c8:	dc5d0683          	lb	a3,-571(s10)
 1cc:	dc6d0703          	lb	a4,-570(s10)
 1d0:	e80d0803          	lb	a6,-384(s10)
 1d4:	f40d0603          	lb	a2,-192(s10)
 1d8:	00db0b33          	add	s6,s6,a3
 1dc:	00eb8bb3          	add	s7,s7,a4
 1e0:	00ac0c33          	add	s8,s8,a0
 1e4:	01060833          	add	a6,a2,a6
 1e8:	000d0d83          	lb	s11,0(s10)
 1ec:	e81d0683          	lb	a3,-383(s10)
 1f0:	f41d0503          	lb	a0,-191(s10)
 1f4:	00b805b3          	add	a1,a6,a1
 1f8:	ecb43c23          	sd	a1,-296(s0)
 1fc:	01b885b3          	add	a1,a7,s11
 200:	00b805b3          	add	a1,a6,a1
 204:	f2b43023          	sd	a1,-224(s0)
 208:	00d506b3          	add	a3,a0,a3
 20c:	001d0583          	lb	a1,1(s10)
 210:	e82d0703          	lb	a4,-382(s10)
 214:	f42d0803          	lb	a6,-190(s10)
 218:	01268933          	add	s2,a3,s2
 21c:	ef243823          	sd	s2,-272(s0)
 220:	00b488b3          	add	a7,s1,a1
 224:	011686b3          	add	a3,a3,a7
 228:	eed43023          	sd	a3,-288(s0)
 22c:	00e80733          	add	a4,a6,a4
 230:	002d0683          	lb	a3,2(s10)
 234:	e83d0283          	lb	t0,-381(s10)
 238:	f43d0883          	lb	a7,-189(s10)
 23c:	01470a33          	add	s4,a4,s4
 240:	ed443823          	sd	s4,-304(s0)
 244:	f4843e83          	ld	t4,-184(s0)
 248:	00de8eb3          	add	t4,t4,a3
 24c:	01d70733          	add	a4,a4,t4
 250:	f4e43423          	sd	a4,-184(s0)
 254:	00588733          	add	a4,a7,t0
 258:	003d0283          	lb	t0,3(s10)
 25c:	e84d0303          	lb	t1,-380(s10)
 260:	f44d0383          	lb	t2,-188(s10)
 264:	00f707b3          	add	a5,a4,a5
 268:	f4f43023          	sd	a5,-192(s0)
 26c:	005080b3          	add	ra,ra,t0
 270:	001707b3          	add	a5,a4,ra
 274:	00638333          	add	t1,t2,t1
 278:	004d0f03          	lb	t5,4(s10)
 27c:	e85d0703          	lb	a4,-379(s10)
 280:	f45d0e03          	lb	t3,-187(s10)
 284:	01530ab3          	add	s5,t1,s5
 288:	f3543c23          	sd	s5,-200(s0)
 28c:	01e980b3          	add	ra,s3,t5
 290:	00130a33          	add	s4,t1,ra
 294:	00ee0333          	add	t1,t3,a4
 298:	005d0483          	lb	s1,5(s10)
 29c:	e86d0083          	lb	ra,-378(s10)
 2a0:	000f8a93          	mv	s5,t6
 2a4:	f46d0f83          	lb	t6,-186(s10)
 2a8:	01630b33          	add	s6,t1,s6
 2ac:	f8043703          	ld	a4,-128(s0)
 2b0:	00970733          	add	a4,a4,s1
 2b4:	00e30733          	add	a4,t1,a4
 2b8:	f8e43023          	sd	a4,-128(s0)
 2bc:	001f80b3          	add	ra,t6,ra
 2c0:	006d0983          	lb	s3,6(s10)
 2c4:	01708bb3          	add	s7,ra,s7
 2c8:	e87d0703          	lb	a4,-377(s10)
 2cc:	f47d0e83          	lb	t4,-185(s10)
 2d0:	f6043303          	ld	t1,-160(s0)
 2d4:	01330333          	add	t1,t1,s3
 2d8:	007d0903          	lb	s2,7(s10)
 2dc:	00608333          	add	t1,ra,t1
 2e0:	f6643023          	sd	t1,-160(s0)
 2e4:	00ee8733          	add	a4,t4,a4
 2e8:	01870c33          	add	s8,a4,s8
 2ec:	f5843303          	ld	t1,-168(s0)
 2f0:	01230333          	add	t1,t1,s2
 2f4:	0c0d0083          	lb	ra,192(s10)
 2f8:	00670733          	add	a4,a4,t1
 2fc:	f4e43c23          	sd	a4,-168(s0)
 300:	00cd8633          	add	a2,s11,a2
 304:	0c1d0703          	lb	a4,193(s10)
 308:	f9043303          	ld	t1,-112(s0)
 30c:	00130333          	add	t1,t1,ra
 310:	00660633          	add	a2,a2,t1
 314:	f8c43823          	sd	a2,-112(s0)
 318:	00a58533          	add	a0,a1,a0
 31c:	f7843603          	ld	a2,-136(s0)
 320:	00e60633          	add	a2,a2,a4
 324:	0c2d0303          	lb	t1,194(s10)
 328:	00c50533          	add	a0,a0,a2
 32c:	f6a43c23          	sd	a0,-136(s0)
 330:	01068833          	add	a6,a3,a6
 334:	0c3d0503          	lb	a0,195(s10)
 338:	f5043603          	ld	a2,-176(s0)
 33c:	00660633          	add	a2,a2,t1
 340:	00c80633          	add	a2,a6,a2
 344:	f4c43823          	sd	a2,-176(s0)
 348:	011288b3          	add	a7,t0,a7
 34c:	f7043603          	ld	a2,-144(s0)
 350:	00a60633          	add	a2,a2,a0
 354:	0c4d0803          	lb	a6,196(s10)
 358:	00c88633          	add	a2,a7,a2
 35c:	f6c43823          	sd	a2,-144(s0)
 360:	007f03b3          	add	t2,t5,t2
 364:	0c5d0603          	lb	a2,197(s10)
 368:	f8843883          	ld	a7,-120(s0)
 36c:	010888b3          	add	a7,a7,a6
 370:	011388b3          	add	a7,t2,a7
 374:	f9143423          	sd	a7,-120(s0)
 378:	01c48e33          	add	t3,s1,t3
 37c:	f6843883          	ld	a7,-152(s0)
 380:	00c888b3          	add	a7,a7,a2
 384:	0c6d0383          	lb	t2,198(s10)
 388:	011e08b3          	add	a7,t3,a7
 38c:	f7143423          	sd	a7,-152(s0)
 390:	01f98fb3          	add	t6,s3,t6
 394:	0c7d0883          	lb	a7,199(s10)
 398:	007a8e33          	add	t3,s5,t2
 39c:	ed843a83          	ld	s5,-296(s0)
 3a0:	01cf8fb3          	add	t6,t6,t3
 3a4:	01d90eb3          	add	t4,s2,t4
 3a8:	ec843e03          	ld	t3,-312(s0)
 3ac:	011e0e33          	add	t3,t3,a7
 3b0:	01ce8eb3          	add	t4,t4,t3
 3b4:	01b08db3          	add	s11,ra,s11
 3b8:	00078093          	mv	ra,a5
 3bc:	00b705b3          	add	a1,a4,a1
 3c0:	00d306b3          	add	a3,t1,a3
 3c4:	00550533          	add	a0,a0,t0
 3c8:	01e80833          	add	a6,a6,t5
 3cc:	00960633          	add	a2,a2,s1
 3d0:	ee043483          	ld	s1,-288(s0)
 3d4:	180d0703          	lb	a4,384(s10)
 3d8:	013383b3          	add	t2,t2,s3
 3dc:	000a0993          	mv	s3,s4
 3e0:	ed043a03          	ld	s4,-304(s0)
 3e4:	012888b3          	add	a7,a7,s2
 3e8:	ef043903          	ld	s2,-272(s0)
 3ec:	181d0283          	lb	t0,385(s10)
 3f0:	f1843783          	ld	a5,-232(s0)
 3f4:	00e78733          	add	a4,a5,a4
 3f8:	00ed8db3          	add	s11,s11,a4
 3fc:	182d0703          	lb	a4,386(s10)
 400:	ef843783          	ld	a5,-264(s0)
 404:	005782b3          	add	t0,a5,t0
 408:	005582b3          	add	t0,a1,t0
 40c:	183d0583          	lb	a1,387(s10)
 410:	f3043783          	ld	a5,-208(s0)
 414:	00e78733          	add	a4,a5,a4
 418:	00e687b3          	add	a5,a3,a4
 41c:	184d0683          	lb	a3,388(s10)
 420:	f2843703          	ld	a4,-216(s0)
 424:	00b705b3          	add	a1,a4,a1
 428:	00b50733          	add	a4,a0,a1
 42c:	185d0503          	lb	a0,389(s10)
 430:	f0843583          	ld	a1,-248(s0)
 434:	00d586b3          	add	a3,a1,a3
 438:	00d80333          	add	t1,a6,a3
 43c:	ec043803          	ld	a6,-320(s0)
 440:	186d0583          	lb	a1,390(s10)
 444:	ee843683          	ld	a3,-280(s0)
 448:	00a68533          	add	a0,a3,a0
 44c:	187d0683          	lb	a3,391(s10)
 450:	00a60f33          	add	t5,a2,a0
 454:	f1043503          	ld	a0,-240(s0)
 458:	00b505b3          	add	a1,a0,a1
 45c:	00b383b3          	add	t2,t2,a1
 460:	f0043503          	ld	a0,-256(s0)
 464:	00d506b3          	add	a3,a0,a3
 468:	00d88e33          	add	t3,a7,a3
 46c:	f2043883          	ld	a7,-224(s0)
 470:	001c8c93          	addi	s9,s9,1
 474:	010d0d33          	add	s10,s10,a6
 478:	ce0c9ce3          	bnez	s9,170 <.LBB38_4>
 47c:	eb043603          	ld	a2,-336(s0)
 480:	00261513          	slli	a0,a2,0x2
 484:	ea843583          	ld	a1,-344(s0)
 488:	00a585b3          	add	a1,a1,a0
 48c:	0145a423          	sw	s4,8(a1)
 490:	0125a223          	sw	s2,4(a1)
 494:	0155a023          	sw	s5,0(a1)
 498:	f4043683          	ld	a3,-192(s0)
 49c:	00d5a623          	sw	a3,12(a1)
 4a0:	f3843683          	ld	a3,-200(s0)
 4a4:	00d5a823          	sw	a3,16(a1)
 4a8:	0165aa23          	sw	s6,20(a1)
 4ac:	0175ac23          	sw	s7,24(a1)
 4b0:	0185ae23          	sw	s8,28(a1)
 4b4:	ea043583          	ld	a1,-352(s0)
 4b8:	00a585b3          	add	a1,a1,a0
 4bc:	f4843683          	ld	a3,-184(s0)
 4c0:	00d5a423          	sw	a3,8(a1)
 4c4:	0095a223          	sw	s1,4(a1)
 4c8:	0115a023          	sw	a7,0(a1)
 4cc:	0015a623          	sw	ra,12(a1)
 4d0:	0135a823          	sw	s3,16(a1)
 4d4:	f8043683          	ld	a3,-128(s0)
 4d8:	00d5aa23          	sw	a3,20(a1)
 4dc:	f6043683          	ld	a3,-160(s0)
 4e0:	00d5ac23          	sw	a3,24(a1)
 4e4:	f5843683          	ld	a3,-168(s0)
 4e8:	00d5ae23          	sw	a3,28(a1)
 4ec:	e9843583          	ld	a1,-360(s0)
 4f0:	00a585b3          	add	a1,a1,a0
 4f4:	f5043683          	ld	a3,-176(s0)
 4f8:	00d5a423          	sw	a3,8(a1)
 4fc:	f7843683          	ld	a3,-136(s0)
 500:	00d5a223          	sw	a3,4(a1)
 504:	f9043683          	ld	a3,-112(s0)
 508:	00d5a023          	sw	a3,0(a1)
 50c:	f7043683          	ld	a3,-144(s0)
 510:	00d5a623          	sw	a3,12(a1)
 514:	f8843683          	ld	a3,-120(s0)
 518:	00d5a823          	sw	a3,16(a1)
 51c:	f6843683          	ld	a3,-152(s0)
 520:	00d5aa23          	sw	a3,20(a1)
 524:	01f5ac23          	sw	t6,24(a1)
 528:	01d5ae23          	sw	t4,28(a1)
 52c:	e9043583          	ld	a1,-368(s0)
 530:	00a58533          	add	a0,a1,a0
 534:	00f52423          	sw	a5,8(a0)
 538:	00552223          	sw	t0,4(a0)
 53c:	01b52023          	sw	s11,0(a0)
 540:	00e52623          	sw	a4,12(a0)
 544:	00652823          	sw	t1,16(a0)
 548:	01e52a23          	sw	t5,20(a0)
 54c:	00752c23          	sw	t2,24(a0)
 550:	01c52e23          	sw	t3,28(a0)
 554:	00860513          	addi	a0,a2,8
 558:	eb843d03          	ld	s10,-328(s0)
 55c:	008d0d13          	addi	s10,s10,8
 560:	0b800593          	li	a1,184
 564:	b8b660e3          	bltu	a2,a1,e4 <.LBB38_3>
 568:	e8043603          	ld	a2,-384(s0)
 56c:	00460593          	addi	a1,a2,4
 570:	e8843d03          	ld	s10,-376(s0)
 574:	300d0d13          	addi	s10,s10,768
 578:	01800513          	li	a0,24
 57c:	b2a664e3          	bltu	a2,a0,a4 <.LBB38_2>
 580:	e7043703          	ld	a4,-400(s0)
 584:	00170713          	addi	a4,a4,1
 588:	e6843d03          	ld	s10,-408(s0)
 58c:	010d0d33          	add	s10,s10,a6
 590:	01c00513          	li	a0,28
 594:	aea718e3          	bne	a4,a0,84 <.LBB38_1>
 598:	00000513          	li	a0,0
 59c:	1a813083          	ld	ra,424(sp)
 5a0:	1a013403          	ld	s0,416(sp)
 5a4:	19813483          	ld	s1,408(sp)
 5a8:	19013903          	ld	s2,400(sp)
 5ac:	18813983          	ld	s3,392(sp)
 5b0:	18013a03          	ld	s4,384(sp)
 5b4:	17813a83          	ld	s5,376(sp)
 5b8:	17013b03          	ld	s6,368(sp)
 5bc:	16813b83          	ld	s7,360(sp)
 5c0:	16013c03          	ld	s8,352(sp)
 5c4:	15813c83          	ld	s9,344(sp)
 5c8:	15013d03          	ld	s10,336(sp)
 5cc:	14813d83          	ld	s11,328(sp)
 5d0:	1b010113          	addi	sp,sp,432
 5d4:	00008067          	ret
