
code.o:     file format elf64-littleriscv


Disassembly of section .text.main_dispatch_49_matmul_784x32x192_i8xi8xi32:

0000000000000000 <main_dispatch_49_matmul_784x32x192_i8xi8xi32>:
       0:	f1501173          	csrrw	sp,0xf15,zero

0000000000000004 <.Lfunc_begin45>:
       4:	81010113          	addi	sp,sp,-2032
       8:	7e113423          	sd	ra,2024(sp)
       c:	7e813023          	sd	s0,2016(sp)
      10:	7c913c23          	sd	s1,2008(sp)
      14:	7d213823          	sd	s2,2000(sp)
      18:	7d313423          	sd	s3,1992(sp)
      1c:	7d413023          	sd	s4,1984(sp)
      20:	7b513c23          	sd	s5,1976(sp)
      24:	7b613823          	sd	s6,1968(sp)
      28:	7b713423          	sd	s7,1960(sp)
      2c:	7b813023          	sd	s8,1952(sp)
      30:	79913c23          	sd	s9,1944(sp)
      34:	79a13823          	sd	s10,1936(sp)
      38:	79b13423          	sd	s11,1928(sp)
      3c:	7f010413          	addi	s0,sp,2032
      40:	00002537          	lui	a0,0x2
      44:	8405051b          	addiw	a0,a0,-1984 # 1840 <.LBB45_3+0x328>
      48:	40a10133          	sub	sp,sp,a0
      4c:	0205b503          	ld	a0,32(a1)
      50:	00000593          	li	a1,0
      54:	00853603          	ld	a2,8(a0)
      58:	00053683          	ld	a3,0(a0)
      5c:	0002e737          	lui	a4,0x2e
      60:	8007071b          	addiw	a4,a4,-2048 # 2d800 <.Lfunc_end80+0x4e34>
      64:	00e60733          	add	a4,a2,a4
      68:	000027b7          	lui	a5,0x2
      6c:	40f407b3          	sub	a5,s0,a5
      70:	00e7b423          	sd	a4,8(a5) # 2008 <.LBB45_3+0xaf0>
      74:	0002c737          	lui	a4,0x2c
      78:	00e60633          	add	a2,a2,a4
      7c:	000027b7          	lui	a5,0x2
      80:	40f407b3          	sub	a5,s0,a5
      84:	00c7b023          	sd	a2,0(a5) # 2000 <.LBB45_3+0xae8>
      88:	a407061b          	addiw	a2,a4,-1472 # 2ba40 <.Lfunc_end80+0x3074>
      8c:	00c68633          	add	a2,a3,a2
      90:	00002737          	lui	a4,0x2
      94:	40e40733          	sub	a4,s0,a4
      98:	fec73c23          	sd	a2,-8(a4) # 1ff8 <.LBB45_3+0xae0>
      9c:	01053503          	ld	a0,16(a0)
      a0:	00002637          	lui	a2,0x2
      a4:	40c40633          	sub	a2,s0,a2
      a8:	fea63823          	sd	a0,-16(a2) # 1ff0 <.LBB45_3+0xad8>

00000000000000ac <.Lpcrel_hi8>:
      ac:	00000517          	auipc	a0,0x0
      b0:	00050513          	mv	a0,a0
      b4:	07c52603          	lw	a2,124(a0) # 128 <.Lpcrel_hi8+0x7c>
      b8:	00001737          	lui	a4,0x1
      bc:	40e40733          	sub	a4,s0,a4
      c0:	66c73423          	sd	a2,1640(a4) # 1668 <.LBB45_3+0x150>
      c4:	07852603          	lw	a2,120(a0)
      c8:	00001737          	lui	a4,0x1
      cc:	40e40733          	sub	a4,s0,a4
      d0:	66c73023          	sd	a2,1632(a4) # 1660 <.LBB45_3+0x148>
      d4:	07452603          	lw	a2,116(a0)
      d8:	00001737          	lui	a4,0x1
      dc:	40e40733          	sub	a4,s0,a4
      e0:	64c73c23          	sd	a2,1624(a4) # 1658 <.LBB45_3+0x140>
      e4:	07052603          	lw	a2,112(a0)
      e8:	00001737          	lui	a4,0x1
      ec:	40e40733          	sub	a4,s0,a4
      f0:	64c73823          	sd	a2,1616(a4) # 1650 <.LBB45_3+0x138>
      f4:	06c52603          	lw	a2,108(a0)
      f8:	00001737          	lui	a4,0x1
      fc:	40e40733          	sub	a4,s0,a4
     100:	64c73423          	sd	a2,1608(a4) # 1648 <.LBB45_3+0x130>
     104:	06852603          	lw	a2,104(a0)
     108:	00001737          	lui	a4,0x1
     10c:	40e40733          	sub	a4,s0,a4
     110:	64c73023          	sd	a2,1600(a4) # 1640 <.LBB45_3+0x128>
     114:	06452603          	lw	a2,100(a0)
     118:	00001737          	lui	a4,0x1
     11c:	40e40733          	sub	a4,s0,a4
     120:	62c73c23          	sd	a2,1592(a4) # 1638 <.LBB45_3+0x120>
     124:	06052603          	lw	a2,96(a0)
     128:	00001737          	lui	a4,0x1
     12c:	40e40733          	sub	a4,s0,a4
     130:	62c73823          	sd	a2,1584(a4) # 1630 <.LBB45_3+0x118>
     134:	05c52603          	lw	a2,92(a0)
     138:	00001737          	lui	a4,0x1
     13c:	40e40733          	sub	a4,s0,a4
     140:	62c73423          	sd	a2,1576(a4) # 1628 <.LBB45_3+0x110>
     144:	05852603          	lw	a2,88(a0)
     148:	00001737          	lui	a4,0x1
     14c:	40e40733          	sub	a4,s0,a4
     150:	62c73023          	sd	a2,1568(a4) # 1620 <.LBB45_3+0x108>
     154:	05452603          	lw	a2,84(a0)
     158:	00001737          	lui	a4,0x1
     15c:	40e40733          	sub	a4,s0,a4
     160:	60c73c23          	sd	a2,1560(a4) # 1618 <.LBB45_3+0x100>
     164:	05052603          	lw	a2,80(a0)
     168:	00001737          	lui	a4,0x1
     16c:	40e40733          	sub	a4,s0,a4
     170:	60c73823          	sd	a2,1552(a4) # 1610 <.LBB45_3+0xf8>
     174:	04c52603          	lw	a2,76(a0)
     178:	00001737          	lui	a4,0x1
     17c:	40e40733          	sub	a4,s0,a4
     180:	60c73423          	sd	a2,1544(a4) # 1608 <.LBB45_3+0xf0>
     184:	04852603          	lw	a2,72(a0)
     188:	00001737          	lui	a4,0x1
     18c:	40e40733          	sub	a4,s0,a4
     190:	60c73023          	sd	a2,1536(a4) # 1600 <.LBB45_3+0xe8>
     194:	04452603          	lw	a2,68(a0)
     198:	00001737          	lui	a4,0x1
     19c:	40e40733          	sub	a4,s0,a4
     1a0:	5ec73c23          	sd	a2,1528(a4) # 15f8 <.LBB45_3+0xe0>
     1a4:	04052603          	lw	a2,64(a0)
     1a8:	00001737          	lui	a4,0x1
     1ac:	40e40733          	sub	a4,s0,a4
     1b0:	5ec73823          	sd	a2,1520(a4) # 15f0 <.LBB45_3+0xd8>
     1b4:	03c52603          	lw	a2,60(a0)
     1b8:	00001737          	lui	a4,0x1
     1bc:	40e40733          	sub	a4,s0,a4
     1c0:	5ec73423          	sd	a2,1512(a4) # 15e8 <.LBB45_3+0xd0>
     1c4:	03852603          	lw	a2,56(a0)
     1c8:	00001737          	lui	a4,0x1
     1cc:	40e40733          	sub	a4,s0,a4
     1d0:	5ec73023          	sd	a2,1504(a4) # 15e0 <.LBB45_3+0xc8>
     1d4:	03452603          	lw	a2,52(a0)
     1d8:	00001737          	lui	a4,0x1
     1dc:	40e40733          	sub	a4,s0,a4
     1e0:	5cc73c23          	sd	a2,1496(a4) # 15d8 <.LBB45_3+0xc0>
     1e4:	00032637          	lui	a2,0x32
     1e8:	c406061b          	addiw	a2,a2,-960 # 31c40 <.Lfunc_end80+0x9274>
     1ec:	00c68633          	add	a2,a3,a2
     1f0:	03052683          	lw	a3,48(a0)
     1f4:	00001737          	lui	a4,0x1
     1f8:	40e40733          	sub	a4,s0,a4
     1fc:	5cd73823          	sd	a3,1488(a4) # 15d0 <.LBB45_3+0xb8>
     200:	02c52683          	lw	a3,44(a0)
     204:	00001737          	lui	a4,0x1
     208:	40e40733          	sub	a4,s0,a4
     20c:	5cd73423          	sd	a3,1480(a4) # 15c8 <.LBB45_3+0xb0>
     210:	02852683          	lw	a3,40(a0)
     214:	00001737          	lui	a4,0x1
     218:	40e40733          	sub	a4,s0,a4
     21c:	5cd73023          	sd	a3,1472(a4) # 15c0 <.LBB45_3+0xa8>
     220:	02452683          	lw	a3,36(a0)
     224:	00001737          	lui	a4,0x1
     228:	40e40733          	sub	a4,s0,a4
     22c:	5ad73c23          	sd	a3,1464(a4) # 15b8 <.LBB45_3+0xa0>
     230:	02052683          	lw	a3,32(a0)
     234:	00001737          	lui	a4,0x1
     238:	40e40733          	sub	a4,s0,a4
     23c:	5ad73823          	sd	a3,1456(a4) # 15b0 <.LBB45_3+0x98>
     240:	01c52683          	lw	a3,28(a0)
     244:	00001737          	lui	a4,0x1
     248:	40e40733          	sub	a4,s0,a4
     24c:	5ad73423          	sd	a3,1448(a4) # 15a8 <.LBB45_3+0x90>
     250:	01852683          	lw	a3,24(a0)
     254:	00001737          	lui	a4,0x1
     258:	40e40733          	sub	a4,s0,a4
     25c:	5ad73023          	sd	a3,1440(a4) # 15a0 <.LBB45_3+0x88>
     260:	01452683          	lw	a3,20(a0)
     264:	00001737          	lui	a4,0x1
     268:	40e40733          	sub	a4,s0,a4
     26c:	58d73c23          	sd	a3,1432(a4) # 1598 <.LBB45_3+0x80>
     270:	01052683          	lw	a3,16(a0)
     274:	00001737          	lui	a4,0x1
     278:	40e40733          	sub	a4,s0,a4
     27c:	58d73823          	sd	a3,1424(a4) # 1590 <.LBB45_3+0x78>
     280:	00c52683          	lw	a3,12(a0)
     284:	00001737          	lui	a4,0x1
     288:	40e40733          	sub	a4,s0,a4
     28c:	58d73423          	sd	a3,1416(a4) # 1588 <.LBB45_3+0x70>
     290:	00852683          	lw	a3,8(a0)
     294:	00001737          	lui	a4,0x1
     298:	40e40733          	sub	a4,s0,a4
     29c:	58d73023          	sd	a3,1408(a4) # 1580 <.LBB45_3+0x68>
     2a0:	00452683          	lw	a3,4(a0)
     2a4:	00001737          	lui	a4,0x1
     2a8:	40e40733          	sub	a4,s0,a4
     2ac:	56d73c23          	sd	a3,1400(a4) # 1578 <.LBB45_3+0x60>
     2b0:	00052503          	lw	a0,0(a0)
     2b4:	000016b7          	lui	a3,0x1
     2b8:	40d406b3          	sub	a3,s0,a3
     2bc:	56a6b823          	sd	a0,1392(a3) # 1570 <.LBB45_3+0x58>
     2c0:	6d6ff537          	lui	a0,0x6d6ff
     2c4:	9715051b          	addiw	a0,a0,-1679 # 6d6fe971 <.Lfunc_end80+0x6d6d5fa5>
     2c8:	000026b7          	lui	a3,0x2
     2cc:	40d406b3          	sub	a3,s0,a3
     2d0:	fea6b423          	sd	a0,-24(a3) # 1fe8 <.LBB45_3+0xad0>
     2d4:	07f0b537          	lui	a0,0x7f0b
     2d8:	1255051b          	addiw	a0,a0,293 # 7f0b125 <.Lfunc_end80+0x7ee2759>
     2dc:	000026b7          	lui	a3,0x2
     2e0:	40d406b3          	sub	a3,s0,a3
     2e4:	fea6b023          	sd	a0,-32(a3) # 1fe0 <.LBB45_3+0xac8>
     2e8:	64352537          	lui	a0,0x64352
     2ec:	da95051b          	addiw	a0,a0,-599 # 64351da9 <.Lfunc_end80+0x643293dd>
     2f0:	000026b7          	lui	a3,0x2
     2f4:	40d406b3          	sub	a3,s0,a3
     2f8:	fca6bc23          	sd	a0,-40(a3) # 1fd8 <.LBB45_3+0xac0>
     2fc:	00300513          	li	a0,3
     300:	00b51513          	slli	a0,a0,0xb
     304:	000026b7          	lui	a3,0x2
     308:	40d406b3          	sub	a3,s0,a3
     30c:	fca6b823          	sd	a0,-48(a3) # 1fd0 <.LBB45_3+0xab8>
     310:	4610006f          	j	f70 <.LBB45_2>

0000000000000314 <.LBB45_1>:
     314:	8ed43823          	sd	a3,-1808(s0)
     318:	ffc48493          	addi	s1,s1,-4
     31c:	000026b7          	lui	a3,0x2
     320:	40d406b3          	sub	a3,s0,a3
     324:	ff06b683          	ld	a3,-16(a3) # 1ff0 <.LBB45_3+0xad8>
     328:	000018b7          	lui	a7,0x1
     32c:	411408b3          	sub	a7,s0,a7
     330:	f188b903          	ld	s2,-232(a7) # f18 <.LBB45_1+0xc04>
     334:	01268933          	add	s2,a3,s2
     338:	009900a3          	sb	s1,1(s2)
     33c:	ffc38393          	addi	t2,t2,-4
     340:	00790023          	sb	t2,0(s2)
     344:	e6843383          	ld	t2,-408(s0)
     348:	ffc38393          	addi	t2,t2,-4
     34c:	00790123          	sb	t2,2(s2)
     350:	e7843383          	ld	t2,-392(s0)
     354:	ffc38393          	addi	t2,t2,-4
     358:	007901a3          	sb	t2,3(s2)
     35c:	e8843383          	ld	t2,-376(s0)
     360:	ffc38393          	addi	t2,t2,-4
     364:	00790223          	sb	t2,4(s2)
     368:	e9843383          	ld	t2,-360(s0)
     36c:	ffc38393          	addi	t2,t2,-4
     370:	007902a3          	sb	t2,5(s2)
     374:	ea843383          	ld	t2,-344(s0)
     378:	ffc38393          	addi	t2,t2,-4
     37c:	00790323          	sb	t2,6(s2)
     380:	eb843383          	ld	t2,-328(s0)
     384:	ffc38393          	addi	t2,t2,-4
     388:	007903a3          	sb	t2,7(s2)
     38c:	ec843383          	ld	t2,-312(s0)
     390:	ffc38393          	addi	t2,t2,-4
     394:	00790423          	sb	t2,8(s2)
     398:	ed843383          	ld	t2,-296(s0)
     39c:	ffc38393          	addi	t2,t2,-4
     3a0:	007904a3          	sb	t2,9(s2)
     3a4:	ee843383          	ld	t2,-280(s0)
     3a8:	ffc38393          	addi	t2,t2,-4
     3ac:	00790523          	sb	t2,10(s2)
     3b0:	ef043383          	ld	t2,-272(s0)
     3b4:	ffc38393          	addi	t2,t2,-4
     3b8:	007905a3          	sb	t2,11(s2)
     3bc:	ef843383          	ld	t2,-264(s0)
     3c0:	ffc38393          	addi	t2,t2,-4
     3c4:	00790623          	sb	t2,12(s2)
     3c8:	f0043383          	ld	t2,-256(s0)
     3cc:	ffc38393          	addi	t2,t2,-4
     3d0:	007906a3          	sb	t2,13(s2)
     3d4:	f0843383          	ld	t2,-248(s0)
     3d8:	ffc38393          	addi	t2,t2,-4
     3dc:	00790723          	sb	t2,14(s2)
     3e0:	f1043383          	ld	t2,-240(s0)
     3e4:	ffc38393          	addi	t2,t2,-4
     3e8:	007907a3          	sb	t2,15(s2)
     3ec:	f1843383          	ld	t2,-232(s0)
     3f0:	ffc38393          	addi	t2,t2,-4
     3f4:	00790823          	sb	t2,16(s2)
     3f8:	f2043383          	ld	t2,-224(s0)
     3fc:	ffc38393          	addi	t2,t2,-4
     400:	007908a3          	sb	t2,17(s2)
     404:	f2843383          	ld	t2,-216(s0)
     408:	ffc38393          	addi	t2,t2,-4
     40c:	00790923          	sb	t2,18(s2)
     410:	f3043383          	ld	t2,-208(s0)
     414:	ffc38393          	addi	t2,t2,-4
     418:	007909a3          	sb	t2,19(s2)
     41c:	f3843383          	ld	t2,-200(s0)
     420:	ffc38393          	addi	t2,t2,-4
     424:	00790a23          	sb	t2,20(s2)
     428:	f4043383          	ld	t2,-192(s0)
     42c:	ffc38393          	addi	t2,t2,-4
     430:	00790aa3          	sb	t2,21(s2)
     434:	f4843383          	ld	t2,-184(s0)
     438:	ffc38393          	addi	t2,t2,-4
     43c:	00790b23          	sb	t2,22(s2)
     440:	f5043383          	ld	t2,-176(s0)
     444:	ffc38393          	addi	t2,t2,-4
     448:	00790ba3          	sb	t2,23(s2)
     44c:	f5843383          	ld	t2,-168(s0)
     450:	ffc38393          	addi	t2,t2,-4
     454:	00790c23          	sb	t2,24(s2)
     458:	f6043383          	ld	t2,-160(s0)
     45c:	ffc38393          	addi	t2,t2,-4
     460:	00790ca3          	sb	t2,25(s2)
     464:	f6843383          	ld	t2,-152(s0)
     468:	ffc38393          	addi	t2,t2,-4
     46c:	00790d23          	sb	t2,26(s2)
     470:	f7043383          	ld	t2,-144(s0)
     474:	ffc38393          	addi	t2,t2,-4
     478:	00790da3          	sb	t2,27(s2)
     47c:	f7843383          	ld	t2,-136(s0)
     480:	ffc38393          	addi	t2,t2,-4
     484:	00790e23          	sb	t2,28(s2)
     488:	f8043383          	ld	t2,-128(s0)
     48c:	ffc38393          	addi	t2,t2,-4
     490:	00790ea3          	sb	t2,29(s2)
     494:	f8843383          	ld	t2,-120(s0)
     498:	ffc38393          	addi	t2,t2,-4
     49c:	00790f23          	sb	t2,30(s2)
     4a0:	ffc28393          	addi	t2,t0,-4
     4a4:	00790fa3          	sb	t2,31(s2)
     4a8:	d5843383          	ld	t2,-680(s0)
     4ac:	ffc38393          	addi	t2,t2,-4
     4b0:	000018b7          	lui	a7,0x1
     4b4:	411408b3          	sub	a7,s0,a7
     4b8:	f208b483          	ld	s1,-224(a7) # f20 <.LBB45_1+0xc0c>
     4bc:	009684b3          	add	s1,a3,s1
     4c0:	007480a3          	sb	t2,1(s1)
     4c4:	d6843383          	ld	t2,-664(s0)
     4c8:	ffc38393          	addi	t2,t2,-4
     4cc:	00748023          	sb	t2,0(s1)
     4d0:	d7843383          	ld	t2,-648(s0)
     4d4:	ffc38393          	addi	t2,t2,-4
     4d8:	00748123          	sb	t2,2(s1)
     4dc:	d8843383          	ld	t2,-632(s0)
     4e0:	ffc38393          	addi	t2,t2,-4
     4e4:	007481a3          	sb	t2,3(s1)
     4e8:	d9843383          	ld	t2,-616(s0)
     4ec:	ffc38393          	addi	t2,t2,-4
     4f0:	00748223          	sb	t2,4(s1)
     4f4:	da843383          	ld	t2,-600(s0)
     4f8:	ffc38393          	addi	t2,t2,-4
     4fc:	007482a3          	sb	t2,5(s1)
     500:	db843383          	ld	t2,-584(s0)
     504:	ffc38393          	addi	t2,t2,-4
     508:	00748323          	sb	t2,6(s1)
     50c:	dc843383          	ld	t2,-568(s0)
     510:	ffc38393          	addi	t2,t2,-4
     514:	007483a3          	sb	t2,7(s1)
     518:	dd843383          	ld	t2,-552(s0)
     51c:	ffc38393          	addi	t2,t2,-4
     520:	00748423          	sb	t2,8(s1)
     524:	de843383          	ld	t2,-536(s0)
     528:	ffc38393          	addi	t2,t2,-4
     52c:	007484a3          	sb	t2,9(s1)
     530:	df843383          	ld	t2,-520(s0)
     534:	ffc38393          	addi	t2,t2,-4
     538:	00748523          	sb	t2,10(s1)
     53c:	e0043383          	ld	t2,-512(s0)
     540:	ffc38393          	addi	t2,t2,-4
     544:	007485a3          	sb	t2,11(s1)
     548:	e0843383          	ld	t2,-504(s0)
     54c:	ffc38393          	addi	t2,t2,-4
     550:	00748623          	sb	t2,12(s1)
     554:	e1043383          	ld	t2,-496(s0)
     558:	ffc38393          	addi	t2,t2,-4
     55c:	007486a3          	sb	t2,13(s1)
     560:	e1843383          	ld	t2,-488(s0)
     564:	ffc38393          	addi	t2,t2,-4
     568:	00748723          	sb	t2,14(s1)
     56c:	e2043383          	ld	t2,-480(s0)
     570:	ffc38393          	addi	t2,t2,-4
     574:	007487a3          	sb	t2,15(s1)
     578:	e2843383          	ld	t2,-472(s0)
     57c:	ffc38393          	addi	t2,t2,-4
     580:	00748823          	sb	t2,16(s1)
     584:	e3043383          	ld	t2,-464(s0)
     588:	ffc38393          	addi	t2,t2,-4
     58c:	007488a3          	sb	t2,17(s1)
     590:	e3843383          	ld	t2,-456(s0)
     594:	ffc38393          	addi	t2,t2,-4
     598:	00748923          	sb	t2,18(s1)
     59c:	e4043383          	ld	t2,-448(s0)
     5a0:	ffc38393          	addi	t2,t2,-4
     5a4:	007489a3          	sb	t2,19(s1)
     5a8:	e4843383          	ld	t2,-440(s0)
     5ac:	ffc38393          	addi	t2,t2,-4
     5b0:	00748a23          	sb	t2,20(s1)
     5b4:	e5043383          	ld	t2,-432(s0)
     5b8:	ffc38393          	addi	t2,t2,-4
     5bc:	00748aa3          	sb	t2,21(s1)
     5c0:	e5843383          	ld	t2,-424(s0)
     5c4:	ffc38393          	addi	t2,t2,-4
     5c8:	00748b23          	sb	t2,22(s1)
     5cc:	e6043383          	ld	t2,-416(s0)
     5d0:	ffc38393          	addi	t2,t2,-4
     5d4:	00748ba3          	sb	t2,23(s1)
     5d8:	e7043383          	ld	t2,-400(s0)
     5dc:	ffc38393          	addi	t2,t2,-4
     5e0:	00748c23          	sb	t2,24(s1)
     5e4:	e8043383          	ld	t2,-384(s0)
     5e8:	ffc38393          	addi	t2,t2,-4
     5ec:	00748ca3          	sb	t2,25(s1)
     5f0:	e9043383          	ld	t2,-368(s0)
     5f4:	ffc38393          	addi	t2,t2,-4
     5f8:	00748d23          	sb	t2,26(s1)
     5fc:	ea043383          	ld	t2,-352(s0)
     600:	ffc38393          	addi	t2,t2,-4
     604:	00748da3          	sb	t2,27(s1)
     608:	eb043383          	ld	t2,-336(s0)
     60c:	ffc38393          	addi	t2,t2,-4
     610:	00748e23          	sb	t2,28(s1)
     614:	ec043383          	ld	t2,-320(s0)
     618:	ffc38393          	addi	t2,t2,-4
     61c:	00748ea3          	sb	t2,29(s1)
     620:	ed043383          	ld	t2,-304(s0)
     624:	ffc38393          	addi	t2,t2,-4
     628:	00748f23          	sb	t2,30(s1)
     62c:	ee043383          	ld	t2,-288(s0)
     630:	ffc38393          	addi	t2,t2,-4
     634:	00748fa3          	sb	t2,31(s1)
     638:	c5843383          	ld	t2,-936(s0)
     63c:	ffc38393          	addi	t2,t2,-4
     640:	000018b7          	lui	a7,0x1
     644:	411408b3          	sub	a7,s0,a7
     648:	f288b483          	ld	s1,-216(a7) # f28 <.LBB45_1+0xc14>
     64c:	009684b3          	add	s1,a3,s1
     650:	007480a3          	sb	t2,1(s1)
     654:	c6843383          	ld	t2,-920(s0)
     658:	ffc38393          	addi	t2,t2,-4
     65c:	00748023          	sb	t2,0(s1)
     660:	c7843383          	ld	t2,-904(s0)
     664:	ffc38393          	addi	t2,t2,-4
     668:	00748123          	sb	t2,2(s1)
     66c:	c8843383          	ld	t2,-888(s0)
     670:	ffc38393          	addi	t2,t2,-4
     674:	007481a3          	sb	t2,3(s1)
     678:	c9843383          	ld	t2,-872(s0)
     67c:	ffc38393          	addi	t2,t2,-4
     680:	00748223          	sb	t2,4(s1)
     684:	ca843383          	ld	t2,-856(s0)
     688:	ffc38393          	addi	t2,t2,-4
     68c:	007482a3          	sb	t2,5(s1)
     690:	cb843383          	ld	t2,-840(s0)
     694:	ffc38393          	addi	t2,t2,-4
     698:	00748323          	sb	t2,6(s1)
     69c:	cc843383          	ld	t2,-824(s0)
     6a0:	ffc38393          	addi	t2,t2,-4
     6a4:	007483a3          	sb	t2,7(s1)
     6a8:	cd843383          	ld	t2,-808(s0)
     6ac:	ffc38393          	addi	t2,t2,-4
     6b0:	00748423          	sb	t2,8(s1)
     6b4:	ce843383          	ld	t2,-792(s0)
     6b8:	ffc38393          	addi	t2,t2,-4
     6bc:	007484a3          	sb	t2,9(s1)
     6c0:	cf843383          	ld	t2,-776(s0)
     6c4:	ffc38393          	addi	t2,t2,-4
     6c8:	00748523          	sb	t2,10(s1)
     6cc:	d0043383          	ld	t2,-768(s0)
     6d0:	ffc38393          	addi	t2,t2,-4
     6d4:	007485a3          	sb	t2,11(s1)
     6d8:	d0843383          	ld	t2,-760(s0)
     6dc:	ffc38393          	addi	t2,t2,-4
     6e0:	00748623          	sb	t2,12(s1)
     6e4:	d1043383          	ld	t2,-752(s0)
     6e8:	ffc38393          	addi	t2,t2,-4
     6ec:	007486a3          	sb	t2,13(s1)
     6f0:	d1843383          	ld	t2,-744(s0)
     6f4:	ffc38393          	addi	t2,t2,-4
     6f8:	00748723          	sb	t2,14(s1)
     6fc:	d2043383          	ld	t2,-736(s0)
     700:	ffc38393          	addi	t2,t2,-4
     704:	007487a3          	sb	t2,15(s1)
     708:	d2843383          	ld	t2,-728(s0)
     70c:	ffc38393          	addi	t2,t2,-4
     710:	00748823          	sb	t2,16(s1)
     714:	d3043383          	ld	t2,-720(s0)
     718:	ffc38393          	addi	t2,t2,-4
     71c:	007488a3          	sb	t2,17(s1)
     720:	d3843383          	ld	t2,-712(s0)
     724:	ffc38393          	addi	t2,t2,-4
     728:	00748923          	sb	t2,18(s1)
     72c:	d4043383          	ld	t2,-704(s0)
     730:	ffc38393          	addi	t2,t2,-4
     734:	007489a3          	sb	t2,19(s1)
     738:	d4843383          	ld	t2,-696(s0)
     73c:	ffc38393          	addi	t2,t2,-4
     740:	00748a23          	sb	t2,20(s1)
     744:	d5043383          	ld	t2,-688(s0)
     748:	ffc38393          	addi	t2,t2,-4
     74c:	00748aa3          	sb	t2,21(s1)
     750:	d6043383          	ld	t2,-672(s0)
     754:	ffc38393          	addi	t2,t2,-4
     758:	00748b23          	sb	t2,22(s1)
     75c:	d7043383          	ld	t2,-656(s0)
     760:	ffc38393          	addi	t2,t2,-4
     764:	00748ba3          	sb	t2,23(s1)
     768:	d8043383          	ld	t2,-640(s0)
     76c:	ffc38393          	addi	t2,t2,-4
     770:	00748c23          	sb	t2,24(s1)
     774:	d9043383          	ld	t2,-624(s0)
     778:	ffc38393          	addi	t2,t2,-4
     77c:	00748ca3          	sb	t2,25(s1)
     780:	da043383          	ld	t2,-608(s0)
     784:	ffc38393          	addi	t2,t2,-4
     788:	00748d23          	sb	t2,26(s1)
     78c:	db043383          	ld	t2,-592(s0)
     790:	ffc38393          	addi	t2,t2,-4
     794:	00748da3          	sb	t2,27(s1)
     798:	dc043383          	ld	t2,-576(s0)
     79c:	ffc38393          	addi	t2,t2,-4
     7a0:	00748e23          	sb	t2,28(s1)
     7a4:	dd043383          	ld	t2,-560(s0)
     7a8:	ffc38393          	addi	t2,t2,-4
     7ac:	00748ea3          	sb	t2,29(s1)
     7b0:	de043383          	ld	t2,-544(s0)
     7b4:	ffc38393          	addi	t2,t2,-4
     7b8:	00748f23          	sb	t2,30(s1)
     7bc:	df043383          	ld	t2,-528(s0)
     7c0:	ffc38393          	addi	t2,t2,-4
     7c4:	00748fa3          	sb	t2,31(s1)
     7c8:	b5843383          	ld	t2,-1192(s0)
     7cc:	ffc38393          	addi	t2,t2,-4
     7d0:	000018b7          	lui	a7,0x1
     7d4:	411408b3          	sub	a7,s0,a7
     7d8:	f308b483          	ld	s1,-208(a7) # f30 <.LBB45_1+0xc1c>
     7dc:	009684b3          	add	s1,a3,s1
     7e0:	007480a3          	sb	t2,1(s1)
     7e4:	b6843383          	ld	t2,-1176(s0)
     7e8:	ffc38393          	addi	t2,t2,-4
     7ec:	00748023          	sb	t2,0(s1)
     7f0:	b7843383          	ld	t2,-1160(s0)
     7f4:	ffc38393          	addi	t2,t2,-4
     7f8:	00748123          	sb	t2,2(s1)
     7fc:	b8843383          	ld	t2,-1144(s0)
     800:	ffc38393          	addi	t2,t2,-4
     804:	007481a3          	sb	t2,3(s1)
     808:	b9843383          	ld	t2,-1128(s0)
     80c:	ffc38393          	addi	t2,t2,-4
     810:	00748223          	sb	t2,4(s1)
     814:	ba843383          	ld	t2,-1112(s0)
     818:	ffc38393          	addi	t2,t2,-4
     81c:	007482a3          	sb	t2,5(s1)
     820:	bb843383          	ld	t2,-1096(s0)
     824:	ffc38393          	addi	t2,t2,-4
     828:	00748323          	sb	t2,6(s1)
     82c:	bc843383          	ld	t2,-1080(s0)
     830:	ffc38393          	addi	t2,t2,-4
     834:	007483a3          	sb	t2,7(s1)
     838:	bd843383          	ld	t2,-1064(s0)
     83c:	ffc38393          	addi	t2,t2,-4
     840:	00748423          	sb	t2,8(s1)
     844:	be843383          	ld	t2,-1048(s0)
     848:	ffc38393          	addi	t2,t2,-4
     84c:	007484a3          	sb	t2,9(s1)
     850:	bf843383          	ld	t2,-1032(s0)
     854:	ffc38393          	addi	t2,t2,-4
     858:	00748523          	sb	t2,10(s1)
     85c:	c0043383          	ld	t2,-1024(s0)
     860:	ffc38393          	addi	t2,t2,-4
     864:	007485a3          	sb	t2,11(s1)
     868:	c0843383          	ld	t2,-1016(s0)
     86c:	ffc38393          	addi	t2,t2,-4
     870:	00748623          	sb	t2,12(s1)
     874:	c1043383          	ld	t2,-1008(s0)
     878:	ffc38393          	addi	t2,t2,-4
     87c:	007486a3          	sb	t2,13(s1)
     880:	c1843383          	ld	t2,-1000(s0)
     884:	ffc38393          	addi	t2,t2,-4
     888:	00748723          	sb	t2,14(s1)
     88c:	c2043383          	ld	t2,-992(s0)
     890:	ffc38393          	addi	t2,t2,-4
     894:	007487a3          	sb	t2,15(s1)
     898:	c2843383          	ld	t2,-984(s0)
     89c:	ffc38393          	addi	t2,t2,-4
     8a0:	00748823          	sb	t2,16(s1)
     8a4:	c3043383          	ld	t2,-976(s0)
     8a8:	ffc38393          	addi	t2,t2,-4
     8ac:	007488a3          	sb	t2,17(s1)
     8b0:	c3843383          	ld	t2,-968(s0)
     8b4:	ffc38393          	addi	t2,t2,-4
     8b8:	00748923          	sb	t2,18(s1)
     8bc:	c4043383          	ld	t2,-960(s0)
     8c0:	ffc38393          	addi	t2,t2,-4
     8c4:	007489a3          	sb	t2,19(s1)
     8c8:	c4843383          	ld	t2,-952(s0)
     8cc:	ffc38393          	addi	t2,t2,-4
     8d0:	00748a23          	sb	t2,20(s1)
     8d4:	c5043383          	ld	t2,-944(s0)
     8d8:	ffc38393          	addi	t2,t2,-4
     8dc:	00748aa3          	sb	t2,21(s1)
     8e0:	c6043383          	ld	t2,-928(s0)
     8e4:	ffc38393          	addi	t2,t2,-4
     8e8:	00748b23          	sb	t2,22(s1)
     8ec:	c7043383          	ld	t2,-912(s0)
     8f0:	ffc38393          	addi	t2,t2,-4
     8f4:	00748ba3          	sb	t2,23(s1)
     8f8:	c8043383          	ld	t2,-896(s0)
     8fc:	ffc38393          	addi	t2,t2,-4
     900:	00748c23          	sb	t2,24(s1)
     904:	c9043383          	ld	t2,-880(s0)
     908:	ffc38393          	addi	t2,t2,-4
     90c:	00748ca3          	sb	t2,25(s1)
     910:	ca043383          	ld	t2,-864(s0)
     914:	ffc38393          	addi	t2,t2,-4
     918:	00748d23          	sb	t2,26(s1)
     91c:	cb043383          	ld	t2,-848(s0)
     920:	ffc38393          	addi	t2,t2,-4
     924:	00748da3          	sb	t2,27(s1)
     928:	cc043383          	ld	t2,-832(s0)
     92c:	ffc38393          	addi	t2,t2,-4
     930:	00748e23          	sb	t2,28(s1)
     934:	cd043383          	ld	t2,-816(s0)
     938:	ffc38393          	addi	t2,t2,-4
     93c:	00748ea3          	sb	t2,29(s1)
     940:	ce043383          	ld	t2,-800(s0)
     944:	ffc38393          	addi	t2,t2,-4
     948:	00748f23          	sb	t2,30(s1)
     94c:	cf043383          	ld	t2,-784(s0)
     950:	ffc38393          	addi	t2,t2,-4
     954:	00748fa3          	sb	t2,31(s1)
     958:	a5843383          	ld	t2,-1448(s0)
     95c:	ffc38393          	addi	t2,t2,-4
     960:	000018b7          	lui	a7,0x1
     964:	411408b3          	sub	a7,s0,a7
     968:	f388b483          	ld	s1,-200(a7) # f38 <.LBB45_1+0xc24>
     96c:	009684b3          	add	s1,a3,s1
     970:	007480a3          	sb	t2,1(s1)
     974:	a6843383          	ld	t2,-1432(s0)
     978:	ffc38393          	addi	t2,t2,-4
     97c:	00748023          	sb	t2,0(s1)
     980:	a7843383          	ld	t2,-1416(s0)
     984:	ffc38393          	addi	t2,t2,-4
     988:	00748123          	sb	t2,2(s1)
     98c:	a8843383          	ld	t2,-1400(s0)
     990:	ffc38393          	addi	t2,t2,-4
     994:	007481a3          	sb	t2,3(s1)
     998:	a9843383          	ld	t2,-1384(s0)
     99c:	ffc38393          	addi	t2,t2,-4
     9a0:	00748223          	sb	t2,4(s1)
     9a4:	aa843383          	ld	t2,-1368(s0)
     9a8:	ffc38393          	addi	t2,t2,-4
     9ac:	007482a3          	sb	t2,5(s1)
     9b0:	ab843383          	ld	t2,-1352(s0)
     9b4:	ffc38393          	addi	t2,t2,-4
     9b8:	00748323          	sb	t2,6(s1)
     9bc:	ac843383          	ld	t2,-1336(s0)
     9c0:	ffc38393          	addi	t2,t2,-4
     9c4:	007483a3          	sb	t2,7(s1)
     9c8:	ad843383          	ld	t2,-1320(s0)
     9cc:	ffc38393          	addi	t2,t2,-4
     9d0:	00748423          	sb	t2,8(s1)
     9d4:	ae843383          	ld	t2,-1304(s0)
     9d8:	ffc38393          	addi	t2,t2,-4
     9dc:	007484a3          	sb	t2,9(s1)
     9e0:	af843383          	ld	t2,-1288(s0)
     9e4:	ffc38393          	addi	t2,t2,-4
     9e8:	00748523          	sb	t2,10(s1)
     9ec:	b0043383          	ld	t2,-1280(s0)
     9f0:	ffc38393          	addi	t2,t2,-4
     9f4:	007485a3          	sb	t2,11(s1)
     9f8:	b0843383          	ld	t2,-1272(s0)
     9fc:	ffc38393          	addi	t2,t2,-4
     a00:	00748623          	sb	t2,12(s1)
     a04:	b1043383          	ld	t2,-1264(s0)
     a08:	ffc38393          	addi	t2,t2,-4
     a0c:	007486a3          	sb	t2,13(s1)
     a10:	b1843383          	ld	t2,-1256(s0)
     a14:	ffc38393          	addi	t2,t2,-4
     a18:	00748723          	sb	t2,14(s1)
     a1c:	b2043383          	ld	t2,-1248(s0)
     a20:	ffc38393          	addi	t2,t2,-4
     a24:	007487a3          	sb	t2,15(s1)
     a28:	b2843383          	ld	t2,-1240(s0)
     a2c:	ffc38393          	addi	t2,t2,-4
     a30:	00748823          	sb	t2,16(s1)
     a34:	b3043383          	ld	t2,-1232(s0)
     a38:	ffc38393          	addi	t2,t2,-4
     a3c:	007488a3          	sb	t2,17(s1)
     a40:	b3843383          	ld	t2,-1224(s0)
     a44:	ffc38393          	addi	t2,t2,-4
     a48:	00748923          	sb	t2,18(s1)
     a4c:	b4043383          	ld	t2,-1216(s0)
     a50:	ffc38393          	addi	t2,t2,-4
     a54:	007489a3          	sb	t2,19(s1)
     a58:	b4843383          	ld	t2,-1208(s0)
     a5c:	ffc38393          	addi	t2,t2,-4
     a60:	00748a23          	sb	t2,20(s1)
     a64:	b5043383          	ld	t2,-1200(s0)
     a68:	ffc38393          	addi	t2,t2,-4
     a6c:	00748aa3          	sb	t2,21(s1)
     a70:	b6043383          	ld	t2,-1184(s0)
     a74:	ffc38393          	addi	t2,t2,-4
     a78:	00748b23          	sb	t2,22(s1)
     a7c:	b7043383          	ld	t2,-1168(s0)
     a80:	ffc38393          	addi	t2,t2,-4
     a84:	00748ba3          	sb	t2,23(s1)
     a88:	b8043383          	ld	t2,-1152(s0)
     a8c:	ffc38393          	addi	t2,t2,-4
     a90:	00748c23          	sb	t2,24(s1)
     a94:	b9043383          	ld	t2,-1136(s0)
     a98:	ffc38393          	addi	t2,t2,-4
     a9c:	00748ca3          	sb	t2,25(s1)
     aa0:	ba043383          	ld	t2,-1120(s0)
     aa4:	ffc38393          	addi	t2,t2,-4
     aa8:	00748d23          	sb	t2,26(s1)
     aac:	bb043383          	ld	t2,-1104(s0)
     ab0:	ffc38393          	addi	t2,t2,-4
     ab4:	00748da3          	sb	t2,27(s1)
     ab8:	bc043383          	ld	t2,-1088(s0)
     abc:	ffc38393          	addi	t2,t2,-4
     ac0:	00748e23          	sb	t2,28(s1)
     ac4:	bd043383          	ld	t2,-1072(s0)
     ac8:	ffc38393          	addi	t2,t2,-4
     acc:	00748ea3          	sb	t2,29(s1)
     ad0:	be043383          	ld	t2,-1056(s0)
     ad4:	ffc38393          	addi	t2,t2,-4
     ad8:	00748f23          	sb	t2,30(s1)
     adc:	bf043383          	ld	t2,-1040(s0)
     ae0:	ffc38393          	addi	t2,t2,-4
     ae4:	00748fa3          	sb	t2,31(s1)
     ae8:	95843383          	ld	t2,-1704(s0)
     aec:	ffc38393          	addi	t2,t2,-4
     af0:	000018b7          	lui	a7,0x1
     af4:	411408b3          	sub	a7,s0,a7
     af8:	f408b483          	ld	s1,-192(a7) # f40 <.LBB45_1+0xc2c>
     afc:	009684b3          	add	s1,a3,s1
     b00:	007480a3          	sb	t2,1(s1)
     b04:	96843383          	ld	t2,-1688(s0)
     b08:	ffc38393          	addi	t2,t2,-4
     b0c:	00748023          	sb	t2,0(s1)
     b10:	97843383          	ld	t2,-1672(s0)
     b14:	ffc38393          	addi	t2,t2,-4
     b18:	00748123          	sb	t2,2(s1)
     b1c:	98843383          	ld	t2,-1656(s0)
     b20:	ffc38393          	addi	t2,t2,-4
     b24:	007481a3          	sb	t2,3(s1)
     b28:	99843383          	ld	t2,-1640(s0)
     b2c:	ffc38393          	addi	t2,t2,-4
     b30:	00748223          	sb	t2,4(s1)
     b34:	9a843383          	ld	t2,-1624(s0)
     b38:	ffc38393          	addi	t2,t2,-4
     b3c:	007482a3          	sb	t2,5(s1)
     b40:	9b843383          	ld	t2,-1608(s0)
     b44:	ffc38393          	addi	t2,t2,-4
     b48:	00748323          	sb	t2,6(s1)
     b4c:	9c843383          	ld	t2,-1592(s0)
     b50:	ffc38393          	addi	t2,t2,-4
     b54:	007483a3          	sb	t2,7(s1)
     b58:	9d843383          	ld	t2,-1576(s0)
     b5c:	ffc38393          	addi	t2,t2,-4
     b60:	00748423          	sb	t2,8(s1)
     b64:	9e843383          	ld	t2,-1560(s0)
     b68:	ffc38393          	addi	t2,t2,-4
     b6c:	007484a3          	sb	t2,9(s1)
     b70:	9f843383          	ld	t2,-1544(s0)
     b74:	ffc38393          	addi	t2,t2,-4
     b78:	00748523          	sb	t2,10(s1)
     b7c:	a0043383          	ld	t2,-1536(s0)
     b80:	ffc38393          	addi	t2,t2,-4
     b84:	007485a3          	sb	t2,11(s1)
     b88:	a0843383          	ld	t2,-1528(s0)
     b8c:	ffc38393          	addi	t2,t2,-4
     b90:	00748623          	sb	t2,12(s1)
     b94:	a1043383          	ld	t2,-1520(s0)
     b98:	ffc38393          	addi	t2,t2,-4
     b9c:	007486a3          	sb	t2,13(s1)
     ba0:	a1843383          	ld	t2,-1512(s0)
     ba4:	ffc38393          	addi	t2,t2,-4
     ba8:	00748723          	sb	t2,14(s1)
     bac:	a2043383          	ld	t2,-1504(s0)
     bb0:	ffc38393          	addi	t2,t2,-4
     bb4:	007487a3          	sb	t2,15(s1)
     bb8:	a2843383          	ld	t2,-1496(s0)
     bbc:	ffc38393          	addi	t2,t2,-4
     bc0:	00748823          	sb	t2,16(s1)
     bc4:	a3043383          	ld	t2,-1488(s0)
     bc8:	ffc38393          	addi	t2,t2,-4
     bcc:	007488a3          	sb	t2,17(s1)
     bd0:	a3843383          	ld	t2,-1480(s0)
     bd4:	ffc38393          	addi	t2,t2,-4
     bd8:	00748923          	sb	t2,18(s1)
     bdc:	a4043383          	ld	t2,-1472(s0)
     be0:	ffc38393          	addi	t2,t2,-4
     be4:	007489a3          	sb	t2,19(s1)
     be8:	a4843383          	ld	t2,-1464(s0)
     bec:	ffc38393          	addi	t2,t2,-4
     bf0:	00748a23          	sb	t2,20(s1)
     bf4:	a5043383          	ld	t2,-1456(s0)
     bf8:	ffc38393          	addi	t2,t2,-4
     bfc:	00748aa3          	sb	t2,21(s1)
     c00:	a6043383          	ld	t2,-1440(s0)
     c04:	ffc38393          	addi	t2,t2,-4
     c08:	00748b23          	sb	t2,22(s1)
     c0c:	a7043383          	ld	t2,-1424(s0)
     c10:	ffc38393          	addi	t2,t2,-4
     c14:	00748ba3          	sb	t2,23(s1)
     c18:	a8043383          	ld	t2,-1408(s0)
     c1c:	ffc38393          	addi	t2,t2,-4
     c20:	00748c23          	sb	t2,24(s1)
     c24:	a9043383          	ld	t2,-1392(s0)
     c28:	ffc38393          	addi	t2,t2,-4
     c2c:	00748ca3          	sb	t2,25(s1)
     c30:	aa043383          	ld	t2,-1376(s0)
     c34:	ffc38393          	addi	t2,t2,-4
     c38:	00748d23          	sb	t2,26(s1)
     c3c:	ab043383          	ld	t2,-1360(s0)
     c40:	ffc38393          	addi	t2,t2,-4
     c44:	00748da3          	sb	t2,27(s1)
     c48:	ac043383          	ld	t2,-1344(s0)
     c4c:	ffc38393          	addi	t2,t2,-4
     c50:	00748e23          	sb	t2,28(s1)
     c54:	ad043383          	ld	t2,-1328(s0)
     c58:	ffc38393          	addi	t2,t2,-4
     c5c:	00748ea3          	sb	t2,29(s1)
     c60:	ae043383          	ld	t2,-1312(s0)
     c64:	ffc38393          	addi	t2,t2,-4
     c68:	00748f23          	sb	t2,30(s1)
     c6c:	af043383          	ld	t2,-1296(s0)
     c70:	ffc38393          	addi	t2,t2,-4
     c74:	00748fa3          	sb	t2,31(s1)
     c78:	85843383          	ld	t2,-1960(s0)
     c7c:	ffc38393          	addi	t2,t2,-4
     c80:	000018b7          	lui	a7,0x1
     c84:	411408b3          	sub	a7,s0,a7
     c88:	f488b883          	ld	a7,-184(a7) # f48 <.LBB45_1+0xc34>
     c8c:	011688b3          	add	a7,a3,a7
     c90:	007880a3          	sb	t2,1(a7)
     c94:	86843383          	ld	t2,-1944(s0)
     c98:	ffc38393          	addi	t2,t2,-4
     c9c:	00788023          	sb	t2,0(a7)
     ca0:	87843383          	ld	t2,-1928(s0)
     ca4:	ffc38393          	addi	t2,t2,-4
     ca8:	00788123          	sb	t2,2(a7)
     cac:	88843383          	ld	t2,-1912(s0)
     cb0:	ffc38393          	addi	t2,t2,-4
     cb4:	007881a3          	sb	t2,3(a7)
     cb8:	89843383          	ld	t2,-1896(s0)
     cbc:	ffc38393          	addi	t2,t2,-4
     cc0:	00788223          	sb	t2,4(a7)
     cc4:	8a843383          	ld	t2,-1880(s0)
     cc8:	ffc38393          	addi	t2,t2,-4
     ccc:	007882a3          	sb	t2,5(a7)
     cd0:	8b843383          	ld	t2,-1864(s0)
     cd4:	ffc38393          	addi	t2,t2,-4
     cd8:	00788323          	sb	t2,6(a7)
     cdc:	8c843383          	ld	t2,-1848(s0)
     ce0:	ffc38393          	addi	t2,t2,-4
     ce4:	007883a3          	sb	t2,7(a7)
     ce8:	8d843383          	ld	t2,-1832(s0)
     cec:	ffc38393          	addi	t2,t2,-4
     cf0:	00788423          	sb	t2,8(a7)
     cf4:	8e843383          	ld	t2,-1816(s0)
     cf8:	ffc38393          	addi	t2,t2,-4
     cfc:	007884a3          	sb	t2,9(a7)
     d00:	8f843383          	ld	t2,-1800(s0)
     d04:	ffc38393          	addi	t2,t2,-4
     d08:	00788523          	sb	t2,10(a7)
     d0c:	90043383          	ld	t2,-1792(s0)
     d10:	ffc38393          	addi	t2,t2,-4
     d14:	007885a3          	sb	t2,11(a7)
     d18:	90843383          	ld	t2,-1784(s0)
     d1c:	ffc38393          	addi	t2,t2,-4
     d20:	00788623          	sb	t2,12(a7)
     d24:	91043383          	ld	t2,-1776(s0)
     d28:	ffc38393          	addi	t2,t2,-4
     d2c:	007886a3          	sb	t2,13(a7)
     d30:	91843383          	ld	t2,-1768(s0)
     d34:	ffc38393          	addi	t2,t2,-4
     d38:	00788723          	sb	t2,14(a7)
     d3c:	92043383          	ld	t2,-1760(s0)
     d40:	ffc38393          	addi	t2,t2,-4
     d44:	007887a3          	sb	t2,15(a7)
     d48:	92843383          	ld	t2,-1752(s0)
     d4c:	ffc38393          	addi	t2,t2,-4
     d50:	00788823          	sb	t2,16(a7)
     d54:	93043383          	ld	t2,-1744(s0)
     d58:	ffc38393          	addi	t2,t2,-4
     d5c:	007888a3          	sb	t2,17(a7)
     d60:	93843383          	ld	t2,-1736(s0)
     d64:	ffc38393          	addi	t2,t2,-4
     d68:	00788923          	sb	t2,18(a7)
     d6c:	94043383          	ld	t2,-1728(s0)
     d70:	ffc38393          	addi	t2,t2,-4
     d74:	007889a3          	sb	t2,19(a7)
     d78:	94843383          	ld	t2,-1720(s0)
     d7c:	ffc38393          	addi	t2,t2,-4
     d80:	00788a23          	sb	t2,20(a7)
     d84:	95043383          	ld	t2,-1712(s0)
     d88:	ffc38393          	addi	t2,t2,-4
     d8c:	00788aa3          	sb	t2,21(a7)
     d90:	96043383          	ld	t2,-1696(s0)
     d94:	ffc38393          	addi	t2,t2,-4
     d98:	00788b23          	sb	t2,22(a7)
     d9c:	97043383          	ld	t2,-1680(s0)
     da0:	ffc38393          	addi	t2,t2,-4
     da4:	00788ba3          	sb	t2,23(a7)
     da8:	98043383          	ld	t2,-1664(s0)
     dac:	ffc38393          	addi	t2,t2,-4
     db0:	00788c23          	sb	t2,24(a7)
     db4:	99043383          	ld	t2,-1648(s0)
     db8:	ffc38393          	addi	t2,t2,-4
     dbc:	00788ca3          	sb	t2,25(a7)
     dc0:	9a043383          	ld	t2,-1632(s0)
     dc4:	ffc38393          	addi	t2,t2,-4
     dc8:	00788d23          	sb	t2,26(a7)
     dcc:	9b043383          	ld	t2,-1616(s0)
     dd0:	ffc38393          	addi	t2,t2,-4
     dd4:	00788da3          	sb	t2,27(a7)
     dd8:	9c043383          	ld	t2,-1600(s0)
     ddc:	ffc38393          	addi	t2,t2,-4
     de0:	00788e23          	sb	t2,28(a7)
     de4:	9d043383          	ld	t2,-1584(s0)
     de8:	ffc38393          	addi	t2,t2,-4
     dec:	00788ea3          	sb	t2,29(a7)
     df0:	9e043383          	ld	t2,-1568(s0)
     df4:	ffc38393          	addi	t2,t2,-4
     df8:	00788f23          	sb	t2,30(a7)
     dfc:	9f043383          	ld	t2,-1552(s0)
     e00:	ffc38393          	addi	t2,t2,-4
     e04:	00788fa3          	sb	t2,31(a7)
     e08:	ffce0893          	addi	a7,t3,-4
     e0c:	000012b7          	lui	t0,0x1
     e10:	405402b3          	sub	t0,s0,t0
     e14:	f502b383          	ld	t2,-176(t0) # f50 <.LBB45_1+0xc3c>
     e18:	007686b3          	add	a3,a3,t2
     e1c:	011680a3          	sb	a7,1(a3)
     e20:	ffcf0f13          	addi	t5,t5,-4
     e24:	01e68023          	sb	t5,0(a3)
     e28:	ffce8e93          	addi	t4,t4,-4
     e2c:	01d68123          	sb	t4,2(a3)
     e30:	ffc70713          	addi	a4,a4,-4
     e34:	00e681a3          	sb	a4,3(a3)
     e38:	ffc50513          	addi	a0,a0,-4
     e3c:	00a68223          	sb	a0,4(a3)
     e40:	ffc60613          	addi	a2,a2,-4
     e44:	00c682a3          	sb	a2,5(a3)
     e48:	ffc58593          	addi	a1,a1,-4
     e4c:	00b68323          	sb	a1,6(a3)
     e50:	ffcc8c93          	addi	s9,s9,-4
     e54:	019683a3          	sb	s9,7(a3)
     e58:	ffc80813          	addi	a6,a6,-4
     e5c:	01068423          	sb	a6,8(a3)
     e60:	ffc78793          	addi	a5,a5,-4
     e64:	00f684a3          	sb	a5,9(a3)
     e68:	ffc08093          	addi	ra,ra,-4
     e6c:	00168523          	sb	ra,10(a3)
     e70:	ffcd8d93          	addi	s11,s11,-4
     e74:	01b685a3          	sb	s11,11(a3)
     e78:	ffcd0d13          	addi	s10,s10,-4
     e7c:	01a68623          	sb	s10,12(a3)
     e80:	ffcc0c13          	addi	s8,s8,-4
     e84:	018686a3          	sb	s8,13(a3)
     e88:	ffcb8b93          	addi	s7,s7,-4
     e8c:	01768723          	sb	s7,14(a3)
     e90:	ffcb0b13          	addi	s6,s6,-4
     e94:	016687a3          	sb	s6,15(a3)
     e98:	ffca8a93          	addi	s5,s5,-4
     e9c:	01568823          	sb	s5,16(a3)
     ea0:	ffca0a13          	addi	s4,s4,-4
     ea4:	014688a3          	sb	s4,17(a3)
     ea8:	ffc98993          	addi	s3,s3,-4
     eac:	01368923          	sb	s3,18(a3)
     eb0:	ffcf8f93          	addi	t6,t6,-4
     eb4:	01f689a3          	sb	t6,19(a3)
     eb8:	ffc30313          	addi	t1,t1,-4
     ebc:	00668a23          	sb	t1,20(a3)
     ec0:	85043283          	ld	t0,-1968(s0)
     ec4:	ffc28293          	addi	t0,t0,-4
     ec8:	00568aa3          	sb	t0,21(a3)
     ecc:	86043e03          	ld	t3,-1952(s0)
     ed0:	ffce0e13          	addi	t3,t3,-4
     ed4:	01c68b23          	sb	t3,22(a3)
     ed8:	87043503          	ld	a0,-1936(s0)
     edc:	ffc50513          	addi	a0,a0,-4
     ee0:	00a68ba3          	sb	a0,23(a3)
     ee4:	88043503          	ld	a0,-1920(s0)
     ee8:	ffc50513          	addi	a0,a0,-4
     eec:	00a68c23          	sb	a0,24(a3)
     ef0:	89043503          	ld	a0,-1904(s0)
     ef4:	ffc50513          	addi	a0,a0,-4
     ef8:	00a68ca3          	sb	a0,25(a3)
     efc:	8a043503          	ld	a0,-1888(s0)
     f00:	ffc50513          	addi	a0,a0,-4
     f04:	00a68d23          	sb	a0,26(a3)
     f08:	8b043503          	ld	a0,-1872(s0)
     f0c:	ffc50513          	addi	a0,a0,-4
     f10:	00a68da3          	sb	a0,27(a3)
     f14:	8c043503          	ld	a0,-1856(s0)
     f18:	ffc50513          	addi	a0,a0,-4
     f1c:	00a68e23          	sb	a0,28(a3)
     f20:	8d043503          	ld	a0,-1840(s0)
     f24:	ffc50513          	addi	a0,a0,-4
     f28:	00a68ea3          	sb	a0,29(a3)
     f2c:	8e043503          	ld	a0,-1824(s0)
     f30:	ffc50513          	addi	a0,a0,-4
     f34:	00a68f23          	sb	a0,30(a3)
     f38:	8f043503          	ld	a0,-1808(s0)
     f3c:	ffc50513          	addi	a0,a0,-4
     f40:	00a68fa3          	sb	a0,31(a3)
     f44:	00001537          	lui	a0,0x1
     f48:	40a40533          	sub	a0,s0,a0
     f4c:	56853683          	ld	a3,1384(a0) # 1568 <.LBB45_3+0x50>
     f50:	00868593          	addi	a1,a3,8
     f54:	00001537          	lui	a0,0x1
     f58:	40a40533          	sub	a0,s0,a0
     f5c:	f5853603          	ld	a2,-168(a0) # f58 <.LBB45_1+0xc44>
     f60:	60060613          	addi	a2,a2,1536
     f64:	30800513          	li	a0,776
     f68:	00a6e463          	bltu	a3,a0,f70 <.LBB45_2>
     f6c:	4b91a06f          	j	1bc24 <.LBB45_3588>

0000000000000f70 <.LBB45_2>:
     f70:	00001537          	lui	a0,0x1
     f74:	40a40533          	sub	a0,s0,a0
     f78:	56b53423          	sd	a1,1384(a0) # 1568 <.LBB45_3+0x50>
     f7c:	00001537          	lui	a0,0x1
     f80:	40a40533          	sub	a0,s0,a0
     f84:	f4c53c23          	sd	a2,-168(a0) # f58 <.LBB45_1+0xc44>
     f88:	f8c43423          	sd	a2,-120(s0)
     f8c:	00002537          	lui	a0,0x2
     f90:	40a40533          	sub	a0,s0,a0
     f94:	fd053503          	ld	a0,-48(a0) # 1fd0 <.LBB45_3+0xab8>
     f98:	000015b7          	lui	a1,0x1
     f9c:	40b405b3          	sub	a1,s0,a1
     fa0:	68a5b423          	sd	a0,1672(a1) # 1688 <.LBB45_3+0x170>
     fa4:	00002537          	lui	a0,0x2
     fa8:	40a40533          	sub	a0,s0,a0
     fac:	00053e83          	ld	t4,0(a0) # 2000 <.LBB45_3+0xae8>
     fb0:	00001537          	lui	a0,0x1
     fb4:	40a40533          	sub	a0,s0,a0
     fb8:	7c053023          	sd	zero,1984(a0) # 17c0 <.LBB45_3+0x2a8>
     fbc:	00001537          	lui	a0,0x1
     fc0:	40a40533          	sub	a0,s0,a0
     fc4:	7c053823          	sd	zero,2000(a0) # 17d0 <.LBB45_3+0x2b8>
     fc8:	00000093          	li	ra,0
     fcc:	00001537          	lui	a0,0x1
     fd0:	40a40533          	sub	a0,s0,a0
     fd4:	7a053023          	sd	zero,1952(a0) # 17a0 <.LBB45_3+0x288>
     fd8:	00001537          	lui	a0,0x1
     fdc:	40a40533          	sub	a0,s0,a0
     fe0:	78053823          	sd	zero,1936(a0) # 1790 <.LBB45_3+0x278>
     fe4:	00001537          	lui	a0,0x1
     fe8:	40a40533          	sub	a0,s0,a0
     fec:	78053023          	sd	zero,1920(a0) # 1780 <.LBB45_3+0x268>
     ff0:	00001537          	lui	a0,0x1
     ff4:	40a40533          	sub	a0,s0,a0
     ff8:	76053823          	sd	zero,1904(a0) # 1770 <.LBB45_3+0x258>
     ffc:	00001537          	lui	a0,0x1
    1000:	40a40533          	sub	a0,s0,a0
    1004:	76053423          	sd	zero,1896(a0) # 1768 <.LBB45_3+0x250>
    1008:	00001537          	lui	a0,0x1
    100c:	40a40533          	sub	a0,s0,a0
    1010:	76053023          	sd	zero,1888(a0) # 1760 <.LBB45_3+0x248>
    1014:	00001537          	lui	a0,0x1
    1018:	40a40533          	sub	a0,s0,a0
    101c:	74053c23          	sd	zero,1880(a0) # 1758 <.LBB45_3+0x240>
    1020:	00001537          	lui	a0,0x1
    1024:	40a40533          	sub	a0,s0,a0
    1028:	74053823          	sd	zero,1872(a0) # 1750 <.LBB45_3+0x238>
    102c:	00001537          	lui	a0,0x1
    1030:	40a40533          	sub	a0,s0,a0
    1034:	74053423          	sd	zero,1864(a0) # 1748 <.LBB45_3+0x230>
    1038:	00001537          	lui	a0,0x1
    103c:	40a40533          	sub	a0,s0,a0
    1040:	74053023          	sd	zero,1856(a0) # 1740 <.LBB45_3+0x228>
    1044:	00001537          	lui	a0,0x1
    1048:	40a40533          	sub	a0,s0,a0
    104c:	72053c23          	sd	zero,1848(a0) # 1738 <.LBB45_3+0x220>
    1050:	00001537          	lui	a0,0x1
    1054:	40a40533          	sub	a0,s0,a0
    1058:	72053823          	sd	zero,1840(a0) # 1730 <.LBB45_3+0x218>
    105c:	00001537          	lui	a0,0x1
    1060:	40a40533          	sub	a0,s0,a0
    1064:	72053423          	sd	zero,1832(a0) # 1728 <.LBB45_3+0x210>
    1068:	00001537          	lui	a0,0x1
    106c:	40a40533          	sub	a0,s0,a0
    1070:	72053023          	sd	zero,1824(a0) # 1720 <.LBB45_3+0x208>
    1074:	00001537          	lui	a0,0x1
    1078:	40a40533          	sub	a0,s0,a0
    107c:	70053c23          	sd	zero,1816(a0) # 1718 <.LBB45_3+0x200>
    1080:	00001537          	lui	a0,0x1
    1084:	40a40533          	sub	a0,s0,a0
    1088:	70053823          	sd	zero,1808(a0) # 1710 <.LBB45_3+0x1f8>
    108c:	00001537          	lui	a0,0x1
    1090:	40a40533          	sub	a0,s0,a0
    1094:	70053423          	sd	zero,1800(a0) # 1708 <.LBB45_3+0x1f0>
    1098:	00001537          	lui	a0,0x1
    109c:	40a40533          	sub	a0,s0,a0
    10a0:	70053023          	sd	zero,1792(a0) # 1700 <.LBB45_3+0x1e8>
    10a4:	00001537          	lui	a0,0x1
    10a8:	40a40533          	sub	a0,s0,a0
    10ac:	6e053c23          	sd	zero,1784(a0) # 16f8 <.LBB45_3+0x1e0>
    10b0:	00001537          	lui	a0,0x1
    10b4:	40a40533          	sub	a0,s0,a0
    10b8:	6e053023          	sd	zero,1760(a0) # 16e0 <.LBB45_3+0x1c8>
    10bc:	00001537          	lui	a0,0x1
    10c0:	40a40533          	sub	a0,s0,a0
    10c4:	6c053c23          	sd	zero,1752(a0) # 16d8 <.LBB45_3+0x1c0>
    10c8:	00001537          	lui	a0,0x1
    10cc:	40a40533          	sub	a0,s0,a0
    10d0:	6c053823          	sd	zero,1744(a0) # 16d0 <.LBB45_3+0x1b8>
    10d4:	00001537          	lui	a0,0x1
    10d8:	40a40533          	sub	a0,s0,a0
    10dc:	6c053423          	sd	zero,1736(a0) # 16c8 <.LBB45_3+0x1b0>
    10e0:	00001537          	lui	a0,0x1
    10e4:	40a40533          	sub	a0,s0,a0
    10e8:	6c053023          	sd	zero,1728(a0) # 16c0 <.LBB45_3+0x1a8>
    10ec:	00001537          	lui	a0,0x1
    10f0:	40a40533          	sub	a0,s0,a0
    10f4:	6a053c23          	sd	zero,1720(a0) # 16b8 <.LBB45_3+0x1a0>
    10f8:	00001537          	lui	a0,0x1
    10fc:	40a40533          	sub	a0,s0,a0
    1100:	6a053823          	sd	zero,1712(a0) # 16b0 <.LBB45_3+0x198>
    1104:	00001537          	lui	a0,0x1
    1108:	40a40533          	sub	a0,s0,a0
    110c:	6a053423          	sd	zero,1704(a0) # 16a8 <.LBB45_3+0x190>
    1110:	00001537          	lui	a0,0x1
    1114:	40a40533          	sub	a0,s0,a0
    1118:	68053c23          	sd	zero,1688(a0) # 1698 <.LBB45_3+0x180>
    111c:	00001537          	lui	a0,0x1
    1120:	40a40533          	sub	a0,s0,a0
    1124:	6a053023          	sd	zero,1696(a0) # 16a0 <.LBB45_3+0x188>
    1128:	8c043023          	sd	zero,-1856(s0)
    112c:	8c043823          	sd	zero,-1840(s0)
    1130:	8a043823          	sd	zero,-1872(s0)
    1134:	8a043023          	sd	zero,-1888(s0)
    1138:	88043823          	sd	zero,-1904(s0)
    113c:	88043023          	sd	zero,-1920(s0)
    1140:	86043823          	sd	zero,-1936(s0)
    1144:	86043023          	sd	zero,-1952(s0)
    1148:	84043c23          	sd	zero,-1960(s0)
    114c:	84043823          	sd	zero,-1968(s0)
    1150:	84043423          	sd	zero,-1976(s0)
    1154:	84043023          	sd	zero,-1984(s0)
    1158:	82043c23          	sd	zero,-1992(s0)
    115c:	82043823          	sd	zero,-2000(s0)
    1160:	82043423          	sd	zero,-2008(s0)
    1164:	82043023          	sd	zero,-2016(s0)
    1168:	80043c23          	sd	zero,-2024(s0)
    116c:	80043823          	sd	zero,-2032(s0)
    1170:	80043423          	sd	zero,-2040(s0)
    1174:	80043023          	sd	zero,-2048(s0)
    1178:	00001537          	lui	a0,0x1
    117c:	40a40533          	sub	a0,s0,a0
    1180:	7e053c23          	sd	zero,2040(a0) # 17f8 <.LBB45_3+0x2e0>
    1184:	00001537          	lui	a0,0x1
    1188:	40a40533          	sub	a0,s0,a0
    118c:	7e053823          	sd	zero,2032(a0) # 17f0 <.LBB45_3+0x2d8>
    1190:	00001537          	lui	a0,0x1
    1194:	40a40533          	sub	a0,s0,a0
    1198:	7e053423          	sd	zero,2024(a0) # 17e8 <.LBB45_3+0x2d0>
    119c:	00001537          	lui	a0,0x1
    11a0:	40a40533          	sub	a0,s0,a0
    11a4:	7e053023          	sd	zero,2016(a0) # 17e0 <.LBB45_3+0x2c8>
    11a8:	00001537          	lui	a0,0x1
    11ac:	40a40533          	sub	a0,s0,a0
    11b0:	7c053c23          	sd	zero,2008(a0) # 17d8 <.LBB45_3+0x2c0>
    11b4:	00001537          	lui	a0,0x1
    11b8:	40a40533          	sub	a0,s0,a0
    11bc:	7c053423          	sd	zero,1992(a0) # 17c8 <.LBB45_3+0x2b0>
    11c0:	00001537          	lui	a0,0x1
    11c4:	40a40533          	sub	a0,s0,a0
    11c8:	7a053c23          	sd	zero,1976(a0) # 17b8 <.LBB45_3+0x2a0>
    11cc:	00001537          	lui	a0,0x1
    11d0:	40a40533          	sub	a0,s0,a0
    11d4:	7a053823          	sd	zero,1968(a0) # 17b0 <.LBB45_3+0x298>
    11d8:	00001537          	lui	a0,0x1
    11dc:	40a40533          	sub	a0,s0,a0
    11e0:	7a053423          	sd	zero,1960(a0) # 17a8 <.LBB45_3+0x290>
    11e4:	00001537          	lui	a0,0x1
    11e8:	40a40533          	sub	a0,s0,a0
    11ec:	78053c23          	sd	zero,1944(a0) # 1798 <.LBB45_3+0x280>
    11f0:	00001537          	lui	a0,0x1
    11f4:	40a40533          	sub	a0,s0,a0
    11f8:	78053423          	sd	zero,1928(a0) # 1788 <.LBB45_3+0x270>
    11fc:	00001537          	lui	a0,0x1
    1200:	40a40533          	sub	a0,s0,a0
    1204:	76053c23          	sd	zero,1912(a0) # 1778 <.LBB45_3+0x260>
    1208:	9c043023          	sd	zero,-1600(s0)
    120c:	9c043823          	sd	zero,-1584(s0)
    1210:	9a043823          	sd	zero,-1616(s0)
    1214:	9a043023          	sd	zero,-1632(s0)
    1218:	98043823          	sd	zero,-1648(s0)
    121c:	98043023          	sd	zero,-1664(s0)
    1220:	96043823          	sd	zero,-1680(s0)
    1224:	96043023          	sd	zero,-1696(s0)
    1228:	94043c23          	sd	zero,-1704(s0)
    122c:	94043823          	sd	zero,-1712(s0)
    1230:	94043423          	sd	zero,-1720(s0)
    1234:	94043023          	sd	zero,-1728(s0)
    1238:	92043c23          	sd	zero,-1736(s0)
    123c:	92043823          	sd	zero,-1744(s0)
    1240:	92043423          	sd	zero,-1752(s0)
    1244:	92043023          	sd	zero,-1760(s0)
    1248:	90043c23          	sd	zero,-1768(s0)
    124c:	90043823          	sd	zero,-1776(s0)
    1250:	90043423          	sd	zero,-1784(s0)
    1254:	90043023          	sd	zero,-1792(s0)
    1258:	8e043c23          	sd	zero,-1800(s0)
    125c:	8e043823          	sd	zero,-1808(s0)
    1260:	8e043423          	sd	zero,-1816(s0)
    1264:	8e043023          	sd	zero,-1824(s0)
    1268:	8c043c23          	sd	zero,-1832(s0)
    126c:	8c043423          	sd	zero,-1848(s0)
    1270:	8a043c23          	sd	zero,-1864(s0)
    1274:	8a043423          	sd	zero,-1880(s0)
    1278:	88043c23          	sd	zero,-1896(s0)
    127c:	88043423          	sd	zero,-1912(s0)
    1280:	86043c23          	sd	zero,-1928(s0)
    1284:	86043423          	sd	zero,-1944(s0)
    1288:	ac043023          	sd	zero,-1344(s0)
    128c:	ac043823          	sd	zero,-1328(s0)
    1290:	aa043823          	sd	zero,-1360(s0)
    1294:	aa043023          	sd	zero,-1376(s0)
    1298:	a8043823          	sd	zero,-1392(s0)
    129c:	a8043023          	sd	zero,-1408(s0)
    12a0:	a6043823          	sd	zero,-1424(s0)
    12a4:	a6043023          	sd	zero,-1440(s0)
    12a8:	a4043c23          	sd	zero,-1448(s0)
    12ac:	a4043823          	sd	zero,-1456(s0)
    12b0:	a4043423          	sd	zero,-1464(s0)
    12b4:	a4043023          	sd	zero,-1472(s0)
    12b8:	a2043c23          	sd	zero,-1480(s0)
    12bc:	a2043823          	sd	zero,-1488(s0)
    12c0:	a2043423          	sd	zero,-1496(s0)
    12c4:	a2043023          	sd	zero,-1504(s0)
    12c8:	a0043c23          	sd	zero,-1512(s0)
    12cc:	a0043823          	sd	zero,-1520(s0)
    12d0:	a0043423          	sd	zero,-1528(s0)
    12d4:	a0043023          	sd	zero,-1536(s0)
    12d8:	9e043c23          	sd	zero,-1544(s0)
    12dc:	9e043823          	sd	zero,-1552(s0)
    12e0:	9e043423          	sd	zero,-1560(s0)
    12e4:	9e043023          	sd	zero,-1568(s0)
    12e8:	9c043c23          	sd	zero,-1576(s0)
    12ec:	9c043423          	sd	zero,-1592(s0)
    12f0:	9a043c23          	sd	zero,-1608(s0)
    12f4:	9a043423          	sd	zero,-1624(s0)
    12f8:	98043c23          	sd	zero,-1640(s0)
    12fc:	98043423          	sd	zero,-1656(s0)
    1300:	96043c23          	sd	zero,-1672(s0)
    1304:	96043423          	sd	zero,-1688(s0)
    1308:	bc043023          	sd	zero,-1088(s0)
    130c:	bc043823          	sd	zero,-1072(s0)
    1310:	ba043823          	sd	zero,-1104(s0)
    1314:	ba043023          	sd	zero,-1120(s0)
    1318:	b8043823          	sd	zero,-1136(s0)
    131c:	b8043023          	sd	zero,-1152(s0)
    1320:	b6043823          	sd	zero,-1168(s0)
    1324:	b6043023          	sd	zero,-1184(s0)
    1328:	b4043c23          	sd	zero,-1192(s0)
    132c:	b4043823          	sd	zero,-1200(s0)
    1330:	b4043423          	sd	zero,-1208(s0)
    1334:	b4043023          	sd	zero,-1216(s0)
    1338:	b2043c23          	sd	zero,-1224(s0)
    133c:	b2043823          	sd	zero,-1232(s0)
    1340:	b2043423          	sd	zero,-1240(s0)
    1344:	b2043023          	sd	zero,-1248(s0)
    1348:	b0043c23          	sd	zero,-1256(s0)
    134c:	b0043823          	sd	zero,-1264(s0)
    1350:	b0043423          	sd	zero,-1272(s0)
    1354:	b0043023          	sd	zero,-1280(s0)
    1358:	ae043c23          	sd	zero,-1288(s0)
    135c:	ae043823          	sd	zero,-1296(s0)
    1360:	ae043423          	sd	zero,-1304(s0)
    1364:	ae043023          	sd	zero,-1312(s0)
    1368:	ac043c23          	sd	zero,-1320(s0)
    136c:	ac043423          	sd	zero,-1336(s0)
    1370:	aa043c23          	sd	zero,-1352(s0)
    1374:	aa043423          	sd	zero,-1368(s0)
    1378:	a8043c23          	sd	zero,-1384(s0)
    137c:	a8043423          	sd	zero,-1400(s0)
    1380:	a6043c23          	sd	zero,-1416(s0)
    1384:	a6043423          	sd	zero,-1432(s0)
    1388:	cc043023          	sd	zero,-832(s0)
    138c:	cc043823          	sd	zero,-816(s0)
    1390:	ca043823          	sd	zero,-848(s0)
    1394:	ca043023          	sd	zero,-864(s0)
    1398:	c8043823          	sd	zero,-880(s0)
    139c:	c8043023          	sd	zero,-896(s0)
    13a0:	c6043823          	sd	zero,-912(s0)
    13a4:	c6043023          	sd	zero,-928(s0)
    13a8:	c4043c23          	sd	zero,-936(s0)
    13ac:	c4043823          	sd	zero,-944(s0)
    13b0:	c4043423          	sd	zero,-952(s0)
    13b4:	c4043023          	sd	zero,-960(s0)
    13b8:	c2043c23          	sd	zero,-968(s0)
    13bc:	c2043823          	sd	zero,-976(s0)
    13c0:	c2043423          	sd	zero,-984(s0)
    13c4:	c2043023          	sd	zero,-992(s0)
    13c8:	c0043c23          	sd	zero,-1000(s0)
    13cc:	c0043823          	sd	zero,-1008(s0)
    13d0:	c0043423          	sd	zero,-1016(s0)
    13d4:	c0043023          	sd	zero,-1024(s0)
    13d8:	be043c23          	sd	zero,-1032(s0)
    13dc:	be043823          	sd	zero,-1040(s0)
    13e0:	be043423          	sd	zero,-1048(s0)
    13e4:	be043023          	sd	zero,-1056(s0)
    13e8:	bc043c23          	sd	zero,-1064(s0)
    13ec:	bc043423          	sd	zero,-1080(s0)
    13f0:	ba043c23          	sd	zero,-1096(s0)
    13f4:	ba043423          	sd	zero,-1112(s0)
    13f8:	b8043c23          	sd	zero,-1128(s0)
    13fc:	b8043423          	sd	zero,-1144(s0)
    1400:	b6043c23          	sd	zero,-1160(s0)
    1404:	b6043423          	sd	zero,-1176(s0)
    1408:	da043023          	sd	zero,-608(s0)
    140c:	d8043023          	sd	zero,-640(s0)
    1410:	da043823          	sd	zero,-592(s0)
    1414:	00001537          	lui	a0,0x1
    1418:	40a40533          	sub	a0,s0,a0
    141c:	6e053823          	sd	zero,1776(a0) # 16f0 <.LBB45_3+0x1d8>
    1420:	d8043823          	sd	zero,-624(s0)
    1424:	00001537          	lui	a0,0x1
    1428:	40a40533          	sub	a0,s0,a0
    142c:	6e053423          	sd	zero,1768(a0) # 16e8 <.LBB45_3+0x1d0>
    1430:	d6043823          	sd	zero,-656(s0)
    1434:	d6043023          	sd	zero,-672(s0)
    1438:	d4043c23          	sd	zero,-680(s0)
    143c:	d4043823          	sd	zero,-688(s0)
    1440:	d4043423          	sd	zero,-696(s0)
    1444:	d4043023          	sd	zero,-704(s0)
    1448:	d2043c23          	sd	zero,-712(s0)
    144c:	d2043823          	sd	zero,-720(s0)
    1450:	d2043423          	sd	zero,-728(s0)
    1454:	d2043023          	sd	zero,-736(s0)
    1458:	d0043c23          	sd	zero,-744(s0)
    145c:	d0043823          	sd	zero,-752(s0)
    1460:	d0043423          	sd	zero,-760(s0)
    1464:	d0043023          	sd	zero,-768(s0)
    1468:	ce043c23          	sd	zero,-776(s0)
    146c:	ce043823          	sd	zero,-784(s0)
    1470:	ce043423          	sd	zero,-792(s0)
    1474:	ce043023          	sd	zero,-800(s0)
    1478:	cc043c23          	sd	zero,-808(s0)
    147c:	cc043423          	sd	zero,-824(s0)
    1480:	ca043c23          	sd	zero,-840(s0)
    1484:	ca043423          	sd	zero,-856(s0)
    1488:	c8043c23          	sd	zero,-872(s0)
    148c:	c8043423          	sd	zero,-888(s0)
    1490:	c6043c23          	sd	zero,-904(s0)
    1494:	c6043423          	sd	zero,-920(s0)
    1498:	00000713          	li	a4,0
    149c:	de043023          	sd	zero,-544(s0)
    14a0:	00000793          	li	a5,0
    14a4:	dc043823          	sd	zero,-560(s0)
    14a8:	00000593          	li	a1,0
    14ac:	00000613          	li	a2,0
    14b0:	00000693          	li	a3,0
    14b4:	dc043423          	sd	zero,-568(s0)
    14b8:	00000d13          	li	s10,0
    14bc:	00000c93          	li	s9,0
    14c0:	00000c13          	li	s8,0
    14c4:	00000b93          	li	s7,0
    14c8:	00000b13          	li	s6,0
    14cc:	00000f13          	li	t5,0
    14d0:	00000313          	li	t1,0
    14d4:	00000e13          	li	t3,0
    14d8:	00000393          	li	t2,0
    14dc:	00000893          	li	a7,0
    14e0:	00000293          	li	t0,0
    14e4:	00000813          	li	a6,0
    14e8:	00000d93          	li	s11,0
    14ec:	00000f93          	li	t6,0
    14f0:	00000a13          	li	s4,0
    14f4:	00000913          	li	s2,0
    14f8:	00000493          	li	s1,0
    14fc:	00000993          	li	s3,0
    1500:	da043c23          	sd	zero,-584(s0)
    1504:	da043423          	sd	zero,-600(s0)
    1508:	d8043c23          	sd	zero,-616(s0)
    150c:	d8043423          	sd	zero,-632(s0)
    1510:	00000a93          	li	s5,0
    1514:	d6043423          	sd	zero,-664(s0)

0000000000001518 <.LBB45_3>:
    1518:	d7543c23          	sd	s5,-648(s0)
    151c:	e7343c23          	sd	s3,-392(s0)
    1520:	e8943023          	sd	s1,-384(s0)
    1524:	e9243423          	sd	s2,-376(s0)
    1528:	e9443823          	sd	s4,-368(s0)
    152c:	e9f43c23          	sd	t6,-360(s0)
    1530:	ddb43023          	sd	s11,-576(s0)
    1534:	eb043023          	sd	a6,-352(s0)
    1538:	ea543423          	sd	t0,-344(s0)
    153c:	eb143823          	sd	a7,-336(s0)
    1540:	ea743c23          	sd	t2,-328(s0)
    1544:	edc43023          	sd	t3,-320(s0)
    1548:	ec643423          	sd	t1,-312(s0)
    154c:	ede43823          	sd	t5,-304(s0)
    1550:	ed643c23          	sd	s6,-296(s0)
    1554:	ef743023          	sd	s7,-288(s0)
    1558:	ef843423          	sd	s8,-280(s0)
    155c:	ef943823          	sd	s9,-272(s0)
    1560:	efa43c23          	sd	s10,-264(s0)
    1564:	f0d43023          	sd	a3,-256(s0)
    1568:	f0c43423          	sd	a2,-248(s0)
    156c:	f0b43823          	sd	a1,-240(s0)
    1570:	dcf43c23          	sd	a5,-552(s0)
    1574:	f0e43c23          	sd	a4,-232(s0)
    1578:	f8843503          	ld	a0,-120(s0)
    157c:	00050503          	lb	a0,0(a0)
    1580:	002e8583          	lb	a1,2(t4)
    1584:	f2b43023          	sd	a1,-224(s0)
    1588:	001e8603          	lb	a2,1(t4)
    158c:	e2c43c23          	sd	a2,-456(s0)
    1590:	000e8703          	lb	a4,0(t4)
    1594:	003e8783          	lb	a5,3(t4)
    1598:	f6f43c23          	sd	a5,-136(s0)
    159c:	004e8483          	lb	s1,4(t4)
    15a0:	f2943423          	sd	s1,-216(s0)
    15a4:	005e8983          	lb	s3,5(t4)
    15a8:	f7343823          	sd	s3,-144(s0)
    15ac:	006e8d83          	lb	s11,6(t4)
    15b0:	f9b43023          	sd	s11,-128(s0)
    15b4:	007e8883          	lb	a7,7(t4)
    15b8:	e5143023          	sd	a7,-448(s0)
    15bc:	008e8d03          	lb	s10,8(t4)
    15c0:	009e8283          	lb	t0,9(t4)
    15c4:	f4543c23          	sd	t0,-168(s0)
    15c8:	00ae8803          	lb	a6,10(t4)
    15cc:	df043823          	sd	a6,-528(s0)
    15d0:	00be8383          	lb	t2,11(t4)
    15d4:	de743c23          	sd	t2,-520(s0)
    15d8:	00ce8e03          	lb	t3,12(t4)
    15dc:	e1c43023          	sd	t3,-512(s0)
    15e0:	00de8303          	lb	t1,13(t4)
    15e4:	e4643423          	sd	t1,-440(s0)
    15e8:	00ee8f03          	lb	t5,14(t4)
    15ec:	00fe8f83          	lb	t6,15(t4)
    15f0:	010e8903          	lb	s2,16(t4)
    15f4:	011e8a03          	lb	s4,17(t4)
    15f8:	012e8a83          	lb	s5,18(t4)
    15fc:	e7543423          	sd	s5,-408(s0)
    1600:	013e8683          	lb	a3,19(t4)
    1604:	f2d43823          	sd	a3,-208(s0)
    1608:	014e8b03          	lb	s6,20(t4)
    160c:	f3643c23          	sd	s6,-200(s0)
    1610:	015e8b83          	lb	s7,21(t4)
    1614:	e7743823          	sd	s7,-400(s0)
    1618:	016e8c03          	lb	s8,22(t4)
    161c:	f7843423          	sd	s8,-152(s0)
    1620:	017e8683          	lb	a3,23(t4)
    1624:	018e8c83          	lb	s9,24(t4)
    1628:	f5943423          	sd	s9,-184(s0)
    162c:	02b505b3          	mul	a1,a0,a1
    1630:	001580b3          	add	ra,a1,ra
    1634:	000015b7          	lui	a1,0x1
    1638:	40b405b3          	sub	a1,s0,a1
    163c:	6815b823          	sd	ra,1680(a1) # 1690 <.LBB45_3+0x178>
    1640:	02c505b3          	mul	a1,a0,a2
    1644:	00001637          	lui	a2,0x1
    1648:	40c40633          	sub	a2,s0,a2
    164c:	7d063603          	ld	a2,2000(a2) # 17d0 <.LBB45_3+0x2b8>
    1650:	00c58633          	add	a2,a1,a2
    1654:	000015b7          	lui	a1,0x1
    1658:	40b405b3          	sub	a1,s0,a1
    165c:	7cc5b823          	sd	a2,2000(a1) # 17d0 <.LBB45_3+0x2b8>
    1660:	02e505b3          	mul	a1,a0,a4
    1664:	e2e43423          	sd	a4,-472(s0)
    1668:	00001637          	lui	a2,0x1
    166c:	40c40633          	sub	a2,s0,a2
    1670:	7c063603          	ld	a2,1984(a2) # 17c0 <.LBB45_3+0x2a8>
    1674:	00c58633          	add	a2,a1,a2
    1678:	000015b7          	lui	a1,0x1
    167c:	40b405b3          	sub	a1,s0,a1
    1680:	7cc5b023          	sd	a2,1984(a1) # 17c0 <.LBB45_3+0x2a8>
    1684:	02f505b3          	mul	a1,a0,a5
    1688:	00001637          	lui	a2,0x1
    168c:	40c40633          	sub	a2,s0,a2
    1690:	7a063603          	ld	a2,1952(a2) # 17a0 <.LBB45_3+0x288>
    1694:	00c58633          	add	a2,a1,a2
    1698:	000015b7          	lui	a1,0x1
    169c:	40b405b3          	sub	a1,s0,a1
    16a0:	7ac5b023          	sd	a2,1952(a1) # 17a0 <.LBB45_3+0x288>
    16a4:	029505b3          	mul	a1,a0,s1
    16a8:	00001637          	lui	a2,0x1
    16ac:	40c40633          	sub	a2,s0,a2
    16b0:	79063603          	ld	a2,1936(a2) # 1790 <.LBB45_3+0x278>
    16b4:	00c58633          	add	a2,a1,a2
    16b8:	000015b7          	lui	a1,0x1
    16bc:	40b405b3          	sub	a1,s0,a1
    16c0:	78c5b823          	sd	a2,1936(a1) # 1790 <.LBB45_3+0x278>
    16c4:	033505b3          	mul	a1,a0,s3
    16c8:	00001637          	lui	a2,0x1
    16cc:	40c40633          	sub	a2,s0,a2
    16d0:	78063603          	ld	a2,1920(a2) # 1780 <.LBB45_3+0x268>
    16d4:	00c58633          	add	a2,a1,a2
    16d8:	000015b7          	lui	a1,0x1
    16dc:	40b405b3          	sub	a1,s0,a1
    16e0:	78c5b023          	sd	a2,1920(a1) # 1780 <.LBB45_3+0x268>
    16e4:	03b505b3          	mul	a1,a0,s11
    16e8:	00001637          	lui	a2,0x1
    16ec:	40c40633          	sub	a2,s0,a2
    16f0:	77063603          	ld	a2,1904(a2) # 1770 <.LBB45_3+0x258>
    16f4:	00c58633          	add	a2,a1,a2
    16f8:	000015b7          	lui	a1,0x1
    16fc:	40b405b3          	sub	a1,s0,a1
    1700:	76c5b823          	sd	a2,1904(a1) # 1770 <.LBB45_3+0x258>
    1704:	031505b3          	mul	a1,a0,a7
    1708:	00001637          	lui	a2,0x1
    170c:	40c40633          	sub	a2,s0,a2
    1710:	76863603          	ld	a2,1896(a2) # 1768 <.LBB45_3+0x250>
    1714:	00c58633          	add	a2,a1,a2
    1718:	000015b7          	lui	a1,0x1
    171c:	40b405b3          	sub	a1,s0,a1
    1720:	76c5b423          	sd	a2,1896(a1) # 1768 <.LBB45_3+0x250>
    1724:	000d0893          	mv	a7,s10
    1728:	f5a43023          	sd	s10,-192(s0)
    172c:	03a505b3          	mul	a1,a0,s10
    1730:	00001637          	lui	a2,0x1
    1734:	40c40633          	sub	a2,s0,a2
    1738:	76063603          	ld	a2,1888(a2) # 1760 <.LBB45_3+0x248>
    173c:	00c58633          	add	a2,a1,a2
    1740:	000015b7          	lui	a1,0x1
    1744:	40b405b3          	sub	a1,s0,a1
    1748:	76c5b023          	sd	a2,1888(a1) # 1760 <.LBB45_3+0x248>
    174c:	025505b3          	mul	a1,a0,t0
    1750:	00001637          	lui	a2,0x1
    1754:	40c40633          	sub	a2,s0,a2
    1758:	75863603          	ld	a2,1880(a2) # 1758 <.LBB45_3+0x240>
    175c:	00c58633          	add	a2,a1,a2
    1760:	000015b7          	lui	a1,0x1
    1764:	40b405b3          	sub	a1,s0,a1
    1768:	74c5bc23          	sd	a2,1880(a1) # 1758 <.LBB45_3+0x240>
    176c:	030505b3          	mul	a1,a0,a6
    1770:	00001637          	lui	a2,0x1
    1774:	40c40633          	sub	a2,s0,a2
    1778:	75063603          	ld	a2,1872(a2) # 1750 <.LBB45_3+0x238>
    177c:	00c58633          	add	a2,a1,a2
    1780:	000015b7          	lui	a1,0x1
    1784:	40b405b3          	sub	a1,s0,a1
    1788:	74c5b823          	sd	a2,1872(a1) # 1750 <.LBB45_3+0x238>
    178c:	027505b3          	mul	a1,a0,t2
    1790:	00001637          	lui	a2,0x1
    1794:	40c40633          	sub	a2,s0,a2
    1798:	74863603          	ld	a2,1864(a2) # 1748 <.LBB45_3+0x230>
    179c:	00c58633          	add	a2,a1,a2
    17a0:	000015b7          	lui	a1,0x1
    17a4:	40b405b3          	sub	a1,s0,a1
    17a8:	74c5b423          	sd	a2,1864(a1) # 1748 <.LBB45_3+0x230>
    17ac:	03c505b3          	mul	a1,a0,t3
    17b0:	00001637          	lui	a2,0x1
    17b4:	40c40633          	sub	a2,s0,a2
    17b8:	74063603          	ld	a2,1856(a2) # 1740 <.LBB45_3+0x228>
    17bc:	00c58633          	add	a2,a1,a2
    17c0:	000015b7          	lui	a1,0x1
    17c4:	40b405b3          	sub	a1,s0,a1
    17c8:	74c5b023          	sd	a2,1856(a1) # 1740 <.LBB45_3+0x228>
    17cc:	026505b3          	mul	a1,a0,t1
    17d0:	00001637          	lui	a2,0x1
    17d4:	40c40633          	sub	a2,s0,a2
    17d8:	73863603          	ld	a2,1848(a2) # 1738 <.LBB45_3+0x220>
    17dc:	00c58633          	add	a2,a1,a2
    17e0:	000015b7          	lui	a1,0x1
    17e4:	40b405b3          	sub	a1,s0,a1
    17e8:	72c5bc23          	sd	a2,1848(a1) # 1738 <.LBB45_3+0x220>
    17ec:	03e505b3          	mul	a1,a0,t5
    17f0:	000f0313          	mv	t1,t5
    17f4:	00001637          	lui	a2,0x1
    17f8:	40c40633          	sub	a2,s0,a2
    17fc:	73063603          	ld	a2,1840(a2) # 1730 <.LBB45_3+0x218>
    1800:	00c58633          	add	a2,a1,a2
    1804:	000015b7          	lui	a1,0x1
    1808:	40b405b3          	sub	a1,s0,a1
    180c:	72c5b823          	sd	a2,1840(a1) # 1730 <.LBB45_3+0x218>
    1810:	03f505b3          	mul	a1,a0,t6
    1814:	000f8e13          	mv	t3,t6
    1818:	00001637          	lui	a2,0x1
    181c:	40c40633          	sub	a2,s0,a2
    1820:	72863603          	ld	a2,1832(a2) # 1728 <.LBB45_3+0x210>
    1824:	00c58633          	add	a2,a1,a2
    1828:	000015b7          	lui	a1,0x1
    182c:	40b405b3          	sub	a1,s0,a1
    1830:	72c5b423          	sd	a2,1832(a1) # 1728 <.LBB45_3+0x210>
    1834:	032505b3          	mul	a1,a0,s2
    1838:	00090393          	mv	t2,s2
    183c:	00001637          	lui	a2,0x1
    1840:	40c40633          	sub	a2,s0,a2
    1844:	72063603          	ld	a2,1824(a2) # 1720 <.LBB45_3+0x208>
    1848:	00c58633          	add	a2,a1,a2
    184c:	000015b7          	lui	a1,0x1
    1850:	40b405b3          	sub	a1,s0,a1
    1854:	72c5b023          	sd	a2,1824(a1) # 1720 <.LBB45_3+0x208>
    1858:	034505b3          	mul	a1,a0,s4
    185c:	000a0813          	mv	a6,s4
    1860:	00001637          	lui	a2,0x1
    1864:	40c40633          	sub	a2,s0,a2
    1868:	71863603          	ld	a2,1816(a2) # 1718 <.LBB45_3+0x200>
    186c:	00c58633          	add	a2,a1,a2
    1870:	000015b7          	lui	a1,0x1
    1874:	40b405b3          	sub	a1,s0,a1
    1878:	70c5bc23          	sd	a2,1816(a1) # 1718 <.LBB45_3+0x200>
    187c:	035505b3          	mul	a1,a0,s5
    1880:	00001637          	lui	a2,0x1
    1884:	40c40633          	sub	a2,s0,a2
    1888:	71063603          	ld	a2,1808(a2) # 1710 <.LBB45_3+0x1f8>
    188c:	00c58633          	add	a2,a1,a2
    1890:	000015b7          	lui	a1,0x1
    1894:	40b405b3          	sub	a1,s0,a1
    1898:	70c5b823          	sd	a2,1808(a1) # 1710 <.LBB45_3+0x1f8>
    189c:	f3043483          	ld	s1,-208(s0)
    18a0:	029505b3          	mul	a1,a0,s1
    18a4:	00001637          	lui	a2,0x1
    18a8:	40c40633          	sub	a2,s0,a2
    18ac:	70863603          	ld	a2,1800(a2) # 1708 <.LBB45_3+0x1f0>
    18b0:	00c58633          	add	a2,a1,a2
    18b4:	000015b7          	lui	a1,0x1
    18b8:	40b405b3          	sub	a1,s0,a1
    18bc:	70c5b423          	sd	a2,1800(a1) # 1708 <.LBB45_3+0x1f0>
    18c0:	036505b3          	mul	a1,a0,s6
    18c4:	00001637          	lui	a2,0x1
    18c8:	40c40633          	sub	a2,s0,a2
    18cc:	70063603          	ld	a2,1792(a2) # 1700 <.LBB45_3+0x1e8>
    18d0:	00c58633          	add	a2,a1,a2
    18d4:	000015b7          	lui	a1,0x1
    18d8:	40b405b3          	sub	a1,s0,a1
    18dc:	70c5b023          	sd	a2,1792(a1) # 1700 <.LBB45_3+0x1e8>
    18e0:	037505b3          	mul	a1,a0,s7
    18e4:	00001637          	lui	a2,0x1
    18e8:	40c40633          	sub	a2,s0,a2
    18ec:	6f863603          	ld	a2,1784(a2) # 16f8 <.LBB45_3+0x1e0>
    18f0:	00c58633          	add	a2,a1,a2
    18f4:	000015b7          	lui	a1,0x1
    18f8:	40b405b3          	sub	a1,s0,a1
    18fc:	6ec5bc23          	sd	a2,1784(a1) # 16f8 <.LBB45_3+0x1e0>
    1900:	038505b3          	mul	a1,a0,s8
    1904:	00001637          	lui	a2,0x1
    1908:	40c40633          	sub	a2,s0,a2
    190c:	6e063603          	ld	a2,1760(a2) # 16e0 <.LBB45_3+0x1c8>
    1910:	00c58633          	add	a2,a1,a2
    1914:	000015b7          	lui	a1,0x1
    1918:	40b405b3          	sub	a1,s0,a1
    191c:	6ec5b023          	sd	a2,1760(a1) # 16e0 <.LBB45_3+0x1c8>
    1920:	00068f93          	mv	t6,a3
    1924:	ded43423          	sd	a3,-536(s0)
    1928:	02d505b3          	mul	a1,a0,a3
    192c:	00001637          	lui	a2,0x1
    1930:	40c40633          	sub	a2,s0,a2
    1934:	6d863603          	ld	a2,1752(a2) # 16d8 <.LBB45_3+0x1c0>
    1938:	00c58633          	add	a2,a1,a2
    193c:	000015b7          	lui	a1,0x1
    1940:	40b405b3          	sub	a1,s0,a1
    1944:	6cc5bc23          	sd	a2,1752(a1) # 16d8 <.LBB45_3+0x1c0>
    1948:	019e8683          	lb	a3,25(t4)
    194c:	e4d43823          	sd	a3,-432(s0)
    1950:	039505b3          	mul	a1,a0,s9
    1954:	00001637          	lui	a2,0x1
    1958:	40c40633          	sub	a2,s0,a2
    195c:	6d063603          	ld	a2,1744(a2) # 16d0 <.LBB45_3+0x1b8>
    1960:	00c58633          	add	a2,a1,a2
    1964:	000015b7          	lui	a1,0x1
    1968:	40b405b3          	sub	a1,s0,a1
    196c:	6cc5b823          	sd	a2,1744(a1) # 16d0 <.LBB45_3+0x1b8>
    1970:	01ae8603          	lb	a2,26(t4)
    1974:	e2c43823          	sd	a2,-464(s0)
    1978:	02d505b3          	mul	a1,a0,a3
    197c:	000016b7          	lui	a3,0x1
    1980:	40d406b3          	sub	a3,s0,a3
    1984:	6c86b683          	ld	a3,1736(a3) # 16c8 <.LBB45_3+0x1b0>
    1988:	00d586b3          	add	a3,a1,a3
    198c:	000015b7          	lui	a1,0x1
    1990:	40b405b3          	sub	a1,s0,a1
    1994:	6cd5b423          	sd	a3,1736(a1) # 16c8 <.LBB45_3+0x1b0>
    1998:	01be8283          	lb	t0,27(t4)
    199c:	f6543023          	sd	t0,-160(s0)
    19a0:	02c505b3          	mul	a1,a0,a2
    19a4:	00001637          	lui	a2,0x1
    19a8:	40c40633          	sub	a2,s0,a2
    19ac:	6c063683          	ld	a3,1728(a2) # 16c0 <.LBB45_3+0x1a8>
    19b0:	00d586b3          	add	a3,a1,a3
    19b4:	000015b7          	lui	a1,0x1
    19b8:	40b405b3          	sub	a1,s0,a1
    19bc:	6cd5b023          	sd	a3,1728(a1) # 16c0 <.LBB45_3+0x1a8>
    19c0:	01ce8a83          	lb	s5,28(t4)
    19c4:	025505b3          	mul	a1,a0,t0
    19c8:	00001637          	lui	a2,0x1
    19cc:	40c40633          	sub	a2,s0,a2
    19d0:	6b863683          	ld	a3,1720(a2) # 16b8 <.LBB45_3+0x1a0>
    19d4:	00d586b3          	add	a3,a1,a3
    19d8:	000015b7          	lui	a1,0x1
    19dc:	40b405b3          	sub	a1,s0,a1
    19e0:	6ad5bc23          	sd	a3,1720(a1) # 16b8 <.LBB45_3+0x1a0>
    19e4:	01de8683          	lb	a3,29(t4)
    19e8:	035505b3          	mul	a1,a0,s5
    19ec:	e1543c23          	sd	s5,-488(s0)
    19f0:	00001637          	lui	a2,0x1
    19f4:	40c40633          	sub	a2,s0,a2
    19f8:	6b063983          	ld	s3,1712(a2) # 16b0 <.LBB45_3+0x198>
    19fc:	013589b3          	add	s3,a1,s3
    1a00:	000015b7          	lui	a1,0x1
    1a04:	40b405b3          	sub	a1,s0,a1
    1a08:	6b35b823          	sd	s3,1712(a1) # 16b0 <.LBB45_3+0x198>
    1a0c:	01ee8903          	lb	s2,30(t4)
    1a10:	02d505b3          	mul	a1,a0,a3
    1a14:	00068093          	mv	ra,a3
    1a18:	e2d43023          	sd	a3,-480(s0)
    1a1c:	00001637          	lui	a2,0x1
    1a20:	40c40633          	sub	a2,s0,a2
    1a24:	6a863983          	ld	s3,1704(a2) # 16a8 <.LBB45_3+0x190>
    1a28:	013589b3          	add	s3,a1,s3
    1a2c:	000015b7          	lui	a1,0x1
    1a30:	40b405b3          	sub	a1,s0,a1
    1a34:	6b35b423          	sd	s3,1704(a1) # 16a8 <.LBB45_3+0x190>
    1a38:	01fe8683          	lb	a3,31(t4)
    1a3c:	f8843583          	ld	a1,-120(s0)
    1a40:	0c058983          	lb	s3,192(a1)
    1a44:	03250db3          	mul	s11,a0,s2
    1a48:	f5243823          	sd	s2,-176(s0)
    1a4c:	000015b7          	lui	a1,0x1
    1a50:	40b405b3          	sub	a1,s0,a1
    1a54:	6985bd03          	ld	s10,1688(a1) # 1698 <.LBB45_3+0x180>
    1a58:	01ad8d33          	add	s10,s11,s10
    1a5c:	000015b7          	lui	a1,0x1
    1a60:	40b405b3          	sub	a1,s0,a1
    1a64:	69a5bc23          	sd	s10,1688(a1) # 1698 <.LBB45_3+0x180>
    1a68:	02d50533          	mul	a0,a0,a3
    1a6c:	00068293          	mv	t0,a3
    1a70:	000015b7          	lui	a1,0x1
    1a74:	40b405b3          	sub	a1,s0,a1
    1a78:	68d5b023          	sd	a3,1664(a1) # 1680 <.LBB45_3+0x168>
    1a7c:	000015b7          	lui	a1,0x1
    1a80:	40b405b3          	sub	a1,s0,a1
    1a84:	6a05bd83          	ld	s11,1696(a1) # 16a0 <.LBB45_3+0x188>
    1a88:	01b50db3          	add	s11,a0,s11
    1a8c:	00001537          	lui	a0,0x1
    1a90:	40a40533          	sub	a0,s0,a0
    1a94:	6bb53023          	sd	s11,1696(a0) # 16a0 <.LBB45_3+0x188>
    1a98:	02e98533          	mul	a0,s3,a4
    1a9c:	8c043d03          	ld	s10,-1856(s0)
    1aa0:	01a50d33          	add	s10,a0,s10
    1aa4:	8da43023          	sd	s10,-1856(s0)
    1aa8:	e3843603          	ld	a2,-456(s0)
    1aac:	02c98533          	mul	a0,s3,a2
    1ab0:	8d043d03          	ld	s10,-1840(s0)
    1ab4:	01a50d33          	add	s10,a0,s10
    1ab8:	8da43823          	sd	s10,-1840(s0)
    1abc:	f2043583          	ld	a1,-224(s0)
    1ac0:	02b98533          	mul	a0,s3,a1
    1ac4:	8b043d03          	ld	s10,-1872(s0)
    1ac8:	01a50d33          	add	s10,a0,s10
    1acc:	8ba43823          	sd	s10,-1872(s0)
    1ad0:	f7843503          	ld	a0,-136(s0)
    1ad4:	02a98533          	mul	a0,s3,a0
    1ad8:	8a043d03          	ld	s10,-1888(s0)
    1adc:	01a50d33          	add	s10,a0,s10
    1ae0:	8ba43023          	sd	s10,-1888(s0)
    1ae4:	f2843503          	ld	a0,-216(s0)
    1ae8:	02a98533          	mul	a0,s3,a0
    1aec:	89043d03          	ld	s10,-1904(s0)
    1af0:	01a50d33          	add	s10,a0,s10
    1af4:	89a43823          	sd	s10,-1904(s0)
    1af8:	f7043503          	ld	a0,-144(s0)
    1afc:	02a98533          	mul	a0,s3,a0
    1b00:	88043d03          	ld	s10,-1920(s0)
    1b04:	01a50d33          	add	s10,a0,s10
    1b08:	89a43023          	sd	s10,-1920(s0)
    1b0c:	f8043a03          	ld	s4,-128(s0)
    1b10:	03498533          	mul	a0,s3,s4
    1b14:	87043d03          	ld	s10,-1936(s0)
    1b18:	01a50d33          	add	s10,a0,s10
    1b1c:	87a43823          	sd	s10,-1936(s0)
    1b20:	e4043703          	ld	a4,-448(s0)
    1b24:	02e98533          	mul	a0,s3,a4
    1b28:	86043d03          	ld	s10,-1952(s0)
    1b2c:	01a50d33          	add	s10,a0,s10
    1b30:	87a43023          	sd	s10,-1952(s0)
    1b34:	03198533          	mul	a0,s3,a7
    1b38:	85843d03          	ld	s10,-1960(s0)
    1b3c:	01a50d33          	add	s10,a0,s10
    1b40:	85a43c23          	sd	s10,-1960(s0)
    1b44:	f5843c83          	ld	s9,-168(s0)
    1b48:	03998533          	mul	a0,s3,s9
    1b4c:	85043d03          	ld	s10,-1968(s0)
    1b50:	01a50d33          	add	s10,a0,s10
    1b54:	85a43823          	sd	s10,-1968(s0)
    1b58:	df043c03          	ld	s8,-528(s0)
    1b5c:	03898533          	mul	a0,s3,s8
    1b60:	84843d03          	ld	s10,-1976(s0)
    1b64:	01a50d33          	add	s10,a0,s10
    1b68:	85a43423          	sd	s10,-1976(s0)
    1b6c:	df843b83          	ld	s7,-520(s0)
    1b70:	03798533          	mul	a0,s3,s7
    1b74:	84043d03          	ld	s10,-1984(s0)
    1b78:	01a50d33          	add	s10,a0,s10
    1b7c:	85a43023          	sd	s10,-1984(s0)
    1b80:	e0043b03          	ld	s6,-512(s0)
    1b84:	03698533          	mul	a0,s3,s6
    1b88:	83843d03          	ld	s10,-1992(s0)
    1b8c:	01a50d33          	add	s10,a0,s10
    1b90:	83a43c23          	sd	s10,-1992(s0)
    1b94:	e4843f03          	ld	t5,-440(s0)
    1b98:	03e98533          	mul	a0,s3,t5
    1b9c:	83043d03          	ld	s10,-2000(s0)
    1ba0:	01a50d33          	add	s10,a0,s10
    1ba4:	83a43823          	sd	s10,-2000(s0)
    1ba8:	02698533          	mul	a0,s3,t1
    1bac:	82843d03          	ld	s10,-2008(s0)
    1bb0:	01a50d33          	add	s10,a0,s10
    1bb4:	83a43423          	sd	s10,-2008(s0)
    1bb8:	e7c43023          	sd	t3,-416(s0)
    1bbc:	03c98533          	mul	a0,s3,t3
    1bc0:	82043d03          	ld	s10,-2016(s0)
    1bc4:	01a50d33          	add	s10,a0,s10
    1bc8:	83a43023          	sd	s10,-2016(s0)
    1bcc:	02798533          	mul	a0,s3,t2
    1bd0:	81843d03          	ld	s10,-2024(s0)
    1bd4:	01a50d33          	add	s10,a0,s10
    1bd8:	81a43c23          	sd	s10,-2024(s0)
    1bdc:	e5043c23          	sd	a6,-424(s0)
    1be0:	03098533          	mul	a0,s3,a6
    1be4:	81043d03          	ld	s10,-2032(s0)
    1be8:	01a50d33          	add	s10,a0,s10
    1bec:	81a43823          	sd	s10,-2032(s0)
    1bf0:	e6843503          	ld	a0,-408(s0)
    1bf4:	02a98533          	mul	a0,s3,a0
    1bf8:	80843d03          	ld	s10,-2040(s0)
    1bfc:	01a50d33          	add	s10,a0,s10
    1c00:	81a43423          	sd	s10,-2040(s0)
    1c04:	02998533          	mul	a0,s3,s1
    1c08:	80043d03          	ld	s10,-2048(s0)
    1c0c:	01a50d33          	add	s10,a0,s10
    1c10:	81a43023          	sd	s10,-2048(s0)
    1c14:	f3843503          	ld	a0,-200(s0)
    1c18:	02a98533          	mul	a0,s3,a0
    1c1c:	000016b7          	lui	a3,0x1
    1c20:	40d406b3          	sub	a3,s0,a3
    1c24:	7f86bd03          	ld	s10,2040(a3) # 17f8 <.LBB45_3+0x2e0>
    1c28:	01a50d33          	add	s10,a0,s10
    1c2c:	00001537          	lui	a0,0x1
    1c30:	40a40533          	sub	a0,s0,a0
    1c34:	7fa53c23          	sd	s10,2040(a0) # 17f8 <.LBB45_3+0x2e0>
    1c38:	e7043503          	ld	a0,-400(s0)
    1c3c:	02a98533          	mul	a0,s3,a0
    1c40:	000016b7          	lui	a3,0x1
    1c44:	40d406b3          	sub	a3,s0,a3
    1c48:	7f06bd03          	ld	s10,2032(a3) # 17f0 <.LBB45_3+0x2d8>
    1c4c:	01a50d33          	add	s10,a0,s10
    1c50:	00001537          	lui	a0,0x1
    1c54:	40a40533          	sub	a0,s0,a0
    1c58:	7fa53823          	sd	s10,2032(a0) # 17f0 <.LBB45_3+0x2d8>
    1c5c:	f6843503          	ld	a0,-152(s0)
    1c60:	02a98533          	mul	a0,s3,a0
    1c64:	000016b7          	lui	a3,0x1
    1c68:	40d406b3          	sub	a3,s0,a3
    1c6c:	7e86bd03          	ld	s10,2024(a3) # 17e8 <.LBB45_3+0x2d0>
    1c70:	01a50d33          	add	s10,a0,s10
    1c74:	00001537          	lui	a0,0x1
    1c78:	40a40533          	sub	a0,s0,a0
    1c7c:	7fa53423          	sd	s10,2024(a0) # 17e8 <.LBB45_3+0x2d0>
    1c80:	03f98533          	mul	a0,s3,t6
    1c84:	000016b7          	lui	a3,0x1
    1c88:	40d406b3          	sub	a3,s0,a3
    1c8c:	7e06bd03          	ld	s10,2016(a3) # 17e0 <.LBB45_3+0x2c8>
    1c90:	01a50d33          	add	s10,a0,s10
    1c94:	00001537          	lui	a0,0x1
    1c98:	40a40533          	sub	a0,s0,a0
    1c9c:	7fa53023          	sd	s10,2016(a0) # 17e0 <.LBB45_3+0x2c8>
    1ca0:	f4843503          	ld	a0,-184(s0)
    1ca4:	02a98533          	mul	a0,s3,a0
    1ca8:	000016b7          	lui	a3,0x1
    1cac:	40d406b3          	sub	a3,s0,a3
    1cb0:	7d86bd03          	ld	s10,2008(a3) # 17d8 <.LBB45_3+0x2c0>
    1cb4:	01a50d33          	add	s10,a0,s10
    1cb8:	00001537          	lui	a0,0x1
    1cbc:	40a40533          	sub	a0,s0,a0
    1cc0:	7da53c23          	sd	s10,2008(a0) # 17d8 <.LBB45_3+0x2c0>
    1cc4:	e5043783          	ld	a5,-432(s0)
    1cc8:	02f98533          	mul	a0,s3,a5
    1ccc:	000016b7          	lui	a3,0x1
    1cd0:	40d406b3          	sub	a3,s0,a3
    1cd4:	7c86bd03          	ld	s10,1992(a3) # 17c8 <.LBB45_3+0x2b0>
    1cd8:	01a50d33          	add	s10,a0,s10
    1cdc:	00001537          	lui	a0,0x1
    1ce0:	40a40533          	sub	a0,s0,a0
    1ce4:	7da53423          	sd	s10,1992(a0) # 17c8 <.LBB45_3+0x2b0>
    1ce8:	e3043683          	ld	a3,-464(s0)
    1cec:	02d98533          	mul	a0,s3,a3
    1cf0:	000018b7          	lui	a7,0x1
    1cf4:	411408b3          	sub	a7,s0,a7
    1cf8:	7b88bd03          	ld	s10,1976(a7) # 17b8 <.LBB45_3+0x2a0>
    1cfc:	01a50d33          	add	s10,a0,s10
    1d00:	00001537          	lui	a0,0x1
    1d04:	40a40533          	sub	a0,s0,a0
    1d08:	7ba53c23          	sd	s10,1976(a0) # 17b8 <.LBB45_3+0x2a0>
    1d0c:	f6043503          	ld	a0,-160(s0)
    1d10:	02a98533          	mul	a0,s3,a0
    1d14:	000018b7          	lui	a7,0x1
    1d18:	411408b3          	sub	a7,s0,a7
    1d1c:	7b08bd03          	ld	s10,1968(a7) # 17b0 <.LBB45_3+0x298>
    1d20:	01a50d33          	add	s10,a0,s10
    1d24:	00001537          	lui	a0,0x1
    1d28:	40a40533          	sub	a0,s0,a0
    1d2c:	7ba53823          	sd	s10,1968(a0) # 17b0 <.LBB45_3+0x298>
    1d30:	03598533          	mul	a0,s3,s5
    1d34:	000018b7          	lui	a7,0x1
    1d38:	411408b3          	sub	a7,s0,a7
    1d3c:	7a88bd03          	ld	s10,1960(a7) # 17a8 <.LBB45_3+0x290>
    1d40:	01a50d33          	add	s10,a0,s10
    1d44:	00001537          	lui	a0,0x1
    1d48:	40a40533          	sub	a0,s0,a0
    1d4c:	7ba53423          	sd	s10,1960(a0) # 17a8 <.LBB45_3+0x290>
    1d50:	02198533          	mul	a0,s3,ra
    1d54:	000018b7          	lui	a7,0x1
    1d58:	411408b3          	sub	a7,s0,a7
    1d5c:	7988bd03          	ld	s10,1944(a7) # 1798 <.LBB45_3+0x280>
    1d60:	01a50d33          	add	s10,a0,s10
    1d64:	00001537          	lui	a0,0x1
    1d68:	40a40533          	sub	a0,s0,a0
    1d6c:	79a53c23          	sd	s10,1944(a0) # 1798 <.LBB45_3+0x280>
    1d70:	f8843503          	ld	a0,-120(s0)
    1d74:	18050503          	lb	a0,384(a0)
    1d78:	03298db3          	mul	s11,s3,s2
    1d7c:	000018b7          	lui	a7,0x1
    1d80:	411408b3          	sub	a7,s0,a7
    1d84:	7888bd03          	ld	s10,1928(a7) # 1788 <.LBB45_3+0x270>
    1d88:	01ad8d33          	add	s10,s11,s10
    1d8c:	000018b7          	lui	a7,0x1
    1d90:	411408b3          	sub	a7,s0,a7
    1d94:	79a8b423          	sd	s10,1928(a7) # 1788 <.LBB45_3+0x270>
    1d98:	025989b3          	mul	s3,s3,t0
    1d9c:	000018b7          	lui	a7,0x1
    1da0:	411408b3          	sub	a7,s0,a7
    1da4:	7788bd03          	ld	s10,1912(a7) # 1778 <.LBB45_3+0x260>
    1da8:	01a98d33          	add	s10,s3,s10
    1dac:	000018b7          	lui	a7,0x1
    1db0:	411408b3          	sub	a7,s0,a7
    1db4:	77a8bc23          	sd	s10,1912(a7) # 1778 <.LBB45_3+0x260>
    1db8:	e2843083          	ld	ra,-472(s0)
    1dbc:	021509b3          	mul	s3,a0,ra
    1dc0:	9c043d03          	ld	s10,-1600(s0)
    1dc4:	01a98d33          	add	s10,s3,s10
    1dc8:	9da43023          	sd	s10,-1600(s0)
    1dcc:	02c509b3          	mul	s3,a0,a2
    1dd0:	9d043d03          	ld	s10,-1584(s0)
    1dd4:	01a98d33          	add	s10,s3,s10
    1dd8:	9da43823          	sd	s10,-1584(s0)
    1ddc:	02b509b3          	mul	s3,a0,a1
    1de0:	9b043d03          	ld	s10,-1616(s0)
    1de4:	01a98d33          	add	s10,s3,s10
    1de8:	9ba43823          	sd	s10,-1616(s0)
    1dec:	f7843903          	ld	s2,-136(s0)
    1df0:	032509b3          	mul	s3,a0,s2
    1df4:	9a043d03          	ld	s10,-1632(s0)
    1df8:	01a98d33          	add	s10,s3,s10
    1dfc:	9ba43023          	sd	s10,-1632(s0)
    1e00:	f2843a83          	ld	s5,-216(s0)
    1e04:	035509b3          	mul	s3,a0,s5
    1e08:	99043d03          	ld	s10,-1648(s0)
    1e0c:	01a98d33          	add	s10,s3,s10
    1e10:	99a43823          	sd	s10,-1648(s0)
    1e14:	f7043883          	ld	a7,-144(s0)
    1e18:	031509b3          	mul	s3,a0,a7
    1e1c:	98043d03          	ld	s10,-1664(s0)
    1e20:	01a98d33          	add	s10,s3,s10
    1e24:	99a43023          	sd	s10,-1664(s0)
    1e28:	034509b3          	mul	s3,a0,s4
    1e2c:	97043d03          	ld	s10,-1680(s0)
    1e30:	01a98d33          	add	s10,s3,s10
    1e34:	97a43823          	sd	s10,-1680(s0)
    1e38:	02e509b3          	mul	s3,a0,a4
    1e3c:	00070a13          	mv	s4,a4
    1e40:	96043d03          	ld	s10,-1696(s0)
    1e44:	01a98d33          	add	s10,s3,s10
    1e48:	97a43023          	sd	s10,-1696(s0)
    1e4c:	f4043283          	ld	t0,-192(s0)
    1e50:	025509b3          	mul	s3,a0,t0
    1e54:	95843d03          	ld	s10,-1704(s0)
    1e58:	01a98d33          	add	s10,s3,s10
    1e5c:	95a43c23          	sd	s10,-1704(s0)
    1e60:	039509b3          	mul	s3,a0,s9
    1e64:	95043d03          	ld	s10,-1712(s0)
    1e68:	01a98d33          	add	s10,s3,s10
    1e6c:	95a43823          	sd	s10,-1712(s0)
    1e70:	038509b3          	mul	s3,a0,s8
    1e74:	94843d03          	ld	s10,-1720(s0)
    1e78:	01a98d33          	add	s10,s3,s10
    1e7c:	95a43423          	sd	s10,-1720(s0)
    1e80:	037509b3          	mul	s3,a0,s7
    1e84:	94043d03          	ld	s10,-1728(s0)
    1e88:	01a98d33          	add	s10,s3,s10
    1e8c:	95a43023          	sd	s10,-1728(s0)
    1e90:	036509b3          	mul	s3,a0,s6
    1e94:	93843d03          	ld	s10,-1736(s0)
    1e98:	01a98d33          	add	s10,s3,s10
    1e9c:	93a43c23          	sd	s10,-1736(s0)
    1ea0:	03e509b3          	mul	s3,a0,t5
    1ea4:	93043d03          	ld	s10,-1744(s0)
    1ea8:	01a98d33          	add	s10,s3,s10
    1eac:	93a43823          	sd	s10,-1744(s0)
    1eb0:	026509b3          	mul	s3,a0,t1
    1eb4:	92843d03          	ld	s10,-1752(s0)
    1eb8:	01a98d33          	add	s10,s3,s10
    1ebc:	93a43423          	sd	s10,-1752(s0)
    1ec0:	03c509b3          	mul	s3,a0,t3
    1ec4:	92043d03          	ld	s10,-1760(s0)
    1ec8:	01a98d33          	add	s10,s3,s10
    1ecc:	93a43023          	sd	s10,-1760(s0)
    1ed0:	027509b3          	mul	s3,a0,t2
    1ed4:	91843d03          	ld	s10,-1768(s0)
    1ed8:	01a98d33          	add	s10,s3,s10
    1edc:	91a43c23          	sd	s10,-1768(s0)
    1ee0:	030509b3          	mul	s3,a0,a6
    1ee4:	91043d03          	ld	s10,-1776(s0)
    1ee8:	01a98d33          	add	s10,s3,s10
    1eec:	91a43823          	sd	s10,-1776(s0)
    1ef0:	e6843f83          	ld	t6,-408(s0)
    1ef4:	03f509b3          	mul	s3,a0,t6
    1ef8:	90843d03          	ld	s10,-1784(s0)
    1efc:	01a98d33          	add	s10,s3,s10
    1f00:	91a43423          	sd	s10,-1784(s0)
    1f04:	029509b3          	mul	s3,a0,s1
    1f08:	90043d03          	ld	s10,-1792(s0)
    1f0c:	01a98d33          	add	s10,s3,s10
    1f10:	91a43023          	sd	s10,-1792(s0)
    1f14:	f3843583          	ld	a1,-200(s0)
    1f18:	02b509b3          	mul	s3,a0,a1
    1f1c:	8f843d03          	ld	s10,-1800(s0)
    1f20:	01a98d33          	add	s10,s3,s10
    1f24:	8fa43c23          	sd	s10,-1800(s0)
    1f28:	e7043703          	ld	a4,-400(s0)
    1f2c:	02e509b3          	mul	s3,a0,a4
    1f30:	8f043d03          	ld	s10,-1808(s0)
    1f34:	01a98d33          	add	s10,s3,s10
    1f38:	8fa43823          	sd	s10,-1808(s0)
    1f3c:	f6843483          	ld	s1,-152(s0)
    1f40:	029509b3          	mul	s3,a0,s1
    1f44:	8e843d03          	ld	s10,-1816(s0)
    1f48:	01a98d33          	add	s10,s3,s10
    1f4c:	8fa43423          	sd	s10,-1816(s0)
    1f50:	de843e03          	ld	t3,-536(s0)
    1f54:	03c509b3          	mul	s3,a0,t3
    1f58:	8e043d03          	ld	s10,-1824(s0)
    1f5c:	01a98d33          	add	s10,s3,s10
    1f60:	8fa43023          	sd	s10,-1824(s0)
    1f64:	f4843803          	ld	a6,-184(s0)
    1f68:	030509b3          	mul	s3,a0,a6
    1f6c:	8d843d03          	ld	s10,-1832(s0)
    1f70:	01a98d33          	add	s10,s3,s10
    1f74:	8da43c23          	sd	s10,-1832(s0)
    1f78:	02f509b3          	mul	s3,a0,a5
    1f7c:	8c843d03          	ld	s10,-1848(s0)
    1f80:	01a98d33          	add	s10,s3,s10
    1f84:	8da43423          	sd	s10,-1848(s0)
    1f88:	02d509b3          	mul	s3,a0,a3
    1f8c:	8b843d03          	ld	s10,-1864(s0)
    1f90:	01a98d33          	add	s10,s3,s10
    1f94:	8ba43c23          	sd	s10,-1864(s0)
    1f98:	f6043c83          	ld	s9,-160(s0)
    1f9c:	039509b3          	mul	s3,a0,s9
    1fa0:	8a843d03          	ld	s10,-1880(s0)
    1fa4:	01a98d33          	add	s10,s3,s10
    1fa8:	8ba43423          	sd	s10,-1880(s0)
    1fac:	e1843683          	ld	a3,-488(s0)
    1fb0:	02d509b3          	mul	s3,a0,a3
    1fb4:	89843d03          	ld	s10,-1896(s0)
    1fb8:	01a98d33          	add	s10,s3,s10
    1fbc:	89a43c23          	sd	s10,-1896(s0)
    1fc0:	e2043583          	ld	a1,-480(s0)
    1fc4:	02b509b3          	mul	s3,a0,a1
    1fc8:	88843d03          	ld	s10,-1912(s0)
    1fcc:	01a98d33          	add	s10,s3,s10
    1fd0:	89a43423          	sd	s10,-1912(s0)
    1fd4:	f8843583          	ld	a1,-120(s0)
    1fd8:	24058983          	lb	s3,576(a1)
    1fdc:	f5043583          	ld	a1,-176(s0)
    1fe0:	02b50db3          	mul	s11,a0,a1
    1fe4:	87843d03          	ld	s10,-1928(s0)
    1fe8:	01ad8d33          	add	s10,s11,s10
    1fec:	87a43c23          	sd	s10,-1928(s0)
    1ff0:	000015b7          	lui	a1,0x1
    1ff4:	40b405b3          	sub	a1,s0,a1
    1ff8:	6805b783          	ld	a5,1664(a1) # 1680 <.LBB45_3+0x168>
    1ffc:	02f50533          	mul	a0,a0,a5
    2000:	86843d03          	ld	s10,-1944(s0)
    2004:	01a50d33          	add	s10,a0,s10
    2008:	87a43423          	sd	s10,-1944(s0)
    200c:	02198533          	mul	a0,s3,ra
    2010:	ac043d03          	ld	s10,-1344(s0)
    2014:	01a50d33          	add	s10,a0,s10
    2018:	ada43023          	sd	s10,-1344(s0)
    201c:	02c98533          	mul	a0,s3,a2
    2020:	ad043d03          	ld	s10,-1328(s0)
    2024:	01a50d33          	add	s10,a0,s10
    2028:	ada43823          	sd	s10,-1328(s0)
    202c:	f2043583          	ld	a1,-224(s0)
    2030:	02b98533          	mul	a0,s3,a1
    2034:	ab043d03          	ld	s10,-1360(s0)
    2038:	01a50d33          	add	s10,a0,s10
    203c:	aba43823          	sd	s10,-1360(s0)
    2040:	03298533          	mul	a0,s3,s2
    2044:	aa043d03          	ld	s10,-1376(s0)
    2048:	01a50d33          	add	s10,a0,s10
    204c:	aba43023          	sd	s10,-1376(s0)
    2050:	03598533          	mul	a0,s3,s5
    2054:	a9043d03          	ld	s10,-1392(s0)
    2058:	01a50d33          	add	s10,a0,s10
    205c:	a9a43823          	sd	s10,-1392(s0)
    2060:	03198533          	mul	a0,s3,a7
    2064:	a8043d03          	ld	s10,-1408(s0)
    2068:	01a50d33          	add	s10,a0,s10
    206c:	a9a43023          	sd	s10,-1408(s0)
    2070:	f8043503          	ld	a0,-128(s0)
    2074:	02a98533          	mul	a0,s3,a0
    2078:	a7043d03          	ld	s10,-1424(s0)
    207c:	01a50d33          	add	s10,a0,s10
    2080:	a7a43823          	sd	s10,-1424(s0)
    2084:	03498533          	mul	a0,s3,s4
    2088:	a6043d03          	ld	s10,-1440(s0)
    208c:	01a50d33          	add	s10,a0,s10
    2090:	a7a43023          	sd	s10,-1440(s0)
    2094:	02598533          	mul	a0,s3,t0
    2098:	a5843d03          	ld	s10,-1448(s0)
    209c:	01a50d33          	add	s10,a0,s10
    20a0:	a5a43c23          	sd	s10,-1448(s0)
    20a4:	f5843503          	ld	a0,-168(s0)
    20a8:	02a98533          	mul	a0,s3,a0
    20ac:	a5043d03          	ld	s10,-1456(s0)
    20b0:	01a50d33          	add	s10,a0,s10
    20b4:	a5a43823          	sd	s10,-1456(s0)
    20b8:	03898533          	mul	a0,s3,s8
    20bc:	a4843d03          	ld	s10,-1464(s0)
    20c0:	01a50d33          	add	s10,a0,s10
    20c4:	a5a43423          	sd	s10,-1464(s0)
    20c8:	03798533          	mul	a0,s3,s7
    20cc:	a4043d03          	ld	s10,-1472(s0)
    20d0:	01a50d33          	add	s10,a0,s10
    20d4:	a5a43023          	sd	s10,-1472(s0)
    20d8:	03698533          	mul	a0,s3,s6
    20dc:	a3843d03          	ld	s10,-1480(s0)
    20e0:	01a50d33          	add	s10,a0,s10
    20e4:	a3a43c23          	sd	s10,-1480(s0)
    20e8:	03e98533          	mul	a0,s3,t5
    20ec:	a3043d03          	ld	s10,-1488(s0)
    20f0:	01a50d33          	add	s10,a0,s10
    20f4:	a3a43823          	sd	s10,-1488(s0)
    20f8:	e0643823          	sd	t1,-496(s0)
    20fc:	02698533          	mul	a0,s3,t1
    2100:	a2843d03          	ld	s10,-1496(s0)
    2104:	01a50d33          	add	s10,a0,s10
    2108:	a3a43423          	sd	s10,-1496(s0)
    210c:	e6043083          	ld	ra,-416(s0)
    2110:	02198533          	mul	a0,s3,ra
    2114:	a2043d03          	ld	s10,-1504(s0)
    2118:	01a50d33          	add	s10,a0,s10
    211c:	a3a43023          	sd	s10,-1504(s0)
    2120:	e0743423          	sd	t2,-504(s0)
    2124:	02798533          	mul	a0,s3,t2
    2128:	a1843d03          	ld	s10,-1512(s0)
    212c:	01a50d33          	add	s10,a0,s10
    2130:	a1a43c23          	sd	s10,-1512(s0)
    2134:	e5843a03          	ld	s4,-424(s0)
    2138:	03498533          	mul	a0,s3,s4
    213c:	a1043d03          	ld	s10,-1520(s0)
    2140:	01a50d33          	add	s10,a0,s10
    2144:	a1a43823          	sd	s10,-1520(s0)
    2148:	03f98533          	mul	a0,s3,t6
    214c:	a0843d03          	ld	s10,-1528(s0)
    2150:	01a50d33          	add	s10,a0,s10
    2154:	a1a43423          	sd	s10,-1528(s0)
    2158:	f3043903          	ld	s2,-208(s0)
    215c:	03298533          	mul	a0,s3,s2
    2160:	a0043d03          	ld	s10,-1536(s0)
    2164:	01a50d33          	add	s10,a0,s10
    2168:	a1a43023          	sd	s10,-1536(s0)
    216c:	f3843f83          	ld	t6,-200(s0)
    2170:	03f98533          	mul	a0,s3,t6
    2174:	9f843d03          	ld	s10,-1544(s0)
    2178:	01a50d33          	add	s10,a0,s10
    217c:	9fa43c23          	sd	s10,-1544(s0)
    2180:	02e98533          	mul	a0,s3,a4
    2184:	9f043d03          	ld	s10,-1552(s0)
    2188:	01a50d33          	add	s10,a0,s10
    218c:	9fa43823          	sd	s10,-1552(s0)
    2190:	02998533          	mul	a0,s3,s1
    2194:	9e843d03          	ld	s10,-1560(s0)
    2198:	01a50d33          	add	s10,a0,s10
    219c:	9fa43423          	sd	s10,-1560(s0)
    21a0:	03c98533          	mul	a0,s3,t3
    21a4:	9e043d03          	ld	s10,-1568(s0)
    21a8:	01a50d33          	add	s10,a0,s10
    21ac:	9fa43023          	sd	s10,-1568(s0)
    21b0:	03098533          	mul	a0,s3,a6
    21b4:	9d843d03          	ld	s10,-1576(s0)
    21b8:	01a50d33          	add	s10,a0,s10
    21bc:	9da43c23          	sd	s10,-1576(s0)
    21c0:	e5043503          	ld	a0,-432(s0)
    21c4:	02a98533          	mul	a0,s3,a0
    21c8:	9c843d03          	ld	s10,-1592(s0)
    21cc:	01a50d33          	add	s10,a0,s10
    21d0:	9da43423          	sd	s10,-1592(s0)
    21d4:	e3043803          	ld	a6,-464(s0)
    21d8:	03098533          	mul	a0,s3,a6
    21dc:	9b843d03          	ld	s10,-1608(s0)
    21e0:	01a50d33          	add	s10,a0,s10
    21e4:	9ba43c23          	sd	s10,-1608(s0)
    21e8:	03998533          	mul	a0,s3,s9
    21ec:	9a843d03          	ld	s10,-1624(s0)
    21f0:	01a50d33          	add	s10,a0,s10
    21f4:	9ba43423          	sd	s10,-1624(s0)
    21f8:	02d98533          	mul	a0,s3,a3
    21fc:	99843d03          	ld	s10,-1640(s0)
    2200:	01a50d33          	add	s10,a0,s10
    2204:	99a43c23          	sd	s10,-1640(s0)
    2208:	e2043883          	ld	a7,-480(s0)
    220c:	03198533          	mul	a0,s3,a7
    2210:	98843d03          	ld	s10,-1656(s0)
    2214:	01a50d33          	add	s10,a0,s10
    2218:	99a43423          	sd	s10,-1656(s0)
    221c:	f8843703          	ld	a4,-120(s0)
    2220:	30070503          	lb	a0,768(a4)
    2224:	f5043483          	ld	s1,-176(s0)
    2228:	02998db3          	mul	s11,s3,s1
    222c:	97843d03          	ld	s10,-1672(s0)
    2230:	01ad8d33          	add	s10,s11,s10
    2234:	97a43c23          	sd	s10,-1672(s0)
    2238:	00078293          	mv	t0,a5
    223c:	02f989b3          	mul	s3,s3,a5
    2240:	96843d03          	ld	s10,-1688(s0)
    2244:	01a98d33          	add	s10,s3,s10
    2248:	97a43423          	sd	s10,-1688(s0)
    224c:	e2843c83          	ld	s9,-472(s0)
    2250:	039509b3          	mul	s3,a0,s9
    2254:	bc043d03          	ld	s10,-1088(s0)
    2258:	01a98d33          	add	s10,s3,s10
    225c:	bda43023          	sd	s10,-1088(s0)
    2260:	02c509b3          	mul	s3,a0,a2
    2264:	bd043d03          	ld	s10,-1072(s0)
    2268:	01a98d33          	add	s10,s3,s10
    226c:	bda43823          	sd	s10,-1072(s0)
    2270:	02b509b3          	mul	s3,a0,a1
    2274:	bb043d03          	ld	s10,-1104(s0)
    2278:	01a98d33          	add	s10,s3,s10
    227c:	bba43823          	sd	s10,-1104(s0)
    2280:	f7843583          	ld	a1,-136(s0)
    2284:	02b509b3          	mul	s3,a0,a1
    2288:	ba043d03          	ld	s10,-1120(s0)
    228c:	01a98d33          	add	s10,s3,s10
    2290:	bba43023          	sd	s10,-1120(s0)
    2294:	035509b3          	mul	s3,a0,s5
    2298:	b9043d03          	ld	s10,-1136(s0)
    229c:	01a98d33          	add	s10,s3,s10
    22a0:	b9a43823          	sd	s10,-1136(s0)
    22a4:	f7043a83          	ld	s5,-144(s0)
    22a8:	035509b3          	mul	s3,a0,s5
    22ac:	b8043d03          	ld	s10,-1152(s0)
    22b0:	01a98d33          	add	s10,s3,s10
    22b4:	b9a43023          	sd	s10,-1152(s0)
    22b8:	f8043683          	ld	a3,-128(s0)
    22bc:	02d509b3          	mul	s3,a0,a3
    22c0:	b7043d03          	ld	s10,-1168(s0)
    22c4:	01a98d33          	add	s10,s3,s10
    22c8:	b7a43823          	sd	s10,-1168(s0)
    22cc:	e4043783          	ld	a5,-448(s0)
    22d0:	02f509b3          	mul	s3,a0,a5
    22d4:	b6043d03          	ld	s10,-1184(s0)
    22d8:	01a98d33          	add	s10,s3,s10
    22dc:	b7a43023          	sd	s10,-1184(s0)
    22e0:	f4043583          	ld	a1,-192(s0)
    22e4:	02b509b3          	mul	s3,a0,a1
    22e8:	b5843d03          	ld	s10,-1192(s0)
    22ec:	01a98d33          	add	s10,s3,s10
    22f0:	b5a43c23          	sd	s10,-1192(s0)
    22f4:	f5843603          	ld	a2,-168(s0)
    22f8:	02c509b3          	mul	s3,a0,a2
    22fc:	b5043d03          	ld	s10,-1200(s0)
    2300:	01a98d33          	add	s10,s3,s10
    2304:	b5a43823          	sd	s10,-1200(s0)
    2308:	038509b3          	mul	s3,a0,s8
    230c:	b4843d03          	ld	s10,-1208(s0)
    2310:	01a98d33          	add	s10,s3,s10
    2314:	b5a43423          	sd	s10,-1208(s0)
    2318:	037509b3          	mul	s3,a0,s7
    231c:	b4043d03          	ld	s10,-1216(s0)
    2320:	01a98d33          	add	s10,s3,s10
    2324:	b5a43023          	sd	s10,-1216(s0)
    2328:	036509b3          	mul	s3,a0,s6
    232c:	b3843d03          	ld	s10,-1224(s0)
    2330:	01a98d33          	add	s10,s3,s10
    2334:	b3a43c23          	sd	s10,-1224(s0)
    2338:	03e509b3          	mul	s3,a0,t5
    233c:	b3043d03          	ld	s10,-1232(s0)
    2340:	01a98d33          	add	s10,s3,s10
    2344:	b3a43823          	sd	s10,-1232(s0)
    2348:	026509b3          	mul	s3,a0,t1
    234c:	b2843d03          	ld	s10,-1240(s0)
    2350:	01a98d33          	add	s10,s3,s10
    2354:	b3a43423          	sd	s10,-1240(s0)
    2358:	021509b3          	mul	s3,a0,ra
    235c:	b2043d03          	ld	s10,-1248(s0)
    2360:	01a98d33          	add	s10,s3,s10
    2364:	b3a43023          	sd	s10,-1248(s0)
    2368:	027509b3          	mul	s3,a0,t2
    236c:	b1843d03          	ld	s10,-1256(s0)
    2370:	01a98d33          	add	s10,s3,s10
    2374:	b1a43c23          	sd	s10,-1256(s0)
    2378:	034509b3          	mul	s3,a0,s4
    237c:	b1043d03          	ld	s10,-1264(s0)
    2380:	01a98d33          	add	s10,s3,s10
    2384:	b1a43823          	sd	s10,-1264(s0)
    2388:	e6843303          	ld	t1,-408(s0)
    238c:	026509b3          	mul	s3,a0,t1
    2390:	b0843d03          	ld	s10,-1272(s0)
    2394:	01a98d33          	add	s10,s3,s10
    2398:	b1a43423          	sd	s10,-1272(s0)
    239c:	032509b3          	mul	s3,a0,s2
    23a0:	b0043d03          	ld	s10,-1280(s0)
    23a4:	01a98d33          	add	s10,s3,s10
    23a8:	b1a43023          	sd	s10,-1280(s0)
    23ac:	03f509b3          	mul	s3,a0,t6
    23b0:	af843d03          	ld	s10,-1288(s0)
    23b4:	01a98d33          	add	s10,s3,s10
    23b8:	afa43c23          	sd	s10,-1288(s0)
    23bc:	e7043583          	ld	a1,-400(s0)
    23c0:	02b509b3          	mul	s3,a0,a1
    23c4:	af043d03          	ld	s10,-1296(s0)
    23c8:	01a98d33          	add	s10,s3,s10
    23cc:	afa43823          	sd	s10,-1296(s0)
    23d0:	f6843903          	ld	s2,-152(s0)
    23d4:	032509b3          	mul	s3,a0,s2
    23d8:	ae843d03          	ld	s10,-1304(s0)
    23dc:	01a98d33          	add	s10,s3,s10
    23e0:	afa43423          	sd	s10,-1304(s0)
    23e4:	03c509b3          	mul	s3,a0,t3
    23e8:	ae043d03          	ld	s10,-1312(s0)
    23ec:	01a98d33          	add	s10,s3,s10
    23f0:	afa43023          	sd	s10,-1312(s0)
    23f4:	f4843f03          	ld	t5,-184(s0)
    23f8:	03e509b3          	mul	s3,a0,t5
    23fc:	ad843d03          	ld	s10,-1320(s0)
    2400:	01a98d33          	add	s10,s3,s10
    2404:	ada43c23          	sd	s10,-1320(s0)
    2408:	e5043b03          	ld	s6,-432(s0)
    240c:	036509b3          	mul	s3,a0,s6
    2410:	ac843d03          	ld	s10,-1336(s0)
    2414:	01a98d33          	add	s10,s3,s10
    2418:	ada43423          	sd	s10,-1336(s0)
    241c:	00080093          	mv	ra,a6
    2420:	030509b3          	mul	s3,a0,a6
    2424:	ab843d03          	ld	s10,-1352(s0)
    2428:	01a98d33          	add	s10,s3,s10
    242c:	aba43c23          	sd	s10,-1352(s0)
    2430:	f6043383          	ld	t2,-160(s0)
    2434:	027509b3          	mul	s3,a0,t2
    2438:	aa843d03          	ld	s10,-1368(s0)
    243c:	01a98d33          	add	s10,s3,s10
    2440:	aba43423          	sd	s10,-1368(s0)
    2444:	e1843e03          	ld	t3,-488(s0)
    2448:	03c509b3          	mul	s3,a0,t3
    244c:	a9843d03          	ld	s10,-1384(s0)
    2450:	01a98d33          	add	s10,s3,s10
    2454:	a9a43c23          	sd	s10,-1384(s0)
    2458:	031509b3          	mul	s3,a0,a7
    245c:	a8843d03          	ld	s10,-1400(s0)
    2460:	01a98d33          	add	s10,s3,s10
    2464:	a9a43423          	sd	s10,-1400(s0)
    2468:	3c070983          	lb	s3,960(a4)
    246c:	02950db3          	mul	s11,a0,s1
    2470:	a7843d03          	ld	s10,-1416(s0)
    2474:	01ad8d33          	add	s10,s11,s10
    2478:	a7a43c23          	sd	s10,-1416(s0)
    247c:	00028a13          	mv	s4,t0
    2480:	02550533          	mul	a0,a0,t0
    2484:	a6843d03          	ld	s10,-1432(s0)
    2488:	01a50d33          	add	s10,a0,s10
    248c:	a7a43423          	sd	s10,-1432(s0)
    2490:	03998533          	mul	a0,s3,s9
    2494:	cc043d03          	ld	s10,-832(s0)
    2498:	01a50d33          	add	s10,a0,s10
    249c:	cda43023          	sd	s10,-832(s0)
    24a0:	e3843703          	ld	a4,-456(s0)
    24a4:	02e98533          	mul	a0,s3,a4
    24a8:	cd043d03          	ld	s10,-816(s0)
    24ac:	01a50d33          	add	s10,a0,s10
    24b0:	cda43823          	sd	s10,-816(s0)
    24b4:	f2043803          	ld	a6,-224(s0)
    24b8:	03098533          	mul	a0,s3,a6
    24bc:	cb043d03          	ld	s10,-848(s0)
    24c0:	01a50d33          	add	s10,a0,s10
    24c4:	cba43823          	sd	s10,-848(s0)
    24c8:	f7843283          	ld	t0,-136(s0)
    24cc:	02598533          	mul	a0,s3,t0
    24d0:	ca043d03          	ld	s10,-864(s0)
    24d4:	01a50d33          	add	s10,a0,s10
    24d8:	cba43023          	sd	s10,-864(s0)
    24dc:	f2843883          	ld	a7,-216(s0)
    24e0:	03198533          	mul	a0,s3,a7
    24e4:	c9043d03          	ld	s10,-880(s0)
    24e8:	01a50d33          	add	s10,a0,s10
    24ec:	c9a43823          	sd	s10,-880(s0)
    24f0:	03598533          	mul	a0,s3,s5
    24f4:	c8043d03          	ld	s10,-896(s0)
    24f8:	01a50d33          	add	s10,a0,s10
    24fc:	c9a43023          	sd	s10,-896(s0)
    2500:	02d98533          	mul	a0,s3,a3
    2504:	c7043d03          	ld	s10,-912(s0)
    2508:	01a50d33          	add	s10,a0,s10
    250c:	c7a43823          	sd	s10,-912(s0)
    2510:	02f98533          	mul	a0,s3,a5
    2514:	c6043d03          	ld	s10,-928(s0)
    2518:	01a50d33          	add	s10,a0,s10
    251c:	c7a43023          	sd	s10,-928(s0)
    2520:	f4043683          	ld	a3,-192(s0)
    2524:	02d98533          	mul	a0,s3,a3
    2528:	c5843d03          	ld	s10,-936(s0)
    252c:	01a50d33          	add	s10,a0,s10
    2530:	c5a43c23          	sd	s10,-936(s0)
    2534:	02c98533          	mul	a0,s3,a2
    2538:	c5043d03          	ld	s10,-944(s0)
    253c:	01a50d33          	add	s10,a0,s10
    2540:	c5a43823          	sd	s10,-944(s0)
    2544:	03898533          	mul	a0,s3,s8
    2548:	c4843d03          	ld	s10,-952(s0)
    254c:	01a50d33          	add	s10,a0,s10
    2550:	c5a43423          	sd	s10,-952(s0)
    2554:	03798533          	mul	a0,s3,s7
    2558:	c4043d03          	ld	s10,-960(s0)
    255c:	01a50d33          	add	s10,a0,s10
    2560:	c5a43023          	sd	s10,-960(s0)
    2564:	e0043783          	ld	a5,-512(s0)
    2568:	02f98533          	mul	a0,s3,a5
    256c:	c3843d03          	ld	s10,-968(s0)
    2570:	01a50d33          	add	s10,a0,s10
    2574:	c3a43c23          	sd	s10,-968(s0)
    2578:	e4843503          	ld	a0,-440(s0)
    257c:	02a98533          	mul	a0,s3,a0
    2580:	c3043d03          	ld	s10,-976(s0)
    2584:	01a50d33          	add	s10,a0,s10
    2588:	c3a43823          	sd	s10,-976(s0)
    258c:	e1043503          	ld	a0,-496(s0)
    2590:	02a98533          	mul	a0,s3,a0
    2594:	c2843d03          	ld	s10,-984(s0)
    2598:	01a50d33          	add	s10,a0,s10
    259c:	c3a43423          	sd	s10,-984(s0)
    25a0:	e6043503          	ld	a0,-416(s0)
    25a4:	02a98533          	mul	a0,s3,a0
    25a8:	c2043d03          	ld	s10,-992(s0)
    25ac:	01a50d33          	add	s10,a0,s10
    25b0:	c3a43023          	sd	s10,-992(s0)
    25b4:	e0843503          	ld	a0,-504(s0)
    25b8:	02a98533          	mul	a0,s3,a0
    25bc:	c1843d03          	ld	s10,-1000(s0)
    25c0:	01a50d33          	add	s10,a0,s10
    25c4:	c1a43c23          	sd	s10,-1000(s0)
    25c8:	e5843503          	ld	a0,-424(s0)
    25cc:	02a98533          	mul	a0,s3,a0
    25d0:	c1043d03          	ld	s10,-1008(s0)
    25d4:	01a50d33          	add	s10,a0,s10
    25d8:	c1a43823          	sd	s10,-1008(s0)
    25dc:	02698533          	mul	a0,s3,t1
    25e0:	c0843d03          	ld	s10,-1016(s0)
    25e4:	01a50d33          	add	s10,a0,s10
    25e8:	c1a43423          	sd	s10,-1016(s0)
    25ec:	f3043503          	ld	a0,-208(s0)
    25f0:	02a98533          	mul	a0,s3,a0
    25f4:	c0043d03          	ld	s10,-1024(s0)
    25f8:	01a50d33          	add	s10,a0,s10
    25fc:	c1a43023          	sd	s10,-1024(s0)
    2600:	03f98533          	mul	a0,s3,t6
    2604:	bf843d03          	ld	s10,-1032(s0)
    2608:	01a50d33          	add	s10,a0,s10
    260c:	bfa43c23          	sd	s10,-1032(s0)
    2610:	02b98533          	mul	a0,s3,a1
    2614:	00058a93          	mv	s5,a1
    2618:	bf043d03          	ld	s10,-1040(s0)
    261c:	01a50d33          	add	s10,a0,s10
    2620:	bfa43823          	sd	s10,-1040(s0)
    2624:	03298533          	mul	a0,s3,s2
    2628:	be843d03          	ld	s10,-1048(s0)
    262c:	01a50d33          	add	s10,a0,s10
    2630:	bfa43423          	sd	s10,-1048(s0)
    2634:	de843603          	ld	a2,-536(s0)
    2638:	02c98533          	mul	a0,s3,a2
    263c:	be043d03          	ld	s10,-1056(s0)
    2640:	01a50d33          	add	s10,a0,s10
    2644:	bfa43023          	sd	s10,-1056(s0)
    2648:	03e98533          	mul	a0,s3,t5
    264c:	bd843d03          	ld	s10,-1064(s0)
    2650:	01a50d33          	add	s10,a0,s10
    2654:	bda43c23          	sd	s10,-1064(s0)
    2658:	000b0593          	mv	a1,s6
    265c:	03698533          	mul	a0,s3,s6
    2660:	bc843d03          	ld	s10,-1080(s0)
    2664:	01a50d33          	add	s10,a0,s10
    2668:	bda43423          	sd	s10,-1080(s0)
    266c:	02198533          	mul	a0,s3,ra
    2670:	bb843d03          	ld	s10,-1096(s0)
    2674:	01a50d33          	add	s10,a0,s10
    2678:	bba43c23          	sd	s10,-1096(s0)
    267c:	02798533          	mul	a0,s3,t2
    2680:	ba843d03          	ld	s10,-1112(s0)
    2684:	01a50d33          	add	s10,a0,s10
    2688:	bba43423          	sd	s10,-1112(s0)
    268c:	03c98533          	mul	a0,s3,t3
    2690:	b9843d03          	ld	s10,-1128(s0)
    2694:	01a50d33          	add	s10,a0,s10
    2698:	b9a43c23          	sd	s10,-1128(s0)
    269c:	e2043e03          	ld	t3,-480(s0)
    26a0:	03c98533          	mul	a0,s3,t3
    26a4:	b8843d03          	ld	s10,-1144(s0)
    26a8:	01a50d33          	add	s10,a0,s10
    26ac:	b9a43423          	sd	s10,-1144(s0)
    26b0:	f8843483          	ld	s1,-120(s0)
    26b4:	48048503          	lb	a0,1152(s1)
    26b8:	f5043383          	ld	t2,-176(s0)
    26bc:	02798db3          	mul	s11,s3,t2
    26c0:	b7843d03          	ld	s10,-1160(s0)
    26c4:	01ad8d33          	add	s10,s11,s10
    26c8:	b7a43c23          	sd	s10,-1160(s0)
    26cc:	034989b3          	mul	s3,s3,s4
    26d0:	b6843d03          	ld	s10,-1176(s0)
    26d4:	01a98d33          	add	s10,s3,s10
    26d8:	b7a43423          	sd	s10,-1176(s0)
    26dc:	039509b3          	mul	s3,a0,s9
    26e0:	da043d03          	ld	s10,-608(s0)
    26e4:	01a98d33          	add	s10,s3,s10
    26e8:	dba43023          	sd	s10,-608(s0)
    26ec:	02e509b3          	mul	s3,a0,a4
    26f0:	d8043d03          	ld	s10,-640(s0)
    26f4:	01a98d33          	add	s10,s3,s10
    26f8:	d9a43023          	sd	s10,-640(s0)
    26fc:	030509b3          	mul	s3,a0,a6
    2700:	db043d03          	ld	s10,-592(s0)
    2704:	01a98d33          	add	s10,s3,s10
    2708:	dba43823          	sd	s10,-592(s0)
    270c:	025509b3          	mul	s3,a0,t0
    2710:	00001737          	lui	a4,0x1
    2714:	40e40733          	sub	a4,s0,a4
    2718:	6f073d03          	ld	s10,1776(a4) # 16f0 <.LBB45_3+0x1d8>
    271c:	01a98d33          	add	s10,s3,s10
    2720:	00001737          	lui	a4,0x1
    2724:	40e40733          	sub	a4,s0,a4
    2728:	6fa73823          	sd	s10,1776(a4) # 16f0 <.LBB45_3+0x1d8>
    272c:	031509b3          	mul	s3,a0,a7
    2730:	d9043d03          	ld	s10,-624(s0)
    2734:	01a98d33          	add	s10,s3,s10
    2738:	d9a43823          	sd	s10,-624(s0)
    273c:	f7043703          	ld	a4,-144(s0)
    2740:	02e509b3          	mul	s3,a0,a4
    2744:	00001737          	lui	a4,0x1
    2748:	40e40733          	sub	a4,s0,a4
    274c:	6e873d03          	ld	s10,1768(a4) # 16e8 <.LBB45_3+0x1d0>
    2750:	01a98d33          	add	s10,s3,s10
    2754:	00001737          	lui	a4,0x1
    2758:	40e40733          	sub	a4,s0,a4
    275c:	6fa73423          	sd	s10,1768(a4) # 16e8 <.LBB45_3+0x1d0>
    2760:	f8043703          	ld	a4,-128(s0)
    2764:	02e509b3          	mul	s3,a0,a4
    2768:	d7043d03          	ld	s10,-656(s0)
    276c:	01a98d33          	add	s10,s3,s10
    2770:	d7a43823          	sd	s10,-656(s0)
    2774:	e4043083          	ld	ra,-448(s0)
    2778:	021509b3          	mul	s3,a0,ra
    277c:	d6043d03          	ld	s10,-672(s0)
    2780:	01a98d33          	add	s10,s3,s10
    2784:	d7a43023          	sd	s10,-672(s0)
    2788:	02d509b3          	mul	s3,a0,a3
    278c:	d5843d03          	ld	s10,-680(s0)
    2790:	01a98d33          	add	s10,s3,s10
    2794:	d5a43c23          	sd	s10,-680(s0)
    2798:	f5843c83          	ld	s9,-168(s0)
    279c:	039509b3          	mul	s3,a0,s9
    27a0:	d5043d03          	ld	s10,-688(s0)
    27a4:	01a98d33          	add	s10,s3,s10
    27a8:	d5a43823          	sd	s10,-688(s0)
    27ac:	038509b3          	mul	s3,a0,s8
    27b0:	d4843d03          	ld	s10,-696(s0)
    27b4:	01a98d33          	add	s10,s3,s10
    27b8:	d5a43423          	sd	s10,-696(s0)
    27bc:	037509b3          	mul	s3,a0,s7
    27c0:	d4043d03          	ld	s10,-704(s0)
    27c4:	01a98d33          	add	s10,s3,s10
    27c8:	d5a43023          	sd	s10,-704(s0)
    27cc:	00078c13          	mv	s8,a5
    27d0:	02f509b3          	mul	s3,a0,a5
    27d4:	d3843d03          	ld	s10,-712(s0)
    27d8:	01a98d33          	add	s10,s3,s10
    27dc:	d3a43c23          	sd	s10,-712(s0)
    27e0:	e4843b83          	ld	s7,-440(s0)
    27e4:	037509b3          	mul	s3,a0,s7
    27e8:	d3043d03          	ld	s10,-720(s0)
    27ec:	01a98d33          	add	s10,s3,s10
    27f0:	d3a43823          	sd	s10,-720(s0)
    27f4:	e1043b03          	ld	s6,-496(s0)
    27f8:	036509b3          	mul	s3,a0,s6
    27fc:	d2843d03          	ld	s10,-728(s0)
    2800:	01a98d33          	add	s10,s3,s10
    2804:	d3a43423          	sd	s10,-728(s0)
    2808:	e6043903          	ld	s2,-416(s0)
    280c:	032509b3          	mul	s3,a0,s2
    2810:	d2043d03          	ld	s10,-736(s0)
    2814:	01a98d33          	add	s10,s3,s10
    2818:	d3a43023          	sd	s10,-736(s0)
    281c:	e0843f83          	ld	t6,-504(s0)
    2820:	03f509b3          	mul	s3,a0,t6
    2824:	d1843d03          	ld	s10,-744(s0)
    2828:	01a98d33          	add	s10,s3,s10
    282c:	d1a43c23          	sd	s10,-744(s0)
    2830:	e5843f03          	ld	t5,-424(s0)
    2834:	03e509b3          	mul	s3,a0,t5
    2838:	d1043d03          	ld	s10,-752(s0)
    283c:	01a98d33          	add	s10,s3,s10
    2840:	d1a43823          	sd	s10,-752(s0)
    2844:	026509b3          	mul	s3,a0,t1
    2848:	d0843d03          	ld	s10,-760(s0)
    284c:	01a98d33          	add	s10,s3,s10
    2850:	d1a43423          	sd	s10,-760(s0)
    2854:	f3043883          	ld	a7,-208(s0)
    2858:	031509b3          	mul	s3,a0,a7
    285c:	d0043d03          	ld	s10,-768(s0)
    2860:	01a98d33          	add	s10,s3,s10
    2864:	d1a43023          	sd	s10,-768(s0)
    2868:	f3843803          	ld	a6,-200(s0)
    286c:	030509b3          	mul	s3,a0,a6
    2870:	cf843d03          	ld	s10,-776(s0)
    2874:	01a98d33          	add	s10,s3,s10
    2878:	cfa43c23          	sd	s10,-776(s0)
    287c:	000a8793          	mv	a5,s5
    2880:	035509b3          	mul	s3,a0,s5
    2884:	cf043d03          	ld	s10,-784(s0)
    2888:	01a98d33          	add	s10,s3,s10
    288c:	cfa43823          	sd	s10,-784(s0)
    2890:	f6843703          	ld	a4,-152(s0)
    2894:	02e509b3          	mul	s3,a0,a4
    2898:	ce843d03          	ld	s10,-792(s0)
    289c:	01a98d33          	add	s10,s3,s10
    28a0:	cfa43423          	sd	s10,-792(s0)
    28a4:	02c509b3          	mul	s3,a0,a2
    28a8:	00060a93          	mv	s5,a2
    28ac:	ce043d03          	ld	s10,-800(s0)
    28b0:	01a98d33          	add	s10,s3,s10
    28b4:	cfa43023          	sd	s10,-800(s0)
    28b8:	f4843683          	ld	a3,-184(s0)
    28bc:	02d509b3          	mul	s3,a0,a3
    28c0:	cd843d03          	ld	s10,-808(s0)
    28c4:	01a98d33          	add	s10,s3,s10
    28c8:	cda43c23          	sd	s10,-808(s0)
    28cc:	02b509b3          	mul	s3,a0,a1
    28d0:	00058393          	mv	t2,a1
    28d4:	cc843d03          	ld	s10,-824(s0)
    28d8:	01a98d33          	add	s10,s3,s10
    28dc:	cda43423          	sd	s10,-824(s0)
    28e0:	e3043603          	ld	a2,-464(s0)
    28e4:	02c509b3          	mul	s3,a0,a2
    28e8:	cb843d03          	ld	s10,-840(s0)
    28ec:	01a98d33          	add	s10,s3,s10
    28f0:	cba43c23          	sd	s10,-840(s0)
    28f4:	f6043583          	ld	a1,-160(s0)
    28f8:	02b509b3          	mul	s3,a0,a1
    28fc:	ca843d03          	ld	s10,-856(s0)
    2900:	01a98d33          	add	s10,s3,s10
    2904:	cba43423          	sd	s10,-856(s0)
    2908:	e1843283          	ld	t0,-488(s0)
    290c:	025509b3          	mul	s3,a0,t0
    2910:	c9843d03          	ld	s10,-872(s0)
    2914:	01a98d33          	add	s10,s3,s10
    2918:	c9a43c23          	sd	s10,-872(s0)
    291c:	03c509b3          	mul	s3,a0,t3
    2920:	c8843d03          	ld	s10,-888(s0)
    2924:	01a98d33          	add	s10,s3,s10
    2928:	c9a43423          	sd	s10,-888(s0)
    292c:	54048983          	lb	s3,1344(s1)
    2930:	f5043483          	ld	s1,-176(s0)
    2934:	02950db3          	mul	s11,a0,s1
    2938:	c7843d03          	ld	s10,-904(s0)
    293c:	01ad8d33          	add	s10,s11,s10
    2940:	c7a43c23          	sd	s10,-904(s0)
    2944:	03450533          	mul	a0,a0,s4
    2948:	c6843d03          	ld	s10,-920(s0)
    294c:	01a50d33          	add	s10,a0,s10
    2950:	c7a43423          	sd	s10,-920(s0)
    2954:	03498533          	mul	a0,s3,s4
    2958:	00001a37          	lui	s4,0x1
    295c:	41440a33          	sub	s4,s0,s4
    2960:	68aa3023          	sd	a0,1664(s4) # 1680 <.LBB45_3+0x168>
    2964:	02998533          	mul	a0,s3,s1
    2968:	000014b7          	lui	s1,0x1
    296c:	409404b3          	sub	s1,s0,s1
    2970:	66a4bc23          	sd	a0,1656(s1) # 1678 <.LBB45_3+0x160>
    2974:	03c98533          	mul	a0,s3,t3
    2978:	e2a43023          	sd	a0,-480(s0)
    297c:	02598533          	mul	a0,s3,t0
    2980:	e0a43c23          	sd	a0,-488(s0)
    2984:	02b98533          	mul	a0,s3,a1
    2988:	000015b7          	lui	a1,0x1
    298c:	40b405b3          	sub	a1,s0,a1
    2990:	66a5b823          	sd	a0,1648(a1) # 1670 <.LBB45_3+0x158>
    2994:	02c98533          	mul	a0,s3,a2
    2998:	e2a43823          	sd	a0,-464(s0)
    299c:	02798533          	mul	a0,s3,t2
    29a0:	f6a43023          	sd	a0,-160(s0)
    29a4:	02d98533          	mul	a0,s3,a3
    29a8:	f4a43823          	sd	a0,-176(s0)
    29ac:	03598533          	mul	a0,s3,s5
    29b0:	f4a43423          	sd	a0,-184(s0)
    29b4:	02e98ab3          	mul	s5,s3,a4
    29b8:	02f98533          	mul	a0,s3,a5
    29bc:	f6a43423          	sd	a0,-152(s0)
    29c0:	03098a33          	mul	s4,s3,a6
    29c4:	03198833          	mul	a6,s3,a7
    29c8:	026984b3          	mul	s1,s3,t1
    29cc:	03e982b3          	mul	t0,s3,t5
    29d0:	03f988b3          	mul	a7,s3,t6
    29d4:	03298e33          	mul	t3,s3,s2
    29d8:	03698333          	mul	t1,s3,s6
    29dc:	03798f33          	mul	t5,s3,s7
    29e0:	03898b33          	mul	s6,s3,s8
    29e4:	df843503          	ld	a0,-520(s0)
    29e8:	02a98bb3          	mul	s7,s3,a0
    29ec:	df043503          	ld	a0,-528(s0)
    29f0:	02a98c33          	mul	s8,s3,a0
    29f4:	03998cb3          	mul	s9,s3,s9
    29f8:	f4043503          	ld	a0,-192(s0)
    29fc:	02a98d33          	mul	s10,s3,a0
    2a00:	02198db3          	mul	s11,s3,ra
    2a04:	f8043503          	ld	a0,-128(s0)
    2a08:	02a98733          	mul	a4,s3,a0
    2a0c:	f7043503          	ld	a0,-144(s0)
    2a10:	02a980b3          	mul	ra,s3,a0
    2a14:	f2843503          	ld	a0,-216(s0)
    2a18:	02a986b3          	mul	a3,s3,a0
    2a1c:	f7843503          	ld	a0,-136(s0)
    2a20:	02a98633          	mul	a2,s3,a0
    2a24:	f2043503          	ld	a0,-224(s0)
    2a28:	02a985b3          	mul	a1,s3,a0
    2a2c:	e3843503          	ld	a0,-456(s0)
    2a30:	02a98533          	mul	a0,s3,a0
    2a34:	e2843783          	ld	a5,-472(s0)
    2a38:	02f989b3          	mul	s3,s3,a5
    2a3c:	f1843783          	ld	a5,-232(s0)
    2a40:	00f987b3          	add	a5,s3,a5
    2a44:	f0f43c23          	sd	a5,-232(s0)
    2a48:	dd843783          	ld	a5,-552(s0)
    2a4c:	de043983          	ld	s3,-544(s0)
    2a50:	013509b3          	add	s3,a0,s3
    2a54:	df343023          	sd	s3,-544(s0)
    2a58:	00f587b3          	add	a5,a1,a5
    2a5c:	dd043503          	ld	a0,-560(s0)
    2a60:	00a60533          	add	a0,a2,a0
    2a64:	dca43823          	sd	a0,-560(s0)
    2a68:	f1043583          	ld	a1,-240(s0)
    2a6c:	00b685b3          	add	a1,a3,a1
    2a70:	f0b43823          	sd	a1,-240(s0)
    2a74:	f1043583          	ld	a1,-240(s0)
    2a78:	f0843603          	ld	a2,-248(s0)
    2a7c:	00c08633          	add	a2,ra,a2
    2a80:	00001537          	lui	a0,0x1
    2a84:	40a40533          	sub	a0,s0,a0
    2a88:	69053083          	ld	ra,1680(a0) # 1690 <.LBB45_3+0x178>
    2a8c:	f0c43423          	sd	a2,-248(s0)
    2a90:	f0843603          	ld	a2,-248(s0)
    2a94:	f0043683          	ld	a3,-256(s0)
    2a98:	00d706b3          	add	a3,a4,a3
    2a9c:	f0d43023          	sd	a3,-256(s0)
    2aa0:	f0043683          	ld	a3,-256(s0)
    2aa4:	dc843703          	ld	a4,-568(s0)
    2aa8:	00ed8733          	add	a4,s11,a4
    2aac:	dce43423          	sd	a4,-568(s0)
    2ab0:	ef843d83          	ld	s11,-264(s0)
    2ab4:	01bd0db3          	add	s11,s10,s11
    2ab8:	efb43c23          	sd	s11,-264(s0)
    2abc:	ef843d03          	ld	s10,-264(s0)
    2ac0:	ef043d83          	ld	s11,-272(s0)
    2ac4:	01bc8db3          	add	s11,s9,s11
    2ac8:	efb43823          	sd	s11,-272(s0)
    2acc:	ef043c83          	ld	s9,-272(s0)
    2ad0:	ee843d83          	ld	s11,-280(s0)
    2ad4:	01bc0db3          	add	s11,s8,s11
    2ad8:	efb43423          	sd	s11,-280(s0)
    2adc:	ee843c03          	ld	s8,-280(s0)
    2ae0:	ee043d83          	ld	s11,-288(s0)
    2ae4:	01bb8db3          	add	s11,s7,s11
    2ae8:	efb43023          	sd	s11,-288(s0)
    2aec:	ee043b83          	ld	s7,-288(s0)
    2af0:	ed843d83          	ld	s11,-296(s0)
    2af4:	01bb0db3          	add	s11,s6,s11
    2af8:	edb43c23          	sd	s11,-296(s0)
    2afc:	ed843b03          	ld	s6,-296(s0)
    2b00:	ed043d83          	ld	s11,-304(s0)
    2b04:	01bf0db3          	add	s11,t5,s11
    2b08:	edb43823          	sd	s11,-304(s0)
    2b0c:	ed043f03          	ld	t5,-304(s0)
    2b10:	ec843d83          	ld	s11,-312(s0)
    2b14:	01b30db3          	add	s11,t1,s11
    2b18:	edb43423          	sd	s11,-312(s0)
    2b1c:	ec843303          	ld	t1,-312(s0)
    2b20:	ec043d83          	ld	s11,-320(s0)
    2b24:	01be0db3          	add	s11,t3,s11
    2b28:	edb43023          	sd	s11,-320(s0)
    2b2c:	ec043e03          	ld	t3,-320(s0)
    2b30:	eb843d83          	ld	s11,-328(s0)
    2b34:	01b88db3          	add	s11,a7,s11
    2b38:	ebb43c23          	sd	s11,-328(s0)
    2b3c:	eb843383          	ld	t2,-328(s0)
    2b40:	eb043d83          	ld	s11,-336(s0)
    2b44:	01b28db3          	add	s11,t0,s11
    2b48:	ebb43823          	sd	s11,-336(s0)
    2b4c:	eb043883          	ld	a7,-336(s0)
    2b50:	ea843d83          	ld	s11,-344(s0)
    2b54:	01b48db3          	add	s11,s1,s11
    2b58:	ebb43423          	sd	s11,-344(s0)
    2b5c:	ea843283          	ld	t0,-344(s0)
    2b60:	ea043d83          	ld	s11,-352(s0)
    2b64:	01b80db3          	add	s11,a6,s11
    2b68:	ebb43023          	sd	s11,-352(s0)
    2b6c:	dc043d83          	ld	s11,-576(s0)
    2b70:	ea043803          	ld	a6,-352(s0)
    2b74:	01ba0db3          	add	s11,s4,s11
    2b78:	e9843f83          	ld	t6,-360(s0)
    2b7c:	f6843503          	ld	a0,-152(s0)
    2b80:	01f50fb3          	add	t6,a0,t6
    2b84:	e9f43c23          	sd	t6,-360(s0)
    2b88:	e9843f83          	ld	t6,-360(s0)
    2b8c:	e9043a03          	ld	s4,-368(s0)
    2b90:	014a8a33          	add	s4,s5,s4
    2b94:	e9443823          	sd	s4,-368(s0)
    2b98:	e9043a03          	ld	s4,-368(s0)
    2b9c:	e8843a83          	ld	s5,-376(s0)
    2ba0:	f4843503          	ld	a0,-184(s0)
    2ba4:	01550ab3          	add	s5,a0,s5
    2ba8:	e9543423          	sd	s5,-376(s0)
    2bac:	e8843903          	ld	s2,-376(s0)
    2bb0:	e8043a83          	ld	s5,-384(s0)
    2bb4:	f5043503          	ld	a0,-176(s0)
    2bb8:	01550ab3          	add	s5,a0,s5
    2bbc:	e9543023          	sd	s5,-384(s0)
    2bc0:	e8043483          	ld	s1,-384(s0)
    2bc4:	e7843a83          	ld	s5,-392(s0)
    2bc8:	f6043503          	ld	a0,-160(s0)
    2bcc:	01550ab3          	add	s5,a0,s5
    2bd0:	e7543c23          	sd	s5,-392(s0)
    2bd4:	d7843a83          	ld	s5,-648(s0)
    2bd8:	e7843983          	ld	s3,-392(s0)
    2bdc:	db843503          	ld	a0,-584(s0)
    2be0:	e3043703          	ld	a4,-464(s0)
    2be4:	00a70533          	add	a0,a4,a0
    2be8:	daa43c23          	sd	a0,-584(s0)
    2bec:	da843503          	ld	a0,-600(s0)
    2bf0:	f8b43823          	sd	a1,-112(s0)
    2bf4:	000015b7          	lui	a1,0x1
    2bf8:	40b405b3          	sub	a1,s0,a1
    2bfc:	6705b703          	ld	a4,1648(a1) # 1670 <.LBB45_3+0x158>
    2c00:	00a70533          	add	a0,a4,a0
    2c04:	daa43423          	sd	a0,-600(s0)
    2c08:	d9843503          	ld	a0,-616(s0)
    2c0c:	e1843703          	ld	a4,-488(s0)
    2c10:	00a70533          	add	a0,a4,a0
    2c14:	d8a43c23          	sd	a0,-616(s0)
    2c18:	d8843503          	ld	a0,-632(s0)
    2c1c:	e2043703          	ld	a4,-480(s0)
    2c20:	00a70533          	add	a0,a4,a0
    2c24:	d8a43423          	sd	a0,-632(s0)
    2c28:	00001537          	lui	a0,0x1
    2c2c:	40a40533          	sub	a0,s0,a0
    2c30:	67853503          	ld	a0,1656(a0) # 1678 <.LBB45_3+0x160>
    2c34:	01550ab3          	add	s5,a0,s5
    2c38:	d6843503          	ld	a0,-664(s0)
    2c3c:	000015b7          	lui	a1,0x1
    2c40:	40b405b3          	sub	a1,s0,a1
    2c44:	6805b703          	ld	a4,1664(a1) # 1680 <.LBB45_3+0x168>
    2c48:	00a70533          	add	a0,a4,a0
    2c4c:	d6a43423          	sd	a0,-664(s0)
    2c50:	00001537          	lui	a0,0x1
    2c54:	40a40533          	sub	a0,s0,a0
    2c58:	68853503          	ld	a0,1672(a0) # 1688 <.LBB45_3+0x170>
    2c5c:	fe050513          	addi	a0,a0,-32
    2c60:	020e8e93          	addi	t4,t4,32
    2c64:	f8843703          	ld	a4,-120(s0)
    2c68:	00170713          	addi	a4,a4,1
    2c6c:	f8e43423          	sd	a4,-120(s0)
    2c70:	f1843703          	ld	a4,-232(s0)
    2c74:	000015b7          	lui	a1,0x1
    2c78:	40b405b3          	sub	a1,s0,a1
    2c7c:	68a5b423          	sd	a0,1672(a1) # 1688 <.LBB45_3+0x170>
    2c80:	f9043583          	ld	a1,-112(s0)
    2c84:	00050463          	beqz	a0,2c8c <.LBB45_4>
    2c88:	891fe06f          	j	1518 <.LBB45_3>

0000000000002c8c <.LBB45_4>:
    2c8c:	00001537          	lui	a0,0x1
    2c90:	40a40533          	sub	a0,s0,a0
    2c94:	69853303          	ld	t1,1688(a0) # 1698 <.LBB45_3+0x180>
    2c98:	00001537          	lui	a0,0x1
    2c9c:	40a40533          	sub	a0,s0,a0
    2ca0:	6a853383          	ld	t2,1704(a0) # 16a8 <.LBB45_3+0x190>
    2ca4:	00001537          	lui	a0,0x1
    2ca8:	40a40533          	sub	a0,s0,a0
    2cac:	6b053b03          	ld	s6,1712(a0) # 16b0 <.LBB45_3+0x198>
    2cb0:	00001537          	lui	a0,0x1
    2cb4:	40a40533          	sub	a0,s0,a0
    2cb8:	6b853983          	ld	s3,1720(a0) # 16b8 <.LBB45_3+0x1a0>
    2cbc:	00001537          	lui	a0,0x1
    2cc0:	40a40533          	sub	a0,s0,a0
    2cc4:	6c053883          	ld	a7,1728(a0) # 16c0 <.LBB45_3+0x1a8>
    2cc8:	00001537          	lui	a0,0x1
    2ccc:	40a40533          	sub	a0,s0,a0
    2cd0:	6c853803          	ld	a6,1736(a0) # 16c8 <.LBB45_3+0x1b0>
    2cd4:	00001537          	lui	a0,0x1
    2cd8:	40a40533          	sub	a0,s0,a0
    2cdc:	6d053703          	ld	a4,1744(a0) # 16d0 <.LBB45_3+0x1b8>
    2ce0:	00001537          	lui	a0,0x1
    2ce4:	40a40533          	sub	a0,s0,a0
    2ce8:	6d853683          	ld	a3,1752(a0) # 16d8 <.LBB45_3+0x1c0>
    2cec:	00001537          	lui	a0,0x1
    2cf0:	40a40533          	sub	a0,s0,a0
    2cf4:	6e053603          	ld	a2,1760(a0) # 16e0 <.LBB45_3+0x1c8>
    2cf8:	00002537          	lui	a0,0x2
    2cfc:	40a40533          	sub	a0,s0,a0
    2d00:	00853f83          	ld	t6,8(a0) # 2008 <.LBB45_3+0xaf0>
    2d04:	07cfa503          	lw	a0,124(t6)
    2d08:	000015b7          	lui	a1,0x1
    2d0c:	40b405b3          	sub	a1,s0,a1
    2d10:	6685b583          	ld	a1,1640(a1) # 1668 <.LBB45_3+0x150>
    2d14:	000012b7          	lui	t0,0x1
    2d18:	405402b3          	sub	t0,s0,t0
    2d1c:	6a02b283          	ld	t0,1696(t0) # 16a0 <.LBB45_3+0x188>
    2d20:	005585b3          	add	a1,a1,t0
    2d24:	00751293          	slli	t0,a0,0x7
    2d28:	0055853b          	addw	a0,a1,t0
    2d2c:	400005b7          	lui	a1,0x40000
    2d30:	e0a43c23          	sd	a0,-488(s0)
    2d34:	00055463          	bgez	a0,2d3c <.LBB45_6>
    2d38:	c00005b7          	lui	a1,0xc0000

0000000000002d3c <.LBB45_6>:
    2d3c:	e0b43823          	sd	a1,-496(s0)
    2d40:	078fa503          	lw	a0,120(t6)
    2d44:	000015b7          	lui	a1,0x1
    2d48:	40b405b3          	sub	a1,s0,a1
    2d4c:	6605b583          	ld	a1,1632(a1) # 1660 <.LBB45_3+0x148>
    2d50:	006585b3          	add	a1,a1,t1
    2d54:	00751313          	slli	t1,a0,0x7
    2d58:	0065853b          	addw	a0,a1,t1
    2d5c:	400005b7          	lui	a1,0x40000
    2d60:	e0a43423          	sd	a0,-504(s0)
    2d64:	00060e93          	mv	t4,a2
    2d68:	00068f13          	mv	t5,a3
    2d6c:	00070e13          	mv	t3,a4
    2d70:	00080493          	mv	s1,a6
    2d74:	00038613          	mv	a2,t2
    2d78:	00055463          	bgez	a0,2d80 <.LBB45_8>
    2d7c:	c00005b7          	lui	a1,0xc0000

0000000000002d80 <.LBB45_8>:
    2d80:	074fa503          	lw	a0,116(t6)
    2d84:	00751393          	slli	t2,a0,0x7
    2d88:	00001537          	lui	a0,0x1
    2d8c:	40a40533          	sub	a0,s0,a0
    2d90:	65853503          	ld	a0,1624(a0) # 1658 <.LBB45_3+0x140>
    2d94:	00c50533          	add	a0,a0,a2
    2d98:	0075053b          	addw	a0,a0,t2
    2d9c:	40000637          	lui	a2,0x40000
    2da0:	dea43c23          	sd	a0,-520(s0)
    2da4:	00055463          	bgez	a0,2dac <.LBB45_10>
    2da8:	c0000637          	lui	a2,0xc0000

0000000000002dac <.LBB45_10>:
    2dac:	070fa503          	lw	a0,112(t6)
    2db0:	00751693          	slli	a3,a0,0x7
    2db4:	00001537          	lui	a0,0x1
    2db8:	40a40533          	sub	a0,s0,a0
    2dbc:	65053503          	ld	a0,1616(a0) # 1650 <.LBB45_3+0x138>
    2dc0:	01650533          	add	a0,a0,s6
    2dc4:	f8d43423          	sd	a3,-120(s0)
    2dc8:	00d5053b          	addw	a0,a0,a3
    2dcc:	400006b7          	lui	a3,0x40000
    2dd0:	dea43423          	sd	a0,-536(s0)
    2dd4:	00055463          	bgez	a0,2ddc <.LBB45_12>
    2dd8:	c00006b7          	lui	a3,0xc0000

0000000000002ddc <.LBB45_12>:
    2ddc:	06cfa503          	lw	a0,108(t6)
    2de0:	00751713          	slli	a4,a0,0x7
    2de4:	00001537          	lui	a0,0x1
    2de8:	40a40533          	sub	a0,s0,a0
    2dec:	64853503          	ld	a0,1608(a0) # 1648 <.LBB45_3+0x130>
    2df0:	01350533          	add	a0,a0,s3
    2df4:	f8e43023          	sd	a4,-128(s0)
    2df8:	00e5053b          	addw	a0,a0,a4
    2dfc:	40000737          	lui	a4,0x40000
    2e00:	00001837          	lui	a6,0x1
    2e04:	41040833          	sub	a6,s0,a6
    2e08:	6aa83c23          	sd	a0,1720(a6) # 16b8 <.LBB45_3+0x1a0>
    2e0c:	00055463          	bgez	a0,2e14 <.LBB45_14>
    2e10:	c0000737          	lui	a4,0xc0000

0000000000002e14 <.LBB45_14>:
    2e14:	068fa503          	lw	a0,104(t6)
    2e18:	00751813          	slli	a6,a0,0x7
    2e1c:	00001537          	lui	a0,0x1
    2e20:	40a40533          	sub	a0,s0,a0
    2e24:	64053503          	ld	a0,1600(a0) # 1640 <.LBB45_3+0x128>
    2e28:	01150533          	add	a0,a0,a7
    2e2c:	f7043c23          	sd	a6,-136(s0)
    2e30:	0105053b          	addw	a0,a0,a6
    2e34:	40000837          	lui	a6,0x40000
    2e38:	000018b7          	lui	a7,0x1
    2e3c:	411408b3          	sub	a7,s0,a7
    2e40:	6aa8b423          	sd	a0,1704(a7) # 16a8 <.LBB45_3+0x190>
    2e44:	00055463          	bgez	a0,2e4c <.LBB45_16>
    2e48:	c0000837          	lui	a6,0xc0000

0000000000002e4c <.LBB45_16>:
    2e4c:	064fa503          	lw	a0,100(t6)
    2e50:	00751893          	slli	a7,a0,0x7
    2e54:	00001537          	lui	a0,0x1
    2e58:	40a40533          	sub	a0,s0,a0
    2e5c:	63853503          	ld	a0,1592(a0) # 1638 <.LBB45_3+0x120>
    2e60:	00950533          	add	a0,a0,s1
    2e64:	f7143823          	sd	a7,-144(s0)
    2e68:	0115053b          	addw	a0,a0,a7
    2e6c:	400008b7          	lui	a7,0x40000
    2e70:	000014b7          	lui	s1,0x1
    2e74:	409404b3          	sub	s1,s0,s1
    2e78:	54a4b823          	sd	a0,1360(s1) # 1550 <.LBB45_3+0x38>
    2e7c:	00055463          	bgez	a0,2e84 <.LBB45_18>
    2e80:	c00008b7          	lui	a7,0xc0000

0000000000002e84 <.LBB45_18>:
    2e84:	e4543423          	sd	t0,-440(s0)
    2e88:	00001537          	lui	a0,0x1
    2e8c:	40a40533          	sub	a0,s0,a0
    2e90:	55153423          	sd	a7,1352(a0) # 1548 <.LBB45_3+0x30>
    2e94:	00001537          	lui	a0,0x1
    2e98:	40a40533          	sub	a0,s0,a0
    2e9c:	69053c23          	sd	a6,1688(a0) # 1698 <.LBB45_3+0x180>
    2ea0:	00001537          	lui	a0,0x1
    2ea4:	40a40533          	sub	a0,s0,a0
    2ea8:	6ce53023          	sd	a4,1728(a0) # 16c0 <.LBB45_3+0x1a8>
    2eac:	00001537          	lui	a0,0x1
    2eb0:	40a40533          	sub	a0,s0,a0
    2eb4:	6cd53423          	sd	a3,1736(a0) # 16c8 <.LBB45_3+0x1b0>
    2eb8:	dec43823          	sd	a2,-528(s0)
    2ebc:	e0b43023          	sd	a1,-512(s0)
    2ec0:	dcf43c23          	sd	a5,-552(s0)
    2ec4:	060fa503          	lw	a0,96(t6)
    2ec8:	00751593          	slli	a1,a0,0x7
    2ecc:	00001537          	lui	a0,0x1
    2ed0:	40a40533          	sub	a0,s0,a0
    2ed4:	63053503          	ld	a0,1584(a0) # 1630 <.LBB45_3+0x118>
    2ed8:	01c50533          	add	a0,a0,t3
    2edc:	f6b43423          	sd	a1,-152(s0)
    2ee0:	00b5053b          	addw	a0,a0,a1
    2ee4:	400005b7          	lui	a1,0x40000
    2ee8:	00001637          	lui	a2,0x1
    2eec:	40c40633          	sub	a2,s0,a2
    2ef0:	50a63023          	sd	a0,1280(a2) # 1500 <.LBB45_2+0x590>
    2ef4:	00055463          	bgez	a0,2efc <.LBB45_20>
    2ef8:	c00005b7          	lui	a1,0xc0000

0000000000002efc <.LBB45_20>:
    2efc:	e2743c23          	sd	t2,-456(s0)
    2f00:	e4643023          	sd	t1,-448(s0)
    2f04:	00001537          	lui	a0,0x1
    2f08:	40a40533          	sub	a0,s0,a0
    2f0c:	4eb53c23          	sd	a1,1272(a0) # 14f8 <.LBB45_2+0x588>
    2f10:	d7543c23          	sd	s5,-648(s0)
    2f14:	ddb43023          	sd	s11,-576(s0)
    2f18:	05cfa503          	lw	a0,92(t6)
    2f1c:	058fa583          	lw	a1,88(t6)
    2f20:	00001637          	lui	a2,0x1
    2f24:	40c40633          	sub	a2,s0,a2
    2f28:	56863603          	ld	a2,1384(a2) # 1568 <.LBB45_3+0x50>
    2f2c:	00561893          	slli	a7,a2,0x5
    2f30:	02088813          	addi	a6,a7,32 # ffffffffc0000020 <.Lfunc_end80+0xffffffffbffd7654>
    2f34:	04088793          	addi	a5,a7,64
    2f38:	06088713          	addi	a4,a7,96
    2f3c:	08088693          	addi	a3,a7,128
    2f40:	0a088613          	addi	a2,a7,160
    2f44:	0c088313          	addi	t1,a7,192
    2f48:	0e088293          	addi	t0,a7,224
    2f4c:	00759e13          	slli	t3,a1,0x7
    2f50:	00751593          	slli	a1,a0,0x7
    2f54:	00001537          	lui	a0,0x1
    2f58:	40a40533          	sub	a0,s0,a0
    2f5c:	62853503          	ld	a0,1576(a0) # 1628 <.LBB45_3+0x110>
    2f60:	01e50533          	add	a0,a0,t5
    2f64:	000013b7          	lui	t2,0x1
    2f68:	407403b3          	sub	t2,s0,t2
    2f6c:	54b3b023          	sd	a1,1344(t2) # 1540 <.LBB45_3+0x28>
    2f70:	00b503bb          	addw	t2,a0,a1
    2f74:	00002537          	lui	a0,0x2
    2f78:	40a40533          	sub	a0,s0,a0
    2f7c:	ff853503          	ld	a0,-8(a0) # 1ff8 <.LBB45_3+0xae0>
    2f80:	000015b7          	lui	a1,0x1
    2f84:	40b405b3          	sub	a1,s0,a1
    2f88:	f115bc23          	sd	a7,-232(a1) # f18 <.LBB45_1+0xc04>
    2f8c:	011508b3          	add	a7,a0,a7
    2f90:	000015b7          	lui	a1,0x1
    2f94:	40b405b3          	sub	a1,s0,a1
    2f98:	f305b023          	sd	a6,-224(a1) # f20 <.LBB45_1+0xc0c>
    2f9c:	01050833          	add	a6,a0,a6
    2fa0:	000015b7          	lui	a1,0x1
    2fa4:	40b405b3          	sub	a1,s0,a1
    2fa8:	f2f5b423          	sd	a5,-216(a1) # f28 <.LBB45_1+0xc14>
    2fac:	00f507b3          	add	a5,a0,a5
    2fb0:	000015b7          	lui	a1,0x1
    2fb4:	40b405b3          	sub	a1,s0,a1
    2fb8:	f2e5b823          	sd	a4,-208(a1) # f30 <.LBB45_1+0xc1c>
    2fbc:	00e50733          	add	a4,a0,a4
    2fc0:	000015b7          	lui	a1,0x1
    2fc4:	40b405b3          	sub	a1,s0,a1
    2fc8:	f2d5bc23          	sd	a3,-200(a1) # f38 <.LBB45_1+0xc24>
    2fcc:	00d506b3          	add	a3,a0,a3
    2fd0:	000015b7          	lui	a1,0x1
    2fd4:	40b405b3          	sub	a1,s0,a1
    2fd8:	f4c5b023          	sd	a2,-192(a1) # f40 <.LBB45_1+0xc2c>
    2fdc:	00c50633          	add	a2,a0,a2
    2fe0:	000015b7          	lui	a1,0x1
    2fe4:	40b405b3          	sub	a1,s0,a1
    2fe8:	f465b423          	sd	t1,-184(a1) # f48 <.LBB45_1+0xc34>
    2fec:	006505b3          	add	a1,a0,t1
    2ff0:	00001337          	lui	t1,0x1
    2ff4:	40640333          	sub	t1,s0,t1
    2ff8:	f4533823          	sd	t0,-176(t1) # f50 <.LBB45_1+0xc3c>
    2ffc:	00550533          	add	a0,a0,t0
    3000:	000012b7          	lui	t0,0x1
    3004:	405402b3          	sub	t0,s0,t0
    3008:	6202b283          	ld	t0,1568(t0) # 1620 <.LBB45_3+0x108>
    300c:	01d282b3          	add	t0,t0,t4
    3010:	f7c43023          	sd	t3,-160(s0)
    3014:	01c282bb          	addw	t0,t0,t3
    3018:	e4543823          	sd	t0,-432(s0)
    301c:	400002b7          	lui	t0,0x40000
    3020:	00001337          	lui	t1,0x1
    3024:	40640333          	sub	t1,s0,t1
    3028:	48733823          	sd	t2,1168(t1) # 1490 <.LBB45_2+0x520>
    302c:	0003d463          	bgez	t2,3034 <.LBB45_22>
    3030:	c00002b7          	lui	t0,0xc0000

0000000000003034 <.LBB45_22>:
    3034:	00001337          	lui	t1,0x1
    3038:	40640333          	sub	t1,s0,t1
    303c:	44533c23          	sd	t0,1112(t1) # 1458 <.LBB45_2+0x4e8>
    3040:	01f88283          	lb	t0,31(a7)
    3044:	00001337          	lui	t1,0x1
    3048:	40640333          	sub	t1,s0,t1
    304c:	82533423          	sd	t0,-2008(t1) # 828 <.LBB45_1+0x514>
    3050:	01e88283          	lb	t0,30(a7)
    3054:	00001337          	lui	t1,0x1
    3058:	40640333          	sub	t1,s0,t1
    305c:	80533c23          	sd	t0,-2024(t1) # 818 <.LBB45_1+0x504>
    3060:	01d88283          	lb	t0,29(a7)
    3064:	00001337          	lui	t1,0x1
    3068:	40640333          	sub	t1,s0,t1
    306c:	80533423          	sd	t0,-2040(t1) # 808 <.LBB45_1+0x4f4>
    3070:	01c88283          	lb	t0,28(a7)
    3074:	00002337          	lui	t1,0x2
    3078:	40640333          	sub	t1,s0,t1
    307c:	7e533c23          	sd	t0,2040(t1) # 27f8 <.LBB45_3+0x12e0>
    3080:	01b88283          	lb	t0,27(a7)
    3084:	00002337          	lui	t1,0x2
    3088:	40640333          	sub	t1,s0,t1
    308c:	7e533823          	sd	t0,2032(t1) # 27f0 <.LBB45_3+0x12d8>
    3090:	01a88283          	lb	t0,26(a7)
    3094:	00002337          	lui	t1,0x2
    3098:	40640333          	sub	t1,s0,t1
    309c:	7e533423          	sd	t0,2024(t1) # 27e8 <.LBB45_3+0x12d0>
    30a0:	01988283          	lb	t0,25(a7)
    30a4:	00002337          	lui	t1,0x2
    30a8:	40640333          	sub	t1,s0,t1
    30ac:	7e533023          	sd	t0,2016(t1) # 27e0 <.LBB45_3+0x12c8>
    30b0:	01888283          	lb	t0,24(a7)
    30b4:	00002337          	lui	t1,0x2
    30b8:	40640333          	sub	t1,s0,t1
    30bc:	7c533c23          	sd	t0,2008(t1) # 27d8 <.LBB45_3+0x12c0>
    30c0:	01788283          	lb	t0,23(a7)
    30c4:	00002337          	lui	t1,0x2
    30c8:	40640333          	sub	t1,s0,t1
    30cc:	7c533823          	sd	t0,2000(t1) # 27d0 <.LBB45_3+0x12b8>
    30d0:	01688283          	lb	t0,22(a7)
    30d4:	00002337          	lui	t1,0x2
    30d8:	40640333          	sub	t1,s0,t1
    30dc:	7c533423          	sd	t0,1992(t1) # 27c8 <.LBB45_3+0x12b0>
    30e0:	01588283          	lb	t0,21(a7)
    30e4:	00002337          	lui	t1,0x2
    30e8:	40640333          	sub	t1,s0,t1
    30ec:	7c533023          	sd	t0,1984(t1) # 27c0 <.LBB45_3+0x12a8>
    30f0:	01488283          	lb	t0,20(a7)
    30f4:	00002337          	lui	t1,0x2
    30f8:	40640333          	sub	t1,s0,t1
    30fc:	7a533c23          	sd	t0,1976(t1) # 27b8 <.LBB45_3+0x12a0>
    3100:	01388283          	lb	t0,19(a7)
    3104:	00002337          	lui	t1,0x2
    3108:	40640333          	sub	t1,s0,t1
    310c:	7a533823          	sd	t0,1968(t1) # 27b0 <.LBB45_3+0x1298>
    3110:	01288283          	lb	t0,18(a7)
    3114:	00002337          	lui	t1,0x2
    3118:	40640333          	sub	t1,s0,t1
    311c:	7a533423          	sd	t0,1960(t1) # 27a8 <.LBB45_3+0x1290>
    3120:	01188283          	lb	t0,17(a7)
    3124:	00002337          	lui	t1,0x2
    3128:	40640333          	sub	t1,s0,t1
    312c:	7a533023          	sd	t0,1952(t1) # 27a0 <.LBB45_3+0x1288>
    3130:	01088283          	lb	t0,16(a7)
    3134:	00002337          	lui	t1,0x2
    3138:	40640333          	sub	t1,s0,t1
    313c:	78533c23          	sd	t0,1944(t1) # 2798 <.LBB45_3+0x1280>
    3140:	00f88283          	lb	t0,15(a7)
    3144:	00002337          	lui	t1,0x2
    3148:	40640333          	sub	t1,s0,t1
    314c:	78533823          	sd	t0,1936(t1) # 2790 <.LBB45_3+0x1278>
    3150:	00e88283          	lb	t0,14(a7)
    3154:	00002337          	lui	t1,0x2
    3158:	40640333          	sub	t1,s0,t1
    315c:	78533423          	sd	t0,1928(t1) # 2788 <.LBB45_3+0x1270>
    3160:	00d88283          	lb	t0,13(a7)
    3164:	00002337          	lui	t1,0x2
    3168:	40640333          	sub	t1,s0,t1
    316c:	78533023          	sd	t0,1920(t1) # 2780 <.LBB45_3+0x1268>
    3170:	00c88283          	lb	t0,12(a7)
    3174:	00002337          	lui	t1,0x2
    3178:	40640333          	sub	t1,s0,t1
    317c:	76533c23          	sd	t0,1912(t1) # 2778 <.LBB45_3+0x1260>
    3180:	00b88283          	lb	t0,11(a7)
    3184:	00002337          	lui	t1,0x2
    3188:	40640333          	sub	t1,s0,t1
    318c:	76533823          	sd	t0,1904(t1) # 2770 <.LBB45_3+0x1258>
    3190:	00a88283          	lb	t0,10(a7)
    3194:	00002337          	lui	t1,0x2
    3198:	40640333          	sub	t1,s0,t1
    319c:	76533423          	sd	t0,1896(t1) # 2768 <.LBB45_3+0x1250>
    31a0:	00988283          	lb	t0,9(a7)
    31a4:	00002337          	lui	t1,0x2
    31a8:	40640333          	sub	t1,s0,t1
    31ac:	76533023          	sd	t0,1888(t1) # 2760 <.LBB45_3+0x1248>
    31b0:	00888283          	lb	t0,8(a7)
    31b4:	00002337          	lui	t1,0x2
    31b8:	40640333          	sub	t1,s0,t1
    31bc:	74533c23          	sd	t0,1880(t1) # 2758 <.LBB45_3+0x1240>
    31c0:	00788283          	lb	t0,7(a7)
    31c4:	00002337          	lui	t1,0x2
    31c8:	40640333          	sub	t1,s0,t1
    31cc:	74533823          	sd	t0,1872(t1) # 2750 <.LBB45_3+0x1238>
    31d0:	00688283          	lb	t0,6(a7)
    31d4:	00002337          	lui	t1,0x2
    31d8:	40640333          	sub	t1,s0,t1
    31dc:	74533423          	sd	t0,1864(t1) # 2748 <.LBB45_3+0x1230>
    31e0:	00588283          	lb	t0,5(a7)
    31e4:	00002337          	lui	t1,0x2
    31e8:	40640333          	sub	t1,s0,t1
    31ec:	74533023          	sd	t0,1856(t1) # 2740 <.LBB45_3+0x1228>
    31f0:	00488283          	lb	t0,4(a7)
    31f4:	00002337          	lui	t1,0x2
    31f8:	40640333          	sub	t1,s0,t1
    31fc:	72533c23          	sd	t0,1848(t1) # 2738 <.LBB45_3+0x1220>
    3200:	00388283          	lb	t0,3(a7)
    3204:	00002337          	lui	t1,0x2
    3208:	40640333          	sub	t1,s0,t1
    320c:	72533823          	sd	t0,1840(t1) # 2730 <.LBB45_3+0x1218>
    3210:	00288283          	lb	t0,2(a7)
    3214:	00002337          	lui	t1,0x2
    3218:	40640333          	sub	t1,s0,t1
    321c:	72533423          	sd	t0,1832(t1) # 2728 <.LBB45_3+0x1210>
    3220:	00088283          	lb	t0,0(a7)
    3224:	00002337          	lui	t1,0x2
    3228:	40640333          	sub	t1,s0,t1
    322c:	72533023          	sd	t0,1824(t1) # 2720 <.LBB45_3+0x1208>
    3230:	00188883          	lb	a7,1(a7)
    3234:	000022b7          	lui	t0,0x2
    3238:	405402b3          	sub	t0,s0,t0
    323c:	7112bc23          	sd	a7,1816(t0) # 2718 <.LBB45_3+0x1200>
    3240:	01f80883          	lb	a7,31(a6) # ffffffffc000001f <.Lfunc_end80+0xffffffffbffd7653>
    3244:	000012b7          	lui	t0,0x1
    3248:	405402b3          	sub	t0,s0,t0
    324c:	9312b423          	sd	a7,-1752(t0) # 928 <.LBB45_1+0x614>
    3250:	01e80883          	lb	a7,30(a6)
    3254:	000012b7          	lui	t0,0x1
    3258:	405402b3          	sub	t0,s0,t0
    325c:	9112bc23          	sd	a7,-1768(t0) # 918 <.LBB45_1+0x604>
    3260:	01d80883          	lb	a7,29(a6)
    3264:	000012b7          	lui	t0,0x1
    3268:	405402b3          	sub	t0,s0,t0
    326c:	9112b423          	sd	a7,-1784(t0) # 908 <.LBB45_1+0x5f4>
    3270:	01c80883          	lb	a7,28(a6)
    3274:	000012b7          	lui	t0,0x1
    3278:	405402b3          	sub	t0,s0,t0
    327c:	8f12bc23          	sd	a7,-1800(t0) # 8f8 <.LBB45_1+0x5e4>
    3280:	01b80883          	lb	a7,27(a6)
    3284:	000012b7          	lui	t0,0x1
    3288:	405402b3          	sub	t0,s0,t0
    328c:	8f12b823          	sd	a7,-1808(t0) # 8f0 <.LBB45_1+0x5dc>
    3290:	01a80883          	lb	a7,26(a6)
    3294:	000012b7          	lui	t0,0x1
    3298:	405402b3          	sub	t0,s0,t0
    329c:	8f12b423          	sd	a7,-1816(t0) # 8e8 <.LBB45_1+0x5d4>
    32a0:	01980883          	lb	a7,25(a6)
    32a4:	000012b7          	lui	t0,0x1
    32a8:	405402b3          	sub	t0,s0,t0
    32ac:	8f12b023          	sd	a7,-1824(t0) # 8e0 <.LBB45_1+0x5cc>
    32b0:	01880883          	lb	a7,24(a6)
    32b4:	000012b7          	lui	t0,0x1
    32b8:	405402b3          	sub	t0,s0,t0
    32bc:	8d12bc23          	sd	a7,-1832(t0) # 8d8 <.LBB45_1+0x5c4>
    32c0:	01780883          	lb	a7,23(a6)
    32c4:	000012b7          	lui	t0,0x1
    32c8:	405402b3          	sub	t0,s0,t0
    32cc:	8d12b823          	sd	a7,-1840(t0) # 8d0 <.LBB45_1+0x5bc>
    32d0:	01680883          	lb	a7,22(a6)
    32d4:	000012b7          	lui	t0,0x1
    32d8:	405402b3          	sub	t0,s0,t0
    32dc:	8d12b423          	sd	a7,-1848(t0) # 8c8 <.LBB45_1+0x5b4>
    32e0:	01580883          	lb	a7,21(a6)
    32e4:	000012b7          	lui	t0,0x1
    32e8:	405402b3          	sub	t0,s0,t0
    32ec:	8d12b023          	sd	a7,-1856(t0) # 8c0 <.LBB45_1+0x5ac>
    32f0:	01480883          	lb	a7,20(a6)
    32f4:	000012b7          	lui	t0,0x1
    32f8:	405402b3          	sub	t0,s0,t0
    32fc:	8b12bc23          	sd	a7,-1864(t0) # 8b8 <.LBB45_1+0x5a4>
    3300:	01380883          	lb	a7,19(a6)
    3304:	000012b7          	lui	t0,0x1
    3308:	405402b3          	sub	t0,s0,t0
    330c:	8b12b823          	sd	a7,-1872(t0) # 8b0 <.LBB45_1+0x59c>
    3310:	01280883          	lb	a7,18(a6)
    3314:	000012b7          	lui	t0,0x1
    3318:	405402b3          	sub	t0,s0,t0
    331c:	8b12b423          	sd	a7,-1880(t0) # 8a8 <.LBB45_1+0x594>
    3320:	01180883          	lb	a7,17(a6)
    3324:	000012b7          	lui	t0,0x1
    3328:	405402b3          	sub	t0,s0,t0
    332c:	8b12b023          	sd	a7,-1888(t0) # 8a0 <.LBB45_1+0x58c>
    3330:	01080883          	lb	a7,16(a6)
    3334:	000012b7          	lui	t0,0x1
    3338:	405402b3          	sub	t0,s0,t0
    333c:	8912bc23          	sd	a7,-1896(t0) # 898 <.LBB45_1+0x584>
    3340:	00f80883          	lb	a7,15(a6)
    3344:	000012b7          	lui	t0,0x1
    3348:	405402b3          	sub	t0,s0,t0
    334c:	8912b823          	sd	a7,-1904(t0) # 890 <.LBB45_1+0x57c>
    3350:	00e80883          	lb	a7,14(a6)
    3354:	000012b7          	lui	t0,0x1
    3358:	405402b3          	sub	t0,s0,t0
    335c:	8912b423          	sd	a7,-1912(t0) # 888 <.LBB45_1+0x574>
    3360:	00d80883          	lb	a7,13(a6)
    3364:	000012b7          	lui	t0,0x1
    3368:	405402b3          	sub	t0,s0,t0
    336c:	8912b023          	sd	a7,-1920(t0) # 880 <.LBB45_1+0x56c>
    3370:	00c80883          	lb	a7,12(a6)
    3374:	000012b7          	lui	t0,0x1
    3378:	405402b3          	sub	t0,s0,t0
    337c:	8712bc23          	sd	a7,-1928(t0) # 878 <.LBB45_1+0x564>
    3380:	00b80883          	lb	a7,11(a6)
    3384:	000012b7          	lui	t0,0x1
    3388:	405402b3          	sub	t0,s0,t0
    338c:	8712b823          	sd	a7,-1936(t0) # 870 <.LBB45_1+0x55c>
    3390:	00a80883          	lb	a7,10(a6)
    3394:	000012b7          	lui	t0,0x1
    3398:	405402b3          	sub	t0,s0,t0
    339c:	8712b423          	sd	a7,-1944(t0) # 868 <.LBB45_1+0x554>
    33a0:	00980883          	lb	a7,9(a6)
    33a4:	000012b7          	lui	t0,0x1
    33a8:	405402b3          	sub	t0,s0,t0
    33ac:	8712b023          	sd	a7,-1952(t0) # 860 <.LBB45_1+0x54c>
    33b0:	00880883          	lb	a7,8(a6)
    33b4:	000012b7          	lui	t0,0x1
    33b8:	405402b3          	sub	t0,s0,t0
    33bc:	8512bc23          	sd	a7,-1960(t0) # 858 <.LBB45_1+0x544>
    33c0:	00780883          	lb	a7,7(a6)
    33c4:	000012b7          	lui	t0,0x1
    33c8:	405402b3          	sub	t0,s0,t0
    33cc:	8512b823          	sd	a7,-1968(t0) # 850 <.LBB45_1+0x53c>
    33d0:	00680883          	lb	a7,6(a6)
    33d4:	000012b7          	lui	t0,0x1
    33d8:	405402b3          	sub	t0,s0,t0
    33dc:	8512b423          	sd	a7,-1976(t0) # 848 <.LBB45_1+0x534>
    33e0:	00580883          	lb	a7,5(a6)
    33e4:	000012b7          	lui	t0,0x1
    33e8:	405402b3          	sub	t0,s0,t0
    33ec:	8512b023          	sd	a7,-1984(t0) # 840 <.LBB45_1+0x52c>
    33f0:	00480883          	lb	a7,4(a6)
    33f4:	000012b7          	lui	t0,0x1
    33f8:	405402b3          	sub	t0,s0,t0
    33fc:	8312bc23          	sd	a7,-1992(t0) # 838 <.LBB45_1+0x524>
    3400:	00380883          	lb	a7,3(a6)
    3404:	000012b7          	lui	t0,0x1
    3408:	405402b3          	sub	t0,s0,t0
    340c:	8312b823          	sd	a7,-2000(t0) # 830 <.LBB45_1+0x51c>
    3410:	00280883          	lb	a7,2(a6)
    3414:	000012b7          	lui	t0,0x1
    3418:	405402b3          	sub	t0,s0,t0
    341c:	8312b023          	sd	a7,-2016(t0) # 820 <.LBB45_1+0x50c>
    3420:	00080883          	lb	a7,0(a6)
    3424:	000012b7          	lui	t0,0x1
    3428:	405402b3          	sub	t0,s0,t0
    342c:	8112b823          	sd	a7,-2032(t0) # 810 <.LBB45_1+0x4fc>
    3430:	00180803          	lb	a6,1(a6)
    3434:	000018b7          	lui	a7,0x1
    3438:	411408b3          	sub	a7,s0,a7
    343c:	8108b023          	sd	a6,-2048(a7) # 800 <.LBB45_1+0x4ec>
    3440:	01f78803          	lb	a6,31(a5)
    3444:	000018b7          	lui	a7,0x1
    3448:	411408b3          	sub	a7,s0,a7
    344c:	a308b423          	sd	a6,-1496(a7) # a28 <.LBB45_1+0x714>
    3450:	01e78803          	lb	a6,30(a5)
    3454:	000018b7          	lui	a7,0x1
    3458:	411408b3          	sub	a7,s0,a7
    345c:	a108bc23          	sd	a6,-1512(a7) # a18 <.LBB45_1+0x704>
    3460:	01d78803          	lb	a6,29(a5)
    3464:	000018b7          	lui	a7,0x1
    3468:	411408b3          	sub	a7,s0,a7
    346c:	a108b423          	sd	a6,-1528(a7) # a08 <.LBB45_1+0x6f4>
    3470:	01c78803          	lb	a6,28(a5)
    3474:	000018b7          	lui	a7,0x1
    3478:	411408b3          	sub	a7,s0,a7
    347c:	9f08bc23          	sd	a6,-1544(a7) # 9f8 <.LBB45_1+0x6e4>
    3480:	01b78803          	lb	a6,27(a5)
    3484:	000018b7          	lui	a7,0x1
    3488:	411408b3          	sub	a7,s0,a7
    348c:	9f08b823          	sd	a6,-1552(a7) # 9f0 <.LBB45_1+0x6dc>
    3490:	01a78803          	lb	a6,26(a5)
    3494:	000018b7          	lui	a7,0x1
    3498:	411408b3          	sub	a7,s0,a7
    349c:	9f08b423          	sd	a6,-1560(a7) # 9e8 <.LBB45_1+0x6d4>
    34a0:	01978803          	lb	a6,25(a5)
    34a4:	000018b7          	lui	a7,0x1
    34a8:	411408b3          	sub	a7,s0,a7
    34ac:	9f08b023          	sd	a6,-1568(a7) # 9e0 <.LBB45_1+0x6cc>
    34b0:	01878803          	lb	a6,24(a5)
    34b4:	000018b7          	lui	a7,0x1
    34b8:	411408b3          	sub	a7,s0,a7
    34bc:	9d08bc23          	sd	a6,-1576(a7) # 9d8 <.LBB45_1+0x6c4>
    34c0:	01778803          	lb	a6,23(a5)
    34c4:	000018b7          	lui	a7,0x1
    34c8:	411408b3          	sub	a7,s0,a7
    34cc:	9d08b823          	sd	a6,-1584(a7) # 9d0 <.LBB45_1+0x6bc>
    34d0:	01678803          	lb	a6,22(a5)
    34d4:	000018b7          	lui	a7,0x1
    34d8:	411408b3          	sub	a7,s0,a7
    34dc:	9d08b423          	sd	a6,-1592(a7) # 9c8 <.LBB45_1+0x6b4>
    34e0:	01578803          	lb	a6,21(a5)
    34e4:	000018b7          	lui	a7,0x1
    34e8:	411408b3          	sub	a7,s0,a7
    34ec:	9d08b023          	sd	a6,-1600(a7) # 9c0 <.LBB45_1+0x6ac>
    34f0:	01478803          	lb	a6,20(a5)
    34f4:	000018b7          	lui	a7,0x1
    34f8:	411408b3          	sub	a7,s0,a7
    34fc:	9b08bc23          	sd	a6,-1608(a7) # 9b8 <.LBB45_1+0x6a4>
    3500:	01378803          	lb	a6,19(a5)
    3504:	000018b7          	lui	a7,0x1
    3508:	411408b3          	sub	a7,s0,a7
    350c:	9b08b823          	sd	a6,-1616(a7) # 9b0 <.LBB45_1+0x69c>
    3510:	01278803          	lb	a6,18(a5)
    3514:	000018b7          	lui	a7,0x1
    3518:	411408b3          	sub	a7,s0,a7
    351c:	9b08b423          	sd	a6,-1624(a7) # 9a8 <.LBB45_1+0x694>
    3520:	01178803          	lb	a6,17(a5)
    3524:	000018b7          	lui	a7,0x1
    3528:	411408b3          	sub	a7,s0,a7
    352c:	9b08b023          	sd	a6,-1632(a7) # 9a0 <.LBB45_1+0x68c>
    3530:	01078803          	lb	a6,16(a5)
    3534:	000018b7          	lui	a7,0x1
    3538:	411408b3          	sub	a7,s0,a7
    353c:	9908bc23          	sd	a6,-1640(a7) # 998 <.LBB45_1+0x684>
    3540:	00f78803          	lb	a6,15(a5)
    3544:	000018b7          	lui	a7,0x1
    3548:	411408b3          	sub	a7,s0,a7
    354c:	9908b823          	sd	a6,-1648(a7) # 990 <.LBB45_1+0x67c>
    3550:	00e78803          	lb	a6,14(a5)
    3554:	000018b7          	lui	a7,0x1
    3558:	411408b3          	sub	a7,s0,a7
    355c:	9908b423          	sd	a6,-1656(a7) # 988 <.LBB45_1+0x674>
    3560:	00d78803          	lb	a6,13(a5)
    3564:	000018b7          	lui	a7,0x1
    3568:	411408b3          	sub	a7,s0,a7
    356c:	9908b023          	sd	a6,-1664(a7) # 980 <.LBB45_1+0x66c>
    3570:	00c78803          	lb	a6,12(a5)
    3574:	000018b7          	lui	a7,0x1
    3578:	411408b3          	sub	a7,s0,a7
    357c:	9708bc23          	sd	a6,-1672(a7) # 978 <.LBB45_1+0x664>
    3580:	00b78803          	lb	a6,11(a5)
    3584:	000018b7          	lui	a7,0x1
    3588:	411408b3          	sub	a7,s0,a7
    358c:	9708b823          	sd	a6,-1680(a7) # 970 <.LBB45_1+0x65c>
    3590:	00a78803          	lb	a6,10(a5)
    3594:	000018b7          	lui	a7,0x1
    3598:	411408b3          	sub	a7,s0,a7
    359c:	9708b423          	sd	a6,-1688(a7) # 968 <.LBB45_1+0x654>
    35a0:	00978803          	lb	a6,9(a5)
    35a4:	000018b7          	lui	a7,0x1
    35a8:	411408b3          	sub	a7,s0,a7
    35ac:	9708b023          	sd	a6,-1696(a7) # 960 <.LBB45_1+0x64c>
    35b0:	00878803          	lb	a6,8(a5)
    35b4:	000018b7          	lui	a7,0x1
    35b8:	411408b3          	sub	a7,s0,a7
    35bc:	9508bc23          	sd	a6,-1704(a7) # 958 <.LBB45_1+0x644>
    35c0:	00778803          	lb	a6,7(a5)
    35c4:	000018b7          	lui	a7,0x1
    35c8:	411408b3          	sub	a7,s0,a7
    35cc:	9508b823          	sd	a6,-1712(a7) # 950 <.LBB45_1+0x63c>
    35d0:	00678803          	lb	a6,6(a5)
    35d4:	000018b7          	lui	a7,0x1
    35d8:	411408b3          	sub	a7,s0,a7
    35dc:	9508b423          	sd	a6,-1720(a7) # 948 <.LBB45_1+0x634>
    35e0:	00578803          	lb	a6,5(a5)
    35e4:	000018b7          	lui	a7,0x1
    35e8:	411408b3          	sub	a7,s0,a7
    35ec:	9508b023          	sd	a6,-1728(a7) # 940 <.LBB45_1+0x62c>
    35f0:	00478803          	lb	a6,4(a5)
    35f4:	000018b7          	lui	a7,0x1
    35f8:	411408b3          	sub	a7,s0,a7
    35fc:	9308bc23          	sd	a6,-1736(a7) # 938 <.LBB45_1+0x624>
    3600:	00378803          	lb	a6,3(a5)
    3604:	000018b7          	lui	a7,0x1
    3608:	411408b3          	sub	a7,s0,a7
    360c:	9308b823          	sd	a6,-1744(a7) # 930 <.LBB45_1+0x61c>
    3610:	00278803          	lb	a6,2(a5)
    3614:	000018b7          	lui	a7,0x1
    3618:	411408b3          	sub	a7,s0,a7
    361c:	9308b023          	sd	a6,-1760(a7) # 920 <.LBB45_1+0x60c>
    3620:	00078803          	lb	a6,0(a5)
    3624:	000018b7          	lui	a7,0x1
    3628:	411408b3          	sub	a7,s0,a7
    362c:	9108b823          	sd	a6,-1776(a7) # 910 <.LBB45_1+0x5fc>
    3630:	00178783          	lb	a5,1(a5)
    3634:	00001837          	lui	a6,0x1
    3638:	41040833          	sub	a6,s0,a6
    363c:	90f83023          	sd	a5,-1792(a6) # 900 <.LBB45_1+0x5ec>
    3640:	01f70783          	lb	a5,31(a4) # ffffffffc000001f <.Lfunc_end80+0xffffffffbffd7653>
    3644:	00001837          	lui	a6,0x1
    3648:	41040833          	sub	a6,s0,a6
    364c:	b2f83423          	sd	a5,-1240(a6) # b28 <.LBB45_1+0x814>
    3650:	01e70783          	lb	a5,30(a4)
    3654:	00001837          	lui	a6,0x1
    3658:	41040833          	sub	a6,s0,a6
    365c:	b0f83c23          	sd	a5,-1256(a6) # b18 <.LBB45_1+0x804>
    3660:	01d70783          	lb	a5,29(a4)
    3664:	00001837          	lui	a6,0x1
    3668:	41040833          	sub	a6,s0,a6
    366c:	b0f83423          	sd	a5,-1272(a6) # b08 <.LBB45_1+0x7f4>
    3670:	01c70783          	lb	a5,28(a4)
    3674:	00001837          	lui	a6,0x1
    3678:	41040833          	sub	a6,s0,a6
    367c:	aef83c23          	sd	a5,-1288(a6) # af8 <.LBB45_1+0x7e4>
    3680:	01b70783          	lb	a5,27(a4)
    3684:	00001837          	lui	a6,0x1
    3688:	41040833          	sub	a6,s0,a6
    368c:	aef83823          	sd	a5,-1296(a6) # af0 <.LBB45_1+0x7dc>
    3690:	01a70783          	lb	a5,26(a4)
    3694:	00001837          	lui	a6,0x1
    3698:	41040833          	sub	a6,s0,a6
    369c:	aef83423          	sd	a5,-1304(a6) # ae8 <.LBB45_1+0x7d4>
    36a0:	01970783          	lb	a5,25(a4)
    36a4:	00001837          	lui	a6,0x1
    36a8:	41040833          	sub	a6,s0,a6
    36ac:	aef83023          	sd	a5,-1312(a6) # ae0 <.LBB45_1+0x7cc>
    36b0:	01870783          	lb	a5,24(a4)
    36b4:	00001837          	lui	a6,0x1
    36b8:	41040833          	sub	a6,s0,a6
    36bc:	acf83c23          	sd	a5,-1320(a6) # ad8 <.LBB45_1+0x7c4>
    36c0:	01770783          	lb	a5,23(a4)
    36c4:	00001837          	lui	a6,0x1
    36c8:	41040833          	sub	a6,s0,a6
    36cc:	acf83823          	sd	a5,-1328(a6) # ad0 <.LBB45_1+0x7bc>
    36d0:	01670783          	lb	a5,22(a4)
    36d4:	00001837          	lui	a6,0x1
    36d8:	41040833          	sub	a6,s0,a6
    36dc:	acf83423          	sd	a5,-1336(a6) # ac8 <.LBB45_1+0x7b4>
    36e0:	01570783          	lb	a5,21(a4)
    36e4:	00001837          	lui	a6,0x1
    36e8:	41040833          	sub	a6,s0,a6
    36ec:	acf83023          	sd	a5,-1344(a6) # ac0 <.LBB45_1+0x7ac>
    36f0:	01470783          	lb	a5,20(a4)
    36f4:	00001837          	lui	a6,0x1
    36f8:	41040833          	sub	a6,s0,a6
    36fc:	aaf83c23          	sd	a5,-1352(a6) # ab8 <.LBB45_1+0x7a4>
    3700:	01370783          	lb	a5,19(a4)
    3704:	00001837          	lui	a6,0x1
    3708:	41040833          	sub	a6,s0,a6
    370c:	aaf83823          	sd	a5,-1360(a6) # ab0 <.LBB45_1+0x79c>
    3710:	01270783          	lb	a5,18(a4)
    3714:	00001837          	lui	a6,0x1
    3718:	41040833          	sub	a6,s0,a6
    371c:	aaf83423          	sd	a5,-1368(a6) # aa8 <.LBB45_1+0x794>
    3720:	01170783          	lb	a5,17(a4)
    3724:	00001837          	lui	a6,0x1
    3728:	41040833          	sub	a6,s0,a6
    372c:	aaf83023          	sd	a5,-1376(a6) # aa0 <.LBB45_1+0x78c>
    3730:	01070783          	lb	a5,16(a4)
    3734:	00001837          	lui	a6,0x1
    3738:	41040833          	sub	a6,s0,a6
    373c:	a8f83c23          	sd	a5,-1384(a6) # a98 <.LBB45_1+0x784>
    3740:	00f70783          	lb	a5,15(a4)
    3744:	00001837          	lui	a6,0x1
    3748:	41040833          	sub	a6,s0,a6
    374c:	a8f83823          	sd	a5,-1392(a6) # a90 <.LBB45_1+0x77c>
    3750:	00e70783          	lb	a5,14(a4)
    3754:	00001837          	lui	a6,0x1
    3758:	41040833          	sub	a6,s0,a6
    375c:	a8f83423          	sd	a5,-1400(a6) # a88 <.LBB45_1+0x774>
    3760:	00d70783          	lb	a5,13(a4)
    3764:	00001837          	lui	a6,0x1
    3768:	41040833          	sub	a6,s0,a6
    376c:	a8f83023          	sd	a5,-1408(a6) # a80 <.LBB45_1+0x76c>
    3770:	00c70783          	lb	a5,12(a4)
    3774:	00001837          	lui	a6,0x1
    3778:	41040833          	sub	a6,s0,a6
    377c:	a6f83c23          	sd	a5,-1416(a6) # a78 <.LBB45_1+0x764>
    3780:	00b70783          	lb	a5,11(a4)
    3784:	00001837          	lui	a6,0x1
    3788:	41040833          	sub	a6,s0,a6
    378c:	a6f83823          	sd	a5,-1424(a6) # a70 <.LBB45_1+0x75c>
    3790:	00a70783          	lb	a5,10(a4)
    3794:	00001837          	lui	a6,0x1
    3798:	41040833          	sub	a6,s0,a6
    379c:	a6f83423          	sd	a5,-1432(a6) # a68 <.LBB45_1+0x754>
    37a0:	00970783          	lb	a5,9(a4)
    37a4:	00001837          	lui	a6,0x1
    37a8:	41040833          	sub	a6,s0,a6
    37ac:	a6f83023          	sd	a5,-1440(a6) # a60 <.LBB45_1+0x74c>
    37b0:	00870783          	lb	a5,8(a4)
    37b4:	00001837          	lui	a6,0x1
    37b8:	41040833          	sub	a6,s0,a6
    37bc:	a4f83c23          	sd	a5,-1448(a6) # a58 <.LBB45_1+0x744>
    37c0:	00770783          	lb	a5,7(a4)
    37c4:	00001837          	lui	a6,0x1
    37c8:	41040833          	sub	a6,s0,a6
    37cc:	a4f83823          	sd	a5,-1456(a6) # a50 <.LBB45_1+0x73c>
    37d0:	00670783          	lb	a5,6(a4)
    37d4:	00001837          	lui	a6,0x1
    37d8:	41040833          	sub	a6,s0,a6
    37dc:	a4f83423          	sd	a5,-1464(a6) # a48 <.LBB45_1+0x734>
    37e0:	00570783          	lb	a5,5(a4)
    37e4:	00001837          	lui	a6,0x1
    37e8:	41040833          	sub	a6,s0,a6
    37ec:	a4f83023          	sd	a5,-1472(a6) # a40 <.LBB45_1+0x72c>
    37f0:	00470783          	lb	a5,4(a4)
    37f4:	00001837          	lui	a6,0x1
    37f8:	41040833          	sub	a6,s0,a6
    37fc:	a2f83c23          	sd	a5,-1480(a6) # a38 <.LBB45_1+0x724>
    3800:	00370783          	lb	a5,3(a4)
    3804:	00001837          	lui	a6,0x1
    3808:	41040833          	sub	a6,s0,a6
    380c:	a2f83823          	sd	a5,-1488(a6) # a30 <.LBB45_1+0x71c>
    3810:	00270783          	lb	a5,2(a4)
    3814:	00001837          	lui	a6,0x1
    3818:	41040833          	sub	a6,s0,a6
    381c:	a2f83023          	sd	a5,-1504(a6) # a20 <.LBB45_1+0x70c>
    3820:	00070783          	lb	a5,0(a4)
    3824:	00001837          	lui	a6,0x1
    3828:	41040833          	sub	a6,s0,a6
    382c:	a0f83823          	sd	a5,-1520(a6) # a10 <.LBB45_1+0x6fc>
    3830:	00170703          	lb	a4,1(a4)
    3834:	000017b7          	lui	a5,0x1
    3838:	40f407b3          	sub	a5,s0,a5
    383c:	a0e7b023          	sd	a4,-1536(a5) # a00 <.LBB45_1+0x6ec>
    3840:	01f68703          	lb	a4,31(a3) # ffffffffc000001f <.Lfunc_end80+0xffffffffbffd7653>
    3844:	000017b7          	lui	a5,0x1
    3848:	40f407b3          	sub	a5,s0,a5
    384c:	c2e7b423          	sd	a4,-984(a5) # c28 <.LBB45_1+0x914>
    3850:	01e68703          	lb	a4,30(a3)
    3854:	000017b7          	lui	a5,0x1
    3858:	40f407b3          	sub	a5,s0,a5
    385c:	c0e7bc23          	sd	a4,-1000(a5) # c18 <.LBB45_1+0x904>
    3860:	01d68703          	lb	a4,29(a3)
    3864:	000017b7          	lui	a5,0x1
    3868:	40f407b3          	sub	a5,s0,a5
    386c:	c0e7b423          	sd	a4,-1016(a5) # c08 <.LBB45_1+0x8f4>
    3870:	01c68703          	lb	a4,28(a3)
    3874:	000017b7          	lui	a5,0x1
    3878:	40f407b3          	sub	a5,s0,a5
    387c:	bee7bc23          	sd	a4,-1032(a5) # bf8 <.LBB45_1+0x8e4>
    3880:	01b68703          	lb	a4,27(a3)
    3884:	000017b7          	lui	a5,0x1
    3888:	40f407b3          	sub	a5,s0,a5
    388c:	bee7b823          	sd	a4,-1040(a5) # bf0 <.LBB45_1+0x8dc>
    3890:	01a68703          	lb	a4,26(a3)
    3894:	000017b7          	lui	a5,0x1
    3898:	40f407b3          	sub	a5,s0,a5
    389c:	bee7b423          	sd	a4,-1048(a5) # be8 <.LBB45_1+0x8d4>
    38a0:	01968703          	lb	a4,25(a3)
    38a4:	000017b7          	lui	a5,0x1
    38a8:	40f407b3          	sub	a5,s0,a5
    38ac:	bee7b023          	sd	a4,-1056(a5) # be0 <.LBB45_1+0x8cc>
    38b0:	01868703          	lb	a4,24(a3)
    38b4:	000017b7          	lui	a5,0x1
    38b8:	40f407b3          	sub	a5,s0,a5
    38bc:	bce7bc23          	sd	a4,-1064(a5) # bd8 <.LBB45_1+0x8c4>
    38c0:	01768703          	lb	a4,23(a3)
    38c4:	000017b7          	lui	a5,0x1
    38c8:	40f407b3          	sub	a5,s0,a5
    38cc:	bce7b823          	sd	a4,-1072(a5) # bd0 <.LBB45_1+0x8bc>
    38d0:	01668703          	lb	a4,22(a3)
    38d4:	000017b7          	lui	a5,0x1
    38d8:	40f407b3          	sub	a5,s0,a5
    38dc:	bce7b423          	sd	a4,-1080(a5) # bc8 <.LBB45_1+0x8b4>
    38e0:	01568703          	lb	a4,21(a3)
    38e4:	000017b7          	lui	a5,0x1
    38e8:	40f407b3          	sub	a5,s0,a5
    38ec:	bce7b023          	sd	a4,-1088(a5) # bc0 <.LBB45_1+0x8ac>
    38f0:	01468703          	lb	a4,20(a3)
    38f4:	000017b7          	lui	a5,0x1
    38f8:	40f407b3          	sub	a5,s0,a5
    38fc:	bae7bc23          	sd	a4,-1096(a5) # bb8 <.LBB45_1+0x8a4>
    3900:	01368703          	lb	a4,19(a3)
    3904:	000017b7          	lui	a5,0x1
    3908:	40f407b3          	sub	a5,s0,a5
    390c:	bae7b823          	sd	a4,-1104(a5) # bb0 <.LBB45_1+0x89c>
    3910:	01268703          	lb	a4,18(a3)
    3914:	000017b7          	lui	a5,0x1
    3918:	40f407b3          	sub	a5,s0,a5
    391c:	bae7b423          	sd	a4,-1112(a5) # ba8 <.LBB45_1+0x894>
    3920:	01168703          	lb	a4,17(a3)
    3924:	000017b7          	lui	a5,0x1
    3928:	40f407b3          	sub	a5,s0,a5
    392c:	bae7b023          	sd	a4,-1120(a5) # ba0 <.LBB45_1+0x88c>
    3930:	01068703          	lb	a4,16(a3)
    3934:	000017b7          	lui	a5,0x1
    3938:	40f407b3          	sub	a5,s0,a5
    393c:	b8e7bc23          	sd	a4,-1128(a5) # b98 <.LBB45_1+0x884>
    3940:	00f68703          	lb	a4,15(a3)
    3944:	000017b7          	lui	a5,0x1
    3948:	40f407b3          	sub	a5,s0,a5
    394c:	b8e7b823          	sd	a4,-1136(a5) # b90 <.LBB45_1+0x87c>
    3950:	00e68703          	lb	a4,14(a3)
    3954:	000017b7          	lui	a5,0x1
    3958:	40f407b3          	sub	a5,s0,a5
    395c:	b8e7b423          	sd	a4,-1144(a5) # b88 <.LBB45_1+0x874>
    3960:	00d68703          	lb	a4,13(a3)
    3964:	000017b7          	lui	a5,0x1
    3968:	40f407b3          	sub	a5,s0,a5
    396c:	b8e7b023          	sd	a4,-1152(a5) # b80 <.LBB45_1+0x86c>
    3970:	00c68703          	lb	a4,12(a3)
    3974:	000017b7          	lui	a5,0x1
    3978:	40f407b3          	sub	a5,s0,a5
    397c:	b6e7bc23          	sd	a4,-1160(a5) # b78 <.LBB45_1+0x864>
    3980:	00b68703          	lb	a4,11(a3)
    3984:	000017b7          	lui	a5,0x1
    3988:	40f407b3          	sub	a5,s0,a5
    398c:	b6e7b823          	sd	a4,-1168(a5) # b70 <.LBB45_1+0x85c>
    3990:	00a68703          	lb	a4,10(a3)
    3994:	000017b7          	lui	a5,0x1
    3998:	40f407b3          	sub	a5,s0,a5
    399c:	b6e7b423          	sd	a4,-1176(a5) # b68 <.LBB45_1+0x854>
    39a0:	00968703          	lb	a4,9(a3)
    39a4:	000017b7          	lui	a5,0x1
    39a8:	40f407b3          	sub	a5,s0,a5
    39ac:	b6e7b023          	sd	a4,-1184(a5) # b60 <.LBB45_1+0x84c>
    39b0:	00868703          	lb	a4,8(a3)
    39b4:	000017b7          	lui	a5,0x1
    39b8:	40f407b3          	sub	a5,s0,a5
    39bc:	b4e7bc23          	sd	a4,-1192(a5) # b58 <.LBB45_1+0x844>
    39c0:	00768703          	lb	a4,7(a3)
    39c4:	000017b7          	lui	a5,0x1
    39c8:	40f407b3          	sub	a5,s0,a5
    39cc:	b4e7b823          	sd	a4,-1200(a5) # b50 <.LBB45_1+0x83c>
    39d0:	00668703          	lb	a4,6(a3)
    39d4:	000017b7          	lui	a5,0x1
    39d8:	40f407b3          	sub	a5,s0,a5
    39dc:	b4e7b423          	sd	a4,-1208(a5) # b48 <.LBB45_1+0x834>
    39e0:	00568703          	lb	a4,5(a3)
    39e4:	000017b7          	lui	a5,0x1
    39e8:	40f407b3          	sub	a5,s0,a5
    39ec:	b4e7b023          	sd	a4,-1216(a5) # b40 <.LBB45_1+0x82c>
    39f0:	00468703          	lb	a4,4(a3)
    39f4:	000017b7          	lui	a5,0x1
    39f8:	40f407b3          	sub	a5,s0,a5
    39fc:	b2e7bc23          	sd	a4,-1224(a5) # b38 <.LBB45_1+0x824>
    3a00:	00368703          	lb	a4,3(a3)
    3a04:	000017b7          	lui	a5,0x1
    3a08:	40f407b3          	sub	a5,s0,a5
    3a0c:	b2e7b823          	sd	a4,-1232(a5) # b30 <.LBB45_1+0x81c>
    3a10:	00268703          	lb	a4,2(a3)
    3a14:	000017b7          	lui	a5,0x1
    3a18:	40f407b3          	sub	a5,s0,a5
    3a1c:	b2e7b023          	sd	a4,-1248(a5) # b20 <.LBB45_1+0x80c>
    3a20:	00068703          	lb	a4,0(a3)
    3a24:	000017b7          	lui	a5,0x1
    3a28:	40f407b3          	sub	a5,s0,a5
    3a2c:	b0e7b823          	sd	a4,-1264(a5) # b10 <.LBB45_1+0x7fc>
    3a30:	00168683          	lb	a3,1(a3)
    3a34:	00001737          	lui	a4,0x1
    3a38:	40e40733          	sub	a4,s0,a4
    3a3c:	b0d73023          	sd	a3,-1280(a4) # b00 <.LBB45_1+0x7ec>
    3a40:	01f60683          	lb	a3,31(a2)
    3a44:	00001737          	lui	a4,0x1
    3a48:	40e40733          	sub	a4,s0,a4
    3a4c:	d2d73823          	sd	a3,-720(a4) # d30 <.LBB45_1+0xa1c>
    3a50:	01e60683          	lb	a3,30(a2)
    3a54:	00001737          	lui	a4,0x1
    3a58:	40e40733          	sub	a4,s0,a4
    3a5c:	d2d73023          	sd	a3,-736(a4) # d20 <.LBB45_1+0xa0c>
    3a60:	01d60683          	lb	a3,29(a2)
    3a64:	00001737          	lui	a4,0x1
    3a68:	40e40733          	sub	a4,s0,a4
    3a6c:	d0d73823          	sd	a3,-752(a4) # d10 <.LBB45_1+0x9fc>
    3a70:	01c60683          	lb	a3,28(a2)
    3a74:	00001737          	lui	a4,0x1
    3a78:	40e40733          	sub	a4,s0,a4
    3a7c:	d0d73023          	sd	a3,-768(a4) # d00 <.LBB45_1+0x9ec>
    3a80:	01b60683          	lb	a3,27(a2)
    3a84:	00001737          	lui	a4,0x1
    3a88:	40e40733          	sub	a4,s0,a4
    3a8c:	ced73823          	sd	a3,-784(a4) # cf0 <.LBB45_1+0x9dc>
    3a90:	01a60683          	lb	a3,26(a2)
    3a94:	00001737          	lui	a4,0x1
    3a98:	40e40733          	sub	a4,s0,a4
    3a9c:	ced73423          	sd	a3,-792(a4) # ce8 <.LBB45_1+0x9d4>
    3aa0:	01960683          	lb	a3,25(a2)
    3aa4:	00001737          	lui	a4,0x1
    3aa8:	40e40733          	sub	a4,s0,a4
    3aac:	ced73023          	sd	a3,-800(a4) # ce0 <.LBB45_1+0x9cc>
    3ab0:	01860683          	lb	a3,24(a2)
    3ab4:	00001737          	lui	a4,0x1
    3ab8:	40e40733          	sub	a4,s0,a4
    3abc:	ccd73c23          	sd	a3,-808(a4) # cd8 <.LBB45_1+0x9c4>
    3ac0:	01760683          	lb	a3,23(a2)
    3ac4:	00001737          	lui	a4,0x1
    3ac8:	40e40733          	sub	a4,s0,a4
    3acc:	ccd73823          	sd	a3,-816(a4) # cd0 <.LBB45_1+0x9bc>
    3ad0:	01660683          	lb	a3,22(a2)
    3ad4:	00001737          	lui	a4,0x1
    3ad8:	40e40733          	sub	a4,s0,a4
    3adc:	ccd73423          	sd	a3,-824(a4) # cc8 <.LBB45_1+0x9b4>
    3ae0:	01560683          	lb	a3,21(a2)
    3ae4:	00001737          	lui	a4,0x1
    3ae8:	40e40733          	sub	a4,s0,a4
    3aec:	ccd73023          	sd	a3,-832(a4) # cc0 <.LBB45_1+0x9ac>
    3af0:	01460683          	lb	a3,20(a2)
    3af4:	00001737          	lui	a4,0x1
    3af8:	40e40733          	sub	a4,s0,a4
    3afc:	cad73c23          	sd	a3,-840(a4) # cb8 <.LBB45_1+0x9a4>
    3b00:	01360683          	lb	a3,19(a2)
    3b04:	00001737          	lui	a4,0x1
    3b08:	40e40733          	sub	a4,s0,a4
    3b0c:	cad73823          	sd	a3,-848(a4) # cb0 <.LBB45_1+0x99c>
    3b10:	01260683          	lb	a3,18(a2)
    3b14:	00001737          	lui	a4,0x1
    3b18:	40e40733          	sub	a4,s0,a4
    3b1c:	cad73423          	sd	a3,-856(a4) # ca8 <.LBB45_1+0x994>
    3b20:	01160683          	lb	a3,17(a2)
    3b24:	00001737          	lui	a4,0x1
    3b28:	40e40733          	sub	a4,s0,a4
    3b2c:	cad73023          	sd	a3,-864(a4) # ca0 <.LBB45_1+0x98c>
    3b30:	01060683          	lb	a3,16(a2)
    3b34:	00001737          	lui	a4,0x1
    3b38:	40e40733          	sub	a4,s0,a4
    3b3c:	c8d73c23          	sd	a3,-872(a4) # c98 <.LBB45_1+0x984>
    3b40:	00f60683          	lb	a3,15(a2)
    3b44:	00001737          	lui	a4,0x1
    3b48:	40e40733          	sub	a4,s0,a4
    3b4c:	c8d73823          	sd	a3,-880(a4) # c90 <.LBB45_1+0x97c>
    3b50:	00e60683          	lb	a3,14(a2)
    3b54:	00001737          	lui	a4,0x1
    3b58:	40e40733          	sub	a4,s0,a4
    3b5c:	c8d73423          	sd	a3,-888(a4) # c88 <.LBB45_1+0x974>
    3b60:	00d60683          	lb	a3,13(a2)
    3b64:	00001737          	lui	a4,0x1
    3b68:	40e40733          	sub	a4,s0,a4
    3b6c:	c8d73023          	sd	a3,-896(a4) # c80 <.LBB45_1+0x96c>
    3b70:	00c60683          	lb	a3,12(a2)
    3b74:	00001737          	lui	a4,0x1
    3b78:	40e40733          	sub	a4,s0,a4
    3b7c:	c6d73c23          	sd	a3,-904(a4) # c78 <.LBB45_1+0x964>
    3b80:	00b60683          	lb	a3,11(a2)
    3b84:	00001737          	lui	a4,0x1
    3b88:	40e40733          	sub	a4,s0,a4
    3b8c:	c6d73823          	sd	a3,-912(a4) # c70 <.LBB45_1+0x95c>
    3b90:	00a60683          	lb	a3,10(a2)
    3b94:	00001737          	lui	a4,0x1
    3b98:	40e40733          	sub	a4,s0,a4
    3b9c:	c6d73423          	sd	a3,-920(a4) # c68 <.LBB45_1+0x954>
    3ba0:	00960683          	lb	a3,9(a2)
    3ba4:	00001737          	lui	a4,0x1
    3ba8:	40e40733          	sub	a4,s0,a4
    3bac:	c6d73023          	sd	a3,-928(a4) # c60 <.LBB45_1+0x94c>
    3bb0:	00860683          	lb	a3,8(a2)
    3bb4:	00001737          	lui	a4,0x1
    3bb8:	40e40733          	sub	a4,s0,a4
    3bbc:	c4d73c23          	sd	a3,-936(a4) # c58 <.LBB45_1+0x944>
    3bc0:	00760683          	lb	a3,7(a2)
    3bc4:	00001737          	lui	a4,0x1
    3bc8:	40e40733          	sub	a4,s0,a4
    3bcc:	c4d73823          	sd	a3,-944(a4) # c50 <.LBB45_1+0x93c>
    3bd0:	00660683          	lb	a3,6(a2)
    3bd4:	00001737          	lui	a4,0x1
    3bd8:	40e40733          	sub	a4,s0,a4
    3bdc:	c4d73423          	sd	a3,-952(a4) # c48 <.LBB45_1+0x934>
    3be0:	00560683          	lb	a3,5(a2)
    3be4:	00001737          	lui	a4,0x1
    3be8:	40e40733          	sub	a4,s0,a4
    3bec:	c4d73023          	sd	a3,-960(a4) # c40 <.LBB45_1+0x92c>
    3bf0:	00460683          	lb	a3,4(a2)
    3bf4:	00001737          	lui	a4,0x1
    3bf8:	40e40733          	sub	a4,s0,a4
    3bfc:	c2d73c23          	sd	a3,-968(a4) # c38 <.LBB45_1+0x924>
    3c00:	00360683          	lb	a3,3(a2)
    3c04:	00001737          	lui	a4,0x1
    3c08:	40e40733          	sub	a4,s0,a4
    3c0c:	c2d73823          	sd	a3,-976(a4) # c30 <.LBB45_1+0x91c>
    3c10:	00260683          	lb	a3,2(a2)
    3c14:	00001737          	lui	a4,0x1
    3c18:	40e40733          	sub	a4,s0,a4
    3c1c:	c2d73023          	sd	a3,-992(a4) # c20 <.LBB45_1+0x90c>
    3c20:	00060683          	lb	a3,0(a2)
    3c24:	00001737          	lui	a4,0x1
    3c28:	40e40733          	sub	a4,s0,a4
    3c2c:	c0d73823          	sd	a3,-1008(a4) # c10 <.LBB45_1+0x8fc>
    3c30:	00160603          	lb	a2,1(a2)
    3c34:	000016b7          	lui	a3,0x1
    3c38:	40d406b3          	sub	a3,s0,a3
    3c3c:	c0c6b023          	sd	a2,-1024(a3) # c00 <.LBB45_1+0x8ec>
    3c40:	01f58603          	lb	a2,31(a1)
    3c44:	000016b7          	lui	a3,0x1
    3c48:	40d406b3          	sub	a3,s0,a3
    3c4c:	e2c6b423          	sd	a2,-472(a3) # e28 <.LBB45_1+0xb14>
    3c50:	01e58603          	lb	a2,30(a1)
    3c54:	000016b7          	lui	a3,0x1
    3c58:	40d406b3          	sub	a3,s0,a3
    3c5c:	e0c6bc23          	sd	a2,-488(a3) # e18 <.LBB45_1+0xb04>
    3c60:	01d58603          	lb	a2,29(a1)
    3c64:	000016b7          	lui	a3,0x1
    3c68:	40d406b3          	sub	a3,s0,a3
    3c6c:	e0c6b423          	sd	a2,-504(a3) # e08 <.LBB45_1+0xaf4>
    3c70:	01c58603          	lb	a2,28(a1)
    3c74:	000016b7          	lui	a3,0x1
    3c78:	40d406b3          	sub	a3,s0,a3
    3c7c:	dec6bc23          	sd	a2,-520(a3) # df8 <.LBB45_1+0xae4>
    3c80:	01b58603          	lb	a2,27(a1)
    3c84:	000016b7          	lui	a3,0x1
    3c88:	40d406b3          	sub	a3,s0,a3
    3c8c:	dec6b823          	sd	a2,-528(a3) # df0 <.LBB45_1+0xadc>
    3c90:	01a58603          	lb	a2,26(a1)
    3c94:	000016b7          	lui	a3,0x1
    3c98:	40d406b3          	sub	a3,s0,a3
    3c9c:	dec6b423          	sd	a2,-536(a3) # de8 <.LBB45_1+0xad4>
    3ca0:	01958603          	lb	a2,25(a1)
    3ca4:	000016b7          	lui	a3,0x1
    3ca8:	40d406b3          	sub	a3,s0,a3
    3cac:	dec6b023          	sd	a2,-544(a3) # de0 <.LBB45_1+0xacc>
    3cb0:	01858603          	lb	a2,24(a1)
    3cb4:	000016b7          	lui	a3,0x1
    3cb8:	40d406b3          	sub	a3,s0,a3
    3cbc:	dcc6bc23          	sd	a2,-552(a3) # dd8 <.LBB45_1+0xac4>
    3cc0:	01758603          	lb	a2,23(a1)
    3cc4:	000016b7          	lui	a3,0x1
    3cc8:	40d406b3          	sub	a3,s0,a3
    3ccc:	dcc6b823          	sd	a2,-560(a3) # dd0 <.LBB45_1+0xabc>
    3cd0:	01658603          	lb	a2,22(a1)
    3cd4:	000016b7          	lui	a3,0x1
    3cd8:	40d406b3          	sub	a3,s0,a3
    3cdc:	dcc6b423          	sd	a2,-568(a3) # dc8 <.LBB45_1+0xab4>
    3ce0:	01558603          	lb	a2,21(a1)
    3ce4:	000016b7          	lui	a3,0x1
    3ce8:	40d406b3          	sub	a3,s0,a3
    3cec:	dcc6b023          	sd	a2,-576(a3) # dc0 <.LBB45_1+0xaac>
    3cf0:	01458603          	lb	a2,20(a1)
    3cf4:	000016b7          	lui	a3,0x1
    3cf8:	40d406b3          	sub	a3,s0,a3
    3cfc:	dac6bc23          	sd	a2,-584(a3) # db8 <.LBB45_1+0xaa4>
    3d00:	01358603          	lb	a2,19(a1)
    3d04:	000016b7          	lui	a3,0x1
    3d08:	40d406b3          	sub	a3,s0,a3
    3d0c:	dac6b823          	sd	a2,-592(a3) # db0 <.LBB45_1+0xa9c>
    3d10:	01258603          	lb	a2,18(a1)
    3d14:	000016b7          	lui	a3,0x1
    3d18:	40d406b3          	sub	a3,s0,a3
    3d1c:	dac6b423          	sd	a2,-600(a3) # da8 <.LBB45_1+0xa94>
    3d20:	01158603          	lb	a2,17(a1)
    3d24:	000016b7          	lui	a3,0x1
    3d28:	40d406b3          	sub	a3,s0,a3
    3d2c:	dac6b023          	sd	a2,-608(a3) # da0 <.LBB45_1+0xa8c>
    3d30:	01058603          	lb	a2,16(a1)
    3d34:	000016b7          	lui	a3,0x1
    3d38:	40d406b3          	sub	a3,s0,a3
    3d3c:	d8c6bc23          	sd	a2,-616(a3) # d98 <.LBB45_1+0xa84>
    3d40:	00f58603          	lb	a2,15(a1)
    3d44:	000016b7          	lui	a3,0x1
    3d48:	40d406b3          	sub	a3,s0,a3
    3d4c:	d8c6b823          	sd	a2,-624(a3) # d90 <.LBB45_1+0xa7c>
    3d50:	00e58603          	lb	a2,14(a1)
    3d54:	000016b7          	lui	a3,0x1
    3d58:	40d406b3          	sub	a3,s0,a3
    3d5c:	d8c6b423          	sd	a2,-632(a3) # d88 <.LBB45_1+0xa74>
    3d60:	00d58603          	lb	a2,13(a1)
    3d64:	000016b7          	lui	a3,0x1
    3d68:	40d406b3          	sub	a3,s0,a3
    3d6c:	d8c6b023          	sd	a2,-640(a3) # d80 <.LBB45_1+0xa6c>
    3d70:	00c58603          	lb	a2,12(a1)
    3d74:	000016b7          	lui	a3,0x1
    3d78:	40d406b3          	sub	a3,s0,a3
    3d7c:	d6c6bc23          	sd	a2,-648(a3) # d78 <.LBB45_1+0xa64>
    3d80:	00b58603          	lb	a2,11(a1)
    3d84:	000016b7          	lui	a3,0x1
    3d88:	40d406b3          	sub	a3,s0,a3
    3d8c:	d6c6b823          	sd	a2,-656(a3) # d70 <.LBB45_1+0xa5c>
    3d90:	00a58603          	lb	a2,10(a1)
    3d94:	000016b7          	lui	a3,0x1
    3d98:	40d406b3          	sub	a3,s0,a3
    3d9c:	d6c6b423          	sd	a2,-664(a3) # d68 <.LBB45_1+0xa54>
    3da0:	00958603          	lb	a2,9(a1)
    3da4:	000016b7          	lui	a3,0x1
    3da8:	40d406b3          	sub	a3,s0,a3
    3dac:	d6c6b023          	sd	a2,-672(a3) # d60 <.LBB45_1+0xa4c>
    3db0:	00858603          	lb	a2,8(a1)
    3db4:	000016b7          	lui	a3,0x1
    3db8:	40d406b3          	sub	a3,s0,a3
    3dbc:	d4c6bc23          	sd	a2,-680(a3) # d58 <.LBB45_1+0xa44>
    3dc0:	00758603          	lb	a2,7(a1)
    3dc4:	000016b7          	lui	a3,0x1
    3dc8:	40d406b3          	sub	a3,s0,a3
    3dcc:	d4c6b823          	sd	a2,-688(a3) # d50 <.LBB45_1+0xa3c>
    3dd0:	00658603          	lb	a2,6(a1)
    3dd4:	000016b7          	lui	a3,0x1
    3dd8:	40d406b3          	sub	a3,s0,a3
    3ddc:	d4c6b423          	sd	a2,-696(a3) # d48 <.LBB45_1+0xa34>
    3de0:	00558603          	lb	a2,5(a1)
    3de4:	000016b7          	lui	a3,0x1
    3de8:	40d406b3          	sub	a3,s0,a3
    3dec:	d4c6b023          	sd	a2,-704(a3) # d40 <.LBB45_1+0xa2c>
    3df0:	00458603          	lb	a2,4(a1)
    3df4:	000016b7          	lui	a3,0x1
    3df8:	40d406b3          	sub	a3,s0,a3
    3dfc:	d2c6bc23          	sd	a2,-712(a3) # d38 <.LBB45_1+0xa24>
    3e00:	00358603          	lb	a2,3(a1)
    3e04:	000016b7          	lui	a3,0x1
    3e08:	40d406b3          	sub	a3,s0,a3
    3e0c:	d2c6b423          	sd	a2,-728(a3) # d28 <.LBB45_1+0xa14>
    3e10:	00258603          	lb	a2,2(a1)
    3e14:	000016b7          	lui	a3,0x1
    3e18:	40d406b3          	sub	a3,s0,a3
    3e1c:	d0c6bc23          	sd	a2,-744(a3) # d18 <.LBB45_1+0xa04>
    3e20:	00058603          	lb	a2,0(a1)
    3e24:	000016b7          	lui	a3,0x1
    3e28:	40d406b3          	sub	a3,s0,a3
    3e2c:	d0c6b423          	sd	a2,-760(a3) # d08 <.LBB45_1+0x9f4>
    3e30:	00158583          	lb	a1,1(a1)
    3e34:	00001637          	lui	a2,0x1
    3e38:	40c40633          	sub	a2,s0,a2
    3e3c:	ceb63c23          	sd	a1,-776(a2) # cf8 <.LBB45_1+0x9e4>
    3e40:	01f50583          	lb	a1,31(a0)
    3e44:	00001637          	lui	a2,0x1
    3e48:	40c40633          	sub	a2,s0,a2
    3e4c:	f0b63823          	sd	a1,-240(a2) # f10 <.LBB45_1+0xbfc>
    3e50:	01e50583          	lb	a1,30(a0)
    3e54:	00001637          	lui	a2,0x1
    3e58:	40c40633          	sub	a2,s0,a2
    3e5c:	f0b63423          	sd	a1,-248(a2) # f08 <.LBB45_1+0xbf4>
    3e60:	01d50583          	lb	a1,29(a0)
    3e64:	00001637          	lui	a2,0x1
    3e68:	40c40633          	sub	a2,s0,a2
    3e6c:	f0b63023          	sd	a1,-256(a2) # f00 <.LBB45_1+0xbec>
    3e70:	01c50583          	lb	a1,28(a0)
    3e74:	00001637          	lui	a2,0x1
    3e78:	40c40633          	sub	a2,s0,a2
    3e7c:	eeb63c23          	sd	a1,-264(a2) # ef8 <.LBB45_1+0xbe4>
    3e80:	01b50583          	lb	a1,27(a0)
    3e84:	00001637          	lui	a2,0x1
    3e88:	40c40633          	sub	a2,s0,a2
    3e8c:	eeb63823          	sd	a1,-272(a2) # ef0 <.LBB45_1+0xbdc>
    3e90:	01a50583          	lb	a1,26(a0)
    3e94:	00001637          	lui	a2,0x1
    3e98:	40c40633          	sub	a2,s0,a2
    3e9c:	eeb63423          	sd	a1,-280(a2) # ee8 <.LBB45_1+0xbd4>
    3ea0:	01950583          	lb	a1,25(a0)
    3ea4:	00001637          	lui	a2,0x1
    3ea8:	40c40633          	sub	a2,s0,a2
    3eac:	eeb63023          	sd	a1,-288(a2) # ee0 <.LBB45_1+0xbcc>
    3eb0:	01850583          	lb	a1,24(a0)
    3eb4:	00001637          	lui	a2,0x1
    3eb8:	40c40633          	sub	a2,s0,a2
    3ebc:	ecb63c23          	sd	a1,-296(a2) # ed8 <.LBB45_1+0xbc4>
    3ec0:	01750583          	lb	a1,23(a0)
    3ec4:	00001637          	lui	a2,0x1
    3ec8:	40c40633          	sub	a2,s0,a2
    3ecc:	ecb63823          	sd	a1,-304(a2) # ed0 <.LBB45_1+0xbbc>
    3ed0:	01650583          	lb	a1,22(a0)
    3ed4:	00001637          	lui	a2,0x1
    3ed8:	40c40633          	sub	a2,s0,a2
    3edc:	ecb63423          	sd	a1,-312(a2) # ec8 <.LBB45_1+0xbb4>
    3ee0:	01550583          	lb	a1,21(a0)
    3ee4:	00001637          	lui	a2,0x1
    3ee8:	40c40633          	sub	a2,s0,a2
    3eec:	ecb63023          	sd	a1,-320(a2) # ec0 <.LBB45_1+0xbac>
    3ef0:	01450583          	lb	a1,20(a0)
    3ef4:	00001637          	lui	a2,0x1
    3ef8:	40c40633          	sub	a2,s0,a2
    3efc:	eab63c23          	sd	a1,-328(a2) # eb8 <.LBB45_1+0xba4>
    3f00:	01350583          	lb	a1,19(a0)
    3f04:	00001637          	lui	a2,0x1
    3f08:	40c40633          	sub	a2,s0,a2
    3f0c:	eab63823          	sd	a1,-336(a2) # eb0 <.LBB45_1+0xb9c>
    3f10:	01250583          	lb	a1,18(a0)
    3f14:	00001637          	lui	a2,0x1
    3f18:	40c40633          	sub	a2,s0,a2
    3f1c:	eab63423          	sd	a1,-344(a2) # ea8 <.LBB45_1+0xb94>
    3f20:	01150583          	lb	a1,17(a0)
    3f24:	00001637          	lui	a2,0x1
    3f28:	40c40633          	sub	a2,s0,a2
    3f2c:	eab63023          	sd	a1,-352(a2) # ea0 <.LBB45_1+0xb8c>
    3f30:	01050583          	lb	a1,16(a0)
    3f34:	00001637          	lui	a2,0x1
    3f38:	40c40633          	sub	a2,s0,a2
    3f3c:	e8b63c23          	sd	a1,-360(a2) # e98 <.LBB45_1+0xb84>
    3f40:	00f50583          	lb	a1,15(a0)
    3f44:	00001637          	lui	a2,0x1
    3f48:	40c40633          	sub	a2,s0,a2
    3f4c:	e8b63823          	sd	a1,-368(a2) # e90 <.LBB45_1+0xb7c>
    3f50:	00e50583          	lb	a1,14(a0)
    3f54:	00001637          	lui	a2,0x1
    3f58:	40c40633          	sub	a2,s0,a2
    3f5c:	e8b63423          	sd	a1,-376(a2) # e88 <.LBB45_1+0xb74>
    3f60:	00d50583          	lb	a1,13(a0)
    3f64:	00001637          	lui	a2,0x1
    3f68:	40c40633          	sub	a2,s0,a2
    3f6c:	e8b63023          	sd	a1,-384(a2) # e80 <.LBB45_1+0xb6c>
    3f70:	00c50583          	lb	a1,12(a0)
    3f74:	00001637          	lui	a2,0x1
    3f78:	40c40633          	sub	a2,s0,a2
    3f7c:	e6b63c23          	sd	a1,-392(a2) # e78 <.LBB45_1+0xb64>
    3f80:	00b50583          	lb	a1,11(a0)
    3f84:	00001637          	lui	a2,0x1
    3f88:	40c40633          	sub	a2,s0,a2
    3f8c:	e6b63823          	sd	a1,-400(a2) # e70 <.LBB45_1+0xb5c>
    3f90:	00a50583          	lb	a1,10(a0)
    3f94:	00001637          	lui	a2,0x1
    3f98:	40c40633          	sub	a2,s0,a2
    3f9c:	e6b63423          	sd	a1,-408(a2) # e68 <.LBB45_1+0xb54>
    3fa0:	00950583          	lb	a1,9(a0)
    3fa4:	00001637          	lui	a2,0x1
    3fa8:	40c40633          	sub	a2,s0,a2
    3fac:	e6b63023          	sd	a1,-416(a2) # e60 <.LBB45_1+0xb4c>
    3fb0:	00850583          	lb	a1,8(a0)
    3fb4:	00001637          	lui	a2,0x1
    3fb8:	40c40633          	sub	a2,s0,a2
    3fbc:	e4b63c23          	sd	a1,-424(a2) # e58 <.LBB45_1+0xb44>
    3fc0:	00750583          	lb	a1,7(a0)
    3fc4:	00001637          	lui	a2,0x1
    3fc8:	40c40633          	sub	a2,s0,a2
    3fcc:	e4b63823          	sd	a1,-432(a2) # e50 <.LBB45_1+0xb3c>
    3fd0:	00650583          	lb	a1,6(a0)
    3fd4:	00001637          	lui	a2,0x1
    3fd8:	40c40633          	sub	a2,s0,a2
    3fdc:	e4b63423          	sd	a1,-440(a2) # e48 <.LBB45_1+0xb34>
    3fe0:	00550583          	lb	a1,5(a0)
    3fe4:	00001637          	lui	a2,0x1
    3fe8:	40c40633          	sub	a2,s0,a2
    3fec:	e4b63023          	sd	a1,-448(a2) # e40 <.LBB45_1+0xb2c>
    3ff0:	00450583          	lb	a1,4(a0)
    3ff4:	00001637          	lui	a2,0x1
    3ff8:	40c40633          	sub	a2,s0,a2
    3ffc:	e2b63c23          	sd	a1,-456(a2) # e38 <.LBB45_1+0xb24>
    4000:	00350583          	lb	a1,3(a0)
    4004:	00001637          	lui	a2,0x1
    4008:	40c40633          	sub	a2,s0,a2
    400c:	e2b63823          	sd	a1,-464(a2) # e30 <.LBB45_1+0xb1c>
    4010:	00250583          	lb	a1,2(a0)
    4014:	00001637          	lui	a2,0x1
    4018:	40c40633          	sub	a2,s0,a2
    401c:	e2b63023          	sd	a1,-480(a2) # e20 <.LBB45_1+0xb0c>
    4020:	00050583          	lb	a1,0(a0)
    4024:	00001637          	lui	a2,0x1
    4028:	40c40633          	sub	a2,s0,a2
    402c:	e0b63823          	sd	a1,-496(a2) # e10 <.LBB45_1+0xafc>
    4030:	00150503          	lb	a0,1(a0)
    4034:	000015b7          	lui	a1,0x1
    4038:	40b405b3          	sub	a1,s0,a1
    403c:	e0a5b023          	sd	a0,-512(a1) # e00 <.LBB45_1+0xaec>
    4040:	054fa783          	lw	a5,84(t6)
    4044:	050fa683          	lw	a3,80(t6)
    4048:	04cfa603          	lw	a2,76(t6)
    404c:	048fa583          	lw	a1,72(t6)
    4050:	044fae03          	lw	t3,68(t6)
    4054:	040fa383          	lw	t2,64(t6)
    4058:	03cfaf03          	lw	t5,60(t6)
    405c:	038fae83          	lw	t4,56(t6)
    4060:	034fa503          	lw	a0,52(t6)
    4064:	030fa083          	lw	ra,48(t6)
    4068:	02cfad83          	lw	s11,44(t6)
    406c:	028fad03          	lw	s10,40(t6)
    4070:	024fac83          	lw	s9,36(t6)
    4074:	020fac03          	lw	s8,32(t6)
    4078:	01cfab83          	lw	s7,28(t6)
    407c:	018fab03          	lw	s6,24(t6)
    4080:	014faa83          	lw	s5,20(t6)
    4084:	010fa983          	lw	s3,16(t6)
    4088:	00cfa483          	lw	s1,12(t6)
    408c:	008fa303          	lw	t1,8(t6)
    4090:	000fa883          	lw	a7,0(t6)
    4094:	004fa703          	lw	a4,4(t6)
    4098:	400002b7          	lui	t0,0x40000
    409c:	e5043803          	ld	a6,-432(s0)
    40a0:	00085463          	bgez	a6,40a8 <.LBB45_24>
    40a4:	c00002b7          	lui	t0,0xc0000

00000000000040a8 <.LBB45_24>:
    40a8:	00002837          	lui	a6,0x2
    40ac:	41040833          	sub	a6,s0,a6
    40b0:	5a583023          	sd	t0,1440(a6) # 25a0 <.LBB45_3+0x1088>
    40b4:	00779293          	slli	t0,a5,0x7
    40b8:	000017b7          	lui	a5,0x1
    40bc:	40f407b3          	sub	a5,s0,a5
    40c0:	6187b783          	ld	a5,1560(a5) # 1618 <.LBB45_3+0x100>
    40c4:	00001837          	lui	a6,0x1
    40c8:	41040833          	sub	a6,s0,a6
    40cc:	6f883803          	ld	a6,1784(a6) # 16f8 <.LBB45_3+0x1e0>
    40d0:	010787b3          	add	a5,a5,a6
    40d4:	f4543c23          	sd	t0,-168(s0)
    40d8:	005787bb          	addw	a5,a5,t0
    40dc:	40000837          	lui	a6,0x40000
    40e0:	8b043283          	ld	t0,-1872(s0)
    40e4:	8a043f83          	ld	t6,-1888(s0)
    40e8:	00002937          	lui	s2,0x2
    40ec:	41240933          	sub	s2,s0,s2
    40f0:	52f93c23          	sd	a5,1336(s2) # 2538 <.LBB45_3+0x1020>
    40f4:	0007d463          	bgez	a5,40fc <.LBB45_26>
    40f8:	c0000837          	lui	a6,0xc0000

00000000000040fc <.LBB45_26>:
    40fc:	000027b7          	lui	a5,0x2
    4100:	40f407b3          	sub	a5,s0,a5
    4104:	5307b023          	sd	a6,1312(a5) # 2520 <.LBB45_3+0x1008>
    4108:	00769813          	slli	a6,a3,0x7
    410c:	000016b7          	lui	a3,0x1
    4110:	40d406b3          	sub	a3,s0,a3
    4114:	6106b783          	ld	a5,1552(a3) # 1610 <.LBB45_3+0xf8>
    4118:	000016b7          	lui	a3,0x1
    411c:	40d406b3          	sub	a3,s0,a3
    4120:	7006b683          	ld	a3,1792(a3) # 1700 <.LBB45_3+0x1e8>
    4124:	00d787b3          	add	a5,a5,a3
    4128:	f3043823          	sd	a6,-208(s0)
    412c:	010786bb          	addw	a3,a5,a6
    4130:	400007b7          	lui	a5,0x40000
    4134:	8c043803          	ld	a6,-1856(s0)
    4138:	00002937          	lui	s2,0x2
    413c:	41240933          	sub	s2,s0,s2
    4140:	4cd93023          	sd	a3,1216(s2) # 24c0 <.LBB45_3+0xfa8>
    4144:	00001937          	lui	s2,0x1
    4148:	41240933          	sub	s2,s0,s2
    414c:	7c093903          	ld	s2,1984(s2) # 17c0 <.LBB45_3+0x2a8>
    4150:	00001a37          	lui	s4,0x1
    4154:	41440a33          	sub	s4,s0,s4
    4158:	7b0a3a03          	ld	s4,1968(s4) # 17b0 <.LBB45_3+0x298>
    415c:	0006d463          	bgez	a3,4164 <.LBB45_28>
    4160:	c00007b7          	lui	a5,0xc0000

0000000000004164 <.LBB45_28>:
    4164:	000026b7          	lui	a3,0x2
    4168:	40d406b3          	sub	a3,s0,a3
    416c:	4af6b823          	sd	a5,1200(a3) # 24b0 <.LBB45_3+0xf98>
    4170:	00761693          	slli	a3,a2,0x7
    4174:	00001637          	lui	a2,0x1
    4178:	40c40633          	sub	a2,s0,a2
    417c:	60863783          	ld	a5,1544(a2) # 1608 <.LBB45_3+0xf0>
    4180:	00001637          	lui	a2,0x1
    4184:	40c40633          	sub	a2,s0,a2
    4188:	70863603          	ld	a2,1800(a2) # 1708 <.LBB45_3+0x1f0>
    418c:	00c787b3          	add	a5,a5,a2
    4190:	e6d43823          	sd	a3,-400(s0)
    4194:	00d7863b          	addw	a2,a5,a3
    4198:	400006b7          	lui	a3,0x40000
    419c:	000027b7          	lui	a5,0x2
    41a0:	40f407b3          	sub	a5,s0,a5
    41a4:	44c7bc23          	sd	a2,1112(a5) # 2458 <.LBB45_3+0xf40>
    41a8:	00065463          	bgez	a2,41b0 <.LBB45_30>
    41ac:	c00006b7          	lui	a3,0xc0000

00000000000041b0 <.LBB45_30>:
    41b0:	f8a43823          	sd	a0,-112(s0)
    41b4:	00002537          	lui	a0,0x2
    41b8:	40a40533          	sub	a0,s0,a0
    41bc:	44d53423          	sd	a3,1096(a0) # 2448 <.LBB45_3+0xf30>
    41c0:	00759613          	slli	a2,a1,0x7
    41c4:	00001537          	lui	a0,0x1
    41c8:	40a40533          	sub	a0,s0,a0
    41cc:	60053783          	ld	a5,1536(a0) # 1600 <.LBB45_3+0xe8>
    41d0:	00001537          	lui	a0,0x1
    41d4:	40a40533          	sub	a0,s0,a0
    41d8:	71053583          	ld	a1,1808(a0) # 1710 <.LBB45_3+0x1f8>
    41dc:	00b787b3          	add	a5,a5,a1
    41e0:	f4c43823          	sd	a2,-176(s0)
    41e4:	00c785bb          	addw	a1,a5,a2
    41e8:	400007b7          	lui	a5,0x40000
    41ec:	00001537          	lui	a0,0x1
    41f0:	40a40533          	sub	a0,s0,a0
    41f4:	7d853603          	ld	a2,2008(a0) # 17d8 <.LBB45_3+0x2c0>
    41f8:	00001537          	lui	a0,0x1
    41fc:	40a40533          	sub	a0,s0,a0
    4200:	7c853683          	ld	a3,1992(a0) # 17c8 <.LBB45_3+0x2b0>
    4204:	00002537          	lui	a0,0x2
    4208:	40a40533          	sub	a0,s0,a0
    420c:	3eb53823          	sd	a1,1008(a0) # 23f0 <.LBB45_3+0xed8>
    4210:	f9043503          	ld	a0,-112(s0)
    4214:	0005d463          	bgez	a1,421c <.LBB45_32>
    4218:	c00007b7          	lui	a5,0xc0000

000000000000421c <.LBB45_32>:
    421c:	f8a43823          	sd	a0,-112(s0)
    4220:	00002537          	lui	a0,0x2
    4224:	40a40533          	sub	a0,s0,a0
    4228:	3ef53423          	sd	a5,1000(a0) # 23e8 <.LBB45_3+0xed0>
    422c:	007e1e13          	slli	t3,t3,0x7
    4230:	00001537          	lui	a0,0x1
    4234:	40a40533          	sub	a0,s0,a0
    4238:	5f853783          	ld	a5,1528(a0) # 15f8 <.LBB45_3+0xe0>
    423c:	00001537          	lui	a0,0x1
    4240:	40a40533          	sub	a0,s0,a0
    4244:	71853583          	ld	a1,1816(a0) # 1718 <.LBB45_3+0x200>
    4248:	00b787b3          	add	a5,a5,a1
    424c:	f3c43023          	sd	t3,-224(s0)
    4250:	01c787bb          	addw	a5,a5,t3
    4254:	40000e37          	lui	t3,0x40000
    4258:	00001537          	lui	a0,0x1
    425c:	40a40533          	sub	a0,s0,a0
    4260:	7d053583          	ld	a1,2000(a0) # 17d0 <.LBB45_3+0x2b8>
    4264:	00002537          	lui	a0,0x2
    4268:	40a40533          	sub	a0,s0,a0
    426c:	38f53823          	sd	a5,912(a0) # 2390 <.LBB45_3+0xe78>
    4270:	f9043503          	ld	a0,-112(s0)
    4274:	0007d463          	bgez	a5,427c <.LBB45_34>
    4278:	c0000e37          	lui	t3,0xc0000

000000000000427c <.LBB45_34>:
    427c:	f8a43823          	sd	a0,-112(s0)
    4280:	00002537          	lui	a0,0x2
    4284:	40a40533          	sub	a0,s0,a0
    4288:	39c53423          	sd	t3,904(a0) # 2388 <.LBB45_3+0xe70>
    428c:	00739e13          	slli	t3,t2,0x7
    4290:	00001537          	lui	a0,0x1
    4294:	40a40533          	sub	a0,s0,a0
    4298:	5f053783          	ld	a5,1520(a0) # 15f0 <.LBB45_3+0xd8>
    429c:	00001537          	lui	a0,0x1
    42a0:	40a40533          	sub	a0,s0,a0
    42a4:	72053383          	ld	t2,1824(a0) # 1720 <.LBB45_3+0x208>
    42a8:	007787b3          	add	a5,a5,t2
    42ac:	f3c43423          	sd	t3,-216(s0)
    42b0:	01c787bb          	addw	a5,a5,t3
    42b4:	400003b7          	lui	t2,0x40000
    42b8:	82843e03          	ld	t3,-2008(s0)
    42bc:	00002537          	lui	a0,0x2
    42c0:	40a40533          	sub	a0,s0,a0
    42c4:	32f53823          	sd	a5,816(a0) # 2330 <.LBB45_3+0xe18>
    42c8:	f9043503          	ld	a0,-112(s0)
    42cc:	0007d463          	bgez	a5,42d4 <.LBB45_36>
    42d0:	c00003b7          	lui	t2,0xc0000

00000000000042d4 <.LBB45_36>:
    42d4:	f8a43823          	sd	a0,-112(s0)
    42d8:	00002537          	lui	a0,0x2
    42dc:	40a40533          	sub	a0,s0,a0
    42e0:	32753423          	sd	t2,808(a0) # 2328 <.LBB45_3+0xe10>
    42e4:	007f1f13          	slli	t5,t5,0x7
    42e8:	00001537          	lui	a0,0x1
    42ec:	40a40533          	sub	a0,s0,a0
    42f0:	5e853783          	ld	a5,1512(a0) # 15e8 <.LBB45_3+0xd0>
    42f4:	00001537          	lui	a0,0x1
    42f8:	40a40533          	sub	a0,s0,a0
    42fc:	72853383          	ld	t2,1832(a0) # 1728 <.LBB45_3+0x210>
    4300:	007787b3          	add	a5,a5,t2
    4304:	f5e43423          	sd	t5,-184(s0)
    4308:	01e787bb          	addw	a5,a5,t5
    430c:	40000f37          	lui	t5,0x40000
    4310:	00001537          	lui	a0,0x1
    4314:	40a40533          	sub	a0,s0,a0
    4318:	7e853383          	ld	t2,2024(a0) # 17e8 <.LBB45_3+0x2d0>
    431c:	00002537          	lui	a0,0x2
    4320:	40a40533          	sub	a0,s0,a0
    4324:	2ef53023          	sd	a5,736(a0) # 22e0 <.LBB45_3+0xdc8>
    4328:	f9043503          	ld	a0,-112(s0)
    432c:	0007d463          	bgez	a5,4334 <.LBB45_38>
    4330:	c0000f37          	lui	t5,0xc0000

0000000000004334 <.LBB45_38>:
    4334:	f8a43823          	sd	a0,-112(s0)
    4338:	00002537          	lui	a0,0x2
    433c:	40a40533          	sub	a0,s0,a0
    4340:	2de53c23          	sd	t5,728(a0) # 22d8 <.LBB45_3+0xdc0>
    4344:	007e9f13          	slli	t5,t4,0x7
    4348:	00001537          	lui	a0,0x1
    434c:	40a40533          	sub	a0,s0,a0
    4350:	5e053783          	ld	a5,1504(a0) # 15e0 <.LBB45_3+0xc8>
    4354:	00001537          	lui	a0,0x1
    4358:	40a40533          	sub	a0,s0,a0
    435c:	73053e83          	ld	t4,1840(a0) # 1730 <.LBB45_3+0x218>
    4360:	01d787b3          	add	a5,a5,t4
    4364:	f3e43c23          	sd	t5,-200(s0)
    4368:	01e787bb          	addw	a5,a5,t5
    436c:	40000eb7          	lui	t4,0x40000
    4370:	00001537          	lui	a0,0x1
    4374:	40a40533          	sub	a0,s0,a0
    4378:	7a053f03          	ld	t5,1952(a0) # 17a0 <.LBB45_3+0x288>
    437c:	00002537          	lui	a0,0x2
    4380:	40a40533          	sub	a0,s0,a0
    4384:	28f53823          	sd	a5,656(a0) # 2290 <.LBB45_3+0xd78>
    4388:	f9043503          	ld	a0,-112(s0)
    438c:	0007d463          	bgez	a5,4394 <.LBB45_40>
    4390:	c0000eb7          	lui	t4,0xc0000

0000000000004394 <.LBB45_40>:
    4394:	f8b43823          	sd	a1,-112(s0)
    4398:	000025b7          	lui	a1,0x2
    439c:	40b405b3          	sub	a1,s0,a1
    43a0:	29d5b423          	sd	t4,648(a1) # 2288 <.LBB45_3+0xd70>
    43a4:	00751e93          	slli	t4,a0,0x7
    43a8:	00001537          	lui	a0,0x1
    43ac:	40a40533          	sub	a0,s0,a0
    43b0:	5d853783          	ld	a5,1496(a0) # 15d8 <.LBB45_3+0xc0>
    43b4:	00001537          	lui	a0,0x1
    43b8:	40a40533          	sub	a0,s0,a0
    43bc:	73853503          	ld	a0,1848(a0) # 1738 <.LBB45_3+0x220>
    43c0:	00a787b3          	add	a5,a5,a0
    43c4:	f5d43023          	sd	t4,-192(s0)
    43c8:	01d7853b          	addw	a0,a5,t4
    43cc:	400007b7          	lui	a5,0x40000
    43d0:	000015b7          	lui	a1,0x1
    43d4:	40b405b3          	sub	a1,s0,a1
    43d8:	7f05be83          	ld	t4,2032(a1) # 17f0 <.LBB45_3+0x2d8>
    43dc:	000025b7          	lui	a1,0x2
    43e0:	40b405b3          	sub	a1,s0,a1
    43e4:	24a5b023          	sd	a0,576(a1) # 2240 <.LBB45_3+0xd28>
    43e8:	f9043583          	ld	a1,-112(s0)
    43ec:	00055463          	bgez	a0,43f4 <.LBB45_42>
    43f0:	c00007b7          	lui	a5,0xc0000

00000000000043f4 <.LBB45_42>:
    43f4:	f8b43823          	sd	a1,-112(s0)
    43f8:	00002537          	lui	a0,0x2
    43fc:	40a40533          	sub	a0,s0,a0
    4400:	22f53823          	sd	a5,560(a0) # 2230 <.LBB45_3+0xd18>
    4404:	00709093          	slli	ra,ra,0x7
    4408:	00001537          	lui	a0,0x1
    440c:	40a40533          	sub	a0,s0,a0
    4410:	5d053783          	ld	a5,1488(a0) # 15d0 <.LBB45_3+0xb8>
    4414:	00001537          	lui	a0,0x1
    4418:	40a40533          	sub	a0,s0,a0
    441c:	74053503          	ld	a0,1856(a0) # 1740 <.LBB45_3+0x228>
    4420:	00a787b3          	add	a5,a5,a0
    4424:	e6143423          	sd	ra,-408(s0)
    4428:	001787bb          	addw	a5,a5,ra
    442c:	400000b7          	lui	ra,0x40000
    4430:	00001537          	lui	a0,0x1
    4434:	40a40533          	sub	a0,s0,a0
    4438:	7f853503          	ld	a0,2040(a0) # 17f8 <.LBB45_3+0x2e0>
    443c:	000025b7          	lui	a1,0x2
    4440:	40b405b3          	sub	a1,s0,a1
    4444:	20f5b023          	sd	a5,512(a1) # 2200 <.LBB45_3+0xce8>
    4448:	f9043583          	ld	a1,-112(s0)
    444c:	0007d463          	bgez	a5,4454 <.LBB45_44>
    4450:	c00000b7          	lui	ra,0xc0000

0000000000004454 <.LBB45_44>:
    4454:	f8a43823          	sd	a0,-112(s0)
    4458:	00002537          	lui	a0,0x2
    445c:	40a40533          	sub	a0,s0,a0
    4460:	1e153823          	sd	ra,496(a0) # 21f0 <.LBB45_3+0xcd8>
    4464:	007d9093          	slli	ra,s11,0x7
    4468:	00001537          	lui	a0,0x1
    446c:	40a40533          	sub	a0,s0,a0
    4470:	5c853783          	ld	a5,1480(a0) # 15c8 <.LBB45_3+0xb0>
    4474:	00001537          	lui	a0,0x1
    4478:	40a40533          	sub	a0,s0,a0
    447c:	74853d83          	ld	s11,1864(a0) # 1748 <.LBB45_3+0x230>
    4480:	01b787b3          	add	a5,a5,s11
    4484:	e4143c23          	sd	ra,-424(s0)
    4488:	001787bb          	addw	a5,a5,ra
    448c:	40000db7          	lui	s11,0x40000
    4490:	00001537          	lui	a0,0x1
    4494:	40a40533          	sub	a0,s0,a0
    4498:	78053083          	ld	ra,1920(a0) # 1780 <.LBB45_3+0x268>
    449c:	00002537          	lui	a0,0x2
    44a0:	40a40533          	sub	a0,s0,a0
    44a4:	1af53c23          	sd	a5,440(a0) # 21b8 <.LBB45_3+0xca0>
    44a8:	f9043503          	ld	a0,-112(s0)
    44ac:	0007d463          	bgez	a5,44b4 <.LBB45_46>
    44b0:	c0000db7          	lui	s11,0xc0000

00000000000044b4 <.LBB45_46>:
    44b4:	f8a43823          	sd	a0,-112(s0)
    44b8:	00002537          	lui	a0,0x2
    44bc:	40a40533          	sub	a0,s0,a0
    44c0:	1bb53023          	sd	s11,416(a0) # 21a0 <.LBB45_3+0xc88>
    44c4:	007d1d93          	slli	s11,s10,0x7
    44c8:	00001537          	lui	a0,0x1
    44cc:	40a40533          	sub	a0,s0,a0
    44d0:	5c053783          	ld	a5,1472(a0) # 15c0 <.LBB45_3+0xa8>
    44d4:	00001537          	lui	a0,0x1
    44d8:	40a40533          	sub	a0,s0,a0
    44dc:	75053d03          	ld	s10,1872(a0) # 1750 <.LBB45_3+0x238>
    44e0:	01a787b3          	add	a5,a5,s10
    44e4:	e7b43023          	sd	s11,-416(s0)
    44e8:	01b787bb          	addw	a5,a5,s11
    44ec:	40000d37          	lui	s10,0x40000
    44f0:	00001537          	lui	a0,0x1
    44f4:	40a40533          	sub	a0,s0,a0
    44f8:	76853d83          	ld	s11,1896(a0) # 1768 <.LBB45_3+0x250>
    44fc:	00002537          	lui	a0,0x2
    4500:	40a40533          	sub	a0,s0,a0
    4504:	16f53823          	sd	a5,368(a0) # 2170 <.LBB45_3+0xc58>
    4508:	f9043503          	ld	a0,-112(s0)
    450c:	0007d463          	bgez	a5,4514 <.LBB45_48>
    4510:	c0000d37          	lui	s10,0xc0000

0000000000004514 <.LBB45_48>:
    4514:	f8a43823          	sd	a0,-112(s0)
    4518:	00002537          	lui	a0,0x2
    451c:	40a40533          	sub	a0,s0,a0
    4520:	17a53023          	sd	s10,352(a0) # 2160 <.LBB45_3+0xc48>
    4524:	007c9c93          	slli	s9,s9,0x7
    4528:	00001537          	lui	a0,0x1
    452c:	40a40533          	sub	a0,s0,a0
    4530:	5b853783          	ld	a5,1464(a0) # 15b8 <.LBB45_3+0xa0>
    4534:	00001537          	lui	a0,0x1
    4538:	40a40533          	sub	a0,s0,a0
    453c:	75853d03          	ld	s10,1880(a0) # 1758 <.LBB45_3+0x240>
    4540:	01a787b3          	add	a5,a5,s10
    4544:	019787bb          	addw	a5,a5,s9
    4548:	40000d37          	lui	s10,0x40000
    454c:	00002537          	lui	a0,0x2
    4550:	40a40533          	sub	a0,s0,a0
    4554:	12f53c23          	sd	a5,312(a0) # 2138 <.LBB45_3+0xc20>
    4558:	f9043503          	ld	a0,-112(s0)
    455c:	0007d463          	bgez	a5,4564 <.LBB45_50>
    4560:	c0000d37          	lui	s10,0xc0000

0000000000004564 <.LBB45_50>:
    4564:	f8a43823          	sd	a0,-112(s0)
    4568:	00002537          	lui	a0,0x2
    456c:	40a40533          	sub	a0,s0,a0
    4570:	13a53423          	sd	s10,296(a0) # 2128 <.LBB45_3+0xc10>
    4574:	007c1c13          	slli	s8,s8,0x7
    4578:	00001537          	lui	a0,0x1
    457c:	40a40533          	sub	a0,s0,a0
    4580:	5b053783          	ld	a5,1456(a0) # 15b0 <.LBB45_3+0x98>
    4584:	00001537          	lui	a0,0x1
    4588:	40a40533          	sub	a0,s0,a0
    458c:	76053d03          	ld	s10,1888(a0) # 1760 <.LBB45_3+0x248>
    4590:	01a787b3          	add	a5,a5,s10
    4594:	018787bb          	addw	a5,a5,s8
    4598:	40000d37          	lui	s10,0x40000
    459c:	00002537          	lui	a0,0x2
    45a0:	40a40533          	sub	a0,s0,a0
    45a4:	10f53023          	sd	a5,256(a0) # 2100 <.LBB45_3+0xbe8>
    45a8:	f9043503          	ld	a0,-112(s0)
    45ac:	0007d463          	bgez	a5,45b4 <.LBB45_52>
    45b0:	c0000d37          	lui	s10,0xc0000

00000000000045b4 <.LBB45_52>:
    45b4:	007b9b93          	slli	s7,s7,0x7
    45b8:	f8a43823          	sd	a0,-112(s0)
    45bc:	00001537          	lui	a0,0x1
    45c0:	40a40533          	sub	a0,s0,a0
    45c4:	5a853783          	ld	a5,1448(a0) # 15a8 <.LBB45_3+0x90>
    45c8:	01b787b3          	add	a5,a5,s11
    45cc:	017787bb          	addw	a5,a5,s7
    45d0:	40000db7          	lui	s11,0x40000
    45d4:	00002537          	lui	a0,0x2
    45d8:	40a40533          	sub	a0,s0,a0
    45dc:	0cf53823          	sd	a5,208(a0) # 20d0 <.LBB45_3+0xbb8>
    45e0:	f9043503          	ld	a0,-112(s0)
    45e4:	0007d463          	bgez	a5,45ec <.LBB45_54>
    45e8:	c0000db7          	lui	s11,0xc0000

00000000000045ec <.LBB45_54>:
    45ec:	f8a43823          	sd	a0,-112(s0)
    45f0:	00002537          	lui	a0,0x2
    45f4:	40a40533          	sub	a0,s0,a0
    45f8:	0db53423          	sd	s11,200(a0) # 20c8 <.LBB45_3+0xbb0>
    45fc:	007b1b13          	slli	s6,s6,0x7
    4600:	00001537          	lui	a0,0x1
    4604:	40a40533          	sub	a0,s0,a0
    4608:	5a053783          	ld	a5,1440(a0) # 15a0 <.LBB45_3+0x88>
    460c:	00001537          	lui	a0,0x1
    4610:	40a40533          	sub	a0,s0,a0
    4614:	77053d83          	ld	s11,1904(a0) # 1770 <.LBB45_3+0x258>
    4618:	01b787b3          	add	a5,a5,s11
    461c:	016787bb          	addw	a5,a5,s6
    4620:	40000db7          	lui	s11,0x40000
    4624:	00002537          	lui	a0,0x2
    4628:	40a40533          	sub	a0,s0,a0
    462c:	0af53023          	sd	a5,160(a0) # 20a0 <.LBB45_3+0xb88>
    4630:	f9043503          	ld	a0,-112(s0)
    4634:	0007d463          	bgez	a5,463c <.LBB45_56>
    4638:	c0000db7          	lui	s11,0xc0000

000000000000463c <.LBB45_56>:
    463c:	007a9a93          	slli	s5,s5,0x7
    4640:	f8a43823          	sd	a0,-112(s0)
    4644:	00001537          	lui	a0,0x1
    4648:	40a40533          	sub	a0,s0,a0
    464c:	59853783          	ld	a5,1432(a0) # 1598 <.LBB45_3+0x80>
    4650:	001787b3          	add	a5,a5,ra
    4654:	015787bb          	addw	a5,a5,s5
    4658:	400000b7          	lui	ra,0x40000
    465c:	00002537          	lui	a0,0x2
    4660:	40a40533          	sub	a0,s0,a0
    4664:	08f53423          	sd	a5,136(a0) # 2088 <.LBB45_3+0xb70>
    4668:	f9043503          	ld	a0,-112(s0)
    466c:	0007d463          	bgez	a5,4674 <.LBB45_58>
    4670:	c00000b7          	lui	ra,0xc0000

0000000000004674 <.LBB45_58>:
    4674:	f8a43823          	sd	a0,-112(s0)
    4678:	00002537          	lui	a0,0x2
    467c:	40a40533          	sub	a0,s0,a0
    4680:	08153023          	sd	ra,128(a0) # 2080 <.LBB45_3+0xb68>
    4684:	00799993          	slli	s3,s3,0x7
    4688:	00001537          	lui	a0,0x1
    468c:	40a40533          	sub	a0,s0,a0
    4690:	59053783          	ld	a5,1424(a0) # 1590 <.LBB45_3+0x78>
    4694:	00001537          	lui	a0,0x1
    4698:	40a40533          	sub	a0,s0,a0
    469c:	79053083          	ld	ra,1936(a0) # 1790 <.LBB45_3+0x278>
    46a0:	001787b3          	add	a5,a5,ra
    46a4:	013787bb          	addw	a5,a5,s3
    46a8:	400000b7          	lui	ra,0x40000
    46ac:	00002537          	lui	a0,0x2
    46b0:	40a40533          	sub	a0,s0,a0
    46b4:	06f53423          	sd	a5,104(a0) # 2068 <.LBB45_3+0xb50>
    46b8:	f9043503          	ld	a0,-112(s0)
    46bc:	0007d463          	bgez	a5,46c4 <.LBB45_60>
    46c0:	c00000b7          	lui	ra,0xc0000

00000000000046c4 <.LBB45_60>:
    46c4:	f8a43823          	sd	a0,-112(s0)
    46c8:	00002537          	lui	a0,0x2
    46cc:	40a40533          	sub	a0,s0,a0
    46d0:	06153023          	sd	ra,96(a0) # 2060 <.LBB45_3+0xb48>
    46d4:	00749493          	slli	s1,s1,0x7
    46d8:	00001537          	lui	a0,0x1
    46dc:	40a40533          	sub	a0,s0,a0
    46e0:	58853783          	ld	a5,1416(a0) # 1588 <.LBB45_3+0x70>
    46e4:	01e787b3          	add	a5,a5,t5
    46e8:	009787bb          	addw	a5,a5,s1
    46ec:	40000f37          	lui	t5,0x40000
    46f0:	00001537          	lui	a0,0x1
    46f4:	40a40533          	sub	a0,s0,a0
    46f8:	78853083          	ld	ra,1928(a0) # 1788 <.LBB45_3+0x270>
    46fc:	00002537          	lui	a0,0x2
    4700:	40a40533          	sub	a0,s0,a0
    4704:	04f53423          	sd	a5,72(a0) # 2048 <.LBB45_3+0xb30>
    4708:	f9043503          	ld	a0,-112(s0)
    470c:	0007d463          	bgez	a5,4714 <.LBB45_62>
    4710:	c0000f37          	lui	t5,0xc0000

0000000000004714 <.LBB45_62>:
    4714:	f8a43823          	sd	a0,-112(s0)
    4718:	00002537          	lui	a0,0x2
    471c:	40a40533          	sub	a0,s0,a0
    4720:	05e53023          	sd	t5,64(a0) # 2040 <.LBB45_3+0xb28>
    4724:	00731f13          	slli	t5,t1,0x7
    4728:	00001537          	lui	a0,0x1
    472c:	40a40533          	sub	a0,s0,a0
    4730:	58053783          	ld	a5,1408(a0) # 1580 <.LBB45_3+0x68>
    4734:	00001537          	lui	a0,0x1
    4738:	40a40533          	sub	a0,s0,a0
    473c:	69053303          	ld	t1,1680(a0) # 1690 <.LBB45_3+0x178>
    4740:	006787b3          	add	a5,a5,t1
    4744:	01e787bb          	addw	a5,a5,t5
    4748:	40000337          	lui	t1,0x40000
    474c:	00002537          	lui	a0,0x2
    4750:	40a40533          	sub	a0,s0,a0
    4754:	02f53c23          	sd	a5,56(a0) # 2038 <.LBB45_3+0xb20>
    4758:	f9043503          	ld	a0,-112(s0)
    475c:	0007d463          	bgez	a5,4764 <.LBB45_64>
    4760:	c0000337          	lui	t1,0xc0000

0000000000004764 <.LBB45_64>:
    4764:	f8a43823          	sd	a0,-112(s0)
    4768:	00002537          	lui	a0,0x2
    476c:	40a40533          	sub	a0,s0,a0
    4770:	02653823          	sd	t1,48(a0) # 2030 <.LBB45_3+0xb18>
    4774:	00789893          	slli	a7,a7,0x7
    4778:	00001537          	lui	a0,0x1
    477c:	40a40533          	sub	a0,s0,a0
    4780:	57053783          	ld	a5,1392(a0) # 1570 <.LBB45_3+0x58>
    4784:	012787b3          	add	a5,a5,s2
    4788:	011787bb          	addw	a5,a5,a7
    478c:	40000937          	lui	s2,0x40000
    4790:	88043303          	ld	t1,-1920(s0)
    4794:	00002537          	lui	a0,0x2
    4798:	40a40533          	sub	a0,s0,a0
    479c:	02f53423          	sd	a5,40(a0) # 2028 <.LBB45_3+0xb10>
    47a0:	f9043503          	ld	a0,-112(s0)
    47a4:	0007d463          	bgez	a5,47ac <.LBB45_66>
    47a8:	c0000937          	lui	s2,0xc0000

00000000000047ac <.LBB45_66>:
    47ac:	f8a43823          	sd	a0,-112(s0)
    47b0:	00002537          	lui	a0,0x2
    47b4:	40a40533          	sub	a0,s0,a0
    47b8:	03253023          	sd	s2,32(a0) # 2020 <.LBB45_3+0xb08>
    47bc:	00771713          	slli	a4,a4,0x7
    47c0:	00001537          	lui	a0,0x1
    47c4:	40a40533          	sub	a0,s0,a0
    47c8:	57853783          	ld	a5,1400(a0) # 1578 <.LBB45_3+0x60>
    47cc:	00b787b3          	add	a5,a5,a1
    47d0:	00e787bb          	addw	a5,a5,a4
    47d4:	400005b7          	lui	a1,0x40000
    47d8:	00001537          	lui	a0,0x1
    47dc:	40a40533          	sub	a0,s0,a0
    47e0:	7b853903          	ld	s2,1976(a0) # 17b8 <.LBB45_3+0x2a0>
    47e4:	00002537          	lui	a0,0x2
    47e8:	40a40533          	sub	a0,s0,a0
    47ec:	00f53c23          	sd	a5,24(a0) # 2018 <.LBB45_3+0xb00>
    47f0:	f9043503          	ld	a0,-112(s0)
    47f4:	0007d463          	bgez	a5,47fc <.LBB45_68>
    47f8:	c00005b7          	lui	a1,0xc0000

00000000000047fc <.LBB45_68>:
    47fc:	f8a43823          	sd	a0,-112(s0)
    4800:	00002537          	lui	a0,0x2
    4804:	40a40533          	sub	a0,s0,a0
    4808:	00b53823          	sd	a1,16(a0) # 2010 <.LBB45_3+0xaf8>
    480c:	00001537          	lui	a0,0x1
    4810:	40a40533          	sub	a0,s0,a0
    4814:	66853783          	ld	a5,1640(a0) # 1668 <.LBB45_3+0x150>
    4818:	00001537          	lui	a0,0x1
    481c:	40a40533          	sub	a0,s0,a0
    4820:	77853583          	ld	a1,1912(a0) # 1778 <.LBB45_3+0x260>
    4824:	00b787b3          	add	a5,a5,a1
    4828:	e4843583          	ld	a1,-440(s0)
    482c:	00b785bb          	addw	a1,a5,a1
    4830:	400007b7          	lui	a5,0x40000
    4834:	00001537          	lui	a0,0x1
    4838:	40a40533          	sub	a0,s0,a0
    483c:	24b53023          	sd	a1,576(a0) # 1240 <.LBB45_2+0x2d0>
    4840:	f9043503          	ld	a0,-112(s0)
    4844:	0005d463          	bgez	a1,484c <.LBB45_70>
    4848:	c00007b7          	lui	a5,0xc0000

000000000000484c <.LBB45_70>:
    484c:	000015b7          	lui	a1,0x1
    4850:	40b405b3          	sub	a1,s0,a1
    4854:	22f5bc23          	sd	a5,568(a1) # 1238 <.LBB45_2+0x2c8>
    4858:	000015b7          	lui	a1,0x1
    485c:	40b405b3          	sub	a1,s0,a1
    4860:	6605b783          	ld	a5,1632(a1) # 1660 <.LBB45_3+0x148>
    4864:	001787b3          	add	a5,a5,ra
    4868:	e4043583          	ld	a1,-448(s0)
    486c:	00b785bb          	addw	a1,a5,a1
    4870:	400007b7          	lui	a5,0x40000
    4874:	000010b7          	lui	ra,0x1
    4878:	401400b3          	sub	ra,s0,ra
    487c:	1eb0b023          	sd	a1,480(ra) # 11e0 <.LBB45_2+0x270>
    4880:	0005d463          	bgez	a1,4888 <.LBB45_72>
    4884:	c00007b7          	lui	a5,0xc0000

0000000000004888 <.LBB45_72>:
    4888:	000015b7          	lui	a1,0x1
    488c:	40b405b3          	sub	a1,s0,a1
    4890:	1cf5bc23          	sd	a5,472(a1) # 11d8 <.LBB45_2+0x268>
    4894:	000015b7          	lui	a1,0x1
    4898:	40b405b3          	sub	a1,s0,a1
    489c:	6585b783          	ld	a5,1624(a1) # 1658 <.LBB45_3+0x140>
    48a0:	000015b7          	lui	a1,0x1
    48a4:	40b405b3          	sub	a1,s0,a1
    48a8:	7985b583          	ld	a1,1944(a1) # 1798 <.LBB45_3+0x280>
    48ac:	00b787b3          	add	a5,a5,a1
    48b0:	e3843583          	ld	a1,-456(s0)
    48b4:	00b785bb          	addw	a1,a5,a1
    48b8:	400007b7          	lui	a5,0x40000
    48bc:	000010b7          	lui	ra,0x1
    48c0:	401400b3          	sub	ra,s0,ra
    48c4:	18b0b023          	sd	a1,384(ra) # 1180 <.LBB45_2+0x210>
    48c8:	000010b7          	lui	ra,0x1
    48cc:	401400b3          	sub	ra,s0,ra
    48d0:	5400b083          	ld	ra,1344(ra) # 1540 <.LBB45_3+0x28>
    48d4:	0005d463          	bgez	a1,48dc <.LBB45_74>
    48d8:	c00007b7          	lui	a5,0xc0000

00000000000048dc <.LBB45_74>:
    48dc:	f8a43823          	sd	a0,-112(s0)
    48e0:	00001537          	lui	a0,0x1
    48e4:	40a40533          	sub	a0,s0,a0
    48e8:	16f53c23          	sd	a5,376(a0) # 1178 <.LBB45_2+0x208>
    48ec:	00001537          	lui	a0,0x1
    48f0:	40a40533          	sub	a0,s0,a0
    48f4:	65053783          	ld	a5,1616(a0) # 1650 <.LBB45_3+0x138>
    48f8:	00001537          	lui	a0,0x1
    48fc:	40a40533          	sub	a0,s0,a0
    4900:	7a853583          	ld	a1,1960(a0) # 17a8 <.LBB45_3+0x290>
    4904:	00b787b3          	add	a5,a5,a1
    4908:	f8843583          	ld	a1,-120(s0)
    490c:	00b787bb          	addw	a5,a5,a1
    4910:	400005b7          	lui	a1,0x40000
    4914:	e2b43423          	sd	a1,-472(s0)
    4918:	8d043583          	ld	a1,-1840(s0)
    491c:	00001537          	lui	a0,0x1
    4920:	40a40533          	sub	a0,s0,a0
    4924:	10f53c23          	sd	a5,280(a0) # 1118 <.LBB45_2+0x1a8>
    4928:	f9043503          	ld	a0,-112(s0)
    492c:	0007d663          	bgez	a5,4938 <.LBB45_76>
    4930:	c00007b7          	lui	a5,0xc0000
    4934:	e2f43423          	sd	a5,-472(s0)

0000000000004938 <.LBB45_76>:
    4938:	000017b7          	lui	a5,0x1
    493c:	40f407b3          	sub	a5,s0,a5
    4940:	6487b783          	ld	a5,1608(a5) # 1648 <.LBB45_3+0x130>
    4944:	014787b3          	add	a5,a5,s4
    4948:	f8043a03          	ld	s4,-128(s0)
    494c:	014787bb          	addw	a5,a5,s4
    4950:	40000a37          	lui	s4,0x40000
    4954:	e3443023          	sd	s4,-480(s0)
    4958:	00001a37          	lui	s4,0x1
    495c:	41440a33          	sub	s4,s0,s4
    4960:	0cfa3023          	sd	a5,192(s4) # 10c0 <.LBB45_2+0x150>
    4964:	0007d663          	bgez	a5,4970 <.LBB45_78>
    4968:	c00007b7          	lui	a5,0xc0000
    496c:	e2f43023          	sd	a5,-480(s0)

0000000000004970 <.LBB45_78>:
    4970:	f8a43823          	sd	a0,-112(s0)
    4974:	00001537          	lui	a0,0x1
    4978:	40a40533          	sub	a0,s0,a0
    497c:	64053783          	ld	a5,1600(a0) # 1640 <.LBB45_3+0x128>
    4980:	012787b3          	add	a5,a5,s2
    4984:	f7843903          	ld	s2,-136(s0)
    4988:	012787bb          	addw	a5,a5,s2
    498c:	40000937          	lui	s2,0x40000
    4990:	87043a03          	ld	s4,-1936(s0)
    4994:	00001537          	lui	a0,0x1
    4998:	40a40533          	sub	a0,s0,a0
    499c:	06f53023          	sd	a5,96(a0) # 1060 <.LBB45_2+0xf0>
    49a0:	f9043503          	ld	a0,-112(s0)
    49a4:	0007d463          	bgez	a5,49ac <.LBB45_80>
    49a8:	c0000937          	lui	s2,0xc0000

00000000000049ac <.LBB45_80>:
    49ac:	f8a43823          	sd	a0,-112(s0)
    49b0:	00001537          	lui	a0,0x1
    49b4:	40a40533          	sub	a0,s0,a0
    49b8:	63853783          	ld	a5,1592(a0) # 1638 <.LBB45_3+0x120>
    49bc:	00d787b3          	add	a5,a5,a3
    49c0:	f7043683          	ld	a3,-144(s0)
    49c4:	00d786bb          	addw	a3,a5,a3
    49c8:	400007b7          	lui	a5,0x40000
    49cc:	00001537          	lui	a0,0x1
    49d0:	40a40533          	sub	a0,s0,a0
    49d4:	00d53023          	sd	a3,0(a0) # 1000 <.LBB45_2+0x90>
    49d8:	f9043503          	ld	a0,-112(s0)
    49dc:	0006d463          	bgez	a3,49e4 <.LBB45_82>
    49e0:	c00007b7          	lui	a5,0xc0000

00000000000049e4 <.LBB45_82>:
    49e4:	000016b7          	lui	a3,0x1
    49e8:	40d406b3          	sub	a3,s0,a3
    49ec:	fef6bc23          	sd	a5,-8(a3) # ff8 <.LBB45_2+0x88>
    49f0:	000016b7          	lui	a3,0x1
    49f4:	40d406b3          	sub	a3,s0,a3
    49f8:	6306b783          	ld	a5,1584(a3) # 1630 <.LBB45_3+0x118>
    49fc:	00c787b3          	add	a5,a5,a2
    4a00:	f6843603          	ld	a2,-152(s0)
    4a04:	00c7863b          	addw	a2,a5,a2
    4a08:	400006b7          	lui	a3,0x40000
    4a0c:	000017b7          	lui	a5,0x1
    4a10:	40f407b3          	sub	a5,s0,a5
    4a14:	fac7b023          	sd	a2,-96(a5) # fa0 <.LBB45_2+0x30>
    4a18:	00065463          	bgez	a2,4a20 <.LBB45_84>
    4a1c:	c00006b7          	lui	a3,0xc0000

0000000000004a20 <.LBB45_84>:
    4a20:	f8a43823          	sd	a0,-112(s0)
    4a24:	00001537          	lui	a0,0x1
    4a28:	40a40533          	sub	a0,s0,a0
    4a2c:	f8d53c23          	sd	a3,-104(a0) # f98 <.LBB45_2+0x28>
    4a30:	00001537          	lui	a0,0x1
    4a34:	40a40533          	sub	a0,s0,a0
    4a38:	62853783          	ld	a5,1576(a0) # 1628 <.LBB45_3+0x110>
    4a3c:	00001537          	lui	a0,0x1
    4a40:	40a40533          	sub	a0,s0,a0
    4a44:	7e053603          	ld	a2,2016(a0) # 17e0 <.LBB45_3+0x2c8>
    4a48:	00c787b3          	add	a5,a5,a2
    4a4c:	0017863b          	addw	a2,a5,ra
    4a50:	400007b7          	lui	a5,0x40000
    4a54:	84843683          	ld	a3,-1976(s0)
    4a58:	00002537          	lui	a0,0x2
    4a5c:	40a40533          	sub	a0,s0,a0
    4a60:	6ec53c23          	sd	a2,1784(a0) # 26f8 <.LBB45_3+0x11e0>
    4a64:	f9043503          	ld	a0,-112(s0)
    4a68:	00065463          	bgez	a2,4a70 <.LBB45_86>
    4a6c:	c00007b7          	lui	a5,0xc0000

0000000000004a70 <.LBB45_86>:
    4a70:	f8a43823          	sd	a0,-112(s0)
    4a74:	00002537          	lui	a0,0x2
    4a78:	40a40533          	sub	a0,s0,a0
    4a7c:	6ef53823          	sd	a5,1776(a0) # 26f0 <.LBB45_3+0x11d8>
    4a80:	00001537          	lui	a0,0x1
    4a84:	40a40533          	sub	a0,s0,a0
    4a88:	62053783          	ld	a5,1568(a0) # 1620 <.LBB45_3+0x108>
    4a8c:	007787b3          	add	a5,a5,t2
    4a90:	f6043603          	ld	a2,-160(s0)
    4a94:	00c787bb          	addw	a5,a5,a2
    4a98:	400003b7          	lui	t2,0x40000
    4a9c:	83843603          	ld	a2,-1992(s0)
    4aa0:	00002537          	lui	a0,0x2
    4aa4:	40a40533          	sub	a0,s0,a0
    4aa8:	68f53823          	sd	a5,1680(a0) # 2690 <.LBB45_3+0x1178>
    4aac:	f9043503          	ld	a0,-112(s0)
    4ab0:	0007d463          	bgez	a5,4ab8 <.LBB45_88>
    4ab4:	c00003b7          	lui	t2,0xc0000

0000000000004ab8 <.LBB45_88>:
    4ab8:	f8a43823          	sd	a0,-112(s0)
    4abc:	00001537          	lui	a0,0x1
    4ac0:	40a40533          	sub	a0,s0,a0
    4ac4:	61853783          	ld	a5,1560(a0) # 1618 <.LBB45_3+0x100>
    4ac8:	01d787b3          	add	a5,a5,t4
    4acc:	f5843e83          	ld	t4,-168(s0)
    4ad0:	01d787bb          	addw	a5,a5,t4
    4ad4:	40000eb7          	lui	t4,0x40000
    4ad8:	00002537          	lui	a0,0x2
    4adc:	40a40533          	sub	a0,s0,a0
    4ae0:	62f53023          	sd	a5,1568(a0) # 2620 <.LBB45_3+0x1108>
    4ae4:	f9043503          	ld	a0,-112(s0)
    4ae8:	0007d463          	bgez	a5,4af0 <.LBB45_90>
    4aec:	c0000eb7          	lui	t4,0xc0000

0000000000004af0 <.LBB45_90>:
    4af0:	f8b43823          	sd	a1,-112(s0)
    4af4:	000015b7          	lui	a1,0x1
    4af8:	40b405b3          	sub	a1,s0,a1
    4afc:	6105b783          	ld	a5,1552(a1) # 1610 <.LBB45_3+0xf8>
    4b00:	00a787b3          	add	a5,a5,a0
    4b04:	f3043503          	ld	a0,-208(s0)
    4b08:	00a7853b          	addw	a0,a5,a0
    4b0c:	400007b7          	lui	a5,0x40000
    4b10:	000025b7          	lui	a1,0x2
    4b14:	40b405b3          	sub	a1,s0,a1
    4b18:	5ca5b423          	sd	a0,1480(a1) # 25c8 <.LBB45_3+0x10b0>
    4b1c:	f9043583          	ld	a1,-112(s0)
    4b20:	00055463          	bgez	a0,4b28 <.LBB45_92>
    4b24:	c00007b7          	lui	a5,0xc0000

0000000000004b28 <.LBB45_92>:
    4b28:	f8b43823          	sd	a1,-112(s0)
    4b2c:	00002537          	lui	a0,0x2
    4b30:	40a40533          	sub	a0,s0,a0
    4b34:	5cf53023          	sd	a5,1472(a0) # 25c0 <.LBB45_3+0x10a8>
    4b38:	00001537          	lui	a0,0x1
    4b3c:	40a40533          	sub	a0,s0,a0
    4b40:	60853783          	ld	a5,1544(a0) # 1608 <.LBB45_3+0xf0>
    4b44:	80043503          	ld	a0,-2048(s0)
    4b48:	00a787b3          	add	a5,a5,a0
    4b4c:	e7043503          	ld	a0,-400(s0)
    4b50:	00a7853b          	addw	a0,a5,a0
    4b54:	400007b7          	lui	a5,0x40000
    4b58:	000025b7          	lui	a1,0x2
    4b5c:	40b405b3          	sub	a1,s0,a1
    4b60:	56a5b023          	sd	a0,1376(a1) # 2560 <.LBB45_3+0x1048>
    4b64:	f9043583          	ld	a1,-112(s0)
    4b68:	00055463          	bgez	a0,4b70 <.LBB45_94>
    4b6c:	c00007b7          	lui	a5,0xc0000

0000000000004b70 <.LBB45_94>:
    4b70:	00002537          	lui	a0,0x2
    4b74:	40a40533          	sub	a0,s0,a0
    4b78:	54f53c23          	sd	a5,1368(a0) # 2558 <.LBB45_3+0x1040>
    4b7c:	00002537          	lui	a0,0x2
    4b80:	40a40533          	sub	a0,s0,a0
    4b84:	61d53c23          	sd	t4,1560(a0) # 2618 <.LBB45_3+0x1100>
    4b88:	00001537          	lui	a0,0x1
    4b8c:	40a40533          	sub	a0,s0,a0
    4b90:	60053783          	ld	a5,1536(a0) # 1600 <.LBB45_3+0xe8>
    4b94:	80843e83          	ld	t4,-2040(s0)
    4b98:	01d787b3          	add	a5,a5,t4
    4b9c:	f5043503          	ld	a0,-176(s0)
    4ba0:	00a7853b          	addw	a0,a5,a0
    4ba4:	400007b7          	lui	a5,0x40000
    4ba8:	00002eb7          	lui	t4,0x2
    4bac:	41d40eb3          	sub	t4,s0,t4
    4bb0:	4eaeb823          	sd	a0,1264(t4) # 24f0 <.LBB45_3+0xfd8>
    4bb4:	00055463          	bgez	a0,4bbc <.LBB45_96>
    4bb8:	c00007b7          	lui	a5,0xc0000

0000000000004bbc <.LBB45_96>:
    4bbc:	00002537          	lui	a0,0x2
    4bc0:	40a40533          	sub	a0,s0,a0
    4bc4:	4ef53423          	sd	a5,1256(a0) # 24e8 <.LBB45_3+0xfd0>
    4bc8:	00001537          	lui	a0,0x1
    4bcc:	40a40533          	sub	a0,s0,a0
    4bd0:	5f853783          	ld	a5,1528(a0) # 15f8 <.LBB45_3+0xe0>
    4bd4:	81043e83          	ld	t4,-2032(s0)
    4bd8:	01d787b3          	add	a5,a5,t4
    4bdc:	f2043503          	ld	a0,-224(s0)
    4be0:	00a7853b          	addw	a0,a5,a0
    4be4:	400007b7          	lui	a5,0x40000
    4be8:	00002eb7          	lui	t4,0x2
    4bec:	41d40eb3          	sub	t4,s0,t4
    4bf0:	48aeb023          	sd	a0,1152(t4) # 2480 <.LBB45_3+0xf68>
    4bf4:	00055463          	bgez	a0,4bfc <.LBB45_98>
    4bf8:	c00007b7          	lui	a5,0xc0000

0000000000004bfc <.LBB45_98>:
    4bfc:	00002537          	lui	a0,0x2
    4c00:	40a40533          	sub	a0,s0,a0
    4c04:	46f53c23          	sd	a5,1144(a0) # 2478 <.LBB45_3+0xf60>
    4c08:	00002537          	lui	a0,0x2
    4c0c:	40a40533          	sub	a0,s0,a0
    4c10:	68753423          	sd	t2,1672(a0) # 2688 <.LBB45_3+0x1170>
    4c14:	00001537          	lui	a0,0x1
    4c18:	40a40533          	sub	a0,s0,a0
    4c1c:	5f053783          	ld	a5,1520(a0) # 15f0 <.LBB45_3+0xd8>
    4c20:	81843383          	ld	t2,-2024(s0)
    4c24:	007787b3          	add	a5,a5,t2
    4c28:	f2843503          	ld	a0,-216(s0)
    4c2c:	00a7853b          	addw	a0,a5,a0
    4c30:	400007b7          	lui	a5,0x40000
    4c34:	000023b7          	lui	t2,0x2
    4c38:	407403b3          	sub	t2,s0,t2
    4c3c:	42a3b023          	sd	a0,1056(t2) # 2420 <.LBB45_3+0xf08>
    4c40:	e3843e83          	ld	t4,-456(s0)
    4c44:	00055463          	bgez	a0,4c4c <.LBB45_100>
    4c48:	c00007b7          	lui	a5,0xc0000

0000000000004c4c <.LBB45_100>:
    4c4c:	00002537          	lui	a0,0x2
    4c50:	40a40533          	sub	a0,s0,a0
    4c54:	40f53c23          	sd	a5,1048(a0) # 2418 <.LBB45_3+0xf00>
    4c58:	00001537          	lui	a0,0x1
    4c5c:	40a40533          	sub	a0,s0,a0
    4c60:	5e853783          	ld	a5,1512(a0) # 15e8 <.LBB45_3+0xd0>
    4c64:	82043383          	ld	t2,-2016(s0)
    4c68:	007787b3          	add	a5,a5,t2
    4c6c:	f4843503          	ld	a0,-184(s0)
    4c70:	00a7853b          	addw	a0,a5,a0
    4c74:	400007b7          	lui	a5,0x40000
    4c78:	000023b7          	lui	t2,0x2
    4c7c:	407403b3          	sub	t2,s0,t2
    4c80:	3ca3b023          	sd	a0,960(t2) # 23c0 <.LBB45_3+0xea8>
    4c84:	00055463          	bgez	a0,4c8c <.LBB45_102>
    4c88:	c00007b7          	lui	a5,0xc0000

0000000000004c8c <.LBB45_102>:
    4c8c:	00002537          	lui	a0,0x2
    4c90:	40a40533          	sub	a0,s0,a0
    4c94:	3af53c23          	sd	a5,952(a0) # 23b8 <.LBB45_3+0xea0>
    4c98:	00001537          	lui	a0,0x1
    4c9c:	40a40533          	sub	a0,s0,a0
    4ca0:	5e053783          	ld	a5,1504(a0) # 15e0 <.LBB45_3+0xc8>
    4ca4:	01c787b3          	add	a5,a5,t3
    4ca8:	f3843503          	ld	a0,-200(s0)
    4cac:	00a7853b          	addw	a0,a5,a0
    4cb0:	400007b7          	lui	a5,0x40000
    4cb4:	e4843383          	ld	t2,-440(s0)
    4cb8:	00002e37          	lui	t3,0x2
    4cbc:	41c40e33          	sub	t3,s0,t3
    4cc0:	36ae3023          	sd	a0,864(t3) # 2360 <.LBB45_3+0xe48>
    4cc4:	00055463          	bgez	a0,4ccc <.LBB45_104>
    4cc8:	c00007b7          	lui	a5,0xc0000

0000000000004ccc <.LBB45_104>:
    4ccc:	00002537          	lui	a0,0x2
    4cd0:	40a40533          	sub	a0,s0,a0
    4cd4:	34f53c23          	sd	a5,856(a0) # 2358 <.LBB45_3+0xe40>
    4cd8:	00001537          	lui	a0,0x1
    4cdc:	40a40533          	sub	a0,s0,a0
    4ce0:	5d853783          	ld	a5,1496(a0) # 15d8 <.LBB45_3+0xc0>
    4ce4:	83043e03          	ld	t3,-2000(s0)
    4ce8:	01c787b3          	add	a5,a5,t3
    4cec:	f4043503          	ld	a0,-192(s0)
    4cf0:	00a7853b          	addw	a0,a5,a0
    4cf4:	400007b7          	lui	a5,0x40000
    4cf8:	00002e37          	lui	t3,0x2
    4cfc:	41c40e33          	sub	t3,s0,t3
    4d00:	30ae3823          	sd	a0,784(t3) # 2310 <.LBB45_3+0xdf8>
    4d04:	00055463          	bgez	a0,4d0c <.LBB45_106>
    4d08:	c00007b7          	lui	a5,0xc0000

0000000000004d0c <.LBB45_106>:
    4d0c:	00002537          	lui	a0,0x2
    4d10:	40a40533          	sub	a0,s0,a0
    4d14:	30f53423          	sd	a5,776(a0) # 2308 <.LBB45_3+0xdf0>
    4d18:	00001537          	lui	a0,0x1
    4d1c:	40a40533          	sub	a0,s0,a0
    4d20:	5d053783          	ld	a5,1488(a0) # 15d0 <.LBB45_3+0xb8>
    4d24:	00c787b3          	add	a5,a5,a2
    4d28:	e6843503          	ld	a0,-408(s0)
    4d2c:	00a7853b          	addw	a0,a5,a0
    4d30:	40000637          	lui	a2,0x40000
    4d34:	e4043e03          	ld	t3,-448(s0)
    4d38:	000027b7          	lui	a5,0x2
    4d3c:	40f407b3          	sub	a5,s0,a5
    4d40:	2ca7b023          	sd	a0,704(a5) # 22c0 <.LBB45_3+0xda8>
    4d44:	00055463          	bgez	a0,4d4c <.LBB45_108>
    4d48:	c0000637          	lui	a2,0xc0000

0000000000004d4c <.LBB45_108>:
    4d4c:	00002537          	lui	a0,0x2
    4d50:	40a40533          	sub	a0,s0,a0
    4d54:	2ac53c23          	sd	a2,696(a0) # 22b8 <.LBB45_3+0xda0>
    4d58:	00001537          	lui	a0,0x1
    4d5c:	40a40533          	sub	a0,s0,a0
    4d60:	5c853783          	ld	a5,1480(a0) # 15c8 <.LBB45_3+0xb0>
    4d64:	84043603          	ld	a2,-1984(s0)
    4d68:	00c787b3          	add	a5,a5,a2
    4d6c:	e5843503          	ld	a0,-424(s0)
    4d70:	00a7853b          	addw	a0,a5,a0
    4d74:	40000637          	lui	a2,0x40000
    4d78:	000027b7          	lui	a5,0x2
    4d7c:	40f407b3          	sub	a5,s0,a5
    4d80:	26a7b823          	sd	a0,624(a5) # 2270 <.LBB45_3+0xd58>
    4d84:	00055463          	bgez	a0,4d8c <.LBB45_110>
    4d88:	c0000637          	lui	a2,0xc0000

0000000000004d8c <.LBB45_110>:
    4d8c:	00001537          	lui	a0,0x1
    4d90:	40a40533          	sub	a0,s0,a0
    4d94:	5c053783          	ld	a5,1472(a0) # 15c0 <.LBB45_3+0xa8>
    4d98:	00d787b3          	add	a5,a5,a3
    4d9c:	e6043503          	ld	a0,-416(s0)
    4da0:	00a7853b          	addw	a0,a5,a0
    4da4:	400006b7          	lui	a3,0x40000
    4da8:	000027b7          	lui	a5,0x2
    4dac:	40f407b3          	sub	a5,s0,a5
    4db0:	22a7b023          	sd	a0,544(a5) # 2220 <.LBB45_3+0xd08>
    4db4:	00055463          	bgez	a0,4dbc <.LBB45_112>
    4db8:	c00006b7          	lui	a3,0xc0000

0000000000004dbc <.LBB45_112>:
    4dbc:	00002537          	lui	a0,0x2
    4dc0:	40a40533          	sub	a0,s0,a0
    4dc4:	20d53c23          	sd	a3,536(a0) # 2218 <.LBB45_3+0xd00>
    4dc8:	00001537          	lui	a0,0x1
    4dcc:	40a40533          	sub	a0,s0,a0
    4dd0:	5b853783          	ld	a5,1464(a0) # 15b8 <.LBB45_3+0xa0>
    4dd4:	85043683          	ld	a3,-1968(s0)
    4dd8:	00d787b3          	add	a5,a5,a3
    4ddc:	0197853b          	addw	a0,a5,s9
    4de0:	400006b7          	lui	a3,0x40000
    4de4:	000027b7          	lui	a5,0x2
    4de8:	40f407b3          	sub	a5,s0,a5
    4dec:	1ea7b023          	sd	a0,480(a5) # 21e0 <.LBB45_3+0xcc8>
    4df0:	00055463          	bgez	a0,4df8 <.LBB45_114>
    4df4:	c00006b7          	lui	a3,0xc0000

0000000000004df8 <.LBB45_114>:
    4df8:	00001537          	lui	a0,0x1
    4dfc:	40a40533          	sub	a0,s0,a0
    4e00:	05253c23          	sd	s2,88(a0) # 1058 <.LBB45_2+0xe8>
    4e04:	00001537          	lui	a0,0x1
    4e08:	40a40533          	sub	a0,s0,a0
    4e0c:	5b053783          	ld	a5,1456(a0) # 15b0 <.LBB45_3+0x98>
    4e10:	85843903          	ld	s2,-1960(s0)
    4e14:	012787b3          	add	a5,a5,s2
    4e18:	0187853b          	addw	a0,a5,s8
    4e1c:	400007b7          	lui	a5,0x40000
    4e20:	00002937          	lui	s2,0x2
    4e24:	41240933          	sub	s2,s0,s2
    4e28:	1aa93423          	sd	a0,424(s2) # 21a8 <.LBB45_3+0xc90>
    4e2c:	00055463          	bgez	a0,4e34 <.LBB45_116>
    4e30:	c00007b7          	lui	a5,0xc0000

0000000000004e34 <.LBB45_116>:
    4e34:	00002537          	lui	a0,0x2
    4e38:	40a40533          	sub	a0,s0,a0
    4e3c:	18f53c23          	sd	a5,408(a0) # 2198 <.LBB45_3+0xc80>
    4e40:	00001537          	lui	a0,0x1
    4e44:	40a40533          	sub	a0,s0,a0
    4e48:	5a853783          	ld	a5,1448(a0) # 15a8 <.LBB45_3+0x90>
    4e4c:	86043903          	ld	s2,-1952(s0)
    4e50:	012787b3          	add	a5,a5,s2
    4e54:	0177853b          	addw	a0,a5,s7
    4e58:	400007b7          	lui	a5,0x40000
    4e5c:	00002937          	lui	s2,0x2
    4e60:	41240933          	sub	s2,s0,s2
    4e64:	16a93423          	sd	a0,360(s2) # 2168 <.LBB45_3+0xc50>
    4e68:	00055463          	bgez	a0,4e70 <.LBB45_118>
    4e6c:	c00007b7          	lui	a5,0xc0000

0000000000004e70 <.LBB45_118>:
    4e70:	00002537          	lui	a0,0x2
    4e74:	40a40533          	sub	a0,s0,a0
    4e78:	14f53c23          	sd	a5,344(a0) # 2158 <.LBB45_3+0xc40>
    4e7c:	00001537          	lui	a0,0x1
    4e80:	40a40533          	sub	a0,s0,a0
    4e84:	5a053783          	ld	a5,1440(a0) # 15a0 <.LBB45_3+0x88>
    4e88:	014787b3          	add	a5,a5,s4
    4e8c:	0167853b          	addw	a0,a5,s6
    4e90:	400007b7          	lui	a5,0x40000
    4e94:	00002937          	lui	s2,0x2
    4e98:	41240933          	sub	s2,s0,s2
    4e9c:	14a93023          	sd	a0,320(s2) # 2140 <.LBB45_3+0xc28>
    4ea0:	00055463          	bgez	a0,4ea8 <.LBB45_120>
    4ea4:	c00007b7          	lui	a5,0xc0000

0000000000004ea8 <.LBB45_120>:
    4ea8:	00002537          	lui	a0,0x2
    4eac:	40a40533          	sub	a0,s0,a0
    4eb0:	12f53823          	sd	a5,304(a0) # 2130 <.LBB45_3+0xc18>
    4eb4:	00001537          	lui	a0,0x1
    4eb8:	40a40533          	sub	a0,s0,a0
    4ebc:	59853783          	ld	a5,1432(a0) # 1598 <.LBB45_3+0x80>
    4ec0:	006787b3          	add	a5,a5,t1
    4ec4:	0157853b          	addw	a0,a5,s5
    4ec8:	400007b7          	lui	a5,0x40000
    4ecc:	00002337          	lui	t1,0x2
    4ed0:	40640333          	sub	t1,s0,t1
    4ed4:	10a33823          	sd	a0,272(t1) # 2110 <.LBB45_3+0xbf8>
    4ed8:	00055463          	bgez	a0,4ee0 <.LBB45_122>
    4edc:	c00007b7          	lui	a5,0xc0000

0000000000004ee0 <.LBB45_122>:
    4ee0:	00002537          	lui	a0,0x2
    4ee4:	40a40533          	sub	a0,s0,a0
    4ee8:	10f53423          	sd	a5,264(a0) # 2108 <.LBB45_3+0xbf0>
    4eec:	00001537          	lui	a0,0x1
    4ef0:	40a40533          	sub	a0,s0,a0
    4ef4:	59053783          	ld	a5,1424(a0) # 1590 <.LBB45_3+0x78>
    4ef8:	89043303          	ld	t1,-1904(s0)
    4efc:	006787b3          	add	a5,a5,t1
    4f00:	0137853b          	addw	a0,a5,s3
    4f04:	400007b7          	lui	a5,0x40000
    4f08:	00002337          	lui	t1,0x2
    4f0c:	40640333          	sub	t1,s0,t1
    4f10:	0ea33023          	sd	a0,224(t1) # 20e0 <.LBB45_3+0xbc8>
    4f14:	00055463          	bgez	a0,4f1c <.LBB45_124>
    4f18:	c00007b7          	lui	a5,0xc0000

0000000000004f1c <.LBB45_124>:
    4f1c:	00002537          	lui	a0,0x2
    4f20:	40a40533          	sub	a0,s0,a0
    4f24:	0cf53c23          	sd	a5,216(a0) # 20d8 <.LBB45_3+0xbc0>
    4f28:	00001537          	lui	a0,0x1
    4f2c:	40a40533          	sub	a0,s0,a0
    4f30:	58853783          	ld	a5,1416(a0) # 1588 <.LBB45_3+0x70>
    4f34:	01f787b3          	add	a5,a5,t6
    4f38:	009787bb          	addw	a5,a5,s1
    4f3c:	40000537          	lui	a0,0x40000
    4f40:	87843303          	ld	t1,-1928(s0)
    4f44:	00002fb7          	lui	t6,0x2
    4f48:	41f40fb3          	sub	t6,s0,t6
    4f4c:	0affb823          	sd	a5,176(t6) # 20b0 <.LBB45_3+0xb98>
    4f50:	0007d463          	bgez	a5,4f58 <.LBB45_126>
    4f54:	c0000537          	lui	a0,0xc0000

0000000000004f58 <.LBB45_126>:
    4f58:	000017b7          	lui	a5,0x1
    4f5c:	40f407b3          	sub	a5,s0,a5
    4f60:	5807b783          	ld	a5,1408(a5) # 1580 <.LBB45_3+0x68>
    4f64:	005787b3          	add	a5,a5,t0
    4f68:	01e787bb          	addw	a5,a5,t5
    4f6c:	400002b7          	lui	t0,0x40000
    4f70:	00002fb7          	lui	t6,0x2
    4f74:	41f40fb3          	sub	t6,s0,t6
    4f78:	08ffbc23          	sd	a5,152(t6) # 2098 <.LBB45_3+0xb80>
    4f7c:	0007d463          	bgez	a5,4f84 <.LBB45_128>
    4f80:	c00002b7          	lui	t0,0xc0000

0000000000004f84 <.LBB45_128>:
    4f84:	000027b7          	lui	a5,0x2
    4f88:	40f407b3          	sub	a5,s0,a5
    4f8c:	0857b823          	sd	t0,144(a5) # 2090 <.LBB45_3+0xb78>
    4f90:	000017b7          	lui	a5,0x1
    4f94:	40f407b3          	sub	a5,s0,a5
    4f98:	5707b783          	ld	a5,1392(a5) # 1570 <.LBB45_3+0x58>
    4f9c:	010787b3          	add	a5,a5,a6
    4fa0:	011787bb          	addw	a5,a5,a7
    4fa4:	40000837          	lui	a6,0x40000
    4fa8:	89843283          	ld	t0,-1896(s0)
    4fac:	00002fb7          	lui	t6,0x2
    4fb0:	41f40fb3          	sub	t6,s0,t6
    4fb4:	06ffbc23          	sd	a5,120(t6) # 2078 <.LBB45_3+0xb60>
    4fb8:	0007d463          	bgez	a5,4fc0 <.LBB45_130>
    4fbc:	c0000837          	lui	a6,0xc0000

0000000000004fc0 <.LBB45_130>:
    4fc0:	000027b7          	lui	a5,0x2
    4fc4:	40f407b3          	sub	a5,s0,a5
    4fc8:	0707b823          	sd	a6,112(a5) # 2070 <.LBB45_3+0xb58>
    4fcc:	000017b7          	lui	a5,0x1
    4fd0:	40f407b3          	sub	a5,s0,a5
    4fd4:	5787b783          	ld	a5,1400(a5) # 1578 <.LBB45_3+0x60>
    4fd8:	00b787b3          	add	a5,a5,a1
    4fdc:	00e787bb          	addw	a5,a5,a4
    4fe0:	40000837          	lui	a6,0x40000
    4fe4:	86843583          	ld	a1,-1944(s0)
    4fe8:	00002fb7          	lui	t6,0x2
    4fec:	41f40fb3          	sub	t6,s0,t6
    4ff0:	04ffbc23          	sd	a5,88(t6) # 2058 <.LBB45_3+0xb40>
    4ff4:	0007d463          	bgez	a5,4ffc <.LBB45_132>
    4ff8:	c0000837          	lui	a6,0xc0000

0000000000004ffc <.LBB45_132>:
    4ffc:	000027b7          	lui	a5,0x2
    5000:	40f407b3          	sub	a5,s0,a5
    5004:	0507b823          	sd	a6,80(a5) # 2050 <.LBB45_3+0xb38>
    5008:	000017b7          	lui	a5,0x1
    500c:	40f407b3          	sub	a5,s0,a5
    5010:	6687b783          	ld	a5,1640(a5) # 1668 <.LBB45_3+0x150>
    5014:	00b787b3          	add	a5,a5,a1
    5018:	007787bb          	addw	a5,a5,t2
    501c:	40000837          	lui	a6,0x40000
    5020:	e3043823          	sd	a6,-464(s0)
    5024:	000015b7          	lui	a1,0x1
    5028:	40b405b3          	sub	a1,s0,a1
    502c:	38f5b423          	sd	a5,904(a1) # 1388 <.LBB45_2+0x418>
    5030:	88843583          	ld	a1,-1912(s0)
    5034:	0007d663          	bgez	a5,5040 <.LBB45_134>
    5038:	c00007b7          	lui	a5,0xc0000
    503c:	e2f43823          	sd	a5,-464(s0)

0000000000005040 <.LBB45_134>:
    5040:	000017b7          	lui	a5,0x1
    5044:	40f407b3          	sub	a5,s0,a5
    5048:	6607b783          	ld	a5,1632(a5) # 1660 <.LBB45_3+0x148>
    504c:	006787b3          	add	a5,a5,t1
    5050:	01c787bb          	addw	a5,a5,t3
    5054:	40000fb7          	lui	t6,0x40000
    5058:	91843803          	ld	a6,-1768(s0)
    505c:	00001337          	lui	t1,0x1
    5060:	40640333          	sub	t1,s0,t1
    5064:	32f33823          	sd	a5,816(t1) # 1330 <.LBB45_2+0x3c0>
    5068:	0007d463          	bgez	a5,5070 <.LBB45_136>
    506c:	c0000fb7          	lui	t6,0xc0000

0000000000005070 <.LBB45_136>:
    5070:	000027b7          	lui	a5,0x2
    5074:	40f407b3          	sub	a5,s0,a5
    5078:	0aa7b423          	sd	a0,168(a5) # 20a8 <.LBB45_3+0xb90>
    507c:	00001537          	lui	a0,0x1
    5080:	40a40533          	sub	a0,s0,a0
    5084:	65853783          	ld	a5,1624(a0) # 1658 <.LBB45_3+0x140>
    5088:	00b787b3          	add	a5,a5,a1
    508c:	01d787bb          	addw	a5,a5,t4
    5090:	400005b7          	lui	a1,0x40000
    5094:	00001537          	lui	a0,0x1
    5098:	40a40533          	sub	a0,s0,a0
    509c:	2cf53823          	sd	a5,720(a0) # 12d0 <.LBB45_2+0x360>
    50a0:	0007d463          	bgez	a5,50a8 <.LBB45_138>
    50a4:	c00005b7          	lui	a1,0xc0000

00000000000050a8 <.LBB45_138>:
    50a8:	00001537          	lui	a0,0x1
    50ac:	40a40533          	sub	a0,s0,a0
    50b0:	65053783          	ld	a5,1616(a0) # 1650 <.LBB45_3+0x138>
    50b4:	005787b3          	add	a5,a5,t0
    50b8:	f8843503          	ld	a0,-120(s0)
    50bc:	00a787bb          	addw	a5,a5,a0
    50c0:	400002b7          	lui	t0,0x40000
    50c4:	00001537          	lui	a0,0x1
    50c8:	40a40533          	sub	a0,s0,a0
    50cc:	26f53c23          	sd	a5,632(a0) # 1278 <.LBB45_2+0x308>
    50d0:	0007d463          	bgez	a5,50d8 <.LBB45_140>
    50d4:	c00002b7          	lui	t0,0xc0000

00000000000050d8 <.LBB45_140>:
    50d8:	00001537          	lui	a0,0x1
    50dc:	40a40533          	sub	a0,s0,a0
    50e0:	64853783          	ld	a5,1608(a0) # 1648 <.LBB45_3+0x130>
    50e4:	8a843503          	ld	a0,-1880(s0)
    50e8:	00a787b3          	add	a5,a5,a0
    50ec:	f8043503          	ld	a0,-128(s0)
    50f0:	00a787bb          	addw	a5,a5,a0
    50f4:	40000937          	lui	s2,0x40000
    50f8:	00001537          	lui	a0,0x1
    50fc:	40a40533          	sub	a0,s0,a0
    5100:	20f53823          	sd	a5,528(a0) # 1210 <.LBB45_2+0x2a0>
    5104:	0007d463          	bgez	a5,510c <.LBB45_142>
    5108:	c0000937          	lui	s2,0xc0000

000000000000510c <.LBB45_142>:
    510c:	00001537          	lui	a0,0x1
    5110:	40a40533          	sub	a0,s0,a0
    5114:	64053783          	ld	a5,1600(a0) # 1640 <.LBB45_3+0x128>
    5118:	8b843503          	ld	a0,-1864(s0)
    511c:	00a787b3          	add	a5,a5,a0
    5120:	f7843503          	ld	a0,-136(s0)
    5124:	00a787bb          	addw	a5,a5,a0
    5128:	40000a37          	lui	s4,0x40000
    512c:	00001537          	lui	a0,0x1
    5130:	40a40533          	sub	a0,s0,a0
    5134:	1af53823          	sd	a5,432(a0) # 11b0 <.LBB45_2+0x240>
    5138:	0007d463          	bgez	a5,5140 <.LBB45_144>
    513c:	c0000a37          	lui	s4,0xc0000

0000000000005140 <.LBB45_144>:
    5140:	00001537          	lui	a0,0x1
    5144:	40a40533          	sub	a0,s0,a0
    5148:	1b453423          	sd	s4,424(a0) # 11a8 <.LBB45_2+0x238>
    514c:	00001537          	lui	a0,0x1
    5150:	40a40533          	sub	a0,s0,a0
    5154:	63853783          	ld	a5,1592(a0) # 1638 <.LBB45_3+0x120>
    5158:	8c843a03          	ld	s4,-1848(s0)
    515c:	014787b3          	add	a5,a5,s4
    5160:	f7043503          	ld	a0,-144(s0)
    5164:	00a787bb          	addw	a5,a5,a0
    5168:	40000a37          	lui	s4,0x40000
    516c:	00001537          	lui	a0,0x1
    5170:	40a40533          	sub	a0,s0,a0
    5174:	14f53823          	sd	a5,336(a0) # 1150 <.LBB45_2+0x1e0>
    5178:	0007d463          	bgez	a5,5180 <.LBB45_146>
    517c:	c0000a37          	lui	s4,0xc0000

0000000000005180 <.LBB45_146>:
    5180:	00001537          	lui	a0,0x1
    5184:	40a40533          	sub	a0,s0,a0
    5188:	21253423          	sd	s2,520(a0) # 1208 <.LBB45_2+0x298>
    518c:	00001537          	lui	a0,0x1
    5190:	40a40533          	sub	a0,s0,a0
    5194:	63053783          	ld	a5,1584(a0) # 1630 <.LBB45_3+0x118>
    5198:	8d843903          	ld	s2,-1832(s0)
    519c:	012787b3          	add	a5,a5,s2
    51a0:	f6843503          	ld	a0,-152(s0)
    51a4:	00a787bb          	addw	a5,a5,a0
    51a8:	40000337          	lui	t1,0x40000
    51ac:	00001537          	lui	a0,0x1
    51b0:	40a40533          	sub	a0,s0,a0
    51b4:	0ef53823          	sd	a5,240(a0) # 10f0 <.LBB45_2+0x180>
    51b8:	0007d463          	bgez	a5,51c0 <.LBB45_148>
    51bc:	c0000337          	lui	t1,0xc0000

00000000000051c0 <.LBB45_148>:
    51c0:	00001537          	lui	a0,0x1
    51c4:	40a40533          	sub	a0,s0,a0
    51c8:	62853783          	ld	a5,1576(a0) # 1628 <.LBB45_3+0x110>
    51cc:	8e043903          	ld	s2,-1824(s0)
    51d0:	012787b3          	add	a5,a5,s2
    51d4:	001787bb          	addw	a5,a5,ra
    51d8:	40000937          	lui	s2,0x40000
    51dc:	00001537          	lui	a0,0x1
    51e0:	40a40533          	sub	a0,s0,a0
    51e4:	08f53c23          	sd	a5,152(a0) # 1098 <.LBB45_2+0x128>
    51e8:	0007d463          	bgez	a5,51f0 <.LBB45_150>
    51ec:	c0000937          	lui	s2,0xc0000

00000000000051f0 <.LBB45_150>:
    51f0:	00002537          	lui	a0,0x2
    51f4:	40a40533          	sub	a0,s0,a0
    51f8:	1cd53c23          	sd	a3,472(a0) # 21d8 <.LBB45_3+0xcc0>
    51fc:	00001537          	lui	a0,0x1
    5200:	40a40533          	sub	a0,s0,a0
    5204:	26553823          	sd	t0,624(a0) # 1270 <.LBB45_2+0x300>
    5208:	00001537          	lui	a0,0x1
    520c:	40a40533          	sub	a0,s0,a0
    5210:	62053783          	ld	a5,1568(a0) # 1620 <.LBB45_3+0x108>
    5214:	8e843283          	ld	t0,-1816(s0)
    5218:	005787b3          	add	a5,a5,t0
    521c:	f6043503          	ld	a0,-160(s0)
    5220:	00a787bb          	addw	a5,a5,a0
    5224:	400002b7          	lui	t0,0x40000
    5228:	00001537          	lui	a0,0x1
    522c:	40a40533          	sub	a0,s0,a0
    5230:	02f53823          	sd	a5,48(a0) # 1030 <.LBB45_2+0xc0>
    5234:	0007d463          	bgez	a5,523c <.LBB45_152>
    5238:	c00002b7          	lui	t0,0xc0000

000000000000523c <.LBB45_152>:
    523c:	00002537          	lui	a0,0x2
    5240:	40a40533          	sub	a0,s0,a0
    5244:	26c53423          	sd	a2,616(a0) # 2268 <.LBB45_3+0xd50>
    5248:	00001537          	lui	a0,0x1
    524c:	40a40533          	sub	a0,s0,a0
    5250:	02553423          	sd	t0,40(a0) # 1028 <.LBB45_2+0xb8>
    5254:	00001537          	lui	a0,0x1
    5258:	40a40533          	sub	a0,s0,a0
    525c:	61853783          	ld	a5,1560(a0) # 1618 <.LBB45_3+0x100>
    5260:	8f043283          	ld	t0,-1808(s0)
    5264:	005787b3          	add	a5,a5,t0
    5268:	f5843683          	ld	a3,-168(s0)
    526c:	00d786bb          	addw	a3,a5,a3
    5270:	400007b7          	lui	a5,0x40000
    5274:	00001537          	lui	a0,0x1
    5278:	40a40533          	sub	a0,s0,a0
    527c:	fcd53823          	sd	a3,-48(a0) # fd0 <.LBB45_2+0x60>
    5280:	0006d463          	bgez	a3,5288 <.LBB45_154>
    5284:	c00007b7          	lui	a5,0xc0000

0000000000005288 <.LBB45_154>:
    5288:	00001537          	lui	a0,0x1
    528c:	40a40533          	sub	a0,s0,a0
    5290:	fcf53423          	sd	a5,-56(a0) # fc8 <.LBB45_2+0x58>
    5294:	00001537          	lui	a0,0x1
    5298:	40a40533          	sub	a0,s0,a0
    529c:	2cb53423          	sd	a1,712(a0) # 12c8 <.LBB45_2+0x358>
    52a0:	00001537          	lui	a0,0x1
    52a4:	40a40533          	sub	a0,s0,a0
    52a8:	61053783          	ld	a5,1552(a0) # 1610 <.LBB45_3+0xf8>
    52ac:	8f843583          	ld	a1,-1800(s0)
    52b0:	00b787b3          	add	a5,a5,a1
    52b4:	f3043583          	ld	a1,-208(s0)
    52b8:	00b785bb          	addw	a1,a5,a1
    52bc:	40000637          	lui	a2,0x40000
    52c0:	00001537          	lui	a0,0x1
    52c4:	40a40533          	sub	a0,s0,a0
    52c8:	f6b53823          	sd	a1,-144(a0) # f70 <.LBB45_2>
    52cc:	0005d463          	bgez	a1,52d4 <.LBB45_156>
    52d0:	c0000637          	lui	a2,0xc0000

00000000000052d4 <.LBB45_156>:
    52d4:	00001537          	lui	a0,0x1
    52d8:	40a40533          	sub	a0,s0,a0
    52dc:	60853783          	ld	a5,1544(a0) # 1608 <.LBB45_3+0xf0>
    52e0:	90043583          	ld	a1,-1792(s0)
    52e4:	00b787b3          	add	a5,a5,a1
    52e8:	e7043583          	ld	a1,-400(s0)
    52ec:	00b785bb          	addw	a1,a5,a1
    52f0:	400006b7          	lui	a3,0x40000
    52f4:	00002537          	lui	a0,0x2
    52f8:	40a40533          	sub	a0,s0,a0
    52fc:	6cb53423          	sd	a1,1736(a0) # 26c8 <.LBB45_3+0x11b0>
    5300:	0005d463          	bgez	a1,5308 <.LBB45_158>
    5304:	c00006b7          	lui	a3,0xc0000

0000000000005308 <.LBB45_158>:
    5308:	00001537          	lui	a0,0x1
    530c:	40a40533          	sub	a0,s0,a0
    5310:	33f53423          	sd	t6,808(a0) # 1328 <.LBB45_2+0x3b8>
    5314:	00001537          	lui	a0,0x1
    5318:	40a40533          	sub	a0,s0,a0
    531c:	60053783          	ld	a5,1536(a0) # 1600 <.LBB45_3+0xe8>
    5320:	90843f83          	ld	t6,-1784(s0)
    5324:	01f787b3          	add	a5,a5,t6
    5328:	f5043583          	ld	a1,-176(s0)
    532c:	00b785bb          	addw	a1,a5,a1
    5330:	400007b7          	lui	a5,0x40000
    5334:	00002537          	lui	a0,0x2
    5338:	40a40533          	sub	a0,s0,a0
    533c:	66b53023          	sd	a1,1632(a0) # 2660 <.LBB45_3+0x1148>
