
code.o:     file format elf64-littleriscv


Disassembly of section .text.main_dispatch_129_matmul_49x160x960_i8xi8xi32:

0000000000000000 <main_dispatch_129_matmul_49x160x960_i8xi8xi32>:
       0:	f1501173          	csrrw	sp,0xf15,zero

0000000000000004 <.Lfunc_begin98>:
       4:	81010113          	addi	sp,sp,-2032
       8:	7e113423          	sd	ra,2024(sp)
       c:	7e813023          	sd	s0,2016(sp)
      10:	7c913c23          	sd	s1,2008(sp)
      14:	7d213823          	sd	s2,2000(sp)
      18:	7d313423          	sd	s3,1992(sp)
      1c:	7d413023          	sd	s4,1984(sp)
      20:	7b513c23          	sd	s5,1976(sp)
      24:	7b613823          	sd	s6,1968(sp)
      28:	7b713423          	sd	s7,1960(sp)
      2c:	7b813023          	sd	s8,1952(sp)
      30:	79913c23          	sd	s9,1944(sp)
      34:	79a13823          	sd	s10,1936(sp)
      38:	79b13423          	sd	s11,1928(sp)
      3c:	7f010413          	addi	s0,sp,2032
      40:	00002537          	lui	a0,0x2
      44:	8405051b          	addiw	a0,a0,-1984 # 1840 <.LBB98_5+0x374>
      48:	40a10133          	sub	sp,sp,a0
      4c:	0205b583          	ld	a1,32(a1)
      50:	00000513          	li	a0,0
      54:	0085b603          	ld	a2,8(a1)
      58:	0005b703          	ld	a4,0(a1)
      5c:	0013b6b7          	lui	a3,0x13b
      60:	e006869b          	addiw	a3,a3,-512 # 13ae00 <.Lfunc_end80+0x112434>
      64:	00d604b3          	add	s1,a2,a3
      68:	000136b7          	lui	a3,0x13
      6c:	2806869b          	addiw	a3,a3,640 # 13280 <.LBB98_2113+0xc>
      70:	00d606b3          	add	a3,a2,a3
      74:	000027b7          	lui	a5,0x2
      78:	40f407b3          	sub	a5,s0,a5
      7c:	06d7b423          	sd	a3,104(a5) # 2068 <.LBB98_5+0xb9c>
      80:	0000b6b7          	lui	a3,0xb
      84:	7c06869b          	addiw	a3,a3,1984 # b7c0 <.LBB98_1006+0x18>
      88:	00d706b3          	add	a3,a4,a3
      8c:	000027b7          	lui	a5,0x2
      90:	40f407b3          	sub	a5,s0,a5
      94:	fed7b023          	sd	a3,-32(a5) # 1fe0 <.LBB98_5+0xb14>
      98:	001606b7          	lui	a3,0x160
      9c:	6006869b          	addiw	a3,a3,1536 # 160600 <.Lfunc_end80+0x137c34>
      a0:	00d60633          	add	a2,a2,a3
      a4:	000026b7          	lui	a3,0x2
      a8:	40d406b3          	sub	a3,s0,a3
      ac:	06c6b023          	sd	a2,96(a3) # 2060 <.LBB98_5+0xb94>
      b0:	0000d637          	lui	a2,0xd
      b4:	7806061b          	addiw	a2,a2,1920 # d780 <.LBB98_1479+0x24>
      b8:	0105b583          	ld	a1,16(a1)
      bc:	00c70633          	add	a2,a4,a2
      c0:	000026b7          	lui	a3,0x2
      c4:	40d406b3          	sub	a3,s0,a3
      c8:	04c6bc23          	sd	a2,88(a3) # 2058 <.LBB98_5+0xb8c>
      cc:	0000c637          	lui	a2,0xc
      d0:	8c06061b          	addiw	a2,a2,-1856 # b8c0 <.LBB98_1016+0x28>
      d4:	00c585b3          	add	a1,a1,a2
      d8:	00002637          	lui	a2,0x2
      dc:	40c40633          	sub	a2,s0,a2
      e0:	04b63823          	sd	a1,80(a2) # 2050 <.LBB98_5+0xb84>
      e4:	000265b7          	lui	a1,0x26
      e8:	8005859b          	addiw	a1,a1,-2048 # 25800 <.LBB63_4855>
      ec:	00002637          	lui	a2,0x2
      f0:	40c40633          	sub	a2,s0,a2
      f4:	00b63423          	sd	a1,8(a2) # 2008 <.LBB98_5+0xb3c>
      f8:	000015b7          	lui	a1,0x1
      fc:	6805859b          	addiw	a1,a1,1664 # 1680 <.LBB98_5+0x1b4>
     100:	00001637          	lui	a2,0x1
     104:	40c40633          	sub	a2,s0,a2
     108:	66b63023          	sd	a1,1632(a2) # 1660 <.LBB98_5+0x194>
     10c:	540975b7          	lui	a1,0x54097
     110:	1e65859b          	addiw	a1,a1,486 # 540971e6 <.Lfunc_end80+0x5406e81a>
     114:	00002637          	lui	a2,0x2
     118:	40c40633          	sub	a2,s0,a2
     11c:	00b63023          	sd	a1,0(a2) # 2000 <.LBB98_5+0xb34>
     120:	71bd35b7          	lui	a1,0x71bd3
     124:	35b5859b          	addiw	a1,a1,859 # 71bd335b <.Lfunc_end80+0x71baa98f>
     128:	01459593          	slli	a1,a1,0x14
     12c:	00001637          	lui	a2,0x1
     130:	40c40633          	sub	a2,s0,a2
     134:	64b63c23          	sd	a1,1624(a2) # 1658 <.LBB98_5+0x18c>
     138:	00300593          	li	a1,3
     13c:	01e59593          	slli	a1,a1,0x1e
     140:	00002637          	lui	a2,0x2
     144:	40c40633          	sub	a2,s0,a2
     148:	feb63c23          	sd	a1,-8(a2) # 1ff8 <.LBB98_5+0xb2c>
     14c:	fff555b7          	lui	a1,0xfff55
     150:	6435859b          	addiw	a1,a1,1603 # fffffffffff55643 <.Lfunc_end80+0xfffffffffff2cc77>
     154:	00d59593          	slli	a1,a1,0xd
     158:	5ef58593          	addi	a1,a1,1519
     15c:	01559593          	slli	a1,a1,0x15
     160:	00001637          	lui	a2,0x1
     164:	40c40633          	sub	a2,s0,a2
     168:	64b63823          	sd	a1,1616(a2) # 1650 <.LBB98_5+0x184>
     16c:	675a95b7          	lui	a1,0x675a9
     170:	8515859b          	addiw	a1,a1,-1967 # 675a8851 <.Lfunc_end80+0x6757fe85>
     174:	f8b43023          	sd	a1,-128(s0)
     178:	00f00593          	li	a1,15
     17c:	00959593          	slli	a1,a1,0x9
     180:	00002637          	lui	a2,0x2
     184:	40c40633          	sub	a2,s0,a2
     188:	fcb63c23          	sd	a1,-40(a2) # 1fd8 <.LBB98_5+0xb0c>
     18c:	000025b7          	lui	a1,0x2
     190:	40b405b3          	sub	a1,s0,a1
     194:	fce5b823          	sd	a4,-48(a1) # 1fd0 <.LBB98_5+0xb04>
     198:	000025b7          	lui	a1,0x2
     19c:	40b405b3          	sub	a1,s0,a1
     1a0:	06e5b823          	sd	a4,112(a1) # 2070 <.LBB98_5+0xba4>
     1a4:	000025b7          	lui	a1,0x2
     1a8:	40b405b3          	sub	a1,s0,a1
     1ac:	fe95b823          	sd	s1,-16(a1) # 1ff0 <.LBB98_5+0xb24>
     1b0:	0540006f          	j	204 <.LBB98_2>

00000000000001b4 <.LBB98_1>:
     1b4:	00002537          	lui	a0,0x2
     1b8:	40a40533          	sub	a0,s0,a0
     1bc:	fe853683          	ld	a3,-24(a0) # 1fe8 <.LBB98_5+0xb1c>
     1c0:	00868513          	addi	a0,a3,8
     1c4:	000025b7          	lui	a1,0x2
     1c8:	40b405b3          	sub	a1,s0,a1
     1cc:	fd85b583          	ld	a1,-40(a1) # 1fd8 <.LBB98_5+0xb0c>
     1d0:	00002637          	lui	a2,0x2
     1d4:	40c40633          	sub	a2,s0,a2
     1d8:	07063603          	ld	a2,112(a2) # 2070 <.LBB98_5+0xba4>
     1dc:	00b60633          	add	a2,a2,a1
     1e0:	000025b7          	lui	a1,0x2
     1e4:	40b405b3          	sub	a1,s0,a1
     1e8:	06c5b823          	sd	a2,112(a1) # 2070 <.LBB98_5+0xba4>
     1ec:	000025b7          	lui	a1,0x2
     1f0:	40b405b3          	sub	a1,s0,a1
     1f4:	ff05b483          	ld	s1,-16(a1) # 1ff0 <.LBB98_5+0xb24>
     1f8:	02800593          	li	a1,40
     1fc:	00b6e463          	bltu	a3,a1,204 <.LBB98_2>
     200:	0041c06f          	j	1c204 <.LBB98_3590>

0000000000000204 <.LBB98_2>:
     204:	00000593          	li	a1,0
     208:	00050693          	mv	a3,a0
     20c:	00251513          	slli	a0,a0,0x2
     210:	00002637          	lui	a2,0x2
     214:	40c40633          	sub	a2,s0,a2
     218:	fe063603          	ld	a2,-32(a2) # 1fe0 <.LBB98_5+0xb14>
     21c:	00a60533          	add	a0,a2,a0
     220:	00001637          	lui	a2,0x1
     224:	40c40633          	sub	a2,s0,a2
     228:	8ca63823          	sd	a0,-1840(a2) # 8d0 <.LBB98_3+0x610>
     22c:	0a000513          	li	a0,160
     230:	00002637          	lui	a2,0x2
     234:	40c40633          	sub	a2,s0,a2
     238:	fed63423          	sd	a3,-24(a2) # 1fe8 <.LBB98_5+0xb1c>
     23c:	02a68533          	mul	a0,a3,a0
     240:	0a050613          	addi	a2,a0,160
     244:	000026b7          	lui	a3,0x2
     248:	40d406b3          	sub	a3,s0,a3
     24c:	04c6b023          	sd	a2,64(a3) # 2040 <.LBB98_5+0xb74>
     250:	14050613          	addi	a2,a0,320
     254:	000026b7          	lui	a3,0x2
     258:	40d406b3          	sub	a3,s0,a3
     25c:	02c6bc23          	sd	a2,56(a3) # 2038 <.LBB98_5+0xb6c>
     260:	1e050613          	addi	a2,a0,480
     264:	000026b7          	lui	a3,0x2
     268:	40d406b3          	sub	a3,s0,a3
     26c:	02c6b823          	sd	a2,48(a3) # 2030 <.LBB98_5+0xb64>
     270:	28050613          	addi	a2,a0,640
     274:	000026b7          	lui	a3,0x2
     278:	40d406b3          	sub	a3,s0,a3
     27c:	02c6b423          	sd	a2,40(a3) # 2028 <.LBB98_5+0xb5c>
     280:	32050613          	addi	a2,a0,800
     284:	000026b7          	lui	a3,0x2
     288:	40d406b3          	sub	a3,s0,a3
     28c:	02c6b023          	sd	a2,32(a3) # 2020 <.LBB98_5+0xb54>
     290:	3c050613          	addi	a2,a0,960
     294:	000026b7          	lui	a3,0x2
     298:	40d406b3          	sub	a3,s0,a3
     29c:	00c6bc23          	sd	a2,24(a3) # 2018 <.LBB98_5+0xb4c>
     2a0:	00002637          	lui	a2,0x2
     2a4:	40c40633          	sub	a2,s0,a2
     2a8:	04a63423          	sd	a0,72(a2) # 2048 <.LBB98_5+0xb7c>
     2ac:	46050513          	addi	a0,a0,1120
     2b0:	00002637          	lui	a2,0x2
     2b4:	40c40633          	sub	a2,s0,a2
     2b8:	00a63823          	sd	a0,16(a2) # 2010 <.LBB98_5+0xb44>
     2bc:	45d0006f          	j	f18 <.LBB98_4>

00000000000002c0 <.LBB98_3>:
     2c0:	8da43c23          	sd	s10,-1832(s0)
     2c4:	003d8c13          	addi	s8,s11,3
     2c8:	00002537          	lui	a0,0x2
     2cc:	40a40533          	sub	a0,s0,a0
     2d0:	05053d83          	ld	s11,80(a0) # 2050 <.LBB98_5+0xb84>
     2d4:	00001537          	lui	a0,0x1
     2d8:	40a40533          	sub	a0,s0,a0
     2dc:	88853d03          	ld	s10,-1912(a0) # 888 <.LBB98_3+0x5c8>
     2e0:	01ad8d33          	add	s10,s11,s10
     2e4:	018d01a3          	sb	s8,3(s10)
     2e8:	e4843c03          	ld	s8,-440(s0)
     2ec:	003c0c13          	addi	s8,s8,3
     2f0:	018d0123          	sb	s8,2(s10)
     2f4:	e5843c03          	ld	s8,-424(s0)
     2f8:	003c0c13          	addi	s8,s8,3
     2fc:	018d00a3          	sb	s8,1(s10)
     300:	e6843c03          	ld	s8,-408(s0)
     304:	003c0c13          	addi	s8,s8,3
     308:	018d0023          	sb	s8,0(s10)
     30c:	e7843c03          	ld	s8,-392(s0)
     310:	003c0c13          	addi	s8,s8,3
     314:	018d0223          	sb	s8,4(s10)
     318:	e8843c03          	ld	s8,-376(s0)
     31c:	003c0c13          	addi	s8,s8,3
     320:	018d02a3          	sb	s8,5(s10)
     324:	e9843c03          	ld	s8,-360(s0)
     328:	003c0c13          	addi	s8,s8,3
     32c:	018d0323          	sb	s8,6(s10)
     330:	ea843c03          	ld	s8,-344(s0)
     334:	003c0c13          	addi	s8,s8,3
     338:	018d03a3          	sb	s8,7(s10)
     33c:	eb843c03          	ld	s8,-328(s0)
     340:	003c0c13          	addi	s8,s8,3
     344:	018d0423          	sb	s8,8(s10)
     348:	ec843c03          	ld	s8,-312(s0)
     34c:	003c0c13          	addi	s8,s8,3
     350:	018d04a3          	sb	s8,9(s10)
     354:	ed843c03          	ld	s8,-296(s0)
     358:	003c0c13          	addi	s8,s8,3
     35c:	018d0523          	sb	s8,10(s10)
     360:	ee043c03          	ld	s8,-288(s0)
     364:	003c0c13          	addi	s8,s8,3
     368:	018d05a3          	sb	s8,11(s10)
     36c:	ee843c03          	ld	s8,-280(s0)
     370:	003c0c13          	addi	s8,s8,3
     374:	018d0623          	sb	s8,12(s10)
     378:	ef043c03          	ld	s8,-272(s0)
     37c:	003c0c13          	addi	s8,s8,3
     380:	018d06a3          	sb	s8,13(s10)
     384:	ef843c03          	ld	s8,-264(s0)
     388:	003c0c13          	addi	s8,s8,3
     38c:	018d0723          	sb	s8,14(s10)
     390:	f0043c03          	ld	s8,-256(s0)
     394:	003c0c13          	addi	s8,s8,3
     398:	018d07a3          	sb	s8,15(s10)
     39c:	f0843c03          	ld	s8,-248(s0)
     3a0:	003c0c13          	addi	s8,s8,3
     3a4:	018d0823          	sb	s8,16(s10)
     3a8:	f1043c03          	ld	s8,-240(s0)
     3ac:	003c0c13          	addi	s8,s8,3
     3b0:	018d08a3          	sb	s8,17(s10)
     3b4:	f1843c03          	ld	s8,-232(s0)
     3b8:	003c0c13          	addi	s8,s8,3
     3bc:	018d0923          	sb	s8,18(s10)
     3c0:	f2043c03          	ld	s8,-224(s0)
     3c4:	003c0c13          	addi	s8,s8,3
     3c8:	018d09a3          	sb	s8,19(s10)
     3cc:	f2843c03          	ld	s8,-216(s0)
     3d0:	003c0c13          	addi	s8,s8,3
     3d4:	018d0a23          	sb	s8,20(s10)
     3d8:	f3043c03          	ld	s8,-208(s0)
     3dc:	003c0c13          	addi	s8,s8,3
     3e0:	018d0aa3          	sb	s8,21(s10)
     3e4:	f3843c03          	ld	s8,-200(s0)
     3e8:	003c0c13          	addi	s8,s8,3
     3ec:	018d0b23          	sb	s8,22(s10)
     3f0:	f4043c03          	ld	s8,-192(s0)
     3f4:	003c0c13          	addi	s8,s8,3
     3f8:	018d0ba3          	sb	s8,23(s10)
     3fc:	f4843c03          	ld	s8,-184(s0)
     400:	003c0c13          	addi	s8,s8,3
     404:	018d0c23          	sb	s8,24(s10)
     408:	f5043c03          	ld	s8,-176(s0)
     40c:	003c0c13          	addi	s8,s8,3
     410:	018d0ca3          	sb	s8,25(s10)
     414:	f5843c03          	ld	s8,-168(s0)
     418:	003c0c13          	addi	s8,s8,3
     41c:	018d0d23          	sb	s8,26(s10)
     420:	f6043c03          	ld	s8,-160(s0)
     424:	003c0c13          	addi	s8,s8,3
     428:	018d0da3          	sb	s8,27(s10)
     42c:	f6843c03          	ld	s8,-152(s0)
     430:	003c0c13          	addi	s8,s8,3
     434:	018d0e23          	sb	s8,28(s10)
     438:	f7043c03          	ld	s8,-144(s0)
     43c:	003c0c13          	addi	s8,s8,3
     440:	018d0ea3          	sb	s8,29(s10)
     444:	f7843c03          	ld	s8,-136(s0)
     448:	003c0c13          	addi	s8,s8,3
     44c:	018d0f23          	sb	s8,30(s10)
     450:	f8843c03          	ld	s8,-120(s0)
     454:	003c0c13          	addi	s8,s8,3
     458:	018d0fa3          	sb	s8,31(s10)
     45c:	d4043d03          	ld	s10,-704(s0)
     460:	003d0d13          	addi	s10,s10,3
     464:	00001537          	lui	a0,0x1
     468:	40a40533          	sub	a0,s0,a0
     46c:	89053c03          	ld	s8,-1904(a0) # 890 <.LBB98_3+0x5d0>
     470:	018d8c33          	add	s8,s11,s8
     474:	01ac0fa3          	sb	s10,31(s8)
     478:	d5043d03          	ld	s10,-688(s0)
     47c:	003d0d13          	addi	s10,s10,3
     480:	01ac0f23          	sb	s10,30(s8)
     484:	d6043d03          	ld	s10,-672(s0)
     488:	003d0d13          	addi	s10,s10,3
     48c:	01ac0ea3          	sb	s10,29(s8)
     490:	d7043d03          	ld	s10,-656(s0)
     494:	003d0d13          	addi	s10,s10,3
     498:	01ac0e23          	sb	s10,28(s8)
     49c:	d8043d03          	ld	s10,-640(s0)
     4a0:	003d0d13          	addi	s10,s10,3
     4a4:	01ac0da3          	sb	s10,27(s8)
     4a8:	d9043d03          	ld	s10,-624(s0)
     4ac:	003d0d13          	addi	s10,s10,3
     4b0:	01ac0d23          	sb	s10,26(s8)
     4b4:	da043d03          	ld	s10,-608(s0)
     4b8:	003d0d13          	addi	s10,s10,3
     4bc:	01ac0ca3          	sb	s10,25(s8)
     4c0:	db043d03          	ld	s10,-592(s0)
     4c4:	003d0d13          	addi	s10,s10,3
     4c8:	01ac0c23          	sb	s10,24(s8)
     4cc:	dc043d03          	ld	s10,-576(s0)
     4d0:	003d0d13          	addi	s10,s10,3
     4d4:	01ac0ba3          	sb	s10,23(s8)
     4d8:	dd043d03          	ld	s10,-560(s0)
     4dc:	003d0d13          	addi	s10,s10,3
     4e0:	01ac0b23          	sb	s10,22(s8)
     4e4:	de043d03          	ld	s10,-544(s0)
     4e8:	003d0d13          	addi	s10,s10,3
     4ec:	01ac0aa3          	sb	s10,21(s8)
     4f0:	de843d03          	ld	s10,-536(s0)
     4f4:	003d0d13          	addi	s10,s10,3
     4f8:	01ac0a23          	sb	s10,20(s8)
     4fc:	df043d03          	ld	s10,-528(s0)
     500:	003d0d13          	addi	s10,s10,3
     504:	01ac09a3          	sb	s10,19(s8)
     508:	df843d03          	ld	s10,-520(s0)
     50c:	003d0d13          	addi	s10,s10,3
     510:	01ac0923          	sb	s10,18(s8)
     514:	e0043d03          	ld	s10,-512(s0)
     518:	003d0d13          	addi	s10,s10,3
     51c:	01ac08a3          	sb	s10,17(s8)
     520:	e0843d03          	ld	s10,-504(s0)
     524:	003d0d13          	addi	s10,s10,3
     528:	01ac0823          	sb	s10,16(s8)
     52c:	e1043d03          	ld	s10,-496(s0)
     530:	003d0d13          	addi	s10,s10,3
     534:	01ac07a3          	sb	s10,15(s8)
     538:	e1843d03          	ld	s10,-488(s0)
     53c:	003d0d13          	addi	s10,s10,3
     540:	01ac0723          	sb	s10,14(s8)
     544:	e2043d03          	ld	s10,-480(s0)
     548:	003d0d13          	addi	s10,s10,3
     54c:	01ac06a3          	sb	s10,13(s8)
     550:	e2843d03          	ld	s10,-472(s0)
     554:	003d0d13          	addi	s10,s10,3
     558:	01ac0623          	sb	s10,12(s8)
     55c:	e3043d03          	ld	s10,-464(s0)
     560:	003d0d13          	addi	s10,s10,3
     564:	01ac05a3          	sb	s10,11(s8)
     568:	e3843d03          	ld	s10,-456(s0)
     56c:	003d0d13          	addi	s10,s10,3
     570:	01ac0523          	sb	s10,10(s8)
     574:	e4043d03          	ld	s10,-448(s0)
     578:	003d0d13          	addi	s10,s10,3
     57c:	01ac04a3          	sb	s10,9(s8)
     580:	e5043d03          	ld	s10,-432(s0)
     584:	003d0d13          	addi	s10,s10,3
     588:	01ac0423          	sb	s10,8(s8)
     58c:	e6043d03          	ld	s10,-416(s0)
     590:	003d0d13          	addi	s10,s10,3
     594:	01ac03a3          	sb	s10,7(s8)
     598:	e7043d03          	ld	s10,-400(s0)
     59c:	003d0d13          	addi	s10,s10,3
     5a0:	01ac0323          	sb	s10,6(s8)
     5a4:	e8043d03          	ld	s10,-384(s0)
     5a8:	003d0d13          	addi	s10,s10,3
     5ac:	01ac02a3          	sb	s10,5(s8)
     5b0:	e9043d03          	ld	s10,-368(s0)
     5b4:	003d0d13          	addi	s10,s10,3
     5b8:	01ac0223          	sb	s10,4(s8)
     5bc:	ea043d03          	ld	s10,-352(s0)
     5c0:	003d0d13          	addi	s10,s10,3
     5c4:	01ac01a3          	sb	s10,3(s8)
     5c8:	eb043d03          	ld	s10,-336(s0)
     5cc:	003d0d13          	addi	s10,s10,3
     5d0:	01ac0123          	sb	s10,2(s8)
     5d4:	ec043d03          	ld	s10,-320(s0)
     5d8:	003d0d13          	addi	s10,s10,3
     5dc:	01ac00a3          	sb	s10,1(s8)
     5e0:	ed043d03          	ld	s10,-304(s0)
     5e4:	003d0d13          	addi	s10,s10,3
     5e8:	01ac0023          	sb	s10,0(s8)
     5ec:	c4043d03          	ld	s10,-960(s0)
     5f0:	003d0d13          	addi	s10,s10,3
     5f4:	00001537          	lui	a0,0x1
     5f8:	40a40533          	sub	a0,s0,a0
     5fc:	89853c03          	ld	s8,-1896(a0) # 898 <.LBB98_3+0x5d8>
     600:	018d8c33          	add	s8,s11,s8
     604:	01ac0fa3          	sb	s10,31(s8)
     608:	c5043d03          	ld	s10,-944(s0)
     60c:	003d0d13          	addi	s10,s10,3
     610:	01ac0f23          	sb	s10,30(s8)
     614:	c6043d03          	ld	s10,-928(s0)
     618:	003d0d13          	addi	s10,s10,3
     61c:	01ac0ea3          	sb	s10,29(s8)
     620:	c7043d03          	ld	s10,-912(s0)
     624:	003d0d13          	addi	s10,s10,3
     628:	01ac0e23          	sb	s10,28(s8)
     62c:	c8043d03          	ld	s10,-896(s0)
     630:	003d0d13          	addi	s10,s10,3
     634:	01ac0da3          	sb	s10,27(s8)
     638:	c9043d03          	ld	s10,-880(s0)
     63c:	003d0d13          	addi	s10,s10,3
     640:	01ac0d23          	sb	s10,26(s8)
     644:	ca043d03          	ld	s10,-864(s0)
     648:	003d0d13          	addi	s10,s10,3
     64c:	01ac0ca3          	sb	s10,25(s8)
     650:	cb043d03          	ld	s10,-848(s0)
     654:	003d0d13          	addi	s10,s10,3
     658:	01ac0c23          	sb	s10,24(s8)
     65c:	cc043d03          	ld	s10,-832(s0)
     660:	003d0d13          	addi	s10,s10,3
     664:	01ac0ba3          	sb	s10,23(s8)
     668:	cd043d03          	ld	s10,-816(s0)
     66c:	003d0d13          	addi	s10,s10,3
     670:	01ac0b23          	sb	s10,22(s8)
     674:	ce043d03          	ld	s10,-800(s0)
     678:	003d0d13          	addi	s10,s10,3
     67c:	01ac0aa3          	sb	s10,21(s8)
     680:	ce843d03          	ld	s10,-792(s0)
     684:	003d0d13          	addi	s10,s10,3
     688:	01ac0a23          	sb	s10,20(s8)
     68c:	cf043d03          	ld	s10,-784(s0)
     690:	003d0d13          	addi	s10,s10,3
     694:	01ac09a3          	sb	s10,19(s8)
     698:	cf843d03          	ld	s10,-776(s0)
     69c:	003d0d13          	addi	s10,s10,3
     6a0:	01ac0923          	sb	s10,18(s8)
     6a4:	d0043d03          	ld	s10,-768(s0)
     6a8:	003d0d13          	addi	s10,s10,3
     6ac:	01ac08a3          	sb	s10,17(s8)
     6b0:	d0843d03          	ld	s10,-760(s0)
     6b4:	003d0d13          	addi	s10,s10,3
     6b8:	01ac0823          	sb	s10,16(s8)
     6bc:	d1043d03          	ld	s10,-752(s0)
     6c0:	003d0d13          	addi	s10,s10,3
     6c4:	01ac07a3          	sb	s10,15(s8)
     6c8:	d1843d03          	ld	s10,-744(s0)
     6cc:	003d0d13          	addi	s10,s10,3
     6d0:	01ac0723          	sb	s10,14(s8)
     6d4:	d2043d03          	ld	s10,-736(s0)
     6d8:	003d0d13          	addi	s10,s10,3
     6dc:	01ac06a3          	sb	s10,13(s8)
     6e0:	d2843d03          	ld	s10,-728(s0)
     6e4:	003d0d13          	addi	s10,s10,3
     6e8:	01ac0623          	sb	s10,12(s8)
     6ec:	d3043d03          	ld	s10,-720(s0)
     6f0:	003d0d13          	addi	s10,s10,3
     6f4:	01ac05a3          	sb	s10,11(s8)
     6f8:	d3843d03          	ld	s10,-712(s0)
     6fc:	003d0d13          	addi	s10,s10,3
     700:	01ac0523          	sb	s10,10(s8)
     704:	d4843d03          	ld	s10,-696(s0)
     708:	003d0d13          	addi	s10,s10,3
     70c:	01ac04a3          	sb	s10,9(s8)
     710:	d5843d03          	ld	s10,-680(s0)
     714:	003d0d13          	addi	s10,s10,3
     718:	01ac0423          	sb	s10,8(s8)
     71c:	d6843d03          	ld	s10,-664(s0)
     720:	003d0d13          	addi	s10,s10,3
     724:	01ac03a3          	sb	s10,7(s8)
     728:	d7843d03          	ld	s10,-648(s0)
     72c:	003d0d13          	addi	s10,s10,3
     730:	01ac0323          	sb	s10,6(s8)
     734:	d8843d03          	ld	s10,-632(s0)
     738:	003d0d13          	addi	s10,s10,3
     73c:	01ac02a3          	sb	s10,5(s8)
     740:	d9843d03          	ld	s10,-616(s0)
     744:	003d0d13          	addi	s10,s10,3
     748:	01ac0223          	sb	s10,4(s8)
     74c:	da843d03          	ld	s10,-600(s0)
     750:	003d0d13          	addi	s10,s10,3
     754:	01ac01a3          	sb	s10,3(s8)
     758:	db843d03          	ld	s10,-584(s0)
     75c:	003d0d13          	addi	s10,s10,3
     760:	01ac0123          	sb	s10,2(s8)
     764:	dc843d03          	ld	s10,-568(s0)
     768:	003d0d13          	addi	s10,s10,3
     76c:	01ac00a3          	sb	s10,1(s8)
     770:	dd843d03          	ld	s10,-552(s0)
     774:	003d0d13          	addi	s10,s10,3
     778:	01ac0023          	sb	s10,0(s8)
     77c:	b4043d03          	ld	s10,-1216(s0)
     780:	003d0d13          	addi	s10,s10,3
     784:	00001537          	lui	a0,0x1
     788:	40a40533          	sub	a0,s0,a0
     78c:	8a053c03          	ld	s8,-1888(a0) # 8a0 <.LBB98_3+0x5e0>
     790:	018d8c33          	add	s8,s11,s8
     794:	01ac0fa3          	sb	s10,31(s8)
     798:	b5043d03          	ld	s10,-1200(s0)
     79c:	003d0d13          	addi	s10,s10,3
     7a0:	01ac0f23          	sb	s10,30(s8)
     7a4:	b6043d03          	ld	s10,-1184(s0)
     7a8:	003d0d13          	addi	s10,s10,3
     7ac:	01ac0ea3          	sb	s10,29(s8)
     7b0:	b7043d03          	ld	s10,-1168(s0)
     7b4:	003d0d13          	addi	s10,s10,3
     7b8:	01ac0e23          	sb	s10,28(s8)
     7bc:	b8043d03          	ld	s10,-1152(s0)
     7c0:	003d0d13          	addi	s10,s10,3
     7c4:	01ac0da3          	sb	s10,27(s8)
     7c8:	b9043d03          	ld	s10,-1136(s0)
     7cc:	003d0d13          	addi	s10,s10,3
     7d0:	01ac0d23          	sb	s10,26(s8)
     7d4:	ba043d03          	ld	s10,-1120(s0)
     7d8:	003d0d13          	addi	s10,s10,3
     7dc:	01ac0ca3          	sb	s10,25(s8)
     7e0:	bb043d03          	ld	s10,-1104(s0)
     7e4:	003d0d13          	addi	s10,s10,3
     7e8:	01ac0c23          	sb	s10,24(s8)
     7ec:	bc043d03          	ld	s10,-1088(s0)
     7f0:	003d0d13          	addi	s10,s10,3
     7f4:	01ac0ba3          	sb	s10,23(s8)
     7f8:	bd043d03          	ld	s10,-1072(s0)
     7fc:	003d0d13          	addi	s10,s10,3
     800:	01ac0b23          	sb	s10,22(s8)
     804:	be043d03          	ld	s10,-1056(s0)
     808:	003d0d13          	addi	s10,s10,3
     80c:	01ac0aa3          	sb	s10,21(s8)
     810:	be843d03          	ld	s10,-1048(s0)
     814:	003d0d13          	addi	s10,s10,3
     818:	01ac0a23          	sb	s10,20(s8)
     81c:	bf043d03          	ld	s10,-1040(s0)
     820:	003d0d13          	addi	s10,s10,3
     824:	01ac09a3          	sb	s10,19(s8)
     828:	bf843d03          	ld	s10,-1032(s0)
     82c:	003d0d13          	addi	s10,s10,3
     830:	01ac0923          	sb	s10,18(s8)
     834:	c0043d03          	ld	s10,-1024(s0)
     838:	003d0d13          	addi	s10,s10,3
     83c:	01ac08a3          	sb	s10,17(s8)
     840:	c0843d03          	ld	s10,-1016(s0)
     844:	003d0d13          	addi	s10,s10,3
     848:	01ac0823          	sb	s10,16(s8)
     84c:	c1043d03          	ld	s10,-1008(s0)
     850:	003d0d13          	addi	s10,s10,3
     854:	01ac07a3          	sb	s10,15(s8)
     858:	c1843d03          	ld	s10,-1000(s0)
     85c:	003d0d13          	addi	s10,s10,3
     860:	01ac0723          	sb	s10,14(s8)
     864:	c2043d03          	ld	s10,-992(s0)
     868:	003d0d13          	addi	s10,s10,3
     86c:	01ac06a3          	sb	s10,13(s8)
     870:	c2843d03          	ld	s10,-984(s0)
     874:	003d0d13          	addi	s10,s10,3
     878:	01ac0623          	sb	s10,12(s8)
     87c:	c3043d03          	ld	s10,-976(s0)
     880:	003d0d13          	addi	s10,s10,3
     884:	01ac05a3          	sb	s10,11(s8)
     888:	c3843d03          	ld	s10,-968(s0)
     88c:	003d0d13          	addi	s10,s10,3
     890:	01ac0523          	sb	s10,10(s8)
     894:	c4843d03          	ld	s10,-952(s0)
     898:	003d0d13          	addi	s10,s10,3
     89c:	01ac04a3          	sb	s10,9(s8)
     8a0:	c5843d03          	ld	s10,-936(s0)
     8a4:	003d0d13          	addi	s10,s10,3
     8a8:	01ac0423          	sb	s10,8(s8)
     8ac:	c6843d03          	ld	s10,-920(s0)
     8b0:	003d0d13          	addi	s10,s10,3
     8b4:	01ac03a3          	sb	s10,7(s8)
     8b8:	c7843d03          	ld	s10,-904(s0)
     8bc:	003d0d13          	addi	s10,s10,3
     8c0:	01ac0323          	sb	s10,6(s8)
     8c4:	c8843d03          	ld	s10,-888(s0)
     8c8:	003d0d13          	addi	s10,s10,3
     8cc:	01ac02a3          	sb	s10,5(s8)
     8d0:	c9843d03          	ld	s10,-872(s0)
     8d4:	003d0d13          	addi	s10,s10,3
     8d8:	01ac0223          	sb	s10,4(s8)
     8dc:	ca843d03          	ld	s10,-856(s0)
     8e0:	003d0d13          	addi	s10,s10,3
     8e4:	01ac01a3          	sb	s10,3(s8)
     8e8:	cb843d03          	ld	s10,-840(s0)
     8ec:	003d0d13          	addi	s10,s10,3
     8f0:	01ac0123          	sb	s10,2(s8)
     8f4:	cc843d03          	ld	s10,-824(s0)
     8f8:	003d0d13          	addi	s10,s10,3
     8fc:	01ac00a3          	sb	s10,1(s8)
     900:	cd843d03          	ld	s10,-808(s0)
     904:	003d0d13          	addi	s10,s10,3
     908:	01ac0023          	sb	s10,0(s8)
     90c:	a4043d03          	ld	s10,-1472(s0)
     910:	003d0d13          	addi	s10,s10,3
     914:	00001537          	lui	a0,0x1
     918:	40a40533          	sub	a0,s0,a0
     91c:	8a853c03          	ld	s8,-1880(a0) # 8a8 <.LBB98_3+0x5e8>
     920:	018d8c33          	add	s8,s11,s8
     924:	01ac0fa3          	sb	s10,31(s8)
     928:	a5043d03          	ld	s10,-1456(s0)
     92c:	003d0d13          	addi	s10,s10,3
     930:	01ac0f23          	sb	s10,30(s8)
     934:	a6043d03          	ld	s10,-1440(s0)
     938:	003d0d13          	addi	s10,s10,3
     93c:	01ac0ea3          	sb	s10,29(s8)
     940:	a7043d03          	ld	s10,-1424(s0)
     944:	003d0d13          	addi	s10,s10,3
     948:	01ac0e23          	sb	s10,28(s8)
     94c:	a8043d03          	ld	s10,-1408(s0)
     950:	003d0d13          	addi	s10,s10,3
     954:	01ac0da3          	sb	s10,27(s8)
     958:	a9043d03          	ld	s10,-1392(s0)
     95c:	003d0d13          	addi	s10,s10,3
     960:	01ac0d23          	sb	s10,26(s8)
     964:	aa043d03          	ld	s10,-1376(s0)
     968:	003d0d13          	addi	s10,s10,3
     96c:	01ac0ca3          	sb	s10,25(s8)
     970:	ab043d03          	ld	s10,-1360(s0)
     974:	003d0d13          	addi	s10,s10,3
     978:	01ac0c23          	sb	s10,24(s8)
     97c:	ac043d03          	ld	s10,-1344(s0)
     980:	003d0d13          	addi	s10,s10,3
     984:	01ac0ba3          	sb	s10,23(s8)
     988:	ad043d03          	ld	s10,-1328(s0)
     98c:	003d0d13          	addi	s10,s10,3
     990:	01ac0b23          	sb	s10,22(s8)
     994:	ae043d03          	ld	s10,-1312(s0)
     998:	003d0d13          	addi	s10,s10,3
     99c:	01ac0aa3          	sb	s10,21(s8)
     9a0:	ae843d03          	ld	s10,-1304(s0)
     9a4:	003d0d13          	addi	s10,s10,3
     9a8:	01ac0a23          	sb	s10,20(s8)
     9ac:	af043d03          	ld	s10,-1296(s0)
     9b0:	003d0d13          	addi	s10,s10,3
     9b4:	01ac09a3          	sb	s10,19(s8)
     9b8:	af843d03          	ld	s10,-1288(s0)
     9bc:	003d0d13          	addi	s10,s10,3
     9c0:	01ac0923          	sb	s10,18(s8)
     9c4:	b0043d03          	ld	s10,-1280(s0)
     9c8:	003d0d13          	addi	s10,s10,3
     9cc:	01ac08a3          	sb	s10,17(s8)
     9d0:	b0843d03          	ld	s10,-1272(s0)
     9d4:	003d0d13          	addi	s10,s10,3
     9d8:	01ac0823          	sb	s10,16(s8)
     9dc:	b1043d03          	ld	s10,-1264(s0)
     9e0:	003d0d13          	addi	s10,s10,3
     9e4:	01ac07a3          	sb	s10,15(s8)
     9e8:	b1843d03          	ld	s10,-1256(s0)
     9ec:	003d0d13          	addi	s10,s10,3
     9f0:	01ac0723          	sb	s10,14(s8)
     9f4:	b2043d03          	ld	s10,-1248(s0)
     9f8:	003d0d13          	addi	s10,s10,3
     9fc:	01ac06a3          	sb	s10,13(s8)
     a00:	b2843d03          	ld	s10,-1240(s0)
     a04:	003d0d13          	addi	s10,s10,3
     a08:	01ac0623          	sb	s10,12(s8)
     a0c:	b3043d03          	ld	s10,-1232(s0)
     a10:	003d0d13          	addi	s10,s10,3
     a14:	01ac05a3          	sb	s10,11(s8)
     a18:	b3843d03          	ld	s10,-1224(s0)
     a1c:	003d0d13          	addi	s10,s10,3
     a20:	01ac0523          	sb	s10,10(s8)
     a24:	b4843d03          	ld	s10,-1208(s0)
     a28:	003d0d13          	addi	s10,s10,3
     a2c:	01ac04a3          	sb	s10,9(s8)
     a30:	b5843d03          	ld	s10,-1192(s0)
     a34:	003d0d13          	addi	s10,s10,3
     a38:	01ac0423          	sb	s10,8(s8)
     a3c:	b6843d03          	ld	s10,-1176(s0)
     a40:	003d0d13          	addi	s10,s10,3
     a44:	01ac03a3          	sb	s10,7(s8)
     a48:	b7843d03          	ld	s10,-1160(s0)
     a4c:	003d0d13          	addi	s10,s10,3
     a50:	01ac0323          	sb	s10,6(s8)
     a54:	b8843d03          	ld	s10,-1144(s0)
     a58:	003d0d13          	addi	s10,s10,3
     a5c:	01ac02a3          	sb	s10,5(s8)
     a60:	b9843d03          	ld	s10,-1128(s0)
     a64:	003d0d13          	addi	s10,s10,3
     a68:	01ac0223          	sb	s10,4(s8)
     a6c:	ba843d03          	ld	s10,-1112(s0)
     a70:	003d0d13          	addi	s10,s10,3
     a74:	01ac01a3          	sb	s10,3(s8)
     a78:	bb843d03          	ld	s10,-1096(s0)
     a7c:	003d0d13          	addi	s10,s10,3
     a80:	01ac0123          	sb	s10,2(s8)
     a84:	bc843d03          	ld	s10,-1080(s0)
     a88:	003d0d13          	addi	s10,s10,3
     a8c:	01ac00a3          	sb	s10,1(s8)
     a90:	bd843d03          	ld	s10,-1064(s0)
     a94:	003d0d13          	addi	s10,s10,3
     a98:	01ac0023          	sb	s10,0(s8)
     a9c:	94043d03          	ld	s10,-1728(s0)
     aa0:	003d0d13          	addi	s10,s10,3
     aa4:	00001537          	lui	a0,0x1
     aa8:	40a40533          	sub	a0,s0,a0
     aac:	8b053c03          	ld	s8,-1872(a0) # 8b0 <.LBB98_3+0x5f0>
     ab0:	018d8c33          	add	s8,s11,s8
     ab4:	01ac0fa3          	sb	s10,31(s8)
     ab8:	95043d03          	ld	s10,-1712(s0)
     abc:	003d0d13          	addi	s10,s10,3
     ac0:	01ac0f23          	sb	s10,30(s8)
     ac4:	96043d03          	ld	s10,-1696(s0)
     ac8:	003d0d13          	addi	s10,s10,3
     acc:	01ac0ea3          	sb	s10,29(s8)
     ad0:	97043d03          	ld	s10,-1680(s0)
     ad4:	003d0d13          	addi	s10,s10,3
     ad8:	01ac0e23          	sb	s10,28(s8)
     adc:	98043d03          	ld	s10,-1664(s0)
     ae0:	003d0d13          	addi	s10,s10,3
     ae4:	01ac0da3          	sb	s10,27(s8)
     ae8:	99043d03          	ld	s10,-1648(s0)
     aec:	003d0d13          	addi	s10,s10,3
     af0:	01ac0d23          	sb	s10,26(s8)
     af4:	9a043d03          	ld	s10,-1632(s0)
     af8:	003d0d13          	addi	s10,s10,3
     afc:	01ac0ca3          	sb	s10,25(s8)
     b00:	9b043d03          	ld	s10,-1616(s0)
     b04:	003d0d13          	addi	s10,s10,3
     b08:	01ac0c23          	sb	s10,24(s8)
     b0c:	9c043d03          	ld	s10,-1600(s0)
     b10:	003d0d13          	addi	s10,s10,3
     b14:	01ac0ba3          	sb	s10,23(s8)
     b18:	9d043d03          	ld	s10,-1584(s0)
     b1c:	003d0d13          	addi	s10,s10,3
     b20:	01ac0b23          	sb	s10,22(s8)
     b24:	9e043d03          	ld	s10,-1568(s0)
     b28:	003d0d13          	addi	s10,s10,3
     b2c:	01ac0aa3          	sb	s10,21(s8)
     b30:	9e843d03          	ld	s10,-1560(s0)
     b34:	003d0d13          	addi	s10,s10,3
     b38:	01ac0a23          	sb	s10,20(s8)
     b3c:	9f043d03          	ld	s10,-1552(s0)
     b40:	003d0d13          	addi	s10,s10,3
     b44:	01ac09a3          	sb	s10,19(s8)
     b48:	9f843d03          	ld	s10,-1544(s0)
     b4c:	003d0d13          	addi	s10,s10,3
     b50:	01ac0923          	sb	s10,18(s8)
     b54:	a0043d03          	ld	s10,-1536(s0)
     b58:	003d0d13          	addi	s10,s10,3
     b5c:	01ac08a3          	sb	s10,17(s8)
     b60:	a0843d03          	ld	s10,-1528(s0)
     b64:	003d0d13          	addi	s10,s10,3
     b68:	01ac0823          	sb	s10,16(s8)
     b6c:	a1043d03          	ld	s10,-1520(s0)
     b70:	003d0d13          	addi	s10,s10,3
     b74:	01ac07a3          	sb	s10,15(s8)
     b78:	a1843d03          	ld	s10,-1512(s0)
     b7c:	003d0d13          	addi	s10,s10,3
     b80:	01ac0723          	sb	s10,14(s8)
     b84:	a2043d03          	ld	s10,-1504(s0)
     b88:	003d0d13          	addi	s10,s10,3
     b8c:	01ac06a3          	sb	s10,13(s8)
     b90:	a2843d03          	ld	s10,-1496(s0)
     b94:	003d0d13          	addi	s10,s10,3
     b98:	01ac0623          	sb	s10,12(s8)
     b9c:	a3043d03          	ld	s10,-1488(s0)
     ba0:	003d0d13          	addi	s10,s10,3
     ba4:	01ac05a3          	sb	s10,11(s8)
     ba8:	a3843d03          	ld	s10,-1480(s0)
     bac:	003d0d13          	addi	s10,s10,3
     bb0:	01ac0523          	sb	s10,10(s8)
     bb4:	a4843d03          	ld	s10,-1464(s0)
     bb8:	003d0d13          	addi	s10,s10,3
     bbc:	01ac04a3          	sb	s10,9(s8)
     bc0:	a5843d03          	ld	s10,-1448(s0)
     bc4:	003d0d13          	addi	s10,s10,3
     bc8:	01ac0423          	sb	s10,8(s8)
     bcc:	a6843d03          	ld	s10,-1432(s0)
     bd0:	003d0d13          	addi	s10,s10,3
     bd4:	01ac03a3          	sb	s10,7(s8)
     bd8:	a7843d03          	ld	s10,-1416(s0)
     bdc:	003d0d13          	addi	s10,s10,3
     be0:	01ac0323          	sb	s10,6(s8)
     be4:	a8843d03          	ld	s10,-1400(s0)
     be8:	003d0d13          	addi	s10,s10,3
     bec:	01ac02a3          	sb	s10,5(s8)
     bf0:	a9843d03          	ld	s10,-1384(s0)
     bf4:	003d0d13          	addi	s10,s10,3
     bf8:	01ac0223          	sb	s10,4(s8)
     bfc:	aa843d03          	ld	s10,-1368(s0)
     c00:	003d0d13          	addi	s10,s10,3
     c04:	01ac01a3          	sb	s10,3(s8)
     c08:	ab843d03          	ld	s10,-1352(s0)
     c0c:	003d0d13          	addi	s10,s10,3
     c10:	01ac0123          	sb	s10,2(s8)
     c14:	ac843d03          	ld	s10,-1336(s0)
     c18:	003d0d13          	addi	s10,s10,3
     c1c:	01ac00a3          	sb	s10,1(s8)
     c20:	ad843d03          	ld	s10,-1320(s0)
     c24:	003d0d13          	addi	s10,s10,3
     c28:	01ac0023          	sb	s10,0(s8)
     c2c:	00358c13          	addi	s8,a1,3
     c30:	00001537          	lui	a0,0x1
     c34:	40a40533          	sub	a0,s0,a0
     c38:	8b853583          	ld	a1,-1864(a0) # 8b8 <.LBB98_3+0x5f8>
     c3c:	00bd85b3          	add	a1,s11,a1
     c40:	01858fa3          	sb	s8,31(a1)
     c44:	85043c03          	ld	s8,-1968(s0)
     c48:	003c0c13          	addi	s8,s8,3
     c4c:	01858f23          	sb	s8,30(a1)
     c50:	86043c03          	ld	s8,-1952(s0)
     c54:	003c0c13          	addi	s8,s8,3
     c58:	01858ea3          	sb	s8,29(a1)
     c5c:	87043c03          	ld	s8,-1936(s0)
     c60:	003c0c13          	addi	s8,s8,3
     c64:	01858e23          	sb	s8,28(a1)
     c68:	88043c03          	ld	s8,-1920(s0)
     c6c:	003c0c13          	addi	s8,s8,3
     c70:	01858da3          	sb	s8,27(a1)
     c74:	89043c03          	ld	s8,-1904(s0)
     c78:	003c0c13          	addi	s8,s8,3
     c7c:	01858d23          	sb	s8,26(a1)
     c80:	8a043c03          	ld	s8,-1888(s0)
     c84:	003c0c13          	addi	s8,s8,3
     c88:	01858ca3          	sb	s8,25(a1)
     c8c:	8b043c03          	ld	s8,-1872(s0)
     c90:	003c0c13          	addi	s8,s8,3
     c94:	01858c23          	sb	s8,24(a1)
     c98:	8c043c03          	ld	s8,-1856(s0)
     c9c:	003c0c13          	addi	s8,s8,3
     ca0:	01858ba3          	sb	s8,23(a1)
     ca4:	8d043c03          	ld	s8,-1840(s0)
     ca8:	003c0c13          	addi	s8,s8,3
     cac:	01858b23          	sb	s8,22(a1)
     cb0:	8e043c03          	ld	s8,-1824(s0)
     cb4:	003c0c13          	addi	s8,s8,3
     cb8:	01858aa3          	sb	s8,21(a1)
     cbc:	8e843c03          	ld	s8,-1816(s0)
     cc0:	003c0c13          	addi	s8,s8,3
     cc4:	01858a23          	sb	s8,20(a1)
     cc8:	8f043c03          	ld	s8,-1808(s0)
     ccc:	003c0c13          	addi	s8,s8,3
     cd0:	018589a3          	sb	s8,19(a1)
     cd4:	8f843c03          	ld	s8,-1800(s0)
     cd8:	003c0c13          	addi	s8,s8,3
     cdc:	01858923          	sb	s8,18(a1)
     ce0:	90043c03          	ld	s8,-1792(s0)
     ce4:	003c0c13          	addi	s8,s8,3
     ce8:	018588a3          	sb	s8,17(a1)
     cec:	90843c03          	ld	s8,-1784(s0)
     cf0:	003c0c13          	addi	s8,s8,3
     cf4:	01858823          	sb	s8,16(a1)
     cf8:	91043c03          	ld	s8,-1776(s0)
     cfc:	003c0c13          	addi	s8,s8,3
     d00:	018587a3          	sb	s8,15(a1)
     d04:	91843c03          	ld	s8,-1768(s0)
     d08:	003c0c13          	addi	s8,s8,3
     d0c:	01858723          	sb	s8,14(a1)
     d10:	92043c03          	ld	s8,-1760(s0)
     d14:	003c0c13          	addi	s8,s8,3
     d18:	018586a3          	sb	s8,13(a1)
     d1c:	92843c03          	ld	s8,-1752(s0)
     d20:	003c0c13          	addi	s8,s8,3
     d24:	01858623          	sb	s8,12(a1)
     d28:	93043c03          	ld	s8,-1744(s0)
     d2c:	003c0c13          	addi	s8,s8,3
     d30:	018585a3          	sb	s8,11(a1)
     d34:	93843c03          	ld	s8,-1736(s0)
     d38:	003c0c13          	addi	s8,s8,3
     d3c:	01858523          	sb	s8,10(a1)
     d40:	94843c03          	ld	s8,-1720(s0)
     d44:	003c0c13          	addi	s8,s8,3
     d48:	018584a3          	sb	s8,9(a1)
     d4c:	95843c03          	ld	s8,-1704(s0)
     d50:	003c0c13          	addi	s8,s8,3
     d54:	01858423          	sb	s8,8(a1)
     d58:	96843c03          	ld	s8,-1688(s0)
     d5c:	003c0c13          	addi	s8,s8,3
     d60:	018583a3          	sb	s8,7(a1)
     d64:	97843c03          	ld	s8,-1672(s0)
     d68:	003c0c13          	addi	s8,s8,3
     d6c:	01858323          	sb	s8,6(a1)
     d70:	98843c03          	ld	s8,-1656(s0)
     d74:	003c0c13          	addi	s8,s8,3
     d78:	018582a3          	sb	s8,5(a1)
     d7c:	99843c03          	ld	s8,-1640(s0)
     d80:	003c0c13          	addi	s8,s8,3
     d84:	01858223          	sb	s8,4(a1)
     d88:	9a843c03          	ld	s8,-1624(s0)
     d8c:	003c0c13          	addi	s8,s8,3
     d90:	018581a3          	sb	s8,3(a1)
     d94:	9b843c03          	ld	s8,-1608(s0)
     d98:	003c0c13          	addi	s8,s8,3
     d9c:	01858123          	sb	s8,2(a1)
     da0:	9c843c03          	ld	s8,-1592(s0)
     da4:	003c0c13          	addi	s8,s8,3
     da8:	018580a3          	sb	s8,1(a1)
     dac:	9d843c03          	ld	s8,-1576(s0)
     db0:	003c0c13          	addi	s8,s8,3
     db4:	01858023          	sb	s8,0(a1)
     db8:	003b8b93          	addi	s7,s7,3
     dbc:	00001537          	lui	a0,0x1
     dc0:	40a40533          	sub	a0,s0,a0
     dc4:	8c053583          	ld	a1,-1856(a0) # 8c0 <.LBB98_3+0x600>
     dc8:	00bd85b3          	add	a1,s11,a1
     dcc:	01758fa3          	sb	s7,31(a1)
     dd0:	003a8a93          	addi	s5,s5,3
     dd4:	01558f23          	sb	s5,30(a1)
     dd8:	00308093          	addi	ra,ra,3
     ddc:	00158ea3          	sb	ra,29(a1)
     de0:	003c8c93          	addi	s9,s9,3
     de4:	01958e23          	sb	s9,28(a1)
     de8:	003b0b13          	addi	s6,s6,3
     dec:	01658da3          	sb	s6,27(a1)
     df0:	003e8e93          	addi	t4,t4,3
     df4:	01d58d23          	sb	t4,26(a1)
     df8:	00328293          	addi	t0,t0,3
     dfc:	00558ca3          	sb	t0,25(a1)
     e00:	00388893          	addi	a7,a7,3
     e04:	01158c23          	sb	a7,24(a1)
     e08:	003f8f93          	addi	t6,t6,3
     e0c:	01f58ba3          	sb	t6,23(a1)
     e10:	003a0a13          	addi	s4,s4,3
     e14:	01458b23          	sb	s4,22(a1)
     e18:	003f0f13          	addi	t5,t5,3
     e1c:	01e58aa3          	sb	t5,21(a1)
     e20:	00380813          	addi	a6,a6,3
     e24:	01058a23          	sb	a6,20(a1)
     e28:	003e0e13          	addi	t3,t3,3
     e2c:	01c589a3          	sb	t3,19(a1)
     e30:	00378793          	addi	a5,a5,3
     e34:	00f58923          	sb	a5,18(a1)
     e38:	00390913          	addi	s2,s2,3
     e3c:	012588a3          	sb	s2,17(a1)
     e40:	00398993          	addi	s3,s3,3
     e44:	01358823          	sb	s3,16(a1)
     e48:	00348493          	addi	s1,s1,3
     e4c:	009587a3          	sb	s1,15(a1)
     e50:	00370713          	addi	a4,a4,3
     e54:	00e58723          	sb	a4,14(a1)
     e58:	00338393          	addi	t2,t2,3
     e5c:	007586a3          	sb	t2,13(a1)
     e60:	00368693          	addi	a3,a3,3
     e64:	00d58623          	sb	a3,12(a1)
     e68:	00330313          	addi	t1,t1,3
     e6c:	006585a3          	sb	t1,11(a1)
     e70:	00360613          	addi	a2,a2,3
     e74:	00c58523          	sb	a2,10(a1)
     e78:	84843503          	ld	a0,-1976(s0)
     e7c:	00350513          	addi	a0,a0,3
     e80:	00a584a3          	sb	a0,9(a1)
     e84:	85843503          	ld	a0,-1960(s0)
     e88:	00350513          	addi	a0,a0,3
     e8c:	00a58423          	sb	a0,8(a1)
     e90:	86843503          	ld	a0,-1944(s0)
     e94:	00350513          	addi	a0,a0,3
     e98:	00a583a3          	sb	a0,7(a1)
     e9c:	87843503          	ld	a0,-1928(s0)
     ea0:	00350513          	addi	a0,a0,3
     ea4:	00a58323          	sb	a0,6(a1)
     ea8:	88843503          	ld	a0,-1912(s0)
     eac:	00350513          	addi	a0,a0,3
     eb0:	00a582a3          	sb	a0,5(a1)
     eb4:	89843503          	ld	a0,-1896(s0)
     eb8:	00350513          	addi	a0,a0,3
     ebc:	00a58223          	sb	a0,4(a1)
     ec0:	8a843503          	ld	a0,-1880(s0)
     ec4:	00350513          	addi	a0,a0,3
     ec8:	00a581a3          	sb	a0,3(a1)
     ecc:	8b843503          	ld	a0,-1864(s0)
     ed0:	00350513          	addi	a0,a0,3
     ed4:	00a58123          	sb	a0,2(a1)
     ed8:	8c843503          	ld	a0,-1848(s0)
     edc:	00350513          	addi	a0,a0,3
     ee0:	00a580a3          	sb	a0,1(a1)
     ee4:	8d843503          	ld	a0,-1832(s0)
     ee8:	00350513          	addi	a0,a0,3
     eec:	00a58023          	sb	a0,0(a1)
     ef0:	00001537          	lui	a0,0x1
     ef4:	40a40533          	sub	a0,s0,a0
     ef8:	64853603          	ld	a2,1608(a0) # 1648 <.LBB98_5+0x17c>
     efc:	02060593          	addi	a1,a2,32
     f00:	00001537          	lui	a0,0x1
     f04:	40a40533          	sub	a0,s0,a0
     f08:	8c853483          	ld	s1,-1848(a0) # 8c8 <.LBB98_3+0x608>
     f0c:	02048493          	addi	s1,s1,32
     f10:	08000513          	li	a0,128
     f14:	aaa67063          	bgeu	a2,a0,1b4 <.LBB98_1>

0000000000000f18 <.LBB98_4>:
     f18:	00001537          	lui	a0,0x1
     f1c:	40a40533          	sub	a0,s0,a0
     f20:	64b53423          	sd	a1,1608(a0) # 1648 <.LBB98_5+0x17c>
     f24:	00002537          	lui	a0,0x2
     f28:	40a40533          	sub	a0,s0,a0
     f2c:	00853e83          	ld	t4,8(a0) # 2008 <.LBB98_5+0xb3c>
     f30:	00002537          	lui	a0,0x2
     f34:	40a40533          	sub	a0,s0,a0
     f38:	07053b03          	ld	s6,112(a0) # 2070 <.LBB98_5+0xba4>
     f3c:	00001537          	lui	a0,0x1
     f40:	40a40533          	sub	a0,s0,a0
     f44:	8c953423          	sd	s1,-1848(a0) # 8c8 <.LBB98_3+0x608>
     f48:	00048a93          	mv	s5,s1
     f4c:	00001537          	lui	a0,0x1
     f50:	40a40533          	sub	a0,s0,a0
     f54:	76053023          	sd	zero,1888(a0) # 1760 <.LBB98_5+0x294>
     f58:	00001537          	lui	a0,0x1
     f5c:	40a40533          	sub	a0,s0,a0
     f60:	76053423          	sd	zero,1896(a0) # 1768 <.LBB98_5+0x29c>
     f64:	00001537          	lui	a0,0x1
     f68:	40a40533          	sub	a0,s0,a0
     f6c:	76053c23          	sd	zero,1912(a0) # 1778 <.LBB98_5+0x2ac>
     f70:	00000b93          	li	s7,0
     f74:	00001537          	lui	a0,0x1
     f78:	40a40533          	sub	a0,s0,a0
     f7c:	74053c23          	sd	zero,1880(a0) # 1758 <.LBB98_5+0x28c>
     f80:	00001537          	lui	a0,0x1
     f84:	40a40533          	sub	a0,s0,a0
     f88:	74053823          	sd	zero,1872(a0) # 1750 <.LBB98_5+0x284>
     f8c:	00001537          	lui	a0,0x1
     f90:	40a40533          	sub	a0,s0,a0
     f94:	74053423          	sd	zero,1864(a0) # 1748 <.LBB98_5+0x27c>
     f98:	00001537          	lui	a0,0x1
     f9c:	40a40533          	sub	a0,s0,a0
     fa0:	74053023          	sd	zero,1856(a0) # 1740 <.LBB98_5+0x274>
     fa4:	00001537          	lui	a0,0x1
     fa8:	40a40533          	sub	a0,s0,a0
     fac:	72053c23          	sd	zero,1848(a0) # 1738 <.LBB98_5+0x26c>
     fb0:	00001537          	lui	a0,0x1
     fb4:	40a40533          	sub	a0,s0,a0
     fb8:	72053823          	sd	zero,1840(a0) # 1730 <.LBB98_5+0x264>
     fbc:	00001537          	lui	a0,0x1
     fc0:	40a40533          	sub	a0,s0,a0
     fc4:	72053423          	sd	zero,1832(a0) # 1728 <.LBB98_5+0x25c>
     fc8:	00001537          	lui	a0,0x1
     fcc:	40a40533          	sub	a0,s0,a0
     fd0:	72053023          	sd	zero,1824(a0) # 1720 <.LBB98_5+0x254>
     fd4:	00001537          	lui	a0,0x1
     fd8:	40a40533          	sub	a0,s0,a0
     fdc:	70053c23          	sd	zero,1816(a0) # 1718 <.LBB98_5+0x24c>
     fe0:	00001537          	lui	a0,0x1
     fe4:	40a40533          	sub	a0,s0,a0
     fe8:	70053823          	sd	zero,1808(a0) # 1710 <.LBB98_5+0x244>
     fec:	00001537          	lui	a0,0x1
     ff0:	40a40533          	sub	a0,s0,a0
     ff4:	70053423          	sd	zero,1800(a0) # 1708 <.LBB98_5+0x23c>
     ff8:	00001537          	lui	a0,0x1
     ffc:	40a40533          	sub	a0,s0,a0
    1000:	70053023          	sd	zero,1792(a0) # 1700 <.LBB98_5+0x234>
    1004:	00001537          	lui	a0,0x1
    1008:	40a40533          	sub	a0,s0,a0
    100c:	6e053c23          	sd	zero,1784(a0) # 16f8 <.LBB98_5+0x22c>
    1010:	00001537          	lui	a0,0x1
    1014:	40a40533          	sub	a0,s0,a0
    1018:	6e053823          	sd	zero,1776(a0) # 16f0 <.LBB98_5+0x224>
    101c:	00001537          	lui	a0,0x1
    1020:	40a40533          	sub	a0,s0,a0
    1024:	6e053423          	sd	zero,1768(a0) # 16e8 <.LBB98_5+0x21c>
    1028:	00001537          	lui	a0,0x1
    102c:	40a40533          	sub	a0,s0,a0
    1030:	6e053023          	sd	zero,1760(a0) # 16e0 <.LBB98_5+0x214>
    1034:	00001537          	lui	a0,0x1
    1038:	40a40533          	sub	a0,s0,a0
    103c:	6c053c23          	sd	zero,1752(a0) # 16d8 <.LBB98_5+0x20c>
    1040:	00001537          	lui	a0,0x1
    1044:	40a40533          	sub	a0,s0,a0
    1048:	6c053823          	sd	zero,1744(a0) # 16d0 <.LBB98_5+0x204>
    104c:	00001537          	lui	a0,0x1
    1050:	40a40533          	sub	a0,s0,a0
    1054:	6c053023          	sd	zero,1728(a0) # 16c0 <.LBB98_5+0x1f4>
    1058:	00001537          	lui	a0,0x1
    105c:	40a40533          	sub	a0,s0,a0
    1060:	6c053423          	sd	zero,1736(a0) # 16c8 <.LBB98_5+0x1fc>
    1064:	00001537          	lui	a0,0x1
    1068:	40a40533          	sub	a0,s0,a0
    106c:	68053823          	sd	zero,1680(a0) # 1690 <.LBB98_5+0x1c4>
    1070:	00001537          	lui	a0,0x1
    1074:	40a40533          	sub	a0,s0,a0
    1078:	68053423          	sd	zero,1672(a0) # 1688 <.LBB98_5+0x1bc>
    107c:	00001537          	lui	a0,0x1
    1080:	40a40533          	sub	a0,s0,a0
    1084:	6a053c23          	sd	zero,1720(a0) # 16b8 <.LBB98_5+0x1ec>
    1088:	00001537          	lui	a0,0x1
    108c:	40a40533          	sub	a0,s0,a0
    1090:	6a053823          	sd	zero,1712(a0) # 16b0 <.LBB98_5+0x1e4>
    1094:	00001537          	lui	a0,0x1
    1098:	40a40533          	sub	a0,s0,a0
    109c:	6a053423          	sd	zero,1704(a0) # 16a8 <.LBB98_5+0x1dc>
    10a0:	00001537          	lui	a0,0x1
    10a4:	40a40533          	sub	a0,s0,a0
    10a8:	6a053023          	sd	zero,1696(a0) # 16a0 <.LBB98_5+0x1d4>
    10ac:	00001537          	lui	a0,0x1
    10b0:	40a40533          	sub	a0,s0,a0
    10b4:	68053023          	sd	zero,1664(a0) # 1680 <.LBB98_5+0x1b4>
    10b8:	00001537          	lui	a0,0x1
    10bc:	40a40533          	sub	a0,s0,a0
    10c0:	68053c23          	sd	zero,1688(a0) # 1698 <.LBB98_5+0x1cc>
    10c4:	00001537          	lui	a0,0x1
    10c8:	40a40533          	sub	a0,s0,a0
    10cc:	76053823          	sd	zero,1904(a0) # 1770 <.LBB98_5+0x2a4>
    10d0:	00001537          	lui	a0,0x1
    10d4:	40a40533          	sub	a0,s0,a0
    10d8:	78053023          	sd	zero,1920(a0) # 1780 <.LBB98_5+0x2b4>
    10dc:	00001537          	lui	a0,0x1
    10e0:	40a40533          	sub	a0,s0,a0
    10e4:	78053423          	sd	zero,1928(a0) # 1788 <.LBB98_5+0x2bc>
    10e8:	00001537          	lui	a0,0x1
    10ec:	40a40533          	sub	a0,s0,a0
    10f0:	78053823          	sd	zero,1936(a0) # 1790 <.LBB98_5+0x2c4>
    10f4:	00001537          	lui	a0,0x1
    10f8:	40a40533          	sub	a0,s0,a0
    10fc:	78053c23          	sd	zero,1944(a0) # 1798 <.LBB98_5+0x2cc>
    1100:	00001537          	lui	a0,0x1
    1104:	40a40533          	sub	a0,s0,a0
    1108:	7a053023          	sd	zero,1952(a0) # 17a0 <.LBB98_5+0x2d4>
    110c:	00001537          	lui	a0,0x1
    1110:	40a40533          	sub	a0,s0,a0
    1114:	7a053423          	sd	zero,1960(a0) # 17a8 <.LBB98_5+0x2dc>
    1118:	00001537          	lui	a0,0x1
    111c:	40a40533          	sub	a0,s0,a0
    1120:	7a053823          	sd	zero,1968(a0) # 17b0 <.LBB98_5+0x2e4>
    1124:	00001537          	lui	a0,0x1
    1128:	40a40533          	sub	a0,s0,a0
    112c:	7a053c23          	sd	zero,1976(a0) # 17b8 <.LBB98_5+0x2ec>
    1130:	00001537          	lui	a0,0x1
    1134:	40a40533          	sub	a0,s0,a0
    1138:	7c053023          	sd	zero,1984(a0) # 17c0 <.LBB98_5+0x2f4>
    113c:	00001537          	lui	a0,0x1
    1140:	40a40533          	sub	a0,s0,a0
    1144:	7c053423          	sd	zero,1992(a0) # 17c8 <.LBB98_5+0x2fc>
    1148:	00001537          	lui	a0,0x1
    114c:	40a40533          	sub	a0,s0,a0
    1150:	7c053823          	sd	zero,2000(a0) # 17d0 <.LBB98_5+0x304>
    1154:	00001537          	lui	a0,0x1
    1158:	40a40533          	sub	a0,s0,a0
    115c:	7c053c23          	sd	zero,2008(a0) # 17d8 <.LBB98_5+0x30c>
    1160:	00001537          	lui	a0,0x1
    1164:	40a40533          	sub	a0,s0,a0
    1168:	7e053023          	sd	zero,2016(a0) # 17e0 <.LBB98_5+0x314>
    116c:	00001537          	lui	a0,0x1
    1170:	40a40533          	sub	a0,s0,a0
    1174:	7e053423          	sd	zero,2024(a0) # 17e8 <.LBB98_5+0x31c>
    1178:	00001537          	lui	a0,0x1
    117c:	40a40533          	sub	a0,s0,a0
    1180:	7e053823          	sd	zero,2032(a0) # 17f0 <.LBB98_5+0x324>
    1184:	00001537          	lui	a0,0x1
    1188:	40a40533          	sub	a0,s0,a0
    118c:	7e053c23          	sd	zero,2040(a0) # 17f8 <.LBB98_5+0x32c>
    1190:	80043023          	sd	zero,-2048(s0)
    1194:	80043423          	sd	zero,-2040(s0)
    1198:	80043823          	sd	zero,-2032(s0)
    119c:	80043c23          	sd	zero,-2024(s0)
    11a0:	82043023          	sd	zero,-2016(s0)
    11a4:	82043423          	sd	zero,-2008(s0)
    11a8:	82043823          	sd	zero,-2000(s0)
    11ac:	82043c23          	sd	zero,-1992(s0)
    11b0:	84043023          	sd	zero,-1984(s0)
    11b4:	84043423          	sd	zero,-1976(s0)
    11b8:	84043823          	sd	zero,-1968(s0)
    11bc:	84043c23          	sd	zero,-1960(s0)
    11c0:	86043023          	sd	zero,-1952(s0)
    11c4:	86043423          	sd	zero,-1944(s0)
    11c8:	86043823          	sd	zero,-1936(s0)
    11cc:	86043c23          	sd	zero,-1928(s0)
    11d0:	88043023          	sd	zero,-1920(s0)
    11d4:	88043423          	sd	zero,-1912(s0)
    11d8:	88043823          	sd	zero,-1904(s0)
    11dc:	88043c23          	sd	zero,-1896(s0)
    11e0:	8a043023          	sd	zero,-1888(s0)
    11e4:	8a043423          	sd	zero,-1880(s0)
    11e8:	8a043823          	sd	zero,-1872(s0)
    11ec:	8a043c23          	sd	zero,-1864(s0)
    11f0:	8c043023          	sd	zero,-1856(s0)
    11f4:	8c043423          	sd	zero,-1848(s0)
    11f8:	8c043823          	sd	zero,-1840(s0)
    11fc:	8c043c23          	sd	zero,-1832(s0)
    1200:	8e043023          	sd	zero,-1824(s0)
    1204:	8e043423          	sd	zero,-1816(s0)
    1208:	8e043823          	sd	zero,-1808(s0)
    120c:	8e043c23          	sd	zero,-1800(s0)
    1210:	90043023          	sd	zero,-1792(s0)
    1214:	90043423          	sd	zero,-1784(s0)
    1218:	90043823          	sd	zero,-1776(s0)
    121c:	90043c23          	sd	zero,-1768(s0)
    1220:	92043023          	sd	zero,-1760(s0)
    1224:	92043423          	sd	zero,-1752(s0)
    1228:	92043823          	sd	zero,-1744(s0)
    122c:	92043c23          	sd	zero,-1736(s0)
    1230:	94043023          	sd	zero,-1728(s0)
    1234:	94043423          	sd	zero,-1720(s0)
    1238:	94043823          	sd	zero,-1712(s0)
    123c:	94043c23          	sd	zero,-1704(s0)
    1240:	96043023          	sd	zero,-1696(s0)
    1244:	96043423          	sd	zero,-1688(s0)
    1248:	96043823          	sd	zero,-1680(s0)
    124c:	96043c23          	sd	zero,-1672(s0)
    1250:	98043023          	sd	zero,-1664(s0)
    1254:	98043423          	sd	zero,-1656(s0)
    1258:	98043823          	sd	zero,-1648(s0)
    125c:	98043c23          	sd	zero,-1640(s0)
    1260:	9a043023          	sd	zero,-1632(s0)
    1264:	9a043423          	sd	zero,-1624(s0)
    1268:	9a043823          	sd	zero,-1616(s0)
    126c:	9a043c23          	sd	zero,-1608(s0)
    1270:	9c043023          	sd	zero,-1600(s0)
    1274:	9c043423          	sd	zero,-1592(s0)
    1278:	9c043823          	sd	zero,-1584(s0)
    127c:	9c043c23          	sd	zero,-1576(s0)
    1280:	9e043023          	sd	zero,-1568(s0)
    1284:	9e043423          	sd	zero,-1560(s0)
    1288:	9e043823          	sd	zero,-1552(s0)
    128c:	9e043c23          	sd	zero,-1544(s0)
    1290:	a0043023          	sd	zero,-1536(s0)
    1294:	a0043423          	sd	zero,-1528(s0)
    1298:	a0043823          	sd	zero,-1520(s0)
    129c:	a0043c23          	sd	zero,-1512(s0)
    12a0:	a2043023          	sd	zero,-1504(s0)
    12a4:	a2043423          	sd	zero,-1496(s0)
    12a8:	a2043823          	sd	zero,-1488(s0)
    12ac:	a2043c23          	sd	zero,-1480(s0)
    12b0:	a4043023          	sd	zero,-1472(s0)
    12b4:	a4043423          	sd	zero,-1464(s0)
    12b8:	a4043823          	sd	zero,-1456(s0)
    12bc:	a4043c23          	sd	zero,-1448(s0)
    12c0:	a6043023          	sd	zero,-1440(s0)
    12c4:	a6043423          	sd	zero,-1432(s0)
    12c8:	a6043823          	sd	zero,-1424(s0)
    12cc:	a6043c23          	sd	zero,-1416(s0)
    12d0:	a8043023          	sd	zero,-1408(s0)
    12d4:	a8043423          	sd	zero,-1400(s0)
    12d8:	a8043823          	sd	zero,-1392(s0)
    12dc:	a8043c23          	sd	zero,-1384(s0)
    12e0:	aa043023          	sd	zero,-1376(s0)
    12e4:	aa043423          	sd	zero,-1368(s0)
    12e8:	aa043823          	sd	zero,-1360(s0)
    12ec:	aa043c23          	sd	zero,-1352(s0)
    12f0:	ac043023          	sd	zero,-1344(s0)
    12f4:	ac043423          	sd	zero,-1336(s0)
    12f8:	ac043823          	sd	zero,-1328(s0)
    12fc:	ac043c23          	sd	zero,-1320(s0)
    1300:	ae043023          	sd	zero,-1312(s0)
    1304:	ae043423          	sd	zero,-1304(s0)
    1308:	ae043823          	sd	zero,-1296(s0)
    130c:	ae043c23          	sd	zero,-1288(s0)
    1310:	b0043023          	sd	zero,-1280(s0)
    1314:	b0043423          	sd	zero,-1272(s0)
    1318:	b0043823          	sd	zero,-1264(s0)
    131c:	b0043c23          	sd	zero,-1256(s0)
    1320:	b2043023          	sd	zero,-1248(s0)
    1324:	b2043423          	sd	zero,-1240(s0)
    1328:	b2043823          	sd	zero,-1232(s0)
    132c:	b2043c23          	sd	zero,-1224(s0)
    1330:	b4043023          	sd	zero,-1216(s0)
    1334:	b4043423          	sd	zero,-1208(s0)
    1338:	b4043823          	sd	zero,-1200(s0)
    133c:	b4043c23          	sd	zero,-1192(s0)
    1340:	b6043023          	sd	zero,-1184(s0)
    1344:	b6043423          	sd	zero,-1176(s0)
    1348:	b6043823          	sd	zero,-1168(s0)
    134c:	b6043c23          	sd	zero,-1160(s0)
    1350:	b8043023          	sd	zero,-1152(s0)
    1354:	b8043423          	sd	zero,-1144(s0)
    1358:	b8043823          	sd	zero,-1136(s0)
    135c:	b8043c23          	sd	zero,-1128(s0)
    1360:	ba043023          	sd	zero,-1120(s0)
    1364:	ba043423          	sd	zero,-1112(s0)
    1368:	ba043823          	sd	zero,-1104(s0)
    136c:	ba043c23          	sd	zero,-1096(s0)
    1370:	bc043023          	sd	zero,-1088(s0)
    1374:	bc043423          	sd	zero,-1080(s0)
    1378:	bc043823          	sd	zero,-1072(s0)
    137c:	bc043c23          	sd	zero,-1064(s0)
    1380:	be043023          	sd	zero,-1056(s0)
    1384:	be043423          	sd	zero,-1048(s0)
    1388:	be043823          	sd	zero,-1040(s0)
    138c:	be043c23          	sd	zero,-1032(s0)
    1390:	c0043023          	sd	zero,-1024(s0)
    1394:	c0043423          	sd	zero,-1016(s0)
    1398:	c0043823          	sd	zero,-1008(s0)
    139c:	c0043c23          	sd	zero,-1000(s0)
    13a0:	c2043023          	sd	zero,-992(s0)
    13a4:	c2043423          	sd	zero,-984(s0)
    13a8:	c2043823          	sd	zero,-976(s0)
    13ac:	c2043c23          	sd	zero,-968(s0)
    13b0:	c4043023          	sd	zero,-960(s0)
    13b4:	c4043423          	sd	zero,-952(s0)
    13b8:	c4043823          	sd	zero,-944(s0)
    13bc:	c4043c23          	sd	zero,-936(s0)
    13c0:	c6043023          	sd	zero,-928(s0)
    13c4:	c6043423          	sd	zero,-920(s0)
    13c8:	c6043823          	sd	zero,-912(s0)
    13cc:	c6043c23          	sd	zero,-904(s0)
    13d0:	c8043023          	sd	zero,-896(s0)
    13d4:	c8043423          	sd	zero,-888(s0)
    13d8:	c8043823          	sd	zero,-880(s0)
    13dc:	c8043c23          	sd	zero,-872(s0)
    13e0:	ca043023          	sd	zero,-864(s0)
    13e4:	ca043423          	sd	zero,-856(s0)
    13e8:	ca043823          	sd	zero,-848(s0)
    13ec:	ca043c23          	sd	zero,-840(s0)
    13f0:	cc043023          	sd	zero,-832(s0)
    13f4:	cc043423          	sd	zero,-824(s0)
    13f8:	cc043823          	sd	zero,-816(s0)
    13fc:	cc043c23          	sd	zero,-808(s0)
    1400:	ce043023          	sd	zero,-800(s0)
    1404:	ce043423          	sd	zero,-792(s0)
    1408:	ce043823          	sd	zero,-784(s0)
    140c:	ce043c23          	sd	zero,-776(s0)
    1410:	d0043023          	sd	zero,-768(s0)
    1414:	d0043423          	sd	zero,-760(s0)
    1418:	d0043823          	sd	zero,-752(s0)
    141c:	d0043c23          	sd	zero,-744(s0)
    1420:	d2043023          	sd	zero,-736(s0)
    1424:	d2043423          	sd	zero,-728(s0)
    1428:	d2043823          	sd	zero,-720(s0)
    142c:	d2043c23          	sd	zero,-712(s0)
    1430:	d4043023          	sd	zero,-704(s0)
    1434:	d4043423          	sd	zero,-696(s0)
    1438:	d4043823          	sd	zero,-688(s0)
    143c:	d4043c23          	sd	zero,-680(s0)
    1440:	d6043023          	sd	zero,-672(s0)
    1444:	d6043423          	sd	zero,-664(s0)
    1448:	d6043823          	sd	zero,-656(s0)
    144c:	d6043c23          	sd	zero,-648(s0)
    1450:	d8043023          	sd	zero,-640(s0)
    1454:	d8043423          	sd	zero,-632(s0)
    1458:	d8043823          	sd	zero,-624(s0)
    145c:	d8043c23          	sd	zero,-616(s0)
    1460:	da043023          	sd	zero,-608(s0)
    1464:	da043423          	sd	zero,-600(s0)
    1468:	da043823          	sd	zero,-592(s0)
    146c:	da043c23          	sd	zero,-584(s0)
    1470:	dc043023          	sd	zero,-576(s0)
    1474:	00000093          	li	ra,0
    1478:	00000d13          	li	s10,0
    147c:	00000c93          	li	s9,0
    1480:	de043023          	sd	zero,-544(s0)
    1484:	00000a13          	li	s4,0
    1488:	00000993          	li	s3,0
    148c:	00000913          	li	s2,0
    1490:	00000493          	li	s1,0
    1494:	00000f93          	li	t6,0
    1498:	00000f13          	li	t5,0
    149c:	00000293          	li	t0,0
    14a0:	00000613          	li	a2,0
    14a4:	00000593          	li	a1,0
    14a8:	00000513          	li	a0,0
    14ac:	00000e13          	li	t3,0
    14b0:	00000393          	li	t2,0
    14b4:	00000313          	li	t1,0
    14b8:	00000893          	li	a7,0
    14bc:	00000813          	li	a6,0
    14c0:	00000793          	li	a5,0
    14c4:	00000713          	li	a4,0
    14c8:	00000693          	li	a3,0

00000000000014cc <.LBB98_5>:
    14cc:	f9543423          	sd	s5,-120(s0)
    14d0:	f7643c23          	sd	s6,-136(s0)
    14d4:	00001c37          	lui	s8,0x1
    14d8:	41840c33          	sub	s8,s0,s8
    14dc:	67dc3823          	sd	t4,1648(s8) # 1670 <.LBB98_5+0x1a4>
    14e0:	dc143423          	sd	ra,-568(s0)
    14e4:	dda43823          	sd	s10,-560(s0)
    14e8:	dd943c23          	sd	s9,-552(s0)
    14ec:	df443423          	sd	s4,-536(s0)
    14f0:	df343823          	sd	s3,-528(s0)
    14f4:	df243c23          	sd	s2,-520(s0)
    14f8:	e0943023          	sd	s1,-512(s0)
    14fc:	e1f43423          	sd	t6,-504(s0)
    1500:	e1e43823          	sd	t5,-496(s0)
    1504:	f0543c23          	sd	t0,-232(s0)
    1508:	f2c43023          	sd	a2,-224(s0)
    150c:	f2b43423          	sd	a1,-216(s0)
    1510:	f2a43823          	sd	a0,-208(s0)
    1514:	e1c43c23          	sd	t3,-488(s0)
    1518:	e2743023          	sd	t2,-480(s0)
    151c:	e2643423          	sd	t1,-472(s0)
    1520:	e3143823          	sd	a7,-464(s0)
    1524:	e3043c23          	sd	a6,-456(s0)
    1528:	e4f43023          	sd	a5,-448(s0)
    152c:	e4e43423          	sd	a4,-440(s0)
    1530:	e4d43823          	sd	a3,-432(s0)
    1534:	000b0503          	lb	a0,0(s6)
    1538:	002a8603          	lb	a2,2(s5)
    153c:	ecc43023          	sd	a2,-320(s0)
    1540:	001a8683          	lb	a3,1(s5)
    1544:	ead43c23          	sd	a3,-328(s0)
    1548:	000a8703          	lb	a4,0(s5)
    154c:	f2e43c23          	sd	a4,-200(s0)
    1550:	003a8783          	lb	a5,3(s5)
    1554:	f4f43023          	sd	a5,-192(s0)
    1558:	004a8803          	lb	a6,4(s5)
    155c:	f7043823          	sd	a6,-144(s0)
    1560:	005a8883          	lb	a7,5(s5)
    1564:	f5143c23          	sd	a7,-168(s0)
    1568:	006a8283          	lb	t0,6(s5)
    156c:	f4543823          	sd	t0,-176(s0)
    1570:	007a8303          	lb	t1,7(s5)
    1574:	008a8c03          	lb	s8,8(s5)
    1578:	eb843823          	sd	s8,-336(s0)
    157c:	009a8e83          	lb	t4,9(s5)
    1580:	00aa8d03          	lb	s10,10(s5)
    1584:	00ba8383          	lb	t2,11(s5)
    1588:	00ca8e03          	lb	t3,12(s5)
    158c:	f7c43423          	sd	t3,-152(s0)
    1590:	00da8f03          	lb	t5,13(s5)
    1594:	00ea8b03          	lb	s6,14(s5)
    1598:	00fa8f83          	lb	t6,15(s5)
    159c:	edf43423          	sd	t6,-312(s0)
    15a0:	010a8083          	lb	ra,16(s5)
    15a4:	011a8483          	lb	s1,17(s5)
    15a8:	012a8903          	lb	s2,18(s5)
    15ac:	ed243823          	sd	s2,-304(s0)
    15b0:	013a8583          	lb	a1,19(s5)
    15b4:	f0b43023          	sd	a1,-256(s0)
    15b8:	014a8a03          	lb	s4,20(s5)
    15bc:	ef443023          	sd	s4,-288(s0)
    15c0:	f8843583          	ld	a1,-120(s0)
    15c4:	01558983          	lb	s3,21(a1)
    15c8:	f1343823          	sd	s3,-240(s0)
    15cc:	f8843583          	ld	a1,-120(s0)
    15d0:	01658d83          	lb	s11,22(a1)
    15d4:	f8843583          	ld	a1,-120(s0)
    15d8:	01758a83          	lb	s5,23(a1)
    15dc:	eb543423          	sd	s5,-344(s0)
    15e0:	f8843583          	ld	a1,-120(s0)
    15e4:	01858c83          	lb	s9,24(a1)
    15e8:	f1943423          	sd	s9,-248(s0)
    15ec:	02c505b3          	mul	a1,a0,a2
    15f0:	00001637          	lui	a2,0x1
    15f4:	40c40633          	sub	a2,s0,a2
    15f8:	77863603          	ld	a2,1912(a2) # 1778 <.LBB98_5+0x2ac>
    15fc:	00c58633          	add	a2,a1,a2
    1600:	000015b7          	lui	a1,0x1
    1604:	40b405b3          	sub	a1,s0,a1
    1608:	76c5bc23          	sd	a2,1912(a1) # 1778 <.LBB98_5+0x2ac>
    160c:	02d505b3          	mul	a1,a0,a3
    1610:	00001637          	lui	a2,0x1
    1614:	40c40633          	sub	a2,s0,a2
    1618:	76863603          	ld	a2,1896(a2) # 1768 <.LBB98_5+0x29c>
    161c:	00c58633          	add	a2,a1,a2
    1620:	000015b7          	lui	a1,0x1
    1624:	40b405b3          	sub	a1,s0,a1
    1628:	76c5b423          	sd	a2,1896(a1) # 1768 <.LBB98_5+0x29c>
    162c:	02e505b3          	mul	a1,a0,a4
    1630:	00001637          	lui	a2,0x1
    1634:	40c40633          	sub	a2,s0,a2
    1638:	76063603          	ld	a2,1888(a2) # 1760 <.LBB98_5+0x294>
    163c:	00c58633          	add	a2,a1,a2
    1640:	000015b7          	lui	a1,0x1
    1644:	40b405b3          	sub	a1,s0,a1
    1648:	76c5b023          	sd	a2,1888(a1) # 1760 <.LBB98_5+0x294>
    164c:	02f505b3          	mul	a1,a0,a5
    1650:	01758bb3          	add	s7,a1,s7
    1654:	000015b7          	lui	a1,0x1
    1658:	40b405b3          	sub	a1,s0,a1
    165c:	6775bc23          	sd	s7,1656(a1) # 1678 <.LBB98_5+0x1ac>
    1660:	030505b3          	mul	a1,a0,a6
    1664:	00001637          	lui	a2,0x1
    1668:	40c40633          	sub	a2,s0,a2
    166c:	75863603          	ld	a2,1880(a2) # 1758 <.LBB98_5+0x28c>
    1670:	00c58633          	add	a2,a1,a2
    1674:	000015b7          	lui	a1,0x1
    1678:	40b405b3          	sub	a1,s0,a1
    167c:	74c5bc23          	sd	a2,1880(a1) # 1758 <.LBB98_5+0x28c>
    1680:	031505b3          	mul	a1,a0,a7
    1684:	00001637          	lui	a2,0x1
    1688:	40c40633          	sub	a2,s0,a2
    168c:	75063603          	ld	a2,1872(a2) # 1750 <.LBB98_5+0x284>
    1690:	00c58633          	add	a2,a1,a2
    1694:	000015b7          	lui	a1,0x1
    1698:	40b405b3          	sub	a1,s0,a1
    169c:	74c5b823          	sd	a2,1872(a1) # 1750 <.LBB98_5+0x284>
    16a0:	025505b3          	mul	a1,a0,t0
    16a4:	00001637          	lui	a2,0x1
    16a8:	40c40633          	sub	a2,s0,a2
    16ac:	74863603          	ld	a2,1864(a2) # 1748 <.LBB98_5+0x27c>
    16b0:	00c58633          	add	a2,a1,a2
    16b4:	000015b7          	lui	a1,0x1
    16b8:	40b405b3          	sub	a1,s0,a1
    16bc:	74c5b423          	sd	a2,1864(a1) # 1748 <.LBB98_5+0x27c>
    16c0:	026505b3          	mul	a1,a0,t1
    16c4:	00030293          	mv	t0,t1
    16c8:	00001637          	lui	a2,0x1
    16cc:	40c40633          	sub	a2,s0,a2
    16d0:	74063603          	ld	a2,1856(a2) # 1740 <.LBB98_5+0x274>
    16d4:	00c58633          	add	a2,a1,a2
    16d8:	000015b7          	lui	a1,0x1
    16dc:	40b405b3          	sub	a1,s0,a1
    16e0:	74c5b023          	sd	a2,1856(a1) # 1740 <.LBB98_5+0x274>
    16e4:	038505b3          	mul	a1,a0,s8
    16e8:	00001637          	lui	a2,0x1
    16ec:	40c40633          	sub	a2,s0,a2
    16f0:	73863603          	ld	a2,1848(a2) # 1738 <.LBB98_5+0x26c>
    16f4:	00c58633          	add	a2,a1,a2
    16f8:	000015b7          	lui	a1,0x1
    16fc:	40b405b3          	sub	a1,s0,a1
    1700:	72c5bc23          	sd	a2,1848(a1) # 1738 <.LBB98_5+0x26c>
    1704:	03d505b3          	mul	a1,a0,t4
    1708:	00001637          	lui	a2,0x1
    170c:	40c40633          	sub	a2,s0,a2
    1710:	73063603          	ld	a2,1840(a2) # 1730 <.LBB98_5+0x264>
    1714:	00c58633          	add	a2,a1,a2
    1718:	000015b7          	lui	a1,0x1
    171c:	40b405b3          	sub	a1,s0,a1
    1720:	72c5b823          	sd	a2,1840(a1) # 1730 <.LBB98_5+0x264>
    1724:	000d0793          	mv	a5,s10
    1728:	e9a43c23          	sd	s10,-360(s0)
    172c:	03a505b3          	mul	a1,a0,s10
    1730:	00001637          	lui	a2,0x1
    1734:	40c40633          	sub	a2,s0,a2
    1738:	72863603          	ld	a2,1832(a2) # 1728 <.LBB98_5+0x25c>
    173c:	00c58633          	add	a2,a1,a2
    1740:	000015b7          	lui	a1,0x1
    1744:	40b405b3          	sub	a1,s0,a1
    1748:	72c5b423          	sd	a2,1832(a1) # 1728 <.LBB98_5+0x25c>
    174c:	027505b3          	mul	a1,a0,t2
    1750:	00001637          	lui	a2,0x1
    1754:	40c40633          	sub	a2,s0,a2
    1758:	72063603          	ld	a2,1824(a2) # 1720 <.LBB98_5+0x254>
    175c:	00c58633          	add	a2,a1,a2
    1760:	000015b7          	lui	a1,0x1
    1764:	40b405b3          	sub	a1,s0,a1
    1768:	72c5b023          	sd	a2,1824(a1) # 1720 <.LBB98_5+0x254>
    176c:	03c505b3          	mul	a1,a0,t3
    1770:	00001637          	lui	a2,0x1
    1774:	40c40633          	sub	a2,s0,a2
    1778:	71863603          	ld	a2,1816(a2) # 1718 <.LBB98_5+0x24c>
    177c:	00c58633          	add	a2,a1,a2
    1780:	000015b7          	lui	a1,0x1
    1784:	40b405b3          	sub	a1,s0,a1
    1788:	70c5bc23          	sd	a2,1816(a1) # 1718 <.LBB98_5+0x24c>
    178c:	03e505b3          	mul	a1,a0,t5
    1790:	000f0d13          	mv	s10,t5
    1794:	ebe43023          	sd	t5,-352(s0)
    1798:	00001637          	lui	a2,0x1
    179c:	40c40633          	sub	a2,s0,a2
    17a0:	71063603          	ld	a2,1808(a2) # 1710 <.LBB98_5+0x244>
    17a4:	00c58633          	add	a2,a1,a2
    17a8:	000015b7          	lui	a1,0x1
    17ac:	40b405b3          	sub	a1,s0,a1
    17b0:	70c5b823          	sd	a2,1808(a1) # 1710 <.LBB98_5+0x244>
    17b4:	036505b3          	mul	a1,a0,s6
    17b8:	000b0313          	mv	t1,s6
    17bc:	e7643023          	sd	s6,-416(s0)
    17c0:	00001637          	lui	a2,0x1
    17c4:	40c40633          	sub	a2,s0,a2
    17c8:	70863603          	ld	a2,1800(a2) # 1708 <.LBB98_5+0x23c>
    17cc:	00c58633          	add	a2,a1,a2
    17d0:	000015b7          	lui	a1,0x1
    17d4:	40b405b3          	sub	a1,s0,a1
    17d8:	70c5b423          	sd	a2,1800(a1) # 1708 <.LBB98_5+0x23c>
    17dc:	03f505b3          	mul	a1,a0,t6
    17e0:	00001637          	lui	a2,0x1
    17e4:	40c40633          	sub	a2,s0,a2
    17e8:	70063603          	ld	a2,1792(a2) # 1700 <.LBB98_5+0x234>
    17ec:	00c58633          	add	a2,a1,a2
    17f0:	000015b7          	lui	a1,0x1
    17f4:	40b405b3          	sub	a1,s0,a1
    17f8:	70c5b023          	sd	a2,1792(a1) # 1700 <.LBB98_5+0x234>
    17fc:	00008713          	mv	a4,ra
    1800:	ee143c23          	sd	ra,-264(s0)
    1804:	021505b3          	mul	a1,a0,ra
    1808:	00001637          	lui	a2,0x1
    180c:	40c40633          	sub	a2,s0,a2
    1810:	6f863603          	ld	a2,1784(a2) # 16f8 <.LBB98_5+0x22c>
    1814:	00c58633          	add	a2,a1,a2
    1818:	000015b7          	lui	a1,0x1
    181c:	40b405b3          	sub	a1,s0,a1
    1820:	6ec5bc23          	sd	a2,1784(a1) # 16f8 <.LBB98_5+0x22c>
    1824:	ee943823          	sd	s1,-272(s0)
    1828:	029505b3          	mul	a1,a0,s1
    182c:	00001637          	lui	a2,0x1
    1830:	40c40633          	sub	a2,s0,a2
    1834:	6f063603          	ld	a2,1776(a2) # 16f0 <.LBB98_5+0x224>
    1838:	00c58633          	add	a2,a1,a2
    183c:	000015b7          	lui	a1,0x1
    1840:	40b405b3          	sub	a1,s0,a1
    1844:	6ec5b823          	sd	a2,1776(a1) # 16f0 <.LBB98_5+0x224>
    1848:	032505b3          	mul	a1,a0,s2
    184c:	00001637          	lui	a2,0x1
    1850:	40c40633          	sub	a2,s0,a2
    1854:	6e863603          	ld	a2,1768(a2) # 16e8 <.LBB98_5+0x21c>
    1858:	00c58633          	add	a2,a1,a2
    185c:	000015b7          	lui	a1,0x1
    1860:	40b405b3          	sub	a1,s0,a1
    1864:	6ec5b423          	sd	a2,1768(a1) # 16e8 <.LBB98_5+0x21c>
    1868:	f0043683          	ld	a3,-256(s0)
    186c:	02d505b3          	mul	a1,a0,a3
    1870:	00001637          	lui	a2,0x1
    1874:	40c40633          	sub	a2,s0,a2
    1878:	6e063603          	ld	a2,1760(a2) # 16e0 <.LBB98_5+0x214>
    187c:	00c58633          	add	a2,a1,a2
    1880:	000015b7          	lui	a1,0x1
    1884:	40b405b3          	sub	a1,s0,a1
    1888:	6ec5b023          	sd	a2,1760(a1) # 16e0 <.LBB98_5+0x214>
    188c:	034505b3          	mul	a1,a0,s4
    1890:	00001637          	lui	a2,0x1
    1894:	40c40633          	sub	a2,s0,a2
    1898:	6d863603          	ld	a2,1752(a2) # 16d8 <.LBB98_5+0x20c>
    189c:	00c58633          	add	a2,a1,a2
    18a0:	000015b7          	lui	a1,0x1
    18a4:	40b405b3          	sub	a1,s0,a1
    18a8:	6cc5bc23          	sd	a2,1752(a1) # 16d8 <.LBB98_5+0x20c>
    18ac:	033505b3          	mul	a1,a0,s3
    18b0:	00001637          	lui	a2,0x1
    18b4:	40c40633          	sub	a2,s0,a2
    18b8:	6d063603          	ld	a2,1744(a2) # 16d0 <.LBB98_5+0x204>
    18bc:	00c58633          	add	a2,a1,a2
    18c0:	000015b7          	lui	a1,0x1
    18c4:	40b405b3          	sub	a1,s0,a1
    18c8:	6cc5b823          	sd	a2,1744(a1) # 16d0 <.LBB98_5+0x204>
    18cc:	03b505b3          	mul	a1,a0,s11
    18d0:	efb43423          	sd	s11,-280(s0)
    18d4:	00001637          	lui	a2,0x1
    18d8:	40c40633          	sub	a2,s0,a2
    18dc:	6c063603          	ld	a2,1728(a2) # 16c0 <.LBB98_5+0x1f4>
    18e0:	00c58633          	add	a2,a1,a2
    18e4:	000015b7          	lui	a1,0x1
    18e8:	40b405b3          	sub	a1,s0,a1
    18ec:	6cc5b023          	sd	a2,1728(a1) # 16c0 <.LBB98_5+0x1f4>
    18f0:	035505b3          	mul	a1,a0,s5
    18f4:	00001637          	lui	a2,0x1
    18f8:	40c40633          	sub	a2,s0,a2
    18fc:	6c863603          	ld	a2,1736(a2) # 16c8 <.LBB98_5+0x1fc>
    1900:	00c58633          	add	a2,a1,a2
    1904:	000015b7          	lui	a1,0x1
    1908:	40b405b3          	sub	a1,s0,a1
    190c:	6cc5b423          	sd	a2,1736(a1) # 16c8 <.LBB98_5+0x1fc>
    1910:	f8843583          	ld	a1,-120(s0)
    1914:	01958803          	lb	a6,25(a1)
    1918:	039505b3          	mul	a1,a0,s9
    191c:	00001637          	lui	a2,0x1
    1920:	40c40633          	sub	a2,s0,a2
    1924:	69063603          	ld	a2,1680(a2) # 1690 <.LBB98_5+0x1c4>
    1928:	00c58633          	add	a2,a1,a2
    192c:	000015b7          	lui	a1,0x1
    1930:	40b405b3          	sub	a1,s0,a1
    1934:	68c5b823          	sd	a2,1680(a1) # 1690 <.LBB98_5+0x1c4>
    1938:	f8843583          	ld	a1,-120(s0)
    193c:	01a58b83          	lb	s7,26(a1)
    1940:	030505b3          	mul	a1,a0,a6
    1944:	00080c93          	mv	s9,a6
    1948:	00001637          	lui	a2,0x1
    194c:	40c40633          	sub	a2,s0,a2
    1950:	68863603          	ld	a2,1672(a2) # 1688 <.LBB98_5+0x1bc>
    1954:	00c58633          	add	a2,a1,a2
    1958:	000015b7          	lui	a1,0x1
    195c:	40b405b3          	sub	a1,s0,a1
    1960:	68c5b423          	sd	a2,1672(a1) # 1688 <.LBB98_5+0x1bc>
    1964:	f8843583          	ld	a1,-120(s0)
    1968:	01b58a03          	lb	s4,27(a1)
    196c:	037505b3          	mul	a1,a0,s7
    1970:	00001637          	lui	a2,0x1
    1974:	40c40633          	sub	a2,s0,a2
    1978:	6b863603          	ld	a2,1720(a2) # 16b8 <.LBB98_5+0x1ec>
    197c:	00c58633          	add	a2,a1,a2
    1980:	000015b7          	lui	a1,0x1
    1984:	40b405b3          	sub	a1,s0,a1
    1988:	6ac5bc23          	sd	a2,1720(a1) # 16b8 <.LBB98_5+0x1ec>
    198c:	f8843583          	ld	a1,-120(s0)
    1990:	01c58883          	lb	a7,28(a1)
    1994:	f7143023          	sd	a7,-160(s0)
    1998:	034505b3          	mul	a1,a0,s4
    199c:	ed443c23          	sd	s4,-296(s0)
    19a0:	00001637          	lui	a2,0x1
    19a4:	40c40633          	sub	a2,s0,a2
    19a8:	6b063603          	ld	a2,1712(a2) # 16b0 <.LBB98_5+0x1e4>
    19ac:	00c58633          	add	a2,a1,a2
    19b0:	000015b7          	lui	a1,0x1
    19b4:	40b405b3          	sub	a1,s0,a1
    19b8:	6ac5b823          	sd	a2,1712(a1) # 16b0 <.LBB98_5+0x1e4>
    19bc:	f8843583          	ld	a1,-120(s0)
    19c0:	01d58803          	lb	a6,29(a1)
    19c4:	f5043423          	sd	a6,-184(s0)
    19c8:	031505b3          	mul	a1,a0,a7
    19cc:	00001637          	lui	a2,0x1
    19d0:	40c40633          	sub	a2,s0,a2
    19d4:	6a863603          	ld	a2,1704(a2) # 16a8 <.LBB98_5+0x1dc>
    19d8:	00c58633          	add	a2,a1,a2
    19dc:	000015b7          	lui	a1,0x1
    19e0:	40b405b3          	sub	a1,s0,a1
    19e4:	6ac5b423          	sd	a2,1704(a1) # 16a8 <.LBB98_5+0x1dc>
    19e8:	f8843583          	ld	a1,-120(s0)
    19ec:	01e58883          	lb	a7,30(a1)
    19f0:	030505b3          	mul	a1,a0,a6
    19f4:	00001637          	lui	a2,0x1
    19f8:	40c40633          	sub	a2,s0,a2
    19fc:	6a063603          	ld	a2,1696(a2) # 16a0 <.LBB98_5+0x1d4>
    1a00:	00c58633          	add	a2,a1,a2
    1a04:	000015b7          	lui	a1,0x1
    1a08:	40b405b3          	sub	a1,s0,a1
    1a0c:	6ac5b023          	sd	a2,1696(a1) # 16a0 <.LBB98_5+0x1d4>
    1a10:	f8843583          	ld	a1,-120(s0)
    1a14:	01f58b03          	lb	s6,31(a1)
    1a18:	f7843583          	ld	a1,-136(s0)
    1a1c:	3c058583          	lb	a1,960(a1)
    1a20:	03150c33          	mul	s8,a0,a7
    1a24:	00088f93          	mv	t6,a7
    1a28:	e7143c23          	sd	a7,-392(s0)
    1a2c:	00001637          	lui	a2,0x1
    1a30:	40c40633          	sub	a2,s0,a2
    1a34:	68063603          	ld	a2,1664(a2) # 1680 <.LBB98_5+0x1b4>
    1a38:	00cc0633          	add	a2,s8,a2
    1a3c:	00001837          	lui	a6,0x1
    1a40:	41040833          	sub	a6,s0,a6
    1a44:	68c83023          	sd	a2,1664(a6) # 1680 <.LBB98_5+0x1b4>
    1a48:	03650533          	mul	a0,a0,s6
    1a4c:	00001637          	lui	a2,0x1
    1a50:	40c40633          	sub	a2,s0,a2
    1a54:	69863603          	ld	a2,1688(a2) # 1698 <.LBB98_5+0x1cc>
    1a58:	00c50633          	add	a2,a0,a2
    1a5c:	00001537          	lui	a0,0x1
    1a60:	40a40533          	sub	a0,s0,a0
    1a64:	68c53c23          	sd	a2,1688(a0) # 1698 <.LBB98_5+0x1cc>
    1a68:	f3843883          	ld	a7,-200(s0)
    1a6c:	03158533          	mul	a0,a1,a7
    1a70:	00001637          	lui	a2,0x1
    1a74:	40c40633          	sub	a2,s0,a2
    1a78:	77063603          	ld	a2,1904(a2) # 1770 <.LBB98_5+0x2a4>
    1a7c:	00c50633          	add	a2,a0,a2
    1a80:	00001537          	lui	a0,0x1
    1a84:	40a40533          	sub	a0,s0,a0
    1a88:	76c53823          	sd	a2,1904(a0) # 1770 <.LBB98_5+0x2a4>
    1a8c:	eb843983          	ld	s3,-328(s0)
    1a90:	03358533          	mul	a0,a1,s3
    1a94:	00001637          	lui	a2,0x1
    1a98:	40c40633          	sub	a2,s0,a2
    1a9c:	78063603          	ld	a2,1920(a2) # 1780 <.LBB98_5+0x2b4>
    1aa0:	00c50633          	add	a2,a0,a2
    1aa4:	00001537          	lui	a0,0x1
    1aa8:	40a40533          	sub	a0,s0,a0
    1aac:	78c53023          	sd	a2,1920(a0) # 1780 <.LBB98_5+0x2b4>
    1ab0:	ec043e03          	ld	t3,-320(s0)
    1ab4:	03c58533          	mul	a0,a1,t3
    1ab8:	00001637          	lui	a2,0x1
    1abc:	40c40633          	sub	a2,s0,a2
    1ac0:	78863603          	ld	a2,1928(a2) # 1788 <.LBB98_5+0x2bc>
    1ac4:	00c50633          	add	a2,a0,a2
    1ac8:	00001537          	lui	a0,0x1
    1acc:	40a40533          	sub	a0,s0,a0
    1ad0:	78c53423          	sd	a2,1928(a0) # 1788 <.LBB98_5+0x2bc>
    1ad4:	f4043f03          	ld	t5,-192(s0)
    1ad8:	03e58533          	mul	a0,a1,t5
    1adc:	00001637          	lui	a2,0x1
    1ae0:	40c40633          	sub	a2,s0,a2
    1ae4:	79063603          	ld	a2,1936(a2) # 1790 <.LBB98_5+0x2c4>
    1ae8:	00c50633          	add	a2,a0,a2
    1aec:	00001537          	lui	a0,0x1
    1af0:	40a40533          	sub	a0,s0,a0
    1af4:	78c53823          	sd	a2,1936(a0) # 1790 <.LBB98_5+0x2c4>
    1af8:	f7043a83          	ld	s5,-144(s0)
    1afc:	03558533          	mul	a0,a1,s5
    1b00:	00001637          	lui	a2,0x1
    1b04:	40c40633          	sub	a2,s0,a2
    1b08:	79863603          	ld	a2,1944(a2) # 1798 <.LBB98_5+0x2cc>
    1b0c:	00c50633          	add	a2,a0,a2
    1b10:	00001537          	lui	a0,0x1
    1b14:	40a40533          	sub	a0,s0,a0
    1b18:	78c53c23          	sd	a2,1944(a0) # 1798 <.LBB98_5+0x2cc>
    1b1c:	f5843803          	ld	a6,-168(s0)
    1b20:	03058533          	mul	a0,a1,a6
    1b24:	00001637          	lui	a2,0x1
    1b28:	40c40633          	sub	a2,s0,a2
    1b2c:	7a063603          	ld	a2,1952(a2) # 17a0 <.LBB98_5+0x2d4>
    1b30:	00c50633          	add	a2,a0,a2
    1b34:	00001537          	lui	a0,0x1
    1b38:	40a40533          	sub	a0,s0,a0
    1b3c:	7ac53023          	sd	a2,1952(a0) # 17a0 <.LBB98_5+0x2d4>
    1b40:	f5043083          	ld	ra,-176(s0)
    1b44:	02158533          	mul	a0,a1,ra
    1b48:	00001637          	lui	a2,0x1
    1b4c:	40c40633          	sub	a2,s0,a2
    1b50:	7a863603          	ld	a2,1960(a2) # 17a8 <.LBB98_5+0x2dc>
    1b54:	00c50633          	add	a2,a0,a2
    1b58:	00001537          	lui	a0,0x1
    1b5c:	40a40533          	sub	a0,s0,a0
    1b60:	7ac53423          	sd	a2,1960(a0) # 17a8 <.LBB98_5+0x2dc>
    1b64:	00028913          	mv	s2,t0
    1b68:	e6543823          	sd	t0,-400(s0)
    1b6c:	02558533          	mul	a0,a1,t0
    1b70:	00001637          	lui	a2,0x1
    1b74:	40c40633          	sub	a2,s0,a2
    1b78:	7b063603          	ld	a2,1968(a2) # 17b0 <.LBB98_5+0x2e4>
    1b7c:	00c50633          	add	a2,a0,a2
    1b80:	00001537          	lui	a0,0x1
    1b84:	40a40533          	sub	a0,s0,a0
    1b88:	7ac53823          	sd	a2,1968(a0) # 17b0 <.LBB98_5+0x2e4>
    1b8c:	eb043283          	ld	t0,-336(s0)
    1b90:	02558533          	mul	a0,a1,t0
    1b94:	00001637          	lui	a2,0x1
    1b98:	40c40633          	sub	a2,s0,a2
    1b9c:	7b863603          	ld	a2,1976(a2) # 17b8 <.LBB98_5+0x2ec>
    1ba0:	00c50633          	add	a2,a0,a2
    1ba4:	00001537          	lui	a0,0x1
    1ba8:	40a40533          	sub	a0,s0,a0
    1bac:	7ac53c23          	sd	a2,1976(a0) # 17b8 <.LBB98_5+0x2ec>
    1bb0:	03d58533          	mul	a0,a1,t4
    1bb4:	00001637          	lui	a2,0x1
    1bb8:	40c40633          	sub	a2,s0,a2
    1bbc:	7c063603          	ld	a2,1984(a2) # 17c0 <.LBB98_5+0x2f4>
    1bc0:	00c50633          	add	a2,a0,a2
    1bc4:	00001537          	lui	a0,0x1
    1bc8:	40a40533          	sub	a0,s0,a0
    1bcc:	7cc53023          	sd	a2,1984(a0) # 17c0 <.LBB98_5+0x2f4>
    1bd0:	02f58533          	mul	a0,a1,a5
    1bd4:	00001637          	lui	a2,0x1
    1bd8:	40c40633          	sub	a2,s0,a2
    1bdc:	7c863603          	ld	a2,1992(a2) # 17c8 <.LBB98_5+0x2fc>
    1be0:	00c50633          	add	a2,a0,a2
    1be4:	00001537          	lui	a0,0x1
    1be8:	40a40533          	sub	a0,s0,a0
    1bec:	7cc53423          	sd	a2,1992(a0) # 17c8 <.LBB98_5+0x2fc>
    1bf0:	02758533          	mul	a0,a1,t2
    1bf4:	00001637          	lui	a2,0x1
    1bf8:	40c40633          	sub	a2,s0,a2
    1bfc:	7d063603          	ld	a2,2000(a2) # 17d0 <.LBB98_5+0x304>
    1c00:	00c50633          	add	a2,a0,a2
    1c04:	00001537          	lui	a0,0x1
    1c08:	40a40533          	sub	a0,s0,a0
    1c0c:	7cc53823          	sd	a2,2000(a0) # 17d0 <.LBB98_5+0x304>
    1c10:	f6843503          	ld	a0,-152(s0)
    1c14:	02a58533          	mul	a0,a1,a0
    1c18:	00001637          	lui	a2,0x1
    1c1c:	40c40633          	sub	a2,s0,a2
    1c20:	7d863603          	ld	a2,2008(a2) # 17d8 <.LBB98_5+0x30c>
    1c24:	00c50633          	add	a2,a0,a2
    1c28:	00001537          	lui	a0,0x1
    1c2c:	40a40533          	sub	a0,s0,a0
    1c30:	7cc53c23          	sd	a2,2008(a0) # 17d8 <.LBB98_5+0x30c>
    1c34:	03a58533          	mul	a0,a1,s10
    1c38:	00001637          	lui	a2,0x1
    1c3c:	40c40633          	sub	a2,s0,a2
    1c40:	7e063603          	ld	a2,2016(a2) # 17e0 <.LBB98_5+0x314>
    1c44:	00c50633          	add	a2,a0,a2
    1c48:	00001537          	lui	a0,0x1
    1c4c:	40a40533          	sub	a0,s0,a0
    1c50:	7ec53023          	sd	a2,2016(a0) # 17e0 <.LBB98_5+0x314>
    1c54:	02658533          	mul	a0,a1,t1
    1c58:	00001637          	lui	a2,0x1
    1c5c:	40c40633          	sub	a2,s0,a2
    1c60:	7e863603          	ld	a2,2024(a2) # 17e8 <.LBB98_5+0x31c>
    1c64:	00c50633          	add	a2,a0,a2
    1c68:	00001537          	lui	a0,0x1
    1c6c:	40a40533          	sub	a0,s0,a0
    1c70:	7ec53423          	sd	a2,2024(a0) # 17e8 <.LBB98_5+0x31c>
    1c74:	ec843783          	ld	a5,-312(s0)
    1c78:	02f58533          	mul	a0,a1,a5
    1c7c:	00001637          	lui	a2,0x1
    1c80:	40c40633          	sub	a2,s0,a2
    1c84:	7f063603          	ld	a2,2032(a2) # 17f0 <.LBB98_5+0x324>
    1c88:	00c50633          	add	a2,a0,a2
    1c8c:	00001537          	lui	a0,0x1
    1c90:	40a40533          	sub	a0,s0,a0
    1c94:	7ec53823          	sd	a2,2032(a0) # 17f0 <.LBB98_5+0x324>
    1c98:	02e58533          	mul	a0,a1,a4
    1c9c:	00001637          	lui	a2,0x1
    1ca0:	40c40633          	sub	a2,s0,a2
    1ca4:	7f863603          	ld	a2,2040(a2) # 17f8 <.LBB98_5+0x32c>
    1ca8:	00c50633          	add	a2,a0,a2
    1cac:	00001537          	lui	a0,0x1
    1cb0:	40a40533          	sub	a0,s0,a0
    1cb4:	7ec53c23          	sd	a2,2040(a0) # 17f8 <.LBB98_5+0x32c>
    1cb8:	02958533          	mul	a0,a1,s1
    1cbc:	80043603          	ld	a2,-2048(s0)
    1cc0:	00c50633          	add	a2,a0,a2
    1cc4:	80c43023          	sd	a2,-2048(s0)
    1cc8:	ed043303          	ld	t1,-304(s0)
    1ccc:	02658533          	mul	a0,a1,t1
    1cd0:	80843603          	ld	a2,-2040(s0)
    1cd4:	00c50633          	add	a2,a0,a2
    1cd8:	80c43423          	sd	a2,-2040(s0)
    1cdc:	02d58533          	mul	a0,a1,a3
    1ce0:	81043603          	ld	a2,-2032(s0)
    1ce4:	00c50633          	add	a2,a0,a2
    1ce8:	80c43823          	sd	a2,-2032(s0)
    1cec:	ee043d03          	ld	s10,-288(s0)
    1cf0:	03a58533          	mul	a0,a1,s10
    1cf4:	81843603          	ld	a2,-2024(s0)
    1cf8:	00c50633          	add	a2,a0,a2
    1cfc:	80c43c23          	sd	a2,-2024(s0)
    1d00:	f1043503          	ld	a0,-240(s0)
    1d04:	02a58533          	mul	a0,a1,a0
    1d08:	82043603          	ld	a2,-2016(s0)
    1d0c:	00c50633          	add	a2,a0,a2
    1d10:	82c43023          	sd	a2,-2016(s0)
    1d14:	03b58533          	mul	a0,a1,s11
    1d18:	82843603          	ld	a2,-2008(s0)
    1d1c:	00c50633          	add	a2,a0,a2
    1d20:	82c43423          	sd	a2,-2008(s0)
    1d24:	ea843703          	ld	a4,-344(s0)
    1d28:	02e58533          	mul	a0,a1,a4
    1d2c:	83043603          	ld	a2,-2000(s0)
    1d30:	00c50633          	add	a2,a0,a2
    1d34:	82c43823          	sd	a2,-2000(s0)
    1d38:	f0843503          	ld	a0,-248(s0)
    1d3c:	02a58533          	mul	a0,a1,a0
    1d40:	83843603          	ld	a2,-1992(s0)
    1d44:	00c50633          	add	a2,a0,a2
    1d48:	82c43c23          	sd	a2,-1992(s0)
    1d4c:	03958533          	mul	a0,a1,s9
    1d50:	e9943423          	sd	s9,-376(s0)
    1d54:	84043603          	ld	a2,-1984(s0)
    1d58:	00c50633          	add	a2,a0,a2
    1d5c:	84c43023          	sd	a2,-1984(s0)
    1d60:	03758533          	mul	a0,a1,s7
    1d64:	e9743823          	sd	s7,-368(s0)
    1d68:	84843603          	ld	a2,-1976(s0)
    1d6c:	00c50633          	add	a2,a0,a2
    1d70:	84c43423          	sd	a2,-1976(s0)
    1d74:	03458533          	mul	a0,a1,s4
    1d78:	85043603          	ld	a2,-1968(s0)
    1d7c:	00c50633          	add	a2,a0,a2
    1d80:	84c43823          	sd	a2,-1968(s0)
    1d84:	f6043503          	ld	a0,-160(s0)
    1d88:	02a58533          	mul	a0,a1,a0
    1d8c:	85843603          	ld	a2,-1960(s0)
    1d90:	00c50633          	add	a2,a0,a2
    1d94:	84c43c23          	sd	a2,-1960(s0)
    1d98:	f4843d83          	ld	s11,-184(s0)
    1d9c:	03b58533          	mul	a0,a1,s11
    1da0:	86043603          	ld	a2,-1952(s0)
    1da4:	00c50633          	add	a2,a0,a2
    1da8:	86c43023          	sd	a2,-1952(s0)
    1dac:	f7843503          	ld	a0,-136(s0)
    1db0:	78050503          	lb	a0,1920(a0)
    1db4:	03f58c33          	mul	s8,a1,t6
    1db8:	86843603          	ld	a2,-1944(s0)
    1dbc:	00cc0633          	add	a2,s8,a2
    1dc0:	86c43423          	sd	a2,-1944(s0)
    1dc4:	036585b3          	mul	a1,a1,s6
    1dc8:	87043603          	ld	a2,-1936(s0)
    1dcc:	00c58633          	add	a2,a1,a2
    1dd0:	86c43823          	sd	a2,-1936(s0)
    1dd4:	031505b3          	mul	a1,a0,a7
    1dd8:	87843603          	ld	a2,-1928(s0)
    1ddc:	00c58633          	add	a2,a1,a2
    1de0:	86c43c23          	sd	a2,-1928(s0)
    1de4:	033505b3          	mul	a1,a0,s3
    1de8:	88043603          	ld	a2,-1920(s0)
    1dec:	00c58633          	add	a2,a1,a2
    1df0:	88c43023          	sd	a2,-1920(s0)
    1df4:	03c505b3          	mul	a1,a0,t3
    1df8:	88843603          	ld	a2,-1912(s0)
    1dfc:	00c58633          	add	a2,a1,a2
    1e00:	88c43423          	sd	a2,-1912(s0)
    1e04:	03e505b3          	mul	a1,a0,t5
    1e08:	89043603          	ld	a2,-1904(s0)
    1e0c:	00c58633          	add	a2,a1,a2
    1e10:	88c43823          	sd	a2,-1904(s0)
    1e14:	035505b3          	mul	a1,a0,s5
    1e18:	89843603          	ld	a2,-1896(s0)
    1e1c:	00c58633          	add	a2,a1,a2
    1e20:	88c43c23          	sd	a2,-1896(s0)
    1e24:	00080a93          	mv	s5,a6
    1e28:	030505b3          	mul	a1,a0,a6
    1e2c:	8a043603          	ld	a2,-1888(s0)
    1e30:	00c58633          	add	a2,a1,a2
    1e34:	8ac43023          	sd	a2,-1888(s0)
    1e38:	021505b3          	mul	a1,a0,ra
    1e3c:	8a843603          	ld	a2,-1880(s0)
    1e40:	00c58633          	add	a2,a1,a2
    1e44:	8ac43423          	sd	a2,-1880(s0)
    1e48:	032505b3          	mul	a1,a0,s2
    1e4c:	8b043603          	ld	a2,-1872(s0)
    1e50:	00c58633          	add	a2,a1,a2
    1e54:	8ac43823          	sd	a2,-1872(s0)
    1e58:	025505b3          	mul	a1,a0,t0
    1e5c:	00028f93          	mv	t6,t0
    1e60:	8b843603          	ld	a2,-1864(s0)
    1e64:	00c58633          	add	a2,a1,a2
    1e68:	8ac43c23          	sd	a2,-1864(s0)
    1e6c:	03d505b3          	mul	a1,a0,t4
    1e70:	000e8893          	mv	a7,t4
    1e74:	e9d43023          	sd	t4,-384(s0)
    1e78:	8c043603          	ld	a2,-1856(s0)
    1e7c:	00c58633          	add	a2,a1,a2
    1e80:	8cc43023          	sd	a2,-1856(s0)
    1e84:	e9843803          	ld	a6,-360(s0)
    1e88:	030505b3          	mul	a1,a0,a6
    1e8c:	8c843603          	ld	a2,-1848(s0)
    1e90:	00c58633          	add	a2,a1,a2
    1e94:	8cc43423          	sd	a2,-1848(s0)
    1e98:	027505b3          	mul	a1,a0,t2
    1e9c:	e6743423          	sd	t2,-408(s0)
    1ea0:	8d043603          	ld	a2,-1840(s0)
    1ea4:	00c58633          	add	a2,a1,a2
    1ea8:	8cc43823          	sd	a2,-1840(s0)
    1eac:	f6843483          	ld	s1,-152(s0)
    1eb0:	029505b3          	mul	a1,a0,s1
    1eb4:	8d843603          	ld	a2,-1832(s0)
    1eb8:	00c58633          	add	a2,a1,a2
    1ebc:	8cc43c23          	sd	a2,-1832(s0)
    1ec0:	ea043f03          	ld	t5,-352(s0)
    1ec4:	03e505b3          	mul	a1,a0,t5
    1ec8:	8e043603          	ld	a2,-1824(s0)
    1ecc:	00c58633          	add	a2,a1,a2
    1ed0:	8ec43023          	sd	a2,-1824(s0)
    1ed4:	e6043a03          	ld	s4,-416(s0)
    1ed8:	034505b3          	mul	a1,a0,s4
    1edc:	8e843603          	ld	a2,-1816(s0)
    1ee0:	00c58633          	add	a2,a1,a2
    1ee4:	8ec43423          	sd	a2,-1816(s0)
    1ee8:	02f505b3          	mul	a1,a0,a5
    1eec:	8f043603          	ld	a2,-1808(s0)
    1ef0:	00c58633          	add	a2,a1,a2
    1ef4:	8ec43823          	sd	a2,-1808(s0)
    1ef8:	ef843583          	ld	a1,-264(s0)
    1efc:	02b505b3          	mul	a1,a0,a1
    1f00:	8f843603          	ld	a2,-1800(s0)
    1f04:	00c58633          	add	a2,a1,a2
    1f08:	8ec43c23          	sd	a2,-1800(s0)
    1f0c:	ef043e83          	ld	t4,-272(s0)
    1f10:	03d505b3          	mul	a1,a0,t4
    1f14:	90043603          	ld	a2,-1792(s0)
    1f18:	00c58633          	add	a2,a1,a2
    1f1c:	90c43023          	sd	a2,-1792(s0)
    1f20:	026505b3          	mul	a1,a0,t1
    1f24:	90843603          	ld	a2,-1784(s0)
    1f28:	00c58633          	add	a2,a1,a2
    1f2c:	90c43423          	sd	a2,-1784(s0)
    1f30:	02d505b3          	mul	a1,a0,a3
    1f34:	91043603          	ld	a2,-1776(s0)
    1f38:	00c58633          	add	a2,a1,a2
    1f3c:	90c43823          	sd	a2,-1776(s0)
    1f40:	03a505b3          	mul	a1,a0,s10
    1f44:	000d0c13          	mv	s8,s10
    1f48:	91843603          	ld	a2,-1768(s0)
    1f4c:	00c58633          	add	a2,a1,a2
    1f50:	90c43c23          	sd	a2,-1768(s0)
    1f54:	f1043283          	ld	t0,-240(s0)
    1f58:	025505b3          	mul	a1,a0,t0
    1f5c:	92043603          	ld	a2,-1760(s0)
    1f60:	00c58633          	add	a2,a1,a2
    1f64:	92c43023          	sd	a2,-1760(s0)
    1f68:	ee843683          	ld	a3,-280(s0)
    1f6c:	02d505b3          	mul	a1,a0,a3
    1f70:	92843603          	ld	a2,-1752(s0)
    1f74:	00c58633          	add	a2,a1,a2
    1f78:	92c43423          	sd	a2,-1752(s0)
    1f7c:	02e505b3          	mul	a1,a0,a4
    1f80:	93043603          	ld	a2,-1744(s0)
    1f84:	00c58633          	add	a2,a1,a2
    1f88:	92c43823          	sd	a2,-1744(s0)
    1f8c:	f0843d03          	ld	s10,-248(s0)
    1f90:	03a505b3          	mul	a1,a0,s10
    1f94:	93843603          	ld	a2,-1736(s0)
    1f98:	00c58633          	add	a2,a1,a2
    1f9c:	92c43c23          	sd	a2,-1736(s0)
    1fa0:	039505b3          	mul	a1,a0,s9
    1fa4:	94043603          	ld	a2,-1728(s0)
    1fa8:	00c58633          	add	a2,a1,a2
    1fac:	94c43023          	sd	a2,-1728(s0)
    1fb0:	037505b3          	mul	a1,a0,s7
    1fb4:	94843603          	ld	a2,-1720(s0)
    1fb8:	00c58633          	add	a2,a1,a2
    1fbc:	94c43423          	sd	a2,-1720(s0)
    1fc0:	ed843583          	ld	a1,-296(s0)
    1fc4:	02b505b3          	mul	a1,a0,a1
    1fc8:	95043603          	ld	a2,-1712(s0)
    1fcc:	00c58633          	add	a2,a1,a2
    1fd0:	94c43823          	sd	a2,-1712(s0)
    1fd4:	f6043083          	ld	ra,-160(s0)
    1fd8:	021505b3          	mul	a1,a0,ra
    1fdc:	95843603          	ld	a2,-1704(s0)
    1fe0:	00c58633          	add	a2,a1,a2
    1fe4:	94c43c23          	sd	a2,-1704(s0)
    1fe8:	03b505b3          	mul	a1,a0,s11
    1fec:	96043603          	ld	a2,-1696(s0)
    1ff0:	00c58633          	add	a2,a1,a2
    1ff4:	96c43023          	sd	a2,-1696(s0)
    1ff8:	f7843583          	ld	a1,-136(s0)
    1ffc:	7ff58593          	addi	a1,a1,2047
    2000:	00001637          	lui	a2,0x1
    2004:	40c40633          	sub	a2,s0,a2
    2008:	66b63423          	sd	a1,1640(a2) # 1668 <.LBB98_5+0x19c>
    200c:	34158583          	lb	a1,833(a1)
    2010:	e7843783          	ld	a5,-392(s0)
    2014:	02f50db3          	mul	s11,a0,a5
    2018:	96843603          	ld	a2,-1688(s0)
    201c:	00cd8633          	add	a2,s11,a2
    2020:	96c43423          	sd	a2,-1688(s0)
    2024:	03650533          	mul	a0,a0,s6
    2028:	e5643c23          	sd	s6,-424(s0)
    202c:	97043603          	ld	a2,-1680(s0)
    2030:	00c50633          	add	a2,a0,a2
    2034:	96c43823          	sd	a2,-1680(s0)
    2038:	f3843903          	ld	s2,-200(s0)
    203c:	03258533          	mul	a0,a1,s2
    2040:	97843603          	ld	a2,-1672(s0)
    2044:	00c50633          	add	a2,a0,a2
    2048:	96c43c23          	sd	a2,-1672(s0)
    204c:	00098313          	mv	t1,s3
    2050:	03358533          	mul	a0,a1,s3
    2054:	98043603          	ld	a2,-1664(s0)
    2058:	00c50633          	add	a2,a0,a2
    205c:	98c43023          	sd	a2,-1664(s0)
    2060:	000e0c93          	mv	s9,t3
    2064:	03c58533          	mul	a0,a1,t3
    2068:	98843603          	ld	a2,-1656(s0)
    206c:	00c50633          	add	a2,a0,a2
    2070:	98c43423          	sd	a2,-1656(s0)
    2074:	f4043e03          	ld	t3,-192(s0)
    2078:	03c58533          	mul	a0,a1,t3
    207c:	99043603          	ld	a2,-1648(s0)
    2080:	00c50633          	add	a2,a0,a2
    2084:	98c43823          	sd	a2,-1648(s0)
    2088:	f7043503          	ld	a0,-144(s0)
    208c:	02a58533          	mul	a0,a1,a0
    2090:	99843603          	ld	a2,-1640(s0)
    2094:	00c50633          	add	a2,a0,a2
    2098:	98c43c23          	sd	a2,-1640(s0)
    209c:	03558533          	mul	a0,a1,s5
    20a0:	9a043603          	ld	a2,-1632(s0)
    20a4:	00c50633          	add	a2,a0,a2
    20a8:	9ac43023          	sd	a2,-1632(s0)
    20ac:	f5043a83          	ld	s5,-176(s0)
    20b0:	03558533          	mul	a0,a1,s5
    20b4:	9a843603          	ld	a2,-1624(s0)
    20b8:	00c50633          	add	a2,a0,a2
    20bc:	9ac43423          	sd	a2,-1624(s0)
    20c0:	e7043983          	ld	s3,-400(s0)
    20c4:	03358533          	mul	a0,a1,s3
    20c8:	9b043603          	ld	a2,-1616(s0)
    20cc:	00c50633          	add	a2,a0,a2
    20d0:	9ac43823          	sd	a2,-1616(s0)
    20d4:	03f58533          	mul	a0,a1,t6
    20d8:	9b843603          	ld	a2,-1608(s0)
    20dc:	00c50633          	add	a2,a0,a2
    20e0:	9ac43c23          	sd	a2,-1608(s0)
    20e4:	03158533          	mul	a0,a1,a7
    20e8:	9c043603          	ld	a2,-1600(s0)
    20ec:	00c50633          	add	a2,a0,a2
    20f0:	9cc43023          	sd	a2,-1600(s0)
    20f4:	03058533          	mul	a0,a1,a6
    20f8:	9c843603          	ld	a2,-1592(s0)
    20fc:	00c50633          	add	a2,a0,a2
    2100:	9cc43423          	sd	a2,-1592(s0)
    2104:	02758533          	mul	a0,a1,t2
    2108:	9d043603          	ld	a2,-1584(s0)
    210c:	00c50633          	add	a2,a0,a2
    2110:	9cc43823          	sd	a2,-1584(s0)
    2114:	02958533          	mul	a0,a1,s1
    2118:	9d843603          	ld	a2,-1576(s0)
    211c:	00c50633          	add	a2,a0,a2
    2120:	9cc43c23          	sd	a2,-1576(s0)
    2124:	03e58533          	mul	a0,a1,t5
    2128:	9e043603          	ld	a2,-1568(s0)
    212c:	00c50633          	add	a2,a0,a2
    2130:	9ec43023          	sd	a2,-1568(s0)
    2134:	03458533          	mul	a0,a1,s4
    2138:	9e843603          	ld	a2,-1560(s0)
    213c:	00c50633          	add	a2,a0,a2
    2140:	9ec43423          	sd	a2,-1560(s0)
    2144:	ec843803          	ld	a6,-312(s0)
    2148:	03058533          	mul	a0,a1,a6
    214c:	9f043603          	ld	a2,-1552(s0)
    2150:	00c50633          	add	a2,a0,a2
    2154:	9ec43823          	sd	a2,-1552(s0)
    2158:	ef843a03          	ld	s4,-264(s0)
    215c:	03458533          	mul	a0,a1,s4
    2160:	9f843603          	ld	a2,-1544(s0)
    2164:	00c50633          	add	a2,a0,a2
    2168:	9ec43c23          	sd	a2,-1544(s0)
    216c:	03d58533          	mul	a0,a1,t4
    2170:	a0043603          	ld	a2,-1536(s0)
    2174:	00c50633          	add	a2,a0,a2
    2178:	a0c43023          	sd	a2,-1536(s0)
    217c:	ed043483          	ld	s1,-304(s0)
    2180:	02958533          	mul	a0,a1,s1
    2184:	a0843603          	ld	a2,-1528(s0)
    2188:	00c50633          	add	a2,a0,a2
    218c:	a0c43423          	sd	a2,-1528(s0)
    2190:	f0043503          	ld	a0,-256(s0)
    2194:	02a58533          	mul	a0,a1,a0
    2198:	a1043603          	ld	a2,-1520(s0)
    219c:	00c50633          	add	a2,a0,a2
    21a0:	a0c43823          	sd	a2,-1520(s0)
    21a4:	03858533          	mul	a0,a1,s8
    21a8:	a1843603          	ld	a2,-1512(s0)
    21ac:	00c50633          	add	a2,a0,a2
    21b0:	a0c43c23          	sd	a2,-1512(s0)
    21b4:	02558533          	mul	a0,a1,t0
    21b8:	00028b93          	mv	s7,t0
    21bc:	a2043603          	ld	a2,-1504(s0)
    21c0:	00c50633          	add	a2,a0,a2
    21c4:	a2c43023          	sd	a2,-1504(s0)
    21c8:	02d58533          	mul	a0,a1,a3
    21cc:	a2843603          	ld	a2,-1496(s0)
    21d0:	00c50633          	add	a2,a0,a2
    21d4:	a2c43423          	sd	a2,-1496(s0)
    21d8:	02e58533          	mul	a0,a1,a4
    21dc:	a3043603          	ld	a2,-1488(s0)
    21e0:	00c50633          	add	a2,a0,a2
    21e4:	a2c43823          	sd	a2,-1488(s0)
    21e8:	03a58533          	mul	a0,a1,s10
    21ec:	a3843603          	ld	a2,-1480(s0)
    21f0:	00c50633          	add	a2,a0,a2
    21f4:	a2c43c23          	sd	a2,-1480(s0)
    21f8:	e8843f83          	ld	t6,-376(s0)
    21fc:	03f58533          	mul	a0,a1,t6
    2200:	a4043603          	ld	a2,-1472(s0)
    2204:	00c50633          	add	a2,a0,a2
    2208:	a4c43023          	sd	a2,-1472(s0)
    220c:	e9043883          	ld	a7,-368(s0)
    2210:	03158533          	mul	a0,a1,a7
    2214:	a4843603          	ld	a2,-1464(s0)
    2218:	00c50633          	add	a2,a0,a2
    221c:	a4c43423          	sd	a2,-1464(s0)
    2220:	ed843383          	ld	t2,-296(s0)
    2224:	02758533          	mul	a0,a1,t2
    2228:	a5043603          	ld	a2,-1456(s0)
    222c:	00c50633          	add	a2,a0,a2
    2230:	a4c43823          	sd	a2,-1456(s0)
    2234:	00008e93          	mv	t4,ra
    2238:	02158533          	mul	a0,a1,ra
    223c:	a5843603          	ld	a2,-1448(s0)
    2240:	00c50633          	add	a2,a0,a2
    2244:	a4c43c23          	sd	a2,-1448(s0)
    2248:	f4843283          	ld	t0,-184(s0)
    224c:	02558533          	mul	a0,a1,t0
    2250:	a6043603          	ld	a2,-1440(s0)
    2254:	00c50633          	add	a2,a0,a2
    2258:	a6c43023          	sd	a2,-1440(s0)
    225c:	00001537          	lui	a0,0x1
    2260:	40a40533          	sub	a0,s0,a0
    2264:	66853503          	ld	a0,1640(a0) # 1668 <.LBB98_5+0x19c>
    2268:	34150513          	addi	a0,a0,833
    226c:	3c050c03          	lb	s8,960(a0)
    2270:	02f58db3          	mul	s11,a1,a5
    2274:	a6843603          	ld	a2,-1432(s0)
    2278:	00cd8633          	add	a2,s11,a2
    227c:	a6c43423          	sd	a2,-1432(s0)
    2280:	036585b3          	mul	a1,a1,s6
    2284:	a7043603          	ld	a2,-1424(s0)
    2288:	00c58633          	add	a2,a1,a2
    228c:	a6c43823          	sd	a2,-1424(s0)
    2290:	032c05b3          	mul	a1,s8,s2
    2294:	a7843603          	ld	a2,-1416(s0)
    2298:	00c58633          	add	a2,a1,a2
    229c:	a6c43c23          	sd	a2,-1416(s0)
    22a0:	026c05b3          	mul	a1,s8,t1
    22a4:	a8043603          	ld	a2,-1408(s0)
    22a8:	00c58633          	add	a2,a1,a2
    22ac:	a8c43023          	sd	a2,-1408(s0)
    22b0:	039c05b3          	mul	a1,s8,s9
    22b4:	a8843603          	ld	a2,-1400(s0)
    22b8:	00c58633          	add	a2,a1,a2
    22bc:	a8c43423          	sd	a2,-1400(s0)
    22c0:	03cc05b3          	mul	a1,s8,t3
    22c4:	a9043603          	ld	a2,-1392(s0)
    22c8:	00c58633          	add	a2,a1,a2
    22cc:	a8c43823          	sd	a2,-1392(s0)
    22d0:	f7043703          	ld	a4,-144(s0)
    22d4:	02ec05b3          	mul	a1,s8,a4
    22d8:	a9843603          	ld	a2,-1384(s0)
    22dc:	00c58633          	add	a2,a1,a2
    22e0:	a8c43c23          	sd	a2,-1384(s0)
    22e4:	f5843783          	ld	a5,-168(s0)
    22e8:	02fc05b3          	mul	a1,s8,a5
    22ec:	aa043603          	ld	a2,-1376(s0)
    22f0:	00c58633          	add	a2,a1,a2
    22f4:	aac43023          	sd	a2,-1376(s0)
    22f8:	000a8313          	mv	t1,s5
    22fc:	035c05b3          	mul	a1,s8,s5
    2300:	aa843603          	ld	a2,-1368(s0)
    2304:	00c58633          	add	a2,a1,a2
    2308:	aac43423          	sd	a2,-1368(s0)
    230c:	00098e13          	mv	t3,s3
    2310:	033c05b3          	mul	a1,s8,s3
    2314:	ab043603          	ld	a2,-1360(s0)
    2318:	00c58633          	add	a2,a1,a2
    231c:	aac43823          	sd	a2,-1360(s0)
    2320:	eb043f03          	ld	t5,-336(s0)
    2324:	03ec05b3          	mul	a1,s8,t5
    2328:	ab843603          	ld	a2,-1352(s0)
    232c:	00c58633          	add	a2,a1,a2
    2330:	aac43c23          	sd	a2,-1352(s0)
    2334:	e8043683          	ld	a3,-384(s0)
    2338:	02dc05b3          	mul	a1,s8,a3
    233c:	ac043603          	ld	a2,-1344(s0)
    2340:	00c58633          	add	a2,a1,a2
    2344:	acc43023          	sd	a2,-1344(s0)
    2348:	e9843b03          	ld	s6,-360(s0)
    234c:	036c05b3          	mul	a1,s8,s6
    2350:	ac843603          	ld	a2,-1336(s0)
    2354:	00c58633          	add	a2,a1,a2
    2358:	acc43423          	sd	a2,-1336(s0)
    235c:	e6843903          	ld	s2,-408(s0)
    2360:	032c05b3          	mul	a1,s8,s2
    2364:	ad043603          	ld	a2,-1328(s0)
    2368:	00c58633          	add	a2,a1,a2
    236c:	acc43823          	sd	a2,-1328(s0)
    2370:	f6843983          	ld	s3,-152(s0)
    2374:	033c05b3          	mul	a1,s8,s3
    2378:	ad843603          	ld	a2,-1320(s0)
    237c:	00c58633          	add	a2,a1,a2
    2380:	acc43c23          	sd	a2,-1320(s0)
    2384:	ea043d83          	ld	s11,-352(s0)
    2388:	03bc05b3          	mul	a1,s8,s11
    238c:	ae043603          	ld	a2,-1312(s0)
    2390:	00c58633          	add	a2,a1,a2
    2394:	aec43023          	sd	a2,-1312(s0)
    2398:	e6043c83          	ld	s9,-416(s0)
    239c:	039c05b3          	mul	a1,s8,s9
    23a0:	ae843603          	ld	a2,-1304(s0)
    23a4:	00c58633          	add	a2,a1,a2
    23a8:	aec43423          	sd	a2,-1304(s0)
    23ac:	030c05b3          	mul	a1,s8,a6
    23b0:	af043603          	ld	a2,-1296(s0)
    23b4:	00c58633          	add	a2,a1,a2
    23b8:	aec43823          	sd	a2,-1296(s0)
    23bc:	034c05b3          	mul	a1,s8,s4
    23c0:	af843603          	ld	a2,-1288(s0)
    23c4:	00c58633          	add	a2,a1,a2
    23c8:	aec43c23          	sd	a2,-1288(s0)
    23cc:	ef043583          	ld	a1,-272(s0)
    23d0:	02bc05b3          	mul	a1,s8,a1
    23d4:	b0043603          	ld	a2,-1280(s0)
    23d8:	00c58633          	add	a2,a1,a2
    23dc:	b0c43023          	sd	a2,-1280(s0)
    23e0:	029c05b3          	mul	a1,s8,s1
    23e4:	b0843603          	ld	a2,-1272(s0)
    23e8:	00c58633          	add	a2,a1,a2
    23ec:	b0c43423          	sd	a2,-1272(s0)
    23f0:	f0043a03          	ld	s4,-256(s0)
    23f4:	034c05b3          	mul	a1,s8,s4
    23f8:	b1043603          	ld	a2,-1264(s0)
    23fc:	00c58633          	add	a2,a1,a2
    2400:	b0c43823          	sd	a2,-1264(s0)
    2404:	ee043583          	ld	a1,-288(s0)
    2408:	02bc05b3          	mul	a1,s8,a1
    240c:	b1843603          	ld	a2,-1256(s0)
    2410:	00c58633          	add	a2,a1,a2
    2414:	b0c43c23          	sd	a2,-1256(s0)
    2418:	037c05b3          	mul	a1,s8,s7
    241c:	b2043603          	ld	a2,-1248(s0)
    2420:	00c58633          	add	a2,a1,a2
    2424:	b2c43023          	sd	a2,-1248(s0)
    2428:	ee843583          	ld	a1,-280(s0)
    242c:	02bc05b3          	mul	a1,s8,a1
    2430:	b2843603          	ld	a2,-1240(s0)
    2434:	00c58633          	add	a2,a1,a2
    2438:	b2c43423          	sd	a2,-1240(s0)
    243c:	ea843803          	ld	a6,-344(s0)
    2440:	030c05b3          	mul	a1,s8,a6
    2444:	b3043603          	ld	a2,-1232(s0)
    2448:	00c58633          	add	a2,a1,a2
    244c:	b2c43823          	sd	a2,-1232(s0)
    2450:	03ac05b3          	mul	a1,s8,s10
    2454:	b3843603          	ld	a2,-1224(s0)
    2458:	00c58633          	add	a2,a1,a2
    245c:	b2c43c23          	sd	a2,-1224(s0)
    2460:	03fc05b3          	mul	a1,s8,t6
    2464:	b4043603          	ld	a2,-1216(s0)
    2468:	00c58633          	add	a2,a1,a2
    246c:	b4c43023          	sd	a2,-1216(s0)
    2470:	031c05b3          	mul	a1,s8,a7
    2474:	00088d13          	mv	s10,a7
    2478:	b4843603          	ld	a2,-1208(s0)
    247c:	00c58633          	add	a2,a1,a2
    2480:	b4c43423          	sd	a2,-1208(s0)
    2484:	027c05b3          	mul	a1,s8,t2
    2488:	00038093          	mv	ra,t2
    248c:	b5043603          	ld	a2,-1200(s0)
    2490:	00c58633          	add	a2,a1,a2
    2494:	b4c43823          	sd	a2,-1200(s0)
    2498:	03dc05b3          	mul	a1,s8,t4
    249c:	b5843603          	ld	a2,-1192(s0)
    24a0:	00c58633          	add	a2,a1,a2
    24a4:	b4c43c23          	sd	a2,-1192(s0)
    24a8:	025c05b3          	mul	a1,s8,t0
    24ac:	b6043603          	ld	a2,-1184(s0)
    24b0:	00c58633          	add	a2,a1,a2
    24b4:	b6c43023          	sd	a2,-1184(s0)
    24b8:	78050503          	lb	a0,1920(a0)
    24bc:	e7843a83          	ld	s5,-392(s0)
    24c0:	035c05b3          	mul	a1,s8,s5
    24c4:	b6843603          	ld	a2,-1176(s0)
    24c8:	00c58633          	add	a2,a1,a2
    24cc:	b6c43423          	sd	a2,-1176(s0)
    24d0:	e5843e83          	ld	t4,-424(s0)
    24d4:	03dc05b3          	mul	a1,s8,t4
    24d8:	b7043603          	ld	a2,-1168(s0)
    24dc:	00c58633          	add	a2,a1,a2
    24e0:	b6c43823          	sd	a2,-1168(s0)
    24e4:	f3843b83          	ld	s7,-200(s0)
    24e8:	037505b3          	mul	a1,a0,s7
    24ec:	b7843603          	ld	a2,-1160(s0)
    24f0:	00c58633          	add	a2,a1,a2
    24f4:	b6c43c23          	sd	a2,-1160(s0)
    24f8:	eb843f83          	ld	t6,-328(s0)
    24fc:	03f505b3          	mul	a1,a0,t6
    2500:	b8043603          	ld	a2,-1152(s0)
    2504:	00c58633          	add	a2,a1,a2
    2508:	b8c43023          	sd	a2,-1152(s0)
    250c:	ec043383          	ld	t2,-320(s0)
    2510:	027505b3          	mul	a1,a0,t2
    2514:	b8843603          	ld	a2,-1144(s0)
    2518:	00c58633          	add	a2,a1,a2
    251c:	b8c43423          	sd	a2,-1144(s0)
    2520:	f4043483          	ld	s1,-192(s0)
    2524:	029505b3          	mul	a1,a0,s1
    2528:	b9043603          	ld	a2,-1136(s0)
    252c:	00c58633          	add	a2,a1,a2
    2530:	b8c43823          	sd	a2,-1136(s0)
    2534:	02e505b3          	mul	a1,a0,a4
    2538:	b9843603          	ld	a2,-1128(s0)
    253c:	00c58633          	add	a2,a1,a2
    2540:	b8c43c23          	sd	a2,-1128(s0)
    2544:	02f505b3          	mul	a1,a0,a5
    2548:	ba043603          	ld	a2,-1120(s0)
    254c:	00c58633          	add	a2,a1,a2
    2550:	bac43023          	sd	a2,-1120(s0)
    2554:	026505b3          	mul	a1,a0,t1
    2558:	ba843603          	ld	a2,-1112(s0)
    255c:	00c58633          	add	a2,a1,a2
    2560:	bac43423          	sd	a2,-1112(s0)
    2564:	03c505b3          	mul	a1,a0,t3
    2568:	bb043603          	ld	a2,-1104(s0)
    256c:	00c58633          	add	a2,a1,a2
    2570:	bac43823          	sd	a2,-1104(s0)
    2574:	03e505b3          	mul	a1,a0,t5
    2578:	bb843603          	ld	a2,-1096(s0)
    257c:	00c58633          	add	a2,a1,a2
    2580:	bac43c23          	sd	a2,-1096(s0)
    2584:	02d505b3          	mul	a1,a0,a3
    2588:	bc043603          	ld	a2,-1088(s0)
    258c:	00c58633          	add	a2,a1,a2
    2590:	bcc43023          	sd	a2,-1088(s0)
    2594:	036505b3          	mul	a1,a0,s6
    2598:	bc843603          	ld	a2,-1080(s0)
    259c:	00c58633          	add	a2,a1,a2
    25a0:	bcc43423          	sd	a2,-1080(s0)
    25a4:	032505b3          	mul	a1,a0,s2
    25a8:	bd043603          	ld	a2,-1072(s0)
    25ac:	00c58633          	add	a2,a1,a2
    25b0:	bcc43823          	sd	a2,-1072(s0)
    25b4:	033505b3          	mul	a1,a0,s3
    25b8:	bd843603          	ld	a2,-1064(s0)
    25bc:	00c58633          	add	a2,a1,a2
    25c0:	bcc43c23          	sd	a2,-1064(s0)
    25c4:	03b505b3          	mul	a1,a0,s11
    25c8:	be043603          	ld	a2,-1056(s0)
    25cc:	00c58633          	add	a2,a1,a2
    25d0:	bec43023          	sd	a2,-1056(s0)
    25d4:	000c8313          	mv	t1,s9
    25d8:	039505b3          	mul	a1,a0,s9
    25dc:	be843603          	ld	a2,-1048(s0)
    25e0:	00c58633          	add	a2,a1,a2
    25e4:	bec43423          	sd	a2,-1048(s0)
    25e8:	ec843e03          	ld	t3,-312(s0)
    25ec:	03c505b3          	mul	a1,a0,t3
    25f0:	bf043603          	ld	a2,-1040(s0)
    25f4:	00c58633          	add	a2,a1,a2
    25f8:	bec43823          	sd	a2,-1040(s0)
    25fc:	ef843c83          	ld	s9,-264(s0)
    2600:	039505b3          	mul	a1,a0,s9
    2604:	bf843603          	ld	a2,-1032(s0)
    2608:	00c58633          	add	a2,a1,a2
    260c:	bec43c23          	sd	a2,-1032(s0)
    2610:	ef043683          	ld	a3,-272(s0)
    2614:	02d505b3          	mul	a1,a0,a3
    2618:	c0043603          	ld	a2,-1024(s0)
    261c:	00c58633          	add	a2,a1,a2
    2620:	c0c43023          	sd	a2,-1024(s0)
    2624:	ed043f03          	ld	t5,-304(s0)
    2628:	03e505b3          	mul	a1,a0,t5
    262c:	c0843603          	ld	a2,-1016(s0)
    2630:	00c58633          	add	a2,a1,a2
    2634:	c0c43423          	sd	a2,-1016(s0)
    2638:	000a0713          	mv	a4,s4
    263c:	034505b3          	mul	a1,a0,s4
    2640:	c1043603          	ld	a2,-1008(s0)
    2644:	00c58633          	add	a2,a1,a2
    2648:	c0c43823          	sd	a2,-1008(s0)
    264c:	ee043783          	ld	a5,-288(s0)
    2650:	02f505b3          	mul	a1,a0,a5
    2654:	c1843603          	ld	a2,-1000(s0)
    2658:	00c58633          	add	a2,a1,a2
    265c:	c0c43c23          	sd	a2,-1000(s0)
    2660:	f1043883          	ld	a7,-240(s0)
    2664:	031505b3          	mul	a1,a0,a7
    2668:	c2043603          	ld	a2,-992(s0)
    266c:	00c58633          	add	a2,a1,a2
    2670:	c2c43023          	sd	a2,-992(s0)
    2674:	ee843283          	ld	t0,-280(s0)
    2678:	025505b3          	mul	a1,a0,t0
    267c:	c2843603          	ld	a2,-984(s0)
    2680:	00c58633          	add	a2,a1,a2
    2684:	c2c43423          	sd	a2,-984(s0)
    2688:	030505b3          	mul	a1,a0,a6
    268c:	c3043603          	ld	a2,-976(s0)
    2690:	00c58633          	add	a2,a1,a2
    2694:	c2c43823          	sd	a2,-976(s0)
    2698:	f0843803          	ld	a6,-248(s0)
    269c:	030505b3          	mul	a1,a0,a6
    26a0:	c3843603          	ld	a2,-968(s0)
    26a4:	00c58633          	add	a2,a1,a2
    26a8:	c2c43c23          	sd	a2,-968(s0)
    26ac:	e8843a03          	ld	s4,-376(s0)
    26b0:	034505b3          	mul	a1,a0,s4
    26b4:	c4043603          	ld	a2,-960(s0)
    26b8:	00c58633          	add	a2,a1,a2
    26bc:	c4c43023          	sd	a2,-960(s0)
    26c0:	03a505b3          	mul	a1,a0,s10
    26c4:	c4843603          	ld	a2,-952(s0)
    26c8:	00c58633          	add	a2,a1,a2
    26cc:	c4c43423          	sd	a2,-952(s0)
    26d0:	021505b3          	mul	a1,a0,ra
    26d4:	c5043603          	ld	a2,-944(s0)
    26d8:	00c58633          	add	a2,a1,a2
    26dc:	c4c43823          	sd	a2,-944(s0)
    26e0:	f6043583          	ld	a1,-160(s0)
    26e4:	02b505b3          	mul	a1,a0,a1
    26e8:	c5843603          	ld	a2,-936(s0)
    26ec:	00c58633          	add	a2,a1,a2
    26f0:	c4c43c23          	sd	a2,-936(s0)
    26f4:	f4843583          	ld	a1,-184(s0)
    26f8:	02b505b3          	mul	a1,a0,a1
    26fc:	c6043603          	ld	a2,-928(s0)
    2700:	00c58633          	add	a2,a1,a2
    2704:	c6c43023          	sd	a2,-928(s0)
    2708:	f7843c03          	ld	s8,-136(s0)
    270c:	000015b7          	lui	a1,0x1
    2710:	40b405b3          	sub	a1,s0,a1
    2714:	6605b583          	ld	a1,1632(a1) # 1660 <.LBB98_5+0x194>
    2718:	00bc0c33          	add	s8,s8,a1
    271c:	000c0583          	lb	a1,0(s8)
    2720:	03550db3          	mul	s11,a0,s5
    2724:	c6843603          	ld	a2,-920(s0)
    2728:	00cd8633          	add	a2,s11,a2
    272c:	c6c43423          	sd	a2,-920(s0)
    2730:	03d50533          	mul	a0,a0,t4
    2734:	c7043603          	ld	a2,-912(s0)
    2738:	00c50633          	add	a2,a0,a2
    273c:	c6c43823          	sd	a2,-912(s0)
    2740:	03758533          	mul	a0,a1,s7
    2744:	c7843603          	ld	a2,-904(s0)
    2748:	00c50633          	add	a2,a0,a2
    274c:	c6c43c23          	sd	a2,-904(s0)
    2750:	03f58533          	mul	a0,a1,t6
    2754:	c8043603          	ld	a2,-896(s0)
    2758:	00c50633          	add	a2,a0,a2
    275c:	c8c43023          	sd	a2,-896(s0)
    2760:	02758533          	mul	a0,a1,t2
    2764:	c8843603          	ld	a2,-888(s0)
    2768:	00c50633          	add	a2,a0,a2
    276c:	c8c43423          	sd	a2,-888(s0)
    2770:	02958533          	mul	a0,a1,s1
    2774:	c9043603          	ld	a2,-880(s0)
    2778:	00c50633          	add	a2,a0,a2
    277c:	c8c43823          	sd	a2,-880(s0)
    2780:	f7043503          	ld	a0,-144(s0)
    2784:	02a58533          	mul	a0,a1,a0
    2788:	c9843603          	ld	a2,-872(s0)
    278c:	00c50633          	add	a2,a0,a2
    2790:	c8c43c23          	sd	a2,-872(s0)
    2794:	f5843503          	ld	a0,-168(s0)
    2798:	02a58533          	mul	a0,a1,a0
    279c:	ca043603          	ld	a2,-864(s0)
    27a0:	00c50633          	add	a2,a0,a2
    27a4:	cac43023          	sd	a2,-864(s0)
    27a8:	f5043503          	ld	a0,-176(s0)
    27ac:	02a58533          	mul	a0,a1,a0
    27b0:	ca843603          	ld	a2,-856(s0)
    27b4:	00c50633          	add	a2,a0,a2
    27b8:	cac43423          	sd	a2,-856(s0)
    27bc:	e7043083          	ld	ra,-400(s0)
    27c0:	02158533          	mul	a0,a1,ra
    27c4:	cb043603          	ld	a2,-848(s0)
    27c8:	00c50633          	add	a2,a0,a2
    27cc:	cac43823          	sd	a2,-848(s0)
    27d0:	eb043d03          	ld	s10,-336(s0)
    27d4:	03a58533          	mul	a0,a1,s10
    27d8:	cb843603          	ld	a2,-840(s0)
    27dc:	00c50633          	add	a2,a0,a2
    27e0:	cac43c23          	sd	a2,-840(s0)
    27e4:	e8043b03          	ld	s6,-384(s0)
    27e8:	03658533          	mul	a0,a1,s6
    27ec:	cc043603          	ld	a2,-832(s0)
    27f0:	00c50633          	add	a2,a0,a2
    27f4:	ccc43023          	sd	a2,-832(s0)
    27f8:	e9843d83          	ld	s11,-360(s0)
    27fc:	03b58533          	mul	a0,a1,s11
    2800:	cc843603          	ld	a2,-824(s0)
    2804:	00c50633          	add	a2,a0,a2
    2808:	ccc43423          	sd	a2,-824(s0)
    280c:	03258533          	mul	a0,a1,s2
    2810:	cd043603          	ld	a2,-816(s0)
    2814:	00c50633          	add	a2,a0,a2
    2818:	ccc43823          	sd	a2,-816(s0)
    281c:	03358533          	mul	a0,a1,s3
    2820:	cd843603          	ld	a2,-808(s0)
    2824:	00c50633          	add	a2,a0,a2
    2828:	ccc43c23          	sd	a2,-808(s0)
    282c:	ea043483          	ld	s1,-352(s0)
    2830:	02958533          	mul	a0,a1,s1
    2834:	ce043603          	ld	a2,-800(s0)
    2838:	00c50633          	add	a2,a0,a2
    283c:	cec43023          	sd	a2,-800(s0)
    2840:	02658533          	mul	a0,a1,t1
    2844:	00030993          	mv	s3,t1
    2848:	ce843603          	ld	a2,-792(s0)
    284c:	00c50633          	add	a2,a0,a2
    2850:	cec43423          	sd	a2,-792(s0)
    2854:	03c58533          	mul	a0,a1,t3
    2858:	000e0913          	mv	s2,t3
    285c:	cf043603          	ld	a2,-784(s0)
    2860:	00c50633          	add	a2,a0,a2
    2864:	cec43823          	sd	a2,-784(s0)
    2868:	000c8e13          	mv	t3,s9
    286c:	03958533          	mul	a0,a1,s9
    2870:	cf843603          	ld	a2,-776(s0)
    2874:	00c50633          	add	a2,a0,a2
    2878:	cec43c23          	sd	a2,-776(s0)
    287c:	02d58533          	mul	a0,a1,a3
    2880:	00068c93          	mv	s9,a3
    2884:	d0043603          	ld	a2,-768(s0)
    2888:	00c50633          	add	a2,a0,a2
    288c:	d0c43023          	sd	a2,-768(s0)
    2890:	000f0313          	mv	t1,t5
    2894:	03e58533          	mul	a0,a1,t5
    2898:	d0843603          	ld	a2,-760(s0)
    289c:	00c50633          	add	a2,a0,a2
    28a0:	d0c43423          	sd	a2,-760(s0)
    28a4:	02e58533          	mul	a0,a1,a4
    28a8:	00070f93          	mv	t6,a4
    28ac:	d1043603          	ld	a2,-752(s0)
    28b0:	00c50633          	add	a2,a0,a2
    28b4:	d0c43823          	sd	a2,-752(s0)
    28b8:	02f58533          	mul	a0,a1,a5
    28bc:	00078f13          	mv	t5,a5
    28c0:	d1843603          	ld	a2,-744(s0)
    28c4:	00c50633          	add	a2,a0,a2
    28c8:	d0c43c23          	sd	a2,-744(s0)
    28cc:	03158533          	mul	a0,a1,a7
    28d0:	00088e93          	mv	t4,a7
    28d4:	d2043603          	ld	a2,-736(s0)
    28d8:	00c50633          	add	a2,a0,a2
    28dc:	d2c43023          	sd	a2,-736(s0)
    28e0:	02558533          	mul	a0,a1,t0
    28e4:	00028393          	mv	t2,t0
    28e8:	d2843603          	ld	a2,-728(s0)
    28ec:	00c50633          	add	a2,a0,a2
    28f0:	d2c43423          	sd	a2,-728(s0)
    28f4:	ea843b83          	ld	s7,-344(s0)
    28f8:	03758533          	mul	a0,a1,s7
    28fc:	d3043603          	ld	a2,-720(s0)
    2900:	00c50633          	add	a2,a0,a2
    2904:	d2c43823          	sd	a2,-720(s0)
    2908:	00080293          	mv	t0,a6
    290c:	03058533          	mul	a0,a1,a6
    2910:	d3843603          	ld	a2,-712(s0)
    2914:	00c50633          	add	a2,a0,a2
    2918:	d2c43c23          	sd	a2,-712(s0)
    291c:	000a0893          	mv	a7,s4
    2920:	03458533          	mul	a0,a1,s4
    2924:	d4043603          	ld	a2,-704(s0)
    2928:	00c50633          	add	a2,a0,a2
    292c:	d4c43023          	sd	a2,-704(s0)
    2930:	e9043803          	ld	a6,-368(s0)
    2934:	03058533          	mul	a0,a1,a6
    2938:	d4843603          	ld	a2,-696(s0)
    293c:	00c50633          	add	a2,a0,a2
    2940:	d4c43423          	sd	a2,-696(s0)
    2944:	ed843783          	ld	a5,-296(s0)
    2948:	02f58533          	mul	a0,a1,a5
    294c:	d5043603          	ld	a2,-688(s0)
    2950:	00c50633          	add	a2,a0,a2
    2954:	d4c43823          	sd	a2,-688(s0)
    2958:	f6043703          	ld	a4,-160(s0)
    295c:	02e58533          	mul	a0,a1,a4
    2960:	d5843603          	ld	a2,-680(s0)
    2964:	00c50633          	add	a2,a0,a2
    2968:	d4c43c23          	sd	a2,-680(s0)
    296c:	f4843683          	ld	a3,-184(s0)
    2970:	02d58533          	mul	a0,a1,a3
    2974:	d6043603          	ld	a2,-672(s0)
    2978:	00c50633          	add	a2,a0,a2
    297c:	d6c43023          	sd	a2,-672(s0)
    2980:	3c0c0c03          	lb	s8,960(s8)
    2984:	03558533          	mul	a0,a1,s5
    2988:	d6843603          	ld	a2,-664(s0)
    298c:	00c50633          	add	a2,a0,a2
    2990:	d6c43423          	sd	a2,-664(s0)
    2994:	e5843603          	ld	a2,-424(s0)
    2998:	02c58533          	mul	a0,a1,a2
    299c:	d7043583          	ld	a1,-656(s0)
    29a0:	00b505b3          	add	a1,a0,a1
    29a4:	d6b43823          	sd	a1,-656(s0)
    29a8:	02cc0533          	mul	a0,s8,a2
    29ac:	e4a43c23          	sd	a0,-424(s0)
    29b0:	035c0533          	mul	a0,s8,s5
    29b4:	e6a43c23          	sd	a0,-392(s0)
    29b8:	02dc0533          	mul	a0,s8,a3
    29bc:	f4a43423          	sd	a0,-184(s0)
    29c0:	02ec0533          	mul	a0,s8,a4
    29c4:	f6a43023          	sd	a0,-160(s0)
    29c8:	02fc0533          	mul	a0,s8,a5
    29cc:	000015b7          	lui	a1,0x1
    29d0:	40b405b3          	sub	a1,s0,a1
    29d4:	66a5b423          	sd	a0,1640(a1) # 1668 <.LBB98_5+0x19c>
    29d8:	030c0533          	mul	a0,s8,a6
    29dc:	eca43c23          	sd	a0,-296(s0)
    29e0:	034c0533          	mul	a0,s8,s4
    29e4:	e8a43823          	sd	a0,-368(s0)
    29e8:	025c0533          	mul	a0,s8,t0
    29ec:	f0a43423          	sd	a0,-248(s0)
    29f0:	037c08b3          	mul	a7,s8,s7
    29f4:	027c0bb3          	mul	s7,s8,t2
    29f8:	03dc0ab3          	mul	s5,s8,t4
    29fc:	03ec0833          	mul	a6,s8,t5
    2a00:	03fc02b3          	mul	t0,s8,t6
    2a04:	026c0333          	mul	t1,s8,t1
    2a08:	039c03b3          	mul	t2,s8,s9
    2a0c:	03cc0e33          	mul	t3,s8,t3
    2a10:	032c0f33          	mul	t5,s8,s2
    2a14:	033c0fb3          	mul	t6,s8,s3
    2a18:	029c04b3          	mul	s1,s8,s1
    2a1c:	f6843503          	ld	a0,-152(s0)
    2a20:	02ac0933          	mul	s2,s8,a0
    2a24:	e6843503          	ld	a0,-408(s0)
    2a28:	02ac09b3          	mul	s3,s8,a0
    2a2c:	03bc0a33          	mul	s4,s8,s11
    2a30:	036c0cb3          	mul	s9,s8,s6
    2a34:	03ac0d33          	mul	s10,s8,s10
    2a38:	021c0db3          	mul	s11,s8,ra
    2a3c:	f5043503          	ld	a0,-176(s0)
    2a40:	02ac0733          	mul	a4,s8,a0
    2a44:	f5843503          	ld	a0,-168(s0)
    2a48:	02ac00b3          	mul	ra,s8,a0
    2a4c:	f7043503          	ld	a0,-144(s0)
    2a50:	02ac06b3          	mul	a3,s8,a0
    2a54:	f4043503          	ld	a0,-192(s0)
    2a58:	02ac0633          	mul	a2,s8,a0
    2a5c:	ec043503          	ld	a0,-320(s0)
    2a60:	02ac05b3          	mul	a1,s8,a0
    2a64:	eb843503          	ld	a0,-328(s0)
    2a68:	02ac0533          	mul	a0,s8,a0
    2a6c:	f3843783          	ld	a5,-200(s0)
    2a70:	02fc0c33          	mul	s8,s8,a5
    2a74:	d7843783          	ld	a5,-648(s0)
    2a78:	00fc07b3          	add	a5,s8,a5
    2a7c:	d6f43c23          	sd	a5,-648(s0)
    2a80:	f7843c03          	ld	s8,-136(s0)
    2a84:	d8043783          	ld	a5,-640(s0)
    2a88:	00f507b3          	add	a5,a0,a5
    2a8c:	d8f43023          	sd	a5,-640(s0)
    2a90:	d8843503          	ld	a0,-632(s0)
    2a94:	00a58533          	add	a0,a1,a0
    2a98:	d8a43423          	sd	a0,-632(s0)
    2a9c:	d9043503          	ld	a0,-624(s0)
    2aa0:	00a60533          	add	a0,a2,a0
    2aa4:	d8a43823          	sd	a0,-624(s0)
    2aa8:	d9843503          	ld	a0,-616(s0)
    2aac:	00a68533          	add	a0,a3,a0
    2ab0:	d8a43c23          	sd	a0,-616(s0)
    2ab4:	e5043683          	ld	a3,-432(s0)
    2ab8:	da043503          	ld	a0,-608(s0)
    2abc:	00a08533          	add	a0,ra,a0
    2ac0:	daa43023          	sd	a0,-608(s0)
    2ac4:	dc843083          	ld	ra,-568(s0)
    2ac8:	da843503          	ld	a0,-600(s0)
    2acc:	00a70533          	add	a0,a4,a0
    2ad0:	daa43423          	sd	a0,-600(s0)
    2ad4:	e4843703          	ld	a4,-440(s0)
    2ad8:	db043503          	ld	a0,-592(s0)
    2adc:	00ad8533          	add	a0,s11,a0
    2ae0:	daa43823          	sd	a0,-592(s0)
    2ae4:	db843503          	ld	a0,-584(s0)
    2ae8:	00ad0533          	add	a0,s10,a0
    2aec:	daa43c23          	sd	a0,-584(s0)
    2af0:	dd043d03          	ld	s10,-560(s0)
    2af4:	dc043503          	ld	a0,-576(s0)
    2af8:	00ac8533          	add	a0,s9,a0
    2afc:	dca43023          	sd	a0,-576(s0)
    2b00:	dd843c83          	ld	s9,-552(s0)
    2b04:	001a00b3          	add	ra,s4,ra
    2b08:	de843a03          	ld	s4,-536(s0)
    2b0c:	01a98d33          	add	s10,s3,s10
    2b10:	df043983          	ld	s3,-528(s0)
    2b14:	01990cb3          	add	s9,s2,s9
    2b18:	df843903          	ld	s2,-520(s0)
    2b1c:	de043503          	ld	a0,-544(s0)
    2b20:	00a48533          	add	a0,s1,a0
    2b24:	dea43023          	sd	a0,-544(s0)
    2b28:	e0043483          	ld	s1,-512(s0)
    2b2c:	014f8a33          	add	s4,t6,s4
    2b30:	e0843f83          	ld	t6,-504(s0)
    2b34:	013f09b3          	add	s3,t5,s3
    2b38:	e1043f03          	ld	t5,-496(s0)
    2b3c:	012e0933          	add	s2,t3,s2
    2b40:	e1843e03          	ld	t3,-488(s0)
    2b44:	009384b3          	add	s1,t2,s1
    2b48:	e2043383          	ld	t2,-480(s0)
    2b4c:	01f30fb3          	add	t6,t1,t6
    2b50:	e2843303          	ld	t1,-472(s0)
    2b54:	01e28f33          	add	t5,t0,t5
    2b58:	f1843503          	ld	a0,-232(s0)
    2b5c:	00a80533          	add	a0,a6,a0
    2b60:	000015b7          	lui	a1,0x1
    2b64:	40b405b3          	sub	a1,s0,a1
    2b68:	6705be83          	ld	t4,1648(a1) # 1670 <.LBB98_5+0x1a4>
    2b6c:	f0a43c23          	sd	a0,-232(s0)
    2b70:	f1843283          	ld	t0,-232(s0)
    2b74:	f2043503          	ld	a0,-224(s0)
    2b78:	00aa8533          	add	a0,s5,a0
    2b7c:	f8843a83          	ld	s5,-120(s0)
    2b80:	f2a43023          	sd	a0,-224(s0)
    2b84:	f2043603          	ld	a2,-224(s0)
    2b88:	f2843503          	ld	a0,-216(s0)
    2b8c:	00ab8533          	add	a0,s7,a0
    2b90:	000015b7          	lui	a1,0x1
    2b94:	40b405b3          	sub	a1,s0,a1
    2b98:	6785bb83          	ld	s7,1656(a1) # 1678 <.LBB98_5+0x1ac>
    2b9c:	f2a43423          	sd	a0,-216(s0)
    2ba0:	f2843583          	ld	a1,-216(s0)
    2ba4:	f3043503          	ld	a0,-208(s0)
    2ba8:	00a88533          	add	a0,a7,a0
    2bac:	f2a43823          	sd	a0,-208(s0)
    2bb0:	f3043503          	ld	a0,-208(s0)
    2bb4:	f0843783          	ld	a5,-248(s0)
    2bb8:	01c78e33          	add	t3,a5,t3
    2bbc:	e3043883          	ld	a7,-464(s0)
    2bc0:	e9043783          	ld	a5,-368(s0)
    2bc4:	007783b3          	add	t2,a5,t2
    2bc8:	e3843803          	ld	a6,-456(s0)
    2bcc:	ed843783          	ld	a5,-296(s0)
    2bd0:	00678333          	add	t1,a5,t1
    2bd4:	e4043783          	ld	a5,-448(s0)
    2bd8:	00001b37          	lui	s6,0x1
    2bdc:	41640b33          	sub	s6,s0,s6
    2be0:	668b3b03          	ld	s6,1640(s6) # 1668 <.LBB98_5+0x19c>
    2be4:	011b08b3          	add	a7,s6,a7
    2be8:	f6043b03          	ld	s6,-160(s0)
    2bec:	010b0833          	add	a6,s6,a6
    2bf0:	f4843b03          	ld	s6,-184(s0)
    2bf4:	00fb07b3          	add	a5,s6,a5
    2bf8:	e7843b03          	ld	s6,-392(s0)
    2bfc:	00eb0733          	add	a4,s6,a4
    2c00:	e5843b03          	ld	s6,-424(s0)
    2c04:	00db06b3          	add	a3,s6,a3
    2c08:	f60e8e93          	addi	t4,t4,-160
    2c0c:	0a0a8a93          	addi	s5,s5,160
    2c10:	001c0b13          	addi	s6,s8,1
    2c14:	000e8463          	beqz	t4,2c1c <.LBB98_6>
    2c18:	8b5fe06f          	j	14cc <.LBB98_5>

0000000000002c1c <.LBB98_6>:
    2c1c:	00001537          	lui	a0,0x1
    2c20:	40a40533          	sub	a0,s0,a0
    2c24:	68053a83          	ld	s5,1664(a0) # 1680 <.LBB98_5+0x1b4>
    2c28:	00001537          	lui	a0,0x1
    2c2c:	40a40533          	sub	a0,s0,a0
    2c30:	68853b83          	ld	s7,1672(a0) # 1688 <.LBB98_5+0x1bc>
    2c34:	00001537          	lui	a0,0x1
    2c38:	40a40533          	sub	a0,s0,a0
    2c3c:	69053b03          	ld	s6,1680(a0) # 1690 <.LBB98_5+0x1c4>
    2c40:	00001537          	lui	a0,0x1
    2c44:	40a40533          	sub	a0,s0,a0
    2c48:	64853d83          	ld	s11,1608(a0) # 1648 <.LBB98_5+0x17c>
    2c4c:	002d9d93          	slli	s11,s11,0x2
    2c50:	00002537          	lui	a0,0x2
    2c54:	40a40533          	sub	a0,s0,a0
    2c58:	06853583          	ld	a1,104(a0) # 2068 <.LBB98_5+0xb9c>
    2c5c:	01b585b3          	add	a1,a1,s11
    2c60:	00001537          	lui	a0,0x1
    2c64:	40a40533          	sub	a0,s0,a0
    2c68:	8d053503          	ld	a0,-1840(a0) # 8d0 <.LBB98_3+0x610>
    2c6c:	00052c03          	lw	s8,0(a0)
    2c70:	00002537          	lui	a0,0x2
    2c74:	40a40533          	sub	a0,s0,a0
    2c78:	06053503          	ld	a0,96(a0) # 2060 <.LBB98_5+0xb94>
    2c7c:	01b50db3          	add	s11,a0,s11
    2c80:	07cda503          	lw	a0,124(s11)
    2c84:	07c5a283          	lw	t0,124(a1)
    2c88:	001c1613          	slli	a2,s8,0x1
    2c8c:	01860c33          	add	s8,a2,s8
    2c90:	00751613          	slli	a2,a0,0x7
    2c94:	ea543823          	sd	t0,-336(s0)
    2c98:	00001537          	lui	a0,0x1
    2c9c:	40a40533          	sub	a0,s0,a0
    2ca0:	69853503          	ld	a0,1688(a0) # 1698 <.LBB98_5+0x1cc>
    2ca4:	00550533          	add	a0,a0,t0
    2ca8:	eac43423          	sd	a2,-344(s0)
    2cac:	00c50533          	add	a0,a0,a2
    2cb0:	fffa62b7          	lui	t0,0xfffa6
    2cb4:	405c063b          	subw	a2,s8,t0
    2cb8:	40c5063b          	subw	a2,a0,a2
    2cbc:	40000537          	lui	a0,0x40000
    2cc0:	00001eb7          	lui	t4,0x1
    2cc4:	41d40eb3          	sub	t4,s0,t4
    2cc8:	e4aebc23          	sd	a0,-424(t4) # e58 <.LBB98_3+0xb98>
    2ccc:	00001eb7          	lui	t4,0x1
    2cd0:	41d40eb3          	sub	t4,s0,t4
    2cd4:	e4ceb823          	sd	a2,-432(t4) # e50 <.LBB98_3+0xb90>
    2cd8:	00065463          	bgez	a2,2ce0 <.LBB98_8>
    2cdc:	c0000537          	lui	a0,0xc0000

0000000000002ce0 <.LBB98_8>:
    2ce0:	00001637          	lui	a2,0x1
    2ce4:	40c40633          	sub	a2,s0,a2
    2ce8:	e4a63423          	sd	a0,-440(a2) # e48 <.LBB98_3+0xb88>
    2cec:	078da503          	lw	a0,120(s11)
    2cf0:	0785a603          	lw	a2,120(a1)
    2cf4:	00751e93          	slli	t4,a0,0x7
    2cf8:	eac43023          	sd	a2,-352(s0)
    2cfc:	00ca8533          	add	a0,s5,a2
    2d00:	e9d43c23          	sd	t4,-360(s0)
    2d04:	01d50533          	add	a0,a0,t4
    2d08:	405c063b          	subw	a2,s8,t0
    2d0c:	40c5053b          	subw	a0,a0,a2
    2d10:	40000637          	lui	a2,0x40000
    2d14:	00001eb7          	lui	t4,0x1
    2d18:	41d40eb3          	sub	t4,s0,t4
    2d1c:	e4aeb023          	sd	a0,-448(t4) # e40 <.LBB98_3+0xb80>
    2d20:	00055463          	bgez	a0,2d28 <.LBB98_10>
    2d24:	c0000637          	lui	a2,0xc0000

0000000000002d28 <.LBB98_10>:
    2d28:	00001537          	lui	a0,0x1
    2d2c:	40a40533          	sub	a0,s0,a0
    2d30:	e2c53c23          	sd	a2,-456(a0) # e38 <.LBB98_3+0xb78>
    2d34:	074da503          	lw	a0,116(s11)
    2d38:	0745a603          	lw	a2,116(a1)
    2d3c:	00751e93          	slli	t4,a0,0x7
    2d40:	e8c43823          	sd	a2,-368(s0)
    2d44:	00001537          	lui	a0,0x1
    2d48:	40a40533          	sub	a0,s0,a0
    2d4c:	6a053503          	ld	a0,1696(a0) # 16a0 <.LBB98_5+0x1d4>
    2d50:	00c50533          	add	a0,a0,a2
    2d54:	e9d43423          	sd	t4,-376(s0)
    2d58:	01d50533          	add	a0,a0,t4
    2d5c:	405c063b          	subw	a2,s8,t0
    2d60:	40c5053b          	subw	a0,a0,a2
    2d64:	40000637          	lui	a2,0x40000
    2d68:	00001eb7          	lui	t4,0x1
    2d6c:	41d40eb3          	sub	t4,s0,t4
    2d70:	e2aeb823          	sd	a0,-464(t4) # e30 <.LBB98_3+0xb70>
    2d74:	00055463          	bgez	a0,2d7c <.LBB98_12>
    2d78:	c0000637          	lui	a2,0xc0000

0000000000002d7c <.LBB98_12>:
    2d7c:	00001537          	lui	a0,0x1
    2d80:	40a40533          	sub	a0,s0,a0
    2d84:	e2c53423          	sd	a2,-472(a0) # e28 <.LBB98_3+0xb68>
    2d88:	070da503          	lw	a0,112(s11)
    2d8c:	0705a603          	lw	a2,112(a1)
    2d90:	00751e93          	slli	t4,a0,0x7
    2d94:	e8c43023          	sd	a2,-384(s0)
    2d98:	00001537          	lui	a0,0x1
    2d9c:	40a40533          	sub	a0,s0,a0
    2da0:	6a853503          	ld	a0,1704(a0) # 16a8 <.LBB98_5+0x1dc>
    2da4:	00c50533          	add	a0,a0,a2
    2da8:	e7d43c23          	sd	t4,-392(s0)
    2dac:	01d50533          	add	a0,a0,t4
    2db0:	405c063b          	subw	a2,s8,t0
    2db4:	40c5053b          	subw	a0,a0,a2
    2db8:	40000637          	lui	a2,0x40000
    2dbc:	00001eb7          	lui	t4,0x1
    2dc0:	41d40eb3          	sub	t4,s0,t4
    2dc4:	e2aeb023          	sd	a0,-480(t4) # e20 <.LBB98_3+0xb60>
    2dc8:	00055463          	bgez	a0,2dd0 <.LBB98_14>
    2dcc:	c0000637          	lui	a2,0xc0000

0000000000002dd0 <.LBB98_14>:
    2dd0:	00001537          	lui	a0,0x1
    2dd4:	40a40533          	sub	a0,s0,a0
    2dd8:	e0c53c23          	sd	a2,-488(a0) # e18 <.LBB98_3+0xb58>
    2ddc:	06cda503          	lw	a0,108(s11)
    2de0:	06c5a603          	lw	a2,108(a1)
    2de4:	00751e93          	slli	t4,a0,0x7
    2de8:	e6c43823          	sd	a2,-400(s0)
    2dec:	00001537          	lui	a0,0x1
    2df0:	40a40533          	sub	a0,s0,a0
    2df4:	6b053503          	ld	a0,1712(a0) # 16b0 <.LBB98_5+0x1e4>
    2df8:	00c50533          	add	a0,a0,a2
    2dfc:	e7d43423          	sd	t4,-408(s0)
    2e00:	01d50533          	add	a0,a0,t4
    2e04:	405c063b          	subw	a2,s8,t0
    2e08:	40c5053b          	subw	a0,a0,a2
    2e0c:	40000637          	lui	a2,0x40000
    2e10:	00001eb7          	lui	t4,0x1
    2e14:	41d40eb3          	sub	t4,s0,t4
    2e18:	e0aeb823          	sd	a0,-496(t4) # e10 <.LBB98_3+0xb50>
    2e1c:	00055463          	bgez	a0,2e24 <.LBB98_16>
    2e20:	c0000637          	lui	a2,0xc0000

0000000000002e24 <.LBB98_16>:
    2e24:	00001537          	lui	a0,0x1
    2e28:	40a40533          	sub	a0,s0,a0
    2e2c:	e0c53423          	sd	a2,-504(a0) # e08 <.LBB98_3+0xb48>
    2e30:	068da503          	lw	a0,104(s11)
    2e34:	0685a603          	lw	a2,104(a1)
    2e38:	00751e93          	slli	t4,a0,0x7
    2e3c:	e6c43023          	sd	a2,-416(s0)
    2e40:	00001537          	lui	a0,0x1
    2e44:	40a40533          	sub	a0,s0,a0
    2e48:	6b853503          	ld	a0,1720(a0) # 16b8 <.LBB98_5+0x1ec>
    2e4c:	00c50533          	add	a0,a0,a2
    2e50:	e5d43c23          	sd	t4,-424(s0)
    2e54:	01d50533          	add	a0,a0,t4
    2e58:	405c063b          	subw	a2,s8,t0
    2e5c:	40c5053b          	subw	a0,a0,a2
    2e60:	40000637          	lui	a2,0x40000
    2e64:	00001eb7          	lui	t4,0x1
    2e68:	41d40eb3          	sub	t4,s0,t4
    2e6c:	e0aeb023          	sd	a0,-512(t4) # e00 <.LBB98_3+0xb40>
    2e70:	00055463          	bgez	a0,2e78 <.LBB98_18>
    2e74:	c0000637          	lui	a2,0xc0000

0000000000002e78 <.LBB98_18>:
    2e78:	00001537          	lui	a0,0x1
    2e7c:	40a40533          	sub	a0,s0,a0
    2e80:	dec53c23          	sd	a2,-520(a0) # df8 <.LBB98_3+0xb38>
    2e84:	064da503          	lw	a0,100(s11)
    2e88:	0645a603          	lw	a2,100(a1)
    2e8c:	00751e93          	slli	t4,a0,0x7
    2e90:	00001537          	lui	a0,0x1
    2e94:	40a40533          	sub	a0,s0,a0
    2e98:	6ac53c23          	sd	a2,1720(a0) # 16b8 <.LBB98_5+0x1ec>
    2e9c:	00cb8533          	add	a0,s7,a2
    2ea0:	00001637          	lui	a2,0x1
    2ea4:	40c40633          	sub	a2,s0,a2
    2ea8:	6bd63823          	sd	t4,1712(a2) # 16b0 <.LBB98_5+0x1e4>
    2eac:	01d50533          	add	a0,a0,t4
    2eb0:	405c063b          	subw	a2,s8,t0
    2eb4:	40c5053b          	subw	a0,a0,a2
    2eb8:	40000637          	lui	a2,0x40000
    2ebc:	00001eb7          	lui	t4,0x1
    2ec0:	41d40eb3          	sub	t4,s0,t4
    2ec4:	deaeb823          	sd	a0,-528(t4) # df0 <.LBB98_3+0xb30>
    2ec8:	00055463          	bgez	a0,2ed0 <.LBB98_20>
    2ecc:	c0000637          	lui	a2,0xc0000

0000000000002ed0 <.LBB98_20>:
    2ed0:	00001537          	lui	a0,0x1
    2ed4:	40a40533          	sub	a0,s0,a0
    2ed8:	dec53423          	sd	a2,-536(a0) # de8 <.LBB98_3+0xb28>
    2edc:	dda43823          	sd	s10,-560(s0)
    2ee0:	e1e43823          	sd	t5,-496(s0)
    2ee4:	e2643423          	sd	t1,-472(s0)
    2ee8:	e3143823          	sd	a7,-464(s0)
    2eec:	e3043c23          	sd	a6,-456(s0)
    2ef0:	e4f43023          	sd	a5,-448(s0)
    2ef4:	e4e43423          	sd	a4,-440(s0)
    2ef8:	e4d43823          	sd	a3,-432(s0)
    2efc:	060da503          	lw	a0,96(s11)
    2f00:	0605a603          	lw	a2,96(a1)
    2f04:	00751693          	slli	a3,a0,0x7
    2f08:	00001537          	lui	a0,0x1
    2f0c:	40a40533          	sub	a0,s0,a0
    2f10:	6ac53423          	sd	a2,1704(a0) # 16a8 <.LBB98_5+0x1dc>
    2f14:	00cb0533          	add	a0,s6,a2
    2f18:	00001637          	lui	a2,0x1
    2f1c:	40c40633          	sub	a2,s0,a2
    2f20:	6ad63023          	sd	a3,1696(a2) # 16a0 <.LBB98_5+0x1d4>
    2f24:	00d50533          	add	a0,a0,a3
    2f28:	405c063b          	subw	a2,s8,t0
    2f2c:	40c5053b          	subw	a0,a0,a2
    2f30:	40000637          	lui	a2,0x40000
    2f34:	000016b7          	lui	a3,0x1
    2f38:	40d406b3          	sub	a3,s0,a3
    2f3c:	dea6b023          	sd	a0,-544(a3) # de0 <.LBB98_3+0xb20>
    2f40:	000016b7          	lui	a3,0x1
    2f44:	40d406b3          	sub	a3,s0,a3
    2f48:	6c06be83          	ld	t4,1728(a3) # 16c0 <.LBB98_5+0x1f4>
    2f4c:	00055463          	bgez	a0,2f54 <.LBB98_22>
    2f50:	c0000637          	lui	a2,0xc0000

0000000000002f54 <.LBB98_22>:
    2f54:	00001537          	lui	a0,0x1
    2f58:	40a40533          	sub	a0,s0,a0
    2f5c:	dcc53c23          	sd	a2,-552(a0) # dd8 <.LBB98_3+0xb18>
    2f60:	dc143423          	sd	ra,-568(s0)
    2f64:	dd943c23          	sd	s9,-552(s0)
    2f68:	df443423          	sd	s4,-536(s0)
    2f6c:	df343823          	sd	s3,-528(s0)
    2f70:	df243c23          	sd	s2,-520(s0)
    2f74:	e0943023          	sd	s1,-512(s0)
    2f78:	e1f43423          	sd	t6,-504(s0)
    2f7c:	e1c43c23          	sd	t3,-488(s0)
    2f80:	e2743023          	sd	t2,-480(s0)
    2f84:	0585ae03          	lw	t3,88(a1)
    2f88:	05c5a383          	lw	t2,92(a1)
    2f8c:	058da603          	lw	a2,88(s11)
    2f90:	05cda683          	lw	a3,92(s11)
    2f94:	00002537          	lui	a0,0x2
    2f98:	40a40533          	sub	a0,s0,a0
    2f9c:	04853503          	ld	a0,72(a0) # 2048 <.LBB98_5+0xb7c>
    2fa0:	00001737          	lui	a4,0x1
    2fa4:	40e40733          	sub	a4,s0,a4
    2fa8:	64873303          	ld	t1,1608(a4) # 1648 <.LBB98_5+0x17c>
    2fac:	00a30533          	add	a0,t1,a0
    2fb0:	00002737          	lui	a4,0x2
    2fb4:	40e40733          	sub	a4,s0,a4
    2fb8:	05873783          	ld	a5,88(a4) # 2058 <.LBB98_5+0xb8c>
    2fbc:	00001737          	lui	a4,0x1
    2fc0:	40e40733          	sub	a4,s0,a4
    2fc4:	88a73423          	sd	a0,-1912(a4) # 888 <.LBB98_3+0x5c8>
    2fc8:	00a78bb3          	add	s7,a5,a0
    2fcc:	00002537          	lui	a0,0x2
    2fd0:	40a40533          	sub	a0,s0,a0
    2fd4:	04053503          	ld	a0,64(a0) # 2040 <.LBB98_5+0xb74>
    2fd8:	00a30533          	add	a0,t1,a0
    2fdc:	00001737          	lui	a4,0x1
    2fe0:	40e40733          	sub	a4,s0,a4
    2fe4:	88a73823          	sd	a0,-1904(a4) # 890 <.LBB98_3+0x5d0>
    2fe8:	00a78b33          	add	s6,a5,a0
    2fec:	00002537          	lui	a0,0x2
    2ff0:	40a40533          	sub	a0,s0,a0
    2ff4:	03853503          	ld	a0,56(a0) # 2038 <.LBB98_5+0xb6c>
    2ff8:	00650533          	add	a0,a0,t1
    2ffc:	00001737          	lui	a4,0x1
    3000:	40e40733          	sub	a4,s0,a4
    3004:	88a73c23          	sd	a0,-1896(a4) # 898 <.LBB98_3+0x5d8>
    3008:	00a78ab3          	add	s5,a5,a0
    300c:	00002537          	lui	a0,0x2
    3010:	40a40533          	sub	a0,s0,a0
    3014:	03053503          	ld	a0,48(a0) # 2030 <.LBB98_5+0xb64>
    3018:	00650533          	add	a0,a0,t1
    301c:	00001737          	lui	a4,0x1
    3020:	40e40733          	sub	a4,s0,a4
    3024:	8aa73023          	sd	a0,-1888(a4) # 8a0 <.LBB98_3+0x5e0>
    3028:	00a78f33          	add	t5,a5,a0
    302c:	00002537          	lui	a0,0x2
    3030:	40a40533          	sub	a0,s0,a0
    3034:	02853503          	ld	a0,40(a0) # 2028 <.LBB98_5+0xb5c>
    3038:	00650533          	add	a0,a0,t1
    303c:	00001737          	lui	a4,0x1
    3040:	40e40733          	sub	a4,s0,a4
    3044:	8aa73423          	sd	a0,-1880(a4) # 8a8 <.LBB98_3+0x5e8>
    3048:	00a78733          	add	a4,a5,a0
    304c:	00002537          	lui	a0,0x2
    3050:	40a40533          	sub	a0,s0,a0
    3054:	02053503          	ld	a0,32(a0) # 2020 <.LBB98_5+0xb54>
    3058:	00650533          	add	a0,a0,t1
    305c:	00001837          	lui	a6,0x1
    3060:	41040833          	sub	a6,s0,a6
    3064:	8aa83823          	sd	a0,-1872(a6) # 8b0 <.LBB98_3+0x5f0>
    3068:	00a78833          	add	a6,a5,a0
    306c:	00002537          	lui	a0,0x2
    3070:	40a40533          	sub	a0,s0,a0
    3074:	01853503          	ld	a0,24(a0) # 2018 <.LBB98_5+0xb4c>
    3078:	00650533          	add	a0,a0,t1
    307c:	000018b7          	lui	a7,0x1
    3080:	411408b3          	sub	a7,s0,a7
    3084:	8aa8bc23          	sd	a0,-1864(a7) # 8b8 <.LBB98_3+0x5f8>
    3088:	00a78533          	add	a0,a5,a0
    308c:	000028b7          	lui	a7,0x2
    3090:	411408b3          	sub	a7,s0,a7
    3094:	0108b883          	ld	a7,16(a7) # 2010 <.LBB98_5+0xb44>
    3098:	006888b3          	add	a7,a7,t1
    309c:	00001337          	lui	t1,0x1
    30a0:	40640333          	sub	t1,s0,t1
    30a4:	8d133023          	sd	a7,-1856(t1) # 8c0 <.LBB98_3+0x600>
    30a8:	011787b3          	add	a5,a5,a7
    30ac:	00769893          	slli	a7,a3,0x7
    30b0:	00761313          	slli	t1,a2,0x7
    30b4:	00001637          	lui	a2,0x1
    30b8:	40c40633          	sub	a2,s0,a2
    30bc:	68763c23          	sd	t2,1688(a2) # 1698 <.LBB98_5+0x1cc>
    30c0:	00001637          	lui	a2,0x1
    30c4:	40c40633          	sub	a2,s0,a2
    30c8:	6c863603          	ld	a2,1736(a2) # 16c8 <.LBB98_5+0x1fc>
    30cc:	00760633          	add	a2,a2,t2
    30d0:	000016b7          	lui	a3,0x1
    30d4:	40d406b3          	sub	a3,s0,a3
    30d8:	6dc6b423          	sd	t3,1736(a3) # 16c8 <.LBB98_5+0x1fc>
    30dc:	01ce86b3          	add	a3,t4,t3
    30e0:	000013b7          	lui	t2,0x1
    30e4:	407403b3          	sub	t2,s0,t2
    30e8:	6863b823          	sd	t1,1680(t2) # 1690 <.LBB98_5+0x1c4>
    30ec:	006686b3          	add	a3,a3,t1
    30f0:	00001337          	lui	t1,0x1
    30f4:	40640333          	sub	t1,s0,t1
    30f8:	6d133023          	sd	a7,1728(t1) # 16c0 <.LBB98_5+0x1f4>
    30fc:	01160633          	add	a2,a2,a7
    3100:	405c08bb          	subw	a7,s8,t0
    3104:	411608bb          	subw	a7,a2,a7
    3108:	fffa6d37          	lui	s10,0xfffa6
    310c:	405c063b          	subw	a2,s8,t0
    3110:	40c686bb          	subw	a3,a3,a2
    3114:	00001637          	lui	a2,0x1
    3118:	40c40633          	sub	a2,s0,a2
    311c:	e6d63023          	sd	a3,-416(a2) # e60 <.LBB98_3+0xba0>
    3120:	40000637          	lui	a2,0x40000
    3124:	000016b7          	lui	a3,0x1
    3128:	40d406b3          	sub	a3,s0,a3
    312c:	dd16b823          	sd	a7,-560(a3) # dd0 <.LBB98_3+0xb10>
    3130:	0008d463          	bgez	a7,3138 <.LBB98_24>
    3134:	c0000637          	lui	a2,0xc0000

0000000000003138 <.LBB98_24>:
    3138:	000016b7          	lui	a3,0x1
    313c:	40d406b3          	sub	a3,s0,a3
    3140:	dcc6b423          	sd	a2,-568(a3) # dc8 <.LBB98_3+0xb08>
    3144:	0545a603          	lw	a2,84(a1)
    3148:	f8c43423          	sd	a2,-120(s0)
    314c:	00c5a603          	lw	a2,12(a1)
    3150:	ecc43823          	sd	a2,-304(s0)
    3154:	0085a603          	lw	a2,8(a1)
    3158:	ecc43423          	sd	a2,-312(s0)
    315c:	0045a603          	lw	a2,4(a1)
    3160:	ecc43023          	sd	a2,-320(s0)
    3164:	0005a603          	lw	a2,0(a1)
    3168:	eac43c23          	sd	a2,-328(s0)
    316c:	0105a603          	lw	a2,16(a1)
    3170:	ecc43c23          	sd	a2,-296(s0)
    3174:	0145a603          	lw	a2,20(a1)
    3178:	eec43023          	sd	a2,-288(s0)
    317c:	0185a603          	lw	a2,24(a1)
    3180:	eec43423          	sd	a2,-280(s0)
    3184:	01c5a603          	lw	a2,28(a1)
    3188:	eec43823          	sd	a2,-272(s0)
    318c:	0205a603          	lw	a2,32(a1)
    3190:	eec43c23          	sd	a2,-264(s0)
    3194:	0245a603          	lw	a2,36(a1)
    3198:	f0c43023          	sd	a2,-256(s0)
    319c:	0285a603          	lw	a2,40(a1)
    31a0:	f0c43423          	sd	a2,-248(s0)
    31a4:	02c5a603          	lw	a2,44(a1)
    31a8:	f0c43823          	sd	a2,-240(s0)
    31ac:	0305a603          	lw	a2,48(a1)
    31b0:	f2c43c23          	sd	a2,-200(s0)
    31b4:	0345a603          	lw	a2,52(a1)
    31b8:	f4c43023          	sd	a2,-192(s0)
    31bc:	0385a603          	lw	a2,56(a1)
    31c0:	f4c43423          	sd	a2,-184(s0)
    31c4:	03c5a603          	lw	a2,60(a1)
    31c8:	f4c43823          	sd	a2,-176(s0)
    31cc:	0405a603          	lw	a2,64(a1)
    31d0:	f4c43c23          	sd	a2,-168(s0)
    31d4:	0445a603          	lw	a2,68(a1)
    31d8:	f6c43023          	sd	a2,-160(s0)
    31dc:	0485a603          	lw	a2,72(a1)
    31e0:	f6c43423          	sd	a2,-152(s0)
    31e4:	04c5a603          	lw	a2,76(a1)
    31e8:	f6c43823          	sd	a2,-144(s0)
    31ec:	0505a583          	lw	a1,80(a1)
    31f0:	f6b43c23          	sd	a1,-136(s0)
    31f4:	054dac83          	lw	s9,84(s11)
    31f8:	00cda583          	lw	a1,12(s11)
    31fc:	f8a43823          	sd	a0,-112(s0)
    3200:	00001537          	lui	a0,0x1
    3204:	40a40533          	sub	a0,s0,a0
    3208:	dab53423          	sd	a1,-600(a0) # da8 <.LBB98_3+0xae8>
    320c:	008da583          	lw	a1,8(s11)
    3210:	00001537          	lui	a0,0x1
    3214:	40a40533          	sub	a0,s0,a0
    3218:	dab53023          	sd	a1,-608(a0) # da0 <.LBB98_3+0xae0>
    321c:	004da583          	lw	a1,4(s11)
    3220:	00001537          	lui	a0,0x1
    3224:	40a40533          	sub	a0,s0,a0
    3228:	d8b53c23          	sd	a1,-616(a0) # d98 <.LBB98_3+0xad8>
    322c:	000da583          	lw	a1,0(s11)
    3230:	00001537          	lui	a0,0x1
    3234:	40a40533          	sub	a0,s0,a0
    3238:	d8b53823          	sd	a1,-624(a0) # d90 <.LBB98_3+0xad0>
    323c:	010da583          	lw	a1,16(s11)
    3240:	00001537          	lui	a0,0x1
    3244:	40a40533          	sub	a0,s0,a0
    3248:	d8b53423          	sd	a1,-632(a0) # d88 <.LBB98_3+0xac8>
    324c:	014da583          	lw	a1,20(s11)
    3250:	00001537          	lui	a0,0x1
    3254:	40a40533          	sub	a0,s0,a0
    3258:	d8b53023          	sd	a1,-640(a0) # d80 <.LBB98_3+0xac0>
    325c:	018da583          	lw	a1,24(s11)
    3260:	01cda303          	lw	t1,28(s11)
    3264:	020da083          	lw	ra,32(s11)
    3268:	024da903          	lw	s2,36(s11)
    326c:	028da983          	lw	s3,40(s11)
    3270:	02cda483          	lw	s1,44(s11)
    3274:	030da683          	lw	a3,48(s11)
    3278:	034da883          	lw	a7,52(s11)
    327c:	038da283          	lw	t0,56(s11)
    3280:	03cda383          	lw	t2,60(s11)
    3284:	040dae03          	lw	t3,64(s11)
    3288:	044dae83          	lw	t4,68(s11)
    328c:	048daf83          	lw	t6,72(s11)
    3290:	04cdaa03          	lw	s4,76(s11)
    3294:	050dad83          	lw	s11,80(s11)
    3298:	003b8603          	lb	a2,3(s7)
    329c:	00001537          	lui	a0,0x1
    32a0:	40a40533          	sub	a0,s0,a0
    32a4:	e6c53423          	sd	a2,-408(a0) # e68 <.LBB98_3+0xba8>
    32a8:	002b8603          	lb	a2,2(s7)
    32ac:	00001537          	lui	a0,0x1
    32b0:	40a40533          	sub	a0,s0,a0
    32b4:	e6c53823          	sd	a2,-400(a0) # e70 <.LBB98_3+0xbb0>
    32b8:	001b8603          	lb	a2,1(s7)
    32bc:	00001537          	lui	a0,0x1
    32c0:	40a40533          	sub	a0,s0,a0
    32c4:	e6c53c23          	sd	a2,-392(a0) # e78 <.LBB98_3+0xbb8>
    32c8:	000b8603          	lb	a2,0(s7)
    32cc:	00001537          	lui	a0,0x1
    32d0:	40a40533          	sub	a0,s0,a0
    32d4:	e8c53023          	sd	a2,-384(a0) # e80 <.LBB98_3+0xbc0>
    32d8:	004b8603          	lb	a2,4(s7)
    32dc:	00001537          	lui	a0,0x1
    32e0:	40a40533          	sub	a0,s0,a0
    32e4:	e8c53423          	sd	a2,-376(a0) # e88 <.LBB98_3+0xbc8>
    32e8:	005b8603          	lb	a2,5(s7)
    32ec:	00001537          	lui	a0,0x1
    32f0:	40a40533          	sub	a0,s0,a0
    32f4:	e8c53823          	sd	a2,-368(a0) # e90 <.LBB98_3+0xbd0>
    32f8:	006b8603          	lb	a2,6(s7)
    32fc:	00001537          	lui	a0,0x1
    3300:	40a40533          	sub	a0,s0,a0
    3304:	e8c53c23          	sd	a2,-360(a0) # e98 <.LBB98_3+0xbd8>
    3308:	007b8603          	lb	a2,7(s7)
    330c:	00001537          	lui	a0,0x1
    3310:	40a40533          	sub	a0,s0,a0
    3314:	eac53023          	sd	a2,-352(a0) # ea0 <.LBB98_3+0xbe0>
    3318:	008b8603          	lb	a2,8(s7)
    331c:	00001537          	lui	a0,0x1
    3320:	40a40533          	sub	a0,s0,a0
    3324:	eac53423          	sd	a2,-344(a0) # ea8 <.LBB98_3+0xbe8>
    3328:	009b8603          	lb	a2,9(s7)
    332c:	00001537          	lui	a0,0x1
    3330:	40a40533          	sub	a0,s0,a0
    3334:	eac53823          	sd	a2,-336(a0) # eb0 <.LBB98_3+0xbf0>
    3338:	00ab8603          	lb	a2,10(s7)
    333c:	00001537          	lui	a0,0x1
    3340:	40a40533          	sub	a0,s0,a0
    3344:	eac53c23          	sd	a2,-328(a0) # eb8 <.LBB98_3+0xbf8>
    3348:	00bb8603          	lb	a2,11(s7)
    334c:	00001537          	lui	a0,0x1
    3350:	40a40533          	sub	a0,s0,a0
    3354:	ecc53023          	sd	a2,-320(a0) # ec0 <.LBB98_3+0xc00>
    3358:	00cb8603          	lb	a2,12(s7)
    335c:	00001537          	lui	a0,0x1
    3360:	40a40533          	sub	a0,s0,a0
    3364:	ecc53423          	sd	a2,-312(a0) # ec8 <.LBB98_3+0xc08>
    3368:	00db8603          	lb	a2,13(s7)
    336c:	00001537          	lui	a0,0x1
    3370:	40a40533          	sub	a0,s0,a0
    3374:	ecc53823          	sd	a2,-304(a0) # ed0 <.LBB98_3+0xc10>
    3378:	00eb8603          	lb	a2,14(s7)
    337c:	00001537          	lui	a0,0x1
    3380:	40a40533          	sub	a0,s0,a0
    3384:	ecc53c23          	sd	a2,-296(a0) # ed8 <.LBB98_3+0xc18>
    3388:	00fb8603          	lb	a2,15(s7)
    338c:	00001537          	lui	a0,0x1
    3390:	40a40533          	sub	a0,s0,a0
    3394:	eec53023          	sd	a2,-288(a0) # ee0 <.LBB98_3+0xc20>
    3398:	010b8603          	lb	a2,16(s7)
    339c:	00001537          	lui	a0,0x1
    33a0:	40a40533          	sub	a0,s0,a0
    33a4:	eec53423          	sd	a2,-280(a0) # ee8 <.LBB98_3+0xc28>
    33a8:	011b8603          	lb	a2,17(s7)
    33ac:	00001537          	lui	a0,0x1
    33b0:	40a40533          	sub	a0,s0,a0
    33b4:	eec53823          	sd	a2,-272(a0) # ef0 <.LBB98_3+0xc30>
    33b8:	012b8603          	lb	a2,18(s7)
    33bc:	00001537          	lui	a0,0x1
    33c0:	40a40533          	sub	a0,s0,a0
    33c4:	eec53c23          	sd	a2,-264(a0) # ef8 <.LBB98_3+0xc38>
    33c8:	013b8603          	lb	a2,19(s7)
    33cc:	00001537          	lui	a0,0x1
    33d0:	40a40533          	sub	a0,s0,a0
    33d4:	f0c53023          	sd	a2,-256(a0) # f00 <.LBB98_3+0xc40>
    33d8:	014b8603          	lb	a2,20(s7)
    33dc:	00001537          	lui	a0,0x1
    33e0:	40a40533          	sub	a0,s0,a0
    33e4:	f0c53423          	sd	a2,-248(a0) # f08 <.LBB98_3+0xc48>
    33e8:	015b8603          	lb	a2,21(s7)
    33ec:	00001537          	lui	a0,0x1
    33f0:	40a40533          	sub	a0,s0,a0
    33f4:	f0c53823          	sd	a2,-240(a0) # f10 <.LBB98_3+0xc50>
    33f8:	016b8603          	lb	a2,22(s7)
    33fc:	00001537          	lui	a0,0x1
    3400:	40a40533          	sub	a0,s0,a0
    3404:	f0c53c23          	sd	a2,-232(a0) # f18 <.LBB98_4>
    3408:	017b8603          	lb	a2,23(s7)
    340c:	00001537          	lui	a0,0x1
    3410:	40a40533          	sub	a0,s0,a0
    3414:	f2c53023          	sd	a2,-224(a0) # f20 <.LBB98_4+0x8>
    3418:	018b8603          	lb	a2,24(s7)
    341c:	00001537          	lui	a0,0x1
    3420:	40a40533          	sub	a0,s0,a0
    3424:	f2c53423          	sd	a2,-216(a0) # f28 <.LBB98_4+0x10>
    3428:	019b8603          	lb	a2,25(s7)
    342c:	00001537          	lui	a0,0x1
    3430:	40a40533          	sub	a0,s0,a0
    3434:	f2c53823          	sd	a2,-208(a0) # f30 <.LBB98_4+0x18>
    3438:	01ab8603          	lb	a2,26(s7)
    343c:	00001537          	lui	a0,0x1
    3440:	40a40533          	sub	a0,s0,a0
    3444:	f2c53c23          	sd	a2,-200(a0) # f38 <.LBB98_4+0x20>
    3448:	01bb8603          	lb	a2,27(s7)
    344c:	00001537          	lui	a0,0x1
    3450:	40a40533          	sub	a0,s0,a0
    3454:	f4c53023          	sd	a2,-192(a0) # f40 <.LBB98_4+0x28>
    3458:	01cb8603          	lb	a2,28(s7)
    345c:	00001537          	lui	a0,0x1
    3460:	40a40533          	sub	a0,s0,a0
    3464:	f4c53423          	sd	a2,-184(a0) # f48 <.LBB98_4+0x30>
    3468:	01db8603          	lb	a2,29(s7)
    346c:	00001537          	lui	a0,0x1
    3470:	40a40533          	sub	a0,s0,a0
    3474:	f4c53823          	sd	a2,-176(a0) # f50 <.LBB98_4+0x38>
    3478:	01eb8603          	lb	a2,30(s7)
    347c:	00001537          	lui	a0,0x1
    3480:	40a40533          	sub	a0,s0,a0
    3484:	f4c53c23          	sd	a2,-168(a0) # f58 <.LBB98_4+0x40>
    3488:	f9043503          	ld	a0,-112(s0)
    348c:	01fb8b83          	lb	s7,31(s7)
    3490:	00001637          	lui	a2,0x1
    3494:	40c40633          	sub	a2,s0,a2
    3498:	f7763023          	sd	s7,-160(a2) # f60 <.LBB98_4+0x48>
    349c:	01fb0b83          	lb	s7,31(s6)
    34a0:	00001637          	lui	a2,0x1
    34a4:	40c40633          	sub	a2,s0,a2
    34a8:	f7763423          	sd	s7,-152(a2) # f68 <.LBB98_4+0x50>
    34ac:	01eb0b83          	lb	s7,30(s6)
    34b0:	00001637          	lui	a2,0x1
    34b4:	40c40633          	sub	a2,s0,a2
    34b8:	f7763823          	sd	s7,-144(a2) # f70 <.LBB98_4+0x58>
    34bc:	01db0b83          	lb	s7,29(s6)
    34c0:	00001637          	lui	a2,0x1
    34c4:	40c40633          	sub	a2,s0,a2
    34c8:	f7763c23          	sd	s7,-136(a2) # f78 <.LBB98_4+0x60>
    34cc:	01cb0b83          	lb	s7,28(s6)
    34d0:	00001637          	lui	a2,0x1
    34d4:	40c40633          	sub	a2,s0,a2
    34d8:	f9763023          	sd	s7,-128(a2) # f80 <.LBB98_4+0x68>
    34dc:	01bb0b83          	lb	s7,27(s6)
    34e0:	00001637          	lui	a2,0x1
    34e4:	40c40633          	sub	a2,s0,a2
    34e8:	f9763423          	sd	s7,-120(a2) # f88 <.LBB98_4+0x70>
    34ec:	01ab0b83          	lb	s7,26(s6)
    34f0:	00001637          	lui	a2,0x1
    34f4:	40c40633          	sub	a2,s0,a2
    34f8:	f9763823          	sd	s7,-112(a2) # f90 <.LBB98_4+0x78>
    34fc:	019b0b83          	lb	s7,25(s6)
    3500:	00001637          	lui	a2,0x1
    3504:	40c40633          	sub	a2,s0,a2
    3508:	f9763c23          	sd	s7,-104(a2) # f98 <.LBB98_4+0x80>
    350c:	018b0b83          	lb	s7,24(s6)
    3510:	00001637          	lui	a2,0x1
    3514:	40c40633          	sub	a2,s0,a2
    3518:	fb763023          	sd	s7,-96(a2) # fa0 <.LBB98_4+0x88>
    351c:	017b0b83          	lb	s7,23(s6)
    3520:	00001637          	lui	a2,0x1
    3524:	40c40633          	sub	a2,s0,a2
    3528:	fb763423          	sd	s7,-88(a2) # fa8 <.LBB98_4+0x90>
    352c:	016b0b83          	lb	s7,22(s6)
    3530:	00001637          	lui	a2,0x1
    3534:	40c40633          	sub	a2,s0,a2
    3538:	fb763823          	sd	s7,-80(a2) # fb0 <.LBB98_4+0x98>
    353c:	015b0b83          	lb	s7,21(s6)
    3540:	00001637          	lui	a2,0x1
    3544:	40c40633          	sub	a2,s0,a2
    3548:	fb763c23          	sd	s7,-72(a2) # fb8 <.LBB98_4+0xa0>
    354c:	014b0b83          	lb	s7,20(s6)
    3550:	00001637          	lui	a2,0x1
    3554:	40c40633          	sub	a2,s0,a2
    3558:	fd763023          	sd	s7,-64(a2) # fc0 <.LBB98_4+0xa8>
    355c:	013b0b83          	lb	s7,19(s6)
    3560:	00001637          	lui	a2,0x1
    3564:	40c40633          	sub	a2,s0,a2
    3568:	fd763423          	sd	s7,-56(a2) # fc8 <.LBB98_4+0xb0>
    356c:	012b0b83          	lb	s7,18(s6)
    3570:	00001637          	lui	a2,0x1
    3574:	40c40633          	sub	a2,s0,a2
    3578:	fd763823          	sd	s7,-48(a2) # fd0 <.LBB98_4+0xb8>
    357c:	011b0b83          	lb	s7,17(s6)
    3580:	00001637          	lui	a2,0x1
    3584:	40c40633          	sub	a2,s0,a2
    3588:	fd763c23          	sd	s7,-40(a2) # fd8 <.LBB98_4+0xc0>
    358c:	010b0b83          	lb	s7,16(s6)
    3590:	00001637          	lui	a2,0x1
    3594:	40c40633          	sub	a2,s0,a2
    3598:	ff763023          	sd	s7,-32(a2) # fe0 <.LBB98_4+0xc8>
    359c:	00fb0b83          	lb	s7,15(s6)
    35a0:	00001637          	lui	a2,0x1
    35a4:	40c40633          	sub	a2,s0,a2
    35a8:	ff763423          	sd	s7,-24(a2) # fe8 <.LBB98_4+0xd0>
    35ac:	00eb0b83          	lb	s7,14(s6)
    35b0:	00001637          	lui	a2,0x1
    35b4:	40c40633          	sub	a2,s0,a2
    35b8:	ff763823          	sd	s7,-16(a2) # ff0 <.LBB98_4+0xd8>
    35bc:	00db0b83          	lb	s7,13(s6)
    35c0:	00001637          	lui	a2,0x1
    35c4:	40c40633          	sub	a2,s0,a2
    35c8:	ff763c23          	sd	s7,-8(a2) # ff8 <.LBB98_4+0xe0>
    35cc:	00cb0b83          	lb	s7,12(s6)
    35d0:	00001637          	lui	a2,0x1
    35d4:	40c40633          	sub	a2,s0,a2
    35d8:	01763023          	sd	s7,0(a2) # 1000 <.LBB98_4+0xe8>
    35dc:	00bb0b83          	lb	s7,11(s6)
    35e0:	00001637          	lui	a2,0x1
    35e4:	40c40633          	sub	a2,s0,a2
    35e8:	01763423          	sd	s7,8(a2) # 1008 <.LBB98_4+0xf0>
    35ec:	00ab0b83          	lb	s7,10(s6)
    35f0:	00001637          	lui	a2,0x1
    35f4:	40c40633          	sub	a2,s0,a2
    35f8:	01763823          	sd	s7,16(a2) # 1010 <.LBB98_4+0xf8>
    35fc:	009b0b83          	lb	s7,9(s6)
    3600:	00001637          	lui	a2,0x1
    3604:	40c40633          	sub	a2,s0,a2
    3608:	01763c23          	sd	s7,24(a2) # 1018 <.LBB98_4+0x100>
    360c:	008b0b83          	lb	s7,8(s6)
    3610:	00001637          	lui	a2,0x1
    3614:	40c40633          	sub	a2,s0,a2
    3618:	03763023          	sd	s7,32(a2) # 1020 <.LBB98_4+0x108>
    361c:	007b0b83          	lb	s7,7(s6)
    3620:	00001637          	lui	a2,0x1
    3624:	40c40633          	sub	a2,s0,a2
    3628:	03763423          	sd	s7,40(a2) # 1028 <.LBB98_4+0x110>
    362c:	006b0b83          	lb	s7,6(s6)
    3630:	00001637          	lui	a2,0x1
    3634:	40c40633          	sub	a2,s0,a2
    3638:	03763823          	sd	s7,48(a2) # 1030 <.LBB98_4+0x118>
    363c:	005b0b83          	lb	s7,5(s6)
    3640:	00001637          	lui	a2,0x1
    3644:	40c40633          	sub	a2,s0,a2
    3648:	03763c23          	sd	s7,56(a2) # 1038 <.LBB98_4+0x120>
    364c:	004b0b83          	lb	s7,4(s6)
    3650:	00001637          	lui	a2,0x1
    3654:	40c40633          	sub	a2,s0,a2
    3658:	05763023          	sd	s7,64(a2) # 1040 <.LBB98_4+0x128>
    365c:	003b0b83          	lb	s7,3(s6)
    3660:	00001637          	lui	a2,0x1
    3664:	40c40633          	sub	a2,s0,a2
    3668:	05763423          	sd	s7,72(a2) # 1048 <.LBB98_4+0x130>
    366c:	002b0b83          	lb	s7,2(s6)
    3670:	00001637          	lui	a2,0x1
    3674:	40c40633          	sub	a2,s0,a2
    3678:	05763823          	sd	s7,80(a2) # 1050 <.LBB98_4+0x138>
    367c:	001b0b83          	lb	s7,1(s6)
    3680:	00001637          	lui	a2,0x1
    3684:	40c40633          	sub	a2,s0,a2
    3688:	05763c23          	sd	s7,88(a2) # 1058 <.LBB98_4+0x140>
    368c:	000b0b03          	lb	s6,0(s6)
    3690:	00001637          	lui	a2,0x1
    3694:	40c40633          	sub	a2,s0,a2
    3698:	07663023          	sd	s6,96(a2) # 1060 <.LBB98_4+0x148>
    369c:	01fa8b03          	lb	s6,31(s5)
    36a0:	00001637          	lui	a2,0x1
    36a4:	40c40633          	sub	a2,s0,a2
    36a8:	07663423          	sd	s6,104(a2) # 1068 <.LBB98_4+0x150>
    36ac:	01ea8b03          	lb	s6,30(s5)
    36b0:	00001637          	lui	a2,0x1
    36b4:	40c40633          	sub	a2,s0,a2
    36b8:	07663823          	sd	s6,112(a2) # 1070 <.LBB98_4+0x158>
    36bc:	01da8b03          	lb	s6,29(s5)
    36c0:	00001637          	lui	a2,0x1
    36c4:	40c40633          	sub	a2,s0,a2
    36c8:	07663c23          	sd	s6,120(a2) # 1078 <.LBB98_4+0x160>
    36cc:	01ca8b03          	lb	s6,28(s5)
    36d0:	00001637          	lui	a2,0x1
    36d4:	40c40633          	sub	a2,s0,a2
    36d8:	09663023          	sd	s6,128(a2) # 1080 <.LBB98_4+0x168>
    36dc:	01ba8b03          	lb	s6,27(s5)
    36e0:	00001637          	lui	a2,0x1
    36e4:	40c40633          	sub	a2,s0,a2
    36e8:	09663423          	sd	s6,136(a2) # 1088 <.LBB98_4+0x170>
    36ec:	01aa8b03          	lb	s6,26(s5)
    36f0:	00001637          	lui	a2,0x1
    36f4:	40c40633          	sub	a2,s0,a2
    36f8:	09663823          	sd	s6,144(a2) # 1090 <.LBB98_4+0x178>
    36fc:	019a8b03          	lb	s6,25(s5)
    3700:	00001637          	lui	a2,0x1
    3704:	40c40633          	sub	a2,s0,a2
    3708:	09663c23          	sd	s6,152(a2) # 1098 <.LBB98_4+0x180>
    370c:	018a8b03          	lb	s6,24(s5)
    3710:	00001637          	lui	a2,0x1
    3714:	40c40633          	sub	a2,s0,a2
    3718:	0b663023          	sd	s6,160(a2) # 10a0 <.LBB98_4+0x188>
    371c:	017a8b03          	lb	s6,23(s5)
    3720:	00001637          	lui	a2,0x1
    3724:	40c40633          	sub	a2,s0,a2
    3728:	0b663423          	sd	s6,168(a2) # 10a8 <.LBB98_4+0x190>
    372c:	016a8b03          	lb	s6,22(s5)
    3730:	00001637          	lui	a2,0x1
    3734:	40c40633          	sub	a2,s0,a2
    3738:	0b663823          	sd	s6,176(a2) # 10b0 <.LBB98_4+0x198>
    373c:	015a8b03          	lb	s6,21(s5)
    3740:	00001637          	lui	a2,0x1
    3744:	40c40633          	sub	a2,s0,a2
    3748:	0b663c23          	sd	s6,184(a2) # 10b8 <.LBB98_4+0x1a0>
    374c:	014a8b03          	lb	s6,20(s5)
    3750:	00001637          	lui	a2,0x1
    3754:	40c40633          	sub	a2,s0,a2
    3758:	0d663023          	sd	s6,192(a2) # 10c0 <.LBB98_4+0x1a8>
    375c:	013a8b03          	lb	s6,19(s5)
    3760:	00001637          	lui	a2,0x1
    3764:	40c40633          	sub	a2,s0,a2
    3768:	0d663423          	sd	s6,200(a2) # 10c8 <.LBB98_4+0x1b0>
    376c:	012a8b03          	lb	s6,18(s5)
    3770:	00001637          	lui	a2,0x1
    3774:	40c40633          	sub	a2,s0,a2
    3778:	0d663823          	sd	s6,208(a2) # 10d0 <.LBB98_4+0x1b8>
    377c:	011a8b03          	lb	s6,17(s5)
    3780:	00001637          	lui	a2,0x1
    3784:	40c40633          	sub	a2,s0,a2
    3788:	0d663c23          	sd	s6,216(a2) # 10d8 <.LBB98_4+0x1c0>
    378c:	010a8b03          	lb	s6,16(s5)
    3790:	00001637          	lui	a2,0x1
    3794:	40c40633          	sub	a2,s0,a2
    3798:	0f663023          	sd	s6,224(a2) # 10e0 <.LBB98_4+0x1c8>
    379c:	00fa8b03          	lb	s6,15(s5)
    37a0:	00001637          	lui	a2,0x1
    37a4:	40c40633          	sub	a2,s0,a2
    37a8:	0f663423          	sd	s6,232(a2) # 10e8 <.LBB98_4+0x1d0>
    37ac:	00ea8b03          	lb	s6,14(s5)
    37b0:	00001637          	lui	a2,0x1
    37b4:	40c40633          	sub	a2,s0,a2
    37b8:	0f663823          	sd	s6,240(a2) # 10f0 <.LBB98_4+0x1d8>
    37bc:	00da8b03          	lb	s6,13(s5)
    37c0:	00001637          	lui	a2,0x1
    37c4:	40c40633          	sub	a2,s0,a2
    37c8:	0f663c23          	sd	s6,248(a2) # 10f8 <.LBB98_4+0x1e0>
    37cc:	00ca8b03          	lb	s6,12(s5)
    37d0:	00001637          	lui	a2,0x1
    37d4:	40c40633          	sub	a2,s0,a2
    37d8:	11663023          	sd	s6,256(a2) # 1100 <.LBB98_4+0x1e8>
    37dc:	00ba8b03          	lb	s6,11(s5)
    37e0:	00001637          	lui	a2,0x1
    37e4:	40c40633          	sub	a2,s0,a2
    37e8:	11663423          	sd	s6,264(a2) # 1108 <.LBB98_4+0x1f0>
    37ec:	00aa8b03          	lb	s6,10(s5)
    37f0:	00001637          	lui	a2,0x1
    37f4:	40c40633          	sub	a2,s0,a2
    37f8:	11663823          	sd	s6,272(a2) # 1110 <.LBB98_4+0x1f8>
    37fc:	009a8b03          	lb	s6,9(s5)
    3800:	00001637          	lui	a2,0x1
    3804:	40c40633          	sub	a2,s0,a2
    3808:	11663c23          	sd	s6,280(a2) # 1118 <.LBB98_4+0x200>
    380c:	008a8b03          	lb	s6,8(s5)
    3810:	00001637          	lui	a2,0x1
    3814:	40c40633          	sub	a2,s0,a2
    3818:	13663023          	sd	s6,288(a2) # 1120 <.LBB98_4+0x208>
    381c:	007a8b03          	lb	s6,7(s5)
    3820:	00001637          	lui	a2,0x1
    3824:	40c40633          	sub	a2,s0,a2
    3828:	13663423          	sd	s6,296(a2) # 1128 <.LBB98_4+0x210>
    382c:	006a8b03          	lb	s6,6(s5)
    3830:	00001637          	lui	a2,0x1
    3834:	40c40633          	sub	a2,s0,a2
    3838:	13663823          	sd	s6,304(a2) # 1130 <.LBB98_4+0x218>
    383c:	005a8b03          	lb	s6,5(s5)
    3840:	00001637          	lui	a2,0x1
    3844:	40c40633          	sub	a2,s0,a2
    3848:	13663c23          	sd	s6,312(a2) # 1138 <.LBB98_4+0x220>
    384c:	004a8b03          	lb	s6,4(s5)
    3850:	00001637          	lui	a2,0x1
    3854:	40c40633          	sub	a2,s0,a2
    3858:	15663023          	sd	s6,320(a2) # 1140 <.LBB98_4+0x228>
    385c:	003a8b03          	lb	s6,3(s5)
    3860:	00001637          	lui	a2,0x1
    3864:	40c40633          	sub	a2,s0,a2
    3868:	15663423          	sd	s6,328(a2) # 1148 <.LBB98_4+0x230>
    386c:	002a8b03          	lb	s6,2(s5)
    3870:	00001637          	lui	a2,0x1
    3874:	40c40633          	sub	a2,s0,a2
    3878:	15663823          	sd	s6,336(a2) # 1150 <.LBB98_4+0x238>
    387c:	001a8b03          	lb	s6,1(s5)
    3880:	00001637          	lui	a2,0x1
    3884:	40c40633          	sub	a2,s0,a2
    3888:	15663c23          	sd	s6,344(a2) # 1158 <.LBB98_4+0x240>
    388c:	000a8a83          	lb	s5,0(s5)
    3890:	00001637          	lui	a2,0x1
    3894:	40c40633          	sub	a2,s0,a2
    3898:	17563023          	sd	s5,352(a2) # 1160 <.LBB98_4+0x248>
    389c:	01ff0a83          	lb	s5,31(t5)
    38a0:	00001637          	lui	a2,0x1
    38a4:	40c40633          	sub	a2,s0,a2
    38a8:	17563423          	sd	s5,360(a2) # 1168 <.LBB98_4+0x250>
    38ac:	01ef0a83          	lb	s5,30(t5)
    38b0:	00001637          	lui	a2,0x1
    38b4:	40c40633          	sub	a2,s0,a2
    38b8:	17563823          	sd	s5,368(a2) # 1170 <.LBB98_4+0x258>
    38bc:	01df0a83          	lb	s5,29(t5)
    38c0:	00001637          	lui	a2,0x1
    38c4:	40c40633          	sub	a2,s0,a2
    38c8:	17563c23          	sd	s5,376(a2) # 1178 <.LBB98_4+0x260>
    38cc:	01cf0a83          	lb	s5,28(t5)
    38d0:	00001637          	lui	a2,0x1
    38d4:	40c40633          	sub	a2,s0,a2
    38d8:	19563023          	sd	s5,384(a2) # 1180 <.LBB98_4+0x268>
    38dc:	01bf0a83          	lb	s5,27(t5)
    38e0:	00001637          	lui	a2,0x1
    38e4:	40c40633          	sub	a2,s0,a2
    38e8:	19563423          	sd	s5,392(a2) # 1188 <.LBB98_4+0x270>
    38ec:	01af0a83          	lb	s5,26(t5)
    38f0:	00001637          	lui	a2,0x1
    38f4:	40c40633          	sub	a2,s0,a2
    38f8:	19563823          	sd	s5,400(a2) # 1190 <.LBB98_4+0x278>
    38fc:	019f0a83          	lb	s5,25(t5)
    3900:	00001637          	lui	a2,0x1
    3904:	40c40633          	sub	a2,s0,a2
    3908:	19563c23          	sd	s5,408(a2) # 1198 <.LBB98_4+0x280>
    390c:	018f0a83          	lb	s5,24(t5)
    3910:	00001637          	lui	a2,0x1
    3914:	40c40633          	sub	a2,s0,a2
    3918:	1b563023          	sd	s5,416(a2) # 11a0 <.LBB98_4+0x288>
    391c:	017f0a83          	lb	s5,23(t5)
    3920:	00001637          	lui	a2,0x1
    3924:	40c40633          	sub	a2,s0,a2
    3928:	1b563423          	sd	s5,424(a2) # 11a8 <.LBB98_4+0x290>
    392c:	016f0a83          	lb	s5,22(t5)
    3930:	00001637          	lui	a2,0x1
    3934:	40c40633          	sub	a2,s0,a2
    3938:	1b563823          	sd	s5,432(a2) # 11b0 <.LBB98_4+0x298>
    393c:	015f0a83          	lb	s5,21(t5)
    3940:	00001637          	lui	a2,0x1
    3944:	40c40633          	sub	a2,s0,a2
    3948:	1b563c23          	sd	s5,440(a2) # 11b8 <.LBB98_4+0x2a0>
    394c:	014f0a83          	lb	s5,20(t5)
    3950:	00001637          	lui	a2,0x1
    3954:	40c40633          	sub	a2,s0,a2
    3958:	1d563023          	sd	s5,448(a2) # 11c0 <.LBB98_4+0x2a8>
    395c:	013f0a83          	lb	s5,19(t5)
    3960:	00001637          	lui	a2,0x1
    3964:	40c40633          	sub	a2,s0,a2
    3968:	1d563423          	sd	s5,456(a2) # 11c8 <.LBB98_4+0x2b0>
    396c:	012f0a83          	lb	s5,18(t5)
    3970:	00001637          	lui	a2,0x1
    3974:	40c40633          	sub	a2,s0,a2
    3978:	1d563823          	sd	s5,464(a2) # 11d0 <.LBB98_4+0x2b8>
    397c:	011f0a83          	lb	s5,17(t5)
    3980:	00001637          	lui	a2,0x1
    3984:	40c40633          	sub	a2,s0,a2
    3988:	1d563c23          	sd	s5,472(a2) # 11d8 <.LBB98_4+0x2c0>
    398c:	010f0a83          	lb	s5,16(t5)
    3990:	00001637          	lui	a2,0x1
    3994:	40c40633          	sub	a2,s0,a2
    3998:	1f563023          	sd	s5,480(a2) # 11e0 <.LBB98_4+0x2c8>
    399c:	00ff0a83          	lb	s5,15(t5)
    39a0:	00001637          	lui	a2,0x1
    39a4:	40c40633          	sub	a2,s0,a2
    39a8:	1f563423          	sd	s5,488(a2) # 11e8 <.LBB98_4+0x2d0>
    39ac:	00ef0a83          	lb	s5,14(t5)
    39b0:	00001637          	lui	a2,0x1
    39b4:	40c40633          	sub	a2,s0,a2
    39b8:	1f563823          	sd	s5,496(a2) # 11f0 <.LBB98_4+0x2d8>
    39bc:	00df0a83          	lb	s5,13(t5)
    39c0:	00001637          	lui	a2,0x1
    39c4:	40c40633          	sub	a2,s0,a2
    39c8:	1f563c23          	sd	s5,504(a2) # 11f8 <.LBB98_4+0x2e0>
    39cc:	00cf0a83          	lb	s5,12(t5)
    39d0:	00001637          	lui	a2,0x1
    39d4:	40c40633          	sub	a2,s0,a2
    39d8:	21563023          	sd	s5,512(a2) # 1200 <.LBB98_4+0x2e8>
    39dc:	00bf0a83          	lb	s5,11(t5)
    39e0:	00001637          	lui	a2,0x1
    39e4:	40c40633          	sub	a2,s0,a2
    39e8:	21563423          	sd	s5,520(a2) # 1208 <.LBB98_4+0x2f0>
    39ec:	00af0a83          	lb	s5,10(t5)
    39f0:	00001637          	lui	a2,0x1
    39f4:	40c40633          	sub	a2,s0,a2
    39f8:	21563823          	sd	s5,528(a2) # 1210 <.LBB98_4+0x2f8>
    39fc:	009f0a83          	lb	s5,9(t5)
    3a00:	00001637          	lui	a2,0x1
    3a04:	40c40633          	sub	a2,s0,a2
    3a08:	21563c23          	sd	s5,536(a2) # 1218 <.LBB98_4+0x300>
    3a0c:	008f0a83          	lb	s5,8(t5)
    3a10:	00001637          	lui	a2,0x1
    3a14:	40c40633          	sub	a2,s0,a2
    3a18:	23563023          	sd	s5,544(a2) # 1220 <.LBB98_4+0x308>
    3a1c:	007f0a83          	lb	s5,7(t5)
    3a20:	00001637          	lui	a2,0x1
    3a24:	40c40633          	sub	a2,s0,a2
    3a28:	23563423          	sd	s5,552(a2) # 1228 <.LBB98_4+0x310>
    3a2c:	006f0a83          	lb	s5,6(t5)
    3a30:	00001637          	lui	a2,0x1
    3a34:	40c40633          	sub	a2,s0,a2
    3a38:	23563823          	sd	s5,560(a2) # 1230 <.LBB98_4+0x318>
    3a3c:	005f0a83          	lb	s5,5(t5)
    3a40:	00001637          	lui	a2,0x1
    3a44:	40c40633          	sub	a2,s0,a2
    3a48:	23563c23          	sd	s5,568(a2) # 1238 <.LBB98_4+0x320>
    3a4c:	004f0a83          	lb	s5,4(t5)
    3a50:	00001637          	lui	a2,0x1
    3a54:	40c40633          	sub	a2,s0,a2
    3a58:	25563023          	sd	s5,576(a2) # 1240 <.LBB98_4+0x328>
    3a5c:	003f0a83          	lb	s5,3(t5)
    3a60:	00001637          	lui	a2,0x1
    3a64:	40c40633          	sub	a2,s0,a2
    3a68:	25563423          	sd	s5,584(a2) # 1248 <.LBB98_4+0x330>
    3a6c:	002f0a83          	lb	s5,2(t5)
    3a70:	00001637          	lui	a2,0x1
    3a74:	40c40633          	sub	a2,s0,a2
    3a78:	25563823          	sd	s5,592(a2) # 1250 <.LBB98_4+0x338>
    3a7c:	001f0a83          	lb	s5,1(t5)
    3a80:	00001637          	lui	a2,0x1
    3a84:	40c40633          	sub	a2,s0,a2
    3a88:	25563c23          	sd	s5,600(a2) # 1258 <.LBB98_4+0x340>
    3a8c:	000f0f03          	lb	t5,0(t5)
    3a90:	00001637          	lui	a2,0x1
    3a94:	40c40633          	sub	a2,s0,a2
    3a98:	27e63023          	sd	t5,608(a2) # 1260 <.LBB98_4+0x348>
    3a9c:	01f70f03          	lb	t5,31(a4)
    3aa0:	00001637          	lui	a2,0x1
    3aa4:	40c40633          	sub	a2,s0,a2
    3aa8:	27e63423          	sd	t5,616(a2) # 1268 <.LBB98_4+0x350>
    3aac:	01e70f03          	lb	t5,30(a4)
    3ab0:	00001637          	lui	a2,0x1
    3ab4:	40c40633          	sub	a2,s0,a2
    3ab8:	27e63823          	sd	t5,624(a2) # 1270 <.LBB98_4+0x358>
    3abc:	01d70f03          	lb	t5,29(a4)
    3ac0:	00001637          	lui	a2,0x1
    3ac4:	40c40633          	sub	a2,s0,a2
    3ac8:	27e63c23          	sd	t5,632(a2) # 1278 <.LBB98_4+0x360>
    3acc:	01c70f03          	lb	t5,28(a4)
    3ad0:	00001637          	lui	a2,0x1
    3ad4:	40c40633          	sub	a2,s0,a2
    3ad8:	29e63023          	sd	t5,640(a2) # 1280 <.LBB98_4+0x368>
    3adc:	01b70f03          	lb	t5,27(a4)
    3ae0:	00001637          	lui	a2,0x1
    3ae4:	40c40633          	sub	a2,s0,a2
    3ae8:	29e63423          	sd	t5,648(a2) # 1288 <.LBB98_4+0x370>
    3aec:	01a70f03          	lb	t5,26(a4)
    3af0:	00001637          	lui	a2,0x1
    3af4:	40c40633          	sub	a2,s0,a2
    3af8:	29e63823          	sd	t5,656(a2) # 1290 <.LBB98_4+0x378>
    3afc:	01970f03          	lb	t5,25(a4)
    3b00:	00001637          	lui	a2,0x1
    3b04:	40c40633          	sub	a2,s0,a2
    3b08:	29e63c23          	sd	t5,664(a2) # 1298 <.LBB98_4+0x380>
    3b0c:	01870f03          	lb	t5,24(a4)
    3b10:	00001637          	lui	a2,0x1
    3b14:	40c40633          	sub	a2,s0,a2
    3b18:	2be63023          	sd	t5,672(a2) # 12a0 <.LBB98_4+0x388>
    3b1c:	01770f03          	lb	t5,23(a4)
    3b20:	00001637          	lui	a2,0x1
    3b24:	40c40633          	sub	a2,s0,a2
    3b28:	2be63423          	sd	t5,680(a2) # 12a8 <.LBB98_4+0x390>
    3b2c:	01670f03          	lb	t5,22(a4)
    3b30:	00001637          	lui	a2,0x1
    3b34:	40c40633          	sub	a2,s0,a2
    3b38:	2be63823          	sd	t5,688(a2) # 12b0 <.LBB98_4+0x398>
    3b3c:	01570f03          	lb	t5,21(a4)
    3b40:	00001637          	lui	a2,0x1
    3b44:	40c40633          	sub	a2,s0,a2
    3b48:	2be63c23          	sd	t5,696(a2) # 12b8 <.LBB98_4+0x3a0>
    3b4c:	01470f03          	lb	t5,20(a4)
    3b50:	00001637          	lui	a2,0x1
    3b54:	40c40633          	sub	a2,s0,a2
    3b58:	2de63023          	sd	t5,704(a2) # 12c0 <.LBB98_4+0x3a8>
    3b5c:	01370f03          	lb	t5,19(a4)
    3b60:	00001637          	lui	a2,0x1
    3b64:	40c40633          	sub	a2,s0,a2
    3b68:	2de63423          	sd	t5,712(a2) # 12c8 <.LBB98_4+0x3b0>
    3b6c:	01270f03          	lb	t5,18(a4)
    3b70:	00001637          	lui	a2,0x1
    3b74:	40c40633          	sub	a2,s0,a2
    3b78:	2de63823          	sd	t5,720(a2) # 12d0 <.LBB98_4+0x3b8>
    3b7c:	01170f03          	lb	t5,17(a4)
    3b80:	00001637          	lui	a2,0x1
    3b84:	40c40633          	sub	a2,s0,a2
    3b88:	2de63c23          	sd	t5,728(a2) # 12d8 <.LBB98_4+0x3c0>
    3b8c:	01070f03          	lb	t5,16(a4)
    3b90:	00001637          	lui	a2,0x1
    3b94:	40c40633          	sub	a2,s0,a2
    3b98:	2fe63023          	sd	t5,736(a2) # 12e0 <.LBB98_4+0x3c8>
    3b9c:	00f70f03          	lb	t5,15(a4)
    3ba0:	00001637          	lui	a2,0x1
    3ba4:	40c40633          	sub	a2,s0,a2
    3ba8:	2fe63423          	sd	t5,744(a2) # 12e8 <.LBB98_4+0x3d0>
    3bac:	00e70f03          	lb	t5,14(a4)
    3bb0:	00001637          	lui	a2,0x1
    3bb4:	40c40633          	sub	a2,s0,a2
    3bb8:	2fe63823          	sd	t5,752(a2) # 12f0 <.LBB98_4+0x3d8>
    3bbc:	00d70f03          	lb	t5,13(a4)
    3bc0:	00001637          	lui	a2,0x1
    3bc4:	40c40633          	sub	a2,s0,a2
    3bc8:	2fe63c23          	sd	t5,760(a2) # 12f8 <.LBB98_4+0x3e0>
    3bcc:	00c70f03          	lb	t5,12(a4)
    3bd0:	00001637          	lui	a2,0x1
    3bd4:	40c40633          	sub	a2,s0,a2
    3bd8:	31e63023          	sd	t5,768(a2) # 1300 <.LBB98_4+0x3e8>
    3bdc:	00b70f03          	lb	t5,11(a4)
    3be0:	00001637          	lui	a2,0x1
    3be4:	40c40633          	sub	a2,s0,a2
    3be8:	31e63423          	sd	t5,776(a2) # 1308 <.LBB98_4+0x3f0>
    3bec:	00a70f03          	lb	t5,10(a4)
    3bf0:	00001637          	lui	a2,0x1
    3bf4:	40c40633          	sub	a2,s0,a2
    3bf8:	31e63823          	sd	t5,784(a2) # 1310 <.LBB98_4+0x3f8>
    3bfc:	00970f03          	lb	t5,9(a4)
    3c00:	00001637          	lui	a2,0x1
    3c04:	40c40633          	sub	a2,s0,a2
    3c08:	31e63c23          	sd	t5,792(a2) # 1318 <.LBB98_4+0x400>
    3c0c:	00870f03          	lb	t5,8(a4)
    3c10:	00001637          	lui	a2,0x1
    3c14:	40c40633          	sub	a2,s0,a2
    3c18:	33e63023          	sd	t5,800(a2) # 1320 <.LBB98_4+0x408>
    3c1c:	00770f03          	lb	t5,7(a4)
    3c20:	00001637          	lui	a2,0x1
    3c24:	40c40633          	sub	a2,s0,a2
    3c28:	33e63423          	sd	t5,808(a2) # 1328 <.LBB98_4+0x410>
    3c2c:	00670f03          	lb	t5,6(a4)
    3c30:	00001637          	lui	a2,0x1
    3c34:	40c40633          	sub	a2,s0,a2
    3c38:	33e63823          	sd	t5,816(a2) # 1330 <.LBB98_4+0x418>
    3c3c:	00570f03          	lb	t5,5(a4)
    3c40:	00001637          	lui	a2,0x1
    3c44:	40c40633          	sub	a2,s0,a2
    3c48:	33e63c23          	sd	t5,824(a2) # 1338 <.LBB98_4+0x420>
    3c4c:	00470f03          	lb	t5,4(a4)
    3c50:	00001637          	lui	a2,0x1
    3c54:	40c40633          	sub	a2,s0,a2
    3c58:	35e63023          	sd	t5,832(a2) # 1340 <.LBB98_4+0x428>
    3c5c:	00370f03          	lb	t5,3(a4)
    3c60:	00001637          	lui	a2,0x1
    3c64:	40c40633          	sub	a2,s0,a2
    3c68:	35e63423          	sd	t5,840(a2) # 1348 <.LBB98_4+0x430>
    3c6c:	00270f03          	lb	t5,2(a4)
    3c70:	00001637          	lui	a2,0x1
    3c74:	40c40633          	sub	a2,s0,a2
    3c78:	35e63823          	sd	t5,848(a2) # 1350 <.LBB98_4+0x438>
    3c7c:	00170f03          	lb	t5,1(a4)
    3c80:	00001637          	lui	a2,0x1
    3c84:	40c40633          	sub	a2,s0,a2
    3c88:	35e63c23          	sd	t5,856(a2) # 1358 <.LBB98_4+0x440>
    3c8c:	00070703          	lb	a4,0(a4)
    3c90:	00001637          	lui	a2,0x1
    3c94:	40c40633          	sub	a2,s0,a2
    3c98:	36e63023          	sd	a4,864(a2) # 1360 <.LBB98_4+0x448>
    3c9c:	01f80703          	lb	a4,31(a6)
    3ca0:	00001637          	lui	a2,0x1
    3ca4:	40c40633          	sub	a2,s0,a2
    3ca8:	36e63423          	sd	a4,872(a2) # 1368 <.LBB98_4+0x450>
    3cac:	01e80703          	lb	a4,30(a6)
    3cb0:	00001637          	lui	a2,0x1
    3cb4:	40c40633          	sub	a2,s0,a2
    3cb8:	36e63823          	sd	a4,880(a2) # 1370 <.LBB98_4+0x458>
    3cbc:	01d80703          	lb	a4,29(a6)
    3cc0:	00001637          	lui	a2,0x1
    3cc4:	40c40633          	sub	a2,s0,a2
    3cc8:	36e63c23          	sd	a4,888(a2) # 1378 <.LBB98_4+0x460>
    3ccc:	01c80703          	lb	a4,28(a6)
    3cd0:	00001637          	lui	a2,0x1
    3cd4:	40c40633          	sub	a2,s0,a2
    3cd8:	38e63023          	sd	a4,896(a2) # 1380 <.LBB98_4+0x468>
    3cdc:	01b80703          	lb	a4,27(a6)
    3ce0:	00001637          	lui	a2,0x1
    3ce4:	40c40633          	sub	a2,s0,a2
    3ce8:	38e63423          	sd	a4,904(a2) # 1388 <.LBB98_4+0x470>
    3cec:	01a80703          	lb	a4,26(a6)
    3cf0:	00001637          	lui	a2,0x1
    3cf4:	40c40633          	sub	a2,s0,a2
    3cf8:	38e63823          	sd	a4,912(a2) # 1390 <.LBB98_4+0x478>
    3cfc:	01980703          	lb	a4,25(a6)
    3d00:	00001637          	lui	a2,0x1
    3d04:	40c40633          	sub	a2,s0,a2
    3d08:	38e63c23          	sd	a4,920(a2) # 1398 <.LBB98_4+0x480>
    3d0c:	01880703          	lb	a4,24(a6)
    3d10:	00001637          	lui	a2,0x1
    3d14:	40c40633          	sub	a2,s0,a2
    3d18:	3ae63023          	sd	a4,928(a2) # 13a0 <.LBB98_4+0x488>
    3d1c:	01780703          	lb	a4,23(a6)
    3d20:	00001637          	lui	a2,0x1
    3d24:	40c40633          	sub	a2,s0,a2
    3d28:	3ae63423          	sd	a4,936(a2) # 13a8 <.LBB98_4+0x490>
    3d2c:	01680703          	lb	a4,22(a6)
    3d30:	00001637          	lui	a2,0x1
    3d34:	40c40633          	sub	a2,s0,a2
    3d38:	3ae63823          	sd	a4,944(a2) # 13b0 <.LBB98_4+0x498>
    3d3c:	01580703          	lb	a4,21(a6)
    3d40:	00001637          	lui	a2,0x1
    3d44:	40c40633          	sub	a2,s0,a2
    3d48:	3ae63c23          	sd	a4,952(a2) # 13b8 <.LBB98_4+0x4a0>
    3d4c:	01480703          	lb	a4,20(a6)
    3d50:	00001637          	lui	a2,0x1
    3d54:	40c40633          	sub	a2,s0,a2
    3d58:	3ce63023          	sd	a4,960(a2) # 13c0 <.LBB98_4+0x4a8>
    3d5c:	01380703          	lb	a4,19(a6)
    3d60:	00001637          	lui	a2,0x1
    3d64:	40c40633          	sub	a2,s0,a2
    3d68:	3ce63423          	sd	a4,968(a2) # 13c8 <.LBB98_4+0x4b0>
    3d6c:	01280703          	lb	a4,18(a6)
    3d70:	00001637          	lui	a2,0x1
    3d74:	40c40633          	sub	a2,s0,a2
    3d78:	3ce63823          	sd	a4,976(a2) # 13d0 <.LBB98_4+0x4b8>
    3d7c:	01180703          	lb	a4,17(a6)
    3d80:	00001637          	lui	a2,0x1
    3d84:	40c40633          	sub	a2,s0,a2
    3d88:	3ce63c23          	sd	a4,984(a2) # 13d8 <.LBB98_4+0x4c0>
    3d8c:	01080703          	lb	a4,16(a6)
    3d90:	00001637          	lui	a2,0x1
    3d94:	40c40633          	sub	a2,s0,a2
    3d98:	3ee63023          	sd	a4,992(a2) # 13e0 <.LBB98_4+0x4c8>
    3d9c:	00f80703          	lb	a4,15(a6)
    3da0:	00001637          	lui	a2,0x1
    3da4:	40c40633          	sub	a2,s0,a2
    3da8:	3ee63423          	sd	a4,1000(a2) # 13e8 <.LBB98_4+0x4d0>
    3dac:	00e80703          	lb	a4,14(a6)
    3db0:	00001637          	lui	a2,0x1
    3db4:	40c40633          	sub	a2,s0,a2
    3db8:	3ee63823          	sd	a4,1008(a2) # 13f0 <.LBB98_4+0x4d8>
    3dbc:	00d80703          	lb	a4,13(a6)
    3dc0:	00001637          	lui	a2,0x1
    3dc4:	40c40633          	sub	a2,s0,a2
    3dc8:	3ee63c23          	sd	a4,1016(a2) # 13f8 <.LBB98_4+0x4e0>
    3dcc:	00c80703          	lb	a4,12(a6)
    3dd0:	00001637          	lui	a2,0x1
    3dd4:	40c40633          	sub	a2,s0,a2
    3dd8:	40e63023          	sd	a4,1024(a2) # 1400 <.LBB98_4+0x4e8>
    3ddc:	00b80703          	lb	a4,11(a6)
    3de0:	00001637          	lui	a2,0x1
    3de4:	40c40633          	sub	a2,s0,a2
    3de8:	40e63423          	sd	a4,1032(a2) # 1408 <.LBB98_4+0x4f0>
    3dec:	00a80703          	lb	a4,10(a6)
    3df0:	00001637          	lui	a2,0x1
    3df4:	40c40633          	sub	a2,s0,a2
    3df8:	40e63823          	sd	a4,1040(a2) # 1410 <.LBB98_4+0x4f8>
    3dfc:	00980703          	lb	a4,9(a6)
    3e00:	00001637          	lui	a2,0x1
    3e04:	40c40633          	sub	a2,s0,a2
    3e08:	40e63c23          	sd	a4,1048(a2) # 1418 <.LBB98_4+0x500>
    3e0c:	00880703          	lb	a4,8(a6)
    3e10:	00001637          	lui	a2,0x1
    3e14:	40c40633          	sub	a2,s0,a2
    3e18:	42e63023          	sd	a4,1056(a2) # 1420 <.LBB98_4+0x508>
    3e1c:	00780703          	lb	a4,7(a6)
    3e20:	00001637          	lui	a2,0x1
    3e24:	40c40633          	sub	a2,s0,a2
    3e28:	42e63423          	sd	a4,1064(a2) # 1428 <.LBB98_4+0x510>
    3e2c:	00680703          	lb	a4,6(a6)
    3e30:	00001637          	lui	a2,0x1
    3e34:	40c40633          	sub	a2,s0,a2
    3e38:	42e63823          	sd	a4,1072(a2) # 1430 <.LBB98_4+0x518>
    3e3c:	00580703          	lb	a4,5(a6)
    3e40:	00001637          	lui	a2,0x1
    3e44:	40c40633          	sub	a2,s0,a2
    3e48:	42e63c23          	sd	a4,1080(a2) # 1438 <.LBB98_4+0x520>
    3e4c:	00480703          	lb	a4,4(a6)
    3e50:	00001637          	lui	a2,0x1
    3e54:	40c40633          	sub	a2,s0,a2
    3e58:	44e63023          	sd	a4,1088(a2) # 1440 <.LBB98_4+0x528>
    3e5c:	00380703          	lb	a4,3(a6)
    3e60:	00001637          	lui	a2,0x1
    3e64:	40c40633          	sub	a2,s0,a2
    3e68:	44e63423          	sd	a4,1096(a2) # 1448 <.LBB98_4+0x530>
    3e6c:	00280703          	lb	a4,2(a6)
    3e70:	00001637          	lui	a2,0x1
    3e74:	40c40633          	sub	a2,s0,a2
    3e78:	44e63823          	sd	a4,1104(a2) # 1450 <.LBB98_4+0x538>
    3e7c:	00180703          	lb	a4,1(a6)
    3e80:	00001637          	lui	a2,0x1
    3e84:	40c40633          	sub	a2,s0,a2
    3e88:	44e63c23          	sd	a4,1112(a2) # 1458 <.LBB98_4+0x540>
    3e8c:	00080703          	lb	a4,0(a6)
    3e90:	00001637          	lui	a2,0x1
    3e94:	40c40633          	sub	a2,s0,a2
    3e98:	46e63023          	sd	a4,1120(a2) # 1460 <.LBB98_4+0x548>
    3e9c:	01f50703          	lb	a4,31(a0)
    3ea0:	00001637          	lui	a2,0x1
    3ea4:	40c40633          	sub	a2,s0,a2
    3ea8:	46e63423          	sd	a4,1128(a2) # 1468 <.LBB98_4+0x550>
    3eac:	01e50703          	lb	a4,30(a0)
    3eb0:	00001637          	lui	a2,0x1
    3eb4:	40c40633          	sub	a2,s0,a2
    3eb8:	46e63823          	sd	a4,1136(a2) # 1470 <.LBB98_4+0x558>
    3ebc:	01d50703          	lb	a4,29(a0)
    3ec0:	00001637          	lui	a2,0x1
    3ec4:	40c40633          	sub	a2,s0,a2
    3ec8:	46e63c23          	sd	a4,1144(a2) # 1478 <.LBB98_4+0x560>
    3ecc:	01c50703          	lb	a4,28(a0)
    3ed0:	00001637          	lui	a2,0x1
    3ed4:	40c40633          	sub	a2,s0,a2
    3ed8:	48e63023          	sd	a4,1152(a2) # 1480 <.LBB98_4+0x568>
    3edc:	01b50703          	lb	a4,27(a0)
    3ee0:	00001637          	lui	a2,0x1
    3ee4:	40c40633          	sub	a2,s0,a2
    3ee8:	48e63423          	sd	a4,1160(a2) # 1488 <.LBB98_4+0x570>
    3eec:	01a50703          	lb	a4,26(a0)
    3ef0:	00001637          	lui	a2,0x1
    3ef4:	40c40633          	sub	a2,s0,a2
    3ef8:	48e63823          	sd	a4,1168(a2) # 1490 <.LBB98_4+0x578>
    3efc:	01950703          	lb	a4,25(a0)
    3f00:	00001637          	lui	a2,0x1
    3f04:	40c40633          	sub	a2,s0,a2
    3f08:	48e63c23          	sd	a4,1176(a2) # 1498 <.LBB98_4+0x580>
    3f0c:	01850703          	lb	a4,24(a0)
    3f10:	00001637          	lui	a2,0x1
    3f14:	40c40633          	sub	a2,s0,a2
    3f18:	4ae63023          	sd	a4,1184(a2) # 14a0 <.LBB98_4+0x588>
    3f1c:	01750703          	lb	a4,23(a0)
    3f20:	00001637          	lui	a2,0x1
    3f24:	40c40633          	sub	a2,s0,a2
    3f28:	4ae63423          	sd	a4,1192(a2) # 14a8 <.LBB98_4+0x590>
    3f2c:	01650703          	lb	a4,22(a0)
    3f30:	00001637          	lui	a2,0x1
    3f34:	40c40633          	sub	a2,s0,a2
    3f38:	4ae63823          	sd	a4,1200(a2) # 14b0 <.LBB98_4+0x598>
    3f3c:	01550703          	lb	a4,21(a0)
    3f40:	00001637          	lui	a2,0x1
    3f44:	40c40633          	sub	a2,s0,a2
    3f48:	4ae63c23          	sd	a4,1208(a2) # 14b8 <.LBB98_4+0x5a0>
    3f4c:	01450703          	lb	a4,20(a0)
    3f50:	00001637          	lui	a2,0x1
    3f54:	40c40633          	sub	a2,s0,a2
    3f58:	4ce63023          	sd	a4,1216(a2) # 14c0 <.LBB98_4+0x5a8>
    3f5c:	01350703          	lb	a4,19(a0)
    3f60:	00001637          	lui	a2,0x1
    3f64:	40c40633          	sub	a2,s0,a2
    3f68:	4ce63423          	sd	a4,1224(a2) # 14c8 <.LBB98_4+0x5b0>
    3f6c:	01250703          	lb	a4,18(a0)
    3f70:	00001637          	lui	a2,0x1
    3f74:	40c40633          	sub	a2,s0,a2
    3f78:	4ce63823          	sd	a4,1232(a2) # 14d0 <.LBB98_5+0x4>
    3f7c:	01150703          	lb	a4,17(a0)
    3f80:	00001637          	lui	a2,0x1
    3f84:	40c40633          	sub	a2,s0,a2
    3f88:	4ee63023          	sd	a4,1248(a2) # 14e0 <.LBB98_5+0x14>
    3f8c:	01050703          	lb	a4,16(a0)
    3f90:	00001637          	lui	a2,0x1
    3f94:	40c40633          	sub	a2,s0,a2
    3f98:	4ee63823          	sd	a4,1264(a2) # 14f0 <.LBB98_5+0x24>
    3f9c:	00f50703          	lb	a4,15(a0)
    3fa0:	00001637          	lui	a2,0x1
    3fa4:	40c40633          	sub	a2,s0,a2
    3fa8:	50e63023          	sd	a4,1280(a2) # 1500 <.LBB98_5+0x34>
    3fac:	00e50703          	lb	a4,14(a0)
    3fb0:	00001637          	lui	a2,0x1
    3fb4:	40c40633          	sub	a2,s0,a2
    3fb8:	50e63823          	sd	a4,1296(a2) # 1510 <.LBB98_5+0x44>
    3fbc:	00d50703          	lb	a4,13(a0)
    3fc0:	00001637          	lui	a2,0x1
    3fc4:	40c40633          	sub	a2,s0,a2
    3fc8:	52e63023          	sd	a4,1312(a2) # 1520 <.LBB98_5+0x54>
    3fcc:	00278703          	lb	a4,2(a5)
    3fd0:	00001637          	lui	a2,0x1
    3fd4:	40c40633          	sub	a2,s0,a2
    3fd8:	68e63023          	sd	a4,1664(a2) # 1680 <.LBB98_5+0x1b4>
    3fdc:	00378703          	lb	a4,3(a5)
    3fe0:	00001637          	lui	a2,0x1
    3fe4:	40c40633          	sub	a2,s0,a2
    3fe8:	66e63823          	sd	a4,1648(a2) # 1670 <.LBB98_5+0x1a4>
    3fec:	00478703          	lb	a4,4(a5)
    3ff0:	00001637          	lui	a2,0x1
    3ff4:	40c40633          	sub	a2,s0,a2
    3ff8:	64e63023          	sd	a4,1600(a2) # 1640 <.LBB98_5+0x174>
    3ffc:	00578703          	lb	a4,5(a5)
    4000:	00001637          	lui	a2,0x1
    4004:	40c40633          	sub	a2,s0,a2
    4008:	62e63c23          	sd	a4,1592(a2) # 1638 <.LBB98_5+0x16c>
    400c:	00678703          	lb	a4,6(a5)
    4010:	00001637          	lui	a2,0x1
    4014:	40c40633          	sub	a2,s0,a2
    4018:	62e63823          	sd	a4,1584(a2) # 1630 <.LBB98_5+0x164>
    401c:	00778703          	lb	a4,7(a5)
    4020:	00001637          	lui	a2,0x1
    4024:	40c40633          	sub	a2,s0,a2
    4028:	62e63423          	sd	a4,1576(a2) # 1628 <.LBB98_5+0x15c>
    402c:	00878703          	lb	a4,8(a5)
    4030:	00001637          	lui	a2,0x1
    4034:	40c40633          	sub	a2,s0,a2
    4038:	62e63023          	sd	a4,1568(a2) # 1620 <.LBB98_5+0x154>
    403c:	00978703          	lb	a4,9(a5)
    4040:	00001637          	lui	a2,0x1
    4044:	40c40633          	sub	a2,s0,a2
    4048:	60e63c23          	sd	a4,1560(a2) # 1618 <.LBB98_5+0x14c>
    404c:	00a78703          	lb	a4,10(a5)
    4050:	00001637          	lui	a2,0x1
    4054:	40c40633          	sub	a2,s0,a2
    4058:	60e63823          	sd	a4,1552(a2) # 1610 <.LBB98_5+0x144>
    405c:	00b78703          	lb	a4,11(a5)
    4060:	00001637          	lui	a2,0x1
    4064:	40c40633          	sub	a2,s0,a2
    4068:	60e63423          	sd	a4,1544(a2) # 1608 <.LBB98_5+0x13c>
    406c:	00c78703          	lb	a4,12(a5)
    4070:	00001637          	lui	a2,0x1
    4074:	40c40633          	sub	a2,s0,a2
    4078:	60e63023          	sd	a4,1536(a2) # 1600 <.LBB98_5+0x134>
    407c:	00d78703          	lb	a4,13(a5)
    4080:	00001637          	lui	a2,0x1
    4084:	40c40633          	sub	a2,s0,a2
    4088:	5ee63c23          	sd	a4,1528(a2) # 15f8 <.LBB98_5+0x12c>
    408c:	00e78703          	lb	a4,14(a5)
    4090:	00001637          	lui	a2,0x1
    4094:	40c40633          	sub	a2,s0,a2
    4098:	5ee63823          	sd	a4,1520(a2) # 15f0 <.LBB98_5+0x124>
    409c:	00f78703          	lb	a4,15(a5)
    40a0:	00001637          	lui	a2,0x1
    40a4:	40c40633          	sub	a2,s0,a2
    40a8:	5ee63423          	sd	a4,1512(a2) # 15e8 <.LBB98_5+0x11c>
    40ac:	01078703          	lb	a4,16(a5)
    40b0:	00001637          	lui	a2,0x1
    40b4:	40c40633          	sub	a2,s0,a2
    40b8:	5ee63023          	sd	a4,1504(a2) # 15e0 <.LBB98_5+0x114>
    40bc:	01178703          	lb	a4,17(a5)
    40c0:	00001637          	lui	a2,0x1
    40c4:	40c40633          	sub	a2,s0,a2
    40c8:	5ce63c23          	sd	a4,1496(a2) # 15d8 <.LBB98_5+0x10c>
    40cc:	01278703          	lb	a4,18(a5)
    40d0:	00001637          	lui	a2,0x1
    40d4:	40c40633          	sub	a2,s0,a2
    40d8:	5ce63823          	sd	a4,1488(a2) # 15d0 <.LBB98_5+0x104>
    40dc:	01378703          	lb	a4,19(a5)
    40e0:	00001637          	lui	a2,0x1
    40e4:	40c40633          	sub	a2,s0,a2
    40e8:	5ce63423          	sd	a4,1480(a2) # 15c8 <.LBB98_5+0xfc>
    40ec:	01478703          	lb	a4,20(a5)
    40f0:	00001637          	lui	a2,0x1
    40f4:	40c40633          	sub	a2,s0,a2
    40f8:	5ce63023          	sd	a4,1472(a2) # 15c0 <.LBB98_5+0xf4>
    40fc:	01578703          	lb	a4,21(a5)
    4100:	00001637          	lui	a2,0x1
    4104:	40c40633          	sub	a2,s0,a2
    4108:	5ae63c23          	sd	a4,1464(a2) # 15b8 <.LBB98_5+0xec>
    410c:	01678703          	lb	a4,22(a5)
    4110:	00001637          	lui	a2,0x1
    4114:	40c40633          	sub	a2,s0,a2
    4118:	5ae63823          	sd	a4,1456(a2) # 15b0 <.LBB98_5+0xe4>
    411c:	01778703          	lb	a4,23(a5)
    4120:	00001637          	lui	a2,0x1
    4124:	40c40633          	sub	a2,s0,a2
    4128:	5ae63423          	sd	a4,1448(a2) # 15a8 <.LBB98_5+0xdc>
    412c:	01878703          	lb	a4,24(a5)
    4130:	00001637          	lui	a2,0x1
    4134:	40c40633          	sub	a2,s0,a2
    4138:	5ae63023          	sd	a4,1440(a2) # 15a0 <.LBB98_5+0xd4>
    413c:	01978703          	lb	a4,25(a5)
    4140:	00001637          	lui	a2,0x1
    4144:	40c40633          	sub	a2,s0,a2
    4148:	58e63c23          	sd	a4,1432(a2) # 1598 <.LBB98_5+0xcc>
    414c:	01a78703          	lb	a4,26(a5)
    4150:	00001637          	lui	a2,0x1
    4154:	40c40633          	sub	a2,s0,a2
    4158:	58e63823          	sd	a4,1424(a2) # 1590 <.LBB98_5+0xc4>
    415c:	01b78703          	lb	a4,27(a5)
    4160:	00001637          	lui	a2,0x1
    4164:	40c40633          	sub	a2,s0,a2
    4168:	58e63423          	sd	a4,1416(a2) # 1588 <.LBB98_5+0xbc>
    416c:	01c78703          	lb	a4,28(a5)
    4170:	00001637          	lui	a2,0x1
    4174:	40c40633          	sub	a2,s0,a2
    4178:	58e63023          	sd	a4,1408(a2) # 1580 <.LBB98_5+0xb4>
    417c:	01d78703          	lb	a4,29(a5)
    4180:	00001637          	lui	a2,0x1
    4184:	40c40633          	sub	a2,s0,a2
    4188:	56e63c23          	sd	a4,1400(a2) # 1578 <.LBB98_5+0xac>
    418c:	01e78703          	lb	a4,30(a5)
    4190:	00001637          	lui	a2,0x1
    4194:	40c40633          	sub	a2,s0,a2
    4198:	56e63823          	sd	a4,1392(a2) # 1570 <.LBB98_5+0xa4>
    419c:	01f78703          	lb	a4,31(a5)
    41a0:	00001637          	lui	a2,0x1
    41a4:	40c40633          	sub	a2,s0,a2
    41a8:	56e63423          	sd	a4,1384(a2) # 1568 <.LBB98_5+0x9c>
    41ac:	00078703          	lb	a4,0(a5)
    41b0:	00001637          	lui	a2,0x1
    41b4:	40c40633          	sub	a2,s0,a2
    41b8:	68e63423          	sd	a4,1672(a2) # 1688 <.LBB98_5+0x1bc>
    41bc:	00050703          	lb	a4,0(a0)
    41c0:	00001637          	lui	a2,0x1
    41c4:	40c40633          	sub	a2,s0,a2
    41c8:	56e63023          	sd	a4,1376(a2) # 1560 <.LBB98_5+0x94>
    41cc:	00150703          	lb	a4,1(a0)
    41d0:	00001637          	lui	a2,0x1
    41d4:	40c40633          	sub	a2,s0,a2
    41d8:	54e63c23          	sd	a4,1368(a2) # 1558 <.LBB98_5+0x8c>
    41dc:	00250703          	lb	a4,2(a0)
    41e0:	00001637          	lui	a2,0x1
    41e4:	40c40633          	sub	a2,s0,a2
    41e8:	54e63823          	sd	a4,1360(a2) # 1550 <.LBB98_5+0x84>
    41ec:	00350703          	lb	a4,3(a0)
    41f0:	00001637          	lui	a2,0x1
    41f4:	40c40633          	sub	a2,s0,a2
    41f8:	54e63423          	sd	a4,1352(a2) # 1548 <.LBB98_5+0x7c>
    41fc:	00450703          	lb	a4,4(a0)
    4200:	00001637          	lui	a2,0x1
    4204:	40c40633          	sub	a2,s0,a2
    4208:	54e63023          	sd	a4,1344(a2) # 1540 <.LBB98_5+0x74>
    420c:	00550703          	lb	a4,5(a0)
    4210:	00001637          	lui	a2,0x1
    4214:	40c40633          	sub	a2,s0,a2
    4218:	52e63c23          	sd	a4,1336(a2) # 1538 <.LBB98_5+0x6c>
    421c:	00650703          	lb	a4,6(a0)
    4220:	00001637          	lui	a2,0x1
    4224:	40c40633          	sub	a2,s0,a2
    4228:	52e63823          	sd	a4,1328(a2) # 1530 <.LBB98_5+0x64>
    422c:	00750703          	lb	a4,7(a0)
    4230:	00001637          	lui	a2,0x1
    4234:	40c40633          	sub	a2,s0,a2
    4238:	52e63423          	sd	a4,1320(a2) # 1528 <.LBB98_5+0x5c>
    423c:	00850703          	lb	a4,8(a0)
    4240:	00001637          	lui	a2,0x1
    4244:	40c40633          	sub	a2,s0,a2
    4248:	50e63c23          	sd	a4,1304(a2) # 1518 <.LBB98_5+0x4c>
    424c:	00950703          	lb	a4,9(a0)
    4250:	00001637          	lui	a2,0x1
    4254:	40c40633          	sub	a2,s0,a2
    4258:	50e63423          	sd	a4,1288(a2) # 1508 <.LBB98_5+0x3c>
    425c:	00a50703          	lb	a4,10(a0)
    4260:	00001637          	lui	a2,0x1
    4264:	40c40633          	sub	a2,s0,a2
    4268:	4ee63c23          	sd	a4,1272(a2) # 14f8 <.LBB98_5+0x2c>
    426c:	00b50703          	lb	a4,11(a0)
    4270:	00001637          	lui	a2,0x1
    4274:	40c40633          	sub	a2,s0,a2
    4278:	4ee63423          	sd	a4,1256(a2) # 14e8 <.LBB98_5+0x1c>
    427c:	00c50503          	lb	a0,12(a0)
    4280:	00001637          	lui	a2,0x1
    4284:	40c40633          	sub	a2,s0,a2
    4288:	4ca63c23          	sd	a0,1240(a2) # 14d8 <.LBB98_5+0xc>
    428c:	00178503          	lb	a0,1(a5)
    4290:	00001637          	lui	a2,0x1
    4294:	40c40633          	sub	a2,s0,a2
    4298:	66a63423          	sd	a0,1640(a2) # 1668 <.LBB98_5+0x19c>
    429c:	00001537          	lui	a0,0x1
    42a0:	40a40533          	sub	a0,s0,a0
    42a4:	8d053f03          	ld	t5,-1840(a0) # 8d0 <.LBB98_3+0x610>
    42a8:	004f2703          	lw	a4,4(t5)
    42ac:	008f2503          	lw	a0,8(t5)
    42b0:	00cf2783          	lw	a5,12(t5)
    42b4:	010f2803          	lw	a6,16(t5)
    42b8:	014f2603          	lw	a2,20(t5)
    42bc:	00001ab7          	lui	s5,0x1
    42c0:	41540ab3          	sub	s5,s0,s5
    42c4:	dacabc23          	sd	a2,-584(s5) # db8 <.LBB98_3+0xaf8>
    42c8:	018f2603          	lw	a2,24(t5)
    42cc:	00001ab7          	lui	s5,0x1
    42d0:	41540ab3          	sub	s5,s0,s5
    42d4:	dccab023          	sd	a2,-576(s5) # dc0 <.LBB98_3+0xb00>
    42d8:	01cf2603          	lw	a2,28(t5)
    42dc:	00001f37          	lui	t5,0x1
    42e0:	41e40f33          	sub	t5,s0,t5
    42e4:	dacf3823          	sd	a2,-592(t5) # db0 <.LBB98_3+0xaf0>
    42e8:	40000f37          	lui	t5,0x40000
    42ec:	00001637          	lui	a2,0x1
    42f0:	40c40633          	sub	a2,s0,a2
    42f4:	e6063603          	ld	a2,-416(a2) # e60 <.LBB98_3+0xba0>
    42f8:	00065463          	bgez	a2,4300 <.LBB98_26>
    42fc:	c0000f37          	lui	t5,0xc0000

0000000000004300 <.LBB98_26>:
    4300:	00001637          	lui	a2,0x1
    4304:	40c40633          	sub	a2,s0,a2
    4308:	b7e63c23          	sd	t5,-1160(a2) # b78 <.LBB98_3+0x8b8>
    430c:	007c9613          	slli	a2,s9,0x7
    4310:	f8843f03          	ld	t5,-120(s0)
    4314:	00001ab7          	lui	s5,0x1
    4318:	41540ab3          	sub	s5,s0,s5
    431c:	6d0aba83          	ld	s5,1744(s5) # 16d0 <.LBB98_5+0x204>
    4320:	01ea8f33          	add	t5,s5,t5
    4324:	00001ab7          	lui	s5,0x1
    4328:	41540ab3          	sub	s5,s0,s5
    432c:	6ccab823          	sd	a2,1744(s5) # 16d0 <.LBB98_5+0x204>
    4330:	00cf0f33          	add	t5,t5,a2
    4334:	41ac0abb          	subw	s5,s8,s10
    4338:	415f063b          	subw	a2,t5,s5
    433c:	40000f37          	lui	t5,0x40000
    4340:	00001ab7          	lui	s5,0x1
    4344:	41540ab3          	sub	s5,s0,s5
    4348:	b0cab023          	sd	a2,-1280(s5) # b00 <.LBB98_3+0x840>
    434c:	00001ab7          	lui	s5,0x1
    4350:	41540ab3          	sub	s5,s0,s5
    4354:	758abb03          	ld	s6,1880(s5) # 1758 <.LBB98_5+0x28c>
    4358:	00001ab7          	lui	s5,0x1
    435c:	41540ab3          	sub	s5,s0,s5
    4360:	750abb83          	ld	s7,1872(s5) # 1750 <.LBB98_5+0x284>
    4364:	00065463          	bgez	a2,436c <.LBB98_28>
    4368:	c0000f37          	lui	t5,0xc0000

000000000000436c <.LBB98_28>:
    436c:	00001637          	lui	a2,0x1
    4370:	40c40633          	sub	a2,s0,a2
    4374:	afe63c23          	sd	t5,-1288(a2) # af8 <.LBB98_3+0x838>
    4378:	007d9613          	slli	a2,s11,0x7
    437c:	f7843f03          	ld	t5,-136(s0)
    4380:	00001ab7          	lui	s5,0x1
    4384:	41540ab3          	sub	s5,s0,s5
    4388:	6d8aba83          	ld	s5,1752(s5) # 16d8 <.LBB98_5+0x20c>
    438c:	01ea8f33          	add	t5,s5,t5
    4390:	00001ab7          	lui	s5,0x1
    4394:	41540ab3          	sub	s5,s0,s5
    4398:	6ccabc23          	sd	a2,1752(s5) # 16d8 <.LBB98_5+0x20c>
    439c:	00cf0f33          	add	t5,t5,a2
    43a0:	41ac0abb          	subw	s5,s8,s10
    43a4:	415f063b          	subw	a2,t5,s5
    43a8:	40000f37          	lui	t5,0x40000
    43ac:	00001ab7          	lui	s5,0x1
    43b0:	41540ab3          	sub	s5,s0,s5
    43b4:	a8cab023          	sd	a2,-1408(s5) # a80 <.LBB98_3+0x7c0>
    43b8:	00001ab7          	lui	s5,0x1
    43bc:	41540ab3          	sub	s5,s0,s5
    43c0:	708abc83          	ld	s9,1800(s5) # 1708 <.LBB98_5+0x23c>
    43c4:	00065463          	bgez	a2,43cc <.LBB98_30>
    43c8:	c0000f37          	lui	t5,0xc0000

00000000000043cc <.LBB98_30>:
    43cc:	00001637          	lui	a2,0x1
    43d0:	40c40633          	sub	a2,s0,a2
    43d4:	a7e63c23          	sd	t5,-1416(a2) # a78 <.LBB98_3+0x7b8>
    43d8:	007a1a13          	slli	s4,s4,0x7
    43dc:	f7043f03          	ld	t5,-144(s0)
    43e0:	00001637          	lui	a2,0x1
    43e4:	40c40633          	sub	a2,s0,a2
    43e8:	6e063603          	ld	a2,1760(a2) # 16e0 <.LBB98_5+0x214>
    43ec:	01e60f33          	add	t5,a2,t5
    43f0:	00001637          	lui	a2,0x1
    43f4:	40c40633          	sub	a2,s0,a2
    43f8:	6f463023          	sd	s4,1760(a2) # 16e0 <.LBB98_5+0x214>
    43fc:	014f0f33          	add	t5,t5,s4
    4400:	41ac0a3b          	subw	s4,s8,s10
    4404:	414f063b          	subw	a2,t5,s4
    4408:	40000f37          	lui	t5,0x40000
    440c:	00001a37          	lui	s4,0x1
    4410:	41440a33          	sub	s4,s0,s4
    4414:	a0ca3023          	sd	a2,-1536(s4) # a00 <.LBB98_3+0x740>
    4418:	00001a37          	lui	s4,0x1
    441c:	41440a33          	sub	s4,s0,s4
    4420:	760a3a83          	ld	s5,1888(s4) # 1760 <.LBB98_5+0x294>
    4424:	00001a37          	lui	s4,0x1
    4428:	41440a33          	sub	s4,s0,s4
    442c:	700a3d83          	ld	s11,1792(s4) # 1700 <.LBB98_5+0x234>
    4430:	00065463          	bgez	a2,4438 <.LBB98_32>
    4434:	c0000f37          	lui	t5,0xc0000

0000000000004438 <.LBB98_32>:
    4438:	00001637          	lui	a2,0x1
    443c:	40c40633          	sub	a2,s0,a2
    4440:	9fe63823          	sd	t5,-1552(a2) # 9f0 <.LBB98_3+0x730>
    4444:	007f9f93          	slli	t6,t6,0x7
    4448:	f6843f03          	ld	t5,-152(s0)
    444c:	00001637          	lui	a2,0x1
    4450:	40c40633          	sub	a2,s0,a2
    4454:	6e863603          	ld	a2,1768(a2) # 16e8 <.LBB98_5+0x21c>
    4458:	01e60f33          	add	t5,a2,t5
    445c:	00001637          	lui	a2,0x1
    4460:	40c40633          	sub	a2,s0,a2
    4464:	6ff63423          	sd	t6,1768(a2) # 16e8 <.LBB98_5+0x21c>
    4468:	01ff0f33          	add	t5,t5,t6
    446c:	41ac0fbb          	subw	t6,s8,s10
    4470:	41ff063b          	subw	a2,t5,t6
    4474:	40000f37          	lui	t5,0x40000
    4478:	00001fb7          	lui	t6,0x1
    447c:	41f40fb3          	sub	t6,s0,t6
    4480:	98cfb023          	sd	a2,-1664(t6) # 980 <.LBB98_3+0x6c0>
    4484:	86843a03          	ld	s4,-1944(s0)
    4488:	00065463          	bgez	a2,4490 <.LBB98_34>
    448c:	c0000f37          	lui	t5,0xc0000

0000000000004490 <.LBB98_34>:
    4490:	00001637          	lui	a2,0x1
    4494:	40c40633          	sub	a2,s0,a2
    4498:	97e63823          	sd	t5,-1680(a2) # 970 <.LBB98_3+0x6b0>
    449c:	007e9613          	slli	a2,t4,0x7
    44a0:	f6043e83          	ld	t4,-160(s0)
    44a4:	00001f37          	lui	t5,0x1
    44a8:	41e40f33          	sub	t5,s0,t5
    44ac:	6f0f3f03          	ld	t5,1776(t5) # 16f0 <.LBB98_5+0x224>
    44b0:	01df0eb3          	add	t4,t5,t4
    44b4:	00001f37          	lui	t5,0x1
    44b8:	41e40f33          	sub	t5,s0,t5
    44bc:	6ecf3823          	sd	a2,1776(t5) # 16f0 <.LBB98_5+0x224>
    44c0:	00ce8eb3          	add	t4,t4,a2
    44c4:	fffa6fb7          	lui	t6,0xfffa6
    44c8:	41fc0f3b          	subw	t5,s8,t6
    44cc:	41ee863b          	subw	a2,t4,t5
    44d0:	40000eb7          	lui	t4,0x40000
    44d4:	00001f37          	lui	t5,0x1
    44d8:	41e40f33          	sub	t5,s0,t5
    44dc:	8ecf3c23          	sd	a2,-1800(t5) # 8f8 <.LBB98_3+0x638>
    44e0:	00001f37          	lui	t5,0x1
    44e4:	41e40f33          	sub	t5,s0,t5
    44e8:	748f3d03          	ld	s10,1864(t5) # 1748 <.LBB98_5+0x27c>
    44ec:	00065463          	bgez	a2,44f4 <.LBB98_36>
    44f0:	c0000eb7          	lui	t4,0xc0000

00000000000044f4 <.LBB98_36>:
    44f4:	00001637          	lui	a2,0x1
    44f8:	40c40633          	sub	a2,s0,a2
    44fc:	8fd63023          	sd	t4,-1824(a2) # 8e0 <.LBB98_3+0x620>
    4500:	007e1613          	slli	a2,t3,0x7
    4504:	f5843e03          	ld	t3,-168(s0)
    4508:	00001eb7          	lui	t4,0x1
    450c:	41d40eb3          	sub	t4,s0,t4
    4510:	6f8ebe83          	ld	t4,1784(t4) # 16f8 <.LBB98_5+0x22c>
    4514:	01ce8e33          	add	t3,t4,t3
    4518:	00001eb7          	lui	t4,0x1
    451c:	41d40eb3          	sub	t4,s0,t4
    4520:	6ecebc23          	sd	a2,1784(t4) # 16f8 <.LBB98_5+0x22c>
    4524:	00ce0e33          	add	t3,t3,a2
    4528:	41fc0ebb          	subw	t4,s8,t6
    452c:	41de063b          	subw	a2,t3,t4
    4530:	40000e37          	lui	t3,0x40000
    4534:	00001eb7          	lui	t4,0x1
    4538:	41d40eb3          	sub	t4,s0,t4
    453c:	82ceb023          	sd	a2,-2016(t4) # 820 <.LBB98_3+0x560>
    4540:	00001eb7          	lui	t4,0x1
    4544:	41d40eb3          	sub	t4,s0,t4
    4548:	778ebf03          	ld	t5,1912(t4) # 1778 <.LBB98_5+0x2ac>
    454c:	00065463          	bgez	a2,4554 <.LBB98_38>
    4550:	c0000e37          	lui	t3,0xc0000

0000000000004554 <.LBB98_38>:
    4554:	00001637          	lui	a2,0x1
    4558:	40c40633          	sub	a2,s0,a2
    455c:	81c63823          	sd	t3,-2032(a2) # 810 <.LBB98_3+0x550>
    4560:	00739613          	slli	a2,t2,0x7
    4564:	f5043383          	ld	t2,-176(s0)
    4568:	007d83b3          	add	t2,s11,t2
    456c:	00001e37          	lui	t3,0x1
    4570:	41c40e33          	sub	t3,s0,t3
    4574:	70ce3023          	sd	a2,1792(t3) # 1700 <.LBB98_5+0x234>
    4578:	00c383b3          	add	t2,t2,a2
    457c:	41fc0e3b          	subw	t3,s8,t6
    4580:	41c3863b          	subw	a2,t2,t3
    4584:	400003b7          	lui	t2,0x40000
    4588:	00002e37          	lui	t3,0x2
    458c:	41c40e33          	sub	t3,s0,t3
    4590:	78ce3c23          	sd	a2,1944(t3) # 2798 <.LBB98_5+0x12cc>
    4594:	00001e37          	lui	t3,0x1
    4598:	41c40e33          	sub	t3,s0,t3
    459c:	710e3e83          	ld	t4,1808(t3) # 1710 <.LBB98_5+0x244>
    45a0:	00065463          	bgez	a2,45a8 <.LBB98_40>
    45a4:	c00003b7          	lui	t2,0xc0000

00000000000045a8 <.LBB98_40>:
    45a8:	00002637          	lui	a2,0x2
    45ac:	40c40633          	sub	a2,s0,a2
    45b0:	78763023          	sd	t2,1920(a2) # 2780 <.LBB98_5+0x12b4>
    45b4:	00729613          	slli	a2,t0,0x7
    45b8:	f4843283          	ld	t0,-184(s0)
    45bc:	005c82b3          	add	t0,s9,t0
    45c0:	00060d93          	mv	s11,a2
    45c4:	00c282b3          	add	t0,t0,a2
    45c8:	41fc03bb          	subw	t2,s8,t6
    45cc:	4072863b          	subw	a2,t0,t2
    45d0:	400002b7          	lui	t0,0x40000
    45d4:	000023b7          	lui	t2,0x2
    45d8:	407403b3          	sub	t2,s0,t2
    45dc:	72c3b023          	sd	a2,1824(t2) # 2720 <.LBB98_5+0x1254>
    45e0:	000013b7          	lui	t2,0x1
    45e4:	407403b3          	sub	t2,s0,t2
    45e8:	7183be03          	ld	t3,1816(t2) # 1718 <.LBB98_5+0x24c>
    45ec:	00065463          	bgez	a2,45f4 <.LBB98_42>
    45f0:	c00002b7          	lui	t0,0xc0000

00000000000045f4 <.LBB98_42>:
    45f4:	00002637          	lui	a2,0x2
    45f8:	40c40633          	sub	a2,s0,a2
    45fc:	70563823          	sd	t0,1808(a2) # 2710 <.LBB98_5+0x1244>
    4600:	00789613          	slli	a2,a7,0x7
    4604:	f4043883          	ld	a7,-192(s0)
    4608:	011e88b3          	add	a7,t4,a7
    460c:	00060c93          	mv	s9,a2
    4610:	00c888b3          	add	a7,a7,a2
    4614:	41fc02bb          	subw	t0,s8,t6
    4618:	4058863b          	subw	a2,a7,t0
    461c:	400008b7          	lui	a7,0x40000
    4620:	a7043383          	ld	t2,-1424(s0)
    4624:	000022b7          	lui	t0,0x2
    4628:	405402b3          	sub	t0,s0,t0
    462c:	6ac2b423          	sd	a2,1704(t0) # 26a8 <.LBB98_5+0x11dc>
    4630:	00065463          	bgez	a2,4638 <.LBB98_44>
    4634:	c00008b7          	lui	a7,0xc0000

0000000000004638 <.LBB98_44>:
    4638:	00002637          	lui	a2,0x2
    463c:	40c40633          	sub	a2,s0,a2
    4640:	69163823          	sd	a7,1680(a2) # 2690 <.LBB98_5+0x11c4>
    4644:	00769613          	slli	a2,a3,0x7
    4648:	f3843683          	ld	a3,-200(s0)
    464c:	00de06b3          	add	a3,t3,a3
    4650:	00060e93          	mv	t4,a2
    4654:	00c686b3          	add	a3,a3,a2
    4658:	41fc08bb          	subw	a7,s8,t6
    465c:	4116863b          	subw	a2,a3,a7
    4660:	400006b7          	lui	a3,0x40000
    4664:	87043283          	ld	t0,-1936(s0)
    4668:	000028b7          	lui	a7,0x2
    466c:	411408b3          	sub	a7,s0,a7
    4670:	62c8b423          	sd	a2,1576(a7) # 2628 <.LBB98_5+0x115c>
    4674:	00065463          	bgez	a2,467c <.LBB98_46>
    4678:	c00006b7          	lui	a3,0xc0000

000000000000467c <.LBB98_46>:
    467c:	00002637          	lui	a2,0x2
    4680:	40c40633          	sub	a2,s0,a2
    4684:	60d63c23          	sd	a3,1560(a2) # 2618 <.LBB98_5+0x114c>
    4688:	00749e13          	slli	t3,s1,0x7
    468c:	f1043683          	ld	a3,-240(s0)
    4690:	00001637          	lui	a2,0x1
    4694:	40c40633          	sub	a2,s0,a2
    4698:	72063603          	ld	a2,1824(a2) # 1720 <.LBB98_5+0x254>
    469c:	00d606b3          	add	a3,a2,a3
    46a0:	01c686b3          	add	a3,a3,t3
    46a4:	41fc08bb          	subw	a7,s8,t6
    46a8:	4116863b          	subw	a2,a3,a7
    46ac:	400006b7          	lui	a3,0x40000
    46b0:	000028b7          	lui	a7,0x2
    46b4:	411408b3          	sub	a7,s0,a7
    46b8:	5ac8b423          	sd	a2,1448(a7) # 25a8 <.LBB98_5+0x10dc>
    46bc:	00065463          	bgez	a2,46c4 <.LBB98_48>
    46c0:	c00006b7          	lui	a3,0xc0000

00000000000046c4 <.LBB98_48>:
    46c4:	00002637          	lui	a2,0x2
    46c8:	40c40633          	sub	a2,s0,a2
    46cc:	58d63823          	sd	a3,1424(a2) # 2590 <.LBB98_5+0x10c4>
    46d0:	00799993          	slli	s3,s3,0x7
    46d4:	f0843683          	ld	a3,-248(s0)
    46d8:	00001637          	lui	a2,0x1
    46dc:	40c40633          	sub	a2,s0,a2
    46e0:	72863603          	ld	a2,1832(a2) # 1728 <.LBB98_5+0x25c>
    46e4:	00d606b3          	add	a3,a2,a3
    46e8:	013686b3          	add	a3,a3,s3
    46ec:	41fc08bb          	subw	a7,s8,t6
    46f0:	4116863b          	subw	a2,a3,a7
    46f4:	400006b7          	lui	a3,0x40000
    46f8:	000028b7          	lui	a7,0x2
    46fc:	411408b3          	sub	a7,s0,a7
    4700:	52c8b823          	sd	a2,1328(a7) # 2530 <.LBB98_5+0x1064>
    4704:	000018b7          	lui	a7,0x1
    4708:	411408b3          	sub	a7,s0,a7
    470c:	7688b483          	ld	s1,1896(a7) # 1768 <.LBB98_5+0x29c>
    4710:	00065463          	bgez	a2,4718 <.LBB98_50>
    4714:	c00006b7          	lui	a3,0xc0000

0000000000004718 <.LBB98_50>:
    4718:	00002637          	lui	a2,0x2
    471c:	40c40633          	sub	a2,s0,a2
    4720:	52d63023          	sd	a3,1312(a2) # 2520 <.LBB98_5+0x1054>
    4724:	00791913          	slli	s2,s2,0x7
    4728:	f0043683          	ld	a3,-256(s0)
    472c:	00001637          	lui	a2,0x1
    4730:	40c40633          	sub	a2,s0,a2
    4734:	73063603          	ld	a2,1840(a2) # 1730 <.LBB98_5+0x264>
    4738:	00d606b3          	add	a3,a2,a3
    473c:	012686b3          	add	a3,a3,s2
    4740:	41fc08bb          	subw	a7,s8,t6
    4744:	4116863b          	subw	a2,a3,a7
    4748:	400006b7          	lui	a3,0x40000
    474c:	000028b7          	lui	a7,0x2
    4750:	411408b3          	sub	a7,s0,a7
    4754:	4ac8b823          	sd	a2,1200(a7) # 24b0 <.LBB98_5+0xfe4>
    4758:	00065463          	bgez	a2,4760 <.LBB98_52>
    475c:	c00006b7          	lui	a3,0xc0000

0000000000004760 <.LBB98_52>:
    4760:	00002637          	lui	a2,0x2
    4764:	40c40633          	sub	a2,s0,a2
    4768:	48d63c23          	sd	a3,1176(a2) # 2498 <.LBB98_5+0xfcc>
    476c:	00709093          	slli	ra,ra,0x7
    4770:	ef843683          	ld	a3,-264(s0)
    4774:	00001637          	lui	a2,0x1
    4778:	40c40633          	sub	a2,s0,a2
    477c:	73863603          	ld	a2,1848(a2) # 1738 <.LBB98_5+0x26c>
    4780:	00d606b3          	add	a3,a2,a3
    4784:	001686b3          	add	a3,a3,ra
    4788:	41fc08bb          	subw	a7,s8,t6
    478c:	4116863b          	subw	a2,a3,a7
    4790:	400006b7          	lui	a3,0x40000
    4794:	000028b7          	lui	a7,0x2
    4798:	411408b3          	sub	a7,s0,a7
    479c:	42c8bc23          	sd	a2,1080(a7) # 2438 <.LBB98_5+0xf6c>
    47a0:	00065463          	bgez	a2,47a8 <.LBB98_54>
    47a4:	c00006b7          	lui	a3,0xc0000

00000000000047a8 <.LBB98_54>:
    47a8:	00002637          	lui	a2,0x2
    47ac:	40c40633          	sub	a2,s0,a2
    47b0:	42d63423          	sd	a3,1064(a2) # 2428 <.LBB98_5+0xf5c>
    47b4:	00731313          	slli	t1,t1,0x7
    47b8:	ef043683          	ld	a3,-272(s0)
    47bc:	00001637          	lui	a2,0x1
    47c0:	40c40633          	sub	a2,s0,a2
    47c4:	74063603          	ld	a2,1856(a2) # 1740 <.LBB98_5+0x274>
    47c8:	00d606b3          	add	a3,a2,a3
    47cc:	006686b3          	add	a3,a3,t1
    47d0:	41fc08bb          	subw	a7,s8,t6
    47d4:	4116863b          	subw	a2,a3,a7
    47d8:	400006b7          	lui	a3,0x40000
    47dc:	000028b7          	lui	a7,0x2
    47e0:	411408b3          	sub	a7,s0,a7
    47e4:	3cc8b023          	sd	a2,960(a7) # 23c0 <.LBB98_5+0xef4>
    47e8:	00065463          	bgez	a2,47f0 <.LBB98_56>
    47ec:	c00006b7          	lui	a3,0xc0000

00000000000047f0 <.LBB98_56>:
    47f0:	00002637          	lui	a2,0x2
    47f4:	40c40633          	sub	a2,s0,a2
    47f8:	3ad63823          	sd	a3,944(a2) # 23b0 <.LBB98_5+0xee4>
    47fc:	00759593          	slli	a1,a1,0x7
    4800:	ee843683          	ld	a3,-280(s0)
    4804:	00dd06b3          	add	a3,s10,a3
    4808:	00b686b3          	add	a3,a3,a1
    480c:	41fc08bb          	subw	a7,s8,t6
    4810:	4116863b          	subw	a2,a3,a7
    4814:	400006b7          	lui	a3,0x40000
    4818:	000028b7          	lui	a7,0x2
    481c:	411408b3          	sub	a7,s0,a7
    4820:	34c8b423          	sd	a2,840(a7) # 2348 <.LBB98_5+0xe7c>
    4824:	00065463          	bgez	a2,482c <.LBB98_58>
    4828:	c00006b7          	lui	a3,0xc0000

000000000000482c <.LBB98_58>:
    482c:	00002637          	lui	a2,0x2
    4830:	40c40633          	sub	a2,s0,a2
    4834:	34d63023          	sd	a3,832(a2) # 2340 <.LBB98_5+0xe74>
    4838:	00001637          	lui	a2,0x1
    483c:	40c40633          	sub	a2,s0,a2
    4840:	d8063603          	ld	a2,-640(a2) # d80 <.LBB98_3+0xac0>
    4844:	00761613          	slli	a2,a2,0x7
    4848:	ee043683          	ld	a3,-288(s0)
    484c:	00db86b3          	add	a3,s7,a3
    4850:	00c686b3          	add	a3,a3,a2
    4854:	41fc08bb          	subw	a7,s8,t6
    4858:	411686bb          	subw	a3,a3,a7
    485c:	400008b7          	lui	a7,0x40000
    4860:	00002bb7          	lui	s7,0x2
    4864:	41740bb3          	sub	s7,s0,s7
    4868:	2cdbbc23          	sd	a3,728(s7) # 22d8 <.LBB98_5+0xe0c>
    486c:	0006d463          	bgez	a3,4874 <.LBB98_60>
    4870:	c00008b7          	lui	a7,0xc0000

0000000000004874 <.LBB98_60>:
    4874:	000026b7          	lui	a3,0x2
    4878:	40d406b3          	sub	a3,s0,a3
    487c:	2d16b823          	sd	a7,720(a3) # 22d0 <.LBB98_5+0xe04>
    4880:	000016b7          	lui	a3,0x1
    4884:	40d406b3          	sub	a3,s0,a3
    4888:	d886bd03          	ld	s10,-632(a3) # d88 <.LBB98_3+0xac8>
    488c:	007d1d13          	slli	s10,s10,0x7
    4890:	ed843683          	ld	a3,-296(s0)
    4894:	00db06b3          	add	a3,s6,a3
    4898:	01a686b3          	add	a3,a3,s10
    489c:	41fc08bb          	subw	a7,s8,t6
    48a0:	411686bb          	subw	a3,a3,a7
    48a4:	400008b7          	lui	a7,0x40000
    48a8:	00002b37          	lui	s6,0x2
    48ac:	41640b33          	sub	s6,s0,s6
    48b0:	26db3423          	sd	a3,616(s6) # 2268 <.LBB98_5+0xd9c>
    48b4:	0006d463          	bgez	a3,48bc <.LBB98_62>
    48b8:	c00008b7          	lui	a7,0xc0000

00000000000048bc <.LBB98_62>:
    48bc:	000026b7          	lui	a3,0x2
    48c0:	40d406b3          	sub	a3,s0,a3
    48c4:	2716b023          	sd	a7,608(a3) # 2260 <.LBB98_5+0xd94>
    48c8:	000016b7          	lui	a3,0x1
    48cc:	40d406b3          	sub	a3,s0,a3
    48d0:	d906bb83          	ld	s7,-624(a3) # d90 <.LBB98_3+0xad0>
    48d4:	007b9b93          	slli	s7,s7,0x7
    48d8:	eb843683          	ld	a3,-328(s0)
    48dc:	00da86b3          	add	a3,s5,a3
    48e0:	017686b3          	add	a3,a3,s7
    48e4:	41fc08bb          	subw	a7,s8,t6
    48e8:	411686bb          	subw	a3,a3,a7
    48ec:	400008b7          	lui	a7,0x40000
    48f0:	00002ab7          	lui	s5,0x2
    48f4:	41540ab3          	sub	s5,s0,s5
    48f8:	1edabc23          	sd	a3,504(s5) # 21f8 <.LBB98_5+0xd2c>
    48fc:	0006d463          	bgez	a3,4904 <.LBB98_64>
    4900:	c00008b7          	lui	a7,0xc0000

0000000000004904 <.LBB98_64>:
    4904:	000026b7          	lui	a3,0x2
    4908:	40d406b3          	sub	a3,s0,a3
    490c:	1f16b823          	sd	a7,496(a3) # 21f0 <.LBB98_5+0xd24>
    4910:	000016b7          	lui	a3,0x1
    4914:	40d406b3          	sub	a3,s0,a3
    4918:	d986bb03          	ld	s6,-616(a3) # d98 <.LBB98_3+0xad8>
    491c:	007b1b13          	slli	s6,s6,0x7
    4920:	ec043683          	ld	a3,-320(s0)
    4924:	00d486b3          	add	a3,s1,a3
    4928:	016686b3          	add	a3,a3,s6
    492c:	41fc08bb          	subw	a7,s8,t6
    4930:	411686bb          	subw	a3,a3,a7
    4934:	400008b7          	lui	a7,0x40000
    4938:	000024b7          	lui	s1,0x2
    493c:	409404b3          	sub	s1,s0,s1
    4940:	18d4b423          	sd	a3,392(s1) # 2188 <.LBB98_5+0xcbc>
    4944:	0006d463          	bgez	a3,494c <.LBB98_66>
    4948:	c00008b7          	lui	a7,0xc0000

000000000000494c <.LBB98_66>:
    494c:	000026b7          	lui	a3,0x2
    4950:	40d406b3          	sub	a3,s0,a3
    4954:	1916b023          	sd	a7,384(a3) # 2180 <.LBB98_5+0xcb4>
    4958:	000016b7          	lui	a3,0x1
    495c:	40d406b3          	sub	a3,s0,a3
    4960:	da06ba83          	ld	s5,-608(a3) # da0 <.LBB98_3+0xae0>
    4964:	007a9a93          	slli	s5,s5,0x7
    4968:	ec843683          	ld	a3,-312(s0)
    496c:	00df06b3          	add	a3,t5,a3
    4970:	015686b3          	add	a3,a3,s5
    4974:	41fc08bb          	subw	a7,s8,t6
    4978:	411686bb          	subw	a3,a3,a7
    497c:	400008b7          	lui	a7,0x40000
    4980:	00002f37          	lui	t5,0x2
    4984:	41e40f33          	sub	t5,s0,t5
    4988:	10df3c23          	sd	a3,280(t5) # 2118 <.LBB98_5+0xc4c>
    498c:	0006d463          	bgez	a3,4994 <.LBB98_68>
    4990:	c00008b7          	lui	a7,0xc0000

0000000000004994 <.LBB98_68>:
    4994:	000026b7          	lui	a3,0x2
    4998:	40d406b3          	sub	a3,s0,a3
    499c:	1116b823          	sd	a7,272(a3) # 2110 <.LBB98_5+0xc44>
    49a0:	000016b7          	lui	a3,0x1
    49a4:	40d406b3          	sub	a3,s0,a3
    49a8:	da86bf03          	ld	t5,-600(a3) # da8 <.LBB98_3+0xae8>
    49ac:	007f1f13          	slli	t5,t5,0x7
    49b0:	ed043683          	ld	a3,-304(s0)
    49b4:	000018b7          	lui	a7,0x1
    49b8:	411408b3          	sub	a7,s0,a7
    49bc:	6788b883          	ld	a7,1656(a7) # 1678 <.LBB98_5+0x1ac>
    49c0:	00d886b3          	add	a3,a7,a3
    49c4:	01e686b3          	add	a3,a3,t5
    49c8:	41fc08bb          	subw	a7,s8,t6
    49cc:	41168c3b          	subw	s8,a3,a7
    49d0:	400006b7          	lui	a3,0x40000
    49d4:	000c5463          	bgez	s8,49dc <.LBB98_70>
    49d8:	c00006b7          	lui	a3,0xc0000

00000000000049dc <.LBB98_70>:
    49dc:	000028b7          	lui	a7,0x2
    49e0:	411408b3          	sub	a7,s0,a7
    49e4:	0ad8b823          	sd	a3,176(a7) # 20b0 <.LBB98_5+0xbe4>
    49e8:	00171693          	slli	a3,a4,0x1
    49ec:	eb843883          	ld	a7,-328(s0)
    49f0:	000014b7          	lui	s1,0x1
    49f4:	409404b3          	sub	s1,s0,s1
    49f8:	7704b483          	ld	s1,1904(s1) # 1770 <.LBB98_5+0x2a4>
    49fc:	011488b3          	add	a7,s1,a7
    4a00:	00e68733          	add	a4,a3,a4
    4a04:	017888b3          	add	a7,a7,s7
    4a08:	41f706bb          	subw	a3,a4,t6
    4a0c:	40d886bb          	subw	a3,a7,a3
    4a10:	400008b7          	lui	a7,0x40000
    4a14:	000014b7          	lui	s1,0x1
    4a18:	409404b3          	sub	s1,s0,s1
    4a1c:	76d4bc23          	sd	a3,1912(s1) # 1778 <.LBB98_5+0x2ac>
    4a20:	0006d463          	bgez	a3,4a28 <.LBB98_72>
    4a24:	c00008b7          	lui	a7,0xc0000

0000000000004a28 <.LBB98_72>:
    4a28:	000016b7          	lui	a3,0x1
    4a2c:	40d406b3          	sub	a3,s0,a3
    4a30:	7716b823          	sd	a7,1904(a3) # 1770 <.LBB98_5+0x2a4>
    4a34:	ec043683          	ld	a3,-320(s0)
    4a38:	000018b7          	lui	a7,0x1
    4a3c:	411408b3          	sub	a7,s0,a7
    4a40:	7808b883          	ld	a7,1920(a7) # 1780 <.LBB98_5+0x2b4>
    4a44:	00d886b3          	add	a3,a7,a3
    4a48:	016686b3          	add	a3,a3,s6
    4a4c:	41f708bb          	subw	a7,a4,t6
    4a50:	411686bb          	subw	a3,a3,a7
    4a54:	400008b7          	lui	a7,0x40000
    4a58:	000014b7          	lui	s1,0x1
    4a5c:	409404b3          	sub	s1,s0,s1
    4a60:	78d4b023          	sd	a3,1920(s1) # 1780 <.LBB98_5+0x2b4>
    4a64:	000014b7          	lui	s1,0x1
    4a68:	409404b3          	sub	s1,s0,s1
    4a6c:	6f84b483          	ld	s1,1784(s1) # 16f8 <.LBB98_5+0x22c>
    4a70:	0006d463          	bgez	a3,4a78 <.LBB98_74>
    4a74:	c00008b7          	lui	a7,0xc0000

0000000000004a78 <.LBB98_74>:
    4a78:	f8a43823          	sd	a0,-112(s0)
    4a7c:	00001537          	lui	a0,0x1
    4a80:	40a40533          	sub	a0,s0,a0
    4a84:	77153423          	sd	a7,1896(a0) # 1768 <.LBB98_5+0x29c>
    4a88:	ec843683          	ld	a3,-312(s0)
    4a8c:	00001537          	lui	a0,0x1
    4a90:	40a40533          	sub	a0,s0,a0
    4a94:	78853883          	ld	a7,1928(a0) # 1788 <.LBB98_5+0x2bc>
    4a98:	00d886b3          	add	a3,a7,a3
    4a9c:	015686b3          	add	a3,a3,s5
    4aa0:	41f708bb          	subw	a7,a4,t6
    4aa4:	411686bb          	subw	a3,a3,a7
    4aa8:	400008b7          	lui	a7,0x40000
    4aac:	00001537          	lui	a0,0x1
    4ab0:	40a40533          	sub	a0,s0,a0
    4ab4:	74d53423          	sd	a3,1864(a0) # 1748 <.LBB98_5+0x27c>
    4ab8:	f9043503          	ld	a0,-112(s0)
    4abc:	0006d463          	bgez	a3,4ac4 <.LBB98_76>
    4ac0:	c00008b7          	lui	a7,0xc0000

0000000000004ac4 <.LBB98_76>:
    4ac4:	f8a43823          	sd	a0,-112(s0)
    4ac8:	00001537          	lui	a0,0x1
    4acc:	40a40533          	sub	a0,s0,a0
    4ad0:	75153023          	sd	a7,1856(a0) # 1740 <.LBB98_5+0x274>
    4ad4:	ed043683          	ld	a3,-304(s0)
    4ad8:	00001537          	lui	a0,0x1
    4adc:	40a40533          	sub	a0,s0,a0
    4ae0:	79053883          	ld	a7,1936(a0) # 1790 <.LBB98_5+0x2c4>
    4ae4:	00d886b3          	add	a3,a7,a3
    4ae8:	01e686b3          	add	a3,a3,t5
    4aec:	41f708bb          	subw	a7,a4,t6
    4af0:	411686bb          	subw	a3,a3,a7
    4af4:	400008b7          	lui	a7,0x40000
    4af8:	00001537          	lui	a0,0x1
    4afc:	40a40533          	sub	a0,s0,a0
    4b00:	dad53423          	sd	a3,-600(a0) # da8 <.LBB98_3+0xae8>
    4b04:	f9043503          	ld	a0,-112(s0)
    4b08:	0006d463          	bgez	a3,4b10 <.LBB98_78>
    4b0c:	c00008b7          	lui	a7,0xc0000

0000000000004b10 <.LBB98_78>:
    4b10:	f8a43823          	sd	a0,-112(s0)
    4b14:	00001537          	lui	a0,0x1
    4b18:	40a40533          	sub	a0,s0,a0
    4b1c:	db153023          	sd	a7,-608(a0) # da0 <.LBB98_3+0xae0>
    4b20:	ed843683          	ld	a3,-296(s0)
    4b24:	00001537          	lui	a0,0x1
    4b28:	40a40533          	sub	a0,s0,a0
    4b2c:	79853883          	ld	a7,1944(a0) # 1798 <.LBB98_5+0x2cc>
    4b30:	00d886b3          	add	a3,a7,a3
    4b34:	01a686b3          	add	a3,a3,s10
    4b38:	41f708bb          	subw	a7,a4,t6
    4b3c:	411686bb          	subw	a3,a3,a7
    4b40:	400008b7          	lui	a7,0x40000
    4b44:	00001537          	lui	a0,0x1
    4b48:	40a40533          	sub	a0,s0,a0
    4b4c:	d2d53c23          	sd	a3,-712(a0) # d38 <.LBB98_3+0xa78>
    4b50:	f9043503          	ld	a0,-112(s0)
    4b54:	0006d463          	bgez	a3,4b5c <.LBB98_80>
    4b58:	c00008b7          	lui	a7,0xc0000

0000000000004b5c <.LBB98_80>:
    4b5c:	f8a43823          	sd	a0,-112(s0)
    4b60:	00001537          	lui	a0,0x1
    4b64:	40a40533          	sub	a0,s0,a0
    4b68:	d3153823          	sd	a7,-720(a0) # d30 <.LBB98_3+0xa70>
    4b6c:	ee043683          	ld	a3,-288(s0)
    4b70:	00001537          	lui	a0,0x1
    4b74:	40a40533          	sub	a0,s0,a0
    4b78:	7a053883          	ld	a7,1952(a0) # 17a0 <.LBB98_5+0x2d4>
    4b7c:	00d886b3          	add	a3,a7,a3
    4b80:	00c686b3          	add	a3,a3,a2
    4b84:	41f708bb          	subw	a7,a4,t6
    4b88:	411686bb          	subw	a3,a3,a7
    4b8c:	400008b7          	lui	a7,0x40000
    4b90:	00001537          	lui	a0,0x1
    4b94:	40a40533          	sub	a0,s0,a0
    4b98:	ccd53423          	sd	a3,-824(a0) # cc8 <.LBB98_3+0xa08>
    4b9c:	f9043503          	ld	a0,-112(s0)
    4ba0:	0006d463          	bgez	a3,4ba8 <.LBB98_82>
    4ba4:	c00008b7          	lui	a7,0xc0000

0000000000004ba8 <.LBB98_82>:
    4ba8:	f8a43823          	sd	a0,-112(s0)
    4bac:	00001537          	lui	a0,0x1
    4bb0:	40a40533          	sub	a0,s0,a0
    4bb4:	cd153023          	sd	a7,-832(a0) # cc0 <.LBB98_3+0xa00>
    4bb8:	ee843683          	ld	a3,-280(s0)
    4bbc:	00001537          	lui	a0,0x1
    4bc0:	40a40533          	sub	a0,s0,a0
    4bc4:	7a853883          	ld	a7,1960(a0) # 17a8 <.LBB98_5+0x2dc>
    4bc8:	00d886b3          	add	a3,a7,a3
    4bcc:	00b686b3          	add	a3,a3,a1
    4bd0:	41f708bb          	subw	a7,a4,t6
    4bd4:	411686bb          	subw	a3,a3,a7
    4bd8:	400008b7          	lui	a7,0x40000
    4bdc:	00001537          	lui	a0,0x1
    4be0:	40a40533          	sub	a0,s0,a0
    4be4:	c4d53c23          	sd	a3,-936(a0) # c58 <.LBB98_3+0x998>
    4be8:	f9043503          	ld	a0,-112(s0)
    4bec:	0006d463          	bgez	a3,4bf4 <.LBB98_84>
    4bf0:	c00008b7          	lui	a7,0xc0000

0000000000004bf4 <.LBB98_84>:
    4bf4:	f8a43823          	sd	a0,-112(s0)
    4bf8:	00001537          	lui	a0,0x1
    4bfc:	40a40533          	sub	a0,s0,a0
    4c00:	c5153823          	sd	a7,-944(a0) # c50 <.LBB98_3+0x990>
    4c04:	ef043683          	ld	a3,-272(s0)
    4c08:	00001537          	lui	a0,0x1
    4c0c:	40a40533          	sub	a0,s0,a0
    4c10:	7b053883          	ld	a7,1968(a0) # 17b0 <.LBB98_5+0x2e4>
    4c14:	00d886b3          	add	a3,a7,a3
    4c18:	006686b3          	add	a3,a3,t1
    4c1c:	41f708bb          	subw	a7,a4,t6
    4c20:	411686bb          	subw	a3,a3,a7
    4c24:	400008b7          	lui	a7,0x40000
    4c28:	00001537          	lui	a0,0x1
    4c2c:	40a40533          	sub	a0,s0,a0
    4c30:	bed53423          	sd	a3,-1048(a0) # be8 <.LBB98_3+0x928>
    4c34:	f9043503          	ld	a0,-112(s0)
    4c38:	0006d463          	bgez	a3,4c40 <.LBB98_86>
    4c3c:	c00008b7          	lui	a7,0xc0000

0000000000004c40 <.LBB98_86>:
    4c40:	f8a43823          	sd	a0,-112(s0)
    4c44:	00001537          	lui	a0,0x1
    4c48:	40a40533          	sub	a0,s0,a0
    4c4c:	bf153023          	sd	a7,-1056(a0) # be0 <.LBB98_3+0x920>
    4c50:	ef843683          	ld	a3,-264(s0)
    4c54:	00001537          	lui	a0,0x1
    4c58:	40a40533          	sub	a0,s0,a0
    4c5c:	7b853883          	ld	a7,1976(a0) # 17b8 <.LBB98_5+0x2ec>
    4c60:	00d886b3          	add	a3,a7,a3
    4c64:	001686b3          	add	a3,a3,ra
    4c68:	41f708bb          	subw	a7,a4,t6
    4c6c:	411686bb          	subw	a3,a3,a7
    4c70:	400008b7          	lui	a7,0x40000
    4c74:	00001537          	lui	a0,0x1
    4c78:	40a40533          	sub	a0,s0,a0
    4c7c:	b6d53823          	sd	a3,-1168(a0) # b70 <.LBB98_3+0x8b0>
    4c80:	f9043503          	ld	a0,-112(s0)
    4c84:	0006d463          	bgez	a3,4c8c <.LBB98_88>
    4c88:	c00008b7          	lui	a7,0xc0000

0000000000004c8c <.LBB98_88>:
    4c8c:	f8a43823          	sd	a0,-112(s0)
    4c90:	00001537          	lui	a0,0x1
    4c94:	40a40533          	sub	a0,s0,a0
    4c98:	b7153423          	sd	a7,-1176(a0) # b68 <.LBB98_3+0x8a8>
    4c9c:	f0043683          	ld	a3,-256(s0)
    4ca0:	00001537          	lui	a0,0x1
    4ca4:	40a40533          	sub	a0,s0,a0
    4ca8:	7c053883          	ld	a7,1984(a0) # 17c0 <.LBB98_5+0x2f4>
    4cac:	00d886b3          	add	a3,a7,a3
    4cb0:	012686b3          	add	a3,a3,s2
    4cb4:	41f708bb          	subw	a7,a4,t6
    4cb8:	411686bb          	subw	a3,a3,a7
    4cbc:	400008b7          	lui	a7,0x40000
    4cc0:	00001537          	lui	a0,0x1
    4cc4:	40a40533          	sub	a0,s0,a0
    4cc8:	aed53823          	sd	a3,-1296(a0) # af0 <.LBB98_3+0x830>
    4ccc:	f9043503          	ld	a0,-112(s0)
    4cd0:	0006d463          	bgez	a3,4cd8 <.LBB98_90>
    4cd4:	c00008b7          	lui	a7,0xc0000

0000000000004cd8 <.LBB98_90>:
    4cd8:	f8a43823          	sd	a0,-112(s0)
    4cdc:	00001537          	lui	a0,0x1
    4ce0:	40a40533          	sub	a0,s0,a0
    4ce4:	af153423          	sd	a7,-1304(a0) # ae8 <.LBB98_3+0x828>
    4ce8:	f0843683          	ld	a3,-248(s0)
    4cec:	00001537          	lui	a0,0x1
    4cf0:	40a40533          	sub	a0,s0,a0
    4cf4:	7c853883          	ld	a7,1992(a0) # 17c8 <.LBB98_5+0x2fc>
    4cf8:	00d886b3          	add	a3,a7,a3
    4cfc:	013686b3          	add	a3,a3,s3
    4d00:	41f708bb          	subw	a7,a4,t6
    4d04:	411686bb          	subw	a3,a3,a7
    4d08:	400008b7          	lui	a7,0x40000
    4d0c:	00001537          	lui	a0,0x1
    4d10:	40a40533          	sub	a0,s0,a0
    4d14:	a6d53823          	sd	a3,-1424(a0) # a70 <.LBB98_3+0x7b0>
    4d18:	f9043503          	ld	a0,-112(s0)
    4d1c:	0006d463          	bgez	a3,4d24 <.LBB98_92>
    4d20:	c00008b7          	lui	a7,0xc0000

0000000000004d24 <.LBB98_92>:
    4d24:	f8a43823          	sd	a0,-112(s0)
    4d28:	00001537          	lui	a0,0x1
    4d2c:	40a40533          	sub	a0,s0,a0
    4d30:	a7153423          	sd	a7,-1432(a0) # a68 <.LBB98_3+0x7a8>
    4d34:	f1043683          	ld	a3,-240(s0)
    4d38:	00001537          	lui	a0,0x1
    4d3c:	40a40533          	sub	a0,s0,a0
    4d40:	7d053883          	ld	a7,2000(a0) # 17d0 <.LBB98_5+0x304>
    4d44:	00d886b3          	add	a3,a7,a3
    4d48:	01c686b3          	add	a3,a3,t3
    4d4c:	41f708bb          	subw	a7,a4,t6
    4d50:	411686bb          	subw	a3,a3,a7
    4d54:	400008b7          	lui	a7,0x40000
    4d58:	00001537          	lui	a0,0x1
    4d5c:	40a40533          	sub	a0,s0,a0
    4d60:	9ed53c23          	sd	a3,-1544(a0) # 9f8 <.LBB98_3+0x738>
    4d64:	f9043503          	ld	a0,-112(s0)
    4d68:	0006d463          	bgez	a3,4d70 <.LBB98_94>
    4d6c:	c00008b7          	lui	a7,0xc0000

0000000000004d70 <.LBB98_94>:
    4d70:	f8a43823          	sd	a0,-112(s0)
    4d74:	00001537          	lui	a0,0x1
    4d78:	40a40533          	sub	a0,s0,a0
    4d7c:	9f153423          	sd	a7,-1560(a0) # 9e8 <.LBB98_3+0x728>
    4d80:	f3843683          	ld	a3,-200(s0)
    4d84:	00001537          	lui	a0,0x1
    4d88:	40a40533          	sub	a0,s0,a0
    4d8c:	7d853883          	ld	a7,2008(a0) # 17d8 <.LBB98_5+0x30c>
    4d90:	00d886b3          	add	a3,a7,a3
    4d94:	01d686b3          	add	a3,a3,t4
    4d98:	41f708bb          	subw	a7,a4,t6
    4d9c:	411686bb          	subw	a3,a3,a7
    4da0:	400008b7          	lui	a7,0x40000
    4da4:	00001537          	lui	a0,0x1
    4da8:	40a40533          	sub	a0,s0,a0
    4dac:	96d53c23          	sd	a3,-1672(a0) # 978 <.LBB98_3+0x6b8>
    4db0:	f9043503          	ld	a0,-112(s0)
    4db4:	0006d463          	bgez	a3,4dbc <.LBB98_96>
    4db8:	c00008b7          	lui	a7,0xc0000

0000000000004dbc <.LBB98_96>:
    4dbc:	f8a43823          	sd	a0,-112(s0)
    4dc0:	00001537          	lui	a0,0x1
    4dc4:	40a40533          	sub	a0,s0,a0
    4dc8:	97153423          	sd	a7,-1688(a0) # 968 <.LBB98_3+0x6a8>
    4dcc:	f4043683          	ld	a3,-192(s0)
    4dd0:	00001537          	lui	a0,0x1
    4dd4:	40a40533          	sub	a0,s0,a0
    4dd8:	7e053883          	ld	a7,2016(a0) # 17e0 <.LBB98_5+0x314>
    4ddc:	00d886b3          	add	a3,a7,a3
    4de0:	019686b3          	add	a3,a3,s9
    4de4:	41f708bb          	subw	a7,a4,t6
    4de8:	411686bb          	subw	a3,a3,a7
    4dec:	400008b7          	lui	a7,0x40000
    4df0:	00001537          	lui	a0,0x1
    4df4:	40a40533          	sub	a0,s0,a0
    4df8:	90d53023          	sd	a3,-1792(a0) # 900 <.LBB98_3+0x640>
    4dfc:	f9043503          	ld	a0,-112(s0)
    4e00:	0006d463          	bgez	a3,4e08 <.LBB98_98>
    4e04:	c00008b7          	lui	a7,0xc0000

0000000000004e08 <.LBB98_98>:
    4e08:	f8a43823          	sd	a0,-112(s0)
    4e0c:	00001537          	lui	a0,0x1
    4e10:	40a40533          	sub	a0,s0,a0
    4e14:	8f153823          	sd	a7,-1808(a0) # 8f0 <.LBB98_3+0x630>
    4e18:	f4843683          	ld	a3,-184(s0)
    4e1c:	00001537          	lui	a0,0x1
    4e20:	40a40533          	sub	a0,s0,a0
    4e24:	7e853883          	ld	a7,2024(a0) # 17e8 <.LBB98_5+0x31c>
    4e28:	00d886b3          	add	a3,a7,a3
    4e2c:	01b686b3          	add	a3,a3,s11
    4e30:	41f708bb          	subw	a7,a4,t6
    4e34:	411686bb          	subw	a3,a3,a7
    4e38:	400008b7          	lui	a7,0x40000
    4e3c:	00001537          	lui	a0,0x1
    4e40:	40a40533          	sub	a0,s0,a0
    4e44:	82d53823          	sd	a3,-2000(a0) # 830 <.LBB98_3+0x570>
    4e48:	f9043503          	ld	a0,-112(s0)
    4e4c:	0006d463          	bgez	a3,4e54 <.LBB98_100>
    4e50:	c00008b7          	lui	a7,0xc0000

0000000000004e54 <.LBB98_100>:
    4e54:	f8a43823          	sd	a0,-112(s0)
    4e58:	00001537          	lui	a0,0x1
    4e5c:	40a40533          	sub	a0,s0,a0
    4e60:	83153423          	sd	a7,-2008(a0) # 828 <.LBB98_3+0x568>
    4e64:	f5043683          	ld	a3,-176(s0)
    4e68:	00001537          	lui	a0,0x1
    4e6c:	40a40533          	sub	a0,s0,a0
    4e70:	7f053883          	ld	a7,2032(a0) # 17f0 <.LBB98_5+0x324>
    4e74:	00d886b3          	add	a3,a7,a3
    4e78:	00001537          	lui	a0,0x1
    4e7c:	40a40533          	sub	a0,s0,a0
    4e80:	70053883          	ld	a7,1792(a0) # 1700 <.LBB98_5+0x234>
    4e84:	011686b3          	add	a3,a3,a7
    4e88:	41f708bb          	subw	a7,a4,t6
    4e8c:	411686bb          	subw	a3,a3,a7
    4e90:	400008b7          	lui	a7,0x40000
    4e94:	00002537          	lui	a0,0x2
    4e98:	40a40533          	sub	a0,s0,a0
    4e9c:	7ad53823          	sd	a3,1968(a0) # 27b0 <.LBB98_5+0x12e4>
    4ea0:	f9043503          	ld	a0,-112(s0)
    4ea4:	0006d463          	bgez	a3,4eac <.LBB98_102>
    4ea8:	c00008b7          	lui	a7,0xc0000

0000000000004eac <.LBB98_102>:
    4eac:	f8a43823          	sd	a0,-112(s0)
    4eb0:	00002537          	lui	a0,0x2
    4eb4:	40a40533          	sub	a0,s0,a0
    4eb8:	7b153423          	sd	a7,1960(a0) # 27a8 <.LBB98_5+0x12dc>
    4ebc:	f5843683          	ld	a3,-168(s0)
    4ec0:	00001537          	lui	a0,0x1
    4ec4:	40a40533          	sub	a0,s0,a0
    4ec8:	7f853883          	ld	a7,2040(a0) # 17f8 <.LBB98_5+0x32c>
    4ecc:	00d886b3          	add	a3,a7,a3
    4ed0:	009686b3          	add	a3,a3,s1
    4ed4:	41f708bb          	subw	a7,a4,t6
    4ed8:	411686bb          	subw	a3,a3,a7
    4edc:	400008b7          	lui	a7,0x40000
    4ee0:	00002537          	lui	a0,0x2
    4ee4:	40a40533          	sub	a0,s0,a0
    4ee8:	74d53023          	sd	a3,1856(a0) # 2740 <.LBB98_5+0x1274>
    4eec:	f9043503          	ld	a0,-112(s0)
    4ef0:	0006d463          	bgez	a3,4ef8 <.LBB98_104>
    4ef4:	c00008b7          	lui	a7,0xc0000

0000000000004ef8 <.LBB98_104>:
    4ef8:	f8a43823          	sd	a0,-112(s0)
    4efc:	00002537          	lui	a0,0x2
    4f00:	40a40533          	sub	a0,s0,a0
    4f04:	73153c23          	sd	a7,1848(a0) # 2738 <.LBB98_5+0x126c>
    4f08:	f6043683          	ld	a3,-160(s0)
    4f0c:	80043883          	ld	a7,-2048(s0)
    4f10:	00d886b3          	add	a3,a7,a3
    4f14:	00001537          	lui	a0,0x1
    4f18:	40a40533          	sub	a0,s0,a0
    4f1c:	6f053883          	ld	a7,1776(a0) # 16f0 <.LBB98_5+0x224>
    4f20:	011686b3          	add	a3,a3,a7
    4f24:	41f708bb          	subw	a7,a4,t6
    4f28:	411686bb          	subw	a3,a3,a7
    4f2c:	400008b7          	lui	a7,0x40000
    4f30:	00002537          	lui	a0,0x2
    4f34:	40a40533          	sub	a0,s0,a0
    4f38:	6cd53823          	sd	a3,1744(a0) # 26d0 <.LBB98_5+0x1204>
    4f3c:	f9043503          	ld	a0,-112(s0)
    4f40:	0006d463          	bgez	a3,4f48 <.LBB98_106>
    4f44:	c00008b7          	lui	a7,0xc0000

0000000000004f48 <.LBB98_106>:
    4f48:	f8a43823          	sd	a0,-112(s0)
    4f4c:	00002537          	lui	a0,0x2
    4f50:	40a40533          	sub	a0,s0,a0
    4f54:	6d153423          	sd	a7,1736(a0) # 26c8 <.LBB98_5+0x11fc>
    4f58:	f6843683          	ld	a3,-152(s0)
    4f5c:	80843883          	ld	a7,-2040(s0)
    4f60:	00d886b3          	add	a3,a7,a3
    4f64:	00001537          	lui	a0,0x1
    4f68:	40a40533          	sub	a0,s0,a0
    4f6c:	6e853883          	ld	a7,1768(a0) # 16e8 <.LBB98_5+0x21c>
    4f70:	011686b3          	add	a3,a3,a7
    4f74:	41f708bb          	subw	a7,a4,t6
    4f78:	411686bb          	subw	a3,a3,a7
    4f7c:	400008b7          	lui	a7,0x40000
    4f80:	00002537          	lui	a0,0x2
    4f84:	40a40533          	sub	a0,s0,a0
    4f88:	64d53c23          	sd	a3,1624(a0) # 2658 <.LBB98_5+0x118c>
    4f8c:	f9043503          	ld	a0,-112(s0)
    4f90:	0006d463          	bgez	a3,4f98 <.LBB98_108>
    4f94:	c00008b7          	lui	a7,0xc0000

0000000000004f98 <.LBB98_108>:
    4f98:	f8a43823          	sd	a0,-112(s0)
    4f9c:	00002537          	lui	a0,0x2
    4fa0:	40a40533          	sub	a0,s0,a0
    4fa4:	65153823          	sd	a7,1616(a0) # 2650 <.LBB98_5+0x1184>
    4fa8:	f7043683          	ld	a3,-144(s0)
    4fac:	81043883          	ld	a7,-2032(s0)
    4fb0:	00d886b3          	add	a3,a7,a3
    4fb4:	00001537          	lui	a0,0x1
    4fb8:	40a40533          	sub	a0,s0,a0
    4fbc:	6e053883          	ld	a7,1760(a0) # 16e0 <.LBB98_5+0x214>
    4fc0:	011686b3          	add	a3,a3,a7
    4fc4:	41f708bb          	subw	a7,a4,t6
    4fc8:	411686bb          	subw	a3,a3,a7
    4fcc:	400008b7          	lui	a7,0x40000
    4fd0:	00002537          	lui	a0,0x2
    4fd4:	40a40533          	sub	a0,s0,a0
    4fd8:	5ed53023          	sd	a3,1504(a0) # 25e0 <.LBB98_5+0x1114>
    4fdc:	f9043503          	ld	a0,-112(s0)
    4fe0:	0006d463          	bgez	a3,4fe8 <.LBB98_110>
    4fe4:	c00008b7          	lui	a7,0xc0000

0000000000004fe8 <.LBB98_110>:
    4fe8:	f8a43823          	sd	a0,-112(s0)
    4fec:	00002537          	lui	a0,0x2
    4ff0:	40a40533          	sub	a0,s0,a0
    4ff4:	5d153c23          	sd	a7,1496(a0) # 25d8 <.LBB98_5+0x110c>
    4ff8:	f7843683          	ld	a3,-136(s0)
    4ffc:	81843883          	ld	a7,-2024(s0)
    5000:	00d886b3          	add	a3,a7,a3
    5004:	00001537          	lui	a0,0x1
    5008:	40a40533          	sub	a0,s0,a0
    500c:	6d853883          	ld	a7,1752(a0) # 16d8 <.LBB98_5+0x20c>
    5010:	011686b3          	add	a3,a3,a7
    5014:	41f708bb          	subw	a7,a4,t6
    5018:	411686bb          	subw	a3,a3,a7
    501c:	400008b7          	lui	a7,0x40000
    5020:	00002537          	lui	a0,0x2
    5024:	40a40533          	sub	a0,s0,a0
    5028:	56d53823          	sd	a3,1392(a0) # 2570 <.LBB98_5+0x10a4>
    502c:	f9043503          	ld	a0,-112(s0)
    5030:	0006d463          	bgez	a3,5038 <.LBB98_112>
    5034:	c00008b7          	lui	a7,0xc0000

0000000000005038 <.LBB98_112>:
    5038:	f8a43823          	sd	a0,-112(s0)
    503c:	00002537          	lui	a0,0x2
    5040:	40a40533          	sub	a0,s0,a0
    5044:	57153423          	sd	a7,1384(a0) # 2568 <.LBB98_5+0x109c>
    5048:	f8843683          	ld	a3,-120(s0)
    504c:	82043883          	ld	a7,-2016(s0)
    5050:	00d886b3          	add	a3,a7,a3
    5054:	00001537          	lui	a0,0x1
    5058:	40a40533          	sub	a0,s0,a0
    505c:	6d053883          	ld	a7,1744(a0) # 16d0 <.LBB98_5+0x204>
    5060:	011686b3          	add	a3,a3,a7
    5064:	41f708bb          	subw	a7,a4,t6
    5068:	411686bb          	subw	a3,a3,a7
    506c:	400008b7          	lui	a7,0x40000
    5070:	00002537          	lui	a0,0x2
    5074:	40a40533          	sub	a0,s0,a0
    5078:	4ed53c23          	sd	a3,1272(a0) # 24f8 <.LBB98_5+0x102c>
    507c:	f9043503          	ld	a0,-112(s0)
    5080:	0006d463          	bgez	a3,5088 <.LBB98_114>
    5084:	c00008b7          	lui	a7,0xc0000

0000000000005088 <.LBB98_114>:
    5088:	f8a43823          	sd	a0,-112(s0)
    508c:	00002537          	lui	a0,0x2
    5090:	40a40533          	sub	a0,s0,a0
    5094:	4f153823          	sd	a7,1264(a0) # 24f0 <.LBB98_5+0x1024>
    5098:	00001537          	lui	a0,0x1
    509c:	40a40533          	sub	a0,s0,a0
    50a0:	6c853683          	ld	a3,1736(a0) # 16c8 <.LBB98_5+0x1fc>
    50a4:	82843883          	ld	a7,-2008(s0)
    50a8:	00d886b3          	add	a3,a7,a3
    50ac:	00001537          	lui	a0,0x1
    50b0:	40a40533          	sub	a0,s0,a0
    50b4:	69053883          	ld	a7,1680(a0) # 1690 <.LBB98_5+0x1c4>
    50b8:	011686b3          	add	a3,a3,a7
    50bc:	41f708bb          	subw	a7,a4,t6
    50c0:	411686bb          	subw	a3,a3,a7
    50c4:	400008b7          	lui	a7,0x40000
    50c8:	00002537          	lui	a0,0x2
    50cc:	40a40533          	sub	a0,s0,a0
    50d0:	48d53423          	sd	a3,1160(a0) # 2488 <.LBB98_5+0xfbc>
    50d4:	f9043503          	ld	a0,-112(s0)
    50d8:	0006d463          	bgez	a3,50e0 <.LBB98_116>
    50dc:	c00008b7          	lui	a7,0xc0000

00000000000050e0 <.LBB98_116>:
    50e0:	f8a43823          	sd	a0,-112(s0)
    50e4:	00002537          	lui	a0,0x2
    50e8:	40a40533          	sub	a0,s0,a0
    50ec:	49153023          	sd	a7,1152(a0) # 2480 <.LBB98_5+0xfb4>
    50f0:	00001537          	lui	a0,0x1
    50f4:	40a40533          	sub	a0,s0,a0
    50f8:	69853683          	ld	a3,1688(a0) # 1698 <.LBB98_5+0x1cc>
    50fc:	83043883          	ld	a7,-2000(s0)
    5100:	00d886b3          	add	a3,a7,a3
    5104:	00001537          	lui	a0,0x1
    5108:	40a40533          	sub	a0,s0,a0
    510c:	6c053883          	ld	a7,1728(a0) # 16c0 <.LBB98_5+0x1f4>
    5110:	011686b3          	add	a3,a3,a7
    5114:	41f708bb          	subw	a7,a4,t6
    5118:	411686bb          	subw	a3,a3,a7
    511c:	400008b7          	lui	a7,0x40000
    5120:	00002537          	lui	a0,0x2
    5124:	40a40533          	sub	a0,s0,a0
    5128:	40d53c23          	sd	a3,1048(a0) # 2418 <.LBB98_5+0xf4c>
    512c:	f9043503          	ld	a0,-112(s0)
    5130:	0006d463          	bgez	a3,5138 <.LBB98_118>
    5134:	c00008b7          	lui	a7,0xc0000

0000000000005138 <.LBB98_118>:
    5138:	f8a43823          	sd	a0,-112(s0)
    513c:	00002537          	lui	a0,0x2
    5140:	40a40533          	sub	a0,s0,a0
    5144:	41153823          	sd	a7,1040(a0) # 2410 <.LBB98_5+0xf44>
    5148:	00001537          	lui	a0,0x1
    514c:	40a40533          	sub	a0,s0,a0
    5150:	6a853683          	ld	a3,1704(a0) # 16a8 <.LBB98_5+0x1dc>
    5154:	83843883          	ld	a7,-1992(s0)
    5158:	00d886b3          	add	a3,a7,a3
    515c:	00001537          	lui	a0,0x1
    5160:	40a40533          	sub	a0,s0,a0
    5164:	6a053883          	ld	a7,1696(a0) # 16a0 <.LBB98_5+0x1d4>
    5168:	011686b3          	add	a3,a3,a7
    516c:	41f708bb          	subw	a7,a4,t6
    5170:	411686bb          	subw	a3,a3,a7
    5174:	400008b7          	lui	a7,0x40000
    5178:	00002537          	lui	a0,0x2
    517c:	40a40533          	sub	a0,s0,a0
    5180:	3ad53423          	sd	a3,936(a0) # 23a8 <.LBB98_5+0xedc>
    5184:	f9043503          	ld	a0,-112(s0)
    5188:	0006d463          	bgez	a3,5190 <.LBB98_120>
    518c:	c00008b7          	lui	a7,0xc0000

0000000000005190 <.LBB98_120>:
    5190:	f8a43823          	sd	a0,-112(s0)
    5194:	00002537          	lui	a0,0x2
    5198:	40a40533          	sub	a0,s0,a0
    519c:	3b153023          	sd	a7,928(a0) # 23a0 <.LBB98_5+0xed4>
    51a0:	00001537          	lui	a0,0x1
    51a4:	40a40533          	sub	a0,s0,a0
    51a8:	6b853683          	ld	a3,1720(a0) # 16b8 <.LBB98_5+0x1ec>
    51ac:	84043883          	ld	a7,-1984(s0)
    51b0:	00d886b3          	add	a3,a7,a3
    51b4:	00001537          	lui	a0,0x1
    51b8:	40a40533          	sub	a0,s0,a0
    51bc:	6b053883          	ld	a7,1712(a0) # 16b0 <.LBB98_5+0x1e4>
    51c0:	011686b3          	add	a3,a3,a7
    51c4:	41f708bb          	subw	a7,a4,t6
    51c8:	411686bb          	subw	a3,a3,a7
    51cc:	400008b7          	lui	a7,0x40000
    51d0:	00002537          	lui	a0,0x2
    51d4:	40a40533          	sub	a0,s0,a0
    51d8:	32d53c23          	sd	a3,824(a0) # 2338 <.LBB98_5+0xe6c>
    51dc:	f9043503          	ld	a0,-112(s0)
    51e0:	0006d463          	bgez	a3,51e8 <.LBB98_122>
    51e4:	c00008b7          	lui	a7,0xc0000

00000000000051e8 <.LBB98_122>:
    51e8:	f8a43823          	sd	a0,-112(s0)
    51ec:	00002537          	lui	a0,0x2
    51f0:	40a40533          	sub	a0,s0,a0
    51f4:	33153823          	sd	a7,816(a0) # 2330 <.LBB98_5+0xe64>
    51f8:	e6043683          	ld	a3,-416(s0)
    51fc:	84843883          	ld	a7,-1976(s0)
    5200:	00d886b3          	add	a3,a7,a3
    5204:	e5843883          	ld	a7,-424(s0)
    5208:	011686b3          	add	a3,a3,a7
    520c:	41f708bb          	subw	a7,a4,t6
    5210:	411686bb          	subw	a3,a3,a7
    5214:	400008b7          	lui	a7,0x40000
    5218:	00002537          	lui	a0,0x2
    521c:	40a40533          	sub	a0,s0,a0
    5220:	2cd53423          	sd	a3,712(a0) # 22c8 <.LBB98_5+0xdfc>
    5224:	f9043503          	ld	a0,-112(s0)
    5228:	0006d463          	bgez	a3,5230 <.LBB98_124>
    522c:	c00008b7          	lui	a7,0xc0000

0000000000005230 <.LBB98_124>:
    5230:	f8a43823          	sd	a0,-112(s0)
    5234:	00002537          	lui	a0,0x2
    5238:	40a40533          	sub	a0,s0,a0
    523c:	2d153023          	sd	a7,704(a0) # 22c0 <.LBB98_5+0xdf4>
    5240:	e7043683          	ld	a3,-400(s0)
    5244:	85043883          	ld	a7,-1968(s0)
    5248:	00d886b3          	add	a3,a7,a3
    524c:	e6843883          	ld	a7,-408(s0)
    5250:	011686b3          	add	a3,a3,a7
    5254:	41f708bb          	subw	a7,a4,t6
    5258:	411686bb          	subw	a3,a3,a7
    525c:	400008b7          	lui	a7,0x40000
    5260:	00002537          	lui	a0,0x2
    5264:	40a40533          	sub	a0,s0,a0
    5268:	24d53c23          	sd	a3,600(a0) # 2258 <.LBB98_5+0xd8c>
    526c:	f9043503          	ld	a0,-112(s0)
    5270:	0006d463          	bgez	a3,5278 <.LBB98_126>
    5274:	c00008b7          	lui	a7,0xc0000

0000000000005278 <.LBB98_126>:
    5278:	f8a43823          	sd	a0,-112(s0)
    527c:	00002537          	lui	a0,0x2
    5280:	40a40533          	sub	a0,s0,a0
    5284:	25153823          	sd	a7,592(a0) # 2250 <.LBB98_5+0xd84>
    5288:	e8043683          	ld	a3,-384(s0)
    528c:	85843883          	ld	a7,-1960(s0)
    5290:	00d886b3          	add	a3,a7,a3
    5294:	e7843883          	ld	a7,-392(s0)
    5298:	011686b3          	add	a3,a3,a7
    529c:	41f708bb          	subw	a7,a4,t6
    52a0:	411686bb          	subw	a3,a3,a7
    52a4:	400008b7          	lui	a7,0x40000
    52a8:	00002537          	lui	a0,0x2
    52ac:	40a40533          	sub	a0,s0,a0
    52b0:	1ed53423          	sd	a3,488(a0) # 21e8 <.LBB98_5+0xd1c>
    52b4:	f9043503          	ld	a0,-112(s0)
    52b8:	0006d463          	bgez	a3,52c0 <.LBB98_128>
    52bc:	c00008b7          	lui	a7,0xc0000

00000000000052c0 <.LBB98_128>:
    52c0:	f8a43823          	sd	a0,-112(s0)
    52c4:	00002537          	lui	a0,0x2
    52c8:	40a40533          	sub	a0,s0,a0
    52cc:	1f153023          	sd	a7,480(a0) # 21e0 <.LBB98_5+0xd14>
    52d0:	e9043683          	ld	a3,-368(s0)
    52d4:	86043883          	ld	a7,-1952(s0)
    52d8:	00d886b3          	add	a3,a7,a3
    52dc:	e8843883          	ld	a7,-376(s0)
    52e0:	011686b3          	add	a3,a3,a7
    52e4:	41f708bb          	subw	a7,a4,t6
    52e8:	411686bb          	subw	a3,a3,a7
    52ec:	400008b7          	lui	a7,0x40000
    52f0:	00002537          	lui	a0,0x2
    52f4:	40a40533          	sub	a0,s0,a0
    52f8:	16d53c23          	sd	a3,376(a0) # 2178 <.LBB98_5+0xcac>
    52fc:	f9043503          	ld	a0,-112(s0)
    5300:	0006d463          	bgez	a3,5308 <.LBB98_130>
    5304:	c00008b7          	lui	a7,0xc0000

0000000000005308 <.LBB98_130>:
    5308:	000026b7          	lui	a3,0x2
    530c:	40d406b3          	sub	a3,s0,a3
    5310:	1716b823          	sd	a7,368(a3) # 2170 <.LBB98_5+0xca4>
    5314:	ea043683          	ld	a3,-352(s0)
    5318:	00da06b3          	add	a3,s4,a3
    531c:	e9843883          	ld	a7,-360(s0)
    5320:	011686b3          	add	a3,a3,a7
    5324:	41f708bb          	subw	a7,a4,t6
    5328:	411686bb          	subw	a3,a3,a7
    532c:	400008b7          	lui	a7,0x40000
    5330:	00002a37          	lui	s4,0x2
    5334:	41440a33          	sub	s4,s0,s4
    5338:	10da3423          	sd	a3,264(s4) # 2108 <.LBB98_5+0xc3c>
    533c:	0006d463          	bgez	a3,5344 <.LBB98_132>
    5340:	c00008b7          	lui	a7,0xc0000

0000000000005344 <.LBB98_132>:
    5344:	000026b7          	lui	a3,0x2
    5348:	40d406b3          	sub	a3,s0,a3
    534c:	1116b023          	sd	a7,256(a3) # 2100 <.LBB98_5+0xc34>
    5350:	eb043883          	ld	a7,-336(s0)
    5354:	011288b3          	add	a7,t0,a7
    5358:	ea843283          	ld	t0,-344(s0)
    535c:	005888b3          	add	a7,a7,t0
    5360:	41f7073b          	subw	a4,a4,t6
    5364:	40e886bb          	subw	a3,a7,a4
    5368:	40000737          	lui	a4,0x40000
    536c:	000028b7          	lui	a7,0x2
    5370:	411408b3          	sub	a7,s0,a7
    5374:	0ad8bc23          	sd	a3,184(a7) # 20b8 <.LBB98_5+0xbec>
    5378:	0006d463          	bgez	a3,5380 <.LBB98_134>
    537c:	c0000737          	lui	a4,0xc0000

0000000000005380 <.LBB98_134>:
    5380:	000026b7          	lui	a3,0x2
    5384:	40d406b3          	sub	a3,s0,a3
    5388:	0ae6b423          	sd	a4,168(a3) # 20a8 <.LBB98_5+0xbdc>
    538c:	00151713          	slli	a4,a0,0x1
    5390:	87843883          	ld	a7,-1928(s0)
    5394:	eb843683          	ld	a3,-328(s0)
    5398:	00d888b3          	add	a7,a7,a3
    539c:	00a70533          	add	a0,a4,a0
    53a0:	017888b3          	add	a7,a7,s7
    53a4:	41f5073b          	subw	a4,a0,t6
    53a8:	40e8873b          	subw	a4,a7,a4
    53ac:	400008b7          	lui	a7,0x40000
    53b0:	97843283          	ld	t0,-1672(s0)
    53b4:	82e43023          	sd	a4,-2016(s0)
    53b8:	00075463          	bgez	a4,53c0 <.LBB98_136>
    53bc:	c00008b7          	lui	a7,0xc0000

00000000000053c0 <.LBB98_136>:
    53c0:	81143c23          	sd	a7,-2024(s0)
    53c4:	88043703          	ld	a4,-1920(s0)
    53c8:	ec043683          	ld	a3,-320(s0)
    53cc:	00d70733          	add	a4,a4,a3
    53d0:	01670733          	add	a4,a4,s6
    53d4:	41f508bb          	subw	a7,a0,t6
    53d8:	4117073b          	subw	a4,a4,a7
    53dc:	400008b7          	lui	a7,0x40000
    53e0:	000016b7          	lui	a3,0x1
