
code.o:     file format elf64-littleriscv


Disassembly of section .text.main_dispatch_54_pooling_nhwc_sum_1x14x14x192x3x3_i8xi32xi32:

0000000000000000 <main_dispatch_54_pooling_nhwc_sum_1x14x14x192x3x3_i8xi32xi32>:
   0:	da010113          	addi	sp,sp,-608
   4:	24113c23          	sd	ra,600(sp)
   8:	24813823          	sd	s0,592(sp)
   c:	24913423          	sd	s1,584(sp)
  10:	25213023          	sd	s2,576(sp)
  14:	23313c23          	sd	s3,568(sp)
  18:	23413823          	sd	s4,560(sp)
  1c:	23513423          	sd	s5,552(sp)
  20:	23613023          	sd	s6,544(sp)
  24:	21713c23          	sd	s7,536(sp)
  28:	21813823          	sd	s8,528(sp)
  2c:	21913423          	sd	s9,520(sp)
  30:	21a13023          	sd	s10,512(sp)
  34:	1fb13c23          	sd	s11,504(sp)
  38:	26010413          	addi	s0,sp,608
  3c:	0205b503          	ld	a0,32(a1)
  40:	00000693          	li	a3,0
  44:	00853583          	ld	a1,8(a0)
  48:	00053503          	ld	a0,0(a0)
  4c:	00053637          	lui	a2,0x53
  50:	1006061b          	addiw	a2,a2,256 # 53100 <.Lfunc_end80+0x2a738>
  54:	00c585b3          	add	a1,a1,a2
  58:	dab43823          	sd	a1,-592(s0)
  5c:	0002c5b7          	lui	a1,0x2c
  60:	f805859b          	addiw	a1,a1,-128 # 2bf80 <.Lfunc_end80+0x35b8>
  64:	00b50db3          	add	s11,a0,a1
  68:	01500513          	li	a0,21
  6c:	00951513          	slli	a0,a0,0x9
  70:	daa43423          	sd	a0,-600(s0)
  74:	00900513          	li	a0,9
  78:	00951513          	slli	a0,a0,0x9
  7c:	dca43423          	sd	a0,-568(s0)
  80:	00001537          	lui	a0,0x1
  84:	5c05079b          	addiw	a5,a0,1472 # 15c0 <.LBB107_232>
  88:	00003537          	lui	a0,0x3
  8c:	b805051b          	addiw	a0,a0,-1152 # 2b80 <.LBB101_6+0x8>
  90:	daa43023          	sd	a0,-608(s0)
  94:	e2f43823          	sd	a5,-464(s0)

0000000000000098 <.LBB49_1>:
  98:	00000593          	li	a1,0
  9c:	dcd43023          	sd	a3,-576(s0)
  a0:	da843503          	ld	a0,-600(s0)
  a4:	02a68533          	mul	a0,a3,a0
  a8:	db043603          	ld	a2,-592(s0)
  ac:	00a60533          	add	a0,a2,a0
  b0:	dca43823          	sd	a0,-560(s0)
  b4:	dbb43c23          	sd	s11,-584(s0)

00000000000000b8 <.LBB49_2>:
  b8:	00000513          	li	a0,0
  bc:	00058613          	mv	a2,a1
  c0:	30000593          	li	a1,768
  c4:	dcc43c23          	sd	a2,-552(s0)
  c8:	02b605b3          	mul	a1,a2,a1
  cc:	dd043603          	ld	a2,-560(s0)
  d0:	00b60633          	add	a2,a2,a1
  d4:	30060593          	addi	a1,a2,768
  d8:	e0b43823          	sd	a1,-496(s0)
  dc:	60060593          	addi	a1,a2,1536
  e0:	e0b43423          	sd	a1,-504(s0)
  e4:	7ff60593          	addi	a1,a2,2047
  e8:	10158693          	addi	a3,a1,257
  ec:	e0d43023          	sd	a3,-512(s0)
  f0:	40158693          	addi	a3,a1,1025
  f4:	ded43c23          	sd	a3,-520(s0)
  f8:	70158593          	addi	a1,a1,1793
  fc:	deb43823          	sd	a1,-528(s0)
 100:	dc843583          	ld	a1,-568(s0)
 104:	e0c43c23          	sd	a2,-488(s0)
 108:	00b605b3          	add	a1,a2,a1
 10c:	deb43423          	sd	a1,-536(s0)
 110:	dfb43023          	sd	s11,-544(s0)

0000000000000114 <.LBB49_3>:
 114:	00000b93          	li	s7,0
 118:	00000593          	li	a1,0
 11c:	e8043823          	sd	zero,-368(s0)
 120:	e8043423          	sd	zero,-376(s0)
 124:	e8043023          	sd	zero,-384(s0)
 128:	e6043c23          	sd	zero,-392(s0)
 12c:	e6043823          	sd	zero,-400(s0)
 130:	00000c13          	li	s8,0
 134:	00000293          	li	t0,0
 138:	00000c93          	li	s9,0
 13c:	e8043c23          	sd	zero,-360(s0)
 140:	ec043423          	sd	zero,-312(s0)
 144:	ec043023          	sd	zero,-320(s0)
 148:	ea043c23          	sd	zero,-328(s0)
 14c:	ea043823          	sd	zero,-336(s0)
 150:	ea043423          	sd	zero,-344(s0)
 154:	00000313          	li	t1,0
 158:	f0043023          	sd	zero,-256(s0)
 15c:	00000493          	li	s1,0
 160:	ee043c23          	sd	zero,-264(s0)
 164:	ee043823          	sd	zero,-272(s0)
 168:	ee043423          	sd	zero,-280(s0)
 16c:	ee043023          	sd	zero,-288(s0)
 170:	ec043c23          	sd	zero,-296(s0)
 174:	f8043423          	sd	zero,-120(s0)
 178:	f2043c23          	sd	zero,-200(s0)
 17c:	ea043023          	sd	zero,-352(s0)
 180:	f2043823          	sd	zero,-208(s0)
 184:	f2043423          	sd	zero,-216(s0)
 188:	f2043023          	sd	zero,-224(s0)
 18c:	f0043c23          	sd	zero,-232(s0)
 190:	f0043823          	sd	zero,-240(s0)
 194:	f8043823          	sd	zero,-112(s0)
 198:	f6043423          	sd	zero,-152(s0)
 19c:	ec043823          	sd	zero,-304(s0)
 1a0:	f6043023          	sd	zero,-160(s0)
 1a4:	f4043c23          	sd	zero,-168(s0)
 1a8:	f4043823          	sd	zero,-176(s0)
 1ac:	f4043423          	sd	zero,-184(s0)
 1b0:	f4043023          	sd	zero,-192(s0)
 1b4:	00000b13          	li	s6,0
 1b8:	f8043023          	sd	zero,-128(s0)
 1bc:	f0043423          	sd	zero,-248(s0)
 1c0:	f6043c23          	sd	zero,-136(s0)
 1c4:	f6043823          	sd	zero,-144(s0)
 1c8:	00000a93          	li	s5,0
 1cc:	00000a13          	li	s4,0
 1d0:	00000913          	li	s2,0
 1d4:	00000f13          	li	t5,0
 1d8:	00000f93          	li	t6,0
 1dc:	00000393          	li	t2,0
 1e0:	00000e93          	li	t4,0
 1e4:	00000893          	li	a7,0
 1e8:	00000813          	li	a6,0
 1ec:	00000e13          	li	t3,0
 1f0:	00000713          	li	a4,0
 1f4:	e2a43023          	sd	a0,-480(s0)
 1f8:	ffd00d13          	li	s10,-3
 1fc:	e3b43423          	sd	s11,-472(s0)

0000000000000200 <.LBB49_4>:
 200:	e3643c23          	sd	s6,-456(s0)
 204:	e5543023          	sd	s5,-448(s0)
 208:	e5443423          	sd	s4,-440(s0)
 20c:	e6743023          	sd	t2,-416(s0)
 210:	e7043423          	sd	a6,-408(s0)
 214:	ac1d8503          	lb	a0,-1343(s11)
 218:	ac0d8083          	lb	ra,-1344(s11)
 21c:	00a58533          	add	a0,a1,a0
 220:	ac2d8983          	lb	s3,-1342(s11)
 224:	001b8a33          	add	s4,s7,ra
 228:	ac3d8083          	lb	ra,-1341(s11)
 22c:	ac4d8803          	lb	a6,-1340(s11)
 230:	e9043a83          	ld	s5,-368(s0)
 234:	013a8ab3          	add	s5,s5,s3
 238:	ac5d8983          	lb	s3,-1339(s11)
 23c:	e8843b03          	ld	s6,-376(s0)
 240:	001b0b33          	add	s6,s6,ra
 244:	e8043583          	ld	a1,-384(s0)
 248:	01058833          	add	a6,a1,a6
 24c:	ac6d8583          	lb	a1,-1338(s11)
 250:	e7843383          	ld	t2,-392(s0)
 254:	013383b3          	add	t2,t2,s3
 258:	ac7d8983          	lb	s3,-1337(s11)
 25c:	c41d8083          	lb	ra,-959(s11)
 260:	e7043b83          	ld	s7,-400(s0)
 264:	00bb8bb3          	add	s7,s7,a1
 268:	b81d8583          	lb	a1,-1151(s11)
 26c:	013c0c33          	add	s8,s8,s3
 270:	001c8cb3          	add	s9,s9,ra
 274:	c40d8603          	lb	a2,-960(s11)
 278:	001585b3          	add	a1,a1,ra
 27c:	b80d8083          	lb	ra,-1152(s11)
 280:	00b50533          	add	a0,a0,a1
 284:	e4a43c23          	sd	a0,-424(s0)
 288:	00c28533          	add	a0,t0,a2
 28c:	c42d8583          	lb	a1,-958(s11)
 290:	00c08633          	add	a2,ra,a2
 294:	b82d8083          	lb	ra,-1150(s11)
 298:	00ca0633          	add	a2,s4,a2
 29c:	e4c43823          	sd	a2,-432(s0)
 2a0:	00090993          	mv	s3,s2
 2a4:	e9843903          	ld	s2,-360(s0)
 2a8:	00b90933          	add	s2,s2,a1
 2ac:	c43d8603          	lb	a2,-957(s11)
 2b0:	00b085b3          	add	a1,ra,a1
 2b4:	b83d8083          	lb	ra,-1149(s11)
 2b8:	00ba85b3          	add	a1,s5,a1
 2bc:	e8b43823          	sd	a1,-368(s0)
 2c0:	ec843783          	ld	a5,-312(s0)
 2c4:	00c787b3          	add	a5,a5,a2
 2c8:	c44d8583          	lb	a1,-956(s11)
 2cc:	00c08633          	add	a2,ra,a2
 2d0:	b84d8083          	lb	ra,-1148(s11)
 2d4:	00cb0633          	add	a2,s6,a2
 2d8:	e8c43423          	sd	a2,-376(s0)
 2dc:	00088a93          	mv	s5,a7
 2e0:	ec043883          	ld	a7,-320(s0)
 2e4:	00b888b3          	add	a7,a7,a1
 2e8:	c45d8603          	lb	a2,-955(s11)
 2ec:	00b085b3          	add	a1,ra,a1
 2f0:	b85d8083          	lb	ra,-1147(s11)
 2f4:	00b805b3          	add	a1,a6,a1
 2f8:	e8b43023          	sd	a1,-384(s0)
 2fc:	000e0a13          	mv	s4,t3
 300:	eb843e03          	ld	t3,-328(s0)
 304:	00ce0e33          	add	t3,t3,a2
 308:	c46d8803          	lb	a6,-954(s11)
 30c:	00c08633          	add	a2,ra,a2
 310:	b86d8083          	lb	ra,-1146(s11)
 314:	00c38633          	add	a2,t2,a2
 318:	e6c43c23          	sd	a2,-392(s0)
 31c:	000e8393          	mv	t2,t4
 320:	eb043e83          	ld	t4,-336(s0)
 324:	010e8eb3          	add	t4,t4,a6
 328:	c47d8603          	lb	a2,-953(s11)
 32c:	01008833          	add	a6,ra,a6
 330:	b87d8083          	lb	ra,-1145(s11)
 334:	010b8833          	add	a6,s7,a6
 338:	e7043823          	sd	a6,-400(s0)
 33c:	000f0b13          	mv	s6,t5
 340:	ea843f03          	ld	t5,-344(s0)
 344:	00cf0f33          	add	t5,t5,a2
 348:	dc0d8803          	lb	a6,-576(s11)
 34c:	00c08633          	add	a2,ra,a2
 350:	d00d8083          	lb	ra,-768(s11)
 354:	00cc0c33          	add	s8,s8,a2
 358:	01030633          	add	a2,t1,a6
 35c:	dc1d8683          	lb	a3,-575(s11)
 360:	01008833          	add	a6,ra,a6
 364:	d01d8083          	lb	ra,-767(s11)
 368:	010505b3          	add	a1,a0,a6
 36c:	f0043503          	ld	a0,-256(s0)
 370:	00d50533          	add	a0,a0,a3
 374:	dc2d8803          	lb	a6,-574(s11)
 378:	00d086b3          	add	a3,ra,a3
 37c:	d02d8083          	lb	ra,-766(s11)
 380:	00dc8cb3          	add	s9,s9,a3
 384:	010484b3          	add	s1,s1,a6
 388:	dc3d8683          	lb	a3,-573(s11)
 38c:	01008833          	add	a6,ra,a6
 390:	d03d8083          	lb	ra,-765(s11)
 394:	01090833          	add	a6,s2,a6
 398:	e9043c23          	sd	a6,-360(s0)
 39c:	ef843803          	ld	a6,-264(s0)
 3a0:	00d80833          	add	a6,a6,a3
 3a4:	00070913          	mv	s2,a4
 3a8:	dc4d8703          	lb	a4,-572(s11)
 3ac:	00d086b3          	add	a3,ra,a3
 3b0:	d04d8083          	lb	ra,-764(s11)
 3b4:	00d786b3          	add	a3,a5,a3
 3b8:	ecd43423          	sd	a3,-312(s0)
 3bc:	ef043683          	ld	a3,-272(s0)
 3c0:	00e686b3          	add	a3,a3,a4
 3c4:	dc5d8283          	lb	t0,-571(s11)
 3c8:	00e08733          	add	a4,ra,a4
 3cc:	d05d8083          	lb	ra,-763(s11)
 3d0:	00e88733          	add	a4,a7,a4
 3d4:	ece43023          	sd	a4,-320(s0)
 3d8:	ee843303          	ld	t1,-280(s0)
 3dc:	00530333          	add	t1,t1,t0
 3e0:	dc6d8703          	lb	a4,-570(s11)
 3e4:	005082b3          	add	t0,ra,t0
 3e8:	d06d8083          	lb	ra,-762(s11)
 3ec:	005e02b3          	add	t0,t3,t0
 3f0:	ea543c23          	sd	t0,-328(s0)
 3f4:	ee043283          	ld	t0,-288(s0)
 3f8:	00e282b3          	add	t0,t0,a4
 3fc:	dc7d8783          	lb	a5,-569(s11)
 400:	00e08733          	add	a4,ra,a4
 404:	d07d8083          	lb	ra,-761(s11)
 408:	00ee8733          	add	a4,t4,a4
 40c:	eae43823          	sd	a4,-336(s0)
 410:	ed843703          	ld	a4,-296(s0)
 414:	00f70733          	add	a4,a4,a5
 418:	f40d8883          	lb	a7,-192(s11)
 41c:	00f087b3          	add	a5,ra,a5
 420:	e80d8083          	lb	ra,-384(s11)
 424:	00ff07b3          	add	a5,t5,a5
 428:	eaf43423          	sd	a5,-344(s0)
 42c:	f8843783          	ld	a5,-120(s0)
 430:	011787b3          	add	a5,a5,a7
 434:	f41d8e03          	lb	t3,-191(s11)
 438:	011088b3          	add	a7,ra,a7
 43c:	e81d8083          	lb	ra,-383(s11)
 440:	01160bb3          	add	s7,a2,a7
 444:	f3843603          	ld	a2,-200(s0)
 448:	01c60633          	add	a2,a2,t3
 44c:	f42d8883          	lb	a7,-190(s11)
 450:	01c08e33          	add	t3,ra,t3
 454:	e82d8083          	lb	ra,-382(s11)
 458:	01c50533          	add	a0,a0,t3
 45c:	f0a43023          	sd	a0,-256(s0)
 460:	000f8f13          	mv	t5,t6
 464:	ea043f83          	ld	t6,-352(s0)
 468:	011f8fb3          	add	t6,t6,a7
 46c:	f43d8503          	lb	a0,-189(s11)
 470:	011088b3          	add	a7,ra,a7
 474:	e83d8e03          	lb	t3,-381(s11)
 478:	011484b3          	add	s1,s1,a7
 47c:	f3043883          	ld	a7,-208(s0)
 480:	00a888b3          	add	a7,a7,a0
 484:	f44d8083          	lb	ra,-188(s11)
 488:	00ae0533          	add	a0,t3,a0
 48c:	e84d8e03          	lb	t3,-380(s11)
 490:	00a80533          	add	a0,a6,a0
 494:	eea43c23          	sd	a0,-264(s0)
 498:	f2843503          	ld	a0,-216(s0)
 49c:	00150533          	add	a0,a0,ra
 4a0:	f45d8803          	lb	a6,-187(s11)
 4a4:	001e0e33          	add	t3,t3,ra
 4a8:	e85d8083          	lb	ra,-379(s11)
 4ac:	01c686b3          	add	a3,a3,t3
 4b0:	eed43823          	sd	a3,-272(s0)
 4b4:	f2043683          	ld	a3,-224(s0)
 4b8:	010686b3          	add	a3,a3,a6
 4bc:	f46d8e03          	lb	t3,-186(s11)
 4c0:	01008833          	add	a6,ra,a6
 4c4:	e86d8083          	lb	ra,-378(s11)
 4c8:	01030833          	add	a6,t1,a6
 4cc:	ef043423          	sd	a6,-280(s0)
 4d0:	f1843803          	ld	a6,-232(s0)
 4d4:	01c80833          	add	a6,a6,t3
 4d8:	f47d8303          	lb	t1,-185(s11)
 4dc:	01c08e33          	add	t3,ra,t3
 4e0:	e87d8083          	lb	ra,-377(s11)
 4e4:	01c282b3          	add	t0,t0,t3
 4e8:	ee543023          	sd	t0,-288(s0)
 4ec:	f1043283          	ld	t0,-240(s0)
 4f0:	006282b3          	add	t0,t0,t1
 4f4:	0c0d8e03          	lb	t3,192(s11)
 4f8:	00608333          	add	t1,ra,t1
 4fc:	000d8083          	lb	ra,0(s11)
 500:	00670733          	add	a4,a4,t1
 504:	ece43c23          	sd	a4,-296(s0)
 508:	f9043703          	ld	a4,-112(s0)
 50c:	01c70733          	add	a4,a4,t3
 510:	0c1d8303          	lb	t1,193(s11)
 514:	01c08e33          	add	t3,ra,t3
 518:	001d8083          	lb	ra,1(s11)
 51c:	01c787b3          	add	a5,a5,t3
 520:	f8f43423          	sd	a5,-120(s0)
 524:	f6843783          	ld	a5,-152(s0)
 528:	006787b3          	add	a5,a5,t1
 52c:	0c2d8e03          	lb	t3,194(s11)
 530:	00608333          	add	t1,ra,t1
 534:	002d8083          	lb	ra,2(s11)
 538:	00660633          	add	a2,a2,t1
 53c:	f2c43c23          	sd	a2,-200(s0)
 540:	ed043603          	ld	a2,-304(s0)
 544:	01c60633          	add	a2,a2,t3
 548:	0c3d8303          	lb	t1,195(s11)
 54c:	01c08e33          	add	t3,ra,t3
 550:	003d8083          	lb	ra,3(s11)
 554:	01cf8e33          	add	t3,t6,t3
 558:	ebc43023          	sd	t3,-352(s0)
 55c:	f6043e03          	ld	t3,-160(s0)
 560:	006e0e33          	add	t3,t3,t1
 564:	0c4d8e83          	lb	t4,196(s11)
 568:	00608333          	add	t1,ra,t1
 56c:	004d8083          	lb	ra,4(s11)
 570:	006888b3          	add	a7,a7,t1
 574:	f3143823          	sd	a7,-208(s0)
 578:	f5843883          	ld	a7,-168(s0)
 57c:	01d888b3          	add	a7,a7,t4
 580:	0c5d8303          	lb	t1,197(s11)
 584:	01d08eb3          	add	t4,ra,t4
 588:	005d8083          	lb	ra,5(s11)
 58c:	01d50533          	add	a0,a0,t4
 590:	f2a43423          	sd	a0,-216(s0)
 594:	f5043503          	ld	a0,-176(s0)
 598:	00650533          	add	a0,a0,t1
 59c:	0c6d8e83          	lb	t4,198(s11)
 5a0:	00608333          	add	t1,ra,t1
 5a4:	006d8083          	lb	ra,6(s11)
 5a8:	006686b3          	add	a3,a3,t1
 5ac:	f2d43023          	sd	a3,-224(s0)
 5b0:	f4843683          	ld	a3,-184(s0)
 5b4:	01d686b3          	add	a3,a3,t4
 5b8:	0c7d8303          	lb	t1,199(s11)
 5bc:	01d08eb3          	add	t4,ra,t4
 5c0:	007d8083          	lb	ra,7(s11)
 5c4:	01d80833          	add	a6,a6,t4
 5c8:	f1043c23          	sd	a6,-232(s0)
 5cc:	f4043803          	ld	a6,-192(s0)
 5d0:	00680833          	add	a6,a6,t1
 5d4:	240d8e83          	lb	t4,576(s11)
 5d8:	00608333          	add	t1,ra,t1
 5dc:	180d8083          	lb	ra,384(s11)
 5e0:	006282b3          	add	t0,t0,t1
 5e4:	f0543823          	sd	t0,-240(s0)
 5e8:	e3843283          	ld	t0,-456(s0)
 5ec:	01d282b3          	add	t0,t0,t4
 5f0:	241d8303          	lb	t1,577(s11)
 5f4:	01d08eb3          	add	t4,ra,t4
 5f8:	181d8083          	lb	ra,385(s11)
 5fc:	01d70733          	add	a4,a4,t4
 600:	f8e43823          	sd	a4,-112(s0)
 604:	f8043703          	ld	a4,-128(s0)
 608:	00670733          	add	a4,a4,t1
 60c:	242d8e83          	lb	t4,578(s11)
 610:	00608333          	add	t1,ra,t1
 614:	182d8083          	lb	ra,386(s11)
 618:	006787b3          	add	a5,a5,t1
 61c:	f6f43423          	sd	a5,-152(s0)
 620:	f0843783          	ld	a5,-248(s0)
 624:	01d787b3          	add	a5,a5,t4
 628:	243d8303          	lb	t1,579(s11)
 62c:	01d08eb3          	add	t4,ra,t4
 630:	183d8083          	lb	ra,387(s11)
 634:	01d60633          	add	a2,a2,t4
 638:	ecc43823          	sd	a2,-304(s0)
 63c:	f7843603          	ld	a2,-136(s0)
 640:	00660633          	add	a2,a2,t1
 644:	244d8e83          	lb	t4,580(s11)
 648:	00608333          	add	t1,ra,t1
 64c:	184d8083          	lb	ra,388(s11)
 650:	006e0333          	add	t1,t3,t1
 654:	f6643023          	sd	t1,-160(s0)
 658:	f7043303          	ld	t1,-144(s0)
 65c:	01d30333          	add	t1,t1,t4
 660:	245d8e03          	lb	t3,581(s11)
 664:	01d08eb3          	add	t4,ra,t4
 668:	185d8083          	lb	ra,389(s11)
 66c:	01d888b3          	add	a7,a7,t4
 670:	f5143c23          	sd	a7,-168(s0)
 674:	e4043883          	ld	a7,-448(s0)
 678:	01c888b3          	add	a7,a7,t3
 67c:	246d8e83          	lb	t4,582(s11)
 680:	01c08e33          	add	t3,ra,t3
 684:	186d8083          	lb	ra,390(s11)
 688:	01c50533          	add	a0,a0,t3
 68c:	f4a43823          	sd	a0,-176(s0)
 690:	e4843503          	ld	a0,-440(s0)
 694:	01d50533          	add	a0,a0,t4
 698:	247d8e03          	lb	t3,583(s11)
 69c:	01d08eb3          	add	t4,ra,t4
 6a0:	187d8083          	lb	ra,391(s11)
 6a4:	01d686b3          	add	a3,a3,t4
 6a8:	f4d43423          	sd	a3,-184(s0)
 6ac:	01c986b3          	add	a3,s3,t3
 6b0:	3c0d8e83          	lb	t4,960(s11)
 6b4:	01c08e33          	add	t3,ra,t3
 6b8:	300d8083          	lb	ra,768(s11)
 6bc:	01c80833          	add	a6,a6,t3
 6c0:	f5043023          	sd	a6,-192(s0)
 6c4:	01db0833          	add	a6,s6,t4
 6c8:	3c1d8e03          	lb	t3,961(s11)
 6cc:	01d08eb3          	add	t4,ra,t4
 6d0:	301d8083          	lb	ra,769(s11)
 6d4:	01d28b33          	add	s6,t0,t4
 6d8:	01cf02b3          	add	t0,t5,t3
 6dc:	3c2d8e83          	lb	t4,962(s11)
 6e0:	01c08e33          	add	t3,ra,t3
 6e4:	302d8083          	lb	ra,770(s11)
 6e8:	01c70733          	add	a4,a4,t3
 6ec:	f8e43023          	sd	a4,-128(s0)
 6f0:	e6043703          	ld	a4,-416(s0)
 6f4:	01d70733          	add	a4,a4,t4
 6f8:	3c3d8e03          	lb	t3,963(s11)
 6fc:	01d08eb3          	add	t4,ra,t4
 700:	303d8083          	lb	ra,771(s11)
 704:	01d787b3          	add	a5,a5,t4
 708:	f0f43423          	sd	a5,-248(s0)
 70c:	01c387b3          	add	a5,t2,t3
 710:	3c4d8e83          	lb	t4,964(s11)
 714:	01c08e33          	add	t3,ra,t3
 718:	304d8083          	lb	ra,772(s11)
 71c:	01c60633          	add	a2,a2,t3
 720:	f6c43c23          	sd	a2,-136(s0)
 724:	01da8633          	add	a2,s5,t4
 728:	3c5d8e03          	lb	t3,965(s11)
 72c:	01d08eb3          	add	t4,ra,t4
 730:	305d8083          	lb	ra,773(s11)
 734:	01d30333          	add	t1,t1,t4
 738:	f6643823          	sd	t1,-144(s0)
 73c:	e6843303          	ld	t1,-408(s0)
 740:	01c30333          	add	t1,t1,t3
 744:	3c6d8e83          	lb	t4,966(s11)
 748:	01c08e33          	add	t3,ra,t3
 74c:	01c88ab3          	add	s5,a7,t3
 750:	306d8883          	lb	a7,774(s11)
 754:	01da0e33          	add	t3,s4,t4
 758:	3c7d8083          	lb	ra,967(s11)
 75c:	307d8f03          	lb	t5,775(s11)
 760:	01d888b3          	add	a7,a7,t4
 764:	01150a33          	add	s4,a0,a7
 768:	00190533          	add	a0,s2,ra
 76c:	001f0f33          	add	t5,t5,ra
 770:	480d8883          	lb	a7,1152(s11)
 774:	540d8e83          	lb	t4,1344(s11)
 778:	481d8083          	lb	ra,1153(s11)
 77c:	541d8f83          	lb	t6,1345(s11)
 780:	01e68933          	add	s2,a3,t5
 784:	01d888b3          	add	a7,a7,t4
 788:	01180f33          	add	t5,a6,a7
 78c:	01f08fb3          	add	t6,ra,t6
 790:	482d8683          	lb	a3,1154(s11)
 794:	542d8803          	lb	a6,1346(s11)
 798:	483d8883          	lb	a7,1155(s11)
 79c:	543d8e83          	lb	t4,1347(s11)
 7a0:	01f28fb3          	add	t6,t0,t6
 7a4:	010686b3          	add	a3,a3,a6
 7a8:	00d703b3          	add	t2,a4,a3
 7ac:	01d888b3          	add	a7,a7,t4
 7b0:	484d8683          	lb	a3,1156(s11)
 7b4:	544d8703          	lb	a4,1348(s11)
 7b8:	485d8803          	lb	a6,1157(s11)
 7bc:	545d8283          	lb	t0,1349(s11)
 7c0:	01178eb3          	add	t4,a5,a7
 7c4:	00e686b3          	add	a3,a3,a4
 7c8:	00d608b3          	add	a7,a2,a3
 7cc:	00580833          	add	a6,a6,t0
 7d0:	00058293          	mv	t0,a1
 7d4:	e5843583          	ld	a1,-424(s0)
 7d8:	486d8603          	lb	a2,1158(s11)
 7dc:	546d8683          	lb	a3,1350(s11)
 7e0:	487d8703          	lb	a4,1159(s11)
 7e4:	547d8783          	lb	a5,1351(s11)
 7e8:	01030833          	add	a6,t1,a6
 7ec:	000b8313          	mv	t1,s7
 7f0:	e5043b83          	ld	s7,-432(s0)
 7f4:	00d60633          	add	a2,a2,a3
 7f8:	00ce0e33          	add	t3,t3,a2
 7fc:	00f70733          	add	a4,a4,a5
 800:	e3043783          	ld	a5,-464(s0)
 804:	00e50733          	add	a4,a0,a4
 808:	001d0d13          	addi	s10,s10,1
 80c:	00fd8db3          	add	s11,s11,a5
 810:	9e0d18e3          	bnez	s10,200 <.LBB49_4>
 814:	e2043683          	ld	a3,-480(s0)
 818:	00269513          	slli	a0,a3,0x2
 81c:	e1843603          	ld	a2,-488(s0)
 820:	00a60633          	add	a2,a2,a0
 824:	e9043983          	ld	s3,-368(s0)
 828:	01362423          	sw	s3,8(a2)
 82c:	00b62223          	sw	a1,4(a2)
 830:	01762023          	sw	s7,0(a2)
 834:	e8843583          	ld	a1,-376(s0)
 838:	00b62623          	sw	a1,12(a2)
 83c:	e8043583          	ld	a1,-384(s0)
 840:	00b62823          	sw	a1,16(a2)
 844:	e7843583          	ld	a1,-392(s0)
 848:	00b62a23          	sw	a1,20(a2)
 84c:	e7043583          	ld	a1,-400(s0)
 850:	00b62c23          	sw	a1,24(a2)
 854:	01862e23          	sw	s8,28(a2)
 858:	e1043583          	ld	a1,-496(s0)
 85c:	00a585b3          	add	a1,a1,a0
 860:	e9843603          	ld	a2,-360(s0)
 864:	00c5a423          	sw	a2,8(a1)
 868:	0195a223          	sw	s9,4(a1)
 86c:	0055a023          	sw	t0,0(a1)
 870:	ec843603          	ld	a2,-312(s0)
 874:	00c5a623          	sw	a2,12(a1)
 878:	ec043603          	ld	a2,-320(s0)
 87c:	00c5a823          	sw	a2,16(a1)
 880:	eb843603          	ld	a2,-328(s0)
 884:	00c5aa23          	sw	a2,20(a1)
 888:	eb043603          	ld	a2,-336(s0)
 88c:	00c5ac23          	sw	a2,24(a1)
 890:	ea843603          	ld	a2,-344(s0)
 894:	00c5ae23          	sw	a2,28(a1)
 898:	e0843583          	ld	a1,-504(s0)
 89c:	00a585b3          	add	a1,a1,a0
 8a0:	0095a423          	sw	s1,8(a1)
 8a4:	f0043603          	ld	a2,-256(s0)
 8a8:	00c5a223          	sw	a2,4(a1)
 8ac:	0065a023          	sw	t1,0(a1)
 8b0:	ef843603          	ld	a2,-264(s0)
 8b4:	00c5a623          	sw	a2,12(a1)
 8b8:	ef043603          	ld	a2,-272(s0)
 8bc:	00c5a823          	sw	a2,16(a1)
 8c0:	ee843603          	ld	a2,-280(s0)
 8c4:	00c5aa23          	sw	a2,20(a1)
 8c8:	ee043603          	ld	a2,-288(s0)
 8cc:	00c5ac23          	sw	a2,24(a1)
 8d0:	ed843603          	ld	a2,-296(s0)
 8d4:	00c5ae23          	sw	a2,28(a1)
 8d8:	e0043583          	ld	a1,-512(s0)
 8dc:	00a585b3          	add	a1,a1,a0
 8e0:	ea043603          	ld	a2,-352(s0)
 8e4:	00c5a423          	sw	a2,8(a1)
 8e8:	f3843603          	ld	a2,-200(s0)
 8ec:	00c5a223          	sw	a2,4(a1)
 8f0:	f8843603          	ld	a2,-120(s0)
 8f4:	00c5a023          	sw	a2,0(a1)
 8f8:	f3043603          	ld	a2,-208(s0)
 8fc:	00c5a623          	sw	a2,12(a1)
 900:	f2843603          	ld	a2,-216(s0)
 904:	00c5a823          	sw	a2,16(a1)
 908:	f2043603          	ld	a2,-224(s0)
 90c:	00c5aa23          	sw	a2,20(a1)
 910:	f1843603          	ld	a2,-232(s0)
 914:	00c5ac23          	sw	a2,24(a1)
 918:	f1043603          	ld	a2,-240(s0)
 91c:	00c5ae23          	sw	a2,28(a1)
 920:	df843583          	ld	a1,-520(s0)
 924:	00a585b3          	add	a1,a1,a0
 928:	ed043603          	ld	a2,-304(s0)
 92c:	00c5a423          	sw	a2,8(a1)
 930:	f6843603          	ld	a2,-152(s0)
 934:	00c5a223          	sw	a2,4(a1)
 938:	f9043603          	ld	a2,-112(s0)
 93c:	00c5a023          	sw	a2,0(a1)
 940:	f6043603          	ld	a2,-160(s0)
 944:	00c5a623          	sw	a2,12(a1)
 948:	f5843603          	ld	a2,-168(s0)
 94c:	00c5a823          	sw	a2,16(a1)
 950:	f5043603          	ld	a2,-176(s0)
 954:	00c5aa23          	sw	a2,20(a1)
 958:	f4843603          	ld	a2,-184(s0)
 95c:	00c5ac23          	sw	a2,24(a1)
 960:	f4043603          	ld	a2,-192(s0)
 964:	00c5ae23          	sw	a2,28(a1)
 968:	df043583          	ld	a1,-528(s0)
 96c:	00a585b3          	add	a1,a1,a0
 970:	f0843603          	ld	a2,-248(s0)
 974:	00c5a423          	sw	a2,8(a1)
 978:	f8043603          	ld	a2,-128(s0)
 97c:	00c5a223          	sw	a2,4(a1)
 980:	0165a023          	sw	s6,0(a1)
 984:	f7843603          	ld	a2,-136(s0)
 988:	00c5a623          	sw	a2,12(a1)
 98c:	f7043603          	ld	a2,-144(s0)
 990:	00c5a823          	sw	a2,16(a1)
 994:	0155aa23          	sw	s5,20(a1)
 998:	0145ac23          	sw	s4,24(a1)
 99c:	0125ae23          	sw	s2,28(a1)
 9a0:	de843583          	ld	a1,-536(s0)
 9a4:	00a58533          	add	a0,a1,a0
 9a8:	00752423          	sw	t2,8(a0)
 9ac:	01f52223          	sw	t6,4(a0)
 9b0:	01e52023          	sw	t5,0(a0)
 9b4:	01d52623          	sw	t4,12(a0)
 9b8:	01152823          	sw	a7,16(a0)
 9bc:	01052a23          	sw	a6,20(a0)
 9c0:	01c52c23          	sw	t3,24(a0)
 9c4:	00e52e23          	sw	a4,28(a0)
 9c8:	00868513          	addi	a0,a3,8
 9cc:	e2843d83          	ld	s11,-472(s0)
 9d0:	008d8d93          	addi	s11,s11,8
 9d4:	0b800593          	li	a1,184
 9d8:	f2b6ee63          	bltu	a3,a1,114 <.LBB49_3>
 9dc:	dd843603          	ld	a2,-552(s0)
 9e0:	00760593          	addi	a1,a2,7
 9e4:	de043503          	ld	a0,-544(s0)
 9e8:	7ff50513          	addi	a0,a0,2047
 9ec:	28150d93          	addi	s11,a0,641
 9f0:	00700513          	li	a0,7
 9f4:	eca66263          	bltu	a2,a0,b8 <.LBB49_2>
 9f8:	dc043683          	ld	a3,-576(s0)
 9fc:	00168693          	addi	a3,a3,1
 a00:	db843d83          	ld	s11,-584(s0)
 a04:	da043503          	ld	a0,-608(s0)
 a08:	00ad8db3          	add	s11,s11,a0
 a0c:	00e00513          	li	a0,14
 a10:	e8a69463          	bne	a3,a0,98 <.LBB49_1>
 a14:	00000513          	li	a0,0
 a18:	25813083          	ld	ra,600(sp)
 a1c:	25013403          	ld	s0,592(sp)
 a20:	24813483          	ld	s1,584(sp)
 a24:	24013903          	ld	s2,576(sp)
 a28:	23813983          	ld	s3,568(sp)
 a2c:	23013a03          	ld	s4,560(sp)
 a30:	22813a83          	ld	s5,552(sp)
 a34:	22013b03          	ld	s6,544(sp)
 a38:	21813b83          	ld	s7,536(sp)
 a3c:	21013c03          	ld	s8,528(sp)
 a40:	20813c83          	ld	s9,520(sp)
 a44:	20013d03          	ld	s10,512(sp)
 a48:	1f813d83          	ld	s11,504(sp)
 a4c:	26010113          	addi	sp,sp,608
 a50:	00008067          	ret
