
code.o:     file format elf64-littleriscv


Disassembly of section .text.main_dispatch_21_matmul_3136x144x24_i8xi8xi32:

0000000000000000 <main_dispatch_21_matmul_3136x144x24_i8xi8xi32>:
       0:	81010113          	addi	sp,sp,-2032
       4:	7e113423          	sd	ra,2024(sp)
       8:	7e813023          	sd	s0,2016(sp)
       c:	7c913c23          	sd	s1,2008(sp)
      10:	7d213823          	sd	s2,2000(sp)
      14:	7d313423          	sd	s3,1992(sp)
      18:	7d413023          	sd	s4,1984(sp)
      1c:	7b513c23          	sd	s5,1976(sp)
      20:	7b613823          	sd	s6,1968(sp)
      24:	7b713423          	sd	s7,1960(sp)
      28:	7b813023          	sd	s8,1952(sp)
      2c:	79913c23          	sd	s9,1944(sp)
      30:	79a13823          	sd	s10,1936(sp)
      34:	79b13423          	sd	s11,1928(sp)
      38:	7f010413          	addi	s0,sp,2032
      3c:	80010113          	addi	sp,sp,-2048
      40:	a7010113          	addi	sp,sp,-1424
      44:	fc017113          	andi	sp,sp,-64
      48:	0205b503          	ld	a0,32(a1)
      4c:	00000813          	li	a6,0
      50:	00000893          	li	a7,0
      54:	000035b7          	lui	a1,0x3
      58:	00053683          	ld	a3,0(a0)
      5c:	1185861b          	addiw	a2,a1,280 # 3118 <.LBB21_5+0x8a0>
      60:	06c13023          	sd	a2,96(sp)
      64:	1005859b          	addiw	a1,a1,256
      68:	00853603          	ld	a2,8(a0)
      6c:	06d13423          	sd	a3,104(sp)
      70:	00b685b3          	add	a1,a3,a1
      74:	0cb13823          	sd	a1,208(sp)
      78:	000225b7          	lui	a1,0x22
      7c:	7005869b          	addiw	a3,a1,1792 # 22700 <.LBB66_4461+0x8>
      80:	00d606b3          	add	a3,a2,a3
      84:	04d13c23          	sd	a3,88(sp)
      88:	000206b7          	lui	a3,0x20
      8c:	9406871b          	addiw	a4,a3,-1728 # 1f940 <.LBB80_3816+0xc>
      90:	00e60733          	add	a4,a2,a4
      94:	08e13423          	sd	a4,136(sp)
      98:	00023737          	lui	a4,0x23
      9c:	4807079b          	addiw	a5,a4,1152 # 23480 <.LBB60_4505+0x18>
      a0:	01053503          	ld	a0,16(a0)
      a4:	00f607b3          	add	a5,a2,a5
      a8:	08f13023          	sd	a5,128(sp)
      ac:	000157b7          	lui	a5,0x15
      b0:	7007879b          	addiw	a5,a5,1792 # 15700 <.LBB21_1384+0x20>
      b4:	00f50533          	add	a0,a0,a5
      b8:	04a13823          	sd	a0,80(sp)
      bc:	7805851b          	addiw	a0,a1,1920
      c0:	00a60533          	add	a0,a2,a0
      c4:	04a13423          	sd	a0,72(sp)
      c8:	b406851b          	addiw	a0,a3,-1216
      cc:	00a60533          	add	a0,a2,a0
      d0:	04a13023          	sd	a0,64(sp)
      d4:	6807051b          	addiw	a0,a4,1664
      d8:	00a60533          	add	a0,a2,a0
      dc:	02a13c23          	sd	a0,56(sp)
      e0:	fe500513          	li	a0,-27
      e4:	00751513          	slli	a0,a0,0x7
      e8:	000015b7          	lui	a1,0x1
      ec:	00b105b3          	add	a1,sp,a1
      f0:	9ca5bc23          	sd	a0,-1576(a1) # 9d8 <.LBB21_1+0x8c0>
      f4:	57c59537          	lui	a0,0x57c59
      f8:	16a5051b          	addiw	a0,a0,362 # 57c5916a <.Lfunc_end80+0x57c307a2>
      fc:	0ca13c23          	sd	a0,216(sp)
     100:	00100513          	li	a0,1
     104:	02251513          	slli	a0,a0,0x22
     108:	000015b7          	lui	a1,0x1
     10c:	00b105b3          	add	a1,sp,a1
     110:	9ca5b423          	sd	a0,-1592(a1) # 9c8 <.LBB21_1+0x8b0>
     114:	1150006f          	j	a28 <.LBB21_2>

0000000000000118 <.LBB21_1>:
     118:	00001537          	lui	a0,0x1
     11c:	00a10533          	add	a0,sp,a0
     120:	2a853503          	ld	a0,680(a0) # 12a8 <.LBB21_3+0x7e8>
     124:	08054993          	xori	s3,a0,128
     128:	0c813583          	ld	a1,200(sp)
     12c:	09358023          	sb	s3,128(a1)
     130:	00001537          	lui	a0,0x1
     134:	00a10533          	add	a0,sp,a0
     138:	2f853503          	ld	a0,760(a0) # 12f8 <.LBB21_3+0x838>
     13c:	08054513          	xori	a0,a0,128
     140:	08a580a3          	sb	a0,129(a1)
     144:	00001537          	lui	a0,0x1
     148:	00a10533          	add	a0,sp,a0
     14c:	2f053503          	ld	a0,752(a0) # 12f0 <.LBB21_3+0x830>
     150:	08054513          	xori	a0,a0,128
     154:	08a58123          	sb	a0,130(a1)
     158:	00001537          	lui	a0,0x1
     15c:	00a10533          	add	a0,sp,a0
     160:	2e853503          	ld	a0,744(a0) # 12e8 <.LBB21_3+0x828>
     164:	08054513          	xori	a0,a0,128
     168:	08a581a3          	sb	a0,131(a1)
     16c:	00001537          	lui	a0,0x1
     170:	00a10533          	add	a0,sp,a0
     174:	2e053503          	ld	a0,736(a0) # 12e0 <.LBB21_3+0x820>
     178:	08054513          	xori	a0,a0,128
     17c:	08a58223          	sb	a0,132(a1)
     180:	00001537          	lui	a0,0x1
     184:	00a10533          	add	a0,sp,a0
     188:	2d853503          	ld	a0,728(a0) # 12d8 <.LBB21_3+0x818>
     18c:	08054513          	xori	a0,a0,128
     190:	08a582a3          	sb	a0,133(a1)
     194:	00001537          	lui	a0,0x1
     198:	00a10533          	add	a0,sp,a0
     19c:	2d053503          	ld	a0,720(a0) # 12d0 <.LBB21_3+0x810>
     1a0:	08054513          	xori	a0,a0,128
     1a4:	08a58323          	sb	a0,134(a1)
     1a8:	00001537          	lui	a0,0x1
     1ac:	00a10533          	add	a0,sp,a0
     1b0:	2c853503          	ld	a0,712(a0) # 12c8 <.LBB21_3+0x808>
     1b4:	08054513          	xori	a0,a0,128
     1b8:	08a583a3          	sb	a0,135(a1)
     1bc:	00001537          	lui	a0,0x1
     1c0:	00a10533          	add	a0,sp,a0
     1c4:	2c053503          	ld	a0,704(a0) # 12c0 <.LBB21_3+0x800>
     1c8:	08054513          	xori	a0,a0,128
     1cc:	08a58423          	sb	a0,136(a1)
     1d0:	00001537          	lui	a0,0x1
     1d4:	00a10533          	add	a0,sp,a0
     1d8:	2b853503          	ld	a0,696(a0) # 12b8 <.LBB21_3+0x7f8>
     1dc:	08054513          	xori	a0,a0,128
     1e0:	08a584a3          	sb	a0,137(a1)
     1e4:	00001537          	lui	a0,0x1
     1e8:	00a10533          	add	a0,sp,a0
     1ec:	2b053503          	ld	a0,688(a0) # 12b0 <.LBB21_3+0x7f0>
     1f0:	08054513          	xori	a0,a0,128
     1f4:	08a58523          	sb	a0,138(a1)
     1f8:	00001537          	lui	a0,0x1
     1fc:	00a10533          	add	a0,sp,a0
     200:	2a053503          	ld	a0,672(a0) # 12a0 <.LBB21_3+0x7e0>
     204:	08054513          	xori	a0,a0,128
     208:	08a585a3          	sb	a0,139(a1)
     20c:	00001537          	lui	a0,0x1
     210:	00a10533          	add	a0,sp,a0
     214:	27853503          	ld	a0,632(a0) # 1278 <.LBB21_3+0x7b8>
     218:	08054513          	xori	a0,a0,128
     21c:	08a58623          	sb	a0,140(a1)
     220:	00001537          	lui	a0,0x1
     224:	00a10533          	add	a0,sp,a0
     228:	23053503          	ld	a0,560(a0) # 1230 <.LBB21_3+0x770>
     22c:	08054513          	xori	a0,a0,128
     230:	08a586a3          	sb	a0,141(a1)
     234:	00001537          	lui	a0,0x1
     238:	00a10533          	add	a0,sp,a0
     23c:	21853503          	ld	a0,536(a0) # 1218 <.LBB21_3+0x758>
     240:	08054513          	xori	a0,a0,128
     244:	08a58723          	sb	a0,142(a1)
     248:	00001537          	lui	a0,0x1
     24c:	00a10533          	add	a0,sp,a0
     250:	21053503          	ld	a0,528(a0) # 1210 <.LBB21_3+0x750>
     254:	08054513          	xori	a0,a0,128
     258:	08a587a3          	sb	a0,143(a1)
     25c:	00001537          	lui	a0,0x1
     260:	00a10533          	add	a0,sp,a0
     264:	20853503          	ld	a0,520(a0) # 1208 <.LBB21_3+0x748>
     268:	08054513          	xori	a0,a0,128
     26c:	10a58823          	sb	a0,272(a1)
     270:	00001537          	lui	a0,0x1
     274:	00a10533          	add	a0,sp,a0
     278:	20053503          	ld	a0,512(a0) # 1200 <.LBB21_3+0x740>
     27c:	08054513          	xori	a0,a0,128
     280:	10a588a3          	sb	a0,273(a1)
     284:	00001537          	lui	a0,0x1
     288:	00a10533          	add	a0,sp,a0
     28c:	1f853503          	ld	a0,504(a0) # 11f8 <.LBB21_3+0x738>
     290:	08054513          	xori	a0,a0,128
     294:	10a58923          	sb	a0,274(a1)
     298:	00001537          	lui	a0,0x1
     29c:	00a10533          	add	a0,sp,a0
     2a0:	1f053503          	ld	a0,496(a0) # 11f0 <.LBB21_3+0x730>
     2a4:	08054513          	xori	a0,a0,128
     2a8:	10a589a3          	sb	a0,275(a1)
     2ac:	00001537          	lui	a0,0x1
     2b0:	00a10533          	add	a0,sp,a0
     2b4:	1e853503          	ld	a0,488(a0) # 11e8 <.LBB21_3+0x728>
     2b8:	08054513          	xori	a0,a0,128
     2bc:	10a58a23          	sb	a0,276(a1)
     2c0:	00001537          	lui	a0,0x1
     2c4:	00a10533          	add	a0,sp,a0
     2c8:	04853503          	ld	a0,72(a0) # 1048 <.LBB21_3+0x588>
     2cc:	08054513          	xori	a0,a0,128
     2d0:	10a58aa3          	sb	a0,277(a1)
     2d4:	00001537          	lui	a0,0x1
     2d8:	00a10533          	add	a0,sp,a0
     2dc:	00853503          	ld	a0,8(a0) # 1008 <.LBB21_3+0x548>
     2e0:	08054513          	xori	a0,a0,128
     2e4:	10a58b23          	sb	a0,278(a1)
     2e8:	00001537          	lui	a0,0x1
     2ec:	00a10533          	add	a0,sp,a0
     2f0:	fc853503          	ld	a0,-56(a0) # fc8 <.LBB21_3+0x508>
     2f4:	08054513          	xori	a0,a0,128
     2f8:	10a58ba3          	sb	a0,279(a1)
     2fc:	00001537          	lui	a0,0x1
     300:	00a10533          	add	a0,sp,a0
     304:	f8053503          	ld	a0,-128(a0) # f80 <.LBB21_3+0x4c0>
     308:	08054513          	xori	a0,a0,128
     30c:	10a58c23          	sb	a0,280(a1)
     310:	00001537          	lui	a0,0x1
     314:	00a10533          	add	a0,sp,a0
     318:	f3853503          	ld	a0,-200(a0) # f38 <.LBB21_3+0x478>
     31c:	08054513          	xori	a0,a0,128
     320:	10a58ca3          	sb	a0,281(a1)
     324:	00001537          	lui	a0,0x1
     328:	00a10533          	add	a0,sp,a0
     32c:	ef853503          	ld	a0,-264(a0) # ef8 <.LBB21_3+0x438>
     330:	08054513          	xori	a0,a0,128
     334:	10a58d23          	sb	a0,282(a1)
     338:	00001537          	lui	a0,0x1
     33c:	00a10533          	add	a0,sp,a0
     340:	eb853503          	ld	a0,-328(a0) # eb8 <.LBB21_3+0x3f8>
     344:	08054513          	xori	a0,a0,128
     348:	10a58da3          	sb	a0,283(a1)
     34c:	00001537          	lui	a0,0x1
     350:	00a10533          	add	a0,sp,a0
     354:	e7053503          	ld	a0,-400(a0) # e70 <.LBB21_3+0x3b0>
     358:	08054513          	xori	a0,a0,128
     35c:	10a58e23          	sb	a0,284(a1)
     360:	00001537          	lui	a0,0x1
     364:	00a10533          	add	a0,sp,a0
     368:	e2853503          	ld	a0,-472(a0) # e28 <.LBB21_3+0x368>
     36c:	08054513          	xori	a0,a0,128
     370:	10a58ea3          	sb	a0,285(a1)
     374:	00001537          	lui	a0,0x1
     378:	00a10533          	add	a0,sp,a0
     37c:	de853503          	ld	a0,-536(a0) # de8 <.LBB21_3+0x328>
     380:	08054513          	xori	a0,a0,128
     384:	10a58f23          	sb	a0,286(a1)
     388:	00001537          	lui	a0,0x1
     38c:	00a10533          	add	a0,sp,a0
     390:	da853503          	ld	a0,-600(a0) # da8 <.LBB21_3+0x2e8>
     394:	08054513          	xori	a0,a0,128
     398:	10a58fa3          	sb	a0,287(a1)
     39c:	00001537          	lui	a0,0x1
     3a0:	00a10533          	add	a0,sp,a0
     3a4:	d6053503          	ld	a0,-672(a0) # d60 <.LBB21_3+0x2a0>
     3a8:	08054513          	xori	a0,a0,128
     3ac:	1aa58023          	sb	a0,416(a1)
     3b0:	00001537          	lui	a0,0x1
     3b4:	00a10533          	add	a0,sp,a0
     3b8:	d1853503          	ld	a0,-744(a0) # d18 <.LBB21_3+0x258>
     3bc:	08054513          	xori	a0,a0,128
     3c0:	1aa580a3          	sb	a0,417(a1)
     3c4:	00001537          	lui	a0,0x1
     3c8:	00a10533          	add	a0,sp,a0
     3cc:	cd853503          	ld	a0,-808(a0) # cd8 <.LBB21_3+0x218>
     3d0:	08054513          	xori	a0,a0,128
     3d4:	1aa58123          	sb	a0,418(a1)
     3d8:	00001537          	lui	a0,0x1
     3dc:	00a10533          	add	a0,sp,a0
     3e0:	c9853503          	ld	a0,-872(a0) # c98 <.LBB21_3+0x1d8>
     3e4:	08054513          	xori	a0,a0,128
     3e8:	1aa581a3          	sb	a0,419(a1)
     3ec:	00001537          	lui	a0,0x1
     3f0:	00a10533          	add	a0,sp,a0
     3f4:	c7053503          	ld	a0,-912(a0) # c70 <.LBB21_3+0x1b0>
     3f8:	08054513          	xori	a0,a0,128
     3fc:	1aa58223          	sb	a0,420(a1)
     400:	00001537          	lui	a0,0x1
     404:	00a10533          	add	a0,sp,a0
     408:	c8053503          	ld	a0,-896(a0) # c80 <.LBB21_3+0x1c0>
     40c:	08054513          	xori	a0,a0,128
     410:	1aa582a3          	sb	a0,421(a1)
     414:	00001537          	lui	a0,0x1
     418:	00a10533          	add	a0,sp,a0
     41c:	c9053503          	ld	a0,-880(a0) # c90 <.LBB21_3+0x1d0>
     420:	08054513          	xori	a0,a0,128
     424:	1aa58323          	sb	a0,422(a1)
     428:	00001537          	lui	a0,0x1
     42c:	00a10533          	add	a0,sp,a0
     430:	ca853503          	ld	a0,-856(a0) # ca8 <.LBB21_3+0x1e8>
     434:	08054513          	xori	a0,a0,128
     438:	1aa583a3          	sb	a0,423(a1)
     43c:	00001537          	lui	a0,0x1
     440:	00a10533          	add	a0,sp,a0
     444:	cb853503          	ld	a0,-840(a0) # cb8 <.LBB21_3+0x1f8>
     448:	08054513          	xori	a0,a0,128
     44c:	1aa58423          	sb	a0,424(a1)
     450:	00001537          	lui	a0,0x1
     454:	00a10533          	add	a0,sp,a0
     458:	cc853503          	ld	a0,-824(a0) # cc8 <.LBB21_3+0x208>
     45c:	08054513          	xori	a0,a0,128
     460:	1aa584a3          	sb	a0,425(a1)
     464:	00001537          	lui	a0,0x1
     468:	00a10533          	add	a0,sp,a0
     46c:	ce053503          	ld	a0,-800(a0) # ce0 <.LBB21_3+0x220>
     470:	08054513          	xori	a0,a0,128
     474:	1aa58523          	sb	a0,426(a1)
     478:	00001537          	lui	a0,0x1
     47c:	00a10533          	add	a0,sp,a0
     480:	cf053503          	ld	a0,-784(a0) # cf0 <.LBB21_3+0x230>
     484:	08054513          	xori	a0,a0,128
     488:	1aa585a3          	sb	a0,427(a1)
     48c:	00001537          	lui	a0,0x1
     490:	00a10533          	add	a0,sp,a0
     494:	d0053503          	ld	a0,-768(a0) # d00 <.LBB21_3+0x240>
     498:	08054513          	xori	a0,a0,128
     49c:	1aa58623          	sb	a0,428(a1)
     4a0:	00001537          	lui	a0,0x1
     4a4:	00a10533          	add	a0,sp,a0
     4a8:	d1053503          	ld	a0,-752(a0) # d10 <.LBB21_3+0x250>
     4ac:	08054513          	xori	a0,a0,128
     4b0:	1aa586a3          	sb	a0,429(a1)
     4b4:	00001537          	lui	a0,0x1
     4b8:	00a10533          	add	a0,sp,a0
     4bc:	d2853503          	ld	a0,-728(a0) # d28 <.LBB21_3+0x268>
     4c0:	08054513          	xori	a0,a0,128
     4c4:	1aa58723          	sb	a0,430(a1)
     4c8:	00001537          	lui	a0,0x1
     4cc:	00a10533          	add	a0,sp,a0
     4d0:	d3853503          	ld	a0,-712(a0) # d38 <.LBB21_3+0x278>
     4d4:	08054513          	xori	a0,a0,128
     4d8:	1aa587a3          	sb	a0,431(a1)
     4dc:	00001537          	lui	a0,0x1
     4e0:	00a10533          	add	a0,sp,a0
     4e4:	d4853503          	ld	a0,-696(a0) # d48 <.LBB21_3+0x288>
     4e8:	08054513          	xori	a0,a0,128
     4ec:	22a58823          	sb	a0,560(a1)
     4f0:	00001537          	lui	a0,0x1
     4f4:	00a10533          	add	a0,sp,a0
     4f8:	d5853503          	ld	a0,-680(a0) # d58 <.LBB21_3+0x298>
     4fc:	08054513          	xori	a0,a0,128
     500:	22a588a3          	sb	a0,561(a1)
     504:	00001537          	lui	a0,0x1
     508:	00a10533          	add	a0,sp,a0
     50c:	d7053503          	ld	a0,-656(a0) # d70 <.LBB21_3+0x2b0>
     510:	08054513          	xori	a0,a0,128
     514:	22a58923          	sb	a0,562(a1)
     518:	00001537          	lui	a0,0x1
     51c:	00a10533          	add	a0,sp,a0
     520:	d8053503          	ld	a0,-640(a0) # d80 <.LBB21_3+0x2c0>
     524:	08054513          	xori	a0,a0,128
     528:	22a589a3          	sb	a0,563(a1)
     52c:	00001537          	lui	a0,0x1
     530:	00a10533          	add	a0,sp,a0
     534:	d9053503          	ld	a0,-624(a0) # d90 <.LBB21_3+0x2d0>
     538:	08054513          	xori	a0,a0,128
     53c:	22a58a23          	sb	a0,564(a1)
     540:	00001537          	lui	a0,0x1
     544:	00a10533          	add	a0,sp,a0
     548:	da053503          	ld	a0,-608(a0) # da0 <.LBB21_3+0x2e0>
     54c:	08054513          	xori	a0,a0,128
     550:	22a58aa3          	sb	a0,565(a1)
     554:	00001537          	lui	a0,0x1
     558:	00a10533          	add	a0,sp,a0
     55c:	db853503          	ld	a0,-584(a0) # db8 <.LBB21_3+0x2f8>
     560:	08054513          	xori	a0,a0,128
     564:	22a58b23          	sb	a0,566(a1)
     568:	00001537          	lui	a0,0x1
     56c:	00a10533          	add	a0,sp,a0
     570:	dc853503          	ld	a0,-568(a0) # dc8 <.LBB21_3+0x308>
     574:	08054513          	xori	a0,a0,128
     578:	22a58ba3          	sb	a0,567(a1)
     57c:	00001537          	lui	a0,0x1
     580:	00a10533          	add	a0,sp,a0
     584:	dd853503          	ld	a0,-552(a0) # dd8 <.LBB21_3+0x318>
     588:	08054513          	xori	a0,a0,128
     58c:	22a58c23          	sb	a0,568(a1)
     590:	00001537          	lui	a0,0x1
     594:	00a10533          	add	a0,sp,a0
     598:	df053503          	ld	a0,-528(a0) # df0 <.LBB21_3+0x330>
     59c:	08054513          	xori	a0,a0,128
     5a0:	22a58ca3          	sb	a0,569(a1)
     5a4:	00001537          	lui	a0,0x1
     5a8:	00a10533          	add	a0,sp,a0
     5ac:	e0053503          	ld	a0,-512(a0) # e00 <.LBB21_3+0x340>
     5b0:	08054513          	xori	a0,a0,128
     5b4:	22a58d23          	sb	a0,570(a1)
     5b8:	00001537          	lui	a0,0x1
     5bc:	00a10533          	add	a0,sp,a0
     5c0:	e1053503          	ld	a0,-496(a0) # e10 <.LBB21_3+0x350>
     5c4:	08054513          	xori	a0,a0,128
     5c8:	22a58da3          	sb	a0,571(a1)
     5cc:	00001537          	lui	a0,0x1
     5d0:	00a10533          	add	a0,sp,a0
     5d4:	e2053503          	ld	a0,-480(a0) # e20 <.LBB21_3+0x360>
     5d8:	08054513          	xori	a0,a0,128
     5dc:	22a58e23          	sb	a0,572(a1)
     5e0:	00001537          	lui	a0,0x1
     5e4:	00a10533          	add	a0,sp,a0
     5e8:	e3853503          	ld	a0,-456(a0) # e38 <.LBB21_3+0x378>
     5ec:	08054513          	xori	a0,a0,128
     5f0:	22a58ea3          	sb	a0,573(a1)
     5f4:	00001537          	lui	a0,0x1
     5f8:	00a10533          	add	a0,sp,a0
     5fc:	e4853503          	ld	a0,-440(a0) # e48 <.LBB21_3+0x388>
     600:	08054513          	xori	a0,a0,128
     604:	22a58f23          	sb	a0,574(a1)
     608:	00001537          	lui	a0,0x1
     60c:	00a10533          	add	a0,sp,a0
     610:	e5853503          	ld	a0,-424(a0) # e58 <.LBB21_3+0x398>
     614:	08054513          	xori	a0,a0,128
     618:	22a58fa3          	sb	a0,575(a1)
     61c:	00001537          	lui	a0,0x1
     620:	00a10533          	add	a0,sp,a0
     624:	e6853503          	ld	a0,-408(a0) # e68 <.LBB21_3+0x3a8>
     628:	08054513          	xori	a0,a0,128
     62c:	2ca58023          	sb	a0,704(a1)
     630:	00001537          	lui	a0,0x1
     634:	00a10533          	add	a0,sp,a0
     638:	e8053503          	ld	a0,-384(a0) # e80 <.LBB21_3+0x3c0>
     63c:	08054513          	xori	a0,a0,128
     640:	2ca580a3          	sb	a0,705(a1)
     644:	00001537          	lui	a0,0x1
     648:	00a10533          	add	a0,sp,a0
     64c:	e9053503          	ld	a0,-368(a0) # e90 <.LBB21_3+0x3d0>
     650:	08054513          	xori	a0,a0,128
     654:	2ca58123          	sb	a0,706(a1)
     658:	00001537          	lui	a0,0x1
     65c:	00a10533          	add	a0,sp,a0
     660:	ea053503          	ld	a0,-352(a0) # ea0 <.LBB21_3+0x3e0>
     664:	08054513          	xori	a0,a0,128
     668:	2ca581a3          	sb	a0,707(a1)
     66c:	00001537          	lui	a0,0x1
     670:	00a10533          	add	a0,sp,a0
     674:	eb053503          	ld	a0,-336(a0) # eb0 <.LBB21_3+0x3f0>
     678:	08054513          	xori	a0,a0,128
     67c:	2ca58223          	sb	a0,708(a1)
     680:	00001537          	lui	a0,0x1
     684:	00a10533          	add	a0,sp,a0
     688:	ec853503          	ld	a0,-312(a0) # ec8 <.LBB21_3+0x408>
     68c:	08054513          	xori	a0,a0,128
     690:	2ca582a3          	sb	a0,709(a1)
     694:	00001537          	lui	a0,0x1
     698:	00a10533          	add	a0,sp,a0
     69c:	ed853503          	ld	a0,-296(a0) # ed8 <.LBB21_3+0x418>
     6a0:	08054513          	xori	a0,a0,128
     6a4:	2ca58323          	sb	a0,710(a1)
     6a8:	00001537          	lui	a0,0x1
     6ac:	00a10533          	add	a0,sp,a0
     6b0:	ee853503          	ld	a0,-280(a0) # ee8 <.LBB21_3+0x428>
     6b4:	08054513          	xori	a0,a0,128
     6b8:	2ca583a3          	sb	a0,711(a1)
     6bc:	00001537          	lui	a0,0x1
     6c0:	00a10533          	add	a0,sp,a0
     6c4:	f0053503          	ld	a0,-256(a0) # f00 <.LBB21_3+0x440>
     6c8:	08054513          	xori	a0,a0,128
     6cc:	2ca58423          	sb	a0,712(a1)
     6d0:	00001537          	lui	a0,0x1
     6d4:	00a10533          	add	a0,sp,a0
     6d8:	f1053503          	ld	a0,-240(a0) # f10 <.LBB21_3+0x450>
     6dc:	08054513          	xori	a0,a0,128
     6e0:	2ca584a3          	sb	a0,713(a1)
     6e4:	00001537          	lui	a0,0x1
     6e8:	00a10533          	add	a0,sp,a0
     6ec:	f2053503          	ld	a0,-224(a0) # f20 <.LBB21_3+0x460>
     6f0:	08054513          	xori	a0,a0,128
     6f4:	2ca58523          	sb	a0,714(a1)
     6f8:	00001537          	lui	a0,0x1
     6fc:	00a10533          	add	a0,sp,a0
     700:	f3053503          	ld	a0,-208(a0) # f30 <.LBB21_3+0x470>
     704:	08054513          	xori	a0,a0,128
     708:	2ca585a3          	sb	a0,715(a1)
     70c:	00001537          	lui	a0,0x1
     710:	00a10533          	add	a0,sp,a0
     714:	f4853503          	ld	a0,-184(a0) # f48 <.LBB21_3+0x488>
     718:	08054513          	xori	a0,a0,128
     71c:	2ca58623          	sb	a0,716(a1)
     720:	00001537          	lui	a0,0x1
     724:	00a10533          	add	a0,sp,a0
     728:	f5853503          	ld	a0,-168(a0) # f58 <.LBB21_3+0x498>
     72c:	08054513          	xori	a0,a0,128
     730:	2ca586a3          	sb	a0,717(a1)
     734:	00001537          	lui	a0,0x1
     738:	00a10533          	add	a0,sp,a0
     73c:	f6853503          	ld	a0,-152(a0) # f68 <.LBB21_3+0x4a8>
     740:	08054513          	xori	a0,a0,128
     744:	2ca58723          	sb	a0,718(a1)
     748:	00001537          	lui	a0,0x1
     74c:	00a10533          	add	a0,sp,a0
     750:	f7853503          	ld	a0,-136(a0) # f78 <.LBB21_3+0x4b8>
     754:	08054513          	xori	a0,a0,128
     758:	2ca587a3          	sb	a0,719(a1)
     75c:	00001537          	lui	a0,0x1
     760:	00a10533          	add	a0,sp,a0
     764:	f9053503          	ld	a0,-112(a0) # f90 <.LBB21_3+0x4d0>
     768:	08054513          	xori	a0,a0,128
     76c:	34a58823          	sb	a0,848(a1)
     770:	00001537          	lui	a0,0x1
     774:	00a10533          	add	a0,sp,a0
     778:	fa053503          	ld	a0,-96(a0) # fa0 <.LBB21_3+0x4e0>
     77c:	08054513          	xori	a0,a0,128
     780:	34a588a3          	sb	a0,849(a1)
     784:	00001537          	lui	a0,0x1
     788:	00a10533          	add	a0,sp,a0
     78c:	fb053503          	ld	a0,-80(a0) # fb0 <.LBB21_3+0x4f0>
     790:	08054513          	xori	a0,a0,128
     794:	34a58923          	sb	a0,850(a1)
     798:	00001537          	lui	a0,0x1
     79c:	00a10533          	add	a0,sp,a0
     7a0:	fc053503          	ld	a0,-64(a0) # fc0 <.LBB21_3+0x500>
     7a4:	08054513          	xori	a0,a0,128
     7a8:	34a589a3          	sb	a0,851(a1)
     7ac:	00001537          	lui	a0,0x1
     7b0:	00a10533          	add	a0,sp,a0
     7b4:	fd853503          	ld	a0,-40(a0) # fd8 <.LBB21_3+0x518>
     7b8:	08054513          	xori	a0,a0,128
     7bc:	34a58a23          	sb	a0,852(a1)
     7c0:	00001537          	lui	a0,0x1
     7c4:	00a10533          	add	a0,sp,a0
     7c8:	fe853503          	ld	a0,-24(a0) # fe8 <.LBB21_3+0x528>
     7cc:	08054513          	xori	a0,a0,128
     7d0:	34a58aa3          	sb	a0,853(a1)
     7d4:	00001537          	lui	a0,0x1
     7d8:	00a10533          	add	a0,sp,a0
     7dc:	ff853503          	ld	a0,-8(a0) # ff8 <.LBB21_3+0x538>
     7e0:	08054513          	xori	a0,a0,128
     7e4:	34a58b23          	sb	a0,854(a1)
     7e8:	00001537          	lui	a0,0x1
     7ec:	00a10533          	add	a0,sp,a0
     7f0:	01053503          	ld	a0,16(a0) # 1010 <.LBB21_3+0x550>
     7f4:	08054513          	xori	a0,a0,128
     7f8:	34a58ba3          	sb	a0,855(a1)
     7fc:	00001537          	lui	a0,0x1
     800:	00a10533          	add	a0,sp,a0
     804:	02053503          	ld	a0,32(a0) # 1020 <.LBB21_3+0x560>
     808:	08054513          	xori	a0,a0,128
     80c:	34a58c23          	sb	a0,856(a1)
     810:	00001537          	lui	a0,0x1
     814:	00a10533          	add	a0,sp,a0
     818:	03053503          	ld	a0,48(a0) # 1030 <.LBB21_3+0x570>
     81c:	08054513          	xori	a0,a0,128
     820:	34a58ca3          	sb	a0,857(a1)
     824:	00001537          	lui	a0,0x1
     828:	00a10533          	add	a0,sp,a0
     82c:	04053503          	ld	a0,64(a0) # 1040 <.LBB21_3+0x580>
     830:	08054513          	xori	a0,a0,128
     834:	34a58d23          	sb	a0,858(a1)
     838:	00001537          	lui	a0,0x1
     83c:	00a10533          	add	a0,sp,a0
     840:	05853503          	ld	a0,88(a0) # 1058 <.LBB21_3+0x598>
     844:	08054513          	xori	a0,a0,128
     848:	34a58da3          	sb	a0,859(a1)
     84c:	00001537          	lui	a0,0x1
     850:	00a10533          	add	a0,sp,a0
     854:	06853503          	ld	a0,104(a0) # 1068 <.LBB21_3+0x5a8>
     858:	08054513          	xori	a0,a0,128
     85c:	34a58e23          	sb	a0,860(a1)
     860:	00001537          	lui	a0,0x1
     864:	00a10533          	add	a0,sp,a0
     868:	07853503          	ld	a0,120(a0) # 1078 <.LBB21_3+0x5b8>
     86c:	08054513          	xori	a0,a0,128
     870:	34a58ea3          	sb	a0,861(a1)
     874:	00001537          	lui	a0,0x1
     878:	00a10533          	add	a0,sp,a0
     87c:	08853503          	ld	a0,136(a0) # 1088 <.LBB21_3+0x5c8>
     880:	08054513          	xori	a0,a0,128
     884:	34a58f23          	sb	a0,862(a1)
     888:	00001537          	lui	a0,0x1
     88c:	00a10533          	add	a0,sp,a0
     890:	09053503          	ld	a0,144(a0) # 1090 <.LBB21_3+0x5d0>
     894:	08054513          	xori	a0,a0,128
     898:	34a58fa3          	sb	a0,863(a1)
     89c:	00001537          	lui	a0,0x1
     8a0:	00a10533          	add	a0,sp,a0
     8a4:	0a053503          	ld	a0,160(a0) # 10a0 <.LBB21_3+0x5e0>
     8a8:	08054513          	xori	a0,a0,128
     8ac:	3ea58023          	sb	a0,992(a1)
     8b0:	00001537          	lui	a0,0x1
     8b4:	00a10533          	add	a0,sp,a0
     8b8:	0b053503          	ld	a0,176(a0) # 10b0 <.LBB21_3+0x5f0>
     8bc:	08054513          	xori	a0,a0,128
     8c0:	3ea580a3          	sb	a0,993(a1)
     8c4:	00001537          	lui	a0,0x1
     8c8:	00a10533          	add	a0,sp,a0
     8cc:	0c053503          	ld	a0,192(a0) # 10c0 <.LBB21_3+0x600>
     8d0:	08054513          	xori	a0,a0,128
     8d4:	3ea58123          	sb	a0,994(a1)
     8d8:	00001537          	lui	a0,0x1
     8dc:	00a10533          	add	a0,sp,a0
     8e0:	0d053503          	ld	a0,208(a0) # 10d0 <.LBB21_3+0x610>
     8e4:	08054513          	xori	a0,a0,128
     8e8:	3ea581a3          	sb	a0,995(a1)
     8ec:	00001537          	lui	a0,0x1
     8f0:	00a10533          	add	a0,sp,a0
     8f4:	0e053503          	ld	a0,224(a0) # 10e0 <.LBB21_3+0x620>
     8f8:	08054513          	xori	a0,a0,128
     8fc:	3ea58223          	sb	a0,996(a1)
     900:	00001537          	lui	a0,0x1
     904:	00a10533          	add	a0,sp,a0
     908:	0f053503          	ld	a0,240(a0) # 10f0 <.LBB21_3+0x630>
     90c:	08054513          	xori	a0,a0,128
     910:	3ea582a3          	sb	a0,997(a1)
     914:	00001537          	lui	a0,0x1
     918:	00a10533          	add	a0,sp,a0
     91c:	10053503          	ld	a0,256(a0) # 1100 <.LBB21_3+0x640>
     920:	08054513          	xori	a0,a0,128
     924:	3ea58323          	sb	a0,998(a1)
     928:	00001537          	lui	a0,0x1
     92c:	00a10533          	add	a0,sp,a0
     930:	17053503          	ld	a0,368(a0) # 1170 <.LBB21_3+0x6b0>
     934:	08054513          	xori	a0,a0,128
     938:	3ea583a3          	sb	a0,999(a1)
     93c:	08064513          	xori	a0,a2,128
     940:	3ea58423          	sb	a0,1000(a1)
     944:	0806c513          	xori	a0,a3,128
     948:	3ea584a3          	sb	a0,1001(a1)
     94c:	08074513          	xori	a0,a4,128
     950:	3ea58523          	sb	a0,1002(a1)
     954:	0807c513          	xori	a0,a5,128
     958:	3ea585a3          	sb	a0,1003(a1)
     95c:	08084513          	xori	a0,a6,128
     960:	3ea58623          	sb	a0,1004(a1)
     964:	0808c513          	xori	a0,a7,128
     968:	3ea586a3          	sb	a0,1005(a1)
     96c:	0802c513          	xori	a0,t0,128
     970:	3ea58723          	sb	a0,1006(a1)
     974:	08034513          	xori	a0,t1,128
     978:	3ea587a3          	sb	a0,1007(a1)
     97c:	0803c513          	xori	a0,t2,128
     980:	46a58823          	sb	a0,1136(a1)
     984:	080ec513          	xori	a0,t4,128
     988:	46a588a3          	sb	a0,1137(a1)
     98c:	080ac513          	xori	a0,s5,128
     990:	46a58923          	sb	a0,1138(a1)
     994:	080bc513          	xori	a0,s7,128
     998:	46a589a3          	sb	a0,1139(a1)
     99c:	080b4513          	xori	a0,s6,128
     9a0:	46a58a23          	sb	a0,1140(a1)
     9a4:	080cc513          	xori	a0,s9,128
     9a8:	46a58aa3          	sb	a0,1141(a1)
     9ac:	080dc513          	xori	a0,s11,128
     9b0:	46a58b23          	sb	a0,1142(a1)
     9b4:	0804c513          	xori	a0,s1,128
     9b8:	46a58ba3          	sb	a0,1143(a1)
     9bc:	080e4513          	xori	a0,t3,128
     9c0:	46a58c23          	sb	a0,1144(a1)
     9c4:	080f4513          	xori	a0,t5,128
     9c8:	46a58ca3          	sb	a0,1145(a1)
     9cc:	080fc513          	xori	a0,t6,128
     9d0:	46a58d23          	sb	a0,1146(a1)
     9d4:	08094513          	xori	a0,s2,128
     9d8:	46a58da3          	sb	a0,1147(a1)
     9dc:	080d4513          	xori	a0,s10,128
     9e0:	46a58e23          	sb	a0,1148(a1)
     9e4:	080c4513          	xori	a0,s8,128
     9e8:	46a58ea3          	sb	a0,1149(a1)
     9ec:	0800c513          	xori	a0,ra,128
     9f0:	46a58f23          	sb	a0,1150(a1)
     9f4:	080a4513          	xori	a0,s4,128
     9f8:	46a58fa3          	sb	a0,1151(a1)
     9fc:	07013583          	ld	a1,112(sp)
     a00:	0035d513          	srli	a0,a1,0x3
     a04:	00858893          	addi	a7,a1,8
     a08:	0d013603          	ld	a2,208(sp)
     a0c:	0c060613          	addi	a2,a2,192
     a10:	0cc13823          	sd	a2,208(sp)
     a14:	07813803          	ld	a6,120(sp)
     a18:	00180813          	addi	a6,a6,1
     a1c:	18700593          	li	a1,391
     a20:	00b56463          	bltu	a0,a1,a28 <.LBB21_2>
     a24:	2641606f          	j	16c88 <.LBB21_1544>

0000000000000a28 <.LBB21_2>:
     a28:	00000513          	li	a0,0
     a2c:	07013c23          	sd	a6,120(sp)
     a30:	0c000593          	li	a1,192
     a34:	02b805b3          	mul	a1,a6,a1
     a38:	06013603          	ld	a2,96(sp)
     a3c:	00c585b3          	add	a1,a1,a2
     a40:	06813603          	ld	a2,104(sp)
     a44:	00b606b3          	add	a3,a2,a1
     a48:	00289593          	slli	a1,a7,0x2
     a4c:	00b605b3          	add	a1,a2,a1
     a50:	00001637          	lui	a2,0x1
     a54:	00c10633          	add	a2,sp,a2
     a58:	9cb63023          	sd	a1,-1600(a2) # 9c0 <.LBB21_1+0x8a8>
     a5c:	07113823          	sd	a7,112(sp)
     a60:	09000593          	li	a1,144
     a64:	02b885b3          	mul	a1,a7,a1
     a68:	05013603          	ld	a2,80(sp)
     a6c:	00b605b3          	add	a1,a2,a1
     a70:	09058613          	addi	a2,a1,144
     a74:	0cc13023          	sd	a2,192(sp)
     a78:	12058613          	addi	a2,a1,288
     a7c:	0ac13c23          	sd	a2,184(sp)
     a80:	1b058613          	addi	a2,a1,432
     a84:	0ac13823          	sd	a2,176(sp)
     a88:	24058613          	addi	a2,a1,576
     a8c:	0ac13423          	sd	a2,168(sp)
     a90:	2d058613          	addi	a2,a1,720
     a94:	0ac13023          	sd	a2,160(sp)
     a98:	36058613          	addi	a2,a1,864
     a9c:	08c13c23          	sd	a2,152(sp)
     aa0:	0cb13423          	sd	a1,200(sp)
     aa4:	3f058593          	addi	a1,a1,1008
     aa8:	08b13823          	sd	a1,144(sp)
     aac:	05813803          	ld	a6,88(sp)
     ab0:	000015b7          	lui	a1,0x1
     ab4:	00b105b3          	add	a1,sp,a1
     ab8:	9ed5b023          	sd	a3,-1568(a1) # 9e0 <.LBB21_1+0x8c8>
     abc:	2380106f          	j	1cf4 <.LBB21_4>

0000000000000ac0 <.LBB21_3>:
     ac0:	080d4c93          	xori	s9,s10,128
     ac4:	0c813c03          	ld	s8,200(sp)
     ac8:	00001d37          	lui	s10,0x1
     acc:	01a10d33          	add	s10,sp,s10
     ad0:	9d0d3d03          	ld	s10,-1584(s10) # 9d0 <.LBB21_1+0x8b8>
     ad4:	01ac0c33          	add	s8,s8,s10
     ad8:	019c0223          	sb	s9,4(s8)
     adc:	00001cb7          	lui	s9,0x1
     ae0:	01910cb3          	add	s9,sp,s9
     ae4:	2f8cbc83          	ld	s9,760(s9) # 12f8 <.LBB21_3+0x838>
     ae8:	080ccc93          	xori	s9,s9,128
     aec:	019c01a3          	sb	s9,3(s8)
     af0:	00001cb7          	lui	s9,0x1
     af4:	01910cb3          	add	s9,sp,s9
     af8:	2f0cbc83          	ld	s9,752(s9) # 12f0 <.LBB21_3+0x830>
     afc:	080ccc93          	xori	s9,s9,128
     b00:	019c0123          	sb	s9,2(s8)
     b04:	00001cb7          	lui	s9,0x1
     b08:	01910cb3          	add	s9,sp,s9
     b0c:	2e8cbc83          	ld	s9,744(s9) # 12e8 <.LBB21_3+0x828>
     b10:	080ccc93          	xori	s9,s9,128
     b14:	019c00a3          	sb	s9,1(s8)
     b18:	00001cb7          	lui	s9,0x1
     b1c:	01910cb3          	add	s9,sp,s9
     b20:	2e0cbc83          	ld	s9,736(s9) # 12e0 <.LBB21_3+0x820>
     b24:	080ccc93          	xori	s9,s9,128
     b28:	019c0023          	sb	s9,0(s8)
     b2c:	00001cb7          	lui	s9,0x1
     b30:	01910cb3          	add	s9,sp,s9
     b34:	2d8cbc83          	ld	s9,728(s9) # 12d8 <.LBB21_3+0x818>
     b38:	080ccc93          	xori	s9,s9,128
     b3c:	019c02a3          	sb	s9,5(s8)
     b40:	00001cb7          	lui	s9,0x1
     b44:	01910cb3          	add	s9,sp,s9
     b48:	2d0cbc83          	ld	s9,720(s9) # 12d0 <.LBB21_3+0x810>
     b4c:	080ccc93          	xori	s9,s9,128
     b50:	019c0323          	sb	s9,6(s8)
     b54:	00001cb7          	lui	s9,0x1
     b58:	01910cb3          	add	s9,sp,s9
     b5c:	2c8cbc83          	ld	s9,712(s9) # 12c8 <.LBB21_3+0x808>
     b60:	080ccc93          	xori	s9,s9,128
     b64:	019c03a3          	sb	s9,7(s8)
     b68:	00001cb7          	lui	s9,0x1
     b6c:	01910cb3          	add	s9,sp,s9
     b70:	2c0cbc83          	ld	s9,704(s9) # 12c0 <.LBB21_3+0x800>
     b74:	080ccc93          	xori	s9,s9,128
     b78:	019c0423          	sb	s9,8(s8)
     b7c:	00001cb7          	lui	s9,0x1
     b80:	01910cb3          	add	s9,sp,s9
     b84:	2b8cbc83          	ld	s9,696(s9) # 12b8 <.LBB21_3+0x7f8>
     b88:	080ccc93          	xori	s9,s9,128
     b8c:	019c04a3          	sb	s9,9(s8)
     b90:	00001cb7          	lui	s9,0x1
     b94:	01910cb3          	add	s9,sp,s9
     b98:	2b0cbc83          	ld	s9,688(s9) # 12b0 <.LBB21_3+0x7f0>
     b9c:	080ccc93          	xori	s9,s9,128
     ba0:	019c0523          	sb	s9,10(s8)
     ba4:	00001cb7          	lui	s9,0x1
     ba8:	01910cb3          	add	s9,sp,s9
     bac:	2a8cbc83          	ld	s9,680(s9) # 12a8 <.LBB21_3+0x7e8>
     bb0:	080ccc93          	xori	s9,s9,128
     bb4:	019c05a3          	sb	s9,11(s8)
     bb8:	00001cb7          	lui	s9,0x1
     bbc:	01910cb3          	add	s9,sp,s9
     bc0:	2a0cbc83          	ld	s9,672(s9) # 12a0 <.LBB21_3+0x7e0>
     bc4:	080ccc93          	xori	s9,s9,128
     bc8:	019c0623          	sb	s9,12(s8)
     bcc:	00001cb7          	lui	s9,0x1
     bd0:	01910cb3          	add	s9,sp,s9
     bd4:	298cbc83          	ld	s9,664(s9) # 1298 <.LBB21_3+0x7d8>
     bd8:	080ccc93          	xori	s9,s9,128
     bdc:	019c06a3          	sb	s9,13(s8)
     be0:	00001cb7          	lui	s9,0x1
     be4:	01910cb3          	add	s9,sp,s9
     be8:	290cbc83          	ld	s9,656(s9) # 1290 <.LBB21_3+0x7d0>
     bec:	080ccc93          	xori	s9,s9,128
     bf0:	019c0723          	sb	s9,14(s8)
     bf4:	00001cb7          	lui	s9,0x1
     bf8:	01910cb3          	add	s9,sp,s9
     bfc:	288cbc83          	ld	s9,648(s9) # 1288 <.LBB21_3+0x7c8>
     c00:	080ccc93          	xori	s9,s9,128
     c04:	019c07a3          	sb	s9,15(s8)
     c08:	00001cb7          	lui	s9,0x1
     c0c:	01910cb3          	add	s9,sp,s9
     c10:	280cbc83          	ld	s9,640(s9) # 1280 <.LBB21_3+0x7c0>
     c14:	080ccc93          	xori	s9,s9,128
     c18:	019c0823          	sb	s9,16(s8)
     c1c:	00001cb7          	lui	s9,0x1
     c20:	01910cb3          	add	s9,sp,s9
     c24:	278cbc83          	ld	s9,632(s9) # 1278 <.LBB21_3+0x7b8>
     c28:	080ccc93          	xori	s9,s9,128
     c2c:	019c08a3          	sb	s9,17(s8)
     c30:	00001cb7          	lui	s9,0x1
     c34:	01910cb3          	add	s9,sp,s9
     c38:	270cbc83          	ld	s9,624(s9) # 1270 <.LBB21_3+0x7b0>
     c3c:	080ccc93          	xori	s9,s9,128
     c40:	019c0923          	sb	s9,18(s8)
     c44:	00001cb7          	lui	s9,0x1
     c48:	01910cb3          	add	s9,sp,s9
     c4c:	268cbc83          	ld	s9,616(s9) # 1268 <.LBB21_3+0x7a8>
     c50:	080ccc93          	xori	s9,s9,128
     c54:	019c09a3          	sb	s9,19(s8)
     c58:	00001cb7          	lui	s9,0x1
     c5c:	01910cb3          	add	s9,sp,s9
     c60:	260cbc83          	ld	s9,608(s9) # 1260 <.LBB21_3+0x7a0>
     c64:	080ccc93          	xori	s9,s9,128
     c68:	019c0a23          	sb	s9,20(s8)
     c6c:	00001cb7          	lui	s9,0x1
     c70:	01910cb3          	add	s9,sp,s9
     c74:	250cbc83          	ld	s9,592(s9) # 1250 <.LBB21_3+0x790>
     c78:	080ccc93          	xori	s9,s9,128
     c7c:	019c0aa3          	sb	s9,21(s8)
     c80:	00001cb7          	lui	s9,0x1
     c84:	01910cb3          	add	s9,sp,s9
     c88:	248cbc83          	ld	s9,584(s9) # 1248 <.LBB21_3+0x788>
     c8c:	080ccc93          	xori	s9,s9,128
     c90:	019c0b23          	sb	s9,22(s8)
     c94:	00001cb7          	lui	s9,0x1
     c98:	01910cb3          	add	s9,sp,s9
     c9c:	240cbc83          	ld	s9,576(s9) # 1240 <.LBB21_3+0x780>
     ca0:	080ccc93          	xori	s9,s9,128
     ca4:	019c0ba3          	sb	s9,23(s8)
     ca8:	00001cb7          	lui	s9,0x1
     cac:	01910cb3          	add	s9,sp,s9
     cb0:	218cbc83          	ld	s9,536(s9) # 1218 <.LBB21_3+0x758>
     cb4:	080ccc93          	xori	s9,s9,128
     cb8:	019c0c23          	sb	s9,24(s8)
     cbc:	00001cb7          	lui	s9,0x1
     cc0:	01910cb3          	add	s9,sp,s9
     cc4:	1e8cbc83          	ld	s9,488(s9) # 11e8 <.LBB21_3+0x728>
     cc8:	080ccc93          	xori	s9,s9,128
     ccc:	019c0ca3          	sb	s9,25(s8)
     cd0:	00001cb7          	lui	s9,0x1
     cd4:	01910cb3          	add	s9,sp,s9
     cd8:	1c0cbc83          	ld	s9,448(s9) # 11c0 <.LBB21_3+0x700>
     cdc:	080ccc93          	xori	s9,s9,128
     ce0:	019c0d23          	sb	s9,26(s8)
     ce4:	00001cb7          	lui	s9,0x1
     ce8:	01910cb3          	add	s9,sp,s9
     cec:	1b8cbc83          	ld	s9,440(s9) # 11b8 <.LBB21_3+0x6f8>
     cf0:	080ccc93          	xori	s9,s9,128
     cf4:	019c0da3          	sb	s9,27(s8)
     cf8:	00001cb7          	lui	s9,0x1
     cfc:	01910cb3          	add	s9,sp,s9
     d00:	1b0cbc83          	ld	s9,432(s9) # 11b0 <.LBB21_3+0x6f0>
     d04:	080ccc93          	xori	s9,s9,128
     d08:	019c0e23          	sb	s9,28(s8)
     d0c:	00001cb7          	lui	s9,0x1
     d10:	01910cb3          	add	s9,sp,s9
     d14:	1a8cbc83          	ld	s9,424(s9) # 11a8 <.LBB21_3+0x6e8>
     d18:	080ccc93          	xori	s9,s9,128
     d1c:	019c0ea3          	sb	s9,29(s8)
     d20:	00001cb7          	lui	s9,0x1
     d24:	01910cb3          	add	s9,sp,s9
     d28:	1a0cbc83          	ld	s9,416(s9) # 11a0 <.LBB21_3+0x6e0>
     d2c:	080ccc93          	xori	s9,s9,128
     d30:	019c0f23          	sb	s9,30(s8)
     d34:	00001cb7          	lui	s9,0x1
     d38:	01910cb3          	add	s9,sp,s9
     d3c:	198cbc83          	ld	s9,408(s9) # 1198 <.LBB21_3+0x6d8>
     d40:	080ccc93          	xori	s9,s9,128
     d44:	019c0fa3          	sb	s9,31(s8)
     d48:	00001c37          	lui	s8,0x1
     d4c:	01810c33          	add	s8,sp,s8
     d50:	190c3c03          	ld	s8,400(s8) # 1190 <.LBB21_3+0x6d0>
     d54:	080c4c93          	xori	s9,s8,128
     d58:	0c013c03          	ld	s8,192(sp)
     d5c:	01ac0c33          	add	s8,s8,s10
     d60:	019c0223          	sb	s9,4(s8)
     d64:	00001cb7          	lui	s9,0x1
     d68:	01910cb3          	add	s9,sp,s9
     d6c:	188cbc83          	ld	s9,392(s9) # 1188 <.LBB21_3+0x6c8>
     d70:	080ccc93          	xori	s9,s9,128
     d74:	019c01a3          	sb	s9,3(s8)
     d78:	00001cb7          	lui	s9,0x1
     d7c:	01910cb3          	add	s9,sp,s9
     d80:	180cbc83          	ld	s9,384(s9) # 1180 <.LBB21_3+0x6c0>
     d84:	080ccc93          	xori	s9,s9,128
     d88:	019c0123          	sb	s9,2(s8)
     d8c:	00001cb7          	lui	s9,0x1
     d90:	01910cb3          	add	s9,sp,s9
     d94:	f98cbc83          	ld	s9,-104(s9) # f98 <.LBB21_3+0x4d8>
     d98:	080ccc93          	xori	s9,s9,128
     d9c:	019c00a3          	sb	s9,1(s8)
     da0:	00001cb7          	lui	s9,0x1
     da4:	01910cb3          	add	s9,sp,s9
     da8:	f58cbc83          	ld	s9,-168(s9) # f58 <.LBB21_3+0x498>
     dac:	080ccc93          	xori	s9,s9,128
     db0:	019c0023          	sb	s9,0(s8)
     db4:	00001cb7          	lui	s9,0x1
     db8:	01910cb3          	add	s9,sp,s9
     dbc:	f10cbc83          	ld	s9,-240(s9) # f10 <.LBB21_3+0x450>
     dc0:	080ccc93          	xori	s9,s9,128
     dc4:	019c02a3          	sb	s9,5(s8)
     dc8:	00001cb7          	lui	s9,0x1
     dcc:	01910cb3          	add	s9,sp,s9
     dd0:	ec8cbc83          	ld	s9,-312(s9) # ec8 <.LBB21_3+0x408>
     dd4:	080ccc93          	xori	s9,s9,128
     dd8:	019c0323          	sb	s9,6(s8)
     ddc:	00001cb7          	lui	s9,0x1
     de0:	01910cb3          	add	s9,sp,s9
     de4:	e88cbc83          	ld	s9,-376(s9) # e88 <.LBB21_3+0x3c8>
     de8:	080ccc93          	xori	s9,s9,128
     dec:	019c03a3          	sb	s9,7(s8)
     df0:	00001cb7          	lui	s9,0x1
     df4:	01910cb3          	add	s9,sp,s9
     df8:	e38cbc83          	ld	s9,-456(s9) # e38 <.LBB21_3+0x378>
     dfc:	080ccc93          	xori	s9,s9,128
     e00:	019c0423          	sb	s9,8(s8)
     e04:	00001cb7          	lui	s9,0x1
     e08:	01910cb3          	add	s9,sp,s9
     e0c:	de0cbc83          	ld	s9,-544(s9) # de0 <.LBB21_3+0x320>
     e10:	080ccc93          	xori	s9,s9,128
     e14:	019c04a3          	sb	s9,9(s8)
     e18:	00001cb7          	lui	s9,0x1
     e1c:	01910cb3          	add	s9,sp,s9
     e20:	da0cbc83          	ld	s9,-608(s9) # da0 <.LBB21_3+0x2e0>
     e24:	080ccc93          	xori	s9,s9,128
     e28:	019c0523          	sb	s9,10(s8)
     e2c:	00001cb7          	lui	s9,0x1
     e30:	01910cb3          	add	s9,sp,s9
     e34:	d60cbc83          	ld	s9,-672(s9) # d60 <.LBB21_3+0x2a0>
     e38:	080ccc93          	xori	s9,s9,128
     e3c:	019c05a3          	sb	s9,11(s8)
     e40:	00001cb7          	lui	s9,0x1
     e44:	01910cb3          	add	s9,sp,s9
     e48:	d18cbc83          	ld	s9,-744(s9) # d18 <.LBB21_3+0x258>
     e4c:	080ccc93          	xori	s9,s9,128
     e50:	019c0623          	sb	s9,12(s8)
     e54:	00001cb7          	lui	s9,0x1
     e58:	01910cb3          	add	s9,sp,s9
     e5c:	cd8cbc83          	ld	s9,-808(s9) # cd8 <.LBB21_3+0x218>
     e60:	080ccc93          	xori	s9,s9,128
     e64:	019c06a3          	sb	s9,13(s8)
     e68:	00001cb7          	lui	s9,0x1
     e6c:	01910cb3          	add	s9,sp,s9
     e70:	c98cbc83          	ld	s9,-872(s9) # c98 <.LBB21_3+0x1d8>
     e74:	080ccc93          	xori	s9,s9,128
     e78:	019c0723          	sb	s9,14(s8)
     e7c:	00001cb7          	lui	s9,0x1
     e80:	01910cb3          	add	s9,sp,s9
     e84:	c50cbc83          	ld	s9,-944(s9) # c50 <.LBB21_3+0x190>
     e88:	080ccc93          	xori	s9,s9,128
     e8c:	019c07a3          	sb	s9,15(s8)
     e90:	00001cb7          	lui	s9,0x1
     e94:	01910cb3          	add	s9,sp,s9
     e98:	c10cbc83          	ld	s9,-1008(s9) # c10 <.LBB21_3+0x150>
     e9c:	080ccc93          	xori	s9,s9,128
     ea0:	019c0823          	sb	s9,16(s8)
     ea4:	00001cb7          	lui	s9,0x1
     ea8:	01910cb3          	add	s9,sp,s9
     eac:	bd0cbc83          	ld	s9,-1072(s9) # bd0 <.LBB21_3+0x110>
     eb0:	080ccc93          	xori	s9,s9,128
     eb4:	019c08a3          	sb	s9,17(s8)
     eb8:	00001cb7          	lui	s9,0x1
     ebc:	01910cb3          	add	s9,sp,s9
     ec0:	b90cbc83          	ld	s9,-1136(s9) # b90 <.LBB21_3+0xd0>
     ec4:	080ccc93          	xori	s9,s9,128
     ec8:	019c0923          	sb	s9,18(s8)
     ecc:	00001cb7          	lui	s9,0x1
     ed0:	01910cb3          	add	s9,sp,s9
     ed4:	b48cbc83          	ld	s9,-1208(s9) # b48 <.LBB21_3+0x88>
     ed8:	080ccc93          	xori	s9,s9,128
     edc:	019c09a3          	sb	s9,19(s8)
     ee0:	00001cb7          	lui	s9,0x1
     ee4:	01910cb3          	add	s9,sp,s9
     ee8:	b08cbc83          	ld	s9,-1272(s9) # b08 <.LBB21_3+0x48>
     eec:	080ccc93          	xori	s9,s9,128
     ef0:	019c0a23          	sb	s9,20(s8)
     ef4:	00001cb7          	lui	s9,0x1
     ef8:	01910cb3          	add	s9,sp,s9
     efc:	ad8cbc83          	ld	s9,-1320(s9) # ad8 <.LBB21_3+0x18>
     f00:	080ccc93          	xori	s9,s9,128
     f04:	019c0aa3          	sb	s9,21(s8)
     f08:	00001cb7          	lui	s9,0x1
     f0c:	01910cb3          	add	s9,sp,s9
     f10:	ad0cbc83          	ld	s9,-1328(s9) # ad0 <.LBB21_3+0x10>
     f14:	080ccc93          	xori	s9,s9,128
     f18:	019c0b23          	sb	s9,22(s8)
     f1c:	00001cb7          	lui	s9,0x1
     f20:	01910cb3          	add	s9,sp,s9
     f24:	ac8cbc83          	ld	s9,-1336(s9) # ac8 <.LBB21_3+0x8>
     f28:	080ccc93          	xori	s9,s9,128
     f2c:	019c0ba3          	sb	s9,23(s8)
     f30:	00001cb7          	lui	s9,0x1
     f34:	01910cb3          	add	s9,sp,s9
     f38:	ac0cbc83          	ld	s9,-1344(s9) # ac0 <.LBB21_3>
     f3c:	080ccc93          	xori	s9,s9,128
     f40:	019c0c23          	sb	s9,24(s8)
     f44:	00001cb7          	lui	s9,0x1
     f48:	01910cb3          	add	s9,sp,s9
     f4c:	ab8cbc83          	ld	s9,-1352(s9) # ab8 <.LBB21_2+0x90>
     f50:	080ccc93          	xori	s9,s9,128
     f54:	019c0ca3          	sb	s9,25(s8)
     f58:	00001cb7          	lui	s9,0x1
     f5c:	01910cb3          	add	s9,sp,s9
     f60:	ab0cbc83          	ld	s9,-1360(s9) # ab0 <.LBB21_2+0x88>
     f64:	080ccc93          	xori	s9,s9,128
     f68:	019c0d23          	sb	s9,26(s8)
     f6c:	00001cb7          	lui	s9,0x1
     f70:	01910cb3          	add	s9,sp,s9
     f74:	aa8cbc83          	ld	s9,-1368(s9) # aa8 <.LBB21_2+0x80>
     f78:	080ccc93          	xori	s9,s9,128
     f7c:	019c0da3          	sb	s9,27(s8)
     f80:	00001cb7          	lui	s9,0x1
     f84:	01910cb3          	add	s9,sp,s9
     f88:	aa0cbc83          	ld	s9,-1376(s9) # aa0 <.LBB21_2+0x78>
     f8c:	080ccc93          	xori	s9,s9,128
     f90:	019c0e23          	sb	s9,28(s8)
     f94:	00001cb7          	lui	s9,0x1
     f98:	01910cb3          	add	s9,sp,s9
     f9c:	a98cbc83          	ld	s9,-1384(s9) # a98 <.LBB21_2+0x70>
     fa0:	080ccc93          	xori	s9,s9,128
     fa4:	019c0ea3          	sb	s9,29(s8)
     fa8:	00001cb7          	lui	s9,0x1
     fac:	01910cb3          	add	s9,sp,s9
     fb0:	a90cbc83          	ld	s9,-1392(s9) # a90 <.LBB21_2+0x68>
     fb4:	080ccc93          	xori	s9,s9,128
     fb8:	019c0f23          	sb	s9,30(s8)
     fbc:	00001cb7          	lui	s9,0x1
     fc0:	01910cb3          	add	s9,sp,s9
     fc4:	a88cbc83          	ld	s9,-1400(s9) # a88 <.LBB21_2+0x60>
     fc8:	080ccc93          	xori	s9,s9,128
     fcc:	019c0fa3          	sb	s9,31(s8)
     fd0:	00001c37          	lui	s8,0x1
     fd4:	01810c33          	add	s8,sp,s8
     fd8:	a80c3c03          	ld	s8,-1408(s8) # a80 <.LBB21_2+0x58>
     fdc:	080c4c93          	xori	s9,s8,128
     fe0:	0b813c03          	ld	s8,184(sp)
     fe4:	01ac0c33          	add	s8,s8,s10
     fe8:	019c0223          	sb	s9,4(s8)
     fec:	00001cb7          	lui	s9,0x1
     ff0:	01910cb3          	add	s9,sp,s9
     ff4:	a70cbc83          	ld	s9,-1424(s9) # a70 <.LBB21_2+0x48>
     ff8:	080ccc93          	xori	s9,s9,128
     ffc:	019c01a3          	sb	s9,3(s8)
    1000:	00001cb7          	lui	s9,0x1
    1004:	01910cb3          	add	s9,sp,s9
    1008:	a68cbc83          	ld	s9,-1432(s9) # a68 <.LBB21_2+0x40>
    100c:	080ccc93          	xori	s9,s9,128
    1010:	019c0123          	sb	s9,2(s8)
    1014:	00001cb7          	lui	s9,0x1
    1018:	01910cb3          	add	s9,sp,s9
    101c:	a60cbc83          	ld	s9,-1440(s9) # a60 <.LBB21_2+0x38>
    1020:	080ccc93          	xori	s9,s9,128
    1024:	019c00a3          	sb	s9,1(s8)
    1028:	00001cb7          	lui	s9,0x1
    102c:	01910cb3          	add	s9,sp,s9
    1030:	a50cbc83          	ld	s9,-1456(s9) # a50 <.LBB21_2+0x28>
    1034:	080ccc93          	xori	s9,s9,128
    1038:	019c0023          	sb	s9,0(s8)
    103c:	00001cb7          	lui	s9,0x1
    1040:	01910cb3          	add	s9,sp,s9
    1044:	a48cbc83          	ld	s9,-1464(s9) # a48 <.LBB21_2+0x20>
    1048:	080ccc93          	xori	s9,s9,128
    104c:	019c02a3          	sb	s9,5(s8)
    1050:	00001cb7          	lui	s9,0x1
    1054:	01910cb3          	add	s9,sp,s9
    1058:	a40cbc83          	ld	s9,-1472(s9) # a40 <.LBB21_2+0x18>
    105c:	080ccc93          	xori	s9,s9,128
    1060:	019c0323          	sb	s9,6(s8)
    1064:	00001cb7          	lui	s9,0x1
    1068:	01910cb3          	add	s9,sp,s9
    106c:	a38cbc83          	ld	s9,-1480(s9) # a38 <.LBB21_2+0x10>
    1070:	080ccc93          	xori	s9,s9,128
    1074:	019c03a3          	sb	s9,7(s8)
    1078:	00001cb7          	lui	s9,0x1
    107c:	01910cb3          	add	s9,sp,s9
    1080:	a30cbc83          	ld	s9,-1488(s9) # a30 <.LBB21_2+0x8>
    1084:	080ccc93          	xori	s9,s9,128
    1088:	019c0423          	sb	s9,8(s8)
    108c:	00001cb7          	lui	s9,0x1
    1090:	01910cb3          	add	s9,sp,s9
    1094:	a28cbc83          	ld	s9,-1496(s9) # a28 <.LBB21_2>
    1098:	080ccc93          	xori	s9,s9,128
    109c:	019c04a3          	sb	s9,9(s8)
    10a0:	00001cb7          	lui	s9,0x1
    10a4:	01910cb3          	add	s9,sp,s9
    10a8:	a20cbc83          	ld	s9,-1504(s9) # a20 <.LBB21_1+0x908>
    10ac:	080ccc93          	xori	s9,s9,128
    10b0:	019c0523          	sb	s9,10(s8)
    10b4:	00001cb7          	lui	s9,0x1
    10b8:	01910cb3          	add	s9,sp,s9
    10bc:	a18cbc83          	ld	s9,-1512(s9) # a18 <.LBB21_1+0x900>
    10c0:	080ccc93          	xori	s9,s9,128
    10c4:	019c05a3          	sb	s9,11(s8)
    10c8:	00001cb7          	lui	s9,0x1
    10cc:	01910cb3          	add	s9,sp,s9
    10d0:	a10cbc83          	ld	s9,-1520(s9) # a10 <.LBB21_1+0x8f8>
    10d4:	080ccc93          	xori	s9,s9,128
    10d8:	019c0623          	sb	s9,12(s8)
    10dc:	00001cb7          	lui	s9,0x1
    10e0:	01910cb3          	add	s9,sp,s9
    10e4:	a08cbc83          	ld	s9,-1528(s9) # a08 <.LBB21_1+0x8f0>
    10e8:	080ccc93          	xori	s9,s9,128
    10ec:	019c06a3          	sb	s9,13(s8)
    10f0:	00001cb7          	lui	s9,0x1
    10f4:	01910cb3          	add	s9,sp,s9
    10f8:	a00cbc83          	ld	s9,-1536(s9) # a00 <.LBB21_1+0x8e8>
    10fc:	080ccc93          	xori	s9,s9,128
    1100:	019c0723          	sb	s9,14(s8)
    1104:	5d813c83          	ld	s9,1496(sp)
    1108:	080ccc93          	xori	s9,s9,128
    110c:	019c07a3          	sb	s9,15(s8)
    1110:	5e813c83          	ld	s9,1512(sp)
    1114:	080ccc93          	xori	s9,s9,128
    1118:	019c0823          	sb	s9,16(s8)
    111c:	5f813c83          	ld	s9,1528(sp)
    1120:	080ccc93          	xori	s9,s9,128
    1124:	019c08a3          	sb	s9,17(s8)
    1128:	60813c83          	ld	s9,1544(sp)
    112c:	080ccc93          	xori	s9,s9,128
    1130:	019c0923          	sb	s9,18(s8)
    1134:	61813c83          	ld	s9,1560(sp)
    1138:	080ccc93          	xori	s9,s9,128
    113c:	019c09a3          	sb	s9,19(s8)
    1140:	62813c83          	ld	s9,1576(sp)
    1144:	080ccc93          	xori	s9,s9,128
    1148:	019c0a23          	sb	s9,20(s8)
    114c:	63813c83          	ld	s9,1592(sp)
    1150:	080ccc93          	xori	s9,s9,128
    1154:	019c0aa3          	sb	s9,21(s8)
    1158:	64813c83          	ld	s9,1608(sp)
    115c:	080ccc93          	xori	s9,s9,128
    1160:	019c0b23          	sb	s9,22(s8)
    1164:	65813c83          	ld	s9,1624(sp)
    1168:	080ccc93          	xori	s9,s9,128
    116c:	019c0ba3          	sb	s9,23(s8)
    1170:	66813c83          	ld	s9,1640(sp)
    1174:	080ccc93          	xori	s9,s9,128
    1178:	019c0c23          	sb	s9,24(s8)
    117c:	67813c83          	ld	s9,1656(sp)
    1180:	080ccc93          	xori	s9,s9,128
    1184:	019c0ca3          	sb	s9,25(s8)
    1188:	68813c83          	ld	s9,1672(sp)
    118c:	080ccc93          	xori	s9,s9,128
    1190:	019c0d23          	sb	s9,26(s8)
    1194:	69813c83          	ld	s9,1688(sp)
    1198:	080ccc93          	xori	s9,s9,128
    119c:	019c0da3          	sb	s9,27(s8)
    11a0:	6a813c83          	ld	s9,1704(sp)
    11a4:	080ccc93          	xori	s9,s9,128
    11a8:	019c0e23          	sb	s9,28(s8)
    11ac:	6b813c83          	ld	s9,1720(sp)
    11b0:	080ccc93          	xori	s9,s9,128
    11b4:	019c0ea3          	sb	s9,29(s8)
    11b8:	6c813c83          	ld	s9,1736(sp)
    11bc:	080ccc93          	xori	s9,s9,128
    11c0:	019c0f23          	sb	s9,30(s8)
    11c4:	6d813c83          	ld	s9,1752(sp)
    11c8:	080ccc93          	xori	s9,s9,128
    11cc:	019c0fa3          	sb	s9,31(s8)
    11d0:	6e813c03          	ld	s8,1768(sp)
    11d4:	080c4c93          	xori	s9,s8,128
    11d8:	0b013c03          	ld	s8,176(sp)
    11dc:	01ac0c33          	add	s8,s8,s10
    11e0:	019c0223          	sb	s9,4(s8)
    11e4:	6f813c83          	ld	s9,1784(sp)
    11e8:	080ccc93          	xori	s9,s9,128
    11ec:	019c01a3          	sb	s9,3(s8)
    11f0:	70813c83          	ld	s9,1800(sp)
    11f4:	080ccc93          	xori	s9,s9,128
    11f8:	019c0123          	sb	s9,2(s8)
    11fc:	71813c83          	ld	s9,1816(sp)
    1200:	080ccc93          	xori	s9,s9,128
    1204:	019c00a3          	sb	s9,1(s8)
    1208:	72813c83          	ld	s9,1832(sp)
    120c:	080ccc93          	xori	s9,s9,128
    1210:	019c0023          	sb	s9,0(s8)
    1214:	73813c83          	ld	s9,1848(sp)
    1218:	080ccc93          	xori	s9,s9,128
    121c:	019c02a3          	sb	s9,5(s8)
    1220:	74813c83          	ld	s9,1864(sp)
    1224:	080ccc93          	xori	s9,s9,128
    1228:	019c0323          	sb	s9,6(s8)
    122c:	75813c83          	ld	s9,1880(sp)
    1230:	080ccc93          	xori	s9,s9,128
    1234:	019c03a3          	sb	s9,7(s8)
    1238:	76813c83          	ld	s9,1896(sp)
    123c:	080ccc93          	xori	s9,s9,128
    1240:	019c0423          	sb	s9,8(s8)
    1244:	77813c83          	ld	s9,1912(sp)
    1248:	080ccc93          	xori	s9,s9,128
    124c:	019c04a3          	sb	s9,9(s8)
    1250:	78813c83          	ld	s9,1928(sp)
    1254:	080ccc93          	xori	s9,s9,128
    1258:	019c0523          	sb	s9,10(s8)
    125c:	79813c83          	ld	s9,1944(sp)
    1260:	080ccc93          	xori	s9,s9,128
    1264:	019c05a3          	sb	s9,11(s8)
    1268:	7a813c83          	ld	s9,1960(sp)
    126c:	080ccc93          	xori	s9,s9,128
    1270:	019c0623          	sb	s9,12(s8)
    1274:	7b813c83          	ld	s9,1976(sp)
    1278:	080ccc93          	xori	s9,s9,128
    127c:	019c06a3          	sb	s9,13(s8)
    1280:	7c813c83          	ld	s9,1992(sp)
    1284:	080ccc93          	xori	s9,s9,128
    1288:	019c0723          	sb	s9,14(s8)
    128c:	7d813c83          	ld	s9,2008(sp)
    1290:	080ccc93          	xori	s9,s9,128
    1294:	019c07a3          	sb	s9,15(s8)
    1298:	7e813c83          	ld	s9,2024(sp)
    129c:	080ccc93          	xori	s9,s9,128
    12a0:	019c0823          	sb	s9,16(s8)
    12a4:	7f813c83          	ld	s9,2040(sp)
    12a8:	080ccc93          	xori	s9,s9,128
    12ac:	019c08a3          	sb	s9,17(s8)
    12b0:	00001cb7          	lui	s9,0x1
    12b4:	01910cb3          	add	s9,sp,s9
    12b8:	808cbc83          	ld	s9,-2040(s9) # 808 <.LBB21_1+0x6f0>
    12bc:	080ccc93          	xori	s9,s9,128
    12c0:	019c0923          	sb	s9,18(s8)
    12c4:	00001cb7          	lui	s9,0x1
    12c8:	01910cb3          	add	s9,sp,s9
    12cc:	818cbc83          	ld	s9,-2024(s9) # 818 <.LBB21_1+0x700>
    12d0:	080ccc93          	xori	s9,s9,128
    12d4:	019c09a3          	sb	s9,19(s8)
    12d8:	00001cb7          	lui	s9,0x1
    12dc:	01910cb3          	add	s9,sp,s9
    12e0:	828cbc83          	ld	s9,-2008(s9) # 828 <.LBB21_1+0x710>
    12e4:	080ccc93          	xori	s9,s9,128
    12e8:	019c0a23          	sb	s9,20(s8)
    12ec:	00001cb7          	lui	s9,0x1
    12f0:	01910cb3          	add	s9,sp,s9
    12f4:	838cbc83          	ld	s9,-1992(s9) # 838 <.LBB21_1+0x720>
    12f8:	080ccc93          	xori	s9,s9,128
    12fc:	019c0aa3          	sb	s9,21(s8)
    1300:	00001cb7          	lui	s9,0x1
    1304:	01910cb3          	add	s9,sp,s9
    1308:	848cbc83          	ld	s9,-1976(s9) # 848 <.LBB21_1+0x730>
    130c:	080ccc93          	xori	s9,s9,128
    1310:	019c0b23          	sb	s9,22(s8)
    1314:	00001cb7          	lui	s9,0x1
    1318:	01910cb3          	add	s9,sp,s9
    131c:	858cbc83          	ld	s9,-1960(s9) # 858 <.LBB21_1+0x740>
    1320:	080ccc93          	xori	s9,s9,128
    1324:	019c0ba3          	sb	s9,23(s8)
    1328:	00001cb7          	lui	s9,0x1
    132c:	01910cb3          	add	s9,sp,s9
    1330:	868cbc83          	ld	s9,-1944(s9) # 868 <.LBB21_1+0x750>
    1334:	080ccc93          	xori	s9,s9,128
    1338:	019c0c23          	sb	s9,24(s8)
    133c:	00001cb7          	lui	s9,0x1
    1340:	01910cb3          	add	s9,sp,s9
    1344:	878cbc83          	ld	s9,-1928(s9) # 878 <.LBB21_1+0x760>
    1348:	080ccc93          	xori	s9,s9,128
    134c:	019c0ca3          	sb	s9,25(s8)
    1350:	00001cb7          	lui	s9,0x1
    1354:	01910cb3          	add	s9,sp,s9
    1358:	888cbc83          	ld	s9,-1912(s9) # 888 <.LBB21_1+0x770>
    135c:	080ccc93          	xori	s9,s9,128
    1360:	019c0d23          	sb	s9,26(s8)
    1364:	00001cb7          	lui	s9,0x1
    1368:	01910cb3          	add	s9,sp,s9
    136c:	898cbc83          	ld	s9,-1896(s9) # 898 <.LBB21_1+0x780>
    1370:	080ccc93          	xori	s9,s9,128
    1374:	019c0da3          	sb	s9,27(s8)
    1378:	00001cb7          	lui	s9,0x1
    137c:	01910cb3          	add	s9,sp,s9
    1380:	8a8cbc83          	ld	s9,-1880(s9) # 8a8 <.LBB21_1+0x790>
    1384:	080ccc93          	xori	s9,s9,128
    1388:	019c0e23          	sb	s9,28(s8)
    138c:	00001cb7          	lui	s9,0x1
    1390:	01910cb3          	add	s9,sp,s9
    1394:	8b8cbc83          	ld	s9,-1864(s9) # 8b8 <.LBB21_1+0x7a0>
    1398:	080ccc93          	xori	s9,s9,128
    139c:	019c0ea3          	sb	s9,29(s8)
    13a0:	00001cb7          	lui	s9,0x1
    13a4:	01910cb3          	add	s9,sp,s9
    13a8:	8c8cbc83          	ld	s9,-1848(s9) # 8c8 <.LBB21_1+0x7b0>
    13ac:	080ccc93          	xori	s9,s9,128
    13b0:	019c0f23          	sb	s9,30(s8)
    13b4:	00001cb7          	lui	s9,0x1
    13b8:	01910cb3          	add	s9,sp,s9
    13bc:	8d8cbc83          	ld	s9,-1832(s9) # 8d8 <.LBB21_1+0x7c0>
    13c0:	080ccc93          	xori	s9,s9,128
    13c4:	019c0fa3          	sb	s9,31(s8)
    13c8:	00001c37          	lui	s8,0x1
    13cc:	01810c33          	add	s8,sp,s8
    13d0:	8e0c3c03          	ld	s8,-1824(s8) # 8e0 <.LBB21_1+0x7c8>
    13d4:	080c4c93          	xori	s9,s8,128
    13d8:	0a813c03          	ld	s8,168(sp)
    13dc:	01ac0c33          	add	s8,s8,s10
    13e0:	019c0223          	sb	s9,4(s8)
    13e4:	00001cb7          	lui	s9,0x1
    13e8:	01910cb3          	add	s9,sp,s9
    13ec:	e08cbc83          	ld	s9,-504(s9) # e08 <.LBB21_3+0x348>
    13f0:	080ccc93          	xori	s9,s9,128
    13f4:	019c01a3          	sb	s9,3(s8)
    13f8:	00001cb7          	lui	s9,0x1
    13fc:	01910cb3          	add	s9,sp,s9
    1400:	8f8cbc83          	ld	s9,-1800(s9) # 8f8 <.LBB21_1+0x7e0>
    1404:	080ccc93          	xori	s9,s9,128
    1408:	019c0123          	sb	s9,2(s8)
    140c:	00001cb7          	lui	s9,0x1
    1410:	01910cb3          	add	s9,sp,s9
    1414:	e18cbc83          	ld	s9,-488(s9) # e18 <.LBB21_3+0x358>
    1418:	080ccc93          	xori	s9,s9,128
    141c:	019c00a3          	sb	s9,1(s8)
    1420:	00001cb7          	lui	s9,0x1
    1424:	01910cb3          	add	s9,sp,s9
    1428:	910cbc83          	ld	s9,-1776(s9) # 910 <.LBB21_1+0x7f8>
    142c:	080ccc93          	xori	s9,s9,128
    1430:	019c0023          	sb	s9,0(s8)
    1434:	00001cb7          	lui	s9,0x1
    1438:	01910cb3          	add	s9,sp,s9
    143c:	920cbc83          	ld	s9,-1760(s9) # 920 <.LBB21_1+0x808>
    1440:	080ccc93          	xori	s9,s9,128
    1444:	019c02a3          	sb	s9,5(s8)
    1448:	00001cb7          	lui	s9,0x1
    144c:	01910cb3          	add	s9,sp,s9
    1450:	930cbc83          	ld	s9,-1744(s9) # 930 <.LBB21_1+0x818>
    1454:	080ccc93          	xori	s9,s9,128
    1458:	019c0323          	sb	s9,6(s8)
    145c:	00001cb7          	lui	s9,0x1
    1460:	01910cb3          	add	s9,sp,s9
    1464:	940cbc83          	ld	s9,-1728(s9) # 940 <.LBB21_1+0x828>
    1468:	080ccc93          	xori	s9,s9,128
    146c:	019c03a3          	sb	s9,7(s8)
    1470:	00001cb7          	lui	s9,0x1
    1474:	01910cb3          	add	s9,sp,s9
    1478:	950cbc83          	ld	s9,-1712(s9) # 950 <.LBB21_1+0x838>
    147c:	080ccc93          	xori	s9,s9,128
    1480:	019c0423          	sb	s9,8(s8)
    1484:	00001cb7          	lui	s9,0x1
    1488:	01910cb3          	add	s9,sp,s9
    148c:	960cbc83          	ld	s9,-1696(s9) # 960 <.LBB21_1+0x848>
    1490:	080ccc93          	xori	s9,s9,128
    1494:	019c04a3          	sb	s9,9(s8)
    1498:	00001cb7          	lui	s9,0x1
    149c:	01910cb3          	add	s9,sp,s9
    14a0:	970cbc83          	ld	s9,-1680(s9) # 970 <.LBB21_1+0x858>
    14a4:	080ccc93          	xori	s9,s9,128
    14a8:	019c0523          	sb	s9,10(s8)
    14ac:	00001cb7          	lui	s9,0x1
    14b0:	01910cb3          	add	s9,sp,s9
    14b4:	e58cbc83          	ld	s9,-424(s9) # e58 <.LBB21_3+0x398>
    14b8:	080ccc93          	xori	s9,s9,128
    14bc:	019c05a3          	sb	s9,11(s8)
    14c0:	00001cb7          	lui	s9,0x1
    14c4:	01910cb3          	add	s9,sp,s9
    14c8:	988cbc83          	ld	s9,-1656(s9) # 988 <.LBB21_1+0x870>
    14cc:	080ccc93          	xori	s9,s9,128
    14d0:	019c0623          	sb	s9,12(s8)
    14d4:	00001cb7          	lui	s9,0x1
    14d8:	01910cb3          	add	s9,sp,s9
    14dc:	998cbc83          	ld	s9,-1640(s9) # 998 <.LBB21_1+0x880>
    14e0:	080ccc93          	xori	s9,s9,128
    14e4:	019c06a3          	sb	s9,13(s8)
    14e8:	00001cb7          	lui	s9,0x1
    14ec:	01910cb3          	add	s9,sp,s9
    14f0:	9a8cbc83          	ld	s9,-1624(s9) # 9a8 <.LBB21_1+0x890>
    14f4:	080ccc93          	xori	s9,s9,128
    14f8:	019c0723          	sb	s9,14(s8)
    14fc:	00001cb7          	lui	s9,0x1
    1500:	01910cb3          	add	s9,sp,s9
    1504:	9e8cbc83          	ld	s9,-1560(s9) # 9e8 <.LBB21_1+0x8d0>
    1508:	080ccc93          	xori	s9,s9,128
    150c:	019c07a3          	sb	s9,15(s8)
    1510:	00001cb7          	lui	s9,0x1
    1514:	01910cb3          	add	s9,sp,s9
    1518:	9f8cbc83          	ld	s9,-1544(s9) # 9f8 <.LBB21_1+0x8e0>
    151c:	080ccc93          	xori	s9,s9,128
    1520:	019c0823          	sb	s9,16(s8)
    1524:	00001cb7          	lui	s9,0x1
    1528:	01910cb3          	add	s9,sp,s9
    152c:	a78cbc83          	ld	s9,-1416(s9) # a78 <.LBB21_2+0x50>
    1530:	080ccc93          	xori	s9,s9,128
    1534:	019c08a3          	sb	s9,17(s8)
    1538:	00001cb7          	lui	s9,0x1
    153c:	01910cb3          	add	s9,sp,s9
    1540:	ae8cbc83          	ld	s9,-1304(s9) # ae8 <.LBB21_3+0x28>
    1544:	080ccc93          	xori	s9,s9,128
    1548:	019c0923          	sb	s9,18(s8)
    154c:	00001cb7          	lui	s9,0x1
    1550:	01910cb3          	add	s9,sp,s9
    1554:	af8cbc83          	ld	s9,-1288(s9) # af8 <.LBB21_3+0x38>
    1558:	080ccc93          	xori	s9,s9,128
    155c:	019c09a3          	sb	s9,19(s8)
    1560:	00001cb7          	lui	s9,0x1
    1564:	01910cb3          	add	s9,sp,s9
    1568:	b10cbc83          	ld	s9,-1264(s9) # b10 <.LBB21_3+0x50>
    156c:	080ccc93          	xori	s9,s9,128
    1570:	019c0a23          	sb	s9,20(s8)
    1574:	00001cb7          	lui	s9,0x1
    1578:	01910cb3          	add	s9,sp,s9
    157c:	b20cbc83          	ld	s9,-1248(s9) # b20 <.LBB21_3+0x60>
    1580:	080ccc93          	xori	s9,s9,128
    1584:	019c0aa3          	sb	s9,21(s8)
    1588:	00001cb7          	lui	s9,0x1
    158c:	01910cb3          	add	s9,sp,s9
    1590:	b30cbc83          	ld	s9,-1232(s9) # b30 <.LBB21_3+0x70>
    1594:	080ccc93          	xori	s9,s9,128
    1598:	019c0b23          	sb	s9,22(s8)
    159c:	00001cb7          	lui	s9,0x1
    15a0:	01910cb3          	add	s9,sp,s9
    15a4:	b40cbc83          	ld	s9,-1216(s9) # b40 <.LBB21_3+0x80>
    15a8:	080ccc93          	xori	s9,s9,128
    15ac:	019c0ba3          	sb	s9,23(s8)
    15b0:	00001cb7          	lui	s9,0x1
    15b4:	01910cb3          	add	s9,sp,s9
    15b8:	b58cbc83          	ld	s9,-1192(s9) # b58 <.LBB21_3+0x98>
    15bc:	080ccc93          	xori	s9,s9,128
    15c0:	019c0c23          	sb	s9,24(s8)
    15c4:	00001cb7          	lui	s9,0x1
    15c8:	01910cb3          	add	s9,sp,s9
    15cc:	b68cbc83          	ld	s9,-1176(s9) # b68 <.LBB21_3+0xa8>
    15d0:	080ccc93          	xori	s9,s9,128
    15d4:	019c0ca3          	sb	s9,25(s8)
    15d8:	00001cb7          	lui	s9,0x1
    15dc:	01910cb3          	add	s9,sp,s9
    15e0:	b78cbc83          	ld	s9,-1160(s9) # b78 <.LBB21_3+0xb8>
    15e4:	080ccc93          	xori	s9,s9,128
    15e8:	019c0d23          	sb	s9,26(s8)
    15ec:	00001cb7          	lui	s9,0x1
    15f0:	01910cb3          	add	s9,sp,s9
    15f4:	b88cbc83          	ld	s9,-1144(s9) # b88 <.LBB21_3+0xc8>
    15f8:	080ccc93          	xori	s9,s9,128
    15fc:	019c0da3          	sb	s9,27(s8)
    1600:	00001cb7          	lui	s9,0x1
    1604:	01910cb3          	add	s9,sp,s9
    1608:	ba0cbc83          	ld	s9,-1120(s9) # ba0 <.LBB21_3+0xe0>
    160c:	080ccc93          	xori	s9,s9,128
    1610:	019c0e23          	sb	s9,28(s8)
    1614:	00001cb7          	lui	s9,0x1
    1618:	01910cb3          	add	s9,sp,s9
    161c:	bb0cbc83          	ld	s9,-1104(s9) # bb0 <.LBB21_3+0xf0>
    1620:	080ccc93          	xori	s9,s9,128
    1624:	019c0ea3          	sb	s9,29(s8)
    1628:	00001cb7          	lui	s9,0x1
    162c:	01910cb3          	add	s9,sp,s9
    1630:	bc0cbc83          	ld	s9,-1088(s9) # bc0 <.LBB21_3+0x100>
    1634:	080ccc93          	xori	s9,s9,128
    1638:	019c0f23          	sb	s9,30(s8)
    163c:	00001cb7          	lui	s9,0x1
    1640:	01910cb3          	add	s9,sp,s9
    1644:	bd8cbc83          	ld	s9,-1064(s9) # bd8 <.LBB21_3+0x118>
    1648:	080ccc93          	xori	s9,s9,128
    164c:	019c0fa3          	sb	s9,31(s8)
    1650:	00001c37          	lui	s8,0x1
    1654:	01810c33          	add	s8,sp,s8
    1658:	be8c3c03          	ld	s8,-1048(s8) # be8 <.LBB21_3+0x128>
    165c:	080c4c93          	xori	s9,s8,128
    1660:	0a013c03          	ld	s8,160(sp)
    1664:	01ac0c33          	add	s8,s8,s10
    1668:	019c0223          	sb	s9,4(s8)
    166c:	00001cb7          	lui	s9,0x1
    1670:	01910cb3          	add	s9,sp,s9
    1674:	f08cbc83          	ld	s9,-248(s9) # f08 <.LBB21_3+0x448>
    1678:	080ccc93          	xori	s9,s9,128
    167c:	019c01a3          	sb	s9,3(s8)
    1680:	00001cb7          	lui	s9,0x1
    1684:	01910cb3          	add	s9,sp,s9
    1688:	c00cbc83          	ld	s9,-1024(s9) # c00 <.LBB21_3+0x140>
    168c:	080ccc93          	xori	s9,s9,128
    1690:	019c0123          	sb	s9,2(s8)
    1694:	00001cb7          	lui	s9,0x1
    1698:	01910cb3          	add	s9,sp,s9
    169c:	c18cbc83          	ld	s9,-1000(s9) # c18 <.LBB21_3+0x158>
    16a0:	080ccc93          	xori	s9,s9,128
    16a4:	019c00a3          	sb	s9,1(s8)
    16a8:	00001cb7          	lui	s9,0x1
    16ac:	01910cb3          	add	s9,sp,s9
    16b0:	c28cbc83          	ld	s9,-984(s9) # c28 <.LBB21_3+0x168>
    16b4:	080ccc93          	xori	s9,s9,128
    16b8:	019c0023          	sb	s9,0(s8)
    16bc:	00001cb7          	lui	s9,0x1
    16c0:	01910cb3          	add	s9,sp,s9
    16c4:	c38cbc83          	ld	s9,-968(s9) # c38 <.LBB21_3+0x178>
    16c8:	080ccc93          	xori	s9,s9,128
    16cc:	019c02a3          	sb	s9,5(s8)
    16d0:	00001cb7          	lui	s9,0x1
    16d4:	01910cb3          	add	s9,sp,s9
    16d8:	c48cbc83          	ld	s9,-952(s9) # c48 <.LBB21_3+0x188>
    16dc:	080ccc93          	xori	s9,s9,128
    16e0:	019c0323          	sb	s9,6(s8)
    16e4:	00001cb7          	lui	s9,0x1
    16e8:	01910cb3          	add	s9,sp,s9
    16ec:	c60cbc83          	ld	s9,-928(s9) # c60 <.LBB21_3+0x1a0>
    16f0:	080ccc93          	xori	s9,s9,128
    16f4:	019c03a3          	sb	s9,7(s8)
    16f8:	00001cb7          	lui	s9,0x1
    16fc:	01910cb3          	add	s9,sp,s9
    1700:	c70cbc83          	ld	s9,-912(s9) # c70 <.LBB21_3+0x1b0>
    1704:	080ccc93          	xori	s9,s9,128
    1708:	019c0423          	sb	s9,8(s8)
    170c:	00001cb7          	lui	s9,0x1
    1710:	01910cb3          	add	s9,sp,s9
    1714:	c80cbc83          	ld	s9,-896(s9) # c80 <.LBB21_3+0x1c0>
    1718:	080ccc93          	xori	s9,s9,128
    171c:	019c04a3          	sb	s9,9(s8)
    1720:	00001cb7          	lui	s9,0x1
    1724:	01910cb3          	add	s9,sp,s9
    1728:	c90cbc83          	ld	s9,-880(s9) # c90 <.LBB21_3+0x1d0>
    172c:	080ccc93          	xori	s9,s9,128
    1730:	019c0523          	sb	s9,10(s8)
    1734:	00001cb7          	lui	s9,0x1
    1738:	01910cb3          	add	s9,sp,s9
    173c:	ca8cbc83          	ld	s9,-856(s9) # ca8 <.LBB21_3+0x1e8>
    1740:	080ccc93          	xori	s9,s9,128
    1744:	019c05a3          	sb	s9,11(s8)
    1748:	00001cb7          	lui	s9,0x1
    174c:	01910cb3          	add	s9,sp,s9
    1750:	cb8cbc83          	ld	s9,-840(s9) # cb8 <.LBB21_3+0x1f8>
    1754:	080ccc93          	xori	s9,s9,128
    1758:	019c0623          	sb	s9,12(s8)
    175c:	00001cb7          	lui	s9,0x1
    1760:	01910cb3          	add	s9,sp,s9
    1764:	cc8cbc83          	ld	s9,-824(s9) # cc8 <.LBB21_3+0x208>
    1768:	080ccc93          	xori	s9,s9,128
    176c:	019c06a3          	sb	s9,13(s8)
    1770:	00001cb7          	lui	s9,0x1
    1774:	01910cb3          	add	s9,sp,s9
    1778:	ce0cbc83          	ld	s9,-800(s9) # ce0 <.LBB21_3+0x220>
    177c:	080ccc93          	xori	s9,s9,128
    1780:	019c0723          	sb	s9,14(s8)
    1784:	00001cb7          	lui	s9,0x1
    1788:	01910cb3          	add	s9,sp,s9
    178c:	cf0cbc83          	ld	s9,-784(s9) # cf0 <.LBB21_3+0x230>
    1790:	080ccc93          	xori	s9,s9,128
    1794:	019c07a3          	sb	s9,15(s8)
    1798:	00001cb7          	lui	s9,0x1
    179c:	01910cb3          	add	s9,sp,s9
    17a0:	d00cbc83          	ld	s9,-768(s9) # d00 <.LBB21_3+0x240>
    17a4:	080ccc93          	xori	s9,s9,128
    17a8:	019c0823          	sb	s9,16(s8)
    17ac:	00001cb7          	lui	s9,0x1
    17b0:	01910cb3          	add	s9,sp,s9
    17b4:	d10cbc83          	ld	s9,-752(s9) # d10 <.LBB21_3+0x250>
    17b8:	080ccc93          	xori	s9,s9,128
    17bc:	019c08a3          	sb	s9,17(s8)
    17c0:	00001cb7          	lui	s9,0x1
    17c4:	01910cb3          	add	s9,sp,s9
    17c8:	d28cbc83          	ld	s9,-728(s9) # d28 <.LBB21_3+0x268>
    17cc:	080ccc93          	xori	s9,s9,128
    17d0:	019c0923          	sb	s9,18(s8)
    17d4:	00001cb7          	lui	s9,0x1
    17d8:	01910cb3          	add	s9,sp,s9
    17dc:	d38cbc83          	ld	s9,-712(s9) # d38 <.LBB21_3+0x278>
    17e0:	080ccc93          	xori	s9,s9,128
    17e4:	019c09a3          	sb	s9,19(s8)
    17e8:	00001cb7          	lui	s9,0x1
    17ec:	01910cb3          	add	s9,sp,s9
    17f0:	d48cbc83          	ld	s9,-696(s9) # d48 <.LBB21_3+0x288>
    17f4:	080ccc93          	xori	s9,s9,128
    17f8:	019c0a23          	sb	s9,20(s8)
    17fc:	00001cb7          	lui	s9,0x1
    1800:	01910cb3          	add	s9,sp,s9
    1804:	d58cbc83          	ld	s9,-680(s9) # d58 <.LBB21_3+0x298>
    1808:	080ccc93          	xori	s9,s9,128
    180c:	019c0aa3          	sb	s9,21(s8)
    1810:	00001cb7          	lui	s9,0x1
    1814:	01910cb3          	add	s9,sp,s9
    1818:	d70cbc83          	ld	s9,-656(s9) # d70 <.LBB21_3+0x2b0>
    181c:	080ccc93          	xori	s9,s9,128
    1820:	019c0b23          	sb	s9,22(s8)
    1824:	00001cb7          	lui	s9,0x1
    1828:	01910cb3          	add	s9,sp,s9
    182c:	d80cbc83          	ld	s9,-640(s9) # d80 <.LBB21_3+0x2c0>
    1830:	080ccc93          	xori	s9,s9,128
    1834:	019c0ba3          	sb	s9,23(s8)
    1838:	00001cb7          	lui	s9,0x1
    183c:	01910cb3          	add	s9,sp,s9
    1840:	d90cbc83          	ld	s9,-624(s9) # d90 <.LBB21_3+0x2d0>
    1844:	080ccc93          	xori	s9,s9,128
    1848:	019c0c23          	sb	s9,24(s8)
    184c:	00001cb7          	lui	s9,0x1
    1850:	01910cb3          	add	s9,sp,s9
    1854:	da8cbc83          	ld	s9,-600(s9) # da8 <.LBB21_3+0x2e8>
    1858:	080ccc93          	xori	s9,s9,128
    185c:	019c0ca3          	sb	s9,25(s8)
    1860:	00001cb7          	lui	s9,0x1
    1864:	01910cb3          	add	s9,sp,s9
    1868:	db8cbc83          	ld	s9,-584(s9) # db8 <.LBB21_3+0x2f8>
    186c:	080ccc93          	xori	s9,s9,128
    1870:	019c0d23          	sb	s9,26(s8)
    1874:	00001cb7          	lui	s9,0x1
    1878:	01910cb3          	add	s9,sp,s9
    187c:	dc8cbc83          	ld	s9,-568(s9) # dc8 <.LBB21_3+0x308>
    1880:	080ccc93          	xori	s9,s9,128
    1884:	019c0da3          	sb	s9,27(s8)
    1888:	00001cb7          	lui	s9,0x1
    188c:	01910cb3          	add	s9,sp,s9
    1890:	dd8cbc83          	ld	s9,-552(s9) # dd8 <.LBB21_3+0x318>
    1894:	080ccc93          	xori	s9,s9,128
    1898:	019c0e23          	sb	s9,28(s8)
    189c:	00001cb7          	lui	s9,0x1
    18a0:	01910cb3          	add	s9,sp,s9
    18a4:	df0cbc83          	ld	s9,-528(s9) # df0 <.LBB21_3+0x330>
    18a8:	080ccc93          	xori	s9,s9,128
    18ac:	019c0ea3          	sb	s9,29(s8)
    18b0:	00001cb7          	lui	s9,0x1
    18b4:	01910cb3          	add	s9,sp,s9
    18b8:	e00cbc83          	ld	s9,-512(s9) # e00 <.LBB21_3+0x340>
    18bc:	080ccc93          	xori	s9,s9,128
    18c0:	019c0f23          	sb	s9,30(s8)
    18c4:	00001cb7          	lui	s9,0x1
    18c8:	01910cb3          	add	s9,sp,s9
    18cc:	e20cbc83          	ld	s9,-480(s9) # e20 <.LBB21_3+0x360>
    18d0:	080ccc93          	xori	s9,s9,128
    18d4:	019c0fa3          	sb	s9,31(s8)
    18d8:	00001c37          	lui	s8,0x1
    18dc:	01810c33          	add	s8,sp,s8
    18e0:	e30c3c03          	ld	s8,-464(s8) # e30 <.LBB21_3+0x370>
    18e4:	080c4c93          	xori	s9,s8,128
    18e8:	09813c03          	ld	s8,152(sp)
    18ec:	01ac0c33          	add	s8,s8,s10
    18f0:	019c0223          	sb	s9,4(s8)
    18f4:	00001cb7          	lui	s9,0x1
    18f8:	01910cb3          	add	s9,sp,s9
    18fc:	e48cbc83          	ld	s9,-440(s9) # e48 <.LBB21_3+0x388>
    1900:	080ccc93          	xori	s9,s9,128
    1904:	019c01a3          	sb	s9,3(s8)
    1908:	00001cb7          	lui	s9,0x1
    190c:	01910cb3          	add	s9,sp,s9
    1910:	e60cbc83          	ld	s9,-416(s9) # e60 <.LBB21_3+0x3a0>
    1914:	080ccc93          	xori	s9,s9,128
    1918:	019c0123          	sb	s9,2(s8)
    191c:	00001cb7          	lui	s9,0x1
    1920:	01910cb3          	add	s9,sp,s9
    1924:	e70cbc83          	ld	s9,-400(s9) # e70 <.LBB21_3+0x3b0>
    1928:	080ccc93          	xori	s9,s9,128
    192c:	019c00a3          	sb	s9,1(s8)
    1930:	00001cb7          	lui	s9,0x1
    1934:	01910cb3          	add	s9,sp,s9
    1938:	e80cbc83          	ld	s9,-384(s9) # e80 <.LBB21_3+0x3c0>
    193c:	080ccc93          	xori	s9,s9,128
    1940:	019c0023          	sb	s9,0(s8)
    1944:	00001cb7          	lui	s9,0x1
    1948:	01910cb3          	add	s9,sp,s9
    194c:	e98cbc83          	ld	s9,-360(s9) # e98 <.LBB21_3+0x3d8>
    1950:	080ccc93          	xori	s9,s9,128
    1954:	019c02a3          	sb	s9,5(s8)
    1958:	00001cb7          	lui	s9,0x1
    195c:	01910cb3          	add	s9,sp,s9
    1960:	ea8cbc83          	ld	s9,-344(s9) # ea8 <.LBB21_3+0x3e8>
    1964:	080ccc93          	xori	s9,s9,128
    1968:	019c0323          	sb	s9,6(s8)
    196c:	00001cb7          	lui	s9,0x1
    1970:	01910cb3          	add	s9,sp,s9
    1974:	eb8cbc83          	ld	s9,-328(s9) # eb8 <.LBB21_3+0x3f8>
    1978:	080ccc93          	xori	s9,s9,128
    197c:	019c03a3          	sb	s9,7(s8)
    1980:	00001cb7          	lui	s9,0x1
    1984:	01910cb3          	add	s9,sp,s9
    1988:	ed0cbc83          	ld	s9,-304(s9) # ed0 <.LBB21_3+0x410>
    198c:	080ccc93          	xori	s9,s9,128
    1990:	019c0423          	sb	s9,8(s8)
    1994:	00001cb7          	lui	s9,0x1
    1998:	01910cb3          	add	s9,sp,s9
    199c:	ee0cbc83          	ld	s9,-288(s9) # ee0 <.LBB21_3+0x420>
    19a0:	080ccc93          	xori	s9,s9,128
    19a4:	019c04a3          	sb	s9,9(s8)
    19a8:	00001cb7          	lui	s9,0x1
    19ac:	01910cb3          	add	s9,sp,s9
    19b0:	ef0cbc83          	ld	s9,-272(s9) # ef0 <.LBB21_3+0x430>
    19b4:	080ccc93          	xori	s9,s9,128
    19b8:	019c0523          	sb	s9,10(s8)
    19bc:	00001cb7          	lui	s9,0x1
    19c0:	01910cb3          	add	s9,sp,s9
    19c4:	f00cbc83          	ld	s9,-256(s9) # f00 <.LBB21_3+0x440>
    19c8:	080ccc93          	xori	s9,s9,128
    19cc:	019c05a3          	sb	s9,11(s8)
    19d0:	00001cb7          	lui	s9,0x1
    19d4:	01910cb3          	add	s9,sp,s9
    19d8:	f20cbc83          	ld	s9,-224(s9) # f20 <.LBB21_3+0x460>
    19dc:	080ccc93          	xori	s9,s9,128
    19e0:	019c0623          	sb	s9,12(s8)
    19e4:	00001cb7          	lui	s9,0x1
    19e8:	01910cb3          	add	s9,sp,s9
    19ec:	f30cbc83          	ld	s9,-208(s9) # f30 <.LBB21_3+0x470>
    19f0:	080ccc93          	xori	s9,s9,128
    19f4:	019c06a3          	sb	s9,13(s8)
    19f8:	00001cb7          	lui	s9,0x1
    19fc:	01910cb3          	add	s9,sp,s9
    1a00:	f40cbc83          	ld	s9,-192(s9) # f40 <.LBB21_3+0x480>
    1a04:	080ccc93          	xori	s9,s9,128
    1a08:	019c0723          	sb	s9,14(s8)
    1a0c:	00001cb7          	lui	s9,0x1
    1a10:	01910cb3          	add	s9,sp,s9
    1a14:	f50cbc83          	ld	s9,-176(s9) # f50 <.LBB21_3+0x490>
    1a18:	080ccc93          	xori	s9,s9,128
    1a1c:	019c07a3          	sb	s9,15(s8)
    1a20:	00001cb7          	lui	s9,0x1
    1a24:	01910cb3          	add	s9,sp,s9
    1a28:	f68cbc83          	ld	s9,-152(s9) # f68 <.LBB21_3+0x4a8>
    1a2c:	080ccc93          	xori	s9,s9,128
    1a30:	019c0823          	sb	s9,16(s8)
    1a34:	00001cb7          	lui	s9,0x1
    1a38:	01910cb3          	add	s9,sp,s9
    1a3c:	f78cbc83          	ld	s9,-136(s9) # f78 <.LBB21_3+0x4b8>
    1a40:	080ccc93          	xori	s9,s9,128
    1a44:	019c08a3          	sb	s9,17(s8)
    1a48:	00001cb7          	lui	s9,0x1
    1a4c:	01910cb3          	add	s9,sp,s9
    1a50:	f88cbc83          	ld	s9,-120(s9) # f88 <.LBB21_3+0x4c8>
    1a54:	080ccc93          	xori	s9,s9,128
    1a58:	019c0923          	sb	s9,18(s8)
    1a5c:	00001cb7          	lui	s9,0x1
    1a60:	01910cb3          	add	s9,sp,s9
    1a64:	fa0cbc83          	ld	s9,-96(s9) # fa0 <.LBB21_3+0x4e0>
    1a68:	080ccc93          	xori	s9,s9,128
    1a6c:	019c09a3          	sb	s9,19(s8)
    1a70:	00001cb7          	lui	s9,0x1
    1a74:	01910cb3          	add	s9,sp,s9
    1a78:	fb0cbc83          	ld	s9,-80(s9) # fb0 <.LBB21_3+0x4f0>
    1a7c:	080ccc93          	xori	s9,s9,128
    1a80:	019c0a23          	sb	s9,20(s8)
    1a84:	00001cb7          	lui	s9,0x1
    1a88:	01910cb3          	add	s9,sp,s9
    1a8c:	fc0cbc83          	ld	s9,-64(s9) # fc0 <.LBB21_3+0x500>
    1a90:	080ccc93          	xori	s9,s9,128
    1a94:	019c0aa3          	sb	s9,21(s8)
    1a98:	00001cb7          	lui	s9,0x1
    1a9c:	01910cb3          	add	s9,sp,s9
    1aa0:	fd0cbc83          	ld	s9,-48(s9) # fd0 <.LBB21_3+0x510>
    1aa4:	080ccc93          	xori	s9,s9,128
    1aa8:	019c0b23          	sb	s9,22(s8)
    1aac:	00001cb7          	lui	s9,0x1
    1ab0:	01910cb3          	add	s9,sp,s9
    1ab4:	fe0cbc83          	ld	s9,-32(s9) # fe0 <.LBB21_3+0x520>
    1ab8:	080ccc93          	xori	s9,s9,128
    1abc:	019c0ba3          	sb	s9,23(s8)
    1ac0:	00001cb7          	lui	s9,0x1
    1ac4:	01910cb3          	add	s9,sp,s9
    1ac8:	ff0cbc83          	ld	s9,-16(s9) # ff0 <.LBB21_3+0x530>
    1acc:	080ccc93          	xori	s9,s9,128
    1ad0:	019c0c23          	sb	s9,24(s8)
    1ad4:	00001cb7          	lui	s9,0x1
    1ad8:	01910cb3          	add	s9,sp,s9
    1adc:	000cbc83          	ld	s9,0(s9) # 1000 <.LBB21_3+0x540>
    1ae0:	080ccc93          	xori	s9,s9,128
    1ae4:	019c0ca3          	sb	s9,25(s8)
    1ae8:	00001cb7          	lui	s9,0x1
    1aec:	01910cb3          	add	s9,sp,s9
    1af0:	010cbc83          	ld	s9,16(s9) # 1010 <.LBB21_3+0x550>
    1af4:	080ccc93          	xori	s9,s9,128
    1af8:	019c0d23          	sb	s9,26(s8)
    1afc:	00001cb7          	lui	s9,0x1
    1b00:	01910cb3          	add	s9,sp,s9
    1b04:	020cbc83          	ld	s9,32(s9) # 1020 <.LBB21_3+0x560>
    1b08:	080ccc93          	xori	s9,s9,128
    1b0c:	019c0da3          	sb	s9,27(s8)
    1b10:	00001cb7          	lui	s9,0x1
    1b14:	01910cb3          	add	s9,sp,s9
    1b18:	030cbc83          	ld	s9,48(s9) # 1030 <.LBB21_3+0x570>
    1b1c:	080ccc93          	xori	s9,s9,128
    1b20:	019c0e23          	sb	s9,28(s8)
    1b24:	00001cb7          	lui	s9,0x1
    1b28:	01910cb3          	add	s9,sp,s9
    1b2c:	040cbc83          	ld	s9,64(s9) # 1040 <.LBB21_3+0x580>
    1b30:	080ccc93          	xori	s9,s9,128
    1b34:	019c0ea3          	sb	s9,29(s8)
    1b38:	00001cb7          	lui	s9,0x1
    1b3c:	01910cb3          	add	s9,sp,s9
    1b40:	050cbc83          	ld	s9,80(s9) # 1050 <.LBB21_3+0x590>
    1b44:	080ccc93          	xori	s9,s9,128
    1b48:	019c0f23          	sb	s9,30(s8)
    1b4c:	00001cb7          	lui	s9,0x1
    1b50:	01910cb3          	add	s9,sp,s9
    1b54:	060cbc83          	ld	s9,96(s9) # 1060 <.LBB21_3+0x5a0>
    1b58:	080ccc93          	xori	s9,s9,128
    1b5c:	019c0fa3          	sb	s9,31(s8)
    1b60:	00001c37          	lui	s8,0x1
    1b64:	01810c33          	add	s8,sp,s8
    1b68:	070c3c03          	ld	s8,112(s8) # 1070 <.LBB21_3+0x5b0>
    1b6c:	080c4c93          	xori	s9,s8,128
    1b70:	09013c03          	ld	s8,144(sp)
    1b74:	01ac0c33          	add	s8,s8,s10
    1b78:	019c0223          	sb	s9,4(s8)
    1b7c:	00001cb7          	lui	s9,0x1
    1b80:	01910cb3          	add	s9,sp,s9
    1b84:	080cbc83          	ld	s9,128(s9) # 1080 <.LBB21_3+0x5c0>
    1b88:	080ccc93          	xori	s9,s9,128
    1b8c:	019c01a3          	sb	s9,3(s8)
    1b90:	00001cb7          	lui	s9,0x1
    1b94:	01910cb3          	add	s9,sp,s9
    1b98:	090cbc83          	ld	s9,144(s9) # 1090 <.LBB21_3+0x5d0>
    1b9c:	080ccc93          	xori	s9,s9,128
    1ba0:	019c0123          	sb	s9,2(s8)
    1ba4:	00001cb7          	lui	s9,0x1
    1ba8:	01910cb3          	add	s9,sp,s9
    1bac:	0a0cbc83          	ld	s9,160(s9) # 10a0 <.LBB21_3+0x5e0>
    1bb0:	080ccc93          	xori	s9,s9,128
    1bb4:	019c00a3          	sb	s9,1(s8)
    1bb8:	00001cb7          	lui	s9,0x1
    1bbc:	01910cb3          	add	s9,sp,s9
    1bc0:	0b0cbc83          	ld	s9,176(s9) # 10b0 <.LBB21_3+0x5f0>
    1bc4:	080ccc93          	xori	s9,s9,128
    1bc8:	019c0023          	sb	s9,0(s8)
    1bcc:	00001cb7          	lui	s9,0x1
    1bd0:	01910cb3          	add	s9,sp,s9
    1bd4:	0c0cbc83          	ld	s9,192(s9) # 10c0 <.LBB21_3+0x600>
    1bd8:	080ccc93          	xori	s9,s9,128
    1bdc:	019c02a3          	sb	s9,5(s8)
    1be0:	00001cb7          	lui	s9,0x1
    1be4:	01910cb3          	add	s9,sp,s9
    1be8:	0d0cbc83          	ld	s9,208(s9) # 10d0 <.LBB21_3+0x610>
    1bec:	080ccc93          	xori	s9,s9,128
    1bf0:	019c0323          	sb	s9,6(s8)
    1bf4:	00001cb7          	lui	s9,0x1
    1bf8:	01910cb3          	add	s9,sp,s9
    1bfc:	0d8cbc83          	ld	s9,216(s9) # 10d8 <.LBB21_3+0x618>
    1c00:	080ccc93          	xori	s9,s9,128
    1c04:	019c03a3          	sb	s9,7(s8)
    1c08:	00001cb7          	lui	s9,0x1
    1c0c:	01910cb3          	add	s9,sp,s9
    1c10:	210cbc83          	ld	s9,528(s9) # 1210 <.LBB21_3+0x750>
    1c14:	080ccc93          	xori	s9,s9,128
    1c18:	019c0423          	sb	s9,8(s8)
    1c1c:	080dcc93          	xori	s9,s11,128
    1c20:	019c04a3          	sb	s9,9(s8)
    1c24:	08054513          	xori	a0,a0,128
    1c28:	00ac0523          	sb	a0,10(s8)
    1c2c:	0805c513          	xori	a0,a1,128
    1c30:	00ac05a3          	sb	a0,11(s8)
    1c34:	08064513          	xori	a0,a2,128
    1c38:	00ac0623          	sb	a0,12(s8)
    1c3c:	0806c513          	xori	a0,a3,128
    1c40:	00ac06a3          	sb	a0,13(s8)
    1c44:	08074513          	xori	a0,a4,128
    1c48:	00ac0723          	sb	a0,14(s8)
    1c4c:	0807c513          	xori	a0,a5,128
    1c50:	00ac07a3          	sb	a0,15(s8)
    1c54:	08084513          	xori	a0,a6,128
    1c58:	00ac0823          	sb	a0,16(s8)
    1c5c:	0808c513          	xori	a0,a7,128
    1c60:	00ac08a3          	sb	a0,17(s8)
    1c64:	0802c513          	xori	a0,t0,128
    1c68:	00ac0923          	sb	a0,18(s8)
    1c6c:	08034513          	xori	a0,t1,128
    1c70:	00ac09a3          	sb	a0,19(s8)
    1c74:	0803c513          	xori	a0,t2,128
    1c78:	00ac0a23          	sb	a0,20(s8)
    1c7c:	080e4513          	xori	a0,t3,128
    1c80:	00ac0aa3          	sb	a0,21(s8)
    1c84:	080ec513          	xori	a0,t4,128
    1c88:	00ac0b23          	sb	a0,22(s8)
    1c8c:	080f4513          	xori	a0,t5,128
    1c90:	00ac0ba3          	sb	a0,23(s8)
    1c94:	080fc513          	xori	a0,t6,128
    1c98:	00ac0c23          	sb	a0,24(s8)
    1c9c:	0804c513          	xori	a0,s1,128
    1ca0:	00ac0ca3          	sb	a0,25(s8)
    1ca4:	08094513          	xori	a0,s2,128
    1ca8:	00ac0d23          	sb	a0,26(s8)
    1cac:	0809c513          	xori	a0,s3,128
    1cb0:	00ac0da3          	sb	a0,27(s8)
    1cb4:	080a4513          	xori	a0,s4,128
    1cb8:	00ac0e23          	sb	a0,28(s8)
    1cbc:	080ac513          	xori	a0,s5,128
    1cc0:	00ac0ea3          	sb	a0,29(s8)
    1cc4:	080b4513          	xori	a0,s6,128
    1cc8:	00ac0f23          	sb	a0,30(s8)
    1ccc:	080bc513          	xori	a0,s7,128
    1cd0:	00ac0fa3          	sb	a0,31(s8)
    1cd4:	020d0513          	addi	a0,s10,32
    1cd8:	000015b7          	lui	a1,0x1
    1cdc:	00b105b3          	add	a1,sp,a1
    1ce0:	9b85b803          	ld	a6,-1608(a1) # 9b8 <.LBB21_1+0x8a0>
    1ce4:	02080813          	addi	a6,a6,32
    1ce8:	06000593          	li	a1,96
    1cec:	00bd6463          	bltu	s10,a1,1cf4 <.LBB21_4>
    1cf0:	0110c06f          	j	e500 <.LBB21_1030>

0000000000001cf4 <.LBB21_4>:
    1cf4:	000015b7          	lui	a1,0x1
    1cf8:	00b105b3          	add	a1,sp,a1
    1cfc:	9ca5b823          	sd	a0,-1584(a1) # 9d0 <.LBB21_1+0x8b8>
    1d00:	00001537          	lui	a0,0x1
    1d04:	00a10533          	add	a0,sp,a0
    1d08:	9b053c23          	sd	a6,-1608(a0) # 9b8 <.LBB21_1+0x8a0>
    1d0c:	0d013583          	ld	a1,208(sp)
    1d10:	00001537          	lui	a0,0x1
    1d14:	00a10533          	add	a0,sp,a0
    1d18:	a4053023          	sd	zero,-1472(a0) # a40 <.LBB21_2+0x18>
    1d1c:	00001537          	lui	a0,0x1
    1d20:	00a10533          	add	a0,sp,a0
    1d24:	a2053c23          	sd	zero,-1480(a0) # a38 <.LBB21_2+0x10>
    1d28:	00001537          	lui	a0,0x1
    1d2c:	00a10533          	add	a0,sp,a0
    1d30:	a2053823          	sd	zero,-1488(a0) # a30 <.LBB21_2+0x8>
    1d34:	00001537          	lui	a0,0x1
    1d38:	00a10533          	add	a0,sp,a0
    1d3c:	a2053423          	sd	zero,-1496(a0) # a28 <.LBB21_2>
    1d40:	00001537          	lui	a0,0x1
    1d44:	00a10533          	add	a0,sp,a0
    1d48:	a4053423          	sd	zero,-1464(a0) # a48 <.LBB21_2+0x20>
    1d4c:	00001537          	lui	a0,0x1
    1d50:	00a10533          	add	a0,sp,a0
    1d54:	a2053023          	sd	zero,-1504(a0) # a20 <.LBB21_1+0x908>
    1d58:	00001537          	lui	a0,0x1
    1d5c:	00a10533          	add	a0,sp,a0
    1d60:	a0053c23          	sd	zero,-1512(a0) # a18 <.LBB21_1+0x900>
    1d64:	00001537          	lui	a0,0x1
    1d68:	00a10533          	add	a0,sp,a0
    1d6c:	a0053823          	sd	zero,-1520(a0) # a10 <.LBB21_1+0x8f8>
    1d70:	00001537          	lui	a0,0x1
    1d74:	00a10533          	add	a0,sp,a0
    1d78:	a0053423          	sd	zero,-1528(a0) # a08 <.LBB21_1+0x8f0>
    1d7c:	00001537          	lui	a0,0x1
    1d80:	00a10533          	add	a0,sp,a0
    1d84:	a0053023          	sd	zero,-1536(a0) # a00 <.LBB21_1+0x8e8>
    1d88:	00001537          	lui	a0,0x1
    1d8c:	00a10533          	add	a0,sp,a0
    1d90:	a4053823          	sd	zero,-1456(a0) # a50 <.LBB21_2+0x28>
    1d94:	00001537          	lui	a0,0x1
    1d98:	00a10533          	add	a0,sp,a0
    1d9c:	a4053c23          	sd	zero,-1448(a0) # a58 <.LBB21_2+0x30>
    1da0:	00001537          	lui	a0,0x1
    1da4:	00a10533          	add	a0,sp,a0
    1da8:	a6053023          	sd	zero,-1440(a0) # a60 <.LBB21_2+0x38>
    1dac:	00001537          	lui	a0,0x1
    1db0:	00a10533          	add	a0,sp,a0
    1db4:	a6053423          	sd	zero,-1432(a0) # a68 <.LBB21_2+0x40>
    1db8:	00001537          	lui	a0,0x1
    1dbc:	00a10533          	add	a0,sp,a0
    1dc0:	a6053823          	sd	zero,-1424(a0) # a70 <.LBB21_2+0x48>
    1dc4:	00001537          	lui	a0,0x1
    1dc8:	00a10533          	add	a0,sp,a0
    1dcc:	a8053023          	sd	zero,-1408(a0) # a80 <.LBB21_2+0x58>
    1dd0:	00001537          	lui	a0,0x1
    1dd4:	00a10533          	add	a0,sp,a0
    1dd8:	a8053423          	sd	zero,-1400(a0) # a88 <.LBB21_2+0x60>
    1ddc:	00001537          	lui	a0,0x1
    1de0:	00a10533          	add	a0,sp,a0
    1de4:	a8053823          	sd	zero,-1392(a0) # a90 <.LBB21_2+0x68>
    1de8:	00001537          	lui	a0,0x1
    1dec:	00a10533          	add	a0,sp,a0
    1df0:	a8053c23          	sd	zero,-1384(a0) # a98 <.LBB21_2+0x70>
    1df4:	00001537          	lui	a0,0x1
    1df8:	00a10533          	add	a0,sp,a0
    1dfc:	aa053023          	sd	zero,-1376(a0) # aa0 <.LBB21_2+0x78>
    1e00:	00001537          	lui	a0,0x1
    1e04:	00a10533          	add	a0,sp,a0
    1e08:	aa053423          	sd	zero,-1368(a0) # aa8 <.LBB21_2+0x80>
    1e0c:	00001537          	lui	a0,0x1
    1e10:	00a10533          	add	a0,sp,a0
    1e14:	aa053823          	sd	zero,-1360(a0) # ab0 <.LBB21_2+0x88>
    1e18:	00001537          	lui	a0,0x1
    1e1c:	00a10533          	add	a0,sp,a0
    1e20:	aa053c23          	sd	zero,-1352(a0) # ab8 <.LBB21_2+0x90>
    1e24:	00001537          	lui	a0,0x1
    1e28:	00a10533          	add	a0,sp,a0
    1e2c:	ac053023          	sd	zero,-1344(a0) # ac0 <.LBB21_3>
    1e30:	00001537          	lui	a0,0x1
    1e34:	00a10533          	add	a0,sp,a0
    1e38:	ac053423          	sd	zero,-1336(a0) # ac8 <.LBB21_3+0x8>
    1e3c:	00001537          	lui	a0,0x1
    1e40:	00a10533          	add	a0,sp,a0
    1e44:	ac053823          	sd	zero,-1328(a0) # ad0 <.LBB21_3+0x10>
    1e48:	00001537          	lui	a0,0x1
    1e4c:	00a10533          	add	a0,sp,a0
    1e50:	ac053c23          	sd	zero,-1320(a0) # ad8 <.LBB21_3+0x18>
    1e54:	00001537          	lui	a0,0x1
    1e58:	00a10533          	add	a0,sp,a0
    1e5c:	ae053023          	sd	zero,-1312(a0) # ae0 <.LBB21_3+0x20>
    1e60:	00001537          	lui	a0,0x1
    1e64:	00a10533          	add	a0,sp,a0
    1e68:	ae053423          	sd	zero,-1304(a0) # ae8 <.LBB21_3+0x28>
    1e6c:	00001537          	lui	a0,0x1
    1e70:	00a10533          	add	a0,sp,a0
    1e74:	ae053823          	sd	zero,-1296(a0) # af0 <.LBB21_3+0x30>
    1e78:	00001537          	lui	a0,0x1
    1e7c:	00a10533          	add	a0,sp,a0
    1e80:	ae053c23          	sd	zero,-1288(a0) # af8 <.LBB21_3+0x38>
    1e84:	00001537          	lui	a0,0x1
    1e88:	00a10533          	add	a0,sp,a0
    1e8c:	b0053023          	sd	zero,-1280(a0) # b00 <.LBB21_3+0x40>
    1e90:	00001537          	lui	a0,0x1
    1e94:	00a10533          	add	a0,sp,a0
    1e98:	b2053423          	sd	zero,-1240(a0) # b28 <.LBB21_3+0x68>
    1e9c:	00001537          	lui	a0,0x1
    1ea0:	00a10533          	add	a0,sp,a0
    1ea4:	b2053023          	sd	zero,-1248(a0) # b20 <.LBB21_3+0x60>
    1ea8:	00001537          	lui	a0,0x1
    1eac:	00a10533          	add	a0,sp,a0
    1eb0:	b0053c23          	sd	zero,-1256(a0) # b18 <.LBB21_3+0x58>
    1eb4:	00001537          	lui	a0,0x1
    1eb8:	00a10533          	add	a0,sp,a0
    1ebc:	b0053823          	sd	zero,-1264(a0) # b10 <.LBB21_3+0x50>
    1ec0:	00001537          	lui	a0,0x1
    1ec4:	00a10533          	add	a0,sp,a0
    1ec8:	b0053423          	sd	zero,-1272(a0) # b08 <.LBB21_3+0x48>
    1ecc:	00001537          	lui	a0,0x1
    1ed0:	00a10533          	add	a0,sp,a0
    1ed4:	b2053823          	sd	zero,-1232(a0) # b30 <.LBB21_3+0x70>
    1ed8:	00001537          	lui	a0,0x1
    1edc:	00a10533          	add	a0,sp,a0
    1ee0:	b2053c23          	sd	zero,-1224(a0) # b38 <.LBB21_3+0x78>
    1ee4:	00001537          	lui	a0,0x1
    1ee8:	00a10533          	add	a0,sp,a0
    1eec:	b4053023          	sd	zero,-1216(a0) # b40 <.LBB21_3+0x80>
    1ef0:	00001537          	lui	a0,0x1
    1ef4:	00a10533          	add	a0,sp,a0
    1ef8:	b4053423          	sd	zero,-1208(a0) # b48 <.LBB21_3+0x88>
    1efc:	00001537          	lui	a0,0x1
    1f00:	00a10533          	add	a0,sp,a0
    1f04:	b4053823          	sd	zero,-1200(a0) # b50 <.LBB21_3+0x90>
    1f08:	00001537          	lui	a0,0x1
    1f0c:	00a10533          	add	a0,sp,a0
    1f10:	b4053c23          	sd	zero,-1192(a0) # b58 <.LBB21_3+0x98>
    1f14:	00001537          	lui	a0,0x1
    1f18:	00a10533          	add	a0,sp,a0
    1f1c:	b6053023          	sd	zero,-1184(a0) # b60 <.LBB21_3+0xa0>
    1f20:	00001537          	lui	a0,0x1
    1f24:	00a10533          	add	a0,sp,a0
    1f28:	b6053423          	sd	zero,-1176(a0) # b68 <.LBB21_3+0xa8>
    1f2c:	00001537          	lui	a0,0x1
    1f30:	00a10533          	add	a0,sp,a0
    1f34:	b6053823          	sd	zero,-1168(a0) # b70 <.LBB21_3+0xb0>
    1f38:	00001537          	lui	a0,0x1
    1f3c:	00a10533          	add	a0,sp,a0
    1f40:	b6053c23          	sd	zero,-1160(a0) # b78 <.LBB21_3+0xb8>
    1f44:	00001537          	lui	a0,0x1
    1f48:	00a10533          	add	a0,sp,a0
    1f4c:	b8053023          	sd	zero,-1152(a0) # b80 <.LBB21_3+0xc0>
    1f50:	00001537          	lui	a0,0x1
    1f54:	00a10533          	add	a0,sp,a0
    1f58:	b8053423          	sd	zero,-1144(a0) # b88 <.LBB21_3+0xc8>
    1f5c:	00001537          	lui	a0,0x1
    1f60:	00a10533          	add	a0,sp,a0
    1f64:	b8053823          	sd	zero,-1136(a0) # b90 <.LBB21_3+0xd0>
    1f68:	00001537          	lui	a0,0x1
    1f6c:	00a10533          	add	a0,sp,a0
    1f70:	b8053c23          	sd	zero,-1128(a0) # b98 <.LBB21_3+0xd8>
    1f74:	00001537          	lui	a0,0x1
    1f78:	00a10533          	add	a0,sp,a0
    1f7c:	ba053023          	sd	zero,-1120(a0) # ba0 <.LBB21_3+0xe0>
    1f80:	00001537          	lui	a0,0x1
    1f84:	00a10533          	add	a0,sp,a0
    1f88:	ba053423          	sd	zero,-1112(a0) # ba8 <.LBB21_3+0xe8>
    1f8c:	00001537          	lui	a0,0x1
    1f90:	00a10533          	add	a0,sp,a0
    1f94:	ba053823          	sd	zero,-1104(a0) # bb0 <.LBB21_3+0xf0>
    1f98:	00001537          	lui	a0,0x1
    1f9c:	00a10533          	add	a0,sp,a0
    1fa0:	ba053c23          	sd	zero,-1096(a0) # bb8 <.LBB21_3+0xf8>
    1fa4:	00001537          	lui	a0,0x1
    1fa8:	00a10533          	add	a0,sp,a0
    1fac:	bc053023          	sd	zero,-1088(a0) # bc0 <.LBB21_3+0x100>
    1fb0:	00001537          	lui	a0,0x1
    1fb4:	00a10533          	add	a0,sp,a0
    1fb8:	bc053423          	sd	zero,-1080(a0) # bc8 <.LBB21_3+0x108>
    1fbc:	00001537          	lui	a0,0x1
    1fc0:	00a10533          	add	a0,sp,a0
    1fc4:	bc053823          	sd	zero,-1072(a0) # bd0 <.LBB21_3+0x110>
    1fc8:	00001537          	lui	a0,0x1
    1fcc:	00a10533          	add	a0,sp,a0
    1fd0:	bc053c23          	sd	zero,-1064(a0) # bd8 <.LBB21_3+0x118>
    1fd4:	00001537          	lui	a0,0x1
    1fd8:	00a10533          	add	a0,sp,a0
    1fdc:	be053023          	sd	zero,-1056(a0) # be0 <.LBB21_3+0x120>
    1fe0:	00001537          	lui	a0,0x1
    1fe4:	00a10533          	add	a0,sp,a0
    1fe8:	be053423          	sd	zero,-1048(a0) # be8 <.LBB21_3+0x128>
    1fec:	00001537          	lui	a0,0x1
    1ff0:	00a10533          	add	a0,sp,a0
    1ff4:	be053823          	sd	zero,-1040(a0) # bf0 <.LBB21_3+0x130>
    1ff8:	00001537          	lui	a0,0x1
    1ffc:	00a10533          	add	a0,sp,a0
    2000:	be053c23          	sd	zero,-1032(a0) # bf8 <.LBB21_3+0x138>
    2004:	00001537          	lui	a0,0x1
    2008:	00a10533          	add	a0,sp,a0
    200c:	c0053023          	sd	zero,-1024(a0) # c00 <.LBB21_3+0x140>
    2010:	00001537          	lui	a0,0x1
    2014:	00a10533          	add	a0,sp,a0
    2018:	c2053423          	sd	zero,-984(a0) # c28 <.LBB21_3+0x168>
    201c:	00001537          	lui	a0,0x1
    2020:	00a10533          	add	a0,sp,a0
    2024:	c2053023          	sd	zero,-992(a0) # c20 <.LBB21_3+0x160>
    2028:	00001537          	lui	a0,0x1
    202c:	00a10533          	add	a0,sp,a0
    2030:	c0053c23          	sd	zero,-1000(a0) # c18 <.LBB21_3+0x158>
    2034:	00001537          	lui	a0,0x1
    2038:	00a10533          	add	a0,sp,a0
    203c:	c0053823          	sd	zero,-1008(a0) # c10 <.LBB21_3+0x150>
    2040:	00001537          	lui	a0,0x1
    2044:	00a10533          	add	a0,sp,a0
    2048:	c0053423          	sd	zero,-1016(a0) # c08 <.LBB21_3+0x148>
    204c:	00001537          	lui	a0,0x1
    2050:	00a10533          	add	a0,sp,a0
    2054:	c2053823          	sd	zero,-976(a0) # c30 <.LBB21_3+0x170>
    2058:	00001537          	lui	a0,0x1
    205c:	00a10533          	add	a0,sp,a0
    2060:	c2053c23          	sd	zero,-968(a0) # c38 <.LBB21_3+0x178>
    2064:	00001537          	lui	a0,0x1
    2068:	00a10533          	add	a0,sp,a0
    206c:	c4053023          	sd	zero,-960(a0) # c40 <.LBB21_3+0x180>
    2070:	00001537          	lui	a0,0x1
    2074:	00a10533          	add	a0,sp,a0
    2078:	c4053423          	sd	zero,-952(a0) # c48 <.LBB21_3+0x188>
    207c:	00001537          	lui	a0,0x1
    2080:	00a10533          	add	a0,sp,a0
    2084:	c4053823          	sd	zero,-944(a0) # c50 <.LBB21_3+0x190>
    2088:	00001537          	lui	a0,0x1
    208c:	00a10533          	add	a0,sp,a0
    2090:	c4053c23          	sd	zero,-936(a0) # c58 <.LBB21_3+0x198>
    2094:	00001537          	lui	a0,0x1
    2098:	00a10533          	add	a0,sp,a0
    209c:	c6053023          	sd	zero,-928(a0) # c60 <.LBB21_3+0x1a0>
    20a0:	00001537          	lui	a0,0x1
    20a4:	00a10533          	add	a0,sp,a0
    20a8:	c6053423          	sd	zero,-920(a0) # c68 <.LBB21_3+0x1a8>
    20ac:	00001537          	lui	a0,0x1
    20b0:	00a10533          	add	a0,sp,a0
    20b4:	c6053823          	sd	zero,-912(a0) # c70 <.LBB21_3+0x1b0>
    20b8:	00001537          	lui	a0,0x1
    20bc:	00a10533          	add	a0,sp,a0
    20c0:	c6053c23          	sd	zero,-904(a0) # c78 <.LBB21_3+0x1b8>
    20c4:	00001537          	lui	a0,0x1
    20c8:	00a10533          	add	a0,sp,a0
    20cc:	c8053023          	sd	zero,-896(a0) # c80 <.LBB21_3+0x1c0>
    20d0:	00001537          	lui	a0,0x1
    20d4:	00a10533          	add	a0,sp,a0
    20d8:	c8053423          	sd	zero,-888(a0) # c88 <.LBB21_3+0x1c8>
    20dc:	00001537          	lui	a0,0x1
    20e0:	00a10533          	add	a0,sp,a0
    20e4:	c8053823          	sd	zero,-880(a0) # c90 <.LBB21_3+0x1d0>
    20e8:	00001537          	lui	a0,0x1
    20ec:	00a10533          	add	a0,sp,a0
    20f0:	c8053c23          	sd	zero,-872(a0) # c98 <.LBB21_3+0x1d8>
    20f4:	00001537          	lui	a0,0x1
    20f8:	00a10533          	add	a0,sp,a0
    20fc:	ca053023          	sd	zero,-864(a0) # ca0 <.LBB21_3+0x1e0>
    2100:	00001537          	lui	a0,0x1
    2104:	00a10533          	add	a0,sp,a0
    2108:	ca053423          	sd	zero,-856(a0) # ca8 <.LBB21_3+0x1e8>
    210c:	00001537          	lui	a0,0x1
    2110:	00a10533          	add	a0,sp,a0
    2114:	ca053823          	sd	zero,-848(a0) # cb0 <.LBB21_3+0x1f0>
    2118:	00001537          	lui	a0,0x1
    211c:	00a10533          	add	a0,sp,a0
    2120:	ca053c23          	sd	zero,-840(a0) # cb8 <.LBB21_3+0x1f8>
    2124:	00001537          	lui	a0,0x1
    2128:	00a10533          	add	a0,sp,a0
    212c:	cc053023          	sd	zero,-832(a0) # cc0 <.LBB21_3+0x200>
    2130:	00001537          	lui	a0,0x1
    2134:	00a10533          	add	a0,sp,a0
    2138:	cc053423          	sd	zero,-824(a0) # cc8 <.LBB21_3+0x208>
    213c:	00001537          	lui	a0,0x1
    2140:	00a10533          	add	a0,sp,a0
    2144:	cc053823          	sd	zero,-816(a0) # cd0 <.LBB21_3+0x210>
    2148:	00001537          	lui	a0,0x1
    214c:	00a10533          	add	a0,sp,a0
    2150:	cc053c23          	sd	zero,-808(a0) # cd8 <.LBB21_3+0x218>
    2154:	00001537          	lui	a0,0x1
    2158:	00a10533          	add	a0,sp,a0
    215c:	ce053023          	sd	zero,-800(a0) # ce0 <.LBB21_3+0x220>
    2160:	00001537          	lui	a0,0x1
    2164:	00a10533          	add	a0,sp,a0
    2168:	ce053423          	sd	zero,-792(a0) # ce8 <.LBB21_3+0x228>
    216c:	00001537          	lui	a0,0x1
    2170:	00a10533          	add	a0,sp,a0
    2174:	ce053823          	sd	zero,-784(a0) # cf0 <.LBB21_3+0x230>
    2178:	00001537          	lui	a0,0x1
    217c:	00a10533          	add	a0,sp,a0
    2180:	ce053c23          	sd	zero,-776(a0) # cf8 <.LBB21_3+0x238>
    2184:	00001537          	lui	a0,0x1
    2188:	00a10533          	add	a0,sp,a0
    218c:	d0053023          	sd	zero,-768(a0) # d00 <.LBB21_3+0x240>
    2190:	00001537          	lui	a0,0x1
    2194:	00a10533          	add	a0,sp,a0
    2198:	d2053023          	sd	zero,-736(a0) # d20 <.LBB21_3+0x260>
    219c:	00001537          	lui	a0,0x1
    21a0:	00a10533          	add	a0,sp,a0
    21a4:	d0053c23          	sd	zero,-744(a0) # d18 <.LBB21_3+0x258>
    21a8:	00001537          	lui	a0,0x1
    21ac:	00a10533          	add	a0,sp,a0
    21b0:	d0053823          	sd	zero,-752(a0) # d10 <.LBB21_3+0x250>
    21b4:	00001537          	lui	a0,0x1
    21b8:	00a10533          	add	a0,sp,a0
    21bc:	d0053423          	sd	zero,-760(a0) # d08 <.LBB21_3+0x248>
    21c0:	00001537          	lui	a0,0x1
    21c4:	00a10533          	add	a0,sp,a0
    21c8:	a6053c23          	sd	zero,-1416(a0) # a78 <.LBB21_2+0x50>
    21cc:	00001537          	lui	a0,0x1
    21d0:	00a10533          	add	a0,sp,a0
    21d4:	d2053423          	sd	zero,-728(a0) # d28 <.LBB21_3+0x268>
    21d8:	00001537          	lui	a0,0x1
    21dc:	00a10533          	add	a0,sp,a0
    21e0:	d2053823          	sd	zero,-720(a0) # d30 <.LBB21_3+0x270>
    21e4:	00001537          	lui	a0,0x1
    21e8:	00a10533          	add	a0,sp,a0
    21ec:	d2053c23          	sd	zero,-712(a0) # d38 <.LBB21_3+0x278>
    21f0:	00001537          	lui	a0,0x1
    21f4:	00a10533          	add	a0,sp,a0
    21f8:	d4053023          	sd	zero,-704(a0) # d40 <.LBB21_3+0x280>
    21fc:	00001537          	lui	a0,0x1
    2200:	00a10533          	add	a0,sp,a0
    2204:	d4053423          	sd	zero,-696(a0) # d48 <.LBB21_3+0x288>
    2208:	00001537          	lui	a0,0x1
    220c:	00a10533          	add	a0,sp,a0
    2210:	d4053823          	sd	zero,-688(a0) # d50 <.LBB21_3+0x290>
    2214:	00001537          	lui	a0,0x1
    2218:	00a10533          	add	a0,sp,a0
    221c:	d4053c23          	sd	zero,-680(a0) # d58 <.LBB21_3+0x298>
    2220:	00001537          	lui	a0,0x1
    2224:	00a10533          	add	a0,sp,a0
    2228:	d6053023          	sd	zero,-672(a0) # d60 <.LBB21_3+0x2a0>
    222c:	00001537          	lui	a0,0x1
    2230:	00a10533          	add	a0,sp,a0
    2234:	d6053423          	sd	zero,-664(a0) # d68 <.LBB21_3+0x2a8>
    2238:	00001537          	lui	a0,0x1
    223c:	00a10533          	add	a0,sp,a0
    2240:	d6053823          	sd	zero,-656(a0) # d70 <.LBB21_3+0x2b0>
    2244:	00001537          	lui	a0,0x1
    2248:	00a10533          	add	a0,sp,a0
    224c:	d6053c23          	sd	zero,-648(a0) # d78 <.LBB21_3+0x2b8>
    2250:	00001537          	lui	a0,0x1
    2254:	00a10533          	add	a0,sp,a0
    2258:	d8053023          	sd	zero,-640(a0) # d80 <.LBB21_3+0x2c0>
    225c:	00001537          	lui	a0,0x1
    2260:	00a10533          	add	a0,sp,a0
    2264:	d8053423          	sd	zero,-632(a0) # d88 <.LBB21_3+0x2c8>
    2268:	00001537          	lui	a0,0x1
    226c:	00a10533          	add	a0,sp,a0
    2270:	d8053823          	sd	zero,-624(a0) # d90 <.LBB21_3+0x2d0>
    2274:	00001537          	lui	a0,0x1
    2278:	00a10533          	add	a0,sp,a0
    227c:	d8053c23          	sd	zero,-616(a0) # d98 <.LBB21_3+0x2d8>
    2280:	00001537          	lui	a0,0x1
    2284:	00a10533          	add	a0,sp,a0
    2288:	da053023          	sd	zero,-608(a0) # da0 <.LBB21_3+0x2e0>
    228c:	00001537          	lui	a0,0x1
    2290:	00a10533          	add	a0,sp,a0
    2294:	da053423          	sd	zero,-600(a0) # da8 <.LBB21_3+0x2e8>
    2298:	00001537          	lui	a0,0x1
    229c:	00a10533          	add	a0,sp,a0
    22a0:	da053823          	sd	zero,-592(a0) # db0 <.LBB21_3+0x2f0>
    22a4:	00001537          	lui	a0,0x1
    22a8:	00a10533          	add	a0,sp,a0
    22ac:	da053c23          	sd	zero,-584(a0) # db8 <.LBB21_3+0x2f8>
    22b0:	00001537          	lui	a0,0x1
    22b4:	00a10533          	add	a0,sp,a0
    22b8:	dc053023          	sd	zero,-576(a0) # dc0 <.LBB21_3+0x300>
    22bc:	00001537          	lui	a0,0x1
    22c0:	00a10533          	add	a0,sp,a0
    22c4:	dc053423          	sd	zero,-568(a0) # dc8 <.LBB21_3+0x308>
    22c8:	00001537          	lui	a0,0x1
    22cc:	00a10533          	add	a0,sp,a0
    22d0:	dc053823          	sd	zero,-560(a0) # dd0 <.LBB21_3+0x310>
    22d4:	00001537          	lui	a0,0x1
    22d8:	00a10533          	add	a0,sp,a0
    22dc:	dc053c23          	sd	zero,-552(a0) # dd8 <.LBB21_3+0x318>
    22e0:	00001537          	lui	a0,0x1
    22e4:	00a10533          	add	a0,sp,a0
    22e8:	de053023          	sd	zero,-544(a0) # de0 <.LBB21_3+0x320>
    22ec:	00001537          	lui	a0,0x1
    22f0:	00a10533          	add	a0,sp,a0
    22f4:	de053423          	sd	zero,-536(a0) # de8 <.LBB21_3+0x328>
    22f8:	00001537          	lui	a0,0x1
    22fc:	00a10533          	add	a0,sp,a0
    2300:	de053823          	sd	zero,-528(a0) # df0 <.LBB21_3+0x330>
    2304:	00001537          	lui	a0,0x1
    2308:	00a10533          	add	a0,sp,a0
    230c:	de053c23          	sd	zero,-520(a0) # df8 <.LBB21_3+0x338>
    2310:	00001537          	lui	a0,0x1
    2314:	00a10533          	add	a0,sp,a0
    2318:	e2053023          	sd	zero,-480(a0) # e20 <.LBB21_3+0x360>
    231c:	00001537          	lui	a0,0x1
    2320:	00a10533          	add	a0,sp,a0
    2324:	e0053c23          	sd	zero,-488(a0) # e18 <.LBB21_3+0x358>
    2328:	00001537          	lui	a0,0x1
    232c:	00a10533          	add	a0,sp,a0
    2330:	e0053823          	sd	zero,-496(a0) # e10 <.LBB21_3+0x350>
    2334:	00001537          	lui	a0,0x1
    2338:	00a10533          	add	a0,sp,a0
    233c:	e0053423          	sd	zero,-504(a0) # e08 <.LBB21_3+0x348>
    2340:	00001537          	lui	a0,0x1
    2344:	00a10533          	add	a0,sp,a0
    2348:	e0053023          	sd	zero,-512(a0) # e00 <.LBB21_3+0x340>
    234c:	00001537          	lui	a0,0x1
    2350:	00a10533          	add	a0,sp,a0
    2354:	e2053423          	sd	zero,-472(a0) # e28 <.LBB21_3+0x368>
    2358:	00001537          	lui	a0,0x1
    235c:	00a10533          	add	a0,sp,a0
    2360:	e2053823          	sd	zero,-464(a0) # e30 <.LBB21_3+0x370>
    2364:	00001537          	lui	a0,0x1
    2368:	00a10533          	add	a0,sp,a0
    236c:	e2053c23          	sd	zero,-456(a0) # e38 <.LBB21_3+0x378>
    2370:	00001537          	lui	a0,0x1
    2374:	00a10533          	add	a0,sp,a0
    2378:	e4053023          	sd	zero,-448(a0) # e40 <.LBB21_3+0x380>
    237c:	00001537          	lui	a0,0x1
    2380:	00a10533          	add	a0,sp,a0
    2384:	e4053423          	sd	zero,-440(a0) # e48 <.LBB21_3+0x388>
    2388:	00001537          	lui	a0,0x1
    238c:	00a10533          	add	a0,sp,a0
    2390:	e4053823          	sd	zero,-432(a0) # e50 <.LBB21_3+0x390>
    2394:	00001537          	lui	a0,0x1
    2398:	00a10533          	add	a0,sp,a0
    239c:	e4053c23          	sd	zero,-424(a0) # e58 <.LBB21_3+0x398>
    23a0:	00001537          	lui	a0,0x1
    23a4:	00a10533          	add	a0,sp,a0
    23a8:	e6053023          	sd	zero,-416(a0) # e60 <.LBB21_3+0x3a0>
    23ac:	00001537          	lui	a0,0x1
    23b0:	00a10533          	add	a0,sp,a0
    23b4:	e6053423          	sd	zero,-408(a0) # e68 <.LBB21_3+0x3a8>
    23b8:	00001537          	lui	a0,0x1
    23bc:	00a10533          	add	a0,sp,a0
    23c0:	e6053823          	sd	zero,-400(a0) # e70 <.LBB21_3+0x3b0>
    23c4:	00001537          	lui	a0,0x1
    23c8:	00a10533          	add	a0,sp,a0
    23cc:	e6053c23          	sd	zero,-392(a0) # e78 <.LBB21_3+0x3b8>
    23d0:	00001537          	lui	a0,0x1
    23d4:	00a10533          	add	a0,sp,a0
    23d8:	e8053023          	sd	zero,-384(a0) # e80 <.LBB21_3+0x3c0>
    23dc:	00001537          	lui	a0,0x1
    23e0:	00a10533          	add	a0,sp,a0
    23e4:	e8053423          	sd	zero,-376(a0) # e88 <.LBB21_3+0x3c8>
    23e8:	00001537          	lui	a0,0x1
    23ec:	00a10533          	add	a0,sp,a0
    23f0:	e8053823          	sd	zero,-368(a0) # e90 <.LBB21_3+0x3d0>
    23f4:	00001537          	lui	a0,0x1
    23f8:	00a10533          	add	a0,sp,a0
    23fc:	e8053c23          	sd	zero,-360(a0) # e98 <.LBB21_3+0x3d8>
    2400:	00001537          	lui	a0,0x1
    2404:	00a10533          	add	a0,sp,a0
    2408:	ea053023          	sd	zero,-352(a0) # ea0 <.LBB21_3+0x3e0>
    240c:	00001537          	lui	a0,0x1
    2410:	00a10533          	add	a0,sp,a0
    2414:	ea053423          	sd	zero,-344(a0) # ea8 <.LBB21_3+0x3e8>
    2418:	00001537          	lui	a0,0x1
    241c:	00a10533          	add	a0,sp,a0
    2420:	ea053823          	sd	zero,-336(a0) # eb0 <.LBB21_3+0x3f0>
    2424:	00001537          	lui	a0,0x1
    2428:	00a10533          	add	a0,sp,a0
    242c:	ea053c23          	sd	zero,-328(a0) # eb8 <.LBB21_3+0x3f8>
    2430:	00001537          	lui	a0,0x1
    2434:	00a10533          	add	a0,sp,a0
    2438:	ec053023          	sd	zero,-320(a0) # ec0 <.LBB21_3+0x400>
    243c:	00001537          	lui	a0,0x1
    2440:	00a10533          	add	a0,sp,a0
    2444:	ec053423          	sd	zero,-312(a0) # ec8 <.LBB21_3+0x408>
    2448:	00001537          	lui	a0,0x1
    244c:	00a10533          	add	a0,sp,a0
    2450:	ec053823          	sd	zero,-304(a0) # ed0 <.LBB21_3+0x410>
    2454:	00001537          	lui	a0,0x1
    2458:	00a10533          	add	a0,sp,a0
    245c:	ec053c23          	sd	zero,-296(a0) # ed8 <.LBB21_3+0x418>
    2460:	00001537          	lui	a0,0x1
    2464:	00a10533          	add	a0,sp,a0
    2468:	ee053023          	sd	zero,-288(a0) # ee0 <.LBB21_3+0x420>
    246c:	00001537          	lui	a0,0x1
    2470:	00a10533          	add	a0,sp,a0
    2474:	ee053423          	sd	zero,-280(a0) # ee8 <.LBB21_3+0x428>
    2478:	00001537          	lui	a0,0x1
    247c:	00a10533          	add	a0,sp,a0
    2480:	ee053823          	sd	zero,-272(a0) # ef0 <.LBB21_3+0x430>
    2484:	00001537          	lui	a0,0x1
    2488:	00a10533          	add	a0,sp,a0
    248c:	ee053c23          	sd	zero,-264(a0) # ef8 <.LBB21_3+0x438>
    2490:	00001537          	lui	a0,0x1
    2494:	00a10533          	add	a0,sp,a0
    2498:	f2053023          	sd	zero,-224(a0) # f20 <.LBB21_3+0x460>
    249c:	00001537          	lui	a0,0x1
    24a0:	00a10533          	add	a0,sp,a0
    24a4:	f0053c23          	sd	zero,-232(a0) # f18 <.LBB21_3+0x458>
    24a8:	00001537          	lui	a0,0x1
    24ac:	00a10533          	add	a0,sp,a0
    24b0:	f0053823          	sd	zero,-240(a0) # f10 <.LBB21_3+0x450>
    24b4:	00001537          	lui	a0,0x1
    24b8:	00a10533          	add	a0,sp,a0
    24bc:	f0053423          	sd	zero,-248(a0) # f08 <.LBB21_3+0x448>
    24c0:	00001537          	lui	a0,0x1
    24c4:	00a10533          	add	a0,sp,a0
    24c8:	f0053023          	sd	zero,-256(a0) # f00 <.LBB21_3+0x440>
    24cc:	00001537          	lui	a0,0x1
    24d0:	00a10533          	add	a0,sp,a0
    24d4:	f2053423          	sd	zero,-216(a0) # f28 <.LBB21_3+0x468>
    24d8:	00001537          	lui	a0,0x1
    24dc:	00a10533          	add	a0,sp,a0
    24e0:	f2053823          	sd	zero,-208(a0) # f30 <.LBB21_3+0x470>
    24e4:	00001537          	lui	a0,0x1
    24e8:	00a10533          	add	a0,sp,a0
    24ec:	f2053c23          	sd	zero,-200(a0) # f38 <.LBB21_3+0x478>
    24f0:	00001537          	lui	a0,0x1
    24f4:	00a10533          	add	a0,sp,a0
    24f8:	f4053023          	sd	zero,-192(a0) # f40 <.LBB21_3+0x480>
    24fc:	00001537          	lui	a0,0x1
    2500:	00a10533          	add	a0,sp,a0
    2504:	f4053423          	sd	zero,-184(a0) # f48 <.LBB21_3+0x488>
    2508:	00001537          	lui	a0,0x1
    250c:	00a10533          	add	a0,sp,a0
    2510:	f4053823          	sd	zero,-176(a0) # f50 <.LBB21_3+0x490>
    2514:	00001537          	lui	a0,0x1
    2518:	00a10533          	add	a0,sp,a0
    251c:	f4053c23          	sd	zero,-168(a0) # f58 <.LBB21_3+0x498>
    2520:	00001537          	lui	a0,0x1
    2524:	00a10533          	add	a0,sp,a0
    2528:	f6053023          	sd	zero,-160(a0) # f60 <.LBB21_3+0x4a0>
    252c:	00001537          	lui	a0,0x1
    2530:	00a10533          	add	a0,sp,a0
    2534:	f6053423          	sd	zero,-152(a0) # f68 <.LBB21_3+0x4a8>
    2538:	00001537          	lui	a0,0x1
    253c:	00a10533          	add	a0,sp,a0
    2540:	f6053823          	sd	zero,-144(a0) # f70 <.LBB21_3+0x4b0>
    2544:	00001537          	lui	a0,0x1
    2548:	00a10533          	add	a0,sp,a0
    254c:	f6053c23          	sd	zero,-136(a0) # f78 <.LBB21_3+0x4b8>
    2550:	00001537          	lui	a0,0x1
    2554:	00a10533          	add	a0,sp,a0
    2558:	f8053023          	sd	zero,-128(a0) # f80 <.LBB21_3+0x4c0>
    255c:	00001537          	lui	a0,0x1
    2560:	00a10533          	add	a0,sp,a0
    2564:	f8053423          	sd	zero,-120(a0) # f88 <.LBB21_3+0x4c8>
    2568:	00001537          	lui	a0,0x1
    256c:	00a10533          	add	a0,sp,a0
    2570:	f8053823          	sd	zero,-112(a0) # f90 <.LBB21_3+0x4d0>
    2574:	00001537          	lui	a0,0x1
    2578:	00a10533          	add	a0,sp,a0
    257c:	f8053c23          	sd	zero,-104(a0) # f98 <.LBB21_3+0x4d8>
    2580:	00001537          	lui	a0,0x1
    2584:	00a10533          	add	a0,sp,a0
    2588:	fa053023          	sd	zero,-96(a0) # fa0 <.LBB21_3+0x4e0>
    258c:	00001537          	lui	a0,0x1
    2590:	00a10533          	add	a0,sp,a0
    2594:	fa053423          	sd	zero,-88(a0) # fa8 <.LBB21_3+0x4e8>
    2598:	00001537          	lui	a0,0x1
    259c:	00a10533          	add	a0,sp,a0
    25a0:	fa053823          	sd	zero,-80(a0) # fb0 <.LBB21_3+0x4f0>
    25a4:	00001537          	lui	a0,0x1
    25a8:	00a10533          	add	a0,sp,a0
    25ac:	fa053c23          	sd	zero,-72(a0) # fb8 <.LBB21_3+0x4f8>
    25b0:	00001537          	lui	a0,0x1
    25b4:	00a10533          	add	a0,sp,a0
    25b8:	fc053023          	sd	zero,-64(a0) # fc0 <.LBB21_3+0x500>
    25bc:	00001537          	lui	a0,0x1
    25c0:	00a10533          	add	a0,sp,a0
    25c4:	fc053423          	sd	zero,-56(a0) # fc8 <.LBB21_3+0x508>
    25c8:	00001537          	lui	a0,0x1
    25cc:	00a10533          	add	a0,sp,a0
    25d0:	fc053823          	sd	zero,-48(a0) # fd0 <.LBB21_3+0x510>
    25d4:	00001537          	lui	a0,0x1
    25d8:	00a10533          	add	a0,sp,a0
    25dc:	fc053c23          	sd	zero,-40(a0) # fd8 <.LBB21_3+0x518>
    25e0:	00001537          	lui	a0,0x1
    25e4:	00a10533          	add	a0,sp,a0
    25e8:	fe053023          	sd	zero,-32(a0) # fe0 <.LBB21_3+0x520>
    25ec:	00001537          	lui	a0,0x1
    25f0:	00a10533          	add	a0,sp,a0
    25f4:	fe053423          	sd	zero,-24(a0) # fe8 <.LBB21_3+0x528>
    25f8:	00001537          	lui	a0,0x1
    25fc:	00a10533          	add	a0,sp,a0
    2600:	fe053823          	sd	zero,-16(a0) # ff0 <.LBB21_3+0x530>
    2604:	00001537          	lui	a0,0x1
    2608:	00a10533          	add	a0,sp,a0
    260c:	fe053c23          	sd	zero,-8(a0) # ff8 <.LBB21_3+0x538>
    2610:	00001537          	lui	a0,0x1
    2614:	00a10533          	add	a0,sp,a0
    2618:	02053023          	sd	zero,32(a0) # 1020 <.LBB21_3+0x560>
    261c:	00001537          	lui	a0,0x1
    2620:	00a10533          	add	a0,sp,a0
    2624:	00053c23          	sd	zero,24(a0) # 1018 <.LBB21_3+0x558>
    2628:	00001537          	lui	a0,0x1
    262c:	00a10533          	add	a0,sp,a0
    2630:	00053823          	sd	zero,16(a0) # 1010 <.LBB21_3+0x550>
    2634:	00001537          	lui	a0,0x1
    2638:	00a10533          	add	a0,sp,a0
    263c:	00053423          	sd	zero,8(a0) # 1008 <.LBB21_3+0x548>
    2640:	00001537          	lui	a0,0x1
    2644:	00a10533          	add	a0,sp,a0
    2648:	00053023          	sd	zero,0(a0) # 1000 <.LBB21_3+0x540>
    264c:	00001537          	lui	a0,0x1
    2650:	00a10533          	add	a0,sp,a0
    2654:	02053423          	sd	zero,40(a0) # 1028 <.LBB21_3+0x568>
    2658:	00001537          	lui	a0,0x1
    265c:	00a10533          	add	a0,sp,a0
    2660:	02053823          	sd	zero,48(a0) # 1030 <.LBB21_3+0x570>
    2664:	00001537          	lui	a0,0x1
    2668:	00a10533          	add	a0,sp,a0
    266c:	02053c23          	sd	zero,56(a0) # 1038 <.LBB21_3+0x578>
    2670:	00001537          	lui	a0,0x1
    2674:	00a10533          	add	a0,sp,a0
    2678:	04053023          	sd	zero,64(a0) # 1040 <.LBB21_3+0x580>
    267c:	00001537          	lui	a0,0x1
    2680:	00a10533          	add	a0,sp,a0
    2684:	04053423          	sd	zero,72(a0) # 1048 <.LBB21_3+0x588>
    2688:	00001537          	lui	a0,0x1
    268c:	00a10533          	add	a0,sp,a0
    2690:	04053823          	sd	zero,80(a0) # 1050 <.LBB21_3+0x590>
    2694:	00001537          	lui	a0,0x1
    2698:	00a10533          	add	a0,sp,a0
    269c:	04053c23          	sd	zero,88(a0) # 1058 <.LBB21_3+0x598>
    26a0:	00001537          	lui	a0,0x1
    26a4:	00a10533          	add	a0,sp,a0
    26a8:	06053023          	sd	zero,96(a0) # 1060 <.LBB21_3+0x5a0>
    26ac:	00001537          	lui	a0,0x1
    26b0:	00a10533          	add	a0,sp,a0
    26b4:	06053423          	sd	zero,104(a0) # 1068 <.LBB21_3+0x5a8>
    26b8:	00001537          	lui	a0,0x1
    26bc:	00a10533          	add	a0,sp,a0
    26c0:	06053823          	sd	zero,112(a0) # 1070 <.LBB21_3+0x5b0>
    26c4:	00001537          	lui	a0,0x1
    26c8:	00a10533          	add	a0,sp,a0
    26cc:	06053c23          	sd	zero,120(a0) # 1078 <.LBB21_3+0x5b8>
    26d0:	00001537          	lui	a0,0x1
    26d4:	00a10533          	add	a0,sp,a0
    26d8:	08053023          	sd	zero,128(a0) # 1080 <.LBB21_3+0x5c0>
    26dc:	00001537          	lui	a0,0x1
    26e0:	00a10533          	add	a0,sp,a0
    26e4:	08053423          	sd	zero,136(a0) # 1088 <.LBB21_3+0x5c8>
    26e8:	00001537          	lui	a0,0x1
    26ec:	00a10533          	add	a0,sp,a0
    26f0:	08053823          	sd	zero,144(a0) # 1090 <.LBB21_3+0x5d0>
    26f4:	00001537          	lui	a0,0x1
    26f8:	00a10533          	add	a0,sp,a0
    26fc:	08053c23          	sd	zero,152(a0) # 1098 <.LBB21_3+0x5d8>
    2700:	00001537          	lui	a0,0x1
    2704:	00a10533          	add	a0,sp,a0
    2708:	0a053023          	sd	zero,160(a0) # 10a0 <.LBB21_3+0x5e0>
    270c:	00001537          	lui	a0,0x1
    2710:	00a10533          	add	a0,sp,a0
    2714:	0a053423          	sd	zero,168(a0) # 10a8 <.LBB21_3+0x5e8>
    2718:	00001537          	lui	a0,0x1
    271c:	00a10533          	add	a0,sp,a0
    2720:	0a053823          	sd	zero,176(a0) # 10b0 <.LBB21_3+0x5f0>
    2724:	00001537          	lui	a0,0x1
    2728:	00a10533          	add	a0,sp,a0
    272c:	0a053c23          	sd	zero,184(a0) # 10b8 <.LBB21_3+0x5f8>
    2730:	00001537          	lui	a0,0x1
    2734:	00a10533          	add	a0,sp,a0
    2738:	0c053023          	sd	zero,192(a0) # 10c0 <.LBB21_3+0x600>
    273c:	00001537          	lui	a0,0x1
    2740:	00a10533          	add	a0,sp,a0
    2744:	0c053423          	sd	zero,200(a0) # 10c8 <.LBB21_3+0x608>
    2748:	00001537          	lui	a0,0x1
    274c:	00a10533          	add	a0,sp,a0
    2750:	0c053823          	sd	zero,208(a0) # 10d0 <.LBB21_3+0x610>
    2754:	00001537          	lui	a0,0x1
    2758:	00a10533          	add	a0,sp,a0
    275c:	0c053c23          	sd	zero,216(a0) # 10d8 <.LBB21_3+0x618>
    2760:	00001537          	lui	a0,0x1
    2764:	00a10533          	add	a0,sp,a0
    2768:	0e053023          	sd	zero,224(a0) # 10e0 <.LBB21_3+0x620>
    276c:	00001537          	lui	a0,0x1
    2770:	00a10533          	add	a0,sp,a0
    2774:	0e053423          	sd	zero,232(a0) # 10e8 <.LBB21_3+0x628>
    2778:	00001537          	lui	a0,0x1
    277c:	00a10533          	add	a0,sp,a0
    2780:	0e053823          	sd	zero,240(a0) # 10f0 <.LBB21_3+0x630>
    2784:	00001537          	lui	a0,0x1
    2788:	00a10533          	add	a0,sp,a0
    278c:	0e053c23          	sd	zero,248(a0) # 10f8 <.LBB21_3+0x638>
    2790:	00001537          	lui	a0,0x1
    2794:	00a10533          	add	a0,sp,a0
    2798:	12053023          	sd	zero,288(a0) # 1120 <.LBB21_3+0x660>
    279c:	00001537          	lui	a0,0x1
    27a0:	00a10533          	add	a0,sp,a0
    27a4:	10053c23          	sd	zero,280(a0) # 1118 <.LBB21_3+0x658>
    27a8:	00001537          	lui	a0,0x1
    27ac:	00a10533          	add	a0,sp,a0
    27b0:	10053823          	sd	zero,272(a0) # 1110 <.LBB21_3+0x650>
    27b4:	00001537          	lui	a0,0x1
    27b8:	00a10533          	add	a0,sp,a0
    27bc:	10053423          	sd	zero,264(a0) # 1108 <.LBB21_3+0x648>
    27c0:	00001537          	lui	a0,0x1
    27c4:	00a10533          	add	a0,sp,a0
    27c8:	10053023          	sd	zero,256(a0) # 1100 <.LBB21_3+0x640>
    27cc:	00001537          	lui	a0,0x1
    27d0:	00a10533          	add	a0,sp,a0
    27d4:	12053423          	sd	zero,296(a0) # 1128 <.LBB21_3+0x668>
    27d8:	00001537          	lui	a0,0x1
    27dc:	00a10533          	add	a0,sp,a0
    27e0:	12053823          	sd	zero,304(a0) # 1130 <.LBB21_3+0x670>
    27e4:	00000093          	li	ra,0
    27e8:	00000d13          	li	s10,0
    27ec:	00001537          	lui	a0,0x1
    27f0:	00a10533          	add	a0,sp,a0
    27f4:	14053423          	sd	zero,328(a0) # 1148 <.LBB21_3+0x688>
    27f8:	00000c13          	li	s8,0
    27fc:	00000b93          	li	s7,0
    2800:	00000a93          	li	s5,0
    2804:	00001537          	lui	a0,0x1
    2808:	00a10533          	add	a0,sp,a0
    280c:	14053c23          	sd	zero,344(a0) # 1158 <.LBB21_3+0x698>
    2810:	00000913          	li	s2,0
    2814:	00000493          	li	s1,0
    2818:	00000f93          	li	t6,0
    281c:	00000793          	li	a5,0
    2820:	00000713          	li	a4,0
    2824:	00000f13          	li	t5,0
    2828:	00000e93          	li	t4,0
    282c:	00000e13          	li	t3,0
    2830:	00000393          	li	t2,0
    2834:	00000613          	li	a2,0
    2838:	00000513          	li	a0,0
    283c:	00000293          	li	t0,0
    2840:	00000893          	li	a7,0
    2844:	00000d93          	li	s11,0
    2848:	000016b7          	lui	a3,0x1
    284c:	00d106b3          	add	a3,sp,a3
    2850:	1a06b423          	sd	zero,424(a3) # 11a8 <.LBB21_3+0x6e8>
    2854:	000016b7          	lui	a3,0x1
    2858:	00d106b3          	add	a3,sp,a3
    285c:	1a06b823          	sd	zero,432(a3) # 11b0 <.LBB21_3+0x6f0>
    2860:	000016b7          	lui	a3,0x1
    2864:	00d106b3          	add	a3,sp,a3
    2868:	1a06bc23          	sd	zero,440(a3) # 11b8 <.LBB21_3+0x6f8>
    286c:	000016b7          	lui	a3,0x1
    2870:	00d106b3          	add	a3,sp,a3
    2874:	1c06b023          	sd	zero,448(a3) # 11c0 <.LBB21_3+0x700>

0000000000002878 <.LBB21_5>:
    2878:	000016b7          	lui	a3,0x1
    287c:	00d106b3          	add	a3,sp,a3
    2880:	2f06bc23          	sd	a6,760(a3) # 12f8 <.LBB21_3+0x838>
    2884:	000016b7          	lui	a3,0x1
    2888:	00d106b3          	add	a3,sp,a3
    288c:	1bb6b023          	sd	s11,416(a3) # 11a0 <.LBB21_3+0x6e0>
    2890:	000016b7          	lui	a3,0x1
    2894:	00d106b3          	add	a3,sp,a3
    2898:	2eb6b823          	sd	a1,752(a3) # 12f0 <.LBB21_3+0x830>
    289c:	000016b7          	lui	a3,0x1
    28a0:	00d106b3          	add	a3,sp,a3
    28a4:	1216bc23          	sd	ra,312(a3) # 1138 <.LBB21_3+0x678>
    28a8:	000016b7          	lui	a3,0x1
    28ac:	00d106b3          	add	a3,sp,a3
    28b0:	15a6b023          	sd	s10,320(a3) # 1140 <.LBB21_3+0x680>
    28b4:	000016b7          	lui	a3,0x1
    28b8:	00d106b3          	add	a3,sp,a3
    28bc:	2786b423          	sd	s8,616(a3) # 1268 <.LBB21_3+0x7a8>
    28c0:	000016b7          	lui	a3,0x1
    28c4:	00d106b3          	add	a3,sp,a3
    28c8:	2776b823          	sd	s7,624(a3) # 1270 <.LBB21_3+0x7b0>
    28cc:	000016b7          	lui	a3,0x1
    28d0:	00d106b3          	add	a3,sp,a3
    28d4:	1556b823          	sd	s5,336(a3) # 1150 <.LBB21_3+0x690>
    28d8:	000016b7          	lui	a3,0x1
    28dc:	00d106b3          	add	a3,sp,a3
    28e0:	2726bc23          	sd	s2,632(a3) # 1278 <.LBB21_3+0x7b8>
    28e4:	000016b7          	lui	a3,0x1
    28e8:	00d106b3          	add	a3,sp,a3
    28ec:	1696b023          	sd	s1,352(a3) # 1160 <.LBB21_3+0x6a0>
    28f0:	000016b7          	lui	a3,0x1
    28f4:	00d106b3          	add	a3,sp,a3
    28f8:	17f6b423          	sd	t6,360(a3) # 1168 <.LBB21_3+0x6a8>
    28fc:	000016b7          	lui	a3,0x1
    2900:	00d106b3          	add	a3,sp,a3
    2904:	28f6b023          	sd	a5,640(a3) # 1280 <.LBB21_3+0x7c0>
    2908:	000016b7          	lui	a3,0x1
    290c:	00d106b3          	add	a3,sp,a3
    2910:	28e6b423          	sd	a4,648(a3) # 1288 <.LBB21_3+0x7c8>
    2914:	000016b7          	lui	a3,0x1
    2918:	00d106b3          	add	a3,sp,a3
    291c:	17e6b823          	sd	t5,368(a3) # 1170 <.LBB21_3+0x6b0>
    2920:	000016b7          	lui	a3,0x1
    2924:	00d106b3          	add	a3,sp,a3
    2928:	17d6bc23          	sd	t4,376(a3) # 1178 <.LBB21_3+0x6b8>
    292c:	000016b7          	lui	a3,0x1
    2930:	00d106b3          	add	a3,sp,a3
    2934:	19c6b023          	sd	t3,384(a3) # 1180 <.LBB21_3+0x6c0>
    2938:	000016b7          	lui	a3,0x1
    293c:	00d106b3          	add	a3,sp,a3
    2940:	1876b423          	sd	t2,392(a3) # 1188 <.LBB21_3+0x6c8>
    2944:	000016b7          	lui	a3,0x1
    2948:	00d106b3          	add	a3,sp,a3
    294c:	28c6b823          	sd	a2,656(a3) # 1290 <.LBB21_3+0x7d0>
    2950:	00001637          	lui	a2,0x1
    2954:	00c10633          	add	a2,sp,a2
    2958:	28a63c23          	sd	a0,664(a2) # 1298 <.LBB21_3+0x7d8>
    295c:	00001537          	lui	a0,0x1
    2960:	00a10533          	add	a0,sp,a0
    2964:	18553823          	sd	t0,400(a0) # 1190 <.LBB21_3+0x6d0>
    2968:	00001537          	lui	a0,0x1
    296c:	00a10533          	add	a0,sp,a0
    2970:	19153c23          	sd	a7,408(a0) # 1198 <.LBB21_3+0x6d8>
    2974:	00058503          	lb	a0,0(a1)
    2978:	00280603          	lb	a2,2(a6)
    297c:	000015b7          	lui	a1,0x1
    2980:	00b105b3          	add	a1,sp,a1
    2984:	2ec5b423          	sd	a2,744(a1) # 12e8 <.LBB21_3+0x828>
    2988:	00180703          	lb	a4,1(a6)
    298c:	000015b7          	lui	a1,0x1
    2990:	00b105b3          	add	a1,sp,a1
    2994:	2ae5b023          	sd	a4,672(a1) # 12a0 <.LBB21_3+0x7e0>
    2998:	00080683          	lb	a3,0(a6)
    299c:	000015b7          	lui	a1,0x1
    29a0:	00b105b3          	add	a1,sp,a1
    29a4:	2ad5bc23          	sd	a3,696(a1) # 12b8 <.LBB21_3+0x7f8>
    29a8:	00380783          	lb	a5,3(a6)
    29ac:	000015b7          	lui	a1,0x1
    29b0:	00b105b3          	add	a1,sp,a1
    29b4:	2af5b823          	sd	a5,688(a1) # 12b0 <.LBB21_3+0x7f0>
    29b8:	00480383          	lb	t2,4(a6)
    29bc:	000015b7          	lui	a1,0x1
    29c0:	00b105b3          	add	a1,sp,a1
    29c4:	2275b823          	sd	t2,560(a1) # 1230 <.LBB21_3+0x770>
    29c8:	00580d83          	lb	s11,5(a6)
    29cc:	00680483          	lb	s1,6(a6)
    29d0:	000015b7          	lui	a1,0x1
    29d4:	00b105b3          	add	a1,sp,a1
    29d8:	2a95b423          	sd	s1,680(a1) # 12a8 <.LBB21_3+0x7e8>
    29dc:	00780b83          	lb	s7,7(a6)
    29e0:	00880c83          	lb	s9,8(a6)
    29e4:	000015b7          	lui	a1,0x1
    29e8:	00b105b3          	add	a1,sp,a1
    29ec:	2d95b023          	sd	s9,704(a1) # 12c0 <.LBB21_3+0x800>
    29f0:	000015b7          	lui	a1,0x1
    29f4:	00b105b3          	add	a1,sp,a1
    29f8:	2f85b583          	ld	a1,760(a1) # 12f8 <.LBB21_3+0x838>
    29fc:	00958803          	lb	a6,9(a1)
    2a00:	000015b7          	lui	a1,0x1
    2a04:	00b105b3          	add	a1,sp,a1
    2a08:	2f85b583          	ld	a1,760(a1) # 12f8 <.LBB21_3+0x838>
    2a0c:	00a58c03          	lb	s8,10(a1)
    2a10:	000015b7          	lui	a1,0x1
    2a14:	00b105b3          	add	a1,sp,a1
    2a18:	2f85b583          	ld	a1,760(a1) # 12f8 <.LBB21_3+0x838>
    2a1c:	00b58d03          	lb	s10,11(a1)
    2a20:	000015b7          	lui	a1,0x1
    2a24:	00b105b3          	add	a1,sp,a1
    2a28:	2f85b583          	ld	a1,760(a1) # 12f8 <.LBB21_3+0x838>
    2a2c:	00c58883          	lb	a7,12(a1)
    2a30:	000015b7          	lui	a1,0x1
    2a34:	00b105b3          	add	a1,sp,a1
    2a38:	9f15bc23          	sd	a7,-1544(a1) # 9f8 <.LBB21_1+0x8e0>
    2a3c:	000015b7          	lui	a1,0x1
    2a40:	00b105b3          	add	a1,sp,a1
    2a44:	2f85b583          	ld	a1,760(a1) # 12f8 <.LBB21_3+0x838>
    2a48:	00d58a83          	lb	s5,13(a1)
    2a4c:	000015b7          	lui	a1,0x1
    2a50:	00b105b3          	add	a1,sp,a1
    2a54:	2f85b583          	ld	a1,760(a1) # 12f8 <.LBB21_3+0x838>
    2a58:	00e58e03          	lb	t3,14(a1)
    2a5c:	000015b7          	lui	a1,0x1
    2a60:	00b105b3          	add	a1,sp,a1
    2a64:	2f85b583          	ld	a1,760(a1) # 12f8 <.LBB21_3+0x838>
    2a68:	00f58303          	lb	t1,15(a1)
    2a6c:	000015b7          	lui	a1,0x1
    2a70:	00b105b3          	add	a1,sp,a1
    2a74:	2f85b583          	ld	a1,760(a1) # 12f8 <.LBB21_3+0x838>
    2a78:	01058583          	lb	a1,16(a1)
    2a7c:	000012b7          	lui	t0,0x1
    2a80:	005102b3          	add	t0,sp,t0
    2a84:	2cb2bc23          	sd	a1,728(t0) # 12d8 <.LBB21_3+0x818>
    2a88:	000015b7          	lui	a1,0x1
    2a8c:	00b105b3          	add	a1,sp,a1
    2a90:	2f85b583          	ld	a1,760(a1) # 12f8 <.LBB21_3+0x838>
    2a94:	01158083          	lb	ra,17(a1)
    2a98:	000015b7          	lui	a1,0x1
    2a9c:	00b105b3          	add	a1,sp,a1
    2aa0:	2f85b583          	ld	a1,760(a1) # 12f8 <.LBB21_3+0x838>
    2aa4:	01258b03          	lb	s6,18(a1)
    2aa8:	000015b7          	lui	a1,0x1
    2aac:	00b105b3          	add	a1,sp,a1
    2ab0:	2f85b583          	ld	a1,760(a1) # 12f8 <.LBB21_3+0x838>
    2ab4:	01358e83          	lb	t4,19(a1)
    2ab8:	000015b7          	lui	a1,0x1
    2abc:	00b105b3          	add	a1,sp,a1
    2ac0:	23d5b023          	sd	t4,544(a1) # 1220 <.LBB21_3+0x760>
    2ac4:	000015b7          	lui	a1,0x1
    2ac8:	00b105b3          	add	a1,sp,a1
    2acc:	2f85b583          	ld	a1,760(a1) # 12f8 <.LBB21_3+0x838>
    2ad0:	01458f83          	lb	t6,20(a1)
    2ad4:	000015b7          	lui	a1,0x1
    2ad8:	00b105b3          	add	a1,sp,a1
    2adc:	25f5b423          	sd	t6,584(a1) # 1248 <.LBB21_3+0x788>
    2ae0:	000015b7          	lui	a1,0x1
    2ae4:	00b105b3          	add	a1,sp,a1
    2ae8:	2f85b583          	ld	a1,760(a1) # 12f8 <.LBB21_3+0x838>
    2aec:	01558f03          	lb	t5,21(a1)
    2af0:	000015b7          	lui	a1,0x1
    2af4:	00b105b3          	add	a1,sp,a1
    2af8:	25e5b023          	sd	t5,576(a1) # 1240 <.LBB21_3+0x780>
    2afc:	000015b7          	lui	a1,0x1
    2b00:	00b105b3          	add	a1,sp,a1
    2b04:	2f85b583          	ld	a1,760(a1) # 12f8 <.LBB21_3+0x838>
    2b08:	01658903          	lb	s2,22(a1)
    2b0c:	000015b7          	lui	a1,0x1
    2b10:	00b105b3          	add	a1,sp,a1
    2b14:	2f85b583          	ld	a1,760(a1) # 12f8 <.LBB21_3+0x838>
    2b18:	01758983          	lb	s3,23(a1)
    2b1c:	000015b7          	lui	a1,0x1
    2b20:	00b105b3          	add	a1,sp,a1
    2b24:	2335b423          	sd	s3,552(a1) # 1228 <.LBB21_3+0x768>
    2b28:	000015b7          	lui	a1,0x1
    2b2c:	00b105b3          	add	a1,sp,a1
    2b30:	2f85b583          	ld	a1,760(a1) # 12f8 <.LBB21_3+0x838>
    2b34:	01858a03          	lb	s4,24(a1)
    2b38:	000015b7          	lui	a1,0x1
    2b3c:	00b105b3          	add	a1,sp,a1
    2b40:	1f45b823          	sd	s4,496(a1) # 11f0 <.LBB21_3+0x730>
    2b44:	02c505b3          	mul	a1,a0,a2
    2b48:	00001637          	lui	a2,0x1
    2b4c:	00c10633          	add	a2,sp,a2
    2b50:	a3063603          	ld	a2,-1488(a2) # a30 <.LBB21_2+0x8>
    2b54:	00c58633          	add	a2,a1,a2
    2b58:	000015b7          	lui	a1,0x1
    2b5c:	00b105b3          	add	a1,sp,a1
    2b60:	a2c5b823          	sd	a2,-1488(a1) # a30 <.LBB21_2+0x8>
    2b64:	02e505b3          	mul	a1,a0,a4
    2b68:	00001637          	lui	a2,0x1
    2b6c:	00c10633          	add	a2,sp,a2
    2b70:	a3863603          	ld	a2,-1480(a2) # a38 <.LBB21_2+0x10>
    2b74:	00c58633          	add	a2,a1,a2
    2b78:	000015b7          	lui	a1,0x1
    2b7c:	00b105b3          	add	a1,sp,a1
    2b80:	a2c5bc23          	sd	a2,-1480(a1) # a38 <.LBB21_2+0x10>
    2b84:	02d505b3          	mul	a1,a0,a3
    2b88:	00001637          	lui	a2,0x1
    2b8c:	00c10633          	add	a2,sp,a2
    2b90:	a4063603          	ld	a2,-1472(a2) # a40 <.LBB21_2+0x18>
    2b94:	00c58633          	add	a2,a1,a2
    2b98:	000015b7          	lui	a1,0x1
    2b9c:	00b105b3          	add	a1,sp,a1
    2ba0:	a4c5b023          	sd	a2,-1472(a1) # a40 <.LBB21_2+0x18>
    2ba4:	02f505b3          	mul	a1,a0,a5
    2ba8:	00001637          	lui	a2,0x1
    2bac:	00c10633          	add	a2,sp,a2
    2bb0:	a2863603          	ld	a2,-1496(a2) # a28 <.LBB21_2>
    2bb4:	00c58633          	add	a2,a1,a2
    2bb8:	000015b7          	lui	a1,0x1
    2bbc:	00b105b3          	add	a1,sp,a1
    2bc0:	a2c5b423          	sd	a2,-1496(a1) # a28 <.LBB21_2>
    2bc4:	027505b3          	mul	a1,a0,t2
    2bc8:	00001637          	lui	a2,0x1
    2bcc:	00c10633          	add	a2,sp,a2
    2bd0:	a4863603          	ld	a2,-1464(a2) # a48 <.LBB21_2+0x20>
    2bd4:	00c58633          	add	a2,a1,a2
    2bd8:	000015b7          	lui	a1,0x1
    2bdc:	00b105b3          	add	a1,sp,a1
    2be0:	a4c5b423          	sd	a2,-1464(a1) # a48 <.LBB21_2+0x20>
    2be4:	03b505b3          	mul	a1,a0,s11
    2be8:	00001637          	lui	a2,0x1
    2bec:	00c10633          	add	a2,sp,a2
    2bf0:	21b63823          	sd	s11,528(a2) # 1210 <.LBB21_3+0x750>
    2bf4:	00001637          	lui	a2,0x1
    2bf8:	00c10633          	add	a2,sp,a2
    2bfc:	a2063603          	ld	a2,-1504(a2) # a20 <.LBB21_1+0x908>
    2c00:	00c58633          	add	a2,a1,a2
    2c04:	000015b7          	lui	a1,0x1
    2c08:	00b105b3          	add	a1,sp,a1
    2c0c:	a2c5b023          	sd	a2,-1504(a1) # a20 <.LBB21_1+0x908>
    2c10:	029505b3          	mul	a1,a0,s1
    2c14:	00001637          	lui	a2,0x1
    2c18:	00c10633          	add	a2,sp,a2
    2c1c:	a1863603          	ld	a2,-1512(a2) # a18 <.LBB21_1+0x900>
    2c20:	00c58633          	add	a2,a1,a2
    2c24:	000015b7          	lui	a1,0x1
    2c28:	00b105b3          	add	a1,sp,a1
    2c2c:	a0c5bc23          	sd	a2,-1512(a1) # a18 <.LBB21_1+0x900>
    2c30:	037505b3          	mul	a1,a0,s7
    2c34:	000b8493          	mv	s1,s7
    2c38:	00001637          	lui	a2,0x1
    2c3c:	00c10633          	add	a2,sp,a2
    2c40:	2d763423          	sd	s7,712(a2) # 12c8 <.LBB21_3+0x808>
    2c44:	00001637          	lui	a2,0x1
    2c48:	00c10633          	add	a2,sp,a2
    2c4c:	a1063603          	ld	a2,-1520(a2) # a10 <.LBB21_1+0x8f8>
    2c50:	00c58633          	add	a2,a1,a2
    2c54:	000015b7          	lui	a1,0x1
    2c58:	00b105b3          	add	a1,sp,a1
    2c5c:	a0c5b823          	sd	a2,-1520(a1) # a10 <.LBB21_1+0x8f8>
    2c60:	039505b3          	mul	a1,a0,s9
    2c64:	00001637          	lui	a2,0x1
    2c68:	00c10633          	add	a2,sp,a2
    2c6c:	a0863603          	ld	a2,-1528(a2) # a08 <.LBB21_1+0x8f0>
    2c70:	00c58633          	add	a2,a1,a2
    2c74:	000015b7          	lui	a1,0x1
    2c78:	00b105b3          	add	a1,sp,a1
    2c7c:	a0c5b423          	sd	a2,-1528(a1) # a08 <.LBB21_1+0x8f0>
    2c80:	030505b3          	mul	a1,a0,a6
    2c84:	00080c93          	mv	s9,a6
    2c88:	00001637          	lui	a2,0x1
    2c8c:	00c10633          	add	a2,sp,a2
    2c90:	21063423          	sd	a6,520(a2) # 1208 <.LBB21_3+0x748>
    2c94:	00001637          	lui	a2,0x1
    2c98:	00c10633          	add	a2,sp,a2
    2c9c:	a0063603          	ld	a2,-1536(a2) # a00 <.LBB21_1+0x8e8>
    2ca0:	00c58633          	add	a2,a1,a2
    2ca4:	000015b7          	lui	a1,0x1
    2ca8:	00b105b3          	add	a1,sp,a1
    2cac:	a0c5b023          	sd	a2,-1536(a1) # a00 <.LBB21_1+0x8e8>
    2cb0:	038505b3          	mul	a1,a0,s8
    2cb4:	00001637          	lui	a2,0x1
    2cb8:	00c10633          	add	a2,sp,a2
    2cbc:	a5063603          	ld	a2,-1456(a2) # a50 <.LBB21_2+0x28>
    2cc0:	00c58633          	add	a2,a1,a2
    2cc4:	000015b7          	lui	a1,0x1
    2cc8:	00b105b3          	add	a1,sp,a1
    2ccc:	a4c5b823          	sd	a2,-1456(a1) # a50 <.LBB21_2+0x28>
    2cd0:	000d0813          	mv	a6,s10
    2cd4:	000015b7          	lui	a1,0x1
    2cd8:	00b105b3          	add	a1,sp,a1
    2cdc:	27a5b023          	sd	s10,608(a1) # 1260 <.LBB21_3+0x7a0>
    2ce0:	03a505b3          	mul	a1,a0,s10
    2ce4:	00001637          	lui	a2,0x1
    2ce8:	00c10633          	add	a2,sp,a2
    2cec:	a5863603          	ld	a2,-1448(a2) # a58 <.LBB21_2+0x30>
    2cf0:	00c58633          	add	a2,a1,a2
    2cf4:	000015b7          	lui	a1,0x1
    2cf8:	00b105b3          	add	a1,sp,a1
    2cfc:	a4c5bc23          	sd	a2,-1448(a1) # a58 <.LBB21_2+0x30>
    2d00:	031505b3          	mul	a1,a0,a7
    2d04:	00001637          	lui	a2,0x1
    2d08:	00c10633          	add	a2,sp,a2
    2d0c:	a6063603          	ld	a2,-1440(a2) # a60 <.LBB21_2+0x38>
    2d10:	00c58633          	add	a2,a1,a2
    2d14:	000015b7          	lui	a1,0x1
    2d18:	00b105b3          	add	a1,sp,a1
    2d1c:	a6c5b023          	sd	a2,-1440(a1) # a60 <.LBB21_2+0x38>
    2d20:	035505b3          	mul	a1,a0,s5
    2d24:	000a8893          	mv	a7,s5
    2d28:	00001637          	lui	a2,0x1
    2d2c:	00c10633          	add	a2,sp,a2
    2d30:	a6863603          	ld	a2,-1432(a2) # a68 <.LBB21_2+0x40>
    2d34:	00c58633          	add	a2,a1,a2
    2d38:	000015b7          	lui	a1,0x1
    2d3c:	00b105b3          	add	a1,sp,a1
    2d40:	a6c5b423          	sd	a2,-1432(a1) # a68 <.LBB21_2+0x40>
    2d44:	000015b7          	lui	a1,0x1
    2d48:	00b105b3          	add	a1,sp,a1
    2d4c:	25c5b823          	sd	t3,592(a1) # 1250 <.LBB21_3+0x790>
    2d50:	03c505b3          	mul	a1,a0,t3
    2d54:	00001637          	lui	a2,0x1
    2d58:	00c10633          	add	a2,sp,a2
    2d5c:	a7063603          	ld	a2,-1424(a2) # a70 <.LBB21_2+0x48>
    2d60:	00c58633          	add	a2,a1,a2
    2d64:	000015b7          	lui	a1,0x1
    2d68:	00b105b3          	add	a1,sp,a1
    2d6c:	a6c5b823          	sd	a2,-1424(a1) # a70 <.LBB21_2+0x48>
    2d70:	000015b7          	lui	a1,0x1
    2d74:	00b105b3          	add	a1,sp,a1
    2d78:	2c65b823          	sd	t1,720(a1) # 12d0 <.LBB21_3+0x810>
    2d7c:	026505b3          	mul	a1,a0,t1
    2d80:	00001637          	lui	a2,0x1
    2d84:	00c10633          	add	a2,sp,a2
    2d88:	a8063603          	ld	a2,-1408(a2) # a80 <.LBB21_2+0x58>
    2d8c:	00c58633          	add	a2,a1,a2
    2d90:	000015b7          	lui	a1,0x1
    2d94:	00b105b3          	add	a1,sp,a1
    2d98:	a8c5b023          	sd	a2,-1408(a1) # a80 <.LBB21_2+0x58>
    2d9c:	000015b7          	lui	a1,0x1
    2da0:	00b105b3          	add	a1,sp,a1
    2da4:	2d85b283          	ld	t0,728(a1) # 12d8 <.LBB21_3+0x818>
    2da8:	025505b3          	mul	a1,a0,t0
    2dac:	00001637          	lui	a2,0x1
    2db0:	00c10633          	add	a2,sp,a2
    2db4:	a8863603          	ld	a2,-1400(a2) # a88 <.LBB21_2+0x60>
    2db8:	00c58633          	add	a2,a1,a2
    2dbc:	000015b7          	lui	a1,0x1
    2dc0:	00b105b3          	add	a1,sp,a1
    2dc4:	a8c5b423          	sd	a2,-1400(a1) # a88 <.LBB21_2+0x60>
    2dc8:	00008693          	mv	a3,ra
    2dcc:	000015b7          	lui	a1,0x1
    2dd0:	00b105b3          	add	a1,sp,a1
    2dd4:	2e15b023          	sd	ra,736(a1) # 12e0 <.LBB21_3+0x820>
    2dd8:	021505b3          	mul	a1,a0,ra
    2ddc:	00001637          	lui	a2,0x1
    2de0:	00c10633          	add	a2,sp,a2
    2de4:	a9063603          	ld	a2,-1392(a2) # a90 <.LBB21_2+0x68>
    2de8:	00c58633          	add	a2,a1,a2
    2dec:	000015b7          	lui	a1,0x1
    2df0:	00b105b3          	add	a1,sp,a1
    2df4:	a8c5b823          	sd	a2,-1392(a1) # a90 <.LBB21_2+0x68>
    2df8:	036505b3          	mul	a1,a0,s6
    2dfc:	00001637          	lui	a2,0x1
    2e00:	00c10633          	add	a2,sp,a2
    2e04:	a9863603          	ld	a2,-1384(a2) # a98 <.LBB21_2+0x70>
    2e08:	00c58633          	add	a2,a1,a2
    2e0c:	000015b7          	lui	a1,0x1
    2e10:	00b105b3          	add	a1,sp,a1
    2e14:	a8c5bc23          	sd	a2,-1384(a1) # a98 <.LBB21_2+0x70>
    2e18:	03d505b3          	mul	a1,a0,t4
    2e1c:	00001637          	lui	a2,0x1
    2e20:	00c10633          	add	a2,sp,a2
    2e24:	aa063603          	ld	a2,-1376(a2) # aa0 <.LBB21_2+0x78>
    2e28:	00c58633          	add	a2,a1,a2
    2e2c:	000015b7          	lui	a1,0x1
    2e30:	00b105b3          	add	a1,sp,a1
    2e34:	aac5b023          	sd	a2,-1376(a1) # aa0 <.LBB21_2+0x78>
    2e38:	03f505b3          	mul	a1,a0,t6
    2e3c:	00001637          	lui	a2,0x1
    2e40:	00c10633          	add	a2,sp,a2
    2e44:	aa863603          	ld	a2,-1368(a2) # aa8 <.LBB21_2+0x80>
    2e48:	00c58633          	add	a2,a1,a2
    2e4c:	000015b7          	lui	a1,0x1
    2e50:	00b105b3          	add	a1,sp,a1
    2e54:	aac5b423          	sd	a2,-1368(a1) # aa8 <.LBB21_2+0x80>
    2e58:	03e505b3          	mul	a1,a0,t5
    2e5c:	00001637          	lui	a2,0x1
    2e60:	00c10633          	add	a2,sp,a2
    2e64:	ab063603          	ld	a2,-1360(a2) # ab0 <.LBB21_2+0x88>
    2e68:	00c58633          	add	a2,a1,a2
    2e6c:	000015b7          	lui	a1,0x1
    2e70:	00b105b3          	add	a1,sp,a1
    2e74:	aac5b823          	sd	a2,-1360(a1) # ab0 <.LBB21_2+0x88>
    2e78:	032505b3          	mul	a1,a0,s2
    2e7c:	00001637          	lui	a2,0x1
    2e80:	00c10633          	add	a2,sp,a2
    2e84:	ab863603          	ld	a2,-1352(a2) # ab8 <.LBB21_2+0x90>
    2e88:	00c58633          	add	a2,a1,a2
    2e8c:	000015b7          	lui	a1,0x1
    2e90:	00b105b3          	add	a1,sp,a1
    2e94:	aac5bc23          	sd	a2,-1352(a1) # ab8 <.LBB21_2+0x90>
    2e98:	033505b3          	mul	a1,a0,s3
    2e9c:	00001637          	lui	a2,0x1
    2ea0:	00c10633          	add	a2,sp,a2
    2ea4:	ac063603          	ld	a2,-1344(a2) # ac0 <.LBB21_3>
    2ea8:	00c58633          	add	a2,a1,a2
    2eac:	000015b7          	lui	a1,0x1
    2eb0:	00b105b3          	add	a1,sp,a1
    2eb4:	acc5b023          	sd	a2,-1344(a1) # ac0 <.LBB21_3>
    2eb8:	000015b7          	lui	a1,0x1
    2ebc:	00b105b3          	add	a1,sp,a1
    2ec0:	2f85b583          	ld	a1,760(a1) # 12f8 <.LBB21_3+0x838>
    2ec4:	01958703          	lb	a4,25(a1)
    2ec8:	034505b3          	mul	a1,a0,s4
    2ecc:	00001637          	lui	a2,0x1
    2ed0:	00c10633          	add	a2,sp,a2
    2ed4:	ac863603          	ld	a2,-1336(a2) # ac8 <.LBB21_3+0x8>
    2ed8:	00c58633          	add	a2,a1,a2
    2edc:	000015b7          	lui	a1,0x1
    2ee0:	00b105b3          	add	a1,sp,a1
    2ee4:	acc5b423          	sd	a2,-1336(a1) # ac8 <.LBB21_3+0x8>
    2ee8:	000015b7          	lui	a1,0x1
    2eec:	00b105b3          	add	a1,sp,a1
    2ef0:	2f85b583          	ld	a1,760(a1) # 12f8 <.LBB21_3+0x838>
    2ef4:	01a58783          	lb	a5,26(a1)
    2ef8:	000015b7          	lui	a1,0x1
    2efc:	00b105b3          	add	a1,sp,a1
    2f00:	1ef5bc23          	sd	a5,504(a1) # 11f8 <.LBB21_3+0x738>
    2f04:	02e505b3          	mul	a1,a0,a4
    2f08:	00001637          	lui	a2,0x1
    2f0c:	00c10633          	add	a2,sp,a2
    2f10:	ad063603          	ld	a2,-1328(a2) # ad0 <.LBB21_3+0x10>
    2f14:	00c58633          	add	a2,a1,a2
    2f18:	000015b7          	lui	a1,0x1
    2f1c:	00b105b3          	add	a1,sp,a1
    2f20:	acc5b823          	sd	a2,-1328(a1) # ad0 <.LBB21_3+0x10>
    2f24:	000015b7          	lui	a1,0x1
    2f28:	00b105b3          	add	a1,sp,a1
    2f2c:	2f85b583          	ld	a1,760(a1) # 12f8 <.LBB21_3+0x838>
    2f30:	01b58a03          	lb	s4,27(a1)
    2f34:	02f505b3          	mul	a1,a0,a5
    2f38:	00001637          	lui	a2,0x1
    2f3c:	00c10633          	add	a2,sp,a2
    2f40:	ad863603          	ld	a2,-1320(a2) # ad8 <.LBB21_3+0x18>
    2f44:	00c58633          	add	a2,a1,a2
    2f48:	000015b7          	lui	a1,0x1
    2f4c:	00b105b3          	add	a1,sp,a1
    2f50:	acc5bc23          	sd	a2,-1320(a1) # ad8 <.LBB21_3+0x18>
    2f54:	000015b7          	lui	a1,0x1
    2f58:	00b105b3          	add	a1,sp,a1
    2f5c:	2f85b583          	ld	a1,760(a1) # 12f8 <.LBB21_3+0x838>
    2f60:	01c58f83          	lb	t6,28(a1)
    2f64:	034505b3          	mul	a1,a0,s4
    2f68:	00001637          	lui	a2,0x1
    2f6c:	00c10633          	add	a2,sp,a2
    2f70:	1d463c23          	sd	s4,472(a2) # 11d8 <.LBB21_3+0x718>
    2f74:	00001637          	lui	a2,0x1
    2f78:	00c10633          	add	a2,sp,a2
    2f7c:	ae063603          	ld	a2,-1312(a2) # ae0 <.LBB21_3+0x20>
    2f80:	00c58633          	add	a2,a1,a2
    2f84:	000015b7          	lui	a1,0x1
    2f88:	00b105b3          	add	a1,sp,a1
    2f8c:	aec5b023          	sd	a2,-1312(a1) # ae0 <.LBB21_3+0x20>
    2f90:	000015b7          	lui	a1,0x1
    2f94:	00b105b3          	add	a1,sp,a1
    2f98:	2f85b583          	ld	a1,760(a1) # 12f8 <.LBB21_3+0x838>
    2f9c:	01d58f03          	lb	t5,29(a1)
    2fa0:	03f505b3          	mul	a1,a0,t6
    2fa4:	00001637          	lui	a2,0x1
    2fa8:	00c10633          	add	a2,sp,a2
    2fac:	1df63823          	sd	t6,464(a2) # 11d0 <.LBB21_3+0x710>
    2fb0:	00001637          	lui	a2,0x1
    2fb4:	00c10633          	add	a2,sp,a2
    2fb8:	ae863383          	ld	t2,-1304(a2) # ae8 <.LBB21_3+0x28>
    2fbc:	007583b3          	add	t2,a1,t2
    2fc0:	000015b7          	lui	a1,0x1
    2fc4:	00b105b3          	add	a1,sp,a1
    2fc8:	ae75b423          	sd	t2,-1304(a1) # ae8 <.LBB21_3+0x28>
    2fcc:	000015b7          	lui	a1,0x1
    2fd0:	00b105b3          	add	a1,sp,a1
    2fd4:	2f85b583          	ld	a1,760(a1) # 12f8 <.LBB21_3+0x838>
    2fd8:	01e58783          	lb	a5,30(a1)
    2fdc:	03e505b3          	mul	a1,a0,t5
    2fe0:	00001637          	lui	a2,0x1
    2fe4:	00c10633          	add	a2,sp,a2
    2fe8:	1fe63423          	sd	t5,488(a2) # 11e8 <.LBB21_3+0x728>
    2fec:	00001637          	lui	a2,0x1
    2ff0:	00c10633          	add	a2,sp,a2
    2ff4:	af063383          	ld	t2,-1296(a2) # af0 <.LBB21_3+0x30>
    2ff8:	007583b3          	add	t2,a1,t2
    2ffc:	000015b7          	lui	a1,0x1
    3000:	00b105b3          	add	a1,sp,a1
    3004:	ae75b823          	sd	t2,-1296(a1) # af0 <.LBB21_3+0x30>
    3008:	000015b7          	lui	a1,0x1
    300c:	00b105b3          	add	a1,sp,a1
    3010:	2f85b583          	ld	a1,760(a1) # 12f8 <.LBB21_3+0x838>
    3014:	01f58583          	lb	a1,31(a1)
    3018:	00001637          	lui	a2,0x1
    301c:	00c10633          	add	a2,sp,a2
    3020:	2f063383          	ld	t2,752(a2) # 12f0 <.LBB21_3+0x830>
    3024:	01838383          	lb	t2,24(t2)
    3028:	02f50ab3          	mul	s5,a0,a5
    302c:	00078d13          	mv	s10,a5
    3030:	00001637          	lui	a2,0x1
    3034:	00c10633          	add	a2,sp,a2
    3038:	9ef63823          	sd	a5,-1552(a2) # 9f0 <.LBB21_1+0x8d8>
    303c:	00001637          	lui	a2,0x1
    3040:	00c10633          	add	a2,sp,a2
    3044:	af863b83          	ld	s7,-1288(a2) # af8 <.LBB21_3+0x38>
    3048:	017a8bb3          	add	s7,s5,s7
    304c:	00001637          	lui	a2,0x1
    3050:	00c10633          	add	a2,sp,a2
    3054:	af763c23          	sd	s7,-1288(a2) # af8 <.LBB21_3+0x38>
    3058:	02b50533          	mul	a0,a0,a1
    305c:	00058093          	mv	ra,a1
    3060:	000015b7          	lui	a1,0x1
    3064:	00b105b3          	add	a1,sp,a1
    3068:	b005ba83          	ld	s5,-1280(a1) # b00 <.LBB21_3+0x40>
    306c:	01550ab3          	add	s5,a0,s5
    3070:	00001537          	lui	a0,0x1
    3074:	00a10533          	add	a0,sp,a0
    3078:	b1553023          	sd	s5,-1280(a0) # b00 <.LBB21_3+0x40>
    307c:	00001537          	lui	a0,0x1
    3080:	00a10533          	add	a0,sp,a0
    3084:	2b853603          	ld	a2,696(a0) # 12b8 <.LBB21_3+0x7f8>
    3088:	02c38533          	mul	a0,t2,a2
    308c:	000015b7          	lui	a1,0x1
    3090:	00b105b3          	add	a1,sp,a1
    3094:	b285ba83          	ld	s5,-1240(a1) # b28 <.LBB21_3+0x68>
    3098:	01550ab3          	add	s5,a0,s5
    309c:	00001537          	lui	a0,0x1
    30a0:	00a10533          	add	a0,sp,a0
    30a4:	b3553423          	sd	s5,-1240(a0) # b28 <.LBB21_3+0x68>
    30a8:	00001537          	lui	a0,0x1
    30ac:	00a10533          	add	a0,sp,a0
    30b0:	2a053503          	ld	a0,672(a0) # 12a0 <.LBB21_3+0x7e0>
    30b4:	02a38533          	mul	a0,t2,a0
    30b8:	000015b7          	lui	a1,0x1
    30bc:	00b105b3          	add	a1,sp,a1
    30c0:	b205ba83          	ld	s5,-1248(a1) # b20 <.LBB21_3+0x60>
    30c4:	01550ab3          	add	s5,a0,s5
    30c8:	00001537          	lui	a0,0x1
    30cc:	00a10533          	add	a0,sp,a0
    30d0:	b3553023          	sd	s5,-1248(a0) # b20 <.LBB21_3+0x60>
    30d4:	00001537          	lui	a0,0x1
    30d8:	00a10533          	add	a0,sp,a0
    30dc:	2e853503          	ld	a0,744(a0) # 12e8 <.LBB21_3+0x828>
    30e0:	02a38533          	mul	a0,t2,a0
    30e4:	000015b7          	lui	a1,0x1
    30e8:	00b105b3          	add	a1,sp,a1
    30ec:	b185ba83          	ld	s5,-1256(a1) # b18 <.LBB21_3+0x58>
    30f0:	01550ab3          	add	s5,a0,s5
    30f4:	00001537          	lui	a0,0x1
    30f8:	00a10533          	add	a0,sp,a0
    30fc:	b1553c23          	sd	s5,-1256(a0) # b18 <.LBB21_3+0x58>
    3100:	00001537          	lui	a0,0x1
    3104:	00a10533          	add	a0,sp,a0
    3108:	2b053503          	ld	a0,688(a0) # 12b0 <.LBB21_3+0x7f0>
    310c:	02a38533          	mul	a0,t2,a0
    3110:	000015b7          	lui	a1,0x1
    3114:	00b105b3          	add	a1,sp,a1
    3118:	b105ba83          	ld	s5,-1264(a1) # b10 <.LBB21_3+0x50>
    311c:	01550ab3          	add	s5,a0,s5
    3120:	00001537          	lui	a0,0x1
    3124:	00a10533          	add	a0,sp,a0
    3128:	b1553823          	sd	s5,-1264(a0) # b10 <.LBB21_3+0x50>
    312c:	00001537          	lui	a0,0x1
    3130:	00a10533          	add	a0,sp,a0
    3134:	23053583          	ld	a1,560(a0) # 1230 <.LBB21_3+0x770>
    3138:	02b38533          	mul	a0,t2,a1
    313c:	000017b7          	lui	a5,0x1
    3140:	00f107b3          	add	a5,sp,a5
    3144:	b087ba83          	ld	s5,-1272(a5) # b08 <.LBB21_3+0x48>
    3148:	01550ab3          	add	s5,a0,s5
    314c:	00001537          	lui	a0,0x1
    3150:	00a10533          	add	a0,sp,a0
    3154:	b1553423          	sd	s5,-1272(a0) # b08 <.LBB21_3+0x48>
    3158:	03b38533          	mul	a0,t2,s11
    315c:	000017b7          	lui	a5,0x1
    3160:	00f107b3          	add	a5,sp,a5
    3164:	b307ba83          	ld	s5,-1232(a5) # b30 <.LBB21_3+0x70>
    3168:	01550ab3          	add	s5,a0,s5
    316c:	00001537          	lui	a0,0x1
    3170:	00a10533          	add	a0,sp,a0
    3174:	b3553823          	sd	s5,-1232(a0) # b30 <.LBB21_3+0x70>
    3178:	00001537          	lui	a0,0x1
    317c:	00a10533          	add	a0,sp,a0
    3180:	2a853503          	ld	a0,680(a0) # 12a8 <.LBB21_3+0x7e8>
    3184:	02a38533          	mul	a0,t2,a0
    3188:	000017b7          	lui	a5,0x1
    318c:	00f107b3          	add	a5,sp,a5
    3190:	b387ba83          	ld	s5,-1224(a5) # b38 <.LBB21_3+0x78>
    3194:	01550ab3          	add	s5,a0,s5
    3198:	00001537          	lui	a0,0x1
    319c:	00a10533          	add	a0,sp,a0
    31a0:	b3553c23          	sd	s5,-1224(a0) # b38 <.LBB21_3+0x78>
    31a4:	02938533          	mul	a0,t2,s1
    31a8:	000017b7          	lui	a5,0x1
    31ac:	00f107b3          	add	a5,sp,a5
    31b0:	b407ba83          	ld	s5,-1216(a5) # b40 <.LBB21_3+0x80>
    31b4:	01550ab3          	add	s5,a0,s5
    31b8:	00001537          	lui	a0,0x1
    31bc:	00a10533          	add	a0,sp,a0
    31c0:	b5553023          	sd	s5,-1216(a0) # b40 <.LBB21_3+0x80>
    31c4:	00001537          	lui	a0,0x1
    31c8:	00a10533          	add	a0,sp,a0
    31cc:	2c053983          	ld	s3,704(a0) # 12c0 <.LBB21_3+0x800>
    31d0:	03338533          	mul	a0,t2,s3
    31d4:	000017b7          	lui	a5,0x1
    31d8:	00f107b3          	add	a5,sp,a5
    31dc:	b487ba83          	ld	s5,-1208(a5) # b48 <.LBB21_3+0x88>
    31e0:	01550ab3          	add	s5,a0,s5
    31e4:	00001537          	lui	a0,0x1
    31e8:	00a10533          	add	a0,sp,a0
    31ec:	b5553423          	sd	s5,-1208(a0) # b48 <.LBB21_3+0x88>
    31f0:	03938533          	mul	a0,t2,s9
    31f4:	000017b7          	lui	a5,0x1
    31f8:	00f107b3          	add	a5,sp,a5
    31fc:	b507ba83          	ld	s5,-1200(a5) # b50 <.LBB21_3+0x90>
    3200:	01550ab3          	add	s5,a0,s5
    3204:	00001537          	lui	a0,0x1
    3208:	00a10533          	add	a0,sp,a0
    320c:	b5553823          	sd	s5,-1200(a0) # b50 <.LBB21_3+0x90>
    3210:	03838533          	mul	a0,t2,s8
    3214:	000017b7          	lui	a5,0x1
    3218:	00f107b3          	add	a5,sp,a5
    321c:	2187bc23          	sd	s8,536(a5) # 1218 <.LBB21_3+0x758>
    3220:	000017b7          	lui	a5,0x1
    3224:	00f107b3          	add	a5,sp,a5
    3228:	b587ba83          	ld	s5,-1192(a5) # b58 <.LBB21_3+0x98>
    322c:	01550ab3          	add	s5,a0,s5
    3230:	00001537          	lui	a0,0x1
    3234:	00a10533          	add	a0,sp,a0
    3238:	b5553c23          	sd	s5,-1192(a0) # b58 <.LBB21_3+0x98>
    323c:	03038533          	mul	a0,t2,a6
    3240:	000017b7          	lui	a5,0x1
    3244:	00f107b3          	add	a5,sp,a5
    3248:	b607ba83          	ld	s5,-1184(a5) # b60 <.LBB21_3+0xa0>
    324c:	01550ab3          	add	s5,a0,s5
    3250:	00001537          	lui	a0,0x1
    3254:	00a10533          	add	a0,sp,a0
    3258:	b7553023          	sd	s5,-1184(a0) # b60 <.LBB21_3+0xa0>
    325c:	00001537          	lui	a0,0x1
    3260:	00a10533          	add	a0,sp,a0
    3264:	9f853483          	ld	s1,-1544(a0) # 9f8 <.LBB21_1+0x8e0>
    3268:	02938533          	mul	a0,t2,s1
    326c:	000017b7          	lui	a5,0x1
    3270:	00f107b3          	add	a5,sp,a5
    3274:	b687ba83          	ld	s5,-1176(a5) # b68 <.LBB21_3+0xa8>
    3278:	01550ab3          	add	s5,a0,s5
    327c:	00001537          	lui	a0,0x1
    3280:	00a10533          	add	a0,sp,a0
    3284:	b7553423          	sd	s5,-1176(a0) # b68 <.LBB21_3+0xa8>
    3288:	00001537          	lui	a0,0x1
    328c:	00a10533          	add	a0,sp,a0
    3290:	1d153423          	sd	a7,456(a0) # 11c8 <.LBB21_3+0x708>
    3294:	03138533          	mul	a0,t2,a7
    3298:	000017b7          	lui	a5,0x1
    329c:	00f107b3          	add	a5,sp,a5
    32a0:	b707ba83          	ld	s5,-1168(a5) # b70 <.LBB21_3+0xb0>
    32a4:	01550ab3          	add	s5,a0,s5
    32a8:	00001537          	lui	a0,0x1
    32ac:	00a10533          	add	a0,sp,a0
    32b0:	b7553823          	sd	s5,-1168(a0) # b70 <.LBB21_3+0xb0>
    32b4:	03c38533          	mul	a0,t2,t3
    32b8:	000017b7          	lui	a5,0x1
    32bc:	00f107b3          	add	a5,sp,a5
    32c0:	b787ba83          	ld	s5,-1160(a5) # b78 <.LBB21_3+0xb8>
    32c4:	01550ab3          	add	s5,a0,s5
    32c8:	00001537          	lui	a0,0x1
    32cc:	00a10533          	add	a0,sp,a0
    32d0:	b7553c23          	sd	s5,-1160(a0) # b78 <.LBB21_3+0xb8>
    32d4:	02638533          	mul	a0,t2,t1
    32d8:	000017b7          	lui	a5,0x1
    32dc:	00f107b3          	add	a5,sp,a5
    32e0:	b807ba83          	ld	s5,-1152(a5) # b80 <.LBB21_3+0xc0>
    32e4:	01550ab3          	add	s5,a0,s5
    32e8:	00001537          	lui	a0,0x1
    32ec:	00a10533          	add	a0,sp,a0
    32f0:	b9553023          	sd	s5,-1152(a0) # b80 <.LBB21_3+0xc0>
    32f4:	02538533          	mul	a0,t2,t0
    32f8:	000017b7          	lui	a5,0x1
    32fc:	00f107b3          	add	a5,sp,a5
    3300:	b887ba83          	ld	s5,-1144(a5) # b88 <.LBB21_3+0xc8>
    3304:	01550ab3          	add	s5,a0,s5
    3308:	00001537          	lui	a0,0x1
    330c:	00a10533          	add	a0,sp,a0
    3310:	b9553423          	sd	s5,-1144(a0) # b88 <.LBB21_3+0xc8>
    3314:	02d38533          	mul	a0,t2,a3
    3318:	000016b7          	lui	a3,0x1
    331c:	00d106b3          	add	a3,sp,a3
    3320:	b906ba83          	ld	s5,-1136(a3) # b90 <.LBB21_3+0xd0>
    3324:	01550ab3          	add	s5,a0,s5
    3328:	00001537          	lui	a0,0x1
    332c:	00a10533          	add	a0,sp,a0
    3330:	b9553823          	sd	s5,-1136(a0) # b90 <.LBB21_3+0xd0>
    3334:	000b0e93          	mv	t4,s6
    3338:	00001537          	lui	a0,0x1
    333c:	00a10533          	add	a0,sp,a0
    3340:	23653c23          	sd	s6,568(a0) # 1238 <.LBB21_3+0x778>
    3344:	03638533          	mul	a0,t2,s6
    3348:	000016b7          	lui	a3,0x1
    334c:	00d106b3          	add	a3,sp,a3
    3350:	b986ba83          	ld	s5,-1128(a3) # b98 <.LBB21_3+0xd8>
    3354:	01550ab3          	add	s5,a0,s5
    3358:	00001537          	lui	a0,0x1
    335c:	00a10533          	add	a0,sp,a0
    3360:	b9553c23          	sd	s5,-1128(a0) # b98 <.LBB21_3+0xd8>
    3364:	00001537          	lui	a0,0x1
    3368:	00a10533          	add	a0,sp,a0
    336c:	22053783          	ld	a5,544(a0) # 1220 <.LBB21_3+0x760>
    3370:	02f38533          	mul	a0,t2,a5
    3374:	000016b7          	lui	a3,0x1
    3378:	00d106b3          	add	a3,sp,a3
    337c:	ba06ba83          	ld	s5,-1120(a3) # ba0 <.LBB21_3+0xe0>
    3380:	01550ab3          	add	s5,a0,s5
    3384:	00001537          	lui	a0,0x1
    3388:	00a10533          	add	a0,sp,a0
    338c:	bb553023          	sd	s5,-1120(a0) # ba0 <.LBB21_3+0xe0>
    3390:	00001537          	lui	a0,0x1
    3394:	00a10533          	add	a0,sp,a0
    3398:	24853b03          	ld	s6,584(a0) # 1248 <.LBB21_3+0x788>
    339c:	03638533          	mul	a0,t2,s6
    33a0:	000016b7          	lui	a3,0x1
    33a4:	00d106b3          	add	a3,sp,a3
    33a8:	ba86ba83          	ld	s5,-1112(a3) # ba8 <.LBB21_3+0xe8>
    33ac:	01550ab3          	add	s5,a0,s5
    33b0:	00001537          	lui	a0,0x1
    33b4:	00a10533          	add	a0,sp,a0
    33b8:	bb553423          	sd	s5,-1112(a0) # ba8 <.LBB21_3+0xe8>
    33bc:	00001537          	lui	a0,0x1
    33c0:	00a10533          	add	a0,sp,a0
    33c4:	24053d83          	ld	s11,576(a0) # 1240 <.LBB21_3+0x780>
    33c8:	03b38533          	mul	a0,t2,s11
    33cc:	000016b7          	lui	a3,0x1
    33d0:	00d106b3          	add	a3,sp,a3
    33d4:	bb06ba83          	ld	s5,-1104(a3) # bb0 <.LBB21_3+0xf0>
    33d8:	01550ab3          	add	s5,a0,s5
    33dc:	00001537          	lui	a0,0x1
    33e0:	00a10533          	add	a0,sp,a0
    33e4:	bb553823          	sd	s5,-1104(a0) # bb0 <.LBB21_3+0xf0>
    33e8:	00001537          	lui	a0,0x1
    33ec:	00a10533          	add	a0,sp,a0
    33f0:	21253023          	sd	s2,512(a0) # 1200 <.LBB21_3+0x740>
    33f4:	03238533          	mul	a0,t2,s2
    33f8:	000016b7          	lui	a3,0x1
    33fc:	00d106b3          	add	a3,sp,a3
    3400:	bb86ba83          	ld	s5,-1096(a3) # bb8 <.LBB21_3+0xf8>
    3404:	01550ab3          	add	s5,a0,s5
    3408:	00001537          	lui	a0,0x1
    340c:	00a10533          	add	a0,sp,a0
    3410:	bb553c23          	sd	s5,-1096(a0) # bb8 <.LBB21_3+0xf8>
    3414:	00001537          	lui	a0,0x1
    3418:	00a10533          	add	a0,sp,a0
    341c:	22853303          	ld	t1,552(a0) # 1228 <.LBB21_3+0x768>
    3420:	02638533          	mul	a0,t2,t1
    3424:	000016b7          	lui	a3,0x1
    3428:	00d106b3          	add	a3,sp,a3
    342c:	bc06ba83          	ld	s5,-1088(a3) # bc0 <.LBB21_3+0x100>
    3430:	01550ab3          	add	s5,a0,s5
    3434:	00001537          	lui	a0,0x1
    3438:	00a10533          	add	a0,sp,a0
    343c:	bd553023          	sd	s5,-1088(a0) # bc0 <.LBB21_3+0x100>
    3440:	00001537          	lui	a0,0x1
    3444:	00a10533          	add	a0,sp,a0
    3448:	1f053c83          	ld	s9,496(a0) # 11f0 <.LBB21_3+0x730>
    344c:	03938533          	mul	a0,t2,s9
    3450:	000016b7          	lui	a3,0x1
    3454:	00d106b3          	add	a3,sp,a3
    3458:	bc86ba83          	ld	s5,-1080(a3) # bc8 <.LBB21_3+0x108>
    345c:	01550ab3          	add	s5,a0,s5
    3460:	00001537          	lui	a0,0x1
    3464:	00a10533          	add	a0,sp,a0
    3468:	bd553423          	sd	s5,-1080(a0) # bc8 <.LBB21_3+0x108>
    346c:	00001537          	lui	a0,0x1
    3470:	00a10533          	add	a0,sp,a0
    3474:	24e53c23          	sd	a4,600(a0) # 1258 <.LBB21_3+0x798>
    3478:	02e38533          	mul	a0,t2,a4
    347c:	000016b7          	lui	a3,0x1
    3480:	00d106b3          	add	a3,sp,a3
    3484:	bd06ba83          	ld	s5,-1072(a3) # bd0 <.LBB21_3+0x110>
    3488:	01550ab3          	add	s5,a0,s5
    348c:	00001537          	lui	a0,0x1
    3490:	00a10533          	add	a0,sp,a0
    3494:	bd553823          	sd	s5,-1072(a0) # bd0 <.LBB21_3+0x110>
    3498:	00001537          	lui	a0,0x1
    349c:	00a10533          	add	a0,sp,a0
    34a0:	1f853e03          	ld	t3,504(a0) # 11f8 <.LBB21_3+0x738>
    34a4:	03c38533          	mul	a0,t2,t3
    34a8:	000016b7          	lui	a3,0x1
    34ac:	00d106b3          	add	a3,sp,a3
    34b0:	bd86ba83          	ld	s5,-1064(a3) # bd8 <.LBB21_3+0x118>
    34b4:	01550ab3          	add	s5,a0,s5
    34b8:	00001537          	lui	a0,0x1
    34bc:	00a10533          	add	a0,sp,a0
    34c0:	bd553c23          	sd	s5,-1064(a0) # bd8 <.LBB21_3+0x118>
    34c4:	03438533          	mul	a0,t2,s4
    34c8:	000016b7          	lui	a3,0x1
    34cc:	00d106b3          	add	a3,sp,a3
    34d0:	be06ba83          	ld	s5,-1056(a3) # be0 <.LBB21_3+0x120>
    34d4:	01550ab3          	add	s5,a0,s5
    34d8:	00001537          	lui	a0,0x1
    34dc:	00a10533          	add	a0,sp,a0
    34e0:	bf553023          	sd	s5,-1056(a0) # be0 <.LBB21_3+0x120>
    34e4:	03f38533          	mul	a0,t2,t6
    34e8:	000016b7          	lui	a3,0x1
    34ec:	00d106b3          	add	a3,sp,a3
    34f0:	be86ba83          	ld	s5,-1048(a3) # be8 <.LBB21_3+0x128>
    34f4:	01550ab3          	add	s5,a0,s5
    34f8:	00001537          	lui	a0,0x1
    34fc:	00a10533          	add	a0,sp,a0
    3500:	bf553423          	sd	s5,-1048(a0) # be8 <.LBB21_3+0x128>
    3504:	03e38533          	mul	a0,t2,t5
    3508:	000016b7          	lui	a3,0x1
    350c:	00d106b3          	add	a3,sp,a3
    3510:	bf06ba83          	ld	s5,-1040(a3) # bf0 <.LBB21_3+0x130>
    3514:	01550ab3          	add	s5,a0,s5
    3518:	00001537          	lui	a0,0x1
    351c:	00a10533          	add	a0,sp,a0
    3520:	bf553823          	sd	s5,-1040(a0) # bf0 <.LBB21_3+0x130>
    3524:	00001537          	lui	a0,0x1
    3528:	00a10533          	add	a0,sp,a0
    352c:	2f053503          	ld	a0,752(a0) # 12f0 <.LBB21_3+0x830>
    3530:	03050503          	lb	a0,48(a0)
    3534:	03a38ab3          	mul	s5,t2,s10
    3538:	000016b7          	lui	a3,0x1
    353c:	00d106b3          	add	a3,sp,a3
    3540:	bf86bb83          	ld	s7,-1032(a3) # bf8 <.LBB21_3+0x138>
    3544:	017a8bb3          	add	s7,s5,s7
    3548:	000016b7          	lui	a3,0x1
    354c:	00d106b3          	add	a3,sp,a3
    3550:	bf76bc23          	sd	s7,-1032(a3) # bf8 <.LBB21_3+0x138>
    3554:	000016b7          	lui	a3,0x1
    3558:	00d106b3          	add	a3,sp,a3
    355c:	1e16b023          	sd	ra,480(a3) # 11e0 <.LBB21_3+0x720>
    3560:	021383b3          	mul	t2,t2,ra
    3564:	000016b7          	lui	a3,0x1
    3568:	00d106b3          	add	a3,sp,a3
    356c:	c006ba83          	ld	s5,-1024(a3) # c00 <.LBB21_3+0x140>
    3570:	01538ab3          	add	s5,t2,s5
    3574:	000016b7          	lui	a3,0x1
    3578:	00d106b3          	add	a3,sp,a3
    357c:	c156b023          	sd	s5,-1024(a3) # c00 <.LBB21_3+0x140>
    3580:	02c503b3          	mul	t2,a0,a2
    3584:	00001637          	lui	a2,0x1
    3588:	00c10633          	add	a2,sp,a2
    358c:	c2863a83          	ld	s5,-984(a2) # c28 <.LBB21_3+0x168>
    3590:	01538ab3          	add	s5,t2,s5
    3594:	00001637          	lui	a2,0x1
    3598:	00c10633          	add	a2,sp,a2
    359c:	c3563423          	sd	s5,-984(a2) # c28 <.LBB21_3+0x168>
    35a0:	00001637          	lui	a2,0x1
    35a4:	00c10633          	add	a2,sp,a2
    35a8:	2a063d03          	ld	s10,672(a2) # 12a0 <.LBB21_3+0x7e0>
    35ac:	03a503b3          	mul	t2,a0,s10
    35b0:	00001637          	lui	a2,0x1
    35b4:	00c10633          	add	a2,sp,a2
    35b8:	c2063a83          	ld	s5,-992(a2) # c20 <.LBB21_3+0x160>
    35bc:	01538ab3          	add	s5,t2,s5
    35c0:	00001637          	lui	a2,0x1
    35c4:	00c10633          	add	a2,sp,a2
    35c8:	c3563023          	sd	s5,-992(a2) # c20 <.LBB21_3+0x160>
    35cc:	00001637          	lui	a2,0x1
    35d0:	00c10633          	add	a2,sp,a2
    35d4:	2e863603          	ld	a2,744(a2) # 12e8 <.LBB21_3+0x828>
    35d8:	02c503b3          	mul	t2,a0,a2
    35dc:	000016b7          	lui	a3,0x1
    35e0:	00d106b3          	add	a3,sp,a3
    35e4:	c186ba83          	ld	s5,-1000(a3) # c18 <.LBB21_3+0x158>
    35e8:	01538ab3          	add	s5,t2,s5
    35ec:	000016b7          	lui	a3,0x1
    35f0:	00d106b3          	add	a3,sp,a3
    35f4:	c156bc23          	sd	s5,-1000(a3) # c18 <.LBB21_3+0x158>
    35f8:	000016b7          	lui	a3,0x1
    35fc:	00d106b3          	add	a3,sp,a3
    3600:	2b06b803          	ld	a6,688(a3) # 12b0 <.LBB21_3+0x7f0>
    3604:	030503b3          	mul	t2,a0,a6
    3608:	000016b7          	lui	a3,0x1
    360c:	00d106b3          	add	a3,sp,a3
    3610:	c106ba83          	ld	s5,-1008(a3) # c10 <.LBB21_3+0x150>
    3614:	01538ab3          	add	s5,t2,s5
    3618:	000016b7          	lui	a3,0x1
    361c:	00d106b3          	add	a3,sp,a3
    3620:	c156b823          	sd	s5,-1008(a3) # c10 <.LBB21_3+0x150>
    3624:	02b503b3          	mul	t2,a0,a1
    3628:	000015b7          	lui	a1,0x1
    362c:	00b105b3          	add	a1,sp,a1
    3630:	c085ba83          	ld	s5,-1016(a1) # c08 <.LBB21_3+0x148>
    3634:	01538ab3          	add	s5,t2,s5
    3638:	000015b7          	lui	a1,0x1
    363c:	00b105b3          	add	a1,sp,a1
    3640:	c155b423          	sd	s5,-1016(a1) # c08 <.LBB21_3+0x148>
    3644:	000015b7          	lui	a1,0x1
    3648:	00b105b3          	add	a1,sp,a1
    364c:	2105b683          	ld	a3,528(a1) # 1210 <.LBB21_3+0x750>
    3650:	02d503b3          	mul	t2,a0,a3
    3654:	000015b7          	lui	a1,0x1
    3658:	00b105b3          	add	a1,sp,a1
    365c:	c305ba83          	ld	s5,-976(a1) # c30 <.LBB21_3+0x170>
    3660:	01538ab3          	add	s5,t2,s5
    3664:	000015b7          	lui	a1,0x1
    3668:	00b105b3          	add	a1,sp,a1
    366c:	c355b823          	sd	s5,-976(a1) # c30 <.LBB21_3+0x170>
    3670:	000015b7          	lui	a1,0x1
    3674:	00b105b3          	add	a1,sp,a1
    3678:	2a85bf03          	ld	t5,680(a1) # 12a8 <.LBB21_3+0x7e8>
    367c:	03e503b3          	mul	t2,a0,t5
    3680:	000015b7          	lui	a1,0x1
    3684:	00b105b3          	add	a1,sp,a1
    3688:	c385ba83          	ld	s5,-968(a1) # c38 <.LBB21_3+0x178>
    368c:	01538ab3          	add	s5,t2,s5
    3690:	000015b7          	lui	a1,0x1
    3694:	00b105b3          	add	a1,sp,a1
    3698:	c355bc23          	sd	s5,-968(a1) # c38 <.LBB21_3+0x178>
    369c:	000015b7          	lui	a1,0x1
    36a0:	00b105b3          	add	a1,sp,a1
    36a4:	2c85bf83          	ld	t6,712(a1) # 12c8 <.LBB21_3+0x808>
    36a8:	03f503b3          	mul	t2,a0,t6
    36ac:	000015b7          	lui	a1,0x1
    36b0:	00b105b3          	add	a1,sp,a1
    36b4:	c405ba83          	ld	s5,-960(a1) # c40 <.LBB21_3+0x180>
    36b8:	01538ab3          	add	s5,t2,s5
    36bc:	000015b7          	lui	a1,0x1
    36c0:	00b105b3          	add	a1,sp,a1
    36c4:	c555b023          	sd	s5,-960(a1) # c40 <.LBB21_3+0x180>
    36c8:	033503b3          	mul	t2,a0,s3
    36cc:	000015b7          	lui	a1,0x1
    36d0:	00b105b3          	add	a1,sp,a1
    36d4:	c485ba83          	ld	s5,-952(a1) # c48 <.LBB21_3+0x188>
    36d8:	01538ab3          	add	s5,t2,s5
    36dc:	000015b7          	lui	a1,0x1
    36e0:	00b105b3          	add	a1,sp,a1
    36e4:	c555b423          	sd	s5,-952(a1) # c48 <.LBB21_3+0x188>
    36e8:	000015b7          	lui	a1,0x1
    36ec:	00b105b3          	add	a1,sp,a1
    36f0:	2085ba03          	ld	s4,520(a1) # 1208 <.LBB21_3+0x748>
    36f4:	034503b3          	mul	t2,a0,s4
    36f8:	000015b7          	lui	a1,0x1
    36fc:	00b105b3          	add	a1,sp,a1
    3700:	c505ba83          	ld	s5,-944(a1) # c50 <.LBB21_3+0x190>
    3704:	01538ab3          	add	s5,t2,s5
    3708:	000015b7          	lui	a1,0x1
    370c:	00b105b3          	add	a1,sp,a1
    3710:	c555b823          	sd	s5,-944(a1) # c50 <.LBB21_3+0x190>
    3714:	038503b3          	mul	t2,a0,s8
    3718:	000015b7          	lui	a1,0x1
    371c:	00b105b3          	add	a1,sp,a1
    3720:	c585ba83          	ld	s5,-936(a1) # c58 <.LBB21_3+0x198>
    3724:	01538ab3          	add	s5,t2,s5
    3728:	000015b7          	lui	a1,0x1
    372c:	00b105b3          	add	a1,sp,a1
    3730:	c555bc23          	sd	s5,-936(a1) # c58 <.LBB21_3+0x198>
    3734:	000015b7          	lui	a1,0x1
    3738:	00b105b3          	add	a1,sp,a1
    373c:	2605b583          	ld	a1,608(a1) # 1260 <.LBB21_3+0x7a0>
    3740:	02b503b3          	mul	t2,a0,a1
    3744:	000015b7          	lui	a1,0x1
    3748:	00b105b3          	add	a1,sp,a1
    374c:	c605ba83          	ld	s5,-928(a1) # c60 <.LBB21_3+0x1a0>
    3750:	01538ab3          	add	s5,t2,s5
    3754:	000015b7          	lui	a1,0x1
    3758:	00b105b3          	add	a1,sp,a1
    375c:	c755b023          	sd	s5,-928(a1) # c60 <.LBB21_3+0x1a0>
    3760:	029503b3          	mul	t2,a0,s1
    3764:	000015b7          	lui	a1,0x1
    3768:	00b105b3          	add	a1,sp,a1
    376c:	c685ba83          	ld	s5,-920(a1) # c68 <.LBB21_3+0x1a8>
    3770:	01538ab3          	add	s5,t2,s5
    3774:	000015b7          	lui	a1,0x1
    3778:	00b105b3          	add	a1,sp,a1
    377c:	c755b423          	sd	s5,-920(a1) # c68 <.LBB21_3+0x1a8>
    3780:	031503b3          	mul	t2,a0,a7
    3784:	000015b7          	lui	a1,0x1
    3788:	00b105b3          	add	a1,sp,a1
    378c:	c705ba83          	ld	s5,-912(a1) # c70 <.LBB21_3+0x1b0>
    3790:	01538ab3          	add	s5,t2,s5
    3794:	000015b7          	lui	a1,0x1
    3798:	00b105b3          	add	a1,sp,a1
    379c:	c755b823          	sd	s5,-912(a1) # c70 <.LBB21_3+0x1b0>
    37a0:	000015b7          	lui	a1,0x1
    37a4:	00b105b3          	add	a1,sp,a1
    37a8:	2505b283          	ld	t0,592(a1) # 1250 <.LBB21_3+0x790>
    37ac:	025503b3          	mul	t2,a0,t0
    37b0:	000015b7          	lui	a1,0x1
    37b4:	00b105b3          	add	a1,sp,a1
    37b8:	c785ba83          	ld	s5,-904(a1) # c78 <.LBB21_3+0x1b8>
    37bc:	01538ab3          	add	s5,t2,s5
    37c0:	000015b7          	lui	a1,0x1
    37c4:	00b105b3          	add	a1,sp,a1
    37c8:	c755bc23          	sd	s5,-904(a1) # c78 <.LBB21_3+0x1b8>
    37cc:	000015b7          	lui	a1,0x1
    37d0:	00b105b3          	add	a1,sp,a1
    37d4:	2d05b583          	ld	a1,720(a1) # 12d0 <.LBB21_3+0x810>
    37d8:	02b503b3          	mul	t2,a0,a1
    37dc:	000015b7          	lui	a1,0x1
    37e0:	00b105b3          	add	a1,sp,a1
    37e4:	c805ba83          	ld	s5,-896(a1) # c80 <.LBB21_3+0x1c0>
    37e8:	01538ab3          	add	s5,t2,s5
    37ec:	000015b7          	lui	a1,0x1
    37f0:	00b105b3          	add	a1,sp,a1
    37f4:	c955b023          	sd	s5,-896(a1) # c80 <.LBB21_3+0x1c0>
    37f8:	000015b7          	lui	a1,0x1
    37fc:	00b105b3          	add	a1,sp,a1
    3800:	2d85b583          	ld	a1,728(a1) # 12d8 <.LBB21_3+0x818>
    3804:	02b503b3          	mul	t2,a0,a1
    3808:	000015b7          	lui	a1,0x1
    380c:	00b105b3          	add	a1,sp,a1
    3810:	c885ba83          	ld	s5,-888(a1) # c88 <.LBB21_3+0x1c8>
    3814:	01538ab3          	add	s5,t2,s5
    3818:	000015b7          	lui	a1,0x1
    381c:	00b105b3          	add	a1,sp,a1
    3820:	c955b423          	sd	s5,-888(a1) # c88 <.LBB21_3+0x1c8>
    3824:	000015b7          	lui	a1,0x1
    3828:	00b105b3          	add	a1,sp,a1
    382c:	2e05b583          	ld	a1,736(a1) # 12e0 <.LBB21_3+0x820>
    3830:	02b503b3          	mul	t2,a0,a1
    3834:	000015b7          	lui	a1,0x1
    3838:	00b105b3          	add	a1,sp,a1
    383c:	c905ba83          	ld	s5,-880(a1) # c90 <.LBB21_3+0x1d0>
    3840:	01538ab3          	add	s5,t2,s5
    3844:	000015b7          	lui	a1,0x1
    3848:	00b105b3          	add	a1,sp,a1
    384c:	c955b823          	sd	s5,-880(a1) # c90 <.LBB21_3+0x1d0>
    3850:	03d503b3          	mul	t2,a0,t4
    3854:	000015b7          	lui	a1,0x1
    3858:	00b105b3          	add	a1,sp,a1
    385c:	c985ba83          	ld	s5,-872(a1) # c98 <.LBB21_3+0x1d8>
    3860:	01538ab3          	add	s5,t2,s5
    3864:	000015b7          	lui	a1,0x1
    3868:	00b105b3          	add	a1,sp,a1
    386c:	c955bc23          	sd	s5,-872(a1) # c98 <.LBB21_3+0x1d8>
    3870:	02f503b3          	mul	t2,a0,a5
    3874:	000015b7          	lui	a1,0x1
    3878:	00b105b3          	add	a1,sp,a1
    387c:	ca05ba83          	ld	s5,-864(a1) # ca0 <.LBB21_3+0x1e0>
    3880:	01538ab3          	add	s5,t2,s5
    3884:	000015b7          	lui	a1,0x1
    3888:	00b105b3          	add	a1,sp,a1
    388c:	cb55b023          	sd	s5,-864(a1) # ca0 <.LBB21_3+0x1e0>
    3890:	036503b3          	mul	t2,a0,s6
    3894:	000015b7          	lui	a1,0x1
    3898:	00b105b3          	add	a1,sp,a1
    389c:	ca85ba83          	ld	s5,-856(a1) # ca8 <.LBB21_3+0x1e8>
    38a0:	01538ab3          	add	s5,t2,s5
    38a4:	000015b7          	lui	a1,0x1
    38a8:	00b105b3          	add	a1,sp,a1
    38ac:	cb55b423          	sd	s5,-856(a1) # ca8 <.LBB21_3+0x1e8>
    38b0:	03b503b3          	mul	t2,a0,s11
    38b4:	000015b7          	lui	a1,0x1
    38b8:	00b105b3          	add	a1,sp,a1
    38bc:	cb05ba83          	ld	s5,-848(a1) # cb0 <.LBB21_3+0x1f0>
    38c0:	01538ab3          	add	s5,t2,s5
    38c4:	000015b7          	lui	a1,0x1
    38c8:	00b105b3          	add	a1,sp,a1
    38cc:	cb55b823          	sd	s5,-848(a1) # cb0 <.LBB21_3+0x1f0>
    38d0:	032503b3          	mul	t2,a0,s2
    38d4:	000015b7          	lui	a1,0x1
    38d8:	00b105b3          	add	a1,sp,a1
    38dc:	cb85ba83          	ld	s5,-840(a1) # cb8 <.LBB21_3+0x1f8>
    38e0:	01538ab3          	add	s5,t2,s5
    38e4:	000015b7          	lui	a1,0x1
    38e8:	00b105b3          	add	a1,sp,a1
    38ec:	cb55bc23          	sd	s5,-840(a1) # cb8 <.LBB21_3+0x1f8>
    38f0:	00030793          	mv	a5,t1
    38f4:	026503b3          	mul	t2,a0,t1
    38f8:	000015b7          	lui	a1,0x1
    38fc:	00b105b3          	add	a1,sp,a1
    3900:	cc05ba83          	ld	s5,-832(a1) # cc0 <.LBB21_3+0x200>
    3904:	01538ab3          	add	s5,t2,s5
    3908:	000015b7          	lui	a1,0x1
    390c:	00b105b3          	add	a1,sp,a1
    3910:	cd55b023          	sd	s5,-832(a1) # cc0 <.LBB21_3+0x200>
    3914:	039503b3          	mul	t2,a0,s9
    3918:	000015b7          	lui	a1,0x1
    391c:	00b105b3          	add	a1,sp,a1
    3920:	cc85ba83          	ld	s5,-824(a1) # cc8 <.LBB21_3+0x208>
    3924:	01538ab3          	add	s5,t2,s5
    3928:	000015b7          	lui	a1,0x1
    392c:	00b105b3          	add	a1,sp,a1
    3930:	cd55b423          	sd	s5,-824(a1) # cc8 <.LBB21_3+0x208>
    3934:	02e503b3          	mul	t2,a0,a4
    3938:	000015b7          	lui	a1,0x1
    393c:	00b105b3          	add	a1,sp,a1
    3940:	cd05ba83          	ld	s5,-816(a1) # cd0 <.LBB21_3+0x210>
    3944:	01538ab3          	add	s5,t2,s5
    3948:	000015b7          	lui	a1,0x1
    394c:	00b105b3          	add	a1,sp,a1
    3950:	cd55b823          	sd	s5,-816(a1) # cd0 <.LBB21_3+0x210>
    3954:	000e0713          	mv	a4,t3
    3958:	03c503b3          	mul	t2,a0,t3
    395c:	000015b7          	lui	a1,0x1
    3960:	00b105b3          	add	a1,sp,a1
    3964:	cd85ba83          	ld	s5,-808(a1) # cd8 <.LBB21_3+0x218>
    3968:	01538ab3          	add	s5,t2,s5
    396c:	000015b7          	lui	a1,0x1
    3970:	00b105b3          	add	a1,sp,a1
    3974:	cd55bc23          	sd	s5,-808(a1) # cd8 <.LBB21_3+0x218>
    3978:	000015b7          	lui	a1,0x1
    397c:	00b105b3          	add	a1,sp,a1
    3980:	1d85bc03          	ld	s8,472(a1) # 11d8 <.LBB21_3+0x718>
    3984:	038503b3          	mul	t2,a0,s8
    3988:	000015b7          	lui	a1,0x1
    398c:	00b105b3          	add	a1,sp,a1
    3990:	ce05ba83          	ld	s5,-800(a1) # ce0 <.LBB21_3+0x220>
    3994:	01538ab3          	add	s5,t2,s5
    3998:	000015b7          	lui	a1,0x1
    399c:	00b105b3          	add	a1,sp,a1
    39a0:	cf55b023          	sd	s5,-800(a1) # ce0 <.LBB21_3+0x220>
    39a4:	000015b7          	lui	a1,0x1
    39a8:	00b105b3          	add	a1,sp,a1
    39ac:	1d05bc83          	ld	s9,464(a1) # 11d0 <.LBB21_3+0x710>
    39b0:	039503b3          	mul	t2,a0,s9
    39b4:	000015b7          	lui	a1,0x1
    39b8:	00b105b3          	add	a1,sp,a1
    39bc:	ce85ba83          	ld	s5,-792(a1) # ce8 <.LBB21_3+0x228>
    39c0:	01538ab3          	add	s5,t2,s5
    39c4:	000015b7          	lui	a1,0x1
    39c8:	00b105b3          	add	a1,sp,a1
    39cc:	cf55b423          	sd	s5,-792(a1) # ce8 <.LBB21_3+0x228>
    39d0:	000015b7          	lui	a1,0x1
    39d4:	00b105b3          	add	a1,sp,a1
    39d8:	1e85be83          	ld	t4,488(a1) # 11e8 <.LBB21_3+0x728>
    39dc:	03d503b3          	mul	t2,a0,t4
    39e0:	000015b7          	lui	a1,0x1
    39e4:	00b105b3          	add	a1,sp,a1
    39e8:	cf05ba83          	ld	s5,-784(a1) # cf0 <.LBB21_3+0x230>
    39ec:	01538ab3          	add	s5,t2,s5
    39f0:	000015b7          	lui	a1,0x1
    39f4:	00b105b3          	add	a1,sp,a1
    39f8:	cf55b823          	sd	s5,-784(a1) # cf0 <.LBB21_3+0x230>
    39fc:	000015b7          	lui	a1,0x1
    3a00:	00b105b3          	add	a1,sp,a1
    3a04:	2f05b383          	ld	t2,752(a1) # 12f0 <.LBB21_3+0x830>
    3a08:	04838383          	lb	t2,72(t2)
    3a0c:	000015b7          	lui	a1,0x1
    3a10:	00b105b3          	add	a1,sp,a1
    3a14:	9f05b303          	ld	t1,-1552(a1) # 9f0 <.LBB21_1+0x8d8>
    3a18:	02650ab3          	mul	s5,a0,t1
    3a1c:	000015b7          	lui	a1,0x1
    3a20:	00b105b3          	add	a1,sp,a1
    3a24:	cf85bb83          	ld	s7,-776(a1) # cf8 <.LBB21_3+0x238>
    3a28:	017a8bb3          	add	s7,s5,s7
    3a2c:	000015b7          	lui	a1,0x1
    3a30:	00b105b3          	add	a1,sp,a1
    3a34:	cf75bc23          	sd	s7,-776(a1) # cf8 <.LBB21_3+0x238>
    3a38:	02150533          	mul	a0,a0,ra
    3a3c:	000015b7          	lui	a1,0x1
    3a40:	00b105b3          	add	a1,sp,a1
    3a44:	d005ba83          	ld	s5,-768(a1) # d00 <.LBB21_3+0x240>
    3a48:	01550ab3          	add	s5,a0,s5
    3a4c:	00001537          	lui	a0,0x1
    3a50:	00a10533          	add	a0,sp,a0
    3a54:	d1553023          	sd	s5,-768(a0) # d00 <.LBB21_3+0x240>
    3a58:	00001537          	lui	a0,0x1
    3a5c:	00a10533          	add	a0,sp,a0
    3a60:	2b853503          	ld	a0,696(a0) # 12b8 <.LBB21_3+0x7f8>
    3a64:	02a38533          	mul	a0,t2,a0
    3a68:	000015b7          	lui	a1,0x1
    3a6c:	00b105b3          	add	a1,sp,a1
    3a70:	d205ba83          	ld	s5,-736(a1) # d20 <.LBB21_3+0x260>
    3a74:	01550ab3          	add	s5,a0,s5
    3a78:	00001537          	lui	a0,0x1
    3a7c:	00a10533          	add	a0,sp,a0
    3a80:	d3553023          	sd	s5,-736(a0) # d20 <.LBB21_3+0x260>
    3a84:	000d0893          	mv	a7,s10
    3a88:	03a38533          	mul	a0,t2,s10
    3a8c:	000015b7          	lui	a1,0x1
    3a90:	00b105b3          	add	a1,sp,a1
    3a94:	d185ba83          	ld	s5,-744(a1) # d18 <.LBB21_3+0x258>
    3a98:	01550ab3          	add	s5,a0,s5
    3a9c:	00001537          	lui	a0,0x1
    3aa0:	00a10533          	add	a0,sp,a0
    3aa4:	d1553c23          	sd	s5,-744(a0) # d18 <.LBB21_3+0x258>
    3aa8:	00060593          	mv	a1,a2
    3aac:	02c38533          	mul	a0,t2,a2
    3ab0:	00001637          	lui	a2,0x1
    3ab4:	00c10633          	add	a2,sp,a2
    3ab8:	d1063a83          	ld	s5,-752(a2) # d10 <.LBB21_3+0x250>
    3abc:	01550ab3          	add	s5,a0,s5
    3ac0:	00001537          	lui	a0,0x1
    3ac4:	00a10533          	add	a0,sp,a0
    3ac8:	d1553823          	sd	s5,-752(a0) # d10 <.LBB21_3+0x250>
    3acc:	03038533          	mul	a0,t2,a6
    3ad0:	00080d13          	mv	s10,a6
    3ad4:	00001637          	lui	a2,0x1
    3ad8:	00c10633          	add	a2,sp,a2
    3adc:	d0863a83          	ld	s5,-760(a2) # d08 <.LBB21_3+0x248>
    3ae0:	01550ab3          	add	s5,a0,s5
    3ae4:	00001537          	lui	a0,0x1
    3ae8:	00a10533          	add	a0,sp,a0
    3aec:	d1553423          	sd	s5,-760(a0) # d08 <.LBB21_3+0x248>
    3af0:	00001537          	lui	a0,0x1
    3af4:	00a10533          	add	a0,sp,a0
    3af8:	23053083          	ld	ra,560(a0) # 1230 <.LBB21_3+0x770>
    3afc:	02138533          	mul	a0,t2,ra
    3b00:	00001637          	lui	a2,0x1
    3b04:	00c10633          	add	a2,sp,a2
    3b08:	a7863a83          	ld	s5,-1416(a2) # a78 <.LBB21_2+0x50>
    3b0c:	01550ab3          	add	s5,a0,s5
    3b10:	00001537          	lui	a0,0x1
    3b14:	00a10533          	add	a0,sp,a0
    3b18:	a7553c23          	sd	s5,-1416(a0) # a78 <.LBB21_2+0x50>
    3b1c:	02d38533          	mul	a0,t2,a3
    3b20:	00001637          	lui	a2,0x1
    3b24:	00c10633          	add	a2,sp,a2
    3b28:	d2863a83          	ld	s5,-728(a2) # d28 <.LBB21_3+0x268>
    3b2c:	01550ab3          	add	s5,a0,s5
    3b30:	00001537          	lui	a0,0x1
    3b34:	00a10533          	add	a0,sp,a0
    3b38:	d3553423          	sd	s5,-728(a0) # d28 <.LBB21_3+0x268>
    3b3c:	03e38533          	mul	a0,t2,t5
    3b40:	00001637          	lui	a2,0x1
    3b44:	00c10633          	add	a2,sp,a2
    3b48:	d3063a83          	ld	s5,-720(a2) # d30 <.LBB21_3+0x270>
    3b4c:	01550ab3          	add	s5,a0,s5
    3b50:	00001537          	lui	a0,0x1
    3b54:	00a10533          	add	a0,sp,a0
    3b58:	d3553823          	sd	s5,-720(a0) # d30 <.LBB21_3+0x270>
    3b5c:	03f38533          	mul	a0,t2,t6
    3b60:	00001637          	lui	a2,0x1
    3b64:	00c10633          	add	a2,sp,a2
    3b68:	d3863a83          	ld	s5,-712(a2) # d38 <.LBB21_3+0x278>
    3b6c:	01550ab3          	add	s5,a0,s5
    3b70:	00001537          	lui	a0,0x1
    3b74:	00a10533          	add	a0,sp,a0
    3b78:	d3553c23          	sd	s5,-712(a0) # d38 <.LBB21_3+0x278>
    3b7c:	03338533          	mul	a0,t2,s3
    3b80:	00001637          	lui	a2,0x1
    3b84:	00c10633          	add	a2,sp,a2
    3b88:	d4063a83          	ld	s5,-704(a2) # d40 <.LBB21_3+0x280>
    3b8c:	01550ab3          	add	s5,a0,s5
    3b90:	00001537          	lui	a0,0x1
    3b94:	00a10533          	add	a0,sp,a0
    3b98:	d5553023          	sd	s5,-704(a0) # d40 <.LBB21_3+0x280>
    3b9c:	03438533          	mul	a0,t2,s4
    3ba0:	00001637          	lui	a2,0x1
    3ba4:	00c10633          	add	a2,sp,a2
    3ba8:	d4863a83          	ld	s5,-696(a2) # d48 <.LBB21_3+0x288>
    3bac:	01550ab3          	add	s5,a0,s5
    3bb0:	00001537          	lui	a0,0x1
    3bb4:	00a10533          	add	a0,sp,a0
    3bb8:	d5553423          	sd	s5,-696(a0) # d48 <.LBB21_3+0x288>
    3bbc:	00001537          	lui	a0,0x1
    3bc0:	00a10533          	add	a0,sp,a0
    3bc4:	21853603          	ld	a2,536(a0) # 1218 <.LBB21_3+0x758>
    3bc8:	02c38533          	mul	a0,t2,a2
    3bcc:	000016b7          	lui	a3,0x1
    3bd0:	00d106b3          	add	a3,sp,a3
    3bd4:	d506ba83          	ld	s5,-688(a3) # d50 <.LBB21_3+0x290>
    3bd8:	01550ab3          	add	s5,a0,s5
    3bdc:	00001537          	lui	a0,0x1
    3be0:	00a10533          	add	a0,sp,a0
    3be4:	d5553823          	sd	s5,-688(a0) # d50 <.LBB21_3+0x290>
    3be8:	00001537          	lui	a0,0x1
    3bec:	00a10533          	add	a0,sp,a0
    3bf0:	26053903          	ld	s2,608(a0) # 1260 <.LBB21_3+0x7a0>
    3bf4:	03238533          	mul	a0,t2,s2
    3bf8:	000016b7          	lui	a3,0x1
    3bfc:	00d106b3          	add	a3,sp,a3
    3c00:	d586ba83          	ld	s5,-680(a3) # d58 <.LBB21_3+0x298>
    3c04:	01550ab3          	add	s5,a0,s5
    3c08:	00001537          	lui	a0,0x1
    3c0c:	00a10533          	add	a0,sp,a0
    3c10:	d5553c23          	sd	s5,-680(a0) # d58 <.LBB21_3+0x298>
    3c14:	02938533          	mul	a0,t2,s1
    3c18:	000016b7          	lui	a3,0x1
    3c1c:	00d106b3          	add	a3,sp,a3
    3c20:	d606ba83          	ld	s5,-672(a3) # d60 <.LBB21_3+0x2a0>
    3c24:	01550ab3          	add	s5,a0,s5
    3c28:	00001537          	lui	a0,0x1
    3c2c:	00a10533          	add	a0,sp,a0
    3c30:	d7553023          	sd	s5,-672(a0) # d60 <.LBB21_3+0x2a0>
    3c34:	00001537          	lui	a0,0x1
    3c38:	00a10533          	add	a0,sp,a0
    3c3c:	1c853683          	ld	a3,456(a0) # 11c8 <.LBB21_3+0x708>
    3c40:	02d38533          	mul	a0,t2,a3
    3c44:	00001837          	lui	a6,0x1
    3c48:	01010833          	add	a6,sp,a6
    3c4c:	d6883a83          	ld	s5,-664(a6) # d68 <.LBB21_3+0x2a8>
    3c50:	01550ab3          	add	s5,a0,s5
    3c54:	00001537          	lui	a0,0x1
    3c58:	00a10533          	add	a0,sp,a0
    3c5c:	d7553423          	sd	s5,-664(a0) # d68 <.LBB21_3+0x2a8>
    3c60:	02538533          	mul	a0,t2,t0
    3c64:	00001837          	lui	a6,0x1
    3c68:	01010833          	add	a6,sp,a6
    3c6c:	d7083a83          	ld	s5,-656(a6) # d70 <.LBB21_3+0x2b0>
    3c70:	01550ab3          	add	s5,a0,s5
    3c74:	00001537          	lui	a0,0x1
    3c78:	00a10533          	add	a0,sp,a0
    3c7c:	d7553823          	sd	s5,-656(a0) # d70 <.LBB21_3+0x2b0>
    3c80:	00001537          	lui	a0,0x1
    3c84:	00a10533          	add	a0,sp,a0
    3c88:	2d053f03          	ld	t5,720(a0) # 12d0 <.LBB21_3+0x810>
    3c8c:	03e38533          	mul	a0,t2,t5
    3c90:	00001837          	lui	a6,0x1
    3c94:	01010833          	add	a6,sp,a6
    3c98:	d7883a83          	ld	s5,-648(a6) # d78 <.LBB21_3+0x2b8>
    3c9c:	01550ab3          	add	s5,a0,s5
    3ca0:	00001537          	lui	a0,0x1
    3ca4:	00a10533          	add	a0,sp,a0
    3ca8:	d7553c23          	sd	s5,-648(a0) # d78 <.LBB21_3+0x2b8>
    3cac:	00001537          	lui	a0,0x1
    3cb0:	00a10533          	add	a0,sp,a0
    3cb4:	2d853283          	ld	t0,728(a0) # 12d8 <.LBB21_3+0x818>
    3cb8:	02538533          	mul	a0,t2,t0
    3cbc:	00001837          	lui	a6,0x1
    3cc0:	01010833          	add	a6,sp,a6
    3cc4:	d8083a83          	ld	s5,-640(a6) # d80 <.LBB21_3+0x2c0>
    3cc8:	01550ab3          	add	s5,a0,s5
    3ccc:	00001537          	lui	a0,0x1
    3cd0:	00a10533          	add	a0,sp,a0
    3cd4:	d9553023          	sd	s5,-640(a0) # d80 <.LBB21_3+0x2c0>
    3cd8:	00001537          	lui	a0,0x1
    3cdc:	00a10533          	add	a0,sp,a0
    3ce0:	2e053f83          	ld	t6,736(a0) # 12e0 <.LBB21_3+0x820>
    3ce4:	03f38533          	mul	a0,t2,t6
    3ce8:	00001837          	lui	a6,0x1
    3cec:	01010833          	add	a6,sp,a6
    3cf0:	d8883a83          	ld	s5,-632(a6) # d88 <.LBB21_3+0x2c8>
    3cf4:	01550ab3          	add	s5,a0,s5
    3cf8:	00001537          	lui	a0,0x1
    3cfc:	00a10533          	add	a0,sp,a0
    3d00:	d9553423          	sd	s5,-632(a0) # d88 <.LBB21_3+0x2c8>
    3d04:	00001537          	lui	a0,0x1
    3d08:	00a10533          	add	a0,sp,a0
    3d0c:	23853983          	ld	s3,568(a0) # 1238 <.LBB21_3+0x778>
    3d10:	03338533          	mul	a0,t2,s3
    3d14:	00001837          	lui	a6,0x1
    3d18:	01010833          	add	a6,sp,a6
    3d1c:	d9083a83          	ld	s5,-624(a6) # d90 <.LBB21_3+0x2d0>
    3d20:	01550ab3          	add	s5,a0,s5
    3d24:	00001537          	lui	a0,0x1
    3d28:	00a10533          	add	a0,sp,a0
    3d2c:	d9553823          	sd	s5,-624(a0) # d90 <.LBB21_3+0x2d0>
    3d30:	00001537          	lui	a0,0x1
    3d34:	00a10533          	add	a0,sp,a0
    3d38:	22053a03          	ld	s4,544(a0) # 1220 <.LBB21_3+0x760>
    3d3c:	03438533          	mul	a0,t2,s4
    3d40:	00001837          	lui	a6,0x1
    3d44:	01010833          	add	a6,sp,a6
    3d48:	d9883a83          	ld	s5,-616(a6) # d98 <.LBB21_3+0x2d8>
    3d4c:	01550ab3          	add	s5,a0,s5
    3d50:	00001537          	lui	a0,0x1
    3d54:	00a10533          	add	a0,sp,a0
    3d58:	d9553c23          	sd	s5,-616(a0) # d98 <.LBB21_3+0x2d8>
    3d5c:	03638533          	mul	a0,t2,s6
    3d60:	00001837          	lui	a6,0x1
    3d64:	01010833          	add	a6,sp,a6
    3d68:	da083a83          	ld	s5,-608(a6) # da0 <.LBB21_3+0x2e0>
    3d6c:	01550ab3          	add	s5,a0,s5
    3d70:	00001537          	lui	a0,0x1
    3d74:	00a10533          	add	a0,sp,a0
    3d78:	db553023          	sd	s5,-608(a0) # da0 <.LBB21_3+0x2e0>
    3d7c:	03b38533          	mul	a0,t2,s11
    3d80:	00001837          	lui	a6,0x1
    3d84:	01010833          	add	a6,sp,a6
    3d88:	da883a83          	ld	s5,-600(a6) # da8 <.LBB21_3+0x2e8>
    3d8c:	01550ab3          	add	s5,a0,s5
    3d90:	00001537          	lui	a0,0x1
    3d94:	00a10533          	add	a0,sp,a0
    3d98:	db553423          	sd	s5,-600(a0) # da8 <.LBB21_3+0x2e8>
    3d9c:	00001537          	lui	a0,0x1
    3da0:	00a10533          	add	a0,sp,a0
    3da4:	20053503          	ld	a0,512(a0) # 1200 <.LBB21_3+0x740>
    3da8:	02a38533          	mul	a0,t2,a0
    3dac:	00001837          	lui	a6,0x1
    3db0:	01010833          	add	a6,sp,a6
    3db4:	db083a83          	ld	s5,-592(a6) # db0 <.LBB21_3+0x2f0>
    3db8:	01550ab3          	add	s5,a0,s5
    3dbc:	00001537          	lui	a0,0x1
    3dc0:	00a10533          	add	a0,sp,a0
    3dc4:	db553823          	sd	s5,-592(a0) # db0 <.LBB21_3+0x2f0>
    3dc8:	02f38533          	mul	a0,t2,a5
    3dcc:	000017b7          	lui	a5,0x1
    3dd0:	00f107b3          	add	a5,sp,a5
    3dd4:	db87ba83          	ld	s5,-584(a5) # db8 <.LBB21_3+0x2f8>
    3dd8:	01550ab3          	add	s5,a0,s5
    3ddc:	00001537          	lui	a0,0x1
    3de0:	00a10533          	add	a0,sp,a0
    3de4:	db553c23          	sd	s5,-584(a0) # db8 <.LBB21_3+0x2f8>
    3de8:	00001537          	lui	a0,0x1
    3dec:	00a10533          	add	a0,sp,a0
    3df0:	1f053e03          	ld	t3,496(a0) # 11f0 <.LBB21_3+0x730>
    3df4:	03c38533          	mul	a0,t2,t3
    3df8:	000017b7          	lui	a5,0x1
    3dfc:	00f107b3          	add	a5,sp,a5
    3e00:	dc07ba83          	ld	s5,-576(a5) # dc0 <.LBB21_3+0x300>
    3e04:	01550ab3          	add	s5,a0,s5
    3e08:	00001537          	lui	a0,0x1
    3e0c:	00a10533          	add	a0,sp,a0
    3e10:	dd553023          	sd	s5,-576(a0) # dc0 <.LBB21_3+0x300>
    3e14:	00001537          	lui	a0,0x1
    3e18:	00a10533          	add	a0,sp,a0
    3e1c:	25853503          	ld	a0,600(a0) # 1258 <.LBB21_3+0x798>
    3e20:	02a38533          	mul	a0,t2,a0
    3e24:	000017b7          	lui	a5,0x1
    3e28:	00f107b3          	add	a5,sp,a5
    3e2c:	dc87ba83          	ld	s5,-568(a5) # dc8 <.LBB21_3+0x308>
    3e30:	01550ab3          	add	s5,a0,s5
    3e34:	00001537          	lui	a0,0x1
    3e38:	00a10533          	add	a0,sp,a0
    3e3c:	dd553423          	sd	s5,-568(a0) # dc8 <.LBB21_3+0x308>
    3e40:	02e38533          	mul	a0,t2,a4
    3e44:	00001737          	lui	a4,0x1
    3e48:	00e10733          	add	a4,sp,a4
    3e4c:	dd073a83          	ld	s5,-560(a4) # dd0 <.LBB21_3+0x310>
    3e50:	01550ab3          	add	s5,a0,s5
    3e54:	00001537          	lui	a0,0x1
    3e58:	00a10533          	add	a0,sp,a0
    3e5c:	dd553823          	sd	s5,-560(a0) # dd0 <.LBB21_3+0x310>
    3e60:	03838533          	mul	a0,t2,s8
    3e64:	00001737          	lui	a4,0x1
    3e68:	00e10733          	add	a4,sp,a4
    3e6c:	dd873a83          	ld	s5,-552(a4) # dd8 <.LBB21_3+0x318>
    3e70:	01550ab3          	add	s5,a0,s5
    3e74:	00001537          	lui	a0,0x1
    3e78:	00a10533          	add	a0,sp,a0
    3e7c:	dd553c23          	sd	s5,-552(a0) # dd8 <.LBB21_3+0x318>
    3e80:	03938533          	mul	a0,t2,s9
    3e84:	000c8c13          	mv	s8,s9
    3e88:	00001737          	lui	a4,0x1
    3e8c:	00e10733          	add	a4,sp,a4
    3e90:	de073a83          	ld	s5,-544(a4) # de0 <.LBB21_3+0x320>
    3e94:	01550ab3          	add	s5,a0,s5
    3e98:	00001537          	lui	a0,0x1
    3e9c:	00a10533          	add	a0,sp,a0
    3ea0:	df553023          	sd	s5,-544(a0) # de0 <.LBB21_3+0x320>
    3ea4:	03d38533          	mul	a0,t2,t4
    3ea8:	00001737          	lui	a4,0x1
    3eac:	00e10733          	add	a4,sp,a4
    3eb0:	de873a83          	ld	s5,-536(a4) # de8 <.LBB21_3+0x328>
    3eb4:	01550ab3          	add	s5,a0,s5
    3eb8:	00001537          	lui	a0,0x1
    3ebc:	00a10533          	add	a0,sp,a0
    3ec0:	df553423          	sd	s5,-536(a0) # de8 <.LBB21_3+0x328>
    3ec4:	00001537          	lui	a0,0x1
    3ec8:	00a10533          	add	a0,sp,a0
    3ecc:	2f053503          	ld	a0,752(a0) # 12f0 <.LBB21_3+0x830>
    3ed0:	06050503          	lb	a0,96(a0)
    3ed4:	02638ab3          	mul	s5,t2,t1
    3ed8:	00030c93          	mv	s9,t1
    3edc:	00001737          	lui	a4,0x1
    3ee0:	00e10733          	add	a4,sp,a4
    3ee4:	df073b83          	ld	s7,-528(a4) # df0 <.LBB21_3+0x330>
    3ee8:	017a8bb3          	add	s7,s5,s7
    3eec:	00001737          	lui	a4,0x1
    3ef0:	00e10733          	add	a4,sp,a4
    3ef4:	df773823          	sd	s7,-528(a4) # df0 <.LBB21_3+0x330>
    3ef8:	00001737          	lui	a4,0x1
    3efc:	00e10733          	add	a4,sp,a4
    3f00:	1e073703          	ld	a4,480(a4) # 11e0 <.LBB21_3+0x720>
    3f04:	02e383b3          	mul	t2,t2,a4
    3f08:	000017b7          	lui	a5,0x1
    3f0c:	00f107b3          	add	a5,sp,a5
    3f10:	df87ba83          	ld	s5,-520(a5) # df8 <.LBB21_3+0x338>
    3f14:	01538ab3          	add	s5,t2,s5
    3f18:	000017b7          	lui	a5,0x1
    3f1c:	00f107b3          	add	a5,sp,a5
    3f20:	df57bc23          	sd	s5,-520(a5) # df8 <.LBB21_3+0x338>
    3f24:	000017b7          	lui	a5,0x1
    3f28:	00f107b3          	add	a5,sp,a5
    3f2c:	2b87b803          	ld	a6,696(a5) # 12b8 <.LBB21_3+0x7f8>
    3f30:	030503b3          	mul	t2,a0,a6
    3f34:	000017b7          	lui	a5,0x1
    3f38:	00f107b3          	add	a5,sp,a5
    3f3c:	e207ba83          	ld	s5,-480(a5) # e20 <.LBB21_3+0x360>
    3f40:	01538ab3          	add	s5,t2,s5
    3f44:	000017b7          	lui	a5,0x1
    3f48:	00f107b3          	add	a5,sp,a5
    3f4c:	e357b023          	sd	s5,-480(a5) # e20 <.LBB21_3+0x360>
    3f50:	031503b3          	mul	t2,a0,a7
    3f54:	000017b7          	lui	a5,0x1
    3f58:	00f107b3          	add	a5,sp,a5
    3f5c:	e187ba83          	ld	s5,-488(a5) # e18 <.LBB21_3+0x358>
    3f60:	01538ab3          	add	s5,t2,s5
    3f64:	000017b7          	lui	a5,0x1
    3f68:	00f107b3          	add	a5,sp,a5
    3f6c:	e157bc23          	sd	s5,-488(a5) # e18 <.LBB21_3+0x358>
    3f70:	02b503b3          	mul	t2,a0,a1
    3f74:	000015b7          	lui	a1,0x1
    3f78:	00b105b3          	add	a1,sp,a1
    3f7c:	e105ba83          	ld	s5,-496(a1) # e10 <.LBB21_3+0x350>
    3f80:	01538ab3          	add	s5,t2,s5
    3f84:	000015b7          	lui	a1,0x1
    3f88:	00b105b3          	add	a1,sp,a1
    3f8c:	e155b823          	sd	s5,-496(a1) # e10 <.LBB21_3+0x350>
    3f90:	03a503b3          	mul	t2,a0,s10
    3f94:	000015b7          	lui	a1,0x1
    3f98:	00b105b3          	add	a1,sp,a1
    3f9c:	e085ba83          	ld	s5,-504(a1) # e08 <.LBB21_3+0x348>
    3fa0:	01538ab3          	add	s5,t2,s5
    3fa4:	000015b7          	lui	a1,0x1
    3fa8:	00b105b3          	add	a1,sp,a1
    3fac:	e155b423          	sd	s5,-504(a1) # e08 <.LBB21_3+0x348>
    3fb0:	00008593          	mv	a1,ra
    3fb4:	021503b3          	mul	t2,a0,ra
    3fb8:	000017b7          	lui	a5,0x1
    3fbc:	00f107b3          	add	a5,sp,a5
    3fc0:	e007ba83          	ld	s5,-512(a5) # e00 <.LBB21_3+0x340>
    3fc4:	01538ab3          	add	s5,t2,s5
    3fc8:	000017b7          	lui	a5,0x1
    3fcc:	00f107b3          	add	a5,sp,a5
    3fd0:	e157b023          	sd	s5,-512(a5) # e00 <.LBB21_3+0x340>
    3fd4:	000017b7          	lui	a5,0x1
    3fd8:	00f107b3          	add	a5,sp,a5
    3fdc:	2107b083          	ld	ra,528(a5) # 1210 <.LBB21_3+0x750>
    3fe0:	021503b3          	mul	t2,a0,ra
    3fe4:	000017b7          	lui	a5,0x1
    3fe8:	00f107b3          	add	a5,sp,a5
    3fec:	e287ba83          	ld	s5,-472(a5) # e28 <.LBB21_3+0x368>
    3ff0:	01538ab3          	add	s5,t2,s5
    3ff4:	000017b7          	lui	a5,0x1
    3ff8:	00f107b3          	add	a5,sp,a5
    3ffc:	e357b423          	sd	s5,-472(a5) # e28 <.LBB21_3+0x368>
    4000:	000017b7          	lui	a5,0x1
    4004:	00f107b3          	add	a5,sp,a5
    4008:	2a87b303          	ld	t1,680(a5) # 12a8 <.LBB21_3+0x7e8>
    400c:	026503b3          	mul	t2,a0,t1
    4010:	000017b7          	lui	a5,0x1
    4014:	00f107b3          	add	a5,sp,a5
    4018:	e307ba83          	ld	s5,-464(a5) # e30 <.LBB21_3+0x370>
    401c:	01538ab3          	add	s5,t2,s5
    4020:	000017b7          	lui	a5,0x1
    4024:	00f107b3          	add	a5,sp,a5
    4028:	e357b823          	sd	s5,-464(a5) # e30 <.LBB21_3+0x370>
    402c:	000017b7          	lui	a5,0x1
    4030:	00f107b3          	add	a5,sp,a5
    4034:	2c87b783          	ld	a5,712(a5) # 12c8 <.LBB21_3+0x808>
    4038:	02f503b3          	mul	t2,a0,a5
    403c:	000017b7          	lui	a5,0x1
    4040:	00f107b3          	add	a5,sp,a5
    4044:	e387ba83          	ld	s5,-456(a5) # e38 <.LBB21_3+0x378>
    4048:	01538ab3          	add	s5,t2,s5
    404c:	000017b7          	lui	a5,0x1
    4050:	00f107b3          	add	a5,sp,a5
    4054:	e357bc23          	sd	s5,-456(a5) # e38 <.LBB21_3+0x378>
    4058:	000017b7          	lui	a5,0x1
    405c:	00f107b3          	add	a5,sp,a5
    4060:	2c07b783          	ld	a5,704(a5) # 12c0 <.LBB21_3+0x800>
    4064:	02f503b3          	mul	t2,a0,a5
    4068:	000017b7          	lui	a5,0x1
    406c:	00f107b3          	add	a5,sp,a5
    4070:	e407ba83          	ld	s5,-448(a5) # e40 <.LBB21_3+0x380>
    4074:	01538ab3          	add	s5,t2,s5
    4078:	000017b7          	lui	a5,0x1
    407c:	00f107b3          	add	a5,sp,a5
    4080:	e557b023          	sd	s5,-448(a5) # e40 <.LBB21_3+0x380>
    4084:	000017b7          	lui	a5,0x1
    4088:	00f107b3          	add	a5,sp,a5
    408c:	2087b783          	ld	a5,520(a5) # 1208 <.LBB21_3+0x748>
    4090:	02f503b3          	mul	t2,a0,a5
    4094:	000018b7          	lui	a7,0x1
    4098:	011108b3          	add	a7,sp,a7
    409c:	e488ba83          	ld	s5,-440(a7) # e48 <.LBB21_3+0x388>
    40a0:	01538ab3          	add	s5,t2,s5
    40a4:	000018b7          	lui	a7,0x1
    40a8:	011108b3          	add	a7,sp,a7
    40ac:	e558b423          	sd	s5,-440(a7) # e48 <.LBB21_3+0x388>
    40b0:	02c503b3          	mul	t2,a0,a2
    40b4:	00001637          	lui	a2,0x1
    40b8:	00c10633          	add	a2,sp,a2
    40bc:	e5063a83          	ld	s5,-432(a2) # e50 <.LBB21_3+0x390>
    40c0:	01538ab3          	add	s5,t2,s5
    40c4:	00001637          	lui	a2,0x1
    40c8:	00c10633          	add	a2,sp,a2
    40cc:	e5563823          	sd	s5,-432(a2) # e50 <.LBB21_3+0x390>
    40d0:	032503b3          	mul	t2,a0,s2
    40d4:	00001637          	lui	a2,0x1
    40d8:	00c10633          	add	a2,sp,a2
    40dc:	e5863a83          	ld	s5,-424(a2) # e58 <.LBB21_3+0x398>
    40e0:	01538ab3          	add	s5,t2,s5
    40e4:	00001637          	lui	a2,0x1
    40e8:	00c10633          	add	a2,sp,a2
    40ec:	e5563c23          	sd	s5,-424(a2) # e58 <.LBB21_3+0x398>
    40f0:	029503b3          	mul	t2,a0,s1
    40f4:	00001637          	lui	a2,0x1
    40f8:	00c10633          	add	a2,sp,a2
    40fc:	e6063a83          	ld	s5,-416(a2) # e60 <.LBB21_3+0x3a0>
    4100:	01538ab3          	add	s5,t2,s5
    4104:	00001637          	lui	a2,0x1
    4108:	00c10633          	add	a2,sp,a2
    410c:	e7563023          	sd	s5,-416(a2) # e60 <.LBB21_3+0x3a0>
    4110:	00068613          	mv	a2,a3
    4114:	02d503b3          	mul	t2,a0,a3
    4118:	000016b7          	lui	a3,0x1
    411c:	00d106b3          	add	a3,sp,a3
    4120:	e686ba83          	ld	s5,-408(a3) # e68 <.LBB21_3+0x3a8>
    4124:	01538ab3          	add	s5,t2,s5
    4128:	000016b7          	lui	a3,0x1
    412c:	00d106b3          	add	a3,sp,a3
    4130:	e756b423          	sd	s5,-408(a3) # e68 <.LBB21_3+0x3a8>
    4134:	000016b7          	lui	a3,0x1
    4138:	00d106b3          	add	a3,sp,a3
    413c:	2506b683          	ld	a3,592(a3) # 1250 <.LBB21_3+0x790>
    4140:	02d503b3          	mul	t2,a0,a3
    4144:	000016b7          	lui	a3,0x1
    4148:	00d106b3          	add	a3,sp,a3
    414c:	e706ba83          	ld	s5,-400(a3) # e70 <.LBB21_3+0x3b0>
    4150:	01538ab3          	add	s5,t2,s5
    4154:	000016b7          	lui	a3,0x1
    4158:	00d106b3          	add	a3,sp,a3
    415c:	e756b823          	sd	s5,-400(a3) # e70 <.LBB21_3+0x3b0>
    4160:	03e503b3          	mul	t2,a0,t5
    4164:	000016b7          	lui	a3,0x1
    4168:	00d106b3          	add	a3,sp,a3
    416c:	e786ba83          	ld	s5,-392(a3) # e78 <.LBB21_3+0x3b8>
    4170:	01538ab3          	add	s5,t2,s5
    4174:	000016b7          	lui	a3,0x1
    4178:	00d106b3          	add	a3,sp,a3
    417c:	e756bc23          	sd	s5,-392(a3) # e78 <.LBB21_3+0x3b8>
    4180:	00028f13          	mv	t5,t0
    4184:	025503b3          	mul	t2,a0,t0
    4188:	000016b7          	lui	a3,0x1
    418c:	00d106b3          	add	a3,sp,a3
    4190:	e806ba83          	ld	s5,-384(a3) # e80 <.LBB21_3+0x3c0>
    4194:	01538ab3          	add	s5,t2,s5
    4198:	000016b7          	lui	a3,0x1
    419c:	00d106b3          	add	a3,sp,a3
    41a0:	e956b023          	sd	s5,-384(a3) # e80 <.LBB21_3+0x3c0>
    41a4:	03f503b3          	mul	t2,a0,t6
    41a8:	000016b7          	lui	a3,0x1
    41ac:	00d106b3          	add	a3,sp,a3
    41b0:	e886ba83          	ld	s5,-376(a3) # e88 <.LBB21_3+0x3c8>
    41b4:	01538ab3          	add	s5,t2,s5
    41b8:	000016b7          	lui	a3,0x1
    41bc:	00d106b3          	add	a3,sp,a3
    41c0:	e956b423          	sd	s5,-376(a3) # e88 <.LBB21_3+0x3c8>
    41c4:	033503b3          	mul	t2,a0,s3
    41c8:	000016b7          	lui	a3,0x1
    41cc:	00d106b3          	add	a3,sp,a3
    41d0:	e906ba83          	ld	s5,-368(a3) # e90 <.LBB21_3+0x3d0>
    41d4:	01538ab3          	add	s5,t2,s5
    41d8:	000016b7          	lui	a3,0x1
    41dc:	00d106b3          	add	a3,sp,a3
    41e0:	e956b823          	sd	s5,-368(a3) # e90 <.LBB21_3+0x3d0>
    41e4:	034503b3          	mul	t2,a0,s4
    41e8:	000016b7          	lui	a3,0x1
    41ec:	00d106b3          	add	a3,sp,a3
    41f0:	e986ba83          	ld	s5,-360(a3) # e98 <.LBB21_3+0x3d8>
    41f4:	01538ab3          	add	s5,t2,s5
    41f8:	000016b7          	lui	a3,0x1
    41fc:	00d106b3          	add	a3,sp,a3
    4200:	e956bc23          	sd	s5,-360(a3) # e98 <.LBB21_3+0x3d8>
    4204:	036503b3          	mul	t2,a0,s6
    4208:	000016b7          	lui	a3,0x1
    420c:	00d106b3          	add	a3,sp,a3
    4210:	ea06ba83          	ld	s5,-352(a3) # ea0 <.LBB21_3+0x3e0>
    4214:	01538ab3          	add	s5,t2,s5
    4218:	000016b7          	lui	a3,0x1
    421c:	00d106b3          	add	a3,sp,a3
    4220:	eb56b023          	sd	s5,-352(a3) # ea0 <.LBB21_3+0x3e0>
    4224:	03b503b3          	mul	t2,a0,s11
    4228:	000016b7          	lui	a3,0x1
    422c:	00d106b3          	add	a3,sp,a3
    4230:	ea86ba83          	ld	s5,-344(a3) # ea8 <.LBB21_3+0x3e8>
    4234:	01538ab3          	add	s5,t2,s5
    4238:	000016b7          	lui	a3,0x1
    423c:	00d106b3          	add	a3,sp,a3
    4240:	eb56b423          	sd	s5,-344(a3) # ea8 <.LBB21_3+0x3e8>
    4244:	000016b7          	lui	a3,0x1
    4248:	00d106b3          	add	a3,sp,a3
    424c:	2006b883          	ld	a7,512(a3) # 1200 <.LBB21_3+0x740>
    4250:	031503b3          	mul	t2,a0,a7
    4254:	000016b7          	lui	a3,0x1
    4258:	00d106b3          	add	a3,sp,a3
    425c:	eb06ba83          	ld	s5,-336(a3) # eb0 <.LBB21_3+0x3f0>
    4260:	01538ab3          	add	s5,t2,s5
    4264:	000016b7          	lui	a3,0x1
    4268:	00d106b3          	add	a3,sp,a3
    426c:	eb56b823          	sd	s5,-336(a3) # eb0 <.LBB21_3+0x3f0>
    4270:	000016b7          	lui	a3,0x1
    4274:	00d106b3          	add	a3,sp,a3
    4278:	2286bd83          	ld	s11,552(a3) # 1228 <.LBB21_3+0x768>
    427c:	03b503b3          	mul	t2,a0,s11
    4280:	000016b7          	lui	a3,0x1
    4284:	00d106b3          	add	a3,sp,a3
    4288:	eb86ba83          	ld	s5,-328(a3) # eb8 <.LBB21_3+0x3f8>
    428c:	01538ab3          	add	s5,t2,s5
    4290:	000016b7          	lui	a3,0x1
    4294:	00d106b3          	add	a3,sp,a3
    4298:	eb56bc23          	sd	s5,-328(a3) # eb8 <.LBB21_3+0x3f8>
    429c:	03c503b3          	mul	t2,a0,t3
    42a0:	000e0b13          	mv	s6,t3
    42a4:	000016b7          	lui	a3,0x1
    42a8:	00d106b3          	add	a3,sp,a3
    42ac:	ec06ba83          	ld	s5,-320(a3) # ec0 <.LBB21_3+0x400>
    42b0:	01538ab3          	add	s5,t2,s5
    42b4:	000016b7          	lui	a3,0x1
    42b8:	00d106b3          	add	a3,sp,a3
    42bc:	ed56b023          	sd	s5,-320(a3) # ec0 <.LBB21_3+0x400>
    42c0:	000016b7          	lui	a3,0x1
    42c4:	00d106b3          	add	a3,sp,a3
    42c8:	2586b683          	ld	a3,600(a3) # 1258 <.LBB21_3+0x798>
    42cc:	02d503b3          	mul	t2,a0,a3
    42d0:	000012b7          	lui	t0,0x1
    42d4:	005102b3          	add	t0,sp,t0
    42d8:	ec82ba83          	ld	s5,-312(t0) # ec8 <.LBB21_3+0x408>
    42dc:	01538ab3          	add	s5,t2,s5
    42e0:	000012b7          	lui	t0,0x1
    42e4:	005102b3          	add	t0,sp,t0
    42e8:	ed52b423          	sd	s5,-312(t0) # ec8 <.LBB21_3+0x408>
    42ec:	000012b7          	lui	t0,0x1
    42f0:	005102b3          	add	t0,sp,t0
    42f4:	1f82ba03          	ld	s4,504(t0) # 11f8 <.LBB21_3+0x738>
    42f8:	034503b3          	mul	t2,a0,s4
    42fc:	000012b7          	lui	t0,0x1
    4300:	005102b3          	add	t0,sp,t0
    4304:	ed02ba83          	ld	s5,-304(t0) # ed0 <.LBB21_3+0x410>
    4308:	01538ab3          	add	s5,t2,s5
    430c:	000012b7          	lui	t0,0x1
    4310:	005102b3          	add	t0,sp,t0
    4314:	ed52b823          	sd	s5,-304(t0) # ed0 <.LBB21_3+0x410>
    4318:	000012b7          	lui	t0,0x1
    431c:	005102b3          	add	t0,sp,t0
    4320:	1d82be03          	ld	t3,472(t0) # 11d8 <.LBB21_3+0x718>
    4324:	03c503b3          	mul	t2,a0,t3
    4328:	000012b7          	lui	t0,0x1
    432c:	005102b3          	add	t0,sp,t0
    4330:	ed82ba83          	ld	s5,-296(t0) # ed8 <.LBB21_3+0x418>
    4334:	01538ab3          	add	s5,t2,s5
    4338:	000012b7          	lui	t0,0x1
    433c:	005102b3          	add	t0,sp,t0
    4340:	ed52bc23          	sd	s5,-296(t0) # ed8 <.LBB21_3+0x418>
    4344:	038503b3          	mul	t2,a0,s8
    4348:	000012b7          	lui	t0,0x1
    434c:	005102b3          	add	t0,sp,t0
    4350:	ee02ba83          	ld	s5,-288(t0) # ee0 <.LBB21_3+0x420>
    4354:	01538ab3          	add	s5,t2,s5
    4358:	000012b7          	lui	t0,0x1
    435c:	005102b3          	add	t0,sp,t0
    4360:	ef52b023          	sd	s5,-288(t0) # ee0 <.LBB21_3+0x420>
    4364:	03d503b3          	mul	t2,a0,t4
    4368:	000012b7          	lui	t0,0x1
    436c:	005102b3          	add	t0,sp,t0
    4370:	ee82ba83          	ld	s5,-280(t0) # ee8 <.LBB21_3+0x428>
    4374:	01538ab3          	add	s5,t2,s5
    4378:	000012b7          	lui	t0,0x1
    437c:	005102b3          	add	t0,sp,t0
    4380:	ef52b423          	sd	s5,-280(t0) # ee8 <.LBB21_3+0x428>
    4384:	000012b7          	lui	t0,0x1
    4388:	005102b3          	add	t0,sp,t0
    438c:	2f02b383          	ld	t2,752(t0) # 12f0 <.LBB21_3+0x830>
    4390:	07838383          	lb	t2,120(t2)
    4394:	000c8f93          	mv	t6,s9
    4398:	03950ab3          	mul	s5,a0,s9
    439c:	000012b7          	lui	t0,0x1
    43a0:	005102b3          	add	t0,sp,t0
    43a4:	ef02bb83          	ld	s7,-272(t0) # ef0 <.LBB21_3+0x430>
    43a8:	017a8bb3          	add	s7,s5,s7
    43ac:	000012b7          	lui	t0,0x1
    43b0:	005102b3          	add	t0,sp,t0
    43b4:	ef72b823          	sd	s7,-272(t0) # ef0 <.LBB21_3+0x430>
    43b8:	02e50533          	mul	a0,a0,a4
    43bc:	00070993          	mv	s3,a4
    43c0:	00001737          	lui	a4,0x1
    43c4:	00e10733          	add	a4,sp,a4
    43c8:	ef873a83          	ld	s5,-264(a4) # ef8 <.LBB21_3+0x438>
    43cc:	01550ab3          	add	s5,a0,s5
    43d0:	00001537          	lui	a0,0x1
    43d4:	00a10533          	add	a0,sp,a0
    43d8:	ef553c23          	sd	s5,-264(a0) # ef8 <.LBB21_3+0x438>
    43dc:	03038533          	mul	a0,t2,a6
    43e0:	00001737          	lui	a4,0x1
    43e4:	00e10733          	add	a4,sp,a4
    43e8:	f2073a83          	ld	s5,-224(a4) # f20 <.LBB21_3+0x460>
    43ec:	01550ab3          	add	s5,a0,s5
    43f0:	00001537          	lui	a0,0x1
    43f4:	00a10533          	add	a0,sp,a0
    43f8:	f3553023          	sd	s5,-224(a0) # f20 <.LBB21_3+0x460>
    43fc:	00001537          	lui	a0,0x1
    4400:	00a10533          	add	a0,sp,a0
    4404:	2a053c83          	ld	s9,672(a0) # 12a0 <.LBB21_3+0x7e0>
    4408:	03938533          	mul	a0,t2,s9
    440c:	00001737          	lui	a4,0x1
    4410:	00e10733          	add	a4,sp,a4
    4414:	f1873a83          	ld	s5,-232(a4) # f18 <.LBB21_3+0x458>
    4418:	01550ab3          	add	s5,a0,s5
    441c:	00001537          	lui	a0,0x1
    4420:	00a10533          	add	a0,sp,a0
    4424:	f1553c23          	sd	s5,-232(a0) # f18 <.LBB21_3+0x458>
    4428:	00001537          	lui	a0,0x1
    442c:	00a10533          	add	a0,sp,a0
    4430:	2e853283          	ld	t0,744(a0) # 12e8 <.LBB21_3+0x828>
    4434:	02538533          	mul	a0,t2,t0
    4438:	00001737          	lui	a4,0x1
    443c:	00e10733          	add	a4,sp,a4
    4440:	f1073a83          	ld	s5,-240(a4) # f10 <.LBB21_3+0x450>
    4444:	01550ab3          	add	s5,a0,s5
    4448:	00001537          	lui	a0,0x1
    444c:	00a10533          	add	a0,sp,a0
    4450:	f1553823          	sd	s5,-240(a0) # f10 <.LBB21_3+0x450>
    4454:	03a38533          	mul	a0,t2,s10
    4458:	00001737          	lui	a4,0x1
    445c:	00e10733          	add	a4,sp,a4
    4460:	f0873a83          	ld	s5,-248(a4) # f08 <.LBB21_3+0x448>
    4464:	01550ab3          	add	s5,a0,s5
    4468:	00001537          	lui	a0,0x1
    446c:	00a10533          	add	a0,sp,a0
    4470:	f1553423          	sd	s5,-248(a0) # f08 <.LBB21_3+0x448>
    4474:	00058913          	mv	s2,a1
    4478:	02b38533          	mul	a0,t2,a1
    447c:	000015b7          	lui	a1,0x1
    4480:	00b105b3          	add	a1,sp,a1
    4484:	f005ba83          	ld	s5,-256(a1) # f00 <.LBB21_3+0x440>
    4488:	01550ab3          	add	s5,a0,s5
    448c:	00001537          	lui	a0,0x1
    4490:	00a10533          	add	a0,sp,a0
    4494:	f1553023          	sd	s5,-256(a0) # f00 <.LBB21_3+0x440>
    4498:	02138533          	mul	a0,t2,ra
    449c:	000015b7          	lui	a1,0x1
    44a0:	00b105b3          	add	a1,sp,a1
    44a4:	f285ba83          	ld	s5,-216(a1) # f28 <.LBB21_3+0x468>
    44a8:	01550ab3          	add	s5,a0,s5
    44ac:	00001537          	lui	a0,0x1
    44b0:	00a10533          	add	a0,sp,a0
    44b4:	f3553423          	sd	s5,-216(a0) # f28 <.LBB21_3+0x468>
    44b8:	02638533          	mul	a0,t2,t1
    44bc:	000015b7          	lui	a1,0x1
    44c0:	00b105b3          	add	a1,sp,a1
    44c4:	f305ba83          	ld	s5,-208(a1) # f30 <.LBB21_3+0x470>
    44c8:	01550ab3          	add	s5,a0,s5
    44cc:	00001537          	lui	a0,0x1
    44d0:	00a10533          	add	a0,sp,a0
    44d4:	f3553823          	sd	s5,-208(a0) # f30 <.LBB21_3+0x470>
    44d8:	00001537          	lui	a0,0x1
    44dc:	00a10533          	add	a0,sp,a0
    44e0:	2c853703          	ld	a4,712(a0) # 12c8 <.LBB21_3+0x808>
    44e4:	02e38533          	mul	a0,t2,a4
    44e8:	000015b7          	lui	a1,0x1
    44ec:	00b105b3          	add	a1,sp,a1
    44f0:	f385ba83          	ld	s5,-200(a1) # f38 <.LBB21_3+0x478>
    44f4:	01550ab3          	add	s5,a0,s5
    44f8:	00001537          	lui	a0,0x1
    44fc:	00a10533          	add	a0,sp,a0
    4500:	f3553c23          	sd	s5,-200(a0) # f38 <.LBB21_3+0x478>
    4504:	00001537          	lui	a0,0x1
    4508:	00a10533          	add	a0,sp,a0
    450c:	2c053583          	ld	a1,704(a0) # 12c0 <.LBB21_3+0x800>
    4510:	02b38533          	mul	a0,t2,a1
    4514:	00001337          	lui	t1,0x1
    4518:	00610333          	add	t1,sp,t1
    451c:	f4033a83          	ld	s5,-192(t1) # f40 <.LBB21_3+0x480>
    4520:	01550ab3          	add	s5,a0,s5
    4524:	00001537          	lui	a0,0x1
    4528:	00a10533          	add	a0,sp,a0
    452c:	f5553023          	sd	s5,-192(a0) # f40 <.LBB21_3+0x480>
    4530:	02f38533          	mul	a0,t2,a5
    4534:	000017b7          	lui	a5,0x1
    4538:	00f107b3          	add	a5,sp,a5
    453c:	f487ba83          	ld	s5,-184(a5) # f48 <.LBB21_3+0x488>
    4540:	01550ab3          	add	s5,a0,s5
    4544:	00001537          	lui	a0,0x1
    4548:	00a10533          	add	a0,sp,a0
    454c:	f5553423          	sd	s5,-184(a0) # f48 <.LBB21_3+0x488>
    4550:	00001537          	lui	a0,0x1
    4554:	00a10533          	add	a0,sp,a0
    4558:	21853783          	ld	a5,536(a0) # 1218 <.LBB21_3+0x758>
    455c:	02f38533          	mul	a0,t2,a5
    4560:	00001337          	lui	t1,0x1
    4564:	00610333          	add	t1,sp,t1
    4568:	f5033a83          	ld	s5,-176(t1) # f50 <.LBB21_3+0x490>
    456c:	01550ab3          	add	s5,a0,s5
    4570:	00001537          	lui	a0,0x1
    4574:	00a10533          	add	a0,sp,a0
    4578:	f5553823          	sd	s5,-176(a0) # f50 <.LBB21_3+0x490>
    457c:	00001537          	lui	a0,0x1
    4580:	00a10533          	add	a0,sp,a0
    4584:	26053303          	ld	t1,608(a0) # 1260 <.LBB21_3+0x7a0>
    4588:	02638533          	mul	a0,t2,t1
    458c:	00001ab7          	lui	s5,0x1
    4590:	01510ab3          	add	s5,sp,s5
    4594:	f58aba83          	ld	s5,-168(s5) # f58 <.LBB21_3+0x498>
    4598:	01550ab3          	add	s5,a0,s5
    459c:	00001537          	lui	a0,0x1
    45a0:	00a10533          	add	a0,sp,a0
    45a4:	f5553c23          	sd	s5,-168(a0) # f58 <.LBB21_3+0x498>
    45a8:	02938533          	mul	a0,t2,s1
    45ac:	00001ab7          	lui	s5,0x1
    45b0:	01510ab3          	add	s5,sp,s5
    45b4:	f60aba83          	ld	s5,-160(s5) # f60 <.LBB21_3+0x4a0>
    45b8:	01550ab3          	add	s5,a0,s5
    45bc:	00001537          	lui	a0,0x1
    45c0:	00a10533          	add	a0,sp,a0
    45c4:	f7553023          	sd	s5,-160(a0) # f60 <.LBB21_3+0x4a0>
    45c8:	02c38533          	mul	a0,t2,a2
    45cc:	00001637          	lui	a2,0x1
    45d0:	00c10633          	add	a2,sp,a2
    45d4:	f6863a83          	ld	s5,-152(a2) # f68 <.LBB21_3+0x4a8>
    45d8:	01550ab3          	add	s5,a0,s5
    45dc:	00001537          	lui	a0,0x1
    45e0:	00a10533          	add	a0,sp,a0
    45e4:	f7553423          	sd	s5,-152(a0) # f68 <.LBB21_3+0x4a8>
    45e8:	00001537          	lui	a0,0x1
    45ec:	00a10533          	add	a0,sp,a0
    45f0:	25053d03          	ld	s10,592(a0) # 1250 <.LBB21_3+0x790>
    45f4:	03a38533          	mul	a0,t2,s10
    45f8:	00001637          	lui	a2,0x1
    45fc:	00c10633          	add	a2,sp,a2
    4600:	f7063a83          	ld	s5,-144(a2) # f70 <.LBB21_3+0x4b0>
    4604:	01550ab3          	add	s5,a0,s5
    4608:	00001537          	lui	a0,0x1
    460c:	00a10533          	add	a0,sp,a0
    4610:	f7553823          	sd	s5,-144(a0) # f70 <.LBB21_3+0x4b0>
    4614:	00001537          	lui	a0,0x1
    4618:	00a10533          	add	a0,sp,a0
    461c:	2d053503          	ld	a0,720(a0) # 12d0 <.LBB21_3+0x810>
    4620:	02a38533          	mul	a0,t2,a0
    4624:	00001637          	lui	a2,0x1
    4628:	00c10633          	add	a2,sp,a2
    462c:	f7863a83          	ld	s5,-136(a2) # f78 <.LBB21_3+0x4b8>
    4630:	01550ab3          	add	s5,a0,s5
    4634:	00001537          	lui	a0,0x1
    4638:	00a10533          	add	a0,sp,a0
    463c:	f7553c23          	sd	s5,-136(a0) # f78 <.LBB21_3+0x4b8>
    4640:	03e38533          	mul	a0,t2,t5
    4644:	00001637          	lui	a2,0x1
    4648:	00c10633          	add	a2,sp,a2
    464c:	f8063a83          	ld	s5,-128(a2) # f80 <.LBB21_3+0x4c0>
    4650:	01550ab3          	add	s5,a0,s5
    4654:	00001537          	lui	a0,0x1
    4658:	00a10533          	add	a0,sp,a0
    465c:	f9553023          	sd	s5,-128(a0) # f80 <.LBB21_3+0x4c0>
    4660:	00001537          	lui	a0,0x1
    4664:	00a10533          	add	a0,sp,a0
    4668:	2e053503          	ld	a0,736(a0) # 12e0 <.LBB21_3+0x820>
    466c:	02a38533          	mul	a0,t2,a0
    4670:	00001637          	lui	a2,0x1
    4674:	00c10633          	add	a2,sp,a2
    4678:	f8863a83          	ld	s5,-120(a2) # f88 <.LBB21_3+0x4c8>
    467c:	01550ab3          	add	s5,a0,s5
    4680:	00001537          	lui	a0,0x1
    4684:	00a10533          	add	a0,sp,a0
    4688:	f9553423          	sd	s5,-120(a0) # f88 <.LBB21_3+0x4c8>
    468c:	00001537          	lui	a0,0x1
    4690:	00a10533          	add	a0,sp,a0
    4694:	23853503          	ld	a0,568(a0) # 1238 <.LBB21_3+0x778>
    4698:	02a38533          	mul	a0,t2,a0
    469c:	00001637          	lui	a2,0x1
    46a0:	00c10633          	add	a2,sp,a2
    46a4:	f9063a83          	ld	s5,-112(a2) # f90 <.LBB21_3+0x4d0>
    46a8:	01550ab3          	add	s5,a0,s5
    46ac:	00001537          	lui	a0,0x1
    46b0:	00a10533          	add	a0,sp,a0
    46b4:	f9553823          	sd	s5,-112(a0) # f90 <.LBB21_3+0x4d0>
    46b8:	00001537          	lui	a0,0x1
    46bc:	00a10533          	add	a0,sp,a0
    46c0:	22053083          	ld	ra,544(a0) # 1220 <.LBB21_3+0x760>
    46c4:	02138533          	mul	a0,t2,ra
    46c8:	00001637          	lui	a2,0x1
    46cc:	00c10633          	add	a2,sp,a2
    46d0:	f9863a83          	ld	s5,-104(a2) # f98 <.LBB21_3+0x4d8>
    46d4:	01550ab3          	add	s5,a0,s5
    46d8:	00001537          	lui	a0,0x1
    46dc:	00a10533          	add	a0,sp,a0
    46e0:	f9553c23          	sd	s5,-104(a0) # f98 <.LBB21_3+0x4d8>
    46e4:	00001537          	lui	a0,0x1
    46e8:	00a10533          	add	a0,sp,a0
    46ec:	24853503          	ld	a0,584(a0) # 1248 <.LBB21_3+0x788>
    46f0:	02a38533          	mul	a0,t2,a0
    46f4:	00001637          	lui	a2,0x1
    46f8:	00c10633          	add	a2,sp,a2
    46fc:	fa063a83          	ld	s5,-96(a2) # fa0 <.LBB21_3+0x4e0>
    4700:	01550ab3          	add	s5,a0,s5
    4704:	00001537          	lui	a0,0x1
    4708:	00a10533          	add	a0,sp,a0
    470c:	fb553023          	sd	s5,-96(a0) # fa0 <.LBB21_3+0x4e0>
    4710:	00001537          	lui	a0,0x1
    4714:	00a10533          	add	a0,sp,a0
    4718:	24053503          	ld	a0,576(a0) # 1240 <.LBB21_3+0x780>
    471c:	02a38533          	mul	a0,t2,a0
    4720:	00001637          	lui	a2,0x1
    4724:	00c10633          	add	a2,sp,a2
    4728:	fa863a83          	ld	s5,-88(a2) # fa8 <.LBB21_3+0x4e8>
    472c:	01550ab3          	add	s5,a0,s5
    4730:	00001537          	lui	a0,0x1
    4734:	00a10533          	add	a0,sp,a0
    4738:	fb553423          	sd	s5,-88(a0) # fa8 <.LBB21_3+0x4e8>
    473c:	03138533          	mul	a0,t2,a7
    4740:	00088f13          	mv	t5,a7
    4744:	00001637          	lui	a2,0x1
    4748:	00c10633          	add	a2,sp,a2
    474c:	fb063a83          	ld	s5,-80(a2) # fb0 <.LBB21_3+0x4f0>
    4750:	01550ab3          	add	s5,a0,s5
    4754:	00001537          	lui	a0,0x1
    4758:	00a10533          	add	a0,sp,a0
    475c:	fb553823          	sd	s5,-80(a0) # fb0 <.LBB21_3+0x4f0>
    4760:	03b38533          	mul	a0,t2,s11
    4764:	00001637          	lui	a2,0x1
    4768:	00c10633          	add	a2,sp,a2
    476c:	fb863a83          	ld	s5,-72(a2) # fb8 <.LBB21_3+0x4f8>
    4770:	01550ab3          	add	s5,a0,s5
    4774:	00001537          	lui	a0,0x1
    4778:	00a10533          	add	a0,sp,a0
    477c:	fb553c23          	sd	s5,-72(a0) # fb8 <.LBB21_3+0x4f8>
    4780:	000b0613          	mv	a2,s6
    4784:	03638533          	mul	a0,t2,s6
    4788:	000018b7          	lui	a7,0x1
    478c:	011108b3          	add	a7,sp,a7
    4790:	fc08ba83          	ld	s5,-64(a7) # fc0 <.LBB21_3+0x500>
    4794:	01550ab3          	add	s5,a0,s5
    4798:	00001537          	lui	a0,0x1
    479c:	00a10533          	add	a0,sp,a0
    47a0:	fd553023          	sd	s5,-64(a0) # fc0 <.LBB21_3+0x500>
    47a4:	02d38533          	mul	a0,t2,a3
    47a8:	000016b7          	lui	a3,0x1
    47ac:	00d106b3          	add	a3,sp,a3
    47b0:	fc86ba83          	ld	s5,-56(a3) # fc8 <.LBB21_3+0x508>
    47b4:	01550ab3          	add	s5,a0,s5
    47b8:	00001537          	lui	a0,0x1
    47bc:	00a10533          	add	a0,sp,a0
    47c0:	fd553423          	sd	s5,-56(a0) # fc8 <.LBB21_3+0x508>
    47c4:	000a0693          	mv	a3,s4
    47c8:	03438533          	mul	a0,t2,s4
    47cc:	000018b7          	lui	a7,0x1
    47d0:	011108b3          	add	a7,sp,a7
    47d4:	fd08ba83          	ld	s5,-48(a7) # fd0 <.LBB21_3+0x510>
    47d8:	01550ab3          	add	s5,a0,s5
    47dc:	00001537          	lui	a0,0x1
    47e0:	00a10533          	add	a0,sp,a0
    47e4:	fd553823          	sd	s5,-48(a0) # fd0 <.LBB21_3+0x510>
    47e8:	03c38533          	mul	a0,t2,t3
    47ec:	000018b7          	lui	a7,0x1
    47f0:	011108b3          	add	a7,sp,a7
    47f4:	fd88ba83          	ld	s5,-40(a7) # fd8 <.LBB21_3+0x518>
    47f8:	01550ab3          	add	s5,a0,s5
    47fc:	00001537          	lui	a0,0x1
    4800:	00a10533          	add	a0,sp,a0
    4804:	fd553c23          	sd	s5,-40(a0) # fd8 <.LBB21_3+0x518>
    4808:	03838533          	mul	a0,t2,s8
    480c:	000018b7          	lui	a7,0x1
    4810:	011108b3          	add	a7,sp,a7
    4814:	fe08ba83          	ld	s5,-32(a7) # fe0 <.LBB21_3+0x520>
    4818:	01550ab3          	add	s5,a0,s5
    481c:	00001537          	lui	a0,0x1
    4820:	00a10533          	add	a0,sp,a0
    4824:	ff553023          	sd	s5,-32(a0) # fe0 <.LBB21_3+0x520>
    4828:	03d38533          	mul	a0,t2,t4
    482c:	000018b7          	lui	a7,0x1
    4830:	011108b3          	add	a7,sp,a7
    4834:	fe88ba83          	ld	s5,-24(a7) # fe8 <.LBB21_3+0x528>
    4838:	01550ab3          	add	s5,a0,s5
    483c:	00001537          	lui	a0,0x1
    4840:	00a10533          	add	a0,sp,a0
    4844:	ff553423          	sd	s5,-24(a0) # fe8 <.LBB21_3+0x528>
    4848:	00001537          	lui	a0,0x1
    484c:	00a10533          	add	a0,sp,a0
    4850:	2f053503          	ld	a0,752(a0) # 12f0 <.LBB21_3+0x830>
    4854:	09050503          	lb	a0,144(a0)
    4858:	03f38ab3          	mul	s5,t2,t6
    485c:	000f8e93          	mv	t4,t6
    4860:	000018b7          	lui	a7,0x1
    4864:	011108b3          	add	a7,sp,a7
    4868:	ff08bb83          	ld	s7,-16(a7) # ff0 <.LBB21_3+0x530>
    486c:	017a8bb3          	add	s7,s5,s7
    4870:	000018b7          	lui	a7,0x1
    4874:	011108b3          	add	a7,sp,a7
    4878:	ff78b823          	sd	s7,-16(a7) # ff0 <.LBB21_3+0x530>
    487c:	033383b3          	mul	t2,t2,s3
    4880:	000018b7          	lui	a7,0x1
    4884:	011108b3          	add	a7,sp,a7
    4888:	ff88ba83          	ld	s5,-8(a7) # ff8 <.LBB21_3+0x538>
    488c:	01538ab3          	add	s5,t2,s5
    4890:	000018b7          	lui	a7,0x1
    4894:	011108b3          	add	a7,sp,a7
    4898:	ff58bc23          	sd	s5,-8(a7) # ff8 <.LBB21_3+0x538>
    489c:	030503b3          	mul	t2,a0,a6
    48a0:	00001837          	lui	a6,0x1
    48a4:	01010833          	add	a6,sp,a6
    48a8:	02083a83          	ld	s5,32(a6) # 1020 <.LBB21_3+0x560>
    48ac:	01538ab3          	add	s5,t2,s5
    48b0:	00001837          	lui	a6,0x1
    48b4:	01010833          	add	a6,sp,a6
    48b8:	03583023          	sd	s5,32(a6) # 1020 <.LBB21_3+0x560>
    48bc:	039503b3          	mul	t2,a0,s9
    48c0:	00001837          	lui	a6,0x1
    48c4:	01010833          	add	a6,sp,a6
    48c8:	01883a83          	ld	s5,24(a6) # 1018 <.LBB21_3+0x558>
    48cc:	01538ab3          	add	s5,t2,s5
    48d0:	00001837          	lui	a6,0x1
    48d4:	01010833          	add	a6,sp,a6
    48d8:	01583c23          	sd	s5,24(a6) # 1018 <.LBB21_3+0x558>
    48dc:	025503b3          	mul	t2,a0,t0
    48e0:	00001837          	lui	a6,0x1
    48e4:	01010833          	add	a6,sp,a6
    48e8:	01083a83          	ld	s5,16(a6) # 1010 <.LBB21_3+0x550>
    48ec:	01538ab3          	add	s5,t2,s5
    48f0:	00001837          	lui	a6,0x1
    48f4:	01010833          	add	a6,sp,a6
    48f8:	01583823          	sd	s5,16(a6) # 1010 <.LBB21_3+0x550>
    48fc:	00001837          	lui	a6,0x1
    4900:	01010833          	add	a6,sp,a6
    4904:	2b083803          	ld	a6,688(a6) # 12b0 <.LBB21_3+0x7f0>
    4908:	030503b3          	mul	t2,a0,a6
    490c:	00001837          	lui	a6,0x1
    4910:	01010833          	add	a6,sp,a6
    4914:	00883a83          	ld	s5,8(a6) # 1008 <.LBB21_3+0x548>
    4918:	01538ab3          	add	s5,t2,s5
    491c:	00001837          	lui	a6,0x1
    4920:	01010833          	add	a6,sp,a6
    4924:	01583423          	sd	s5,8(a6) # 1008 <.LBB21_3+0x548>
    4928:	032503b3          	mul	t2,a0,s2
    492c:	00001837          	lui	a6,0x1
    4930:	01010833          	add	a6,sp,a6
    4934:	00083a83          	ld	s5,0(a6) # 1000 <.LBB21_3+0x540>
    4938:	01538ab3          	add	s5,t2,s5
    493c:	00001837          	lui	a6,0x1
    4940:	01010833          	add	a6,sp,a6
    4944:	01583023          	sd	s5,0(a6) # 1000 <.LBB21_3+0x540>
    4948:	00001837          	lui	a6,0x1
    494c:	01010833          	add	a6,sp,a6
    4950:	21083d83          	ld	s11,528(a6) # 1210 <.LBB21_3+0x750>
    4954:	03b503b3          	mul	t2,a0,s11
    4958:	00001837          	lui	a6,0x1
    495c:	01010833          	add	a6,sp,a6
    4960:	02883a83          	ld	s5,40(a6) # 1028 <.LBB21_3+0x568>
    4964:	01538ab3          	add	s5,t2,s5
    4968:	00001837          	lui	a6,0x1
    496c:	01010833          	add	a6,sp,a6
    4970:	03583423          	sd	s5,40(a6) # 1028 <.LBB21_3+0x568>
    4974:	00001837          	lui	a6,0x1
    4978:	01010833          	add	a6,sp,a6
    497c:	2a883c03          	ld	s8,680(a6) # 12a8 <.LBB21_3+0x7e8>
    4980:	038503b3          	mul	t2,a0,s8
    4984:	00001837          	lui	a6,0x1
    4988:	01010833          	add	a6,sp,a6
    498c:	03083a83          	ld	s5,48(a6) # 1030 <.LBB21_3+0x570>
    4990:	01538ab3          	add	s5,t2,s5
    4994:	00001837          	lui	a6,0x1
    4998:	01010833          	add	a6,sp,a6
    499c:	03583823          	sd	s5,48(a6) # 1030 <.LBB21_3+0x570>
    49a0:	02e503b3          	mul	t2,a0,a4
    49a4:	00001737          	lui	a4,0x1
    49a8:	00e10733          	add	a4,sp,a4
    49ac:	03873a83          	ld	s5,56(a4) # 1038 <.LBB21_3+0x578>
    49b0:	01538ab3          	add	s5,t2,s5
    49b4:	00001737          	lui	a4,0x1
    49b8:	00e10733          	add	a4,sp,a4
    49bc:	03573c23          	sd	s5,56(a4) # 1038 <.LBB21_3+0x578>
    49c0:	02b503b3          	mul	t2,a0,a1
    49c4:	000015b7          	lui	a1,0x1
    49c8:	00b105b3          	add	a1,sp,a1
    49cc:	0405ba83          	ld	s5,64(a1) # 1040 <.LBB21_3+0x580>
    49d0:	01538ab3          	add	s5,t2,s5
    49d4:	000015b7          	lui	a1,0x1
    49d8:	00b105b3          	add	a1,sp,a1
    49dc:	0555b023          	sd	s5,64(a1) # 1040 <.LBB21_3+0x580>
    49e0:	000015b7          	lui	a1,0x1
    49e4:	00b105b3          	add	a1,sp,a1
    49e8:	2085bb03          	ld	s6,520(a1) # 1208 <.LBB21_3+0x748>
    49ec:	036503b3          	mul	t2,a0,s6
    49f0:	000015b7          	lui	a1,0x1
    49f4:	00b105b3          	add	a1,sp,a1
    49f8:	0485ba83          	ld	s5,72(a1) # 1048 <.LBB21_3+0x588>
    49fc:	01538ab3          	add	s5,t2,s5
    4a00:	000015b7          	lui	a1,0x1
    4a04:	00b105b3          	add	a1,sp,a1
    4a08:	0555b423          	sd	s5,72(a1) # 1048 <.LBB21_3+0x588>
    4a0c:	02f503b3          	mul	t2,a0,a5
    4a10:	000015b7          	lui	a1,0x1
    4a14:	00b105b3          	add	a1,sp,a1
    4a18:	0505ba83          	ld	s5,80(a1) # 1050 <.LBB21_3+0x590>
    4a1c:	01538ab3          	add	s5,t2,s5
    4a20:	000015b7          	lui	a1,0x1
    4a24:	00b105b3          	add	a1,sp,a1
    4a28:	0555b823          	sd	s5,80(a1) # 1050 <.LBB21_3+0x590>
    4a2c:	00030c93          	mv	s9,t1
    4a30:	026503b3          	mul	t2,a0,t1
    4a34:	000015b7          	lui	a1,0x1
    4a38:	00b105b3          	add	a1,sp,a1
    4a3c:	0585ba83          	ld	s5,88(a1) # 1058 <.LBB21_3+0x598>
    4a40:	01538ab3          	add	s5,t2,s5
    4a44:	000015b7          	lui	a1,0x1
    4a48:	00b105b3          	add	a1,sp,a1
    4a4c:	0555bc23          	sd	s5,88(a1) # 1058 <.LBB21_3+0x598>
    4a50:	00048a13          	mv	s4,s1
    4a54:	029503b3          	mul	t2,a0,s1
    4a58:	000015b7          	lui	a1,0x1
    4a5c:	00b105b3          	add	a1,sp,a1
    4a60:	0605ba83          	ld	s5,96(a1) # 1060 <.LBB21_3+0x5a0>
    4a64:	01538ab3          	add	s5,t2,s5
    4a68:	000015b7          	lui	a1,0x1
    4a6c:	00b105b3          	add	a1,sp,a1
    4a70:	0755b023          	sd	s5,96(a1) # 1060 <.LBB21_3+0x5a0>
    4a74:	000015b7          	lui	a1,0x1
    4a78:	00b105b3          	add	a1,sp,a1
    4a7c:	1c85b983          	ld	s3,456(a1) # 11c8 <.LBB21_3+0x708>
    4a80:	033503b3          	mul	t2,a0,s3
    4a84:	000015b7          	lui	a1,0x1
    4a88:	00b105b3          	add	a1,sp,a1
    4a8c:	0685ba83          	ld	s5,104(a1) # 1068 <.LBB21_3+0x5a8>
    4a90:	01538ab3          	add	s5,t2,s5
    4a94:	000015b7          	lui	a1,0x1
    4a98:	00b105b3          	add	a1,sp,a1
    4a9c:	0755b423          	sd	s5,104(a1) # 1068 <.LBB21_3+0x5a8>
    4aa0:	03a503b3          	mul	t2,a0,s10
    4aa4:	000015b7          	lui	a1,0x1
    4aa8:	00b105b3          	add	a1,sp,a1
    4aac:	0705ba83          	ld	s5,112(a1) # 1070 <.LBB21_3+0x5b0>
    4ab0:	01538ab3          	add	s5,t2,s5
    4ab4:	000015b7          	lui	a1,0x1
    4ab8:	00b105b3          	add	a1,sp,a1
    4abc:	0755b823          	sd	s5,112(a1) # 1070 <.LBB21_3+0x5b0>
    4ac0:	000015b7          	lui	a1,0x1
    4ac4:	00b105b3          	add	a1,sp,a1
    4ac8:	2d05b483          	ld	s1,720(a1) # 12d0 <.LBB21_3+0x810>
    4acc:	029503b3          	mul	t2,a0,s1
    4ad0:	000015b7          	lui	a1,0x1
    4ad4:	00b105b3          	add	a1,sp,a1
    4ad8:	0785ba83          	ld	s5,120(a1) # 1078 <.LBB21_3+0x5b8>
    4adc:	01538ab3          	add	s5,t2,s5
    4ae0:	000015b7          	lui	a1,0x1
    4ae4:	00b105b3          	add	a1,sp,a1
    4ae8:	0755bc23          	sd	s5,120(a1) # 1078 <.LBB21_3+0x5b8>
    4aec:	000015b7          	lui	a1,0x1
    4af0:	00b105b3          	add	a1,sp,a1
    4af4:	2d85bf83          	ld	t6,728(a1) # 12d8 <.LBB21_3+0x818>
    4af8:	03f503b3          	mul	t2,a0,t6
    4afc:	000015b7          	lui	a1,0x1
    4b00:	00b105b3          	add	a1,sp,a1
    4b04:	0805ba83          	ld	s5,128(a1) # 1080 <.LBB21_3+0x5c0>
    4b08:	01538ab3          	add	s5,t2,s5
    4b0c:	000015b7          	lui	a1,0x1
    4b10:	00b105b3          	add	a1,sp,a1
    4b14:	0955b023          	sd	s5,128(a1) # 1080 <.LBB21_3+0x5c0>
    4b18:	000015b7          	lui	a1,0x1
    4b1c:	00b105b3          	add	a1,sp,a1
    4b20:	2e05b303          	ld	t1,736(a1) # 12e0 <.LBB21_3+0x820>
    4b24:	026503b3          	mul	t2,a0,t1
    4b28:	000015b7          	lui	a1,0x1
    4b2c:	00b105b3          	add	a1,sp,a1
    4b30:	0885ba83          	ld	s5,136(a1) # 1088 <.LBB21_3+0x5c8>
    4b34:	01538ab3          	add	s5,t2,s5
    4b38:	000015b7          	lui	a1,0x1
    4b3c:	00b105b3          	add	a1,sp,a1
    4b40:	0955b423          	sd	s5,136(a1) # 1088 <.LBB21_3+0x5c8>
    4b44:	000015b7          	lui	a1,0x1
    4b48:	00b105b3          	add	a1,sp,a1
    4b4c:	2385b283          	ld	t0,568(a1) # 1238 <.LBB21_3+0x778>
    4b50:	025503b3          	mul	t2,a0,t0
    4b54:	000015b7          	lui	a1,0x1
    4b58:	00b105b3          	add	a1,sp,a1
    4b5c:	0905ba83          	ld	s5,144(a1) # 1090 <.LBB21_3+0x5d0>
    4b60:	01538ab3          	add	s5,t2,s5
    4b64:	000015b7          	lui	a1,0x1
    4b68:	00b105b3          	add	a1,sp,a1
    4b6c:	0955b823          	sd	s5,144(a1) # 1090 <.LBB21_3+0x5d0>
    4b70:	00008893          	mv	a7,ra
    4b74:	021503b3          	mul	t2,a0,ra
    4b78:	000015b7          	lui	a1,0x1
    4b7c:	00b105b3          	add	a1,sp,a1
    4b80:	0985ba83          	ld	s5,152(a1) # 1098 <.LBB21_3+0x5d8>
    4b84:	01538ab3          	add	s5,t2,s5
    4b88:	000015b7          	lui	a1,0x1
    4b8c:	00b105b3          	add	a1,sp,a1
    4b90:	0955bc23          	sd	s5,152(a1) # 1098 <.LBB21_3+0x5d8>
    4b94:	000015b7          	lui	a1,0x1
    4b98:	00b105b3          	add	a1,sp,a1
    4b9c:	2485b803          	ld	a6,584(a1) # 1248 <.LBB21_3+0x788>
    4ba0:	030503b3          	mul	t2,a0,a6
    4ba4:	000015b7          	lui	a1,0x1
    4ba8:	00b105b3          	add	a1,sp,a1
    4bac:	0a05ba83          	ld	s5,160(a1) # 10a0 <.LBB21_3+0x5e0>
    4bb0:	01538ab3          	add	s5,t2,s5
    4bb4:	000015b7          	lui	a1,0x1
    4bb8:	00b105b3          	add	a1,sp,a1
    4bbc:	0b55b023          	sd	s5,160(a1) # 10a0 <.LBB21_3+0x5e0>
    4bc0:	000015b7          	lui	a1,0x1
    4bc4:	00b105b3          	add	a1,sp,a1
    4bc8:	2405b783          	ld	a5,576(a1) # 1240 <.LBB21_3+0x780>
    4bcc:	02f503b3          	mul	t2,a0,a5
    4bd0:	000015b7          	lui	a1,0x1
    4bd4:	00b105b3          	add	a1,sp,a1
    4bd8:	0a85ba83          	ld	s5,168(a1) # 10a8 <.LBB21_3+0x5e8>
    4bdc:	01538ab3          	add	s5,t2,s5
    4be0:	000015b7          	lui	a1,0x1
    4be4:	00b105b3          	add	a1,sp,a1
    4be8:	0b55b423          	sd	s5,168(a1) # 10a8 <.LBB21_3+0x5e8>
    4bec:	000f0093          	mv	ra,t5
    4bf0:	03e503b3          	mul	t2,a0,t5
    4bf4:	000015b7          	lui	a1,0x1
    4bf8:	00b105b3          	add	a1,sp,a1
    4bfc:	0b05ba83          	ld	s5,176(a1) # 10b0 <.LBB21_3+0x5f0>
    4c00:	01538ab3          	add	s5,t2,s5
    4c04:	000015b7          	lui	a1,0x1
    4c08:	00b105b3          	add	a1,sp,a1
    4c0c:	0b55b823          	sd	s5,176(a1) # 10b0 <.LBB21_3+0x5f0>
    4c10:	000015b7          	lui	a1,0x1
    4c14:	00b105b3          	add	a1,sp,a1
    4c18:	2285b703          	ld	a4,552(a1) # 1228 <.LBB21_3+0x768>
    4c1c:	02e503b3          	mul	t2,a0,a4
    4c20:	000015b7          	lui	a1,0x1
    4c24:	00b105b3          	add	a1,sp,a1
    4c28:	0b85ba83          	ld	s5,184(a1) # 10b8 <.LBB21_3+0x5f8>
    4c2c:	01538ab3          	add	s5,t2,s5
    4c30:	000015b7          	lui	a1,0x1
    4c34:	00b105b3          	add	a1,sp,a1
    4c38:	0b55bc23          	sd	s5,184(a1) # 10b8 <.LBB21_3+0x5f8>
    4c3c:	02c503b3          	mul	t2,a0,a2
    4c40:	00060f13          	mv	t5,a2
    4c44:	000015b7          	lui	a1,0x1
    4c48:	00b105b3          	add	a1,sp,a1
    4c4c:	0c05ba83          	ld	s5,192(a1) # 10c0 <.LBB21_3+0x600>
    4c50:	01538ab3          	add	s5,t2,s5
    4c54:	000015b7          	lui	a1,0x1
    4c58:	00b105b3          	add	a1,sp,a1
    4c5c:	0d55b023          	sd	s5,192(a1) # 10c0 <.LBB21_3+0x600>
    4c60:	000015b7          	lui	a1,0x1
    4c64:	00b105b3          	add	a1,sp,a1
    4c68:	2585b903          	ld	s2,600(a1) # 1258 <.LBB21_3+0x798>
    4c6c:	032503b3          	mul	t2,a0,s2
    4c70:	000015b7          	lui	a1,0x1
    4c74:	00b105b3          	add	a1,sp,a1
    4c78:	0c85ba83          	ld	s5,200(a1) # 10c8 <.LBB21_3+0x608>
    4c7c:	01538ab3          	add	s5,t2,s5
    4c80:	000015b7          	lui	a1,0x1
    4c84:	00b105b3          	add	a1,sp,a1
    4c88:	0d55b423          	sd	s5,200(a1) # 10c8 <.LBB21_3+0x608>
    4c8c:	00068613          	mv	a2,a3
    4c90:	02d503b3          	mul	t2,a0,a3
    4c94:	000015b7          	lui	a1,0x1
    4c98:	00b105b3          	add	a1,sp,a1
    4c9c:	0d05ba83          	ld	s5,208(a1) # 10d0 <.LBB21_3+0x610>
    4ca0:	01538ab3          	add	s5,t2,s5
    4ca4:	000015b7          	lui	a1,0x1
    4ca8:	00b105b3          	add	a1,sp,a1
    4cac:	0d55b823          	sd	s5,208(a1) # 10d0 <.LBB21_3+0x610>
    4cb0:	000e0593          	mv	a1,t3
    4cb4:	03c503b3          	mul	t2,a0,t3
    4cb8:	000016b7          	lui	a3,0x1
    4cbc:	00d106b3          	add	a3,sp,a3
    4cc0:	0d86ba83          	ld	s5,216(a3) # 10d8 <.LBB21_3+0x618>
    4cc4:	01538ab3          	add	s5,t2,s5
    4cc8:	000016b7          	lui	a3,0x1
    4ccc:	00d106b3          	add	a3,sp,a3
    4cd0:	0d56bc23          	sd	s5,216(a3) # 10d8 <.LBB21_3+0x618>
    4cd4:	000016b7          	lui	a3,0x1
    4cd8:	00d106b3          	add	a3,sp,a3
    4cdc:	1d06b683          	ld	a3,464(a3) # 11d0 <.LBB21_3+0x710>
    4ce0:	02d503b3          	mul	t2,a0,a3
    4ce4:	00001e37          	lui	t3,0x1
    4ce8:	01c10e33          	add	t3,sp,t3
    4cec:	0e0e3a83          	ld	s5,224(t3) # 10e0 <.LBB21_3+0x620>
    4cf0:	01538ab3          	add	s5,t2,s5
    4cf4:	000013b7          	lui	t2,0x1
    4cf8:	007103b3          	add	t2,sp,t2
    4cfc:	0f53b023          	sd	s5,224(t2) # 10e0 <.LBB21_3+0x620>
    4d00:	000013b7          	lui	t2,0x1
    4d04:	007103b3          	add	t2,sp,t2
    4d08:	1e83be03          	ld	t3,488(t2) # 11e8 <.LBB21_3+0x728>
    4d0c:	03c503b3          	mul	t2,a0,t3
    4d10:	00001ab7          	lui	s5,0x1
    4d14:	01510ab3          	add	s5,sp,s5
    4d18:	0e8aba83          	ld	s5,232(s5) # 10e8 <.LBB21_3+0x628>
    4d1c:	01538ab3          	add	s5,t2,s5
    4d20:	000013b7          	lui	t2,0x1
    4d24:	007103b3          	add	t2,sp,t2
    4d28:	0f53b423          	sd	s5,232(t2) # 10e8 <.LBB21_3+0x628>
    4d2c:	000013b7          	lui	t2,0x1
    4d30:	007103b3          	add	t2,sp,t2
    4d34:	2f03b383          	ld	t2,752(t2) # 12f0 <.LBB21_3+0x830>
    4d38:	0a838383          	lb	t2,168(t2)
    4d3c:	03d50ab3          	mul	s5,a0,t4
    4d40:	00001bb7          	lui	s7,0x1
    4d44:	01710bb3          	add	s7,sp,s7
    4d48:	0f0bbb83          	ld	s7,240(s7) # 10f0 <.LBB21_3+0x630>
    4d4c:	017a8bb3          	add	s7,s5,s7
    4d50:	00001ab7          	lui	s5,0x1
    4d54:	01510ab3          	add	s5,sp,s5
    4d58:	0f7ab823          	sd	s7,240(s5) # 10f0 <.LBB21_3+0x630>
    4d5c:	00001ab7          	lui	s5,0x1
    4d60:	01510ab3          	add	s5,sp,s5
    4d64:	1e0abb83          	ld	s7,480(s5) # 11e0 <.LBB21_3+0x720>
    4d68:	03750533          	mul	a0,a0,s7
    4d6c:	00001ab7          	lui	s5,0x1
    4d70:	01510ab3          	add	s5,sp,s5
    4d74:	0f8aba83          	ld	s5,248(s5) # 10f8 <.LBB21_3+0x638>
    4d78:	01550ab3          	add	s5,a0,s5
    4d7c:	00001537          	lui	a0,0x1
    4d80:	00a10533          	add	a0,sp,a0
    4d84:	0f553c23          	sd	s5,248(a0) # 10f8 <.LBB21_3+0x638>
    4d88:	03738533          	mul	a0,t2,s7
    4d8c:	00001ab7          	lui	s5,0x1
    4d90:	01510ab3          	add	s5,sp,s5
    4d94:	1eaab023          	sd	a0,480(s5) # 11e0 <.LBB21_3+0x720>
    4d98:	03d38533          	mul	a0,t2,t4
    4d9c:	00001eb7          	lui	t4,0x1
    4da0:	01d10eb3          	add	t4,sp,t4
    4da4:	9eaeb823          	sd	a0,-1552(t4) # 9f0 <.LBB21_1+0x8d8>
    4da8:	03c38533          	mul	a0,t2,t3
    4dac:	00001e37          	lui	t3,0x1
    4db0:	01c10e33          	add	t3,sp,t3
    4db4:	1eae3423          	sd	a0,488(t3) # 11e8 <.LBB21_3+0x728>
    4db8:	02d38533          	mul	a0,t2,a3
    4dbc:	000016b7          	lui	a3,0x1
    4dc0:	00d106b3          	add	a3,sp,a3
    4dc4:	1ca6b823          	sd	a0,464(a3) # 11d0 <.LBB21_3+0x710>
    4dc8:	02b38533          	mul	a0,t2,a1
    4dcc:	000015b7          	lui	a1,0x1
    4dd0:	00b105b3          	add	a1,sp,a1
    4dd4:	1ca5bc23          	sd	a0,472(a1) # 11d8 <.LBB21_3+0x718>
    4dd8:	02c38533          	mul	a0,t2,a2
    4ddc:	000015b7          	lui	a1,0x1
    4de0:	00b105b3          	add	a1,sp,a1
    4de4:	9ea5b423          	sd	a0,-1560(a1) # 9e8 <.LBB21_1+0x8d0>
    4de8:	03238533          	mul	a0,t2,s2
    4dec:	000015b7          	lui	a1,0x1
    4df0:	00b105b3          	add	a1,sp,a1
    4df4:	24a5bc23          	sd	a0,600(a1) # 1258 <.LBB21_3+0x798>
    4df8:	03e38533          	mul	a0,t2,t5
    4dfc:	000015b7          	lui	a1,0x1
    4e00:	00b105b3          	add	a1,sp,a1
    4e04:	1ea5bc23          	sd	a0,504(a1) # 11f8 <.LBB21_3+0x738>
    4e08:	02e38533          	mul	a0,t2,a4
    4e0c:	000015b7          	lui	a1,0x1
    4e10:	00b105b3          	add	a1,sp,a1
    4e14:	22a5b423          	sd	a0,552(a1) # 1228 <.LBB21_3+0x768>
    4e18:	02138533          	mul	a0,t2,ra
    4e1c:	000015b7          	lui	a1,0x1
    4e20:	00b105b3          	add	a1,sp,a1
    4e24:	20a5b023          	sd	a0,512(a1) # 1200 <.LBB21_3+0x740>
    4e28:	02f38533          	mul	a0,t2,a5
    4e2c:	000015b7          	lui	a1,0x1
    4e30:	00b105b3          	add	a1,sp,a1
    4e34:	24a5b023          	sd	a0,576(a1) # 1240 <.LBB21_3+0x780>
    4e38:	03038533          	mul	a0,t2,a6
    4e3c:	000015b7          	lui	a1,0x1
    4e40:	00b105b3          	add	a1,sp,a1
    4e44:	24a5b423          	sd	a0,584(a1) # 1248 <.LBB21_3+0x788>
    4e48:	03138eb3          	mul	t4,t2,a7
    4e4c:	02538e33          	mul	t3,t2,t0
    4e50:	02638333          	mul	t1,t2,t1
    4e54:	03f388b3          	mul	a7,t2,t6
    4e58:	02938fb3          	mul	t6,t2,s1
    4e5c:	03a38833          	mul	a6,t2,s10
    4e60:	03338933          	mul	s2,t2,s3
    4e64:	034382b3          	mul	t0,t2,s4
    4e68:	03938cb3          	mul	s9,t2,s9
    4e6c:	00001537          	lui	a0,0x1
    4e70:	00a10533          	add	a0,sp,a0
    4e74:	21853503          	ld	a0,536(a0) # 1218 <.LBB21_3+0x758>
    4e78:	02a38f33          	mul	t5,t2,a0
    4e7c:	03638ab3          	mul	s5,t2,s6
    4e80:	00001537          	lui	a0,0x1
    4e84:	00a10533          	add	a0,sp,a0
    4e88:	2c053503          	ld	a0,704(a0) # 12c0 <.LBB21_3+0x800>
    4e8c:	02a38bb3          	mul	s7,t2,a0
    4e90:	00001537          	lui	a0,0x1
    4e94:	00a10533          	add	a0,sp,a0
    4e98:	2c853503          	ld	a0,712(a0) # 12c8 <.LBB21_3+0x808>
    4e9c:	02a38d33          	mul	s10,t2,a0
    4ea0:	03838533          	mul	a0,t2,s8
    4ea4:	03b380b3          	mul	ra,t2,s11
    4ea8:	000015b7          	lui	a1,0x1
    4eac:	00b105b3          	add	a1,sp,a1
    4eb0:	2305b583          	ld	a1,560(a1) # 1230 <.LBB21_3+0x770>
    4eb4:	02b38633          	mul	a2,t2,a1
    4eb8:	000015b7          	lui	a1,0x1
    4ebc:	00b105b3          	add	a1,sp,a1
    4ec0:	2b05b583          	ld	a1,688(a1) # 12b0 <.LBB21_3+0x7f0>
    4ec4:	02b386b3          	mul	a3,t2,a1
    4ec8:	000015b7          	lui	a1,0x1
    4ecc:	00b105b3          	add	a1,sp,a1
    4ed0:	2e85b583          	ld	a1,744(a1) # 12e8 <.LBB21_3+0x828>
    4ed4:	02b38733          	mul	a4,t2,a1
    4ed8:	000015b7          	lui	a1,0x1
    4edc:	00b105b3          	add	a1,sp,a1
    4ee0:	2a05b583          	ld	a1,672(a1) # 12a0 <.LBB21_3+0x7e0>
    4ee4:	02b387b3          	mul	a5,t2,a1
    4ee8:	000015b7          	lui	a1,0x1
    4eec:	00b105b3          	add	a1,sp,a1
    4ef0:	2f05b583          	ld	a1,752(a1) # 12f0 <.LBB21_3+0x830>
    4ef4:	00158593          	addi	a1,a1,1
    4ef8:	000014b7          	lui	s1,0x1
    4efc:	009104b3          	add	s1,sp,s1
    4f00:	2eb4b823          	sd	a1,752(s1) # 12f0 <.LBB21_3+0x830>
    4f04:	000015b7          	lui	a1,0x1
    4f08:	00b105b3          	add	a1,sp,a1
    4f0c:	2b85b583          	ld	a1,696(a1) # 12b8 <.LBB21_3+0x7f8>
    4f10:	02b383b3          	mul	t2,t2,a1
    4f14:	000015b7          	lui	a1,0x1
    4f18:	00b105b3          	add	a1,sp,a1
    4f1c:	1205b583          	ld	a1,288(a1) # 1120 <.LBB21_3+0x660>
    4f20:	00b385b3          	add	a1,t2,a1
    4f24:	000013b7          	lui	t2,0x1
    4f28:	007103b3          	add	t2,sp,t2
    4f2c:	12b3b023          	sd	a1,288(t2) # 1120 <.LBB21_3+0x660>
    4f30:	000015b7          	lui	a1,0x1
    4f34:	00b105b3          	add	a1,sp,a1
    4f38:	1885b383          	ld	t2,392(a1) # 1188 <.LBB21_3+0x6c8>
    4f3c:	000015b7          	lui	a1,0x1
    4f40:	00b105b3          	add	a1,sp,a1
    4f44:	1185b583          	ld	a1,280(a1) # 1118 <.LBB21_3+0x658>
    4f48:	00b785b3          	add	a1,a5,a1
    4f4c:	000017b7          	lui	a5,0x1
    4f50:	00f107b3          	add	a5,sp,a5
    4f54:	10b7bc23          	sd	a1,280(a5) # 1118 <.LBB21_3+0x658>
    4f58:	000015b7          	lui	a1,0x1
    4f5c:	00b105b3          	add	a1,sp,a1
    4f60:	1105b583          	ld	a1,272(a1) # 1110 <.LBB21_3+0x650>
    4f64:	00b705b3          	add	a1,a4,a1
    4f68:	00001737          	lui	a4,0x1
    4f6c:	00e10733          	add	a4,sp,a4
    4f70:	10b73823          	sd	a1,272(a4) # 1110 <.LBB21_3+0x650>
    4f74:	000015b7          	lui	a1,0x1
    4f78:	00b105b3          	add	a1,sp,a1
    4f7c:	1085b583          	ld	a1,264(a1) # 1108 <.LBB21_3+0x648>
    4f80:	00b685b3          	add	a1,a3,a1
    4f84:	000016b7          	lui	a3,0x1
    4f88:	00d106b3          	add	a3,sp,a3
    4f8c:	10b6b423          	sd	a1,264(a3) # 1108 <.LBB21_3+0x648>
    4f90:	000015b7          	lui	a1,0x1
    4f94:	00b105b3          	add	a1,sp,a1
    4f98:	1005b583          	ld	a1,256(a1) # 1100 <.LBB21_3+0x640>
    4f9c:	00b605b3          	add	a1,a2,a1
    4fa0:	00001637          	lui	a2,0x1
    4fa4:	00c10633          	add	a2,sp,a2
    4fa8:	10b63023          	sd	a1,256(a2) # 1100 <.LBB21_3+0x640>
    4fac:	000015b7          	lui	a1,0x1
    4fb0:	00b105b3          	add	a1,sp,a1
    4fb4:	1285b583          	ld	a1,296(a1) # 1128 <.LBB21_3+0x668>
    4fb8:	00b085b3          	add	a1,ra,a1
    4fbc:	00001637          	lui	a2,0x1
    4fc0:	00c10633          	add	a2,sp,a2
    4fc4:	12b63423          	sd	a1,296(a2) # 1128 <.LBB21_3+0x668>
    4fc8:	000015b7          	lui	a1,0x1
    4fcc:	00b105b3          	add	a1,sp,a1
    4fd0:	1385b083          	ld	ra,312(a1) # 1138 <.LBB21_3+0x678>
    4fd4:	000015b7          	lui	a1,0x1
    4fd8:	00b105b3          	add	a1,sp,a1
    4fdc:	1305b583          	ld	a1,304(a1) # 1130 <.LBB21_3+0x670>
    4fe0:	00b505b3          	add	a1,a0,a1
    4fe4:	00001537          	lui	a0,0x1
    4fe8:	00a10533          	add	a0,sp,a0
    4fec:	12b53823          	sd	a1,304(a0) # 1130 <.LBB21_3+0x670>
    4ff0:	001d00b3          	add	ra,s10,ra
    4ff4:	00001537          	lui	a0,0x1
    4ff8:	00a10533          	add	a0,sp,a0
    4ffc:	14053d03          	ld	s10,320(a0) # 1140 <.LBB21_3+0x680>
    5000:	01ab8d33          	add	s10,s7,s10
    5004:	00001537          	lui	a0,0x1
    5008:	00a10533          	add	a0,sp,a0
    500c:	14853503          	ld	a0,328(a0) # 1148 <.LBB21_3+0x688>
    5010:	00aa8533          	add	a0,s5,a0
    5014:	000015b7          	lui	a1,0x1
    5018:	00b105b3          	add	a1,sp,a1
    501c:	14a5b423          	sd	a0,328(a1) # 1148 <.LBB21_3+0x688>
    5020:	00001537          	lui	a0,0x1
    5024:	00a10533          	add	a0,sp,a0
    5028:	15053a83          	ld	s5,336(a0) # 1150 <.LBB21_3+0x690>
    502c:	00001537          	lui	a0,0x1
    5030:	00a10533          	add	a0,sp,a0
    5034:	26853503          	ld	a0,616(a0) # 1268 <.LBB21_3+0x7a8>
    5038:	00af0533          	add	a0,t5,a0
    503c:	000015b7          	lui	a1,0x1
    5040:	00b105b3          	add	a1,sp,a1
    5044:	26a5b423          	sd	a0,616(a1) # 1268 <.LBB21_3+0x7a8>
    5048:	00001537          	lui	a0,0x1
    504c:	00a10533          	add	a0,sp,a0
    5050:	26853c03          	ld	s8,616(a0) # 1268 <.LBB21_3+0x7a8>
    5054:	00001537          	lui	a0,0x1
    5058:	00a10533          	add	a0,sp,a0
    505c:	27053503          	ld	a0,624(a0) # 1270 <.LBB21_3+0x7b0>
    5060:	00ac8533          	add	a0,s9,a0
    5064:	000015b7          	lui	a1,0x1
    5068:	00b105b3          	add	a1,sp,a1
    506c:	26a5b823          	sd	a0,624(a1) # 1270 <.LBB21_3+0x7b0>
    5070:	00001537          	lui	a0,0x1
    5074:	00a10533          	add	a0,sp,a0
    5078:	27053b83          	ld	s7,624(a0) # 1270 <.LBB21_3+0x7b0>
    507c:	01528ab3          	add	s5,t0,s5
    5080:	00001537          	lui	a0,0x1
    5084:	00a10533          	add	a0,sp,a0
    5088:	16053483          	ld	s1,352(a0) # 1160 <.LBB21_3+0x6a0>
    508c:	00001537          	lui	a0,0x1
    5090:	00a10533          	add	a0,sp,a0
    5094:	15853503          	ld	a0,344(a0) # 1158 <.LBB21_3+0x698>
    5098:	00a90533          	add	a0,s2,a0
    509c:	000015b7          	lui	a1,0x1
    50a0:	00b105b3          	add	a1,sp,a1
    50a4:	14a5bc23          	sd	a0,344(a1) # 1158 <.LBB21_3+0x698>
    50a8:	00001537          	lui	a0,0x1
    50ac:	00a10533          	add	a0,sp,a0
    50b0:	27853503          	ld	a0,632(a0) # 1278 <.LBB21_3+0x7b8>
    50b4:	00a80533          	add	a0,a6,a0
    50b8:	000015b7          	lui	a1,0x1
    50bc:	00b105b3          	add	a1,sp,a1
    50c0:	26a5bc23          	sd	a0,632(a1) # 1278 <.LBB21_3+0x7b8>
    50c4:	00001537          	lui	a0,0x1
    50c8:	00a10533          	add	a0,sp,a0
    50cc:	27853903          	ld	s2,632(a0) # 1278 <.LBB21_3+0x7b8>
    50d0:	009f84b3          	add	s1,t6,s1
    50d4:	00001537          	lui	a0,0x1
    50d8:	00a10533          	add	a0,sp,a0
    50dc:	16853f83          	ld	t6,360(a0) # 1168 <.LBB21_3+0x6a8>
    50e0:	01f88fb3          	add	t6,a7,t6
    50e4:	00001537          	lui	a0,0x1
    50e8:	00a10533          	add	a0,sp,a0
    50ec:	17053f03          	ld	t5,368(a0) # 1170 <.LBB21_3+0x6b0>
    50f0:	00001537          	lui	a0,0x1
    50f4:	00a10533          	add	a0,sp,a0
    50f8:	28053503          	ld	a0,640(a0) # 1280 <.LBB21_3+0x7c0>
    50fc:	00a30533          	add	a0,t1,a0
    5100:	000015b7          	lui	a1,0x1
    5104:	00b105b3          	add	a1,sp,a1
    5108:	28a5b023          	sd	a0,640(a1) # 1280 <.LBB21_3+0x7c0>
    510c:	00001537          	lui	a0,0x1
    5110:	00a10533          	add	a0,sp,a0
    5114:	28053783          	ld	a5,640(a0) # 1280 <.LBB21_3+0x7c0>
    5118:	00001537          	lui	a0,0x1
    511c:	00a10533          	add	a0,sp,a0
    5120:	28853503          	ld	a0,648(a0) # 1288 <.LBB21_3+0x7c8>
    5124:	00ae0533          	add	a0,t3,a0
    5128:	000015b7          	lui	a1,0x1
    512c:	00b105b3          	add	a1,sp,a1
    5130:	28a5b423          	sd	a0,648(a1) # 1288 <.LBB21_3+0x7c8>
    5134:	00001537          	lui	a0,0x1
    5138:	00a10533          	add	a0,sp,a0
    513c:	28853703          	ld	a4,648(a0) # 1288 <.LBB21_3+0x7c8>
    5140:	01ee8f33          	add	t5,t4,t5
    5144:	00001537          	lui	a0,0x1
    5148:	00a10533          	add	a0,sp,a0
    514c:	17853e83          	ld	t4,376(a0) # 1178 <.LBB21_3+0x6b8>
    5150:	00001537          	lui	a0,0x1
    5154:	00a10533          	add	a0,sp,a0
    5158:	24853503          	ld	a0,584(a0) # 1248 <.LBB21_3+0x788>
    515c:	01d50eb3          	add	t4,a0,t4
    5160:	00001537          	lui	a0,0x1
    5164:	00a10533          	add	a0,sp,a0
    5168:	18053e03          	ld	t3,384(a0) # 1180 <.LBB21_3+0x6c0>
    516c:	00001537          	lui	a0,0x1
    5170:	00a10533          	add	a0,sp,a0
    5174:	24053503          	ld	a0,576(a0) # 1240 <.LBB21_3+0x780>
    5178:	01c50e33          	add	t3,a0,t3
    517c:	00001537          	lui	a0,0x1
    5180:	00a10533          	add	a0,sp,a0
    5184:	19053283          	ld	t0,400(a0) # 1190 <.LBB21_3+0x6d0>
    5188:	00001537          	lui	a0,0x1
    518c:	00a10533          	add	a0,sp,a0
    5190:	9e053683          	ld	a3,-1568(a0) # 9e0 <.LBB21_1+0x8c8>
    5194:	00001537          	lui	a0,0x1
    5198:	00a10533          	add	a0,sp,a0
    519c:	20053503          	ld	a0,512(a0) # 1200 <.LBB21_3+0x740>
    51a0:	007503b3          	add	t2,a0,t2
    51a4:	00001537          	lui	a0,0x1
    51a8:	00a10533          	add	a0,sp,a0
    51ac:	19853883          	ld	a7,408(a0) # 1198 <.LBB21_3+0x6d8>
    51b0:	00001537          	lui	a0,0x1
    51b4:	00a10533          	add	a0,sp,a0
    51b8:	29053503          	ld	a0,656(a0) # 1290 <.LBB21_3+0x7d0>
    51bc:	000015b7          	lui	a1,0x1
    51c0:	00b105b3          	add	a1,sp,a1
