
code.o:     file format elf64-littleriscv


Disassembly of section .text.main_dispatch_107_matmul_196x576x96_i8xi8xi32:

0000000000000000 <main_dispatch_107_matmul_196x576x96_i8xi8xi32>:
       0:	f1501173          	csrrw	sp,0xf15,zero

0000000000000004 <.Lfunc_begin81>:
       4:	81010113          	addi	sp,sp,-2032
       8:	7e113423          	sd	ra,2024(sp)
       c:	7e813023          	sd	s0,2016(sp)
      10:	7c913c23          	sd	s1,2008(sp)
      14:	7d213823          	sd	s2,2000(sp)
      18:	7d313423          	sd	s3,1992(sp)
      1c:	7d413023          	sd	s4,1984(sp)
      20:	7b513c23          	sd	s5,1976(sp)
      24:	7b613823          	sd	s6,1968(sp)
      28:	7b713423          	sd	s7,1960(sp)
      2c:	7b813023          	sd	s8,1952(sp)
      30:	79913c23          	sd	s9,1944(sp)
      34:	79a13823          	sd	s10,1936(sp)
      38:	79b13423          	sd	s11,1928(sp)
      3c:	7f010413          	addi	s0,sp,2032
      40:	80010113          	addi	sp,sp,-2048
      44:	ce010113          	addi	sp,sp,-800
      48:	0205b583          	ld	a1,32(a1)
      4c:	00000813          	li	a6,0
      50:	00000513          	li	a0,0
      54:	0005b783          	ld	a5,0(a1)
      58:	00020637          	lui	a2,0x20
      5c:	5c06069b          	addiw	a3,a2,1472 # 205c0 <.LBB60_3986+0xc>
      60:	0085b703          	ld	a4,8(a1)
      64:	000018b7          	lui	a7,0x1
      68:	411408b3          	sub	a7,s0,a7
      6c:	d2f8b023          	sd	a5,-736(a7) # d20 <.LBB81_3+0xaac>
      70:	00d786b3          	add	a3,a5,a3
      74:	000017b7          	lui	a5,0x1
      78:	40f407b3          	sub	a5,s0,a5
      7c:	d8d7b023          	sd	a3,-640(a5) # d80 <.LBB81_3+0xb0c>
      80:	000a16b7          	lui	a3,0xa1
      84:	3006869b          	addiw	a3,a3,768 # a1300 <.Lfunc_end80+0x78934>
      88:	00d70cb3          	add	s9,a4,a3
      8c:	000186b7          	lui	a3,0x18
      90:	f006869b          	addiw	a3,a3,-256 # 17f00 <.LBB63_2741>
      94:	00d706b3          	add	a3,a4,a3
      98:	000017b7          	lui	a5,0x1
      9c:	40f407b3          	sub	a5,s0,a5
      a0:	d6d7bc23          	sd	a3,-648(a5) # d78 <.LBB81_3+0xb04>
      a4:	0105b583          	ld	a1,16(a1)
      a8:	000af6b7          	lui	a3,0xaf
      ac:	b006869b          	addiw	a3,a3,-1280 # aeb00 <.Lfunc_end80+0x86134>
      b0:	00d706b3          	add	a3,a4,a3
      b4:	00001737          	lui	a4,0x1
      b8:	40e40733          	sub	a4,s0,a4
      bc:	d6d73823          	sd	a3,-656(a4) # d70 <.LBB81_3+0xafc>
      c0:	34058593          	addi	a1,a1,832
      c4:	000016b7          	lui	a3,0x1
      c8:	40d406b3          	sub	a3,s0,a3
      cc:	d0b6b823          	sd	a1,-752(a3) # d10 <.LBB81_3+0xa9c>
      d0:	6206059b          	addiw	a1,a2,1568
      d4:	00001637          	lui	a2,0x1
      d8:	40c40633          	sub	a2,s0,a2
      dc:	ceb63c23          	sd	a1,-776(a2) # cf8 <.LBB81_3+0xa84>
      e0:	705f45b7          	lui	a1,0x705f4
      e4:	e3a5859b          	addiw	a1,a1,-454 # 705f3e3a <.Lfunc_end80+0x705cb46e>
      e8:	00001637          	lui	a2,0x1
      ec:	40c40633          	sub	a2,s0,a2
      f0:	d2b63423          	sd	a1,-728(a2) # d28 <.LBB81_3+0xab4>
      f4:	00100593          	li	a1,1
      f8:	02459593          	slli	a1,a1,0x24
      fc:	00001637          	lui	a2,0x1
     100:	40c40633          	sub	a2,s0,a2
     104:	66b63023          	sd	a1,1632(a2) # 1660 <.LBB81_4+0x488>
     108:	000015b7          	lui	a1,0x1
     10c:	40b405b3          	sub	a1,s0,a1
     110:	d195bc23          	sd	s9,-744(a1) # d18 <.LBB81_3+0xaa4>
     114:	0580006f          	j	16c <.LBB81_2>

0000000000000118 <.LBB81_1>:
     118:	00001537          	lui	a0,0x1
     11c:	40a40533          	sub	a0,s0,a0
     120:	d0053603          	ld	a2,-768(a0) # d00 <.LBB81_3+0xa8c>
     124:	00860513          	addi	a0,a2,8
     128:	000015b7          	lui	a1,0x1
     12c:	40b405b3          	sub	a1,s0,a1
     130:	d805b583          	ld	a1,-640(a1) # d80 <.LBB81_3+0xb0c>
     134:	30058593          	addi	a1,a1,768
     138:	000016b7          	lui	a3,0x1
     13c:	40d406b3          	sub	a3,s0,a3
     140:	d8b6b023          	sd	a1,-640(a3) # d80 <.LBB81_3+0xb0c>
     144:	000015b7          	lui	a1,0x1
     148:	40b405b3          	sub	a1,s0,a1
     14c:	d085b803          	ld	a6,-760(a1) # d08 <.LBB81_3+0xa94>
     150:	00180813          	addi	a6,a6,1
     154:	000015b7          	lui	a1,0x1
     158:	40b405b3          	sub	a1,s0,a1
     15c:	d185bc83          	ld	s9,-744(a1) # d18 <.LBB81_3+0xaa4>
     160:	0b800593          	li	a1,184
     164:	00b66463          	bltu	a2,a1,16c <.LBB81_2>
     168:	7310a06f          	j	b098 <.LBB81_1030>

000000000000016c <.LBB81_2>:
     16c:	00000593          	li	a1,0
     170:	00050713          	mv	a4,a0
     174:	00001537          	lui	a0,0x1
     178:	40a40533          	sub	a0,s0,a0
     17c:	d1053423          	sd	a6,-760(a0) # d08 <.LBB81_3+0xa94>
     180:	30000513          	li	a0,768
     184:	02a80533          	mul	a0,a6,a0
     188:	00001637          	lui	a2,0x1
     18c:	40c40633          	sub	a2,s0,a2
     190:	d2063603          	ld	a2,-736(a2) # d20 <.LBB81_3+0xaac>
     194:	00c50533          	add	a0,a0,a2
     198:	000016b7          	lui	a3,0x1
     19c:	40d406b3          	sub	a3,s0,a3
     1a0:	cf86b683          	ld	a3,-776(a3) # cf8 <.LBB81_3+0xa84>
     1a4:	00d506b3          	add	a3,a0,a3
     1a8:	00271513          	slli	a0,a4,0x2
     1ac:	00a60533          	add	a0,a2,a0
     1b0:	00001637          	lui	a2,0x1
     1b4:	40c40633          	sub	a2,s0,a2
     1b8:	66a63423          	sd	a0,1640(a2) # 1668 <.LBB81_4+0x490>
     1bc:	24000513          	li	a0,576
     1c0:	00001637          	lui	a2,0x1
     1c4:	40c40633          	sub	a2,s0,a2
     1c8:	d0e63023          	sd	a4,-768(a2) # d00 <.LBB81_3+0xa8c>
     1cc:	02a70533          	mul	a0,a4,a0
     1d0:	00001637          	lui	a2,0x1
     1d4:	40c40633          	sub	a2,s0,a2
     1d8:	d1063603          	ld	a2,-752(a2) # d10 <.LBB81_3+0xa9c>
     1dc:	00a60533          	add	a0,a2,a0
     1e0:	24050613          	addi	a2,a0,576
     1e4:	00001737          	lui	a4,0x1
     1e8:	40e40733          	sub	a4,s0,a4
     1ec:	d6c73023          	sd	a2,-672(a4) # d60 <.LBB81_3+0xaec>
     1f0:	48050613          	addi	a2,a0,1152
     1f4:	00001737          	lui	a4,0x1
     1f8:	40e40733          	sub	a4,s0,a4
     1fc:	d4c73c23          	sd	a2,-680(a4) # d58 <.LBB81_3+0xae4>
     200:	6c050613          	addi	a2,a0,1728
     204:	00001737          	lui	a4,0x1
     208:	40e40733          	sub	a4,s0,a4
     20c:	d4c73823          	sd	a2,-688(a4) # d50 <.LBB81_3+0xadc>
     210:	00001637          	lui	a2,0x1
     214:	40c40633          	sub	a2,s0,a2
     218:	d6a63423          	sd	a0,-664(a2) # d68 <.LBB81_3+0xaf4>
     21c:	7ff50513          	addi	a0,a0,2047
     220:	10150613          	addi	a2,a0,257
     224:	00001737          	lui	a4,0x1
     228:	40e40733          	sub	a4,s0,a4
     22c:	d4c73423          	sd	a2,-696(a4) # d48 <.LBB81_3+0xad4>
     230:	34150613          	addi	a2,a0,833
     234:	00001737          	lui	a4,0x1
     238:	40e40733          	sub	a4,s0,a4
     23c:	d4c73023          	sd	a2,-704(a4) # d40 <.LBB81_3+0xacc>
     240:	58150613          	addi	a2,a0,1409
     244:	00001737          	lui	a4,0x1
     248:	40e40733          	sub	a4,s0,a4
     24c:	d2c73c23          	sd	a2,-712(a4) # d38 <.LBB81_3+0xac4>
     250:	7c150513          	addi	a0,a0,1985
     254:	00001637          	lui	a2,0x1
     258:	40c40633          	sub	a2,s0,a2
     25c:	d2a63823          	sd	a0,-720(a2) # d30 <.LBB81_3+0xabc>
     260:	000c8d93          	mv	s11,s9
     264:	00001537          	lui	a0,0x1
     268:	40a40533          	sub	a0,s0,a0
     26c:	66d53c23          	sd	a3,1656(a0) # 1678 <.LBB81_4+0x4a0>
     270:	7690006f          	j	11d8 <.LBB81_4>

0000000000000274 <.LBB81_3>:
     274:	080d4c93          	xori	s9,s10,128
     278:	00001c37          	lui	s8,0x1
     27c:	41840c33          	sub	s8,s0,s8
     280:	d68c3c03          	ld	s8,-664(s8) # d68 <.LBB81_3+0xaf4>
     284:	00001d37          	lui	s10,0x1
     288:	41a40d33          	sub	s10,s0,s10
     28c:	670d3d03          	ld	s10,1648(s10) # 1670 <.LBB81_4+0x498>
     290:	01ac0c33          	add	s8,s8,s10
     294:	019c01a3          	sb	s9,3(s8)
     298:	f8843c83          	ld	s9,-120(s0)
     29c:	080ccc93          	xori	s9,s9,128
     2a0:	019c0123          	sb	s9,2(s8)
     2a4:	f8043c83          	ld	s9,-128(s0)
     2a8:	080ccc93          	xori	s9,s9,128
     2ac:	019c00a3          	sb	s9,1(s8)
     2b0:	f7843c83          	ld	s9,-136(s0)
     2b4:	080ccc93          	xori	s9,s9,128
     2b8:	019c0023          	sb	s9,0(s8)
     2bc:	f7043c83          	ld	s9,-144(s0)
     2c0:	080ccc93          	xori	s9,s9,128
     2c4:	019c0223          	sb	s9,4(s8)
     2c8:	f6843c83          	ld	s9,-152(s0)
     2cc:	080ccc93          	xori	s9,s9,128
     2d0:	019c02a3          	sb	s9,5(s8)
     2d4:	f6043c83          	ld	s9,-160(s0)
     2d8:	080ccc93          	xori	s9,s9,128
     2dc:	019c0323          	sb	s9,6(s8)
     2e0:	f5843c83          	ld	s9,-168(s0)
     2e4:	080ccc93          	xori	s9,s9,128
     2e8:	019c03a3          	sb	s9,7(s8)
     2ec:	f5043c83          	ld	s9,-176(s0)
     2f0:	080ccc93          	xori	s9,s9,128
     2f4:	019c0423          	sb	s9,8(s8)
     2f8:	f4843c83          	ld	s9,-184(s0)
     2fc:	080ccc93          	xori	s9,s9,128
     300:	019c04a3          	sb	s9,9(s8)
     304:	f4043c83          	ld	s9,-192(s0)
     308:	080ccc93          	xori	s9,s9,128
     30c:	019c0523          	sb	s9,10(s8)
     310:	f3843c83          	ld	s9,-200(s0)
     314:	080ccc93          	xori	s9,s9,128
     318:	019c05a3          	sb	s9,11(s8)
     31c:	f3043c83          	ld	s9,-208(s0)
     320:	080ccc93          	xori	s9,s9,128
     324:	019c0623          	sb	s9,12(s8)
     328:	f2843c83          	ld	s9,-216(s0)
     32c:	080ccc93          	xori	s9,s9,128
     330:	019c06a3          	sb	s9,13(s8)
     334:	f2043c83          	ld	s9,-224(s0)
     338:	080ccc93          	xori	s9,s9,128
     33c:	019c0723          	sb	s9,14(s8)
     340:	f1843c83          	ld	s9,-232(s0)
     344:	080ccc93          	xori	s9,s9,128
     348:	019c07a3          	sb	s9,15(s8)
     34c:	f1043c83          	ld	s9,-240(s0)
     350:	080ccc93          	xori	s9,s9,128
     354:	019c0823          	sb	s9,16(s8)
     358:	f0843c83          	ld	s9,-248(s0)
     35c:	080ccc93          	xori	s9,s9,128
     360:	019c08a3          	sb	s9,17(s8)
     364:	f0043c83          	ld	s9,-256(s0)
     368:	080ccc93          	xori	s9,s9,128
     36c:	019c0923          	sb	s9,18(s8)
     370:	ef843c83          	ld	s9,-264(s0)
     374:	080ccc93          	xori	s9,s9,128
     378:	019c09a3          	sb	s9,19(s8)
     37c:	ef043c83          	ld	s9,-272(s0)
     380:	080ccc93          	xori	s9,s9,128
     384:	019c0a23          	sb	s9,20(s8)
     388:	ee043c83          	ld	s9,-288(s0)
     38c:	080ccc93          	xori	s9,s9,128
     390:	019c0aa3          	sb	s9,21(s8)
     394:	ed843c83          	ld	s9,-296(s0)
     398:	080ccc93          	xori	s9,s9,128
     39c:	019c0b23          	sb	s9,22(s8)
     3a0:	ed043c83          	ld	s9,-304(s0)
     3a4:	080ccc93          	xori	s9,s9,128
     3a8:	019c0ba3          	sb	s9,23(s8)
     3ac:	ea843c83          	ld	s9,-344(s0)
     3b0:	080ccc93          	xori	s9,s9,128
     3b4:	019c0c23          	sb	s9,24(s8)
     3b8:	e7843c83          	ld	s9,-392(s0)
     3bc:	080ccc93          	xori	s9,s9,128
     3c0:	019c0ca3          	sb	s9,25(s8)
     3c4:	e5843c83          	ld	s9,-424(s0)
     3c8:	080ccc93          	xori	s9,s9,128
     3cc:	019c0d23          	sb	s9,26(s8)
     3d0:	e3843c83          	ld	s9,-456(s0)
     3d4:	080ccc93          	xori	s9,s9,128
     3d8:	019c0da3          	sb	s9,27(s8)
     3dc:	e3043c83          	ld	s9,-464(s0)
     3e0:	080ccc93          	xori	s9,s9,128
     3e4:	019c0e23          	sb	s9,28(s8)
     3e8:	e2843c83          	ld	s9,-472(s0)
     3ec:	080ccc93          	xori	s9,s9,128
     3f0:	019c0ea3          	sb	s9,29(s8)
     3f4:	e2043c83          	ld	s9,-480(s0)
     3f8:	080ccc93          	xori	s9,s9,128
     3fc:	019c0f23          	sb	s9,30(s8)
     400:	e1843c83          	ld	s9,-488(s0)
     404:	080ccc93          	xori	s9,s9,128
     408:	019c0fa3          	sb	s9,31(s8)
     40c:	e1043c03          	ld	s8,-496(s0)
     410:	080c4c93          	xori	s9,s8,128
     414:	00001c37          	lui	s8,0x1
     418:	41840c33          	sub	s8,s0,s8
     41c:	d60c3c03          	ld	s8,-672(s8) # d60 <.LBB81_3+0xaec>
     420:	01ac0c33          	add	s8,s8,s10
     424:	019c01a3          	sb	s9,3(s8)
     428:	e0843c83          	ld	s9,-504(s0)
     42c:	080ccc93          	xori	s9,s9,128
     430:	019c0123          	sb	s9,2(s8)
     434:	c7843c83          	ld	s9,-904(s0)
     438:	080ccc93          	xori	s9,s9,128
     43c:	019c00a3          	sb	s9,1(s8)
     440:	c3043c83          	ld	s9,-976(s0)
     444:	080ccc93          	xori	s9,s9,128
     448:	019c0023          	sb	s9,0(s8)
     44c:	bf043c83          	ld	s9,-1040(s0)
     450:	080ccc93          	xori	s9,s9,128
     454:	019c0223          	sb	s9,4(s8)
     458:	ba843c83          	ld	s9,-1112(s0)
     45c:	080ccc93          	xori	s9,s9,128
     460:	019c02a3          	sb	s9,5(s8)
     464:	b6043c83          	ld	s9,-1184(s0)
     468:	080ccc93          	xori	s9,s9,128
     46c:	019c0323          	sb	s9,6(s8)
     470:	b1843c83          	ld	s9,-1256(s0)
     474:	080ccc93          	xori	s9,s9,128
     478:	019c03a3          	sb	s9,7(s8)
     47c:	ad043c83          	ld	s9,-1328(s0)
     480:	080ccc93          	xori	s9,s9,128
     484:	019c0423          	sb	s9,8(s8)
     488:	a8043c83          	ld	s9,-1408(s0)
     48c:	080ccc93          	xori	s9,s9,128
     490:	019c04a3          	sb	s9,9(s8)
     494:	a4043c83          	ld	s9,-1472(s0)
     498:	080ccc93          	xori	s9,s9,128
     49c:	019c0523          	sb	s9,10(s8)
     4a0:	9f843c83          	ld	s9,-1544(s0)
     4a4:	080ccc93          	xori	s9,s9,128
     4a8:	019c05a3          	sb	s9,11(s8)
     4ac:	9b843c83          	ld	s9,-1608(s0)
     4b0:	080ccc93          	xori	s9,s9,128
     4b4:	019c0623          	sb	s9,12(s8)
     4b8:	97843c83          	ld	s9,-1672(s0)
     4bc:	080ccc93          	xori	s9,s9,128
     4c0:	019c06a3          	sb	s9,13(s8)
     4c4:	93043c83          	ld	s9,-1744(s0)
     4c8:	080ccc93          	xori	s9,s9,128
     4cc:	019c0723          	sb	s9,14(s8)
     4d0:	8f043c83          	ld	s9,-1808(s0)
     4d4:	080ccc93          	xori	s9,s9,128
     4d8:	019c07a3          	sb	s9,15(s8)
     4dc:	8b843c83          	ld	s9,-1864(s0)
     4e0:	080ccc93          	xori	s9,s9,128
     4e4:	019c0823          	sb	s9,16(s8)
     4e8:	86843c83          	ld	s9,-1944(s0)
     4ec:	080ccc93          	xori	s9,s9,128
     4f0:	019c08a3          	sb	s9,17(s8)
     4f4:	82843c83          	ld	s9,-2008(s0)
     4f8:	080ccc93          	xori	s9,s9,128
     4fc:	019c0923          	sb	s9,18(s8)
     500:	00001cb7          	lui	s9,0x1
     504:	41940cb3          	sub	s9,s0,s9
     508:	7e0cbc83          	ld	s9,2016(s9) # 17e0 <.LBB81_5+0x8c>
     50c:	080ccc93          	xori	s9,s9,128
     510:	019c09a3          	sb	s9,19(s8)
     514:	00001cb7          	lui	s9,0x1
     518:	41940cb3          	sub	s9,s0,s9
     51c:	7a0cbc83          	ld	s9,1952(s9) # 17a0 <.LBB81_5+0x4c>
     520:	080ccc93          	xori	s9,s9,128
     524:	019c0a23          	sb	s9,20(s8)
     528:	00001cb7          	lui	s9,0x1
     52c:	41940cb3          	sub	s9,s0,s9
     530:	788cbc83          	ld	s9,1928(s9) # 1788 <.LBB81_5+0x34>
     534:	080ccc93          	xori	s9,s9,128
     538:	019c0aa3          	sb	s9,21(s8)
     53c:	00001cb7          	lui	s9,0x1
     540:	41940cb3          	sub	s9,s0,s9
     544:	770cbc83          	ld	s9,1904(s9) # 1770 <.LBB81_5+0x1c>
     548:	080ccc93          	xori	s9,s9,128
     54c:	019c0b23          	sb	s9,22(s8)
     550:	00001cb7          	lui	s9,0x1
     554:	41940cb3          	sub	s9,s0,s9
     558:	768cbc83          	ld	s9,1896(s9) # 1768 <.LBB81_5+0x14>
     55c:	080ccc93          	xori	s9,s9,128
     560:	019c0ba3          	sb	s9,23(s8)
     564:	00001cb7          	lui	s9,0x1
     568:	41940cb3          	sub	s9,s0,s9
     56c:	760cbc83          	ld	s9,1888(s9) # 1760 <.LBB81_5+0xc>
     570:	080ccc93          	xori	s9,s9,128
     574:	019c0c23          	sb	s9,24(s8)
     578:	00001cb7          	lui	s9,0x1
     57c:	41940cb3          	sub	s9,s0,s9
     580:	758cbc83          	ld	s9,1880(s9) # 1758 <.LBB81_5+0x4>
     584:	080ccc93          	xori	s9,s9,128
     588:	019c0ca3          	sb	s9,25(s8)
     58c:	00001cb7          	lui	s9,0x1
     590:	41940cb3          	sub	s9,s0,s9
     594:	750cbc83          	ld	s9,1872(s9) # 1750 <.LBB81_4+0x578>
     598:	080ccc93          	xori	s9,s9,128
     59c:	019c0d23          	sb	s9,26(s8)
     5a0:	00001cb7          	lui	s9,0x1
     5a4:	41940cb3          	sub	s9,s0,s9
     5a8:	748cbc83          	ld	s9,1864(s9) # 1748 <.LBB81_4+0x570>
     5ac:	080ccc93          	xori	s9,s9,128
     5b0:	019c0da3          	sb	s9,27(s8)
     5b4:	00001cb7          	lui	s9,0x1
     5b8:	41940cb3          	sub	s9,s0,s9
     5bc:	740cbc83          	ld	s9,1856(s9) # 1740 <.LBB81_4+0x568>
     5c0:	080ccc93          	xori	s9,s9,128
     5c4:	019c0e23          	sb	s9,28(s8)
     5c8:	00001cb7          	lui	s9,0x1
     5cc:	41940cb3          	sub	s9,s0,s9
     5d0:	738cbc83          	ld	s9,1848(s9) # 1738 <.LBB81_4+0x560>
     5d4:	080ccc93          	xori	s9,s9,128
     5d8:	019c0ea3          	sb	s9,29(s8)
     5dc:	00001cb7          	lui	s9,0x1
     5e0:	41940cb3          	sub	s9,s0,s9
     5e4:	730cbc83          	ld	s9,1840(s9) # 1730 <.LBB81_4+0x558>
     5e8:	080ccc93          	xori	s9,s9,128
     5ec:	019c0f23          	sb	s9,30(s8)
     5f0:	00001cb7          	lui	s9,0x1
     5f4:	41940cb3          	sub	s9,s0,s9
     5f8:	728cbc83          	ld	s9,1832(s9) # 1728 <.LBB81_4+0x550>
     5fc:	080ccc93          	xori	s9,s9,128
     600:	019c0fa3          	sb	s9,31(s8)
     604:	00001c37          	lui	s8,0x1
     608:	41840c33          	sub	s8,s0,s8
     60c:	720c3c03          	ld	s8,1824(s8) # 1720 <.LBB81_4+0x548>
     610:	080c4c93          	xori	s9,s8,128
     614:	00001c37          	lui	s8,0x1
     618:	41840c33          	sub	s8,s0,s8
     61c:	d58c3c03          	ld	s8,-680(s8) # d58 <.LBB81_3+0xae4>
     620:	01ac0c33          	add	s8,s8,s10
     624:	019c01a3          	sb	s9,3(s8)
     628:	00001cb7          	lui	s9,0x1
     62c:	41940cb3          	sub	s9,s0,s9
     630:	718cbc83          	ld	s9,1816(s9) # 1718 <.LBB81_4+0x540>
     634:	080ccc93          	xori	s9,s9,128
     638:	019c0123          	sb	s9,2(s8)
     63c:	00001cb7          	lui	s9,0x1
     640:	41940cb3          	sub	s9,s0,s9
     644:	710cbc83          	ld	s9,1808(s9) # 1710 <.LBB81_4+0x538>
     648:	080ccc93          	xori	s9,s9,128
     64c:	019c00a3          	sb	s9,1(s8)
     650:	00001cb7          	lui	s9,0x1
     654:	41940cb3          	sub	s9,s0,s9
     658:	708cbc83          	ld	s9,1800(s9) # 1708 <.LBB81_4+0x530>
     65c:	080ccc93          	xori	s9,s9,128
     660:	019c0023          	sb	s9,0(s8)
     664:	00001cb7          	lui	s9,0x1
     668:	41940cb3          	sub	s9,s0,s9
     66c:	700cbc83          	ld	s9,1792(s9) # 1700 <.LBB81_4+0x528>
     670:	080ccc93          	xori	s9,s9,128
     674:	019c0223          	sb	s9,4(s8)
     678:	00001cb7          	lui	s9,0x1
     67c:	41940cb3          	sub	s9,s0,s9
     680:	6f8cbc83          	ld	s9,1784(s9) # 16f8 <.LBB81_4+0x520>
     684:	080ccc93          	xori	s9,s9,128
     688:	019c02a3          	sb	s9,5(s8)
     68c:	00001cb7          	lui	s9,0x1
     690:	41940cb3          	sub	s9,s0,s9
     694:	6f0cbc83          	ld	s9,1776(s9) # 16f0 <.LBB81_4+0x518>
     698:	080ccc93          	xori	s9,s9,128
     69c:	019c0323          	sb	s9,6(s8)
     6a0:	00001cb7          	lui	s9,0x1
     6a4:	41940cb3          	sub	s9,s0,s9
     6a8:	6e8cbc83          	ld	s9,1768(s9) # 16e8 <.LBB81_4+0x510>
     6ac:	080ccc93          	xori	s9,s9,128
     6b0:	019c03a3          	sb	s9,7(s8)
     6b4:	00001cb7          	lui	s9,0x1
     6b8:	41940cb3          	sub	s9,s0,s9
     6bc:	6e0cbc83          	ld	s9,1760(s9) # 16e0 <.LBB81_4+0x508>
     6c0:	080ccc93          	xori	s9,s9,128
     6c4:	019c0423          	sb	s9,8(s8)
     6c8:	00001cb7          	lui	s9,0x1
     6cc:	41940cb3          	sub	s9,s0,s9
     6d0:	6d8cbc83          	ld	s9,1752(s9) # 16d8 <.LBB81_4+0x500>
     6d4:	080ccc93          	xori	s9,s9,128
     6d8:	019c04a3          	sb	s9,9(s8)
     6dc:	00001cb7          	lui	s9,0x1
     6e0:	41940cb3          	sub	s9,s0,s9
     6e4:	6d0cbc83          	ld	s9,1744(s9) # 16d0 <.LBB81_4+0x4f8>
     6e8:	080ccc93          	xori	s9,s9,128
     6ec:	019c0523          	sb	s9,10(s8)
     6f0:	00001cb7          	lui	s9,0x1
     6f4:	41940cb3          	sub	s9,s0,s9
     6f8:	6c8cbc83          	ld	s9,1736(s9) # 16c8 <.LBB81_4+0x4f0>
     6fc:	080ccc93          	xori	s9,s9,128
     700:	019c05a3          	sb	s9,11(s8)
     704:	00001cb7          	lui	s9,0x1
     708:	41940cb3          	sub	s9,s0,s9
     70c:	6c0cbc83          	ld	s9,1728(s9) # 16c0 <.LBB81_4+0x4e8>
     710:	080ccc93          	xori	s9,s9,128
     714:	019c0623          	sb	s9,12(s8)
     718:	00001cb7          	lui	s9,0x1
     71c:	41940cb3          	sub	s9,s0,s9
     720:	6b8cbc83          	ld	s9,1720(s9) # 16b8 <.LBB81_4+0x4e0>
     724:	080ccc93          	xori	s9,s9,128
     728:	019c06a3          	sb	s9,13(s8)
     72c:	00001cb7          	lui	s9,0x1
     730:	41940cb3          	sub	s9,s0,s9
     734:	6b0cbc83          	ld	s9,1712(s9) # 16b0 <.LBB81_4+0x4d8>
     738:	080ccc93          	xori	s9,s9,128
     73c:	019c0723          	sb	s9,14(s8)
     740:	00001cb7          	lui	s9,0x1
     744:	41940cb3          	sub	s9,s0,s9
     748:	280cbc83          	ld	s9,640(s9) # 1280 <.LBB81_4+0xa8>
     74c:	080ccc93          	xori	s9,s9,128
     750:	019c07a3          	sb	s9,15(s8)
     754:	00001cb7          	lui	s9,0x1
     758:	41940cb3          	sub	s9,s0,s9
     75c:	290cbc83          	ld	s9,656(s9) # 1290 <.LBB81_4+0xb8>
     760:	080ccc93          	xori	s9,s9,128
     764:	019c0823          	sb	s9,16(s8)
     768:	00001cb7          	lui	s9,0x1
     76c:	41940cb3          	sub	s9,s0,s9
     770:	2a0cbc83          	ld	s9,672(s9) # 12a0 <.LBB81_4+0xc8>
     774:	080ccc93          	xori	s9,s9,128
     778:	019c08a3          	sb	s9,17(s8)
     77c:	00001cb7          	lui	s9,0x1
     780:	41940cb3          	sub	s9,s0,s9
     784:	2b0cbc83          	ld	s9,688(s9) # 12b0 <.LBB81_4+0xd8>
     788:	080ccc93          	xori	s9,s9,128
     78c:	019c0923          	sb	s9,18(s8)
     790:	00001cb7          	lui	s9,0x1
     794:	41940cb3          	sub	s9,s0,s9
     798:	2c0cbc83          	ld	s9,704(s9) # 12c0 <.LBB81_4+0xe8>
     79c:	080ccc93          	xori	s9,s9,128
     7a0:	019c09a3          	sb	s9,19(s8)
     7a4:	00001cb7          	lui	s9,0x1
     7a8:	41940cb3          	sub	s9,s0,s9
     7ac:	2d0cbc83          	ld	s9,720(s9) # 12d0 <.LBB81_4+0xf8>
     7b0:	080ccc93          	xori	s9,s9,128
     7b4:	019c0a23          	sb	s9,20(s8)
     7b8:	00001cb7          	lui	s9,0x1
     7bc:	41940cb3          	sub	s9,s0,s9
     7c0:	2e0cbc83          	ld	s9,736(s9) # 12e0 <.LBB81_4+0x108>
     7c4:	080ccc93          	xori	s9,s9,128
     7c8:	019c0aa3          	sb	s9,21(s8)
     7cc:	00001cb7          	lui	s9,0x1
     7d0:	41940cb3          	sub	s9,s0,s9
     7d4:	2f0cbc83          	ld	s9,752(s9) # 12f0 <.LBB81_4+0x118>
     7d8:	080ccc93          	xori	s9,s9,128
     7dc:	019c0b23          	sb	s9,22(s8)
     7e0:	00001cb7          	lui	s9,0x1
     7e4:	41940cb3          	sub	s9,s0,s9
     7e8:	300cbc83          	ld	s9,768(s9) # 1300 <.LBB81_4+0x128>
     7ec:	080ccc93          	xori	s9,s9,128
     7f0:	019c0ba3          	sb	s9,23(s8)
     7f4:	00001cb7          	lui	s9,0x1
     7f8:	41940cb3          	sub	s9,s0,s9
     7fc:	310cbc83          	ld	s9,784(s9) # 1310 <.LBB81_4+0x138>
     800:	080ccc93          	xori	s9,s9,128
     804:	019c0c23          	sb	s9,24(s8)
     808:	00001cb7          	lui	s9,0x1
     80c:	41940cb3          	sub	s9,s0,s9
     810:	320cbc83          	ld	s9,800(s9) # 1320 <.LBB81_4+0x148>
     814:	080ccc93          	xori	s9,s9,128
     818:	019c0ca3          	sb	s9,25(s8)
     81c:	00001cb7          	lui	s9,0x1
     820:	41940cb3          	sub	s9,s0,s9
     824:	330cbc83          	ld	s9,816(s9) # 1330 <.LBB81_4+0x158>
     828:	080ccc93          	xori	s9,s9,128
     82c:	019c0d23          	sb	s9,26(s8)
     830:	00001cb7          	lui	s9,0x1
     834:	41940cb3          	sub	s9,s0,s9
     838:	340cbc83          	ld	s9,832(s9) # 1340 <.LBB81_4+0x168>
     83c:	080ccc93          	xori	s9,s9,128
     840:	019c0da3          	sb	s9,27(s8)
     844:	00001cb7          	lui	s9,0x1
     848:	41940cb3          	sub	s9,s0,s9
     84c:	350cbc83          	ld	s9,848(s9) # 1350 <.LBB81_4+0x178>
     850:	080ccc93          	xori	s9,s9,128
     854:	019c0e23          	sb	s9,28(s8)
     858:	00001cb7          	lui	s9,0x1
     85c:	41940cb3          	sub	s9,s0,s9
     860:	360cbc83          	ld	s9,864(s9) # 1360 <.LBB81_4+0x188>
     864:	080ccc93          	xori	s9,s9,128
     868:	019c0ea3          	sb	s9,29(s8)
     86c:	00001cb7          	lui	s9,0x1
     870:	41940cb3          	sub	s9,s0,s9
     874:	370cbc83          	ld	s9,880(s9) # 1370 <.LBB81_4+0x198>
     878:	080ccc93          	xori	s9,s9,128
     87c:	019c0f23          	sb	s9,30(s8)
     880:	00001cb7          	lui	s9,0x1
     884:	41940cb3          	sub	s9,s0,s9
     888:	388cbc83          	ld	s9,904(s9) # 1388 <.LBB81_4+0x1b0>
     88c:	080ccc93          	xori	s9,s9,128
     890:	019c0fa3          	sb	s9,31(s8)
     894:	00001c37          	lui	s8,0x1
     898:	41840c33          	sub	s8,s0,s8
     89c:	390c3c03          	ld	s8,912(s8) # 1390 <.LBB81_4+0x1b8>
     8a0:	080c4c93          	xori	s9,s8,128
     8a4:	00001c37          	lui	s8,0x1
     8a8:	41840c33          	sub	s8,s0,s8
     8ac:	d50c3c03          	ld	s8,-688(s8) # d50 <.LBB81_3+0xadc>
     8b0:	01ac0c33          	add	s8,s8,s10
     8b4:	019c01a3          	sb	s9,3(s8)
     8b8:	00001cb7          	lui	s9,0x1
     8bc:	41940cb3          	sub	s9,s0,s9
     8c0:	3a0cbc83          	ld	s9,928(s9) # 13a0 <.LBB81_4+0x1c8>
     8c4:	080ccc93          	xori	s9,s9,128
     8c8:	019c0123          	sb	s9,2(s8)
     8cc:	00001cb7          	lui	s9,0x1
     8d0:	41940cb3          	sub	s9,s0,s9
     8d4:	3b0cbc83          	ld	s9,944(s9) # 13b0 <.LBB81_4+0x1d8>
     8d8:	080ccc93          	xori	s9,s9,128
     8dc:	019c00a3          	sb	s9,1(s8)
     8e0:	00001cb7          	lui	s9,0x1
     8e4:	41940cb3          	sub	s9,s0,s9
     8e8:	3c0cbc83          	ld	s9,960(s9) # 13c0 <.LBB81_4+0x1e8>
     8ec:	080ccc93          	xori	s9,s9,128
     8f0:	019c0023          	sb	s9,0(s8)
     8f4:	00001cb7          	lui	s9,0x1
     8f8:	41940cb3          	sub	s9,s0,s9
     8fc:	3d0cbc83          	ld	s9,976(s9) # 13d0 <.LBB81_4+0x1f8>
     900:	080ccc93          	xori	s9,s9,128
     904:	019c0223          	sb	s9,4(s8)
     908:	00001cb7          	lui	s9,0x1
     90c:	41940cb3          	sub	s9,s0,s9
     910:	3e0cbc83          	ld	s9,992(s9) # 13e0 <.LBB81_4+0x208>
     914:	080ccc93          	xori	s9,s9,128
     918:	019c02a3          	sb	s9,5(s8)
     91c:	00001cb7          	lui	s9,0x1
     920:	41940cb3          	sub	s9,s0,s9
     924:	3f0cbc83          	ld	s9,1008(s9) # 13f0 <.LBB81_4+0x218>
     928:	080ccc93          	xori	s9,s9,128
     92c:	019c0323          	sb	s9,6(s8)
     930:	00001cb7          	lui	s9,0x1
     934:	41940cb3          	sub	s9,s0,s9
     938:	400cbc83          	ld	s9,1024(s9) # 1400 <.LBB81_4+0x228>
     93c:	080ccc93          	xori	s9,s9,128
     940:	019c03a3          	sb	s9,7(s8)
     944:	00001cb7          	lui	s9,0x1
     948:	41940cb3          	sub	s9,s0,s9
     94c:	410cbc83          	ld	s9,1040(s9) # 1410 <.LBB81_4+0x238>
     950:	080ccc93          	xori	s9,s9,128
     954:	019c0423          	sb	s9,8(s8)
     958:	00001cb7          	lui	s9,0x1
     95c:	41940cb3          	sub	s9,s0,s9
     960:	420cbc83          	ld	s9,1056(s9) # 1420 <.LBB81_4+0x248>
     964:	080ccc93          	xori	s9,s9,128
     968:	019c04a3          	sb	s9,9(s8)
     96c:	00001cb7          	lui	s9,0x1
     970:	41940cb3          	sub	s9,s0,s9
     974:	430cbc83          	ld	s9,1072(s9) # 1430 <.LBB81_4+0x258>
     978:	080ccc93          	xori	s9,s9,128
     97c:	019c0523          	sb	s9,10(s8)
     980:	00001cb7          	lui	s9,0x1
     984:	41940cb3          	sub	s9,s0,s9
     988:	440cbc83          	ld	s9,1088(s9) # 1440 <.LBB81_4+0x268>
     98c:	080ccc93          	xori	s9,s9,128
     990:	019c05a3          	sb	s9,11(s8)
     994:	00001cb7          	lui	s9,0x1
     998:	41940cb3          	sub	s9,s0,s9
     99c:	450cbc83          	ld	s9,1104(s9) # 1450 <.LBB81_4+0x278>
     9a0:	080ccc93          	xori	s9,s9,128
     9a4:	019c0623          	sb	s9,12(s8)
     9a8:	00001cb7          	lui	s9,0x1
     9ac:	41940cb3          	sub	s9,s0,s9
     9b0:	460cbc83          	ld	s9,1120(s9) # 1460 <.LBB81_4+0x288>
     9b4:	080ccc93          	xori	s9,s9,128
     9b8:	019c06a3          	sb	s9,13(s8)
     9bc:	00001cb7          	lui	s9,0x1
     9c0:	41940cb3          	sub	s9,s0,s9
     9c4:	470cbc83          	ld	s9,1136(s9) # 1470 <.LBB81_4+0x298>
     9c8:	080ccc93          	xori	s9,s9,128
     9cc:	019c0723          	sb	s9,14(s8)
     9d0:	00001cb7          	lui	s9,0x1
     9d4:	41940cb3          	sub	s9,s0,s9
     9d8:	480cbc83          	ld	s9,1152(s9) # 1480 <.LBB81_4+0x2a8>
     9dc:	080ccc93          	xori	s9,s9,128
     9e0:	019c07a3          	sb	s9,15(s8)
     9e4:	00001cb7          	lui	s9,0x1
     9e8:	41940cb3          	sub	s9,s0,s9
     9ec:	490cbc83          	ld	s9,1168(s9) # 1490 <.LBB81_4+0x2b8>
     9f0:	080ccc93          	xori	s9,s9,128
     9f4:	019c0823          	sb	s9,16(s8)
     9f8:	00001cb7          	lui	s9,0x1
     9fc:	41940cb3          	sub	s9,s0,s9
     a00:	4a0cbc83          	ld	s9,1184(s9) # 14a0 <.LBB81_4+0x2c8>
     a04:	080ccc93          	xori	s9,s9,128
     a08:	019c08a3          	sb	s9,17(s8)
     a0c:	00001cb7          	lui	s9,0x1
     a10:	41940cb3          	sub	s9,s0,s9
     a14:	4b0cbc83          	ld	s9,1200(s9) # 14b0 <.LBB81_4+0x2d8>
     a18:	080ccc93          	xori	s9,s9,128
     a1c:	019c0923          	sb	s9,18(s8)
     a20:	00001cb7          	lui	s9,0x1
     a24:	41940cb3          	sub	s9,s0,s9
     a28:	4c0cbc83          	ld	s9,1216(s9) # 14c0 <.LBB81_4+0x2e8>
     a2c:	080ccc93          	xori	s9,s9,128
     a30:	019c09a3          	sb	s9,19(s8)
     a34:	00001cb7          	lui	s9,0x1
     a38:	41940cb3          	sub	s9,s0,s9
     a3c:	4d0cbc83          	ld	s9,1232(s9) # 14d0 <.LBB81_4+0x2f8>
     a40:	080ccc93          	xori	s9,s9,128
     a44:	019c0a23          	sb	s9,20(s8)
     a48:	00001cb7          	lui	s9,0x1
     a4c:	41940cb3          	sub	s9,s0,s9
     a50:	4e0cbc83          	ld	s9,1248(s9) # 14e0 <.LBB81_4+0x308>
     a54:	080ccc93          	xori	s9,s9,128
     a58:	019c0aa3          	sb	s9,21(s8)
     a5c:	00001cb7          	lui	s9,0x1
     a60:	41940cb3          	sub	s9,s0,s9
     a64:	4f0cbc83          	ld	s9,1264(s9) # 14f0 <.LBB81_4+0x318>
     a68:	080ccc93          	xori	s9,s9,128
     a6c:	019c0b23          	sb	s9,22(s8)
     a70:	00001cb7          	lui	s9,0x1
     a74:	41940cb3          	sub	s9,s0,s9
     a78:	500cbc83          	ld	s9,1280(s9) # 1500 <.LBB81_4+0x328>
     a7c:	080ccc93          	xori	s9,s9,128
     a80:	019c0ba3          	sb	s9,23(s8)
     a84:	00001cb7          	lui	s9,0x1
     a88:	41940cb3          	sub	s9,s0,s9
     a8c:	510cbc83          	ld	s9,1296(s9) # 1510 <.LBB81_4+0x338>
     a90:	080ccc93          	xori	s9,s9,128
     a94:	019c0c23          	sb	s9,24(s8)
     a98:	00001cb7          	lui	s9,0x1
     a9c:	41940cb3          	sub	s9,s0,s9
     aa0:	520cbc83          	ld	s9,1312(s9) # 1520 <.LBB81_4+0x348>
     aa4:	080ccc93          	xori	s9,s9,128
     aa8:	019c0ca3          	sb	s9,25(s8)
     aac:	00001cb7          	lui	s9,0x1
     ab0:	41940cb3          	sub	s9,s0,s9
     ab4:	530cbc83          	ld	s9,1328(s9) # 1530 <.LBB81_4+0x358>
     ab8:	080ccc93          	xori	s9,s9,128
     abc:	019c0d23          	sb	s9,26(s8)
     ac0:	00001cb7          	lui	s9,0x1
     ac4:	41940cb3          	sub	s9,s0,s9
     ac8:	540cbc83          	ld	s9,1344(s9) # 1540 <.LBB81_4+0x368>
     acc:	080ccc93          	xori	s9,s9,128
     ad0:	019c0da3          	sb	s9,27(s8)
     ad4:	00001cb7          	lui	s9,0x1
     ad8:	41940cb3          	sub	s9,s0,s9
     adc:	550cbc83          	ld	s9,1360(s9) # 1550 <.LBB81_4+0x378>
     ae0:	080ccc93          	xori	s9,s9,128
     ae4:	019c0e23          	sb	s9,28(s8)
     ae8:	00001cb7          	lui	s9,0x1
     aec:	41940cb3          	sub	s9,s0,s9
     af0:	560cbc83          	ld	s9,1376(s9) # 1560 <.LBB81_4+0x388>
     af4:	080ccc93          	xori	s9,s9,128
     af8:	019c0ea3          	sb	s9,29(s8)
     afc:	00001cb7          	lui	s9,0x1
     b00:	41940cb3          	sub	s9,s0,s9
     b04:	570cbc83          	ld	s9,1392(s9) # 1570 <.LBB81_4+0x398>
     b08:	080ccc93          	xori	s9,s9,128
     b0c:	019c0f23          	sb	s9,30(s8)
     b10:	00001cb7          	lui	s9,0x1
     b14:	41940cb3          	sub	s9,s0,s9
     b18:	588cbc83          	ld	s9,1416(s9) # 1588 <.LBB81_4+0x3b0>
     b1c:	080ccc93          	xori	s9,s9,128
     b20:	019c0fa3          	sb	s9,31(s8)
     b24:	00001c37          	lui	s8,0x1
     b28:	41840c33          	sub	s8,s0,s8
     b2c:	590c3c03          	ld	s8,1424(s8) # 1590 <.LBB81_4+0x3b8>
     b30:	080c4c93          	xori	s9,s8,128
     b34:	00001c37          	lui	s8,0x1
     b38:	41840c33          	sub	s8,s0,s8
     b3c:	d48c3c03          	ld	s8,-696(s8) # d48 <.LBB81_3+0xad4>
     b40:	01ac0c33          	add	s8,s8,s10
     b44:	019c01a3          	sb	s9,3(s8)
     b48:	00001cb7          	lui	s9,0x1
     b4c:	41940cb3          	sub	s9,s0,s9
     b50:	5a0cbc83          	ld	s9,1440(s9) # 15a0 <.LBB81_4+0x3c8>
     b54:	080ccc93          	xori	s9,s9,128
     b58:	019c0123          	sb	s9,2(s8)
     b5c:	00001cb7          	lui	s9,0x1
     b60:	41940cb3          	sub	s9,s0,s9
     b64:	5b0cbc83          	ld	s9,1456(s9) # 15b0 <.LBB81_4+0x3d8>
     b68:	080ccc93          	xori	s9,s9,128
     b6c:	019c00a3          	sb	s9,1(s8)
     b70:	00001cb7          	lui	s9,0x1
     b74:	41940cb3          	sub	s9,s0,s9
     b78:	5c0cbc83          	ld	s9,1472(s9) # 15c0 <.LBB81_4+0x3e8>
     b7c:	080ccc93          	xori	s9,s9,128
     b80:	019c0023          	sb	s9,0(s8)
     b84:	00001cb7          	lui	s9,0x1
     b88:	41940cb3          	sub	s9,s0,s9
     b8c:	5d0cbc83          	ld	s9,1488(s9) # 15d0 <.LBB81_4+0x3f8>
     b90:	080ccc93          	xori	s9,s9,128
     b94:	019c0223          	sb	s9,4(s8)
     b98:	00001cb7          	lui	s9,0x1
     b9c:	41940cb3          	sub	s9,s0,s9
     ba0:	5e0cbc83          	ld	s9,1504(s9) # 15e0 <.LBB81_4+0x408>
     ba4:	080ccc93          	xori	s9,s9,128
     ba8:	019c02a3          	sb	s9,5(s8)
     bac:	00001cb7          	lui	s9,0x1
     bb0:	41940cb3          	sub	s9,s0,s9
     bb4:	5f0cbc83          	ld	s9,1520(s9) # 15f0 <.LBB81_4+0x418>
     bb8:	080ccc93          	xori	s9,s9,128
     bbc:	019c0323          	sb	s9,6(s8)
     bc0:	00001cb7          	lui	s9,0x1
     bc4:	41940cb3          	sub	s9,s0,s9
     bc8:	600cbc83          	ld	s9,1536(s9) # 1600 <.LBB81_4+0x428>
     bcc:	080ccc93          	xori	s9,s9,128
     bd0:	019c03a3          	sb	s9,7(s8)
     bd4:	00001cb7          	lui	s9,0x1
     bd8:	41940cb3          	sub	s9,s0,s9
     bdc:	610cbc83          	ld	s9,1552(s9) # 1610 <.LBB81_4+0x438>
     be0:	080ccc93          	xori	s9,s9,128
     be4:	019c0423          	sb	s9,8(s8)
     be8:	00001cb7          	lui	s9,0x1
     bec:	41940cb3          	sub	s9,s0,s9
     bf0:	620cbc83          	ld	s9,1568(s9) # 1620 <.LBB81_4+0x448>
     bf4:	080ccc93          	xori	s9,s9,128
     bf8:	019c04a3          	sb	s9,9(s8)
     bfc:	00001cb7          	lui	s9,0x1
     c00:	41940cb3          	sub	s9,s0,s9
     c04:	630cbc83          	ld	s9,1584(s9) # 1630 <.LBB81_4+0x458>
     c08:	080ccc93          	xori	s9,s9,128
     c0c:	019c0523          	sb	s9,10(s8)
     c10:	00001cb7          	lui	s9,0x1
     c14:	41940cb3          	sub	s9,s0,s9
     c18:	638cbc83          	ld	s9,1592(s9) # 1638 <.LBB81_4+0x460>
     c1c:	080ccc93          	xori	s9,s9,128
     c20:	019c05a3          	sb	s9,11(s8)
     c24:	af843c83          	ld	s9,-1288(s0)
     c28:	080ccc93          	xori	s9,s9,128
     c2c:	019c0623          	sb	s9,12(s8)
     c30:	00001cb7          	lui	s9,0x1
     c34:	41940cb3          	sub	s9,s0,s9
     c38:	650cbc83          	ld	s9,1616(s9) # 1650 <.LBB81_4+0x478>
     c3c:	080ccc93          	xori	s9,s9,128
     c40:	019c06a3          	sb	s9,13(s8)
     c44:	00001cb7          	lui	s9,0x1
     c48:	41940cb3          	sub	s9,s0,s9
     c4c:	688cbc83          	ld	s9,1672(s9) # 1688 <.LBB81_4+0x4b0>
     c50:	080ccc93          	xori	s9,s9,128
     c54:	019c0723          	sb	s9,14(s8)
     c58:	00001cb7          	lui	s9,0x1
     c5c:	41940cb3          	sub	s9,s0,s9
     c60:	698cbc83          	ld	s9,1688(s9) # 1698 <.LBB81_4+0x4c0>
     c64:	080ccc93          	xori	s9,s9,128
     c68:	019c07a3          	sb	s9,15(s8)
     c6c:	00001cb7          	lui	s9,0x1
     c70:	41940cb3          	sub	s9,s0,s9
     c74:	6a8cbc83          	ld	s9,1704(s9) # 16a8 <.LBB81_4+0x4d0>
     c78:	080ccc93          	xori	s9,s9,128
     c7c:	019c0823          	sb	s9,16(s8)
     c80:	00001cb7          	lui	s9,0x1
     c84:	41940cb3          	sub	s9,s0,s9
     c88:	780cbc83          	ld	s9,1920(s9) # 1780 <.LBB81_5+0x2c>
     c8c:	080ccc93          	xori	s9,s9,128
     c90:	019c08a3          	sb	s9,17(s8)
     c94:	b2843c83          	ld	s9,-1240(s0)
     c98:	080ccc93          	xori	s9,s9,128
     c9c:	019c0923          	sb	s9,18(s8)
     ca0:	00001cb7          	lui	s9,0x1
     ca4:	41940cb3          	sub	s9,s0,s9
     ca8:	7a8cbc83          	ld	s9,1960(s9) # 17a8 <.LBB81_5+0x54>
     cac:	080ccc93          	xori	s9,s9,128
     cb0:	019c09a3          	sb	s9,19(s8)
     cb4:	00001cb7          	lui	s9,0x1
     cb8:	41940cb3          	sub	s9,s0,s9
     cbc:	7b8cbc83          	ld	s9,1976(s9) # 17b8 <.LBB81_5+0x64>
     cc0:	080ccc93          	xori	s9,s9,128
     cc4:	019c0a23          	sb	s9,20(s8)
     cc8:	00001cb7          	lui	s9,0x1
     ccc:	41940cb3          	sub	s9,s0,s9
     cd0:	7c8cbc83          	ld	s9,1992(s9) # 17c8 <.LBB81_5+0x74>
     cd4:	080ccc93          	xori	s9,s9,128
     cd8:	019c0aa3          	sb	s9,21(s8)
     cdc:	00001cb7          	lui	s9,0x1
     ce0:	41940cb3          	sub	s9,s0,s9
     ce4:	7d8cbc83          	ld	s9,2008(s9) # 17d8 <.LBB81_5+0x84>
     ce8:	080ccc93          	xori	s9,s9,128
     cec:	019c0b23          	sb	s9,22(s8)
     cf0:	00001cb7          	lui	s9,0x1
     cf4:	41940cb3          	sub	s9,s0,s9
     cf8:	7f0cbc83          	ld	s9,2032(s9) # 17f0 <.LBB81_5+0x9c>
     cfc:	080ccc93          	xori	s9,s9,128
     d00:	019c0ba3          	sb	s9,23(s8)
     d04:	80043c83          	ld	s9,-2048(s0)
     d08:	080ccc93          	xori	s9,s9,128
     d0c:	019c0c23          	sb	s9,24(s8)
     d10:	81043c83          	ld	s9,-2032(s0)
     d14:	080ccc93          	xori	s9,s9,128
     d18:	019c0ca3          	sb	s9,25(s8)
     d1c:	82043c83          	ld	s9,-2016(s0)
     d20:	080ccc93          	xori	s9,s9,128
     d24:	019c0d23          	sb	s9,26(s8)
     d28:	83843c83          	ld	s9,-1992(s0)
     d2c:	080ccc93          	xori	s9,s9,128
     d30:	019c0da3          	sb	s9,27(s8)
     d34:	84843c83          	ld	s9,-1976(s0)
     d38:	080ccc93          	xori	s9,s9,128
     d3c:	019c0e23          	sb	s9,28(s8)
     d40:	85843c83          	ld	s9,-1960(s0)
     d44:	080ccc93          	xori	s9,s9,128
     d48:	019c0ea3          	sb	s9,29(s8)
     d4c:	87043c83          	ld	s9,-1936(s0)
     d50:	080ccc93          	xori	s9,s9,128
     d54:	019c0f23          	sb	s9,30(s8)
     d58:	88843c83          	ld	s9,-1912(s0)
     d5c:	080ccc93          	xori	s9,s9,128
     d60:	019c0fa3          	sb	s9,31(s8)
     d64:	89043c03          	ld	s8,-1904(s0)
     d68:	080c4c93          	xori	s9,s8,128
     d6c:	00001c37          	lui	s8,0x1
     d70:	41840c33          	sub	s8,s0,s8
     d74:	d40c3c03          	ld	s8,-704(s8) # d40 <.LBB81_3+0xacc>
     d78:	01ac0c33          	add	s8,s8,s10
     d7c:	019c01a3          	sb	s9,3(s8)
     d80:	8a043c83          	ld	s9,-1888(s0)
     d84:	080ccc93          	xori	s9,s9,128
     d88:	019c0123          	sb	s9,2(s8)
     d8c:	8b043c83          	ld	s9,-1872(s0)
     d90:	080ccc93          	xori	s9,s9,128
     d94:	019c00a3          	sb	s9,1(s8)
     d98:	8c843c83          	ld	s9,-1848(s0)
     d9c:	080ccc93          	xori	s9,s9,128
     da0:	019c0023          	sb	s9,0(s8)
     da4:	8d843c83          	ld	s9,-1832(s0)
     da8:	080ccc93          	xori	s9,s9,128
     dac:	019c0223          	sb	s9,4(s8)
     db0:	8e843c83          	ld	s9,-1816(s0)
     db4:	080ccc93          	xori	s9,s9,128
     db8:	019c02a3          	sb	s9,5(s8)
     dbc:	bc843c83          	ld	s9,-1080(s0)
     dc0:	080ccc93          	xori	s9,s9,128
     dc4:	019c0323          	sb	s9,6(s8)
     dc8:	90843c83          	ld	s9,-1784(s0)
     dcc:	080ccc93          	xori	s9,s9,128
     dd0:	019c03a3          	sb	s9,7(s8)
     dd4:	91843c83          	ld	s9,-1768(s0)
     dd8:	080ccc93          	xori	s9,s9,128
     ddc:	019c0423          	sb	s9,8(s8)
     de0:	92843c83          	ld	s9,-1752(s0)
     de4:	080ccc93          	xori	s9,s9,128
     de8:	019c04a3          	sb	s9,9(s8)
     dec:	94043c83          	ld	s9,-1728(s0)
     df0:	080ccc93          	xori	s9,s9,128
     df4:	019c0523          	sb	s9,10(s8)
     df8:	95043c83          	ld	s9,-1712(s0)
     dfc:	080ccc93          	xori	s9,s9,128
     e00:	019c05a3          	sb	s9,11(s8)
     e04:	96043c83          	ld	s9,-1696(s0)
     e08:	080ccc93          	xori	s9,s9,128
     e0c:	019c0623          	sb	s9,12(s8)
     e10:	97043c83          	ld	s9,-1680(s0)
     e14:	080ccc93          	xori	s9,s9,128
     e18:	019c06a3          	sb	s9,13(s8)
     e1c:	98843c83          	ld	s9,-1656(s0)
     e20:	080ccc93          	xori	s9,s9,128
     e24:	019c0723          	sb	s9,14(s8)
     e28:	99843c83          	ld	s9,-1640(s0)
     e2c:	080ccc93          	xori	s9,s9,128
     e30:	019c07a3          	sb	s9,15(s8)
     e34:	9a843c83          	ld	s9,-1624(s0)
     e38:	080ccc93          	xori	s9,s9,128
     e3c:	019c0823          	sb	s9,16(s8)
     e40:	9c043c83          	ld	s9,-1600(s0)
     e44:	080ccc93          	xori	s9,s9,128
     e48:	019c08a3          	sb	s9,17(s8)
     e4c:	9d043c83          	ld	s9,-1584(s0)
     e50:	080ccc93          	xori	s9,s9,128
     e54:	019c0923          	sb	s9,18(s8)
     e58:	9e043c83          	ld	s9,-1568(s0)
     e5c:	080ccc93          	xori	s9,s9,128
     e60:	019c09a3          	sb	s9,19(s8)
     e64:	9f043c83          	ld	s9,-1552(s0)
     e68:	080ccc93          	xori	s9,s9,128
     e6c:	019c0a23          	sb	s9,20(s8)
     e70:	a0843c83          	ld	s9,-1528(s0)
     e74:	080ccc93          	xori	s9,s9,128
     e78:	019c0aa3          	sb	s9,21(s8)
     e7c:	a1843c83          	ld	s9,-1512(s0)
     e80:	080ccc93          	xori	s9,s9,128
     e84:	019c0b23          	sb	s9,22(s8)
     e88:	a2843c83          	ld	s9,-1496(s0)
     e8c:	080ccc93          	xori	s9,s9,128
     e90:	019c0ba3          	sb	s9,23(s8)
     e94:	a3843c83          	ld	s9,-1480(s0)
     e98:	080ccc93          	xori	s9,s9,128
     e9c:	019c0c23          	sb	s9,24(s8)
     ea0:	a5043c83          	ld	s9,-1456(s0)
     ea4:	080ccc93          	xori	s9,s9,128
     ea8:	019c0ca3          	sb	s9,25(s8)
     eac:	a6043c83          	ld	s9,-1440(s0)
     eb0:	080ccc93          	xori	s9,s9,128
     eb4:	019c0d23          	sb	s9,26(s8)
     eb8:	a7043c83          	ld	s9,-1424(s0)
     ebc:	080ccc93          	xori	s9,s9,128
     ec0:	019c0da3          	sb	s9,27(s8)
     ec4:	a8843c83          	ld	s9,-1400(s0)
     ec8:	080ccc93          	xori	s9,s9,128
     ecc:	019c0e23          	sb	s9,28(s8)
     ed0:	a9843c83          	ld	s9,-1384(s0)
     ed4:	080ccc93          	xori	s9,s9,128
     ed8:	019c0ea3          	sb	s9,29(s8)
     edc:	aa843c83          	ld	s9,-1368(s0)
     ee0:	080ccc93          	xori	s9,s9,128
     ee4:	019c0f23          	sb	s9,30(s8)
     ee8:	ac043c83          	ld	s9,-1344(s0)
     eec:	080ccc93          	xori	s9,s9,128
     ef0:	019c0fa3          	sb	s9,31(s8)
     ef4:	ac843c03          	ld	s8,-1336(s0)
     ef8:	080c4c93          	xori	s9,s8,128
     efc:	00001c37          	lui	s8,0x1
     f00:	41840c33          	sub	s8,s0,s8
     f04:	d38c3c03          	ld	s8,-712(s8) # d38 <.LBB81_3+0xac4>
     f08:	01ac0c33          	add	s8,s8,s10
     f0c:	019c01a3          	sb	s9,3(s8)
     f10:	ae043c83          	ld	s9,-1312(s0)
     f14:	080ccc93          	xori	s9,s9,128
     f18:	019c0123          	sb	s9,2(s8)
     f1c:	af043c83          	ld	s9,-1296(s0)
     f20:	080ccc93          	xori	s9,s9,128
     f24:	019c00a3          	sb	s9,1(s8)
     f28:	b0843c83          	ld	s9,-1272(s0)
     f2c:	080ccc93          	xori	s9,s9,128
     f30:	019c0023          	sb	s9,0(s8)
     f34:	b2043c83          	ld	s9,-1248(s0)
     f38:	080ccc93          	xori	s9,s9,128
     f3c:	019c0223          	sb	s9,4(s8)
     f40:	b3843c83          	ld	s9,-1224(s0)
     f44:	080ccc93          	xori	s9,s9,128
     f48:	019c02a3          	sb	s9,5(s8)
     f4c:	b4843c83          	ld	s9,-1208(s0)
     f50:	080ccc93          	xori	s9,s9,128
     f54:	019c0323          	sb	s9,6(s8)
     f58:	b5843c83          	ld	s9,-1192(s0)
     f5c:	080ccc93          	xori	s9,s9,128
     f60:	019c03a3          	sb	s9,7(s8)
     f64:	b7043c83          	ld	s9,-1168(s0)
     f68:	080ccc93          	xori	s9,s9,128
     f6c:	019c0423          	sb	s9,8(s8)
     f70:	b8043c83          	ld	s9,-1152(s0)
     f74:	080ccc93          	xori	s9,s9,128
     f78:	019c04a3          	sb	s9,9(s8)
     f7c:	b9043c83          	ld	s9,-1136(s0)
     f80:	080ccc93          	xori	s9,s9,128
     f84:	019c0523          	sb	s9,10(s8)
     f88:	ba043c83          	ld	s9,-1120(s0)
     f8c:	080ccc93          	xori	s9,s9,128
     f90:	019c05a3          	sb	s9,11(s8)
     f94:	bb843c83          	ld	s9,-1096(s0)
     f98:	080ccc93          	xori	s9,s9,128
     f9c:	019c0623          	sb	s9,12(s8)
     fa0:	bd043c83          	ld	s9,-1072(s0)
     fa4:	080ccc93          	xori	s9,s9,128
     fa8:	019c06a3          	sb	s9,13(s8)
     fac:	be043c83          	ld	s9,-1056(s0)
     fb0:	080ccc93          	xori	s9,s9,128
     fb4:	019c0723          	sb	s9,14(s8)
     fb8:	bf843c83          	ld	s9,-1032(s0)
     fbc:	080ccc93          	xori	s9,s9,128
     fc0:	019c07a3          	sb	s9,15(s8)
     fc4:	c0843c83          	ld	s9,-1016(s0)
     fc8:	080ccc93          	xori	s9,s9,128
     fcc:	019c0823          	sb	s9,16(s8)
     fd0:	c1843c83          	ld	s9,-1000(s0)
     fd4:	080ccc93          	xori	s9,s9,128
     fd8:	019c08a3          	sb	s9,17(s8)
     fdc:	c2843c83          	ld	s9,-984(s0)
     fe0:	080ccc93          	xori	s9,s9,128
     fe4:	019c0923          	sb	s9,18(s8)
     fe8:	c4043c83          	ld	s9,-960(s0)
     fec:	080ccc93          	xori	s9,s9,128
     ff0:	019c09a3          	sb	s9,19(s8)
     ff4:	c5043c83          	ld	s9,-944(s0)
     ff8:	080ccc93          	xori	s9,s9,128
     ffc:	019c0a23          	sb	s9,20(s8)
    1000:	c6043c83          	ld	s9,-928(s0)
    1004:	080ccc93          	xori	s9,s9,128
    1008:	019c0aa3          	sb	s9,21(s8)
    100c:	c7043c83          	ld	s9,-912(s0)
    1010:	080ccc93          	xori	s9,s9,128
    1014:	019c0b23          	sb	s9,22(s8)
    1018:	c8843c83          	ld	s9,-888(s0)
    101c:	080ccc93          	xori	s9,s9,128
    1020:	019c0ba3          	sb	s9,23(s8)
    1024:	c9843c83          	ld	s9,-872(s0)
    1028:	080ccc93          	xori	s9,s9,128
    102c:	019c0c23          	sb	s9,24(s8)
    1030:	ca843c83          	ld	s9,-856(s0)
    1034:	080ccc93          	xori	s9,s9,128
    1038:	019c0ca3          	sb	s9,25(s8)
    103c:	cb843c83          	ld	s9,-840(s0)
    1040:	080ccc93          	xori	s9,s9,128
    1044:	019c0d23          	sb	s9,26(s8)
    1048:	cc843c83          	ld	s9,-824(s0)
    104c:	080ccc93          	xori	s9,s9,128
    1050:	019c0da3          	sb	s9,27(s8)
    1054:	cd843c83          	ld	s9,-808(s0)
    1058:	080ccc93          	xori	s9,s9,128
    105c:	019c0e23          	sb	s9,28(s8)
    1060:	ce843c83          	ld	s9,-792(s0)
    1064:	080ccc93          	xori	s9,s9,128
    1068:	019c0ea3          	sb	s9,29(s8)
    106c:	cf843c83          	ld	s9,-776(s0)
    1070:	080ccc93          	xori	s9,s9,128
    1074:	019c0f23          	sb	s9,30(s8)
    1078:	d1043c83          	ld	s9,-752(s0)
    107c:	080ccc93          	xori	s9,s9,128
    1080:	019c0fa3          	sb	s9,31(s8)
    1084:	d1843c03          	ld	s8,-744(s0)
    1088:	080c4c93          	xori	s9,s8,128
    108c:	00001c37          	lui	s8,0x1
    1090:	41840c33          	sub	s8,s0,s8
    1094:	d30c3c03          	ld	s8,-720(s8) # d30 <.LBB81_3+0xabc>
    1098:	01ac0c33          	add	s8,s8,s10
    109c:	019c01a3          	sb	s9,3(s8)
    10a0:	d2843c83          	ld	s9,-728(s0)
    10a4:	080ccc93          	xori	s9,s9,128
    10a8:	019c0123          	sb	s9,2(s8)
    10ac:	d3843c83          	ld	s9,-712(s0)
    10b0:	080ccc93          	xori	s9,s9,128
    10b4:	019c00a3          	sb	s9,1(s8)
    10b8:	d4843c83          	ld	s9,-696(s0)
    10bc:	080ccc93          	xori	s9,s9,128
    10c0:	019c0023          	sb	s9,0(s8)
    10c4:	e9043c83          	ld	s9,-368(s0)
    10c8:	080ccc93          	xori	s9,s9,128
    10cc:	019c0223          	sb	s9,4(s8)
    10d0:	d6043c83          	ld	s9,-672(s0)
    10d4:	080ccc93          	xori	s9,s9,128
    10d8:	019c02a3          	sb	s9,5(s8)
    10dc:	d7043c83          	ld	s9,-656(s0)
    10e0:	080ccc93          	xori	s9,s9,128
    10e4:	019c0323          	sb	s9,6(s8)
    10e8:	d8043c83          	ld	s9,-640(s0)
    10ec:	080ccc93          	xori	s9,s9,128
    10f0:	019c03a3          	sb	s9,7(s8)
    10f4:	d9043c83          	ld	s9,-624(s0)
    10f8:	080ccc93          	xori	s9,s9,128
    10fc:	019c0423          	sb	s9,8(s8)
    1100:	080dcc93          	xori	s9,s11,128
    1104:	019c04a3          	sb	s9,9(s8)
    1108:	08054513          	xori	a0,a0,128
    110c:	00ac0523          	sb	a0,10(s8)
    1110:	0805c513          	xori	a0,a1,128
    1114:	00ac05a3          	sb	a0,11(s8)
    1118:	08064513          	xori	a0,a2,128
    111c:	00ac0623          	sb	a0,12(s8)
    1120:	0806c513          	xori	a0,a3,128
    1124:	00ac06a3          	sb	a0,13(s8)
    1128:	08074513          	xori	a0,a4,128
    112c:	00ac0723          	sb	a0,14(s8)
    1130:	0807c513          	xori	a0,a5,128
    1134:	00ac07a3          	sb	a0,15(s8)
    1138:	08084513          	xori	a0,a6,128
    113c:	00ac0823          	sb	a0,16(s8)
    1140:	0808c513          	xori	a0,a7,128
    1144:	00ac08a3          	sb	a0,17(s8)
    1148:	0802c513          	xori	a0,t0,128
    114c:	00ac0923          	sb	a0,18(s8)
    1150:	08034513          	xori	a0,t1,128
    1154:	00ac09a3          	sb	a0,19(s8)
    1158:	0803c513          	xori	a0,t2,128
    115c:	00ac0a23          	sb	a0,20(s8)
    1160:	080e4513          	xori	a0,t3,128
    1164:	00ac0aa3          	sb	a0,21(s8)
    1168:	080ec513          	xori	a0,t4,128
    116c:	00ac0b23          	sb	a0,22(s8)
    1170:	080f4513          	xori	a0,t5,128
    1174:	00ac0ba3          	sb	a0,23(s8)
    1178:	080fc513          	xori	a0,t6,128
    117c:	00ac0c23          	sb	a0,24(s8)
    1180:	0804c513          	xori	a0,s1,128
    1184:	00ac0ca3          	sb	a0,25(s8)
    1188:	08094513          	xori	a0,s2,128
    118c:	00ac0d23          	sb	a0,26(s8)
    1190:	0809c513          	xori	a0,s3,128
    1194:	00ac0da3          	sb	a0,27(s8)
    1198:	080a4513          	xori	a0,s4,128
    119c:	00ac0e23          	sb	a0,28(s8)
    11a0:	080ac513          	xori	a0,s5,128
    11a4:	00ac0ea3          	sb	a0,29(s8)
    11a8:	080b4513          	xori	a0,s6,128
    11ac:	00ac0f23          	sb	a0,30(s8)
    11b0:	080bc513          	xori	a0,s7,128
    11b4:	00ac0fa3          	sb	a0,31(s8)
    11b8:	020d0593          	addi	a1,s10,32
    11bc:	00001537          	lui	a0,0x1
    11c0:	40a40533          	sub	a0,s0,a0
    11c4:	65853d83          	ld	s11,1624(a0) # 1658 <.LBB81_4+0x480>
    11c8:	020d8d93          	addi	s11,s11,32
    11cc:	22000513          	li	a0,544
    11d0:	00ad6463          	bltu	s10,a0,11d8 <.LBB81_4>
    11d4:	f45fe06f          	j	118 <.LBB81_1>

00000000000011d8 <.LBB81_4>:
    11d8:	00001537          	lui	a0,0x1
    11dc:	40a40533          	sub	a0,s0,a0
    11e0:	66b53823          	sd	a1,1648(a0) # 1670 <.LBB81_4+0x498>
    11e4:	00001537          	lui	a0,0x1
    11e8:	40a40533          	sub	a0,s0,a0
    11ec:	65b53c23          	sd	s11,1624(a0) # 1658 <.LBB81_4+0x480>
    11f0:	00001537          	lui	a0,0x1
    11f4:	40a40533          	sub	a0,s0,a0
    11f8:	d8053583          	ld	a1,-640(a0) # d80 <.LBB81_3+0xb0c>
    11fc:	00001537          	lui	a0,0x1
    1200:	40a40533          	sub	a0,s0,a0
    1204:	6e053023          	sd	zero,1760(a0) # 16e0 <.LBB81_4+0x508>
    1208:	00001537          	lui	a0,0x1
    120c:	40a40533          	sub	a0,s0,a0
    1210:	6c053c23          	sd	zero,1752(a0) # 16d8 <.LBB81_4+0x500>
    1214:	00001537          	lui	a0,0x1
    1218:	40a40533          	sub	a0,s0,a0
    121c:	6c053823          	sd	zero,1744(a0) # 16d0 <.LBB81_4+0x4f8>
    1220:	00001537          	lui	a0,0x1
    1224:	40a40533          	sub	a0,s0,a0
    1228:	6e053423          	sd	zero,1768(a0) # 16e8 <.LBB81_4+0x510>
    122c:	00001537          	lui	a0,0x1
    1230:	40a40533          	sub	a0,s0,a0
    1234:	6c053423          	sd	zero,1736(a0) # 16c8 <.LBB81_4+0x4f0>
    1238:	00001537          	lui	a0,0x1
    123c:	40a40533          	sub	a0,s0,a0
    1240:	6c053023          	sd	zero,1728(a0) # 16c0 <.LBB81_4+0x4e8>
    1244:	00001537          	lui	a0,0x1
    1248:	40a40533          	sub	a0,s0,a0
    124c:	6a053c23          	sd	zero,1720(a0) # 16b8 <.LBB81_4+0x4e0>
    1250:	00001537          	lui	a0,0x1
    1254:	40a40533          	sub	a0,s0,a0
    1258:	6a053823          	sd	zero,1712(a0) # 16b0 <.LBB81_4+0x4d8>
    125c:	00001537          	lui	a0,0x1
    1260:	40a40533          	sub	a0,s0,a0
    1264:	6a053423          	sd	zero,1704(a0) # 16a8 <.LBB81_4+0x4d0>
    1268:	00001537          	lui	a0,0x1
    126c:	40a40533          	sub	a0,s0,a0
    1270:	6e053823          	sd	zero,1776(a0) # 16f0 <.LBB81_4+0x518>
    1274:	00001537          	lui	a0,0x1
    1278:	40a40533          	sub	a0,s0,a0
    127c:	6e053c23          	sd	zero,1784(a0) # 16f8 <.LBB81_4+0x520>
    1280:	00001537          	lui	a0,0x1
    1284:	40a40533          	sub	a0,s0,a0
    1288:	70053023          	sd	zero,1792(a0) # 1700 <.LBB81_4+0x528>
    128c:	00001537          	lui	a0,0x1
    1290:	40a40533          	sub	a0,s0,a0
    1294:	70053423          	sd	zero,1800(a0) # 1708 <.LBB81_4+0x530>
    1298:	00001537          	lui	a0,0x1
    129c:	40a40533          	sub	a0,s0,a0
    12a0:	70053823          	sd	zero,1808(a0) # 1710 <.LBB81_4+0x538>
    12a4:	00001537          	lui	a0,0x1
    12a8:	40a40533          	sub	a0,s0,a0
    12ac:	70053c23          	sd	zero,1816(a0) # 1718 <.LBB81_4+0x540>
    12b0:	00001537          	lui	a0,0x1
    12b4:	40a40533          	sub	a0,s0,a0
    12b8:	72053023          	sd	zero,1824(a0) # 1720 <.LBB81_4+0x548>
    12bc:	00001537          	lui	a0,0x1
    12c0:	40a40533          	sub	a0,s0,a0
    12c4:	72053423          	sd	zero,1832(a0) # 1728 <.LBB81_4+0x550>
    12c8:	00001537          	lui	a0,0x1
    12cc:	40a40533          	sub	a0,s0,a0
    12d0:	72053823          	sd	zero,1840(a0) # 1730 <.LBB81_4+0x558>
    12d4:	00001537          	lui	a0,0x1
    12d8:	40a40533          	sub	a0,s0,a0
    12dc:	72053c23          	sd	zero,1848(a0) # 1738 <.LBB81_4+0x560>
    12e0:	00001537          	lui	a0,0x1
    12e4:	40a40533          	sub	a0,s0,a0
    12e8:	74053023          	sd	zero,1856(a0) # 1740 <.LBB81_4+0x568>
    12ec:	00001537          	lui	a0,0x1
    12f0:	40a40533          	sub	a0,s0,a0
    12f4:	74053423          	sd	zero,1864(a0) # 1748 <.LBB81_4+0x570>
    12f8:	00001537          	lui	a0,0x1
    12fc:	40a40533          	sub	a0,s0,a0
    1300:	74053823          	sd	zero,1872(a0) # 1750 <.LBB81_4+0x578>
    1304:	00001537          	lui	a0,0x1
    1308:	40a40533          	sub	a0,s0,a0
    130c:	74053c23          	sd	zero,1880(a0) # 1758 <.LBB81_5+0x4>
    1310:	00000b93          	li	s7,0
    1314:	00001537          	lui	a0,0x1
    1318:	40a40533          	sub	a0,s0,a0
    131c:	76053023          	sd	zero,1888(a0) # 1760 <.LBB81_5+0xc>
    1320:	00001537          	lui	a0,0x1
    1324:	40a40533          	sub	a0,s0,a0
    1328:	76053423          	sd	zero,1896(a0) # 1768 <.LBB81_5+0x14>
    132c:	00001537          	lui	a0,0x1
    1330:	40a40533          	sub	a0,s0,a0
    1334:	76053823          	sd	zero,1904(a0) # 1770 <.LBB81_5+0x1c>
    1338:	00001537          	lui	a0,0x1
    133c:	40a40533          	sub	a0,s0,a0
    1340:	76053c23          	sd	zero,1912(a0) # 1778 <.LBB81_5+0x24>
    1344:	00001537          	lui	a0,0x1
    1348:	40a40533          	sub	a0,s0,a0
    134c:	78053023          	sd	zero,1920(a0) # 1780 <.LBB81_5+0x2c>
    1350:	00000093          	li	ra,0
    1354:	00001537          	lui	a0,0x1
    1358:	40a40533          	sub	a0,s0,a0
    135c:	78053423          	sd	zero,1928(a0) # 1788 <.LBB81_5+0x34>
    1360:	00001537          	lui	a0,0x1
    1364:	40a40533          	sub	a0,s0,a0
    1368:	78053823          	sd	zero,1936(a0) # 1790 <.LBB81_5+0x3c>
    136c:	00001537          	lui	a0,0x1
    1370:	40a40533          	sub	a0,s0,a0
    1374:	7a053823          	sd	zero,1968(a0) # 17b0 <.LBB81_5+0x5c>
    1378:	00001537          	lui	a0,0x1
    137c:	40a40533          	sub	a0,s0,a0
    1380:	7a053423          	sd	zero,1960(a0) # 17a8 <.LBB81_5+0x54>
    1384:	00001537          	lui	a0,0x1
    1388:	40a40533          	sub	a0,s0,a0
    138c:	7a053023          	sd	zero,1952(a0) # 17a0 <.LBB81_5+0x4c>
    1390:	00001537          	lui	a0,0x1
    1394:	40a40533          	sub	a0,s0,a0
    1398:	78053c23          	sd	zero,1944(a0) # 1798 <.LBB81_5+0x44>
    139c:	00001537          	lui	a0,0x1
    13a0:	40a40533          	sub	a0,s0,a0
    13a4:	7a053c23          	sd	zero,1976(a0) # 17b8 <.LBB81_5+0x64>
    13a8:	00001537          	lui	a0,0x1
    13ac:	40a40533          	sub	a0,s0,a0
    13b0:	7c053023          	sd	zero,1984(a0) # 17c0 <.LBB81_5+0x6c>
    13b4:	00001537          	lui	a0,0x1
    13b8:	40a40533          	sub	a0,s0,a0
    13bc:	7c053423          	sd	zero,1992(a0) # 17c8 <.LBB81_5+0x74>
    13c0:	00001537          	lui	a0,0x1
    13c4:	40a40533          	sub	a0,s0,a0
    13c8:	7c053823          	sd	zero,2000(a0) # 17d0 <.LBB81_5+0x7c>
    13cc:	00001537          	lui	a0,0x1
    13d0:	40a40533          	sub	a0,s0,a0
    13d4:	7c053c23          	sd	zero,2008(a0) # 17d8 <.LBB81_5+0x84>
    13d8:	00001537          	lui	a0,0x1
    13dc:	40a40533          	sub	a0,s0,a0
    13e0:	7e053023          	sd	zero,2016(a0) # 17e0 <.LBB81_5+0x8c>
    13e4:	00001537          	lui	a0,0x1
    13e8:	40a40533          	sub	a0,s0,a0
    13ec:	7e053423          	sd	zero,2024(a0) # 17e8 <.LBB81_5+0x94>
    13f0:	00001537          	lui	a0,0x1
    13f4:	40a40533          	sub	a0,s0,a0
    13f8:	7e053823          	sd	zero,2032(a0) # 17f0 <.LBB81_5+0x9c>
    13fc:	00001537          	lui	a0,0x1
    1400:	40a40533          	sub	a0,s0,a0
    1404:	7e053c23          	sd	zero,2040(a0) # 17f8 <.LBB81_5+0xa4>
    1408:	80043023          	sd	zero,-2048(s0)
    140c:	80043423          	sd	zero,-2040(s0)
    1410:	80043823          	sd	zero,-2032(s0)
    1414:	80043c23          	sd	zero,-2024(s0)
    1418:	82043023          	sd	zero,-2016(s0)
    141c:	82043423          	sd	zero,-2008(s0)
    1420:	82043823          	sd	zero,-2000(s0)
    1424:	82043c23          	sd	zero,-1992(s0)
    1428:	84043023          	sd	zero,-1984(s0)
    142c:	84043423          	sd	zero,-1976(s0)
    1430:	84043823          	sd	zero,-1968(s0)
    1434:	84043c23          	sd	zero,-1960(s0)
    1438:	86043023          	sd	zero,-1952(s0)
    143c:	86043423          	sd	zero,-1944(s0)
    1440:	86043823          	sd	zero,-1936(s0)
    1444:	86043c23          	sd	zero,-1928(s0)
    1448:	88043023          	sd	zero,-1920(s0)
    144c:	88043423          	sd	zero,-1912(s0)
    1450:	88043823          	sd	zero,-1904(s0)
    1454:	8a043823          	sd	zero,-1872(s0)
    1458:	8a043423          	sd	zero,-1880(s0)
    145c:	8a043023          	sd	zero,-1888(s0)
    1460:	88043c23          	sd	zero,-1896(s0)
    1464:	8a043c23          	sd	zero,-1864(s0)
    1468:	8c043023          	sd	zero,-1856(s0)
    146c:	8c043423          	sd	zero,-1848(s0)
    1470:	8c043823          	sd	zero,-1840(s0)
    1474:	8c043c23          	sd	zero,-1832(s0)
    1478:	8e043023          	sd	zero,-1824(s0)
    147c:	8e043423          	sd	zero,-1816(s0)
    1480:	8e043823          	sd	zero,-1808(s0)
    1484:	8e043c23          	sd	zero,-1800(s0)
    1488:	90043023          	sd	zero,-1792(s0)
    148c:	90043423          	sd	zero,-1784(s0)
    1490:	90043823          	sd	zero,-1776(s0)
    1494:	90043c23          	sd	zero,-1768(s0)
    1498:	92043023          	sd	zero,-1760(s0)
    149c:	92043423          	sd	zero,-1752(s0)
    14a0:	92043823          	sd	zero,-1744(s0)
    14a4:	92043c23          	sd	zero,-1736(s0)
    14a8:	94043023          	sd	zero,-1728(s0)
    14ac:	94043423          	sd	zero,-1720(s0)
    14b0:	94043823          	sd	zero,-1712(s0)
    14b4:	94043c23          	sd	zero,-1704(s0)
    14b8:	96043023          	sd	zero,-1696(s0)
    14bc:	96043423          	sd	zero,-1688(s0)
    14c0:	96043823          	sd	zero,-1680(s0)
    14c4:	96043c23          	sd	zero,-1672(s0)
    14c8:	98043023          	sd	zero,-1664(s0)
    14cc:	98043423          	sd	zero,-1656(s0)
    14d0:	98043823          	sd	zero,-1648(s0)
    14d4:	9a043823          	sd	zero,-1616(s0)
    14d8:	9a043423          	sd	zero,-1624(s0)
    14dc:	9a043023          	sd	zero,-1632(s0)
    14e0:	98043c23          	sd	zero,-1640(s0)
    14e4:	9a043c23          	sd	zero,-1608(s0)
    14e8:	9c043023          	sd	zero,-1600(s0)
    14ec:	9c043423          	sd	zero,-1592(s0)
    14f0:	9c043823          	sd	zero,-1584(s0)
    14f4:	9c043c23          	sd	zero,-1576(s0)
    14f8:	9e043023          	sd	zero,-1568(s0)
    14fc:	9e043423          	sd	zero,-1560(s0)
    1500:	9e043823          	sd	zero,-1552(s0)
    1504:	9e043c23          	sd	zero,-1544(s0)
    1508:	a0043023          	sd	zero,-1536(s0)
    150c:	a0043423          	sd	zero,-1528(s0)
    1510:	a0043823          	sd	zero,-1520(s0)
    1514:	a0043c23          	sd	zero,-1512(s0)
    1518:	a2043023          	sd	zero,-1504(s0)
    151c:	a2043423          	sd	zero,-1496(s0)
    1520:	a2043823          	sd	zero,-1488(s0)
    1524:	a2043c23          	sd	zero,-1480(s0)
    1528:	a4043023          	sd	zero,-1472(s0)
    152c:	a4043423          	sd	zero,-1464(s0)
    1530:	a4043823          	sd	zero,-1456(s0)
    1534:	a4043c23          	sd	zero,-1448(s0)
    1538:	a6043023          	sd	zero,-1440(s0)
    153c:	a6043423          	sd	zero,-1432(s0)
    1540:	a6043823          	sd	zero,-1424(s0)
    1544:	a6043c23          	sd	zero,-1416(s0)
    1548:	a8043023          	sd	zero,-1408(s0)
    154c:	a8043423          	sd	zero,-1400(s0)
    1550:	a8043823          	sd	zero,-1392(s0)
    1554:	aa043823          	sd	zero,-1360(s0)
    1558:	aa043423          	sd	zero,-1368(s0)
    155c:	aa043023          	sd	zero,-1376(s0)
    1560:	a8043c23          	sd	zero,-1384(s0)
    1564:	aa043c23          	sd	zero,-1352(s0)
    1568:	ac043023          	sd	zero,-1344(s0)
    156c:	ac043423          	sd	zero,-1336(s0)
    1570:	ac043823          	sd	zero,-1328(s0)
    1574:	ac043c23          	sd	zero,-1320(s0)
    1578:	ae043023          	sd	zero,-1312(s0)
    157c:	ae043423          	sd	zero,-1304(s0)
    1580:	ae043823          	sd	zero,-1296(s0)
    1584:	ae043c23          	sd	zero,-1288(s0)
    1588:	b0043023          	sd	zero,-1280(s0)
    158c:	b0043423          	sd	zero,-1272(s0)
    1590:	b0043823          	sd	zero,-1264(s0)
    1594:	b0043c23          	sd	zero,-1256(s0)
    1598:	b2043023          	sd	zero,-1248(s0)
    159c:	b2043423          	sd	zero,-1240(s0)
    15a0:	b2043823          	sd	zero,-1232(s0)
    15a4:	b2043c23          	sd	zero,-1224(s0)
    15a8:	b4043023          	sd	zero,-1216(s0)
    15ac:	b4043423          	sd	zero,-1208(s0)
    15b0:	b4043823          	sd	zero,-1200(s0)
    15b4:	b4043c23          	sd	zero,-1192(s0)
    15b8:	b6043023          	sd	zero,-1184(s0)
    15bc:	b6043423          	sd	zero,-1176(s0)
    15c0:	b6043823          	sd	zero,-1168(s0)
    15c4:	b6043c23          	sd	zero,-1160(s0)
    15c8:	b8043023          	sd	zero,-1152(s0)
    15cc:	b8043423          	sd	zero,-1144(s0)
    15d0:	b8043823          	sd	zero,-1136(s0)
    15d4:	ba043823          	sd	zero,-1104(s0)
    15d8:	ba043423          	sd	zero,-1112(s0)
    15dc:	ba043023          	sd	zero,-1120(s0)
    15e0:	b8043c23          	sd	zero,-1128(s0)
    15e4:	ba043c23          	sd	zero,-1096(s0)
    15e8:	bc043023          	sd	zero,-1088(s0)
    15ec:	bc043423          	sd	zero,-1080(s0)
    15f0:	bc043823          	sd	zero,-1072(s0)
    15f4:	bc043c23          	sd	zero,-1064(s0)
    15f8:	be043023          	sd	zero,-1056(s0)
    15fc:	be043423          	sd	zero,-1048(s0)
    1600:	be043823          	sd	zero,-1040(s0)
    1604:	be043c23          	sd	zero,-1032(s0)
    1608:	c0043023          	sd	zero,-1024(s0)
    160c:	c0043423          	sd	zero,-1016(s0)
    1610:	c0043823          	sd	zero,-1008(s0)
    1614:	c0043c23          	sd	zero,-1000(s0)
    1618:	c2043023          	sd	zero,-992(s0)
    161c:	c2043423          	sd	zero,-984(s0)
    1620:	c2043823          	sd	zero,-976(s0)
    1624:	c2043c23          	sd	zero,-968(s0)
    1628:	c4043023          	sd	zero,-960(s0)
    162c:	c4043423          	sd	zero,-952(s0)
    1630:	c4043823          	sd	zero,-944(s0)
    1634:	c4043c23          	sd	zero,-936(s0)
    1638:	c6043023          	sd	zero,-928(s0)
    163c:	c6043423          	sd	zero,-920(s0)
    1640:	c6043823          	sd	zero,-912(s0)
    1644:	c6043c23          	sd	zero,-904(s0)
    1648:	c8043023          	sd	zero,-896(s0)
    164c:	c8043423          	sd	zero,-888(s0)
    1650:	c8043823          	sd	zero,-880(s0)
    1654:	ca043823          	sd	zero,-848(s0)
    1658:	ca043423          	sd	zero,-856(s0)
    165c:	ca043023          	sd	zero,-864(s0)
    1660:	c8043c23          	sd	zero,-872(s0)
    1664:	ca043c23          	sd	zero,-840(s0)
    1668:	cc043023          	sd	zero,-832(s0)
    166c:	cc043423          	sd	zero,-824(s0)
    1670:	cc043823          	sd	zero,-816(s0)
    1674:	cc043c23          	sd	zero,-808(s0)
    1678:	ce043023          	sd	zero,-800(s0)
    167c:	ce043423          	sd	zero,-792(s0)
    1680:	ce043823          	sd	zero,-784(s0)
    1684:	ce043c23          	sd	zero,-776(s0)
    1688:	d0043023          	sd	zero,-768(s0)
    168c:	d0043423          	sd	zero,-760(s0)
    1690:	d0043823          	sd	zero,-752(s0)
    1694:	d0043c23          	sd	zero,-744(s0)
    1698:	d2043023          	sd	zero,-736(s0)
    169c:	d2043423          	sd	zero,-728(s0)
    16a0:	d2043823          	sd	zero,-720(s0)
    16a4:	d2043c23          	sd	zero,-712(s0)
    16a8:	d4043023          	sd	zero,-704(s0)
    16ac:	d4043423          	sd	zero,-696(s0)
    16b0:	d4043823          	sd	zero,-688(s0)
    16b4:	d4043c23          	sd	zero,-680(s0)
    16b8:	d6043023          	sd	zero,-672(s0)
    16bc:	d6043423          	sd	zero,-664(s0)
    16c0:	d6043823          	sd	zero,-656(s0)
    16c4:	d6043c23          	sd	zero,-648(s0)
    16c8:	d8043023          	sd	zero,-640(s0)
    16cc:	d8043423          	sd	zero,-632(s0)
    16d0:	d8043823          	sd	zero,-624(s0)
    16d4:	da043823          	sd	zero,-592(s0)
    16d8:	da043423          	sd	zero,-600(s0)
    16dc:	da043023          	sd	zero,-608(s0)
    16e0:	d8043c23          	sd	zero,-616(s0)
    16e4:	da043c23          	sd	zero,-584(s0)
    16e8:	dc043023          	sd	zero,-576(s0)
    16ec:	dc043423          	sd	zero,-568(s0)
    16f0:	00000f93          	li	t6,0
    16f4:	00000d13          	li	s10,0
    16f8:	00000c93          	li	s9,0
    16fc:	00000c13          	li	s8,0
    1700:	00000b13          	li	s6,0
    1704:	dc043823          	sd	zero,-560(s0)
    1708:	00000993          	li	s3,0
    170c:	00000913          	li	s2,0
    1710:	00000493          	li	s1,0
    1714:	de043023          	sd	zero,-544(s0)
    1718:	00000f13          	li	t5,0
    171c:	de043423          	sd	zero,-536(s0)
    1720:	00000e13          	li	t3,0
    1724:	00000713          	li	a4,0
    1728:	00000393          	li	t2,0
    172c:	00000313          	li	t1,0
    1730:	00000613          	li	a2,0
    1734:	00000513          	li	a0,0
    1738:	00000293          	li	t0,0
    173c:	00000893          	li	a7,0
    1740:	e0043c23          	sd	zero,-488(s0)
    1744:	00000793          	li	a5,0
    1748:	e2043423          	sd	zero,-472(s0)
    174c:	e2043823          	sd	zero,-464(s0)
    1750:	e2043c23          	sd	zero,-456(s0)

0000000000001754 <.LBB81_5>:
    1754:	f8b43423          	sd	a1,-120(s0)
    1758:	edf43423          	sd	t6,-312(s0)
    175c:	eda43823          	sd	s10,-304(s0)
    1760:	ed943c23          	sd	s9,-296(s0)
    1764:	ef843023          	sd	s8,-288(s0)
    1768:	ef643423          	sd	s6,-280(s0)
    176c:	000016b7          	lui	a3,0x1
    1770:	40d406b3          	sub	a3,s0,a3
    1774:	6936b423          	sd	s3,1672(a3) # 1688 <.LBB81_4+0x4b0>
    1778:	000016b7          	lui	a3,0x1
    177c:	40d406b3          	sub	a3,s0,a3
    1780:	6926b823          	sd	s2,1680(a3) # 1690 <.LBB81_4+0x4b8>
    1784:	dc943c23          	sd	s1,-552(s0)
    1788:	efe43823          	sd	t5,-272(s0)
    178c:	dfc43823          	sd	t3,-528(s0)
    1790:	eee43c23          	sd	a4,-264(s0)
    1794:	de743c23          	sd	t2,-520(s0)
    1798:	e0643023          	sd	t1,-512(s0)
    179c:	f0c43023          	sd	a2,-256(s0)
    17a0:	f0a43423          	sd	a0,-248(s0)
    17a4:	e0543423          	sd	t0,-504(s0)
    17a8:	e1143823          	sd	a7,-496(s0)
    17ac:	e2f43023          	sd	a5,-480(s0)
    17b0:	00058503          	lb	a0,0(a1)
    17b4:	002d8603          	lb	a2,2(s11)
    17b8:	e6c43823          	sd	a2,-400(s0)
    17bc:	001d8703          	lb	a4,1(s11)
    17c0:	f6e43423          	sd	a4,-152(s0)
    17c4:	000d8683          	lb	a3,0(s11)
    17c8:	003d8783          	lb	a5,3(s11)
    17cc:	004d8b03          	lb	s6,4(s11)
    17d0:	f3643423          	sd	s6,-216(s0)
    17d4:	005d8d03          	lb	s10,5(s11)
    17d8:	f3a43023          	sd	s10,-224(s0)
    17dc:	006d8903          	lb	s2,6(s11)
    17e0:	f1243823          	sd	s2,-240(s0)
    17e4:	00008f13          	mv	t5,ra
    17e8:	007d8083          	lb	ra,7(s11)
    17ec:	f6143823          	sd	ra,-144(s0)
    17f0:	008d8283          	lb	t0,8(s11)
    17f4:	ea543823          	sd	t0,-336(s0)
    17f8:	009d8803          	lb	a6,9(s11)
    17fc:	e5043c23          	sd	a6,-424(s0)
    1800:	00ad8883          	lb	a7,10(s11)
    1804:	f9143023          	sd	a7,-128(s0)
    1808:	00bd8983          	lb	s3,11(s11)
    180c:	00cd8a83          	lb	s5,12(s11)
    1810:	00dd8a03          	lb	s4,13(s11)
    1814:	00ed8e83          	lb	t4,14(s11)
    1818:	f1d43c23          	sd	t4,-232(s0)
    181c:	00fd8e03          	lb	t3,15(s11)
    1820:	e7c43023          	sd	t3,-416(s0)
    1824:	010d8f83          	lb	t6,16(s11)
    1828:	f5f43023          	sd	t6,-192(s0)
    182c:	011d8303          	lb	t1,17(s11)
    1830:	f4643c23          	sd	t1,-168(s0)
    1834:	012d8383          	lb	t2,18(s11)
    1838:	f4743823          	sd	t2,-176(s0)
    183c:	013d8583          	lb	a1,19(s11)
    1840:	f2b43823          	sd	a1,-208(s0)
    1844:	014d8583          	lb	a1,20(s11)
    1848:	f6b43c23          	sd	a1,-136(s0)
    184c:	015d8583          	lb	a1,21(s11)
    1850:	f6b43023          	sd	a1,-160(s0)
    1854:	016d8c83          	lb	s9,22(s11)
    1858:	f5943423          	sd	s9,-184(s0)
    185c:	017d8c03          	lb	s8,23(s11)
    1860:	ed843023          	sd	s8,-320(s0)
    1864:	018d8483          	lb	s1,24(s11)
    1868:	ea943c23          	sd	s1,-328(s0)
    186c:	02c505b3          	mul	a1,a0,a2
    1870:	00001637          	lui	a2,0x1
    1874:	40c40633          	sub	a2,s0,a2
    1878:	6d063603          	ld	a2,1744(a2) # 16d0 <.LBB81_4+0x4f8>
    187c:	00c58633          	add	a2,a1,a2
    1880:	000015b7          	lui	a1,0x1
    1884:	40b405b3          	sub	a1,s0,a1
    1888:	6cc5b823          	sd	a2,1744(a1) # 16d0 <.LBB81_4+0x4f8>
    188c:	02e505b3          	mul	a1,a0,a4
    1890:	00001637          	lui	a2,0x1
    1894:	40c40633          	sub	a2,s0,a2
    1898:	6d863603          	ld	a2,1752(a2) # 16d8 <.LBB81_4+0x500>
    189c:	00c58633          	add	a2,a1,a2
    18a0:	000015b7          	lui	a1,0x1
    18a4:	40b405b3          	sub	a1,s0,a1
    18a8:	6cc5bc23          	sd	a2,1752(a1) # 16d8 <.LBB81_4+0x500>
    18ac:	02d505b3          	mul	a1,a0,a3
    18b0:	00001637          	lui	a2,0x1
    18b4:	40c40633          	sub	a2,s0,a2
    18b8:	6e063603          	ld	a2,1760(a2) # 16e0 <.LBB81_4+0x508>
    18bc:	00c58633          	add	a2,a1,a2
    18c0:	000015b7          	lui	a1,0x1
    18c4:	40b405b3          	sub	a1,s0,a1
    18c8:	6ec5b023          	sd	a2,1760(a1) # 16e0 <.LBB81_4+0x508>
    18cc:	02f505b3          	mul	a1,a0,a5
    18d0:	00001637          	lui	a2,0x1
    18d4:	40c40633          	sub	a2,s0,a2
    18d8:	6e863603          	ld	a2,1768(a2) # 16e8 <.LBB81_4+0x510>
    18dc:	00c58633          	add	a2,a1,a2
    18e0:	000015b7          	lui	a1,0x1
    18e4:	40b405b3          	sub	a1,s0,a1
    18e8:	6ec5b423          	sd	a2,1768(a1) # 16e8 <.LBB81_4+0x510>
    18ec:	036505b3          	mul	a1,a0,s6
    18f0:	00001637          	lui	a2,0x1
    18f4:	40c40633          	sub	a2,s0,a2
    18f8:	6c863603          	ld	a2,1736(a2) # 16c8 <.LBB81_4+0x4f0>
    18fc:	00c58633          	add	a2,a1,a2
    1900:	000015b7          	lui	a1,0x1
    1904:	40b405b3          	sub	a1,s0,a1
    1908:	6cc5b423          	sd	a2,1736(a1) # 16c8 <.LBB81_4+0x4f0>
    190c:	03a505b3          	mul	a1,a0,s10
    1910:	00001637          	lui	a2,0x1
    1914:	40c40633          	sub	a2,s0,a2
    1918:	6c063603          	ld	a2,1728(a2) # 16c0 <.LBB81_4+0x4e8>
    191c:	00c58633          	add	a2,a1,a2
    1920:	000015b7          	lui	a1,0x1
    1924:	40b405b3          	sub	a1,s0,a1
    1928:	6cc5b023          	sd	a2,1728(a1) # 16c0 <.LBB81_4+0x4e8>
    192c:	032505b3          	mul	a1,a0,s2
    1930:	00001637          	lui	a2,0x1
    1934:	40c40633          	sub	a2,s0,a2
    1938:	6b863603          	ld	a2,1720(a2) # 16b8 <.LBB81_4+0x4e0>
    193c:	00c58633          	add	a2,a1,a2
    1940:	000015b7          	lui	a1,0x1
    1944:	40b405b3          	sub	a1,s0,a1
    1948:	6ac5bc23          	sd	a2,1720(a1) # 16b8 <.LBB81_4+0x4e0>
    194c:	021505b3          	mul	a1,a0,ra
    1950:	00001637          	lui	a2,0x1
    1954:	40c40633          	sub	a2,s0,a2
    1958:	6b063603          	ld	a2,1712(a2) # 16b0 <.LBB81_4+0x4d8>
    195c:	00c58633          	add	a2,a1,a2
    1960:	000015b7          	lui	a1,0x1
    1964:	40b405b3          	sub	a1,s0,a1
    1968:	6ac5b823          	sd	a2,1712(a1) # 16b0 <.LBB81_4+0x4d8>
    196c:	025505b3          	mul	a1,a0,t0
    1970:	00001637          	lui	a2,0x1
    1974:	40c40633          	sub	a2,s0,a2
    1978:	6a863603          	ld	a2,1704(a2) # 16a8 <.LBB81_4+0x4d0>
    197c:	00c58633          	add	a2,a1,a2
    1980:	000015b7          	lui	a1,0x1
    1984:	40b405b3          	sub	a1,s0,a1
    1988:	6ac5b423          	sd	a2,1704(a1) # 16a8 <.LBB81_4+0x4d0>
    198c:	030505b3          	mul	a1,a0,a6
    1990:	00001637          	lui	a2,0x1
    1994:	40c40633          	sub	a2,s0,a2
    1998:	6f063603          	ld	a2,1776(a2) # 16f0 <.LBB81_4+0x518>
    199c:	00c58633          	add	a2,a1,a2
    19a0:	000015b7          	lui	a1,0x1
    19a4:	40b405b3          	sub	a1,s0,a1
    19a8:	6ec5b823          	sd	a2,1776(a1) # 16f0 <.LBB81_4+0x518>
    19ac:	031505b3          	mul	a1,a0,a7
    19b0:	00001637          	lui	a2,0x1
    19b4:	40c40633          	sub	a2,s0,a2
    19b8:	6f863603          	ld	a2,1784(a2) # 16f8 <.LBB81_4+0x520>
    19bc:	00c58633          	add	a2,a1,a2
    19c0:	000015b7          	lui	a1,0x1
    19c4:	40b405b3          	sub	a1,s0,a1
    19c8:	6ec5bc23          	sd	a2,1784(a1) # 16f8 <.LBB81_4+0x520>
    19cc:	033505b3          	mul	a1,a0,s3
    19d0:	f3343c23          	sd	s3,-200(s0)
    19d4:	00001637          	lui	a2,0x1
    19d8:	40c40633          	sub	a2,s0,a2
    19dc:	70063603          	ld	a2,1792(a2) # 1700 <.LBB81_4+0x528>
    19e0:	00c58633          	add	a2,a1,a2
    19e4:	000015b7          	lui	a1,0x1
    19e8:	40b405b3          	sub	a1,s0,a1
    19ec:	70c5b023          	sd	a2,1792(a1) # 1700 <.LBB81_4+0x528>
    19f0:	035505b3          	mul	a1,a0,s5
    19f4:	000a8713          	mv	a4,s5
    19f8:	eb543023          	sd	s5,-352(s0)
    19fc:	00001637          	lui	a2,0x1
    1a00:	40c40633          	sub	a2,s0,a2
    1a04:	70863603          	ld	a2,1800(a2) # 1708 <.LBB81_4+0x530>
    1a08:	00c58633          	add	a2,a1,a2
    1a0c:	000015b7          	lui	a1,0x1
    1a10:	40b405b3          	sub	a1,s0,a1
    1a14:	70c5b423          	sd	a2,1800(a1) # 1708 <.LBB81_4+0x530>
    1a18:	034505b3          	mul	a1,a0,s4
    1a1c:	000a0813          	mv	a6,s4
    1a20:	e5443023          	sd	s4,-448(s0)
    1a24:	00001637          	lui	a2,0x1
    1a28:	40c40633          	sub	a2,s0,a2
    1a2c:	71063603          	ld	a2,1808(a2) # 1710 <.LBB81_4+0x538>
    1a30:	00c58633          	add	a2,a1,a2
    1a34:	000015b7          	lui	a1,0x1
    1a38:	40b405b3          	sub	a1,s0,a1
    1a3c:	70c5b823          	sd	a2,1808(a1) # 1710 <.LBB81_4+0x538>
    1a40:	03d505b3          	mul	a1,a0,t4
    1a44:	00001637          	lui	a2,0x1
    1a48:	40c40633          	sub	a2,s0,a2
    1a4c:	71863603          	ld	a2,1816(a2) # 1718 <.LBB81_4+0x540>
    1a50:	00c58633          	add	a2,a1,a2
    1a54:	000015b7          	lui	a1,0x1
    1a58:	40b405b3          	sub	a1,s0,a1
    1a5c:	70c5bc23          	sd	a2,1816(a1) # 1718 <.LBB81_4+0x540>
    1a60:	03c505b3          	mul	a1,a0,t3
    1a64:	00001637          	lui	a2,0x1
    1a68:	40c40633          	sub	a2,s0,a2
    1a6c:	72063603          	ld	a2,1824(a2) # 1720 <.LBB81_4+0x548>
    1a70:	00c58633          	add	a2,a1,a2
    1a74:	000015b7          	lui	a1,0x1
    1a78:	40b405b3          	sub	a1,s0,a1
    1a7c:	72c5b023          	sd	a2,1824(a1) # 1720 <.LBB81_4+0x548>
    1a80:	03f505b3          	mul	a1,a0,t6
    1a84:	00001637          	lui	a2,0x1
    1a88:	40c40633          	sub	a2,s0,a2
    1a8c:	72863603          	ld	a2,1832(a2) # 1728 <.LBB81_4+0x550>
    1a90:	00c58633          	add	a2,a1,a2
    1a94:	000015b7          	lui	a1,0x1
    1a98:	40b405b3          	sub	a1,s0,a1
    1a9c:	72c5b423          	sd	a2,1832(a1) # 1728 <.LBB81_4+0x550>
    1aa0:	026505b3          	mul	a1,a0,t1
    1aa4:	00001637          	lui	a2,0x1
    1aa8:	40c40633          	sub	a2,s0,a2
    1aac:	73063603          	ld	a2,1840(a2) # 1730 <.LBB81_4+0x558>
    1ab0:	00c58633          	add	a2,a1,a2
    1ab4:	000015b7          	lui	a1,0x1
    1ab8:	40b405b3          	sub	a1,s0,a1
    1abc:	72c5b823          	sd	a2,1840(a1) # 1730 <.LBB81_4+0x558>
    1ac0:	027505b3          	mul	a1,a0,t2
    1ac4:	00001637          	lui	a2,0x1
    1ac8:	40c40633          	sub	a2,s0,a2
    1acc:	73863603          	ld	a2,1848(a2) # 1738 <.LBB81_4+0x560>
    1ad0:	00c58633          	add	a2,a1,a2
    1ad4:	000015b7          	lui	a1,0x1
    1ad8:	40b405b3          	sub	a1,s0,a1
    1adc:	72c5bc23          	sd	a2,1848(a1) # 1738 <.LBB81_4+0x560>
    1ae0:	f3043583          	ld	a1,-208(s0)
    1ae4:	02b505b3          	mul	a1,a0,a1
    1ae8:	00001637          	lui	a2,0x1
    1aec:	40c40633          	sub	a2,s0,a2
    1af0:	74063603          	ld	a2,1856(a2) # 1740 <.LBB81_4+0x568>
    1af4:	00c58633          	add	a2,a1,a2
    1af8:	000015b7          	lui	a1,0x1
    1afc:	40b405b3          	sub	a1,s0,a1
    1b00:	74c5b023          	sd	a2,1856(a1) # 1740 <.LBB81_4+0x568>
    1b04:	f7843583          	ld	a1,-136(s0)
    1b08:	02b505b3          	mul	a1,a0,a1
    1b0c:	00001637          	lui	a2,0x1
    1b10:	40c40633          	sub	a2,s0,a2
    1b14:	74863603          	ld	a2,1864(a2) # 1748 <.LBB81_4+0x570>
    1b18:	00c58633          	add	a2,a1,a2
    1b1c:	000015b7          	lui	a1,0x1
    1b20:	40b405b3          	sub	a1,s0,a1
    1b24:	74c5b423          	sd	a2,1864(a1) # 1748 <.LBB81_4+0x570>
    1b28:	f6043583          	ld	a1,-160(s0)
    1b2c:	02b505b3          	mul	a1,a0,a1
    1b30:	00001637          	lui	a2,0x1
    1b34:	40c40633          	sub	a2,s0,a2
    1b38:	75063603          	ld	a2,1872(a2) # 1750 <.LBB81_4+0x578>
    1b3c:	00c58633          	add	a2,a1,a2
    1b40:	000015b7          	lui	a1,0x1
    1b44:	40b405b3          	sub	a1,s0,a1
    1b48:	74c5b823          	sd	a2,1872(a1) # 1750 <.LBB81_4+0x578>
    1b4c:	039505b3          	mul	a1,a0,s9
    1b50:	00001637          	lui	a2,0x1
    1b54:	40c40633          	sub	a2,s0,a2
    1b58:	75863603          	ld	a2,1880(a2) # 1758 <.LBB81_5+0x4>
    1b5c:	00c58633          	add	a2,a1,a2
    1b60:	000015b7          	lui	a1,0x1
    1b64:	40b405b3          	sub	a1,s0,a1
    1b68:	74c5bc23          	sd	a2,1880(a1) # 1758 <.LBB81_5+0x4>
    1b6c:	038505b3          	mul	a1,a0,s8
    1b70:	01758bb3          	add	s7,a1,s7
    1b74:	000015b7          	lui	a1,0x1
    1b78:	40b405b3          	sub	a1,s0,a1
    1b7c:	6975bc23          	sd	s7,1688(a1) # 1698 <.LBB81_4+0x4c0>
    1b80:	019d8303          	lb	t1,25(s11)
    1b84:	029505b3          	mul	a1,a0,s1
    1b88:	00001637          	lui	a2,0x1
    1b8c:	40c40633          	sub	a2,s0,a2
    1b90:	76063603          	ld	a2,1888(a2) # 1760 <.LBB81_5+0xc>
    1b94:	00c58633          	add	a2,a1,a2
    1b98:	000015b7          	lui	a1,0x1
    1b9c:	40b405b3          	sub	a1,s0,a1
    1ba0:	76c5b023          	sd	a2,1888(a1) # 1760 <.LBB81_5+0xc>
    1ba4:	01ad8e03          	lb	t3,26(s11)
    1ba8:	026505b3          	mul	a1,a0,t1
    1bac:	00001637          	lui	a2,0x1
    1bb0:	40c40633          	sub	a2,s0,a2
    1bb4:	76863603          	ld	a2,1896(a2) # 1768 <.LBB81_5+0x14>
    1bb8:	00c58633          	add	a2,a1,a2
    1bbc:	000015b7          	lui	a1,0x1
    1bc0:	40b405b3          	sub	a1,s0,a1
    1bc4:	76c5b423          	sd	a2,1896(a1) # 1768 <.LBB81_5+0x14>
    1bc8:	01bd8e83          	lb	t4,27(s11)
    1bcc:	03c505b3          	mul	a1,a0,t3
    1bd0:	00001637          	lui	a2,0x1
    1bd4:	40c40633          	sub	a2,s0,a2
    1bd8:	77063603          	ld	a2,1904(a2) # 1770 <.LBB81_5+0x1c>
    1bdc:	00c58633          	add	a2,a1,a2
    1be0:	000015b7          	lui	a1,0x1
    1be4:	40b405b3          	sub	a1,s0,a1
    1be8:	76c5b823          	sd	a2,1904(a1) # 1770 <.LBB81_5+0x1c>
    1bec:	01cd8883          	lb	a7,28(s11)
    1bf0:	e9143823          	sd	a7,-368(s0)
    1bf4:	03d505b3          	mul	a1,a0,t4
    1bf8:	00001637          	lui	a2,0x1
    1bfc:	40c40633          	sub	a2,s0,a2
    1c00:	77863603          	ld	a2,1912(a2) # 1778 <.LBB81_5+0x24>
    1c04:	00c58633          	add	a2,a1,a2
    1c08:	000015b7          	lui	a1,0x1
    1c0c:	40b405b3          	sub	a1,s0,a1
    1c10:	76c5bc23          	sd	a2,1912(a1) # 1778 <.LBB81_5+0x24>
    1c14:	01dd8c03          	lb	s8,29(s11)
    1c18:	031505b3          	mul	a1,a0,a7
    1c1c:	00001637          	lui	a2,0x1
    1c20:	40c40633          	sub	a2,s0,a2
    1c24:	78063b03          	ld	s6,1920(a2) # 1780 <.LBB81_5+0x2c>
    1c28:	01658b33          	add	s6,a1,s6
    1c2c:	000015b7          	lui	a1,0x1
    1c30:	40b405b3          	sub	a1,s0,a1
    1c34:	7965b023          	sd	s6,1920(a1) # 1780 <.LBB81_5+0x2c>
    1c38:	01ed8483          	lb	s1,30(s11)
    1c3c:	038505b3          	mul	a1,a0,s8
    1c40:	e9843023          	sd	s8,-384(s0)
    1c44:	01e58f33          	add	t5,a1,t5
    1c48:	000015b7          	lui	a1,0x1
    1c4c:	40b405b3          	sub	a1,s0,a1
    1c50:	6be5b023          	sd	t5,1696(a1) # 16a0 <.LBB81_4+0x4c8>
    1c54:	01fd8583          	lb	a1,31(s11)
    1c58:	f8843b03          	ld	s6,-120(s0)
    1c5c:	060b0b03          	lb	s6,96(s6)
    1c60:	029500b3          	mul	ra,a0,s1
    1c64:	e8943c23          	sd	s1,-360(s0)
    1c68:	00001637          	lui	a2,0x1
    1c6c:	40c40633          	sub	a2,s0,a2
    1c70:	78863d03          	ld	s10,1928(a2) # 1788 <.LBB81_5+0x34>
    1c74:	01a08d33          	add	s10,ra,s10
    1c78:	00001637          	lui	a2,0x1
    1c7c:	40c40633          	sub	a2,s0,a2
    1c80:	79a63423          	sd	s10,1928(a2) # 1788 <.LBB81_5+0x34>
    1c84:	02b50533          	mul	a0,a0,a1
    1c88:	00058913          	mv	s2,a1
    1c8c:	000015b7          	lui	a1,0x1
    1c90:	40b405b3          	sub	a1,s0,a1
    1c94:	7905bd03          	ld	s10,1936(a1) # 1790 <.LBB81_5+0x3c>
    1c98:	01a50d33          	add	s10,a0,s10
    1c9c:	00001537          	lui	a0,0x1
    1ca0:	40a40533          	sub	a0,s0,a0
    1ca4:	79a53823          	sd	s10,1936(a0) # 1790 <.LBB81_5+0x3c>
    1ca8:	00068a13          	mv	s4,a3
    1cac:	e8d43423          	sd	a3,-376(s0)
    1cb0:	02db0533          	mul	a0,s6,a3
    1cb4:	000015b7          	lui	a1,0x1
    1cb8:	40b405b3          	sub	a1,s0,a1
    1cbc:	7b05bd03          	ld	s10,1968(a1) # 17b0 <.LBB81_5+0x5c>
    1cc0:	01a50d33          	add	s10,a0,s10
    1cc4:	00001537          	lui	a0,0x1
    1cc8:	40a40533          	sub	a0,s0,a0
    1ccc:	7ba53823          	sd	s10,1968(a0) # 17b0 <.LBB81_5+0x5c>
    1cd0:	f6843503          	ld	a0,-152(s0)
    1cd4:	02ab0533          	mul	a0,s6,a0
    1cd8:	000015b7          	lui	a1,0x1
    1cdc:	40b405b3          	sub	a1,s0,a1
    1ce0:	7a85bd03          	ld	s10,1960(a1) # 17a8 <.LBB81_5+0x54>
    1ce4:	01a50d33          	add	s10,a0,s10
    1ce8:	00001537          	lui	a0,0x1
    1cec:	40a40533          	sub	a0,s0,a0
    1cf0:	7ba53423          	sd	s10,1960(a0) # 17a8 <.LBB81_5+0x54>
    1cf4:	e7043f83          	ld	t6,-400(s0)
    1cf8:	03fb0533          	mul	a0,s6,t6
    1cfc:	000015b7          	lui	a1,0x1
    1d00:	40b405b3          	sub	a1,s0,a1
    1d04:	7a05bd03          	ld	s10,1952(a1) # 17a0 <.LBB81_5+0x4c>
    1d08:	01a50d33          	add	s10,a0,s10
    1d0c:	00001537          	lui	a0,0x1
    1d10:	40a40533          	sub	a0,s0,a0
    1d14:	7ba53023          	sd	s10,1952(a0) # 17a0 <.LBB81_5+0x4c>
    1d18:	02fb0533          	mul	a0,s6,a5
    1d1c:	000015b7          	lui	a1,0x1
    1d20:	40b405b3          	sub	a1,s0,a1
    1d24:	7985bd03          	ld	s10,1944(a1) # 1798 <.LBB81_5+0x44>
    1d28:	01a50d33          	add	s10,a0,s10
    1d2c:	00001537          	lui	a0,0x1
    1d30:	40a40533          	sub	a0,s0,a0
    1d34:	79a53c23          	sd	s10,1944(a0) # 1798 <.LBB81_5+0x44>
    1d38:	f2843283          	ld	t0,-216(s0)
    1d3c:	025b0533          	mul	a0,s6,t0
    1d40:	000015b7          	lui	a1,0x1
    1d44:	40b405b3          	sub	a1,s0,a1
    1d48:	7b85bd03          	ld	s10,1976(a1) # 17b8 <.LBB81_5+0x64>
    1d4c:	01a50d33          	add	s10,a0,s10
    1d50:	00001537          	lui	a0,0x1
    1d54:	40a40533          	sub	a0,s0,a0
    1d58:	7ba53c23          	sd	s10,1976(a0) # 17b8 <.LBB81_5+0x64>
    1d5c:	f2043a83          	ld	s5,-224(s0)
    1d60:	035b0533          	mul	a0,s6,s5
    1d64:	000015b7          	lui	a1,0x1
    1d68:	40b405b3          	sub	a1,s0,a1
    1d6c:	7c05bd03          	ld	s10,1984(a1) # 17c0 <.LBB81_5+0x6c>
    1d70:	01a50d33          	add	s10,a0,s10
    1d74:	00001537          	lui	a0,0x1
    1d78:	40a40533          	sub	a0,s0,a0
    1d7c:	7da53023          	sd	s10,1984(a0) # 17c0 <.LBB81_5+0x6c>
    1d80:	f1043f03          	ld	t5,-240(s0)
    1d84:	03eb0533          	mul	a0,s6,t5
    1d88:	000015b7          	lui	a1,0x1
    1d8c:	40b405b3          	sub	a1,s0,a1
    1d90:	7c85bd03          	ld	s10,1992(a1) # 17c8 <.LBB81_5+0x74>
    1d94:	01a50d33          	add	s10,a0,s10
    1d98:	00001537          	lui	a0,0x1
    1d9c:	40a40533          	sub	a0,s0,a0
    1da0:	7da53423          	sd	s10,1992(a0) # 17c8 <.LBB81_5+0x74>
    1da4:	f7043683          	ld	a3,-144(s0)
    1da8:	02db0533          	mul	a0,s6,a3
    1dac:	000015b7          	lui	a1,0x1
    1db0:	40b405b3          	sub	a1,s0,a1
    1db4:	7d05bd03          	ld	s10,2000(a1) # 17d0 <.LBB81_5+0x7c>
    1db8:	01a50d33          	add	s10,a0,s10
    1dbc:	00001537          	lui	a0,0x1
    1dc0:	40a40533          	sub	a0,s0,a0
    1dc4:	7da53823          	sd	s10,2000(a0) # 17d0 <.LBB81_5+0x7c>
    1dc8:	eb043883          	ld	a7,-336(s0)
    1dcc:	031b0533          	mul	a0,s6,a7
    1dd0:	000015b7          	lui	a1,0x1
    1dd4:	40b405b3          	sub	a1,s0,a1
    1dd8:	7d85bd03          	ld	s10,2008(a1) # 17d8 <.LBB81_5+0x84>
    1ddc:	01a50d33          	add	s10,a0,s10
    1de0:	00001537          	lui	a0,0x1
    1de4:	40a40533          	sub	a0,s0,a0
    1de8:	7da53c23          	sd	s10,2008(a0) # 17d8 <.LBB81_5+0x84>
    1dec:	e5843c83          	ld	s9,-424(s0)
    1df0:	039b0533          	mul	a0,s6,s9
    1df4:	000015b7          	lui	a1,0x1
    1df8:	40b405b3          	sub	a1,s0,a1
    1dfc:	7e05bd03          	ld	s10,2016(a1) # 17e0 <.LBB81_5+0x8c>
    1e00:	01a50d33          	add	s10,a0,s10
    1e04:	00001537          	lui	a0,0x1
    1e08:	40a40533          	sub	a0,s0,a0
    1e0c:	7fa53023          	sd	s10,2016(a0) # 17e0 <.LBB81_5+0x8c>
    1e10:	f8043503          	ld	a0,-128(s0)
    1e14:	02ab0533          	mul	a0,s6,a0
    1e18:	000015b7          	lui	a1,0x1
    1e1c:	40b405b3          	sub	a1,s0,a1
    1e20:	7e85bd03          	ld	s10,2024(a1) # 17e8 <.LBB81_5+0x94>
    1e24:	01a50d33          	add	s10,a0,s10
    1e28:	00001537          	lui	a0,0x1
    1e2c:	40a40533          	sub	a0,s0,a0
    1e30:	7fa53423          	sd	s10,2024(a0) # 17e8 <.LBB81_5+0x94>
    1e34:	033b0533          	mul	a0,s6,s3
    1e38:	000015b7          	lui	a1,0x1
    1e3c:	40b405b3          	sub	a1,s0,a1
    1e40:	7f05bd03          	ld	s10,2032(a1) # 17f0 <.LBB81_5+0x9c>
    1e44:	01a50d33          	add	s10,a0,s10
    1e48:	00001537          	lui	a0,0x1
    1e4c:	40a40533          	sub	a0,s0,a0
    1e50:	7fa53823          	sd	s10,2032(a0) # 17f0 <.LBB81_5+0x9c>
    1e54:	02eb0533          	mul	a0,s6,a4
    1e58:	000015b7          	lui	a1,0x1
    1e5c:	40b405b3          	sub	a1,s0,a1
    1e60:	7f85bd03          	ld	s10,2040(a1) # 17f8 <.LBB81_5+0xa4>
    1e64:	01a50d33          	add	s10,a0,s10
    1e68:	00001537          	lui	a0,0x1
    1e6c:	40a40533          	sub	a0,s0,a0
    1e70:	7fa53c23          	sd	s10,2040(a0) # 17f8 <.LBB81_5+0xa4>
    1e74:	030b0533          	mul	a0,s6,a6
    1e78:	80043d03          	ld	s10,-2048(s0)
    1e7c:	01a50d33          	add	s10,a0,s10
    1e80:	81a43023          	sd	s10,-2048(s0)
    1e84:	f1843983          	ld	s3,-232(s0)
    1e88:	033b0533          	mul	a0,s6,s3
    1e8c:	80843d03          	ld	s10,-2040(s0)
    1e90:	01a50d33          	add	s10,a0,s10
    1e94:	81a43423          	sd	s10,-2040(s0)
    1e98:	e6043603          	ld	a2,-416(s0)
    1e9c:	02cb0533          	mul	a0,s6,a2
    1ea0:	81043d03          	ld	s10,-2032(s0)
    1ea4:	01a50d33          	add	s10,a0,s10
    1ea8:	81a43823          	sd	s10,-2032(s0)
    1eac:	f4043b83          	ld	s7,-192(s0)
    1eb0:	037b0533          	mul	a0,s6,s7
    1eb4:	81843d03          	ld	s10,-2024(s0)
    1eb8:	01a50d33          	add	s10,a0,s10
    1ebc:	81a43c23          	sd	s10,-2024(s0)
    1ec0:	f5843503          	ld	a0,-168(s0)
    1ec4:	02ab0533          	mul	a0,s6,a0
    1ec8:	82043d03          	ld	s10,-2016(s0)
    1ecc:	01a50d33          	add	s10,a0,s10
    1ed0:	83a43023          	sd	s10,-2016(s0)
    1ed4:	f5043503          	ld	a0,-176(s0)
    1ed8:	02ab0533          	mul	a0,s6,a0
    1edc:	82843d03          	ld	s10,-2008(s0)
    1ee0:	01a50d33          	add	s10,a0,s10
    1ee4:	83a43423          	sd	s10,-2008(s0)
    1ee8:	f3043583          	ld	a1,-208(s0)
    1eec:	02bb0533          	mul	a0,s6,a1
    1ef0:	83043d03          	ld	s10,-2000(s0)
    1ef4:	01a50d33          	add	s10,a0,s10
    1ef8:	83a43823          	sd	s10,-2000(s0)
    1efc:	f7843703          	ld	a4,-136(s0)
    1f00:	02eb0533          	mul	a0,s6,a4
    1f04:	83843d03          	ld	s10,-1992(s0)
    1f08:	01a50d33          	add	s10,a0,s10
    1f0c:	83a43c23          	sd	s10,-1992(s0)
    1f10:	f6043383          	ld	t2,-160(s0)
    1f14:	027b0533          	mul	a0,s6,t2
    1f18:	84043d03          	ld	s10,-1984(s0)
    1f1c:	01a50d33          	add	s10,a0,s10
    1f20:	85a43023          	sd	s10,-1984(s0)
    1f24:	f4843503          	ld	a0,-184(s0)
    1f28:	02ab0533          	mul	a0,s6,a0
    1f2c:	84843d03          	ld	s10,-1976(s0)
    1f30:	01a50d33          	add	s10,a0,s10
    1f34:	85a43423          	sd	s10,-1976(s0)
    1f38:	ec043503          	ld	a0,-320(s0)
    1f3c:	02ab0533          	mul	a0,s6,a0
    1f40:	85043d03          	ld	s10,-1968(s0)
    1f44:	01a50d33          	add	s10,a0,s10
    1f48:	85a43823          	sd	s10,-1968(s0)
    1f4c:	eb843503          	ld	a0,-328(s0)
    1f50:	02ab0533          	mul	a0,s6,a0
    1f54:	85843d03          	ld	s10,-1960(s0)
    1f58:	01a50d33          	add	s10,a0,s10
    1f5c:	85a43c23          	sd	s10,-1960(s0)
    1f60:	026b0533          	mul	a0,s6,t1
    1f64:	86043d03          	ld	s10,-1952(s0)
    1f68:	01a50d33          	add	s10,a0,s10
    1f6c:	87a43023          	sd	s10,-1952(s0)
    1f70:	ebc43423          	sd	t3,-344(s0)
    1f74:	03cb0533          	mul	a0,s6,t3
    1f78:	86843d03          	ld	s10,-1944(s0)
    1f7c:	01a50d33          	add	s10,a0,s10
    1f80:	87a43423          	sd	s10,-1944(s0)
    1f84:	e5d43823          	sd	t4,-432(s0)
    1f88:	03db0533          	mul	a0,s6,t4
    1f8c:	87043d03          	ld	s10,-1936(s0)
    1f90:	01a50d33          	add	s10,a0,s10
    1f94:	87a43823          	sd	s10,-1936(s0)
    1f98:	e9043803          	ld	a6,-368(s0)
    1f9c:	030b0533          	mul	a0,s6,a6
    1fa0:	87843d03          	ld	s10,-1928(s0)
    1fa4:	01a50d33          	add	s10,a0,s10
    1fa8:	87a43c23          	sd	s10,-1928(s0)
    1fac:	038b0533          	mul	a0,s6,s8
    1fb0:	88043d03          	ld	s10,-1920(s0)
    1fb4:	01a50d33          	add	s10,a0,s10
    1fb8:	89a43023          	sd	s10,-1920(s0)
    1fbc:	f8843503          	ld	a0,-120(s0)
    1fc0:	0c050503          	lb	a0,192(a0)
    1fc4:	029b00b3          	mul	ra,s6,s1
    1fc8:	88843d03          	ld	s10,-1912(s0)
    1fcc:	01a08d33          	add	s10,ra,s10
    1fd0:	89a43423          	sd	s10,-1912(s0)
    1fd4:	032b0b33          	mul	s6,s6,s2
    1fd8:	00090493          	mv	s1,s2
    1fdc:	e7243c23          	sd	s2,-392(s0)
    1fe0:	89043d03          	ld	s10,-1904(s0)
    1fe4:	01ab0d33          	add	s10,s6,s10
    1fe8:	89a43823          	sd	s10,-1904(s0)
    1fec:	03450b33          	mul	s6,a0,s4
    1ff0:	8b043d03          	ld	s10,-1872(s0)
    1ff4:	01ab0d33          	add	s10,s6,s10
    1ff8:	8ba43823          	sd	s10,-1872(s0)
    1ffc:	f6843903          	ld	s2,-152(s0)
    2000:	03250b33          	mul	s6,a0,s2
    2004:	8a843d03          	ld	s10,-1880(s0)
    2008:	01ab0d33          	add	s10,s6,s10
    200c:	8ba43423          	sd	s10,-1880(s0)
    2010:	03f50b33          	mul	s6,a0,t6
    2014:	8a043d03          	ld	s10,-1888(s0)
    2018:	01ab0d33          	add	s10,s6,s10
    201c:	8ba43023          	sd	s10,-1888(s0)
    2020:	02f50b33          	mul	s6,a0,a5
    2024:	89843d03          	ld	s10,-1896(s0)
    2028:	01ab0d33          	add	s10,s6,s10
    202c:	89a43c23          	sd	s10,-1896(s0)
    2030:	02550b33          	mul	s6,a0,t0
    2034:	8b843d03          	ld	s10,-1864(s0)
    2038:	01ab0d33          	add	s10,s6,s10
    203c:	8ba43c23          	sd	s10,-1864(s0)
    2040:	03550b33          	mul	s6,a0,s5
    2044:	8c043d03          	ld	s10,-1856(s0)
    2048:	01ab0d33          	add	s10,s6,s10
    204c:	8da43023          	sd	s10,-1856(s0)
    2050:	03e50b33          	mul	s6,a0,t5
    2054:	8c843d03          	ld	s10,-1848(s0)
    2058:	01ab0d33          	add	s10,s6,s10
    205c:	8da43423          	sd	s10,-1848(s0)
    2060:	02d50b33          	mul	s6,a0,a3
    2064:	8d043d03          	ld	s10,-1840(s0)
    2068:	01ab0d33          	add	s10,s6,s10
    206c:	8da43823          	sd	s10,-1840(s0)
    2070:	03150b33          	mul	s6,a0,a7
    2074:	8d843d03          	ld	s10,-1832(s0)
    2078:	01ab0d33          	add	s10,s6,s10
    207c:	8da43c23          	sd	s10,-1832(s0)
    2080:	03950b33          	mul	s6,a0,s9
    2084:	8e043d03          	ld	s10,-1824(s0)
    2088:	01ab0d33          	add	s10,s6,s10
    208c:	8fa43023          	sd	s10,-1824(s0)
    2090:	f8043c03          	ld	s8,-128(s0)
    2094:	03850b33          	mul	s6,a0,s8
    2098:	8e843d03          	ld	s10,-1816(s0)
    209c:	01ab0d33          	add	s10,s6,s10
    20a0:	8fa43423          	sd	s10,-1816(s0)
    20a4:	f3843283          	ld	t0,-200(s0)
    20a8:	02550b33          	mul	s6,a0,t0
    20ac:	8f043d03          	ld	s10,-1808(s0)
    20b0:	01ab0d33          	add	s10,s6,s10
    20b4:	8fa43823          	sd	s10,-1808(s0)
    20b8:	ea043683          	ld	a3,-352(s0)
    20bc:	02d50b33          	mul	s6,a0,a3
    20c0:	8f843d03          	ld	s10,-1800(s0)
    20c4:	01ab0d33          	add	s10,s6,s10
    20c8:	8fa43c23          	sd	s10,-1800(s0)
    20cc:	e4043903          	ld	s2,-448(s0)
    20d0:	03250b33          	mul	s6,a0,s2
    20d4:	90043d03          	ld	s10,-1792(s0)
    20d8:	01ab0d33          	add	s10,s6,s10
    20dc:	91a43023          	sd	s10,-1792(s0)
    20e0:	03350b33          	mul	s6,a0,s3
    20e4:	90843d03          	ld	s10,-1784(s0)
    20e8:	01ab0d33          	add	s10,s6,s10
    20ec:	91a43423          	sd	s10,-1784(s0)
    20f0:	02c50b33          	mul	s6,a0,a2
    20f4:	91043d03          	ld	s10,-1776(s0)
    20f8:	01ab0d33          	add	s10,s6,s10
    20fc:	91a43823          	sd	s10,-1776(s0)
    2100:	03750b33          	mul	s6,a0,s7
    2104:	91843d03          	ld	s10,-1768(s0)
    2108:	01ab0d33          	add	s10,s6,s10
    210c:	91a43c23          	sd	s10,-1768(s0)
    2110:	f5843603          	ld	a2,-168(s0)
    2114:	02c50b33          	mul	s6,a0,a2
    2118:	92043d03          	ld	s10,-1760(s0)
    211c:	01ab0d33          	add	s10,s6,s10
    2120:	93a43023          	sd	s10,-1760(s0)
    2124:	f5043983          	ld	s3,-176(s0)
    2128:	03350b33          	mul	s6,a0,s3
    212c:	92843d03          	ld	s10,-1752(s0)
    2130:	01ab0d33          	add	s10,s6,s10
    2134:	93a43423          	sd	s10,-1752(s0)
    2138:	02b50b33          	mul	s6,a0,a1
    213c:	93043d03          	ld	s10,-1744(s0)
    2140:	01ab0d33          	add	s10,s6,s10
    2144:	93a43823          	sd	s10,-1744(s0)
    2148:	02e50b33          	mul	s6,a0,a4
    214c:	93843d03          	ld	s10,-1736(s0)
    2150:	01ab0d33          	add	s10,s6,s10
    2154:	93a43c23          	sd	s10,-1736(s0)
    2158:	02750b33          	mul	s6,a0,t2
    215c:	94043d03          	ld	s10,-1728(s0)
    2160:	01ab0d33          	add	s10,s6,s10
    2164:	95a43023          	sd	s10,-1728(s0)
    2168:	f4843a03          	ld	s4,-184(s0)
    216c:	03450b33          	mul	s6,a0,s4
    2170:	94843d03          	ld	s10,-1720(s0)
    2174:	01ab0d33          	add	s10,s6,s10
    2178:	95a43423          	sd	s10,-1720(s0)
    217c:	ec043583          	ld	a1,-320(s0)
    2180:	02b50b33          	mul	s6,a0,a1
    2184:	95043d03          	ld	s10,-1712(s0)
    2188:	01ab0d33          	add	s10,s6,s10
    218c:	95a43823          	sd	s10,-1712(s0)
    2190:	eb843603          	ld	a2,-328(s0)
    2194:	02c50b33          	mul	s6,a0,a2
    2198:	95843d03          	ld	s10,-1704(s0)
    219c:	01ab0d33          	add	s10,s6,s10
    21a0:	95a43c23          	sd	s10,-1704(s0)
    21a4:	02650b33          	mul	s6,a0,t1
    21a8:	96043d03          	ld	s10,-1696(s0)
    21ac:	01ab0d33          	add	s10,s6,s10
    21b0:	97a43023          	sd	s10,-1696(s0)
    21b4:	03c50b33          	mul	s6,a0,t3
    21b8:	96843d03          	ld	s10,-1688(s0)
    21bc:	01ab0d33          	add	s10,s6,s10
    21c0:	97a43423          	sd	s10,-1688(s0)
    21c4:	03d50b33          	mul	s6,a0,t4
    21c8:	97043d03          	ld	s10,-1680(s0)
    21cc:	01ab0d33          	add	s10,s6,s10
    21d0:	97a43823          	sd	s10,-1680(s0)
    21d4:	03050b33          	mul	s6,a0,a6
    21d8:	00080e93          	mv	t4,a6
    21dc:	97843d03          	ld	s10,-1672(s0)
    21e0:	01ab0d33          	add	s10,s6,s10
    21e4:	97a43c23          	sd	s10,-1672(s0)
    21e8:	e8043b83          	ld	s7,-384(s0)
    21ec:	03750b33          	mul	s6,a0,s7
    21f0:	98043d03          	ld	s10,-1664(s0)
    21f4:	01ab0d33          	add	s10,s6,s10
    21f8:	99a43023          	sd	s10,-1664(s0)
    21fc:	f8843b03          	ld	s6,-120(s0)
    2200:	120b0b03          	lb	s6,288(s6)
    2204:	e9843a83          	ld	s5,-360(s0)
    2208:	035500b3          	mul	ra,a0,s5
    220c:	98843d03          	ld	s10,-1656(s0)
    2210:	01a08d33          	add	s10,ra,s10
    2214:	99a43423          	sd	s10,-1656(s0)
    2218:	02950533          	mul	a0,a0,s1
    221c:	99043d03          	ld	s10,-1648(s0)
    2220:	01a50d33          	add	s10,a0,s10
    2224:	99a43823          	sd	s10,-1648(s0)
    2228:	e8843e03          	ld	t3,-376(s0)
    222c:	03cb0533          	mul	a0,s6,t3
    2230:	9b043d03          	ld	s10,-1616(s0)
    2234:	01a50d33          	add	s10,a0,s10
    2238:	9ba43823          	sd	s10,-1616(s0)
    223c:	f6843f03          	ld	t5,-152(s0)
    2240:	03eb0533          	mul	a0,s6,t5
    2244:	9a843d03          	ld	s10,-1624(s0)
    2248:	01a50d33          	add	s10,a0,s10
    224c:	9ba43423          	sd	s10,-1624(s0)
    2250:	03fb0533          	mul	a0,s6,t6
    2254:	9a043d03          	ld	s10,-1632(s0)
    2258:	01a50d33          	add	s10,a0,s10
    225c:	9ba43023          	sd	s10,-1632(s0)
    2260:	e4f43423          	sd	a5,-440(s0)
    2264:	02fb0533          	mul	a0,s6,a5
    2268:	99843d03          	ld	s10,-1640(s0)
    226c:	01a50d33          	add	s10,a0,s10
    2270:	99a43c23          	sd	s10,-1640(s0)
    2274:	f2843683          	ld	a3,-216(s0)
    2278:	02db0533          	mul	a0,s6,a3
    227c:	9b843d03          	ld	s10,-1608(s0)
    2280:	01a50d33          	add	s10,a0,s10
    2284:	9ba43c23          	sd	s10,-1608(s0)
    2288:	f2043483          	ld	s1,-224(s0)
    228c:	029b0533          	mul	a0,s6,s1
    2290:	9c043d03          	ld	s10,-1600(s0)
    2294:	01a50d33          	add	s10,a0,s10
    2298:	9da43023          	sd	s10,-1600(s0)
    229c:	f1043883          	ld	a7,-240(s0)
    22a0:	031b0533          	mul	a0,s6,a7
    22a4:	9c843d03          	ld	s10,-1592(s0)
    22a8:	01a50d33          	add	s10,a0,s10
    22ac:	9da43423          	sd	s10,-1592(s0)
    22b0:	f7043503          	ld	a0,-144(s0)
    22b4:	02ab0533          	mul	a0,s6,a0
    22b8:	9d043d03          	ld	s10,-1584(s0)
    22bc:	01a50d33          	add	s10,a0,s10
    22c0:	9da43823          	sd	s10,-1584(s0)
    22c4:	eb043503          	ld	a0,-336(s0)
    22c8:	02ab0533          	mul	a0,s6,a0
    22cc:	9d843d03          	ld	s10,-1576(s0)
    22d0:	01a50d33          	add	s10,a0,s10
    22d4:	9da43c23          	sd	s10,-1576(s0)
    22d8:	039b0533          	mul	a0,s6,s9
    22dc:	9e043d03          	ld	s10,-1568(s0)
    22e0:	01a50d33          	add	s10,a0,s10
    22e4:	9fa43023          	sd	s10,-1568(s0)
    22e8:	038b0533          	mul	a0,s6,s8
    22ec:	9e843d03          	ld	s10,-1560(s0)
    22f0:	01a50d33          	add	s10,a0,s10
    22f4:	9fa43423          	sd	s10,-1560(s0)
    22f8:	025b0533          	mul	a0,s6,t0
    22fc:	9f043d03          	ld	s10,-1552(s0)
    2300:	01a50d33          	add	s10,a0,s10
    2304:	9fa43823          	sd	s10,-1552(s0)
    2308:	ea043383          	ld	t2,-352(s0)
    230c:	027b0533          	mul	a0,s6,t2
    2310:	9f843d03          	ld	s10,-1544(s0)
    2314:	01a50d33          	add	s10,a0,s10
    2318:	9fa43c23          	sd	s10,-1544(s0)
    231c:	032b0533          	mul	a0,s6,s2
    2320:	a0043d03          	ld	s10,-1536(s0)
    2324:	01a50d33          	add	s10,a0,s10
    2328:	a1a43023          	sd	s10,-1536(s0)
    232c:	f1843503          	ld	a0,-232(s0)
    2330:	02ab0533          	mul	a0,s6,a0
    2334:	a0843d03          	ld	s10,-1528(s0)
    2338:	01a50d33          	add	s10,a0,s10
    233c:	a1a43423          	sd	s10,-1528(s0)
    2340:	e6043283          	ld	t0,-416(s0)
    2344:	025b0533          	mul	a0,s6,t0
    2348:	a1043d03          	ld	s10,-1520(s0)
    234c:	01a50d33          	add	s10,a0,s10
    2350:	a1a43823          	sd	s10,-1520(s0)
    2354:	f4043503          	ld	a0,-192(s0)
    2358:	02ab0533          	mul	a0,s6,a0
    235c:	a1843d03          	ld	s10,-1512(s0)
    2360:	01a50d33          	add	s10,a0,s10
    2364:	a1a43c23          	sd	s10,-1512(s0)
    2368:	f5843703          	ld	a4,-168(s0)
    236c:	02eb0533          	mul	a0,s6,a4
    2370:	a2043d03          	ld	s10,-1504(s0)
    2374:	01a50d33          	add	s10,a0,s10
    2378:	a3a43023          	sd	s10,-1504(s0)
    237c:	033b0533          	mul	a0,s6,s3
    2380:	a2843d03          	ld	s10,-1496(s0)
    2384:	01a50d33          	add	s10,a0,s10
    2388:	a3a43423          	sd	s10,-1496(s0)
    238c:	f3043803          	ld	a6,-208(s0)
    2390:	030b0533          	mul	a0,s6,a6
    2394:	a3043d03          	ld	s10,-1488(s0)
    2398:	01a50d33          	add	s10,a0,s10
    239c:	a3a43823          	sd	s10,-1488(s0)
    23a0:	f7843503          	ld	a0,-136(s0)
    23a4:	02ab0533          	mul	a0,s6,a0
    23a8:	a3843d03          	ld	s10,-1480(s0)
    23ac:	01a50d33          	add	s10,a0,s10
    23b0:	a3a43c23          	sd	s10,-1480(s0)
    23b4:	f6043503          	ld	a0,-160(s0)
    23b8:	02ab0533          	mul	a0,s6,a0
    23bc:	a4043d03          	ld	s10,-1472(s0)
    23c0:	01a50d33          	add	s10,a0,s10
    23c4:	a5a43023          	sd	s10,-1472(s0)
    23c8:	034b0533          	mul	a0,s6,s4
    23cc:	a4843d03          	ld	s10,-1464(s0)
    23d0:	01a50d33          	add	s10,a0,s10
    23d4:	a5a43423          	sd	s10,-1464(s0)
    23d8:	02bb0533          	mul	a0,s6,a1
    23dc:	00058a13          	mv	s4,a1
    23e0:	a5043d03          	ld	s10,-1456(s0)
    23e4:	01a50d33          	add	s10,a0,s10
    23e8:	a5a43823          	sd	s10,-1456(s0)
    23ec:	02cb0533          	mul	a0,s6,a2
    23f0:	a5843d03          	ld	s10,-1448(s0)
    23f4:	01a50d33          	add	s10,a0,s10
    23f8:	a5a43c23          	sd	s10,-1448(s0)
    23fc:	e6643423          	sd	t1,-408(s0)
    2400:	026b0533          	mul	a0,s6,t1
    2404:	a6043d03          	ld	s10,-1440(s0)
    2408:	01a50d33          	add	s10,a0,s10
    240c:	a7a43023          	sd	s10,-1440(s0)
    2410:	ea843503          	ld	a0,-344(s0)
    2414:	02ab0533          	mul	a0,s6,a0
    2418:	a6843d03          	ld	s10,-1432(s0)
    241c:	01a50d33          	add	s10,a0,s10
    2420:	a7a43423          	sd	s10,-1432(s0)
    2424:	e5043983          	ld	s3,-432(s0)
    2428:	033b0533          	mul	a0,s6,s3
    242c:	a7043d03          	ld	s10,-1424(s0)
    2430:	01a50d33          	add	s10,a0,s10
    2434:	a7a43823          	sd	s10,-1424(s0)
    2438:	03db0533          	mul	a0,s6,t4
    243c:	a7843d03          	ld	s10,-1416(s0)
    2440:	01a50d33          	add	s10,a0,s10
    2444:	a7a43c23          	sd	s10,-1416(s0)
    2448:	000b8c13          	mv	s8,s7
    244c:	037b0533          	mul	a0,s6,s7
    2450:	a8043d03          	ld	s10,-1408(s0)
    2454:	01a50d33          	add	s10,a0,s10
    2458:	a9a43023          	sd	s10,-1408(s0)
    245c:	f8843503          	ld	a0,-120(s0)
    2460:	18050503          	lb	a0,384(a0)
    2464:	000a8613          	mv	a2,s5
    2468:	035b00b3          	mul	ra,s6,s5
    246c:	a8843d03          	ld	s10,-1400(s0)
    2470:	01a08d33          	add	s10,ra,s10
    2474:	a9a43423          	sd	s10,-1400(s0)
    2478:	e7843a83          	ld	s5,-392(s0)
    247c:	035b0b33          	mul	s6,s6,s5
    2480:	a9043d03          	ld	s10,-1392(s0)
    2484:	01ab0d33          	add	s10,s6,s10
    2488:	a9a43823          	sd	s10,-1392(s0)
    248c:	03c50b33          	mul	s6,a0,t3
    2490:	ab043d03          	ld	s10,-1360(s0)
    2494:	01ab0d33          	add	s10,s6,s10
    2498:	aba43823          	sd	s10,-1360(s0)
    249c:	03e50b33          	mul	s6,a0,t5
    24a0:	aa843d03          	ld	s10,-1368(s0)
    24a4:	01ab0d33          	add	s10,s6,s10
    24a8:	aba43423          	sd	s10,-1368(s0)
    24ac:	03f50b33          	mul	s6,a0,t6
    24b0:	aa043d03          	ld	s10,-1376(s0)
    24b4:	01ab0d33          	add	s10,s6,s10
    24b8:	aba43023          	sd	s10,-1376(s0)
    24bc:	02f50b33          	mul	s6,a0,a5
    24c0:	a9843d03          	ld	s10,-1384(s0)
    24c4:	01ab0d33          	add	s10,s6,s10
    24c8:	a9a43c23          	sd	s10,-1384(s0)
    24cc:	02d50b33          	mul	s6,a0,a3
    24d0:	ab843d03          	ld	s10,-1352(s0)
    24d4:	01ab0d33          	add	s10,s6,s10
    24d8:	aba43c23          	sd	s10,-1352(s0)
    24dc:	02950b33          	mul	s6,a0,s1
    24e0:	ac043d03          	ld	s10,-1344(s0)
    24e4:	01ab0d33          	add	s10,s6,s10
    24e8:	ada43023          	sd	s10,-1344(s0)
    24ec:	03150b33          	mul	s6,a0,a7
    24f0:	ac843d03          	ld	s10,-1336(s0)
    24f4:	01ab0d33          	add	s10,s6,s10
    24f8:	ada43423          	sd	s10,-1336(s0)
    24fc:	f7043783          	ld	a5,-144(s0)
    2500:	02f50b33          	mul	s6,a0,a5
    2504:	ad043d03          	ld	s10,-1328(s0)
    2508:	01ab0d33          	add	s10,s6,s10
    250c:	ada43823          	sd	s10,-1328(s0)
    2510:	eb043683          	ld	a3,-336(s0)
    2514:	02d50b33          	mul	s6,a0,a3
    2518:	ad843d03          	ld	s10,-1320(s0)
    251c:	01ab0d33          	add	s10,s6,s10
    2520:	ada43c23          	sd	s10,-1320(s0)
    2524:	03950b33          	mul	s6,a0,s9
    2528:	ae043d03          	ld	s10,-1312(s0)
    252c:	01ab0d33          	add	s10,s6,s10
    2530:	afa43023          	sd	s10,-1312(s0)
    2534:	f8043583          	ld	a1,-128(s0)
    2538:	02b50b33          	mul	s6,a0,a1
    253c:	ae843d03          	ld	s10,-1304(s0)
    2540:	01ab0d33          	add	s10,s6,s10
    2544:	afa43423          	sd	s10,-1304(s0)
    2548:	f3843583          	ld	a1,-200(s0)
    254c:	02b50b33          	mul	s6,a0,a1
    2550:	af043d03          	ld	s10,-1296(s0)
    2554:	01ab0d33          	add	s10,s6,s10
    2558:	afa43823          	sd	s10,-1296(s0)
    255c:	02750b33          	mul	s6,a0,t2
    2560:	af843d03          	ld	s10,-1288(s0)
    2564:	01ab0d33          	add	s10,s6,s10
    2568:	afa43c23          	sd	s10,-1288(s0)
    256c:	03250b33          	mul	s6,a0,s2
    2570:	b0043d03          	ld	s10,-1280(s0)
    2574:	01ab0d33          	add	s10,s6,s10
    2578:	b1a43023          	sd	s10,-1280(s0)
    257c:	f1843583          	ld	a1,-232(s0)
    2580:	02b50b33          	mul	s6,a0,a1
    2584:	b0843d03          	ld	s10,-1272(s0)
    2588:	01ab0d33          	add	s10,s6,s10
    258c:	b1a43423          	sd	s10,-1272(s0)
    2590:	00028893          	mv	a7,t0
    2594:	02550b33          	mul	s6,a0,t0
    2598:	b1043d03          	ld	s10,-1264(s0)
    259c:	01ab0d33          	add	s10,s6,s10
    25a0:	b1a43823          	sd	s10,-1264(s0)
    25a4:	f4043283          	ld	t0,-192(s0)
    25a8:	02550b33          	mul	s6,a0,t0
    25ac:	b1843d03          	ld	s10,-1256(s0)
    25b0:	01ab0d33          	add	s10,s6,s10
    25b4:	b1a43c23          	sd	s10,-1256(s0)
    25b8:	02e50b33          	mul	s6,a0,a4
    25bc:	b2043d03          	ld	s10,-1248(s0)
    25c0:	01ab0d33          	add	s10,s6,s10
    25c4:	b3a43023          	sd	s10,-1248(s0)
    25c8:	f5043b83          	ld	s7,-176(s0)
    25cc:	03750b33          	mul	s6,a0,s7
    25d0:	b2843d03          	ld	s10,-1240(s0)
    25d4:	01ab0d33          	add	s10,s6,s10
    25d8:	b3a43423          	sd	s10,-1240(s0)
    25dc:	03050b33          	mul	s6,a0,a6
    25e0:	b3043d03          	ld	s10,-1232(s0)
    25e4:	01ab0d33          	add	s10,s6,s10
    25e8:	b3a43823          	sd	s10,-1232(s0)
    25ec:	f7843f83          	ld	t6,-136(s0)
    25f0:	03f50b33          	mul	s6,a0,t6
    25f4:	b3843d03          	ld	s10,-1224(s0)
    25f8:	01ab0d33          	add	s10,s6,s10
    25fc:	b3a43c23          	sd	s10,-1224(s0)
    2600:	f6043f03          	ld	t5,-160(s0)
    2604:	03e50b33          	mul	s6,a0,t5
    2608:	b4043d03          	ld	s10,-1216(s0)
    260c:	01ab0d33          	add	s10,s6,s10
    2610:	b5a43023          	sd	s10,-1216(s0)
    2614:	f4843483          	ld	s1,-184(s0)
    2618:	02950b33          	mul	s6,a0,s1
    261c:	b4843d03          	ld	s10,-1208(s0)
    2620:	01ab0d33          	add	s10,s6,s10
    2624:	b5a43423          	sd	s10,-1208(s0)
    2628:	03450b33          	mul	s6,a0,s4
    262c:	b5043d03          	ld	s10,-1200(s0)
    2630:	01ab0d33          	add	s10,s6,s10
    2634:	b5a43823          	sd	s10,-1200(s0)
    2638:	eb843a03          	ld	s4,-328(s0)
    263c:	03450b33          	mul	s6,a0,s4
    2640:	b5843d03          	ld	s10,-1192(s0)
    2644:	01ab0d33          	add	s10,s6,s10
    2648:	b5a43c23          	sd	s10,-1192(s0)
    264c:	02650b33          	mul	s6,a0,t1
    2650:	b6043d03          	ld	s10,-1184(s0)
    2654:	01ab0d33          	add	s10,s6,s10
    2658:	b7a43023          	sd	s10,-1184(s0)
    265c:	ea843e03          	ld	t3,-344(s0)
    2660:	03c50b33          	mul	s6,a0,t3
    2664:	b6843d03          	ld	s10,-1176(s0)
    2668:	01ab0d33          	add	s10,s6,s10
    266c:	b7a43423          	sd	s10,-1176(s0)
    2670:	03350b33          	mul	s6,a0,s3
    2674:	b7043d03          	ld	s10,-1168(s0)
    2678:	01ab0d33          	add	s10,s6,s10
    267c:	b7a43823          	sd	s10,-1168(s0)
    2680:	03d50b33          	mul	s6,a0,t4
    2684:	b7843d03          	ld	s10,-1160(s0)
    2688:	01ab0d33          	add	s10,s6,s10
    268c:	b7a43c23          	sd	s10,-1160(s0)
    2690:	03850b33          	mul	s6,a0,s8
    2694:	b8043d03          	ld	s10,-1152(s0)
    2698:	01ab0d33          	add	s10,s6,s10
    269c:	b9a43023          	sd	s10,-1152(s0)
    26a0:	f8843b03          	ld	s6,-120(s0)
    26a4:	1e0b0b03          	lb	s6,480(s6)
    26a8:	02c500b3          	mul	ra,a0,a2
    26ac:	b8843d03          	ld	s10,-1144(s0)
    26b0:	01a08d33          	add	s10,ra,s10
    26b4:	b9a43423          	sd	s10,-1144(s0)
    26b8:	03550533          	mul	a0,a0,s5
    26bc:	b9043d03          	ld	s10,-1136(s0)
    26c0:	01a50d33          	add	s10,a0,s10
    26c4:	b9a43823          	sd	s10,-1136(s0)
    26c8:	e8843c03          	ld	s8,-376(s0)
    26cc:	038b0533          	mul	a0,s6,s8
    26d0:	bb043d03          	ld	s10,-1104(s0)
    26d4:	01a50d33          	add	s10,a0,s10
    26d8:	bba43823          	sd	s10,-1104(s0)
    26dc:	f6843703          	ld	a4,-152(s0)
    26e0:	02eb0533          	mul	a0,s6,a4
    26e4:	ba843d03          	ld	s10,-1112(s0)
    26e8:	01a50d33          	add	s10,a0,s10
    26ec:	bba43423          	sd	s10,-1112(s0)
    26f0:	e7043803          	ld	a6,-400(s0)
    26f4:	030b0533          	mul	a0,s6,a6
    26f8:	ba043d03          	ld	s10,-1120(s0)
    26fc:	01a50d33          	add	s10,a0,s10
    2700:	bba43023          	sd	s10,-1120(s0)
    2704:	e4843383          	ld	t2,-440(s0)
    2708:	027b0533          	mul	a0,s6,t2
    270c:	b9843d03          	ld	s10,-1128(s0)
    2710:	01a50d33          	add	s10,a0,s10
    2714:	b9a43c23          	sd	s10,-1128(s0)
    2718:	f2843303          	ld	t1,-216(s0)
    271c:	026b0533          	mul	a0,s6,t1
    2720:	bb843d03          	ld	s10,-1096(s0)
    2724:	01a50d33          	add	s10,a0,s10
    2728:	bba43c23          	sd	s10,-1096(s0)
    272c:	f2043e83          	ld	t4,-224(s0)
    2730:	03db0533          	mul	a0,s6,t4
    2734:	bc043d03          	ld	s10,-1088(s0)
    2738:	01a50d33          	add	s10,a0,s10
    273c:	bda43023          	sd	s10,-1088(s0)
    2740:	f1043983          	ld	s3,-240(s0)
    2744:	033b0533          	mul	a0,s6,s3
    2748:	bc843d03          	ld	s10,-1080(s0)
    274c:	01a50d33          	add	s10,a0,s10
    2750:	bda43423          	sd	s10,-1080(s0)
    2754:	02fb0533          	mul	a0,s6,a5
    2758:	bd043d03          	ld	s10,-1072(s0)
    275c:	01a50d33          	add	s10,a0,s10
    2760:	bda43823          	sd	s10,-1072(s0)
    2764:	02db0533          	mul	a0,s6,a3
    2768:	00068793          	mv	a5,a3
    276c:	bd843d03          	ld	s10,-1064(s0)
    2770:	01a50d33          	add	s10,a0,s10
    2774:	bda43c23          	sd	s10,-1064(s0)
    2778:	039b0533          	mul	a0,s6,s9
    277c:	be043d03          	ld	s10,-1056(s0)
    2780:	01a50d33          	add	s10,a0,s10
    2784:	bfa43023          	sd	s10,-1056(s0)
    2788:	f8043603          	ld	a2,-128(s0)
    278c:	02cb0533          	mul	a0,s6,a2
    2790:	be843d03          	ld	s10,-1048(s0)
    2794:	01a50d33          	add	s10,a0,s10
    2798:	bfa43423          	sd	s10,-1048(s0)
    279c:	f3843683          	ld	a3,-200(s0)
    27a0:	02db0533          	mul	a0,s6,a3
    27a4:	bf043d03          	ld	s10,-1040(s0)
    27a8:	01a50d33          	add	s10,a0,s10
    27ac:	bfa43823          	sd	s10,-1040(s0)
    27b0:	ea043c83          	ld	s9,-352(s0)
    27b4:	039b0533          	mul	a0,s6,s9
    27b8:	bf843d03          	ld	s10,-1032(s0)
    27bc:	01a50d33          	add	s10,a0,s10
    27c0:	bfa43c23          	sd	s10,-1032(s0)
    27c4:	032b0533          	mul	a0,s6,s2
    27c8:	c0043d03          	ld	s10,-1024(s0)
    27cc:	01a50d33          	add	s10,a0,s10
    27d0:	c1a43023          	sd	s10,-1024(s0)
    27d4:	02bb0533          	mul	a0,s6,a1
    27d8:	c0843d03          	ld	s10,-1016(s0)
    27dc:	01a50d33          	add	s10,a0,s10
    27e0:	c1a43423          	sd	s10,-1016(s0)
    27e4:	031b0533          	mul	a0,s6,a7
    27e8:	c1043d03          	ld	s10,-1008(s0)
    27ec:	01a50d33          	add	s10,a0,s10
    27f0:	c1a43823          	sd	s10,-1008(s0)
    27f4:	025b0533          	mul	a0,s6,t0
    27f8:	c1843d03          	ld	s10,-1000(s0)
    27fc:	01a50d33          	add	s10,a0,s10
    2800:	c1a43c23          	sd	s10,-1000(s0)
    2804:	f5843903          	ld	s2,-168(s0)
    2808:	032b0533          	mul	a0,s6,s2
    280c:	c2043d03          	ld	s10,-992(s0)
    2810:	01a50d33          	add	s10,a0,s10
    2814:	c3a43023          	sd	s10,-992(s0)
    2818:	037b0533          	mul	a0,s6,s7
    281c:	c2843d03          	ld	s10,-984(s0)
    2820:	01a50d33          	add	s10,a0,s10
    2824:	c3a43423          	sd	s10,-984(s0)
    2828:	f3043a83          	ld	s5,-208(s0)
    282c:	035b0533          	mul	a0,s6,s5
    2830:	c3043d03          	ld	s10,-976(s0)
    2834:	01a50d33          	add	s10,a0,s10
    2838:	c3a43823          	sd	s10,-976(s0)
    283c:	03fb0533          	mul	a0,s6,t6
    2840:	c3843d03          	ld	s10,-968(s0)
    2844:	01a50d33          	add	s10,a0,s10
    2848:	c3a43c23          	sd	s10,-968(s0)
    284c:	03eb0533          	mul	a0,s6,t5
    2850:	c4043d03          	ld	s10,-960(s0)
    2854:	01a50d33          	add	s10,a0,s10
    2858:	c5a43023          	sd	s10,-960(s0)
    285c:	029b0533          	mul	a0,s6,s1
    2860:	c4843d03          	ld	s10,-952(s0)
    2864:	01a50d33          	add	s10,a0,s10
    2868:	c5a43423          	sd	s10,-952(s0)
    286c:	ec043b83          	ld	s7,-320(s0)
    2870:	037b0533          	mul	a0,s6,s7
    2874:	c5043d03          	ld	s10,-944(s0)
    2878:	01a50d33          	add	s10,a0,s10
    287c:	c5a43823          	sd	s10,-944(s0)
    2880:	034b0533          	mul	a0,s6,s4
    2884:	c5843d03          	ld	s10,-936(s0)
    2888:	01a50d33          	add	s10,a0,s10
    288c:	c5a43c23          	sd	s10,-936(s0)
    2890:	e6843503          	ld	a0,-408(s0)
    2894:	02ab0533          	mul	a0,s6,a0
    2898:	c6043d03          	ld	s10,-928(s0)
    289c:	01a50d33          	add	s10,a0,s10
    28a0:	c7a43023          	sd	s10,-928(s0)
    28a4:	03cb0533          	mul	a0,s6,t3
    28a8:	c6843d03          	ld	s10,-920(s0)
    28ac:	01a50d33          	add	s10,a0,s10
    28b0:	c7a43423          	sd	s10,-920(s0)
    28b4:	e5043e03          	ld	t3,-432(s0)
    28b8:	03cb0533          	mul	a0,s6,t3
    28bc:	c7043d03          	ld	s10,-912(s0)
    28c0:	01a50d33          	add	s10,a0,s10
    28c4:	c7a43823          	sd	s10,-912(s0)
    28c8:	e9043503          	ld	a0,-368(s0)
    28cc:	02ab0533          	mul	a0,s6,a0
    28d0:	c7843d03          	ld	s10,-904(s0)
    28d4:	01a50d33          	add	s10,a0,s10
    28d8:	c7a43c23          	sd	s10,-904(s0)
    28dc:	e8043503          	ld	a0,-384(s0)
    28e0:	02ab0533          	mul	a0,s6,a0
    28e4:	c8043d03          	ld	s10,-896(s0)
    28e8:	01a50d33          	add	s10,a0,s10
    28ec:	c9a43023          	sd	s10,-896(s0)
    28f0:	f8843503          	ld	a0,-120(s0)
    28f4:	24050503          	lb	a0,576(a0)
    28f8:	e9843583          	ld	a1,-360(s0)
    28fc:	02bb00b3          	mul	ra,s6,a1
    2900:	c8843d03          	ld	s10,-888(s0)
    2904:	01a08d33          	add	s10,ra,s10
    2908:	c9a43423          	sd	s10,-888(s0)
    290c:	e7843583          	ld	a1,-392(s0)
    2910:	02bb0b33          	mul	s6,s6,a1
    2914:	c9043d03          	ld	s10,-880(s0)
    2918:	01ab0d33          	add	s10,s6,s10
    291c:	c9a43823          	sd	s10,-880(s0)
    2920:	03850b33          	mul	s6,a0,s8
    2924:	cb043d03          	ld	s10,-848(s0)
    2928:	01ab0d33          	add	s10,s6,s10
    292c:	cba43823          	sd	s10,-848(s0)
    2930:	02e50b33          	mul	s6,a0,a4
    2934:	ca843d03          	ld	s10,-856(s0)
    2938:	01ab0d33          	add	s10,s6,s10
    293c:	cba43423          	sd	s10,-856(s0)
    2940:	03050b33          	mul	s6,a0,a6
    2944:	ca043d03          	ld	s10,-864(s0)
    2948:	01ab0d33          	add	s10,s6,s10
    294c:	cba43023          	sd	s10,-864(s0)
    2950:	02750b33          	mul	s6,a0,t2
    2954:	c9843d03          	ld	s10,-872(s0)
    2958:	01ab0d33          	add	s10,s6,s10
    295c:	c9a43c23          	sd	s10,-872(s0)
    2960:	02650b33          	mul	s6,a0,t1
    2964:	cb843d03          	ld	s10,-840(s0)
    2968:	01ab0d33          	add	s10,s6,s10
    296c:	cba43c23          	sd	s10,-840(s0)
    2970:	03d50b33          	mul	s6,a0,t4
    2974:	cc043d03          	ld	s10,-832(s0)
    2978:	01ab0d33          	add	s10,s6,s10
    297c:	cda43023          	sd	s10,-832(s0)
    2980:	03350b33          	mul	s6,a0,s3
    2984:	cc843d03          	ld	s10,-824(s0)
    2988:	01ab0d33          	add	s10,s6,s10
    298c:	cda43423          	sd	s10,-824(s0)
    2990:	f7043583          	ld	a1,-144(s0)
    2994:	02b50b33          	mul	s6,a0,a1
    2998:	cd043d03          	ld	s10,-816(s0)
    299c:	01ab0d33          	add	s10,s6,s10
    29a0:	cda43823          	sd	s10,-816(s0)
    29a4:	00078493          	mv	s1,a5
    29a8:	02f50b33          	mul	s6,a0,a5
    29ac:	cd843d03          	ld	s10,-808(s0)
    29b0:	01ab0d33          	add	s10,s6,s10
    29b4:	cda43c23          	sd	s10,-808(s0)
    29b8:	e5843f83          	ld	t6,-424(s0)
    29bc:	03f50b33          	mul	s6,a0,t6
    29c0:	ce043d03          	ld	s10,-800(s0)
    29c4:	01ab0d33          	add	s10,s6,s10
    29c8:	cfa43023          	sd	s10,-800(s0)
    29cc:	02c50b33          	mul	s6,a0,a2
    29d0:	ce843d03          	ld	s10,-792(s0)
    29d4:	01ab0d33          	add	s10,s6,s10
    29d8:	cfa43423          	sd	s10,-792(s0)
    29dc:	02d50b33          	mul	s6,a0,a3
    29e0:	cf043d03          	ld	s10,-784(s0)
    29e4:	01ab0d33          	add	s10,s6,s10
    29e8:	cfa43823          	sd	s10,-784(s0)
    29ec:	000c8f13          	mv	t5,s9
    29f0:	03950b33          	mul	s6,a0,s9
    29f4:	cf843d03          	ld	s10,-776(s0)
    29f8:	01ab0d33          	add	s10,s6,s10
    29fc:	cfa43c23          	sd	s10,-776(s0)
    2a00:	e4043c83          	ld	s9,-448(s0)
    2a04:	03950b33          	mul	s6,a0,s9
    2a08:	d0043d03          	ld	s10,-768(s0)
    2a0c:	01ab0d33          	add	s10,s6,s10
    2a10:	d1a43023          	sd	s10,-768(s0)
    2a14:	f1843283          	ld	t0,-232(s0)
    2a18:	02550b33          	mul	s6,a0,t0
    2a1c:	d0843d03          	ld	s10,-760(s0)
    2a20:	01ab0d33          	add	s10,s6,s10
    2a24:	d1a43423          	sd	s10,-760(s0)
    2a28:	03150b33          	mul	s6,a0,a7
    2a2c:	d1043d03          	ld	s10,-752(s0)
    2a30:	01ab0d33          	add	s10,s6,s10
    2a34:	d1a43823          	sd	s10,-752(s0)
    2a38:	f4043783          	ld	a5,-192(s0)
    2a3c:	02f50b33          	mul	s6,a0,a5
    2a40:	d1843d03          	ld	s10,-744(s0)
    2a44:	01ab0d33          	add	s10,s6,s10
    2a48:	d1a43c23          	sd	s10,-744(s0)
    2a4c:	03250b33          	mul	s6,a0,s2
    2a50:	d2043d03          	ld	s10,-736(s0)
    2a54:	01ab0d33          	add	s10,s6,s10
    2a58:	d3a43023          	sd	s10,-736(s0)
    2a5c:	f5043383          	ld	t2,-176(s0)
    2a60:	02750b33          	mul	s6,a0,t2
    2a64:	d2843d03          	ld	s10,-728(s0)
    2a68:	01ab0d33          	add	s10,s6,s10
    2a6c:	d3a43423          	sd	s10,-728(s0)
    2a70:	03550b33          	mul	s6,a0,s5
    2a74:	d3043d03          	ld	s10,-720(s0)
    2a78:	01ab0d33          	add	s10,s6,s10
    2a7c:	d3a43823          	sd	s10,-720(s0)
    2a80:	f7843683          	ld	a3,-136(s0)
    2a84:	02d50b33          	mul	s6,a0,a3
    2a88:	d3843d03          	ld	s10,-712(s0)
    2a8c:	01ab0d33          	add	s10,s6,s10
    2a90:	d3a43c23          	sd	s10,-712(s0)
    2a94:	f6043603          	ld	a2,-160(s0)
    2a98:	02c50b33          	mul	s6,a0,a2
    2a9c:	d4043d03          	ld	s10,-704(s0)
    2aa0:	01ab0d33          	add	s10,s6,s10
    2aa4:	d5a43023          	sd	s10,-704(s0)
    2aa8:	f4843583          	ld	a1,-184(s0)
    2aac:	02b50b33          	mul	s6,a0,a1
    2ab0:	d4843d03          	ld	s10,-696(s0)
    2ab4:	01ab0d33          	add	s10,s6,s10
    2ab8:	d5a43423          	sd	s10,-696(s0)
    2abc:	03750b33          	mul	s6,a0,s7
    2ac0:	d5043d03          	ld	s10,-688(s0)
    2ac4:	01ab0d33          	add	s10,s6,s10
    2ac8:	d5a43823          	sd	s10,-688(s0)
    2acc:	03450b33          	mul	s6,a0,s4
    2ad0:	d5843d03          	ld	s10,-680(s0)
    2ad4:	01ab0d33          	add	s10,s6,s10
    2ad8:	d5a43c23          	sd	s10,-680(s0)
    2adc:	e6843983          	ld	s3,-408(s0)
    2ae0:	03350b33          	mul	s6,a0,s3
    2ae4:	d6043d03          	ld	s10,-672(s0)
    2ae8:	01ab0d33          	add	s10,s6,s10
    2aec:	d7a43023          	sd	s10,-672(s0)
    2af0:	ea843303          	ld	t1,-344(s0)
    2af4:	02650b33          	mul	s6,a0,t1
    2af8:	d6843d03          	ld	s10,-664(s0)
    2afc:	01ab0d33          	add	s10,s6,s10
    2b00:	d7a43423          	sd	s10,-664(s0)
    2b04:	03c50b33          	mul	s6,a0,t3
    2b08:	d7043d03          	ld	s10,-656(s0)
    2b0c:	01ab0d33          	add	s10,s6,s10
    2b10:	d7a43823          	sd	s10,-656(s0)
    2b14:	e9043e83          	ld	t4,-368(s0)
    2b18:	03d50b33          	mul	s6,a0,t4
    2b1c:	d7843d03          	ld	s10,-648(s0)
    2b20:	01ab0d33          	add	s10,s6,s10
    2b24:	d7a43c23          	sd	s10,-648(s0)
    2b28:	e8043703          	ld	a4,-384(s0)
    2b2c:	02e50b33          	mul	s6,a0,a4
    2b30:	d8043d03          	ld	s10,-640(s0)
    2b34:	01ab0d33          	add	s10,s6,s10
    2b38:	d9a43023          	sd	s10,-640(s0)
    2b3c:	f8843b03          	ld	s6,-120(s0)
    2b40:	2a0b0b03          	lb	s6,672(s6)
    2b44:	e9843803          	ld	a6,-360(s0)
    2b48:	030500b3          	mul	ra,a0,a6
    2b4c:	d8843d03          	ld	s10,-632(s0)
    2b50:	01a08d33          	add	s10,ra,s10
    2b54:	d9a43423          	sd	s10,-632(s0)
    2b58:	e7843c03          	ld	s8,-392(s0)
    2b5c:	03850533          	mul	a0,a0,s8
    2b60:	d9043d03          	ld	s10,-624(s0)
    2b64:	01a50d33          	add	s10,a0,s10
    2b68:	d9a43823          	sd	s10,-624(s0)
    2b6c:	038b0533          	mul	a0,s6,s8
    2b70:	e6a43c23          	sd	a0,-392(s0)
    2b74:	030b0533          	mul	a0,s6,a6
    2b78:	e8a43c23          	sd	a0,-360(s0)
    2b7c:	02eb0533          	mul	a0,s6,a4
    2b80:	e8a43023          	sd	a0,-384(s0)
    2b84:	03db0533          	mul	a0,s6,t4
    2b88:	e8a43823          	sd	a0,-368(s0)
    2b8c:	03cb0533          	mul	a0,s6,t3
    2b90:	e4a43823          	sd	a0,-432(s0)
    2b94:	026b0533          	mul	a0,s6,t1
    2b98:	00001737          	lui	a4,0x1
    2b9c:	40e40733          	sub	a4,s0,a4
    2ba0:	68a73023          	sd	a0,1664(a4) # 1680 <.LBB81_4+0x4a8>
    2ba4:	033b0533          	mul	a0,s6,s3
    2ba8:	eaa43423          	sd	a0,-344(s0)
    2bac:	034b0533          	mul	a0,s6,s4
    2bb0:	eaa43c23          	sd	a0,-328(s0)
    2bb4:	037b0533          	mul	a0,s6,s7
    2bb8:	eca43023          	sd	a0,-320(s0)
    2bbc:	02bb0533          	mul	a0,s6,a1
    2bc0:	f4a43423          	sd	a0,-184(s0)
    2bc4:	02cb0533          	mul	a0,s6,a2
    2bc8:	f6a43023          	sd	a0,-160(s0)
    2bcc:	02db0a33          	mul	s4,s6,a3
    2bd0:	035b0eb3          	mul	t4,s6,s5
    2bd4:	027b03b3          	mul	t2,s6,t2
    2bd8:	032b0333          	mul	t1,s6,s2
    2bdc:	02fb0e33          	mul	t3,s6,a5
    2be0:	031b0ab3          	mul	s5,s6,a7
    2be4:	025b0833          	mul	a6,s6,t0
    2be8:	039b0933          	mul	s2,s6,s9
    2bec:	03eb09b3          	mul	s3,s6,t5
    2bf0:	f3843503          	ld	a0,-200(s0)
    2bf4:	02ab0bb3          	mul	s7,s6,a0
    2bf8:	f8043503          	ld	a0,-128(s0)
    2bfc:	02ab0c33          	mul	s8,s6,a0
    2c00:	03fb0cb3          	mul	s9,s6,t6
    2c04:	029b0d33          	mul	s10,s6,s1
    2c08:	f7043503          	ld	a0,-144(s0)
    2c0c:	02ab00b3          	mul	ra,s6,a0
    2c10:	f1043503          	ld	a0,-240(s0)
    2c14:	02ab0533          	mul	a0,s6,a0
    2c18:	f2043583          	ld	a1,-224(s0)
    2c1c:	02bb08b3          	mul	a7,s6,a1
    2c20:	f2843583          	ld	a1,-216(s0)
    2c24:	02bb0633          	mul	a2,s6,a1
    2c28:	e4843583          	ld	a1,-440(s0)
    2c2c:	02bb06b3          	mul	a3,s6,a1
    2c30:	e7043583          	ld	a1,-400(s0)
    2c34:	02bb0733          	mul	a4,s6,a1
    2c38:	f6843583          	ld	a1,-152(s0)
    2c3c:	02bb07b3          	mul	a5,s6,a1
    2c40:	f8843583          	ld	a1,-120(s0)
    2c44:	00158593          	addi	a1,a1,1
    2c48:	f8b43423          	sd	a1,-120(s0)
    2c4c:	e8843583          	ld	a1,-376(s0)
    2c50:	02bb0b33          	mul	s6,s6,a1
    2c54:	db043583          	ld	a1,-592(s0)
    2c58:	00bb05b3          	add	a1,s6,a1
    2c5c:	dab43823          	sd	a1,-592(s0)
    2c60:	da843583          	ld	a1,-600(s0)
    2c64:	00b785b3          	add	a1,a5,a1
    2c68:	dab43423          	sd	a1,-600(s0)
    2c6c:	e2043783          	ld	a5,-480(s0)
    2c70:	da043583          	ld	a1,-608(s0)
    2c74:	00b705b3          	add	a1,a4,a1
    2c78:	dab43023          	sd	a1,-608(s0)
    2c7c:	d9843583          	ld	a1,-616(s0)
    2c80:	00b685b3          	add	a1,a3,a1
    2c84:	d8b43c23          	sd	a1,-616(s0)
    2c88:	db843583          	ld	a1,-584(s0)
    2c8c:	00b605b3          	add	a1,a2,a1
    2c90:	dab43c23          	sd	a1,-584(s0)
    2c94:	dc043583          	ld	a1,-576(s0)
    2c98:	00b885b3          	add	a1,a7,a1
    2c9c:	dcb43023          	sd	a1,-576(s0)
    2ca0:	dc843583          	ld	a1,-568(s0)
    2ca4:	00b505b3          	add	a1,a0,a1
    2ca8:	dcb43423          	sd	a1,-568(s0)
    2cac:	ec843503          	ld	a0,-312(s0)
    2cb0:	00a08533          	add	a0,ra,a0
    2cb4:	000015b7          	lui	a1,0x1
    2cb8:	40b405b3          	sub	a1,s0,a1
    2cbc:	6a05b083          	ld	ra,1696(a1) # 16a0 <.LBB81_4+0x4c8>
    2cc0:	eca43423          	sd	a0,-312(s0)
    2cc4:	ec843f83          	ld	t6,-312(s0)
    2cc8:	ed043503          	ld	a0,-304(s0)
    2ccc:	00ad0533          	add	a0,s10,a0
    2cd0:	eca43823          	sd	a0,-304(s0)
    2cd4:	ed043d03          	ld	s10,-304(s0)
    2cd8:	ed843503          	ld	a0,-296(s0)
    2cdc:	00ac8533          	add	a0,s9,a0
    2ce0:	eca43c23          	sd	a0,-296(s0)
    2ce4:	ed843c83          	ld	s9,-296(s0)
    2ce8:	ee043503          	ld	a0,-288(s0)
    2cec:	00ac0533          	add	a0,s8,a0
    2cf0:	eea43023          	sd	a0,-288(s0)
    2cf4:	ee043c03          	ld	s8,-288(s0)
    2cf8:	ee843503          	ld	a0,-280(s0)
    2cfc:	00ab8533          	add	a0,s7,a0
    2d00:	000015b7          	lui	a1,0x1
    2d04:	40b405b3          	sub	a1,s0,a1
    2d08:	6985bb83          	ld	s7,1688(a1) # 1698 <.LBB81_4+0x4c0>
    2d0c:	eea43423          	sd	a0,-280(s0)
    2d10:	ee843b03          	ld	s6,-280(s0)
    2d14:	dd043503          	ld	a0,-560(s0)
    2d18:	00a98533          	add	a0,s3,a0
    2d1c:	dca43823          	sd	a0,-560(s0)
    2d20:	00001537          	lui	a0,0x1
    2d24:	40a40533          	sub	a0,s0,a0
    2d28:	68853983          	ld	s3,1672(a0) # 1688 <.LBB81_4+0x4b0>
    2d2c:	013909b3          	add	s3,s2,s3
    2d30:	00001537          	lui	a0,0x1
    2d34:	40a40533          	sub	a0,s0,a0
    2d38:	69053903          	ld	s2,1680(a0) # 1690 <.LBB81_4+0x4b8>
    2d3c:	01280933          	add	s2,a6,s2
    2d40:	dd843483          	ld	s1,-552(s0)
    2d44:	009a84b3          	add	s1,s5,s1
    2d48:	de043503          	ld	a0,-544(s0)
    2d4c:	00ae0533          	add	a0,t3,a0
    2d50:	dea43023          	sd	a0,-544(s0)
    2d54:	df043e03          	ld	t3,-528(s0)
    2d58:	ef043503          	ld	a0,-272(s0)
    2d5c:	00a30533          	add	a0,t1,a0
    2d60:	eea43823          	sd	a0,-272(s0)
    2d64:	ef043f03          	ld	t5,-272(s0)
    2d68:	de843503          	ld	a0,-536(s0)
    2d6c:	00a38533          	add	a0,t2,a0
    2d70:	dea43423          	sd	a0,-536(s0)
    2d74:	df843383          	ld	t2,-520(s0)
    2d78:	01ce8e33          	add	t3,t4,t3
    2d7c:	e0043303          	ld	t1,-512(s0)
    2d80:	ef843503          	ld	a0,-264(s0)
    2d84:	00aa0533          	add	a0,s4,a0
    2d88:	eea43c23          	sd	a0,-264(s0)
    2d8c:	ef843703          	ld	a4,-264(s0)
    2d90:	f6043503          	ld	a0,-160(s0)
    2d94:	007503b3          	add	t2,a0,t2
    2d98:	e0843283          	ld	t0,-504(s0)
    2d9c:	f4843503          	ld	a0,-184(s0)
    2da0:	00650333          	add	t1,a0,t1
    2da4:	e1043883          	ld	a7,-496(s0)
    2da8:	00001537          	lui	a0,0x1
    2dac:	40a40533          	sub	a0,s0,a0
    2db0:	67853683          	ld	a3,1656(a0) # 1678 <.LBB81_4+0x4a0>
    2db4:	f0043503          	ld	a0,-256(s0)
    2db8:	ec043583          	ld	a1,-320(s0)
    2dbc:	00a58533          	add	a0,a1,a0
    2dc0:	f0a43023          	sd	a0,-256(s0)
    2dc4:	f0043603          	ld	a2,-256(s0)
    2dc8:	f0843503          	ld	a0,-248(s0)
    2dcc:	eb843583          	ld	a1,-328(s0)
    2dd0:	00a58533          	add	a0,a1,a0
    2dd4:	f0a43423          	sd	a0,-248(s0)
    2dd8:	f0843503          	ld	a0,-248(s0)
    2ddc:	ea843583          	ld	a1,-344(s0)
    2de0:	005582b3          	add	t0,a1,t0
    2de4:	f8843583          	ld	a1,-120(s0)
    2de8:	00001837          	lui	a6,0x1
    2dec:	41040833          	sub	a6,s0,a6
    2df0:	68083803          	ld	a6,1664(a6) # 1680 <.LBB81_4+0x4a8>
    2df4:	011808b3          	add	a7,a6,a7
    2df8:	e1843e83          	ld	t4,-488(s0)
    2dfc:	e5043803          	ld	a6,-432(s0)
    2e00:	01d80eb3          	add	t4,a6,t4
    2e04:	e1d43c23          	sd	t4,-488(s0)
    2e08:	e9043803          	ld	a6,-368(s0)
    2e0c:	00f807b3          	add	a5,a6,a5
    2e10:	e2843e83          	ld	t4,-472(s0)
    2e14:	e8043803          	ld	a6,-384(s0)
    2e18:	01d80eb3          	add	t4,a6,t4
    2e1c:	e3d43423          	sd	t4,-472(s0)
    2e20:	e3043e83          	ld	t4,-464(s0)
    2e24:	e9843803          	ld	a6,-360(s0)
    2e28:	01d80eb3          	add	t4,a6,t4
    2e2c:	e3d43823          	sd	t4,-464(s0)
    2e30:	e3843e83          	ld	t4,-456(s0)
    2e34:	e7843803          	ld	a6,-392(s0)
    2e38:	01d80eb3          	add	t4,a6,t4
    2e3c:	e3d43c23          	sd	t4,-456(s0)
    2e40:	240d8d93          	addi	s11,s11,576
    2e44:	00d58463          	beq	a1,a3,2e4c <.LBB81_6>
    2e48:	90dfe06f          	j	1754 <.LBB81_5>

0000000000002e4c <.LBB81_6>:
    2e4c:	00001537          	lui	a0,0x1
    2e50:	40a40533          	sub	a0,s0,a0
    2e54:	6d053a83          	ld	s5,1744(a0) # 16d0 <.LBB81_4+0x4f8>
    2e58:	00001537          	lui	a0,0x1
    2e5c:	40a40533          	sub	a0,s0,a0
    2e60:	6d853d03          	ld	s10,1752(a0) # 16d8 <.LBB81_4+0x500>
    2e64:	00001537          	lui	a0,0x1
    2e68:	40a40533          	sub	a0,s0,a0
    2e6c:	6e053c83          	ld	s9,1760(a0) # 16e0 <.LBB81_4+0x508>
    2e70:	00001537          	lui	a0,0x1
    2e74:	40a40533          	sub	a0,s0,a0
    2e78:	6c853a03          	ld	s4,1736(a0) # 16c8 <.LBB81_4+0x4f0>
    2e7c:	00001537          	lui	a0,0x1
    2e80:	40a40533          	sub	a0,s0,a0
    2e84:	6c053f83          	ld	t6,1728(a0) # 16c0 <.LBB81_4+0x4e8>
    2e88:	00001537          	lui	a0,0x1
    2e8c:	40a40533          	sub	a0,s0,a0
    2e90:	6b853f03          	ld	t5,1720(a0) # 16b8 <.LBB81_4+0x4e0>
    2e94:	00001537          	lui	a0,0x1
    2e98:	40a40533          	sub	a0,s0,a0
    2e9c:	6b053e83          	ld	t4,1712(a0) # 16b0 <.LBB81_4+0x4d8>
    2ea0:	00001537          	lui	a0,0x1
    2ea4:	40a40533          	sub	a0,s0,a0
    2ea8:	6a853b03          	ld	s6,1704(a0) # 16a8 <.LBB81_4+0x4d0>
    2eac:	00001537          	lui	a0,0x1
    2eb0:	40a40533          	sub	a0,s0,a0
    2eb4:	67053503          	ld	a0,1648(a0) # 1670 <.LBB81_4+0x498>
    2eb8:	00251513          	slli	a0,a0,0x2
    2ebc:	000015b7          	lui	a1,0x1
    2ec0:	40b405b3          	sub	a1,s0,a1
    2ec4:	d785b583          	ld	a1,-648(a1) # d78 <.LBB81_3+0xb04>
    2ec8:	00a585b3          	add	a1,a1,a0
    2ecc:	00001637          	lui	a2,0x1
    2ed0:	40c40633          	sub	a2,s0,a2
    2ed4:	66863603          	ld	a2,1640(a2) # 1668 <.LBB81_4+0x490>
    2ed8:	00062703          	lw	a4,0(a2)
    2edc:	00001637          	lui	a2,0x1
    2ee0:	40c40633          	sub	a2,s0,a2
    2ee4:	d7063603          	ld	a2,-656(a2) # d70 <.LBB81_3+0xafc>
    2ee8:	00a60533          	add	a0,a2,a0
    2eec:	00c52603          	lw	a2,12(a0)
    2ef0:	00c5a803          	lw	a6,12(a1)
    2ef4:	00271693          	slli	a3,a4,0x2
    2ef8:	00e68733          	add	a4,a3,a4
    2efc:	00161693          	slli	a3,a2,0x1
    2f00:	e9043823          	sd	a6,-368(s0)
    2f04:	00001637          	lui	a2,0x1
    2f08:	40c40633          	sub	a2,s0,a2
    2f0c:	6e863603          	ld	a2,1768(a2) # 16e8 <.LBB81_4+0x510>
    2f10:	01060633          	add	a2,a2,a6
    2f14:	e8d43423          	sd	a3,-376(s0)
    2f18:	00d60633          	add	a2,a2,a3
    2f1c:	00e60633          	add	a2,a2,a4
    2f20:	3c06061b          	addiw	a2,a2,960
    2f24:	400006b7          	lui	a3,0x40000
    2f28:	00001837          	lui	a6,0x1
    2f2c:	41040833          	sub	a6,s0,a6
    2f30:	02c83423          	sd	a2,40(a6) # 1028 <.LBB81_3+0xdb4>
    2f34:	00065463          	bgez	a2,2f3c <.LBB81_8>
    2f38:	c00006b7          	lui	a3,0xc0000

0000000000002f3c <.LBB81_8>:
    2f3c:	00001637          	lui	a2,0x1
    2f40:	40c40633          	sub	a2,s0,a2
    2f44:	fed63423          	sd	a3,-24(a2) # fe8 <.LBB81_3+0xd74>
    2f48:	00852603          	lw	a2,8(a0)
    2f4c:	0085a683          	lw	a3,8(a1)
    2f50:	00161813          	slli	a6,a2,0x1
    2f54:	e8d43023          	sd	a3,-384(s0)
    2f58:	00da8633          	add	a2,s5,a3
    2f5c:	e7043c23          	sd	a6,-392(s0)
    2f60:	01060633          	add	a2,a2,a6
    2f64:	00e60633          	add	a2,a2,a4
    2f68:	3c06061b          	addiw	a2,a2,960
    2f6c:	400006b7          	lui	a3,0x40000
    2f70:	00001837          	lui	a6,0x1
    2f74:	41040833          	sub	a6,s0,a6
    2f78:	00c83c23          	sd	a2,24(a6) # 1018 <.LBB81_3+0xda4>
    2f7c:	000e8b93          	mv	s7,t4
    2f80:	000f0c13          	mv	s8,t5
    2f84:	000f8a93          	mv	s5,t6
    2f88:	00065463          	bgez	a2,2f90 <.LBB81_10>
    2f8c:	c00006b7          	lui	a3,0xc0000

0000000000002f90 <.LBB81_10>:
    2f90:	00452603          	lw	a2,4(a0)
    2f94:	0045a803          	lw	a6,4(a1)
    2f98:	00161e93          	slli	t4,a2,0x1
    2f9c:	e7043823          	sd	a6,-400(s0)
    2fa0:	010d0633          	add	a2,s10,a6
    2fa4:	e7d43423          	sd	t4,-408(s0)
    2fa8:	01d60633          	add	a2,a2,t4
    2fac:	00e60633          	add	a2,a2,a4
    2fb0:	3c06061b          	addiw	a2,a2,960
    2fb4:	40000837          	lui	a6,0x40000
    2fb8:	00001eb7          	lui	t4,0x1
    2fbc:	41d40eb3          	sub	t4,s0,t4
    2fc0:	00ceb423          	sd	a2,8(t4) # 1008 <.LBB81_3+0xd94>
    2fc4:	00065463          	bgez	a2,2fcc <.LBB81_12>
    2fc8:	c0000837          	lui	a6,0xc0000

0000000000002fcc <.LBB81_12>:
    2fcc:	00052603          	lw	a2,0(a0)
    2fd0:	0005ae83          	lw	t4,0(a1)
    2fd4:	00161f13          	slli	t5,a2,0x1
    2fd8:	e7d43023          	sd	t4,-416(s0)
    2fdc:	01dc8633          	add	a2,s9,t4
    2fe0:	e5e43c23          	sd	t5,-424(s0)
    2fe4:	01e60633          	add	a2,a2,t5
    2fe8:	00e60633          	add	a2,a2,a4
    2fec:	3c06061b          	addiw	a2,a2,960
    2ff0:	40000eb7          	lui	t4,0x40000
    2ff4:	00001f37          	lui	t5,0x1
    2ff8:	41e40f33          	sub	t5,s0,t5
    2ffc:	fecf3c23          	sd	a2,-8(t5) # ff8 <.LBB81_3+0xd84>
    3000:	00065463          	bgez	a2,3008 <.LBB81_14>
    3004:	c0000eb7          	lui	t4,0xc0000

0000000000003008 <.LBB81_14>:
    3008:	01052603          	lw	a2,16(a0)
    300c:	0105af03          	lw	t5,16(a1)
    3010:	00161f93          	slli	t6,a2,0x1
    3014:	e5e43823          	sd	t5,-432(s0)
    3018:	01ea0633          	add	a2,s4,t5
    301c:	e5f43423          	sd	t6,-440(s0)
    3020:	01f60633          	add	a2,a2,t6
    3024:	00e60633          	add	a2,a2,a4
    3028:	3c06061b          	addiw	a2,a2,960
    302c:	40000f37          	lui	t5,0x40000
    3030:	00001fb7          	lui	t6,0x1
    3034:	41f40fb3          	sub	t6,s0,t6
    3038:	fccfbc23          	sd	a2,-40(t6) # fd8 <.LBB81_3+0xd64>
    303c:	00065463          	bgez	a2,3044 <.LBB81_16>
    3040:	c0000f37          	lui	t5,0xc0000

0000000000003044 <.LBB81_16>:
    3044:	01452603          	lw	a2,20(a0)
    3048:	0145af83          	lw	t6,20(a1)
    304c:	00161a13          	slli	s4,a2,0x1
    3050:	e5f43023          	sd	t6,-448(s0)
    3054:	01fa8633          	add	a2,s5,t6
    3058:	00001fb7          	lui	t6,0x1
    305c:	41f40fb3          	sub	t6,s0,t6
    3060:	6f4fb423          	sd	s4,1768(t6) # 16e8 <.LBB81_4+0x510>
    3064:	01460633          	add	a2,a2,s4
    3068:	00e60633          	add	a2,a2,a4
    306c:	3c06061b          	addiw	a2,a2,960
    3070:	40000fb7          	lui	t6,0x40000
    3074:	00001a37          	lui	s4,0x1
    3078:	41440a33          	sub	s4,s0,s4
    307c:	fcca3023          	sd	a2,-64(s4) # fc0 <.LBB81_3+0xd4c>
    3080:	00065463          	bgez	a2,3088 <.LBB81_18>
    3084:	c0000fb7          	lui	t6,0xc0000

0000000000003088 <.LBB81_18>:
    3088:	01852603          	lw	a2,24(a0)
    308c:	0185aa03          	lw	s4,24(a1)
    3090:	00161a93          	slli	s5,a2,0x1
    3094:	00001637          	lui	a2,0x1
    3098:	40c40633          	sub	a2,s0,a2
    309c:	6f463023          	sd	s4,1760(a2) # 16e0 <.LBB81_4+0x508>
    30a0:	014c0633          	add	a2,s8,s4
    30a4:	00001a37          	lui	s4,0x1
    30a8:	41440a33          	sub	s4,s0,s4
    30ac:	6d5a3c23          	sd	s5,1752(s4) # 16d8 <.LBB81_4+0x500>
    30b0:	01560633          	add	a2,a2,s5
    30b4:	00e60633          	add	a2,a2,a4
    30b8:	3c06061b          	addiw	a2,a2,960
    30bc:	40000a37          	lui	s4,0x40000
    30c0:	00001ab7          	lui	s5,0x1
    30c4:	41540ab3          	sub	s5,s0,s5
    30c8:	facab823          	sd	a2,-80(s5) # fb0 <.LBB81_3+0xd3c>
    30cc:	00065463          	bgez	a2,30d4 <.LBB81_20>
    30d0:	c0000a37          	lui	s4,0xc0000

00000000000030d4 <.LBB81_20>:
    30d4:	00001637          	lui	a2,0x1
    30d8:	40c40633          	sub	a2,s0,a2
    30dc:	ff063023          	sd	a6,-32(a2) # fe0 <.LBB81_3+0xd6c>
    30e0:	00001637          	lui	a2,0x1
    30e4:	40c40633          	sub	a2,s0,a2
    30e8:	00d63023          	sd	a3,0(a2) # 1000 <.LBB81_3+0xd8c>
    30ec:	01c52603          	lw	a2,28(a0)
    30f0:	01c5a683          	lw	a3,28(a1)
    30f4:	00161813          	slli	a6,a2,0x1
    30f8:	00001637          	lui	a2,0x1
    30fc:	40c40633          	sub	a2,s0,a2
    3100:	6cd63823          	sd	a3,1744(a2) # 16d0 <.LBB81_4+0x4f8>
    3104:	00db8633          	add	a2,s7,a3
    3108:	000016b7          	lui	a3,0x1
    310c:	40d406b3          	sub	a3,s0,a3
    3110:	6d06b423          	sd	a6,1736(a3) # 16c8 <.LBB81_4+0x4f0>
    3114:	01060633          	add	a2,a2,a6
    3118:	00e60633          	add	a2,a2,a4
    311c:	3c06061b          	addiw	a2,a2,960
    3120:	400006b7          	lui	a3,0x40000
    3124:	00001837          	lui	a6,0x1
    3128:	41040833          	sub	a6,s0,a6
    312c:	f8c83c23          	sd	a2,-104(a6) # f98 <.LBB81_3+0xd24>
    3130:	00065463          	bgez	a2,3138 <.LBB81_22>
    3134:	c00006b7          	lui	a3,0xc0000

0000000000003138 <.LBB81_22>:
    3138:	00001637          	lui	a2,0x1
    313c:	40c40633          	sub	a2,s0,a2
    3140:	f6d63c23          	sd	a3,-136(a2) # f78 <.LBB81_3+0xd04>
    3144:	00001637          	lui	a2,0x1
    3148:	40c40633          	sub	a2,s0,a2
    314c:	f9463823          	sd	s4,-112(a2) # f90 <.LBB81_3+0xd1c>
    3150:	00001637          	lui	a2,0x1
    3154:	40c40633          	sub	a2,s0,a2
    3158:	fbf63023          	sd	t6,-96(a2) # fa0 <.LBB81_3+0xd2c>
    315c:	00001637          	lui	a2,0x1
    3160:	40c40633          	sub	a2,s0,a2
    3164:	fbe63c23          	sd	t5,-72(a2) # fb8 <.LBB81_3+0xd44>
    3168:	00001637          	lui	a2,0x1
    316c:	40c40633          	sub	a2,s0,a2
    3170:	fdd63823          	sd	t4,-48(a2) # fd0 <.LBB81_3+0xd5c>
    3174:	00098693          	mv	a3,s3
    3178:	00090813          	mv	a6,s2
    317c:	dc943c23          	sd	s1,-552(s0)
    3180:	dfc43823          	sd	t3,-528(s0)
    3184:	de743c23          	sd	t2,-520(s0)
    3188:	e0643023          	sd	t1,-512(s0)
    318c:	e0543423          	sd	t0,-504(s0)
    3190:	e1143823          	sd	a7,-496(s0)
    3194:	e2f43023          	sd	a5,-480(s0)
    3198:	02052603          	lw	a2,32(a0)
    319c:	0205a783          	lw	a5,32(a1)
    31a0:	00161893          	slli	a7,a2,0x1
    31a4:	00001637          	lui	a2,0x1
    31a8:	40c40633          	sub	a2,s0,a2
    31ac:	6cf63023          	sd	a5,1728(a2) # 16c0 <.LBB81_4+0x4e8>
    31b0:	00fb0633          	add	a2,s6,a5
    31b4:	000017b7          	lui	a5,0x1
    31b8:	40f407b3          	sub	a5,s0,a5
    31bc:	6b17bc23          	sd	a7,1720(a5) # 16b8 <.LBB81_4+0x4e0>
    31c0:	01160633          	add	a2,a2,a7
    31c4:	00e60633          	add	a2,a2,a4
    31c8:	3c06061b          	addiw	a2,a2,960
    31cc:	400007b7          	lui	a5,0x40000
    31d0:	000018b7          	lui	a7,0x1
    31d4:	411408b3          	sub	a7,s0,a7
    31d8:	f8c8b023          	sd	a2,-128(a7) # f80 <.LBB81_3+0xd0c>
    31dc:	00065463          	bgez	a2,31e4 <.LBB81_24>
    31e0:	c00007b7          	lui	a5,0xc0000

00000000000031e4 <.LBB81_24>:
    31e4:	00001637          	lui	a2,0x1
    31e8:	40c40633          	sub	a2,s0,a2
    31ec:	f6f63423          	sd	a5,-152(a2) # f68 <.LBB81_3+0xcf4>
    31f0:	07c5a603          	lw	a2,124(a1)
    31f4:	f8c43423          	sd	a2,-120(s0)
    31f8:	0785a603          	lw	a2,120(a1)
    31fc:	f8c43023          	sd	a2,-128(s0)
    3200:	0745a603          	lw	a2,116(a1)
    3204:	f6c43c23          	sd	a2,-136(s0)
    3208:	0705a603          	lw	a2,112(a1)
    320c:	f6c43823          	sd	a2,-144(s0)
    3210:	06c5a603          	lw	a2,108(a1)
    3214:	f6c43423          	sd	a2,-152(s0)
    3218:	0685a603          	lw	a2,104(a1)
    321c:	f6c43023          	sd	a2,-160(s0)
    3220:	0645a603          	lw	a2,100(a1)
    3224:	f4c43c23          	sd	a2,-168(s0)
    3228:	0605a603          	lw	a2,96(a1)
    322c:	f4c43823          	sd	a2,-176(s0)
    3230:	05c5a603          	lw	a2,92(a1)
    3234:	f4c43423          	sd	a2,-184(s0)
    3238:	0585a603          	lw	a2,88(a1)
    323c:	f4c43023          	sd	a2,-192(s0)
    3240:	0545a603          	lw	a2,84(a1)
    3244:	f2c43c23          	sd	a2,-200(s0)
    3248:	0505a603          	lw	a2,80(a1)
    324c:	f2c43823          	sd	a2,-208(s0)
    3250:	04c5a603          	lw	a2,76(a1)
    3254:	f2c43423          	sd	a2,-216(s0)
    3258:	0485a603          	lw	a2,72(a1)
    325c:	f2c43023          	sd	a2,-224(s0)
    3260:	0445a603          	lw	a2,68(a1)
    3264:	f0c43c23          	sd	a2,-232(s0)
    3268:	0405a603          	lw	a2,64(a1)
    326c:	f0c43823          	sd	a2,-240(s0)
    3270:	03c5a603          	lw	a2,60(a1)
    3274:	ecc43023          	sd	a2,-320(s0)
    3278:	0385a603          	lw	a2,56(a1)
    327c:	eac43c23          	sd	a2,-328(s0)
    3280:	0345a603          	lw	a2,52(a1)
    3284:	eac43823          	sd	a2,-336(s0)
    3288:	0305a603          	lw	a2,48(a1)
    328c:	eac43423          	sd	a2,-344(s0)
    3290:	02c5a603          	lw	a2,44(a1)
    3294:	eac43023          	sd	a2,-352(s0)
    3298:	0285a603          	lw	a2,40(a1)
    329c:	e8c43c23          	sd	a2,-360(s0)
    32a0:	0245a603          	lw	a2,36(a1)
    32a4:	07c52583          	lw	a1,124(a0)
    32a8:	f8d43823          	sd	a3,-112(s0)
    32ac:	000016b7          	lui	a3,0x1
    32b0:	40d406b3          	sub	a3,s0,a3
    32b4:	68b6b023          	sd	a1,1664(a3) # 1680 <.LBB81_4+0x4a8>
    32b8:	07852583          	lw	a1,120(a0)
    32bc:	000016b7          	lui	a3,0x1
    32c0:	40d406b3          	sub	a3,s0,a3
    32c4:	64b6b823          	sd	a1,1616(a3) # 1650 <.LBB81_4+0x478>
    32c8:	07452283          	lw	t0,116(a0)
    32cc:	07052303          	lw	t1,112(a0)
    32d0:	06c52383          	lw	t2,108(a0)
    32d4:	06852e03          	lw	t3,104(a0)
    32d8:	06452e83          	lw	t4,100(a0)
    32dc:	06052f03          	lw	t5,96(a0)
    32e0:	05c52f83          	lw	t6,92(a0)
    32e4:	05852483          	lw	s1,88(a0)
    32e8:	05452903          	lw	s2,84(a0)
    32ec:	05052983          	lw	s3,80(a0)
    32f0:	04c52a03          	lw	s4,76(a0)
    32f4:	04852a83          	lw	s5,72(a0)
    32f8:	04452b03          	lw	s6,68(a0)
    32fc:	04052b83          	lw	s7,64(a0)
    3300:	03c52c03          	lw	s8,60(a0)
    3304:	03852c83          	lw	s9,56(a0)
    3308:	03452d03          	lw	s10,52(a0)
    330c:	02452583          	lw	a1,36(a0)
    3310:	03052d83          	lw	s11,48(a0)
    3314:	02c52083          	lw	ra,44(a0)
    3318:	02852503          	lw	a0,40(a0)
    331c:	00159893          	slli	a7,a1,0x1
    3320:	000015b7          	lui	a1,0x1
    3324:	40b405b3          	sub	a1,s0,a1
    3328:	6ac5b823          	sd	a2,1712(a1) # 16b0 <.LBB81_4+0x4d8>
    332c:	000015b7          	lui	a1,0x1
    3330:	40b405b3          	sub	a1,s0,a1
    3334:	6f05b583          	ld	a1,1776(a1) # 16f0 <.LBB81_4+0x518>
    3338:	00c585b3          	add	a1,a1,a2
    333c:	00001637          	lui	a2,0x1
    3340:	40c40633          	sub	a2,s0,a2
    3344:	6f163823          	sd	a7,1776(a2) # 16f0 <.LBB81_4+0x518>
    3348:	011585b3          	add	a1,a1,a7
    334c:	00001637          	lui	a2,0x1
    3350:	40c40633          	sub	a2,s0,a2
    3354:	66863603          	ld	a2,1640(a2) # 1668 <.LBB81_4+0x490>
    3358:	00462883          	lw	a7,4(a2)
    335c:	00862783          	lw	a5,8(a2)
    3360:	000016b7          	lui	a3,0x1
    3364:	40d406b3          	sub	a3,s0,a3
    3368:	68f6b423          	sd	a5,1672(a3) # 1688 <.LBB81_4+0x4b0>
    336c:	00c62783          	lw	a5,12(a2)
    3370:	000016b7          	lui	a3,0x1
    3374:	40d406b3          	sub	a3,s0,a3
    3378:	68f6b823          	sd	a5,1680(a3) # 1690 <.LBB81_4+0x4b8>
    337c:	01062783          	lw	a5,16(a2)
    3380:	000016b7          	lui	a3,0x1
    3384:	40d406b3          	sub	a3,s0,a3
    3388:	6af6b423          	sd	a5,1704(a3) # 16a8 <.LBB81_4+0x4d0>
    338c:	01462783          	lw	a5,20(a2)
    3390:	000016b7          	lui	a3,0x1
    3394:	40d406b3          	sub	a3,s0,a3
    3398:	d8f6b823          	sd	a5,-624(a3) # d90 <.LBB81_3+0xb1c>
    339c:	01862783          	lw	a5,24(a2)
    33a0:	000016b7          	lui	a3,0x1
    33a4:	40d406b3          	sub	a3,s0,a3
    33a8:	d8f6bc23          	sd	a5,-616(a3) # d98 <.LBB81_3+0xb24>
    33ac:	f9043683          	ld	a3,-112(s0)
    33b0:	01c62603          	lw	a2,28(a2)
    33b4:	000017b7          	lui	a5,0x1
    33b8:	40f407b3          	sub	a5,s0,a5
    33bc:	dac7b023          	sd	a2,-608(a5) # da0 <.LBB81_3+0xb2c>
    33c0:	00e585b3          	add	a1,a1,a4
    33c4:	3c05859b          	addiw	a1,a1,960
    33c8:	40000637          	lui	a2,0x40000
    33cc:	000017b7          	lui	a5,0x1
    33d0:	40f407b3          	sub	a5,s0,a5
    33d4:	dab7b423          	sd	a1,-600(a5) # da8 <.LBB81_3+0xb34>
    33d8:	0005d463          	bgez	a1,33e0 <.LBB81_26>
    33dc:	c0000637          	lui	a2,0xc0000

00000000000033e0 <.LBB81_26>:
    33e0:	00151593          	slli	a1,a0,0x1
    33e4:	e9843503          	ld	a0,-360(s0)
    33e8:	000017b7          	lui	a5,0x1
    33ec:	40f407b3          	sub	a5,s0,a5
    33f0:	6f87b783          	ld	a5,1784(a5) # 16f8 <.LBB81_4+0x520>
    33f4:	00a78533          	add	a0,a5,a0
    33f8:	000017b7          	lui	a5,0x1
    33fc:	40f407b3          	sub	a5,s0,a5
    3400:	6eb7bc23          	sd	a1,1784(a5) # 16f8 <.LBB81_4+0x520>
    3404:	00b50533          	add	a0,a0,a1
    3408:	00e50533          	add	a0,a0,a4
    340c:	3c05051b          	addiw	a0,a0,960
    3410:	400005b7          	lui	a1,0x40000
    3414:	000017b7          	lui	a5,0x1
    3418:	40f407b3          	sub	a5,s0,a5
    341c:	daa7bc23          	sd	a0,-584(a5) # db8 <.LBB81_3+0xb44>
    3420:	000017b7          	lui	a5,0x1
    3424:	40f407b3          	sub	a5,s0,a5
    3428:	7307b783          	ld	a5,1840(a5) # 1730 <.LBB81_4+0x558>
    342c:	00055463          	bgez	a0,3434 <.LBB81_28>
    3430:	c00005b7          	lui	a1,0xc0000

0000000000003434 <.LBB81_28>:
    3434:	00001537          	lui	a0,0x1
    3438:	40a40533          	sub	a0,s0,a0
    343c:	dab53823          	sd	a1,-592(a0) # db0 <.LBB81_3+0xb3c>
    3440:	00109093          	slli	ra,ra,0x1
    3444:	ea043503          	ld	a0,-352(s0)
    3448:	000015b7          	lui	a1,0x1
    344c:	40b405b3          	sub	a1,s0,a1
    3450:	7005b583          	ld	a1,1792(a1) # 1700 <.LBB81_4+0x528>
    3454:	00a58533          	add	a0,a1,a0
    3458:	000015b7          	lui	a1,0x1
    345c:	40b405b3          	sub	a1,s0,a1
    3460:	7015b023          	sd	ra,1792(a1) # 1700 <.LBB81_4+0x528>
    3464:	00150533          	add	a0,a0,ra
    3468:	00e50533          	add	a0,a0,a4
    346c:	3c05051b          	addiw	a0,a0,960
    3470:	400005b7          	lui	a1,0x40000
    3474:	000010b7          	lui	ra,0x1
    3478:	401400b3          	sub	ra,s0,ra
    347c:	dca0b423          	sd	a0,-568(ra) # dc8 <.LBB81_3+0xb54>
    3480:	00055463          	bgez	a0,3488 <.LBB81_30>
    3484:	c00005b7          	lui	a1,0xc0000

0000000000003488 <.LBB81_30>:
    3488:	00001537          	lui	a0,0x1
    348c:	40a40533          	sub	a0,s0,a0
    3490:	dcb53023          	sd	a1,-576(a0) # dc0 <.LBB81_3+0xb4c>
    3494:	001d9d93          	slli	s11,s11,0x1
    3498:	ea843503          	ld	a0,-344(s0)
    349c:	000015b7          	lui	a1,0x1
    34a0:	40b405b3          	sub	a1,s0,a1
    34a4:	7085b583          	ld	a1,1800(a1) # 1708 <.LBB81_4+0x530>
    34a8:	00a58533          	add	a0,a1,a0
    34ac:	000015b7          	lui	a1,0x1
    34b0:	40b405b3          	sub	a1,s0,a1
    34b4:	71b5b423          	sd	s11,1800(a1) # 1708 <.LBB81_4+0x530>
    34b8:	01b50533          	add	a0,a0,s11
    34bc:	00e50533          	add	a0,a0,a4
    34c0:	3c05051b          	addiw	a0,a0,960
    34c4:	400005b7          	lui	a1,0x40000
    34c8:	00001db7          	lui	s11,0x1
    34cc:	41b40db3          	sub	s11,s0,s11
    34d0:	dcadbc23          	sd	a0,-552(s11) # dd8 <.LBB81_3+0xb64>
    34d4:	00001db7          	lui	s11,0x1
    34d8:	41b40db3          	sub	s11,s0,s11
    34dc:	788db083          	ld	ra,1928(s11) # 1788 <.LBB81_5+0x34>
    34e0:	00055463          	bgez	a0,34e8 <.LBB81_32>
    34e4:	c00005b7          	lui	a1,0xc0000

00000000000034e8 <.LBB81_32>:
    34e8:	f8c43823          	sd	a2,-112(s0)
    34ec:	00001537          	lui	a0,0x1
    34f0:	40a40533          	sub	a0,s0,a0
    34f4:	dcb53823          	sd	a1,-560(a0) # dd0 <.LBB81_3+0xb5c>
    34f8:	001d1593          	slli	a1,s10,0x1
    34fc:	eb043503          	ld	a0,-336(s0)
    3500:	00001637          	lui	a2,0x1
    3504:	40c40633          	sub	a2,s0,a2
    3508:	71063d03          	ld	s10,1808(a2) # 1710 <.LBB81_4+0x538>
    350c:	00ad0533          	add	a0,s10,a0
    3510:	00058d13          	mv	s10,a1
    3514:	00b50533          	add	a0,a0,a1
    3518:	00e50533          	add	a0,a0,a4
    351c:	3c05051b          	addiw	a0,a0,960
    3520:	400005b7          	lui	a1,0x40000
    3524:	b3043d83          	ld	s11,-1232(s0)
    3528:	00001637          	lui	a2,0x1
    352c:	40c40633          	sub	a2,s0,a2
    3530:	dea63423          	sd	a0,-536(a2) # de8 <.LBB81_3+0xb74>
    3534:	f9043603          	ld	a2,-112(s0)
    3538:	00055463          	bgez	a0,3540 <.LBB81_34>
    353c:	c00005b7          	lui	a1,0xc0000

0000000000003540 <.LBB81_34>:
    3540:	00001537          	lui	a0,0x1
    3544:	40a40533          	sub	a0,s0,a0
    3548:	deb53023          	sd	a1,-544(a0) # de0 <.LBB81_3+0xb6c>
    354c:	001c9c93          	slli	s9,s9,0x1
    3550:	eb843503          	ld	a0,-328(s0)
    3554:	000015b7          	lui	a1,0x1
    3558:	40b405b3          	sub	a1,s0,a1
    355c:	7185b583          	ld	a1,1816(a1) # 1718 <.LBB81_4+0x540>
    3560:	00a58533          	add	a0,a1,a0
    3564:	000015b7          	lui	a1,0x1
    3568:	40b405b3          	sub	a1,s0,a1
    356c:	7195bc23          	sd	s9,1816(a1) # 1718 <.LBB81_4+0x540>
    3570:	01950533          	add	a0,a0,s9
    3574:	00e50533          	add	a0,a0,a4
    3578:	3c05051b          	addiw	a0,a0,960
    357c:	400005b7          	lui	a1,0x40000
    3580:	00001cb7          	lui	s9,0x1
    3584:	41940cb3          	sub	s9,s0,s9
    3588:	deacbc23          	sd	a0,-520(s9) # df8 <.LBB81_3+0xb84>
    358c:	00055463          	bgez	a0,3594 <.LBB81_36>
    3590:	c00005b7          	lui	a1,0xc0000

0000000000003594 <.LBB81_36>:
    3594:	00001537          	lui	a0,0x1
    3598:	40a40533          	sub	a0,s0,a0
    359c:	deb53823          	sd	a1,-528(a0) # df0 <.LBB81_3+0xb7c>
    35a0:	001c1c13          	slli	s8,s8,0x1
    35a4:	ec043503          	ld	a0,-320(s0)
    35a8:	000015b7          	lui	a1,0x1
    35ac:	40b405b3          	sub	a1,s0,a1
    35b0:	7205b583          	ld	a1,1824(a1) # 1720 <.LBB81_4+0x548>
    35b4:	00a58533          	add	a0,a1,a0
    35b8:	000015b7          	lui	a1,0x1
    35bc:	40b405b3          	sub	a1,s0,a1
    35c0:	7385b023          	sd	s8,1824(a1) # 1720 <.LBB81_4+0x548>
    35c4:	01850533          	add	a0,a0,s8
    35c8:	00e50533          	add	a0,a0,a4
    35cc:	3c05051b          	addiw	a0,a0,960
    35d0:	400005b7          	lui	a1,0x40000
    35d4:	a9843c83          	ld	s9,-1384(s0)
    35d8:	00001c37          	lui	s8,0x1
    35dc:	41840c33          	sub	s8,s0,s8
    35e0:	e0ac3423          	sd	a0,-504(s8) # e08 <.LBB81_3+0xb94>
    35e4:	00055463          	bgez	a0,35ec <.LBB81_38>
    35e8:	c00005b7          	lui	a1,0xc0000

00000000000035ec <.LBB81_38>:
    35ec:	00001537          	lui	a0,0x1
    35f0:	40a40533          	sub	a0,s0,a0
    35f4:	e0b53023          	sd	a1,-512(a0) # e00 <.LBB81_3+0xb8c>
    35f8:	001b9b93          	slli	s7,s7,0x1
    35fc:	f1043503          	ld	a0,-240(s0)
    3600:	000015b7          	lui	a1,0x1
    3604:	40b405b3          	sub	a1,s0,a1
    3608:	7285b583          	ld	a1,1832(a1) # 1728 <.LBB81_4+0x550>
    360c:	00a58533          	add	a0,a1,a0
    3610:	000015b7          	lui	a1,0x1
    3614:	40b405b3          	sub	a1,s0,a1
    3618:	7375b423          	sd	s7,1832(a1) # 1728 <.LBB81_4+0x550>
    361c:	01750533          	add	a0,a0,s7
    3620:	00e50533          	add	a0,a0,a4
    3624:	3c05051b          	addiw	a0,a0,960
    3628:	400005b7          	lui	a1,0x40000
    362c:	00001bb7          	lui	s7,0x1
    3630:	41740bb3          	sub	s7,s0,s7
    3634:	d28bbc03          	ld	s8,-728(s7) # d28 <.LBB81_3+0xab4>
    3638:	00001bb7          	lui	s7,0x1
    363c:	41740bb3          	sub	s7,s0,s7
    3640:	e0abbc23          	sd	a0,-488(s7) # e18 <.LBB81_3+0xba4>
    3644:	00055463          	bgez	a0,364c <.LBB81_40>
    3648:	c00005b7          	lui	a1,0xc0000

000000000000364c <.LBB81_40>:
    364c:	00001537          	lui	a0,0x1
    3650:	40a40533          	sub	a0,s0,a0
    3654:	e0b53823          	sd	a1,-496(a0) # e10 <.LBB81_3+0xb9c>
    3658:	001b1b13          	slli	s6,s6,0x1
    365c:	f1843503          	ld	a0,-232(s0)
    3660:	00a78533          	add	a0,a5,a0
    3664:	000015b7          	lui	a1,0x1
    3668:	40b405b3          	sub	a1,s0,a1
    366c:	7365b823          	sd	s6,1840(a1) # 1730 <.LBB81_4+0x558>
    3670:	01650533          	add	a0,a0,s6
    3674:	00e50533          	add	a0,a0,a4
    3678:	3c05051b          	addiw	a0,a0,960
    367c:	400005b7          	lui	a1,0x40000
    3680:	000017b7          	lui	a5,0x1
    3684:	40f407b3          	sub	a5,s0,a5
    3688:	6607bb83          	ld	s7,1632(a5) # 1660 <.LBB81_4+0x488>
    368c:	000017b7          	lui	a5,0x1
    3690:	40f407b3          	sub	a5,s0,a5
    3694:	e2a7b423          	sd	a0,-472(a5) # e28 <.LBB81_3+0xbb4>
    3698:	00055463          	bgez	a0,36a0 <.LBB81_42>
    369c:	c00005b7          	lui	a1,0xc0000

00000000000036a0 <.LBB81_42>:
    36a0:	00001537          	lui	a0,0x1
    36a4:	40a40533          	sub	a0,s0,a0
    36a8:	e2b53023          	sd	a1,-480(a0) # e20 <.LBB81_3+0xbac>
    36ac:	001a9a93          	slli	s5,s5,0x1
    36b0:	f2043503          	ld	a0,-224(s0)
    36b4:	000015b7          	lui	a1,0x1
    36b8:	40b405b3          	sub	a1,s0,a1
    36bc:	7385b583          	ld	a1,1848(a1) # 1738 <.LBB81_4+0x560>
    36c0:	00a58533          	add	a0,a1,a0
    36c4:	000015b7          	lui	a1,0x1
    36c8:	40b405b3          	sub	a1,s0,a1
    36cc:	7355bc23          	sd	s5,1848(a1) # 1738 <.LBB81_4+0x560>
    36d0:	01550533          	add	a0,a0,s5
    36d4:	00e50533          	add	a0,a0,a4
    36d8:	3c05051b          	addiw	a0,a0,960
    36dc:	400005b7          	lui	a1,0x40000
    36e0:	dc843b03          	ld	s6,-568(s0)
    36e4:	000017b7          	lui	a5,0x1
    36e8:	40f407b3          	sub	a5,s0,a5
    36ec:	e2a7bc23          	sd	a0,-456(a5) # e38 <.LBB81_3+0xbc4>
    36f0:	00055463          	bgez	a0,36f8 <.LBB81_44>
    36f4:	c00005b7          	lui	a1,0xc0000

00000000000036f8 <.LBB81_44>:
    36f8:	00001537          	lui	a0,0x1
    36fc:	40a40533          	sub	a0,s0,a0
    3700:	e2b53823          	sd	a1,-464(a0) # e30 <.LBB81_3+0xbbc>
    3704:	001a1a13          	slli	s4,s4,0x1
    3708:	f2843503          	ld	a0,-216(s0)
    370c:	000015b7          	lui	a1,0x1
    3710:	40b405b3          	sub	a1,s0,a1
    3714:	7405b583          	ld	a1,1856(a1) # 1740 <.LBB81_4+0x568>
    3718:	00a58533          	add	a0,a1,a0
    371c:	000015b7          	lui	a1,0x1
    3720:	40b405b3          	sub	a1,s0,a1
    3724:	7545b023          	sd	s4,1856(a1) # 1740 <.LBB81_4+0x568>
    3728:	01450533          	add	a0,a0,s4
    372c:	00e50533          	add	a0,a0,a4
    3730:	3c05051b          	addiw	a0,a0,960
    3734:	400005b7          	lui	a1,0x40000
    3738:	dd043a83          	ld	s5,-560(s0)
    373c:	000017b7          	lui	a5,0x1
    3740:	40f407b3          	sub	a5,s0,a5
    3744:	e4a7b423          	sd	a0,-440(a5) # e48 <.LBB81_3+0xbd4>
    3748:	00055463          	bgez	a0,3750 <.LBB81_46>
    374c:	c00005b7          	lui	a1,0xc0000

0000000000003750 <.LBB81_46>:
    3750:	00001537          	lui	a0,0x1
    3754:	40a40533          	sub	a0,s0,a0
    3758:	e4b53023          	sd	a1,-448(a0) # e40 <.LBB81_3+0xbcc>
    375c:	00199993          	slli	s3,s3,0x1
    3760:	f3043503          	ld	a0,-208(s0)
    3764:	000015b7          	lui	a1,0x1
    3768:	40b405b3          	sub	a1,s0,a1
    376c:	7485b583          	ld	a1,1864(a1) # 1748 <.LBB81_4+0x570>
    3770:	00a58533          	add	a0,a1,a0
    3774:	000015b7          	lui	a1,0x1
    3778:	40b405b3          	sub	a1,s0,a1
    377c:	7535b423          	sd	s3,1864(a1) # 1748 <.LBB81_4+0x570>
    3780:	01350533          	add	a0,a0,s3
    3784:	00e50533          	add	a0,a0,a4
    3788:	3c05051b          	addiw	a0,a0,960
    378c:	400005b7          	lui	a1,0x40000
    3790:	bd043a03          	ld	s4,-1072(s0)
    3794:	000017b7          	lui	a5,0x1
    3798:	40f407b3          	sub	a5,s0,a5
    379c:	e4a7bc23          	sd	a0,-424(a5) # e58 <.LBB81_3+0xbe4>
    37a0:	00055463          	bgez	a0,37a8 <.LBB81_48>
    37a4:	c00005b7          	lui	a1,0xc0000

00000000000037a8 <.LBB81_48>:
    37a8:	00001537          	lui	a0,0x1
    37ac:	40a40533          	sub	a0,s0,a0
    37b0:	e4b53823          	sd	a1,-432(a0) # e50 <.LBB81_3+0xbdc>
    37b4:	00191913          	slli	s2,s2,0x1
    37b8:	f3843503          	ld	a0,-200(s0)
    37bc:	000015b7          	lui	a1,0x1
    37c0:	40b405b3          	sub	a1,s0,a1
    37c4:	7505b583          	ld	a1,1872(a1) # 1750 <.LBB81_4+0x578>
    37c8:	00a58533          	add	a0,a1,a0
    37cc:	000015b7          	lui	a1,0x1
    37d0:	40b405b3          	sub	a1,s0,a1
    37d4:	7525b823          	sd	s2,1872(a1) # 1750 <.LBB81_4+0x578>
    37d8:	01250533          	add	a0,a0,s2
    37dc:	00e50533          	add	a0,a0,a4
    37e0:	3c05051b          	addiw	a0,a0,960
    37e4:	400005b7          	lui	a1,0x40000
    37e8:	00068993          	mv	s3,a3
    37ec:	000016b7          	lui	a3,0x1
    37f0:	40d406b3          	sub	a3,s0,a3
    37f4:	e6a6b423          	sd	a0,-408(a3) # e68 <.LBB81_3+0xbf4>
    37f8:	00055463          	bgez	a0,3800 <.LBB81_50>
    37fc:	c00005b7          	lui	a1,0xc0000

0000000000003800 <.LBB81_50>:
    3800:	00001537          	lui	a0,0x1
    3804:	40a40533          	sub	a0,s0,a0
    3808:	e6b53023          	sd	a1,-416(a0) # e60 <.LBB81_3+0xbec>
    380c:	00149493          	slli	s1,s1,0x1
    3810:	f4043503          	ld	a0,-192(s0)
    3814:	000015b7          	lui	a1,0x1
    3818:	40b405b3          	sub	a1,s0,a1
    381c:	7585b583          	ld	a1,1880(a1) # 1758 <.LBB81_5+0x4>
    3820:	00a58533          	add	a0,a1,a0
    3824:	000015b7          	lui	a1,0x1
    3828:	40b405b3          	sub	a1,s0,a1
    382c:	7495bc23          	sd	s1,1880(a1) # 1758 <.LBB81_5+0x4>
    3830:	00950533          	add	a0,a0,s1
    3834:	00e50533          	add	a0,a0,a4
    3838:	3c05051b          	addiw	a0,a0,960
    383c:	400005b7          	lui	a1,0x40000
    3840:	00080913          	mv	s2,a6
    3844:	000016b7          	lui	a3,0x1
    3848:	40d406b3          	sub	a3,s0,a3
    384c:	e6a6bc23          	sd	a0,-392(a3) # e78 <.LBB81_3+0xc04>
    3850:	89843683          	ld	a3,-1896(s0)
    3854:	00055463          	bgez	a0,385c <.LBB81_52>
    3858:	c00005b7          	lui	a1,0xc0000

000000000000385c <.LBB81_52>:
    385c:	00001537          	lui	a0,0x1
    3860:	40a40533          	sub	a0,s0,a0
    3864:	e6b53823          	sd	a1,-400(a0) # e70 <.LBB81_3+0xbfc>
    3868:	001f9f93          	slli	t6,t6,0x1
    386c:	f4843503          	ld	a0,-184(s0)
    3870:	000015b7          	lui	a1,0x1
    3874:	40b405b3          	sub	a1,s0,a1
    3878:	6985b583          	ld	a1,1688(a1) # 1698 <.LBB81_4+0x4c0>
    387c:	00a58533          	add	a0,a1,a0
    3880:	000015b7          	lui	a1,0x1
    3884:	40b405b3          	sub	a1,s0,a1
    3888:	71f5b823          	sd	t6,1808(a1) # 1710 <.LBB81_4+0x538>
    388c:	01f50533          	add	a0,a0,t6
    3890:	00e50533          	add	a0,a0,a4
    3894:	3c05051b          	addiw	a0,a0,960
    3898:	400005b7          	lui	a1,0x40000
    389c:	dd843483          	ld	s1,-552(s0)
    38a0:	b0043803          	ld	a6,-1280(s0)
    38a4:	000017b7          	lui	a5,0x1
    38a8:	40f407b3          	sub	a5,s0,a5
    38ac:	e8a7b423          	sd	a0,-376(a5) # e88 <.LBB81_3+0xc14>
    38b0:	00055463          	bgez	a0,38b8 <.LBB81_54>
    38b4:	c00005b7          	lui	a1,0xc0000

00000000000038b8 <.LBB81_54>:
    38b8:	00001537          	lui	a0,0x1
    38bc:	40a40533          	sub	a0,s0,a0
    38c0:	e8b53023          	sd	a1,-384(a0) # e80 <.LBB81_3+0xc0c>
    38c4:	001f1f13          	slli	t5,t5,0x1
    38c8:	f5043503          	ld	a0,-176(s0)
    38cc:	000015b7          	lui	a1,0x1
    38d0:	40b405b3          	sub	a1,s0,a1
    38d4:	7605b583          	ld	a1,1888(a1) # 1760 <.LBB81_5+0xc>
    38d8:	00a58533          	add	a0,a1,a0
    38dc:	000015b7          	lui	a1,0x1
    38e0:	40b405b3          	sub	a1,s0,a1
    38e4:	77e5b023          	sd	t5,1888(a1) # 1760 <.LBB81_5+0xc>
    38e8:	01e50533          	add	a0,a0,t5
    38ec:	00e50533          	add	a0,a0,a4
    38f0:	3c05051b          	addiw	a0,a0,960
    38f4:	400005b7          	lui	a1,0x40000
    38f8:	ef043f03          	ld	t5,-272(s0)
    38fc:	de043f83          	ld	t6,-544(s0)
    3900:	000017b7          	lui	a5,0x1
    3904:	40f407b3          	sub	a5,s0,a5
    3908:	e8a7bc23          	sd	a0,-360(a5) # e98 <.LBB81_3+0xc24>
    390c:	00055463          	bgez	a0,3914 <.LBB81_56>
    3910:	c00005b7          	lui	a1,0xc0000

0000000000003914 <.LBB81_56>:
    3914:	00001537          	lui	a0,0x1
    3918:	40a40533          	sub	a0,s0,a0
    391c:	e8b53823          	sd	a1,-368(a0) # e90 <.LBB81_3+0xc1c>
    3920:	001e9e93          	slli	t4,t4,0x1
    3924:	f5843503          	ld	a0,-168(s0)
    3928:	000015b7          	lui	a1,0x1
    392c:	40b405b3          	sub	a1,s0,a1
    3930:	7685b583          	ld	a1,1896(a1) # 1768 <.LBB81_5+0x14>
    3934:	00a58533          	add	a0,a1,a0
    3938:	000015b7          	lui	a1,0x1
    393c:	40b405b3          	sub	a1,s0,a1
    3940:	77d5b423          	sd	t4,1896(a1) # 1768 <.LBB81_5+0x14>
    3944:	01d50533          	add	a0,a0,t4
    3948:	00e50533          	add	a0,a0,a4
    394c:	3c05051b          	addiw	a0,a0,960
    3950:	400005b7          	lui	a1,0x40000
    3954:	000017b7          	lui	a5,0x1
    3958:	40f407b3          	sub	a5,s0,a5
    395c:	eaa7b423          	sd	a0,-344(a5) # ea8 <.LBB81_3+0xc34>
    3960:	00055463          	bgez	a0,3968 <.LBB81_58>
    3964:	c00005b7          	lui	a1,0xc0000

0000000000003968 <.LBB81_58>:
    3968:	00001537          	lui	a0,0x1
    396c:	40a40533          	sub	a0,s0,a0
    3970:	eab53023          	sd	a1,-352(a0) # ea0 <.LBB81_3+0xc2c>
    3974:	001e1593          	slli	a1,t3,0x1
    3978:	f6043503          	ld	a0,-160(s0)
    397c:	000017b7          	lui	a5,0x1
    3980:	40f407b3          	sub	a5,s0,a5
    3984:	7707be03          	ld	t3,1904(a5) # 1770 <.LBB81_5+0x1c>
    3988:	00ae0533          	add	a0,t3,a0
    398c:	000017b7          	lui	a5,0x1
    3990:	40f407b3          	sub	a5,s0,a5
    3994:	76b7b823          	sd	a1,1904(a5) # 1770 <.LBB81_5+0x1c>
    3998:	00b50533          	add	a0,a0,a1
    399c:	00e50533          	add	a0,a0,a4
    39a0:	3c05051b          	addiw	a0,a0,960
    39a4:	400005b7          	lui	a1,0x40000
    39a8:	de843e83          	ld	t4,-536(s0)
    39ac:	000017b7          	lui	a5,0x1
    39b0:	40f407b3          	sub	a5,s0,a5
    39b4:	eaa7bc23          	sd	a0,-328(a5) # eb8 <.LBB81_3+0xc44>
    39b8:	00055463          	bgez	a0,39c0 <.LBB81_60>
    39bc:	c00005b7          	lui	a1,0xc0000

00000000000039c0 <.LBB81_60>:
    39c0:	00001537          	lui	a0,0x1
    39c4:	40a40533          	sub	a0,s0,a0
    39c8:	eab53823          	sd	a1,-336(a0) # eb0 <.LBB81_3+0xc3c>
    39cc:	00139593          	slli	a1,t2,0x1
    39d0:	f6843503          	ld	a0,-152(s0)
    39d4:	000017b7          	lui	a5,0x1
    39d8:	40f407b3          	sub	a5,s0,a5
    39dc:	7787b383          	ld	t2,1912(a5) # 1778 <.LBB81_5+0x24>
    39e0:	00a38533          	add	a0,t2,a0
    39e4:	00058393          	mv	t2,a1
    39e8:	00b50533          	add	a0,a0,a1
    39ec:	00e50533          	add	a0,a0,a4
    39f0:	3c05051b          	addiw	a0,a0,960
    39f4:	400005b7          	lui	a1,0x40000
    39f8:	000017b7          	lui	a5,0x1
    39fc:	40f407b3          	sub	a5,s0,a5
    3a00:	eca7b423          	sd	a0,-312(a5) # ec8 <.LBB81_3+0xc54>
    3a04:	000017b7          	lui	a5,0x1
    3a08:	40f407b3          	sub	a5,s0,a5
    3a0c:	7907be03          	ld	t3,1936(a5) # 1790 <.LBB81_5+0x3c>
    3a10:	00055463          	bgez	a0,3a18 <.LBB81_62>
    3a14:	c00005b7          	lui	a1,0xc0000

0000000000003a18 <.LBB81_62>:
    3a18:	00001537          	lui	a0,0x1
    3a1c:	40a40533          	sub	a0,s0,a0
    3a20:	ecb53023          	sd	a1,-320(a0) # ec0 <.LBB81_3+0xc4c>
    3a24:	00131593          	slli	a1,t1,0x1
    3a28:	f7043503          	ld	a0,-144(s0)
    3a2c:	000017b7          	lui	a5,0x1
    3a30:	40f407b3          	sub	a5,s0,a5
    3a34:	7807b303          	ld	t1,1920(a5) # 1780 <.LBB81_5+0x2c>
    3a38:	00a30533          	add	a0,t1,a0
    3a3c:	00058313          	mv	t1,a1
    3a40:	00b50533          	add	a0,a0,a1
    3a44:	00e50533          	add	a0,a0,a4
    3a48:	3c05051b          	addiw	a0,a0,960
    3a4c:	400005b7          	lui	a1,0x40000
    3a50:	000017b7          	lui	a5,0x1
    3a54:	40f407b3          	sub	a5,s0,a5
    3a58:	eca7bc23          	sd	a0,-296(a5) # ed8 <.LBB81_3+0xc64>
    3a5c:	00055463          	bgez	a0,3a64 <.LBB81_64>
    3a60:	c00005b7          	lui	a1,0xc0000

0000000000003a64 <.LBB81_64>:
    3a64:	00001537          	lui	a0,0x1
    3a68:	40a40533          	sub	a0,s0,a0
    3a6c:	ecb53823          	sd	a1,-304(a0) # ed0 <.LBB81_3+0xc5c>
    3a70:	00129593          	slli	a1,t0,0x1
    3a74:	f7843503          	ld	a0,-136(s0)
    3a78:	000017b7          	lui	a5,0x1
    3a7c:	40f407b3          	sub	a5,s0,a5
    3a80:	6a07b283          	ld	t0,1696(a5) # 16a0 <.LBB81_4+0x4c8>
    3a84:	00a28533          	add	a0,t0,a0
    3a88:	00058293          	mv	t0,a1
    3a8c:	00b50533          	add	a0,a0,a1
    3a90:	00e50533          	add	a0,a0,a4
    3a94:	3c05051b          	addiw	a0,a0,960
    3a98:	400005b7          	lui	a1,0x40000
    3a9c:	000017b7          	lui	a5,0x1
    3aa0:	40f407b3          	sub	a5,s0,a5
    3aa4:	eea7b423          	sd	a0,-280(a5) # ee8 <.LBB81_3+0xc74>
    3aa8:	00055463          	bgez	a0,3ab0 <.LBB81_66>
    3aac:	c00005b7          	lui	a1,0xc0000

0000000000003ab0 <.LBB81_66>:
    3ab0:	00001537          	lui	a0,0x1
    3ab4:	40a40533          	sub	a0,s0,a0
    3ab8:	eeb53023          	sd	a1,-288(a0) # ee0 <.LBB81_3+0xc6c>
    3abc:	00001537          	lui	a0,0x1
    3ac0:	40a40533          	sub	a0,s0,a0
    3ac4:	65053783          	ld	a5,1616(a0) # 1650 <.LBB81_4+0x478>
    3ac8:	00179793          	slli	a5,a5,0x1
    3acc:	f8043503          	ld	a0,-128(s0)
    3ad0:	00a08533          	add	a0,ra,a0
    3ad4:	000015b7          	lui	a1,0x1
    3ad8:	40b405b3          	sub	a1,s0,a1
    3adc:	78f5b423          	sd	a5,1928(a1) # 1788 <.LBB81_5+0x34>
    3ae0:	00f50533          	add	a0,a0,a5
    3ae4:	00e50533          	add	a0,a0,a4
    3ae8:	3c05051b          	addiw	a0,a0,960
    3aec:	400005b7          	lui	a1,0x40000
    3af0:	000017b7          	lui	a5,0x1
    3af4:	40f407b3          	sub	a5,s0,a5
    3af8:	eea7bc23          	sd	a0,-264(a5) # ef8 <.LBB81_3+0xc84>
    3afc:	98843083          	ld	ra,-1656(s0)
    3b00:	00055463          	bgez	a0,3b08 <.LBB81_68>
    3b04:	c00005b7          	lui	a1,0xc0000

0000000000003b08 <.LBB81_68>:
    3b08:	00001537          	lui	a0,0x1
    3b0c:	40a40533          	sub	a0,s0,a0
    3b10:	eeb53823          	sd	a1,-272(a0) # ef0 <.LBB81_3+0xc7c>
    3b14:	00001537          	lui	a0,0x1
    3b18:	40a40533          	sub	a0,s0,a0
    3b1c:	68053583          	ld	a1,1664(a0) # 1680 <.LBB81_4+0x4a8>
    3b20:	00159593          	slli	a1,a1,0x1
    3b24:	f8843503          	ld	a0,-120(s0)
    3b28:	00ae0533          	add	a0,t3,a0
    3b2c:	00058e13          	mv	t3,a1
    3b30:	00b50533          	add	a0,a0,a1
    3b34:	00e50533          	add	a0,a0,a4
    3b38:	3c05051b          	addiw	a0,a0,960
    3b3c:	400005b7          	lui	a1,0x40000
    3b40:	af043783          	ld	a5,-1296(s0)
    3b44:	00001737          	lui	a4,0x1
    3b48:	40e40733          	sub	a4,s0,a4
    3b4c:	f0a73823          	sd	a0,-240(a4) # f10 <.LBB81_3+0xc9c>
    3b50:	00055463          	bgez	a0,3b58 <.LBB81_70>
    3b54:	c00005b7          	lui	a1,0xc0000

0000000000003b58 <.LBB81_70>:
    3b58:	00001537          	lui	a0,0x1
    3b5c:	40a40533          	sub	a0,s0,a0
    3b60:	f0b53023          	sd	a1,-256(a0) # f00 <.LBB81_3+0xc8c>
    3b64:	00289713          	slli	a4,a7,0x2
    3b68:	e9043503          	ld	a0,-368(s0)
    3b6c:	000015b7          	lui	a1,0x1
    3b70:	40b405b3          	sub	a1,s0,a1
    3b74:	7985b583          	ld	a1,1944(a1) # 1798 <.LBB81_5+0x44>
    3b78:	00a58533          	add	a0,a1,a0
    3b7c:	01170733          	add	a4,a4,a7
    3b80:	e8843583          	ld	a1,-376(s0)
    3b84:	00b50533          	add	a0,a0,a1
    3b88:	00e50533          	add	a0,a0,a4
    3b8c:	3c05051b          	addiw	a0,a0,960
    3b90:	400005b7          	lui	a1,0x40000
    3b94:	000018b7          	lui	a7,0x1
    3b98:	411408b3          	sub	a7,s0,a7
    3b9c:	f0a8bc23          	sd	a0,-232(a7) # f18 <.LBB81_3+0xca4>
    3ba0:	00055463          	bgez	a0,3ba8 <.LBB81_72>
    3ba4:	c00005b7          	lui	a1,0xc0000

0000000000003ba8 <.LBB81_72>:
    3ba8:	00001537          	lui	a0,0x1
    3bac:	40a40533          	sub	a0,s0,a0
    3bb0:	f0b53423          	sd	a1,-248(a0) # f08 <.LBB81_3+0xc94>
    3bb4:	e8043503          	ld	a0,-384(s0)
    3bb8:	000015b7          	lui	a1,0x1
    3bbc:	40b405b3          	sub	a1,s0,a1
    3bc0:	7a05b583          	ld	a1,1952(a1) # 17a0 <.LBB81_5+0x4c>
    3bc4:	00a58533          	add	a0,a1,a0
    3bc8:	e7843583          	ld	a1,-392(s0)
    3bcc:	00b50533          	add	a0,a0,a1
    3bd0:	00e50533          	add	a0,a0,a4
    3bd4:	3c05051b          	addiw	a0,a0,960
    3bd8:	400005b7          	lui	a1,0x40000
    3bdc:	000018b7          	lui	a7,0x1
    3be0:	411408b3          	sub	a7,s0,a7
    3be4:	f2a8b423          	sd	a0,-216(a7) # f28 <.LBB81_3+0xcb4>
    3be8:	87043883          	ld	a7,-1936(s0)
    3bec:	00055463          	bgez	a0,3bf4 <.LBB81_74>
    3bf0:	c00005b7          	lui	a1,0xc0000

0000000000003bf4 <.LBB81_74>:
    3bf4:	f8c43823          	sd	a2,-112(s0)
    3bf8:	00001537          	lui	a0,0x1
    3bfc:	40a40533          	sub	a0,s0,a0
    3c00:	f2b53023          	sd	a1,-224(a0) # f20 <.LBB81_3+0xcac>
    3c04:	e7043503          	ld	a0,-400(s0)
    3c08:	000015b7          	lui	a1,0x1
    3c0c:	40b405b3          	sub	a1,s0,a1
    3c10:	7a85b583          	ld	a1,1960(a1) # 17a8 <.LBB81_5+0x54>
    3c14:	00a58533          	add	a0,a1,a0
    3c18:	e6843583          	ld	a1,-408(s0)
    3c1c:	00b50533          	add	a0,a0,a1
    3c20:	00e50533          	add	a0,a0,a4
    3c24:	3c05051b          	addiw	a0,a0,960
    3c28:	400005b7          	lui	a1,0x40000
    3c2c:	00001637          	lui	a2,0x1
    3c30:	40c40633          	sub	a2,s0,a2
    3c34:	f2a63c23          	sd	a0,-200(a2) # f38 <.LBB81_3+0xcc4>
    3c38:	f9043603          	ld	a2,-112(s0)
    3c3c:	00055463          	bgez	a0,3c44 <.LBB81_76>
    3c40:	c00005b7          	lui	a1,0xc0000

0000000000003c44 <.LBB81_76>:
    3c44:	f8c43823          	sd	a2,-112(s0)
    3c48:	00001537          	lui	a0,0x1
    3c4c:	40a40533          	sub	a0,s0,a0
    3c50:	f2b53823          	sd	a1,-208(a0) # f30 <.LBB81_3+0xcbc>
    3c54:	e6043503          	ld	a0,-416(s0)
    3c58:	000015b7          	lui	a1,0x1
    3c5c:	40b405b3          	sub	a1,s0,a1
    3c60:	7b05b583          	ld	a1,1968(a1) # 17b0 <.LBB81_5+0x5c>
    3c64:	00a58533          	add	a0,a1,a0
    3c68:	e5843583          	ld	a1,-424(s0)
    3c6c:	00b50533          	add	a0,a0,a1
    3c70:	00e50533          	add	a0,a0,a4
    3c74:	3c05051b          	addiw	a0,a0,960
    3c78:	400005b7          	lui	a1,0x40000
    3c7c:	00001637          	lui	a2,0x1
    3c80:	40c40633          	sub	a2,s0,a2
    3c84:	f4a63423          	sd	a0,-184(a2) # f48 <.LBB81_3+0xcd4>
    3c88:	f9043603          	ld	a2,-112(s0)
    3c8c:	00055463          	bgez	a0,3c94 <.LBB81_78>
    3c90:	c00005b7          	lui	a1,0xc0000

0000000000003c94 <.LBB81_78>:
    3c94:	f8c43823          	sd	a2,-112(s0)
    3c98:	00001537          	lui	a0,0x1
    3c9c:	40a40533          	sub	a0,s0,a0
    3ca0:	f4b53023          	sd	a1,-192(a0) # f40 <.LBB81_3+0xccc>
    3ca4:	e5043503          	ld	a0,-432(s0)
    3ca8:	000015b7          	lui	a1,0x1
    3cac:	40b405b3          	sub	a1,s0,a1
    3cb0:	7b85b583          	ld	a1,1976(a1) # 17b8 <.LBB81_5+0x64>
    3cb4:	00a58533          	add	a0,a1,a0
    3cb8:	e4843583          	ld	a1,-440(s0)
    3cbc:	00b50533          	add	a0,a0,a1
    3cc0:	00e50533          	add	a0,a0,a4
    3cc4:	3c05051b          	addiw	a0,a0,960
    3cc8:	400005b7          	lui	a1,0x40000
    3ccc:	00001637          	lui	a2,0x1
    3cd0:	40c40633          	sub	a2,s0,a2
    3cd4:	f4a63c23          	sd	a0,-168(a2) # f58 <.LBB81_3+0xce4>
    3cd8:	f9043603          	ld	a2,-112(s0)
    3cdc:	00055463          	bgez	a0,3ce4 <.LBB81_80>
    3ce0:	c00005b7          	lui	a1,0xc0000

0000000000003ce4 <.LBB81_80>:
    3ce4:	f8c43823          	sd	a2,-112(s0)
    3ce8:	00001537          	lui	a0,0x1
    3cec:	40a40533          	sub	a0,s0,a0
    3cf0:	f4b53823          	sd	a1,-176(a0) # f50 <.LBB81_3+0xcdc>
    3cf4:	e4043503          	ld	a0,-448(s0)
    3cf8:	000015b7          	lui	a1,0x1
    3cfc:	40b405b3          	sub	a1,s0,a1
    3d00:	7c05b583          	ld	a1,1984(a1) # 17c0 <.LBB81_5+0x6c>
    3d04:	00a58533          	add	a0,a1,a0
    3d08:	000015b7          	lui	a1,0x1
    3d0c:	40b405b3          	sub	a1,s0,a1
    3d10:	6e85b583          	ld	a1,1768(a1) # 16e8 <.LBB81_4+0x510>
    3d14:	00b50533          	add	a0,a0,a1
    3d18:	00e50533          	add	a0,a0,a4
    3d1c:	3c05051b          	addiw	a0,a0,960
    3d20:	400005b7          	lui	a1,0x40000
    3d24:	00001637          	lui	a2,0x1
    3d28:	40c40633          	sub	a2,s0,a2
    3d2c:	f6a63823          	sd	a0,-144(a2) # f70 <.LBB81_3+0xcfc>
    3d30:	f9043603          	ld	a2,-112(s0)
    3d34:	00055463          	bgez	a0,3d3c <.LBB81_82>
    3d38:	c00005b7          	lui	a1,0xc0000

0000000000003d3c <.LBB81_82>:
    3d3c:	f8c43823          	sd	a2,-112(s0)
    3d40:	00001537          	lui	a0,0x1
    3d44:	40a40533          	sub	a0,s0,a0
    3d48:	f6b53023          	sd	a1,-160(a0) # f60 <.LBB81_3+0xcec>
    3d4c:	00001537          	lui	a0,0x1
    3d50:	40a40533          	sub	a0,s0,a0
    3d54:	6e053503          	ld	a0,1760(a0) # 16e0 <.LBB81_4+0x508>
    3d58:	000015b7          	lui	a1,0x1
    3d5c:	40b405b3          	sub	a1,s0,a1
    3d60:	7c85b583          	ld	a1,1992(a1) # 17c8 <.LBB81_5+0x74>
    3d64:	00a58533          	add	a0,a1,a0
    3d68:	000015b7          	lui	a1,0x1
    3d6c:	40b405b3          	sub	a1,s0,a1
    3d70:	6d85b583          	ld	a1,1752(a1) # 16d8 <.LBB81_4+0x500>
    3d74:	00b50533          	add	a0,a0,a1
    3d78:	00e50533          	add	a0,a0,a4
    3d7c:	3c05051b          	addiw	a0,a0,960
    3d80:	400005b7          	lui	a1,0x40000
    3d84:	00001637          	lui	a2,0x1
    3d88:	40c40633          	sub	a2,s0,a2
    3d8c:	faa63423          	sd	a0,-88(a2) # fa8 <.LBB81_3+0xd34>
    3d90:	f9043603          	ld	a2,-112(s0)
    3d94:	00055463          	bgez	a0,3d9c <.LBB81_84>
    3d98:	c00005b7          	lui	a1,0xc0000

0000000000003d9c <.LBB81_84>:
    3d9c:	f8c43823          	sd	a2,-112(s0)
    3da0:	00001537          	lui	a0,0x1
    3da4:	40a40533          	sub	a0,s0,a0
    3da8:	f8b53423          	sd	a1,-120(a0) # f88 <.LBB81_3+0xd14>
    3dac:	00001537          	lui	a0,0x1
    3db0:	40a40533          	sub	a0,s0,a0
    3db4:	6d053503          	ld	a0,1744(a0) # 16d0 <.LBB81_4+0x4f8>
    3db8:	000015b7          	lui	a1,0x1
    3dbc:	40b405b3          	sub	a1,s0,a1
    3dc0:	7d05b583          	ld	a1,2000(a1) # 17d0 <.LBB81_5+0x7c>
    3dc4:	00a58533          	add	a0,a1,a0
    3dc8:	000015b7          	lui	a1,0x1
    3dcc:	40b405b3          	sub	a1,s0,a1
    3dd0:	6c85b583          	ld	a1,1736(a1) # 16c8 <.LBB81_4+0x4f0>
    3dd4:	00b50533          	add	a0,a0,a1
    3dd8:	00e50533          	add	a0,a0,a4
    3ddc:	3c05051b          	addiw	a0,a0,960
    3de0:	400005b7          	lui	a1,0x40000
    3de4:	00001637          	lui	a2,0x1
    3de8:	40c40633          	sub	a2,s0,a2
    3dec:	fea63823          	sd	a0,-16(a2) # ff0 <.LBB81_3+0xd7c>
    3df0:	f9043603          	ld	a2,-112(s0)
    3df4:	00055463          	bgez	a0,3dfc <.LBB81_86>
    3df8:	c00005b7          	lui	a1,0xc0000

0000000000003dfc <.LBB81_86>:
    3dfc:	f8c43823          	sd	a2,-112(s0)
    3e00:	00001537          	lui	a0,0x1
    3e04:	40a40533          	sub	a0,s0,a0
    3e08:	fcb53423          	sd	a1,-56(a0) # fc8 <.LBB81_3+0xd54>
    3e0c:	00001537          	lui	a0,0x1
    3e10:	40a40533          	sub	a0,s0,a0
    3e14:	6c053503          	ld	a0,1728(a0) # 16c0 <.LBB81_4+0x4e8>
    3e18:	000015b7          	lui	a1,0x1
    3e1c:	40b405b3          	sub	a1,s0,a1
    3e20:	7d85b583          	ld	a1,2008(a1) # 17d8 <.LBB81_5+0x84>
    3e24:	00a58533          	add	a0,a1,a0
    3e28:	000015b7          	lui	a1,0x1
    3e2c:	40b405b3          	sub	a1,s0,a1
    3e30:	6b85b583          	ld	a1,1720(a1) # 16b8 <.LBB81_4+0x4e0>
    3e34:	00b50533          	add	a0,a0,a1
    3e38:	00e50533          	add	a0,a0,a4
    3e3c:	3c05051b          	addiw	a0,a0,960
    3e40:	400005b7          	lui	a1,0x40000
    3e44:	00001637          	lui	a2,0x1
    3e48:	40c40633          	sub	a2,s0,a2
    3e4c:	02a63023          	sd	a0,32(a2) # 1020 <.LBB81_3+0xdac>
    3e50:	f9043603          	ld	a2,-112(s0)
    3e54:	00055463          	bgez	a0,3e5c <.LBB81_88>
    3e58:	c00005b7          	lui	a1,0xc0000

0000000000003e5c <.LBB81_88>:
    3e5c:	f8c43823          	sd	a2,-112(s0)
    3e60:	00001537          	lui	a0,0x1
    3e64:	40a40533          	sub	a0,s0,a0
    3e68:	00b53823          	sd	a1,16(a0) # 1010 <.LBB81_3+0xd9c>
    3e6c:	00001537          	lui	a0,0x1
    3e70:	40a40533          	sub	a0,s0,a0
    3e74:	6b053503          	ld	a0,1712(a0) # 16b0 <.LBB81_4+0x4d8>
    3e78:	000015b7          	lui	a1,0x1
    3e7c:	40b405b3          	sub	a1,s0,a1
    3e80:	7e05b583          	ld	a1,2016(a1) # 17e0 <.LBB81_5+0x8c>
    3e84:	00a58533          	add	a0,a1,a0
    3e88:	000015b7          	lui	a1,0x1
    3e8c:	40b405b3          	sub	a1,s0,a1
    3e90:	6f05b583          	ld	a1,1776(a1) # 16f0 <.LBB81_4+0x518>
    3e94:	00b50533          	add	a0,a0,a1
    3e98:	00e50533          	add	a0,a0,a4
    3e9c:	3c05051b          	addiw	a0,a0,960
    3ea0:	400005b7          	lui	a1,0x40000
    3ea4:	00001637          	lui	a2,0x1
    3ea8:	40c40633          	sub	a2,s0,a2
    3eac:	02a63c23          	sd	a0,56(a2) # 1038 <.LBB81_3+0xdc4>
    3eb0:	f9043603          	ld	a2,-112(s0)
    3eb4:	00055463          	bgez	a0,3ebc <.LBB81_90>
    3eb8:	c00005b7          	lui	a1,0xc0000

0000000000003ebc <.LBB81_90>:
    3ebc:	f8c43823          	sd	a2,-112(s0)
    3ec0:	00001537          	lui	a0,0x1
    3ec4:	40a40533          	sub	a0,s0,a0
    3ec8:	02b53823          	sd	a1,48(a0) # 1030 <.LBB81_3+0xdbc>
    3ecc:	e9843503          	ld	a0,-360(s0)
    3ed0:	000015b7          	lui	a1,0x1
    3ed4:	40b405b3          	sub	a1,s0,a1
    3ed8:	7e85b583          	ld	a1,2024(a1) # 17e8 <.LBB81_5+0x94>
    3edc:	00a58533          	add	a0,a1,a0
    3ee0:	000015b7          	lui	a1,0x1
    3ee4:	40b405b3          	sub	a1,s0,a1
    3ee8:	6f85b583          	ld	a1,1784(a1) # 16f8 <.LBB81_4+0x520>
    3eec:	00b50533          	add	a0,a0,a1
    3ef0:	00e50533          	add	a0,a0,a4
    3ef4:	3c05051b          	addiw	a0,a0,960
    3ef8:	400005b7          	lui	a1,0x40000
    3efc:	00001637          	lui	a2,0x1
    3f00:	40c40633          	sub	a2,s0,a2
    3f04:	04a63423          	sd	a0,72(a2) # 1048 <.LBB81_3+0xdd4>
    3f08:	f9043603          	ld	a2,-112(s0)
    3f0c:	00055463          	bgez	a0,3f14 <.LBB81_92>
    3f10:	c00005b7          	lui	a1,0xc0000

0000000000003f14 <.LBB81_92>:
    3f14:	f8c43823          	sd	a2,-112(s0)
    3f18:	00001537          	lui	a0,0x1
    3f1c:	40a40533          	sub	a0,s0,a0
    3f20:	04b53023          	sd	a1,64(a0) # 1040 <.LBB81_3+0xdcc>
    3f24:	ea043503          	ld	a0,-352(s0)
    3f28:	000015b7          	lui	a1,0x1
    3f2c:	40b405b3          	sub	a1,s0,a1
    3f30:	7f05b583          	ld	a1,2032(a1) # 17f0 <.LBB81_5+0x9c>
    3f34:	00a58533          	add	a0,a1,a0
    3f38:	000015b7          	lui	a1,0x1
    3f3c:	40b405b3          	sub	a1,s0,a1
    3f40:	7005b583          	ld	a1,1792(a1) # 1700 <.LBB81_4+0x528>
    3f44:	00b50533          	add	a0,a0,a1
    3f48:	00e50533          	add	a0,a0,a4
    3f4c:	3c05051b          	addiw	a0,a0,960
    3f50:	400005b7          	lui	a1,0x40000
    3f54:	00001637          	lui	a2,0x1
    3f58:	40c40633          	sub	a2,s0,a2
    3f5c:	04a63c23          	sd	a0,88(a2) # 1058 <.LBB81_3+0xde4>
    3f60:	f9043603          	ld	a2,-112(s0)
    3f64:	00055463          	bgez	a0,3f6c <.LBB81_94>
    3f68:	c00005b7          	lui	a1,0xc0000

0000000000003f6c <.LBB81_94>:
    3f6c:	f8c43823          	sd	a2,-112(s0)
    3f70:	00001537          	lui	a0,0x1
    3f74:	40a40533          	sub	a0,s0,a0
    3f78:	04b53823          	sd	a1,80(a0) # 1050 <.LBB81_3+0xddc>
    3f7c:	ea843503          	ld	a0,-344(s0)
    3f80:	000015b7          	lui	a1,0x1
    3f84:	40b405b3          	sub	a1,s0,a1
    3f88:	7f85b583          	ld	a1,2040(a1) # 17f8 <.LBB81_5+0xa4>
    3f8c:	00a58533          	add	a0,a1,a0
    3f90:	000015b7          	lui	a1,0x1
    3f94:	40b405b3          	sub	a1,s0,a1
    3f98:	7085b583          	ld	a1,1800(a1) # 1708 <.LBB81_4+0x530>
    3f9c:	00b50533          	add	a0,a0,a1
    3fa0:	00e50533          	add	a0,a0,a4
    3fa4:	3c05051b          	addiw	a0,a0,960
    3fa8:	400005b7          	lui	a1,0x40000
    3fac:	00001637          	lui	a2,0x1
    3fb0:	40c40633          	sub	a2,s0,a2
    3fb4:	06a63423          	sd	a0,104(a2) # 1068 <.LBB81_3+0xdf4>
    3fb8:	f9043603          	ld	a2,-112(s0)
    3fbc:	00055463          	bgez	a0,3fc4 <.LBB81_96>
    3fc0:	c00005b7          	lui	a1,0xc0000

0000000000003fc4 <.LBB81_96>:
    3fc4:	f8c43823          	sd	a2,-112(s0)
    3fc8:	00001537          	lui	a0,0x1
    3fcc:	40a40533          	sub	a0,s0,a0
    3fd0:	06b53023          	sd	a1,96(a0) # 1060 <.LBB81_3+0xdec>
    3fd4:	eb043503          	ld	a0,-336(s0)
    3fd8:	80043583          	ld	a1,-2048(s0)
    3fdc:	00a58533          	add	a0,a1,a0
    3fe0:	01a50533          	add	a0,a0,s10
    3fe4:	00e50533          	add	a0,a0,a4
    3fe8:	3c05051b          	addiw	a0,a0,960
    3fec:	400005b7          	lui	a1,0x40000
    3ff0:	00001637          	lui	a2,0x1
    3ff4:	40c40633          	sub	a2,s0,a2
    3ff8:	06a63c23          	sd	a0,120(a2) # 1078 <.LBB81_3+0xe04>
    3ffc:	f9043603          	ld	a2,-112(s0)
    4000:	00055463          	bgez	a0,4008 <.LBB81_98>
    4004:	c00005b7          	lui	a1,0xc0000

0000000000004008 <.LBB81_98>:
    4008:	f8c43823          	sd	a2,-112(s0)
    400c:	00001537          	lui	a0,0x1
    4010:	40a40533          	sub	a0,s0,a0
    4014:	06b53823          	sd	a1,112(a0) # 1070 <.LBB81_3+0xdfc>
    4018:	eb843503          	ld	a0,-328(s0)
    401c:	80843583          	ld	a1,-2040(s0)
    4020:	00a58533          	add	a0,a1,a0
    4024:	000015b7          	lui	a1,0x1
    4028:	40b405b3          	sub	a1,s0,a1
    402c:	7185b583          	ld	a1,1816(a1) # 1718 <.LBB81_4+0x540>
    4030:	00b50533          	add	a0,a0,a1
    4034:	00e50533          	add	a0,a0,a4
    4038:	3c05051b          	addiw	a0,a0,960
    403c:	400005b7          	lui	a1,0x40000
    4040:	00001637          	lui	a2,0x1
    4044:	40c40633          	sub	a2,s0,a2
    4048:	08a63423          	sd	a0,136(a2) # 1088 <.LBB81_3+0xe14>
    404c:	f9043603          	ld	a2,-112(s0)
    4050:	00055463          	bgez	a0,4058 <.LBB81_100>
    4054:	c00005b7          	lui	a1,0xc0000

0000000000004058 <.LBB81_100>:
    4058:	f8c43823          	sd	a2,-112(s0)
    405c:	00001537          	lui	a0,0x1
    4060:	40a40533          	sub	a0,s0,a0
    4064:	08b53023          	sd	a1,128(a0) # 1080 <.LBB81_3+0xe0c>
    4068:	ec043503          	ld	a0,-320(s0)
    406c:	81043583          	ld	a1,-2032(s0)
    4070:	00a58533          	add	a0,a1,a0
    4074:	000015b7          	lui	a1,0x1
    4078:	40b405b3          	sub	a1,s0,a1
    407c:	7205b583          	ld	a1,1824(a1) # 1720 <.LBB81_4+0x548>
    4080:	00b50533          	add	a0,a0,a1
    4084:	00e50533          	add	a0,a0,a4
    4088:	3c05051b          	addiw	a0,a0,960
    408c:	400005b7          	lui	a1,0x40000
    4090:	00001637          	lui	a2,0x1
    4094:	40c40633          	sub	a2,s0,a2
    4098:	08a63c23          	sd	a0,152(a2) # 1098 <.LBB81_3+0xe24>
    409c:	f9043603          	ld	a2,-112(s0)
    40a0:	00055463          	bgez	a0,40a8 <.LBB81_102>
    40a4:	c00005b7          	lui	a1,0xc0000

00000000000040a8 <.LBB81_102>:
    40a8:	f8c43823          	sd	a2,-112(s0)
    40ac:	00001537          	lui	a0,0x1
    40b0:	40a40533          	sub	a0,s0,a0
    40b4:	08b53823          	sd	a1,144(a0) # 1090 <.LBB81_3+0xe1c>
    40b8:	f1043503          	ld	a0,-240(s0)
    40bc:	81843583          	ld	a1,-2024(s0)
    40c0:	00a58533          	add	a0,a1,a0
    40c4:	000015b7          	lui	a1,0x1
    40c8:	40b405b3          	sub	a1,s0,a1
    40cc:	7285b583          	ld	a1,1832(a1) # 1728 <.LBB81_4+0x550>
    40d0:	00b50533          	add	a0,a0,a1
    40d4:	00e50533          	add	a0,a0,a4
    40d8:	3c05051b          	addiw	a0,a0,960
    40dc:	400005b7          	lui	a1,0x40000
    40e0:	00001637          	lui	a2,0x1
    40e4:	40c40633          	sub	a2,s0,a2
    40e8:	0aa63423          	sd	a0,168(a2) # 10a8 <.LBB81_3+0xe34>
    40ec:	f9043603          	ld	a2,-112(s0)
    40f0:	00055463          	bgez	a0,40f8 <.LBB81_104>
    40f4:	c00005b7          	lui	a1,0xc0000

00000000000040f8 <.LBB81_104>:
    40f8:	f8c43823          	sd	a2,-112(s0)
    40fc:	00001537          	lui	a0,0x1
    4100:	40a40533          	sub	a0,s0,a0
    4104:	0ab53023          	sd	a1,160(a0) # 10a0 <.LBB81_3+0xe2c>
    4108:	f1843503          	ld	a0,-232(s0)
    410c:	82043583          	ld	a1,-2016(s0)
    4110:	00a58533          	add	a0,a1,a0
    4114:	000015b7          	lui	a1,0x1
    4118:	40b405b3          	sub	a1,s0,a1
    411c:	7305b583          	ld	a1,1840(a1) # 1730 <.LBB81_4+0x558>
    4120:	00b50533          	add	a0,a0,a1
    4124:	00e50533          	add	a0,a0,a4
    4128:	3c05051b          	addiw	a0,a0,960
    412c:	400005b7          	lui	a1,0x40000
    4130:	00001637          	lui	a2,0x1
    4134:	40c40633          	sub	a2,s0,a2
    4138:	0aa63c23          	sd	a0,184(a2) # 10b8 <.LBB81_3+0xe44>
    413c:	f9043603          	ld	a2,-112(s0)
    4140:	00055463          	bgez	a0,4148 <.LBB81_106>
    4144:	c00005b7          	lui	a1,0xc0000

0000000000004148 <.LBB81_106>:
    4148:	00001537          	lui	a0,0x1
    414c:	40a40533          	sub	a0,s0,a0
    4150:	0ab53823          	sd	a1,176(a0) # 10b0 <.LBB81_3+0xe3c>
    4154:	f2043503          	ld	a0,-224(s0)
    4158:	82843583          	ld	a1,-2008(s0)
    415c:	00a58533          	add	a0,a1,a0
    4160:	000015b7          	lui	a1,0x1
    4164:	40b405b3          	sub	a1,s0,a1
    4168:	7385b583          	ld	a1,1848(a1) # 1738 <.LBB81_4+0x560>
    416c:	00b50533          	add	a0,a0,a1
    4170:	00e50533          	add	a0,a0,a4
    4174:	3c05051b          	addiw	a0,a0,960
    4178:	400005b7          	lui	a1,0x40000
    417c:	82a43423          	sd	a0,-2008(s0)
    4180:	00055463          	bgez	a0,4188 <.LBB81_108>
    4184:	c00005b7          	lui	a1,0xc0000

0000000000004188 <.LBB81_108>:
    4188:	f8c43823          	sd	a2,-112(s0)
    418c:	00001537          	lui	a0,0x1
    4190:	40a40533          	sub	a0,s0,a0
    4194:	0cb53023          	sd	a1,192(a0) # 10c0 <.LBB81_3+0xe4c>
    4198:	f2843503          	ld	a0,-216(s0)
    419c:	83043583          	ld	a1,-2000(s0)
    41a0:	00a58533          	add	a0,a1,a0
    41a4:	000015b7          	lui	a1,0x1
    41a8:	40b405b3          	sub	a1,s0,a1
    41ac:	7405b583          	ld	a1,1856(a1) # 1740 <.LBB81_4+0x568>
    41b0:	00b50533          	add	a0,a0,a1
    41b4:	00e50533          	add	a0,a0,a4
    41b8:	3c05051b          	addiw	a0,a0,960
    41bc:	400005b7          	lui	a1,0x40000
    41c0:	00001637          	lui	a2,0x1
    41c4:	40c40633          	sub	a2,s0,a2
    41c8:	7ea63023          	sd	a0,2016(a2) # 17e0 <.LBB81_5+0x8c>
    41cc:	f9043603          	ld	a2,-112(s0)
    41d0:	00055463          	bgez	a0,41d8 <.LBB81_110>
    41d4:	c00005b7          	lui	a1,0xc0000

00000000000041d8 <.LBB81_110>:
    41d8:	f8c43823          	sd	a2,-112(s0)
    41dc:	00001537          	lui	a0,0x1
    41e0:	40a40533          	sub	a0,s0,a0
    41e4:	0cb53423          	sd	a1,200(a0) # 10c8 <.LBB81_3+0xe54>
    41e8:	f3043503          	ld	a0,-208(s0)
    41ec:	83843583          	ld	a1,-1992(s0)
    41f0:	00a58533          	add	a0,a1,a0
    41f4:	000015b7          	lui	a1,0x1
    41f8:	40b405b3          	sub	a1,s0,a1
    41fc:	7485b583          	ld	a1,1864(a1) # 1748 <.LBB81_4+0x570>
    4200:	00b50533          	add	a0,a0,a1
    4204:	00e50533          	add	a0,a0,a4
    4208:	3c05051b          	addiw	a0,a0,960
    420c:	400005b7          	lui	a1,0x40000
    4210:	00001637          	lui	a2,0x1
    4214:	40c40633          	sub	a2,s0,a2
    4218:	7aa63023          	sd	a0,1952(a2) # 17a0 <.LBB81_5+0x4c>
    421c:	f9043603          	ld	a2,-112(s0)
    4220:	00055463          	bgez	a0,4228 <.LBB81_112>
    4224:	c00005b7          	lui	a1,0xc0000

0000000000004228 <.LBB81_112>:
    4228:	f8c43823          	sd	a2,-112(s0)
    422c:	00001537          	lui	a0,0x1
    4230:	40a40533          	sub	a0,s0,a0
    4234:	0cb53823          	sd	a1,208(a0) # 10d0 <.LBB81_3+0xe5c>
    4238:	f3843503          	ld	a0,-200(s0)
    423c:	84043583          	ld	a1,-1984(s0)
    4240:	00a58533          	add	a0,a1,a0
    4244:	000015b7          	lui	a1,0x1
    4248:	40b405b3          	sub	a1,s0,a1
    424c:	7505b583          	ld	a1,1872(a1) # 1750 <.LBB81_4+0x578>
    4250:	00b50533          	add	a0,a0,a1
    4254:	00e50533          	add	a0,a0,a4
    4258:	3c05051b          	addiw	a0,a0,960
    425c:	400005b7          	lui	a1,0x40000
    4260:	00001637          	lui	a2,0x1
    4264:	40c40633          	sub	a2,s0,a2
    4268:	0ea63023          	sd	a0,224(a2) # 10e0 <.LBB81_3+0xe6c>
    426c:	f9043603          	ld	a2,-112(s0)
    4270:	00055463          	bgez	a0,4278 <.LBB81_114>
    4274:	c00005b7          	lui	a1,0xc0000

0000000000004278 <.LBB81_114>:
    4278:	f8c43823          	sd	a2,-112(s0)
    427c:	00001537          	lui	a0,0x1
    4280:	40a40533          	sub	a0,s0,a0
    4284:	0cb53c23          	sd	a1,216(a0) # 10d8 <.LBB81_3+0xe64>
    4288:	f4043503          	ld	a0,-192(s0)
    428c:	84843583          	ld	a1,-1976(s0)
    4290:	00a58533          	add	a0,a1,a0
    4294:	000015b7          	lui	a1,0x1
    4298:	40b405b3          	sub	a1,s0,a1
    429c:	7585b583          	ld	a1,1880(a1) # 1758 <.LBB81_5+0x4>
    42a0:	00b50533          	add	a0,a0,a1
    42a4:	00e50533          	add	a0,a0,a4
    42a8:	3c05051b          	addiw	a0,a0,960
    42ac:	400005b7          	lui	a1,0x40000
    42b0:	00001637          	lui	a2,0x1
    42b4:	40c40633          	sub	a2,s0,a2
    42b8:	0ea63823          	sd	a0,240(a2) # 10f0 <.LBB81_3+0xe7c>
    42bc:	f9043603          	ld	a2,-112(s0)
    42c0:	00055463          	bgez	a0,42c8 <.LBB81_116>
    42c4:	c00005b7          	lui	a1,0xc0000

00000000000042c8 <.LBB81_116>:
    42c8:	f8c43823          	sd	a2,-112(s0)
    42cc:	00001537          	lui	a0,0x1
    42d0:	40a40533          	sub	a0,s0,a0
    42d4:	0eb53423          	sd	a1,232(a0) # 10e8 <.LBB81_3+0xe74>
    42d8:	f4843503          	ld	a0,-184(s0)
    42dc:	85043583          	ld	a1,-1968(s0)
    42e0:	00a58533          	add	a0,a1,a0
    42e4:	000015b7          	lui	a1,0x1
    42e8:	40b405b3          	sub	a1,s0,a1
    42ec:	7105b583          	ld	a1,1808(a1) # 1710 <.LBB81_4+0x538>
    42f0:	00b50533          	add	a0,a0,a1
    42f4:	00e50533          	add	a0,a0,a4
    42f8:	3c05051b          	addiw	a0,a0,960
    42fc:	400005b7          	lui	a1,0x40000
    4300:	00001637          	lui	a2,0x1
    4304:	40c40633          	sub	a2,s0,a2
    4308:	10a63023          	sd	a0,256(a2) # 1100 <.LBB81_3+0xe8c>
    430c:	f9043603          	ld	a2,-112(s0)
    4310:	00055463          	bgez	a0,4318 <.LBB81_118>
    4314:	c00005b7          	lui	a1,0xc0000

0000000000004318 <.LBB81_118>:
    4318:	f8c43823          	sd	a2,-112(s0)
    431c:	00001537          	lui	a0,0x1
    4320:	40a40533          	sub	a0,s0,a0
    4324:	0eb53c23          	sd	a1,248(a0) # 10f8 <.LBB81_3+0xe84>
    4328:	f5043503          	ld	a0,-176(s0)
    432c:	85843583          	ld	a1,-1960(s0)
    4330:	00a58533          	add	a0,a1,a0
    4334:	000015b7          	lui	a1,0x1
    4338:	40b405b3          	sub	a1,s0,a1
    433c:	7605b583          	ld	a1,1888(a1) # 1760 <.LBB81_5+0xc>
    4340:	00b50533          	add	a0,a0,a1
    4344:	00e50533          	add	a0,a0,a4
    4348:	3c05051b          	addiw	a0,a0,960
    434c:	400005b7          	lui	a1,0x40000
    4350:	00001637          	lui	a2,0x1
    4354:	40c40633          	sub	a2,s0,a2
    4358:	10a63823          	sd	a0,272(a2) # 1110 <.LBB81_3+0xe9c>
    435c:	f9043603          	ld	a2,-112(s0)
    4360:	00055463          	bgez	a0,4368 <.LBB81_120>
    4364:	c00005b7          	lui	a1,0xc0000

0000000000004368 <.LBB81_120>:
    4368:	f8c43823          	sd	a2,-112(s0)
    436c:	00001537          	lui	a0,0x1
    4370:	40a40533          	sub	a0,s0,a0
    4374:	10b53423          	sd	a1,264(a0) # 1108 <.LBB81_3+0xe94>
    4378:	f5843503          	ld	a0,-168(s0)
    437c:	86043583          	ld	a1,-1952(s0)
    4380:	00a58533          	add	a0,a1,a0
    4384:	000015b7          	lui	a1,0x1
    4388:	40b405b3          	sub	a1,s0,a1
    438c:	7685b583          	ld	a1,1896(a1) # 1768 <.LBB81_5+0x14>
    4390:	00b50533          	add	a0,a0,a1
    4394:	00e50533          	add	a0,a0,a4
    4398:	3c05051b          	addiw	a0,a0,960
    439c:	400005b7          	lui	a1,0x40000
    43a0:	00001637          	lui	a2,0x1
    43a4:	40c40633          	sub	a2,s0,a2
    43a8:	12a63023          	sd	a0,288(a2) # 1120 <.LBB81_3+0xeac>
    43ac:	f9043603          	ld	a2,-112(s0)
    43b0:	00055463          	bgez	a0,43b8 <.LBB81_122>
    43b4:	c00005b7          	lui	a1,0xc0000

00000000000043b8 <.LBB81_122>:
    43b8:	f8c43823          	sd	a2,-112(s0)
    43bc:	00001537          	lui	a0,0x1
    43c0:	40a40533          	sub	a0,s0,a0
    43c4:	10b53c23          	sd	a1,280(a0) # 1118 <.LBB81_3+0xea4>
    43c8:	f6043503          	ld	a0,-160(s0)
    43cc:	86843583          	ld	a1,-1944(s0)
    43d0:	00a58533          	add	a0,a1,a0
    43d4:	000015b7          	lui	a1,0x1
    43d8:	40b405b3          	sub	a1,s0,a1
    43dc:	7705b583          	ld	a1,1904(a1) # 1770 <.LBB81_5+0x1c>
    43e0:	00b50533          	add	a0,a0,a1
    43e4:	00e50533          	add	a0,a0,a4
    43e8:	3c05051b          	addiw	a0,a0,960
    43ec:	400005b7          	lui	a1,0x40000
    43f0:	00001637          	lui	a2,0x1
    43f4:	40c40633          	sub	a2,s0,a2
    43f8:	12a63823          	sd	a0,304(a2) # 1130 <.LBB81_3+0xebc>
    43fc:	f9043603          	ld	a2,-112(s0)
    4400:	00055463          	bgez	a0,4408 <.LBB81_124>
    4404:	c00005b7          	lui	a1,0xc0000

0000000000004408 <.LBB81_124>:
    4408:	00001537          	lui	a0,0x1
    440c:	40a40533          	sub	a0,s0,a0
    4410:	12b53423          	sd	a1,296(a0) # 1128 <.LBB81_3+0xeb4>
    4414:	f6843503          	ld	a0,-152(s0)
    4418:	00a88533          	add	a0,a7,a0
    441c:	00750533          	add	a0,a0,t2
    4420:	00e50533          	add	a0,a0,a4
    4424:	3c05051b          	addiw	a0,a0,960
    4428:	400005b7          	lui	a1,0x40000
    442c:	000018b7          	lui	a7,0x1
    4430:	411408b3          	sub	a7,s0,a7
    4434:	14a8b023          	sd	a0,320(a7) # 1140 <.LBB81_3+0xecc>
    4438:	00055463          	bgez	a0,4440 <.LBB81_126>
    443c:	c00005b7          	lui	a1,0xc0000

0000000000004440 <.LBB81_126>:
    4440:	00001537          	lui	a0,0x1
    4444:	40a40533          	sub	a0,s0,a0
    4448:	12b53c23          	sd	a1,312(a0) # 1138 <.LBB81_3+0xec4>
    444c:	f7043503          	ld	a0,-144(s0)
    4450:	87843583          	ld	a1,-1928(s0)
    4454:	00a58533          	add	a0,a1,a0
    4458:	00650533          	add	a0,a0,t1
    445c:	00e50533          	add	a0,a0,a4
    4460:	3c05051b          	addiw	a0,a0,960
    4464:	400005b7          	lui	a1,0x40000
    4468:	000018b7          	lui	a7,0x1
    446c:	411408b3          	sub	a7,s0,a7
    4470:	14a8b823          	sd	a0,336(a7) # 1150 <.LBB81_3+0xedc>
    4474:	00055463          	bgez	a0,447c <.LBB81_128>
    4478:	c00005b7          	lui	a1,0xc0000

000000000000447c <.LBB81_128>:
    447c:	00001537          	lui	a0,0x1
    4480:	40a40533          	sub	a0,s0,a0
    4484:	14b53423          	sd	a1,328(a0) # 1148 <.LBB81_3+0xed4>
    4488:	f7843503          	ld	a0,-136(s0)
    448c:	88043583          	ld	a1,-1920(s0)
    4490:	00a58533          	add	a0,a1,a0
    4494:	00550533          	add	a0,a0,t0
    4498:	00e50533          	add	a0,a0,a4
    449c:	3c05051b          	addiw	a0,a0,960
    44a0:	400005b7          	lui	a1,0x40000
    44a4:	000018b7          	lui	a7,0x1
    44a8:	411408b3          	sub	a7,s0,a7
    44ac:	16a8b023          	sd	a0,352(a7) # 1160 <.LBB81_3+0xeec>
    44b0:	00055463          	bgez	a0,44b8 <.LBB81_130>
    44b4:	c00005b7          	lui	a1,0xc0000

00000000000044b8 <.LBB81_130>:
    44b8:	00001537          	lui	a0,0x1
    44bc:	40a40533          	sub	a0,s0,a0
    44c0:	14b53c23          	sd	a1,344(a0) # 1158 <.LBB81_3+0xee4>
    44c4:	f8043503          	ld	a0,-128(s0)
    44c8:	88843583          	ld	a1,-1912(s0)
    44cc:	00a58533          	add	a0,a1,a0
    44d0:	000015b7          	lui	a1,0x1
    44d4:	40b405b3          	sub	a1,s0,a1
    44d8:	7885b583          	ld	a1,1928(a1) # 1788 <.LBB81_5+0x34>
    44dc:	00b50533          	add	a0,a0,a1
    44e0:	00e50533          	add	a0,a0,a4
    44e4:	3c05051b          	addiw	a0,a0,960
    44e8:	400005b7          	lui	a1,0x40000
    44ec:	000018b7          	lui	a7,0x1
    44f0:	411408b3          	sub	a7,s0,a7
    44f4:	16a8b823          	sd	a0,368(a7) # 1170 <.LBB81_3+0xefc>
    44f8:	00055463          	bgez	a0,4500 <.LBB81_132>
    44fc:	c00005b7          	lui	a1,0xc0000

0000000000004500 <.LBB81_132>:
    4500:	00001537          	lui	a0,0x1
    4504:	40a40533          	sub	a0,s0,a0
    4508:	16b53423          	sd	a1,360(a0) # 1168 <.LBB81_3+0xef4>
    450c:	f8843503          	ld	a0,-120(s0)
    4510:	89043583          	ld	a1,-1904(s0)
    4514:	00a58533          	add	a0,a1,a0
    4518:	01c50533          	add	a0,a0,t3
    451c:	00e50533          	add	a0,a0,a4
    4520:	3c05051b          	addiw	a0,a0,960
    4524:	400005b7          	lui	a1,0x40000
    4528:	00001737          	lui	a4,0x1
    452c:	40e40733          	sub	a4,s0,a4
    4530:	18a73423          	sd	a0,392(a4) # 1188 <.LBB81_3+0xf14>
    4534:	00055463          	bgez	a0,453c <.LBB81_134>
    4538:	c00005b7          	lui	a1,0xc0000

000000000000453c <.LBB81_134>:
    453c:	00001537          	lui	a0,0x1
    4540:	40a40533          	sub	a0,s0,a0
    4544:	16b53c23          	sd	a1,376(a0) # 1178 <.LBB81_3+0xf04>
    4548:	00001537          	lui	a0,0x1
    454c:	40a40533          	sub	a0,s0,a0
    4550:	68853703          	ld	a4,1672(a0) # 1688 <.LBB81_4+0x4b0>
    4554:	00271513          	slli	a0,a4,0x2
    4558:	e9043583          	ld	a1,-368(s0)
    455c:	00b685b3          	add	a1,a3,a1
    4560:	00e506b3          	add	a3,a0,a4
    4564:	e8843503          	ld	a0,-376(s0)
    4568:	00a585b3          	add	a1,a1,a0
    456c:	00d585b3          	add	a1,a1,a3
    4570:	3c05851b          	addiw	a0,a1,960 # ffffffffc00003c0 <.Lfunc_end80+0xffffffffbffd79f4>
    4574:	400005b7          	lui	a1,0x40000
    4578:	e2843703          	ld	a4,-472(s0)
    457c:	000018b7          	lui	a7,0x1
    4580:	411408b3          	sub	a7,s0,a7
    4584:	18a8b823          	sd	a0,400(a7) # 1190 <.LBB81_3+0xf1c>
    4588:	00055463          	bgez	a0,4590 <.LBB81_136>
    458c:	c00005b7          	lui	a1,0xc0000

0000000000004590 <.LBB81_136>:
    4590:	00001537          	lui	a0,0x1
    4594:	40a40533          	sub	a0,s0,a0
    4598:	18b53023          	sd	a1,384(a0) # 1180 <.LBB81_3+0xf0c>
    459c:	e8043503          	ld	a0,-384(s0)
    45a0:	8a043583          	ld	a1,-1888(s0)
    45a4:	00a58533          	add	a0,a1,a0
    45a8:	e7843583          	ld	a1,-392(s0)
    45ac:	00b50533          	add	a0,a0,a1
    45b0:	00d50533          	add	a0,a0,a3
    45b4:	3c05051b          	addiw	a0,a0,960
    45b8:	400005b7          	lui	a1,0x40000
    45bc:	000018b7          	lui	a7,0x1
    45c0:	411408b3          	sub	a7,s0,a7
    45c4:	1aa8b023          	sd	a0,416(a7) # 11a0 <.LBB81_3+0xf2c>
    45c8:	00055463          	bgez	a0,45d0 <.LBB81_138>
    45cc:	c00005b7          	lui	a1,0xc0000

00000000000045d0 <.LBB81_138>:
    45d0:	00001537          	lui	a0,0x1
    45d4:	40a40533          	sub	a0,s0,a0
    45d8:	18b53c23          	sd	a1,408(a0) # 1198 <.LBB81_3+0xf24>
    45dc:	e7043503          	ld	a0,-400(s0)
    45e0:	8a843583          	ld	a1,-1880(s0)
    45e4:	00a58533          	add	a0,a1,a0
    45e8:	e6843583          	ld	a1,-408(s0)
    45ec:	00b50533          	add	a0,a0,a1
    45f0:	00d50533          	add	a0,a0,a3
    45f4:	3c05051b          	addiw	a0,a0,960
    45f8:	400005b7          	lui	a1,0x40000
    45fc:	000018b7          	lui	a7,0x1
    4600:	411408b3          	sub	a7,s0,a7
    4604:	1aa8b823          	sd	a0,432(a7) # 11b0 <.LBB81_3+0xf3c>
    4608:	00055463          	bgez	a0,4610 <.LBB81_140>
    460c:	c00005b7          	lui	a1,0xc0000

0000000000004610 <.LBB81_140>:
    4610:	00001537          	lui	a0,0x1
    4614:	40a40533          	sub	a0,s0,a0
    4618:	1ab53423          	sd	a1,424(a0) # 11a8 <.LBB81_3+0xf34>
    461c:	e6043503          	ld	a0,-416(s0)
    4620:	8b043583          	ld	a1,-1872(s0)
    4624:	00a58533          	add	a0,a1,a0
    4628:	e5843583          	ld	a1,-424(s0)
    462c:	00b50533          	add	a0,a0,a1
    4630:	00d50533          	add	a0,a0,a3
    4634:	3c05051b          	addiw	a0,a0,960
    4638:	400005b7          	lui	a1,0x40000
    463c:	000018b7          	lui	a7,0x1
    4640:	411408b3          	sub	a7,s0,a7
    4644:	1ca8b023          	sd	a0,448(a7) # 11c0 <.LBB81_3+0xf4c>
    4648:	00055463          	bgez	a0,4650 <.LBB81_142>
    464c:	c00005b7          	lui	a1,0xc0000

0000000000004650 <.LBB81_142>:
    4650:	00001537          	lui	a0,0x1
    4654:	40a40533          	sub	a0,s0,a0
    4658:	1ab53c23          	sd	a1,440(a0) # 11b8 <.LBB81_3+0xf44>
    465c:	e5043503          	ld	a0,-432(s0)
    4660:	8b843583          	ld	a1,-1864(s0)
    4664:	00a58533          	add	a0,a1,a0
    4668:	e4843583          	ld	a1,-440(s0)
    466c:	00b50533          	add	a0,a0,a1
    4670:	00d50533          	add	a0,a0,a3
    4674:	3c05051b          	addiw	a0,a0,960
    4678:	400005b7          	lui	a1,0x40000
    467c:	000018b7          	lui	a7,0x1
    4680:	411408b3          	sub	a7,s0,a7
    4684:	1ca8b823          	sd	a0,464(a7) # 11d0 <.LBB81_3+0xf5c>
    4688:	00055463          	bgez	a0,4690 <.LBB81_144>
    468c:	c00005b7          	lui	a1,0xc0000

0000000000004690 <.LBB81_144>:
    4690:	00001537          	lui	a0,0x1
    4694:	40a40533          	sub	a0,s0,a0
    4698:	1cb53423          	sd	a1,456(a0) # 11c8 <.LBB81_3+0xf54>
    469c:	e4043503          	ld	a0,-448(s0)
    46a0:	8c043583          	ld	a1,-1856(s0)
    46a4:	00a58533          	add	a0,a1,a0
    46a8:	000015b7          	lui	a1,0x1
    46ac:	40b405b3          	sub	a1,s0,a1
    46b0:	6e85b583          	ld	a1,1768(a1) # 16e8 <.LBB81_4+0x510>
    46b4:	00b50533          	add	a0,a0,a1
    46b8:	00d50533          	add	a0,a0,a3
    46bc:	3c05051b          	addiw	a0,a0,960
    46c0:	400005b7          	lui	a1,0x40000
    46c4:	000018b7          	lui	a7,0x1
    46c8:	411408b3          	sub	a7,s0,a7
    46cc:	1ea8b023          	sd	a0,480(a7) # 11e0 <.LBB81_4+0x8>
    46d0:	00055463          	bgez	a0,46d8 <.LBB81_146>
    46d4:	c00005b7          	lui	a1,0xc0000

00000000000046d8 <.LBB81_146>:
    46d8:	00001537          	lui	a0,0x1
    46dc:	40a40533          	sub	a0,s0,a0
    46e0:	1cb53c23          	sd	a1,472(a0) # 11d8 <.LBB81_4>
    46e4:	8c843503          	ld	a0,-1848(s0)
    46e8:	000015b7          	lui	a1,0x1
    46ec:	40b405b3          	sub	a1,s0,a1
    46f0:	6e05b583          	ld	a1,1760(a1) # 16e0 <.LBB81_4+0x508>
    46f4:	00b50533          	add	a0,a0,a1
    46f8:	000015b7          	lui	a1,0x1
    46fc:	40b405b3          	sub	a1,s0,a1
    4700:	6d85b583          	ld	a1,1752(a1) # 16d8 <.LBB81_4+0x500>
    4704:	00b50533          	add	a0,a0,a1
    4708:	00d50533          	add	a0,a0,a3
    470c:	3c05051b          	addiw	a0,a0,960
    4710:	400005b7          	lui	a1,0x40000
    4714:	000018b7          	lui	a7,0x1
    4718:	411408b3          	sub	a7,s0,a7
    471c:	1ea8b823          	sd	a0,496(a7) # 11f0 <.LBB81_4+0x18>
    4720:	00055463          	bgez	a0,4728 <.LBB81_148>
    4724:	c00005b7          	lui	a1,0xc0000

0000000000004728 <.LBB81_148>:
    4728:	00001537          	lui	a0,0x1
    472c:	40a40533          	sub	a0,s0,a0
    4730:	1eb53423          	sd	a1,488(a0) # 11e8 <.LBB81_4+0x10>
    4734:	8d043503          	ld	a0,-1840(s0)
    4738:	000015b7          	lui	a1,0x1
    473c:	40b405b3          	sub	a1,s0,a1
    4740:	6d05b583          	ld	a1,1744(a1) # 16d0 <.LBB81_4+0x4f8>
    4744:	00b50533          	add	a0,a0,a1
    4748:	000015b7          	lui	a1,0x1
    474c:	40b405b3          	sub	a1,s0,a1
    4750:	6c85b583          	ld	a1,1736(a1) # 16c8 <.LBB81_4+0x4f0>
    4754:	00b50533          	add	a0,a0,a1
    4758:	00d50533          	add	a0,a0,a3
    475c:	3c05051b          	addiw	a0,a0,960
    4760:	400005b7          	lui	a1,0x40000
    4764:	000018b7          	lui	a7,0x1
    4768:	411408b3          	sub	a7,s0,a7
    476c:	20a8b023          	sd	a0,512(a7) # 1200 <.LBB81_4+0x28>
    4770:	00055463          	bgez	a0,4778 <.LBB81_150>
    4774:	c00005b7          	lui	a1,0xc0000

0000000000004778 <.LBB81_150>:
    4778:	00001537          	lui	a0,0x1
    477c:	40a40533          	sub	a0,s0,a0
    4780:	1eb53c23          	sd	a1,504(a0) # 11f8 <.LBB81_4+0x20>
    4784:	8d843503          	ld	a0,-1832(s0)
    4788:	000015b7          	lui	a1,0x1
    478c:	40b405b3          	sub	a1,s0,a1
    4790:	6c05b583          	ld	a1,1728(a1) # 16c0 <.LBB81_4+0x4e8>
    4794:	00b50533          	add	a0,a0,a1
    4798:	000015b7          	lui	a1,0x1
    479c:	40b405b3          	sub	a1,s0,a1
    47a0:	6b85b583          	ld	a1,1720(a1) # 16b8 <.LBB81_4+0x4e0>
    47a4:	00b50533          	add	a0,a0,a1
    47a8:	00d50533          	add	a0,a0,a3
    47ac:	3c05051b          	addiw	a0,a0,960
    47b0:	400005b7          	lui	a1,0x40000
    47b4:	000018b7          	lui	a7,0x1
    47b8:	411408b3          	sub	a7,s0,a7
    47bc:	20a8b823          	sd	a0,528(a7) # 1210 <.LBB81_4+0x38>
    47c0:	00055463          	bgez	a0,47c8 <.LBB81_152>
    47c4:	c00005b7          	lui	a1,0xc0000

00000000000047c8 <.LBB81_152>:
    47c8:	00001537          	lui	a0,0x1
    47cc:	40a40533          	sub	a0,s0,a0
    47d0:	20b53423          	sd	a1,520(a0) # 1208 <.LBB81_4+0x30>
    47d4:	8e043503          	ld	a0,-1824(s0)
    47d8:	000015b7          	lui	a1,0x1
    47dc:	40b405b3          	sub	a1,s0,a1
    47e0:	6b05b583          	ld	a1,1712(a1) # 16b0 <.LBB81_4+0x4d8>
    47e4:	00b50533          	add	a0,a0,a1
    47e8:	000015b7          	lui	a1,0x1
    47ec:	40b405b3          	sub	a1,s0,a1
    47f0:	6f05b583          	ld	a1,1776(a1) # 16f0 <.LBB81_4+0x518>
    47f4:	00b50533          	add	a0,a0,a1
    47f8:	00d50533          	add	a0,a0,a3
    47fc:	3c05051b          	addiw	a0,a0,960
    4800:	400005b7          	lui	a1,0x40000
    4804:	000018b7          	lui	a7,0x1
    4808:	411408b3          	sub	a7,s0,a7
    480c:	22a8b023          	sd	a0,544(a7) # 1220 <.LBB81_4+0x48>
    4810:	00055463          	bgez	a0,4818 <.LBB81_154>
    4814:	c00005b7          	lui	a1,0xc0000

0000000000004818 <.LBB81_154>:
    4818:	00001537          	lui	a0,0x1
    481c:	40a40533          	sub	a0,s0,a0
    4820:	20b53c23          	sd	a1,536(a0) # 1218 <.LBB81_4+0x40>
    4824:	8e843503          	ld	a0,-1816(s0)
    4828:	e9843583          	ld	a1,-360(s0)
    482c:	00b50533          	add	a0,a0,a1
    4830:	000015b7          	lui	a1,0x1
    4834:	40b405b3          	sub	a1,s0,a1
    4838:	6f85b583          	ld	a1,1784(a1) # 16f8 <.LBB81_4+0x520>
    483c:	00b50533          	add	a0,a0,a1
    4840:	00d50533          	add	a0,a0,a3
    4844:	3c05051b          	addiw	a0,a0,960
    4848:	400005b7          	lui	a1,0x40000
    484c:	000018b7          	lui	a7,0x1
    4850:	411408b3          	sub	a7,s0,a7
    4854:	22a8b823          	sd	a0,560(a7) # 1230 <.LBB81_4+0x58>
    4858:	00055463          	bgez	a0,4860 <.LBB81_156>
    485c:	c00005b7          	lui	a1,0xc0000

0000000000004860 <.LBB81_156>:
    4860:	00001537          	lui	a0,0x1
    4864:	40a40533          	sub	a0,s0,a0
    4868:	22b53423          	sd	a1,552(a0) # 1228 <.LBB81_4+0x50>
    486c:	8f043503          	ld	a0,-1808(s0)
    4870:	ea043583          	ld	a1,-352(s0)
    4874:	00b50533          	add	a0,a0,a1
    4878:	000015b7          	lui	a1,0x1
    487c:	40b405b3          	sub	a1,s0,a1
    4880:	7005b583          	ld	a1,1792(a1) # 1700 <.LBB81_4+0x528>
    4884:	00b50533          	add	a0,a0,a1
    4888:	00d50533          	add	a0,a0,a3
    488c:	3c05051b          	addiw	a0,a0,960
    4890:	400005b7          	lui	a1,0x40000
    4894:	000018b7          	lui	a7,0x1
    4898:	411408b3          	sub	a7,s0,a7
    489c:	24a8b023          	sd	a0,576(a7) # 1240 <.LBB81_4+0x68>
    48a0:	00055463          	bgez	a0,48a8 <.LBB81_158>
    48a4:	c00005b7          	lui	a1,0xc0000

00000000000048a8 <.LBB81_158>:
    48a8:	00001537          	lui	a0,0x1
    48ac:	40a40533          	sub	a0,s0,a0
    48b0:	22b53c23          	sd	a1,568(a0) # 1238 <.LBB81_4+0x60>
    48b4:	8f843503          	ld	a0,-1800(s0)
    48b8:	ea843583          	ld	a1,-344(s0)
    48bc:	00b50533          	add	a0,a0,a1
    48c0:	000015b7          	lui	a1,0x1
    48c4:	40b405b3          	sub	a1,s0,a1
    48c8:	7085b583          	ld	a1,1800(a1) # 1708 <.LBB81_4+0x530>
    48cc:	00b50533          	add	a0,a0,a1
    48d0:	00d50533          	add	a0,a0,a3
    48d4:	3c05051b          	addiw	a0,a0,960
    48d8:	400005b7          	lui	a1,0x40000
    48dc:	000018b7          	lui	a7,0x1
    48e0:	411408b3          	sub	a7,s0,a7
    48e4:	24a8b823          	sd	a0,592(a7) # 1250 <.LBB81_4+0x78>
    48e8:	00055463          	bgez	a0,48f0 <.LBB81_160>
    48ec:	c00005b7          	lui	a1,0xc0000

00000000000048f0 <.LBB81_160>:
    48f0:	00001537          	lui	a0,0x1
    48f4:	40a40533          	sub	a0,s0,a0
    48f8:	24b53423          	sd	a1,584(a0) # 1248 <.LBB81_4+0x70>
    48fc:	90043503          	ld	a0,-1792(s0)
    4900:	eb043583          	ld	a1,-336(s0)
    4904:	00b50533          	add	a0,a0,a1
    4908:	01a50533          	add	a0,a0,s10
    490c:	00d50533          	add	a0,a0,a3
    4910:	3c05051b          	addiw	a0,a0,960
    4914:	400005b7          	lui	a1,0x40000
    4918:	000018b7          	lui	a7,0x1
    491c:	411408b3          	sub	a7,s0,a7
    4920:	26a8b023          	sd	a0,608(a7) # 1260 <.LBB81_4+0x88>
    4924:	00055463          	bgez	a0,492c <.LBB81_162>
    4928:	c00005b7          	lui	a1,0xc0000

000000000000492c <.LBB81_162>:
    492c:	00001537          	lui	a0,0x1
    4930:	40a40533          	sub	a0,s0,a0
    4934:	24b53c23          	sd	a1,600(a0) # 1258 <.LBB81_4+0x80>
    4938:	90843503          	ld	a0,-1784(s0)
    493c:	eb843583          	ld	a1,-328(s0)
    4940:	00b50533          	add	a0,a0,a1
    4944:	000015b7          	lui	a1,0x1
    4948:	40b405b3          	sub	a1,s0,a1
    494c:	7185b583          	ld	a1,1816(a1) # 1718 <.LBB81_4+0x540>
    4950:	00b50533          	add	a0,a0,a1
    4954:	00d50533          	add	a0,a0,a3
    4958:	3c05051b          	addiw	a0,a0,960
    495c:	400005b7          	lui	a1,0x40000
    4960:	000018b7          	lui	a7,0x1
    4964:	411408b3          	sub	a7,s0,a7
    4968:	26a8b823          	sd	a0,624(a7) # 1270 <.LBB81_4+0x98>
    496c:	00055463          	bgez	a0,4974 <.LBB81_164>
    4970:	c00005b7          	lui	a1,0xc0000

0000000000004974 <.LBB81_164>:
    4974:	00001537          	lui	a0,0x1
    4978:	40a40533          	sub	a0,s0,a0
    497c:	26b53423          	sd	a1,616(a0) # 1268 <.LBB81_4+0x90>
    4980:	91043503          	ld	a0,-1776(s0)
    4984:	ec043583          	ld	a1,-320(s0)
    4988:	00b50533          	add	a0,a0,a1
    498c:	000015b7          	lui	a1,0x1
    4990:	40b405b3          	sub	a1,s0,a1
    4994:	7205b583          	ld	a1,1824(a1) # 1720 <.LBB81_4+0x548>
    4998:	00b50533          	add	a0,a0,a1
    499c:	00d50533          	add	a0,a0,a3
    49a0:	3c05051b          	addiw	a0,a0,960
    49a4:	400005b7          	lui	a1,0x40000
    49a8:	000018b7          	lui	a7,0x1
    49ac:	411408b3          	sub	a7,s0,a7
    49b0:	28a8b023          	sd	a0,640(a7) # 1280 <.LBB81_4+0xa8>
    49b4:	00055463          	bgez	a0,49bc <.LBB81_166>
    49b8:	c00005b7          	lui	a1,0xc0000

00000000000049bc <.LBB81_166>:
    49bc:	00001537          	lui	a0,0x1
    49c0:	40a40533          	sub	a0,s0,a0
    49c4:	26b53c23          	sd	a1,632(a0) # 1278 <.LBB81_4+0xa0>
    49c8:	91843503          	ld	a0,-1768(s0)
    49cc:	f1043583          	ld	a1,-240(s0)
    49d0:	00b50533          	add	a0,a0,a1
    49d4:	000015b7          	lui	a1,0x1
    49d8:	40b405b3          	sub	a1,s0,a1
    49dc:	7285b583          	ld	a1,1832(a1) # 1728 <.LBB81_4+0x550>
    49e0:	00b50533          	add	a0,a0,a1
    49e4:	00d50533          	add	a0,a0,a3
    49e8:	3c05051b          	addiw	a0,a0,960
    49ec:	400005b7          	lui	a1,0x40000
    49f0:	000018b7          	lui	a7,0x1
    49f4:	411408b3          	sub	a7,s0,a7
    49f8:	28a8b823          	sd	a0,656(a7) # 1290 <.LBB81_4+0xb8>
    49fc:	00055463          	bgez	a0,4a04 <.LBB81_168>
    4a00:	c00005b7          	lui	a1,0xc0000

0000000000004a04 <.LBB81_168>:
    4a04:	00001537          	lui	a0,0x1
    4a08:	40a40533          	sub	a0,s0,a0
    4a0c:	28b53423          	sd	a1,648(a0) # 1288 <.LBB81_4+0xb0>
    4a10:	92043503          	ld	a0,-1760(s0)
    4a14:	f1843583          	ld	a1,-232(s0)
    4a18:	00b50533          	add	a0,a0,a1
    4a1c:	000015b7          	lui	a1,0x1
    4a20:	40b405b3          	sub	a1,s0,a1
    4a24:	7305b583          	ld	a1,1840(a1) # 1730 <.LBB81_4+0x558>
    4a28:	00b50533          	add	a0,a0,a1
    4a2c:	00d50533          	add	a0,a0,a3
    4a30:	3c05051b          	addiw	a0,a0,960
    4a34:	400005b7          	lui	a1,0x40000
    4a38:	000018b7          	lui	a7,0x1
    4a3c:	411408b3          	sub	a7,s0,a7
    4a40:	2aa8b023          	sd	a0,672(a7) # 12a0 <.LBB81_4+0xc8>
    4a44:	00055463          	bgez	a0,4a4c <.LBB81_170>
    4a48:	c00005b7          	lui	a1,0xc0000

0000000000004a4c <.LBB81_170>:
    4a4c:	00001537          	lui	a0,0x1
    4a50:	40a40533          	sub	a0,s0,a0
    4a54:	28b53c23          	sd	a1,664(a0) # 1298 <.LBB81_4+0xc0>
    4a58:	92843503          	ld	a0,-1752(s0)
    4a5c:	f2043583          	ld	a1,-224(s0)
    4a60:	00b50533          	add	a0,a0,a1
    4a64:	000015b7          	lui	a1,0x1
    4a68:	40b405b3          	sub	a1,s0,a1
    4a6c:	7385b583          	ld	a1,1848(a1) # 1738 <.LBB81_4+0x560>
    4a70:	00b50533          	add	a0,a0,a1
    4a74:	00d50533          	add	a0,a0,a3
    4a78:	3c05051b          	addiw	a0,a0,960
    4a7c:	400005b7          	lui	a1,0x40000
    4a80:	000018b7          	lui	a7,0x1
    4a84:	411408b3          	sub	a7,s0,a7
    4a88:	2aa8b823          	sd	a0,688(a7) # 12b0 <.LBB81_4+0xd8>
    4a8c:	00055463          	bgez	a0,4a94 <.LBB81_172>
    4a90:	c00005b7          	lui	a1,0xc0000

0000000000004a94 <.LBB81_172>:
    4a94:	00001537          	lui	a0,0x1
    4a98:	40a40533          	sub	a0,s0,a0
    4a9c:	2ab53423          	sd	a1,680(a0) # 12a8 <.LBB81_4+0xd0>
    4aa0:	93043503          	ld	a0,-1744(s0)
    4aa4:	f2843583          	ld	a1,-216(s0)
    4aa8:	00b50533          	add	a0,a0,a1
    4aac:	000015b7          	lui	a1,0x1
    4ab0:	40b405b3          	sub	a1,s0,a1
    4ab4:	7405b583          	ld	a1,1856(a1) # 1740 <.LBB81_4+0x568>
    4ab8:	00b50533          	add	a0,a0,a1
    4abc:	00d50533          	add	a0,a0,a3
    4ac0:	3c05051b          	addiw	a0,a0,960
    4ac4:	400005b7          	lui	a1,0x40000
    4ac8:	000018b7          	lui	a7,0x1
    4acc:	411408b3          	sub	a7,s0,a7
    4ad0:	2ca8b023          	sd	a0,704(a7) # 12c0 <.LBB81_4+0xe8>
    4ad4:	00055463          	bgez	a0,4adc <.LBB81_174>
    4ad8:	c00005b7          	lui	a1,0xc0000

0000000000004adc <.LBB81_174>:
    4adc:	00001537          	lui	a0,0x1
    4ae0:	40a40533          	sub	a0,s0,a0
    4ae4:	2ab53c23          	sd	a1,696(a0) # 12b8 <.LBB81_4+0xe0>
    4ae8:	93843503          	ld	a0,-1736(s0)
    4aec:	f3043583          	ld	a1,-208(s0)
    4af0:	00b50533          	add	a0,a0,a1
    4af4:	000015b7          	lui	a1,0x1
    4af8:	40b405b3          	sub	a1,s0,a1
    4afc:	7485b583          	ld	a1,1864(a1) # 1748 <.LBB81_4+0x570>
    4b00:	00b50533          	add	a0,a0,a1
    4b04:	00d50533          	add	a0,a0,a3
    4b08:	3c05051b          	addiw	a0,a0,960
    4b0c:	400005b7          	lui	a1,0x40000
    4b10:	000018b7          	lui	a7,0x1
    4b14:	411408b3          	sub	a7,s0,a7
    4b18:	2ca8b823          	sd	a0,720(a7) # 12d0 <.LBB81_4+0xf8>
    4b1c:	00055463          	bgez	a0,4b24 <.LBB81_176>
    4b20:	c00005b7          	lui	a1,0xc0000

0000000000004b24 <.LBB81_176>:
    4b24:	00001537          	lui	a0,0x1
    4b28:	40a40533          	sub	a0,s0,a0
    4b2c:	2cb53423          	sd	a1,712(a0) # 12c8 <.LBB81_4+0xf0>
    4b30:	94043503          	ld	a0,-1728(s0)
    4b34:	f3843583          	ld	a1,-200(s0)
    4b38:	00b50533          	add	a0,a0,a1
    4b3c:	000015b7          	lui	a1,0x1
    4b40:	40b405b3          	sub	a1,s0,a1
    4b44:	7505b583          	ld	a1,1872(a1) # 1750 <.LBB81_4+0x578>
    4b48:	00b50533          	add	a0,a0,a1
    4b4c:	00d50533          	add	a0,a0,a3
    4b50:	3c05051b          	addiw	a0,a0,960
    4b54:	400005b7          	lui	a1,0x40000
    4b58:	000018b7          	lui	a7,0x1
    4b5c:	411408b3          	sub	a7,s0,a7
    4b60:	2ea8b023          	sd	a0,736(a7) # 12e0 <.LBB81_4+0x108>
    4b64:	00055463          	bgez	a0,4b6c <.LBB81_178>
    4b68:	c00005b7          	lui	a1,0xc0000

0000000000004b6c <.LBB81_178>:
    4b6c:	00001537          	lui	a0,0x1
    4b70:	40a40533          	sub	a0,s0,a0
    4b74:	2cb53c23          	sd	a1,728(a0) # 12d8 <.LBB81_4+0x100>
    4b78:	94843503          	ld	a0,-1720(s0)
    4b7c:	f4043583          	ld	a1,-192(s0)
    4b80:	00b50533          	add	a0,a0,a1
    4b84:	000015b7          	lui	a1,0x1
    4b88:	40b405b3          	sub	a1,s0,a1
    4b8c:	7585b583          	ld	a1,1880(a1) # 1758 <.LBB81_5+0x4>
    4b90:	00b50533          	add	a0,a0,a1
    4b94:	00d50533          	add	a0,a0,a3
    4b98:	3c05051b          	addiw	a0,a0,960
    4b9c:	400005b7          	lui	a1,0x40000
    4ba0:	000018b7          	lui	a7,0x1
    4ba4:	411408b3          	sub	a7,s0,a7
    4ba8:	2ea8b823          	sd	a0,752(a7) # 12f0 <.LBB81_4+0x118>
    4bac:	00055463          	bgez	a0,4bb4 <.LBB81_180>
    4bb0:	c00005b7          	lui	a1,0xc0000

0000000000004bb4 <.LBB81_180>:
    4bb4:	00001537          	lui	a0,0x1
    4bb8:	40a40533          	sub	a0,s0,a0
    4bbc:	2eb53423          	sd	a1,744(a0) # 12e8 <.LBB81_4+0x110>
    4bc0:	95043503          	ld	a0,-1712(s0)
    4bc4:	f4843583          	ld	a1,-184(s0)
    4bc8:	00b50533          	add	a0,a0,a1
    4bcc:	000015b7          	lui	a1,0x1
    4bd0:	40b405b3          	sub	a1,s0,a1
    4bd4:	7105b583          	ld	a1,1808(a1) # 1710 <.LBB81_4+0x538>
    4bd8:	00b50533          	add	a0,a0,a1
    4bdc:	00d50533          	add	a0,a0,a3
    4be0:	3c05051b          	addiw	a0,a0,960
    4be4:	400005b7          	lui	a1,0x40000
    4be8:	000018b7          	lui	a7,0x1
    4bec:	411408b3          	sub	a7,s0,a7
    4bf0:	30a8b023          	sd	a0,768(a7) # 1300 <.LBB81_4+0x128>
    4bf4:	00055463          	bgez	a0,4bfc <.LBB81_182>
    4bf8:	c00005b7          	lui	a1,0xc0000

0000000000004bfc <.LBB81_182>:
    4bfc:	00001537          	lui	a0,0x1
    4c00:	40a40533          	sub	a0,s0,a0
    4c04:	2eb53c23          	sd	a1,760(a0) # 12f8 <.LBB81_4+0x120>
    4c08:	95843503          	ld	a0,-1704(s0)
    4c0c:	f5043583          	ld	a1,-176(s0)
    4c10:	00b50533          	add	a0,a0,a1
    4c14:	000015b7          	lui	a1,0x1
    4c18:	40b405b3          	sub	a1,s0,a1
    4c1c:	7605b583          	ld	a1,1888(a1) # 1760 <.LBB81_5+0xc>
    4c20:	00b50533          	add	a0,a0,a1
    4c24:	00d50533          	add	a0,a0,a3
    4c28:	3c05051b          	addiw	a0,a0,960
    4c2c:	400005b7          	lui	a1,0x40000
    4c30:	000018b7          	lui	a7,0x1
    4c34:	411408b3          	sub	a7,s0,a7
    4c38:	30a8b823          	sd	a0,784(a7) # 1310 <.LBB81_4+0x138>
    4c3c:	00055463          	bgez	a0,4c44 <.LBB81_184>
    4c40:	c00005b7          	lui	a1,0xc0000

0000000000004c44 <.LBB81_184>:
    4c44:	00001537          	lui	a0,0x1
    4c48:	40a40533          	sub	a0,s0,a0
    4c4c:	30b53423          	sd	a1,776(a0) # 1308 <.LBB81_4+0x130>
    4c50:	96043503          	ld	a0,-1696(s0)
    4c54:	f5843583          	ld	a1,-168(s0)
    4c58:	00b50533          	add	a0,a0,a1
    4c5c:	000015b7          	lui	a1,0x1
    4c60:	40b405b3          	sub	a1,s0,a1
    4c64:	7685b583          	ld	a1,1896(a1) # 1768 <.LBB81_5+0x14>
    4c68:	00b50533          	add	a0,a0,a1
    4c6c:	00d50533          	add	a0,a0,a3
    4c70:	3c05051b          	addiw	a0,a0,960
    4c74:	400005b7          	lui	a1,0x40000
    4c78:	000018b7          	lui	a7,0x1
    4c7c:	411408b3          	sub	a7,s0,a7
    4c80:	32a8b023          	sd	a0,800(a7) # 1320 <.LBB81_4+0x148>
    4c84:	00055463          	bgez	a0,4c8c <.LBB81_186>
    4c88:	c00005b7          	lui	a1,0xc0000

0000000000004c8c <.LBB81_186>:
    4c8c:	00001537          	lui	a0,0x1
    4c90:	40a40533          	sub	a0,s0,a0
    4c94:	30b53c23          	sd	a1,792(a0) # 1318 <.LBB81_4+0x140>
    4c98:	96843503          	ld	a0,-1688(s0)
    4c9c:	f6043583          	ld	a1,-160(s0)
    4ca0:	00b50533          	add	a0,a0,a1
    4ca4:	000015b7          	lui	a1,0x1
    4ca8:	40b405b3          	sub	a1,s0,a1
    4cac:	7705b583          	ld	a1,1904(a1) # 1770 <.LBB81_5+0x1c>
    4cb0:	00b50533          	add	a0,a0,a1
    4cb4:	00d50533          	add	a0,a0,a3
    4cb8:	3c05051b          	addiw	a0,a0,960
    4cbc:	400005b7          	lui	a1,0x40000
    4cc0:	000018b7          	lui	a7,0x1
    4cc4:	411408b3          	sub	a7,s0,a7
    4cc8:	32a8b823          	sd	a0,816(a7) # 1330 <.LBB81_4+0x158>
    4ccc:	00055463          	bgez	a0,4cd4 <.LBB81_188>
    4cd0:	c00005b7          	lui	a1,0xc0000

0000000000004cd4 <.LBB81_188>:
    4cd4:	00001537          	lui	a0,0x1
    4cd8:	40a40533          	sub	a0,s0,a0
    4cdc:	32b53423          	sd	a1,808(a0) # 1328 <.LBB81_4+0x150>
    4ce0:	97043503          	ld	a0,-1680(s0)
    4ce4:	f6843583          	ld	a1,-152(s0)
    4ce8:	00b50533          	add	a0,a0,a1
    4cec:	00750533          	add	a0,a0,t2
    4cf0:	00d50533          	add	a0,a0,a3
    4cf4:	3c05051b          	addiw	a0,a0,960
    4cf8:	400005b7          	lui	a1,0x40000
    4cfc:	000018b7          	lui	a7,0x1
    4d00:	411408b3          	sub	a7,s0,a7
    4d04:	34a8b023          	sd	a0,832(a7) # 1340 <.LBB81_4+0x168>
    4d08:	00055463          	bgez	a0,4d10 <.LBB81_190>
    4d0c:	c00005b7          	lui	a1,0xc0000

0000000000004d10 <.LBB81_190>:
    4d10:	00001537          	lui	a0,0x1
    4d14:	40a40533          	sub	a0,s0,a0
    4d18:	32b53c23          	sd	a1,824(a0) # 1338 <.LBB81_4+0x160>
    4d1c:	97843503          	ld	a0,-1672(s0)
    4d20:	f7043583          	ld	a1,-144(s0)
    4d24:	00b50533          	add	a0,a0,a1
    4d28:	00650533          	add	a0,a0,t1
    4d2c:	00d50533          	add	a0,a0,a3
    4d30:	3c05051b          	addiw	a0,a0,960
    4d34:	400005b7          	lui	a1,0x40000
    4d38:	000018b7          	lui	a7,0x1
    4d3c:	411408b3          	sub	a7,s0,a7
    4d40:	34a8b823          	sd	a0,848(a7) # 1350 <.LBB81_4+0x178>
    4d44:	00055463          	bgez	a0,4d4c <.LBB81_192>
    4d48:	c00005b7          	lui	a1,0xc0000

0000000000004d4c <.LBB81_192>:
    4d4c:	00001537          	lui	a0,0x1
    4d50:	40a40533          	sub	a0,s0,a0
    4d54:	34b53423          	sd	a1,840(a0) # 1348 <.LBB81_4+0x170>
    4d58:	98043503          	ld	a0,-1664(s0)
    4d5c:	f7843583          	ld	a1,-136(s0)
    4d60:	00b50533          	add	a0,a0,a1
    4d64:	00550533          	add	a0,a0,t0
    4d68:	00d50533          	add	a0,a0,a3
    4d6c:	3c05051b          	addiw	a0,a0,960
    4d70:	400005b7          	lui	a1,0x40000
    4d74:	000018b7          	lui	a7,0x1
    4d78:	411408b3          	sub	a7,s0,a7
    4d7c:	36a8b023          	sd	a0,864(a7) # 1360 <.LBB81_4+0x188>
    4d80:	00055463          	bgez	a0,4d88 <.LBB81_194>
    4d84:	c00005b7          	lui	a1,0xc0000

0000000000004d88 <.LBB81_194>:
    4d88:	00001537          	lui	a0,0x1
    4d8c:	40a40533          	sub	a0,s0,a0
    4d90:	34b53c23          	sd	a1,856(a0) # 1358 <.LBB81_4+0x180>
    4d94:	f8043503          	ld	a0,-128(s0)
    4d98:	00a08533          	add	a0,ra,a0
    4d9c:	000015b7          	lui	a1,0x1
    4da0:	40b405b3          	sub	a1,s0,a1
    4da4:	7885b083          	ld	ra,1928(a1) # 1788 <.LBB81_5+0x34>
    4da8:	00150533          	add	a0,a0,ra
    4dac:	00d50533          	add	a0,a0,a3
    4db0:	3c05051b          	addiw	a0,a0,960
    4db4:	400005b7          	lui	a1,0x40000
    4db8:	000018b7          	lui	a7,0x1
    4dbc:	411408b3          	sub	a7,s0,a7
    4dc0:	36a8b823          	sd	a0,880(a7) # 1370 <.LBB81_4+0x198>
    4dc4:	00055463          	bgez	a0,4dcc <.LBB81_196>
    4dc8:	c00005b7          	lui	a1,0xc0000

0000000000004dcc <.LBB81_196>:
    4dcc:	00060893          	mv	a7,a2
    4dd0:	00001537          	lui	a0,0x1
    4dd4:	40a40533          	sub	a0,s0,a0
    4dd8:	36b53423          	sd	a1,872(a0) # 1368 <.LBB81_4+0x190>
    4ddc:	99043503          	ld	a0,-1648(s0)
    4de0:	f8843583          	ld	a1,-120(s0)
    4de4:	00b50533          	add	a0,a0,a1
    4de8:	01c50533          	add	a0,a0,t3
    4dec:	00d50533          	add	a0,a0,a3
    4df0:	3c05051b          	addiw	a0,a0,960
    4df4:	400005b7          	lui	a1,0x40000
    4df8:	00001637          	lui	a2,0x1
    4dfc:	40c40633          	sub	a2,s0,a2
    4e00:	38a63423          	sd	a0,904(a2) # 1388 <.LBB81_4+0x1b0>
    4e04:	00055463          	bgez	a0,4e0c <.LBB81_198>
    4e08:	c00005b7          	lui	a1,0xc0000

0000000000004e0c <.LBB81_198>:
    4e0c:	f8e43823          	sd	a4,-112(s0)
    4e10:	00001537          	lui	a0,0x1
    4e14:	40a40533          	sub	a0,s0,a0
    4e18:	36b53c23          	sd	a1,888(a0) # 1378 <.LBB81_4+0x1a0>
    4e1c:	00001537          	lui	a0,0x1
    4e20:	40a40533          	sub	a0,s0,a0
    4e24:	69053683          	ld	a3,1680(a0) # 1690 <.LBB81_4+0x4b8>
    4e28:	00269513          	slli	a0,a3,0x2
    4e2c:	99843583          	ld	a1,-1640(s0)
    4e30:	e9043603          	ld	a2,-368(s0)
    4e34:	00c585b3          	add	a1,a1,a2
    4e38:	00d50633          	add	a2,a0,a3
    4e3c:	e8843503          	ld	a0,-376(s0)
    4e40:	00a585b3          	add	a1,a1,a0
    4e44:	00c585b3          	add	a1,a1,a2
    4e48:	3c05851b          	addiw	a0,a1,960 # ffffffffc00003c0 <.Lfunc_end80+0xffffffffbffd79f4>
    4e4c:	400005b7          	lui	a1,0x40000
    4e50:	e3043683          	ld	a3,-464(s0)
    4e54:	00001737          	lui	a4,0x1
    4e58:	40e40733          	sub	a4,s0,a4
    4e5c:	38a73823          	sd	a0,912(a4) # 1390 <.LBB81_4+0x1b8>
    4e60:	f9043703          	ld	a4,-112(s0)
    4e64:	00055463          	bgez	a0,4e6c <.LBB81_200>
    4e68:	c00005b7          	lui	a1,0xc0000

0000000000004e6c <.LBB81_200>:
    4e6c:	f8d43823          	sd	a3,-112(s0)
    4e70:	00001537          	lui	a0,0x1
    4e74:	40a40533          	sub	a0,s0,a0
    4e78:	38b53023          	sd	a1,896(a0) # 1380 <.LBB81_4+0x1a8>
    4e7c:	9a043503          	ld	a0,-1632(s0)
    4e80:	e8043583          	ld	a1,-384(s0)
    4e84:	00b50533          	add	a0,a0,a1
    4e88:	e7843583          	ld	a1,-392(s0)
    4e8c:	00b50533          	add	a0,a0,a1
    4e90:	00c50533          	add	a0,a0,a2
    4e94:	3c05051b          	addiw	a0,a0,960
    4e98:	400005b7          	lui	a1,0x40000
    4e9c:	000016b7          	lui	a3,0x1
    4ea0:	40d406b3          	sub	a3,s0,a3
    4ea4:	3aa6b023          	sd	a0,928(a3) # 13a0 <.LBB81_4+0x1c8>
    4ea8:	f9043683          	ld	a3,-112(s0)
    4eac:	00055463          	bgez	a0,4eb4 <.LBB81_202>
    4eb0:	c00005b7          	lui	a1,0xc0000

0000000000004eb4 <.LBB81_202>:
    4eb4:	f8d43823          	sd	a3,-112(s0)
    4eb8:	00001537          	lui	a0,0x1
    4ebc:	40a40533          	sub	a0,s0,a0
    4ec0:	38b53c23          	sd	a1,920(a0) # 1398 <.LBB81_4+0x1c0>
    4ec4:	9a843503          	ld	a0,-1624(s0)
    4ec8:	e7043583          	ld	a1,-400(s0)
    4ecc:	00b50533          	add	a0,a0,a1
    4ed0:	e6843583          	ld	a1,-408(s0)
    4ed4:	00b50533          	add	a0,a0,a1
    4ed8:	00c50533          	add	a0,a0,a2
    4edc:	3c05051b          	addiw	a0,a0,960
    4ee0:	400005b7          	lui	a1,0x40000
    4ee4:	000016b7          	lui	a3,0x1
    4ee8:	40d406b3          	sub	a3,s0,a3
    4eec:	3aa6b823          	sd	a0,944(a3) # 13b0 <.LBB81_4+0x1d8>
    4ef0:	f9043683          	ld	a3,-112(s0)
    4ef4:	00055463          	bgez	a0,4efc <.LBB81_204>
    4ef8:	c00005b7          	lui	a1,0xc0000

0000000000004efc <.LBB81_204>:
    4efc:	f8d43823          	sd	a3,-112(s0)
    4f00:	00001537          	lui	a0,0x1
    4f04:	40a40533          	sub	a0,s0,a0
    4f08:	3ab53423          	sd	a1,936(a0) # 13a8 <.LBB81_4+0x1d0>
    4f0c:	9b043503          	ld	a0,-1616(s0)
    4f10:	e6043583          	ld	a1,-416(s0)
    4f14:	00b50533          	add	a0,a0,a1
    4f18:	e5843583          	ld	a1,-424(s0)
    4f1c:	00b50533          	add	a0,a0,a1
    4f20:	00c50533          	add	a0,a0,a2
    4f24:	3c05051b          	addiw	a0,a0,960
    4f28:	400005b7          	lui	a1,0x40000
    4f2c:	000016b7          	lui	a3,0x1
    4f30:	40d406b3          	sub	a3,s0,a3
    4f34:	3ca6b023          	sd	a0,960(a3) # 13c0 <.LBB81_4+0x1e8>
    4f38:	f9043683          	ld	a3,-112(s0)
    4f3c:	00055463          	bgez	a0,4f44 <.LBB81_206>
    4f40:	c00005b7          	lui	a1,0xc0000

0000000000004f44 <.LBB81_206>:
    4f44:	f8d43823          	sd	a3,-112(s0)
    4f48:	00001537          	lui	a0,0x1
    4f4c:	40a40533          	sub	a0,s0,a0
    4f50:	3ab53c23          	sd	a1,952(a0) # 13b8 <.LBB81_4+0x1e0>
    4f54:	9b843503          	ld	a0,-1608(s0)
    4f58:	e5043583          	ld	a1,-432(s0)
    4f5c:	00b50533          	add	a0,a0,a1
    4f60:	e4843583          	ld	a1,-440(s0)
    4f64:	00b50533          	add	a0,a0,a1
    4f68:	00c50533          	add	a0,a0,a2
    4f6c:	3c05051b          	addiw	a0,a0,960
    4f70:	400005b7          	lui	a1,0x40000
    4f74:	000016b7          	lui	a3,0x1
    4f78:	40d406b3          	sub	a3,s0,a3
    4f7c:	3ca6b823          	sd	a0,976(a3) # 13d0 <.LBB81_4+0x1f8>
    4f80:	f9043683          	ld	a3,-112(s0)
    4f84:	00055463          	bgez	a0,4f8c <.LBB81_208>
    4f88:	c00005b7          	lui	a1,0xc0000

0000000000004f8c <.LBB81_208>:
    4f8c:	f8d43823          	sd	a3,-112(s0)
    4f90:	00001537          	lui	a0,0x1
    4f94:	40a40533          	sub	a0,s0,a0
    4f98:	3cb53423          	sd	a1,968(a0) # 13c8 <.LBB81_4+0x1f0>
    4f9c:	9c043503          	ld	a0,-1600(s0)
    4fa0:	e4043583          	ld	a1,-448(s0)
    4fa4:	00b50533          	add	a0,a0,a1
    4fa8:	000015b7          	lui	a1,0x1
    4fac:	40b405b3          	sub	a1,s0,a1
    4fb0:	6e85b583          	ld	a1,1768(a1) # 16e8 <.LBB81_4+0x510>
    4fb4:	00b50533          	add	a0,a0,a1
    4fb8:	00c50533          	add	a0,a0,a2
    4fbc:	3c05051b          	addiw	a0,a0,960
    4fc0:	400005b7          	lui	a1,0x40000
    4fc4:	000016b7          	lui	a3,0x1
    4fc8:	40d406b3          	sub	a3,s0,a3
    4fcc:	3ea6b023          	sd	a0,992(a3) # 13e0 <.LBB81_4+0x208>
    4fd0:	f9043683          	ld	a3,-112(s0)
    4fd4:	00055463          	bgez	a0,4fdc <.LBB81_210>
    4fd8:	c00005b7          	lui	a1,0xc0000

0000000000004fdc <.LBB81_210>:
    4fdc:	f8d43823          	sd	a3,-112(s0)
    4fe0:	00001537          	lui	a0,0x1
    4fe4:	40a40533          	sub	a0,s0,a0
    4fe8:	3cb53c23          	sd	a1,984(a0) # 13d8 <.LBB81_4+0x200>
    4fec:	9c843503          	ld	a0,-1592(s0)
    4ff0:	000015b7          	lui	a1,0x1
    4ff4:	40b405b3          	sub	a1,s0,a1
    4ff8:	6e05b583          	ld	a1,1760(a1) # 16e0 <.LBB81_4+0x508>
    4ffc:	00b50533          	add	a0,a0,a1
    5000:	000015b7          	lui	a1,0x1
    5004:	40b405b3          	sub	a1,s0,a1
    5008:	6d85b583          	ld	a1,1752(a1) # 16d8 <.LBB81_4+0x500>
    500c:	00b50533          	add	a0,a0,a1
    5010:	00c50533          	add	a0,a0,a2
    5014:	3c05051b          	addiw	a0,a0,960
    5018:	400005b7          	lui	a1,0x40000
    501c:	000016b7          	lui	a3,0x1
    5020:	40d406b3          	sub	a3,s0,a3
    5024:	3ea6b823          	sd	a0,1008(a3) # 13f0 <.LBB81_4+0x218>
    5028:	f9043683          	ld	a3,-112(s0)
    502c:	00055463          	bgez	a0,5034 <.LBB81_212>
    5030:	c00005b7          	lui	a1,0xc0000

0000000000005034 <.LBB81_212>:
    5034:	f8d43823          	sd	a3,-112(s0)
    5038:	00001537          	lui	a0,0x1
    503c:	40a40533          	sub	a0,s0,a0
    5040:	3eb53423          	sd	a1,1000(a0) # 13e8 <.LBB81_4+0x210>
    5044:	9d043503          	ld	a0,-1584(s0)
    5048:	000015b7          	lui	a1,0x1
    504c:	40b405b3          	sub	a1,s0,a1
    5050:	6d05b583          	ld	a1,1744(a1) # 16d0 <.LBB81_4+0x4f8>
    5054:	00b50533          	add	a0,a0,a1
    5058:	000015b7          	lui	a1,0x1
    505c:	40b405b3          	sub	a1,s0,a1
    5060:	6c85b583          	ld	a1,1736(a1) # 16c8 <.LBB81_4+0x4f0>
    5064:	00b50533          	add	a0,a0,a1
    5068:	00c50533          	add	a0,a0,a2
    506c:	3c05051b          	addiw	a0,a0,960
    5070:	400005b7          	lui	a1,0x40000
    5074:	000016b7          	lui	a3,0x1
    5078:	40d406b3          	sub	a3,s0,a3
    507c:	40a6b023          	sd	a0,1024(a3) # 1400 <.LBB81_4+0x228>
    5080:	f9043683          	ld	a3,-112(s0)
    5084:	00055463          	bgez	a0,508c <.LBB81_214>
    5088:	c00005b7          	lui	a1,0xc0000

000000000000508c <.LBB81_214>:
    508c:	f8d43823          	sd	a3,-112(s0)
    5090:	00001537          	lui	a0,0x1
    5094:	40a40533          	sub	a0,s0,a0
    5098:	3eb53c23          	sd	a1,1016(a0) # 13f8 <.LBB81_4+0x220>
    509c:	9d843503          	ld	a0,-1576(s0)
    50a0:	000015b7          	lui	a1,0x1
    50a4:	40b405b3          	sub	a1,s0,a1
    50a8:	6c05b583          	ld	a1,1728(a1) # 16c0 <.LBB81_4+0x4e8>
    50ac:	00b50533          	add	a0,a0,a1
    50b0:	000015b7          	lui	a1,0x1
    50b4:	40b405b3          	sub	a1,s0,a1
    50b8:	6b85b583          	ld	a1,1720(a1) # 16b8 <.LBB81_4+0x4e0>
    50bc:	00b50533          	add	a0,a0,a1
    50c0:	00c50533          	add	a0,a0,a2
    50c4:	3c05051b          	addiw	a0,a0,960
    50c8:	400005b7          	lui	a1,0x40000
    50cc:	000016b7          	lui	a3,0x1
    50d0:	40d406b3          	sub	a3,s0,a3
    50d4:	40a6b823          	sd	a0,1040(a3) # 1410 <.LBB81_4+0x238>
    50d8:	f9043683          	ld	a3,-112(s0)
    50dc:	00055463          	bgez	a0,50e4 <.LBB81_216>
    50e0:	c00005b7          	lui	a1,0xc0000

00000000000050e4 <.LBB81_216>:
    50e4:	f8d43823          	sd	a3,-112(s0)
    50e8:	00001537          	lui	a0,0x1
    50ec:	40a40533          	sub	a0,s0,a0
    50f0:	40b53423          	sd	a1,1032(a0) # 1408 <.LBB81_4+0x230>
    50f4:	9e043503          	ld	a0,-1568(s0)
    50f8:	000015b7          	lui	a1,0x1
    50fc:	40b405b3          	sub	a1,s0,a1
    5100:	6b05b583          	ld	a1,1712(a1) # 16b0 <.LBB81_4+0x4d8>
    5104:	00b50533          	add	a0,a0,a1
    5108:	000015b7          	lui	a1,0x1
    510c:	40b405b3          	sub	a1,s0,a1
    5110:	6f05b583          	ld	a1,1776(a1) # 16f0 <.LBB81_4+0x518>
    5114:	00b50533          	add	a0,a0,a1
    5118:	00c50533          	add	a0,a0,a2
    511c:	3c05051b          	addiw	a0,a0,960
    5120:	400005b7          	lui	a1,0x40000
    5124:	000016b7          	lui	a3,0x1
    5128:	40d406b3          	sub	a3,s0,a3
    512c:	42a6b023          	sd	a0,1056(a3) # 1420 <.LBB81_4+0x248>
    5130:	f9043683          	ld	a3,-112(s0)
    5134:	00055463          	bgez	a0,513c <.LBB81_218>
    5138:	c00005b7          	lui	a1,0xc0000

000000000000513c <.LBB81_218>:
    513c:	f8d43823          	sd	a3,-112(s0)
    5140:	00001537          	lui	a0,0x1
    5144:	40a40533          	sub	a0,s0,a0
    5148:	40b53c23          	sd	a1,1048(a0) # 1418 <.LBB81_4+0x240>
    514c:	9e843503          	ld	a0,-1560(s0)
    5150:	e9843583          	ld	a1,-360(s0)
    5154:	00b50533          	add	a0,a0,a1
    5158:	000015b7          	lui	a1,0x1
    515c:	40b405b3          	sub	a1,s0,a1
    5160:	6f85b583          	ld	a1,1784(a1) # 16f8 <.LBB81_4+0x520>
    5164:	00b50533          	add	a0,a0,a1
    5168:	00c50533          	add	a0,a0,a2
    516c:	3c05051b          	addiw	a0,a0,960
    5170:	400005b7          	lui	a1,0x40000
    5174:	000016b7          	lui	a3,0x1
    5178:	40d406b3          	sub	a3,s0,a3
    517c:	42a6b823          	sd	a0,1072(a3) # 1430 <.LBB81_4+0x258>
    5180:	f9043683          	ld	a3,-112(s0)
    5184:	00055463          	bgez	a0,518c <.LBB81_220>
    5188:	c00005b7          	lui	a1,0xc0000

000000000000518c <.LBB81_220>:
    518c:	f8d43823          	sd	a3,-112(s0)
    5190:	00001537          	lui	a0,0x1
    5194:	40a40533          	sub	a0,s0,a0
    5198:	42b53423          	sd	a1,1064(a0) # 1428 <.LBB81_4+0x250>
    519c:	9f043503          	ld	a0,-1552(s0)
    51a0:	ea043583          	ld	a1,-352(s0)
    51a4:	00b50533          	add	a0,a0,a1
    51a8:	000015b7          	lui	a1,0x1
    51ac:	40b405b3          	sub	a1,s0,a1
    51b0:	7005b583          	ld	a1,1792(a1) # 1700 <.LBB81_4+0x528>
    51b4:	00b50533          	add	a0,a0,a1
    51b8:	00c50533          	add	a0,a0,a2
    51bc:	3c05051b          	addiw	a0,a0,960
    51c0:	400005b7          	lui	a1,0x40000
    51c4:	000016b7          	lui	a3,0x1
    51c8:	40d406b3          	sub	a3,s0,a3
    51cc:	44a6b023          	sd	a0,1088(a3) # 1440 <.LBB81_4+0x268>
    51d0:	f9043683          	ld	a3,-112(s0)
    51d4:	00055463          	bgez	a0,51dc <.LBB81_222>
    51d8:	c00005b7          	lui	a1,0xc0000

00000000000051dc <.LBB81_222>:
    51dc:	f8d43823          	sd	a3,-112(s0)
    51e0:	00001537          	lui	a0,0x1
    51e4:	40a40533          	sub	a0,s0,a0
    51e8:	42b53c23          	sd	a1,1080(a0) # 1438 <.LBB81_4+0x260>
    51ec:	9f843503          	ld	a0,-1544(s0)
    51f0:	ea843583          	ld	a1,-344(s0)
    51f4:	00b50533          	add	a0,a0,a1
    51f8:	000015b7          	lui	a1,0x1
    51fc:	40b405b3          	sub	a1,s0,a1
    5200:	7085b583          	ld	a1,1800(a1) # 1708 <.LBB81_4+0x530>
    5204:	00b50533          	add	a0,a0,a1
    5208:	00c50533          	add	a0,a0,a2
    520c:	3c05051b          	addiw	a0,a0,960
    5210:	400005b7          	lui	a1,0x40000
    5214:	000016b7          	lui	a3,0x1
    5218:	40d406b3          	sub	a3,s0,a3
    521c:	44a6b823          	sd	a0,1104(a3) # 1450 <.LBB81_4+0x278>
    5220:	f9043683          	ld	a3,-112(s0)
    5224:	00055463          	bgez	a0,522c <.LBB81_224>
    5228:	c00005b7          	lui	a1,0xc0000

000000000000522c <.LBB81_224>:
    522c:	f8d43823          	sd	a3,-112(s0)
    5230:	00001537          	lui	a0,0x1
    5234:	40a40533          	sub	a0,s0,a0
    5238:	44b53423          	sd	a1,1096(a0) # 1448 <.LBB81_4+0x270>
    523c:	a0043503          	ld	a0,-1536(s0)
    5240:	eb043583          	ld	a1,-336(s0)
    5244:	00b50533          	add	a0,a0,a1
    5248:	01a50533          	add	a0,a0,s10
    524c:	00c50533          	add	a0,a0,a2
    5250:	3c05051b          	addiw	a0,a0,960
    5254:	400005b7          	lui	a1,0x40000
    5258:	000016b7          	lui	a3,0x1
    525c:	40d406b3          	sub	a3,s0,a3
    5260:	46a6b023          	sd	a0,1120(a3) # 1460 <.LBB81_4+0x288>
    5264:	f9043683          	ld	a3,-112(s0)
    5268:	00055463          	bgez	a0,5270 <.LBB81_226>
    526c:	c00005b7          	lui	a1,0xc0000

0000000000005270 <.LBB81_226>:
    5270:	f8d43823          	sd	a3,-112(s0)
    5274:	00001537          	lui	a0,0x1
    5278:	40a40533          	sub	a0,s0,a0
    527c:	44b53c23          	sd	a1,1112(a0) # 1458 <.LBB81_4+0x280>
    5280:	a0843503          	ld	a0,-1528(s0)
    5284:	eb843583          	ld	a1,-328(s0)
    5288:	00b50533          	add	a0,a0,a1
    528c:	000015b7          	lui	a1,0x1
    5290:	40b405b3          	sub	a1,s0,a1
    5294:	7185b583          	ld	a1,1816(a1) # 1718 <.LBB81_4+0x540>
    5298:	00b50533          	add	a0,a0,a1
    529c:	00c50533          	add	a0,a0,a2
    52a0:	3c05051b          	addiw	a0,a0,960
    52a4:	400005b7          	lui	a1,0x40000
    52a8:	000016b7          	lui	a3,0x1
    52ac:	40d406b3          	sub	a3,s0,a3
    52b0:	46a6b823          	sd	a0,1136(a3) # 1470 <.LBB81_4+0x298>
    52b4:	f9043683          	ld	a3,-112(s0)
    52b8:	00055463          	bgez	a0,52c0 <.LBB81_228>
    52bc:	c00005b7          	lui	a1,0xc0000

00000000000052c0 <.LBB81_228>:
    52c0:	f8d43823          	sd	a3,-112(s0)
    52c4:	00001537          	lui	a0,0x1
    52c8:	40a40533          	sub	a0,s0,a0
    52cc:	46b53423          	sd	a1,1128(a0) # 1468 <.LBB81_4+0x290>
    52d0:	a1043503          	ld	a0,-1520(s0)
    52d4:	ec043583          	ld	a1,-320(s0)
    52d8:	00b50533          	add	a0,a0,a1
    52dc:	000015b7          	lui	a1,0x1
    52e0:	40b405b3          	sub	a1,s0,a1
    52e4:	7205b583          	ld	a1,1824(a1) # 1720 <.LBB81_4+0x548>
    52e8:	00b50533          	add	a0,a0,a1
    52ec:	00c50533          	add	a0,a0,a2
    52f0:	3c05051b          	addiw	a0,a0,960
    52f4:	400005b7          	lui	a1,0x40000
    52f8:	000016b7          	lui	a3,0x1
    52fc:	40d406b3          	sub	a3,s0,a3
    5300:	48a6b023          	sd	a0,1152(a3) # 1480 <.LBB81_4+0x2a8>
    5304:	f9043683          	ld	a3,-112(s0)
    5308:	00055463          	bgez	a0,5310 <.LBB81_230>
    530c:	c00005b7          	lui	a1,0xc0000

0000000000005310 <.LBB81_230>:
    5310:	f8d43823          	sd	a3,-112(s0)
    5314:	00001537          	lui	a0,0x1
    5318:	40a40533          	sub	a0,s0,a0
    531c:	46b53c23          	sd	a1,1144(a0) # 1478 <.LBB81_4+0x2a0>
