
code.o:     file format elf64-littleriscv


Disassembly of section .text.main_dispatch_8_pooling_nhwc_sum_1x112x112x32x3x3_i8xi32xi32:

0000000000000000 <main_dispatch_8_pooling_nhwc_sum_1x112x112x32x3x3_i8xi32xi32>:
   0:	f1501173          	csrrw	sp,0xf15,zero

0000000000000004 <.Lfunc_begin8>:
   4:	e6010113          	addi	sp,sp,-416
   8:	18113c23          	sd	ra,408(sp)
   c:	18813823          	sd	s0,400(sp)
  10:	18913423          	sd	s1,392(sp)
  14:	19213023          	sd	s2,384(sp)
  18:	17313c23          	sd	s3,376(sp)
  1c:	17413823          	sd	s4,368(sp)
  20:	17513423          	sd	s5,360(sp)
  24:	17613023          	sd	s6,352(sp)
  28:	15713c23          	sd	s7,344(sp)
  2c:	15813823          	sd	s8,336(sp)
  30:	15913423          	sd	s9,328(sp)
  34:	15a13023          	sd	s10,320(sp)
  38:	13b13c23          	sd	s11,312(sp)
  3c:	1a010413          	addi	s0,sp,416
  40:	0205b503          	ld	a0,32(a1)
  44:	00000693          	li	a3,0
  48:	00853583          	ld	a1,8(a0)
  4c:	00053503          	ld	a0,0(a0)
  50:	00299637          	lui	a2,0x299
  54:	6006061b          	addiw	a2,a2,1536 # 299600 <.Lfunc_end80+0x270c34>
  58:	00c585b3          	add	a1,a1,a2
  5c:	e6b43423          	sd	a1,-408(s0)
  60:	002345b7          	lui	a1,0x234
  64:	de05859b          	addiw	a1,a1,-544 # 233de0 <.Lfunc_end80+0x20b414>
  68:	00b50bb3          	add	s7,a0,a1

000000000000006c <.LBB8_1>:
  6c:	00000593          	li	a1,0
  70:	00b69513          	slli	a0,a3,0xb
  74:	e6d43c23          	sd	a3,-392(s0)
  78:	00e69613          	slli	a2,a3,0xe
  7c:	40a60633          	sub	a2,a2,a0
  80:	e6843503          	ld	a0,-408(s0)
  84:	00c50533          	add	a0,a0,a2
  88:	e8a43023          	sd	a0,-384(s0)
  8c:	e7743823          	sd	s7,-400(s0)

0000000000000090 <.LBB8_2>:
  90:	00000513          	li	a0,0
  94:	e8b43423          	sd	a1,-376(s0)
  98:	00759593          	slli	a1,a1,0x7
  9c:	e8043603          	ld	a2,-384(s0)
  a0:	00b605b3          	add	a1,a2,a1
  a4:	08058613          	addi	a2,a1,128
  a8:	eac43423          	sd	a2,-344(s0)
  ac:	10058613          	addi	a2,a1,256
  b0:	eac43023          	sd	a2,-352(s0)
  b4:	eab43823          	sd	a1,-336(s0)
  b8:	18058593          	addi	a1,a1,384
  bc:	e8b43c23          	sd	a1,-360(s0)
  c0:	e9743823          	sd	s7,-368(s0)

00000000000000c4 <.LBB8_3>:
  c4:	00000913          	li	s2,0
  c8:	00000c93          	li	s9,0
  cc:	00000493          	li	s1,0
  d0:	00000d13          	li	s10,0
  d4:	00000093          	li	ra,0
  d8:	00000993          	li	s3,0
  dc:	00000a13          	li	s4,0
  e0:	00000a93          	li	s5,0
  e4:	00000893          	li	a7,0
  e8:	00000f13          	li	t5,0
  ec:	00000d93          	li	s11,0
  f0:	f8043023          	sd	zero,-128(s0)
  f4:	f6043c23          	sd	zero,-136(s0)
  f8:	f6043823          	sd	zero,-144(s0)
  fc:	f4043823          	sd	zero,-176(s0)
 100:	f4043423          	sd	zero,-184(s0)
 104:	f8043823          	sd	zero,-112(s0)
 108:	f6043423          	sd	zero,-152(s0)
 10c:	f4043023          	sd	zero,-192(s0)
 110:	f6043023          	sd	zero,-160(s0)
 114:	f8043423          	sd	zero,-120(s0)
 118:	f4043c23          	sd	zero,-168(s0)
 11c:	00000393          	li	t2,0
 120:	00000e93          	li	t4,0
 124:	00000c13          	li	s8,0
 128:	00000293          	li	t0,0
 12c:	00000f93          	li	t6,0
 130:	00000813          	li	a6,0
 134:	00000713          	li	a4,0
 138:	00000e13          	li	t3,0
 13c:	00000313          	li	t1,0
 140:	00000793          	li	a5,0
 144:	eaa43c23          	sd	a0,-328(s0)
 148:	ffd00b13          	li	s6,-3
 14c:	ed743023          	sd	s7,-320(s0)

0000000000000150 <.LBB8_4>:
 150:	edd43823          	sd	t4,-304(s0)
 154:	ec543c23          	sd	t0,-296(s0)
 158:	efc43423          	sd	t3,-280(s0)
 15c:	f1843023          	sd	s8,-256(s0)
 160:	f1043c23          	sd	a6,-232(s0)
 164:	f3f43023          	sd	t6,-224(s0)
 168:	f2f43423          	sd	a5,-216(s0)
 16c:	f2e43823          	sd	a4,-208(s0)
 170:	f2643c23          	sd	t1,-200(s0)
 174:	fa2b8503          	lb	a0,-94(s7)
 178:	00a484b3          	add	s1,s1,a0
 17c:	fa1b8503          	lb	a0,-95(s7)
 180:	fa0b8583          	lb	a1,-96(s7)
 184:	fa3b8683          	lb	a3,-93(s7)
 188:	fa4b8703          	lb	a4,-92(s7)
 18c:	00ac8fb3          	add	t6,s9,a0
 190:	00b90333          	add	t1,s2,a1
 194:	00dd06b3          	add	a3,s10,a3
 198:	00e08933          	add	s2,ra,a4
 19c:	fa7b8503          	lb	a0,-89(s7)
 1a0:	fa5b8703          	lb	a4,-91(s7)
 1a4:	fa6b8783          	lb	a5,-90(s7)
 1a8:	fc0b8803          	lb	a6,-64(s7)
 1ac:	fe0b8583          	lb	a1,-32(s7)
 1b0:	00e989b3          	add	s3,s3,a4
 1b4:	00fa0a33          	add	s4,s4,a5
 1b8:	00aa8ab3          	add	s5,s5,a0
 1bc:	01058833          	add	a6,a1,a6
 1c0:	000b8c03          	lb	s8,0(s7)
 1c4:	fc1b8703          	lb	a4,-63(s7)
 1c8:	fe1b8503          	lb	a0,-31(s7)
 1cc:	00680333          	add	t1,a6,t1
 1d0:	f0643423          	sd	t1,-248(s0)
 1d4:	018887b3          	add	a5,a7,s8
 1d8:	00f807b3          	add	a5,a6,a5
 1dc:	f0f43823          	sd	a5,-240(s0)
 1e0:	00e507b3          	add	a5,a0,a4
 1e4:	001b8c83          	lb	s9,1(s7)
 1e8:	fc2b8803          	lb	a6,-62(s7)
 1ec:	fe2b8703          	lb	a4,-30(s7)
 1f0:	01f78fb3          	add	t6,a5,t6
 1f4:	eff43823          	sd	t6,-272(s0)
 1f8:	019f0f33          	add	t5,t5,s9
 1fc:	01e787b3          	add	a5,a5,t5
 200:	eef43c23          	sd	a5,-264(s0)
 204:	01070833          	add	a6,a4,a6
 208:	002b8d03          	lb	s10,2(s7)
 20c:	fc3b8f03          	lb	t5,-61(s7)
 210:	fe3b8783          	lb	a5,-29(s7)
 214:	009804b3          	add	s1,a6,s1
 218:	ec943423          	sd	s1,-312(s0)
 21c:	01ad8eb3          	add	t4,s11,s10
 220:	01d80833          	add	a6,a6,t4
 224:	ef043023          	sd	a6,-288(s0)
 228:	01e78833          	add	a6,a5,t5
 22c:	003b8d83          	lb	s11,3(s7)
 230:	fc4b8083          	lb	ra,-60(s7)
 234:	fe4b8883          	lb	a7,-28(s7)
 238:	00d80f33          	add	t5,a6,a3
 23c:	f8043683          	ld	a3,-128(s0)
 240:	01b686b3          	add	a3,a3,s11
 244:	00d806b3          	add	a3,a6,a3
 248:	f8d43023          	sd	a3,-128(s0)
 24c:	001886b3          	add	a3,a7,ra
 250:	004b8603          	lb	a2,4(s7)
 254:	fc5b8803          	lb	a6,-59(s7)
 258:	fe5b8283          	lb	t0,-27(s7)
 25c:	01268933          	add	s2,a3,s2
 260:	f7843083          	ld	ra,-136(s0)
 264:	00c080b3          	add	ra,ra,a2
 268:	001686b3          	add	a3,a3,ra
 26c:	f6d43c23          	sd	a3,-136(s0)
 270:	01028833          	add	a6,t0,a6
 274:	005b8e03          	lb	t3,5(s7)
 278:	fc6b8083          	lb	ra,-58(s7)
 27c:	00038493          	mv	s1,t2
 280:	fe6b8383          	lb	t2,-26(s7)
 284:	013809b3          	add	s3,a6,s3
 288:	f7043683          	ld	a3,-144(s0)
 28c:	01c686b3          	add	a3,a3,t3
 290:	00d806b3          	add	a3,a6,a3
 294:	f6d43823          	sd	a3,-144(s0)
 298:	001380b3          	add	ra,t2,ra
 29c:	006b8303          	lb	t1,6(s7)
 2a0:	01408a33          	add	s4,ra,s4
 2a4:	fc7b8683          	lb	a3,-57(s7)
 2a8:	fe7b8e83          	lb	t4,-25(s7)
 2ac:	f5043803          	ld	a6,-176(s0)
 2b0:	00680833          	add	a6,a6,t1
 2b4:	007b8f83          	lb	t6,7(s7)
 2b8:	01008833          	add	a6,ra,a6
 2bc:	f5043823          	sd	a6,-176(s0)
 2c0:	00de86b3          	add	a3,t4,a3
 2c4:	01568ab3          	add	s5,a3,s5
 2c8:	f4843803          	ld	a6,-184(s0)
 2cc:	01f80833          	add	a6,a6,t6
 2d0:	020b8083          	lb	ra,32(s7)
 2d4:	010686b3          	add	a3,a3,a6
 2d8:	f4d43423          	sd	a3,-184(s0)
 2dc:	00bc05b3          	add	a1,s8,a1
 2e0:	021b8683          	lb	a3,33(s7)
 2e4:	f9043803          	ld	a6,-112(s0)
 2e8:	00180833          	add	a6,a6,ra
 2ec:	010585b3          	add	a1,a1,a6
 2f0:	f8b43823          	sd	a1,-112(s0)
 2f4:	00ac8533          	add	a0,s9,a0
 2f8:	f6843583          	ld	a1,-152(s0)
 2fc:	00d585b3          	add	a1,a1,a3
 300:	022b8803          	lb	a6,34(s7)
 304:	00b50533          	add	a0,a0,a1
 308:	f6a43423          	sd	a0,-152(s0)
 30c:	00ed0733          	add	a4,s10,a4
 310:	023b8503          	lb	a0,35(s7)
 314:	f4043583          	ld	a1,-192(s0)
 318:	010585b3          	add	a1,a1,a6
 31c:	00b705b3          	add	a1,a4,a1
 320:	f4b43023          	sd	a1,-192(s0)
 324:	00fd87b3          	add	a5,s11,a5
 328:	f6043583          	ld	a1,-160(s0)
 32c:	00a585b3          	add	a1,a1,a0
 330:	024b8703          	lb	a4,36(s7)
 334:	00b785b3          	add	a1,a5,a1
 338:	f6b43023          	sd	a1,-160(s0)
 33c:	011608b3          	add	a7,a2,a7
 340:	025b8583          	lb	a1,37(s7)
 344:	f8843783          	ld	a5,-120(s0)
 348:	00e787b3          	add	a5,a5,a4
 34c:	00f887b3          	add	a5,a7,a5
 350:	f8f43423          	sd	a5,-120(s0)
 354:	005e02b3          	add	t0,t3,t0
 358:	f5843783          	ld	a5,-168(s0)
 35c:	00b787b3          	add	a5,a5,a1
 360:	026b8883          	lb	a7,38(s7)
 364:	00f287b3          	add	a5,t0,a5
 368:	f4f43c23          	sd	a5,-168(s0)
 36c:	007303b3          	add	t2,t1,t2
 370:	027b8783          	lb	a5,39(s7)
 374:	011482b3          	add	t0,s1,a7
 378:	ec843483          	ld	s1,-312(s0)
 37c:	005383b3          	add	t2,t2,t0
 380:	01df8eb3          	add	t4,t6,t4
 384:	ed043283          	ld	t0,-304(s0)
 388:	00f282b3          	add	t0,t0,a5
 38c:	005e8eb3          	add	t4,t4,t0
 390:	01808c33          	add	s8,ra,s8
 394:	00090093          	mv	ra,s2
 398:	019686b3          	add	a3,a3,s9
 39c:	ef043c83          	ld	s9,-272(s0)
 3a0:	01a80833          	add	a6,a6,s10
 3a4:	000f0d13          	mv	s10,t5
 3a8:	01b50533          	add	a0,a0,s11
 3ac:	ee043d83          	ld	s11,-288(s0)
 3b0:	00c70633          	add	a2,a4,a2
 3b4:	01c585b3          	add	a1,a1,t3
 3b8:	040b8703          	lb	a4,64(s7)
 3bc:	006888b3          	add	a7,a7,t1
 3c0:	01f787b3          	add	a5,a5,t6
 3c4:	041b8283          	lb	t0,65(s7)
 3c8:	f0043303          	ld	t1,-256(s0)
 3cc:	00e30733          	add	a4,t1,a4
 3d0:	00ec0c33          	add	s8,s8,a4
 3d4:	042b8703          	lb	a4,66(s7)
 3d8:	ed843303          	ld	t1,-296(s0)
 3dc:	005302b3          	add	t0,t1,t0
 3e0:	ef843f03          	ld	t5,-264(s0)
 3e4:	005682b3          	add	t0,a3,t0
 3e8:	043b8683          	lb	a3,67(s7)
 3ec:	f2043303          	ld	t1,-224(s0)
 3f0:	00e30733          	add	a4,t1,a4
 3f4:	00e80fb3          	add	t6,a6,a4
 3f8:	044b8703          	lb	a4,68(s7)
 3fc:	f1843803          	ld	a6,-232(s0)
 400:	00d806b3          	add	a3,a6,a3
 404:	00d50833          	add	a6,a0,a3
 408:	045b8503          	lb	a0,69(s7)
 40c:	f3043683          	ld	a3,-208(s0)
 410:	00e68733          	add	a4,a3,a4
 414:	00e60733          	add	a4,a2,a4
 418:	046b8603          	lb	a2,70(s7)
 41c:	ee843683          	ld	a3,-280(s0)
 420:	00a68533          	add	a0,a3,a0
 424:	f0843903          	ld	s2,-248(s0)
 428:	047b8683          	lb	a3,71(s7)
 42c:	00a58e33          	add	t3,a1,a0
 430:	f3843503          	ld	a0,-200(s0)
 434:	00c50633          	add	a2,a0,a2
 438:	00c88333          	add	t1,a7,a2
 43c:	f1043883          	ld	a7,-240(s0)
 440:	f2843503          	ld	a0,-216(s0)
 444:	00d506b3          	add	a3,a0,a3
 448:	00d787b3          	add	a5,a5,a3
 44c:	7ffb8513          	addi	a0,s7,2047
 450:	001b0b13          	addi	s6,s6,1
 454:	64150b93          	addi	s7,a0,1601
 458:	ce0b1ce3          	bnez	s6,150 <.LBB8_4>
 45c:	eb843603          	ld	a2,-328(s0)
 460:	00261513          	slli	a0,a2,0x2
 464:	eb043583          	ld	a1,-336(s0)
 468:	00a585b3          	add	a1,a1,a0
 46c:	0095a423          	sw	s1,8(a1)
 470:	0195a223          	sw	s9,4(a1)
 474:	0125a023          	sw	s2,0(a1)
 478:	01a5a623          	sw	s10,12(a1)
 47c:	0015a823          	sw	ra,16(a1)
 480:	0135aa23          	sw	s3,20(a1)
 484:	0145ac23          	sw	s4,24(a1)
 488:	0155ae23          	sw	s5,28(a1)
 48c:	ea843583          	ld	a1,-344(s0)
 490:	00a585b3          	add	a1,a1,a0
 494:	01b5a423          	sw	s11,8(a1)
 498:	01e5a223          	sw	t5,4(a1)
 49c:	0115a023          	sw	a7,0(a1)
 4a0:	f8043683          	ld	a3,-128(s0)
 4a4:	00d5a623          	sw	a3,12(a1)
 4a8:	f7843683          	ld	a3,-136(s0)
 4ac:	00d5a823          	sw	a3,16(a1)
 4b0:	f7043683          	ld	a3,-144(s0)
 4b4:	00d5aa23          	sw	a3,20(a1)
 4b8:	f5043683          	ld	a3,-176(s0)
 4bc:	00d5ac23          	sw	a3,24(a1)
 4c0:	f4843683          	ld	a3,-184(s0)
 4c4:	00d5ae23          	sw	a3,28(a1)
 4c8:	ea043583          	ld	a1,-352(s0)
 4cc:	00a585b3          	add	a1,a1,a0
 4d0:	f4043683          	ld	a3,-192(s0)
 4d4:	00d5a423          	sw	a3,8(a1)
 4d8:	f6843683          	ld	a3,-152(s0)
 4dc:	00d5a223          	sw	a3,4(a1)
 4e0:	f9043683          	ld	a3,-112(s0)
 4e4:	00d5a023          	sw	a3,0(a1)
 4e8:	f6043683          	ld	a3,-160(s0)
 4ec:	00d5a623          	sw	a3,12(a1)
 4f0:	f8843683          	ld	a3,-120(s0)
 4f4:	00d5a823          	sw	a3,16(a1)
 4f8:	f5843683          	ld	a3,-168(s0)
 4fc:	00d5aa23          	sw	a3,20(a1)
 500:	0075ac23          	sw	t2,24(a1)
 504:	01d5ae23          	sw	t4,28(a1)
 508:	e9843583          	ld	a1,-360(s0)
 50c:	00a58533          	add	a0,a1,a0
 510:	01f52423          	sw	t6,8(a0)
 514:	00552223          	sw	t0,4(a0)
 518:	01852023          	sw	s8,0(a0)
 51c:	01052623          	sw	a6,12(a0)
 520:	00e52823          	sw	a4,16(a0)
 524:	01c52a23          	sw	t3,20(a0)
 528:	00652c23          	sw	t1,24(a0)
 52c:	00f52e23          	sw	a5,28(a0)
 530:	00860513          	addi	a0,a2,8
 534:	ec043b83          	ld	s7,-320(s0)
 538:	008b8b93          	addi	s7,s7,8
 53c:	01800593          	li	a1,24
 540:	b8b662e3          	bltu	a2,a1,c4 <.LBB8_3>
 544:	e8843603          	ld	a2,-376(s0)
 548:	00460593          	addi	a1,a2,4
 54c:	e9043b83          	ld	s7,-368(s0)
 550:	080b8b93          	addi	s7,s7,128
 554:	06c00513          	li	a0,108
 558:	b2a66ce3          	bltu	a2,a0,90 <.LBB8_2>
 55c:	e7843683          	ld	a3,-392(s0)
 560:	00168693          	addi	a3,a3,1
 564:	e7043503          	ld	a0,-400(s0)
 568:	7ff50513          	addi	a0,a0,2047
 56c:	64150b93          	addi	s7,a0,1601
 570:	07000513          	li	a0,112
 574:	aea69ce3          	bne	a3,a0,6c <.LBB8_1>
 578:	00000513          	li	a0,0
 57c:	19813083          	ld	ra,408(sp)
 580:	19013403          	ld	s0,400(sp)
 584:	18813483          	ld	s1,392(sp)
 588:	18013903          	ld	s2,384(sp)
 58c:	17813983          	ld	s3,376(sp)
 590:	17013a03          	ld	s4,368(sp)
 594:	16813a83          	ld	s5,360(sp)
 598:	16013b03          	ld	s6,352(sp)
 59c:	15813b83          	ld	s7,344(sp)
 5a0:	15013c03          	ld	s8,336(sp)
 5a4:	14813c83          	ld	s9,328(sp)
 5a8:	14013d03          	ld	s10,320(sp)
 5ac:	13813d83          	ld	s11,312(sp)
 5b0:	1a010113          	addi	sp,sp,416
 5b4:	00008067          	ret
