
code.o:     file format elf64-littleriscv


Disassembly of section .text.main_dispatch_51_matmul_784x192x32_i8xi8xi32:

0000000000000000 <main_dispatch_51_matmul_784x192x32_i8xi8xi32>:
       0:	81010113          	addi	sp,sp,-2032
       4:	7e113423          	sd	ra,2024(sp)
       8:	7e813023          	sd	s0,2016(sp)
       c:	7c913c23          	sd	s1,2008(sp)
      10:	7d213823          	sd	s2,2000(sp)
      14:	7d313423          	sd	s3,1992(sp)
      18:	7d413023          	sd	s4,1984(sp)
      1c:	7b513c23          	sd	s5,1976(sp)
      20:	7b613823          	sd	s6,1968(sp)
      24:	7b713423          	sd	s7,1960(sp)
      28:	7b813023          	sd	s8,1952(sp)
      2c:	79913c23          	sd	s9,1944(sp)
      30:	79a13823          	sd	s10,1936(sp)
      34:	79b13423          	sd	s11,1928(sp)
      38:	7f010413          	addi	s0,sp,2032
      3c:	80010113          	addi	sp,sp,-2048
      40:	ce010113          	addi	sp,sp,-800
      44:	0205b583          	ld	a1,32(a1)
      48:	00000513          	li	a0,0
      4c:	0085b603          	ld	a2,8(a1)
      50:	0005b683          	ld	a3,0(a1)
      54:	0002e737          	lui	a4,0x2e
      58:	8807071b          	addiw	a4,a4,-1920 # 2d880 <.Lfunc_end80+0x4eb8>
      5c:	00e60733          	add	a4,a2,a4
      60:	000017b7          	lui	a5,0x1
      64:	40f407b3          	sub	a5,s0,a5
      68:	d0e7b023          	sd	a4,-768(a5) # d00 <.LBB46_3+0xad0>
      6c:	0001e737          	lui	a4,0x1e
      70:	3807071b          	addiw	a4,a4,896 # 1e380 <.LBB77_3708>
      74:	00e60733          	add	a4,a2,a4
      78:	000017b7          	lui	a5,0x1
      7c:	40f407b3          	sub	a5,s0,a5
      80:	d2e7b423          	sd	a4,-728(a5) # d28 <.LBB46_3+0xaf8>
      84:	00006737          	lui	a4,0x6
      88:	2007071b          	addiw	a4,a4,512 # 6200 <.LBB46_316+0x24>
      8c:	00e68733          	add	a4,a3,a4
      90:	000017b7          	lui	a5,0x1
      94:	40f407b3          	sub	a5,s0,a5
      98:	cee7bc23          	sd	a4,-776(a5) # cf8 <.LBB46_3+0xac8>
      9c:	0002f737          	lui	a4,0x2f
      a0:	0807071b          	addiw	a4,a4,128 # 2f080 <.Lfunc_end80+0x66b8>
      a4:	0105b583          	ld	a1,16(a1)
      a8:	00e60633          	add	a2,a2,a4
      ac:	00001737          	lui	a4,0x1
      b0:	40e40733          	sub	a4,s0,a4
      b4:	d2c73023          	sd	a2,-736(a4) # d20 <.LBB46_3+0xaf0>
      b8:	00007637          	lui	a2,0x7
      bc:	e406061b          	addiw	a2,a2,-448 # 6e40 <.LBB46_428+0x10>
      c0:	00c585b3          	add	a1,a1,a2
      c4:	00001637          	lui	a2,0x1
      c8:	40c40633          	sub	a2,s0,a2
      cc:	ceb63823          	sd	a1,-784(a2) # cf0 <.LBB46_3+0xac0>
      d0:	08068593          	addi	a1,a3,128
      d4:	00001637          	lui	a2,0x1
      d8:	40c40633          	sub	a2,s0,a2
      dc:	d6b63823          	sd	a1,-656(a2) # d70 <.LBB46_3+0xb40>
      e0:	00300593          	li	a1,3
      e4:	00b59593          	slli	a1,a1,0xb
      e8:	00001637          	lui	a2,0x1
      ec:	40c40633          	sub	a2,s0,a2
      f0:	d0b63c23          	sd	a1,-744(a2) # d18 <.LBB46_3+0xae8>
      f4:	6eb435b7          	lui	a1,0x6eb43
      f8:	6c15859b          	addiw	a1,a1,1729 # 6eb436c1 <.Lfunc_end80+0x6eb1acf9>
      fc:	00001637          	lui	a2,0x1
     100:	40c40633          	sub	a2,s0,a2
     104:	d0b63823          	sd	a1,-752(a2) # d10 <.LBB46_3+0xae0>
     108:	00100593          	li	a1,1
     10c:	02359593          	slli	a1,a1,0x23
     110:	00001637          	lui	a2,0x1
     114:	40c40633          	sub	a2,s0,a2
     118:	64b63c23          	sd	a1,1624(a2) # 1658 <.LBB46_4+0x4d4>
     11c:	03c0006f          	j	158 <.LBB46_2>

0000000000000120 <.LBB46_1>:
     120:	00001537          	lui	a0,0x1
     124:	40a40533          	sub	a0,s0,a0
     128:	d0853603          	ld	a2,-760(a0) # d08 <.LBB46_3+0xad8>
     12c:	00860513          	addi	a0,a2,8
     130:	000015b7          	lui	a1,0x1
     134:	40b405b3          	sub	a1,s0,a1
     138:	d705b583          	ld	a1,-656(a1) # d70 <.LBB46_3+0xb40>
     13c:	10058593          	addi	a1,a1,256
     140:	000016b7          	lui	a3,0x1
     144:	40d406b3          	sub	a3,s0,a3
     148:	d6b6b823          	sd	a1,-656(a3) # d70 <.LBB46_3+0xb40>
     14c:	30800593          	li	a1,776
     150:	00b66463          	bltu	a2,a1,158 <.LBB46_2>
     154:	21c0b06f          	j	b370 <.LBB46_1030>

0000000000000158 <.LBB46_2>:
     158:	00000593          	li	a1,0
     15c:	00050693          	mv	a3,a0
     160:	00251513          	slli	a0,a0,0x2
     164:	00001637          	lui	a2,0x1
     168:	40c40633          	sub	a2,s0,a2
     16c:	cf863603          	ld	a2,-776(a2) # cf8 <.LBB46_3+0xac8>
     170:	00a60533          	add	a0,a2,a0
     174:	00001637          	lui	a2,0x1
     178:	40c40633          	sub	a2,s0,a2
     17c:	66a63023          	sd	a0,1632(a2) # 1660 <.LBB46_4+0x4dc>
     180:	0c000513          	li	a0,192
     184:	00001637          	lui	a2,0x1
     188:	40c40633          	sub	a2,s0,a2
     18c:	d0d63423          	sd	a3,-760(a2) # d08 <.LBB46_3+0xad8>
     190:	02a68533          	mul	a0,a3,a0
     194:	00001637          	lui	a2,0x1
     198:	40c40633          	sub	a2,s0,a2
     19c:	cf063603          	ld	a2,-784(a2) # cf0 <.LBB46_3+0xac0>
     1a0:	00a60533          	add	a0,a2,a0
     1a4:	0c050613          	addi	a2,a0,192
     1a8:	000016b7          	lui	a3,0x1
     1ac:	40d406b3          	sub	a3,s0,a3
     1b0:	d6c6b023          	sd	a2,-672(a3) # d60 <.LBB46_3+0xb30>
     1b4:	18050613          	addi	a2,a0,384
     1b8:	000016b7          	lui	a3,0x1
     1bc:	40d406b3          	sub	a3,s0,a3
     1c0:	d4c6bc23          	sd	a2,-680(a3) # d58 <.LBB46_3+0xb28>
     1c4:	24050613          	addi	a2,a0,576
     1c8:	000016b7          	lui	a3,0x1
     1cc:	40d406b3          	sub	a3,s0,a3
     1d0:	d4c6b823          	sd	a2,-688(a3) # d50 <.LBB46_3+0xb20>
     1d4:	30050613          	addi	a2,a0,768
     1d8:	000016b7          	lui	a3,0x1
     1dc:	40d406b3          	sub	a3,s0,a3
     1e0:	d4c6b423          	sd	a2,-696(a3) # d48 <.LBB46_3+0xb18>
     1e4:	3c050613          	addi	a2,a0,960
     1e8:	000016b7          	lui	a3,0x1
     1ec:	40d406b3          	sub	a3,s0,a3
     1f0:	d4c6b023          	sd	a2,-704(a3) # d40 <.LBB46_3+0xb10>
     1f4:	48050613          	addi	a2,a0,1152
     1f8:	000016b7          	lui	a3,0x1
     1fc:	40d406b3          	sub	a3,s0,a3
     200:	d2c6bc23          	sd	a2,-712(a3) # d38 <.LBB46_3+0xb08>
     204:	00001637          	lui	a2,0x1
     208:	40c40633          	sub	a2,s0,a2
     20c:	d6a63423          	sd	a0,-664(a2) # d68 <.LBB46_3+0xb38>
     210:	54050513          	addi	a0,a0,1344
     214:	00001637          	lui	a2,0x1
     218:	40c40633          	sub	a2,s0,a2
     21c:	d2a63823          	sd	a0,-720(a2) # d30 <.LBB46_3+0xb00>
     220:	00001537          	lui	a0,0x1
     224:	40a40533          	sub	a0,s0,a0
     228:	d0053603          	ld	a2,-768(a0) # d00 <.LBB46_3+0xad0>
     22c:	7590006f          	j	1184 <.LBB46_4>

0000000000000230 <.LBB46_3>:
     230:	080d4c93          	xori	s9,s10,128
     234:	00001c37          	lui	s8,0x1
     238:	41840c33          	sub	s8,s0,s8
     23c:	d68c3c03          	ld	s8,-664(s8) # d68 <.LBB46_3+0xb38>
     240:	00001d37          	lui	s10,0x1
     244:	41a40d33          	sub	s10,s0,s10
     248:	668d3d03          	ld	s10,1640(s10) # 1668 <.LBB46_4+0x4e4>
     24c:	01ac0c33          	add	s8,s8,s10
     250:	019c01a3          	sb	s9,3(s8)
     254:	f8843c83          	ld	s9,-120(s0)
     258:	080ccc93          	xori	s9,s9,128
     25c:	019c0123          	sb	s9,2(s8)
     260:	f8043c83          	ld	s9,-128(s0)
     264:	080ccc93          	xori	s9,s9,128
     268:	019c00a3          	sb	s9,1(s8)
     26c:	f7843c83          	ld	s9,-136(s0)
     270:	080ccc93          	xori	s9,s9,128
     274:	019c0023          	sb	s9,0(s8)
     278:	f7043c83          	ld	s9,-144(s0)
     27c:	080ccc93          	xori	s9,s9,128
     280:	019c0223          	sb	s9,4(s8)
     284:	f6843c83          	ld	s9,-152(s0)
     288:	080ccc93          	xori	s9,s9,128
     28c:	019c02a3          	sb	s9,5(s8)
     290:	f6043c83          	ld	s9,-160(s0)
     294:	080ccc93          	xori	s9,s9,128
     298:	019c0323          	sb	s9,6(s8)
     29c:	f5843c83          	ld	s9,-168(s0)
     2a0:	080ccc93          	xori	s9,s9,128
     2a4:	019c03a3          	sb	s9,7(s8)
     2a8:	f5043c83          	ld	s9,-176(s0)
     2ac:	080ccc93          	xori	s9,s9,128
     2b0:	019c0423          	sb	s9,8(s8)
     2b4:	f4843c83          	ld	s9,-184(s0)
     2b8:	080ccc93          	xori	s9,s9,128
     2bc:	019c04a3          	sb	s9,9(s8)
     2c0:	f4043c83          	ld	s9,-192(s0)
     2c4:	080ccc93          	xori	s9,s9,128
     2c8:	019c0523          	sb	s9,10(s8)
     2cc:	f3843c83          	ld	s9,-200(s0)
     2d0:	080ccc93          	xori	s9,s9,128
     2d4:	019c05a3          	sb	s9,11(s8)
     2d8:	f3043c83          	ld	s9,-208(s0)
     2dc:	080ccc93          	xori	s9,s9,128
     2e0:	019c0623          	sb	s9,12(s8)
     2e4:	f2843c83          	ld	s9,-216(s0)
     2e8:	080ccc93          	xori	s9,s9,128
     2ec:	019c06a3          	sb	s9,13(s8)
     2f0:	f2043c83          	ld	s9,-224(s0)
     2f4:	080ccc93          	xori	s9,s9,128
     2f8:	019c0723          	sb	s9,14(s8)
     2fc:	f1843c83          	ld	s9,-232(s0)
     300:	080ccc93          	xori	s9,s9,128
     304:	019c07a3          	sb	s9,15(s8)
     308:	f1043c83          	ld	s9,-240(s0)
     30c:	080ccc93          	xori	s9,s9,128
     310:	019c0823          	sb	s9,16(s8)
     314:	f0843c83          	ld	s9,-248(s0)
     318:	080ccc93          	xori	s9,s9,128
     31c:	019c08a3          	sb	s9,17(s8)
     320:	f0043c83          	ld	s9,-256(s0)
     324:	080ccc93          	xori	s9,s9,128
     328:	019c0923          	sb	s9,18(s8)
     32c:	ef843c83          	ld	s9,-264(s0)
     330:	080ccc93          	xori	s9,s9,128
     334:	019c09a3          	sb	s9,19(s8)
     338:	ef043c83          	ld	s9,-272(s0)
     33c:	080ccc93          	xori	s9,s9,128
     340:	019c0a23          	sb	s9,20(s8)
     344:	ee043c83          	ld	s9,-288(s0)
     348:	080ccc93          	xori	s9,s9,128
     34c:	019c0aa3          	sb	s9,21(s8)
     350:	ed843c83          	ld	s9,-296(s0)
     354:	080ccc93          	xori	s9,s9,128
     358:	019c0b23          	sb	s9,22(s8)
     35c:	ed043c83          	ld	s9,-304(s0)
     360:	080ccc93          	xori	s9,s9,128
     364:	019c0ba3          	sb	s9,23(s8)
     368:	ea843c83          	ld	s9,-344(s0)
     36c:	080ccc93          	xori	s9,s9,128
     370:	019c0c23          	sb	s9,24(s8)
     374:	e7843c83          	ld	s9,-392(s0)
     378:	080ccc93          	xori	s9,s9,128
     37c:	019c0ca3          	sb	s9,25(s8)
     380:	e5843c83          	ld	s9,-424(s0)
     384:	080ccc93          	xori	s9,s9,128
     388:	019c0d23          	sb	s9,26(s8)
     38c:	e4043c83          	ld	s9,-448(s0)
     390:	080ccc93          	xori	s9,s9,128
     394:	019c0da3          	sb	s9,27(s8)
     398:	e3843c83          	ld	s9,-456(s0)
     39c:	080ccc93          	xori	s9,s9,128
     3a0:	019c0e23          	sb	s9,28(s8)
     3a4:	e3043c83          	ld	s9,-464(s0)
     3a8:	080ccc93          	xori	s9,s9,128
     3ac:	019c0ea3          	sb	s9,29(s8)
     3b0:	e2843c83          	ld	s9,-472(s0)
     3b4:	080ccc93          	xori	s9,s9,128
     3b8:	019c0f23          	sb	s9,30(s8)
     3bc:	e2043c83          	ld	s9,-480(s0)
     3c0:	080ccc93          	xori	s9,s9,128
     3c4:	019c0fa3          	sb	s9,31(s8)
     3c8:	e1843c03          	ld	s8,-488(s0)
     3cc:	080c4c93          	xori	s9,s8,128
     3d0:	00001c37          	lui	s8,0x1
     3d4:	41840c33          	sub	s8,s0,s8
     3d8:	d60c3c03          	ld	s8,-672(s8) # d60 <.LBB46_3+0xb30>
     3dc:	01ac0c33          	add	s8,s8,s10
     3e0:	019c01a3          	sb	s9,3(s8)
     3e4:	e1043c83          	ld	s9,-496(s0)
     3e8:	080ccc93          	xori	s9,s9,128
     3ec:	019c0123          	sb	s9,2(s8)
     3f0:	e0843c83          	ld	s9,-504(s0)
     3f4:	080ccc93          	xori	s9,s9,128
     3f8:	019c00a3          	sb	s9,1(s8)
     3fc:	e0043c83          	ld	s9,-512(s0)
     400:	080ccc93          	xori	s9,s9,128
     404:	019c0023          	sb	s9,0(s8)
     408:	c0843c83          	ld	s9,-1016(s0)
     40c:	080ccc93          	xori	s9,s9,128
     410:	019c0223          	sb	s9,4(s8)
     414:	bc043c83          	ld	s9,-1088(s0)
     418:	080ccc93          	xori	s9,s9,128
     41c:	019c02a3          	sb	s9,5(s8)
     420:	b8043c83          	ld	s9,-1152(s0)
     424:	080ccc93          	xori	s9,s9,128
     428:	019c0323          	sb	s9,6(s8)
     42c:	b3043c83          	ld	s9,-1232(s0)
     430:	080ccc93          	xori	s9,s9,128
     434:	019c03a3          	sb	s9,7(s8)
     438:	ae043c83          	ld	s9,-1312(s0)
     43c:	080ccc93          	xori	s9,s9,128
     440:	019c0423          	sb	s9,8(s8)
     444:	aa043c83          	ld	s9,-1376(s0)
     448:	080ccc93          	xori	s9,s9,128
     44c:	019c04a3          	sb	s9,9(s8)
     450:	a5843c83          	ld	s9,-1448(s0)
     454:	080ccc93          	xori	s9,s9,128
     458:	019c0523          	sb	s9,10(s8)
     45c:	a1843c83          	ld	s9,-1512(s0)
     460:	080ccc93          	xori	s9,s9,128
     464:	019c05a3          	sb	s9,11(s8)
     468:	9d843c83          	ld	s9,-1576(s0)
     46c:	080ccc93          	xori	s9,s9,128
     470:	019c0623          	sb	s9,12(s8)
     474:	99043c83          	ld	s9,-1648(s0)
     478:	080ccc93          	xori	s9,s9,128
     47c:	019c06a3          	sb	s9,13(s8)
     480:	95043c83          	ld	s9,-1712(s0)
     484:	080ccc93          	xori	s9,s9,128
     488:	019c0723          	sb	s9,14(s8)
     48c:	91843c83          	ld	s9,-1768(s0)
     490:	080ccc93          	xori	s9,s9,128
     494:	019c07a3          	sb	s9,15(s8)
     498:	8d043c83          	ld	s9,-1840(s0)
     49c:	080ccc93          	xori	s9,s9,128
     4a0:	019c0823          	sb	s9,16(s8)
     4a4:	89043c83          	ld	s9,-1904(s0)
     4a8:	080ccc93          	xori	s9,s9,128
     4ac:	019c08a3          	sb	s9,17(s8)
     4b0:	85043c83          	ld	s9,-1968(s0)
     4b4:	080ccc93          	xori	s9,s9,128
     4b8:	019c0923          	sb	s9,18(s8)
     4bc:	80843c83          	ld	s9,-2040(s0)
     4c0:	080ccc93          	xori	s9,s9,128
     4c4:	019c09a3          	sb	s9,19(s8)
     4c8:	00001cb7          	lui	s9,0x1
     4cc:	41940cb3          	sub	s9,s0,s9
     4d0:	7d0cbc83          	ld	s9,2000(s9) # 17d0 <.LBB46_5+0xb8>
     4d4:	080ccc93          	xori	s9,s9,128
     4d8:	019c0a23          	sb	s9,20(s8)
     4dc:	00001cb7          	lui	s9,0x1
     4e0:	41940cb3          	sub	s9,s0,s9
     4e4:	790cbc83          	ld	s9,1936(s9) # 1790 <.LBB46_5+0x78>
     4e8:	080ccc93          	xori	s9,s9,128
     4ec:	019c0aa3          	sb	s9,21(s8)
     4f0:	00001cb7          	lui	s9,0x1
     4f4:	41940cb3          	sub	s9,s0,s9
     4f8:	788cbc83          	ld	s9,1928(s9) # 1788 <.LBB46_5+0x70>
     4fc:	080ccc93          	xori	s9,s9,128
     500:	019c0b23          	sb	s9,22(s8)
     504:	00001cb7          	lui	s9,0x1
     508:	41940cb3          	sub	s9,s0,s9
     50c:	780cbc83          	ld	s9,1920(s9) # 1780 <.LBB46_5+0x68>
     510:	080ccc93          	xori	s9,s9,128
     514:	019c0ba3          	sb	s9,23(s8)
     518:	00001cb7          	lui	s9,0x1
     51c:	41940cb3          	sub	s9,s0,s9
     520:	778cbc83          	ld	s9,1912(s9) # 1778 <.LBB46_5+0x60>
     524:	080ccc93          	xori	s9,s9,128
     528:	019c0c23          	sb	s9,24(s8)
     52c:	00001cb7          	lui	s9,0x1
     530:	41940cb3          	sub	s9,s0,s9
     534:	770cbc83          	ld	s9,1904(s9) # 1770 <.LBB46_5+0x58>
     538:	080ccc93          	xori	s9,s9,128
     53c:	019c0ca3          	sb	s9,25(s8)
     540:	00001cb7          	lui	s9,0x1
     544:	41940cb3          	sub	s9,s0,s9
     548:	768cbc83          	ld	s9,1896(s9) # 1768 <.LBB46_5+0x50>
     54c:	080ccc93          	xori	s9,s9,128
     550:	019c0d23          	sb	s9,26(s8)
     554:	00001cb7          	lui	s9,0x1
     558:	41940cb3          	sub	s9,s0,s9
     55c:	760cbc83          	ld	s9,1888(s9) # 1760 <.LBB46_5+0x48>
     560:	080ccc93          	xori	s9,s9,128
     564:	019c0da3          	sb	s9,27(s8)
     568:	00001cb7          	lui	s9,0x1
     56c:	41940cb3          	sub	s9,s0,s9
     570:	758cbc83          	ld	s9,1880(s9) # 1758 <.LBB46_5+0x40>
     574:	080ccc93          	xori	s9,s9,128
     578:	019c0e23          	sb	s9,28(s8)
     57c:	00001cb7          	lui	s9,0x1
     580:	41940cb3          	sub	s9,s0,s9
     584:	750cbc83          	ld	s9,1872(s9) # 1750 <.LBB46_5+0x38>
     588:	080ccc93          	xori	s9,s9,128
     58c:	019c0ea3          	sb	s9,29(s8)
     590:	00001cb7          	lui	s9,0x1
     594:	41940cb3          	sub	s9,s0,s9
     598:	748cbc83          	ld	s9,1864(s9) # 1748 <.LBB46_5+0x30>
     59c:	080ccc93          	xori	s9,s9,128
     5a0:	019c0f23          	sb	s9,30(s8)
     5a4:	00001cb7          	lui	s9,0x1
     5a8:	41940cb3          	sub	s9,s0,s9
     5ac:	740cbc83          	ld	s9,1856(s9) # 1740 <.LBB46_5+0x28>
     5b0:	080ccc93          	xori	s9,s9,128
     5b4:	019c0fa3          	sb	s9,31(s8)
     5b8:	00001c37          	lui	s8,0x1
     5bc:	41840c33          	sub	s8,s0,s8
     5c0:	738c3c03          	ld	s8,1848(s8) # 1738 <.LBB46_5+0x20>
     5c4:	080c4c93          	xori	s9,s8,128
     5c8:	00001c37          	lui	s8,0x1
     5cc:	41840c33          	sub	s8,s0,s8
     5d0:	d58c3c03          	ld	s8,-680(s8) # d58 <.LBB46_3+0xb28>
     5d4:	01ac0c33          	add	s8,s8,s10
     5d8:	019c01a3          	sb	s9,3(s8)
     5dc:	00001cb7          	lui	s9,0x1
     5e0:	41940cb3          	sub	s9,s0,s9
     5e4:	730cbc83          	ld	s9,1840(s9) # 1730 <.LBB46_5+0x18>
     5e8:	080ccc93          	xori	s9,s9,128
     5ec:	019c0123          	sb	s9,2(s8)
     5f0:	00001cb7          	lui	s9,0x1
     5f4:	41940cb3          	sub	s9,s0,s9
     5f8:	728cbc83          	ld	s9,1832(s9) # 1728 <.LBB46_5+0x10>
     5fc:	080ccc93          	xori	s9,s9,128
     600:	019c00a3          	sb	s9,1(s8)
     604:	00001cb7          	lui	s9,0x1
     608:	41940cb3          	sub	s9,s0,s9
     60c:	720cbc83          	ld	s9,1824(s9) # 1720 <.LBB46_5+0x8>
     610:	080ccc93          	xori	s9,s9,128
     614:	019c0023          	sb	s9,0(s8)
     618:	00001cb7          	lui	s9,0x1
     61c:	41940cb3          	sub	s9,s0,s9
     620:	718cbc83          	ld	s9,1816(s9) # 1718 <.LBB46_5>
     624:	080ccc93          	xori	s9,s9,128
     628:	019c0223          	sb	s9,4(s8)
     62c:	00001cb7          	lui	s9,0x1
     630:	41940cb3          	sub	s9,s0,s9
     634:	710cbc83          	ld	s9,1808(s9) # 1710 <.LBB46_4+0x58c>
     638:	080ccc93          	xori	s9,s9,128
     63c:	019c02a3          	sb	s9,5(s8)
     640:	00001cb7          	lui	s9,0x1
     644:	41940cb3          	sub	s9,s0,s9
     648:	708cbc83          	ld	s9,1800(s9) # 1708 <.LBB46_4+0x584>
     64c:	080ccc93          	xori	s9,s9,128
     650:	019c0323          	sb	s9,6(s8)
     654:	00001cb7          	lui	s9,0x1
     658:	41940cb3          	sub	s9,s0,s9
     65c:	700cbc83          	ld	s9,1792(s9) # 1700 <.LBB46_4+0x57c>
     660:	080ccc93          	xori	s9,s9,128
     664:	019c03a3          	sb	s9,7(s8)
     668:	00001cb7          	lui	s9,0x1
     66c:	41940cb3          	sub	s9,s0,s9
     670:	6f8cbc83          	ld	s9,1784(s9) # 16f8 <.LBB46_4+0x574>
     674:	080ccc93          	xori	s9,s9,128
     678:	019c0423          	sb	s9,8(s8)
     67c:	00001cb7          	lui	s9,0x1
     680:	41940cb3          	sub	s9,s0,s9
     684:	6f0cbc83          	ld	s9,1776(s9) # 16f0 <.LBB46_4+0x56c>
     688:	080ccc93          	xori	s9,s9,128
     68c:	019c04a3          	sb	s9,9(s8)
     690:	00001cb7          	lui	s9,0x1
     694:	41940cb3          	sub	s9,s0,s9
     698:	6e8cbc83          	ld	s9,1768(s9) # 16e8 <.LBB46_4+0x564>
     69c:	080ccc93          	xori	s9,s9,128
     6a0:	019c0523          	sb	s9,10(s8)
     6a4:	00001cb7          	lui	s9,0x1
     6a8:	41940cb3          	sub	s9,s0,s9
     6ac:	6e0cbc83          	ld	s9,1760(s9) # 16e0 <.LBB46_4+0x55c>
     6b0:	080ccc93          	xori	s9,s9,128
     6b4:	019c05a3          	sb	s9,11(s8)
     6b8:	00001cb7          	lui	s9,0x1
     6bc:	41940cb3          	sub	s9,s0,s9
     6c0:	6d8cbc83          	ld	s9,1752(s9) # 16d8 <.LBB46_4+0x554>
     6c4:	080ccc93          	xori	s9,s9,128
     6c8:	019c0623          	sb	s9,12(s8)
     6cc:	00001cb7          	lui	s9,0x1
     6d0:	41940cb3          	sub	s9,s0,s9
     6d4:	6d0cbc83          	ld	s9,1744(s9) # 16d0 <.LBB46_4+0x54c>
     6d8:	080ccc93          	xori	s9,s9,128
     6dc:	019c06a3          	sb	s9,13(s8)
     6e0:	00001cb7          	lui	s9,0x1
     6e4:	41940cb3          	sub	s9,s0,s9
     6e8:	6c8cbc83          	ld	s9,1736(s9) # 16c8 <.LBB46_4+0x544>
     6ec:	080ccc93          	xori	s9,s9,128
     6f0:	019c0723          	sb	s9,14(s8)
     6f4:	00001cb7          	lui	s9,0x1
     6f8:	41940cb3          	sub	s9,s0,s9
     6fc:	6c0cbc83          	ld	s9,1728(s9) # 16c0 <.LBB46_4+0x53c>
     700:	080ccc93          	xori	s9,s9,128
     704:	019c07a3          	sb	s9,15(s8)
     708:	00001cb7          	lui	s9,0x1
     70c:	41940cb3          	sub	s9,s0,s9
     710:	6b8cbc83          	ld	s9,1720(s9) # 16b8 <.LBB46_4+0x534>
     714:	080ccc93          	xori	s9,s9,128
     718:	019c0823          	sb	s9,16(s8)
     71c:	00001cb7          	lui	s9,0x1
     720:	41940cb3          	sub	s9,s0,s9
     724:	6b0cbc83          	ld	s9,1712(s9) # 16b0 <.LBB46_4+0x52c>
     728:	080ccc93          	xori	s9,s9,128
     72c:	019c08a3          	sb	s9,17(s8)
     730:	00001cb7          	lui	s9,0x1
     734:	41940cb3          	sub	s9,s0,s9
     738:	6a8cbc83          	ld	s9,1704(s9) # 16a8 <.LBB46_4+0x524>
     73c:	080ccc93          	xori	s9,s9,128
     740:	019c0923          	sb	s9,18(s8)
     744:	00001cb7          	lui	s9,0x1
     748:	41940cb3          	sub	s9,s0,s9
     74c:	6a0cbc83          	ld	s9,1696(s9) # 16a0 <.LBB46_4+0x51c>
     750:	080ccc93          	xori	s9,s9,128
     754:	019c09a3          	sb	s9,19(s8)
     758:	00001cb7          	lui	s9,0x1
     75c:	41940cb3          	sub	s9,s0,s9
     760:	690cbc83          	ld	s9,1680(s9) # 1690 <.LBB46_4+0x50c>
     764:	080ccc93          	xori	s9,s9,128
     768:	019c0a23          	sb	s9,20(s8)
     76c:	00001cb7          	lui	s9,0x1
     770:	41940cb3          	sub	s9,s0,s9
     774:	688cbc83          	ld	s9,1672(s9) # 1688 <.LBB46_4+0x504>
     778:	080ccc93          	xori	s9,s9,128
     77c:	019c0aa3          	sb	s9,21(s8)
     780:	00001cb7          	lui	s9,0x1
     784:	41940cb3          	sub	s9,s0,s9
     788:	2c8cbc83          	ld	s9,712(s9) # 12c8 <.LBB46_4+0x144>
     78c:	080ccc93          	xori	s9,s9,128
     790:	019c0b23          	sb	s9,22(s8)
     794:	00001cb7          	lui	s9,0x1
     798:	41940cb3          	sub	s9,s0,s9
     79c:	2d8cbc83          	ld	s9,728(s9) # 12d8 <.LBB46_4+0x154>
     7a0:	080ccc93          	xori	s9,s9,128
     7a4:	019c0ba3          	sb	s9,23(s8)
     7a8:	00001cb7          	lui	s9,0x1
     7ac:	41940cb3          	sub	s9,s0,s9
     7b0:	2e8cbc83          	ld	s9,744(s9) # 12e8 <.LBB46_4+0x164>
     7b4:	080ccc93          	xori	s9,s9,128
     7b8:	019c0c23          	sb	s9,24(s8)
     7bc:	00001cb7          	lui	s9,0x1
     7c0:	41940cb3          	sub	s9,s0,s9
     7c4:	2f8cbc83          	ld	s9,760(s9) # 12f8 <.LBB46_4+0x174>
     7c8:	080ccc93          	xori	s9,s9,128
     7cc:	019c0ca3          	sb	s9,25(s8)
     7d0:	00001cb7          	lui	s9,0x1
     7d4:	41940cb3          	sub	s9,s0,s9
     7d8:	308cbc83          	ld	s9,776(s9) # 1308 <.LBB46_4+0x184>
     7dc:	080ccc93          	xori	s9,s9,128
     7e0:	019c0d23          	sb	s9,26(s8)
     7e4:	00001cb7          	lui	s9,0x1
     7e8:	41940cb3          	sub	s9,s0,s9
     7ec:	318cbc83          	ld	s9,792(s9) # 1318 <.LBB46_4+0x194>
     7f0:	080ccc93          	xori	s9,s9,128
     7f4:	019c0da3          	sb	s9,27(s8)
     7f8:	00001cb7          	lui	s9,0x1
     7fc:	41940cb3          	sub	s9,s0,s9
     800:	328cbc83          	ld	s9,808(s9) # 1328 <.LBB46_4+0x1a4>
     804:	080ccc93          	xori	s9,s9,128
     808:	019c0e23          	sb	s9,28(s8)
     80c:	00001cb7          	lui	s9,0x1
     810:	41940cb3          	sub	s9,s0,s9
     814:	338cbc83          	ld	s9,824(s9) # 1338 <.LBB46_4+0x1b4>
     818:	080ccc93          	xori	s9,s9,128
     81c:	019c0ea3          	sb	s9,29(s8)
     820:	00001cb7          	lui	s9,0x1
     824:	41940cb3          	sub	s9,s0,s9
     828:	348cbc83          	ld	s9,840(s9) # 1348 <.LBB46_4+0x1c4>
     82c:	080ccc93          	xori	s9,s9,128
     830:	019c0f23          	sb	s9,30(s8)
     834:	00001cb7          	lui	s9,0x1
     838:	41940cb3          	sub	s9,s0,s9
     83c:	358cbc83          	ld	s9,856(s9) # 1358 <.LBB46_4+0x1d4>
     840:	080ccc93          	xori	s9,s9,128
     844:	019c0fa3          	sb	s9,31(s8)
     848:	00001c37          	lui	s8,0x1
     84c:	41840c33          	sub	s8,s0,s8
     850:	368c3c03          	ld	s8,872(s8) # 1368 <.LBB46_4+0x1e4>
     854:	080c4c93          	xori	s9,s8,128
     858:	00001c37          	lui	s8,0x1
     85c:	41840c33          	sub	s8,s0,s8
     860:	d50c3c03          	ld	s8,-688(s8) # d50 <.LBB46_3+0xb20>
     864:	01ac0c33          	add	s8,s8,s10
     868:	019c01a3          	sb	s9,3(s8)
     86c:	00001cb7          	lui	s9,0x1
     870:	41940cb3          	sub	s9,s0,s9
     874:	378cbc83          	ld	s9,888(s9) # 1378 <.LBB46_4+0x1f4>
     878:	080ccc93          	xori	s9,s9,128
     87c:	019c0123          	sb	s9,2(s8)
     880:	00001cb7          	lui	s9,0x1
     884:	41940cb3          	sub	s9,s0,s9
     888:	388cbc83          	ld	s9,904(s9) # 1388 <.LBB46_4+0x204>
     88c:	080ccc93          	xori	s9,s9,128
     890:	019c00a3          	sb	s9,1(s8)
     894:	00001cb7          	lui	s9,0x1
     898:	41940cb3          	sub	s9,s0,s9
     89c:	398cbc83          	ld	s9,920(s9) # 1398 <.LBB46_4+0x214>
     8a0:	080ccc93          	xori	s9,s9,128
     8a4:	019c0023          	sb	s9,0(s8)
     8a8:	00001cb7          	lui	s9,0x1
     8ac:	41940cb3          	sub	s9,s0,s9
     8b0:	3a8cbc83          	ld	s9,936(s9) # 13a8 <.LBB46_4+0x224>
     8b4:	080ccc93          	xori	s9,s9,128
     8b8:	019c0223          	sb	s9,4(s8)
     8bc:	00001cb7          	lui	s9,0x1
     8c0:	41940cb3          	sub	s9,s0,s9
     8c4:	3b8cbc83          	ld	s9,952(s9) # 13b8 <.LBB46_4+0x234>
     8c8:	080ccc93          	xori	s9,s9,128
     8cc:	019c02a3          	sb	s9,5(s8)
     8d0:	00001cb7          	lui	s9,0x1
     8d4:	41940cb3          	sub	s9,s0,s9
     8d8:	3c8cbc83          	ld	s9,968(s9) # 13c8 <.LBB46_4+0x244>
     8dc:	080ccc93          	xori	s9,s9,128
     8e0:	019c0323          	sb	s9,6(s8)
     8e4:	00001cb7          	lui	s9,0x1
     8e8:	41940cb3          	sub	s9,s0,s9
     8ec:	3d8cbc83          	ld	s9,984(s9) # 13d8 <.LBB46_4+0x254>
     8f0:	080ccc93          	xori	s9,s9,128
     8f4:	019c03a3          	sb	s9,7(s8)
     8f8:	00001cb7          	lui	s9,0x1
     8fc:	41940cb3          	sub	s9,s0,s9
     900:	3e8cbc83          	ld	s9,1000(s9) # 13e8 <.LBB46_4+0x264>
     904:	080ccc93          	xori	s9,s9,128
     908:	019c0423          	sb	s9,8(s8)
     90c:	00001cb7          	lui	s9,0x1
     910:	41940cb3          	sub	s9,s0,s9
     914:	3f8cbc83          	ld	s9,1016(s9) # 13f8 <.LBB46_4+0x274>
     918:	080ccc93          	xori	s9,s9,128
     91c:	019c04a3          	sb	s9,9(s8)
     920:	00001cb7          	lui	s9,0x1
     924:	41940cb3          	sub	s9,s0,s9
     928:	408cbc83          	ld	s9,1032(s9) # 1408 <.LBB46_4+0x284>
     92c:	080ccc93          	xori	s9,s9,128
     930:	019c0523          	sb	s9,10(s8)
     934:	00001cb7          	lui	s9,0x1
     938:	41940cb3          	sub	s9,s0,s9
     93c:	418cbc83          	ld	s9,1048(s9) # 1418 <.LBB46_4+0x294>
     940:	080ccc93          	xori	s9,s9,128
     944:	019c05a3          	sb	s9,11(s8)
     948:	00001cb7          	lui	s9,0x1
     94c:	41940cb3          	sub	s9,s0,s9
     950:	428cbc83          	ld	s9,1064(s9) # 1428 <.LBB46_4+0x2a4>
     954:	080ccc93          	xori	s9,s9,128
     958:	019c0623          	sb	s9,12(s8)
     95c:	00001cb7          	lui	s9,0x1
     960:	41940cb3          	sub	s9,s0,s9
     964:	438cbc83          	ld	s9,1080(s9) # 1438 <.LBB46_4+0x2b4>
     968:	080ccc93          	xori	s9,s9,128
     96c:	019c06a3          	sb	s9,13(s8)
     970:	00001cb7          	lui	s9,0x1
     974:	41940cb3          	sub	s9,s0,s9
     978:	448cbc83          	ld	s9,1096(s9) # 1448 <.LBB46_4+0x2c4>
     97c:	080ccc93          	xori	s9,s9,128
     980:	019c0723          	sb	s9,14(s8)
     984:	00001cb7          	lui	s9,0x1
     988:	41940cb3          	sub	s9,s0,s9
     98c:	458cbc83          	ld	s9,1112(s9) # 1458 <.LBB46_4+0x2d4>
     990:	080ccc93          	xori	s9,s9,128
     994:	019c07a3          	sb	s9,15(s8)
     998:	00001cb7          	lui	s9,0x1
     99c:	41940cb3          	sub	s9,s0,s9
     9a0:	468cbc83          	ld	s9,1128(s9) # 1468 <.LBB46_4+0x2e4>
     9a4:	080ccc93          	xori	s9,s9,128
     9a8:	019c0823          	sb	s9,16(s8)
     9ac:	00001cb7          	lui	s9,0x1
     9b0:	41940cb3          	sub	s9,s0,s9
     9b4:	478cbc83          	ld	s9,1144(s9) # 1478 <.LBB46_4+0x2f4>
     9b8:	080ccc93          	xori	s9,s9,128
     9bc:	019c08a3          	sb	s9,17(s8)
     9c0:	00001cb7          	lui	s9,0x1
     9c4:	41940cb3          	sub	s9,s0,s9
     9c8:	488cbc83          	ld	s9,1160(s9) # 1488 <.LBB46_4+0x304>
     9cc:	080ccc93          	xori	s9,s9,128
     9d0:	019c0923          	sb	s9,18(s8)
     9d4:	00001cb7          	lui	s9,0x1
     9d8:	41940cb3          	sub	s9,s0,s9
     9dc:	498cbc83          	ld	s9,1176(s9) # 1498 <.LBB46_4+0x314>
     9e0:	080ccc93          	xori	s9,s9,128
     9e4:	019c09a3          	sb	s9,19(s8)
     9e8:	00001cb7          	lui	s9,0x1
     9ec:	41940cb3          	sub	s9,s0,s9
     9f0:	4a8cbc83          	ld	s9,1192(s9) # 14a8 <.LBB46_4+0x324>
     9f4:	080ccc93          	xori	s9,s9,128
     9f8:	019c0a23          	sb	s9,20(s8)
     9fc:	00001cb7          	lui	s9,0x1
     a00:	41940cb3          	sub	s9,s0,s9
     a04:	4b8cbc83          	ld	s9,1208(s9) # 14b8 <.LBB46_4+0x334>
     a08:	080ccc93          	xori	s9,s9,128
     a0c:	019c0aa3          	sb	s9,21(s8)
     a10:	00001cb7          	lui	s9,0x1
     a14:	41940cb3          	sub	s9,s0,s9
     a18:	4c8cbc83          	ld	s9,1224(s9) # 14c8 <.LBB46_4+0x344>
     a1c:	080ccc93          	xori	s9,s9,128
     a20:	019c0b23          	sb	s9,22(s8)
     a24:	00001cb7          	lui	s9,0x1
     a28:	41940cb3          	sub	s9,s0,s9
     a2c:	4d8cbc83          	ld	s9,1240(s9) # 14d8 <.LBB46_4+0x354>
     a30:	080ccc93          	xori	s9,s9,128
     a34:	019c0ba3          	sb	s9,23(s8)
     a38:	00001cb7          	lui	s9,0x1
     a3c:	41940cb3          	sub	s9,s0,s9
     a40:	4e8cbc83          	ld	s9,1256(s9) # 14e8 <.LBB46_4+0x364>
     a44:	080ccc93          	xori	s9,s9,128
     a48:	019c0c23          	sb	s9,24(s8)
     a4c:	00001cb7          	lui	s9,0x1
     a50:	41940cb3          	sub	s9,s0,s9
     a54:	4f8cbc83          	ld	s9,1272(s9) # 14f8 <.LBB46_4+0x374>
     a58:	080ccc93          	xori	s9,s9,128
     a5c:	019c0ca3          	sb	s9,25(s8)
     a60:	00001cb7          	lui	s9,0x1
     a64:	41940cb3          	sub	s9,s0,s9
     a68:	508cbc83          	ld	s9,1288(s9) # 1508 <.LBB46_4+0x384>
     a6c:	080ccc93          	xori	s9,s9,128
     a70:	019c0d23          	sb	s9,26(s8)
     a74:	00001cb7          	lui	s9,0x1
     a78:	41940cb3          	sub	s9,s0,s9
     a7c:	518cbc83          	ld	s9,1304(s9) # 1518 <.LBB46_4+0x394>
     a80:	080ccc93          	xori	s9,s9,128
     a84:	019c0da3          	sb	s9,27(s8)
     a88:	00001cb7          	lui	s9,0x1
     a8c:	41940cb3          	sub	s9,s0,s9
     a90:	528cbc83          	ld	s9,1320(s9) # 1528 <.LBB46_4+0x3a4>
     a94:	080ccc93          	xori	s9,s9,128
     a98:	019c0e23          	sb	s9,28(s8)
     a9c:	00001cb7          	lui	s9,0x1
     aa0:	41940cb3          	sub	s9,s0,s9
     aa4:	538cbc83          	ld	s9,1336(s9) # 1538 <.LBB46_4+0x3b4>
     aa8:	080ccc93          	xori	s9,s9,128
     aac:	019c0ea3          	sb	s9,29(s8)
     ab0:	00001cb7          	lui	s9,0x1
     ab4:	41940cb3          	sub	s9,s0,s9
     ab8:	548cbc83          	ld	s9,1352(s9) # 1548 <.LBB46_4+0x3c4>
     abc:	080ccc93          	xori	s9,s9,128
     ac0:	019c0f23          	sb	s9,30(s8)
     ac4:	00001cb7          	lui	s9,0x1
     ac8:	41940cb3          	sub	s9,s0,s9
     acc:	558cbc83          	ld	s9,1368(s9) # 1558 <.LBB46_4+0x3d4>
     ad0:	080ccc93          	xori	s9,s9,128
     ad4:	019c0fa3          	sb	s9,31(s8)
     ad8:	00001c37          	lui	s8,0x1
     adc:	41840c33          	sub	s8,s0,s8
     ae0:	568c3c03          	ld	s8,1384(s8) # 1568 <.LBB46_4+0x3e4>
     ae4:	080c4c93          	xori	s9,s8,128
     ae8:	00001c37          	lui	s8,0x1
     aec:	41840c33          	sub	s8,s0,s8
     af0:	d48c3c03          	ld	s8,-696(s8) # d48 <.LBB46_3+0xb18>
     af4:	01ac0c33          	add	s8,s8,s10
     af8:	019c01a3          	sb	s9,3(s8)
     afc:	00001cb7          	lui	s9,0x1
     b00:	41940cb3          	sub	s9,s0,s9
     b04:	578cbc83          	ld	s9,1400(s9) # 1578 <.LBB46_4+0x3f4>
     b08:	080ccc93          	xori	s9,s9,128
     b0c:	019c0123          	sb	s9,2(s8)
     b10:	00001cb7          	lui	s9,0x1
     b14:	41940cb3          	sub	s9,s0,s9
     b18:	588cbc83          	ld	s9,1416(s9) # 1588 <.LBB46_4+0x404>
     b1c:	080ccc93          	xori	s9,s9,128
     b20:	019c00a3          	sb	s9,1(s8)
     b24:	00001cb7          	lui	s9,0x1
     b28:	41940cb3          	sub	s9,s0,s9
     b2c:	598cbc83          	ld	s9,1432(s9) # 1598 <.LBB46_4+0x414>
     b30:	080ccc93          	xori	s9,s9,128
     b34:	019c0023          	sb	s9,0(s8)
     b38:	00001cb7          	lui	s9,0x1
     b3c:	41940cb3          	sub	s9,s0,s9
     b40:	5a8cbc83          	ld	s9,1448(s9) # 15a8 <.LBB46_4+0x424>
     b44:	080ccc93          	xori	s9,s9,128
     b48:	019c0223          	sb	s9,4(s8)
     b4c:	00001cb7          	lui	s9,0x1
     b50:	41940cb3          	sub	s9,s0,s9
     b54:	5b8cbc83          	ld	s9,1464(s9) # 15b8 <.LBB46_4+0x434>
     b58:	080ccc93          	xori	s9,s9,128
     b5c:	019c02a3          	sb	s9,5(s8)
     b60:	00001cb7          	lui	s9,0x1
     b64:	41940cb3          	sub	s9,s0,s9
     b68:	5c8cbc83          	ld	s9,1480(s9) # 15c8 <.LBB46_4+0x444>
     b6c:	080ccc93          	xori	s9,s9,128
     b70:	019c0323          	sb	s9,6(s8)
     b74:	00001cb7          	lui	s9,0x1
     b78:	41940cb3          	sub	s9,s0,s9
     b7c:	5d8cbc83          	ld	s9,1496(s9) # 15d8 <.LBB46_4+0x454>
     b80:	080ccc93          	xori	s9,s9,128
     b84:	019c03a3          	sb	s9,7(s8)
     b88:	00001cb7          	lui	s9,0x1
     b8c:	41940cb3          	sub	s9,s0,s9
     b90:	5e8cbc83          	ld	s9,1512(s9) # 15e8 <.LBB46_4+0x464>
     b94:	080ccc93          	xori	s9,s9,128
     b98:	019c0423          	sb	s9,8(s8)
     b9c:	00001cb7          	lui	s9,0x1
     ba0:	41940cb3          	sub	s9,s0,s9
     ba4:	5f8cbc83          	ld	s9,1528(s9) # 15f8 <.LBB46_4+0x474>
     ba8:	080ccc93          	xori	s9,s9,128
     bac:	019c04a3          	sb	s9,9(s8)
     bb0:	00001cb7          	lui	s9,0x1
     bb4:	41940cb3          	sub	s9,s0,s9
     bb8:	608cbc83          	ld	s9,1544(s9) # 1608 <.LBB46_4+0x484>
     bbc:	080ccc93          	xori	s9,s9,128
     bc0:	019c0523          	sb	s9,10(s8)
     bc4:	00001cb7          	lui	s9,0x1
     bc8:	41940cb3          	sub	s9,s0,s9
     bcc:	618cbc83          	ld	s9,1560(s9) # 1618 <.LBB46_4+0x494>
     bd0:	080ccc93          	xori	s9,s9,128
     bd4:	019c05a3          	sb	s9,11(s8)
     bd8:	00001cb7          	lui	s9,0x1
     bdc:	41940cb3          	sub	s9,s0,s9
     be0:	628cbc83          	ld	s9,1576(s9) # 1628 <.LBB46_4+0x4a4>
     be4:	080ccc93          	xori	s9,s9,128
     be8:	019c0623          	sb	s9,12(s8)
     bec:	00001cb7          	lui	s9,0x1
     bf0:	41940cb3          	sub	s9,s0,s9
     bf4:	638cbc83          	ld	s9,1592(s9) # 1638 <.LBB46_4+0x4b4>
     bf8:	080ccc93          	xori	s9,s9,128
     bfc:	019c06a3          	sb	s9,13(s8)
     c00:	00001cb7          	lui	s9,0x1
     c04:	41940cb3          	sub	s9,s0,s9
     c08:	648cbc83          	ld	s9,1608(s9) # 1648 <.LBB46_4+0x4c4>
     c0c:	080ccc93          	xori	s9,s9,128
     c10:	019c0723          	sb	s9,14(s8)
     c14:	b1043c83          	ld	s9,-1264(s0)
     c18:	080ccc93          	xori	s9,s9,128
     c1c:	019c07a3          	sb	s9,15(s8)
     c20:	00001cb7          	lui	s9,0x1
     c24:	41940cb3          	sub	s9,s0,s9
     c28:	680cbc83          	ld	s9,1664(s9) # 1680 <.LBB46_4+0x4fc>
     c2c:	080ccc93          	xori	s9,s9,128
     c30:	019c0823          	sb	s9,16(s8)
     c34:	b2043c83          	ld	s9,-1248(s0)
     c38:	080ccc93          	xori	s9,s9,128
     c3c:	019c08a3          	sb	s9,17(s8)
     c40:	00001cb7          	lui	s9,0x1
     c44:	41940cb3          	sub	s9,s0,s9
     c48:	7a0cbc83          	ld	s9,1952(s9) # 17a0 <.LBB46_5+0x88>
     c4c:	080ccc93          	xori	s9,s9,128
     c50:	019c0923          	sb	s9,18(s8)
     c54:	00001cb7          	lui	s9,0x1
     c58:	41940cb3          	sub	s9,s0,s9
     c5c:	7b0cbc83          	ld	s9,1968(s9) # 17b0 <.LBB46_5+0x98>
     c60:	080ccc93          	xori	s9,s9,128
     c64:	019c09a3          	sb	s9,19(s8)
     c68:	00001cb7          	lui	s9,0x1
     c6c:	41940cb3          	sub	s9,s0,s9
     c70:	7c0cbc83          	ld	s9,1984(s9) # 17c0 <.LBB46_5+0xa8>
     c74:	080ccc93          	xori	s9,s9,128
     c78:	019c0a23          	sb	s9,20(s8)
     c7c:	00001cb7          	lui	s9,0x1
     c80:	41940cb3          	sub	s9,s0,s9
     c84:	7d8cbc83          	ld	s9,2008(s9) # 17d8 <.LBB46_5+0xc0>
     c88:	080ccc93          	xori	s9,s9,128
     c8c:	019c0aa3          	sb	s9,21(s8)
     c90:	00001cb7          	lui	s9,0x1
     c94:	41940cb3          	sub	s9,s0,s9
     c98:	7e8cbc83          	ld	s9,2024(s9) # 17e8 <.LBB46_5+0xd0>
     c9c:	080ccc93          	xori	s9,s9,128
     ca0:	019c0b23          	sb	s9,22(s8)
     ca4:	b5043c83          	ld	s9,-1200(s0)
     ca8:	080ccc93          	xori	s9,s9,128
     cac:	019c0ba3          	sb	s9,23(s8)
     cb0:	80043c83          	ld	s9,-2048(s0)
     cb4:	080ccc93          	xori	s9,s9,128
     cb8:	019c0c23          	sb	s9,24(s8)
     cbc:	81843c83          	ld	s9,-2024(s0)
     cc0:	080ccc93          	xori	s9,s9,128
     cc4:	019c0ca3          	sb	s9,25(s8)
     cc8:	82843c83          	ld	s9,-2008(s0)
     ccc:	080ccc93          	xori	s9,s9,128
     cd0:	019c0d23          	sb	s9,26(s8)
     cd4:	83843c83          	ld	s9,-1992(s0)
     cd8:	080ccc93          	xori	s9,s9,128
     cdc:	019c0da3          	sb	s9,27(s8)
     ce0:	84843c83          	ld	s9,-1976(s0)
     ce4:	080ccc93          	xori	s9,s9,128
     ce8:	019c0e23          	sb	s9,28(s8)
     cec:	86043c83          	ld	s9,-1952(s0)
     cf0:	080ccc93          	xori	s9,s9,128
     cf4:	019c0ea3          	sb	s9,29(s8)
     cf8:	87043c83          	ld	s9,-1936(s0)
     cfc:	080ccc93          	xori	s9,s9,128
     d00:	019c0f23          	sb	s9,30(s8)
     d04:	88043c83          	ld	s9,-1920(s0)
     d08:	080ccc93          	xori	s9,s9,128
     d0c:	019c0fa3          	sb	s9,31(s8)
     d10:	89843c03          	ld	s8,-1896(s0)
     d14:	080c4c93          	xori	s9,s8,128
     d18:	00001c37          	lui	s8,0x1
     d1c:	41840c33          	sub	s8,s0,s8
     d20:	d40c3c03          	ld	s8,-704(s8) # d40 <.LBB46_3+0xb10>
     d24:	01ac0c33          	add	s8,s8,s10
     d28:	019c01a3          	sb	s9,3(s8)
     d2c:	8a843c83          	ld	s9,-1880(s0)
     d30:	080ccc93          	xori	s9,s9,128
     d34:	019c0123          	sb	s9,2(s8)
     d38:	8b843c83          	ld	s9,-1864(s0)
     d3c:	080ccc93          	xori	s9,s9,128
     d40:	019c00a3          	sb	s9,1(s8)
     d44:	8c843c83          	ld	s9,-1848(s0)
     d48:	080ccc93          	xori	s9,s9,128
     d4c:	019c0023          	sb	s9,0(s8)
     d50:	8e043c83          	ld	s9,-1824(s0)
     d54:	080ccc93          	xori	s9,s9,128
     d58:	019c0223          	sb	s9,4(s8)
     d5c:	8f043c83          	ld	s9,-1808(s0)
     d60:	080ccc93          	xori	s9,s9,128
     d64:	019c02a3          	sb	s9,5(s8)
     d68:	90043c83          	ld	s9,-1792(s0)
     d6c:	080ccc93          	xori	s9,s9,128
     d70:	019c0323          	sb	s9,6(s8)
     d74:	91043c83          	ld	s9,-1776(s0)
     d78:	080ccc93          	xori	s9,s9,128
     d7c:	019c03a3          	sb	s9,7(s8)
     d80:	92843c83          	ld	s9,-1752(s0)
     d84:	080ccc93          	xori	s9,s9,128
     d88:	019c0423          	sb	s9,8(s8)
     d8c:	93843c83          	ld	s9,-1736(s0)
     d90:	080ccc93          	xori	s9,s9,128
     d94:	019c04a3          	sb	s9,9(s8)
     d98:	94843c83          	ld	s9,-1720(s0)
     d9c:	080ccc93          	xori	s9,s9,128
     da0:	019c0523          	sb	s9,10(s8)
     da4:	bf043c83          	ld	s9,-1040(s0)
     da8:	080ccc93          	xori	s9,s9,128
     dac:	019c05a3          	sb	s9,11(s8)
     db0:	96843c83          	ld	s9,-1688(s0)
     db4:	080ccc93          	xori	s9,s9,128
     db8:	019c0623          	sb	s9,12(s8)
     dbc:	97843c83          	ld	s9,-1672(s0)
     dc0:	080ccc93          	xori	s9,s9,128
     dc4:	019c06a3          	sb	s9,13(s8)
     dc8:	98843c83          	ld	s9,-1656(s0)
     dcc:	080ccc93          	xori	s9,s9,128
     dd0:	019c0723          	sb	s9,14(s8)
     dd4:	9a043c83          	ld	s9,-1632(s0)
     dd8:	080ccc93          	xori	s9,s9,128
     ddc:	019c07a3          	sb	s9,15(s8)
     de0:	9b043c83          	ld	s9,-1616(s0)
     de4:	080ccc93          	xori	s9,s9,128
     de8:	019c0823          	sb	s9,16(s8)
     dec:	9c043c83          	ld	s9,-1600(s0)
     df0:	080ccc93          	xori	s9,s9,128
     df4:	019c08a3          	sb	s9,17(s8)
     df8:	9d043c83          	ld	s9,-1584(s0)
     dfc:	080ccc93          	xori	s9,s9,128
     e00:	019c0923          	sb	s9,18(s8)
     e04:	9e843c83          	ld	s9,-1560(s0)
     e08:	080ccc93          	xori	s9,s9,128
     e0c:	019c09a3          	sb	s9,19(s8)
     e10:	9f843c83          	ld	s9,-1544(s0)
     e14:	080ccc93          	xori	s9,s9,128
     e18:	019c0a23          	sb	s9,20(s8)
     e1c:	a0843c83          	ld	s9,-1528(s0)
     e20:	080ccc93          	xori	s9,s9,128
     e24:	019c0aa3          	sb	s9,21(s8)
     e28:	a2043c83          	ld	s9,-1504(s0)
     e2c:	080ccc93          	xori	s9,s9,128
     e30:	019c0b23          	sb	s9,22(s8)
     e34:	a3043c83          	ld	s9,-1488(s0)
     e38:	080ccc93          	xori	s9,s9,128
     e3c:	019c0ba3          	sb	s9,23(s8)
     e40:	a4043c83          	ld	s9,-1472(s0)
     e44:	080ccc93          	xori	s9,s9,128
     e48:	019c0c23          	sb	s9,24(s8)
     e4c:	a5043c83          	ld	s9,-1456(s0)
     e50:	080ccc93          	xori	s9,s9,128
     e54:	019c0ca3          	sb	s9,25(s8)
     e58:	a6843c83          	ld	s9,-1432(s0)
     e5c:	080ccc93          	xori	s9,s9,128
     e60:	019c0d23          	sb	s9,26(s8)
     e64:	a7843c83          	ld	s9,-1416(s0)
     e68:	080ccc93          	xori	s9,s9,128
     e6c:	019c0da3          	sb	s9,27(s8)
     e70:	a8843c83          	ld	s9,-1400(s0)
     e74:	080ccc93          	xori	s9,s9,128
     e78:	019c0e23          	sb	s9,28(s8)
     e7c:	a9843c83          	ld	s9,-1384(s0)
     e80:	080ccc93          	xori	s9,s9,128
     e84:	019c0ea3          	sb	s9,29(s8)
     e88:	ab043c83          	ld	s9,-1360(s0)
     e8c:	080ccc93          	xori	s9,s9,128
     e90:	019c0f23          	sb	s9,30(s8)
     e94:	ac043c83          	ld	s9,-1344(s0)
     e98:	080ccc93          	xori	s9,s9,128
     e9c:	019c0fa3          	sb	s9,31(s8)
     ea0:	ad043c03          	ld	s8,-1328(s0)
     ea4:	080c4c93          	xori	s9,s8,128
     ea8:	00001c37          	lui	s8,0x1
     eac:	41840c33          	sub	s8,s0,s8
     eb0:	d38c3c03          	ld	s8,-712(s8) # d38 <.LBB46_3+0xb08>
     eb4:	01ac0c33          	add	s8,s8,s10
     eb8:	019c01a3          	sb	s9,3(s8)
     ebc:	ae843c83          	ld	s9,-1304(s0)
     ec0:	080ccc93          	xori	s9,s9,128
     ec4:	019c0123          	sb	s9,2(s8)
     ec8:	af843c83          	ld	s9,-1288(s0)
     ecc:	080ccc93          	xori	s9,s9,128
     ed0:	019c00a3          	sb	s9,1(s8)
     ed4:	b0843c83          	ld	s9,-1272(s0)
     ed8:	080ccc93          	xori	s9,s9,128
     edc:	019c0023          	sb	s9,0(s8)
     ee0:	b2843c83          	ld	s9,-1240(s0)
     ee4:	080ccc93          	xori	s9,s9,128
     ee8:	019c0223          	sb	s9,4(s8)
     eec:	b4043c83          	ld	s9,-1216(s0)
     ef0:	080ccc93          	xori	s9,s9,128
     ef4:	019c02a3          	sb	s9,5(s8)
     ef8:	b5843c83          	ld	s9,-1192(s0)
     efc:	080ccc93          	xori	s9,s9,128
     f00:	019c0323          	sb	s9,6(s8)
     f04:	b6843c83          	ld	s9,-1176(s0)
     f08:	080ccc93          	xori	s9,s9,128
     f0c:	019c03a3          	sb	s9,7(s8)
     f10:	b7843c83          	ld	s9,-1160(s0)
     f14:	080ccc93          	xori	s9,s9,128
     f18:	019c0423          	sb	s9,8(s8)
     f1c:	b9043c83          	ld	s9,-1136(s0)
     f20:	080ccc93          	xori	s9,s9,128
     f24:	019c04a3          	sb	s9,9(s8)
     f28:	ba043c83          	ld	s9,-1120(s0)
     f2c:	080ccc93          	xori	s9,s9,128
     f30:	019c0523          	sb	s9,10(s8)
     f34:	bb043c83          	ld	s9,-1104(s0)
     f38:	080ccc93          	xori	s9,s9,128
     f3c:	019c05a3          	sb	s9,11(s8)
     f40:	bc843c83          	ld	s9,-1080(s0)
     f44:	080ccc93          	xori	s9,s9,128
     f48:	019c0623          	sb	s9,12(s8)
     f4c:	bd843c83          	ld	s9,-1064(s0)
     f50:	080ccc93          	xori	s9,s9,128
     f54:	019c06a3          	sb	s9,13(s8)
     f58:	be843c83          	ld	s9,-1048(s0)
     f5c:	080ccc93          	xori	s9,s9,128
     f60:	019c0723          	sb	s9,14(s8)
     f64:	c0043c83          	ld	s9,-1024(s0)
     f68:	080ccc93          	xori	s9,s9,128
     f6c:	019c07a3          	sb	s9,15(s8)
     f70:	c1843c83          	ld	s9,-1000(s0)
     f74:	080ccc93          	xori	s9,s9,128
     f78:	019c0823          	sb	s9,16(s8)
     f7c:	c2843c83          	ld	s9,-984(s0)
     f80:	080ccc93          	xori	s9,s9,128
     f84:	019c08a3          	sb	s9,17(s8)
     f88:	c3843c83          	ld	s9,-968(s0)
     f8c:	080ccc93          	xori	s9,s9,128
     f90:	019c0923          	sb	s9,18(s8)
     f94:	c4843c83          	ld	s9,-952(s0)
     f98:	080ccc93          	xori	s9,s9,128
     f9c:	019c09a3          	sb	s9,19(s8)
     fa0:	c5843c83          	ld	s9,-936(s0)
     fa4:	080ccc93          	xori	s9,s9,128
     fa8:	019c0a23          	sb	s9,20(s8)
     fac:	c6843c83          	ld	s9,-920(s0)
     fb0:	080ccc93          	xori	s9,s9,128
     fb4:	019c0aa3          	sb	s9,21(s8)
     fb8:	c7843c83          	ld	s9,-904(s0)
     fbc:	080ccc93          	xori	s9,s9,128
     fc0:	019c0b23          	sb	s9,22(s8)
     fc4:	c8843c83          	ld	s9,-888(s0)
     fc8:	080ccc93          	xori	s9,s9,128
     fcc:	019c0ba3          	sb	s9,23(s8)
     fd0:	c9843c83          	ld	s9,-872(s0)
     fd4:	080ccc93          	xori	s9,s9,128
     fd8:	019c0c23          	sb	s9,24(s8)
     fdc:	ca843c83          	ld	s9,-856(s0)
     fe0:	080ccc93          	xori	s9,s9,128
     fe4:	019c0ca3          	sb	s9,25(s8)
     fe8:	cb843c83          	ld	s9,-840(s0)
     fec:	080ccc93          	xori	s9,s9,128
     ff0:	019c0d23          	sb	s9,26(s8)
     ff4:	cc843c83          	ld	s9,-824(s0)
     ff8:	080ccc93          	xori	s9,s9,128
     ffc:	019c0da3          	sb	s9,27(s8)
    1000:	cd843c83          	ld	s9,-808(s0)
    1004:	080ccc93          	xori	s9,s9,128
    1008:	019c0e23          	sb	s9,28(s8)
    100c:	ce843c83          	ld	s9,-792(s0)
    1010:	080ccc93          	xori	s9,s9,128
    1014:	019c0ea3          	sb	s9,29(s8)
    1018:	cf843c83          	ld	s9,-776(s0)
    101c:	080ccc93          	xori	s9,s9,128
    1020:	019c0f23          	sb	s9,30(s8)
    1024:	d0843c83          	ld	s9,-760(s0)
    1028:	080ccc93          	xori	s9,s9,128
    102c:	019c0fa3          	sb	s9,31(s8)
    1030:	d1843c03          	ld	s8,-744(s0)
    1034:	080c4c93          	xori	s9,s8,128
    1038:	00001c37          	lui	s8,0x1
    103c:	41840c33          	sub	s8,s0,s8
    1040:	d30c3c03          	ld	s8,-720(s8) # d30 <.LBB46_3+0xb00>
    1044:	01ac0c33          	add	s8,s8,s10
    1048:	019c01a3          	sb	s9,3(s8)
    104c:	d2843c83          	ld	s9,-728(s0)
    1050:	080ccc93          	xori	s9,s9,128
    1054:	019c0123          	sb	s9,2(s8)
    1058:	d3843c83          	ld	s9,-712(s0)
    105c:	080ccc93          	xori	s9,s9,128
    1060:	019c00a3          	sb	s9,1(s8)
    1064:	d4843c83          	ld	s9,-696(s0)
    1068:	080ccc93          	xori	s9,s9,128
    106c:	019c0023          	sb	s9,0(s8)
    1070:	d5843c83          	ld	s9,-680(s0)
    1074:	080ccc93          	xori	s9,s9,128
    1078:	019c0223          	sb	s9,4(s8)
    107c:	d6843c83          	ld	s9,-664(s0)
    1080:	080ccc93          	xori	s9,s9,128
    1084:	019c02a3          	sb	s9,5(s8)
    1088:	e8843c83          	ld	s9,-376(s0)
    108c:	080ccc93          	xori	s9,s9,128
    1090:	019c0323          	sb	s9,6(s8)
    1094:	d8043c83          	ld	s9,-640(s0)
    1098:	080ccc93          	xori	s9,s9,128
    109c:	019c03a3          	sb	s9,7(s8)
    10a0:	d9043c83          	ld	s9,-624(s0)
    10a4:	080ccc93          	xori	s9,s9,128
    10a8:	019c0423          	sb	s9,8(s8)
    10ac:	080dcc93          	xori	s9,s11,128
    10b0:	019c04a3          	sb	s9,9(s8)
    10b4:	08054513          	xori	a0,a0,128
    10b8:	00ac0523          	sb	a0,10(s8)
    10bc:	0805c513          	xori	a0,a1,128
    10c0:	00ac05a3          	sb	a0,11(s8)
    10c4:	08064513          	xori	a0,a2,128
    10c8:	00ac0623          	sb	a0,12(s8)
    10cc:	0806c513          	xori	a0,a3,128
    10d0:	00ac06a3          	sb	a0,13(s8)
    10d4:	08074513          	xori	a0,a4,128
    10d8:	00ac0723          	sb	a0,14(s8)
    10dc:	0807c513          	xori	a0,a5,128
    10e0:	00ac07a3          	sb	a0,15(s8)
    10e4:	08084513          	xori	a0,a6,128
    10e8:	00ac0823          	sb	a0,16(s8)
    10ec:	0808c513          	xori	a0,a7,128
    10f0:	00ac08a3          	sb	a0,17(s8)
    10f4:	0802c513          	xori	a0,t0,128
    10f8:	00ac0923          	sb	a0,18(s8)
    10fc:	08034513          	xori	a0,t1,128
    1100:	00ac09a3          	sb	a0,19(s8)
    1104:	0803c513          	xori	a0,t2,128
    1108:	00ac0a23          	sb	a0,20(s8)
    110c:	080e4513          	xori	a0,t3,128
    1110:	00ac0aa3          	sb	a0,21(s8)
    1114:	080ec513          	xori	a0,t4,128
    1118:	00ac0b23          	sb	a0,22(s8)
    111c:	080f4513          	xori	a0,t5,128
    1120:	00ac0ba3          	sb	a0,23(s8)
    1124:	080fc513          	xori	a0,t6,128
    1128:	00ac0c23          	sb	a0,24(s8)
    112c:	0804c513          	xori	a0,s1,128
    1130:	00ac0ca3          	sb	a0,25(s8)
    1134:	08094513          	xori	a0,s2,128
    1138:	00ac0d23          	sb	a0,26(s8)
    113c:	0809c513          	xori	a0,s3,128
    1140:	00ac0da3          	sb	a0,27(s8)
    1144:	080a4513          	xori	a0,s4,128
    1148:	00ac0e23          	sb	a0,28(s8)
    114c:	080ac513          	xori	a0,s5,128
    1150:	00ac0ea3          	sb	a0,29(s8)
    1154:	080b4513          	xori	a0,s6,128
    1158:	00ac0f23          	sb	a0,30(s8)
    115c:	080bc513          	xori	a0,s7,128
    1160:	00ac0fa3          	sb	a0,31(s8)
    1164:	020d0593          	addi	a1,s10,32
    1168:	00001537          	lui	a0,0x1
    116c:	40a40533          	sub	a0,s0,a0
    1170:	65053603          	ld	a2,1616(a0) # 1650 <.LBB46_4+0x4cc>
    1174:	02060613          	addi	a2,a2,32
    1178:	0a000513          	li	a0,160
    117c:	00ad6463          	bltu	s10,a0,1184 <.LBB46_4>
    1180:	fa1fe06f          	j	120 <.LBB46_1>

0000000000001184 <.LBB46_4>:
    1184:	00001537          	lui	a0,0x1
    1188:	40a40533          	sub	a0,s0,a0
    118c:	66b53423          	sd	a1,1640(a0) # 1668 <.LBB46_4+0x4e4>
    1190:	00001537          	lui	a0,0x1
    1194:	40a40533          	sub	a0,s0,a0
    1198:	d1853e83          	ld	t4,-744(a0) # d18 <.LBB46_3+0xae8>
    119c:	00001537          	lui	a0,0x1
    11a0:	40a40533          	sub	a0,s0,a0
    11a4:	d7053483          	ld	s1,-656(a0) # d70 <.LBB46_3+0xb40>
    11a8:	00001537          	lui	a0,0x1
    11ac:	40a40533          	sub	a0,s0,a0
    11b0:	64c53823          	sd	a2,1616(a0) # 1650 <.LBB46_4+0x4cc>
    11b4:	00060913          	mv	s2,a2
    11b8:	00001537          	lui	a0,0x1
    11bc:	40a40533          	sub	a0,s0,a0
    11c0:	6c053c23          	sd	zero,1752(a0) # 16d8 <.LBB46_4+0x554>
    11c4:	00001537          	lui	a0,0x1
    11c8:	40a40533          	sub	a0,s0,a0
    11cc:	6c053823          	sd	zero,1744(a0) # 16d0 <.LBB46_4+0x54c>
    11d0:	00001537          	lui	a0,0x1
    11d4:	40a40533          	sub	a0,s0,a0
    11d8:	6c053423          	sd	zero,1736(a0) # 16c8 <.LBB46_4+0x544>
    11dc:	00001537          	lui	a0,0x1
    11e0:	40a40533          	sub	a0,s0,a0
    11e4:	6e053023          	sd	zero,1760(a0) # 16e0 <.LBB46_4+0x55c>
    11e8:	00001537          	lui	a0,0x1
    11ec:	40a40533          	sub	a0,s0,a0
    11f0:	6c053023          	sd	zero,1728(a0) # 16c0 <.LBB46_4+0x53c>
    11f4:	00001537          	lui	a0,0x1
    11f8:	40a40533          	sub	a0,s0,a0
    11fc:	6a053c23          	sd	zero,1720(a0) # 16b8 <.LBB46_4+0x534>
    1200:	00001537          	lui	a0,0x1
    1204:	40a40533          	sub	a0,s0,a0
    1208:	6a053823          	sd	zero,1712(a0) # 16b0 <.LBB46_4+0x52c>
    120c:	00001537          	lui	a0,0x1
    1210:	40a40533          	sub	a0,s0,a0
    1214:	6a053423          	sd	zero,1704(a0) # 16a8 <.LBB46_4+0x524>
    1218:	00001537          	lui	a0,0x1
    121c:	40a40533          	sub	a0,s0,a0
    1220:	6a053023          	sd	zero,1696(a0) # 16a0 <.LBB46_4+0x51c>
    1224:	00001537          	lui	a0,0x1
    1228:	40a40533          	sub	a0,s0,a0
    122c:	6e053423          	sd	zero,1768(a0) # 16e8 <.LBB46_4+0x564>
    1230:	00001537          	lui	a0,0x1
    1234:	40a40533          	sub	a0,s0,a0
    1238:	6e053823          	sd	zero,1776(a0) # 16f0 <.LBB46_4+0x56c>
    123c:	00001537          	lui	a0,0x1
    1240:	40a40533          	sub	a0,s0,a0
    1244:	6e053c23          	sd	zero,1784(a0) # 16f8 <.LBB46_4+0x574>
    1248:	00001537          	lui	a0,0x1
    124c:	40a40533          	sub	a0,s0,a0
    1250:	70053023          	sd	zero,1792(a0) # 1700 <.LBB46_4+0x57c>
    1254:	00001537          	lui	a0,0x1
    1258:	40a40533          	sub	a0,s0,a0
    125c:	70053423          	sd	zero,1800(a0) # 1708 <.LBB46_4+0x584>
    1260:	00001537          	lui	a0,0x1
    1264:	40a40533          	sub	a0,s0,a0
    1268:	70053823          	sd	zero,1808(a0) # 1710 <.LBB46_4+0x58c>
    126c:	00001537          	lui	a0,0x1
    1270:	40a40533          	sub	a0,s0,a0
    1274:	70053c23          	sd	zero,1816(a0) # 1718 <.LBB46_5>
    1278:	00001537          	lui	a0,0x1
    127c:	40a40533          	sub	a0,s0,a0
    1280:	72053023          	sd	zero,1824(a0) # 1720 <.LBB46_5+0x8>
    1284:	00001537          	lui	a0,0x1
    1288:	40a40533          	sub	a0,s0,a0
    128c:	72053423          	sd	zero,1832(a0) # 1728 <.LBB46_5+0x10>
    1290:	00001537          	lui	a0,0x1
    1294:	40a40533          	sub	a0,s0,a0
    1298:	72053823          	sd	zero,1840(a0) # 1730 <.LBB46_5+0x18>
    129c:	00001537          	lui	a0,0x1
    12a0:	40a40533          	sub	a0,s0,a0
    12a4:	72053c23          	sd	zero,1848(a0) # 1738 <.LBB46_5+0x20>
    12a8:	00001537          	lui	a0,0x1
    12ac:	40a40533          	sub	a0,s0,a0
    12b0:	74053023          	sd	zero,1856(a0) # 1740 <.LBB46_5+0x28>
    12b4:	00001537          	lui	a0,0x1
    12b8:	40a40533          	sub	a0,s0,a0
    12bc:	74053423          	sd	zero,1864(a0) # 1748 <.LBB46_5+0x30>
    12c0:	00001537          	lui	a0,0x1
    12c4:	40a40533          	sub	a0,s0,a0
    12c8:	74053823          	sd	zero,1872(a0) # 1750 <.LBB46_5+0x38>
    12cc:	00001537          	lui	a0,0x1
    12d0:	40a40533          	sub	a0,s0,a0
    12d4:	74053c23          	sd	zero,1880(a0) # 1758 <.LBB46_5+0x40>
    12d8:	00001537          	lui	a0,0x1
    12dc:	40a40533          	sub	a0,s0,a0
    12e0:	76053023          	sd	zero,1888(a0) # 1760 <.LBB46_5+0x48>
    12e4:	00001537          	lui	a0,0x1
    12e8:	40a40533          	sub	a0,s0,a0
    12ec:	76053423          	sd	zero,1896(a0) # 1768 <.LBB46_5+0x50>
    12f0:	00001537          	lui	a0,0x1
    12f4:	40a40533          	sub	a0,s0,a0
    12f8:	76053823          	sd	zero,1904(a0) # 1770 <.LBB46_5+0x58>
    12fc:	00001537          	lui	a0,0x1
    1300:	40a40533          	sub	a0,s0,a0
    1304:	76053c23          	sd	zero,1912(a0) # 1778 <.LBB46_5+0x60>
    1308:	00000c93          	li	s9,0
    130c:	00001537          	lui	a0,0x1
    1310:	40a40533          	sub	a0,s0,a0
    1314:	78053023          	sd	zero,1920(a0) # 1780 <.LBB46_5+0x68>
    1318:	00001537          	lui	a0,0x1
    131c:	40a40533          	sub	a0,s0,a0
    1320:	78053423          	sd	zero,1928(a0) # 1788 <.LBB46_5+0x70>
    1324:	00001537          	lui	a0,0x1
    1328:	40a40533          	sub	a0,s0,a0
    132c:	78053823          	sd	zero,1936(a0) # 1790 <.LBB46_5+0x78>
    1330:	00001537          	lui	a0,0x1
    1334:	40a40533          	sub	a0,s0,a0
    1338:	7a053823          	sd	zero,1968(a0) # 17b0 <.LBB46_5+0x98>
    133c:	00001537          	lui	a0,0x1
    1340:	40a40533          	sub	a0,s0,a0
    1344:	7a053423          	sd	zero,1960(a0) # 17a8 <.LBB46_5+0x90>
    1348:	00001537          	lui	a0,0x1
    134c:	40a40533          	sub	a0,s0,a0
    1350:	7a053023          	sd	zero,1952(a0) # 17a0 <.LBB46_5+0x88>
    1354:	00001537          	lui	a0,0x1
    1358:	40a40533          	sub	a0,s0,a0
    135c:	78053c23          	sd	zero,1944(a0) # 1798 <.LBB46_5+0x80>
    1360:	00001537          	lui	a0,0x1
    1364:	40a40533          	sub	a0,s0,a0
    1368:	7a053c23          	sd	zero,1976(a0) # 17b8 <.LBB46_5+0xa0>
    136c:	00001537          	lui	a0,0x1
    1370:	40a40533          	sub	a0,s0,a0
    1374:	7c053023          	sd	zero,1984(a0) # 17c0 <.LBB46_5+0xa8>
    1378:	00001537          	lui	a0,0x1
    137c:	40a40533          	sub	a0,s0,a0
    1380:	7c053423          	sd	zero,1992(a0) # 17c8 <.LBB46_5+0xb0>
    1384:	00001537          	lui	a0,0x1
    1388:	40a40533          	sub	a0,s0,a0
    138c:	7c053823          	sd	zero,2000(a0) # 17d0 <.LBB46_5+0xb8>
    1390:	00001537          	lui	a0,0x1
    1394:	40a40533          	sub	a0,s0,a0
    1398:	7c053c23          	sd	zero,2008(a0) # 17d8 <.LBB46_5+0xc0>
    139c:	00001537          	lui	a0,0x1
    13a0:	40a40533          	sub	a0,s0,a0
    13a4:	7e053023          	sd	zero,2016(a0) # 17e0 <.LBB46_5+0xc8>
    13a8:	00001537          	lui	a0,0x1
    13ac:	40a40533          	sub	a0,s0,a0
    13b0:	7e053423          	sd	zero,2024(a0) # 17e8 <.LBB46_5+0xd0>
    13b4:	00001537          	lui	a0,0x1
    13b8:	40a40533          	sub	a0,s0,a0
    13bc:	7e053823          	sd	zero,2032(a0) # 17f0 <.LBB46_5+0xd8>
    13c0:	00001537          	lui	a0,0x1
    13c4:	40a40533          	sub	a0,s0,a0
    13c8:	7e053c23          	sd	zero,2040(a0) # 17f8 <.LBB46_5+0xe0>
    13cc:	80043023          	sd	zero,-2048(s0)
    13d0:	80043423          	sd	zero,-2040(s0)
    13d4:	80043823          	sd	zero,-2032(s0)
    13d8:	80043c23          	sd	zero,-2024(s0)
    13dc:	82043023          	sd	zero,-2016(s0)
    13e0:	82043423          	sd	zero,-2008(s0)
    13e4:	82043823          	sd	zero,-2000(s0)
    13e8:	82043c23          	sd	zero,-1992(s0)
    13ec:	84043023          	sd	zero,-1984(s0)
    13f0:	84043423          	sd	zero,-1976(s0)
    13f4:	84043823          	sd	zero,-1968(s0)
    13f8:	84043c23          	sd	zero,-1960(s0)
    13fc:	86043023          	sd	zero,-1952(s0)
    1400:	86043423          	sd	zero,-1944(s0)
    1404:	86043823          	sd	zero,-1936(s0)
    1408:	86043c23          	sd	zero,-1928(s0)
    140c:	88043023          	sd	zero,-1920(s0)
    1410:	88043423          	sd	zero,-1912(s0)
    1414:	88043823          	sd	zero,-1904(s0)
    1418:	8a043823          	sd	zero,-1872(s0)
    141c:	8a043423          	sd	zero,-1880(s0)
    1420:	8a043023          	sd	zero,-1888(s0)
    1424:	88043c23          	sd	zero,-1896(s0)
    1428:	8a043c23          	sd	zero,-1864(s0)
    142c:	8c043023          	sd	zero,-1856(s0)
    1430:	8c043423          	sd	zero,-1848(s0)
    1434:	8c043823          	sd	zero,-1840(s0)
    1438:	8c043c23          	sd	zero,-1832(s0)
    143c:	8e043023          	sd	zero,-1824(s0)
    1440:	8e043423          	sd	zero,-1816(s0)
    1444:	8e043823          	sd	zero,-1808(s0)
    1448:	8e043c23          	sd	zero,-1800(s0)
    144c:	90043023          	sd	zero,-1792(s0)
    1450:	90043423          	sd	zero,-1784(s0)
    1454:	90043823          	sd	zero,-1776(s0)
    1458:	90043c23          	sd	zero,-1768(s0)
    145c:	92043023          	sd	zero,-1760(s0)
    1460:	92043423          	sd	zero,-1752(s0)
    1464:	92043823          	sd	zero,-1744(s0)
    1468:	92043c23          	sd	zero,-1736(s0)
    146c:	94043023          	sd	zero,-1728(s0)
    1470:	94043423          	sd	zero,-1720(s0)
    1474:	94043823          	sd	zero,-1712(s0)
    1478:	94043c23          	sd	zero,-1704(s0)
    147c:	96043023          	sd	zero,-1696(s0)
    1480:	96043423          	sd	zero,-1688(s0)
    1484:	96043823          	sd	zero,-1680(s0)
    1488:	96043c23          	sd	zero,-1672(s0)
    148c:	98043023          	sd	zero,-1664(s0)
    1490:	98043423          	sd	zero,-1656(s0)
    1494:	98043823          	sd	zero,-1648(s0)
    1498:	9a043823          	sd	zero,-1616(s0)
    149c:	9a043423          	sd	zero,-1624(s0)
    14a0:	9a043023          	sd	zero,-1632(s0)
    14a4:	98043c23          	sd	zero,-1640(s0)
    14a8:	9a043c23          	sd	zero,-1608(s0)
    14ac:	9c043023          	sd	zero,-1600(s0)
    14b0:	9c043423          	sd	zero,-1592(s0)
    14b4:	9c043823          	sd	zero,-1584(s0)
    14b8:	9c043c23          	sd	zero,-1576(s0)
    14bc:	9e043023          	sd	zero,-1568(s0)
    14c0:	9e043423          	sd	zero,-1560(s0)
    14c4:	9e043823          	sd	zero,-1552(s0)
    14c8:	9e043c23          	sd	zero,-1544(s0)
    14cc:	a0043023          	sd	zero,-1536(s0)
    14d0:	a0043423          	sd	zero,-1528(s0)
    14d4:	a0043823          	sd	zero,-1520(s0)
    14d8:	a0043c23          	sd	zero,-1512(s0)
    14dc:	a2043023          	sd	zero,-1504(s0)
    14e0:	a2043423          	sd	zero,-1496(s0)
    14e4:	a2043823          	sd	zero,-1488(s0)
    14e8:	a2043c23          	sd	zero,-1480(s0)
    14ec:	a4043023          	sd	zero,-1472(s0)
    14f0:	a4043423          	sd	zero,-1464(s0)
    14f4:	a4043823          	sd	zero,-1456(s0)
    14f8:	a4043c23          	sd	zero,-1448(s0)
    14fc:	a6043023          	sd	zero,-1440(s0)
    1500:	a6043423          	sd	zero,-1432(s0)
    1504:	a6043823          	sd	zero,-1424(s0)
    1508:	a6043c23          	sd	zero,-1416(s0)
    150c:	a8043023          	sd	zero,-1408(s0)
    1510:	a8043423          	sd	zero,-1400(s0)
    1514:	a8043823          	sd	zero,-1392(s0)
    1518:	aa043823          	sd	zero,-1360(s0)
    151c:	aa043423          	sd	zero,-1368(s0)
    1520:	aa043023          	sd	zero,-1376(s0)
    1524:	a8043c23          	sd	zero,-1384(s0)
    1528:	aa043c23          	sd	zero,-1352(s0)
    152c:	ac043023          	sd	zero,-1344(s0)
    1530:	ac043423          	sd	zero,-1336(s0)
    1534:	ac043823          	sd	zero,-1328(s0)
    1538:	ac043c23          	sd	zero,-1320(s0)
    153c:	ae043023          	sd	zero,-1312(s0)
    1540:	ae043423          	sd	zero,-1304(s0)
    1544:	ae043823          	sd	zero,-1296(s0)
    1548:	ae043c23          	sd	zero,-1288(s0)
    154c:	b0043023          	sd	zero,-1280(s0)
    1550:	b0043423          	sd	zero,-1272(s0)
    1554:	b0043823          	sd	zero,-1264(s0)
    1558:	b0043c23          	sd	zero,-1256(s0)
    155c:	b2043023          	sd	zero,-1248(s0)
    1560:	b2043423          	sd	zero,-1240(s0)
    1564:	b2043823          	sd	zero,-1232(s0)
    1568:	b2043c23          	sd	zero,-1224(s0)
    156c:	b4043023          	sd	zero,-1216(s0)
    1570:	b4043423          	sd	zero,-1208(s0)
    1574:	b4043823          	sd	zero,-1200(s0)
    1578:	b4043c23          	sd	zero,-1192(s0)
    157c:	b6043023          	sd	zero,-1184(s0)
    1580:	b6043423          	sd	zero,-1176(s0)
    1584:	b6043823          	sd	zero,-1168(s0)
    1588:	b6043c23          	sd	zero,-1160(s0)
    158c:	b8043023          	sd	zero,-1152(s0)
    1590:	b8043423          	sd	zero,-1144(s0)
    1594:	b8043823          	sd	zero,-1136(s0)
    1598:	ba043823          	sd	zero,-1104(s0)
    159c:	ba043423          	sd	zero,-1112(s0)
    15a0:	ba043023          	sd	zero,-1120(s0)
    15a4:	b8043c23          	sd	zero,-1128(s0)
    15a8:	ba043c23          	sd	zero,-1096(s0)
    15ac:	bc043023          	sd	zero,-1088(s0)
    15b0:	bc043423          	sd	zero,-1080(s0)
    15b4:	bc043823          	sd	zero,-1072(s0)
    15b8:	bc043c23          	sd	zero,-1064(s0)
    15bc:	be043023          	sd	zero,-1056(s0)
    15c0:	be043423          	sd	zero,-1048(s0)
    15c4:	be043823          	sd	zero,-1040(s0)
    15c8:	be043c23          	sd	zero,-1032(s0)
    15cc:	c0043023          	sd	zero,-1024(s0)
    15d0:	c0043423          	sd	zero,-1016(s0)
    15d4:	c0043823          	sd	zero,-1008(s0)
    15d8:	c0043c23          	sd	zero,-1000(s0)
    15dc:	c2043023          	sd	zero,-992(s0)
    15e0:	c2043423          	sd	zero,-984(s0)
    15e4:	c2043823          	sd	zero,-976(s0)
    15e8:	c2043c23          	sd	zero,-968(s0)
    15ec:	c4043023          	sd	zero,-960(s0)
    15f0:	c4043423          	sd	zero,-952(s0)
    15f4:	c4043823          	sd	zero,-944(s0)
    15f8:	c4043c23          	sd	zero,-936(s0)
    15fc:	c6043023          	sd	zero,-928(s0)
    1600:	c6043423          	sd	zero,-920(s0)
    1604:	c6043823          	sd	zero,-912(s0)
    1608:	c6043c23          	sd	zero,-904(s0)
    160c:	c8043023          	sd	zero,-896(s0)
    1610:	c8043423          	sd	zero,-888(s0)
    1614:	c8043823          	sd	zero,-880(s0)
    1618:	ca043823          	sd	zero,-848(s0)
    161c:	ca043423          	sd	zero,-856(s0)
    1620:	ca043023          	sd	zero,-864(s0)
    1624:	c8043c23          	sd	zero,-872(s0)
    1628:	ca043c23          	sd	zero,-840(s0)
    162c:	cc043023          	sd	zero,-832(s0)
    1630:	cc043423          	sd	zero,-824(s0)
    1634:	cc043823          	sd	zero,-816(s0)
    1638:	cc043c23          	sd	zero,-808(s0)
    163c:	ce043023          	sd	zero,-800(s0)
    1640:	ce043423          	sd	zero,-792(s0)
    1644:	ce043823          	sd	zero,-784(s0)
    1648:	ce043c23          	sd	zero,-776(s0)
    164c:	d0043023          	sd	zero,-768(s0)
    1650:	d0043423          	sd	zero,-760(s0)
    1654:	d0043823          	sd	zero,-752(s0)
    1658:	d0043c23          	sd	zero,-744(s0)
    165c:	d2043023          	sd	zero,-736(s0)
    1660:	d2043423          	sd	zero,-728(s0)
    1664:	d2043823          	sd	zero,-720(s0)
    1668:	d2043c23          	sd	zero,-712(s0)
    166c:	d4043023          	sd	zero,-704(s0)
    1670:	d4043423          	sd	zero,-696(s0)
    1674:	d4043823          	sd	zero,-688(s0)
    1678:	d4043c23          	sd	zero,-680(s0)
    167c:	d6043023          	sd	zero,-672(s0)
    1680:	d6043423          	sd	zero,-664(s0)
    1684:	d6043823          	sd	zero,-656(s0)
    1688:	d6043c23          	sd	zero,-648(s0)
    168c:	d8043023          	sd	zero,-640(s0)
    1690:	d8043423          	sd	zero,-632(s0)
    1694:	d8043823          	sd	zero,-624(s0)
    1698:	da043823          	sd	zero,-592(s0)
    169c:	da043423          	sd	zero,-600(s0)
    16a0:	da043023          	sd	zero,-608(s0)
    16a4:	d8043c23          	sd	zero,-616(s0)
    16a8:	da043c23          	sd	zero,-584(s0)
    16ac:	dc043023          	sd	zero,-576(s0)
    16b0:	dc043423          	sd	zero,-568(s0)
    16b4:	00000093          	li	ra,0
    16b8:	00000d13          	li	s10,0
    16bc:	00000c13          	li	s8,0
    16c0:	dc043823          	sd	zero,-560(s0)
    16c4:	00000b93          	li	s7,0
    16c8:	00000a13          	li	s4,0
    16cc:	00000713          	li	a4,0
    16d0:	00000693          	li	a3,0
    16d4:	00000b13          	li	s6,0
    16d8:	00000f93          	li	t6,0
    16dc:	00000f13          	li	t5,0
    16e0:	00000613          	li	a2,0
    16e4:	00000e13          	li	t3,0
    16e8:	00000393          	li	t2,0
    16ec:	00000313          	li	t1,0
    16f0:	00000293          	li	t0,0
    16f4:	00000593          	li	a1,0
    16f8:	00000513          	li	a0,0
    16fc:	00000893          	li	a7,0
    1700:	00000813          	li	a6,0
    1704:	00000793          	li	a5,0
    1708:	e2043423          	sd	zero,-472(s0)
    170c:	e2043823          	sd	zero,-464(s0)
    1710:	e2043c23          	sd	zero,-456(s0)
    1714:	e4043023          	sd	zero,-448(s0)

0000000000001718 <.LBB46_5>:
    1718:	dd643c23          	sd	s6,-552(s0)
    171c:	f9243423          	sd	s2,-120(s0)
    1720:	f8943023          	sd	s1,-128(s0)
    1724:	000019b7          	lui	s3,0x1
    1728:	413409b3          	sub	s3,s0,s3
    172c:	69d9b823          	sd	t4,1680(s3) # 1690 <.LBB46_4+0x50c>
    1730:	ea143c23          	sd	ra,-328(s0)
    1734:	eda43023          	sd	s10,-320(s0)
    1738:	ed843423          	sd	s8,-312(s0)
    173c:	ed743823          	sd	s7,-304(s0)
    1740:	ed443c23          	sd	s4,-296(s0)
    1744:	eee43023          	sd	a4,-288(s0)
    1748:	eed43423          	sd	a3,-280(s0)
    174c:	dff43023          	sd	t6,-544(s0)
    1750:	dfe43423          	sd	t5,-536(s0)
    1754:	eec43823          	sd	a2,-272(s0)
    1758:	dfc43823          	sd	t3,-528(s0)
    175c:	de743c23          	sd	t2,-520(s0)
    1760:	e0643023          	sd	t1,-512(s0)
    1764:	e0543423          	sd	t0,-504(s0)
    1768:	eeb43c23          	sd	a1,-264(s0)
    176c:	f0a43023          	sd	a0,-256(s0)
    1770:	e1143823          	sd	a7,-496(s0)
    1774:	e1043c23          	sd	a6,-488(s0)
    1778:	e2f43023          	sd	a5,-480(s0)
    177c:	f8048503          	lb	a0,-128(s1)
    1780:	00290603          	lb	a2,2(s2)
    1784:	f0c43c23          	sd	a2,-232(s0)
    1788:	00190683          	lb	a3,1(s2)
    178c:	f0d43423          	sd	a3,-248(s0)
    1790:	00090703          	lb	a4,0(s2)
    1794:	f6e43c23          	sd	a4,-136(s0)
    1798:	00390783          	lb	a5,3(s2)
    179c:	eaf43023          	sd	a5,-352(s0)
    17a0:	00490803          	lb	a6,4(s2)
    17a4:	f1043823          	sd	a6,-240(s0)
    17a8:	00590a03          	lb	s4,5(s2)
    17ac:	f7443823          	sd	s4,-144(s0)
    17b0:	00690d03          	lb	s10,6(s2)
    17b4:	f7a43423          	sd	s10,-152(s0)
    17b8:	000c8a93          	mv	s5,s9
    17bc:	00790c83          	lb	s9,7(s2)
    17c0:	f7943023          	sd	s9,-160(s0)
    17c4:	00890883          	lb	a7,8(s2)
    17c8:	000015b7          	lui	a1,0x1
    17cc:	40b405b3          	sub	a1,s0,a1
    17d0:	6915b423          	sd	a7,1672(a1) # 1688 <.LBB46_4+0x504>
    17d4:	00990283          	lb	t0,9(s2)
    17d8:	e6543423          	sd	t0,-408(s0)
    17dc:	00a90383          	lb	t2,10(s2)
    17e0:	e6743823          	sd	t2,-400(s0)
    17e4:	00b90e83          	lb	t4,11(s2)
    17e8:	00c90083          	lb	ra,12(s2)
    17ec:	f4143023          	sd	ra,-192(s0)
    17f0:	00d90303          	lb	t1,13(s2)
    17f4:	f4643423          	sd	t1,-184(s0)
    17f8:	00e90e03          	lb	t3,14(s2)
    17fc:	f5c43823          	sd	t3,-176(s0)
    1800:	00f90f83          	lb	t6,15(s2)
    1804:	01090f03          	lb	t5,16(s2)
    1808:	f5e43c23          	sd	t5,-168(s0)
    180c:	01190483          	lb	s1,17(s2)
    1810:	01290583          	lb	a1,18(s2)
    1814:	f2b43423          	sd	a1,-216(s0)
    1818:	01390983          	lb	s3,19(s2)
    181c:	e9343c23          	sd	s3,-360(s0)
    1820:	01490c03          	lb	s8,20(s2)
    1824:	01590b03          	lb	s6,21(s2)
    1828:	eb643823          	sd	s6,-336(s0)
    182c:	01690b83          	lb	s7,22(s2)
    1830:	f3743c23          	sd	s7,-200(s0)
    1834:	01790903          	lb	s2,23(s2)
    1838:	f8843583          	ld	a1,-120(s0)
    183c:	01858d83          	lb	s11,24(a1)
    1840:	f3b43823          	sd	s11,-208(s0)
    1844:	02c505b3          	mul	a1,a0,a2
    1848:	00001637          	lui	a2,0x1
    184c:	40c40633          	sub	a2,s0,a2
    1850:	6c863603          	ld	a2,1736(a2) # 16c8 <.LBB46_4+0x544>
    1854:	00c58633          	add	a2,a1,a2
    1858:	000015b7          	lui	a1,0x1
    185c:	40b405b3          	sub	a1,s0,a1
    1860:	6cc5b423          	sd	a2,1736(a1) # 16c8 <.LBB46_4+0x544>
    1864:	02d505b3          	mul	a1,a0,a3
    1868:	00001637          	lui	a2,0x1
    186c:	40c40633          	sub	a2,s0,a2
    1870:	6d063603          	ld	a2,1744(a2) # 16d0 <.LBB46_4+0x54c>
    1874:	00c58633          	add	a2,a1,a2
    1878:	000015b7          	lui	a1,0x1
    187c:	40b405b3          	sub	a1,s0,a1
    1880:	6cc5b823          	sd	a2,1744(a1) # 16d0 <.LBB46_4+0x54c>
    1884:	02e505b3          	mul	a1,a0,a4
    1888:	00001637          	lui	a2,0x1
    188c:	40c40633          	sub	a2,s0,a2
    1890:	6d863603          	ld	a2,1752(a2) # 16d8 <.LBB46_4+0x554>
    1894:	00c58633          	add	a2,a1,a2
    1898:	000015b7          	lui	a1,0x1
    189c:	40b405b3          	sub	a1,s0,a1
    18a0:	6cc5bc23          	sd	a2,1752(a1) # 16d8 <.LBB46_4+0x554>
    18a4:	02f505b3          	mul	a1,a0,a5
    18a8:	00001637          	lui	a2,0x1
    18ac:	40c40633          	sub	a2,s0,a2
    18b0:	6e063603          	ld	a2,1760(a2) # 16e0 <.LBB46_4+0x55c>
    18b4:	00c58633          	add	a2,a1,a2
    18b8:	000015b7          	lui	a1,0x1
    18bc:	40b405b3          	sub	a1,s0,a1
    18c0:	6ec5b023          	sd	a2,1760(a1) # 16e0 <.LBB46_4+0x55c>
    18c4:	030505b3          	mul	a1,a0,a6
    18c8:	00001637          	lui	a2,0x1
    18cc:	40c40633          	sub	a2,s0,a2
    18d0:	6c063603          	ld	a2,1728(a2) # 16c0 <.LBB46_4+0x53c>
    18d4:	00c58633          	add	a2,a1,a2
    18d8:	000015b7          	lui	a1,0x1
    18dc:	40b405b3          	sub	a1,s0,a1
    18e0:	6cc5b023          	sd	a2,1728(a1) # 16c0 <.LBB46_4+0x53c>
    18e4:	034505b3          	mul	a1,a0,s4
    18e8:	00001637          	lui	a2,0x1
    18ec:	40c40633          	sub	a2,s0,a2
    18f0:	6b863603          	ld	a2,1720(a2) # 16b8 <.LBB46_4+0x534>
    18f4:	00c58633          	add	a2,a1,a2
    18f8:	000015b7          	lui	a1,0x1
    18fc:	40b405b3          	sub	a1,s0,a1
    1900:	6ac5bc23          	sd	a2,1720(a1) # 16b8 <.LBB46_4+0x534>
    1904:	03a505b3          	mul	a1,a0,s10
    1908:	00001637          	lui	a2,0x1
    190c:	40c40633          	sub	a2,s0,a2
    1910:	6b063603          	ld	a2,1712(a2) # 16b0 <.LBB46_4+0x52c>
    1914:	00c58633          	add	a2,a1,a2
    1918:	000015b7          	lui	a1,0x1
    191c:	40b405b3          	sub	a1,s0,a1
    1920:	6ac5b823          	sd	a2,1712(a1) # 16b0 <.LBB46_4+0x52c>
    1924:	039505b3          	mul	a1,a0,s9
    1928:	00001637          	lui	a2,0x1
    192c:	40c40633          	sub	a2,s0,a2
    1930:	6a863603          	ld	a2,1704(a2) # 16a8 <.LBB46_4+0x524>
    1934:	00c58633          	add	a2,a1,a2
    1938:	000015b7          	lui	a1,0x1
    193c:	40b405b3          	sub	a1,s0,a1
    1940:	6ac5b423          	sd	a2,1704(a1) # 16a8 <.LBB46_4+0x524>
    1944:	031505b3          	mul	a1,a0,a7
    1948:	00001637          	lui	a2,0x1
    194c:	40c40633          	sub	a2,s0,a2
    1950:	6a063603          	ld	a2,1696(a2) # 16a0 <.LBB46_4+0x51c>
    1954:	00c58633          	add	a2,a1,a2
    1958:	000015b7          	lui	a1,0x1
    195c:	40b405b3          	sub	a1,s0,a1
    1960:	6ac5b023          	sd	a2,1696(a1) # 16a0 <.LBB46_4+0x51c>
    1964:	025505b3          	mul	a1,a0,t0
    1968:	00001637          	lui	a2,0x1
    196c:	40c40633          	sub	a2,s0,a2
    1970:	6e863603          	ld	a2,1768(a2) # 16e8 <.LBB46_4+0x564>
    1974:	00c58633          	add	a2,a1,a2
    1978:	000015b7          	lui	a1,0x1
    197c:	40b405b3          	sub	a1,s0,a1
    1980:	6ec5b423          	sd	a2,1768(a1) # 16e8 <.LBB46_4+0x564>
    1984:	027505b3          	mul	a1,a0,t2
    1988:	00001637          	lui	a2,0x1
    198c:	40c40633          	sub	a2,s0,a2
    1990:	6f063603          	ld	a2,1776(a2) # 16f0 <.LBB46_4+0x56c>
    1994:	00c58633          	add	a2,a1,a2
    1998:	000015b7          	lui	a1,0x1
    199c:	40b405b3          	sub	a1,s0,a1
    19a0:	6ec5b823          	sd	a2,1776(a1) # 16f0 <.LBB46_4+0x56c>
    19a4:	03d505b3          	mul	a1,a0,t4
    19a8:	000e8893          	mv	a7,t4
    19ac:	00001637          	lui	a2,0x1
    19b0:	40c40633          	sub	a2,s0,a2
    19b4:	6f863603          	ld	a2,1784(a2) # 16f8 <.LBB46_4+0x574>
    19b8:	00c58633          	add	a2,a1,a2
    19bc:	000015b7          	lui	a1,0x1
    19c0:	40b405b3          	sub	a1,s0,a1
    19c4:	6ec5bc23          	sd	a2,1784(a1) # 16f8 <.LBB46_4+0x574>
    19c8:	021505b3          	mul	a1,a0,ra
    19cc:	00001637          	lui	a2,0x1
    19d0:	40c40633          	sub	a2,s0,a2
    19d4:	70063603          	ld	a2,1792(a2) # 1700 <.LBB46_4+0x57c>
    19d8:	00c58633          	add	a2,a1,a2
    19dc:	000015b7          	lui	a1,0x1
    19e0:	40b405b3          	sub	a1,s0,a1
    19e4:	70c5b023          	sd	a2,1792(a1) # 1700 <.LBB46_4+0x57c>
    19e8:	026505b3          	mul	a1,a0,t1
    19ec:	00001637          	lui	a2,0x1
    19f0:	40c40633          	sub	a2,s0,a2
    19f4:	70863603          	ld	a2,1800(a2) # 1708 <.LBB46_4+0x584>
    19f8:	00c58633          	add	a2,a1,a2
    19fc:	000015b7          	lui	a1,0x1
    1a00:	40b405b3          	sub	a1,s0,a1
    1a04:	70c5b423          	sd	a2,1800(a1) # 1708 <.LBB46_4+0x584>
    1a08:	03c505b3          	mul	a1,a0,t3
    1a0c:	00001637          	lui	a2,0x1
    1a10:	40c40633          	sub	a2,s0,a2
    1a14:	71063603          	ld	a2,1808(a2) # 1710 <.LBB46_4+0x58c>
    1a18:	00c58633          	add	a2,a1,a2
    1a1c:	000015b7          	lui	a1,0x1
    1a20:	40b405b3          	sub	a1,s0,a1
    1a24:	70c5b823          	sd	a2,1808(a1) # 1710 <.LBB46_4+0x58c>
    1a28:	03f505b3          	mul	a1,a0,t6
    1a2c:	000f8093          	mv	ra,t6
    1a30:	00001637          	lui	a2,0x1
    1a34:	40c40633          	sub	a2,s0,a2
    1a38:	71863603          	ld	a2,1816(a2) # 1718 <.LBB46_5>
    1a3c:	00c58633          	add	a2,a1,a2
    1a40:	000015b7          	lui	a1,0x1
    1a44:	40b405b3          	sub	a1,s0,a1
    1a48:	70c5bc23          	sd	a2,1816(a1) # 1718 <.LBB46_5>
    1a4c:	03e505b3          	mul	a1,a0,t5
    1a50:	00001637          	lui	a2,0x1
    1a54:	40c40633          	sub	a2,s0,a2
    1a58:	72063603          	ld	a2,1824(a2) # 1720 <.LBB46_5+0x8>
    1a5c:	00c58633          	add	a2,a1,a2
    1a60:	000015b7          	lui	a1,0x1
    1a64:	40b405b3          	sub	a1,s0,a1
    1a68:	72c5b023          	sd	a2,1824(a1) # 1720 <.LBB46_5+0x8>
    1a6c:	029505b3          	mul	a1,a0,s1
    1a70:	00048f93          	mv	t6,s1
    1a74:	e6943023          	sd	s1,-416(s0)
    1a78:	00001637          	lui	a2,0x1
    1a7c:	40c40633          	sub	a2,s0,a2
    1a80:	72863603          	ld	a2,1832(a2) # 1728 <.LBB46_5+0x10>
    1a84:	00c58633          	add	a2,a1,a2
    1a88:	000015b7          	lui	a1,0x1
    1a8c:	40b405b3          	sub	a1,s0,a1
    1a90:	72c5b423          	sd	a2,1832(a1) # 1728 <.LBB46_5+0x10>
    1a94:	f2843783          	ld	a5,-216(s0)
    1a98:	02f505b3          	mul	a1,a0,a5
    1a9c:	00001637          	lui	a2,0x1
    1aa0:	40c40633          	sub	a2,s0,a2
    1aa4:	73063603          	ld	a2,1840(a2) # 1730 <.LBB46_5+0x18>
    1aa8:	00c58633          	add	a2,a1,a2
    1aac:	000015b7          	lui	a1,0x1
    1ab0:	40b405b3          	sub	a1,s0,a1
    1ab4:	72c5b823          	sd	a2,1840(a1) # 1730 <.LBB46_5+0x18>
    1ab8:	033505b3          	mul	a1,a0,s3
    1abc:	00001637          	lui	a2,0x1
    1ac0:	40c40633          	sub	a2,s0,a2
    1ac4:	73863603          	ld	a2,1848(a2) # 1738 <.LBB46_5+0x20>
    1ac8:	00c58633          	add	a2,a1,a2
    1acc:	000015b7          	lui	a1,0x1
    1ad0:	40b405b3          	sub	a1,s0,a1
    1ad4:	72c5bc23          	sd	a2,1848(a1) # 1738 <.LBB46_5+0x20>
    1ad8:	038505b3          	mul	a1,a0,s8
    1adc:	000c0493          	mv	s1,s8
    1ae0:	00001637          	lui	a2,0x1
    1ae4:	40c40633          	sub	a2,s0,a2
    1ae8:	74063603          	ld	a2,1856(a2) # 1740 <.LBB46_5+0x28>
    1aec:	00c58633          	add	a2,a1,a2
    1af0:	000015b7          	lui	a1,0x1
    1af4:	40b405b3          	sub	a1,s0,a1
    1af8:	74c5b023          	sd	a2,1856(a1) # 1740 <.LBB46_5+0x28>
    1afc:	036505b3          	mul	a1,a0,s6
    1b00:	00001637          	lui	a2,0x1
    1b04:	40c40633          	sub	a2,s0,a2
    1b08:	74863603          	ld	a2,1864(a2) # 1748 <.LBB46_5+0x30>
    1b0c:	00c58633          	add	a2,a1,a2
    1b10:	000015b7          	lui	a1,0x1
    1b14:	40b405b3          	sub	a1,s0,a1
    1b18:	74c5b423          	sd	a2,1864(a1) # 1748 <.LBB46_5+0x30>
    1b1c:	037505b3          	mul	a1,a0,s7
    1b20:	00001637          	lui	a2,0x1
    1b24:	40c40633          	sub	a2,s0,a2
    1b28:	75063603          	ld	a2,1872(a2) # 1750 <.LBB46_5+0x38>
    1b2c:	00c58633          	add	a2,a1,a2
    1b30:	000015b7          	lui	a1,0x1
    1b34:	40b405b3          	sub	a1,s0,a1
    1b38:	74c5b823          	sd	a2,1872(a1) # 1750 <.LBB46_5+0x38>
    1b3c:	032505b3          	mul	a1,a0,s2
    1b40:	00090e13          	mv	t3,s2
    1b44:	00001637          	lui	a2,0x1
    1b48:	40c40633          	sub	a2,s0,a2
    1b4c:	75863603          	ld	a2,1880(a2) # 1758 <.LBB46_5+0x40>
    1b50:	00c58633          	add	a2,a1,a2
    1b54:	000015b7          	lui	a1,0x1
    1b58:	40b405b3          	sub	a1,s0,a1
    1b5c:	74c5bc23          	sd	a2,1880(a1) # 1758 <.LBB46_5+0x40>
    1b60:	f8843583          	ld	a1,-120(s0)
    1b64:	01958803          	lb	a6,25(a1)
    1b68:	03b505b3          	mul	a1,a0,s11
    1b6c:	00001637          	lui	a2,0x1
    1b70:	40c40633          	sub	a2,s0,a2
    1b74:	76063603          	ld	a2,1888(a2) # 1760 <.LBB46_5+0x48>
    1b78:	00c58633          	add	a2,a1,a2
    1b7c:	000015b7          	lui	a1,0x1
    1b80:	40b405b3          	sub	a1,s0,a1
    1b84:	76c5b023          	sd	a2,1888(a1) # 1760 <.LBB46_5+0x48>
    1b88:	f8843583          	ld	a1,-120(s0)
    1b8c:	01a58303          	lb	t1,26(a1)
    1b90:	030505b3          	mul	a1,a0,a6
    1b94:	e5043823          	sd	a6,-432(s0)
    1b98:	00001637          	lui	a2,0x1
    1b9c:	40c40633          	sub	a2,s0,a2
    1ba0:	76863603          	ld	a2,1896(a2) # 1768 <.LBB46_5+0x50>
    1ba4:	00c58633          	add	a2,a1,a2
    1ba8:	000015b7          	lui	a1,0x1
    1bac:	40b405b3          	sub	a1,s0,a1
    1bb0:	76c5b423          	sd	a2,1896(a1) # 1768 <.LBB46_5+0x50>
    1bb4:	f8843583          	ld	a1,-120(s0)
    1bb8:	01b58683          	lb	a3,27(a1)
    1bbc:	e8d43423          	sd	a3,-376(s0)
    1bc0:	026505b3          	mul	a1,a0,t1
    1bc4:	e8643823          	sd	t1,-368(s0)
    1bc8:	00001637          	lui	a2,0x1
    1bcc:	40c40633          	sub	a2,s0,a2
    1bd0:	77063603          	ld	a2,1904(a2) # 1770 <.LBB46_5+0x58>
    1bd4:	00c58633          	add	a2,a1,a2
    1bd8:	000015b7          	lui	a1,0x1
    1bdc:	40b405b3          	sub	a1,s0,a1
    1be0:	76c5b823          	sd	a2,1904(a1) # 1770 <.LBB46_5+0x58>
    1be4:	f8843583          	ld	a1,-120(s0)
    1be8:	01c58703          	lb	a4,28(a1)
    1bec:	02d505b3          	mul	a1,a0,a3
    1bf0:	00001637          	lui	a2,0x1
    1bf4:	40c40633          	sub	a2,s0,a2
    1bf8:	77863603          	ld	a2,1912(a2) # 1778 <.LBB46_5+0x60>
    1bfc:	00c58633          	add	a2,a1,a2
    1c00:	000015b7          	lui	a1,0x1
    1c04:	40b405b3          	sub	a1,s0,a1
    1c08:	76c5bc23          	sd	a2,1912(a1) # 1778 <.LBB46_5+0x60>
    1c0c:	f8843583          	ld	a1,-120(s0)
    1c10:	01d58603          	lb	a2,29(a1)
    1c14:	02e505b3          	mul	a1,a0,a4
    1c18:	01558ab3          	add	s5,a1,s5
    1c1c:	000015b7          	lui	a1,0x1
    1c20:	40b405b3          	sub	a1,s0,a1
    1c24:	6955bc23          	sd	s5,1688(a1) # 1698 <.LBB46_4+0x514>
    1c28:	f8843583          	ld	a1,-120(s0)
    1c2c:	01e58683          	lb	a3,30(a1)
    1c30:	02c505b3          	mul	a1,a0,a2
    1c34:	00060e93          	mv	t4,a2
    1c38:	00001637          	lui	a2,0x1
    1c3c:	40c40633          	sub	a2,s0,a2
    1c40:	78063603          	ld	a2,1920(a2) # 1780 <.LBB46_5+0x68>
    1c44:	00c58633          	add	a2,a1,a2
    1c48:	000015b7          	lui	a1,0x1
    1c4c:	40b405b3          	sub	a1,s0,a1
    1c50:	78c5b023          	sd	a2,1920(a1) # 1780 <.LBB46_5+0x68>
    1c54:	f8843583          	ld	a1,-120(s0)
    1c58:	01f58583          	lb	a1,31(a1)
    1c5c:	f8043603          	ld	a2,-128(s0)
    1c60:	fa060a03          	lb	s4,-96(a2)
    1c64:	02d50cb3          	mul	s9,a0,a3
    1c68:	00068f13          	mv	t5,a3
    1c6c:	f2d43023          	sd	a3,-224(s0)
    1c70:	00001637          	lui	a2,0x1
    1c74:	40c40633          	sub	a2,s0,a2
    1c78:	78863603          	ld	a2,1928(a2) # 1788 <.LBB46_5+0x70>
    1c7c:	00cc8633          	add	a2,s9,a2
    1c80:	000016b7          	lui	a3,0x1
    1c84:	40d406b3          	sub	a3,s0,a3
    1c88:	78c6b423          	sd	a2,1928(a3) # 1788 <.LBB46_5+0x70>
    1c8c:	02b50533          	mul	a0,a0,a1
    1c90:	00058d13          	mv	s10,a1
    1c94:	000015b7          	lui	a1,0x1
    1c98:	40b405b3          	sub	a1,s0,a1
    1c9c:	7905b603          	ld	a2,1936(a1) # 1790 <.LBB46_5+0x78>
    1ca0:	00c50633          	add	a2,a0,a2
    1ca4:	00001537          	lui	a0,0x1
    1ca8:	40a40533          	sub	a0,s0,a0
    1cac:	78c53823          	sd	a2,1936(a0) # 1790 <.LBB46_5+0x78>
    1cb0:	f7843503          	ld	a0,-136(s0)
    1cb4:	02aa0533          	mul	a0,s4,a0
    1cb8:	000015b7          	lui	a1,0x1
    1cbc:	40b405b3          	sub	a1,s0,a1
    1cc0:	7b05b603          	ld	a2,1968(a1) # 17b0 <.LBB46_5+0x98>
    1cc4:	00c50633          	add	a2,a0,a2
    1cc8:	00001537          	lui	a0,0x1
    1ccc:	40a40533          	sub	a0,s0,a0
    1cd0:	7ac53823          	sd	a2,1968(a0) # 17b0 <.LBB46_5+0x98>
    1cd4:	f0843383          	ld	t2,-248(s0)
    1cd8:	027a0533          	mul	a0,s4,t2
    1cdc:	000015b7          	lui	a1,0x1
    1ce0:	40b405b3          	sub	a1,s0,a1
    1ce4:	7a85b603          	ld	a2,1960(a1) # 17a8 <.LBB46_5+0x90>
    1ce8:	00c50633          	add	a2,a0,a2
    1cec:	00001537          	lui	a0,0x1
    1cf0:	40a40533          	sub	a0,s0,a0
    1cf4:	7ac53423          	sd	a2,1960(a0) # 17a8 <.LBB46_5+0x90>
    1cf8:	f1843283          	ld	t0,-232(s0)
    1cfc:	025a0533          	mul	a0,s4,t0
    1d00:	000015b7          	lui	a1,0x1
    1d04:	40b405b3          	sub	a1,s0,a1
    1d08:	7a05b603          	ld	a2,1952(a1) # 17a0 <.LBB46_5+0x88>
    1d0c:	00c50633          	add	a2,a0,a2
    1d10:	00001537          	lui	a0,0x1
    1d14:	40a40533          	sub	a0,s0,a0
    1d18:	7ac53023          	sd	a2,1952(a0) # 17a0 <.LBB46_5+0x88>
    1d1c:	ea043903          	ld	s2,-352(s0)
    1d20:	032a0533          	mul	a0,s4,s2
    1d24:	000015b7          	lui	a1,0x1
    1d28:	40b405b3          	sub	a1,s0,a1
    1d2c:	7985b603          	ld	a2,1944(a1) # 1798 <.LBB46_5+0x80>
    1d30:	00c50633          	add	a2,a0,a2
    1d34:	00001537          	lui	a0,0x1
    1d38:	40a40533          	sub	a0,s0,a0
    1d3c:	78c53c23          	sd	a2,1944(a0) # 1798 <.LBB46_5+0x80>
    1d40:	f1043983          	ld	s3,-240(s0)
    1d44:	033a0533          	mul	a0,s4,s3
    1d48:	000015b7          	lui	a1,0x1
    1d4c:	40b405b3          	sub	a1,s0,a1
    1d50:	7b85b603          	ld	a2,1976(a1) # 17b8 <.LBB46_5+0xa0>
    1d54:	00c50633          	add	a2,a0,a2
    1d58:	00001537          	lui	a0,0x1
    1d5c:	40a40533          	sub	a0,s0,a0
    1d60:	7ac53c23          	sd	a2,1976(a0) # 17b8 <.LBB46_5+0xa0>
    1d64:	f7043a83          	ld	s5,-144(s0)
    1d68:	035a0533          	mul	a0,s4,s5
    1d6c:	000015b7          	lui	a1,0x1
    1d70:	40b405b3          	sub	a1,s0,a1
    1d74:	7c05b603          	ld	a2,1984(a1) # 17c0 <.LBB46_5+0xa8>
    1d78:	00c50633          	add	a2,a0,a2
    1d7c:	00001537          	lui	a0,0x1
    1d80:	40a40533          	sub	a0,s0,a0
    1d84:	7cc53023          	sd	a2,1984(a0) # 17c0 <.LBB46_5+0xa8>
    1d88:	f6843b03          	ld	s6,-152(s0)
    1d8c:	036a0533          	mul	a0,s4,s6
    1d90:	000015b7          	lui	a1,0x1
    1d94:	40b405b3          	sub	a1,s0,a1
    1d98:	7c85b603          	ld	a2,1992(a1) # 17c8 <.LBB46_5+0xb0>
    1d9c:	00c50633          	add	a2,a0,a2
    1da0:	00001537          	lui	a0,0x1
    1da4:	40a40533          	sub	a0,s0,a0
    1da8:	7cc53423          	sd	a2,1992(a0) # 17c8 <.LBB46_5+0xb0>
    1dac:	f6043683          	ld	a3,-160(s0)
    1db0:	02da0533          	mul	a0,s4,a3
    1db4:	000015b7          	lui	a1,0x1
    1db8:	40b405b3          	sub	a1,s0,a1
    1dbc:	7d05b603          	ld	a2,2000(a1) # 17d0 <.LBB46_5+0xb8>
    1dc0:	00c50633          	add	a2,a0,a2
    1dc4:	00001537          	lui	a0,0x1
    1dc8:	40a40533          	sub	a0,s0,a0
    1dcc:	7cc53823          	sd	a2,2000(a0) # 17d0 <.LBB46_5+0xb8>
    1dd0:	00001537          	lui	a0,0x1
    1dd4:	40a40533          	sub	a0,s0,a0
    1dd8:	68853d83          	ld	s11,1672(a0) # 1688 <.LBB46_4+0x504>
    1ddc:	03ba0533          	mul	a0,s4,s11
    1de0:	000015b7          	lui	a1,0x1
    1de4:	40b405b3          	sub	a1,s0,a1
    1de8:	7d85b603          	ld	a2,2008(a1) # 17d8 <.LBB46_5+0xc0>
    1dec:	00c50633          	add	a2,a0,a2
    1df0:	00001537          	lui	a0,0x1
    1df4:	40a40533          	sub	a0,s0,a0
    1df8:	7cc53c23          	sd	a2,2008(a0) # 17d8 <.LBB46_5+0xc0>
    1dfc:	e6843c03          	ld	s8,-408(s0)
    1e00:	038a0533          	mul	a0,s4,s8
    1e04:	000015b7          	lui	a1,0x1
    1e08:	40b405b3          	sub	a1,s0,a1
    1e0c:	7e05b603          	ld	a2,2016(a1) # 17e0 <.LBB46_5+0xc8>
    1e10:	00c50633          	add	a2,a0,a2
    1e14:	00001537          	lui	a0,0x1
    1e18:	40a40533          	sub	a0,s0,a0
    1e1c:	7ec53023          	sd	a2,2016(a0) # 17e0 <.LBB46_5+0xc8>
    1e20:	e7043b83          	ld	s7,-400(s0)
    1e24:	037a0533          	mul	a0,s4,s7
    1e28:	000015b7          	lui	a1,0x1
    1e2c:	40b405b3          	sub	a1,s0,a1
    1e30:	7e85b603          	ld	a2,2024(a1) # 17e8 <.LBB46_5+0xd0>
    1e34:	00c50633          	add	a2,a0,a2
    1e38:	00001537          	lui	a0,0x1
    1e3c:	40a40533          	sub	a0,s0,a0
    1e40:	7ec53423          	sd	a2,2024(a0) # 17e8 <.LBB46_5+0xd0>
    1e44:	e9143023          	sd	a7,-384(s0)
    1e48:	031a0533          	mul	a0,s4,a7
    1e4c:	000015b7          	lui	a1,0x1
    1e50:	40b405b3          	sub	a1,s0,a1
    1e54:	7f05b603          	ld	a2,2032(a1) # 17f0 <.LBB46_5+0xd8>
    1e58:	00c50633          	add	a2,a0,a2
    1e5c:	00001537          	lui	a0,0x1
    1e60:	40a40533          	sub	a0,s0,a0
    1e64:	7ec53823          	sd	a2,2032(a0) # 17f0 <.LBB46_5+0xd8>
    1e68:	f4043503          	ld	a0,-192(s0)
    1e6c:	02aa0533          	mul	a0,s4,a0
    1e70:	000015b7          	lui	a1,0x1
    1e74:	40b405b3          	sub	a1,s0,a1
    1e78:	7f85b603          	ld	a2,2040(a1) # 17f8 <.LBB46_5+0xe0>
    1e7c:	00c50633          	add	a2,a0,a2
    1e80:	00001537          	lui	a0,0x1
    1e84:	40a40533          	sub	a0,s0,a0
    1e88:	7ec53c23          	sd	a2,2040(a0) # 17f8 <.LBB46_5+0xe0>
    1e8c:	f4843503          	ld	a0,-184(s0)
    1e90:	02aa0533          	mul	a0,s4,a0
    1e94:	80043603          	ld	a2,-2048(s0)
    1e98:	00c50633          	add	a2,a0,a2
    1e9c:	80c43023          	sd	a2,-2048(s0)
    1ea0:	f5043503          	ld	a0,-176(s0)
    1ea4:	02aa0533          	mul	a0,s4,a0
    1ea8:	80843603          	ld	a2,-2040(s0)
    1eac:	00c50633          	add	a2,a0,a2
    1eb0:	80c43423          	sd	a2,-2040(s0)
    1eb4:	021a0533          	mul	a0,s4,ra
    1eb8:	e4143423          	sd	ra,-440(s0)
    1ebc:	81043603          	ld	a2,-2032(s0)
    1ec0:	00c50633          	add	a2,a0,a2
    1ec4:	80c43823          	sd	a2,-2032(s0)
    1ec8:	f5843503          	ld	a0,-168(s0)
    1ecc:	02aa0533          	mul	a0,s4,a0
    1ed0:	81843603          	ld	a2,-2024(s0)
    1ed4:	00c50633          	add	a2,a0,a2
    1ed8:	80c43c23          	sd	a2,-2024(s0)
    1edc:	03fa0533          	mul	a0,s4,t6
    1ee0:	82043603          	ld	a2,-2016(s0)
    1ee4:	00c50633          	add	a2,a0,a2
    1ee8:	82c43023          	sd	a2,-2016(s0)
    1eec:	02fa0533          	mul	a0,s4,a5
    1ef0:	82843603          	ld	a2,-2008(s0)
    1ef4:	00c50633          	add	a2,a0,a2
    1ef8:	82c43423          	sd	a2,-2008(s0)
    1efc:	e9843f83          	ld	t6,-360(s0)
    1f00:	03fa0533          	mul	a0,s4,t6
    1f04:	83043603          	ld	a2,-2000(s0)
    1f08:	00c50633          	add	a2,a0,a2
    1f0c:	82c43823          	sd	a2,-2000(s0)
    1f10:	00048593          	mv	a1,s1
    1f14:	00001537          	lui	a0,0x1
    1f18:	40a40533          	sub	a0,s0,a0
    1f1c:	68953023          	sd	s1,1664(a0) # 1680 <.LBB46_4+0x4fc>
    1f20:	029a0533          	mul	a0,s4,s1
    1f24:	83843603          	ld	a2,-1992(s0)
    1f28:	00c50633          	add	a2,a0,a2
    1f2c:	82c43c23          	sd	a2,-1992(s0)
    1f30:	eb043503          	ld	a0,-336(s0)
    1f34:	02aa0533          	mul	a0,s4,a0
    1f38:	84043603          	ld	a2,-1984(s0)
    1f3c:	00c50633          	add	a2,a0,a2
    1f40:	84c43023          	sd	a2,-1984(s0)
    1f44:	f3843503          	ld	a0,-200(s0)
    1f48:	02aa0533          	mul	a0,s4,a0
    1f4c:	84843603          	ld	a2,-1976(s0)
    1f50:	00c50633          	add	a2,a0,a2
    1f54:	84c43423          	sd	a2,-1976(s0)
    1f58:	03ca0533          	mul	a0,s4,t3
    1f5c:	ebc43423          	sd	t3,-344(s0)
    1f60:	85043603          	ld	a2,-1968(s0)
    1f64:	00c50633          	add	a2,a0,a2
    1f68:	84c43823          	sd	a2,-1968(s0)
    1f6c:	f3043503          	ld	a0,-208(s0)
    1f70:	02aa0533          	mul	a0,s4,a0
    1f74:	85843603          	ld	a2,-1960(s0)
    1f78:	00c50633          	add	a2,a0,a2
    1f7c:	84c43c23          	sd	a2,-1960(s0)
    1f80:	030a0533          	mul	a0,s4,a6
    1f84:	86043603          	ld	a2,-1952(s0)
    1f88:	00c50633          	add	a2,a0,a2
    1f8c:	86c43023          	sd	a2,-1952(s0)
    1f90:	026a0533          	mul	a0,s4,t1
    1f94:	86843603          	ld	a2,-1944(s0)
    1f98:	00c50633          	add	a2,a0,a2
    1f9c:	86c43423          	sd	a2,-1944(s0)
    1fa0:	e8843483          	ld	s1,-376(s0)
    1fa4:	029a0533          	mul	a0,s4,s1
    1fa8:	87043603          	ld	a2,-1936(s0)
    1fac:	00c50633          	add	a2,a0,a2
    1fb0:	86c43823          	sd	a2,-1936(s0)
    1fb4:	02ea0533          	mul	a0,s4,a4
    1fb8:	00070793          	mv	a5,a4
    1fbc:	00001637          	lui	a2,0x1
    1fc0:	40c40633          	sub	a2,s0,a2
    1fc4:	66e63c23          	sd	a4,1656(a2) # 1678 <.LBB46_4+0x4f4>
    1fc8:	87843603          	ld	a2,-1928(s0)
    1fcc:	00c50633          	add	a2,a0,a2
    1fd0:	86c43c23          	sd	a2,-1928(s0)
    1fd4:	03da0533          	mul	a0,s4,t4
    1fd8:	e7d43c23          	sd	t4,-392(s0)
    1fdc:	88043603          	ld	a2,-1920(s0)
    1fe0:	00c50633          	add	a2,a0,a2
    1fe4:	88c43023          	sd	a2,-1920(s0)
    1fe8:	f8043503          	ld	a0,-128(s0)
    1fec:	fc050503          	lb	a0,-64(a0)
    1ff0:	03ea0cb3          	mul	s9,s4,t5
    1ff4:	88843603          	ld	a2,-1912(s0)
    1ff8:	00cc8633          	add	a2,s9,a2
    1ffc:	88c43423          	sd	a2,-1912(s0)
    2000:	03aa0a33          	mul	s4,s4,s10
    2004:	89043603          	ld	a2,-1904(s0)
    2008:	00ca0633          	add	a2,s4,a2
    200c:	88c43823          	sd	a2,-1904(s0)
    2010:	f7843603          	ld	a2,-136(s0)
    2014:	02c50a33          	mul	s4,a0,a2
    2018:	8b043603          	ld	a2,-1872(s0)
    201c:	00ca0633          	add	a2,s4,a2
    2020:	8ac43823          	sd	a2,-1872(s0)
    2024:	02750a33          	mul	s4,a0,t2
    2028:	8a843603          	ld	a2,-1880(s0)
    202c:	00ca0633          	add	a2,s4,a2
    2030:	8ac43423          	sd	a2,-1880(s0)
    2034:	02550a33          	mul	s4,a0,t0
    2038:	8a043603          	ld	a2,-1888(s0)
    203c:	00ca0633          	add	a2,s4,a2
    2040:	8ac43023          	sd	a2,-1888(s0)
    2044:	03250a33          	mul	s4,a0,s2
    2048:	89843603          	ld	a2,-1896(s0)
    204c:	00ca0633          	add	a2,s4,a2
    2050:	88c43c23          	sd	a2,-1896(s0)
    2054:	03350a33          	mul	s4,a0,s3
    2058:	8b843603          	ld	a2,-1864(s0)
    205c:	00ca0633          	add	a2,s4,a2
    2060:	8ac43c23          	sd	a2,-1864(s0)
    2064:	03550a33          	mul	s4,a0,s5
    2068:	8c043603          	ld	a2,-1856(s0)
    206c:	00ca0633          	add	a2,s4,a2
    2070:	8cc43023          	sd	a2,-1856(s0)
    2074:	03650a33          	mul	s4,a0,s6
    2078:	8c843603          	ld	a2,-1848(s0)
    207c:	00ca0633          	add	a2,s4,a2
    2080:	8cc43423          	sd	a2,-1848(s0)
    2084:	02d50a33          	mul	s4,a0,a3
    2088:	8d043603          	ld	a2,-1840(s0)
    208c:	00ca0633          	add	a2,s4,a2
    2090:	8cc43823          	sd	a2,-1840(s0)
    2094:	03b50a33          	mul	s4,a0,s11
    2098:	8d843603          	ld	a2,-1832(s0)
    209c:	00ca0633          	add	a2,s4,a2
    20a0:	8cc43c23          	sd	a2,-1832(s0)
    20a4:	03850a33          	mul	s4,a0,s8
    20a8:	8e043603          	ld	a2,-1824(s0)
    20ac:	00ca0633          	add	a2,s4,a2
    20b0:	8ec43023          	sd	a2,-1824(s0)
    20b4:	03750a33          	mul	s4,a0,s7
    20b8:	000b8393          	mv	t2,s7
    20bc:	8e843603          	ld	a2,-1816(s0)
    20c0:	00ca0633          	add	a2,s4,a2
    20c4:	8ec43423          	sd	a2,-1816(s0)
    20c8:	03150a33          	mul	s4,a0,a7
    20cc:	8f043603          	ld	a2,-1808(s0)
    20d0:	00ca0633          	add	a2,s4,a2
    20d4:	8ec43823          	sd	a2,-1808(s0)
    20d8:	f4043b03          	ld	s6,-192(s0)
    20dc:	03650a33          	mul	s4,a0,s6
    20e0:	8f843603          	ld	a2,-1800(s0)
    20e4:	00ca0633          	add	a2,s4,a2
    20e8:	8ec43c23          	sd	a2,-1800(s0)
    20ec:	f4843a83          	ld	s5,-184(s0)
    20f0:	03550a33          	mul	s4,a0,s5
    20f4:	90043603          	ld	a2,-1792(s0)
    20f8:	00ca0633          	add	a2,s4,a2
    20fc:	90c43023          	sd	a2,-1792(s0)
    2100:	f5043283          	ld	t0,-176(s0)
    2104:	02550a33          	mul	s4,a0,t0
    2108:	90843603          	ld	a2,-1784(s0)
    210c:	00ca0633          	add	a2,s4,a2
    2110:	90c43423          	sd	a2,-1784(s0)
    2114:	02150a33          	mul	s4,a0,ra
    2118:	91043603          	ld	a2,-1776(s0)
    211c:	00ca0633          	add	a2,s4,a2
    2120:	90c43823          	sd	a2,-1776(s0)
    2124:	f5843303          	ld	t1,-168(s0)
    2128:	02650a33          	mul	s4,a0,t1
    212c:	91843603          	ld	a2,-1768(s0)
    2130:	00ca0633          	add	a2,s4,a2
    2134:	90c43c23          	sd	a2,-1768(s0)
    2138:	e6043803          	ld	a6,-416(s0)
    213c:	03050a33          	mul	s4,a0,a6
    2140:	92043603          	ld	a2,-1760(s0)
    2144:	00ca0633          	add	a2,s4,a2
    2148:	92c43023          	sd	a2,-1760(s0)
    214c:	f2843603          	ld	a2,-216(s0)
    2150:	02c50a33          	mul	s4,a0,a2
    2154:	92843603          	ld	a2,-1752(s0)
    2158:	00ca0633          	add	a2,s4,a2
    215c:	92c43423          	sd	a2,-1752(s0)
    2160:	000f8f13          	mv	t5,t6
    2164:	03f50a33          	mul	s4,a0,t6
    2168:	93043603          	ld	a2,-1744(s0)
    216c:	00ca0633          	add	a2,s4,a2
    2170:	92c43823          	sd	a2,-1744(s0)
    2174:	02b50a33          	mul	s4,a0,a1
    2178:	93843603          	ld	a2,-1736(s0)
    217c:	00ca0633          	add	a2,s4,a2
    2180:	92c43c23          	sd	a2,-1736(s0)
    2184:	eb043883          	ld	a7,-336(s0)
    2188:	03150a33          	mul	s4,a0,a7
    218c:	94043603          	ld	a2,-1728(s0)
    2190:	00ca0633          	add	a2,s4,a2
    2194:	94c43023          	sd	a2,-1728(s0)
    2198:	f3843983          	ld	s3,-200(s0)
    219c:	03350a33          	mul	s4,a0,s3
    21a0:	94843603          	ld	a2,-1720(s0)
    21a4:	00ca0633          	add	a2,s4,a2
    21a8:	94c43423          	sd	a2,-1720(s0)
    21ac:	03c50a33          	mul	s4,a0,t3
    21b0:	95043603          	ld	a2,-1712(s0)
    21b4:	00ca0633          	add	a2,s4,a2
    21b8:	94c43823          	sd	a2,-1712(s0)
    21bc:	f3043e03          	ld	t3,-208(s0)
    21c0:	03c50a33          	mul	s4,a0,t3
    21c4:	95843603          	ld	a2,-1704(s0)
    21c8:	00ca0633          	add	a2,s4,a2
    21cc:	94c43c23          	sd	a2,-1704(s0)
    21d0:	e5043583          	ld	a1,-432(s0)
    21d4:	02b50a33          	mul	s4,a0,a1
    21d8:	96043603          	ld	a2,-1696(s0)
    21dc:	00ca0633          	add	a2,s4,a2
    21e0:	96c43023          	sd	a2,-1696(s0)
    21e4:	e9043703          	ld	a4,-368(s0)
    21e8:	02e50a33          	mul	s4,a0,a4
    21ec:	96843603          	ld	a2,-1688(s0)
    21f0:	00ca0633          	add	a2,s4,a2
    21f4:	96c43423          	sd	a2,-1688(s0)
    21f8:	02950a33          	mul	s4,a0,s1
    21fc:	97043603          	ld	a2,-1680(s0)
    2200:	00ca0633          	add	a2,s4,a2
    2204:	96c43823          	sd	a2,-1680(s0)
    2208:	02f50a33          	mul	s4,a0,a5
    220c:	97843603          	ld	a2,-1672(s0)
    2210:	00ca0633          	add	a2,s4,a2
    2214:	96c43c23          	sd	a2,-1672(s0)
    2218:	03d50a33          	mul	s4,a0,t4
    221c:	98043603          	ld	a2,-1664(s0)
    2220:	00ca0633          	add	a2,s4,a2
    2224:	98c43023          	sd	a2,-1664(s0)
    2228:	f8043603          	ld	a2,-128(s0)
    222c:	fe060a03          	lb	s4,-32(a2)
    2230:	f2043b83          	ld	s7,-224(s0)
    2234:	03750cb3          	mul	s9,a0,s7
    2238:	98843603          	ld	a2,-1656(s0)
    223c:	00cc8633          	add	a2,s9,a2
    2240:	98c43423          	sd	a2,-1656(s0)
    2244:	03a50533          	mul	a0,a0,s10
    2248:	e5a43c23          	sd	s10,-424(s0)
    224c:	99043603          	ld	a2,-1648(s0)
    2250:	00c50633          	add	a2,a0,a2
    2254:	98c43823          	sd	a2,-1648(s0)
    2258:	f7843e83          	ld	t4,-136(s0)
    225c:	03da0533          	mul	a0,s4,t4
    2260:	9b043603          	ld	a2,-1616(s0)
    2264:	00c50633          	add	a2,a0,a2
    2268:	9ac43823          	sd	a2,-1616(s0)
    226c:	f0843683          	ld	a3,-248(s0)
    2270:	02da0533          	mul	a0,s4,a3
    2274:	9a843603          	ld	a2,-1624(s0)
    2278:	00c50633          	add	a2,a0,a2
    227c:	9ac43423          	sd	a2,-1624(s0)
    2280:	f1843f83          	ld	t6,-232(s0)
    2284:	03fa0533          	mul	a0,s4,t6
    2288:	9a043603          	ld	a2,-1632(s0)
    228c:	00c50633          	add	a2,a0,a2
    2290:	9ac43023          	sd	a2,-1632(s0)
    2294:	00090793          	mv	a5,s2
    2298:	032a0533          	mul	a0,s4,s2
    229c:	99843603          	ld	a2,-1640(s0)
    22a0:	00c50633          	add	a2,a0,a2
    22a4:	98c43c23          	sd	a2,-1640(s0)
    22a8:	f1043483          	ld	s1,-240(s0)
    22ac:	029a0533          	mul	a0,s4,s1
    22b0:	9b843603          	ld	a2,-1608(s0)
    22b4:	00c50633          	add	a2,a0,a2
    22b8:	9ac43c23          	sd	a2,-1608(s0)
    22bc:	f7043903          	ld	s2,-144(s0)
    22c0:	032a0533          	mul	a0,s4,s2
    22c4:	9c043603          	ld	a2,-1600(s0)
    22c8:	00c50633          	add	a2,a0,a2
    22cc:	9cc43023          	sd	a2,-1600(s0)
    22d0:	f6843583          	ld	a1,-152(s0)
    22d4:	02ba0533          	mul	a0,s4,a1
    22d8:	9c843603          	ld	a2,-1592(s0)
    22dc:	00c50633          	add	a2,a0,a2
    22e0:	9cc43423          	sd	a2,-1592(s0)
    22e4:	f6043083          	ld	ra,-160(s0)
    22e8:	021a0533          	mul	a0,s4,ra
    22ec:	9d043603          	ld	a2,-1584(s0)
    22f0:	00c50633          	add	a2,a0,a2
    22f4:	9cc43823          	sd	a2,-1584(s0)
    22f8:	03ba0533          	mul	a0,s4,s11
    22fc:	9d843603          	ld	a2,-1576(s0)
    2300:	00c50633          	add	a2,a0,a2
    2304:	9cc43c23          	sd	a2,-1576(s0)
    2308:	038a0533          	mul	a0,s4,s8
    230c:	9e043603          	ld	a2,-1568(s0)
    2310:	00c50633          	add	a2,a0,a2
    2314:	9ec43023          	sd	a2,-1568(s0)
    2318:	027a0533          	mul	a0,s4,t2
    231c:	9e843603          	ld	a2,-1560(s0)
    2320:	00c50633          	add	a2,a0,a2
    2324:	9ec43423          	sd	a2,-1560(s0)
    2328:	e8043503          	ld	a0,-384(s0)
    232c:	02aa0533          	mul	a0,s4,a0
    2330:	9f043603          	ld	a2,-1552(s0)
    2334:	00c50633          	add	a2,a0,a2
    2338:	9ec43823          	sd	a2,-1552(s0)
    233c:	036a0533          	mul	a0,s4,s6
    2340:	9f843603          	ld	a2,-1544(s0)
    2344:	00c50633          	add	a2,a0,a2
    2348:	9ec43c23          	sd	a2,-1544(s0)
    234c:	035a0533          	mul	a0,s4,s5
    2350:	a0043603          	ld	a2,-1536(s0)
    2354:	00c50633          	add	a2,a0,a2
    2358:	a0c43023          	sd	a2,-1536(s0)
    235c:	025a0533          	mul	a0,s4,t0
    2360:	00028a93          	mv	s5,t0
    2364:	a0843603          	ld	a2,-1528(s0)
    2368:	00c50633          	add	a2,a0,a2
    236c:	a0c43423          	sd	a2,-1528(s0)
    2370:	e4843383          	ld	t2,-440(s0)
    2374:	027a0533          	mul	a0,s4,t2
    2378:	a1043603          	ld	a2,-1520(s0)
    237c:	00c50633          	add	a2,a0,a2
    2380:	a0c43823          	sd	a2,-1520(s0)
    2384:	026a0533          	mul	a0,s4,t1
    2388:	a1843603          	ld	a2,-1512(s0)
    238c:	00c50633          	add	a2,a0,a2
    2390:	a0c43c23          	sd	a2,-1512(s0)
    2394:	030a0533          	mul	a0,s4,a6
    2398:	a2043603          	ld	a2,-1504(s0)
    239c:	00c50633          	add	a2,a0,a2
    23a0:	a2c43023          	sd	a2,-1504(s0)
    23a4:	f2843283          	ld	t0,-216(s0)
    23a8:	025a0533          	mul	a0,s4,t0
    23ac:	a2843603          	ld	a2,-1496(s0)
    23b0:	00c50633          	add	a2,a0,a2
    23b4:	a2c43423          	sd	a2,-1496(s0)
    23b8:	03ea0533          	mul	a0,s4,t5
    23bc:	a3043603          	ld	a2,-1488(s0)
    23c0:	00c50633          	add	a2,a0,a2
    23c4:	a2c43823          	sd	a2,-1488(s0)
    23c8:	00001537          	lui	a0,0x1
    23cc:	40a40533          	sub	a0,s0,a0
    23d0:	68053803          	ld	a6,1664(a0) # 1680 <.LBB46_4+0x4fc>
    23d4:	030a0533          	mul	a0,s4,a6
    23d8:	a3843603          	ld	a2,-1480(s0)
    23dc:	00c50633          	add	a2,a0,a2
    23e0:	a2c43c23          	sd	a2,-1480(s0)
    23e4:	031a0533          	mul	a0,s4,a7
    23e8:	00088f13          	mv	t5,a7
    23ec:	a4043603          	ld	a2,-1472(s0)
    23f0:	00c50633          	add	a2,a0,a2
    23f4:	a4c43023          	sd	a2,-1472(s0)
    23f8:	033a0533          	mul	a0,s4,s3
    23fc:	a4843603          	ld	a2,-1464(s0)
    2400:	00c50633          	add	a2,a0,a2
    2404:	a4c43423          	sd	a2,-1464(s0)
    2408:	ea843503          	ld	a0,-344(s0)
    240c:	02aa0533          	mul	a0,s4,a0
    2410:	a5043603          	ld	a2,-1456(s0)
    2414:	00c50633          	add	a2,a0,a2
    2418:	a4c43823          	sd	a2,-1456(s0)
    241c:	03ca0533          	mul	a0,s4,t3
    2420:	a5843603          	ld	a2,-1448(s0)
    2424:	00c50633          	add	a2,a0,a2
    2428:	a4c43c23          	sd	a2,-1448(s0)
    242c:	e5043e03          	ld	t3,-432(s0)
    2430:	03ca0533          	mul	a0,s4,t3
    2434:	a6043603          	ld	a2,-1440(s0)
    2438:	00c50633          	add	a2,a0,a2
    243c:	a6c43023          	sd	a2,-1440(s0)
    2440:	02ea0533          	mul	a0,s4,a4
    2444:	a6843603          	ld	a2,-1432(s0)
    2448:	00c50633          	add	a2,a0,a2
    244c:	a6c43423          	sd	a2,-1432(s0)
    2450:	e8843703          	ld	a4,-376(s0)
    2454:	02ea0533          	mul	a0,s4,a4
    2458:	a7043603          	ld	a2,-1424(s0)
    245c:	00c50633          	add	a2,a0,a2
    2460:	a6c43823          	sd	a2,-1424(s0)
    2464:	00001537          	lui	a0,0x1
    2468:	40a40533          	sub	a0,s0,a0
    246c:	67853b03          	ld	s6,1656(a0) # 1678 <.LBB46_4+0x4f4>
    2470:	036a0533          	mul	a0,s4,s6
    2474:	a7843603          	ld	a2,-1416(s0)
    2478:	00c50633          	add	a2,a0,a2
    247c:	a6c43c23          	sd	a2,-1416(s0)
    2480:	e7843503          	ld	a0,-392(s0)
    2484:	02aa0533          	mul	a0,s4,a0
    2488:	a8043603          	ld	a2,-1408(s0)
    248c:	00c50633          	add	a2,a0,a2
    2490:	a8c43023          	sd	a2,-1408(s0)
    2494:	f8043503          	ld	a0,-128(s0)
    2498:	00050503          	lb	a0,0(a0)
    249c:	037a0cb3          	mul	s9,s4,s7
    24a0:	a8843603          	ld	a2,-1400(s0)
    24a4:	00cc8633          	add	a2,s9,a2
    24a8:	a8c43423          	sd	a2,-1400(s0)
    24ac:	03aa0a33          	mul	s4,s4,s10
    24b0:	a9043603          	ld	a2,-1392(s0)
    24b4:	00ca0633          	add	a2,s4,a2
    24b8:	a8c43823          	sd	a2,-1392(s0)
    24bc:	03d50a33          	mul	s4,a0,t4
    24c0:	000e8993          	mv	s3,t4
    24c4:	ab043603          	ld	a2,-1360(s0)
    24c8:	00ca0633          	add	a2,s4,a2
    24cc:	aac43823          	sd	a2,-1360(s0)
    24d0:	02d50a33          	mul	s4,a0,a3
    24d4:	aa843603          	ld	a2,-1368(s0)
    24d8:	00ca0633          	add	a2,s4,a2
    24dc:	aac43423          	sd	a2,-1368(s0)
    24e0:	03f50a33          	mul	s4,a0,t6
    24e4:	aa043603          	ld	a2,-1376(s0)
    24e8:	00ca0633          	add	a2,s4,a2
    24ec:	aac43023          	sd	a2,-1376(s0)
    24f0:	02f50a33          	mul	s4,a0,a5
    24f4:	a9843603          	ld	a2,-1384(s0)
    24f8:	00ca0633          	add	a2,s4,a2
    24fc:	a8c43c23          	sd	a2,-1384(s0)
    2500:	02950a33          	mul	s4,a0,s1
    2504:	ab843603          	ld	a2,-1352(s0)
    2508:	00ca0633          	add	a2,s4,a2
    250c:	aac43c23          	sd	a2,-1352(s0)
    2510:	03250a33          	mul	s4,a0,s2
    2514:	ac043603          	ld	a2,-1344(s0)
    2518:	00ca0633          	add	a2,s4,a2
    251c:	acc43023          	sd	a2,-1344(s0)
    2520:	02b50a33          	mul	s4,a0,a1
    2524:	ac843603          	ld	a2,-1336(s0)
    2528:	00ca0633          	add	a2,s4,a2
    252c:	acc43423          	sd	a2,-1336(s0)
    2530:	02150a33          	mul	s4,a0,ra
    2534:	ad043603          	ld	a2,-1328(s0)
    2538:	00ca0633          	add	a2,s4,a2
    253c:	acc43823          	sd	a2,-1328(s0)
    2540:	03b50a33          	mul	s4,a0,s11
    2544:	ad843603          	ld	a2,-1320(s0)
    2548:	00ca0633          	add	a2,s4,a2
    254c:	acc43c23          	sd	a2,-1320(s0)
    2550:	03850a33          	mul	s4,a0,s8
    2554:	ae043603          	ld	a2,-1312(s0)
    2558:	00ca0633          	add	a2,s4,a2
    255c:	aec43023          	sd	a2,-1312(s0)
    2560:	e7043b83          	ld	s7,-400(s0)
    2564:	03750a33          	mul	s4,a0,s7
    2568:	ae843603          	ld	a2,-1304(s0)
    256c:	00ca0633          	add	a2,s4,a2
    2570:	aec43423          	sd	a2,-1304(s0)
    2574:	e8043783          	ld	a5,-384(s0)
    2578:	02f50a33          	mul	s4,a0,a5
    257c:	af043603          	ld	a2,-1296(s0)
    2580:	00ca0633          	add	a2,s4,a2
    2584:	aec43823          	sd	a2,-1296(s0)
    2588:	f4043683          	ld	a3,-192(s0)
    258c:	02d50a33          	mul	s4,a0,a3
    2590:	af843603          	ld	a2,-1288(s0)
    2594:	00ca0633          	add	a2,s4,a2
    2598:	aec43c23          	sd	a2,-1288(s0)
    259c:	f4843303          	ld	t1,-184(s0)
    25a0:	02650a33          	mul	s4,a0,t1
    25a4:	b0043603          	ld	a2,-1280(s0)
    25a8:	00ca0633          	add	a2,s4,a2
    25ac:	b0c43023          	sd	a2,-1280(s0)
    25b0:	03550a33          	mul	s4,a0,s5
    25b4:	b0843603          	ld	a2,-1272(s0)
    25b8:	00ca0633          	add	a2,s4,a2
    25bc:	b0c43423          	sd	a2,-1272(s0)
    25c0:	02750a33          	mul	s4,a0,t2
    25c4:	b1043603          	ld	a2,-1264(s0)
    25c8:	00ca0633          	add	a2,s4,a2
    25cc:	b0c43823          	sd	a2,-1264(s0)
    25d0:	f5843583          	ld	a1,-168(s0)
    25d4:	02b50a33          	mul	s4,a0,a1
    25d8:	b1843603          	ld	a2,-1256(s0)
    25dc:	00ca0633          	add	a2,s4,a2
    25e0:	b0c43c23          	sd	a2,-1256(s0)
    25e4:	e6043883          	ld	a7,-416(s0)
    25e8:	03150a33          	mul	s4,a0,a7
    25ec:	b2043603          	ld	a2,-1248(s0)
    25f0:	00ca0633          	add	a2,s4,a2
    25f4:	b2c43023          	sd	a2,-1248(s0)
    25f8:	02550a33          	mul	s4,a0,t0
    25fc:	b2843603          	ld	a2,-1240(s0)
    2600:	00ca0633          	add	a2,s4,a2
    2604:	b2c43423          	sd	a2,-1240(s0)
    2608:	e9843383          	ld	t2,-360(s0)
    260c:	02750a33          	mul	s4,a0,t2
    2610:	b3043603          	ld	a2,-1232(s0)
    2614:	00ca0633          	add	a2,s4,a2
    2618:	b2c43823          	sd	a2,-1232(s0)
    261c:	03050a33          	mul	s4,a0,a6
    2620:	00080d13          	mv	s10,a6
    2624:	b3843603          	ld	a2,-1224(s0)
    2628:	00ca0633          	add	a2,s4,a2
    262c:	b2c43c23          	sd	a2,-1224(s0)
    2630:	03e50a33          	mul	s4,a0,t5
    2634:	b4043603          	ld	a2,-1216(s0)
    2638:	00ca0633          	add	a2,s4,a2
    263c:	b4c43023          	sd	a2,-1216(s0)
    2640:	f3843f83          	ld	t6,-200(s0)
    2644:	03f50a33          	mul	s4,a0,t6
    2648:	b4843603          	ld	a2,-1208(s0)
    264c:	00ca0633          	add	a2,s4,a2
    2650:	b4c43423          	sd	a2,-1208(s0)
    2654:	ea843483          	ld	s1,-344(s0)
    2658:	02950a33          	mul	s4,a0,s1
    265c:	b5043603          	ld	a2,-1200(s0)
    2660:	00ca0633          	add	a2,s4,a2
    2664:	b4c43823          	sd	a2,-1200(s0)
    2668:	f3043903          	ld	s2,-208(s0)
    266c:	03250a33          	mul	s4,a0,s2
    2670:	b5843603          	ld	a2,-1192(s0)
    2674:	00ca0633          	add	a2,s4,a2
    2678:	b4c43c23          	sd	a2,-1192(s0)
    267c:	000e0813          	mv	a6,t3
    2680:	03c50a33          	mul	s4,a0,t3
    2684:	b6043603          	ld	a2,-1184(s0)
    2688:	00ca0633          	add	a2,s4,a2
    268c:	b6c43023          	sd	a2,-1184(s0)
    2690:	e9043e03          	ld	t3,-368(s0)
    2694:	03c50a33          	mul	s4,a0,t3
    2698:	b6843603          	ld	a2,-1176(s0)
    269c:	00ca0633          	add	a2,s4,a2
    26a0:	b6c43423          	sd	a2,-1176(s0)
    26a4:	02e50a33          	mul	s4,a0,a4
    26a8:	b7043603          	ld	a2,-1168(s0)
    26ac:	00ca0633          	add	a2,s4,a2
    26b0:	b6c43823          	sd	a2,-1168(s0)
    26b4:	000b0a93          	mv	s5,s6
    26b8:	03650a33          	mul	s4,a0,s6
    26bc:	b7843603          	ld	a2,-1160(s0)
    26c0:	00ca0633          	add	a2,s4,a2
    26c4:	b6c43c23          	sd	a2,-1160(s0)
    26c8:	e7843e83          	ld	t4,-392(s0)
    26cc:	03d50a33          	mul	s4,a0,t4
    26d0:	b8043603          	ld	a2,-1152(s0)
    26d4:	00ca0633          	add	a2,s4,a2
    26d8:	b8c43023          	sd	a2,-1152(s0)
    26dc:	f8043603          	ld	a2,-128(s0)
    26e0:	02060a03          	lb	s4,32(a2)
    26e4:	f2043603          	ld	a2,-224(s0)
    26e8:	02c50cb3          	mul	s9,a0,a2
    26ec:	b8843603          	ld	a2,-1144(s0)
    26f0:	00cc8633          	add	a2,s9,a2
    26f4:	b8c43423          	sd	a2,-1144(s0)
    26f8:	e5843083          	ld	ra,-424(s0)
    26fc:	02150533          	mul	a0,a0,ra
    2700:	b9043603          	ld	a2,-1136(s0)
    2704:	00c50633          	add	a2,a0,a2
    2708:	b8c43823          	sd	a2,-1136(s0)
    270c:	033a0533          	mul	a0,s4,s3
    2710:	bb043603          	ld	a2,-1104(s0)
    2714:	00c50633          	add	a2,a0,a2
    2718:	bac43823          	sd	a2,-1104(s0)
    271c:	f0843703          	ld	a4,-248(s0)
    2720:	02ea0533          	mul	a0,s4,a4
    2724:	ba843603          	ld	a2,-1112(s0)
    2728:	00c50633          	add	a2,a0,a2
    272c:	bac43423          	sd	a2,-1112(s0)
    2730:	f1843f03          	ld	t5,-232(s0)
    2734:	03ea0533          	mul	a0,s4,t5
    2738:	ba043603          	ld	a2,-1120(s0)
    273c:	00c50633          	add	a2,a0,a2
    2740:	bac43023          	sd	a2,-1120(s0)
    2744:	ea043983          	ld	s3,-352(s0)
    2748:	033a0533          	mul	a0,s4,s3
    274c:	b9843603          	ld	a2,-1128(s0)
    2750:	00c50633          	add	a2,a0,a2
    2754:	b8c43c23          	sd	a2,-1128(s0)
    2758:	f1043b03          	ld	s6,-240(s0)
    275c:	036a0533          	mul	a0,s4,s6
    2760:	bb843603          	ld	a2,-1096(s0)
    2764:	00c50633          	add	a2,a0,a2
    2768:	bac43c23          	sd	a2,-1096(s0)
    276c:	f7043503          	ld	a0,-144(s0)
    2770:	02aa0533          	mul	a0,s4,a0
    2774:	bc043603          	ld	a2,-1088(s0)
    2778:	00c50633          	add	a2,a0,a2
    277c:	bcc43023          	sd	a2,-1088(s0)
    2780:	f6843503          	ld	a0,-152(s0)
    2784:	02aa0533          	mul	a0,s4,a0
    2788:	bc843603          	ld	a2,-1080(s0)
    278c:	00c50633          	add	a2,a0,a2
    2790:	bcc43423          	sd	a2,-1080(s0)
    2794:	f6043503          	ld	a0,-160(s0)
    2798:	02aa0533          	mul	a0,s4,a0
    279c:	bd043603          	ld	a2,-1072(s0)
    27a0:	00c50633          	add	a2,a0,a2
    27a4:	bcc43823          	sd	a2,-1072(s0)
    27a8:	03ba0533          	mul	a0,s4,s11
    27ac:	bd843603          	ld	a2,-1064(s0)
    27b0:	00c50633          	add	a2,a0,a2
    27b4:	bcc43c23          	sd	a2,-1064(s0)
    27b8:	038a0533          	mul	a0,s4,s8
    27bc:	be043603          	ld	a2,-1056(s0)
    27c0:	00c50633          	add	a2,a0,a2
    27c4:	bec43023          	sd	a2,-1056(s0)
    27c8:	037a0533          	mul	a0,s4,s7
    27cc:	be843603          	ld	a2,-1048(s0)
    27d0:	00c50633          	add	a2,a0,a2
    27d4:	bec43423          	sd	a2,-1048(s0)
    27d8:	02fa0533          	mul	a0,s4,a5
    27dc:	bf043603          	ld	a2,-1040(s0)
    27e0:	00c50633          	add	a2,a0,a2
    27e4:	bec43823          	sd	a2,-1040(s0)
    27e8:	02da0533          	mul	a0,s4,a3
    27ec:	bf843603          	ld	a2,-1032(s0)
    27f0:	00c50633          	add	a2,a0,a2
    27f4:	bec43c23          	sd	a2,-1032(s0)
    27f8:	026a0533          	mul	a0,s4,t1
    27fc:	c0043603          	ld	a2,-1024(s0)
    2800:	00c50633          	add	a2,a0,a2
    2804:	c0c43023          	sd	a2,-1024(s0)
    2808:	f5043303          	ld	t1,-176(s0)
    280c:	026a0533          	mul	a0,s4,t1
    2810:	c0843603          	ld	a2,-1016(s0)
    2814:	00c50633          	add	a2,a0,a2
    2818:	c0c43423          	sd	a2,-1016(s0)
    281c:	e4843c03          	ld	s8,-440(s0)
    2820:	038a0533          	mul	a0,s4,s8
    2824:	c1043603          	ld	a2,-1008(s0)
    2828:	00c50633          	add	a2,a0,a2
    282c:	c0c43823          	sd	a2,-1008(s0)
    2830:	02ba0533          	mul	a0,s4,a1
    2834:	c1843603          	ld	a2,-1000(s0)
    2838:	00c50633          	add	a2,a0,a2
    283c:	c0c43c23          	sd	a2,-1000(s0)
    2840:	031a0533          	mul	a0,s4,a7
    2844:	c2043603          	ld	a2,-992(s0)
    2848:	00c50633          	add	a2,a0,a2
    284c:	c2c43023          	sd	a2,-992(s0)
    2850:	025a0533          	mul	a0,s4,t0
    2854:	c2843603          	ld	a2,-984(s0)
    2858:	00c50633          	add	a2,a0,a2
    285c:	c2c43423          	sd	a2,-984(s0)
    2860:	027a0533          	mul	a0,s4,t2
    2864:	c3043603          	ld	a2,-976(s0)
    2868:	00c50633          	add	a2,a0,a2
    286c:	c2c43823          	sd	a2,-976(s0)
    2870:	000d0693          	mv	a3,s10
    2874:	03aa0533          	mul	a0,s4,s10
    2878:	c3843603          	ld	a2,-968(s0)
    287c:	00c50633          	add	a2,a0,a2
    2880:	c2c43c23          	sd	a2,-968(s0)
    2884:	eb043d03          	ld	s10,-336(s0)
    2888:	03aa0533          	mul	a0,s4,s10
    288c:	c4043603          	ld	a2,-960(s0)
    2890:	00c50633          	add	a2,a0,a2
    2894:	c4c43023          	sd	a2,-960(s0)
    2898:	03fa0533          	mul	a0,s4,t6
    289c:	c4843603          	ld	a2,-952(s0)
    28a0:	00c50633          	add	a2,a0,a2
    28a4:	c4c43423          	sd	a2,-952(s0)
    28a8:	029a0533          	mul	a0,s4,s1
    28ac:	c5043603          	ld	a2,-944(s0)
    28b0:	00c50633          	add	a2,a0,a2
    28b4:	c4c43823          	sd	a2,-944(s0)
    28b8:	032a0533          	mul	a0,s4,s2
    28bc:	c5843603          	ld	a2,-936(s0)
    28c0:	00c50633          	add	a2,a0,a2
    28c4:	c4c43c23          	sd	a2,-936(s0)
    28c8:	030a0533          	mul	a0,s4,a6
    28cc:	c6043603          	ld	a2,-928(s0)
    28d0:	00c50633          	add	a2,a0,a2
    28d4:	c6c43023          	sd	a2,-928(s0)
    28d8:	03ca0533          	mul	a0,s4,t3
    28dc:	c6843603          	ld	a2,-920(s0)
    28e0:	00c50633          	add	a2,a0,a2
    28e4:	c6c43423          	sd	a2,-920(s0)
    28e8:	e8843e03          	ld	t3,-376(s0)
    28ec:	03ca0533          	mul	a0,s4,t3
    28f0:	c7043603          	ld	a2,-912(s0)
    28f4:	00c50633          	add	a2,a0,a2
    28f8:	c6c43823          	sd	a2,-912(s0)
    28fc:	035a0533          	mul	a0,s4,s5
    2900:	c7843603          	ld	a2,-904(s0)
    2904:	00c50633          	add	a2,a0,a2
    2908:	c6c43c23          	sd	a2,-904(s0)
    290c:	03da0533          	mul	a0,s4,t4
    2910:	c8043603          	ld	a2,-896(s0)
    2914:	00c50633          	add	a2,a0,a2
    2918:	c8c43023          	sd	a2,-896(s0)
    291c:	f8043503          	ld	a0,-128(s0)
    2920:	04050503          	lb	a0,64(a0)
    2924:	f2043583          	ld	a1,-224(s0)
    2928:	02ba0cb3          	mul	s9,s4,a1
    292c:	c8843603          	ld	a2,-888(s0)
    2930:	00cc8633          	add	a2,s9,a2
    2934:	c8c43423          	sd	a2,-888(s0)
    2938:	021a0a33          	mul	s4,s4,ra
    293c:	c9043603          	ld	a2,-880(s0)
    2940:	00ca0633          	add	a2,s4,a2
    2944:	c8c43823          	sd	a2,-880(s0)
    2948:	f7843583          	ld	a1,-136(s0)
    294c:	02b50a33          	mul	s4,a0,a1
    2950:	cb043603          	ld	a2,-848(s0)
    2954:	00ca0633          	add	a2,s4,a2
    2958:	cac43823          	sd	a2,-848(s0)
    295c:	02e50a33          	mul	s4,a0,a4
    2960:	ca843603          	ld	a2,-856(s0)
    2964:	00ca0633          	add	a2,s4,a2
    2968:	cac43423          	sd	a2,-856(s0)
    296c:	03e50a33          	mul	s4,a0,t5
    2970:	ca043603          	ld	a2,-864(s0)
    2974:	00ca0633          	add	a2,s4,a2
    2978:	cac43023          	sd	a2,-864(s0)
    297c:	03350a33          	mul	s4,a0,s3
    2980:	c9843603          	ld	a2,-872(s0)
    2984:	00ca0633          	add	a2,s4,a2
    2988:	c8c43c23          	sd	a2,-872(s0)
    298c:	03650a33          	mul	s4,a0,s6
    2990:	cb843603          	ld	a2,-840(s0)
    2994:	00ca0633          	add	a2,s4,a2
    2998:	cac43c23          	sd	a2,-840(s0)
    299c:	f7043583          	ld	a1,-144(s0)
    29a0:	02b50a33          	mul	s4,a0,a1
    29a4:	cc043603          	ld	a2,-832(s0)
    29a8:	00ca0633          	add	a2,s4,a2
    29ac:	ccc43023          	sd	a2,-832(s0)
    29b0:	f6843583          	ld	a1,-152(s0)
    29b4:	02b50a33          	mul	s4,a0,a1
    29b8:	cc843603          	ld	a2,-824(s0)
    29bc:	00ca0633          	add	a2,s4,a2
    29c0:	ccc43423          	sd	a2,-824(s0)
    29c4:	f6043583          	ld	a1,-160(s0)
    29c8:	02b50a33          	mul	s4,a0,a1
    29cc:	cd043603          	ld	a2,-816(s0)
    29d0:	00ca0633          	add	a2,s4,a2
    29d4:	ccc43823          	sd	a2,-816(s0)
    29d8:	000d8093          	mv	ra,s11
    29dc:	03b50a33          	mul	s4,a0,s11
    29e0:	cd843603          	ld	a2,-808(s0)
    29e4:	00ca0633          	add	a2,s4,a2
    29e8:	ccc43c23          	sd	a2,-808(s0)
    29ec:	e6843d83          	ld	s11,-408(s0)
    29f0:	03b50a33          	mul	s4,a0,s11
    29f4:	ce043603          	ld	a2,-800(s0)
    29f8:	00ca0633          	add	a2,s4,a2
    29fc:	cec43023          	sd	a2,-800(s0)
    2a00:	03750a33          	mul	s4,a0,s7
    2a04:	ce843603          	ld	a2,-792(s0)
    2a08:	00ca0633          	add	a2,s4,a2
    2a0c:	cec43423          	sd	a2,-792(s0)
    2a10:	00078913          	mv	s2,a5
    2a14:	02f50a33          	mul	s4,a0,a5
    2a18:	cf043603          	ld	a2,-784(s0)
    2a1c:	00ca0633          	add	a2,s4,a2
    2a20:	cec43823          	sd	a2,-784(s0)
    2a24:	f4043483          	ld	s1,-192(s0)
    2a28:	02950a33          	mul	s4,a0,s1
    2a2c:	cf843603          	ld	a2,-776(s0)
    2a30:	00ca0633          	add	a2,s4,a2
    2a34:	cec43c23          	sd	a2,-776(s0)
    2a38:	f4843f83          	ld	t6,-184(s0)
    2a3c:	03f50a33          	mul	s4,a0,t6
    2a40:	d0043603          	ld	a2,-768(s0)
    2a44:	00ca0633          	add	a2,s4,a2
    2a48:	d0c43023          	sd	a2,-768(s0)
    2a4c:	02650a33          	mul	s4,a0,t1
    2a50:	d0843603          	ld	a2,-760(s0)
    2a54:	00ca0633          	add	a2,s4,a2
    2a58:	d0c43423          	sd	a2,-760(s0)
    2a5c:	000c0393          	mv	t2,s8
    2a60:	03850a33          	mul	s4,a0,s8
    2a64:	d1043603          	ld	a2,-752(s0)
    2a68:	00ca0633          	add	a2,s4,a2
    2a6c:	d0c43823          	sd	a2,-752(s0)
    2a70:	f5843c03          	ld	s8,-168(s0)
    2a74:	03850a33          	mul	s4,a0,s8
    2a78:	d1843603          	ld	a2,-744(s0)
    2a7c:	00ca0633          	add	a2,s4,a2
    2a80:	d0c43c23          	sd	a2,-744(s0)
    2a84:	00088293          	mv	t0,a7
    2a88:	03150a33          	mul	s4,a0,a7
    2a8c:	d2043603          	ld	a2,-736(s0)
    2a90:	00ca0633          	add	a2,s4,a2
    2a94:	d2c43023          	sd	a2,-736(s0)
    2a98:	f2843883          	ld	a7,-216(s0)
    2a9c:	03150a33          	mul	s4,a0,a7
    2aa0:	d2843603          	ld	a2,-728(s0)
    2aa4:	00ca0633          	add	a2,s4,a2
    2aa8:	d2c43423          	sd	a2,-728(s0)
    2aac:	e9843783          	ld	a5,-360(s0)
    2ab0:	02f50a33          	mul	s4,a0,a5
    2ab4:	d3043603          	ld	a2,-720(s0)
    2ab8:	00ca0633          	add	a2,s4,a2
    2abc:	d2c43823          	sd	a2,-720(s0)
    2ac0:	02d50a33          	mul	s4,a0,a3
    2ac4:	00068b13          	mv	s6,a3
    2ac8:	d3843603          	ld	a2,-712(s0)
    2acc:	00ca0633          	add	a2,s4,a2
    2ad0:	d2c43c23          	sd	a2,-712(s0)
    2ad4:	03a50a33          	mul	s4,a0,s10
    2ad8:	d4043603          	ld	a2,-704(s0)
    2adc:	00ca0633          	add	a2,s4,a2
    2ae0:	d4c43023          	sd	a2,-704(s0)
    2ae4:	f3843703          	ld	a4,-200(s0)
    2ae8:	02e50a33          	mul	s4,a0,a4
    2aec:	d4843603          	ld	a2,-696(s0)
    2af0:	00ca0633          	add	a2,s4,a2
    2af4:	d4c43423          	sd	a2,-696(s0)
    2af8:	ea843683          	ld	a3,-344(s0)
    2afc:	02d50a33          	mul	s4,a0,a3
    2b00:	d5043603          	ld	a2,-688(s0)
    2b04:	00ca0633          	add	a2,s4,a2
    2b08:	d4c43823          	sd	a2,-688(s0)
    2b0c:	f3043583          	ld	a1,-208(s0)
    2b10:	02b50a33          	mul	s4,a0,a1
    2b14:	d5843603          	ld	a2,-680(s0)
    2b18:	00ca0633          	add	a2,s4,a2
    2b1c:	d4c43c23          	sd	a2,-680(s0)
    2b20:	03050a33          	mul	s4,a0,a6
    2b24:	d6043603          	ld	a2,-672(s0)
    2b28:	00ca0633          	add	a2,s4,a2
    2b2c:	d6c43023          	sd	a2,-672(s0)
    2b30:	e9043303          	ld	t1,-368(s0)
    2b34:	02650a33          	mul	s4,a0,t1
    2b38:	d6843603          	ld	a2,-664(s0)
    2b3c:	00ca0633          	add	a2,s4,a2
    2b40:	d6c43423          	sd	a2,-664(s0)
    2b44:	03c50a33          	mul	s4,a0,t3
    2b48:	d7043603          	ld	a2,-656(s0)
    2b4c:	00ca0633          	add	a2,s4,a2
    2b50:	d6c43823          	sd	a2,-656(s0)
    2b54:	03550a33          	mul	s4,a0,s5
    2b58:	d7843603          	ld	a2,-648(s0)
    2b5c:	00ca0633          	add	a2,s4,a2
    2b60:	d6c43c23          	sd	a2,-648(s0)
    2b64:	03d50a33          	mul	s4,a0,t4
    2b68:	d8043603          	ld	a2,-640(s0)
    2b6c:	00ca0633          	add	a2,s4,a2
    2b70:	d8c43023          	sd	a2,-640(s0)
    2b74:	f8043603          	ld	a2,-128(s0)
    2b78:	06060a03          	lb	s4,96(a2)
    2b7c:	f2043f03          	ld	t5,-224(s0)
    2b80:	03e50cb3          	mul	s9,a0,t5
    2b84:	d8843603          	ld	a2,-632(s0)
    2b88:	00cc8633          	add	a2,s9,a2
    2b8c:	d8c43423          	sd	a2,-632(s0)
    2b90:	e5843983          	ld	s3,-424(s0)
    2b94:	03350533          	mul	a0,a0,s3
    2b98:	d9043603          	ld	a2,-624(s0)
    2b9c:	00c50633          	add	a2,a0,a2
    2ba0:	d8c43823          	sd	a2,-624(s0)
    2ba4:	033a0533          	mul	a0,s4,s3
    2ba8:	e4a43c23          	sd	a0,-424(s0)
    2bac:	03ea0533          	mul	a0,s4,t5
    2bb0:	00001637          	lui	a2,0x1
    2bb4:	40c40633          	sub	a2,s0,a2
    2bb8:	66a63823          	sd	a0,1648(a2) # 1670 <.LBB46_4+0x4ec>
    2bbc:	03da0533          	mul	a0,s4,t4
    2bc0:	e6a43c23          	sd	a0,-392(s0)
    2bc4:	035a0533          	mul	a0,s4,s5
    2bc8:	00001637          	lui	a2,0x1
    2bcc:	40c40633          	sub	a2,s0,a2
    2bd0:	66a63c23          	sd	a0,1656(a2) # 1678 <.LBB46_4+0x4f4>
    2bd4:	03ca0533          	mul	a0,s4,t3
    2bd8:	e8a43423          	sd	a0,-376(s0)
    2bdc:	026a0533          	mul	a0,s4,t1
    2be0:	f2a43023          	sd	a0,-224(s0)
    2be4:	030a0533          	mul	a0,s4,a6
    2be8:	e8a43823          	sd	a0,-368(s0)
    2bec:	02ba0533          	mul	a0,s4,a1
    2bf0:	f2a43823          	sd	a0,-208(s0)
    2bf4:	02da0533          	mul	a0,s4,a3
    2bf8:	eaa43423          	sd	a0,-344(s0)
    2bfc:	02ea0533          	mul	a0,s4,a4
    2c00:	f2a43c23          	sd	a0,-200(s0)
    2c04:	03aa0533          	mul	a0,s4,s10
    2c08:	eaa43823          	sd	a0,-336(s0)
    2c0c:	036a0333          	mul	t1,s4,s6
    2c10:	02fa0833          	mul	a6,s4,a5
    2c14:	031a0eb3          	mul	t4,s4,a7
    2c18:	025a0e33          	mul	t3,s4,t0
    2c1c:	038a0f33          	mul	t5,s4,s8
    2c20:	027a08b3          	mul	a7,s4,t2
    2c24:	f5043503          	ld	a0,-176(s0)
    2c28:	02aa09b3          	mul	s3,s4,a0
    2c2c:	03fa0ab3          	mul	s5,s4,t6
    2c30:	029a0b33          	mul	s6,s4,s1
    2c34:	032a0cb3          	mul	s9,s4,s2
    2c38:	037a0bb3          	mul	s7,s4,s7
    2c3c:	03ba0c33          	mul	s8,s4,s11
    2c40:	021a0db3          	mul	s11,s4,ra
    2c44:	f6043503          	ld	a0,-160(s0)
    2c48:	02aa00b3          	mul	ra,s4,a0
    2c4c:	f6843503          	ld	a0,-152(s0)
    2c50:	02aa0733          	mul	a4,s4,a0
    2c54:	f7043503          	ld	a0,-144(s0)
    2c58:	02aa0d33          	mul	s10,s4,a0
    2c5c:	f1043503          	ld	a0,-240(s0)
    2c60:	02aa06b3          	mul	a3,s4,a0
    2c64:	ea043503          	ld	a0,-352(s0)
    2c68:	02aa0633          	mul	a2,s4,a0
    2c6c:	f1843503          	ld	a0,-232(s0)
    2c70:	02aa05b3          	mul	a1,s4,a0
    2c74:	f0843503          	ld	a0,-248(s0)
    2c78:	02aa0533          	mul	a0,s4,a0
    2c7c:	f7843783          	ld	a5,-136(s0)
    2c80:	02fa0a33          	mul	s4,s4,a5
    2c84:	db043783          	ld	a5,-592(s0)
    2c88:	00fa07b3          	add	a5,s4,a5
    2c8c:	daf43823          	sd	a5,-592(s0)
    2c90:	da843783          	ld	a5,-600(s0)
    2c94:	00f507b3          	add	a5,a0,a5
    2c98:	daf43423          	sd	a5,-600(s0)
    2c9c:	da043503          	ld	a0,-608(s0)
    2ca0:	00a58533          	add	a0,a1,a0
    2ca4:	daa43023          	sd	a0,-608(s0)
    2ca8:	d9843503          	ld	a0,-616(s0)
    2cac:	00a60533          	add	a0,a2,a0
    2cb0:	d8a43c23          	sd	a0,-616(s0)
    2cb4:	db843503          	ld	a0,-584(s0)
    2cb8:	00a68533          	add	a0,a3,a0
    2cbc:	daa43c23          	sd	a0,-584(s0)
    2cc0:	dc043503          	ld	a0,-576(s0)
    2cc4:	00ad0533          	add	a0,s10,a0
    2cc8:	dca43023          	sd	a0,-576(s0)
    2ccc:	dc843503          	ld	a0,-568(s0)
    2cd0:	00a70533          	add	a0,a4,a0
    2cd4:	dca43423          	sd	a0,-568(s0)
    2cd8:	eb843503          	ld	a0,-328(s0)
    2cdc:	00a08533          	add	a0,ra,a0
    2ce0:	eaa43c23          	sd	a0,-328(s0)
    2ce4:	eb843083          	ld	ra,-328(s0)
    2ce8:	ec043503          	ld	a0,-320(s0)
    2cec:	00ad8533          	add	a0,s11,a0
    2cf0:	eca43023          	sd	a0,-320(s0)
    2cf4:	ec043d03          	ld	s10,-320(s0)
    2cf8:	ec843503          	ld	a0,-312(s0)
    2cfc:	00ac0533          	add	a0,s8,a0
    2d00:	eca43423          	sd	a0,-312(s0)
    2d04:	ec843c03          	ld	s8,-312(s0)
    2d08:	dd043503          	ld	a0,-560(s0)
    2d0c:	00ab8533          	add	a0,s7,a0
    2d10:	dca43823          	sd	a0,-560(s0)
    2d14:	ed043503          	ld	a0,-304(s0)
    2d18:	00ac8533          	add	a0,s9,a0
    2d1c:	000015b7          	lui	a1,0x1
    2d20:	40b405b3          	sub	a1,s0,a1
    2d24:	6985bc83          	ld	s9,1688(a1) # 1698 <.LBB46_4+0x514>
    2d28:	eca43823          	sd	a0,-304(s0)
    2d2c:	ed043b83          	ld	s7,-304(s0)
    2d30:	ed843503          	ld	a0,-296(s0)
    2d34:	00ab0533          	add	a0,s6,a0
    2d38:	dd843b03          	ld	s6,-552(s0)
    2d3c:	eca43c23          	sd	a0,-296(s0)
    2d40:	ed843a03          	ld	s4,-296(s0)
    2d44:	ee043503          	ld	a0,-288(s0)
    2d48:	00aa8533          	add	a0,s5,a0
    2d4c:	eea43023          	sd	a0,-288(s0)
    2d50:	ee043703          	ld	a4,-288(s0)
    2d54:	ee843503          	ld	a0,-280(s0)
    2d58:	00a98533          	add	a0,s3,a0
    2d5c:	eea43423          	sd	a0,-280(s0)
    2d60:	ee843683          	ld	a3,-280(s0)
    2d64:	01688b33          	add	s6,a7,s6
    2d68:	de043f83          	ld	t6,-544(s0)
    2d6c:	01ff0fb3          	add	t6,t5,t6
    2d70:	de843f03          	ld	t5,-536(s0)
    2d74:	01ee0f33          	add	t5,t3,t5
    2d78:	df043e03          	ld	t3,-528(s0)
    2d7c:	ef043503          	ld	a0,-272(s0)
    2d80:	00ae8533          	add	a0,t4,a0
    2d84:	000015b7          	lui	a1,0x1
    2d88:	40b405b3          	sub	a1,s0,a1
    2d8c:	6905be83          	ld	t4,1680(a1) # 1690 <.LBB46_4+0x50c>
    2d90:	eea43823          	sd	a0,-272(s0)
    2d94:	ef043603          	ld	a2,-272(s0)
    2d98:	01c80e33          	add	t3,a6,t3
    2d9c:	df843383          	ld	t2,-520(s0)
    2da0:	007303b3          	add	t2,t1,t2
    2da4:	e0043303          	ld	t1,-512(s0)
    2da8:	eb043503          	ld	a0,-336(s0)
    2dac:	00650333          	add	t1,a0,t1
    2db0:	e0843283          	ld	t0,-504(s0)
    2db4:	f3843503          	ld	a0,-200(s0)
    2db8:	005502b3          	add	t0,a0,t0
    2dbc:	e1043883          	ld	a7,-496(s0)
    2dc0:	ef843503          	ld	a0,-264(s0)
    2dc4:	ea843583          	ld	a1,-344(s0)
    2dc8:	00a58533          	add	a0,a1,a0
    2dcc:	f8043483          	ld	s1,-128(s0)
    2dd0:	eea43c23          	sd	a0,-264(s0)
    2dd4:	ef843583          	ld	a1,-264(s0)
    2dd8:	f0043503          	ld	a0,-256(s0)
    2ddc:	f3043783          	ld	a5,-208(s0)
    2de0:	00a78533          	add	a0,a5,a0
    2de4:	f8843903          	ld	s2,-120(s0)
    2de8:	f0a43023          	sd	a0,-256(s0)
    2dec:	f0043503          	ld	a0,-256(s0)
    2df0:	e9043783          	ld	a5,-368(s0)
    2df4:	011788b3          	add	a7,a5,a7
    2df8:	e1843803          	ld	a6,-488(s0)
    2dfc:	f2043783          	ld	a5,-224(s0)
    2e00:	01078833          	add	a6,a5,a6
    2e04:	e2043783          	ld	a5,-480(s0)
    2e08:	e8843983          	ld	s3,-376(s0)
    2e0c:	00f987b3          	add	a5,s3,a5
    2e10:	e2843a83          	ld	s5,-472(s0)
    2e14:	000019b7          	lui	s3,0x1
    2e18:	413409b3          	sub	s3,s0,s3
    2e1c:	6789b983          	ld	s3,1656(s3) # 1678 <.LBB46_4+0x4f4>
    2e20:	01598ab3          	add	s5,s3,s5
    2e24:	e3543423          	sd	s5,-472(s0)
    2e28:	e3043a83          	ld	s5,-464(s0)
    2e2c:	e7843983          	ld	s3,-392(s0)
    2e30:	01598ab3          	add	s5,s3,s5
    2e34:	e3543823          	sd	s5,-464(s0)
    2e38:	e3843a83          	ld	s5,-456(s0)
    2e3c:	000019b7          	lui	s3,0x1
    2e40:	413409b3          	sub	s3,s0,s3
    2e44:	6709b983          	ld	s3,1648(s3) # 1670 <.LBB46_4+0x4ec>
    2e48:	01598ab3          	add	s5,s3,s5
    2e4c:	e3543c23          	sd	s5,-456(s0)
    2e50:	e4043a83          	ld	s5,-448(s0)
    2e54:	e5843983          	ld	s3,-424(s0)
    2e58:	01598ab3          	add	s5,s3,s5
    2e5c:	e5543023          	sd	s5,-448(s0)
    2e60:	f40e8e93          	addi	t4,t4,-192
    2e64:	0c090913          	addi	s2,s2,192
    2e68:	00148493          	addi	s1,s1,1
    2e6c:	000e8463          	beqz	t4,2e74 <.LBB46_6>
    2e70:	8a9fe06f          	j	1718 <.LBB46_5>

0000000000002e74 <.LBB46_6>:
    2e74:	00001537          	lui	a0,0x1
    2e78:	40a40533          	sub	a0,s0,a0
    2e7c:	6c853a83          	ld	s5,1736(a0) # 16c8 <.LBB46_4+0x544>
    2e80:	00001537          	lui	a0,0x1
    2e84:	40a40533          	sub	a0,s0,a0
    2e88:	6d053d83          	ld	s11,1744(a0) # 16d0 <.LBB46_4+0x54c>
    2e8c:	00001537          	lui	a0,0x1
    2e90:	40a40533          	sub	a0,s0,a0
    2e94:	6d853d03          	ld	s10,1752(a0) # 16d8 <.LBB46_4+0x554>
    2e98:	00001537          	lui	a0,0x1
    2e9c:	40a40533          	sub	a0,s0,a0
    2ea0:	6c053c83          	ld	s9,1728(a0) # 16c0 <.LBB46_4+0x53c>
    2ea4:	00001537          	lui	a0,0x1
    2ea8:	40a40533          	sub	a0,s0,a0
    2eac:	6b853a03          	ld	s4,1720(a0) # 16b8 <.LBB46_4+0x534>
    2eb0:	00001537          	lui	a0,0x1
    2eb4:	40a40533          	sub	a0,s0,a0
    2eb8:	6b053983          	ld	s3,1712(a0) # 16b0 <.LBB46_4+0x52c>
    2ebc:	00001537          	lui	a0,0x1
    2ec0:	40a40533          	sub	a0,s0,a0
    2ec4:	6a853903          	ld	s2,1704(a0) # 16a8 <.LBB46_4+0x524>
    2ec8:	00001537          	lui	a0,0x1
    2ecc:	40a40533          	sub	a0,s0,a0
    2ed0:	6a053483          	ld	s1,1696(a0) # 16a0 <.LBB46_4+0x51c>
    2ed4:	dd643c23          	sd	s6,-552(s0)
    2ed8:	00001537          	lui	a0,0x1
    2edc:	40a40533          	sub	a0,s0,a0
    2ee0:	66853503          	ld	a0,1640(a0) # 1668 <.LBB46_4+0x4e4>
    2ee4:	00251513          	slli	a0,a0,0x2
    2ee8:	000015b7          	lui	a1,0x1
    2eec:	40b405b3          	sub	a1,s0,a1
    2ef0:	d285b583          	ld	a1,-728(a1) # d28 <.LBB46_3+0xaf8>
    2ef4:	00a585b3          	add	a1,a1,a0
    2ef8:	00001637          	lui	a2,0x1
    2efc:	40c40633          	sub	a2,s0,a2
    2f00:	d2063603          	ld	a2,-736(a2) # d20 <.LBB46_3+0xaf0>
    2f04:	00a60533          	add	a0,a2,a0
    2f08:	00c52603          	lw	a2,12(a0)
    2f0c:	00c5ae83          	lw	t4,12(a1)
    2f10:	000016b7          	lui	a3,0x1
    2f14:	40d406b3          	sub	a3,s0,a3
    2f18:	6606b683          	ld	a3,1632(a3) # 1660 <.LBB46_4+0x4dc>
    2f1c:	0006a703          	lw	a4,0(a3)
    2f20:	00261693          	slli	a3,a2,0x2
    2f24:	e9d43423          	sd	t4,-376(s0)
    2f28:	00001637          	lui	a2,0x1
    2f2c:	40c40633          	sub	a2,s0,a2
    2f30:	6e063603          	ld	a2,1760(a2) # 16e0 <.LBB46_4+0x55c>
    2f34:	01d60633          	add	a2,a2,t4
    2f38:	e8d43023          	sd	a3,-384(s0)
    2f3c:	00d60633          	add	a2,a2,a3
    2f40:	00e60633          	add	a2,a2,a4
    2f44:	0806061b          	addiw	a2,a2,128
    2f48:	400006b7          	lui	a3,0x40000
    2f4c:	00001eb7          	lui	t4,0x1
    2f50:	41d40eb3          	sub	t4,s0,t4
    2f54:	feceb823          	sd	a2,-16(t4) # ff0 <.LBB46_3+0xdc0>
    2f58:	00065463          	bgez	a2,2f60 <.LBB46_8>
    2f5c:	c00006b7          	lui	a3,0xc0000

0000000000002f60 <.LBB46_8>:
    2f60:	00001637          	lui	a2,0x1
    2f64:	40c40633          	sub	a2,s0,a2
    2f68:	fad63c23          	sd	a3,-72(a2) # fb8 <.LBB46_3+0xd88>
    2f6c:	00852603          	lw	a2,8(a0)
    2f70:	0085a683          	lw	a3,8(a1)
    2f74:	00261e93          	slli	t4,a2,0x2
    2f78:	e6d43c23          	sd	a3,-392(s0)
    2f7c:	00da8633          	add	a2,s5,a3
    2f80:	e7d43823          	sd	t4,-400(s0)
    2f84:	01d60633          	add	a2,a2,t4
    2f88:	00e60633          	add	a2,a2,a4
    2f8c:	0806061b          	addiw	a2,a2,128
    2f90:	400006b7          	lui	a3,0x40000
    2f94:	00001eb7          	lui	t4,0x1
    2f98:	41d40eb3          	sub	t4,s0,t4
    2f9c:	feceb423          	sd	a2,-24(t4) # fe8 <.LBB46_3+0xdb8>
    2fa0:	00048b93          	mv	s7,s1
    2fa4:	00090c13          	mv	s8,s2
    2fa8:	00098b13          	mv	s6,s3
    2fac:	000a0a93          	mv	s5,s4
    2fb0:	00065463          	bgez	a2,2fb8 <.LBB46_10>
    2fb4:	c00006b7          	lui	a3,0xc0000

0000000000002fb8 <.LBB46_10>:
    2fb8:	00452603          	lw	a2,4(a0)
    2fbc:	0045ae83          	lw	t4,4(a1)
    2fc0:	00261493          	slli	s1,a2,0x2
    2fc4:	e7d43423          	sd	t4,-408(s0)
    2fc8:	01dd8633          	add	a2,s11,t4
    2fcc:	e6943023          	sd	s1,-416(s0)
    2fd0:	00960633          	add	a2,a2,s1
    2fd4:	00e60633          	add	a2,a2,a4
    2fd8:	0806061b          	addiw	a2,a2,128
    2fdc:	40000eb7          	lui	t4,0x40000
    2fe0:	000014b7          	lui	s1,0x1
    2fe4:	409404b3          	sub	s1,s0,s1
    2fe8:	fcc4bc23          	sd	a2,-40(s1) # fd8 <.LBB46_3+0xda8>
    2fec:	00065463          	bgez	a2,2ff4 <.LBB46_12>
    2ff0:	c0000eb7          	lui	t4,0xc0000

0000000000002ff4 <.LBB46_12>:
    2ff4:	00052603          	lw	a2,0(a0)
    2ff8:	0005a483          	lw	s1,0(a1)
    2ffc:	00261913          	slli	s2,a2,0x2
    3000:	e4943c23          	sd	s1,-424(s0)
    3004:	009d0633          	add	a2,s10,s1
    3008:	e5243823          	sd	s2,-432(s0)
    300c:	01260633          	add	a2,a2,s2
    3010:	00e60633          	add	a2,a2,a4
    3014:	0806061b          	addiw	a2,a2,128
    3018:	400004b7          	lui	s1,0x40000
    301c:	00001937          	lui	s2,0x1
    3020:	41240933          	sub	s2,s0,s2
    3024:	fcc93023          	sd	a2,-64(s2) # fc0 <.LBB46_3+0xd90>
    3028:	00065463          	bgez	a2,3030 <.LBB46_14>
    302c:	c00004b7          	lui	s1,0xc0000

0000000000003030 <.LBB46_14>:
    3030:	01052603          	lw	a2,16(a0)
    3034:	0105a903          	lw	s2,16(a1)
    3038:	00261993          	slli	s3,a2,0x2
    303c:	e5243423          	sd	s2,-440(s0)
    3040:	012c8633          	add	a2,s9,s2
    3044:	00001937          	lui	s2,0x1
    3048:	41240933          	sub	s2,s0,s2
    304c:	6f393023          	sd	s3,1760(s2) # 16e0 <.LBB46_4+0x55c>
    3050:	01360633          	add	a2,a2,s3
    3054:	00e60633          	add	a2,a2,a4
    3058:	0806061b          	addiw	a2,a2,128
    305c:	40000937          	lui	s2,0x40000
    3060:	000019b7          	lui	s3,0x1
    3064:	413409b3          	sub	s3,s0,s3
    3068:	fac9b423          	sd	a2,-88(s3) # fa8 <.LBB46_3+0xd78>
    306c:	00065463          	bgez	a2,3074 <.LBB46_16>
    3070:	c0000937          	lui	s2,0xc0000

0000000000003074 <.LBB46_16>:
    3074:	01452603          	lw	a2,20(a0)
    3078:	0145a983          	lw	s3,20(a1)
    307c:	00261a13          	slli	s4,a2,0x2
    3080:	00001637          	lui	a2,0x1
    3084:	40c40633          	sub	a2,s0,a2
    3088:	6d363c23          	sd	s3,1752(a2) # 16d8 <.LBB46_4+0x554>
    308c:	013a8633          	add	a2,s5,s3
    3090:	000019b7          	lui	s3,0x1
    3094:	413409b3          	sub	s3,s0,s3
    3098:	6d49b823          	sd	s4,1744(s3) # 16d0 <.LBB46_4+0x54c>
    309c:	01460633          	add	a2,a2,s4
    30a0:	00e60633          	add	a2,a2,a4
    30a4:	0806061b          	addiw	a2,a2,128
    30a8:	400009b7          	lui	s3,0x40000
    30ac:	00001a37          	lui	s4,0x1
    30b0:	41440a33          	sub	s4,s0,s4
    30b4:	f8ca3823          	sd	a2,-112(s4) # f90 <.LBB46_3+0xd60>
    30b8:	00065463          	bgez	a2,30c0 <.LBB46_18>
    30bc:	c00009b7          	lui	s3,0xc0000

00000000000030c0 <.LBB46_18>:
    30c0:	01852603          	lw	a2,24(a0)
    30c4:	0185aa03          	lw	s4,24(a1)
    30c8:	00261a93          	slli	s5,a2,0x2
    30cc:	00001637          	lui	a2,0x1
    30d0:	40c40633          	sub	a2,s0,a2
    30d4:	6d463423          	sd	s4,1736(a2) # 16c8 <.LBB46_4+0x544>
    30d8:	014b0633          	add	a2,s6,s4
    30dc:	00001a37          	lui	s4,0x1
    30e0:	41440a33          	sub	s4,s0,s4
    30e4:	6d5a3023          	sd	s5,1728(s4) # 16c0 <.LBB46_4+0x53c>
    30e8:	01560633          	add	a2,a2,s5
    30ec:	00e60633          	add	a2,a2,a4
    30f0:	0806061b          	addiw	a2,a2,128
    30f4:	40000a37          	lui	s4,0x40000
    30f8:	00001ab7          	lui	s5,0x1
    30fc:	41540ab3          	sub	s5,s0,s5
    3100:	f6cabc23          	sd	a2,-136(s5) # f78 <.LBB46_3+0xd48>
    3104:	00065463          	bgez	a2,310c <.LBB46_20>
    3108:	c0000a37          	lui	s4,0xc0000

000000000000310c <.LBB46_20>:
    310c:	01c52603          	lw	a2,28(a0)
    3110:	01c5aa83          	lw	s5,28(a1)
    3114:	00261b13          	slli	s6,a2,0x2
    3118:	00001637          	lui	a2,0x1
    311c:	40c40633          	sub	a2,s0,a2
    3120:	6b563c23          	sd	s5,1720(a2) # 16b8 <.LBB46_4+0x534>
    3124:	015c0633          	add	a2,s8,s5
    3128:	00001ab7          	lui	s5,0x1
    312c:	41540ab3          	sub	s5,s0,s5
    3130:	6b6ab823          	sd	s6,1712(s5) # 16b0 <.LBB46_4+0x52c>
    3134:	01660633          	add	a2,a2,s6
    3138:	00e60633          	add	a2,a2,a4
    313c:	0806061b          	addiw	a2,a2,128
    3140:	40000ab7          	lui	s5,0x40000
    3144:	00001b37          	lui	s6,0x1
    3148:	41640b33          	sub	s6,s0,s6
    314c:	f6cb3423          	sd	a2,-152(s6) # f68 <.LBB46_3+0xd38>
    3150:	00065463          	bgez	a2,3158 <.LBB46_22>
    3154:	c0000ab7          	lui	s5,0xc0000

0000000000003158 <.LBB46_22>:
    3158:	00001637          	lui	a2,0x1
    315c:	40c40633          	sub	a2,s0,a2
    3160:	f5563423          	sd	s5,-184(a2) # f48 <.LBB46_3+0xd18>
    3164:	00001637          	lui	a2,0x1
    3168:	40c40633          	sub	a2,s0,a2
    316c:	f5463c23          	sd	s4,-168(a2) # f58 <.LBB46_3+0xd28>
    3170:	00001637          	lui	a2,0x1
    3174:	40c40633          	sub	a2,s0,a2
    3178:	f7363823          	sd	s3,-144(a2) # f70 <.LBB46_3+0xd40>
    317c:	00001637          	lui	a2,0x1
    3180:	40c40633          	sub	a2,s0,a2
    3184:	f9263423          	sd	s2,-120(a2) # f88 <.LBB46_3+0xd58>
    3188:	00001637          	lui	a2,0x1
    318c:	40c40633          	sub	a2,s0,a2
    3190:	f8963c23          	sd	s1,-104(a2) # f98 <.LBB46_3+0xd68>
    3194:	00001637          	lui	a2,0x1
    3198:	40c40633          	sub	a2,s0,a2
    319c:	fbd63823          	sd	t4,-80(a2) # fb0 <.LBB46_3+0xd80>
    31a0:	00001637          	lui	a2,0x1
    31a4:	40c40633          	sub	a2,s0,a2
    31a8:	fcd63823          	sd	a3,-48(a2) # fd0 <.LBB46_3+0xda0>
    31ac:	dff43023          	sd	t6,-544(s0)
    31b0:	dfe43423          	sd	t5,-536(s0)
    31b4:	dfc43823          	sd	t3,-528(s0)
    31b8:	de743c23          	sd	t2,-520(s0)
    31bc:	e0643023          	sd	t1,-512(s0)
    31c0:	e0543423          	sd	t0,-504(s0)
    31c4:	e1143823          	sd	a7,-496(s0)
    31c8:	e1043c23          	sd	a6,-488(s0)
    31cc:	e2f43023          	sd	a5,-480(s0)
    31d0:	02052603          	lw	a2,32(a0)
    31d4:	0205a683          	lw	a3,32(a1)
    31d8:	00261793          	slli	a5,a2,0x2
    31dc:	00001637          	lui	a2,0x1
    31e0:	40c40633          	sub	a2,s0,a2
    31e4:	6ad63423          	sd	a3,1704(a2) # 16a8 <.LBB46_4+0x524>
    31e8:	00db8633          	add	a2,s7,a3
    31ec:	000016b7          	lui	a3,0x1
    31f0:	40d406b3          	sub	a3,s0,a3
    31f4:	6af6b023          	sd	a5,1696(a3) # 16a0 <.LBB46_4+0x51c>
    31f8:	00f60633          	add	a2,a2,a5
    31fc:	00e60633          	add	a2,a2,a4
    3200:	0806061b          	addiw	a2,a2,128
    3204:	400006b7          	lui	a3,0x40000
    3208:	000017b7          	lui	a5,0x1
    320c:	40f407b3          	sub	a5,s0,a5
    3210:	f4c7b823          	sd	a2,-176(a5) # f50 <.LBB46_3+0xd20>
    3214:	00065463          	bgez	a2,321c <.LBB46_24>
    3218:	c00006b7          	lui	a3,0xc0000

000000000000321c <.LBB46_24>:
    321c:	00001637          	lui	a2,0x1
    3220:	40c40633          	sub	a2,s0,a2
    3224:	f2d63c23          	sd	a3,-200(a2) # f38 <.LBB46_3+0xd08>
    3228:	07c5a603          	lw	a2,124(a1)
    322c:	f8c43423          	sd	a2,-120(s0)
    3230:	0785a603          	lw	a2,120(a1)
    3234:	f8c43023          	sd	a2,-128(s0)
    3238:	0745a603          	lw	a2,116(a1)
    323c:	f6c43c23          	sd	a2,-136(s0)
    3240:	0705a603          	lw	a2,112(a1)
    3244:	f6c43823          	sd	a2,-144(s0)
    3248:	06c5a603          	lw	a2,108(a1)
    324c:	f6c43423          	sd	a2,-152(s0)
    3250:	0685a603          	lw	a2,104(a1)
    3254:	f6c43023          	sd	a2,-160(s0)
    3258:	0645a603          	lw	a2,100(a1)
    325c:	f4c43c23          	sd	a2,-168(s0)
    3260:	0605a603          	lw	a2,96(a1)
    3264:	f4c43823          	sd	a2,-176(s0)
    3268:	05c5a603          	lw	a2,92(a1)
    326c:	f4c43423          	sd	a2,-184(s0)
    3270:	0585a603          	lw	a2,88(a1)
    3274:	f4c43023          	sd	a2,-192(s0)
    3278:	0545a603          	lw	a2,84(a1)
    327c:	f2c43c23          	sd	a2,-200(s0)
    3280:	0505a603          	lw	a2,80(a1)
    3284:	f2c43823          	sd	a2,-208(s0)
    3288:	04c5a603          	lw	a2,76(a1)
    328c:	f2c43423          	sd	a2,-216(s0)
    3290:	0485a603          	lw	a2,72(a1)
    3294:	f2c43023          	sd	a2,-224(s0)
    3298:	0445a603          	lw	a2,68(a1)
    329c:	f0c43c23          	sd	a2,-232(s0)
    32a0:	0405a603          	lw	a2,64(a1)
    32a4:	f0c43823          	sd	a2,-240(s0)
    32a8:	03c5a603          	lw	a2,60(a1)
    32ac:	f0c43423          	sd	a2,-248(s0)
    32b0:	0385a603          	lw	a2,56(a1)
    32b4:	eac43823          	sd	a2,-336(s0)
    32b8:	0345a603          	lw	a2,52(a1)
    32bc:	eac43423          	sd	a2,-344(s0)
    32c0:	0305a603          	lw	a2,48(a1)
    32c4:	eac43023          	sd	a2,-352(s0)
    32c8:	02c5a603          	lw	a2,44(a1)
    32cc:	e8c43c23          	sd	a2,-360(s0)
    32d0:	0285a603          	lw	a2,40(a1)
    32d4:	e8c43823          	sd	a2,-368(s0)
    32d8:	0245a603          	lw	a2,36(a1)
    32dc:	07c52583          	lw	a1,124(a0)
    32e0:	000016b7          	lui	a3,0x1
    32e4:	40d406b3          	sub	a3,s0,a3
    32e8:	68b6b023          	sd	a1,1664(a3) # 1680 <.LBB46_4+0x4fc>
    32ec:	07852583          	lw	a1,120(a0)
    32f0:	000016b7          	lui	a3,0x1
    32f4:	40d406b3          	sub	a3,s0,a3
    32f8:	66b6bc23          	sd	a1,1656(a3) # 1678 <.LBB46_4+0x4f4>
    32fc:	07452583          	lw	a1,116(a0)
    3300:	000016b7          	lui	a3,0x1
    3304:	40d406b3          	sub	a3,s0,a3
    3308:	66b6b823          	sd	a1,1648(a3) # 1670 <.LBB46_4+0x4ec>
    330c:	07052283          	lw	t0,112(a0)
    3310:	06c52303          	lw	t1,108(a0)
    3314:	06852383          	lw	t2,104(a0)
    3318:	06452e03          	lw	t3,100(a0)
    331c:	06052e83          	lw	t4,96(a0)
    3320:	05c52f03          	lw	t5,92(a0)
    3324:	05852f83          	lw	t6,88(a0)
    3328:	05452483          	lw	s1,84(a0)
    332c:	05052903          	lw	s2,80(a0)
    3330:	04c52983          	lw	s3,76(a0)
    3334:	04852a03          	lw	s4,72(a0)
    3338:	04452a83          	lw	s5,68(a0)
    333c:	04052b03          	lw	s6,64(a0)
    3340:	03c52b83          	lw	s7,60(a0)
    3344:	03852c03          	lw	s8,56(a0)
    3348:	03452c83          	lw	s9,52(a0)
    334c:	02452583          	lw	a1,36(a0)
    3350:	03052d03          	lw	s10,48(a0)
    3354:	02c52d83          	lw	s11,44(a0)
    3358:	02852083          	lw	ra,40(a0)
    335c:	00259593          	slli	a1,a1,0x2
    3360:	f8543823          	sd	t0,-112(s0)
    3364:	00001537          	lui	a0,0x1
    3368:	40a40533          	sub	a0,s0,a0
    336c:	68c53823          	sd	a2,1680(a0) # 1690 <.LBB46_4+0x50c>
    3370:	00001537          	lui	a0,0x1
    3374:	40a40533          	sub	a0,s0,a0
    3378:	6e853503          	ld	a0,1768(a0) # 16e8 <.LBB46_4+0x564>
    337c:	00c50533          	add	a0,a0,a2
    3380:	00001637          	lui	a2,0x1
    3384:	40c40633          	sub	a2,s0,a2
    3388:	6eb63423          	sd	a1,1768(a2) # 16e8 <.LBB46_4+0x564>
    338c:	00b50533          	add	a0,a0,a1
    3390:	000015b7          	lui	a1,0x1
    3394:	40b405b3          	sub	a1,s0,a1
    3398:	6605b683          	ld	a3,1632(a1) # 1660 <.LBB46_4+0x4dc>
    339c:	01c6a583          	lw	a1,28(a3)
    33a0:	00001637          	lui	a2,0x1
    33a4:	40c40633          	sub	a2,s0,a2
    33a8:	d6b63c23          	sd	a1,-648(a2) # d78 <.LBB46_3+0xb48>
    33ac:	0186a583          	lw	a1,24(a3)
    33b0:	00001637          	lui	a2,0x1
    33b4:	40c40633          	sub	a2,s0,a2
    33b8:	e0b63423          	sd	a1,-504(a2) # e08 <.LBB46_3+0xbd8>
    33bc:	0146a883          	lw	a7,20(a3)
    33c0:	0106a783          	lw	a5,16(a3)
    33c4:	00c6a583          	lw	a1,12(a3)
    33c8:	0086a603          	lw	a2,8(a3)
    33cc:	0046a683          	lw	a3,4(a3)
    33d0:	00e50533          	add	a0,a0,a4
    33d4:	0805051b          	addiw	a0,a0,128
    33d8:	40000837          	lui	a6,0x40000
    33dc:	000012b7          	lui	t0,0x1
    33e0:	405402b3          	sub	t0,s0,t0
    33e4:	6902b423          	sd	a6,1672(t0) # 1688 <.LBB46_4+0x504>
    33e8:	f9043283          	ld	t0,-112(s0)
    33ec:	00001837          	lui	a6,0x1
    33f0:	41040833          	sub	a6,s0,a6
    33f4:	d8a83023          	sd	a0,-640(a6) # d80 <.LBB46_3+0xb50>
    33f8:	00055a63          	bgez	a0,340c <.LBB46_26>
    33fc:	c0000537          	lui	a0,0xc0000
    3400:	00001837          	lui	a6,0x1
    3404:	41040833          	sub	a6,s0,a6
    3408:	68a83423          	sd	a0,1672(a6) # 1688 <.LBB46_4+0x504>

000000000000340c <.LBB46_26>:
    340c:	00209093          	slli	ra,ra,0x2
    3410:	e9043503          	ld	a0,-368(s0)
    3414:	00001837          	lui	a6,0x1
    3418:	41040833          	sub	a6,s0,a6
    341c:	6f083803          	ld	a6,1776(a6) # 16f0 <.LBB46_4+0x56c>
    3420:	00a80533          	add	a0,a6,a0
    3424:	00001837          	lui	a6,0x1
    3428:	41040833          	sub	a6,s0,a6
    342c:	6e183823          	sd	ra,1776(a6) # 16f0 <.LBB46_4+0x56c>
    3430:	00150533          	add	a0,a0,ra
    3434:	00e50533          	add	a0,a0,a4
    3438:	0805051b          	addiw	a0,a0,128 # ffffffffc0000080 <.Lfunc_end80+0xffffffffbffd76b8>
    343c:	400000b7          	lui	ra,0x40000
    3440:	00001837          	lui	a6,0x1
    3444:	41040833          	sub	a6,s0,a6
    3448:	d8a83823          	sd	a0,-624(a6) # d90 <.LBB46_3+0xb60>
    344c:	00001837          	lui	a6,0x1
    3450:	41040833          	sub	a6,s0,a6
    3454:	78083803          	ld	a6,1920(a6) # 1780 <.LBB46_5+0x68>
    3458:	00055463          	bgez	a0,3460 <.LBB46_28>
    345c:	c00000b7          	lui	ra,0xc0000

0000000000003460 <.LBB46_28>:
    3460:	f8b43823          	sd	a1,-112(s0)
    3464:	00001537          	lui	a0,0x1
    3468:	40a40533          	sub	a0,s0,a0
    346c:	d8153423          	sd	ra,-632(a0) # d88 <.LBB46_3+0xb58>
    3470:	002d9d93          	slli	s11,s11,0x2
    3474:	e9843503          	ld	a0,-360(s0)
    3478:	000015b7          	lui	a1,0x1
    347c:	40b405b3          	sub	a1,s0,a1
    3480:	6f85b083          	ld	ra,1784(a1) # 16f8 <.LBB46_4+0x574>
    3484:	00a08533          	add	a0,ra,a0
    3488:	000015b7          	lui	a1,0x1
    348c:	40b405b3          	sub	a1,s0,a1
    3490:	6fb5bc23          	sd	s11,1784(a1) # 16f8 <.LBB46_4+0x574>
    3494:	01b50533          	add	a0,a0,s11
    3498:	00e50533          	add	a0,a0,a4
    349c:	0805051b          	addiw	a0,a0,128
    34a0:	40000db7          	lui	s11,0x40000
    34a4:	b2843083          	ld	ra,-1240(s0)
    34a8:	000015b7          	lui	a1,0x1
    34ac:	40b405b3          	sub	a1,s0,a1
    34b0:	daa5b023          	sd	a0,-608(a1) # da0 <.LBB46_3+0xb70>
    34b4:	f9043583          	ld	a1,-112(s0)
    34b8:	00055463          	bgez	a0,34c0 <.LBB46_30>
    34bc:	c0000db7          	lui	s11,0xc0000

00000000000034c0 <.LBB46_30>:
    34c0:	f8b43823          	sd	a1,-112(s0)
    34c4:	00001537          	lui	a0,0x1
    34c8:	40a40533          	sub	a0,s0,a0
    34cc:	d9b53c23          	sd	s11,-616(a0) # d98 <.LBB46_3+0xb68>
    34d0:	002d1d13          	slli	s10,s10,0x2
    34d4:	ea043503          	ld	a0,-352(s0)
    34d8:	000015b7          	lui	a1,0x1
    34dc:	40b405b3          	sub	a1,s0,a1
    34e0:	7005bd83          	ld	s11,1792(a1) # 1700 <.LBB46_4+0x57c>
    34e4:	00ad8533          	add	a0,s11,a0
    34e8:	000015b7          	lui	a1,0x1
    34ec:	40b405b3          	sub	a1,s0,a1
    34f0:	71a5b023          	sd	s10,1792(a1) # 1700 <.LBB46_4+0x57c>
    34f4:	01a50533          	add	a0,a0,s10
    34f8:	00e50533          	add	a0,a0,a4
    34fc:	0805051b          	addiw	a0,a0,128
    3500:	40000d37          	lui	s10,0x40000
    3504:	b1843d83          	ld	s11,-1256(s0)
    3508:	000015b7          	lui	a1,0x1
    350c:	40b405b3          	sub	a1,s0,a1
    3510:	daa5b823          	sd	a0,-592(a1) # db0 <.LBB46_3+0xb80>
    3514:	f9043583          	ld	a1,-112(s0)
    3518:	00055463          	bgez	a0,3520 <.LBB46_32>
    351c:	c0000d37          	lui	s10,0xc0000

0000000000003520 <.LBB46_32>:
    3520:	f8b43823          	sd	a1,-112(s0)
    3524:	00001537          	lui	a0,0x1
    3528:	40a40533          	sub	a0,s0,a0
    352c:	dba53423          	sd	s10,-600(a0) # da8 <.LBB46_3+0xb78>
    3530:	002c9c93          	slli	s9,s9,0x2
    3534:	ea843503          	ld	a0,-344(s0)
    3538:	000015b7          	lui	a1,0x1
    353c:	40b405b3          	sub	a1,s0,a1
    3540:	7085bd03          	ld	s10,1800(a1) # 1708 <.LBB46_4+0x584>
    3544:	00ad0533          	add	a0,s10,a0
    3548:	000c8d13          	mv	s10,s9
    354c:	01950533          	add	a0,a0,s9
    3550:	00e50533          	add	a0,a0,a4
    3554:	0805051b          	addiw	a0,a0,128
    3558:	40000cb7          	lui	s9,0x40000
    355c:	000015b7          	lui	a1,0x1
    3560:	40b405b3          	sub	a1,s0,a1
    3564:	dca5b023          	sd	a0,-576(a1) # dc0 <.LBB46_3+0xb90>
    3568:	f9043583          	ld	a1,-112(s0)
    356c:	00055463          	bgez	a0,3574 <.LBB46_34>
    3570:	c0000cb7          	lui	s9,0xc0000

0000000000003574 <.LBB46_34>:
    3574:	f8b43823          	sd	a1,-112(s0)
    3578:	00001537          	lui	a0,0x1
    357c:	40a40533          	sub	a0,s0,a0
    3580:	db953c23          	sd	s9,-584(a0) # db8 <.LBB46_3+0xb88>
    3584:	002c1c13          	slli	s8,s8,0x2
    3588:	eb043503          	ld	a0,-336(s0)
    358c:	000015b7          	lui	a1,0x1
    3590:	40b405b3          	sub	a1,s0,a1
    3594:	7105bc83          	ld	s9,1808(a1) # 1710 <.LBB46_4+0x58c>
    3598:	00ac8533          	add	a0,s9,a0
    359c:	000015b7          	lui	a1,0x1
    35a0:	40b405b3          	sub	a1,s0,a1
    35a4:	7185b823          	sd	s8,1808(a1) # 1710 <.LBB46_4+0x58c>
    35a8:	01850533          	add	a0,a0,s8
    35ac:	00e50533          	add	a0,a0,a4
    35b0:	0805051b          	addiw	a0,a0,128
    35b4:	40000c37          	lui	s8,0x40000
    35b8:	b5843c83          	ld	s9,-1192(s0)
    35bc:	000015b7          	lui	a1,0x1
    35c0:	40b405b3          	sub	a1,s0,a1
    35c4:	dca5b823          	sd	a0,-560(a1) # dd0 <.LBB46_3+0xba0>
    35c8:	f9043583          	ld	a1,-112(s0)
    35cc:	00055463          	bgez	a0,35d4 <.LBB46_36>
    35d0:	c0000c37          	lui	s8,0xc0000

00000000000035d4 <.LBB46_36>:
    35d4:	f8b43823          	sd	a1,-112(s0)
    35d8:	00001537          	lui	a0,0x1
    35dc:	40a40533          	sub	a0,s0,a0
    35e0:	dd853423          	sd	s8,-568(a0) # dc8 <.LBB46_3+0xb98>
    35e4:	002b9b93          	slli	s7,s7,0x2
    35e8:	f0843503          	ld	a0,-248(s0)
    35ec:	000015b7          	lui	a1,0x1
    35f0:	40b405b3          	sub	a1,s0,a1
    35f4:	7185bc03          	ld	s8,1816(a1) # 1718 <.LBB46_5>
    35f8:	00ac0533          	add	a0,s8,a0
    35fc:	000015b7          	lui	a1,0x1
    3600:	40b405b3          	sub	a1,s0,a1
    3604:	7175bc23          	sd	s7,1816(a1) # 1718 <.LBB46_5>
    3608:	01750533          	add	a0,a0,s7
    360c:	00e50533          	add	a0,a0,a4
    3610:	0805051b          	addiw	a0,a0,128
    3614:	40000bb7          	lui	s7,0x40000
    3618:	000015b7          	lui	a1,0x1
    361c:	40b405b3          	sub	a1,s0,a1
    3620:	d105bc03          	ld	s8,-752(a1) # d10 <.LBB46_3+0xae0>
    3624:	000015b7          	lui	a1,0x1
    3628:	40b405b3          	sub	a1,s0,a1
    362c:	dea5b023          	sd	a0,-544(a1) # de0 <.LBB46_3+0xbb0>
    3630:	f9043583          	ld	a1,-112(s0)
    3634:	00055463          	bgez	a0,363c <.LBB46_38>
    3638:	c0000bb7          	lui	s7,0xc0000

000000000000363c <.LBB46_38>:
    363c:	f8b43823          	sd	a1,-112(s0)
    3640:	00001537          	lui	a0,0x1
    3644:	40a40533          	sub	a0,s0,a0
    3648:	dd753c23          	sd	s7,-552(a0) # dd8 <.LBB46_3+0xba8>
    364c:	002b1b13          	slli	s6,s6,0x2
    3650:	f1043503          	ld	a0,-240(s0)
    3654:	000015b7          	lui	a1,0x1
    3658:	40b405b3          	sub	a1,s0,a1
    365c:	7205bb83          	ld	s7,1824(a1) # 1720 <.LBB46_5+0x8>
    3660:	00ab8533          	add	a0,s7,a0
    3664:	000015b7          	lui	a1,0x1
    3668:	40b405b3          	sub	a1,s0,a1
    366c:	7365b023          	sd	s6,1824(a1) # 1720 <.LBB46_5+0x8>
    3670:	01650533          	add	a0,a0,s6
    3674:	00e50533          	add	a0,a0,a4
    3678:	0805051b          	addiw	a0,a0,128
    367c:	40000b37          	lui	s6,0x40000
    3680:	000015b7          	lui	a1,0x1
    3684:	40b405b3          	sub	a1,s0,a1
    3688:	6585bb83          	ld	s7,1624(a1) # 1658 <.LBB46_4+0x4d4>
    368c:	000015b7          	lui	a1,0x1
    3690:	40b405b3          	sub	a1,s0,a1
    3694:	dea5b823          	sd	a0,-528(a1) # df0 <.LBB46_3+0xbc0>
    3698:	f9043583          	ld	a1,-112(s0)
    369c:	00055463          	bgez	a0,36a4 <.LBB46_40>
    36a0:	c0000b37          	lui	s6,0xc0000

00000000000036a4 <.LBB46_40>:
    36a4:	f8b43823          	sd	a1,-112(s0)
    36a8:	00001537          	lui	a0,0x1
    36ac:	40a40533          	sub	a0,s0,a0
    36b0:	df653423          	sd	s6,-536(a0) # de8 <.LBB46_3+0xbb8>
    36b4:	002a9a93          	slli	s5,s5,0x2
    36b8:	f1843503          	ld	a0,-232(s0)
    36bc:	000015b7          	lui	a1,0x1
    36c0:	40b405b3          	sub	a1,s0,a1
    36c4:	7285bb03          	ld	s6,1832(a1) # 1728 <.LBB46_5+0x10>
    36c8:	00ab0533          	add	a0,s6,a0
    36cc:	000015b7          	lui	a1,0x1
    36d0:	40b405b3          	sub	a1,s0,a1
    36d4:	7355b423          	sd	s5,1832(a1) # 1728 <.LBB46_5+0x10>
    36d8:	01550533          	add	a0,a0,s5
    36dc:	00e50533          	add	a0,a0,a4
    36e0:	0805051b          	addiw	a0,a0,128
    36e4:	40000ab7          	lui	s5,0x40000
    36e8:	dd043b03          	ld	s6,-560(s0)
    36ec:	000015b7          	lui	a1,0x1
    36f0:	40b405b3          	sub	a1,s0,a1
    36f4:	e0a5b023          	sd	a0,-512(a1) # e00 <.LBB46_3+0xbd0>
    36f8:	f9043583          	ld	a1,-112(s0)
    36fc:	00055463          	bgez	a0,3704 <.LBB46_42>
    3700:	c0000ab7          	lui	s5,0xc0000

0000000000003704 <.LBB46_42>:
    3704:	00001537          	lui	a0,0x1
    3708:	40a40533          	sub	a0,s0,a0
    370c:	df553c23          	sd	s5,-520(a0) # df8 <.LBB46_3+0xbc8>
    3710:	002a1a13          	slli	s4,s4,0x2
    3714:	f2043503          	ld	a0,-224(s0)
    3718:	00001ab7          	lui	s5,0x1
    371c:	41540ab3          	sub	s5,s0,s5
    3720:	730aba83          	ld	s5,1840(s5) # 1730 <.LBB46_5+0x18>
    3724:	00aa8533          	add	a0,s5,a0
    3728:	00001ab7          	lui	s5,0x1
    372c:	41540ab3          	sub	s5,s0,s5
    3730:	734ab823          	sd	s4,1840(s5) # 1730 <.LBB46_5+0x18>
    3734:	01450533          	add	a0,a0,s4
    3738:	00e50533          	add	a0,a0,a4
    373c:	0805051b          	addiw	a0,a0,128
    3740:	40000ab7          	lui	s5,0x40000
    3744:	00001a37          	lui	s4,0x1
    3748:	41440a33          	sub	s4,s0,s4
    374c:	e0aa3823          	sd	a0,-496(s4) # e10 <.LBB46_3+0xbe0>
    3750:	00055463          	bgez	a0,3758 <.LBB46_44>
    3754:	c0000ab7          	lui	s5,0xc0000

0000000000003758 <.LBB46_44>:
    3758:	00299993          	slli	s3,s3,0x2
    375c:	f2843503          	ld	a0,-216(s0)
    3760:	00001a37          	lui	s4,0x1
    3764:	41440a33          	sub	s4,s0,s4
    3768:	738a3a03          	ld	s4,1848(s4) # 1738 <.LBB46_5+0x20>
    376c:	00aa0533          	add	a0,s4,a0
    3770:	00001a37          	lui	s4,0x1
    3774:	41440a33          	sub	s4,s0,s4
    3778:	733a3c23          	sd	s3,1848(s4) # 1738 <.LBB46_5+0x20>
    377c:	01350533          	add	a0,a0,s3
    3780:	00e50533          	add	a0,a0,a4
    3784:	0805051b          	addiw	a0,a0,128
    3788:	400009b7          	lui	s3,0x40000
    378c:	00001a37          	lui	s4,0x1
    3790:	41440a33          	sub	s4,s0,s4
    3794:	e2aa3023          	sd	a0,-480(s4) # e20 <.LBB46_3+0xbf0>
    3798:	00055463          	bgez	a0,37a0 <.LBB46_46>
    379c:	c00009b7          	lui	s3,0xc0000

00000000000037a0 <.LBB46_46>:
    37a0:	00001537          	lui	a0,0x1
    37a4:	40a40533          	sub	a0,s0,a0
    37a8:	e1353c23          	sd	s3,-488(a0) # e18 <.LBB46_3+0xbe8>
    37ac:	00291913          	slli	s2,s2,0x2
    37b0:	f3043503          	ld	a0,-208(s0)
    37b4:	000019b7          	lui	s3,0x1
    37b8:	413409b3          	sub	s3,s0,s3
    37bc:	7409b983          	ld	s3,1856(s3) # 1740 <.LBB46_5+0x28>
    37c0:	00a98533          	add	a0,s3,a0
    37c4:	000019b7          	lui	s3,0x1
    37c8:	413409b3          	sub	s3,s0,s3
    37cc:	7529b023          	sd	s2,1856(s3) # 1740 <.LBB46_5+0x28>
    37d0:	01250533          	add	a0,a0,s2
    37d4:	00e50533          	add	a0,a0,a4
    37d8:	0805051b          	addiw	a0,a0,128
    37dc:	40000937          	lui	s2,0x40000
    37e0:	ee843983          	ld	s3,-280(s0)
    37e4:	00001a37          	lui	s4,0x1
    37e8:	41440a33          	sub	s4,s0,s4
    37ec:	e2aa3823          	sd	a0,-464(s4) # e30 <.LBB46_3+0xc00>
    37f0:	00088a13          	mv	s4,a7
    37f4:	00055463          	bgez	a0,37fc <.LBB46_48>
    37f8:	c0000937          	lui	s2,0xc0000

00000000000037fc <.LBB46_48>:
    37fc:	00001537          	lui	a0,0x1
    3800:	40a40533          	sub	a0,s0,a0
    3804:	e3253423          	sd	s2,-472(a0) # e28 <.LBB46_3+0xbf8>
    3808:	00249493          	slli	s1,s1,0x2
    380c:	f3843503          	ld	a0,-200(s0)
    3810:	000018b7          	lui	a7,0x1
    3814:	411408b3          	sub	a7,s0,a7
    3818:	7488b903          	ld	s2,1864(a7) # 1748 <.LBB46_5+0x30>
    381c:	00a90533          	add	a0,s2,a0
    3820:	000018b7          	lui	a7,0x1
    3824:	411408b3          	sub	a7,s0,a7
    3828:	7498b423          	sd	s1,1864(a7) # 1748 <.LBB46_5+0x30>
    382c:	00950533          	add	a0,a0,s1
    3830:	00e50533          	add	a0,a0,a4
    3834:	0805051b          	addiw	a0,a0,128
    3838:	400004b7          	lui	s1,0x40000
    383c:	dd843903          	ld	s2,-552(s0)
    3840:	000018b7          	lui	a7,0x1
    3844:	411408b3          	sub	a7,s0,a7
    3848:	e4a8b023          	sd	a0,-448(a7) # e40 <.LBB46_3+0xc10>
    384c:	00055463          	bgez	a0,3854 <.LBB46_50>
    3850:	c00004b7          	lui	s1,0xc0000

0000000000003854 <.LBB46_50>:
    3854:	00001537          	lui	a0,0x1
    3858:	40a40533          	sub	a0,s0,a0
    385c:	e2953c23          	sd	s1,-456(a0) # e38 <.LBB46_3+0xc08>
    3860:	002f9f93          	slli	t6,t6,0x2
    3864:	f4043503          	ld	a0,-192(s0)
    3868:	000018b7          	lui	a7,0x1
    386c:	411408b3          	sub	a7,s0,a7
    3870:	7508b483          	ld	s1,1872(a7) # 1750 <.LBB46_5+0x38>
    3874:	00a48533          	add	a0,s1,a0
    3878:	000018b7          	lui	a7,0x1
    387c:	411408b3          	sub	a7,s0,a7
    3880:	75f8b823          	sd	t6,1872(a7) # 1750 <.LBB46_5+0x38>
    3884:	01f50533          	add	a0,a0,t6
    3888:	00e50533          	add	a0,a0,a4
    388c:	0805051b          	addiw	a0,a0,128
    3890:	40000fb7          	lui	t6,0x40000
    3894:	bf843483          	ld	s1,-1032(s0)
    3898:	000018b7          	lui	a7,0x1
    389c:	411408b3          	sub	a7,s0,a7
    38a0:	e4a8b823          	sd	a0,-432(a7) # e50 <.LBB46_3+0xc20>
    38a4:	00055463          	bgez	a0,38ac <.LBB46_52>
    38a8:	c0000fb7          	lui	t6,0xc0000

00000000000038ac <.LBB46_52>:
    38ac:	00001537          	lui	a0,0x1
    38b0:	40a40533          	sub	a0,s0,a0
    38b4:	e5f53423          	sd	t6,-440(a0) # e48 <.LBB46_3+0xc18>
    38b8:	002f1f13          	slli	t5,t5,0x2
    38bc:	f4843503          	ld	a0,-184(s0)
    38c0:	000018b7          	lui	a7,0x1
    38c4:	411408b3          	sub	a7,s0,a7
    38c8:	7588bf83          	ld	t6,1880(a7) # 1758 <.LBB46_5+0x40>
    38cc:	00af8533          	add	a0,t6,a0
    38d0:	000018b7          	lui	a7,0x1
    38d4:	411408b3          	sub	a7,s0,a7
    38d8:	75e8bc23          	sd	t5,1880(a7) # 1758 <.LBB46_5+0x40>
    38dc:	01e50533          	add	a0,a0,t5
    38e0:	00e50533          	add	a0,a0,a4
    38e4:	0805051b          	addiw	a0,a0,128
    38e8:	40000f37          	lui	t5,0x40000
    38ec:	de043f83          	ld	t6,-544(s0)
    38f0:	000018b7          	lui	a7,0x1
    38f4:	411408b3          	sub	a7,s0,a7
    38f8:	e6a8b023          	sd	a0,-416(a7) # e60 <.LBB46_3+0xc30>
    38fc:	00055463          	bgez	a0,3904 <.LBB46_54>
    3900:	c0000f37          	lui	t5,0xc0000

0000000000003904 <.LBB46_54>:
    3904:	00001537          	lui	a0,0x1
    3908:	40a40533          	sub	a0,s0,a0
    390c:	e5e53c23          	sd	t5,-424(a0) # e58 <.LBB46_3+0xc28>
    3910:	002e9e93          	slli	t4,t4,0x2
    3914:	f5043503          	ld	a0,-176(s0)
    3918:	000018b7          	lui	a7,0x1
    391c:	411408b3          	sub	a7,s0,a7
    3920:	7608bf03          	ld	t5,1888(a7) # 1760 <.LBB46_5+0x48>
    3924:	00af0533          	add	a0,t5,a0
    3928:	000018b7          	lui	a7,0x1
    392c:	411408b3          	sub	a7,s0,a7
    3930:	77d8b023          	sd	t4,1888(a7) # 1760 <.LBB46_5+0x48>
    3934:	01d50533          	add	a0,a0,t4
    3938:	00e50533          	add	a0,a0,a4
    393c:	0805051b          	addiw	a0,a0,128
    3940:	40000eb7          	lui	t4,0x40000
    3944:	de843f03          	ld	t5,-536(s0)
    3948:	000018b7          	lui	a7,0x1
    394c:	411408b3          	sub	a7,s0,a7
    3950:	e6a8b823          	sd	a0,-400(a7) # e70 <.LBB46_3+0xc40>
    3954:	00055463          	bgez	a0,395c <.LBB46_56>
    3958:	c0000eb7          	lui	t4,0xc0000

000000000000395c <.LBB46_56>:
    395c:	00001537          	lui	a0,0x1
    3960:	40a40533          	sub	a0,s0,a0
    3964:	e7d53423          	sd	t4,-408(a0) # e68 <.LBB46_3+0xc38>
    3968:	002e1e13          	slli	t3,t3,0x2
    396c:	f5843503          	ld	a0,-168(s0)
    3970:	000018b7          	lui	a7,0x1
    3974:	411408b3          	sub	a7,s0,a7
    3978:	7688be83          	ld	t4,1896(a7) # 1768 <.LBB46_5+0x50>
    397c:	00ae8533          	add	a0,t4,a0
    3980:	000018b7          	lui	a7,0x1
    3984:	411408b3          	sub	a7,s0,a7
    3988:	77c8b423          	sd	t3,1896(a7) # 1768 <.LBB46_5+0x50>
    398c:	01c50533          	add	a0,a0,t3
    3990:	00e50533          	add	a0,a0,a4
    3994:	0805051b          	addiw	a0,a0,128
    3998:	40000e37          	lui	t3,0x40000
    399c:	ef043e83          	ld	t4,-272(s0)
    39a0:	000018b7          	lui	a7,0x1
    39a4:	411408b3          	sub	a7,s0,a7
    39a8:	e8a8b023          	sd	a0,-384(a7) # e80 <.LBB46_3+0xc50>
    39ac:	00055463          	bgez	a0,39b4 <.LBB46_58>
    39b0:	c0000e37          	lui	t3,0xc0000

00000000000039b4 <.LBB46_58>:
    39b4:	00001537          	lui	a0,0x1
    39b8:	40a40533          	sub	a0,s0,a0
    39bc:	e7c53c23          	sd	t3,-392(a0) # e78 <.LBB46_3+0xc48>
    39c0:	00239393          	slli	t2,t2,0x2
    39c4:	f6043503          	ld	a0,-160(s0)
    39c8:	000018b7          	lui	a7,0x1
    39cc:	411408b3          	sub	a7,s0,a7
    39d0:	7708be03          	ld	t3,1904(a7) # 1770 <.LBB46_5+0x58>
    39d4:	00ae0533          	add	a0,t3,a0
    39d8:	000018b7          	lui	a7,0x1
    39dc:	411408b3          	sub	a7,s0,a7
    39e0:	7678b823          	sd	t2,1904(a7) # 1770 <.LBB46_5+0x58>
    39e4:	00750533          	add	a0,a0,t2
    39e8:	00e50533          	add	a0,a0,a4
    39ec:	0805051b          	addiw	a0,a0,128
    39f0:	400003b7          	lui	t2,0x40000
    39f4:	df043e03          	ld	t3,-528(s0)
    39f8:	000018b7          	lui	a7,0x1
    39fc:	411408b3          	sub	a7,s0,a7
    3a00:	e8a8b823          	sd	a0,-368(a7) # e90 <.LBB46_3+0xc60>
    3a04:	00055463          	bgez	a0,3a0c <.LBB46_60>
    3a08:	c00003b7          	lui	t2,0xc0000

0000000000003a0c <.LBB46_60>:
    3a0c:	00001537          	lui	a0,0x1
    3a10:	40a40533          	sub	a0,s0,a0
    3a14:	e8753423          	sd	t2,-376(a0) # e88 <.LBB46_3+0xc58>
    3a18:	00231313          	slli	t1,t1,0x2
    3a1c:	f6843503          	ld	a0,-152(s0)
    3a20:	000018b7          	lui	a7,0x1
    3a24:	411408b3          	sub	a7,s0,a7
    3a28:	7788b383          	ld	t2,1912(a7) # 1778 <.LBB46_5+0x60>
    3a2c:	00a38533          	add	a0,t2,a0
    3a30:	000018b7          	lui	a7,0x1
    3a34:	411408b3          	sub	a7,s0,a7
    3a38:	7668bc23          	sd	t1,1912(a7) # 1778 <.LBB46_5+0x60>
    3a3c:	00650533          	add	a0,a0,t1
    3a40:	00e50533          	add	a0,a0,a4
    3a44:	0805051b          	addiw	a0,a0,128
    3a48:	40000337          	lui	t1,0x40000
    3a4c:	df843383          	ld	t2,-520(s0)
    3a50:	000018b7          	lui	a7,0x1
    3a54:	411408b3          	sub	a7,s0,a7
    3a58:	eaa8b023          	sd	a0,-352(a7) # ea0 <.LBB46_3+0xc70>
    3a5c:	00055463          	bgez	a0,3a64 <.LBB46_62>
    3a60:	c0000337          	lui	t1,0xc0000

0000000000003a64 <.LBB46_62>:
    3a64:	00001537          	lui	a0,0x1
    3a68:	40a40533          	sub	a0,s0,a0
    3a6c:	e8653c23          	sd	t1,-360(a0) # e98 <.LBB46_3+0xc68>
    3a70:	00229293          	slli	t0,t0,0x2
    3a74:	f7043503          	ld	a0,-144(s0)
    3a78:	000018b7          	lui	a7,0x1
    3a7c:	411408b3          	sub	a7,s0,a7
    3a80:	6988b303          	ld	t1,1688(a7) # 1698 <.LBB46_4+0x514>
    3a84:	00a30533          	add	a0,t1,a0
    3a88:	000018b7          	lui	a7,0x1
    3a8c:	411408b3          	sub	a7,s0,a7
    3a90:	7058b423          	sd	t0,1800(a7) # 1708 <.LBB46_4+0x584>
    3a94:	00550533          	add	a0,a0,t0
    3a98:	00e50533          	add	a0,a0,a4
    3a9c:	0805051b          	addiw	a0,a0,128
    3aa0:	400002b7          	lui	t0,0x40000
    3aa4:	e0043303          	ld	t1,-512(s0)
    3aa8:	000018b7          	lui	a7,0x1
    3aac:	411408b3          	sub	a7,s0,a7
    3ab0:	eaa8b823          	sd	a0,-336(a7) # eb0 <.LBB46_3+0xc80>
    3ab4:	00055463          	bgez	a0,3abc <.LBB46_64>
    3ab8:	c00002b7          	lui	t0,0xc0000

0000000000003abc <.LBB46_64>:
    3abc:	00001537          	lui	a0,0x1
    3ac0:	40a40533          	sub	a0,s0,a0
    3ac4:	ea553423          	sd	t0,-344(a0) # ea8 <.LBB46_3+0xc78>
    3ac8:	00001537          	lui	a0,0x1
    3acc:	40a40533          	sub	a0,s0,a0
    3ad0:	67053883          	ld	a7,1648(a0) # 1670 <.LBB46_4+0x4ec>
    3ad4:	00289893          	slli	a7,a7,0x2
    3ad8:	f7843503          	ld	a0,-136(s0)
    3adc:	00a80533          	add	a0,a6,a0
    3ae0:	00001837          	lui	a6,0x1
    3ae4:	41040833          	sub	a6,s0,a6
    3ae8:	79183023          	sd	a7,1920(a6) # 1780 <.LBB46_5+0x68>
    3aec:	01150533          	add	a0,a0,a7
    3af0:	00e50533          	add	a0,a0,a4
    3af4:	0805051b          	addiw	a0,a0,128
    3af8:	400008b7          	lui	a7,0x40000
    3afc:	e0843283          	ld	t0,-504(s0)
    3b00:	00001837          	lui	a6,0x1
    3b04:	41040833          	sub	a6,s0,a6
    3b08:	eca83023          	sd	a0,-320(a6) # ec0 <.LBB46_3+0xc90>
    3b0c:	00055463          	bgez	a0,3b14 <.LBB46_66>
    3b10:	c00008b7          	lui	a7,0xc0000

0000000000003b14 <.LBB46_66>:
    3b14:	00001537          	lui	a0,0x1
    3b18:	40a40533          	sub	a0,s0,a0
    3b1c:	eb153c23          	sd	a7,-328(a0) # eb8 <.LBB46_3+0xc88>
    3b20:	00001537          	lui	a0,0x1
    3b24:	40a40533          	sub	a0,s0,a0
    3b28:	67853803          	ld	a6,1656(a0) # 1678 <.LBB46_4+0x4f4>
    3b2c:	00281813          	slli	a6,a6,0x2
    3b30:	f8043503          	ld	a0,-128(s0)
    3b34:	000018b7          	lui	a7,0x1
    3b38:	411408b3          	sub	a7,s0,a7
    3b3c:	7888b883          	ld	a7,1928(a7) # 1788 <.LBB46_5+0x70>
    3b40:	00a88533          	add	a0,a7,a0
    3b44:	000018b7          	lui	a7,0x1
    3b48:	411408b3          	sub	a7,s0,a7
    3b4c:	7908b423          	sd	a6,1928(a7) # 1788 <.LBB46_5+0x70>
    3b50:	01050533          	add	a0,a0,a6
    3b54:	00e50533          	add	a0,a0,a4
    3b58:	0805051b          	addiw	a0,a0,128
    3b5c:	40000837          	lui	a6,0x40000
    3b60:	000018b7          	lui	a7,0x1
    3b64:	411408b3          	sub	a7,s0,a7
    3b68:	eca8b823          	sd	a0,-304(a7) # ed0 <.LBB46_3+0xca0>
    3b6c:	00055463          	bgez	a0,3b74 <.LBB46_68>
    3b70:	c0000837          	lui	a6,0xc0000

0000000000003b74 <.LBB46_68>:
    3b74:	00001537          	lui	a0,0x1
    3b78:	40a40533          	sub	a0,s0,a0
    3b7c:	ed053423          	sd	a6,-312(a0) # ec8 <.LBB46_3+0xc98>
    3b80:	00001537          	lui	a0,0x1
    3b84:	40a40533          	sub	a0,s0,a0
    3b88:	68053803          	ld	a6,1664(a0) # 1680 <.LBB46_4+0x4fc>
    3b8c:	00281813          	slli	a6,a6,0x2
    3b90:	f8843503          	ld	a0,-120(s0)
    3b94:	000018b7          	lui	a7,0x1
    3b98:	411408b3          	sub	a7,s0,a7
    3b9c:	7908b883          	ld	a7,1936(a7) # 1790 <.LBB46_5+0x78>
    3ba0:	00a88533          	add	a0,a7,a0
    3ba4:	000018b7          	lui	a7,0x1
    3ba8:	411408b3          	sub	a7,s0,a7
    3bac:	7908b823          	sd	a6,1936(a7) # 1790 <.LBB46_5+0x78>
    3bb0:	01050533          	add	a0,a0,a6
    3bb4:	00e50533          	add	a0,a0,a4
    3bb8:	0805051b          	addiw	a0,a0,128
    3bbc:	40000737          	lui	a4,0x40000
    3bc0:	e1843803          	ld	a6,-488(s0)
    3bc4:	000018b7          	lui	a7,0x1
    3bc8:	411408b3          	sub	a7,s0,a7
    3bcc:	eea8b023          	sd	a0,-288(a7) # ee0 <.LBB46_3+0xcb0>
    3bd0:	88843883          	ld	a7,-1912(s0)
    3bd4:	00055463          	bgez	a0,3bdc <.LBB46_70>
    3bd8:	c0000737          	lui	a4,0xc0000

0000000000003bdc <.LBB46_70>:
    3bdc:	f8b43823          	sd	a1,-112(s0)
    3be0:	00001537          	lui	a0,0x1
    3be4:	40a40533          	sub	a0,s0,a0
    3be8:	ece53c23          	sd	a4,-296(a0) # ed8 <.LBB46_3+0xca8>
    3bec:	e8843503          	ld	a0,-376(s0)
    3bf0:	000015b7          	lui	a1,0x1
    3bf4:	40b405b3          	sub	a1,s0,a1
    3bf8:	7985b703          	ld	a4,1944(a1) # 1798 <.LBB46_5+0x80>
    3bfc:	00a70533          	add	a0,a4,a0
    3c00:	e8043703          	ld	a4,-384(s0)
    3c04:	00e50533          	add	a0,a0,a4
    3c08:	00d50533          	add	a0,a0,a3
    3c0c:	0805051b          	addiw	a0,a0,128
    3c10:	40000737          	lui	a4,0x40000
    3c14:	000015b7          	lui	a1,0x1
    3c18:	40b405b3          	sub	a1,s0,a1
    3c1c:	eea5b823          	sd	a0,-272(a1) # ef0 <.LBB46_3+0xcc0>
    3c20:	f9043583          	ld	a1,-112(s0)
    3c24:	00055463          	bgez	a0,3c2c <.LBB46_72>
    3c28:	c0000737          	lui	a4,0xc0000

0000000000003c2c <.LBB46_72>:
    3c2c:	f8b43823          	sd	a1,-112(s0)
    3c30:	00001537          	lui	a0,0x1
    3c34:	40a40533          	sub	a0,s0,a0
    3c38:	eee53423          	sd	a4,-280(a0) # ee8 <.LBB46_3+0xcb8>
    3c3c:	e7843503          	ld	a0,-392(s0)
    3c40:	000015b7          	lui	a1,0x1
    3c44:	40b405b3          	sub	a1,s0,a1
    3c48:	7a05b703          	ld	a4,1952(a1) # 17a0 <.LBB46_5+0x88>
    3c4c:	00a70533          	add	a0,a4,a0
    3c50:	e7043703          	ld	a4,-400(s0)
    3c54:	00e50533          	add	a0,a0,a4
    3c58:	00d50533          	add	a0,a0,a3
    3c5c:	0805051b          	addiw	a0,a0,128
    3c60:	40000737          	lui	a4,0x40000
    3c64:	000015b7          	lui	a1,0x1
    3c68:	40b405b3          	sub	a1,s0,a1
    3c6c:	f0a5b023          	sd	a0,-256(a1) # f00 <.LBB46_3+0xcd0>
    3c70:	f9043583          	ld	a1,-112(s0)
    3c74:	00055463          	bgez	a0,3c7c <.LBB46_74>
    3c78:	c0000737          	lui	a4,0xc0000

0000000000003c7c <.LBB46_74>:
    3c7c:	f8b43823          	sd	a1,-112(s0)
    3c80:	00001537          	lui	a0,0x1
    3c84:	40a40533          	sub	a0,s0,a0
    3c88:	eee53c23          	sd	a4,-264(a0) # ef8 <.LBB46_3+0xcc8>
    3c8c:	e6843503          	ld	a0,-408(s0)
    3c90:	000015b7          	lui	a1,0x1
    3c94:	40b405b3          	sub	a1,s0,a1
    3c98:	7a85b703          	ld	a4,1960(a1) # 17a8 <.LBB46_5+0x90>
    3c9c:	00a70533          	add	a0,a4,a0
    3ca0:	e6043703          	ld	a4,-416(s0)
    3ca4:	00e50533          	add	a0,a0,a4
    3ca8:	00d50533          	add	a0,a0,a3
    3cac:	0805051b          	addiw	a0,a0,128
    3cb0:	40000737          	lui	a4,0x40000
    3cb4:	000015b7          	lui	a1,0x1
    3cb8:	40b405b3          	sub	a1,s0,a1
    3cbc:	f0a5b823          	sd	a0,-240(a1) # f10 <.LBB46_3+0xce0>
    3cc0:	f9043583          	ld	a1,-112(s0)
    3cc4:	00055463          	bgez	a0,3ccc <.LBB46_76>
    3cc8:	c0000737          	lui	a4,0xc0000

0000000000003ccc <.LBB46_76>:
    3ccc:	f8b43823          	sd	a1,-112(s0)
    3cd0:	00001537          	lui	a0,0x1
    3cd4:	40a40533          	sub	a0,s0,a0
    3cd8:	f0e53423          	sd	a4,-248(a0) # f08 <.LBB46_3+0xcd8>
    3cdc:	e5843503          	ld	a0,-424(s0)
    3ce0:	000015b7          	lui	a1,0x1
    3ce4:	40b405b3          	sub	a1,s0,a1
    3ce8:	7b05b703          	ld	a4,1968(a1) # 17b0 <.LBB46_5+0x98>
    3cec:	00a70533          	add	a0,a4,a0
    3cf0:	e5043703          	ld	a4,-432(s0)
    3cf4:	00e50533          	add	a0,a0,a4
    3cf8:	00d50533          	add	a0,a0,a3
    3cfc:	0805051b          	addiw	a0,a0,128
    3d00:	40000737          	lui	a4,0x40000
    3d04:	000015b7          	lui	a1,0x1
    3d08:	40b405b3          	sub	a1,s0,a1
    3d0c:	f2a5b023          	sd	a0,-224(a1) # f20 <.LBB46_3+0xcf0>
    3d10:	f9043583          	ld	a1,-112(s0)
    3d14:	00055463          	bgez	a0,3d1c <.LBB46_78>
    3d18:	c0000737          	lui	a4,0xc0000

0000000000003d1c <.LBB46_78>:
    3d1c:	f8b43823          	sd	a1,-112(s0)
    3d20:	00001537          	lui	a0,0x1
    3d24:	40a40533          	sub	a0,s0,a0
    3d28:	f0e53c23          	sd	a4,-232(a0) # f18 <.LBB46_3+0xce8>
    3d2c:	e4843503          	ld	a0,-440(s0)
    3d30:	000015b7          	lui	a1,0x1
    3d34:	40b405b3          	sub	a1,s0,a1
    3d38:	7b85b703          	ld	a4,1976(a1) # 17b8 <.LBB46_5+0xa0>
    3d3c:	00a70533          	add	a0,a4,a0
    3d40:	000015b7          	lui	a1,0x1
    3d44:	40b405b3          	sub	a1,s0,a1
    3d48:	6e05b703          	ld	a4,1760(a1) # 16e0 <.LBB46_4+0x55c>
    3d4c:	00e50533          	add	a0,a0,a4
    3d50:	00d50533          	add	a0,a0,a3
    3d54:	0805051b          	addiw	a0,a0,128
    3d58:	40000737          	lui	a4,0x40000
    3d5c:	000015b7          	lui	a1,0x1
    3d60:	40b405b3          	sub	a1,s0,a1
    3d64:	f2a5b823          	sd	a0,-208(a1) # f30 <.LBB46_3+0xd00>
    3d68:	f9043583          	ld	a1,-112(s0)
    3d6c:	00055463          	bgez	a0,3d74 <.LBB46_80>
    3d70:	c0000737          	lui	a4,0xc0000

0000000000003d74 <.LBB46_80>:
    3d74:	f8b43823          	sd	a1,-112(s0)
    3d78:	00001537          	lui	a0,0x1
    3d7c:	40a40533          	sub	a0,s0,a0
    3d80:	f2e53423          	sd	a4,-216(a0) # f28 <.LBB46_3+0xcf8>
    3d84:	00001537          	lui	a0,0x1
    3d88:	40a40533          	sub	a0,s0,a0
    3d8c:	6d853503          	ld	a0,1752(a0) # 16d8 <.LBB46_4+0x554>
    3d90:	000015b7          	lui	a1,0x1
    3d94:	40b405b3          	sub	a1,s0,a1
    3d98:	7c05b703          	ld	a4,1984(a1) # 17c0 <.LBB46_5+0xa8>
    3d9c:	00a70533          	add	a0,a4,a0
    3da0:	000015b7          	lui	a1,0x1
    3da4:	40b405b3          	sub	a1,s0,a1
    3da8:	6d05b703          	ld	a4,1744(a1) # 16d0 <.LBB46_4+0x54c>
    3dac:	00e50533          	add	a0,a0,a4
    3db0:	00d50533          	add	a0,a0,a3
    3db4:	0805051b          	addiw	a0,a0,128
    3db8:	40000737          	lui	a4,0x40000
    3dbc:	000015b7          	lui	a1,0x1
    3dc0:	40b405b3          	sub	a1,s0,a1
    3dc4:	f6a5b023          	sd	a0,-160(a1) # f60 <.LBB46_3+0xd30>
    3dc8:	f9043583          	ld	a1,-112(s0)
    3dcc:	00055463          	bgez	a0,3dd4 <.LBB46_82>
    3dd0:	c0000737          	lui	a4,0xc0000

0000000000003dd4 <.LBB46_82>:
    3dd4:	f8b43823          	sd	a1,-112(s0)
    3dd8:	00001537          	lui	a0,0x1
    3ddc:	40a40533          	sub	a0,s0,a0
    3de0:	f4e53023          	sd	a4,-192(a0) # f40 <.LBB46_3+0xd10>
    3de4:	00001537          	lui	a0,0x1
    3de8:	40a40533          	sub	a0,s0,a0
    3dec:	6c853503          	ld	a0,1736(a0) # 16c8 <.LBB46_4+0x544>
    3df0:	000015b7          	lui	a1,0x1
    3df4:	40b405b3          	sub	a1,s0,a1
    3df8:	7c85b703          	ld	a4,1992(a1) # 17c8 <.LBB46_5+0xb0>
    3dfc:	00a70533          	add	a0,a4,a0
    3e00:	000015b7          	lui	a1,0x1
    3e04:	40b405b3          	sub	a1,s0,a1
    3e08:	6c05b703          	ld	a4,1728(a1) # 16c0 <.LBB46_4+0x53c>
    3e0c:	00e50533          	add	a0,a0,a4
    3e10:	00d50533          	add	a0,a0,a3
    3e14:	0805051b          	addiw	a0,a0,128
    3e18:	40000737          	lui	a4,0x40000
    3e1c:	000015b7          	lui	a1,0x1
    3e20:	40b405b3          	sub	a1,s0,a1
    3e24:	faa5b023          	sd	a0,-96(a1) # fa0 <.LBB46_3+0xd70>
    3e28:	f9043583          	ld	a1,-112(s0)
    3e2c:	00055463          	bgez	a0,3e34 <.LBB46_84>
    3e30:	c0000737          	lui	a4,0xc0000

0000000000003e34 <.LBB46_84>:
    3e34:	f8b43823          	sd	a1,-112(s0)
    3e38:	00001537          	lui	a0,0x1
    3e3c:	40a40533          	sub	a0,s0,a0
    3e40:	f8e53023          	sd	a4,-128(a0) # f80 <.LBB46_3+0xd50>
    3e44:	00001537          	lui	a0,0x1
    3e48:	40a40533          	sub	a0,s0,a0
    3e4c:	6b853503          	ld	a0,1720(a0) # 16b8 <.LBB46_4+0x534>
    3e50:	000015b7          	lui	a1,0x1
    3e54:	40b405b3          	sub	a1,s0,a1
    3e58:	7d05b703          	ld	a4,2000(a1) # 17d0 <.LBB46_5+0xb8>
    3e5c:	00a70533          	add	a0,a4,a0
    3e60:	000015b7          	lui	a1,0x1
    3e64:	40b405b3          	sub	a1,s0,a1
    3e68:	6b05b703          	ld	a4,1712(a1) # 16b0 <.LBB46_4+0x52c>
    3e6c:	00e50533          	add	a0,a0,a4
    3e70:	00d50533          	add	a0,a0,a3
    3e74:	0805051b          	addiw	a0,a0,128
    3e78:	40000737          	lui	a4,0x40000
    3e7c:	000015b7          	lui	a1,0x1
    3e80:	40b405b3          	sub	a1,s0,a1
    3e84:	fea5b023          	sd	a0,-32(a1) # fe0 <.LBB46_3+0xdb0>
    3e88:	f9043583          	ld	a1,-112(s0)
    3e8c:	00055463          	bgez	a0,3e94 <.LBB46_86>
    3e90:	c0000737          	lui	a4,0xc0000

0000000000003e94 <.LBB46_86>:
    3e94:	f8b43823          	sd	a1,-112(s0)
    3e98:	00001537          	lui	a0,0x1
    3e9c:	40a40533          	sub	a0,s0,a0
    3ea0:	fce53423          	sd	a4,-56(a0) # fc8 <.LBB46_3+0xd98>
    3ea4:	00001537          	lui	a0,0x1
    3ea8:	40a40533          	sub	a0,s0,a0
    3eac:	6a853503          	ld	a0,1704(a0) # 16a8 <.LBB46_4+0x524>
    3eb0:	000015b7          	lui	a1,0x1
    3eb4:	40b405b3          	sub	a1,s0,a1
    3eb8:	7d85b703          	ld	a4,2008(a1) # 17d8 <.LBB46_5+0xc0>
    3ebc:	00a70533          	add	a0,a4,a0
    3ec0:	000015b7          	lui	a1,0x1
    3ec4:	40b405b3          	sub	a1,s0,a1
    3ec8:	6a05b703          	ld	a4,1696(a1) # 16a0 <.LBB46_4+0x51c>
    3ecc:	00e50533          	add	a0,a0,a4
    3ed0:	00d50533          	add	a0,a0,a3
    3ed4:	0805051b          	addiw	a0,a0,128
    3ed8:	40000737          	lui	a4,0x40000
    3edc:	000015b7          	lui	a1,0x1
    3ee0:	40b405b3          	sub	a1,s0,a1
    3ee4:	00a5b023          	sd	a0,0(a1) # 1000 <.LBB46_3+0xdd0>
    3ee8:	f9043583          	ld	a1,-112(s0)
    3eec:	00055463          	bgez	a0,3ef4 <.LBB46_88>
    3ef0:	c0000737          	lui	a4,0xc0000

0000000000003ef4 <.LBB46_88>:
    3ef4:	f8b43823          	sd	a1,-112(s0)
    3ef8:	00001537          	lui	a0,0x1
    3efc:	40a40533          	sub	a0,s0,a0
    3f00:	fee53c23          	sd	a4,-8(a0) # ff8 <.LBB46_3+0xdc8>
    3f04:	00001537          	lui	a0,0x1
    3f08:	40a40533          	sub	a0,s0,a0
    3f0c:	69053503          	ld	a0,1680(a0) # 1690 <.LBB46_4+0x50c>
    3f10:	000015b7          	lui	a1,0x1
    3f14:	40b405b3          	sub	a1,s0,a1
    3f18:	7e05b703          	ld	a4,2016(a1) # 17e0 <.LBB46_5+0xc8>
    3f1c:	00a70533          	add	a0,a4,a0
    3f20:	000015b7          	lui	a1,0x1
    3f24:	40b405b3          	sub	a1,s0,a1
    3f28:	6e85b703          	ld	a4,1768(a1) # 16e8 <.LBB46_4+0x564>
    3f2c:	00e50533          	add	a0,a0,a4
    3f30:	00d50533          	add	a0,a0,a3
    3f34:	0805051b          	addiw	a0,a0,128
    3f38:	40000737          	lui	a4,0x40000
    3f3c:	000015b7          	lui	a1,0x1
    3f40:	40b405b3          	sub	a1,s0,a1
    3f44:	00a5b823          	sd	a0,16(a1) # 1010 <.LBB46_3+0xde0>
    3f48:	f9043583          	ld	a1,-112(s0)
    3f4c:	00055463          	bgez	a0,3f54 <.LBB46_90>
    3f50:	c0000737          	lui	a4,0xc0000

0000000000003f54 <.LBB46_90>:
    3f54:	f8b43823          	sd	a1,-112(s0)
    3f58:	00001537          	lui	a0,0x1
    3f5c:	40a40533          	sub	a0,s0,a0
    3f60:	00e53423          	sd	a4,8(a0) # 1008 <.LBB46_3+0xdd8>
    3f64:	e9043503          	ld	a0,-368(s0)
    3f68:	000015b7          	lui	a1,0x1
    3f6c:	40b405b3          	sub	a1,s0,a1
    3f70:	7e85b703          	ld	a4,2024(a1) # 17e8 <.LBB46_5+0xd0>
    3f74:	00a70533          	add	a0,a4,a0
    3f78:	000015b7          	lui	a1,0x1
    3f7c:	40b405b3          	sub	a1,s0,a1
    3f80:	6f05b703          	ld	a4,1776(a1) # 16f0 <.LBB46_4+0x56c>
    3f84:	00e50533          	add	a0,a0,a4
    3f88:	00d50533          	add	a0,a0,a3
    3f8c:	0805051b          	addiw	a0,a0,128
    3f90:	40000737          	lui	a4,0x40000
    3f94:	000015b7          	lui	a1,0x1
    3f98:	40b405b3          	sub	a1,s0,a1
    3f9c:	02a5b023          	sd	a0,32(a1) # 1020 <.LBB46_3+0xdf0>
    3fa0:	f9043583          	ld	a1,-112(s0)
    3fa4:	00055463          	bgez	a0,3fac <.LBB46_92>
    3fa8:	c0000737          	lui	a4,0xc0000

0000000000003fac <.LBB46_92>:
    3fac:	f8b43823          	sd	a1,-112(s0)
    3fb0:	00001537          	lui	a0,0x1
    3fb4:	40a40533          	sub	a0,s0,a0
    3fb8:	00e53c23          	sd	a4,24(a0) # 1018 <.LBB46_3+0xde8>
    3fbc:	e9843503          	ld	a0,-360(s0)
    3fc0:	000015b7          	lui	a1,0x1
    3fc4:	40b405b3          	sub	a1,s0,a1
    3fc8:	7f05b703          	ld	a4,2032(a1) # 17f0 <.LBB46_5+0xd8>
    3fcc:	00a70533          	add	a0,a4,a0
    3fd0:	000015b7          	lui	a1,0x1
    3fd4:	40b405b3          	sub	a1,s0,a1
    3fd8:	6f85b703          	ld	a4,1784(a1) # 16f8 <.LBB46_4+0x574>
    3fdc:	00e50533          	add	a0,a0,a4
    3fe0:	00d50533          	add	a0,a0,a3
    3fe4:	0805051b          	addiw	a0,a0,128
    3fe8:	40000737          	lui	a4,0x40000
    3fec:	000015b7          	lui	a1,0x1
    3ff0:	40b405b3          	sub	a1,s0,a1
    3ff4:	02a5b823          	sd	a0,48(a1) # 1030 <.LBB46_3+0xe00>
    3ff8:	f9043583          	ld	a1,-112(s0)
    3ffc:	00055463          	bgez	a0,4004 <.LBB46_94>
    4000:	c0000737          	lui	a4,0xc0000

0000000000004004 <.LBB46_94>:
    4004:	f8b43823          	sd	a1,-112(s0)
    4008:	00001537          	lui	a0,0x1
    400c:	40a40533          	sub	a0,s0,a0
    4010:	02e53423          	sd	a4,40(a0) # 1028 <.LBB46_3+0xdf8>
    4014:	ea043503          	ld	a0,-352(s0)
    4018:	000015b7          	lui	a1,0x1
    401c:	40b405b3          	sub	a1,s0,a1
    4020:	7f85b703          	ld	a4,2040(a1) # 17f8 <.LBB46_5+0xe0>
    4024:	00a70533          	add	a0,a4,a0
    4028:	000015b7          	lui	a1,0x1
    402c:	40b405b3          	sub	a1,s0,a1
    4030:	7005b703          	ld	a4,1792(a1) # 1700 <.LBB46_4+0x57c>
    4034:	00e50533          	add	a0,a0,a4
    4038:	00d50533          	add	a0,a0,a3
    403c:	0805051b          	addiw	a0,a0,128
    4040:	40000737          	lui	a4,0x40000
    4044:	000015b7          	lui	a1,0x1
    4048:	40b405b3          	sub	a1,s0,a1
    404c:	04a5b023          	sd	a0,64(a1) # 1040 <.LBB46_3+0xe10>
    4050:	f9043583          	ld	a1,-112(s0)
    4054:	00055463          	bgez	a0,405c <.LBB46_96>
    4058:	c0000737          	lui	a4,0xc0000

000000000000405c <.LBB46_96>:
    405c:	f8b43823          	sd	a1,-112(s0)
    4060:	00001537          	lui	a0,0x1
    4064:	40a40533          	sub	a0,s0,a0
    4068:	02e53c23          	sd	a4,56(a0) # 1038 <.LBB46_3+0xe08>
    406c:	ea843503          	ld	a0,-344(s0)
    4070:	80043703          	ld	a4,-2048(s0)
    4074:	00a70533          	add	a0,a4,a0
    4078:	01a50533          	add	a0,a0,s10
    407c:	00d50533          	add	a0,a0,a3
    4080:	0805051b          	addiw	a0,a0,128
    4084:	40000737          	lui	a4,0x40000
    4088:	000015b7          	lui	a1,0x1
    408c:	40b405b3          	sub	a1,s0,a1
    4090:	04a5b823          	sd	a0,80(a1) # 1050 <.LBB46_3+0xe20>
    4094:	f9043583          	ld	a1,-112(s0)
    4098:	00055463          	bgez	a0,40a0 <.LBB46_98>
    409c:	c0000737          	lui	a4,0xc0000

00000000000040a0 <.LBB46_98>:
    40a0:	f8b43823          	sd	a1,-112(s0)
    40a4:	00001537          	lui	a0,0x1
    40a8:	40a40533          	sub	a0,s0,a0
    40ac:	04e53423          	sd	a4,72(a0) # 1048 <.LBB46_3+0xe18>
    40b0:	eb043503          	ld	a0,-336(s0)
    40b4:	80843703          	ld	a4,-2040(s0)
    40b8:	00a70533          	add	a0,a4,a0
    40bc:	000015b7          	lui	a1,0x1
    40c0:	40b405b3          	sub	a1,s0,a1
    40c4:	7105b703          	ld	a4,1808(a1) # 1710 <.LBB46_4+0x58c>
    40c8:	00e50533          	add	a0,a0,a4
    40cc:	00d50533          	add	a0,a0,a3
    40d0:	0805051b          	addiw	a0,a0,128
    40d4:	40000737          	lui	a4,0x40000
    40d8:	000015b7          	lui	a1,0x1
    40dc:	40b405b3          	sub	a1,s0,a1
    40e0:	06a5b023          	sd	a0,96(a1) # 1060 <.LBB46_3+0xe30>
    40e4:	f9043583          	ld	a1,-112(s0)
    40e8:	00055463          	bgez	a0,40f0 <.LBB46_100>
    40ec:	c0000737          	lui	a4,0xc0000

00000000000040f0 <.LBB46_100>:
    40f0:	f8b43823          	sd	a1,-112(s0)
    40f4:	00001537          	lui	a0,0x1
    40f8:	40a40533          	sub	a0,s0,a0
    40fc:	04e53c23          	sd	a4,88(a0) # 1058 <.LBB46_3+0xe28>
    4100:	f0843503          	ld	a0,-248(s0)
    4104:	81043703          	ld	a4,-2032(s0)
    4108:	00a70533          	add	a0,a4,a0
    410c:	000015b7          	lui	a1,0x1
    4110:	40b405b3          	sub	a1,s0,a1
    4114:	7185b703          	ld	a4,1816(a1) # 1718 <.LBB46_5>
    4118:	00e50533          	add	a0,a0,a4
    411c:	00d50533          	add	a0,a0,a3
    4120:	0805051b          	addiw	a0,a0,128
    4124:	40000737          	lui	a4,0x40000
    4128:	000015b7          	lui	a1,0x1
    412c:	40b405b3          	sub	a1,s0,a1
    4130:	06a5b823          	sd	a0,112(a1) # 1070 <.LBB46_3+0xe40>
    4134:	f9043583          	ld	a1,-112(s0)
    4138:	00055463          	bgez	a0,4140 <.LBB46_102>
    413c:	c0000737          	lui	a4,0xc0000

0000000000004140 <.LBB46_102>:
    4140:	f8b43823          	sd	a1,-112(s0)
    4144:	00001537          	lui	a0,0x1
    4148:	40a40533          	sub	a0,s0,a0
    414c:	06e53423          	sd	a4,104(a0) # 1068 <.LBB46_3+0xe38>
    4150:	f1043503          	ld	a0,-240(s0)
    4154:	81843703          	ld	a4,-2024(s0)
    4158:	00a70533          	add	a0,a4,a0
    415c:	000015b7          	lui	a1,0x1
    4160:	40b405b3          	sub	a1,s0,a1
    4164:	7205b703          	ld	a4,1824(a1) # 1720 <.LBB46_5+0x8>
    4168:	00e50533          	add	a0,a0,a4
    416c:	00d50533          	add	a0,a0,a3
    4170:	0805051b          	addiw	a0,a0,128
    4174:	40000737          	lui	a4,0x40000
    4178:	000015b7          	lui	a1,0x1
    417c:	40b405b3          	sub	a1,s0,a1
    4180:	08a5b023          	sd	a0,128(a1) # 1080 <.LBB46_3+0xe50>
    4184:	f9043583          	ld	a1,-112(s0)
    4188:	00055463          	bgez	a0,4190 <.LBB46_104>
    418c:	c0000737          	lui	a4,0xc0000

0000000000004190 <.LBB46_104>:
    4190:	f8b43823          	sd	a1,-112(s0)
    4194:	00001537          	lui	a0,0x1
    4198:	40a40533          	sub	a0,s0,a0
    419c:	06e53c23          	sd	a4,120(a0) # 1078 <.LBB46_3+0xe48>
    41a0:	f1843503          	ld	a0,-232(s0)
    41a4:	82043703          	ld	a4,-2016(s0)
    41a8:	00a70533          	add	a0,a4,a0
    41ac:	000015b7          	lui	a1,0x1
    41b0:	40b405b3          	sub	a1,s0,a1
    41b4:	7285b703          	ld	a4,1832(a1) # 1728 <.LBB46_5+0x10>
    41b8:	00e50533          	add	a0,a0,a4
    41bc:	00d50533          	add	a0,a0,a3
    41c0:	0805051b          	addiw	a0,a0,128
    41c4:	40000737          	lui	a4,0x40000
    41c8:	000015b7          	lui	a1,0x1
    41cc:	40b405b3          	sub	a1,s0,a1
    41d0:	08a5b823          	sd	a0,144(a1) # 1090 <.LBB46_3+0xe60>
    41d4:	f9043583          	ld	a1,-112(s0)
    41d8:	00055463          	bgez	a0,41e0 <.LBB46_106>
    41dc:	c0000737          	lui	a4,0xc0000

00000000000041e0 <.LBB46_106>:
    41e0:	f8b43823          	sd	a1,-112(s0)
    41e4:	00001537          	lui	a0,0x1
    41e8:	40a40533          	sub	a0,s0,a0
    41ec:	08e53423          	sd	a4,136(a0) # 1088 <.LBB46_3+0xe58>
    41f0:	f2043503          	ld	a0,-224(s0)
    41f4:	82843703          	ld	a4,-2008(s0)
    41f8:	00a70533          	add	a0,a4,a0
    41fc:	000015b7          	lui	a1,0x1
    4200:	40b405b3          	sub	a1,s0,a1
    4204:	7305b703          	ld	a4,1840(a1) # 1730 <.LBB46_5+0x18>
    4208:	00e50533          	add	a0,a0,a4
    420c:	00d50533          	add	a0,a0,a3
    4210:	0805051b          	addiw	a0,a0,128
    4214:	40000737          	lui	a4,0x40000
    4218:	000015b7          	lui	a1,0x1
    421c:	40b405b3          	sub	a1,s0,a1
    4220:	0aa5b023          	sd	a0,160(a1) # 10a0 <.LBB46_3+0xe70>
    4224:	f9043583          	ld	a1,-112(s0)
    4228:	00055463          	bgez	a0,4230 <.LBB46_108>
    422c:	c0000737          	lui	a4,0xc0000

0000000000004230 <.LBB46_108>:
    4230:	00001537          	lui	a0,0x1
    4234:	40a40533          	sub	a0,s0,a0
    4238:	08e53c23          	sd	a4,152(a0) # 1098 <.LBB46_3+0xe68>
    423c:	f2843503          	ld	a0,-216(s0)
    4240:	83043703          	ld	a4,-2000(s0)
    4244:	00a70533          	add	a0,a4,a0
    4248:	00001737          	lui	a4,0x1
    424c:	40e40733          	sub	a4,s0,a4
    4250:	73873703          	ld	a4,1848(a4) # 1738 <.LBB46_5+0x20>
    4254:	00e50533          	add	a0,a0,a4
    4258:	00d50533          	add	a0,a0,a3
    425c:	0805051b          	addiw	a0,a0,128
    4260:	40000737          	lui	a4,0x40000
    4264:	80a43423          	sd	a0,-2040(s0)
    4268:	00055463          	bgez	a0,4270 <.LBB46_110>
    426c:	c0000737          	lui	a4,0xc0000

0000000000004270 <.LBB46_110>:
    4270:	f8b43823          	sd	a1,-112(s0)
    4274:	00001537          	lui	a0,0x1
    4278:	40a40533          	sub	a0,s0,a0
    427c:	0ae53423          	sd	a4,168(a0) # 10a8 <.LBB46_3+0xe78>
    4280:	f3043503          	ld	a0,-208(s0)
    4284:	83843703          	ld	a4,-1992(s0)
    4288:	00a70533          	add	a0,a4,a0
    428c:	000015b7          	lui	a1,0x1
    4290:	40b405b3          	sub	a1,s0,a1
    4294:	7405b703          	ld	a4,1856(a1) # 1740 <.LBB46_5+0x28>
    4298:	00e50533          	add	a0,a0,a4
    429c:	00d50533          	add	a0,a0,a3
    42a0:	0805051b          	addiw	a0,a0,128
    42a4:	40000737          	lui	a4,0x40000
    42a8:	000015b7          	lui	a1,0x1
    42ac:	40b405b3          	sub	a1,s0,a1
    42b0:	7ca5b823          	sd	a0,2000(a1) # 17d0 <.LBB46_5+0xb8>
    42b4:	f9043583          	ld	a1,-112(s0)
    42b8:	00055463          	bgez	a0,42c0 <.LBB46_112>
    42bc:	c0000737          	lui	a4,0xc0000

00000000000042c0 <.LBB46_112>:
    42c0:	f8b43823          	sd	a1,-112(s0)
    42c4:	00001537          	lui	a0,0x1
    42c8:	40a40533          	sub	a0,s0,a0
    42cc:	0ae53823          	sd	a4,176(a0) # 10b0 <.LBB46_3+0xe80>
    42d0:	f3843503          	ld	a0,-200(s0)
    42d4:	84043703          	ld	a4,-1984(s0)
    42d8:	00a70533          	add	a0,a4,a0
    42dc:	000015b7          	lui	a1,0x1
    42e0:	40b405b3          	sub	a1,s0,a1
    42e4:	7485b703          	ld	a4,1864(a1) # 1748 <.LBB46_5+0x30>
    42e8:	00e50533          	add	a0,a0,a4
    42ec:	00d50533          	add	a0,a0,a3
    42f0:	0805051b          	addiw	a0,a0,128
    42f4:	40000737          	lui	a4,0x40000
    42f8:	000015b7          	lui	a1,0x1
    42fc:	40b405b3          	sub	a1,s0,a1
    4300:	0ca5b023          	sd	a0,192(a1) # 10c0 <.LBB46_3+0xe90>
    4304:	f9043583          	ld	a1,-112(s0)
    4308:	00055463          	bgez	a0,4310 <.LBB46_114>
    430c:	c0000737          	lui	a4,0xc0000

0000000000004310 <.LBB46_114>:
    4310:	f8b43823          	sd	a1,-112(s0)
    4314:	00001537          	lui	a0,0x1
    4318:	40a40533          	sub	a0,s0,a0
    431c:	0ae53c23          	sd	a4,184(a0) # 10b8 <.LBB46_3+0xe88>
    4320:	f4043503          	ld	a0,-192(s0)
    4324:	84843703          	ld	a4,-1976(s0)
    4328:	00a70533          	add	a0,a4,a0
    432c:	000015b7          	lui	a1,0x1
    4330:	40b405b3          	sub	a1,s0,a1
    4334:	7505b703          	ld	a4,1872(a1) # 1750 <.LBB46_5+0x38>
    4338:	00e50533          	add	a0,a0,a4
    433c:	00d50533          	add	a0,a0,a3
    4340:	0805051b          	addiw	a0,a0,128
    4344:	40000737          	lui	a4,0x40000
    4348:	000015b7          	lui	a1,0x1
    434c:	40b405b3          	sub	a1,s0,a1
    4350:	0ca5b823          	sd	a0,208(a1) # 10d0 <.LBB46_3+0xea0>
    4354:	f9043583          	ld	a1,-112(s0)
    4358:	00055463          	bgez	a0,4360 <.LBB46_116>
    435c:	c0000737          	lui	a4,0xc0000

0000000000004360 <.LBB46_116>:
    4360:	f8b43823          	sd	a1,-112(s0)
    4364:	00001537          	lui	a0,0x1
    4368:	40a40533          	sub	a0,s0,a0
    436c:	0ce53423          	sd	a4,200(a0) # 10c8 <.LBB46_3+0xe98>
    4370:	f4843503          	ld	a0,-184(s0)
    4374:	85043703          	ld	a4,-1968(s0)
    4378:	00a70533          	add	a0,a4,a0
    437c:	000015b7          	lui	a1,0x1
    4380:	40b405b3          	sub	a1,s0,a1
    4384:	7585b703          	ld	a4,1880(a1) # 1758 <.LBB46_5+0x40>
    4388:	00e50533          	add	a0,a0,a4
    438c:	00d50533          	add	a0,a0,a3
    4390:	0805051b          	addiw	a0,a0,128
    4394:	40000737          	lui	a4,0x40000
    4398:	000015b7          	lui	a1,0x1
    439c:	40b405b3          	sub	a1,s0,a1
    43a0:	0ea5b023          	sd	a0,224(a1) # 10e0 <.LBB46_3+0xeb0>
    43a4:	f9043583          	ld	a1,-112(s0)
    43a8:	00055463          	bgez	a0,43b0 <.LBB46_118>
    43ac:	c0000737          	lui	a4,0xc0000

00000000000043b0 <.LBB46_118>:
    43b0:	f8b43823          	sd	a1,-112(s0)
    43b4:	00001537          	lui	a0,0x1
    43b8:	40a40533          	sub	a0,s0,a0
    43bc:	0ce53c23          	sd	a4,216(a0) # 10d8 <.LBB46_3+0xea8>
    43c0:	f5043503          	ld	a0,-176(s0)
    43c4:	85843703          	ld	a4,-1960(s0)
    43c8:	00a70533          	add	a0,a4,a0
    43cc:	000015b7          	lui	a1,0x1
    43d0:	40b405b3          	sub	a1,s0,a1
    43d4:	7605b703          	ld	a4,1888(a1) # 1760 <.LBB46_5+0x48>
    43d8:	00e50533          	add	a0,a0,a4
    43dc:	00d50533          	add	a0,a0,a3
    43e0:	0805051b          	addiw	a0,a0,128
    43e4:	40000737          	lui	a4,0x40000
    43e8:	000015b7          	lui	a1,0x1
    43ec:	40b405b3          	sub	a1,s0,a1
    43f0:	0ea5b823          	sd	a0,240(a1) # 10f0 <.LBB46_3+0xec0>
    43f4:	f9043583          	ld	a1,-112(s0)
    43f8:	00055463          	bgez	a0,4400 <.LBB46_120>
    43fc:	c0000737          	lui	a4,0xc0000

0000000000004400 <.LBB46_120>:
    4400:	f8b43823          	sd	a1,-112(s0)
    4404:	00001537          	lui	a0,0x1
    4408:	40a40533          	sub	a0,s0,a0
    440c:	0ee53423          	sd	a4,232(a0) # 10e8 <.LBB46_3+0xeb8>
    4410:	f5843503          	ld	a0,-168(s0)
    4414:	86043703          	ld	a4,-1952(s0)
    4418:	00a70533          	add	a0,a4,a0
    441c:	000015b7          	lui	a1,0x1
    4420:	40b405b3          	sub	a1,s0,a1
    4424:	7685b703          	ld	a4,1896(a1) # 1768 <.LBB46_5+0x50>
    4428:	00e50533          	add	a0,a0,a4
    442c:	00d50533          	add	a0,a0,a3
    4430:	0805051b          	addiw	a0,a0,128
    4434:	40000737          	lui	a4,0x40000
    4438:	000015b7          	lui	a1,0x1
    443c:	40b405b3          	sub	a1,s0,a1
    4440:	10a5b023          	sd	a0,256(a1) # 1100 <.LBB46_3+0xed0>
    4444:	f9043583          	ld	a1,-112(s0)
    4448:	00055463          	bgez	a0,4450 <.LBB46_122>
    444c:	c0000737          	lui	a4,0xc0000

0000000000004450 <.LBB46_122>:
    4450:	f8b43823          	sd	a1,-112(s0)
    4454:	00001537          	lui	a0,0x1
    4458:	40a40533          	sub	a0,s0,a0
    445c:	0ee53c23          	sd	a4,248(a0) # 10f8 <.LBB46_3+0xec8>
    4460:	f6043503          	ld	a0,-160(s0)
    4464:	86843703          	ld	a4,-1944(s0)
    4468:	00a70533          	add	a0,a4,a0
    446c:	000015b7          	lui	a1,0x1
    4470:	40b405b3          	sub	a1,s0,a1
    4474:	7705b703          	ld	a4,1904(a1) # 1770 <.LBB46_5+0x58>
    4478:	00e50533          	add	a0,a0,a4
    447c:	00d50533          	add	a0,a0,a3
    4480:	0805051b          	addiw	a0,a0,128
    4484:	40000737          	lui	a4,0x40000
    4488:	000015b7          	lui	a1,0x1
    448c:	40b405b3          	sub	a1,s0,a1
    4490:	10a5b823          	sd	a0,272(a1) # 1110 <.LBB46_3+0xee0>
    4494:	f9043583          	ld	a1,-112(s0)
    4498:	00055463          	bgez	a0,44a0 <.LBB46_124>
    449c:	c0000737          	lui	a4,0xc0000

00000000000044a0 <.LBB46_124>:
    44a0:	f8b43823          	sd	a1,-112(s0)
    44a4:	00001537          	lui	a0,0x1
    44a8:	40a40533          	sub	a0,s0,a0
    44ac:	10e53423          	sd	a4,264(a0) # 1108 <.LBB46_3+0xed8>
    44b0:	f6843503          	ld	a0,-152(s0)
    44b4:	87043703          	ld	a4,-1936(s0)
    44b8:	00a70533          	add	a0,a4,a0
    44bc:	000015b7          	lui	a1,0x1
    44c0:	40b405b3          	sub	a1,s0,a1
    44c4:	7785b703          	ld	a4,1912(a1) # 1778 <.LBB46_5+0x60>
    44c8:	00e50533          	add	a0,a0,a4
    44cc:	00d50533          	add	a0,a0,a3
    44d0:	0805051b          	addiw	a0,a0,128
    44d4:	40000737          	lui	a4,0x40000
    44d8:	000015b7          	lui	a1,0x1
    44dc:	40b405b3          	sub	a1,s0,a1
    44e0:	12a5b023          	sd	a0,288(a1) # 1120 <.LBB46_3+0xef0>
    44e4:	f9043583          	ld	a1,-112(s0)
    44e8:	00055463          	bgez	a0,44f0 <.LBB46_126>
    44ec:	c0000737          	lui	a4,0xc0000

00000000000044f0 <.LBB46_126>:
    44f0:	f8b43823          	sd	a1,-112(s0)
    44f4:	00001537          	lui	a0,0x1
    44f8:	40a40533          	sub	a0,s0,a0
    44fc:	10e53c23          	sd	a4,280(a0) # 1118 <.LBB46_3+0xee8>
    4500:	f7043503          	ld	a0,-144(s0)
    4504:	87843703          	ld	a4,-1928(s0)
    4508:	00a70533          	add	a0,a4,a0
    450c:	000015b7          	lui	a1,0x1
    4510:	40b405b3          	sub	a1,s0,a1
    4514:	7085b703          	ld	a4,1800(a1) # 1708 <.LBB46_4+0x584>
    4518:	00e50533          	add	a0,a0,a4
    451c:	00d50533          	add	a0,a0,a3
    4520:	0805051b          	addiw	a0,a0,128
    4524:	40000737          	lui	a4,0x40000
    4528:	000015b7          	lui	a1,0x1
    452c:	40b405b3          	sub	a1,s0,a1
    4530:	12a5b823          	sd	a0,304(a1) # 1130 <.LBB46_3+0xf00>
    4534:	f9043583          	ld	a1,-112(s0)
    4538:	00055463          	bgez	a0,4540 <.LBB46_128>
    453c:	c0000737          	lui	a4,0xc0000

0000000000004540 <.LBB46_128>:
    4540:	f8b43823          	sd	a1,-112(s0)
    4544:	00001537          	lui	a0,0x1
    4548:	40a40533          	sub	a0,s0,a0
    454c:	12e53423          	sd	a4,296(a0) # 1128 <.LBB46_3+0xef8>
    4550:	f7843503          	ld	a0,-136(s0)
    4554:	88043703          	ld	a4,-1920(s0)
    4558:	00a70533          	add	a0,a4,a0
    455c:	000015b7          	lui	a1,0x1
    4560:	40b405b3          	sub	a1,s0,a1
    4564:	7805b703          	ld	a4,1920(a1) # 1780 <.LBB46_5+0x68>
    4568:	00e50533          	add	a0,a0,a4
    456c:	00d50533          	add	a0,a0,a3
    4570:	0805051b          	addiw	a0,a0,128
    4574:	40000737          	lui	a4,0x40000
    4578:	000015b7          	lui	a1,0x1
    457c:	40b405b3          	sub	a1,s0,a1
    4580:	14a5b023          	sd	a0,320(a1) # 1140 <.LBB46_3+0xf10>
    4584:	f9043583          	ld	a1,-112(s0)
    4588:	00055463          	bgez	a0,4590 <.LBB46_130>
    458c:	c0000737          	lui	a4,0xc0000

0000000000004590 <.LBB46_130>:
    4590:	00001537          	lui	a0,0x1
    4594:	40a40533          	sub	a0,s0,a0
    4598:	12e53c23          	sd	a4,312(a0) # 1138 <.LBB46_3+0xf08>
    459c:	f8043503          	ld	a0,-128(s0)
    45a0:	00a88533          	add	a0,a7,a0
    45a4:	00001737          	lui	a4,0x1
    45a8:	40e40733          	sub	a4,s0,a4
    45ac:	78873703          	ld	a4,1928(a4) # 1788 <.LBB46_5+0x70>
    45b0:	00e50533          	add	a0,a0,a4
    45b4:	00d50533          	add	a0,a0,a3
    45b8:	0805051b          	addiw	a0,a0,128
    45bc:	40000737          	lui	a4,0x40000
    45c0:	000018b7          	lui	a7,0x1
    45c4:	411408b3          	sub	a7,s0,a7
    45c8:	14a8b823          	sd	a0,336(a7) # 1150 <.LBB46_3+0xf20>
    45cc:	00055463          	bgez	a0,45d4 <.LBB46_132>
    45d0:	c0000737          	lui	a4,0xc0000

00000000000045d4 <.LBB46_132>:
    45d4:	000a8893          	mv	a7,s5
    45d8:	00001537          	lui	a0,0x1
    45dc:	40a40533          	sub	a0,s0,a0
    45e0:	14e53423          	sd	a4,328(a0) # 1148 <.LBB46_3+0xf18>
    45e4:	f8843503          	ld	a0,-120(s0)
    45e8:	89043703          	ld	a4,-1904(s0)
    45ec:	00a70533          	add	a0,a4,a0
    45f0:	00001737          	lui	a4,0x1
    45f4:	40e40733          	sub	a4,s0,a4
    45f8:	79073703          	ld	a4,1936(a4) # 1790 <.LBB46_5+0x78>
    45fc:	00e50533          	add	a0,a0,a4
    4600:	00d50533          	add	a0,a0,a3
    4604:	0805051b          	addiw	a0,a0,128
    4608:	40000737          	lui	a4,0x40000
    460c:	000016b7          	lui	a3,0x1
    4610:	40d406b3          	sub	a3,s0,a3
    4614:	14a6bc23          	sd	a0,344(a3) # 1158 <.LBB46_3+0xf28>
    4618:	00055463          	bgez	a0,4620 <.LBB46_134>
    461c:	c0000737          	lui	a4,0xc0000

0000000000004620 <.LBB46_134>:
    4620:	e8843503          	ld	a0,-376(s0)
    4624:	89843683          	ld	a3,-1896(s0)
    4628:	00a68533          	add	a0,a3,a0
    462c:	e8043683          	ld	a3,-384(s0)
    4630:	00d50533          	add	a0,a0,a3
    4634:	00c50533          	add	a0,a0,a2
    4638:	0805051b          	addiw	a0,a0,128
    463c:	40000ab7          	lui	s5,0x40000
    4640:	e3043683          	ld	a3,-464(s0)
    4644:	f8b43823          	sd	a1,-112(s0)
    4648:	000015b7          	lui	a1,0x1
    464c:	40b405b3          	sub	a1,s0,a1
    4650:	16a5b423          	sd	a0,360(a1) # 1168 <.LBB46_3+0xf38>
    4654:	f9043583          	ld	a1,-112(s0)
    4658:	00055463          	bgez	a0,4660 <.LBB46_136>
    465c:	c0000ab7          	lui	s5,0xc0000

0000000000004660 <.LBB46_136>:
    4660:	f8b43823          	sd	a1,-112(s0)
    4664:	00001537          	lui	a0,0x1
    4668:	40a40533          	sub	a0,s0,a0
    466c:	17553023          	sd	s5,352(a0) # 1160 <.LBB46_3+0xf30>
    4670:	e7843503          	ld	a0,-392(s0)
    4674:	8a043a83          	ld	s5,-1888(s0)
    4678:	00aa8533          	add	a0,s5,a0
    467c:	e7043a83          	ld	s5,-400(s0)
    4680:	01550533          	add	a0,a0,s5
    4684:	00c50533          	add	a0,a0,a2
    4688:	0805051b          	addiw	a0,a0,128
    468c:	40000ab7          	lui	s5,0x40000
    4690:	000015b7          	lui	a1,0x1
    4694:	40b405b3          	sub	a1,s0,a1
    4698:	16a5bc23          	sd	a0,376(a1) # 1178 <.LBB46_3+0xf48>
    469c:	f9043583          	ld	a1,-112(s0)
    46a0:	00055463          	bgez	a0,46a8 <.LBB46_138>
    46a4:	c0000ab7          	lui	s5,0xc0000

00000000000046a8 <.LBB46_138>:
    46a8:	f8b43823          	sd	a1,-112(s0)
    46ac:	00001537          	lui	a0,0x1
    46b0:	40a40533          	sub	a0,s0,a0
    46b4:	17553823          	sd	s5,368(a0) # 1170 <.LBB46_3+0xf40>
    46b8:	e6843503          	ld	a0,-408(s0)
    46bc:	8a843a83          	ld	s5,-1880(s0)
    46c0:	00aa8533          	add	a0,s5,a0
    46c4:	e6043a83          	ld	s5,-416(s0)
    46c8:	01550533          	add	a0,a0,s5
    46cc:	00c50533          	add	a0,a0,a2
    46d0:	0805051b          	addiw	a0,a0,128
    46d4:	40000ab7          	lui	s5,0x40000
    46d8:	000015b7          	lui	a1,0x1
    46dc:	40b405b3          	sub	a1,s0,a1
    46e0:	18a5b423          	sd	a0,392(a1) # 1188 <.LBB46_4+0x4>
    46e4:	f9043583          	ld	a1,-112(s0)
    46e8:	00055463          	bgez	a0,46f0 <.LBB46_140>
    46ec:	c0000ab7          	lui	s5,0xc0000

00000000000046f0 <.LBB46_140>:
    46f0:	f8b43823          	sd	a1,-112(s0)
    46f4:	00001537          	lui	a0,0x1
    46f8:	40a40533          	sub	a0,s0,a0
    46fc:	19553023          	sd	s5,384(a0) # 1180 <.LBB46_3+0xf50>
    4700:	e5843503          	ld	a0,-424(s0)
    4704:	8b043a83          	ld	s5,-1872(s0)
    4708:	00aa8533          	add	a0,s5,a0
    470c:	e5043a83          	ld	s5,-432(s0)
    4710:	01550533          	add	a0,a0,s5
    4714:	00c50533          	add	a0,a0,a2
    4718:	0805051b          	addiw	a0,a0,128
    471c:	40000ab7          	lui	s5,0x40000
    4720:	000015b7          	lui	a1,0x1
    4724:	40b405b3          	sub	a1,s0,a1
    4728:	18a5bc23          	sd	a0,408(a1) # 1198 <.LBB46_4+0x14>
    472c:	f9043583          	ld	a1,-112(s0)
    4730:	00055463          	bgez	a0,4738 <.LBB46_142>
    4734:	c0000ab7          	lui	s5,0xc0000

0000000000004738 <.LBB46_142>:
    4738:	f8b43823          	sd	a1,-112(s0)
    473c:	00001537          	lui	a0,0x1
    4740:	40a40533          	sub	a0,s0,a0
    4744:	19553823          	sd	s5,400(a0) # 1190 <.LBB46_4+0xc>
    4748:	e4843503          	ld	a0,-440(s0)
    474c:	8b843a83          	ld	s5,-1864(s0)
    4750:	00aa8533          	add	a0,s5,a0
    4754:	000015b7          	lui	a1,0x1
    4758:	40b405b3          	sub	a1,s0,a1
    475c:	6e05ba83          	ld	s5,1760(a1) # 16e0 <.LBB46_4+0x55c>
    4760:	01550533          	add	a0,a0,s5
    4764:	00c50533          	add	a0,a0,a2
    4768:	0805051b          	addiw	a0,a0,128
    476c:	40000ab7          	lui	s5,0x40000
    4770:	000015b7          	lui	a1,0x1
    4774:	40b405b3          	sub	a1,s0,a1
    4778:	1aa5b423          	sd	a0,424(a1) # 11a8 <.LBB46_4+0x24>
    477c:	f9043583          	ld	a1,-112(s0)
    4780:	00055463          	bgez	a0,4788 <.LBB46_144>
    4784:	c0000ab7          	lui	s5,0xc0000

0000000000004788 <.LBB46_144>:
    4788:	f8b43823          	sd	a1,-112(s0)
    478c:	00001537          	lui	a0,0x1
    4790:	40a40533          	sub	a0,s0,a0
    4794:	1b553023          	sd	s5,416(a0) # 11a0 <.LBB46_4+0x1c>
    4798:	00001537          	lui	a0,0x1
    479c:	40a40533          	sub	a0,s0,a0
    47a0:	6d853503          	ld	a0,1752(a0) # 16d8 <.LBB46_4+0x554>
    47a4:	8c043a83          	ld	s5,-1856(s0)
    47a8:	00aa8533          	add	a0,s5,a0
    47ac:	000015b7          	lui	a1,0x1
    47b0:	40b405b3          	sub	a1,s0,a1
    47b4:	6d05ba83          	ld	s5,1744(a1) # 16d0 <.LBB46_4+0x54c>
    47b8:	01550533          	add	a0,a0,s5
    47bc:	00c50533          	add	a0,a0,a2
    47c0:	0805051b          	addiw	a0,a0,128
    47c4:	40000ab7          	lui	s5,0x40000
    47c8:	000015b7          	lui	a1,0x1
    47cc:	40b405b3          	sub	a1,s0,a1
    47d0:	1aa5bc23          	sd	a0,440(a1) # 11b8 <.LBB46_4+0x34>
    47d4:	f9043583          	ld	a1,-112(s0)
    47d8:	00055463          	bgez	a0,47e0 <.LBB46_146>
    47dc:	c0000ab7          	lui	s5,0xc0000

00000000000047e0 <.LBB46_146>:
    47e0:	f8b43823          	sd	a1,-112(s0)
    47e4:	00001537          	lui	a0,0x1
    47e8:	40a40533          	sub	a0,s0,a0
    47ec:	1b553823          	sd	s5,432(a0) # 11b0 <.LBB46_4+0x2c>
    47f0:	00001537          	lui	a0,0x1
    47f4:	40a40533          	sub	a0,s0,a0
    47f8:	6c853503          	ld	a0,1736(a0) # 16c8 <.LBB46_4+0x544>
    47fc:	8c843a83          	ld	s5,-1848(s0)
    4800:	00aa8533          	add	a0,s5,a0
    4804:	000015b7          	lui	a1,0x1
    4808:	40b405b3          	sub	a1,s0,a1
    480c:	6c05ba83          	ld	s5,1728(a1) # 16c0 <.LBB46_4+0x53c>
    4810:	01550533          	add	a0,a0,s5
    4814:	00c50533          	add	a0,a0,a2
    4818:	0805051b          	addiw	a0,a0,128
    481c:	40000ab7          	lui	s5,0x40000
    4820:	000015b7          	lui	a1,0x1
    4824:	40b405b3          	sub	a1,s0,a1
    4828:	1ca5b423          	sd	a0,456(a1) # 11c8 <.LBB46_4+0x44>
    482c:	f9043583          	ld	a1,-112(s0)
    4830:	00055463          	bgez	a0,4838 <.LBB46_148>
    4834:	c0000ab7          	lui	s5,0xc0000

0000000000004838 <.LBB46_148>:
    4838:	f8b43823          	sd	a1,-112(s0)
    483c:	00001537          	lui	a0,0x1
    4840:	40a40533          	sub	a0,s0,a0
    4844:	1d553023          	sd	s5,448(a0) # 11c0 <.LBB46_4+0x3c>
    4848:	8d043503          	ld	a0,-1840(s0)
    484c:	000015b7          	lui	a1,0x1
    4850:	40b405b3          	sub	a1,s0,a1
    4854:	6b85ba83          	ld	s5,1720(a1) # 16b8 <.LBB46_4+0x534>
    4858:	01550533          	add	a0,a0,s5
    485c:	000015b7          	lui	a1,0x1
    4860:	40b405b3          	sub	a1,s0,a1
    4864:	6b05ba83          	ld	s5,1712(a1) # 16b0 <.LBB46_4+0x52c>
    4868:	01550533          	add	a0,a0,s5
    486c:	00c50533          	add	a0,a0,a2
    4870:	0805051b          	addiw	a0,a0,128
    4874:	40000ab7          	lui	s5,0x40000
    4878:	000015b7          	lui	a1,0x1
    487c:	40b405b3          	sub	a1,s0,a1
    4880:	1ca5bc23          	sd	a0,472(a1) # 11d8 <.LBB46_4+0x54>
    4884:	f9043583          	ld	a1,-112(s0)
    4888:	00055463          	bgez	a0,4890 <.LBB46_150>
    488c:	c0000ab7          	lui	s5,0xc0000

0000000000004890 <.LBB46_150>:
    4890:	f8b43823          	sd	a1,-112(s0)
    4894:	00001537          	lui	a0,0x1
    4898:	40a40533          	sub	a0,s0,a0
    489c:	1d553823          	sd	s5,464(a0) # 11d0 <.LBB46_4+0x4c>
    48a0:	8d843503          	ld	a0,-1832(s0)
    48a4:	000015b7          	lui	a1,0x1
    48a8:	40b405b3          	sub	a1,s0,a1
    48ac:	6a85ba83          	ld	s5,1704(a1) # 16a8 <.LBB46_4+0x524>
    48b0:	01550533          	add	a0,a0,s5
    48b4:	000015b7          	lui	a1,0x1
    48b8:	40b405b3          	sub	a1,s0,a1
    48bc:	6a05ba83          	ld	s5,1696(a1) # 16a0 <.LBB46_4+0x51c>
    48c0:	01550533          	add	a0,a0,s5
    48c4:	00c50533          	add	a0,a0,a2
    48c8:	0805051b          	addiw	a0,a0,128
    48cc:	40000ab7          	lui	s5,0x40000
    48d0:	000015b7          	lui	a1,0x1
    48d4:	40b405b3          	sub	a1,s0,a1
    48d8:	1ea5b423          	sd	a0,488(a1) # 11e8 <.LBB46_4+0x64>
    48dc:	f9043583          	ld	a1,-112(s0)
    48e0:	00055463          	bgez	a0,48e8 <.LBB46_152>
    48e4:	c0000ab7          	lui	s5,0xc0000

00000000000048e8 <.LBB46_152>:
    48e8:	f8b43823          	sd	a1,-112(s0)
    48ec:	00001537          	lui	a0,0x1
    48f0:	40a40533          	sub	a0,s0,a0
    48f4:	1f553023          	sd	s5,480(a0) # 11e0 <.LBB46_4+0x5c>
    48f8:	8e043503          	ld	a0,-1824(s0)
    48fc:	000015b7          	lui	a1,0x1
    4900:	40b405b3          	sub	a1,s0,a1
    4904:	6905ba83          	ld	s5,1680(a1) # 1690 <.LBB46_4+0x50c>
    4908:	01550533          	add	a0,a0,s5
    490c:	000015b7          	lui	a1,0x1
    4910:	40b405b3          	sub	a1,s0,a1
    4914:	6e85ba83          	ld	s5,1768(a1) # 16e8 <.LBB46_4+0x564>
    4918:	01550533          	add	a0,a0,s5
    491c:	00c50533          	add	a0,a0,a2
    4920:	0805051b          	addiw	a0,a0,128
    4924:	40000ab7          	lui	s5,0x40000
    4928:	000015b7          	lui	a1,0x1
    492c:	40b405b3          	sub	a1,s0,a1
    4930:	1ea5bc23          	sd	a0,504(a1) # 11f8 <.LBB46_4+0x74>
    4934:	f9043583          	ld	a1,-112(s0)
    4938:	00055463          	bgez	a0,4940 <.LBB46_154>
    493c:	c0000ab7          	lui	s5,0xc0000

0000000000004940 <.LBB46_154>:
    4940:	f8b43823          	sd	a1,-112(s0)
    4944:	00001537          	lui	a0,0x1
    4948:	40a40533          	sub	a0,s0,a0
    494c:	1f553823          	sd	s5,496(a0) # 11f0 <.LBB46_4+0x6c>
    4950:	8e843503          	ld	a0,-1816(s0)
    4954:	e9043a83          	ld	s5,-368(s0)
    4958:	01550533          	add	a0,a0,s5
    495c:	000015b7          	lui	a1,0x1
    4960:	40b405b3          	sub	a1,s0,a1
    4964:	6f05ba83          	ld	s5,1776(a1) # 16f0 <.LBB46_4+0x56c>
    4968:	01550533          	add	a0,a0,s5
    496c:	00c50533          	add	a0,a0,a2
    4970:	0805051b          	addiw	a0,a0,128
    4974:	40000ab7          	lui	s5,0x40000
    4978:	000015b7          	lui	a1,0x1
    497c:	40b405b3          	sub	a1,s0,a1
    4980:	20a5b423          	sd	a0,520(a1) # 1208 <.LBB46_4+0x84>
    4984:	f9043583          	ld	a1,-112(s0)
    4988:	00055463          	bgez	a0,4990 <.LBB46_156>
    498c:	c0000ab7          	lui	s5,0xc0000

0000000000004990 <.LBB46_156>:
    4990:	f8b43823          	sd	a1,-112(s0)
    4994:	00001537          	lui	a0,0x1
    4998:	40a40533          	sub	a0,s0,a0
    499c:	21553023          	sd	s5,512(a0) # 1200 <.LBB46_4+0x7c>
    49a0:	8f043503          	ld	a0,-1808(s0)
    49a4:	e9843a83          	ld	s5,-360(s0)
    49a8:	01550533          	add	a0,a0,s5
    49ac:	000015b7          	lui	a1,0x1
    49b0:	40b405b3          	sub	a1,s0,a1
    49b4:	6f85ba83          	ld	s5,1784(a1) # 16f8 <.LBB46_4+0x574>
    49b8:	01550533          	add	a0,a0,s5
    49bc:	00c50533          	add	a0,a0,a2
    49c0:	0805051b          	addiw	a0,a0,128
    49c4:	40000ab7          	lui	s5,0x40000
    49c8:	000015b7          	lui	a1,0x1
    49cc:	40b405b3          	sub	a1,s0,a1
    49d0:	20a5bc23          	sd	a0,536(a1) # 1218 <.LBB46_4+0x94>
    49d4:	f9043583          	ld	a1,-112(s0)
    49d8:	00055463          	bgez	a0,49e0 <.LBB46_158>
    49dc:	c0000ab7          	lui	s5,0xc0000

00000000000049e0 <.LBB46_158>:
    49e0:	f8b43823          	sd	a1,-112(s0)
    49e4:	00001537          	lui	a0,0x1
    49e8:	40a40533          	sub	a0,s0,a0
    49ec:	21553823          	sd	s5,528(a0) # 1210 <.LBB46_4+0x8c>
    49f0:	8f843503          	ld	a0,-1800(s0)
    49f4:	ea043a83          	ld	s5,-352(s0)
    49f8:	01550533          	add	a0,a0,s5
    49fc:	000015b7          	lui	a1,0x1
    4a00:	40b405b3          	sub	a1,s0,a1
    4a04:	7005ba83          	ld	s5,1792(a1) # 1700 <.LBB46_4+0x57c>
    4a08:	01550533          	add	a0,a0,s5
    4a0c:	00c50533          	add	a0,a0,a2
    4a10:	0805051b          	addiw	a0,a0,128
    4a14:	40000ab7          	lui	s5,0x40000
    4a18:	000015b7          	lui	a1,0x1
    4a1c:	40b405b3          	sub	a1,s0,a1
    4a20:	22a5b423          	sd	a0,552(a1) # 1228 <.LBB46_4+0xa4>
    4a24:	f9043583          	ld	a1,-112(s0)
    4a28:	00055463          	bgez	a0,4a30 <.LBB46_160>
    4a2c:	c0000ab7          	lui	s5,0xc0000

0000000000004a30 <.LBB46_160>:
    4a30:	f8b43823          	sd	a1,-112(s0)
    4a34:	00001537          	lui	a0,0x1
    4a38:	40a40533          	sub	a0,s0,a0
    4a3c:	23553023          	sd	s5,544(a0) # 1220 <.LBB46_4+0x9c>
    4a40:	90043503          	ld	a0,-1792(s0)
    4a44:	ea843a83          	ld	s5,-344(s0)
    4a48:	01550533          	add	a0,a0,s5
    4a4c:	01a50533          	add	a0,a0,s10
    4a50:	00c50533          	add	a0,a0,a2
    4a54:	0805051b          	addiw	a0,a0,128
    4a58:	40000ab7          	lui	s5,0x40000
    4a5c:	000015b7          	lui	a1,0x1
    4a60:	40b405b3          	sub	a1,s0,a1
    4a64:	22a5bc23          	sd	a0,568(a1) # 1238 <.LBB46_4+0xb4>
    4a68:	f9043583          	ld	a1,-112(s0)
    4a6c:	00055463          	bgez	a0,4a74 <.LBB46_162>
    4a70:	c0000ab7          	lui	s5,0xc0000

0000000000004a74 <.LBB46_162>:
    4a74:	f8b43823          	sd	a1,-112(s0)
    4a78:	00001537          	lui	a0,0x1
    4a7c:	40a40533          	sub	a0,s0,a0
    4a80:	23553823          	sd	s5,560(a0) # 1230 <.LBB46_4+0xac>
    4a84:	90843503          	ld	a0,-1784(s0)
    4a88:	eb043a83          	ld	s5,-336(s0)
    4a8c:	01550533          	add	a0,a0,s5
    4a90:	000015b7          	lui	a1,0x1
    4a94:	40b405b3          	sub	a1,s0,a1
    4a98:	7105ba83          	ld	s5,1808(a1) # 1710 <.LBB46_4+0x58c>
    4a9c:	01550533          	add	a0,a0,s5
    4aa0:	00c50533          	add	a0,a0,a2
    4aa4:	0805051b          	addiw	a0,a0,128
    4aa8:	40000ab7          	lui	s5,0x40000
    4aac:	000015b7          	lui	a1,0x1
    4ab0:	40b405b3          	sub	a1,s0,a1
    4ab4:	24a5b423          	sd	a0,584(a1) # 1248 <.LBB46_4+0xc4>
    4ab8:	f9043583          	ld	a1,-112(s0)
    4abc:	00055463          	bgez	a0,4ac4 <.LBB46_164>
    4ac0:	c0000ab7          	lui	s5,0xc0000

0000000000004ac4 <.LBB46_164>:
    4ac4:	f8b43823          	sd	a1,-112(s0)
    4ac8:	00001537          	lui	a0,0x1
    4acc:	40a40533          	sub	a0,s0,a0
    4ad0:	25553023          	sd	s5,576(a0) # 1240 <.LBB46_4+0xbc>
    4ad4:	91043503          	ld	a0,-1776(s0)
    4ad8:	f0843a83          	ld	s5,-248(s0)
    4adc:	01550533          	add	a0,a0,s5
    4ae0:	000015b7          	lui	a1,0x1
    4ae4:	40b405b3          	sub	a1,s0,a1
    4ae8:	7185ba83          	ld	s5,1816(a1) # 1718 <.LBB46_5>
    4aec:	01550533          	add	a0,a0,s5
    4af0:	00c50533          	add	a0,a0,a2
    4af4:	0805051b          	addiw	a0,a0,128
    4af8:	40000ab7          	lui	s5,0x40000
    4afc:	000015b7          	lui	a1,0x1
    4b00:	40b405b3          	sub	a1,s0,a1
    4b04:	24a5bc23          	sd	a0,600(a1) # 1258 <.LBB46_4+0xd4>
    4b08:	f9043583          	ld	a1,-112(s0)
    4b0c:	00055463          	bgez	a0,4b14 <.LBB46_166>
    4b10:	c0000ab7          	lui	s5,0xc0000

0000000000004b14 <.LBB46_166>:
    4b14:	f8b43823          	sd	a1,-112(s0)
    4b18:	00001537          	lui	a0,0x1
    4b1c:	40a40533          	sub	a0,s0,a0
    4b20:	25553823          	sd	s5,592(a0) # 1250 <.LBB46_4+0xcc>
    4b24:	91843503          	ld	a0,-1768(s0)
    4b28:	f1043a83          	ld	s5,-240(s0)
    4b2c:	01550533          	add	a0,a0,s5
    4b30:	000015b7          	lui	a1,0x1
    4b34:	40b405b3          	sub	a1,s0,a1
    4b38:	7205ba83          	ld	s5,1824(a1) # 1720 <.LBB46_5+0x8>
    4b3c:	01550533          	add	a0,a0,s5
    4b40:	00c50533          	add	a0,a0,a2
    4b44:	0805051b          	addiw	a0,a0,128
    4b48:	40000ab7          	lui	s5,0x40000
    4b4c:	000015b7          	lui	a1,0x1
    4b50:	40b405b3          	sub	a1,s0,a1
    4b54:	26a5b423          	sd	a0,616(a1) # 1268 <.LBB46_4+0xe4>
    4b58:	f9043583          	ld	a1,-112(s0)
    4b5c:	00055463          	bgez	a0,4b64 <.LBB46_168>
    4b60:	c0000ab7          	lui	s5,0xc0000

0000000000004b64 <.LBB46_168>:
    4b64:	f8b43823          	sd	a1,-112(s0)
    4b68:	00001537          	lui	a0,0x1
    4b6c:	40a40533          	sub	a0,s0,a0
    4b70:	27553023          	sd	s5,608(a0) # 1260 <.LBB46_4+0xdc>
    4b74:	92043503          	ld	a0,-1760(s0)
    4b78:	f1843a83          	ld	s5,-232(s0)
    4b7c:	01550533          	add	a0,a0,s5
    4b80:	000015b7          	lui	a1,0x1
    4b84:	40b405b3          	sub	a1,s0,a1
    4b88:	7285ba83          	ld	s5,1832(a1) # 1728 <.LBB46_5+0x10>
    4b8c:	01550533          	add	a0,a0,s5
    4b90:	00c50533          	add	a0,a0,a2
    4b94:	0805051b          	addiw	a0,a0,128
    4b98:	40000ab7          	lui	s5,0x40000
    4b9c:	000015b7          	lui	a1,0x1
    4ba0:	40b405b3          	sub	a1,s0,a1
    4ba4:	26a5bc23          	sd	a0,632(a1) # 1278 <.LBB46_4+0xf4>
    4ba8:	f9043583          	ld	a1,-112(s0)
    4bac:	00055463          	bgez	a0,4bb4 <.LBB46_170>
    4bb0:	c0000ab7          	lui	s5,0xc0000

0000000000004bb4 <.LBB46_170>:
    4bb4:	f8b43823          	sd	a1,-112(s0)
    4bb8:	00001537          	lui	a0,0x1
    4bbc:	40a40533          	sub	a0,s0,a0
    4bc0:	27553823          	sd	s5,624(a0) # 1270 <.LBB46_4+0xec>
    4bc4:	92843503          	ld	a0,-1752(s0)
    4bc8:	f2043a83          	ld	s5,-224(s0)
    4bcc:	01550533          	add	a0,a0,s5
    4bd0:	000015b7          	lui	a1,0x1
    4bd4:	40b405b3          	sub	a1,s0,a1
    4bd8:	7305ba83          	ld	s5,1840(a1) # 1730 <.LBB46_5+0x18>
    4bdc:	01550533          	add	a0,a0,s5
    4be0:	00c50533          	add	a0,a0,a2
    4be4:	0805051b          	addiw	a0,a0,128
    4be8:	40000ab7          	lui	s5,0x40000
    4bec:	000015b7          	lui	a1,0x1
    4bf0:	40b405b3          	sub	a1,s0,a1
    4bf4:	28a5b423          	sd	a0,648(a1) # 1288 <.LBB46_4+0x104>
    4bf8:	f9043583          	ld	a1,-112(s0)
    4bfc:	00055463          	bgez	a0,4c04 <.LBB46_172>
    4c00:	c0000ab7          	lui	s5,0xc0000

0000000000004c04 <.LBB46_172>:
    4c04:	f8b43823          	sd	a1,-112(s0)
    4c08:	00001537          	lui	a0,0x1
    4c0c:	40a40533          	sub	a0,s0,a0
    4c10:	29553023          	sd	s5,640(a0) # 1280 <.LBB46_4+0xfc>
    4c14:	93043503          	ld	a0,-1744(s0)
    4c18:	f2843a83          	ld	s5,-216(s0)
    4c1c:	01550533          	add	a0,a0,s5
    4c20:	000015b7          	lui	a1,0x1
    4c24:	40b405b3          	sub	a1,s0,a1
    4c28:	7385ba83          	ld	s5,1848(a1) # 1738 <.LBB46_5+0x20>
    4c2c:	01550533          	add	a0,a0,s5
    4c30:	00c50533          	add	a0,a0,a2
    4c34:	0805051b          	addiw	a0,a0,128
    4c38:	40000ab7          	lui	s5,0x40000
    4c3c:	000015b7          	lui	a1,0x1
    4c40:	40b405b3          	sub	a1,s0,a1
    4c44:	28a5bc23          	sd	a0,664(a1) # 1298 <.LBB46_4+0x114>
    4c48:	f9043583          	ld	a1,-112(s0)
    4c4c:	00055463          	bgez	a0,4c54 <.LBB46_174>
    4c50:	c0000ab7          	lui	s5,0xc0000

0000000000004c54 <.LBB46_174>:
    4c54:	f8b43823          	sd	a1,-112(s0)
    4c58:	00001537          	lui	a0,0x1
    4c5c:	40a40533          	sub	a0,s0,a0
    4c60:	29553823          	sd	s5,656(a0) # 1290 <.LBB46_4+0x10c>
    4c64:	93843503          	ld	a0,-1736(s0)
    4c68:	f3043a83          	ld	s5,-208(s0)
    4c6c:	01550533          	add	a0,a0,s5
    4c70:	000015b7          	lui	a1,0x1
    4c74:	40b405b3          	sub	a1,s0,a1
    4c78:	7405ba83          	ld	s5,1856(a1) # 1740 <.LBB46_5+0x28>
    4c7c:	01550533          	add	a0,a0,s5
    4c80:	00c50533          	add	a0,a0,a2
    4c84:	0805051b          	addiw	a0,a0,128
    4c88:	40000ab7          	lui	s5,0x40000
    4c8c:	000015b7          	lui	a1,0x1
    4c90:	40b405b3          	sub	a1,s0,a1
    4c94:	2aa5b423          	sd	a0,680(a1) # 12a8 <.LBB46_4+0x124>
    4c98:	f9043583          	ld	a1,-112(s0)
    4c9c:	00055463          	bgez	a0,4ca4 <.LBB46_176>
    4ca0:	c0000ab7          	lui	s5,0xc0000

0000000000004ca4 <.LBB46_176>:
    4ca4:	f8b43823          	sd	a1,-112(s0)
    4ca8:	00001537          	lui	a0,0x1
    4cac:	40a40533          	sub	a0,s0,a0
    4cb0:	2b553023          	sd	s5,672(a0) # 12a0 <.LBB46_4+0x11c>
    4cb4:	94043503          	ld	a0,-1728(s0)
    4cb8:	f3843a83          	ld	s5,-200(s0)
    4cbc:	01550533          	add	a0,a0,s5
    4cc0:	000015b7          	lui	a1,0x1
    4cc4:	40b405b3          	sub	a1,s0,a1
    4cc8:	7485ba83          	ld	s5,1864(a1) # 1748 <.LBB46_5+0x30>
    4ccc:	01550533          	add	a0,a0,s5
    4cd0:	00c50533          	add	a0,a0,a2
    4cd4:	0805051b          	addiw	a0,a0,128
    4cd8:	40000ab7          	lui	s5,0x40000
    4cdc:	000015b7          	lui	a1,0x1
    4ce0:	40b405b3          	sub	a1,s0,a1
    4ce4:	2aa5bc23          	sd	a0,696(a1) # 12b8 <.LBB46_4+0x134>
    4ce8:	f9043583          	ld	a1,-112(s0)
    4cec:	00055463          	bgez	a0,4cf4 <.LBB46_178>
    4cf0:	c0000ab7          	lui	s5,0xc0000

0000000000004cf4 <.LBB46_178>:
    4cf4:	f8b43823          	sd	a1,-112(s0)
    4cf8:	00001537          	lui	a0,0x1
    4cfc:	40a40533          	sub	a0,s0,a0
    4d00:	2b553823          	sd	s5,688(a0) # 12b0 <.LBB46_4+0x12c>
    4d04:	94843503          	ld	a0,-1720(s0)
    4d08:	f4043a83          	ld	s5,-192(s0)
    4d0c:	01550533          	add	a0,a0,s5
    4d10:	000015b7          	lui	a1,0x1
    4d14:	40b405b3          	sub	a1,s0,a1
    4d18:	7505ba83          	ld	s5,1872(a1) # 1750 <.LBB46_5+0x38>
    4d1c:	01550533          	add	a0,a0,s5
    4d20:	00c50533          	add	a0,a0,a2
    4d24:	0805051b          	addiw	a0,a0,128
    4d28:	40000ab7          	lui	s5,0x40000
    4d2c:	000015b7          	lui	a1,0x1
    4d30:	40b405b3          	sub	a1,s0,a1
    4d34:	2ca5b423          	sd	a0,712(a1) # 12c8 <.LBB46_4+0x144>
    4d38:	f9043583          	ld	a1,-112(s0)
    4d3c:	00055463          	bgez	a0,4d44 <.LBB46_180>
    4d40:	c0000ab7          	lui	s5,0xc0000

0000000000004d44 <.LBB46_180>:
    4d44:	f8b43823          	sd	a1,-112(s0)
    4d48:	00001537          	lui	a0,0x1
    4d4c:	40a40533          	sub	a0,s0,a0
    4d50:	2d553023          	sd	s5,704(a0) # 12c0 <.LBB46_4+0x13c>
    4d54:	95043503          	ld	a0,-1712(s0)
    4d58:	f4843a83          	ld	s5,-184(s0)
    4d5c:	01550533          	add	a0,a0,s5
    4d60:	000015b7          	lui	a1,0x1
    4d64:	40b405b3          	sub	a1,s0,a1
    4d68:	7585ba83          	ld	s5,1880(a1) # 1758 <.LBB46_5+0x40>
    4d6c:	01550533          	add	a0,a0,s5
    4d70:	00c50533          	add	a0,a0,a2
    4d74:	0805051b          	addiw	a0,a0,128
    4d78:	40000ab7          	lui	s5,0x40000
    4d7c:	000015b7          	lui	a1,0x1
    4d80:	40b405b3          	sub	a1,s0,a1
    4d84:	2ca5bc23          	sd	a0,728(a1) # 12d8 <.LBB46_4+0x154>
    4d88:	f9043583          	ld	a1,-112(s0)
    4d8c:	00055463          	bgez	a0,4d94 <.LBB46_182>
    4d90:	c0000ab7          	lui	s5,0xc0000

0000000000004d94 <.LBB46_182>:
    4d94:	f8b43823          	sd	a1,-112(s0)
    4d98:	00001537          	lui	a0,0x1
    4d9c:	40a40533          	sub	a0,s0,a0
    4da0:	2d553823          	sd	s5,720(a0) # 12d0 <.LBB46_4+0x14c>
    4da4:	95843503          	ld	a0,-1704(s0)
    4da8:	f5043a83          	ld	s5,-176(s0)
    4dac:	01550533          	add	a0,a0,s5
    4db0:	000015b7          	lui	a1,0x1
    4db4:	40b405b3          	sub	a1,s0,a1
    4db8:	7605ba83          	ld	s5,1888(a1) # 1760 <.LBB46_5+0x48>
    4dbc:	01550533          	add	a0,a0,s5
    4dc0:	00c50533          	add	a0,a0,a2
    4dc4:	0805051b          	addiw	a0,a0,128
    4dc8:	40000ab7          	lui	s5,0x40000
    4dcc:	000015b7          	lui	a1,0x1
    4dd0:	40b405b3          	sub	a1,s0,a1
    4dd4:	2ea5b423          	sd	a0,744(a1) # 12e8 <.LBB46_4+0x164>
    4dd8:	f9043583          	ld	a1,-112(s0)
    4ddc:	00055463          	bgez	a0,4de4 <.LBB46_184>
    4de0:	c0000ab7          	lui	s5,0xc0000

0000000000004de4 <.LBB46_184>:
    4de4:	f8b43823          	sd	a1,-112(s0)
    4de8:	00001537          	lui	a0,0x1
    4dec:	40a40533          	sub	a0,s0,a0
    4df0:	2f553023          	sd	s5,736(a0) # 12e0 <.LBB46_4+0x15c>
    4df4:	96043503          	ld	a0,-1696(s0)
    4df8:	f5843a83          	ld	s5,-168(s0)
    4dfc:	01550533          	add	a0,a0,s5
    4e00:	000015b7          	lui	a1,0x1
    4e04:	40b405b3          	sub	a1,s0,a1
    4e08:	7685ba83          	ld	s5,1896(a1) # 1768 <.LBB46_5+0x50>
    4e0c:	01550533          	add	a0,a0,s5
    4e10:	00c50533          	add	a0,a0,a2
    4e14:	0805051b          	addiw	a0,a0,128
    4e18:	40000ab7          	lui	s5,0x40000
    4e1c:	000015b7          	lui	a1,0x1
    4e20:	40b405b3          	sub	a1,s0,a1
    4e24:	2ea5bc23          	sd	a0,760(a1) # 12f8 <.LBB46_4+0x174>
    4e28:	f9043583          	ld	a1,-112(s0)
    4e2c:	00055463          	bgez	a0,4e34 <.LBB46_186>
    4e30:	c0000ab7          	lui	s5,0xc0000

0000000000004e34 <.LBB46_186>:
    4e34:	f8b43823          	sd	a1,-112(s0)
    4e38:	00001537          	lui	a0,0x1
    4e3c:	40a40533          	sub	a0,s0,a0
    4e40:	2f553823          	sd	s5,752(a0) # 12f0 <.LBB46_4+0x16c>
    4e44:	96843503          	ld	a0,-1688(s0)
    4e48:	f6043a83          	ld	s5,-160(s0)
    4e4c:	01550533          	add	a0,a0,s5
    4e50:	000015b7          	lui	a1,0x1
    4e54:	40b405b3          	sub	a1,s0,a1
    4e58:	7705ba83          	ld	s5,1904(a1) # 1770 <.LBB46_5+0x58>
    4e5c:	01550533          	add	a0,a0,s5
    4e60:	00c50533          	add	a0,a0,a2
    4e64:	0805051b          	addiw	a0,a0,128
    4e68:	40000ab7          	lui	s5,0x40000
    4e6c:	000015b7          	lui	a1,0x1
    4e70:	40b405b3          	sub	a1,s0,a1
    4e74:	30a5b423          	sd	a0,776(a1) # 1308 <.LBB46_4+0x184>
    4e78:	f9043583          	ld	a1,-112(s0)
    4e7c:	00055463          	bgez	a0,4e84 <.LBB46_188>
    4e80:	c0000ab7          	lui	s5,0xc0000

0000000000004e84 <.LBB46_188>:
    4e84:	f8b43823          	sd	a1,-112(s0)
    4e88:	00001537          	lui	a0,0x1
    4e8c:	40a40533          	sub	a0,s0,a0
    4e90:	31553023          	sd	s5,768(a0) # 1300 <.LBB46_4+0x17c>
    4e94:	97043503          	ld	a0,-1680(s0)
    4e98:	f6843a83          	ld	s5,-152(s0)
    4e9c:	01550533          	add	a0,a0,s5
    4ea0:	000015b7          	lui	a1,0x1
    4ea4:	40b405b3          	sub	a1,s0,a1
    4ea8:	7785ba83          	ld	s5,1912(a1) # 1778 <.LBB46_5+0x60>
    4eac:	01550533          	add	a0,a0,s5
    4eb0:	00c50533          	add	a0,a0,a2
    4eb4:	0805051b          	addiw	a0,a0,128
    4eb8:	40000ab7          	lui	s5,0x40000
    4ebc:	000015b7          	lui	a1,0x1
    4ec0:	40b405b3          	sub	a1,s0,a1
    4ec4:	30a5bc23          	sd	a0,792(a1) # 1318 <.LBB46_4+0x194>
    4ec8:	f9043583          	ld	a1,-112(s0)
    4ecc:	00055463          	bgez	a0,4ed4 <.LBB46_190>
    4ed0:	c0000ab7          	lui	s5,0xc0000

0000000000004ed4 <.LBB46_190>:
    4ed4:	f8b43823          	sd	a1,-112(s0)
    4ed8:	00001537          	lui	a0,0x1
    4edc:	40a40533          	sub	a0,s0,a0
    4ee0:	31553823          	sd	s5,784(a0) # 1310 <.LBB46_4+0x18c>
    4ee4:	97843503          	ld	a0,-1672(s0)
    4ee8:	f7043a83          	ld	s5,-144(s0)
    4eec:	01550533          	add	a0,a0,s5
    4ef0:	000015b7          	lui	a1,0x1
    4ef4:	40b405b3          	sub	a1,s0,a1
    4ef8:	7085ba83          	ld	s5,1800(a1) # 1708 <.LBB46_4+0x584>
    4efc:	01550533          	add	a0,a0,s5
    4f00:	00c50533          	add	a0,a0,a2
    4f04:	0805051b          	addiw	a0,a0,128
    4f08:	40000ab7          	lui	s5,0x40000
    4f0c:	000015b7          	lui	a1,0x1
    4f10:	40b405b3          	sub	a1,s0,a1
    4f14:	32a5b423          	sd	a0,808(a1) # 1328 <.LBB46_4+0x1a4>
    4f18:	f9043583          	ld	a1,-112(s0)
    4f1c:	00055463          	bgez	a0,4f24 <.LBB46_192>
    4f20:	c0000ab7          	lui	s5,0xc0000

0000000000004f24 <.LBB46_192>:
    4f24:	f8b43823          	sd	a1,-112(s0)
    4f28:	00001537          	lui	a0,0x1
    4f2c:	40a40533          	sub	a0,s0,a0
    4f30:	33553023          	sd	s5,800(a0) # 1320 <.LBB46_4+0x19c>
    4f34:	98043503          	ld	a0,-1664(s0)
    4f38:	f7843a83          	ld	s5,-136(s0)
    4f3c:	01550533          	add	a0,a0,s5
    4f40:	000015b7          	lui	a1,0x1
    4f44:	40b405b3          	sub	a1,s0,a1
    4f48:	7805ba83          	ld	s5,1920(a1) # 1780 <.LBB46_5+0x68>
    4f4c:	01550533          	add	a0,a0,s5
    4f50:	00c50533          	add	a0,a0,a2
    4f54:	0805051b          	addiw	a0,a0,128
    4f58:	40000ab7          	lui	s5,0x40000
    4f5c:	000015b7          	lui	a1,0x1
    4f60:	40b405b3          	sub	a1,s0,a1
    4f64:	32a5bc23          	sd	a0,824(a1) # 1338 <.LBB46_4+0x1b4>
    4f68:	f9043583          	ld	a1,-112(s0)
    4f6c:	00055463          	bgez	a0,4f74 <.LBB46_194>
    4f70:	c0000ab7          	lui	s5,0xc0000

0000000000004f74 <.LBB46_194>:
    4f74:	f8b43823          	sd	a1,-112(s0)
    4f78:	00001537          	lui	a0,0x1
    4f7c:	40a40533          	sub	a0,s0,a0
    4f80:	33553823          	sd	s5,816(a0) # 1330 <.LBB46_4+0x1ac>
    4f84:	98843503          	ld	a0,-1656(s0)
    4f88:	f8043a83          	ld	s5,-128(s0)
    4f8c:	01550533          	add	a0,a0,s5
    4f90:	000015b7          	lui	a1,0x1
    4f94:	40b405b3          	sub	a1,s0,a1
    4f98:	7885ba83          	ld	s5,1928(a1) # 1788 <.LBB46_5+0x70>
    4f9c:	01550533          	add	a0,a0,s5
    4fa0:	00c50533          	add	a0,a0,a2
    4fa4:	0805051b          	addiw	a0,a0,128
    4fa8:	40000ab7          	lui	s5,0x40000
    4fac:	000015b7          	lui	a1,0x1
    4fb0:	40b405b3          	sub	a1,s0,a1
    4fb4:	34a5b423          	sd	a0,840(a1) # 1348 <.LBB46_4+0x1c4>
    4fb8:	f9043583          	ld	a1,-112(s0)
    4fbc:	00055463          	bgez	a0,4fc4 <.LBB46_196>
    4fc0:	c0000ab7          	lui	s5,0xc0000

0000000000004fc4 <.LBB46_196>:
    4fc4:	00001537          	lui	a0,0x1
    4fc8:	40a40533          	sub	a0,s0,a0
    4fcc:	35553023          	sd	s5,832(a0) # 1340 <.LBB46_4+0x1bc>
    4fd0:	99043503          	ld	a0,-1648(s0)
    4fd4:	f8843a83          	ld	s5,-120(s0)
    4fd8:	01550533          	add	a0,a0,s5
    4fdc:	00001ab7          	lui	s5,0x1
    4fe0:	41540ab3          	sub	s5,s0,s5
    4fe4:	790aba83          	ld	s5,1936(s5) # 1790 <.LBB46_5+0x78>
    4fe8:	01550533          	add	a0,a0,s5
    4fec:	00c50533          	add	a0,a0,a2
    4ff0:	0805051b          	addiw	a0,a0,128
    4ff4:	40000637          	lui	a2,0x40000
    4ff8:	00001ab7          	lui	s5,0x1
    4ffc:	41540ab3          	sub	s5,s0,s5
    5000:	34aabc23          	sd	a0,856(s5) # 1358 <.LBB46_4+0x1d4>
    5004:	00055463          	bgez	a0,500c <.LBB46_198>
    5008:	c0000637          	lui	a2,0xc0000

000000000000500c <.LBB46_198>:
    500c:	f8d43823          	sd	a3,-112(s0)
    5010:	00001537          	lui	a0,0x1
    5014:	40a40533          	sub	a0,s0,a0
    5018:	34c53823          	sd	a2,848(a0) # 1350 <.LBB46_4+0x1cc>
    501c:	99843503          	ld	a0,-1640(s0)
    5020:	e8843603          	ld	a2,-376(s0)
    5024:	00c50533          	add	a0,a0,a2
    5028:	e8043603          	ld	a2,-384(s0)
    502c:	00c50533          	add	a0,a0,a2
    5030:	00b50533          	add	a0,a0,a1
    5034:	0805051b          	addiw	a0,a0,128
    5038:	40000ab7          	lui	s5,0x40000
    503c:	e3843603          	ld	a2,-456(s0)
    5040:	000016b7          	lui	a3,0x1
    5044:	40d406b3          	sub	a3,s0,a3
    5048:	36a6b423          	sd	a0,872(a3) # 1368 <.LBB46_4+0x1e4>
    504c:	f9043683          	ld	a3,-112(s0)
    5050:	00055463          	bgez	a0,5058 <.LBB46_200>
    5054:	c0000ab7          	lui	s5,0xc0000

0000000000005058 <.LBB46_200>:
    5058:	f8c43823          	sd	a2,-112(s0)
    505c:	00001537          	lui	a0,0x1
    5060:	40a40533          	sub	a0,s0,a0
    5064:	37553023          	sd	s5,864(a0) # 1360 <.LBB46_4+0x1dc>
    5068:	9a043503          	ld	a0,-1632(s0)
    506c:	e7843a83          	ld	s5,-392(s0)
    5070:	01550533          	add	a0,a0,s5
    5074:	e7043a83          	ld	s5,-400(s0)
    5078:	01550533          	add	a0,a0,s5
    507c:	00b50533          	add	a0,a0,a1
    5080:	0805051b          	addiw	a0,a0,128
    5084:	40000ab7          	lui	s5,0x40000
    5088:	00001637          	lui	a2,0x1
    508c:	40c40633          	sub	a2,s0,a2
    5090:	36a63c23          	sd	a0,888(a2) # 1378 <.LBB46_4+0x1f4>
    5094:	f9043603          	ld	a2,-112(s0)
    5098:	00055463          	bgez	a0,50a0 <.LBB46_202>
    509c:	c0000ab7          	lui	s5,0xc0000

00000000000050a0 <.LBB46_202>:
    50a0:	f8c43823          	sd	a2,-112(s0)
    50a4:	00001537          	lui	a0,0x1
    50a8:	40a40533          	sub	a0,s0,a0
    50ac:	37553823          	sd	s5,880(a0) # 1370 <.LBB46_4+0x1ec>
    50b0:	9a843503          	ld	a0,-1624(s0)
    50b4:	e6843a83          	ld	s5,-408(s0)
    50b8:	01550533          	add	a0,a0,s5
    50bc:	e6043a83          	ld	s5,-416(s0)
    50c0:	01550533          	add	a0,a0,s5
    50c4:	00b50533          	add	a0,a0,a1
    50c8:	0805051b          	addiw	a0,a0,128
    50cc:	40000ab7          	lui	s5,0x40000
    50d0:	00001637          	lui	a2,0x1
    50d4:	40c40633          	sub	a2,s0,a2
    50d8:	38a63423          	sd	a0,904(a2) # 1388 <.LBB46_4+0x204>
    50dc:	f9043603          	ld	a2,-112(s0)
    50e0:	00055463          	bgez	a0,50e8 <.LBB46_204>
    50e4:	c0000ab7          	lui	s5,0xc0000

00000000000050e8 <.LBB46_204>:
    50e8:	f8c43823          	sd	a2,-112(s0)
    50ec:	00001537          	lui	a0,0x1
    50f0:	40a40533          	sub	a0,s0,a0
    50f4:	39553023          	sd	s5,896(a0) # 1380 <.LBB46_4+0x1fc>
    50f8:	9b043503          	ld	a0,-1616(s0)
    50fc:	e5843a83          	ld	s5,-424(s0)
    5100:	01550533          	add	a0,a0,s5
    5104:	e5043a83          	ld	s5,-432(s0)
    5108:	01550533          	add	a0,a0,s5
    510c:	00b50533          	add	a0,a0,a1
    5110:	0805051b          	addiw	a0,a0,128
    5114:	40000ab7          	lui	s5,0x40000
    5118:	00001637          	lui	a2,0x1
    511c:	40c40633          	sub	a2,s0,a2
    5120:	38a63c23          	sd	a0,920(a2) # 1398 <.LBB46_4+0x214>
    5124:	f9043603          	ld	a2,-112(s0)
    5128:	00055463          	bgez	a0,5130 <.LBB46_206>
    512c:	c0000ab7          	lui	s5,0xc0000

0000000000005130 <.LBB46_206>:
    5130:	f8c43823          	sd	a2,-112(s0)
    5134:	00001537          	lui	a0,0x1
    5138:	40a40533          	sub	a0,s0,a0
    513c:	39553823          	sd	s5,912(a0) # 1390 <.LBB46_4+0x20c>
    5140:	9b843503          	ld	a0,-1608(s0)
    5144:	e4843a83          	ld	s5,-440(s0)
    5148:	01550533          	add	a0,a0,s5
    514c:	00001637          	lui	a2,0x1
    5150:	40c40633          	sub	a2,s0,a2
    5154:	6e063a83          	ld	s5,1760(a2) # 16e0 <.LBB46_4+0x55c>
    5158:	01550533          	add	a0,a0,s5
    515c:	00b50533          	add	a0,a0,a1
    5160:	0805051b          	addiw	a0,a0,128
    5164:	40000ab7          	lui	s5,0x40000
    5168:	00001637          	lui	a2,0x1
    516c:	40c40633          	sub	a2,s0,a2
    5170:	3aa63423          	sd	a0,936(a2) # 13a8 <.LBB46_4+0x224>
    5174:	f9043603          	ld	a2,-112(s0)
    5178:	00055463          	bgez	a0,5180 <.LBB46_208>
    517c:	c0000ab7          	lui	s5,0xc0000

0000000000005180 <.LBB46_208>:
    5180:	f8c43823          	sd	a2,-112(s0)
    5184:	00001537          	lui	a0,0x1
    5188:	40a40533          	sub	a0,s0,a0
    518c:	3b553023          	sd	s5,928(a0) # 13a0 <.LBB46_4+0x21c>
    5190:	9c043503          	ld	a0,-1600(s0)
    5194:	00001637          	lui	a2,0x1
    5198:	40c40633          	sub	a2,s0,a2
    519c:	6d863a83          	ld	s5,1752(a2) # 16d8 <.LBB46_4+0x554>
    51a0:	01550533          	add	a0,a0,s5
    51a4:	00001637          	lui	a2,0x1
    51a8:	40c40633          	sub	a2,s0,a2
    51ac:	6d063a83          	ld	s5,1744(a2) # 16d0 <.LBB46_4+0x54c>
    51b0:	01550533          	add	a0,a0,s5
    51b4:	00b50533          	add	a0,a0,a1
    51b8:	0805051b          	addiw	a0,a0,128
    51bc:	40000ab7          	lui	s5,0x40000
    51c0:	00001637          	lui	a2,0x1
    51c4:	40c40633          	sub	a2,s0,a2
    51c8:	3aa63c23          	sd	a0,952(a2) # 13b8 <.LBB46_4+0x234>
    51cc:	f9043603          	ld	a2,-112(s0)
    51d0:	00055463          	bgez	a0,51d8 <.LBB46_210>
    51d4:	c0000ab7          	lui	s5,0xc0000

00000000000051d8 <.LBB46_210>:
    51d8:	f8c43823          	sd	a2,-112(s0)
    51dc:	00001537          	lui	a0,0x1
    51e0:	40a40533          	sub	a0,s0,a0
    51e4:	3b553823          	sd	s5,944(a0) # 13b0 <.LBB46_4+0x22c>
    51e8:	9c843503          	ld	a0,-1592(s0)
    51ec:	00001637          	lui	a2,0x1
    51f0:	40c40633          	sub	a2,s0,a2
    51f4:	6c863a83          	ld	s5,1736(a2) # 16c8 <.LBB46_4+0x544>
    51f8:	01550533          	add	a0,a0,s5
    51fc:	00001637          	lui	a2,0x1
    5200:	40c40633          	sub	a2,s0,a2
    5204:	6c063a83          	ld	s5,1728(a2) # 16c0 <.LBB46_4+0x53c>
    5208:	01550533          	add	a0,a0,s5
    520c:	00b50533          	add	a0,a0,a1
    5210:	0805051b          	addiw	a0,a0,128
    5214:	40000ab7          	lui	s5,0x40000
    5218:	00001637          	lui	a2,0x1
    521c:	40c40633          	sub	a2,s0,a2
    5220:	3ca63423          	sd	a0,968(a2) # 13c8 <.LBB46_4+0x244>
    5224:	f9043603          	ld	a2,-112(s0)
    5228:	00055463          	bgez	a0,5230 <.LBB46_212>
    522c:	c0000ab7          	lui	s5,0xc0000

0000000000005230 <.LBB46_212>:
    5230:	f8c43823          	sd	a2,-112(s0)
    5234:	00001537          	lui	a0,0x1
    5238:	40a40533          	sub	a0,s0,a0
    523c:	3d553023          	sd	s5,960(a0) # 13c0 <.LBB46_4+0x23c>
    5240:	9d043503          	ld	a0,-1584(s0)
    5244:	00001637          	lui	a2,0x1
    5248:	40c40633          	sub	a2,s0,a2
    524c:	6b863a83          	ld	s5,1720(a2) # 16b8 <.LBB46_4+0x534>
    5250:	01550533          	add	a0,a0,s5
    5254:	00001637          	lui	a2,0x1
    5258:	40c40633          	sub	a2,s0,a2
    525c:	6b063a83          	ld	s5,1712(a2) # 16b0 <.LBB46_4+0x52c>
    5260:	01550533          	add	a0,a0,s5
    5264:	00b50533          	add	a0,a0,a1
    5268:	0805051b          	addiw	a0,a0,128
    526c:	40000ab7          	lui	s5,0x40000
    5270:	00001637          	lui	a2,0x1
    5274:	40c40633          	sub	a2,s0,a2
    5278:	3ca63c23          	sd	a0,984(a2) # 13d8 <.LBB46_4+0x254>
    527c:	f9043603          	ld	a2,-112(s0)
    5280:	00055463          	bgez	a0,5288 <.LBB46_214>
    5284:	c0000ab7          	lui	s5,0xc0000

0000000000005288 <.LBB46_214>:
    5288:	f8c43823          	sd	a2,-112(s0)
    528c:	00001537          	lui	a0,0x1
    5290:	40a40533          	sub	a0,s0,a0
    5294:	3d553823          	sd	s5,976(a0) # 13d0 <.LBB46_4+0x24c>
    5298:	9d843503          	ld	a0,-1576(s0)
    529c:	00001637          	lui	a2,0x1
    52a0:	40c40633          	sub	a2,s0,a2
    52a4:	6a863a83          	ld	s5,1704(a2) # 16a8 <.LBB46_4+0x524>
    52a8:	01550533          	add	a0,a0,s5
    52ac:	00001637          	lui	a2,0x1
    52b0:	40c40633          	sub	a2,s0,a2
    52b4:	6a063a83          	ld	s5,1696(a2) # 16a0 <.LBB46_4+0x51c>
    52b8:	01550533          	add	a0,a0,s5
    52bc:	00b50533          	add	a0,a0,a1
    52c0:	0805051b          	addiw	a0,a0,128
    52c4:	40000ab7          	lui	s5,0x40000
    52c8:	00001637          	lui	a2,0x1
    52cc:	40c40633          	sub	a2,s0,a2
    52d0:	3ea63423          	sd	a0,1000(a2) # 13e8 <.LBB46_4+0x264>
    52d4:	f9043603          	ld	a2,-112(s0)
    52d8:	00055463          	bgez	a0,52e0 <.LBB46_216>
    52dc:	c0000ab7          	lui	s5,0xc0000

00000000000052e0 <.LBB46_216>:
    52e0:	f8c43823          	sd	a2,-112(s0)
    52e4:	00001537          	lui	a0,0x1
    52e8:	40a40533          	sub	a0,s0,a0
    52ec:	3f553023          	sd	s5,992(a0) # 13e0 <.LBB46_4+0x25c>
    52f0:	9e043503          	ld	a0,-1568(s0)
    52f4:	00001637          	lui	a2,0x1
    52f8:	40c40633          	sub	a2,s0,a2
    52fc:	69063a83          	ld	s5,1680(a2) # 1690 <.LBB46_4+0x50c>
    5300:	01550533          	add	a0,a0,s5
    5304:	00001637          	lui	a2,0x1
    5308:	40c40633          	sub	a2,s0,a2
    530c:	6e863a83          	ld	s5,1768(a2) # 16e8 <.LBB46_4+0x564>
    5310:	01550533          	add	a0,a0,s5
    5314:	00b50533          	add	a0,a0,a1
    5318:	0805051b          	addiw	a0,a0,128
    531c:	40000ab7          	lui	s5,0x40000
    5320:	00001637          	lui	a2,0x1
    5324:	40c40633          	sub	a2,s0,a2
    5328:	3ea63c23          	sd	a0,1016(a2) # 13f8 <.LBB46_4+0x274>
    532c:	f9043603          	ld	a2,-112(s0)
    5330:	00055463          	bgez	a0,5338 <.LBB46_218>
    5334:	c0000ab7          	lui	s5,0xc0000

0000000000005338 <.LBB46_218>:
    5338:	f8c43823          	sd	a2,-112(s0)
    533c:	00001537          	lui	a0,0x1
    5340:	40a40533          	sub	a0,s0,a0
    5344:	3f553823          	sd	s5,1008(a0) # 13f0 <.LBB46_4+0x26c>
    5348:	9e843503          	ld	a0,-1560(s0)
    534c:	e9043a83          	ld	s5,-368(s0)
    5350:	01550533          	add	a0,a0,s5
    5354:	00001637          	lui	a2,0x1
    5358:	40c40633          	sub	a2,s0,a2
    535c:	6f063a83          	ld	s5,1776(a2) # 16f0 <.LBB46_4+0x56c>
    5360:	01550533          	add	a0,a0,s5
    5364:	00b50533          	add	a0,a0,a1
    5368:	0805051b          	addiw	a0,a0,128
    536c:	40000ab7          	lui	s5,0x40000
    5370:	00001637          	lui	a2,0x1
    5374:	40c40633          	sub	a2,s0,a2
    5378:	40a63423          	sd	a0,1032(a2) # 1408 <.LBB46_4+0x284>
    537c:	f9043603          	ld	a2,-112(s0)
    5380:	00055463          	bgez	a0,5388 <.LBB46_220>
    5384:	c0000ab7          	lui	s5,0xc0000

0000000000005388 <.LBB46_220>:
