
code.o:     file format elf64-littleriscv


Disassembly of section .text.main_dispatch_83_matmul_196x384x64_i8xi8xi32:

0000000000000000 <main_dispatch_83_matmul_196x384x64_i8xi8xi32>:
       0:	81010113          	addi	sp,sp,-2032
       4:	7e113423          	sd	ra,2024(sp)
       8:	7e813023          	sd	s0,2016(sp)
       c:	7c913c23          	sd	s1,2008(sp)
      10:	7d213823          	sd	s2,2000(sp)
      14:	7d313423          	sd	s3,1992(sp)
      18:	7d413023          	sd	s4,1984(sp)
      1c:	7b513c23          	sd	s5,1976(sp)
      20:	7b613823          	sd	s6,1968(sp)
      24:	7b713423          	sd	s7,1960(sp)
      28:	7b813023          	sd	s8,1952(sp)
      2c:	79913c23          	sd	s9,1944(sp)
      30:	79a13823          	sd	s10,1936(sp)
      34:	79b13423          	sd	s11,1928(sp)
      38:	7f010413          	addi	s0,sp,2032
      3c:	80010113          	addi	sp,sp,-2048
      40:	cf010113          	addi	sp,sp,-784
      44:	0205b583          	ld	a1,32(a1)
      48:	00000513          	li	a0,0
      4c:	0085b603          	ld	a2,8(a1)
      50:	0005b703          	ld	a4,0(a1)
      54:	000596b7          	lui	a3,0x59
      58:	e806869b          	addiw	a3,a3,-384 # 58e80 <.Lfunc_end80+0x304b8>
      5c:	00d603b3          	add	t2,a2,a3
      60:	0001b6b7          	lui	a3,0x1b
      64:	6806869b          	addiw	a3,a3,1664 # 1b680 <.LBB27_2667>
      68:	00d606b3          	add	a3,a2,a3
      6c:	000017b7          	lui	a5,0x1
      70:	40f407b3          	sub	a5,s0,a5
      74:	d6d7bc23          	sd	a3,-648(a5) # d78 <.LBB67_3+0xb64>
      78:	0105b583          	ld	a1,16(a1)
      7c:	0005f6b7          	lui	a3,0x5f
      80:	e806869b          	addiw	a3,a3,-384 # 5ee80 <.Lfunc_end80+0x364b8>
      84:	00d60633          	add	a2,a2,a3
      88:	000016b7          	lui	a3,0x1
      8c:	40d406b3          	sub	a3,s0,a3
      90:	d6c6b823          	sd	a2,-656(a3) # d70 <.LBB67_3+0xb5c>
      94:	34058593          	addi	a1,a1,832
      98:	00001637          	lui	a2,0x1
      9c:	40c40633          	sub	a2,s0,a2
      a0:	d0b63823          	sd	a1,-752(a2) # d10 <.LBB67_3+0xafc>
      a4:	000165b7          	lui	a1,0x16
      a8:	c005859b          	addiw	a1,a1,-1024 # 15c00 <.LBB63_2411+0x4>
      ac:	00001637          	lui	a2,0x1
      b0:	40c40633          	sub	a2,s0,a2
      b4:	d2e63023          	sd	a4,-736(a2) # d20 <.LBB67_3+0xb0c>
      b8:	00b705b3          	add	a1,a4,a1
      bc:	00001637          	lui	a2,0x1
      c0:	40c40633          	sub	a2,s0,a2
      c4:	d8b63023          	sd	a1,-640(a2) # d80 <.LBB67_3+0xb6c>
      c8:	7ce045b7          	lui	a1,0x7ce04
      cc:	2c85859b          	addiw	a1,a1,712 # 7ce042c8 <.Lfunc_end80+0x7cddb900>
      d0:	00001637          	lui	a2,0x1
      d4:	40c40633          	sub	a2,s0,a2
      d8:	d2b63423          	sd	a1,-728(a2) # d28 <.LBB67_3+0xb14>
      dc:	00100593          	li	a1,1
      e0:	02459593          	slli	a1,a1,0x24
      e4:	00001637          	lui	a2,0x1
      e8:	40c40633          	sub	a2,s0,a2
      ec:	64b63823          	sd	a1,1616(a2) # 1650 <.LBB67_4+0x4e0>
      f0:	000015b7          	lui	a1,0x1
      f4:	40b405b3          	sub	a1,s0,a1
      f8:	d075bc23          	sd	t2,-744(a1) # d18 <.LBB67_3+0xb04>
      fc:	0480006f          	j	144 <.LBB67_2>

0000000000000100 <.LBB67_1>:
     100:	00001537          	lui	a0,0x1
     104:	40a40533          	sub	a0,s0,a0
     108:	d0853603          	ld	a2,-760(a0) # d08 <.LBB67_3+0xaf4>
     10c:	00860513          	addi	a0,a2,8
     110:	000015b7          	lui	a1,0x1
     114:	40b405b3          	sub	a1,s0,a1
     118:	d805b583          	ld	a1,-640(a1) # d80 <.LBB67_3+0xb6c>
     11c:	20058593          	addi	a1,a1,512
     120:	000016b7          	lui	a3,0x1
     124:	40d406b3          	sub	a3,s0,a3
     128:	d8b6b023          	sd	a1,-640(a3) # d80 <.LBB67_3+0xb6c>
     12c:	000015b7          	lui	a1,0x1
     130:	40b405b3          	sub	a1,s0,a1
     134:	d185b383          	ld	t2,-744(a1) # d18 <.LBB67_3+0xb04>
     138:	0b800593          	li	a1,184
     13c:	00b66463          	bltu	a2,a1,144 <.LBB67_2>
     140:	7fd0a06f          	j	b13c <.LBB67_1030>

0000000000000144 <.LBB67_2>:
     144:	00000593          	li	a1,0
     148:	00050693          	mv	a3,a0
     14c:	00251513          	slli	a0,a0,0x2
     150:	00001637          	lui	a2,0x1
     154:	40c40633          	sub	a2,s0,a2
     158:	d2063603          	ld	a2,-736(a2) # d20 <.LBB67_3+0xb0c>
     15c:	00a60533          	add	a0,a2,a0
     160:	00001637          	lui	a2,0x1
     164:	40c40633          	sub	a2,s0,a2
     168:	64a63c23          	sd	a0,1624(a2) # 1658 <.LBB67_4+0x4e8>
     16c:	18000513          	li	a0,384
     170:	00001637          	lui	a2,0x1
     174:	40c40633          	sub	a2,s0,a2
     178:	d0d63423          	sd	a3,-760(a2) # d08 <.LBB67_3+0xaf4>
     17c:	02a68533          	mul	a0,a3,a0
     180:	00001637          	lui	a2,0x1
     184:	40c40633          	sub	a2,s0,a2
     188:	d1063603          	ld	a2,-752(a2) # d10 <.LBB67_3+0xafc>
     18c:	00a60533          	add	a0,a2,a0
     190:	18050613          	addi	a2,a0,384
     194:	000016b7          	lui	a3,0x1
     198:	40d406b3          	sub	a3,s0,a3
     19c:	d6c6b023          	sd	a2,-672(a3) # d60 <.LBB67_3+0xb4c>
     1a0:	30050613          	addi	a2,a0,768
     1a4:	000016b7          	lui	a3,0x1
     1a8:	40d406b3          	sub	a3,s0,a3
     1ac:	d4c6bc23          	sd	a2,-680(a3) # d58 <.LBB67_3+0xb44>
     1b0:	48050613          	addi	a2,a0,1152
     1b4:	000016b7          	lui	a3,0x1
     1b8:	40d406b3          	sub	a3,s0,a3
     1bc:	d4c6b823          	sd	a2,-688(a3) # d50 <.LBB67_3+0xb3c>
     1c0:	60050613          	addi	a2,a0,1536
     1c4:	000016b7          	lui	a3,0x1
     1c8:	40d406b3          	sub	a3,s0,a3
     1cc:	d4c6b423          	sd	a2,-696(a3) # d48 <.LBB67_3+0xb34>
     1d0:	78050613          	addi	a2,a0,1920
     1d4:	000016b7          	lui	a3,0x1
     1d8:	40d406b3          	sub	a3,s0,a3
     1dc:	d4c6b023          	sd	a2,-704(a3) # d40 <.LBB67_3+0xb2c>
     1e0:	00001637          	lui	a2,0x1
     1e4:	40c40633          	sub	a2,s0,a2
     1e8:	d6a63423          	sd	a0,-664(a2) # d68 <.LBB67_3+0xb54>
     1ec:	7ff50513          	addi	a0,a0,2047
     1f0:	10150613          	addi	a2,a0,257
     1f4:	000016b7          	lui	a3,0x1
     1f8:	40d406b3          	sub	a3,s0,a3
     1fc:	d2c6bc23          	sd	a2,-712(a3) # d38 <.LBB67_3+0xb24>
     200:	28150513          	addi	a0,a0,641
     204:	00001637          	lui	a2,0x1
     208:	40c40633          	sub	a2,s0,a2
     20c:	d2a63823          	sd	a0,-720(a2) # d30 <.LBB67_3+0xb1c>
     210:	7610006f          	j	1170 <.LBB67_4>

0000000000000214 <.LBB67_3>:
     214:	080d4c93          	xori	s9,s10,128
     218:	00001c37          	lui	s8,0x1
     21c:	41840c33          	sub	s8,s0,s8
     220:	d68c3c03          	ld	s8,-664(s8) # d68 <.LBB67_3+0xb54>
     224:	00001d37          	lui	s10,0x1
     228:	41a40d33          	sub	s10,s0,s10
     22c:	660d3d03          	ld	s10,1632(s10) # 1660 <.LBB67_4+0x4f0>
     230:	01ac0c33          	add	s8,s8,s10
     234:	019c01a3          	sb	s9,3(s8)
     238:	f8843c83          	ld	s9,-120(s0)
     23c:	080ccc93          	xori	s9,s9,128
     240:	019c0123          	sb	s9,2(s8)
     244:	f8043c83          	ld	s9,-128(s0)
     248:	080ccc93          	xori	s9,s9,128
     24c:	019c00a3          	sb	s9,1(s8)
     250:	f7843c83          	ld	s9,-136(s0)
     254:	080ccc93          	xori	s9,s9,128
     258:	019c0023          	sb	s9,0(s8)
     25c:	f7043c83          	ld	s9,-144(s0)
     260:	080ccc93          	xori	s9,s9,128
     264:	019c0223          	sb	s9,4(s8)
     268:	f6843c83          	ld	s9,-152(s0)
     26c:	080ccc93          	xori	s9,s9,128
     270:	019c02a3          	sb	s9,5(s8)
     274:	f6043c83          	ld	s9,-160(s0)
     278:	080ccc93          	xori	s9,s9,128
     27c:	019c0323          	sb	s9,6(s8)
     280:	f5843c83          	ld	s9,-168(s0)
     284:	080ccc93          	xori	s9,s9,128
     288:	019c03a3          	sb	s9,7(s8)
     28c:	f5043c83          	ld	s9,-176(s0)
     290:	080ccc93          	xori	s9,s9,128
     294:	019c0423          	sb	s9,8(s8)
     298:	f4843c83          	ld	s9,-184(s0)
     29c:	080ccc93          	xori	s9,s9,128
     2a0:	019c04a3          	sb	s9,9(s8)
     2a4:	f4043c83          	ld	s9,-192(s0)
     2a8:	080ccc93          	xori	s9,s9,128
     2ac:	019c0523          	sb	s9,10(s8)
     2b0:	f3843c83          	ld	s9,-200(s0)
     2b4:	080ccc93          	xori	s9,s9,128
     2b8:	019c05a3          	sb	s9,11(s8)
     2bc:	f3043c83          	ld	s9,-208(s0)
     2c0:	080ccc93          	xori	s9,s9,128
     2c4:	019c0623          	sb	s9,12(s8)
     2c8:	f2843c83          	ld	s9,-216(s0)
     2cc:	080ccc93          	xori	s9,s9,128
     2d0:	019c06a3          	sb	s9,13(s8)
     2d4:	f2043c83          	ld	s9,-224(s0)
     2d8:	080ccc93          	xori	s9,s9,128
     2dc:	019c0723          	sb	s9,14(s8)
     2e0:	f1843c83          	ld	s9,-232(s0)
     2e4:	080ccc93          	xori	s9,s9,128
     2e8:	019c07a3          	sb	s9,15(s8)
     2ec:	f1043c83          	ld	s9,-240(s0)
     2f0:	080ccc93          	xori	s9,s9,128
     2f4:	019c0823          	sb	s9,16(s8)
     2f8:	f0843c83          	ld	s9,-248(s0)
     2fc:	080ccc93          	xori	s9,s9,128
     300:	019c08a3          	sb	s9,17(s8)
     304:	f0043c83          	ld	s9,-256(s0)
     308:	080ccc93          	xori	s9,s9,128
     30c:	019c0923          	sb	s9,18(s8)
     310:	ef843c83          	ld	s9,-264(s0)
     314:	080ccc93          	xori	s9,s9,128
     318:	019c09a3          	sb	s9,19(s8)
     31c:	ef043c83          	ld	s9,-272(s0)
     320:	080ccc93          	xori	s9,s9,128
     324:	019c0a23          	sb	s9,20(s8)
     328:	ee043c83          	ld	s9,-288(s0)
     32c:	080ccc93          	xori	s9,s9,128
     330:	019c0aa3          	sb	s9,21(s8)
     334:	ed843c83          	ld	s9,-296(s0)
     338:	080ccc93          	xori	s9,s9,128
     33c:	019c0b23          	sb	s9,22(s8)
     340:	ed043c83          	ld	s9,-304(s0)
     344:	080ccc93          	xori	s9,s9,128
     348:	019c0ba3          	sb	s9,23(s8)
     34c:	ea843c83          	ld	s9,-344(s0)
     350:	080ccc93          	xori	s9,s9,128
     354:	019c0c23          	sb	s9,24(s8)
     358:	e7843c83          	ld	s9,-392(s0)
     35c:	080ccc93          	xori	s9,s9,128
     360:	019c0ca3          	sb	s9,25(s8)
     364:	e5843c83          	ld	s9,-424(s0)
     368:	080ccc93          	xori	s9,s9,128
     36c:	019c0d23          	sb	s9,26(s8)
     370:	e4843c83          	ld	s9,-440(s0)
     374:	080ccc93          	xori	s9,s9,128
     378:	019c0da3          	sb	s9,27(s8)
     37c:	e4043c83          	ld	s9,-448(s0)
     380:	080ccc93          	xori	s9,s9,128
     384:	019c0e23          	sb	s9,28(s8)
     388:	e3843c83          	ld	s9,-456(s0)
     38c:	080ccc93          	xori	s9,s9,128
     390:	019c0ea3          	sb	s9,29(s8)
     394:	e3043c83          	ld	s9,-464(s0)
     398:	080ccc93          	xori	s9,s9,128
     39c:	019c0f23          	sb	s9,30(s8)
     3a0:	e2843c83          	ld	s9,-472(s0)
     3a4:	080ccc93          	xori	s9,s9,128
     3a8:	019c0fa3          	sb	s9,31(s8)
     3ac:	e2043c03          	ld	s8,-480(s0)
     3b0:	080c4c93          	xori	s9,s8,128
     3b4:	00001c37          	lui	s8,0x1
     3b8:	41840c33          	sub	s8,s0,s8
     3bc:	d60c3c03          	ld	s8,-672(s8) # d60 <.LBB67_3+0xb4c>
     3c0:	01ac0c33          	add	s8,s8,s10
     3c4:	019c01a3          	sb	s9,3(s8)
     3c8:	e1843c83          	ld	s9,-488(s0)
     3cc:	080ccc93          	xori	s9,s9,128
     3d0:	019c0123          	sb	s9,2(s8)
     3d4:	e0843c83          	ld	s9,-504(s0)
     3d8:	080ccc93          	xori	s9,s9,128
     3dc:	019c00a3          	sb	s9,1(s8)
     3e0:	c4043c83          	ld	s9,-960(s0)
     3e4:	080ccc93          	xori	s9,s9,128
     3e8:	019c0023          	sb	s9,0(s8)
     3ec:	c0043c83          	ld	s9,-1024(s0)
     3f0:	080ccc93          	xori	s9,s9,128
     3f4:	019c0223          	sb	s9,4(s8)
     3f8:	bb843c83          	ld	s9,-1096(s0)
     3fc:	080ccc93          	xori	s9,s9,128
     400:	019c02a3          	sb	s9,5(s8)
     404:	b7043c83          	ld	s9,-1168(s0)
     408:	080ccc93          	xori	s9,s9,128
     40c:	019c0323          	sb	s9,6(s8)
     410:	b2843c83          	ld	s9,-1240(s0)
     414:	080ccc93          	xori	s9,s9,128
     418:	019c03a3          	sb	s9,7(s8)
     41c:	ad843c83          	ld	s9,-1320(s0)
     420:	080ccc93          	xori	s9,s9,128
     424:	019c0423          	sb	s9,8(s8)
     428:	a8843c83          	ld	s9,-1400(s0)
     42c:	080ccc93          	xori	s9,s9,128
     430:	019c04a3          	sb	s9,9(s8)
     434:	a4843c83          	ld	s9,-1464(s0)
     438:	080ccc93          	xori	s9,s9,128
     43c:	019c0523          	sb	s9,10(s8)
     440:	a0043c83          	ld	s9,-1536(s0)
     444:	080ccc93          	xori	s9,s9,128
     448:	019c05a3          	sb	s9,11(s8)
     44c:	9c043c83          	ld	s9,-1600(s0)
     450:	080ccc93          	xori	s9,s9,128
     454:	019c0623          	sb	s9,12(s8)
     458:	98043c83          	ld	s9,-1664(s0)
     45c:	080ccc93          	xori	s9,s9,128
     460:	019c06a3          	sb	s9,13(s8)
     464:	93843c83          	ld	s9,-1736(s0)
     468:	080ccc93          	xori	s9,s9,128
     46c:	019c0723          	sb	s9,14(s8)
     470:	90043c83          	ld	s9,-1792(s0)
     474:	080ccc93          	xori	s9,s9,128
     478:	019c07a3          	sb	s9,15(s8)
     47c:	8c043c83          	ld	s9,-1856(s0)
     480:	080ccc93          	xori	s9,s9,128
     484:	019c0823          	sb	s9,16(s8)
     488:	87043c83          	ld	s9,-1936(s0)
     48c:	080ccc93          	xori	s9,s9,128
     490:	019c08a3          	sb	s9,17(s8)
     494:	83043c83          	ld	s9,-2000(s0)
     498:	080ccc93          	xori	s9,s9,128
     49c:	019c0923          	sb	s9,18(s8)
     4a0:	00001cb7          	lui	s9,0x1
     4a4:	41940cb3          	sub	s9,s0,s9
     4a8:	7e8cbc83          	ld	s9,2024(s9) # 17e8 <.LBB67_5+0xf4>
     4ac:	080ccc93          	xori	s9,s9,128
     4b0:	019c09a3          	sb	s9,19(s8)
     4b4:	00001cb7          	lui	s9,0x1
     4b8:	41940cb3          	sub	s9,s0,s9
     4bc:	7b0cbc83          	ld	s9,1968(s9) # 17b0 <.LBB67_5+0xbc>
     4c0:	080ccc93          	xori	s9,s9,128
     4c4:	019c0a23          	sb	s9,20(s8)
     4c8:	00001cb7          	lui	s9,0x1
     4cc:	41940cb3          	sub	s9,s0,s9
     4d0:	790cbc83          	ld	s9,1936(s9) # 1790 <.LBB67_5+0x9c>
     4d4:	080ccc93          	xori	s9,s9,128
     4d8:	019c0aa3          	sb	s9,21(s8)
     4dc:	00001cb7          	lui	s9,0x1
     4e0:	41940cb3          	sub	s9,s0,s9
     4e4:	778cbc83          	ld	s9,1912(s9) # 1778 <.LBB67_5+0x84>
     4e8:	080ccc93          	xori	s9,s9,128
     4ec:	019c0b23          	sb	s9,22(s8)
     4f0:	00001cb7          	lui	s9,0x1
     4f4:	41940cb3          	sub	s9,s0,s9
     4f8:	770cbc83          	ld	s9,1904(s9) # 1770 <.LBB67_5+0x7c>
     4fc:	080ccc93          	xori	s9,s9,128
     500:	019c0ba3          	sb	s9,23(s8)
     504:	00001cb7          	lui	s9,0x1
     508:	41940cb3          	sub	s9,s0,s9
     50c:	768cbc83          	ld	s9,1896(s9) # 1768 <.LBB67_5+0x74>
     510:	080ccc93          	xori	s9,s9,128
     514:	019c0c23          	sb	s9,24(s8)
     518:	00001cb7          	lui	s9,0x1
     51c:	41940cb3          	sub	s9,s0,s9
     520:	760cbc83          	ld	s9,1888(s9) # 1760 <.LBB67_5+0x6c>
     524:	080ccc93          	xori	s9,s9,128
     528:	019c0ca3          	sb	s9,25(s8)
     52c:	00001cb7          	lui	s9,0x1
     530:	41940cb3          	sub	s9,s0,s9
     534:	758cbc83          	ld	s9,1880(s9) # 1758 <.LBB67_5+0x64>
     538:	080ccc93          	xori	s9,s9,128
     53c:	019c0d23          	sb	s9,26(s8)
     540:	00001cb7          	lui	s9,0x1
     544:	41940cb3          	sub	s9,s0,s9
     548:	750cbc83          	ld	s9,1872(s9) # 1750 <.LBB67_5+0x5c>
     54c:	080ccc93          	xori	s9,s9,128
     550:	019c0da3          	sb	s9,27(s8)
     554:	00001cb7          	lui	s9,0x1
     558:	41940cb3          	sub	s9,s0,s9
     55c:	748cbc83          	ld	s9,1864(s9) # 1748 <.LBB67_5+0x54>
     560:	080ccc93          	xori	s9,s9,128
     564:	019c0e23          	sb	s9,28(s8)
     568:	00001cb7          	lui	s9,0x1
     56c:	41940cb3          	sub	s9,s0,s9
     570:	740cbc83          	ld	s9,1856(s9) # 1740 <.LBB67_5+0x4c>
     574:	080ccc93          	xori	s9,s9,128
     578:	019c0ea3          	sb	s9,29(s8)
     57c:	00001cb7          	lui	s9,0x1
     580:	41940cb3          	sub	s9,s0,s9
     584:	738cbc83          	ld	s9,1848(s9) # 1738 <.LBB67_5+0x44>
     588:	080ccc93          	xori	s9,s9,128
     58c:	019c0f23          	sb	s9,30(s8)
     590:	00001cb7          	lui	s9,0x1
     594:	41940cb3          	sub	s9,s0,s9
     598:	730cbc83          	ld	s9,1840(s9) # 1730 <.LBB67_5+0x3c>
     59c:	080ccc93          	xori	s9,s9,128
     5a0:	019c0fa3          	sb	s9,31(s8)
     5a4:	00001c37          	lui	s8,0x1
     5a8:	41840c33          	sub	s8,s0,s8
     5ac:	728c3c03          	ld	s8,1832(s8) # 1728 <.LBB67_5+0x34>
     5b0:	080c4c93          	xori	s9,s8,128
     5b4:	00001c37          	lui	s8,0x1
     5b8:	41840c33          	sub	s8,s0,s8
     5bc:	d58c3c03          	ld	s8,-680(s8) # d58 <.LBB67_3+0xb44>
     5c0:	01ac0c33          	add	s8,s8,s10
     5c4:	019c01a3          	sb	s9,3(s8)
     5c8:	00001cb7          	lui	s9,0x1
     5cc:	41940cb3          	sub	s9,s0,s9
     5d0:	720cbc83          	ld	s9,1824(s9) # 1720 <.LBB67_5+0x2c>
     5d4:	080ccc93          	xori	s9,s9,128
     5d8:	019c0123          	sb	s9,2(s8)
     5dc:	00001cb7          	lui	s9,0x1
     5e0:	41940cb3          	sub	s9,s0,s9
     5e4:	718cbc83          	ld	s9,1816(s9) # 1718 <.LBB67_5+0x24>
     5e8:	080ccc93          	xori	s9,s9,128
     5ec:	019c00a3          	sb	s9,1(s8)
     5f0:	00001cb7          	lui	s9,0x1
     5f4:	41940cb3          	sub	s9,s0,s9
     5f8:	708cbc83          	ld	s9,1800(s9) # 1708 <.LBB67_5+0x14>
     5fc:	080ccc93          	xori	s9,s9,128
     600:	019c0023          	sb	s9,0(s8)
     604:	00001cb7          	lui	s9,0x1
     608:	41940cb3          	sub	s9,s0,s9
     60c:	700cbc83          	ld	s9,1792(s9) # 1700 <.LBB67_5+0xc>
     610:	080ccc93          	xori	s9,s9,128
     614:	019c0223          	sb	s9,4(s8)
     618:	00001cb7          	lui	s9,0x1
     61c:	41940cb3          	sub	s9,s0,s9
     620:	6f8cbc83          	ld	s9,1784(s9) # 16f8 <.LBB67_5+0x4>
     624:	080ccc93          	xori	s9,s9,128
     628:	019c02a3          	sb	s9,5(s8)
     62c:	00001cb7          	lui	s9,0x1
     630:	41940cb3          	sub	s9,s0,s9
     634:	6f0cbc83          	ld	s9,1776(s9) # 16f0 <.LBB67_4+0x580>
     638:	080ccc93          	xori	s9,s9,128
     63c:	019c0323          	sb	s9,6(s8)
     640:	00001cb7          	lui	s9,0x1
     644:	41940cb3          	sub	s9,s0,s9
     648:	6e8cbc83          	ld	s9,1768(s9) # 16e8 <.LBB67_4+0x578>
     64c:	080ccc93          	xori	s9,s9,128
     650:	019c03a3          	sb	s9,7(s8)
     654:	00001cb7          	lui	s9,0x1
     658:	41940cb3          	sub	s9,s0,s9
     65c:	6e0cbc83          	ld	s9,1760(s9) # 16e0 <.LBB67_4+0x570>
     660:	080ccc93          	xori	s9,s9,128
     664:	019c0423          	sb	s9,8(s8)
     668:	00001cb7          	lui	s9,0x1
     66c:	41940cb3          	sub	s9,s0,s9
     670:	6d8cbc83          	ld	s9,1752(s9) # 16d8 <.LBB67_4+0x568>
     674:	080ccc93          	xori	s9,s9,128
     678:	019c04a3          	sb	s9,9(s8)
     67c:	00001cb7          	lui	s9,0x1
     680:	41940cb3          	sub	s9,s0,s9
     684:	6d0cbc83          	ld	s9,1744(s9) # 16d0 <.LBB67_4+0x560>
     688:	080ccc93          	xori	s9,s9,128
     68c:	019c0523          	sb	s9,10(s8)
     690:	00001cb7          	lui	s9,0x1
     694:	41940cb3          	sub	s9,s0,s9
     698:	6c8cbc83          	ld	s9,1736(s9) # 16c8 <.LBB67_4+0x558>
     69c:	080ccc93          	xori	s9,s9,128
     6a0:	019c05a3          	sb	s9,11(s8)
     6a4:	00001cb7          	lui	s9,0x1
     6a8:	41940cb3          	sub	s9,s0,s9
     6ac:	6c0cbc83          	ld	s9,1728(s9) # 16c0 <.LBB67_4+0x550>
     6b0:	080ccc93          	xori	s9,s9,128
     6b4:	019c0623          	sb	s9,12(s8)
     6b8:	00001cb7          	lui	s9,0x1
     6bc:	41940cb3          	sub	s9,s0,s9
     6c0:	6b8cbc83          	ld	s9,1720(s9) # 16b8 <.LBB67_4+0x548>
     6c4:	080ccc93          	xori	s9,s9,128
     6c8:	019c06a3          	sb	s9,13(s8)
     6cc:	00001cb7          	lui	s9,0x1
     6d0:	41940cb3          	sub	s9,s0,s9
     6d4:	6b0cbc83          	ld	s9,1712(s9) # 16b0 <.LBB67_4+0x540>
     6d8:	080ccc93          	xori	s9,s9,128
     6dc:	019c0723          	sb	s9,14(s8)
     6e0:	00001cb7          	lui	s9,0x1
     6e4:	41940cb3          	sub	s9,s0,s9
     6e8:	6a8cbc83          	ld	s9,1704(s9) # 16a8 <.LBB67_4+0x538>
     6ec:	080ccc93          	xori	s9,s9,128
     6f0:	019c07a3          	sb	s9,15(s8)
     6f4:	00001cb7          	lui	s9,0x1
     6f8:	41940cb3          	sub	s9,s0,s9
     6fc:	698cbc83          	ld	s9,1688(s9) # 1698 <.LBB67_4+0x528>
     700:	080ccc93          	xori	s9,s9,128
     704:	019c0823          	sb	s9,16(s8)
     708:	00001cb7          	lui	s9,0x1
     70c:	41940cb3          	sub	s9,s0,s9
     710:	2a8cbc83          	ld	s9,680(s9) # 12a8 <.LBB67_4+0x138>
     714:	080ccc93          	xori	s9,s9,128
     718:	019c08a3          	sb	s9,17(s8)
     71c:	00001cb7          	lui	s9,0x1
     720:	41940cb3          	sub	s9,s0,s9
     724:	2b8cbc83          	ld	s9,696(s9) # 12b8 <.LBB67_4+0x148>
     728:	080ccc93          	xori	s9,s9,128
     72c:	019c0923          	sb	s9,18(s8)
     730:	00001cb7          	lui	s9,0x1
     734:	41940cb3          	sub	s9,s0,s9
     738:	2c8cbc83          	ld	s9,712(s9) # 12c8 <.LBB67_4+0x158>
     73c:	080ccc93          	xori	s9,s9,128
     740:	019c09a3          	sb	s9,19(s8)
     744:	00001cb7          	lui	s9,0x1
     748:	41940cb3          	sub	s9,s0,s9
     74c:	2d8cbc83          	ld	s9,728(s9) # 12d8 <.LBB67_4+0x168>
     750:	080ccc93          	xori	s9,s9,128
     754:	019c0a23          	sb	s9,20(s8)
     758:	00001cb7          	lui	s9,0x1
     75c:	41940cb3          	sub	s9,s0,s9
     760:	2e8cbc83          	ld	s9,744(s9) # 12e8 <.LBB67_4+0x178>
     764:	080ccc93          	xori	s9,s9,128
     768:	019c0aa3          	sb	s9,21(s8)
     76c:	00001cb7          	lui	s9,0x1
     770:	41940cb3          	sub	s9,s0,s9
     774:	2f8cbc83          	ld	s9,760(s9) # 12f8 <.LBB67_4+0x188>
     778:	080ccc93          	xori	s9,s9,128
     77c:	019c0b23          	sb	s9,22(s8)
     780:	00001cb7          	lui	s9,0x1
     784:	41940cb3          	sub	s9,s0,s9
     788:	308cbc83          	ld	s9,776(s9) # 1308 <.LBB67_4+0x198>
     78c:	080ccc93          	xori	s9,s9,128
     790:	019c0ba3          	sb	s9,23(s8)
     794:	00001cb7          	lui	s9,0x1
     798:	41940cb3          	sub	s9,s0,s9
     79c:	318cbc83          	ld	s9,792(s9) # 1318 <.LBB67_4+0x1a8>
     7a0:	080ccc93          	xori	s9,s9,128
     7a4:	019c0c23          	sb	s9,24(s8)
     7a8:	00001cb7          	lui	s9,0x1
     7ac:	41940cb3          	sub	s9,s0,s9
     7b0:	328cbc83          	ld	s9,808(s9) # 1328 <.LBB67_4+0x1b8>
     7b4:	080ccc93          	xori	s9,s9,128
     7b8:	019c0ca3          	sb	s9,25(s8)
     7bc:	00001cb7          	lui	s9,0x1
     7c0:	41940cb3          	sub	s9,s0,s9
     7c4:	338cbc83          	ld	s9,824(s9) # 1338 <.LBB67_4+0x1c8>
     7c8:	080ccc93          	xori	s9,s9,128
     7cc:	019c0d23          	sb	s9,26(s8)
     7d0:	00001cb7          	lui	s9,0x1
     7d4:	41940cb3          	sub	s9,s0,s9
     7d8:	348cbc83          	ld	s9,840(s9) # 1348 <.LBB67_4+0x1d8>
     7dc:	080ccc93          	xori	s9,s9,128
     7e0:	019c0da3          	sb	s9,27(s8)
     7e4:	00001cb7          	lui	s9,0x1
     7e8:	41940cb3          	sub	s9,s0,s9
     7ec:	358cbc83          	ld	s9,856(s9) # 1358 <.LBB67_4+0x1e8>
     7f0:	080ccc93          	xori	s9,s9,128
     7f4:	019c0e23          	sb	s9,28(s8)
     7f8:	00001cb7          	lui	s9,0x1
     7fc:	41940cb3          	sub	s9,s0,s9
     800:	368cbc83          	ld	s9,872(s9) # 1368 <.LBB67_4+0x1f8>
     804:	080ccc93          	xori	s9,s9,128
     808:	019c0ea3          	sb	s9,29(s8)
     80c:	00001cb7          	lui	s9,0x1
     810:	41940cb3          	sub	s9,s0,s9
     814:	378cbc83          	ld	s9,888(s9) # 1378 <.LBB67_4+0x208>
     818:	080ccc93          	xori	s9,s9,128
     81c:	019c0f23          	sb	s9,30(s8)
     820:	00001cb7          	lui	s9,0x1
     824:	41940cb3          	sub	s9,s0,s9
     828:	390cbc83          	ld	s9,912(s9) # 1390 <.LBB67_4+0x220>
     82c:	080ccc93          	xori	s9,s9,128
     830:	019c0fa3          	sb	s9,31(s8)
     834:	00001c37          	lui	s8,0x1
     838:	41840c33          	sub	s8,s0,s8
     83c:	398c3c03          	ld	s8,920(s8) # 1398 <.LBB67_4+0x228>
     840:	080c4c93          	xori	s9,s8,128
     844:	00001c37          	lui	s8,0x1
     848:	41840c33          	sub	s8,s0,s8
     84c:	d50c3c03          	ld	s8,-688(s8) # d50 <.LBB67_3+0xb3c>
     850:	01ac0c33          	add	s8,s8,s10
     854:	019c01a3          	sb	s9,3(s8)
     858:	00001cb7          	lui	s9,0x1
     85c:	41940cb3          	sub	s9,s0,s9
     860:	3a8cbc83          	ld	s9,936(s9) # 13a8 <.LBB67_4+0x238>
     864:	080ccc93          	xori	s9,s9,128
     868:	019c0123          	sb	s9,2(s8)
     86c:	00001cb7          	lui	s9,0x1
     870:	41940cb3          	sub	s9,s0,s9
     874:	3b8cbc83          	ld	s9,952(s9) # 13b8 <.LBB67_4+0x248>
     878:	080ccc93          	xori	s9,s9,128
     87c:	019c00a3          	sb	s9,1(s8)
     880:	00001cb7          	lui	s9,0x1
     884:	41940cb3          	sub	s9,s0,s9
     888:	3c8cbc83          	ld	s9,968(s9) # 13c8 <.LBB67_4+0x258>
     88c:	080ccc93          	xori	s9,s9,128
     890:	019c0023          	sb	s9,0(s8)
     894:	00001cb7          	lui	s9,0x1
     898:	41940cb3          	sub	s9,s0,s9
     89c:	3d8cbc83          	ld	s9,984(s9) # 13d8 <.LBB67_4+0x268>
     8a0:	080ccc93          	xori	s9,s9,128
     8a4:	019c0223          	sb	s9,4(s8)
     8a8:	00001cb7          	lui	s9,0x1
     8ac:	41940cb3          	sub	s9,s0,s9
     8b0:	3e8cbc83          	ld	s9,1000(s9) # 13e8 <.LBB67_4+0x278>
     8b4:	080ccc93          	xori	s9,s9,128
     8b8:	019c02a3          	sb	s9,5(s8)
     8bc:	00001cb7          	lui	s9,0x1
     8c0:	41940cb3          	sub	s9,s0,s9
     8c4:	3f8cbc83          	ld	s9,1016(s9) # 13f8 <.LBB67_4+0x288>
     8c8:	080ccc93          	xori	s9,s9,128
     8cc:	019c0323          	sb	s9,6(s8)
     8d0:	00001cb7          	lui	s9,0x1
     8d4:	41940cb3          	sub	s9,s0,s9
     8d8:	408cbc83          	ld	s9,1032(s9) # 1408 <.LBB67_4+0x298>
     8dc:	080ccc93          	xori	s9,s9,128
     8e0:	019c03a3          	sb	s9,7(s8)
     8e4:	00001cb7          	lui	s9,0x1
     8e8:	41940cb3          	sub	s9,s0,s9
     8ec:	418cbc83          	ld	s9,1048(s9) # 1418 <.LBB67_4+0x2a8>
     8f0:	080ccc93          	xori	s9,s9,128
     8f4:	019c0423          	sb	s9,8(s8)
     8f8:	00001cb7          	lui	s9,0x1
     8fc:	41940cb3          	sub	s9,s0,s9
     900:	428cbc83          	ld	s9,1064(s9) # 1428 <.LBB67_4+0x2b8>
     904:	080ccc93          	xori	s9,s9,128
     908:	019c04a3          	sb	s9,9(s8)
     90c:	00001cb7          	lui	s9,0x1
     910:	41940cb3          	sub	s9,s0,s9
     914:	438cbc83          	ld	s9,1080(s9) # 1438 <.LBB67_4+0x2c8>
     918:	080ccc93          	xori	s9,s9,128
     91c:	019c0523          	sb	s9,10(s8)
     920:	00001cb7          	lui	s9,0x1
     924:	41940cb3          	sub	s9,s0,s9
     928:	448cbc83          	ld	s9,1096(s9) # 1448 <.LBB67_4+0x2d8>
     92c:	080ccc93          	xori	s9,s9,128
     930:	019c05a3          	sb	s9,11(s8)
     934:	00001cb7          	lui	s9,0x1
     938:	41940cb3          	sub	s9,s0,s9
     93c:	458cbc83          	ld	s9,1112(s9) # 1458 <.LBB67_4+0x2e8>
     940:	080ccc93          	xori	s9,s9,128
     944:	019c0623          	sb	s9,12(s8)
     948:	00001cb7          	lui	s9,0x1
     94c:	41940cb3          	sub	s9,s0,s9
     950:	468cbc83          	ld	s9,1128(s9) # 1468 <.LBB67_4+0x2f8>
     954:	080ccc93          	xori	s9,s9,128
     958:	019c06a3          	sb	s9,13(s8)
     95c:	00001cb7          	lui	s9,0x1
     960:	41940cb3          	sub	s9,s0,s9
     964:	478cbc83          	ld	s9,1144(s9) # 1478 <.LBB67_4+0x308>
     968:	080ccc93          	xori	s9,s9,128
     96c:	019c0723          	sb	s9,14(s8)
     970:	00001cb7          	lui	s9,0x1
     974:	41940cb3          	sub	s9,s0,s9
     978:	488cbc83          	ld	s9,1160(s9) # 1488 <.LBB67_4+0x318>
     97c:	080ccc93          	xori	s9,s9,128
     980:	019c07a3          	sb	s9,15(s8)
     984:	00001cb7          	lui	s9,0x1
     988:	41940cb3          	sub	s9,s0,s9
     98c:	498cbc83          	ld	s9,1176(s9) # 1498 <.LBB67_4+0x328>
     990:	080ccc93          	xori	s9,s9,128
     994:	019c0823          	sb	s9,16(s8)
     998:	00001cb7          	lui	s9,0x1
     99c:	41940cb3          	sub	s9,s0,s9
     9a0:	4a8cbc83          	ld	s9,1192(s9) # 14a8 <.LBB67_4+0x338>
     9a4:	080ccc93          	xori	s9,s9,128
     9a8:	019c08a3          	sb	s9,17(s8)
     9ac:	00001cb7          	lui	s9,0x1
     9b0:	41940cb3          	sub	s9,s0,s9
     9b4:	4b8cbc83          	ld	s9,1208(s9) # 14b8 <.LBB67_4+0x348>
     9b8:	080ccc93          	xori	s9,s9,128
     9bc:	019c0923          	sb	s9,18(s8)
     9c0:	00001cb7          	lui	s9,0x1
     9c4:	41940cb3          	sub	s9,s0,s9
     9c8:	4c8cbc83          	ld	s9,1224(s9) # 14c8 <.LBB67_4+0x358>
     9cc:	080ccc93          	xori	s9,s9,128
     9d0:	019c09a3          	sb	s9,19(s8)
     9d4:	00001cb7          	lui	s9,0x1
     9d8:	41940cb3          	sub	s9,s0,s9
     9dc:	4d8cbc83          	ld	s9,1240(s9) # 14d8 <.LBB67_4+0x368>
     9e0:	080ccc93          	xori	s9,s9,128
     9e4:	019c0a23          	sb	s9,20(s8)
     9e8:	00001cb7          	lui	s9,0x1
     9ec:	41940cb3          	sub	s9,s0,s9
     9f0:	4e8cbc83          	ld	s9,1256(s9) # 14e8 <.LBB67_4+0x378>
     9f4:	080ccc93          	xori	s9,s9,128
     9f8:	019c0aa3          	sb	s9,21(s8)
     9fc:	00001cb7          	lui	s9,0x1
     a00:	41940cb3          	sub	s9,s0,s9
     a04:	4f8cbc83          	ld	s9,1272(s9) # 14f8 <.LBB67_4+0x388>
     a08:	080ccc93          	xori	s9,s9,128
     a0c:	019c0b23          	sb	s9,22(s8)
     a10:	00001cb7          	lui	s9,0x1
     a14:	41940cb3          	sub	s9,s0,s9
     a18:	508cbc83          	ld	s9,1288(s9) # 1508 <.LBB67_4+0x398>
     a1c:	080ccc93          	xori	s9,s9,128
     a20:	019c0ba3          	sb	s9,23(s8)
     a24:	00001cb7          	lui	s9,0x1
     a28:	41940cb3          	sub	s9,s0,s9
     a2c:	518cbc83          	ld	s9,1304(s9) # 1518 <.LBB67_4+0x3a8>
     a30:	080ccc93          	xori	s9,s9,128
     a34:	019c0c23          	sb	s9,24(s8)
     a38:	00001cb7          	lui	s9,0x1
     a3c:	41940cb3          	sub	s9,s0,s9
     a40:	528cbc83          	ld	s9,1320(s9) # 1528 <.LBB67_4+0x3b8>
     a44:	080ccc93          	xori	s9,s9,128
     a48:	019c0ca3          	sb	s9,25(s8)
     a4c:	00001cb7          	lui	s9,0x1
     a50:	41940cb3          	sub	s9,s0,s9
     a54:	538cbc83          	ld	s9,1336(s9) # 1538 <.LBB67_4+0x3c8>
     a58:	080ccc93          	xori	s9,s9,128
     a5c:	019c0d23          	sb	s9,26(s8)
     a60:	00001cb7          	lui	s9,0x1
     a64:	41940cb3          	sub	s9,s0,s9
     a68:	548cbc83          	ld	s9,1352(s9) # 1548 <.LBB67_4+0x3d8>
     a6c:	080ccc93          	xori	s9,s9,128
     a70:	019c0da3          	sb	s9,27(s8)
     a74:	00001cb7          	lui	s9,0x1
     a78:	41940cb3          	sub	s9,s0,s9
     a7c:	558cbc83          	ld	s9,1368(s9) # 1558 <.LBB67_4+0x3e8>
     a80:	080ccc93          	xori	s9,s9,128
     a84:	019c0e23          	sb	s9,28(s8)
     a88:	00001cb7          	lui	s9,0x1
     a8c:	41940cb3          	sub	s9,s0,s9
     a90:	568cbc83          	ld	s9,1384(s9) # 1568 <.LBB67_4+0x3f8>
     a94:	080ccc93          	xori	s9,s9,128
     a98:	019c0ea3          	sb	s9,29(s8)
     a9c:	00001cb7          	lui	s9,0x1
     aa0:	41940cb3          	sub	s9,s0,s9
     aa4:	578cbc83          	ld	s9,1400(s9) # 1578 <.LBB67_4+0x408>
     aa8:	080ccc93          	xori	s9,s9,128
     aac:	019c0f23          	sb	s9,30(s8)
     ab0:	00001cb7          	lui	s9,0x1
     ab4:	41940cb3          	sub	s9,s0,s9
     ab8:	590cbc83          	ld	s9,1424(s9) # 1590 <.LBB67_4+0x420>
     abc:	080ccc93          	xori	s9,s9,128
     ac0:	019c0fa3          	sb	s9,31(s8)
     ac4:	00001c37          	lui	s8,0x1
     ac8:	41840c33          	sub	s8,s0,s8
     acc:	598c3c03          	ld	s8,1432(s8) # 1598 <.LBB67_4+0x428>
     ad0:	080c4c93          	xori	s9,s8,128
     ad4:	00001c37          	lui	s8,0x1
     ad8:	41840c33          	sub	s8,s0,s8
     adc:	d48c3c03          	ld	s8,-696(s8) # d48 <.LBB67_3+0xb34>
     ae0:	01ac0c33          	add	s8,s8,s10
     ae4:	019c01a3          	sb	s9,3(s8)
     ae8:	00001cb7          	lui	s9,0x1
     aec:	41940cb3          	sub	s9,s0,s9
     af0:	5a8cbc83          	ld	s9,1448(s9) # 15a8 <.LBB67_4+0x438>
     af4:	080ccc93          	xori	s9,s9,128
     af8:	019c0123          	sb	s9,2(s8)
     afc:	00001cb7          	lui	s9,0x1
     b00:	41940cb3          	sub	s9,s0,s9
     b04:	5b8cbc83          	ld	s9,1464(s9) # 15b8 <.LBB67_4+0x448>
     b08:	080ccc93          	xori	s9,s9,128
     b0c:	019c00a3          	sb	s9,1(s8)
     b10:	00001cb7          	lui	s9,0x1
     b14:	41940cb3          	sub	s9,s0,s9
     b18:	5c8cbc83          	ld	s9,1480(s9) # 15c8 <.LBB67_4+0x458>
     b1c:	080ccc93          	xori	s9,s9,128
     b20:	019c0023          	sb	s9,0(s8)
     b24:	00001cb7          	lui	s9,0x1
     b28:	41940cb3          	sub	s9,s0,s9
     b2c:	5d8cbc83          	ld	s9,1496(s9) # 15d8 <.LBB67_4+0x468>
     b30:	080ccc93          	xori	s9,s9,128
     b34:	019c0223          	sb	s9,4(s8)
     b38:	00001cb7          	lui	s9,0x1
     b3c:	41940cb3          	sub	s9,s0,s9
     b40:	5e8cbc83          	ld	s9,1512(s9) # 15e8 <.LBB67_4+0x478>
     b44:	080ccc93          	xori	s9,s9,128
     b48:	019c02a3          	sb	s9,5(s8)
     b4c:	00001cb7          	lui	s9,0x1
     b50:	41940cb3          	sub	s9,s0,s9
     b54:	5f8cbc83          	ld	s9,1528(s9) # 15f8 <.LBB67_4+0x488>
     b58:	080ccc93          	xori	s9,s9,128
     b5c:	019c0323          	sb	s9,6(s8)
     b60:	00001cb7          	lui	s9,0x1
     b64:	41940cb3          	sub	s9,s0,s9
     b68:	608cbc83          	ld	s9,1544(s9) # 1608 <.LBB67_4+0x498>
     b6c:	080ccc93          	xori	s9,s9,128
     b70:	019c03a3          	sb	s9,7(s8)
     b74:	00001cb7          	lui	s9,0x1
     b78:	41940cb3          	sub	s9,s0,s9
     b7c:	618cbc83          	ld	s9,1560(s9) # 1618 <.LBB67_4+0x4a8>
     b80:	080ccc93          	xori	s9,s9,128
     b84:	019c0423          	sb	s9,8(s8)
     b88:	00001cb7          	lui	s9,0x1
     b8c:	41940cb3          	sub	s9,s0,s9
     b90:	628cbc83          	ld	s9,1576(s9) # 1628 <.LBB67_4+0x4b8>
     b94:	080ccc93          	xori	s9,s9,128
     b98:	019c04a3          	sb	s9,9(s8)
     b9c:	00001cb7          	lui	s9,0x1
     ba0:	41940cb3          	sub	s9,s0,s9
     ba4:	638cbc83          	ld	s9,1592(s9) # 1638 <.LBB67_4+0x4c8>
     ba8:	080ccc93          	xori	s9,s9,128
     bac:	019c0523          	sb	s9,10(s8)
     bb0:	00001cb7          	lui	s9,0x1
     bb4:	41940cb3          	sub	s9,s0,s9
     bb8:	668cbc83          	ld	s9,1640(s9) # 1668 <.LBB67_4+0x4f8>
     bbc:	080ccc93          	xori	s9,s9,128
     bc0:	019c05a3          	sb	s9,11(s8)
     bc4:	00001cb7          	lui	s9,0x1
     bc8:	41940cb3          	sub	s9,s0,s9
     bcc:	678cbc83          	ld	s9,1656(s9) # 1678 <.LBB67_4+0x508>
     bd0:	080ccc93          	xori	s9,s9,128
     bd4:	019c0623          	sb	s9,12(s8)
     bd8:	00001cb7          	lui	s9,0x1
     bdc:	41940cb3          	sub	s9,s0,s9
     be0:	680cbc83          	ld	s9,1664(s9) # 1680 <.LBB67_4+0x510>
     be4:	080ccc93          	xori	s9,s9,128
     be8:	019c06a3          	sb	s9,13(s8)
     bec:	b1043c83          	ld	s9,-1264(s0)
     bf0:	080ccc93          	xori	s9,s9,128
     bf4:	019c0723          	sb	s9,14(s8)
     bf8:	00001cb7          	lui	s9,0x1
     bfc:	41940cb3          	sub	s9,s0,s9
     c00:	6a0cbc83          	ld	s9,1696(s9) # 16a0 <.LBB67_4+0x530>
     c04:	080ccc93          	xori	s9,s9,128
     c08:	019c07a3          	sb	s9,15(s8)
     c0c:	b2043c83          	ld	s9,-1248(s0)
     c10:	080ccc93          	xori	s9,s9,128
     c14:	019c0823          	sb	s9,16(s8)
     c18:	00001cb7          	lui	s9,0x1
     c1c:	41940cb3          	sub	s9,s0,s9
     c20:	788cbc83          	ld	s9,1928(s9) # 1788 <.LBB67_5+0x94>
     c24:	080ccc93          	xori	s9,s9,128
     c28:	019c08a3          	sb	s9,17(s8)
     c2c:	00001cb7          	lui	s9,0x1
     c30:	41940cb3          	sub	s9,s0,s9
     c34:	7a0cbc83          	ld	s9,1952(s9) # 17a0 <.LBB67_5+0xac>
     c38:	080ccc93          	xori	s9,s9,128
     c3c:	019c0923          	sb	s9,18(s8)
     c40:	00001cb7          	lui	s9,0x1
     c44:	41940cb3          	sub	s9,s0,s9
     c48:	7b8cbc83          	ld	s9,1976(s9) # 17b8 <.LBB67_5+0xc4>
     c4c:	080ccc93          	xori	s9,s9,128
     c50:	019c09a3          	sb	s9,19(s8)
     c54:	00001cb7          	lui	s9,0x1
     c58:	41940cb3          	sub	s9,s0,s9
     c5c:	7c8cbc83          	ld	s9,1992(s9) # 17c8 <.LBB67_5+0xd4>
     c60:	080ccc93          	xori	s9,s9,128
     c64:	019c0a23          	sb	s9,20(s8)
     c68:	00001cb7          	lui	s9,0x1
     c6c:	41940cb3          	sub	s9,s0,s9
     c70:	7d8cbc83          	ld	s9,2008(s9) # 17d8 <.LBB67_5+0xe4>
     c74:	080ccc93          	xori	s9,s9,128
     c78:	019c0aa3          	sb	s9,21(s8)
     c7c:	b5043c83          	ld	s9,-1200(s0)
     c80:	080ccc93          	xori	s9,s9,128
     c84:	019c0b23          	sb	s9,22(s8)
     c88:	00001cb7          	lui	s9,0x1
     c8c:	41940cb3          	sub	s9,s0,s9
     c90:	7f8cbc83          	ld	s9,2040(s9) # 17f8 <.LBB67_5+0x104>
     c94:	080ccc93          	xori	s9,s9,128
     c98:	019c0ba3          	sb	s9,23(s8)
     c9c:	80843c83          	ld	s9,-2040(s0)
     ca0:	080ccc93          	xori	s9,s9,128
     ca4:	019c0c23          	sb	s9,24(s8)
     ca8:	81843c83          	ld	s9,-2024(s0)
     cac:	080ccc93          	xori	s9,s9,128
     cb0:	019c0ca3          	sb	s9,25(s8)
     cb4:	82843c83          	ld	s9,-2008(s0)
     cb8:	080ccc93          	xori	s9,s9,128
     cbc:	019c0d23          	sb	s9,26(s8)
     cc0:	84043c83          	ld	s9,-1984(s0)
     cc4:	080ccc93          	xori	s9,s9,128
     cc8:	019c0da3          	sb	s9,27(s8)
     ccc:	85043c83          	ld	s9,-1968(s0)
     cd0:	080ccc93          	xori	s9,s9,128
     cd4:	019c0e23          	sb	s9,28(s8)
     cd8:	86043c83          	ld	s9,-1952(s0)
     cdc:	080ccc93          	xori	s9,s9,128
     ce0:	019c0ea3          	sb	s9,29(s8)
     ce4:	87843c83          	ld	s9,-1928(s0)
     ce8:	080ccc93          	xori	s9,s9,128
     cec:	019c0f23          	sb	s9,30(s8)
     cf0:	89043c83          	ld	s9,-1904(s0)
     cf4:	080ccc93          	xori	s9,s9,128
     cf8:	019c0fa3          	sb	s9,31(s8)
     cfc:	89843c03          	ld	s8,-1896(s0)
     d00:	080c4c93          	xori	s9,s8,128
     d04:	00001c37          	lui	s8,0x1
     d08:	41840c33          	sub	s8,s0,s8
     d0c:	d40c3c03          	ld	s8,-704(s8) # d40 <.LBB67_3+0xb2c>
     d10:	01ac0c33          	add	s8,s8,s10
     d14:	019c01a3          	sb	s9,3(s8)
     d18:	8a843c83          	ld	s9,-1880(s0)
     d1c:	080ccc93          	xori	s9,s9,128
     d20:	019c0123          	sb	s9,2(s8)
     d24:	8b843c83          	ld	s9,-1864(s0)
     d28:	080ccc93          	xori	s9,s9,128
     d2c:	019c00a3          	sb	s9,1(s8)
     d30:	8d043c83          	ld	s9,-1840(s0)
     d34:	080ccc93          	xori	s9,s9,128
     d38:	019c0023          	sb	s9,0(s8)
     d3c:	8e043c83          	ld	s9,-1824(s0)
     d40:	080ccc93          	xori	s9,s9,128
     d44:	019c0223          	sb	s9,4(s8)
     d48:	8f043c83          	ld	s9,-1808(s0)
     d4c:	080ccc93          	xori	s9,s9,128
     d50:	019c02a3          	sb	s9,5(s8)
     d54:	90843c83          	ld	s9,-1784(s0)
     d58:	080ccc93          	xori	s9,s9,128
     d5c:	019c0323          	sb	s9,6(s8)
     d60:	91843c83          	ld	s9,-1768(s0)
     d64:	080ccc93          	xori	s9,s9,128
     d68:	019c03a3          	sb	s9,7(s8)
     d6c:	92843c83          	ld	s9,-1752(s0)
     d70:	080ccc93          	xori	s9,s9,128
     d74:	019c0423          	sb	s9,8(s8)
     d78:	be843c83          	ld	s9,-1048(s0)
     d7c:	080ccc93          	xori	s9,s9,128
     d80:	019c04a3          	sb	s9,9(s8)
     d84:	94843c83          	ld	s9,-1720(s0)
     d88:	080ccc93          	xori	s9,s9,128
     d8c:	019c0523          	sb	s9,10(s8)
     d90:	95843c83          	ld	s9,-1704(s0)
     d94:	080ccc93          	xori	s9,s9,128
     d98:	019c05a3          	sb	s9,11(s8)
     d9c:	96843c83          	ld	s9,-1688(s0)
     da0:	080ccc93          	xori	s9,s9,128
     da4:	019c0623          	sb	s9,12(s8)
     da8:	97843c83          	ld	s9,-1672(s0)
     dac:	080ccc93          	xori	s9,s9,128
     db0:	019c06a3          	sb	s9,13(s8)
     db4:	99043c83          	ld	s9,-1648(s0)
     db8:	080ccc93          	xori	s9,s9,128
     dbc:	019c0723          	sb	s9,14(s8)
     dc0:	9a043c83          	ld	s9,-1632(s0)
     dc4:	080ccc93          	xori	s9,s9,128
     dc8:	019c07a3          	sb	s9,15(s8)
     dcc:	9b043c83          	ld	s9,-1616(s0)
     dd0:	080ccc93          	xori	s9,s9,128
     dd4:	019c0823          	sb	s9,16(s8)
     dd8:	9c843c83          	ld	s9,-1592(s0)
     ddc:	080ccc93          	xori	s9,s9,128
     de0:	019c08a3          	sb	s9,17(s8)
     de4:	9d843c83          	ld	s9,-1576(s0)
     de8:	080ccc93          	xori	s9,s9,128
     dec:	019c0923          	sb	s9,18(s8)
     df0:	9e843c83          	ld	s9,-1560(s0)
     df4:	080ccc93          	xori	s9,s9,128
     df8:	019c09a3          	sb	s9,19(s8)
     dfc:	9f843c83          	ld	s9,-1544(s0)
     e00:	080ccc93          	xori	s9,s9,128
     e04:	019c0a23          	sb	s9,20(s8)
     e08:	a1043c83          	ld	s9,-1520(s0)
     e0c:	080ccc93          	xori	s9,s9,128
     e10:	019c0aa3          	sb	s9,21(s8)
     e14:	a2043c83          	ld	s9,-1504(s0)
     e18:	080ccc93          	xori	s9,s9,128
     e1c:	019c0b23          	sb	s9,22(s8)
     e20:	a3043c83          	ld	s9,-1488(s0)
     e24:	080ccc93          	xori	s9,s9,128
     e28:	019c0ba3          	sb	s9,23(s8)
     e2c:	a4043c83          	ld	s9,-1472(s0)
     e30:	080ccc93          	xori	s9,s9,128
     e34:	019c0c23          	sb	s9,24(s8)
     e38:	a5843c83          	ld	s9,-1448(s0)
     e3c:	080ccc93          	xori	s9,s9,128
     e40:	019c0ca3          	sb	s9,25(s8)
     e44:	a6843c83          	ld	s9,-1432(s0)
     e48:	080ccc93          	xori	s9,s9,128
     e4c:	019c0d23          	sb	s9,26(s8)
     e50:	a7843c83          	ld	s9,-1416(s0)
     e54:	080ccc93          	xori	s9,s9,128
     e58:	019c0da3          	sb	s9,27(s8)
     e5c:	a9043c83          	ld	s9,-1392(s0)
     e60:	080ccc93          	xori	s9,s9,128
     e64:	019c0e23          	sb	s9,28(s8)
     e68:	aa043c83          	ld	s9,-1376(s0)
     e6c:	080ccc93          	xori	s9,s9,128
     e70:	019c0ea3          	sb	s9,29(s8)
     e74:	ab043c83          	ld	s9,-1360(s0)
     e78:	080ccc93          	xori	s9,s9,128
     e7c:	019c0f23          	sb	s9,30(s8)
     e80:	ac843c83          	ld	s9,-1336(s0)
     e84:	080ccc93          	xori	s9,s9,128
     e88:	019c0fa3          	sb	s9,31(s8)
     e8c:	ad043c03          	ld	s8,-1328(s0)
     e90:	080c4c93          	xori	s9,s8,128
     e94:	00001c37          	lui	s8,0x1
     e98:	41840c33          	sub	s8,s0,s8
     e9c:	d38c3c03          	ld	s8,-712(s8) # d38 <.LBB67_3+0xb24>
     ea0:	01ac0c33          	add	s8,s8,s10
     ea4:	019c01a3          	sb	s9,3(s8)
     ea8:	ae843c83          	ld	s9,-1304(s0)
     eac:	080ccc93          	xori	s9,s9,128
     eb0:	019c0123          	sb	s9,2(s8)
     eb4:	af843c83          	ld	s9,-1288(s0)
     eb8:	080ccc93          	xori	s9,s9,128
     ebc:	019c00a3          	sb	s9,1(s8)
     ec0:	b0843c83          	ld	s9,-1272(s0)
     ec4:	080ccc93          	xori	s9,s9,128
     ec8:	019c0023          	sb	s9,0(s8)
     ecc:	b3043c83          	ld	s9,-1232(s0)
     ed0:	080ccc93          	xori	s9,s9,128
     ed4:	019c0223          	sb	s9,4(s8)
     ed8:	b4043c83          	ld	s9,-1216(s0)
     edc:	080ccc93          	xori	s9,s9,128
     ee0:	019c02a3          	sb	s9,5(s8)
     ee4:	b5843c83          	ld	s9,-1192(s0)
     ee8:	080ccc93          	xori	s9,s9,128
     eec:	019c0323          	sb	s9,6(s8)
     ef0:	b6843c83          	ld	s9,-1176(s0)
     ef4:	080ccc93          	xori	s9,s9,128
     ef8:	019c03a3          	sb	s9,7(s8)
     efc:	b8043c83          	ld	s9,-1152(s0)
     f00:	080ccc93          	xori	s9,s9,128
     f04:	019c0423          	sb	s9,8(s8)
     f08:	b9043c83          	ld	s9,-1136(s0)
     f0c:	080ccc93          	xori	s9,s9,128
     f10:	019c04a3          	sb	s9,9(s8)
     f14:	ba043c83          	ld	s9,-1120(s0)
     f18:	080ccc93          	xori	s9,s9,128
     f1c:	019c0523          	sb	s9,10(s8)
     f20:	bb043c83          	ld	s9,-1104(s0)
     f24:	080ccc93          	xori	s9,s9,128
     f28:	019c05a3          	sb	s9,11(s8)
     f2c:	bc843c83          	ld	s9,-1080(s0)
     f30:	080ccc93          	xori	s9,s9,128
     f34:	019c0623          	sb	s9,12(s8)
     f38:	bd843c83          	ld	s9,-1064(s0)
     f3c:	080ccc93          	xori	s9,s9,128
     f40:	019c06a3          	sb	s9,13(s8)
     f44:	bf043c83          	ld	s9,-1040(s0)
     f48:	080ccc93          	xori	s9,s9,128
     f4c:	019c0723          	sb	s9,14(s8)
     f50:	c0843c83          	ld	s9,-1016(s0)
     f54:	080ccc93          	xori	s9,s9,128
     f58:	019c07a3          	sb	s9,15(s8)
     f5c:	c1843c83          	ld	s9,-1000(s0)
     f60:	080ccc93          	xori	s9,s9,128
     f64:	019c0823          	sb	s9,16(s8)
     f68:	c2843c83          	ld	s9,-984(s0)
     f6c:	080ccc93          	xori	s9,s9,128
     f70:	019c08a3          	sb	s9,17(s8)
     f74:	c3843c83          	ld	s9,-968(s0)
     f78:	080ccc93          	xori	s9,s9,128
     f7c:	019c0923          	sb	s9,18(s8)
     f80:	c5043c83          	ld	s9,-944(s0)
     f84:	080ccc93          	xori	s9,s9,128
     f88:	019c09a3          	sb	s9,19(s8)
     f8c:	c6043c83          	ld	s9,-928(s0)
     f90:	080ccc93          	xori	s9,s9,128
     f94:	019c0a23          	sb	s9,20(s8)
     f98:	c7043c83          	ld	s9,-912(s0)
     f9c:	080ccc93          	xori	s9,s9,128
     fa0:	019c0aa3          	sb	s9,21(s8)
     fa4:	c8043c83          	ld	s9,-896(s0)
     fa8:	080ccc93          	xori	s9,s9,128
     fac:	019c0b23          	sb	s9,22(s8)
     fb0:	c9043c83          	ld	s9,-880(s0)
     fb4:	080ccc93          	xori	s9,s9,128
     fb8:	019c0ba3          	sb	s9,23(s8)
     fbc:	ca043c83          	ld	s9,-864(s0)
     fc0:	080ccc93          	xori	s9,s9,128
     fc4:	019c0c23          	sb	s9,24(s8)
     fc8:	cb043c83          	ld	s9,-848(s0)
     fcc:	080ccc93          	xori	s9,s9,128
     fd0:	019c0ca3          	sb	s9,25(s8)
     fd4:	cc043c83          	ld	s9,-832(s0)
     fd8:	080ccc93          	xori	s9,s9,128
     fdc:	019c0d23          	sb	s9,26(s8)
     fe0:	cd043c83          	ld	s9,-816(s0)
     fe4:	080ccc93          	xori	s9,s9,128
     fe8:	019c0da3          	sb	s9,27(s8)
     fec:	ce043c83          	ld	s9,-800(s0)
     ff0:	080ccc93          	xori	s9,s9,128
     ff4:	019c0e23          	sb	s9,28(s8)
     ff8:	cf043c83          	ld	s9,-784(s0)
     ffc:	080ccc93          	xori	s9,s9,128
    1000:	019c0ea3          	sb	s9,29(s8)
    1004:	d0043c83          	ld	s9,-768(s0)
    1008:	080ccc93          	xori	s9,s9,128
    100c:	019c0f23          	sb	s9,30(s8)
    1010:	d1843c83          	ld	s9,-744(s0)
    1014:	080ccc93          	xori	s9,s9,128
    1018:	019c0fa3          	sb	s9,31(s8)
    101c:	d2043c03          	ld	s8,-736(s0)
    1020:	080c4c93          	xori	s9,s8,128
    1024:	00001c37          	lui	s8,0x1
    1028:	41840c33          	sub	s8,s0,s8
    102c:	d30c3c03          	ld	s8,-720(s8) # d30 <.LBB67_3+0xb1c>
    1030:	01ac0c33          	add	s8,s8,s10
    1034:	019c01a3          	sb	s9,3(s8)
    1038:	d3043c83          	ld	s9,-720(s0)
    103c:	080ccc93          	xori	s9,s9,128
    1040:	019c0123          	sb	s9,2(s8)
    1044:	d4043c83          	ld	s9,-704(s0)
    1048:	080ccc93          	xori	s9,s9,128
    104c:	019c00a3          	sb	s9,1(s8)
    1050:	d5043c83          	ld	s9,-688(s0)
    1054:	080ccc93          	xori	s9,s9,128
    1058:	019c0023          	sb	s9,0(s8)
    105c:	d6043c83          	ld	s9,-672(s0)
    1060:	080ccc93          	xori	s9,s9,128
    1064:	019c0223          	sb	s9,4(s8)
    1068:	e9043c83          	ld	s9,-368(s0)
    106c:	080ccc93          	xori	s9,s9,128
    1070:	019c02a3          	sb	s9,5(s8)
    1074:	d7843c83          	ld	s9,-648(s0)
    1078:	080ccc93          	xori	s9,s9,128
    107c:	019c0323          	sb	s9,6(s8)
    1080:	d8843c83          	ld	s9,-632(s0)
    1084:	080ccc93          	xori	s9,s9,128
    1088:	019c03a3          	sb	s9,7(s8)
    108c:	d9043c83          	ld	s9,-624(s0)
    1090:	080ccc93          	xori	s9,s9,128
    1094:	019c0423          	sb	s9,8(s8)
    1098:	080dcc93          	xori	s9,s11,128
    109c:	019c04a3          	sb	s9,9(s8)
    10a0:	08054513          	xori	a0,a0,128
    10a4:	00ac0523          	sb	a0,10(s8)
    10a8:	0805c513          	xori	a0,a1,128
    10ac:	00ac05a3          	sb	a0,11(s8)
    10b0:	08064513          	xori	a0,a2,128
    10b4:	00ac0623          	sb	a0,12(s8)
    10b8:	0806c513          	xori	a0,a3,128
    10bc:	00ac06a3          	sb	a0,13(s8)
    10c0:	08074513          	xori	a0,a4,128
    10c4:	00ac0723          	sb	a0,14(s8)
    10c8:	0807c513          	xori	a0,a5,128
    10cc:	00ac07a3          	sb	a0,15(s8)
    10d0:	08084513          	xori	a0,a6,128
    10d4:	00ac0823          	sb	a0,16(s8)
    10d8:	0808c513          	xori	a0,a7,128
    10dc:	00ac08a3          	sb	a0,17(s8)
    10e0:	0802c513          	xori	a0,t0,128
    10e4:	00ac0923          	sb	a0,18(s8)
    10e8:	08034513          	xori	a0,t1,128
    10ec:	00ac09a3          	sb	a0,19(s8)
    10f0:	0803c513          	xori	a0,t2,128
    10f4:	00ac0a23          	sb	a0,20(s8)
    10f8:	080e4513          	xori	a0,t3,128
    10fc:	00ac0aa3          	sb	a0,21(s8)
    1100:	080ec513          	xori	a0,t4,128
    1104:	00ac0b23          	sb	a0,22(s8)
    1108:	080f4513          	xori	a0,t5,128
    110c:	00ac0ba3          	sb	a0,23(s8)
    1110:	080fc513          	xori	a0,t6,128
    1114:	00ac0c23          	sb	a0,24(s8)
    1118:	0804c513          	xori	a0,s1,128
    111c:	00ac0ca3          	sb	a0,25(s8)
    1120:	08094513          	xori	a0,s2,128
    1124:	00ac0d23          	sb	a0,26(s8)
    1128:	0809c513          	xori	a0,s3,128
    112c:	00ac0da3          	sb	a0,27(s8)
    1130:	080a4513          	xori	a0,s4,128
    1134:	00ac0e23          	sb	a0,28(s8)
    1138:	080ac513          	xori	a0,s5,128
    113c:	00ac0ea3          	sb	a0,29(s8)
    1140:	080b4513          	xori	a0,s6,128
    1144:	00ac0f23          	sb	a0,30(s8)
    1148:	080bc513          	xori	a0,s7,128
    114c:	00ac0fa3          	sb	a0,31(s8)
    1150:	020d0593          	addi	a1,s10,32
    1154:	00001537          	lui	a0,0x1
    1158:	40a40533          	sub	a0,s0,a0
    115c:	64853383          	ld	t2,1608(a0) # 1648 <.LBB67_4+0x4d8>
    1160:	02038393          	addi	t2,t2,32
    1164:	16000513          	li	a0,352
    1168:	00ad6463          	bltu	s10,a0,1170 <.LBB67_4>
    116c:	f95fe06f          	j	100 <.LBB67_1>

0000000000001170 <.LBB67_4>:
    1170:	00001537          	lui	a0,0x1
    1174:	40a40533          	sub	a0,s0,a0
    1178:	66b53023          	sd	a1,1632(a0) # 1660 <.LBB67_4+0x4f0>
    117c:	00006fb7          	lui	t6,0x6
    1180:	00001537          	lui	a0,0x1
    1184:	40a40533          	sub	a0,s0,a0
    1188:	d8053483          	ld	s1,-640(a0) # d80 <.LBB67_3+0xb6c>
    118c:	00001537          	lui	a0,0x1
    1190:	40a40533          	sub	a0,s0,a0
    1194:	64753423          	sd	t2,1608(a0) # 1648 <.LBB67_4+0x4d8>
    1198:	00038a13          	mv	s4,t2
    119c:	00001537          	lui	a0,0x1
    11a0:	40a40533          	sub	a0,s0,a0
    11a4:	6e053423          	sd	zero,1768(a0) # 16e8 <.LBB67_4+0x578>
    11a8:	00001537          	lui	a0,0x1
    11ac:	40a40533          	sub	a0,s0,a0
    11b0:	6c053c23          	sd	zero,1752(a0) # 16d8 <.LBB67_4+0x568>
    11b4:	00001537          	lui	a0,0x1
    11b8:	40a40533          	sub	a0,s0,a0
    11bc:	6c053823          	sd	zero,1744(a0) # 16d0 <.LBB67_4+0x560>
    11c0:	00001537          	lui	a0,0x1
    11c4:	40a40533          	sub	a0,s0,a0
    11c8:	6e053023          	sd	zero,1760(a0) # 16e0 <.LBB67_4+0x570>
    11cc:	00001537          	lui	a0,0x1
    11d0:	40a40533          	sub	a0,s0,a0
    11d4:	6c053423          	sd	zero,1736(a0) # 16c8 <.LBB67_4+0x558>
    11d8:	00001537          	lui	a0,0x1
    11dc:	40a40533          	sub	a0,s0,a0
    11e0:	6c053023          	sd	zero,1728(a0) # 16c0 <.LBB67_4+0x550>
    11e4:	00001537          	lui	a0,0x1
    11e8:	40a40533          	sub	a0,s0,a0
    11ec:	6a053c23          	sd	zero,1720(a0) # 16b8 <.LBB67_4+0x548>
    11f0:	00001537          	lui	a0,0x1
    11f4:	40a40533          	sub	a0,s0,a0
    11f8:	6a053823          	sd	zero,1712(a0) # 16b0 <.LBB67_4+0x540>
    11fc:	00001537          	lui	a0,0x1
    1200:	40a40533          	sub	a0,s0,a0
    1204:	6a053423          	sd	zero,1704(a0) # 16a8 <.LBB67_4+0x538>
    1208:	00001537          	lui	a0,0x1
    120c:	40a40533          	sub	a0,s0,a0
    1210:	6e053823          	sd	zero,1776(a0) # 16f0 <.LBB67_4+0x580>
    1214:	00001537          	lui	a0,0x1
    1218:	40a40533          	sub	a0,s0,a0
    121c:	6e053c23          	sd	zero,1784(a0) # 16f8 <.LBB67_5+0x4>
    1220:	00001537          	lui	a0,0x1
    1224:	40a40533          	sub	a0,s0,a0
    1228:	70053023          	sd	zero,1792(a0) # 1700 <.LBB67_5+0xc>
    122c:	00001537          	lui	a0,0x1
    1230:	40a40533          	sub	a0,s0,a0
    1234:	70053423          	sd	zero,1800(a0) # 1708 <.LBB67_5+0x14>
    1238:	00001537          	lui	a0,0x1
    123c:	40a40533          	sub	a0,s0,a0
    1240:	70053823          	sd	zero,1808(a0) # 1710 <.LBB67_5+0x1c>
    1244:	00001537          	lui	a0,0x1
    1248:	40a40533          	sub	a0,s0,a0
    124c:	70053c23          	sd	zero,1816(a0) # 1718 <.LBB67_5+0x24>
    1250:	00001537          	lui	a0,0x1
    1254:	40a40533          	sub	a0,s0,a0
    1258:	72053023          	sd	zero,1824(a0) # 1720 <.LBB67_5+0x2c>
    125c:	00001537          	lui	a0,0x1
    1260:	40a40533          	sub	a0,s0,a0
    1264:	72053423          	sd	zero,1832(a0) # 1728 <.LBB67_5+0x34>
    1268:	00001537          	lui	a0,0x1
    126c:	40a40533          	sub	a0,s0,a0
    1270:	72053823          	sd	zero,1840(a0) # 1730 <.LBB67_5+0x3c>
    1274:	00001537          	lui	a0,0x1
    1278:	40a40533          	sub	a0,s0,a0
    127c:	72053c23          	sd	zero,1848(a0) # 1738 <.LBB67_5+0x44>
    1280:	00001537          	lui	a0,0x1
    1284:	40a40533          	sub	a0,s0,a0
    1288:	74053023          	sd	zero,1856(a0) # 1740 <.LBB67_5+0x4c>
    128c:	00001537          	lui	a0,0x1
    1290:	40a40533          	sub	a0,s0,a0
    1294:	74053423          	sd	zero,1864(a0) # 1748 <.LBB67_5+0x54>
    1298:	00001537          	lui	a0,0x1
    129c:	40a40533          	sub	a0,s0,a0
    12a0:	74053823          	sd	zero,1872(a0) # 1750 <.LBB67_5+0x5c>
    12a4:	00001537          	lui	a0,0x1
    12a8:	40a40533          	sub	a0,s0,a0
    12ac:	74053c23          	sd	zero,1880(a0) # 1758 <.LBB67_5+0x64>
    12b0:	00001537          	lui	a0,0x1
    12b4:	40a40533          	sub	a0,s0,a0
    12b8:	76053023          	sd	zero,1888(a0) # 1760 <.LBB67_5+0x6c>
    12bc:	00001537          	lui	a0,0x1
    12c0:	40a40533          	sub	a0,s0,a0
    12c4:	76053423          	sd	zero,1896(a0) # 1768 <.LBB67_5+0x74>
    12c8:	00001537          	lui	a0,0x1
    12cc:	40a40533          	sub	a0,s0,a0
    12d0:	76053823          	sd	zero,1904(a0) # 1770 <.LBB67_5+0x7c>
    12d4:	00001537          	lui	a0,0x1
    12d8:	40a40533          	sub	a0,s0,a0
    12dc:	76053c23          	sd	zero,1912(a0) # 1778 <.LBB67_5+0x84>
    12e0:	00001537          	lui	a0,0x1
    12e4:	40a40533          	sub	a0,s0,a0
    12e8:	78053023          	sd	zero,1920(a0) # 1780 <.LBB67_5+0x8c>
    12ec:	00001537          	lui	a0,0x1
    12f0:	40a40533          	sub	a0,s0,a0
    12f4:	78053423          	sd	zero,1928(a0) # 1788 <.LBB67_5+0x94>
    12f8:	00000d93          	li	s11,0
    12fc:	00001537          	lui	a0,0x1
    1300:	40a40533          	sub	a0,s0,a0
    1304:	78053823          	sd	zero,1936(a0) # 1790 <.LBB67_5+0x9c>
    1308:	00001537          	lui	a0,0x1
    130c:	40a40533          	sub	a0,s0,a0
    1310:	78053c23          	sd	zero,1944(a0) # 1798 <.LBB67_5+0xa4>
    1314:	00001537          	lui	a0,0x1
    1318:	40a40533          	sub	a0,s0,a0
    131c:	7a053c23          	sd	zero,1976(a0) # 17b8 <.LBB67_5+0xc4>
    1320:	00001537          	lui	a0,0x1
    1324:	40a40533          	sub	a0,s0,a0
    1328:	7a053823          	sd	zero,1968(a0) # 17b0 <.LBB67_5+0xbc>
    132c:	00001537          	lui	a0,0x1
    1330:	40a40533          	sub	a0,s0,a0
    1334:	7a053423          	sd	zero,1960(a0) # 17a8 <.LBB67_5+0xb4>
    1338:	00001537          	lui	a0,0x1
    133c:	40a40533          	sub	a0,s0,a0
    1340:	7a053023          	sd	zero,1952(a0) # 17a0 <.LBB67_5+0xac>
    1344:	00001537          	lui	a0,0x1
    1348:	40a40533          	sub	a0,s0,a0
    134c:	7c053023          	sd	zero,1984(a0) # 17c0 <.LBB67_5+0xcc>
    1350:	00001537          	lui	a0,0x1
    1354:	40a40533          	sub	a0,s0,a0
    1358:	7c053423          	sd	zero,1992(a0) # 17c8 <.LBB67_5+0xd4>
    135c:	00001537          	lui	a0,0x1
    1360:	40a40533          	sub	a0,s0,a0
    1364:	7c053823          	sd	zero,2000(a0) # 17d0 <.LBB67_5+0xdc>
    1368:	00001537          	lui	a0,0x1
    136c:	40a40533          	sub	a0,s0,a0
    1370:	7c053c23          	sd	zero,2008(a0) # 17d8 <.LBB67_5+0xe4>
    1374:	00001537          	lui	a0,0x1
    1378:	40a40533          	sub	a0,s0,a0
    137c:	7e053023          	sd	zero,2016(a0) # 17e0 <.LBB67_5+0xec>
    1380:	00001537          	lui	a0,0x1
    1384:	40a40533          	sub	a0,s0,a0
    1388:	7e053423          	sd	zero,2024(a0) # 17e8 <.LBB67_5+0xf4>
    138c:	00001537          	lui	a0,0x1
    1390:	40a40533          	sub	a0,s0,a0
    1394:	7e053823          	sd	zero,2032(a0) # 17f0 <.LBB67_5+0xfc>
    1398:	00001537          	lui	a0,0x1
    139c:	40a40533          	sub	a0,s0,a0
    13a0:	7e053c23          	sd	zero,2040(a0) # 17f8 <.LBB67_5+0x104>
    13a4:	80043023          	sd	zero,-2048(s0)
    13a8:	80043423          	sd	zero,-2040(s0)
    13ac:	80043823          	sd	zero,-2032(s0)
    13b0:	80043c23          	sd	zero,-2024(s0)
    13b4:	82043023          	sd	zero,-2016(s0)
    13b8:	82043423          	sd	zero,-2008(s0)
    13bc:	82043823          	sd	zero,-2000(s0)
    13c0:	82043c23          	sd	zero,-1992(s0)
    13c4:	84043023          	sd	zero,-1984(s0)
    13c8:	84043423          	sd	zero,-1976(s0)
    13cc:	84043823          	sd	zero,-1968(s0)
    13d0:	84043c23          	sd	zero,-1960(s0)
    13d4:	86043023          	sd	zero,-1952(s0)
    13d8:	86043423          	sd	zero,-1944(s0)
    13dc:	86043823          	sd	zero,-1936(s0)
    13e0:	86043c23          	sd	zero,-1928(s0)
    13e4:	88043023          	sd	zero,-1920(s0)
    13e8:	88043423          	sd	zero,-1912(s0)
    13ec:	88043823          	sd	zero,-1904(s0)
    13f0:	88043c23          	sd	zero,-1896(s0)
    13f4:	8a043c23          	sd	zero,-1864(s0)
    13f8:	8a043823          	sd	zero,-1872(s0)
    13fc:	8a043423          	sd	zero,-1880(s0)
    1400:	8a043023          	sd	zero,-1888(s0)
    1404:	8c043023          	sd	zero,-1856(s0)
    1408:	8c043423          	sd	zero,-1848(s0)
    140c:	8c043823          	sd	zero,-1840(s0)
    1410:	8c043c23          	sd	zero,-1832(s0)
    1414:	8e043023          	sd	zero,-1824(s0)
    1418:	8e043423          	sd	zero,-1816(s0)
    141c:	8e043823          	sd	zero,-1808(s0)
    1420:	8e043c23          	sd	zero,-1800(s0)
    1424:	90043023          	sd	zero,-1792(s0)
    1428:	90043423          	sd	zero,-1784(s0)
    142c:	90043823          	sd	zero,-1776(s0)
    1430:	90043c23          	sd	zero,-1768(s0)
    1434:	92043023          	sd	zero,-1760(s0)
    1438:	92043423          	sd	zero,-1752(s0)
    143c:	92043823          	sd	zero,-1744(s0)
    1440:	92043c23          	sd	zero,-1736(s0)
    1444:	94043023          	sd	zero,-1728(s0)
    1448:	94043423          	sd	zero,-1720(s0)
    144c:	94043823          	sd	zero,-1712(s0)
    1450:	94043c23          	sd	zero,-1704(s0)
    1454:	96043023          	sd	zero,-1696(s0)
    1458:	96043423          	sd	zero,-1688(s0)
    145c:	96043823          	sd	zero,-1680(s0)
    1460:	96043c23          	sd	zero,-1672(s0)
    1464:	98043023          	sd	zero,-1664(s0)
    1468:	98043423          	sd	zero,-1656(s0)
    146c:	98043823          	sd	zero,-1648(s0)
    1470:	98043c23          	sd	zero,-1640(s0)
    1474:	9a043c23          	sd	zero,-1608(s0)
    1478:	9a043823          	sd	zero,-1616(s0)
    147c:	9a043423          	sd	zero,-1624(s0)
    1480:	9a043023          	sd	zero,-1632(s0)
    1484:	9c043023          	sd	zero,-1600(s0)
    1488:	9c043423          	sd	zero,-1592(s0)
    148c:	9c043823          	sd	zero,-1584(s0)
    1490:	9c043c23          	sd	zero,-1576(s0)
    1494:	9e043023          	sd	zero,-1568(s0)
    1498:	9e043423          	sd	zero,-1560(s0)
    149c:	9e043823          	sd	zero,-1552(s0)
    14a0:	9e043c23          	sd	zero,-1544(s0)
    14a4:	a0043023          	sd	zero,-1536(s0)
    14a8:	a0043423          	sd	zero,-1528(s0)
    14ac:	a0043823          	sd	zero,-1520(s0)
    14b0:	a0043c23          	sd	zero,-1512(s0)
    14b4:	a2043023          	sd	zero,-1504(s0)
    14b8:	a2043423          	sd	zero,-1496(s0)
    14bc:	a2043823          	sd	zero,-1488(s0)
    14c0:	a2043c23          	sd	zero,-1480(s0)
    14c4:	a4043023          	sd	zero,-1472(s0)
    14c8:	a4043423          	sd	zero,-1464(s0)
    14cc:	a4043823          	sd	zero,-1456(s0)
    14d0:	a4043c23          	sd	zero,-1448(s0)
    14d4:	a6043023          	sd	zero,-1440(s0)
    14d8:	a6043423          	sd	zero,-1432(s0)
    14dc:	a6043823          	sd	zero,-1424(s0)
    14e0:	a6043c23          	sd	zero,-1416(s0)
    14e4:	a8043023          	sd	zero,-1408(s0)
    14e8:	a8043423          	sd	zero,-1400(s0)
    14ec:	a8043823          	sd	zero,-1392(s0)
    14f0:	a8043c23          	sd	zero,-1384(s0)
    14f4:	aa043c23          	sd	zero,-1352(s0)
    14f8:	aa043823          	sd	zero,-1360(s0)
    14fc:	aa043423          	sd	zero,-1368(s0)
    1500:	aa043023          	sd	zero,-1376(s0)
    1504:	ac043023          	sd	zero,-1344(s0)
    1508:	ac043423          	sd	zero,-1336(s0)
    150c:	ac043823          	sd	zero,-1328(s0)
    1510:	ac043c23          	sd	zero,-1320(s0)
    1514:	ae043023          	sd	zero,-1312(s0)
    1518:	ae043423          	sd	zero,-1304(s0)
    151c:	ae043823          	sd	zero,-1296(s0)
    1520:	ae043c23          	sd	zero,-1288(s0)
    1524:	b0043023          	sd	zero,-1280(s0)
    1528:	b0043423          	sd	zero,-1272(s0)
    152c:	b0043823          	sd	zero,-1264(s0)
    1530:	b0043c23          	sd	zero,-1256(s0)
    1534:	b2043023          	sd	zero,-1248(s0)
    1538:	b2043423          	sd	zero,-1240(s0)
    153c:	b2043823          	sd	zero,-1232(s0)
    1540:	b2043c23          	sd	zero,-1224(s0)
    1544:	b4043023          	sd	zero,-1216(s0)
    1548:	b4043423          	sd	zero,-1208(s0)
    154c:	b4043823          	sd	zero,-1200(s0)
    1550:	b4043c23          	sd	zero,-1192(s0)
    1554:	b6043023          	sd	zero,-1184(s0)
    1558:	b6043423          	sd	zero,-1176(s0)
    155c:	b6043823          	sd	zero,-1168(s0)
    1560:	b6043c23          	sd	zero,-1160(s0)
    1564:	b8043023          	sd	zero,-1152(s0)
    1568:	b8043423          	sd	zero,-1144(s0)
    156c:	b8043823          	sd	zero,-1136(s0)
    1570:	b8043c23          	sd	zero,-1128(s0)
    1574:	ba043c23          	sd	zero,-1096(s0)
    1578:	ba043823          	sd	zero,-1104(s0)
    157c:	ba043423          	sd	zero,-1112(s0)
    1580:	ba043023          	sd	zero,-1120(s0)
    1584:	bc043023          	sd	zero,-1088(s0)
    1588:	bc043423          	sd	zero,-1080(s0)
    158c:	bc043823          	sd	zero,-1072(s0)
    1590:	bc043c23          	sd	zero,-1064(s0)
    1594:	be043023          	sd	zero,-1056(s0)
    1598:	be043423          	sd	zero,-1048(s0)
    159c:	be043823          	sd	zero,-1040(s0)
    15a0:	be043c23          	sd	zero,-1032(s0)
    15a4:	c0043023          	sd	zero,-1024(s0)
    15a8:	c0043423          	sd	zero,-1016(s0)
    15ac:	c0043823          	sd	zero,-1008(s0)
    15b0:	c0043c23          	sd	zero,-1000(s0)
    15b4:	c2043023          	sd	zero,-992(s0)
    15b8:	c2043423          	sd	zero,-984(s0)
    15bc:	c2043823          	sd	zero,-976(s0)
    15c0:	c2043c23          	sd	zero,-968(s0)
    15c4:	c4043023          	sd	zero,-960(s0)
    15c8:	c4043423          	sd	zero,-952(s0)
    15cc:	c4043823          	sd	zero,-944(s0)
    15d0:	c4043c23          	sd	zero,-936(s0)
    15d4:	c6043023          	sd	zero,-928(s0)
    15d8:	c6043423          	sd	zero,-920(s0)
    15dc:	c6043823          	sd	zero,-912(s0)
    15e0:	c6043c23          	sd	zero,-904(s0)
    15e4:	c8043023          	sd	zero,-896(s0)
    15e8:	c8043423          	sd	zero,-888(s0)
    15ec:	c8043823          	sd	zero,-880(s0)
    15f0:	c8043c23          	sd	zero,-872(s0)
    15f4:	ca043c23          	sd	zero,-840(s0)
    15f8:	ca043823          	sd	zero,-848(s0)
    15fc:	ca043423          	sd	zero,-856(s0)
    1600:	ca043023          	sd	zero,-864(s0)
    1604:	cc043023          	sd	zero,-832(s0)
    1608:	cc043423          	sd	zero,-824(s0)
    160c:	cc043823          	sd	zero,-816(s0)
    1610:	cc043c23          	sd	zero,-808(s0)
    1614:	ce043023          	sd	zero,-800(s0)
    1618:	ce043423          	sd	zero,-792(s0)
    161c:	ce043823          	sd	zero,-784(s0)
    1620:	ce043c23          	sd	zero,-776(s0)
    1624:	d0043023          	sd	zero,-768(s0)
    1628:	d0043423          	sd	zero,-760(s0)
    162c:	d0043823          	sd	zero,-752(s0)
    1630:	d0043c23          	sd	zero,-744(s0)
    1634:	d2043023          	sd	zero,-736(s0)
    1638:	d2043423          	sd	zero,-728(s0)
    163c:	d2043823          	sd	zero,-720(s0)
    1640:	d2043c23          	sd	zero,-712(s0)
    1644:	d4043023          	sd	zero,-704(s0)
    1648:	d4043423          	sd	zero,-696(s0)
    164c:	d4043823          	sd	zero,-688(s0)
    1650:	d4043c23          	sd	zero,-680(s0)
    1654:	d6043023          	sd	zero,-672(s0)
    1658:	d6043423          	sd	zero,-664(s0)
    165c:	d6043823          	sd	zero,-656(s0)
    1660:	d6043c23          	sd	zero,-648(s0)
    1664:	d8043023          	sd	zero,-640(s0)
    1668:	d8043423          	sd	zero,-632(s0)
    166c:	d8043823          	sd	zero,-624(s0)
    1670:	d8043c23          	sd	zero,-616(s0)
    1674:	da043c23          	sd	zero,-584(s0)
    1678:	da043823          	sd	zero,-592(s0)
    167c:	da043423          	sd	zero,-600(s0)
    1680:	da043023          	sd	zero,-608(s0)
    1684:	dc043023          	sd	zero,-576(s0)
    1688:	dc043423          	sd	zero,-568(s0)
    168c:	dc043823          	sd	zero,-560(s0)
    1690:	00000093          	li	ra,0
    1694:	00000c93          	li	s9,0
    1698:	00000b93          	li	s7,0
    169c:	dc043c23          	sd	zero,-552(s0)
    16a0:	00000b13          	li	s6,0
    16a4:	00000713          	li	a4,0
    16a8:	00000693          	li	a3,0
    16ac:	00000613          	li	a2,0
    16b0:	00000993          	li	s3,0
    16b4:	00000913          	li	s2,0
    16b8:	00000d13          	li	s10,0
    16bc:	00000f13          	li	t5,0
    16c0:	00000e13          	li	t3,0
    16c4:	00000393          	li	t2,0
    16c8:	00000c13          	li	s8,0
    16cc:	00000313          	li	t1,0
    16d0:	00000593          	li	a1,0
    16d4:	00000513          	li	a0,0
    16d8:	00000293          	li	t0,0
    16dc:	00000893          	li	a7,0
    16e0:	00000813          	li	a6,0
    16e4:	00000793          	li	a5,0
    16e8:	e2043c23          	sd	zero,-456(s0)
    16ec:	e4043023          	sd	zero,-448(s0)
    16f0:	e4043423          	sd	zero,-440(s0)

00000000000016f4 <.LBB67_5>:
    16f4:	dfa43423          	sd	s10,-536(s0)
    16f8:	f9443423          	sd	s4,-120(s0)
    16fc:	f8943023          	sd	s1,-128(s0)
    1700:	00001eb7          	lui	t4,0x1
    1704:	41d40eb3          	sub	t4,s0,t4
    1708:	69feb823          	sd	t6,1680(t4) # 1690 <.LBB67_4+0x520>
    170c:	ec143423          	sd	ra,-312(s0)
    1710:	ed943823          	sd	s9,-304(s0)
    1714:	ed743c23          	sd	s7,-296(s0)
    1718:	ef643023          	sd	s6,-288(s0)
    171c:	eee43423          	sd	a4,-280(s0)
    1720:	eed43823          	sd	a3,-272(s0)
    1724:	eec43c23          	sd	a2,-264(s0)
    1728:	00001637          	lui	a2,0x1
    172c:	40c40633          	sub	a2,s0,a2
    1730:	69363c23          	sd	s3,1688(a2) # 1698 <.LBB67_4+0x528>
    1734:	df243023          	sd	s2,-544(s0)
    1738:	dfe43823          	sd	t5,-528(s0)
    173c:	dfc43c23          	sd	t3,-520(s0)
    1740:	e0743023          	sd	t2,-512(s0)
    1744:	e1843423          	sd	s8,-504(s0)
    1748:	e0643823          	sd	t1,-496(s0)
    174c:	f0b43023          	sd	a1,-256(s0)
    1750:	f0a43423          	sd	a0,-248(s0)
    1754:	e0543c23          	sd	t0,-488(s0)
    1758:	e3143023          	sd	a7,-480(s0)
    175c:	e3043423          	sd	a6,-472(s0)
    1760:	e2f43823          	sd	a5,-464(s0)
    1764:	e4048503          	lb	a0,-448(s1)
    1768:	002a0603          	lb	a2,2(s4)
    176c:	f4c43023          	sd	a2,-192(s0)
    1770:	001a0683          	lb	a3,1(s4)
    1774:	f0d43823          	sd	a3,-240(s0)
    1778:	000a0703          	lb	a4,0(s4)
    177c:	003a0783          	lb	a5,3(s4)
    1780:	f2f43023          	sd	a5,-224(s0)
    1784:	004a0803          	lb	a6,4(s4)
    1788:	f1043c23          	sd	a6,-232(s0)
    178c:	005a0903          	lb	s2,5(s4)
    1790:	006a0983          	lb	s3,6(s4)
    1794:	f7343c23          	sd	s3,-136(s0)
    1798:	007a0c83          	lb	s9,7(s4)
    179c:	000d8b13          	mv	s6,s11
    17a0:	008a0c03          	lb	s8,8(s4)
    17a4:	f7843423          	sd	s8,-152(s0)
    17a8:	009a0883          	lb	a7,9(s4)
    17ac:	e9143823          	sd	a7,-368(s0)
    17b0:	00aa0283          	lb	t0,10(s4)
    17b4:	ea543823          	sd	t0,-336(s0)
    17b8:	00ba0303          	lb	t1,11(s4)
    17bc:	00ca0083          	lb	ra,12(s4)
    17c0:	00da0383          	lb	t2,13(s4)
    17c4:	00ea0d03          	lb	s10,14(s4)
    17c8:	eba43023          	sd	s10,-352(s0)
    17cc:	f8843583          	ld	a1,-120(s0)
    17d0:	00f58a03          	lb	s4,15(a1)
    17d4:	f8843583          	ld	a1,-120(s0)
    17d8:	01058f83          	lb	t6,16(a1)
    17dc:	f8843583          	ld	a1,-120(s0)
    17e0:	01158e03          	lb	t3,17(a1)
    17e4:	000015b7          	lui	a1,0x1
    17e8:	40b405b3          	sub	a1,s0,a1
    17ec:	69c5b423          	sd	t3,1672(a1) # 1688 <.LBB67_4+0x518>
    17f0:	f8843583          	ld	a1,-120(s0)
    17f4:	01258e83          	lb	t4,18(a1)
    17f8:	edd43023          	sd	t4,-320(s0)
    17fc:	f8843583          	ld	a1,-120(s0)
    1800:	01358f03          	lb	t5,19(a1)
    1804:	e7e43823          	sd	t5,-400(s0)
    1808:	f8843583          	ld	a1,-120(s0)
    180c:	01458483          	lb	s1,20(a1)
    1810:	f8843583          	ld	a1,-120(s0)
    1814:	01558a83          	lb	s5,21(a1)
    1818:	eb543c23          	sd	s5,-328(s0)
    181c:	f8843583          	ld	a1,-120(s0)
    1820:	01658583          	lb	a1,22(a1)
    1824:	f4b43423          	sd	a1,-184(s0)
    1828:	f8843583          	ld	a1,-120(s0)
    182c:	01758b83          	lb	s7,23(a1)
    1830:	f3743c23          	sd	s7,-200(s0)
    1834:	f8843583          	ld	a1,-120(s0)
    1838:	01858d83          	lb	s11,24(a1)
    183c:	02c505b3          	mul	a1,a0,a2
    1840:	00001637          	lui	a2,0x1
    1844:	40c40633          	sub	a2,s0,a2
    1848:	6d063603          	ld	a2,1744(a2) # 16d0 <.LBB67_4+0x560>
    184c:	00c58633          	add	a2,a1,a2
    1850:	000015b7          	lui	a1,0x1
    1854:	40b405b3          	sub	a1,s0,a1
    1858:	6cc5b823          	sd	a2,1744(a1) # 16d0 <.LBB67_4+0x560>
    185c:	02d505b3          	mul	a1,a0,a3
    1860:	00001637          	lui	a2,0x1
    1864:	40c40633          	sub	a2,s0,a2
    1868:	6d863603          	ld	a2,1752(a2) # 16d8 <.LBB67_4+0x568>
    186c:	00c58633          	add	a2,a1,a2
    1870:	000015b7          	lui	a1,0x1
    1874:	40b405b3          	sub	a1,s0,a1
    1878:	6cc5bc23          	sd	a2,1752(a1) # 16d8 <.LBB67_4+0x568>
    187c:	02e505b3          	mul	a1,a0,a4
    1880:	00001637          	lui	a2,0x1
    1884:	40c40633          	sub	a2,s0,a2
    1888:	6e863603          	ld	a2,1768(a2) # 16e8 <.LBB67_4+0x578>
    188c:	00c58633          	add	a2,a1,a2
    1890:	000015b7          	lui	a1,0x1
    1894:	40b405b3          	sub	a1,s0,a1
    1898:	6ec5b423          	sd	a2,1768(a1) # 16e8 <.LBB67_4+0x578>
    189c:	02f505b3          	mul	a1,a0,a5
    18a0:	00001637          	lui	a2,0x1
    18a4:	40c40633          	sub	a2,s0,a2
    18a8:	6e063603          	ld	a2,1760(a2) # 16e0 <.LBB67_4+0x570>
    18ac:	00c58633          	add	a2,a1,a2
    18b0:	000015b7          	lui	a1,0x1
    18b4:	40b405b3          	sub	a1,s0,a1
    18b8:	6ec5b023          	sd	a2,1760(a1) # 16e0 <.LBB67_4+0x570>
    18bc:	030505b3          	mul	a1,a0,a6
    18c0:	00001637          	lui	a2,0x1
    18c4:	40c40633          	sub	a2,s0,a2
    18c8:	6c863603          	ld	a2,1736(a2) # 16c8 <.LBB67_4+0x558>
    18cc:	00c58633          	add	a2,a1,a2
    18d0:	000015b7          	lui	a1,0x1
    18d4:	40b405b3          	sub	a1,s0,a1
    18d8:	6cc5b423          	sd	a2,1736(a1) # 16c8 <.LBB67_4+0x558>
    18dc:	032505b3          	mul	a1,a0,s2
    18e0:	00090693          	mv	a3,s2
    18e4:	f5243c23          	sd	s2,-168(s0)
    18e8:	00001637          	lui	a2,0x1
    18ec:	40c40633          	sub	a2,s0,a2
    18f0:	6c063603          	ld	a2,1728(a2) # 16c0 <.LBB67_4+0x550>
    18f4:	00c58633          	add	a2,a1,a2
    18f8:	000015b7          	lui	a1,0x1
    18fc:	40b405b3          	sub	a1,s0,a1
    1900:	6cc5b023          	sd	a2,1728(a1) # 16c0 <.LBB67_4+0x550>
    1904:	033505b3          	mul	a1,a0,s3
    1908:	00001637          	lui	a2,0x1
    190c:	40c40633          	sub	a2,s0,a2
    1910:	6b863603          	ld	a2,1720(a2) # 16b8 <.LBB67_4+0x548>
    1914:	00c58633          	add	a2,a1,a2
    1918:	000015b7          	lui	a1,0x1
    191c:	40b405b3          	sub	a1,s0,a1
    1920:	6ac5bc23          	sd	a2,1720(a1) # 16b8 <.LBB67_4+0x548>
    1924:	039505b3          	mul	a1,a0,s9
    1928:	00001637          	lui	a2,0x1
    192c:	40c40633          	sub	a2,s0,a2
    1930:	6b063603          	ld	a2,1712(a2) # 16b0 <.LBB67_4+0x540>
    1934:	00c58633          	add	a2,a1,a2
    1938:	000015b7          	lui	a1,0x1
    193c:	40b405b3          	sub	a1,s0,a1
    1940:	6ac5b823          	sd	a2,1712(a1) # 16b0 <.LBB67_4+0x540>
    1944:	038505b3          	mul	a1,a0,s8
    1948:	00001637          	lui	a2,0x1
    194c:	40c40633          	sub	a2,s0,a2
    1950:	6a863603          	ld	a2,1704(a2) # 16a8 <.LBB67_4+0x538>
    1954:	00c58633          	add	a2,a1,a2
    1958:	000015b7          	lui	a1,0x1
    195c:	40b405b3          	sub	a1,s0,a1
    1960:	6ac5b423          	sd	a2,1704(a1) # 16a8 <.LBB67_4+0x538>
    1964:	031505b3          	mul	a1,a0,a7
    1968:	00001637          	lui	a2,0x1
    196c:	40c40633          	sub	a2,s0,a2
    1970:	6f063603          	ld	a2,1776(a2) # 16f0 <.LBB67_4+0x580>
    1974:	00c58633          	add	a2,a1,a2
    1978:	000015b7          	lui	a1,0x1
    197c:	40b405b3          	sub	a1,s0,a1
    1980:	6ec5b823          	sd	a2,1776(a1) # 16f0 <.LBB67_4+0x580>
    1984:	025505b3          	mul	a1,a0,t0
    1988:	00001637          	lui	a2,0x1
    198c:	40c40633          	sub	a2,s0,a2
    1990:	6f863603          	ld	a2,1784(a2) # 16f8 <.LBB67_5+0x4>
    1994:	00c58633          	add	a2,a1,a2
    1998:	000015b7          	lui	a1,0x1
    199c:	40b405b3          	sub	a1,s0,a1
    19a0:	6ec5bc23          	sd	a2,1784(a1) # 16f8 <.LBB67_5+0x4>
    19a4:	026505b3          	mul	a1,a0,t1
    19a8:	00030893          	mv	a7,t1
    19ac:	00001637          	lui	a2,0x1
    19b0:	40c40633          	sub	a2,s0,a2
    19b4:	70063603          	ld	a2,1792(a2) # 1700 <.LBB67_5+0xc>
    19b8:	00c58633          	add	a2,a1,a2
    19bc:	000015b7          	lui	a1,0x1
    19c0:	40b405b3          	sub	a1,s0,a1
    19c4:	70c5b023          	sd	a2,1792(a1) # 1700 <.LBB67_5+0xc>
    19c8:	021505b3          	mul	a1,a0,ra
    19cc:	00008793          	mv	a5,ra
    19d0:	f6143023          	sd	ra,-160(s0)
    19d4:	00001637          	lui	a2,0x1
    19d8:	40c40633          	sub	a2,s0,a2
    19dc:	70863603          	ld	a2,1800(a2) # 1708 <.LBB67_5+0x14>
    19e0:	00c58633          	add	a2,a1,a2
    19e4:	000015b7          	lui	a1,0x1
    19e8:	40b405b3          	sub	a1,s0,a1
    19ec:	70c5b423          	sd	a2,1800(a1) # 1708 <.LBB67_5+0x14>
    19f0:	027505b3          	mul	a1,a0,t2
    19f4:	00001637          	lui	a2,0x1
    19f8:	40c40633          	sub	a2,s0,a2
    19fc:	71063603          	ld	a2,1808(a2) # 1710 <.LBB67_5+0x1c>
    1a00:	00c58633          	add	a2,a1,a2
    1a04:	000015b7          	lui	a1,0x1
    1a08:	40b405b3          	sub	a1,s0,a1
    1a0c:	70c5b823          	sd	a2,1808(a1) # 1710 <.LBB67_5+0x1c>
    1a10:	03a505b3          	mul	a1,a0,s10
    1a14:	00001637          	lui	a2,0x1
    1a18:	40c40633          	sub	a2,s0,a2
    1a1c:	71863603          	ld	a2,1816(a2) # 1718 <.LBB67_5+0x24>
    1a20:	00c58633          	add	a2,a1,a2
    1a24:	000015b7          	lui	a1,0x1
    1a28:	40b405b3          	sub	a1,s0,a1
    1a2c:	70c5bc23          	sd	a2,1816(a1) # 1718 <.LBB67_5+0x24>
    1a30:	034505b3          	mul	a1,a0,s4
    1a34:	000a0093          	mv	ra,s4
    1a38:	e9443c23          	sd	s4,-360(s0)
    1a3c:	00001637          	lui	a2,0x1
    1a40:	40c40633          	sub	a2,s0,a2
    1a44:	72063603          	ld	a2,1824(a2) # 1720 <.LBB67_5+0x2c>
    1a48:	00c58633          	add	a2,a1,a2
    1a4c:	000015b7          	lui	a1,0x1
    1a50:	40b405b3          	sub	a1,s0,a1
    1a54:	72c5b023          	sd	a2,1824(a1) # 1720 <.LBB67_5+0x2c>
    1a58:	03f505b3          	mul	a1,a0,t6
    1a5c:	f5f43823          	sd	t6,-176(s0)
    1a60:	00001637          	lui	a2,0x1
    1a64:	40c40633          	sub	a2,s0,a2
    1a68:	72863603          	ld	a2,1832(a2) # 1728 <.LBB67_5+0x34>
    1a6c:	00c58633          	add	a2,a1,a2
    1a70:	000015b7          	lui	a1,0x1
    1a74:	40b405b3          	sub	a1,s0,a1
    1a78:	72c5b423          	sd	a2,1832(a1) # 1728 <.LBB67_5+0x34>
    1a7c:	03c505b3          	mul	a1,a0,t3
    1a80:	00001637          	lui	a2,0x1
    1a84:	40c40633          	sub	a2,s0,a2
    1a88:	73063603          	ld	a2,1840(a2) # 1730 <.LBB67_5+0x3c>
    1a8c:	00c58633          	add	a2,a1,a2
    1a90:	000015b7          	lui	a1,0x1
    1a94:	40b405b3          	sub	a1,s0,a1
    1a98:	72c5b823          	sd	a2,1840(a1) # 1730 <.LBB67_5+0x3c>
    1a9c:	03d505b3          	mul	a1,a0,t4
    1aa0:	00001637          	lui	a2,0x1
    1aa4:	40c40633          	sub	a2,s0,a2
    1aa8:	73863603          	ld	a2,1848(a2) # 1738 <.LBB67_5+0x44>
    1aac:	00c58633          	add	a2,a1,a2
    1ab0:	000015b7          	lui	a1,0x1
    1ab4:	40b405b3          	sub	a1,s0,a1
    1ab8:	72c5bc23          	sd	a2,1848(a1) # 1738 <.LBB67_5+0x44>
    1abc:	03e505b3          	mul	a1,a0,t5
    1ac0:	00001637          	lui	a2,0x1
    1ac4:	40c40633          	sub	a2,s0,a2
    1ac8:	74063603          	ld	a2,1856(a2) # 1740 <.LBB67_5+0x4c>
    1acc:	00c58633          	add	a2,a1,a2
    1ad0:	000015b7          	lui	a1,0x1
    1ad4:	40b405b3          	sub	a1,s0,a1
    1ad8:	74c5b023          	sd	a2,1856(a1) # 1740 <.LBB67_5+0x4c>
    1adc:	029505b3          	mul	a1,a0,s1
    1ae0:	00001637          	lui	a2,0x1
    1ae4:	40c40633          	sub	a2,s0,a2
    1ae8:	74863603          	ld	a2,1864(a2) # 1748 <.LBB67_5+0x54>
    1aec:	00c58633          	add	a2,a1,a2
    1af0:	000015b7          	lui	a1,0x1
    1af4:	40b405b3          	sub	a1,s0,a1
    1af8:	74c5b423          	sd	a2,1864(a1) # 1748 <.LBB67_5+0x54>
    1afc:	035505b3          	mul	a1,a0,s5
    1b00:	00001637          	lui	a2,0x1
    1b04:	40c40633          	sub	a2,s0,a2
    1b08:	75063603          	ld	a2,1872(a2) # 1750 <.LBB67_5+0x5c>
    1b0c:	00c58633          	add	a2,a1,a2
    1b10:	000015b7          	lui	a1,0x1
    1b14:	40b405b3          	sub	a1,s0,a1
    1b18:	74c5b823          	sd	a2,1872(a1) # 1750 <.LBB67_5+0x5c>
    1b1c:	f4843583          	ld	a1,-184(s0)
    1b20:	02b505b3          	mul	a1,a0,a1
    1b24:	00001637          	lui	a2,0x1
    1b28:	40c40633          	sub	a2,s0,a2
    1b2c:	75863603          	ld	a2,1880(a2) # 1758 <.LBB67_5+0x64>
    1b30:	00c58633          	add	a2,a1,a2
    1b34:	000015b7          	lui	a1,0x1
    1b38:	40b405b3          	sub	a1,s0,a1
    1b3c:	74c5bc23          	sd	a2,1880(a1) # 1758 <.LBB67_5+0x64>
    1b40:	037505b3          	mul	a1,a0,s7
    1b44:	00001637          	lui	a2,0x1
    1b48:	40c40633          	sub	a2,s0,a2
    1b4c:	76063603          	ld	a2,1888(a2) # 1760 <.LBB67_5+0x6c>
    1b50:	00c58633          	add	a2,a1,a2
    1b54:	000015b7          	lui	a1,0x1
    1b58:	40b405b3          	sub	a1,s0,a1
    1b5c:	76c5b023          	sd	a2,1888(a1) # 1760 <.LBB67_5+0x6c>
    1b60:	f8843583          	ld	a1,-120(s0)
    1b64:	01958803          	lb	a6,25(a1)
    1b68:	e7043423          	sd	a6,-408(s0)
    1b6c:	03b505b3          	mul	a1,a0,s11
    1b70:	000d8a13          	mv	s4,s11
    1b74:	e5b43c23          	sd	s11,-424(s0)
    1b78:	00001637          	lui	a2,0x1
    1b7c:	40c40633          	sub	a2,s0,a2
    1b80:	76863603          	ld	a2,1896(a2) # 1768 <.LBB67_5+0x74>
    1b84:	00c58633          	add	a2,a1,a2
    1b88:	000015b7          	lui	a1,0x1
    1b8c:	40b405b3          	sub	a1,s0,a1
    1b90:	76c5b423          	sd	a2,1896(a1) # 1768 <.LBB67_5+0x74>
    1b94:	f8843583          	ld	a1,-120(s0)
    1b98:	01a58283          	lb	t0,26(a1)
    1b9c:	e6543023          	sd	t0,-416(s0)
    1ba0:	030505b3          	mul	a1,a0,a6
    1ba4:	00001637          	lui	a2,0x1
    1ba8:	40c40633          	sub	a2,s0,a2
    1bac:	77063603          	ld	a2,1904(a2) # 1770 <.LBB67_5+0x7c>
    1bb0:	00c58633          	add	a2,a1,a2
    1bb4:	000015b7          	lui	a1,0x1
    1bb8:	40b405b3          	sub	a1,s0,a1
    1bbc:	76c5b823          	sd	a2,1904(a1) # 1770 <.LBB67_5+0x7c>
    1bc0:	f8843583          	ld	a1,-120(s0)
    1bc4:	01b58903          	lb	s2,27(a1)
    1bc8:	025505b3          	mul	a1,a0,t0
    1bcc:	00001637          	lui	a2,0x1
    1bd0:	40c40633          	sub	a2,s0,a2
    1bd4:	77863603          	ld	a2,1912(a2) # 1778 <.LBB67_5+0x84>
    1bd8:	00c58633          	add	a2,a1,a2
    1bdc:	000015b7          	lui	a1,0x1
    1be0:	40b405b3          	sub	a1,s0,a1
    1be4:	76c5bc23          	sd	a2,1912(a1) # 1778 <.LBB67_5+0x84>
    1be8:	f8843583          	ld	a1,-120(s0)
    1bec:	01c58f03          	lb	t5,28(a1)
    1bf0:	032505b3          	mul	a1,a0,s2
    1bf4:	e5243823          	sd	s2,-432(s0)
    1bf8:	00001637          	lui	a2,0x1
    1bfc:	40c40633          	sub	a2,s0,a2
    1c00:	78063603          	ld	a2,1920(a2) # 1780 <.LBB67_5+0x8c>
    1c04:	00c58633          	add	a2,a1,a2
    1c08:	000015b7          	lui	a1,0x1
    1c0c:	40b405b3          	sub	a1,s0,a1
    1c10:	78c5b023          	sd	a2,1920(a1) # 1780 <.LBB67_5+0x8c>
    1c14:	f8843583          	ld	a1,-120(s0)
    1c18:	01d58803          	lb	a6,29(a1)
    1c1c:	f3043823          	sd	a6,-208(s0)
    1c20:	03e505b3          	mul	a1,a0,t5
    1c24:	e9e43023          	sd	t5,-384(s0)
    1c28:	00001637          	lui	a2,0x1
    1c2c:	40c40633          	sub	a2,s0,a2
    1c30:	78863603          	ld	a2,1928(a2) # 1788 <.LBB67_5+0x94>
    1c34:	00c58633          	add	a2,a1,a2
    1c38:	000015b7          	lui	a1,0x1
    1c3c:	40b405b3          	sub	a1,s0,a1
    1c40:	78c5b423          	sd	a2,1928(a1) # 1788 <.LBB67_5+0x94>
    1c44:	f8843583          	ld	a1,-120(s0)
    1c48:	01e58303          	lb	t1,30(a1)
    1c4c:	030505b3          	mul	a1,a0,a6
    1c50:	01658b33          	add	s6,a1,s6
    1c54:	000015b7          	lui	a1,0x1
    1c58:	40b405b3          	sub	a1,s0,a1
    1c5c:	6b65b023          	sd	s6,1696(a1) # 16a0 <.LBB67_4+0x530>
    1c60:	f8843583          	ld	a1,-120(s0)
    1c64:	01f58583          	lb	a1,31(a1)
    1c68:	f2b43423          	sd	a1,-216(s0)
    1c6c:	f8043603          	ld	a2,-128(s0)
    1c70:	e8060983          	lb	s3,-384(a2)
    1c74:	02650c33          	mul	s8,a0,t1
    1c78:	00001637          	lui	a2,0x1
    1c7c:	40c40633          	sub	a2,s0,a2
    1c80:	79063603          	ld	a2,1936(a2) # 1790 <.LBB67_5+0x9c>
    1c84:	00cc0633          	add	a2,s8,a2
    1c88:	00001837          	lui	a6,0x1
    1c8c:	41040833          	sub	a6,s0,a6
    1c90:	78c83823          	sd	a2,1936(a6) # 1790 <.LBB67_5+0x9c>
    1c94:	02b50533          	mul	a0,a0,a1
    1c98:	000015b7          	lui	a1,0x1
    1c9c:	40b405b3          	sub	a1,s0,a1
    1ca0:	7985b603          	ld	a2,1944(a1) # 1798 <.LBB67_5+0xa4>
    1ca4:	00c50633          	add	a2,a0,a2
    1ca8:	00001537          	lui	a0,0x1
    1cac:	40a40533          	sub	a0,s0,a0
    1cb0:	78c53c23          	sd	a2,1944(a0) # 1798 <.LBB67_5+0xa4>
    1cb4:	00070813          	mv	a6,a4
    1cb8:	e8e43423          	sd	a4,-376(s0)
    1cbc:	02e98533          	mul	a0,s3,a4
    1cc0:	000015b7          	lui	a1,0x1
    1cc4:	40b405b3          	sub	a1,s0,a1
    1cc8:	7b85b603          	ld	a2,1976(a1) # 17b8 <.LBB67_5+0xc4>
    1ccc:	00c50633          	add	a2,a0,a2
    1cd0:	00001537          	lui	a0,0x1
    1cd4:	40a40533          	sub	a0,s0,a0
    1cd8:	7ac53c23          	sd	a2,1976(a0) # 17b8 <.LBB67_5+0xc4>
    1cdc:	f1043503          	ld	a0,-240(s0)
    1ce0:	02a98533          	mul	a0,s3,a0
    1ce4:	000015b7          	lui	a1,0x1
    1ce8:	40b405b3          	sub	a1,s0,a1
    1cec:	7b05b603          	ld	a2,1968(a1) # 17b0 <.LBB67_5+0xbc>
    1cf0:	00c50633          	add	a2,a0,a2
    1cf4:	00001537          	lui	a0,0x1
    1cf8:	40a40533          	sub	a0,s0,a0
    1cfc:	7ac53823          	sd	a2,1968(a0) # 17b0 <.LBB67_5+0xbc>
    1d00:	f4043283          	ld	t0,-192(s0)
    1d04:	02598533          	mul	a0,s3,t0
    1d08:	000015b7          	lui	a1,0x1
    1d0c:	40b405b3          	sub	a1,s0,a1
    1d10:	7a85b603          	ld	a2,1960(a1) # 17a8 <.LBB67_5+0xb4>
    1d14:	00c50633          	add	a2,a0,a2
    1d18:	00001537          	lui	a0,0x1
    1d1c:	40a40533          	sub	a0,s0,a0
    1d20:	7ac53423          	sd	a2,1960(a0) # 17a8 <.LBB67_5+0xb4>
    1d24:	f2043e03          	ld	t3,-224(s0)
    1d28:	03c98533          	mul	a0,s3,t3
    1d2c:	000015b7          	lui	a1,0x1
    1d30:	40b405b3          	sub	a1,s0,a1
    1d34:	7a05b603          	ld	a2,1952(a1) # 17a0 <.LBB67_5+0xac>
    1d38:	00c50633          	add	a2,a0,a2
    1d3c:	00001537          	lui	a0,0x1
    1d40:	40a40533          	sub	a0,s0,a0
    1d44:	7ac53023          	sd	a2,1952(a0) # 17a0 <.LBB67_5+0xac>
    1d48:	f1843e83          	ld	t4,-232(s0)
    1d4c:	03d98533          	mul	a0,s3,t4
    1d50:	000015b7          	lui	a1,0x1
    1d54:	40b405b3          	sub	a1,s0,a1
    1d58:	7c05b603          	ld	a2,1984(a1) # 17c0 <.LBB67_5+0xcc>
    1d5c:	00c50633          	add	a2,a0,a2
    1d60:	00001537          	lui	a0,0x1
    1d64:	40a40533          	sub	a0,s0,a0
    1d68:	7cc53023          	sd	a2,1984(a0) # 17c0 <.LBB67_5+0xcc>
    1d6c:	02d98533          	mul	a0,s3,a3
    1d70:	000015b7          	lui	a1,0x1
    1d74:	40b405b3          	sub	a1,s0,a1
    1d78:	7c85b603          	ld	a2,1992(a1) # 17c8 <.LBB67_5+0xd4>
    1d7c:	00c50633          	add	a2,a0,a2
    1d80:	00001537          	lui	a0,0x1
    1d84:	40a40533          	sub	a0,s0,a0
    1d88:	7cc53423          	sd	a2,1992(a0) # 17c8 <.LBB67_5+0xd4>
    1d8c:	f7843683          	ld	a3,-136(s0)
    1d90:	02d98533          	mul	a0,s3,a3
    1d94:	000015b7          	lui	a1,0x1
    1d98:	40b405b3          	sub	a1,s0,a1
    1d9c:	7d05b603          	ld	a2,2000(a1) # 17d0 <.LBB67_5+0xdc>
    1da0:	00c50633          	add	a2,a0,a2
    1da4:	00001537          	lui	a0,0x1
    1da8:	40a40533          	sub	a0,s0,a0
    1dac:	7cc53823          	sd	a2,2000(a0) # 17d0 <.LBB67_5+0xdc>
    1db0:	f7943823          	sd	s9,-144(s0)
    1db4:	03998533          	mul	a0,s3,s9
    1db8:	000015b7          	lui	a1,0x1
    1dbc:	40b405b3          	sub	a1,s0,a1
    1dc0:	7d85b603          	ld	a2,2008(a1) # 17d8 <.LBB67_5+0xe4>
    1dc4:	00c50633          	add	a2,a0,a2
    1dc8:	00001537          	lui	a0,0x1
    1dcc:	40a40533          	sub	a0,s0,a0
    1dd0:	7cc53c23          	sd	a2,2008(a0) # 17d8 <.LBB67_5+0xe4>
    1dd4:	f6843703          	ld	a4,-152(s0)
    1dd8:	02e98533          	mul	a0,s3,a4
    1ddc:	000015b7          	lui	a1,0x1
    1de0:	40b405b3          	sub	a1,s0,a1
    1de4:	7e05b603          	ld	a2,2016(a1) # 17e0 <.LBB67_5+0xec>
    1de8:	00c50633          	add	a2,a0,a2
    1dec:	00001537          	lui	a0,0x1
    1df0:	40a40533          	sub	a0,s0,a0
    1df4:	7ec53023          	sd	a2,2016(a0) # 17e0 <.LBB67_5+0xec>
    1df8:	e9043b83          	ld	s7,-368(s0)
    1dfc:	03798533          	mul	a0,s3,s7
    1e00:	000015b7          	lui	a1,0x1
    1e04:	40b405b3          	sub	a1,s0,a1
    1e08:	7e85b603          	ld	a2,2024(a1) # 17e8 <.LBB67_5+0xf4>
    1e0c:	00c50633          	add	a2,a0,a2
    1e10:	00001537          	lui	a0,0x1
    1e14:	40a40533          	sub	a0,s0,a0
    1e18:	7ec53423          	sd	a2,2024(a0) # 17e8 <.LBB67_5+0xf4>
    1e1c:	eb043b03          	ld	s6,-336(s0)
    1e20:	03698533          	mul	a0,s3,s6
    1e24:	000015b7          	lui	a1,0x1
    1e28:	40b405b3          	sub	a1,s0,a1
    1e2c:	7f05b603          	ld	a2,2032(a1) # 17f0 <.LBB67_5+0xfc>
    1e30:	00c50633          	add	a2,a0,a2
    1e34:	00001537          	lui	a0,0x1
    1e38:	40a40533          	sub	a0,s0,a0
    1e3c:	7ec53823          	sd	a2,2032(a0) # 17f0 <.LBB67_5+0xfc>
    1e40:	eb143423          	sd	a7,-344(s0)
    1e44:	03198533          	mul	a0,s3,a7
    1e48:	000015b7          	lui	a1,0x1
    1e4c:	40b405b3          	sub	a1,s0,a1
    1e50:	7f85b603          	ld	a2,2040(a1) # 17f8 <.LBB67_5+0x104>
    1e54:	00c50633          	add	a2,a0,a2
    1e58:	00001537          	lui	a0,0x1
    1e5c:	40a40533          	sub	a0,s0,a0
    1e60:	7ec53c23          	sd	a2,2040(a0) # 17f8 <.LBB67_5+0x104>
    1e64:	02f98533          	mul	a0,s3,a5
    1e68:	80043603          	ld	a2,-2048(s0)
    1e6c:	00c50633          	add	a2,a0,a2
    1e70:	80c43023          	sd	a2,-2048(s0)
    1e74:	02798533          	mul	a0,s3,t2
    1e78:	80843603          	ld	a2,-2040(s0)
    1e7c:	00c50633          	add	a2,a0,a2
    1e80:	80c43423          	sd	a2,-2040(s0)
    1e84:	ea043783          	ld	a5,-352(s0)
    1e88:	02f98533          	mul	a0,s3,a5
    1e8c:	81043603          	ld	a2,-2032(s0)
    1e90:	00c50633          	add	a2,a0,a2
    1e94:	80c43823          	sd	a2,-2032(s0)
    1e98:	02198533          	mul	a0,s3,ra
    1e9c:	81843603          	ld	a2,-2024(s0)
    1ea0:	00c50633          	add	a2,a0,a2
    1ea4:	80c43c23          	sd	a2,-2024(s0)
    1ea8:	03f98533          	mul	a0,s3,t6
    1eac:	82043603          	ld	a2,-2016(s0)
    1eb0:	00c50633          	add	a2,a0,a2
    1eb4:	82c43023          	sd	a2,-2016(s0)
    1eb8:	00001537          	lui	a0,0x1
    1ebc:	40a40533          	sub	a0,s0,a0
    1ec0:	68853083          	ld	ra,1672(a0) # 1688 <.LBB67_4+0x518>
    1ec4:	02198533          	mul	a0,s3,ra
    1ec8:	82843603          	ld	a2,-2008(s0)
    1ecc:	00c50633          	add	a2,a0,a2
    1ed0:	82c43423          	sd	a2,-2008(s0)
    1ed4:	ec043503          	ld	a0,-320(s0)
    1ed8:	02a98533          	mul	a0,s3,a0
    1edc:	83043603          	ld	a2,-2000(s0)
    1ee0:	00c50633          	add	a2,a0,a2
    1ee4:	82c43823          	sd	a2,-2000(s0)
    1ee8:	e7043d83          	ld	s11,-400(s0)
    1eec:	03b98533          	mul	a0,s3,s11
    1ef0:	83843603          	ld	a2,-1992(s0)
    1ef4:	00c50633          	add	a2,a0,a2
    1ef8:	82c43c23          	sd	a2,-1992(s0)
    1efc:	00048a93          	mv	s5,s1
    1f00:	02998533          	mul	a0,s3,s1
    1f04:	84043603          	ld	a2,-1984(s0)
    1f08:	00c50633          	add	a2,a0,a2
    1f0c:	84c43023          	sd	a2,-1984(s0)
    1f10:	eb843503          	ld	a0,-328(s0)
    1f14:	02a98533          	mul	a0,s3,a0
    1f18:	84843603          	ld	a2,-1976(s0)
    1f1c:	00c50633          	add	a2,a0,a2
    1f20:	84c43423          	sd	a2,-1976(s0)
    1f24:	f4843583          	ld	a1,-184(s0)
    1f28:	02b98533          	mul	a0,s3,a1
    1f2c:	85043603          	ld	a2,-1968(s0)
    1f30:	00c50633          	add	a2,a0,a2
    1f34:	84c43823          	sd	a2,-1968(s0)
    1f38:	f3843503          	ld	a0,-200(s0)
    1f3c:	02a98533          	mul	a0,s3,a0
    1f40:	85843603          	ld	a2,-1960(s0)
    1f44:	00c50633          	add	a2,a0,a2
    1f48:	84c43c23          	sd	a2,-1960(s0)
    1f4c:	03498533          	mul	a0,s3,s4
    1f50:	86043603          	ld	a2,-1952(s0)
    1f54:	00c50633          	add	a2,a0,a2
    1f58:	86c43023          	sd	a2,-1952(s0)
    1f5c:	e6843f83          	ld	t6,-408(s0)
    1f60:	03f98533          	mul	a0,s3,t6
    1f64:	86843603          	ld	a2,-1944(s0)
    1f68:	00c50633          	add	a2,a0,a2
    1f6c:	86c43423          	sd	a2,-1944(s0)
    1f70:	e6043a03          	ld	s4,-416(s0)
    1f74:	03498533          	mul	a0,s3,s4
    1f78:	87043603          	ld	a2,-1936(s0)
    1f7c:	00c50633          	add	a2,a0,a2
    1f80:	86c43823          	sd	a2,-1936(s0)
    1f84:	03298533          	mul	a0,s3,s2
    1f88:	87843603          	ld	a2,-1928(s0)
    1f8c:	00c50633          	add	a2,a0,a2
    1f90:	86c43c23          	sd	a2,-1928(s0)
    1f94:	03e98533          	mul	a0,s3,t5
    1f98:	88043603          	ld	a2,-1920(s0)
    1f9c:	00c50633          	add	a2,a0,a2
    1fa0:	88c43023          	sd	a2,-1920(s0)
    1fa4:	f3043d03          	ld	s10,-208(s0)
    1fa8:	03a98533          	mul	a0,s3,s10
    1fac:	88843603          	ld	a2,-1912(s0)
    1fb0:	00c50633          	add	a2,a0,a2
    1fb4:	88c43423          	sd	a2,-1912(s0)
    1fb8:	f8043503          	ld	a0,-128(s0)
    1fbc:	ec050503          	lb	a0,-320(a0)
    1fc0:	00030493          	mv	s1,t1
    1fc4:	02698c33          	mul	s8,s3,t1
    1fc8:	89043603          	ld	a2,-1904(s0)
    1fcc:	00cc0633          	add	a2,s8,a2
    1fd0:	88c43823          	sd	a2,-1904(s0)
    1fd4:	f2843303          	ld	t1,-216(s0)
    1fd8:	026989b3          	mul	s3,s3,t1
    1fdc:	89843603          	ld	a2,-1896(s0)
    1fe0:	00c98633          	add	a2,s3,a2
    1fe4:	88c43c23          	sd	a2,-1896(s0)
    1fe8:	030509b3          	mul	s3,a0,a6
    1fec:	8b843603          	ld	a2,-1864(s0)
    1ff0:	00c98633          	add	a2,s3,a2
    1ff4:	8ac43c23          	sd	a2,-1864(s0)
    1ff8:	f1043903          	ld	s2,-240(s0)
    1ffc:	032509b3          	mul	s3,a0,s2
    2000:	8b043603          	ld	a2,-1872(s0)
    2004:	00c98633          	add	a2,s3,a2
    2008:	8ac43823          	sd	a2,-1872(s0)
    200c:	025509b3          	mul	s3,a0,t0
    2010:	8a843603          	ld	a2,-1880(s0)
    2014:	00c98633          	add	a2,s3,a2
    2018:	8ac43423          	sd	a2,-1880(s0)
    201c:	03c509b3          	mul	s3,a0,t3
    2020:	8a043603          	ld	a2,-1888(s0)
    2024:	00c98633          	add	a2,s3,a2
    2028:	8ac43023          	sd	a2,-1888(s0)
    202c:	03d509b3          	mul	s3,a0,t4
    2030:	8c043603          	ld	a2,-1856(s0)
    2034:	00c98633          	add	a2,s3,a2
    2038:	8cc43023          	sd	a2,-1856(s0)
    203c:	f5843603          	ld	a2,-168(s0)
    2040:	02c509b3          	mul	s3,a0,a2
    2044:	8c843603          	ld	a2,-1848(s0)
    2048:	00c98633          	add	a2,s3,a2
    204c:	8cc43423          	sd	a2,-1848(s0)
    2050:	02d509b3          	mul	s3,a0,a3
    2054:	8d043603          	ld	a2,-1840(s0)
    2058:	00c98633          	add	a2,s3,a2
    205c:	8cc43823          	sd	a2,-1840(s0)
    2060:	039509b3          	mul	s3,a0,s9
    2064:	8d843603          	ld	a2,-1832(s0)
    2068:	00c98633          	add	a2,s3,a2
    206c:	8cc43c23          	sd	a2,-1832(s0)
    2070:	02e509b3          	mul	s3,a0,a4
    2074:	8e043603          	ld	a2,-1824(s0)
    2078:	00c98633          	add	a2,s3,a2
    207c:	8ec43023          	sd	a2,-1824(s0)
    2080:	037509b3          	mul	s3,a0,s7
    2084:	8e843603          	ld	a2,-1816(s0)
    2088:	00c98633          	add	a2,s3,a2
    208c:	8ec43423          	sd	a2,-1816(s0)
    2090:	036509b3          	mul	s3,a0,s6
    2094:	8f043603          	ld	a2,-1808(s0)
    2098:	00c98633          	add	a2,s3,a2
    209c:	8ec43823          	sd	a2,-1808(s0)
    20a0:	031509b3          	mul	s3,a0,a7
    20a4:	8f843603          	ld	a2,-1800(s0)
    20a8:	00c98633          	add	a2,s3,a2
    20ac:	8ec43c23          	sd	a2,-1800(s0)
    20b0:	f6043283          	ld	t0,-160(s0)
    20b4:	025509b3          	mul	s3,a0,t0
    20b8:	90043603          	ld	a2,-1792(s0)
    20bc:	00c98633          	add	a2,s3,a2
    20c0:	90c43023          	sd	a2,-1792(s0)
    20c4:	027509b3          	mul	s3,a0,t2
    20c8:	90843603          	ld	a2,-1784(s0)
    20cc:	00c98633          	add	a2,s3,a2
    20d0:	90c43423          	sd	a2,-1784(s0)
    20d4:	02f509b3          	mul	s3,a0,a5
    20d8:	91043603          	ld	a2,-1776(s0)
    20dc:	00c98633          	add	a2,s3,a2
    20e0:	90c43823          	sd	a2,-1776(s0)
    20e4:	e9843603          	ld	a2,-360(s0)
    20e8:	02c509b3          	mul	s3,a0,a2
    20ec:	91843603          	ld	a2,-1768(s0)
    20f0:	00c98633          	add	a2,s3,a2
    20f4:	90c43c23          	sd	a2,-1768(s0)
    20f8:	f5043603          	ld	a2,-176(s0)
    20fc:	02c509b3          	mul	s3,a0,a2
    2100:	92043603          	ld	a2,-1760(s0)
    2104:	00c98633          	add	a2,s3,a2
    2108:	92c43023          	sd	a2,-1760(s0)
    210c:	021509b3          	mul	s3,a0,ra
    2110:	92843603          	ld	a2,-1752(s0)
    2114:	00c98633          	add	a2,s3,a2
    2118:	92c43423          	sd	a2,-1752(s0)
    211c:	ec043b83          	ld	s7,-320(s0)
    2120:	037509b3          	mul	s3,a0,s7
    2124:	93043603          	ld	a2,-1744(s0)
    2128:	00c98633          	add	a2,s3,a2
    212c:	92c43823          	sd	a2,-1744(s0)
    2130:	000d8b13          	mv	s6,s11
    2134:	03b509b3          	mul	s3,a0,s11
    2138:	93843603          	ld	a2,-1736(s0)
    213c:	00c98633          	add	a2,s3,a2
    2140:	92c43c23          	sd	a2,-1736(s0)
    2144:	000a8893          	mv	a7,s5
    2148:	035509b3          	mul	s3,a0,s5
    214c:	94043603          	ld	a2,-1728(s0)
    2150:	00c98633          	add	a2,s3,a2
    2154:	94c43023          	sd	a2,-1728(s0)
    2158:	eb843e03          	ld	t3,-328(s0)
    215c:	03c509b3          	mul	s3,a0,t3
    2160:	94843603          	ld	a2,-1720(s0)
    2164:	00c98633          	add	a2,s3,a2
    2168:	94c43423          	sd	a2,-1720(s0)
    216c:	02b509b3          	mul	s3,a0,a1
    2170:	00058e93          	mv	t4,a1
    2174:	95043603          	ld	a2,-1712(s0)
    2178:	00c98633          	add	a2,s3,a2
    217c:	94c43823          	sd	a2,-1712(s0)
    2180:	f3843f03          	ld	t5,-200(s0)
    2184:	03e509b3          	mul	s3,a0,t5
    2188:	95843603          	ld	a2,-1704(s0)
    218c:	00c98633          	add	a2,s3,a2
    2190:	94c43c23          	sd	a2,-1704(s0)
    2194:	e5843d83          	ld	s11,-424(s0)
    2198:	03b509b3          	mul	s3,a0,s11
    219c:	96043603          	ld	a2,-1696(s0)
    21a0:	00c98633          	add	a2,s3,a2
    21a4:	96c43023          	sd	a2,-1696(s0)
    21a8:	03f509b3          	mul	s3,a0,t6
    21ac:	96843603          	ld	a2,-1688(s0)
    21b0:	00c98633          	add	a2,s3,a2
    21b4:	96c43423          	sd	a2,-1688(s0)
    21b8:	034509b3          	mul	s3,a0,s4
    21bc:	97043603          	ld	a2,-1680(s0)
    21c0:	00c98633          	add	a2,s3,a2
    21c4:	96c43823          	sd	a2,-1680(s0)
    21c8:	e5043803          	ld	a6,-432(s0)
    21cc:	030509b3          	mul	s3,a0,a6
    21d0:	97843603          	ld	a2,-1672(s0)
    21d4:	00c98633          	add	a2,s3,a2
    21d8:	96c43c23          	sd	a2,-1672(s0)
    21dc:	e8043c83          	ld	s9,-384(s0)
    21e0:	039509b3          	mul	s3,a0,s9
    21e4:	98043603          	ld	a2,-1664(s0)
    21e8:	00c98633          	add	a2,s3,a2
    21ec:	98c43023          	sd	a2,-1664(s0)
    21f0:	03a509b3          	mul	s3,a0,s10
    21f4:	98843603          	ld	a2,-1656(s0)
    21f8:	00c98633          	add	a2,s3,a2
    21fc:	98c43423          	sd	a2,-1656(s0)
    2200:	f8043603          	ld	a2,-128(s0)
    2204:	f0060983          	lb	s3,-256(a2)
    2208:	02950c33          	mul	s8,a0,s1
    220c:	00048f93          	mv	t6,s1
    2210:	99043603          	ld	a2,-1648(s0)
    2214:	00cc0633          	add	a2,s8,a2
    2218:	98c43823          	sd	a2,-1648(s0)
    221c:	02650533          	mul	a0,a0,t1
    2220:	99843603          	ld	a2,-1640(s0)
    2224:	00c50633          	add	a2,a0,a2
    2228:	98c43c23          	sd	a2,-1640(s0)
    222c:	e8843703          	ld	a4,-376(s0)
    2230:	02e98533          	mul	a0,s3,a4
    2234:	9b843603          	ld	a2,-1608(s0)
    2238:	00c50633          	add	a2,a0,a2
    223c:	9ac43c23          	sd	a2,-1608(s0)
    2240:	00090693          	mv	a3,s2
    2244:	03298533          	mul	a0,s3,s2
    2248:	9b043603          	ld	a2,-1616(s0)
    224c:	00c50633          	add	a2,a0,a2
    2250:	9ac43823          	sd	a2,-1616(s0)
    2254:	f4043a83          	ld	s5,-192(s0)
    2258:	03598533          	mul	a0,s3,s5
    225c:	9a843603          	ld	a2,-1624(s0)
    2260:	00c50633          	add	a2,a0,a2
    2264:	9ac43423          	sd	a2,-1624(s0)
    2268:	f2043783          	ld	a5,-224(s0)
    226c:	02f98533          	mul	a0,s3,a5
    2270:	9a043603          	ld	a2,-1632(s0)
    2274:	00c50633          	add	a2,a0,a2
    2278:	9ac43023          	sd	a2,-1632(s0)
    227c:	f1843483          	ld	s1,-232(s0)
    2280:	02998533          	mul	a0,s3,s1
    2284:	9c043603          	ld	a2,-1600(s0)
    2288:	00c50633          	add	a2,a0,a2
    228c:	9cc43023          	sd	a2,-1600(s0)
    2290:	f5843903          	ld	s2,-168(s0)
    2294:	03298533          	mul	a0,s3,s2
    2298:	9c843603          	ld	a2,-1592(s0)
    229c:	00c50633          	add	a2,a0,a2
    22a0:	9cc43423          	sd	a2,-1592(s0)
    22a4:	f7843503          	ld	a0,-136(s0)
    22a8:	02a98533          	mul	a0,s3,a0
    22ac:	9d043603          	ld	a2,-1584(s0)
    22b0:	00c50633          	add	a2,a0,a2
    22b4:	9cc43823          	sd	a2,-1584(s0)
    22b8:	f7043503          	ld	a0,-144(s0)
    22bc:	02a98533          	mul	a0,s3,a0
    22c0:	9d843603          	ld	a2,-1576(s0)
    22c4:	00c50633          	add	a2,a0,a2
    22c8:	9cc43c23          	sd	a2,-1576(s0)
    22cc:	f6843503          	ld	a0,-152(s0)
    22d0:	02a98533          	mul	a0,s3,a0
    22d4:	9e043603          	ld	a2,-1568(s0)
    22d8:	00c50633          	add	a2,a0,a2
    22dc:	9ec43023          	sd	a2,-1568(s0)
    22e0:	e9043d03          	ld	s10,-368(s0)
    22e4:	03a98533          	mul	a0,s3,s10
    22e8:	9e843603          	ld	a2,-1560(s0)
    22ec:	00c50633          	add	a2,a0,a2
    22f0:	9ec43423          	sd	a2,-1560(s0)
    22f4:	eb043503          	ld	a0,-336(s0)
    22f8:	02a98533          	mul	a0,s3,a0
    22fc:	9f043603          	ld	a2,-1552(s0)
    2300:	00c50633          	add	a2,a0,a2
    2304:	9ec43823          	sd	a2,-1552(s0)
    2308:	ea843503          	ld	a0,-344(s0)
    230c:	02a98533          	mul	a0,s3,a0
    2310:	9f843603          	ld	a2,-1544(s0)
    2314:	00c50633          	add	a2,a0,a2
    2318:	9ec43c23          	sd	a2,-1544(s0)
    231c:	02598533          	mul	a0,s3,t0
    2320:	a0043603          	ld	a2,-1536(s0)
    2324:	00c50633          	add	a2,a0,a2
    2328:	a0c43023          	sd	a2,-1536(s0)
    232c:	00001537          	lui	a0,0x1
    2330:	40a40533          	sub	a0,s0,a0
    2334:	66753c23          	sd	t2,1656(a0) # 1678 <.LBB67_4+0x508>
    2338:	02798533          	mul	a0,s3,t2
    233c:	a0843603          	ld	a2,-1528(s0)
    2340:	00c50633          	add	a2,a0,a2
    2344:	a0c43423          	sd	a2,-1528(s0)
    2348:	ea043503          	ld	a0,-352(s0)
    234c:	02a98533          	mul	a0,s3,a0
    2350:	a1043603          	ld	a2,-1520(s0)
    2354:	00c50633          	add	a2,a0,a2
    2358:	a0c43823          	sd	a2,-1520(s0)
    235c:	e9843583          	ld	a1,-360(s0)
    2360:	02b98533          	mul	a0,s3,a1
    2364:	a1843603          	ld	a2,-1512(s0)
    2368:	00c50633          	add	a2,a0,a2
    236c:	a0c43c23          	sd	a2,-1512(s0)
    2370:	f5043503          	ld	a0,-176(s0)
    2374:	02a98533          	mul	a0,s3,a0
    2378:	a2043603          	ld	a2,-1504(s0)
    237c:	00c50633          	add	a2,a0,a2
    2380:	a2c43023          	sd	a2,-1504(s0)
    2384:	00008293          	mv	t0,ra
    2388:	02198533          	mul	a0,s3,ra
    238c:	a2843603          	ld	a2,-1496(s0)
    2390:	00c50633          	add	a2,a0,a2
    2394:	a2c43423          	sd	a2,-1496(s0)
    2398:	03798533          	mul	a0,s3,s7
    239c:	a3043603          	ld	a2,-1488(s0)
    23a0:	00c50633          	add	a2,a0,a2
    23a4:	a2c43823          	sd	a2,-1488(s0)
    23a8:	03698533          	mul	a0,s3,s6
    23ac:	000b0093          	mv	ra,s6
    23b0:	a3843603          	ld	a2,-1480(s0)
    23b4:	00c50633          	add	a2,a0,a2
    23b8:	a2c43c23          	sd	a2,-1480(s0)
    23bc:	03198533          	mul	a0,s3,a7
    23c0:	00088b93          	mv	s7,a7
    23c4:	00001637          	lui	a2,0x1
    23c8:	40c40633          	sub	a2,s0,a2
    23cc:	69163023          	sd	a7,1664(a2) # 1680 <.LBB67_4+0x510>
    23d0:	a4043603          	ld	a2,-1472(s0)
    23d4:	00c50633          	add	a2,a0,a2
    23d8:	a4c43023          	sd	a2,-1472(s0)
    23dc:	03c98533          	mul	a0,s3,t3
    23e0:	a4843603          	ld	a2,-1464(s0)
    23e4:	00c50633          	add	a2,a0,a2
    23e8:	a4c43423          	sd	a2,-1464(s0)
    23ec:	03d98533          	mul	a0,s3,t4
    23f0:	a5043603          	ld	a2,-1456(s0)
    23f4:	00c50633          	add	a2,a0,a2
    23f8:	a4c43823          	sd	a2,-1456(s0)
    23fc:	03e98533          	mul	a0,s3,t5
    2400:	a5843603          	ld	a2,-1448(s0)
    2404:	00c50633          	add	a2,a0,a2
    2408:	a4c43c23          	sd	a2,-1448(s0)
    240c:	03b98533          	mul	a0,s3,s11
    2410:	a6043603          	ld	a2,-1440(s0)
    2414:	00c50633          	add	a2,a0,a2
    2418:	a6c43023          	sd	a2,-1440(s0)
    241c:	e6843e83          	ld	t4,-408(s0)
    2420:	03d98533          	mul	a0,s3,t4
    2424:	a6843603          	ld	a2,-1432(s0)
    2428:	00c50633          	add	a2,a0,a2
    242c:	a6c43423          	sd	a2,-1432(s0)
    2430:	000a0f13          	mv	t5,s4
    2434:	03498533          	mul	a0,s3,s4
    2438:	a7043603          	ld	a2,-1424(s0)
    243c:	00c50633          	add	a2,a0,a2
    2440:	a6c43823          	sd	a2,-1424(s0)
    2444:	03098533          	mul	a0,s3,a6
    2448:	a7843603          	ld	a2,-1416(s0)
    244c:	00c50633          	add	a2,a0,a2
    2450:	a6c43c23          	sd	a2,-1416(s0)
    2454:	03998533          	mul	a0,s3,s9
    2458:	a8043603          	ld	a2,-1408(s0)
    245c:	00c50633          	add	a2,a0,a2
    2460:	a8c43023          	sd	a2,-1408(s0)
    2464:	f3043a03          	ld	s4,-208(s0)
    2468:	03498533          	mul	a0,s3,s4
    246c:	a8843603          	ld	a2,-1400(s0)
    2470:	00c50633          	add	a2,a0,a2
    2474:	a8c43423          	sd	a2,-1400(s0)
    2478:	f8043503          	ld	a0,-128(s0)
    247c:	f4050503          	lb	a0,-192(a0)
    2480:	000f8313          	mv	t1,t6
    2484:	e7f43c23          	sd	t6,-392(s0)
    2488:	03f98c33          	mul	s8,s3,t6
    248c:	a9043603          	ld	a2,-1392(s0)
    2490:	00cc0633          	add	a2,s8,a2
    2494:	a8c43823          	sd	a2,-1392(s0)
    2498:	f2843f83          	ld	t6,-216(s0)
    249c:	03f989b3          	mul	s3,s3,t6
    24a0:	a9843603          	ld	a2,-1384(s0)
    24a4:	00c98633          	add	a2,s3,a2
    24a8:	a8c43c23          	sd	a2,-1384(s0)
    24ac:	02e509b3          	mul	s3,a0,a4
    24b0:	ab843603          	ld	a2,-1352(s0)
    24b4:	00c98633          	add	a2,s3,a2
    24b8:	aac43c23          	sd	a2,-1352(s0)
    24bc:	02d509b3          	mul	s3,a0,a3
    24c0:	ab043603          	ld	a2,-1360(s0)
    24c4:	00c98633          	add	a2,s3,a2
    24c8:	aac43823          	sd	a2,-1360(s0)
    24cc:	035509b3          	mul	s3,a0,s5
    24d0:	aa843603          	ld	a2,-1368(s0)
    24d4:	00c98633          	add	a2,s3,a2
    24d8:	aac43423          	sd	a2,-1368(s0)
    24dc:	02f509b3          	mul	s3,a0,a5
    24e0:	aa043603          	ld	a2,-1376(s0)
    24e4:	00c98633          	add	a2,s3,a2
    24e8:	aac43023          	sd	a2,-1376(s0)
    24ec:	029509b3          	mul	s3,a0,s1
    24f0:	ac043603          	ld	a2,-1344(s0)
    24f4:	00c98633          	add	a2,s3,a2
    24f8:	acc43023          	sd	a2,-1344(s0)
    24fc:	032509b3          	mul	s3,a0,s2
    2500:	ac843603          	ld	a2,-1336(s0)
    2504:	00c98633          	add	a2,s3,a2
    2508:	acc43423          	sd	a2,-1336(s0)
    250c:	f7843c83          	ld	s9,-136(s0)
    2510:	039509b3          	mul	s3,a0,s9
    2514:	ad043603          	ld	a2,-1328(s0)
    2518:	00c98633          	add	a2,s3,a2
    251c:	acc43823          	sd	a2,-1328(s0)
    2520:	f7043683          	ld	a3,-144(s0)
    2524:	02d509b3          	mul	s3,a0,a3
    2528:	ad843603          	ld	a2,-1320(s0)
    252c:	00c98633          	add	a2,s3,a2
    2530:	acc43c23          	sd	a2,-1320(s0)
    2534:	f6843703          	ld	a4,-152(s0)
    2538:	02e509b3          	mul	s3,a0,a4
    253c:	ae043603          	ld	a2,-1312(s0)
    2540:	00c98633          	add	a2,s3,a2
    2544:	aec43023          	sd	a2,-1312(s0)
    2548:	000d0813          	mv	a6,s10
    254c:	03a509b3          	mul	s3,a0,s10
    2550:	ae843603          	ld	a2,-1304(s0)
    2554:	00c98633          	add	a2,s3,a2
    2558:	aec43423          	sd	a2,-1304(s0)
    255c:	eb043b03          	ld	s6,-336(s0)
    2560:	036509b3          	mul	s3,a0,s6
    2564:	af043603          	ld	a2,-1296(s0)
    2568:	00c98633          	add	a2,s3,a2
    256c:	aec43823          	sd	a2,-1296(s0)
    2570:	ea843903          	ld	s2,-344(s0)
    2574:	032509b3          	mul	s3,a0,s2
    2578:	af843603          	ld	a2,-1288(s0)
    257c:	00c98633          	add	a2,s3,a2
    2580:	aec43c23          	sd	a2,-1288(s0)
    2584:	f6043603          	ld	a2,-160(s0)
    2588:	02c509b3          	mul	s3,a0,a2
    258c:	b0043603          	ld	a2,-1280(s0)
    2590:	00c98633          	add	a2,s3,a2
    2594:	b0c43023          	sd	a2,-1280(s0)
    2598:	027509b3          	mul	s3,a0,t2
    259c:	b0843603          	ld	a2,-1272(s0)
    25a0:	00c98633          	add	a2,s3,a2
    25a4:	b0c43423          	sd	a2,-1272(s0)
    25a8:	ea043d03          	ld	s10,-352(s0)
    25ac:	03a509b3          	mul	s3,a0,s10
    25b0:	b1043603          	ld	a2,-1264(s0)
    25b4:	00c98633          	add	a2,s3,a2
    25b8:	b0c43823          	sd	a2,-1264(s0)
    25bc:	02b509b3          	mul	s3,a0,a1
    25c0:	b1843603          	ld	a2,-1256(s0)
    25c4:	00c98633          	add	a2,s3,a2
    25c8:	b0c43c23          	sd	a2,-1256(s0)
    25cc:	f5043883          	ld	a7,-176(s0)
    25d0:	031509b3          	mul	s3,a0,a7
    25d4:	b2043603          	ld	a2,-1248(s0)
    25d8:	00c98633          	add	a2,s3,a2
    25dc:	b2c43023          	sd	a2,-1248(s0)
    25e0:	025509b3          	mul	s3,a0,t0
    25e4:	b2843603          	ld	a2,-1240(s0)
    25e8:	00c98633          	add	a2,s3,a2
    25ec:	b2c43423          	sd	a2,-1240(s0)
    25f0:	ec043383          	ld	t2,-320(s0)
    25f4:	027509b3          	mul	s3,a0,t2
    25f8:	b3043603          	ld	a2,-1232(s0)
    25fc:	00c98633          	add	a2,s3,a2
    2600:	b2c43823          	sd	a2,-1232(s0)
    2604:	021509b3          	mul	s3,a0,ra
    2608:	b3843603          	ld	a2,-1224(s0)
    260c:	00c98633          	add	a2,s3,a2
    2610:	b2c43c23          	sd	a2,-1224(s0)
    2614:	037509b3          	mul	s3,a0,s7
    2618:	b4043603          	ld	a2,-1216(s0)
    261c:	00c98633          	add	a2,s3,a2
    2620:	b4c43023          	sd	a2,-1216(s0)
    2624:	03c509b3          	mul	s3,a0,t3
    2628:	b4843603          	ld	a2,-1208(s0)
    262c:	00c98633          	add	a2,s3,a2
    2630:	b4c43423          	sd	a2,-1208(s0)
    2634:	f4843603          	ld	a2,-184(s0)
    2638:	02c509b3          	mul	s3,a0,a2
    263c:	b5043603          	ld	a2,-1200(s0)
    2640:	00c98633          	add	a2,s3,a2
    2644:	b4c43823          	sd	a2,-1200(s0)
    2648:	f3843483          	ld	s1,-200(s0)
    264c:	029509b3          	mul	s3,a0,s1
    2650:	b5843603          	ld	a2,-1192(s0)
    2654:	00c98633          	add	a2,s3,a2
    2658:	b4c43c23          	sd	a2,-1192(s0)
    265c:	03b509b3          	mul	s3,a0,s11
    2660:	b6043603          	ld	a2,-1184(s0)
    2664:	00c98633          	add	a2,s3,a2
    2668:	b6c43023          	sd	a2,-1184(s0)
    266c:	03d509b3          	mul	s3,a0,t4
    2670:	000e8d93          	mv	s11,t4
    2674:	b6843603          	ld	a2,-1176(s0)
    2678:	00c98633          	add	a2,s3,a2
    267c:	b6c43423          	sd	a2,-1176(s0)
    2680:	03e509b3          	mul	s3,a0,t5
    2684:	000f0b93          	mv	s7,t5
    2688:	b7043603          	ld	a2,-1168(s0)
    268c:	00c98633          	add	a2,s3,a2
    2690:	b6c43823          	sd	a2,-1168(s0)
    2694:	e5043083          	ld	ra,-432(s0)
    2698:	021509b3          	mul	s3,a0,ra
    269c:	b7843603          	ld	a2,-1160(s0)
    26a0:	00c98633          	add	a2,s3,a2
    26a4:	b6c43c23          	sd	a2,-1160(s0)
    26a8:	e8043e03          	ld	t3,-384(s0)
    26ac:	03c509b3          	mul	s3,a0,t3
    26b0:	b8043603          	ld	a2,-1152(s0)
    26b4:	00c98633          	add	a2,s3,a2
    26b8:	b8c43023          	sd	a2,-1152(s0)
    26bc:	034509b3          	mul	s3,a0,s4
    26c0:	b8843603          	ld	a2,-1144(s0)
    26c4:	00c98633          	add	a2,s3,a2
    26c8:	b8c43423          	sd	a2,-1144(s0)
    26cc:	f8043603          	ld	a2,-128(s0)
    26d0:	f8060983          	lb	s3,-128(a2)
    26d4:	02650c33          	mul	s8,a0,t1
    26d8:	b9043603          	ld	a2,-1136(s0)
    26dc:	00cc0633          	add	a2,s8,a2
    26e0:	b8c43823          	sd	a2,-1136(s0)
    26e4:	03f50533          	mul	a0,a0,t6
    26e8:	b9843603          	ld	a2,-1128(s0)
    26ec:	00c50633          	add	a2,a0,a2
    26f0:	b8c43c23          	sd	a2,-1128(s0)
    26f4:	e8843a03          	ld	s4,-376(s0)
    26f8:	03498533          	mul	a0,s3,s4
    26fc:	bb843603          	ld	a2,-1096(s0)
    2700:	00c50633          	add	a2,a0,a2
    2704:	bac43c23          	sd	a2,-1096(s0)
    2708:	f1043783          	ld	a5,-240(s0)
    270c:	02f98533          	mul	a0,s3,a5
    2710:	bb043603          	ld	a2,-1104(s0)
    2714:	00c50633          	add	a2,a0,a2
    2718:	bac43823          	sd	a2,-1104(s0)
    271c:	03598533          	mul	a0,s3,s5
    2720:	ba843603          	ld	a2,-1112(s0)
    2724:	00c50633          	add	a2,a0,a2
    2728:	bac43423          	sd	a2,-1112(s0)
    272c:	f2043303          	ld	t1,-224(s0)
    2730:	02698533          	mul	a0,s3,t1
    2734:	ba043603          	ld	a2,-1120(s0)
    2738:	00c50633          	add	a2,a0,a2
    273c:	bac43023          	sd	a2,-1120(s0)
    2740:	f1843e83          	ld	t4,-232(s0)
    2744:	03d98533          	mul	a0,s3,t4
    2748:	bc043603          	ld	a2,-1088(s0)
    274c:	00c50633          	add	a2,a0,a2
    2750:	bcc43023          	sd	a2,-1088(s0)
    2754:	f5843f03          	ld	t5,-168(s0)
    2758:	03e98533          	mul	a0,s3,t5
    275c:	bc843603          	ld	a2,-1080(s0)
    2760:	00c50633          	add	a2,a0,a2
    2764:	bcc43423          	sd	a2,-1080(s0)
    2768:	03998533          	mul	a0,s3,s9
    276c:	bd043603          	ld	a2,-1072(s0)
    2770:	00c50633          	add	a2,a0,a2
    2774:	bcc43823          	sd	a2,-1072(s0)
    2778:	02d98533          	mul	a0,s3,a3
    277c:	bd843603          	ld	a2,-1064(s0)
    2780:	00c50633          	add	a2,a0,a2
    2784:	bcc43c23          	sd	a2,-1064(s0)
    2788:	02e98533          	mul	a0,s3,a4
    278c:	be043603          	ld	a2,-1056(s0)
    2790:	00c50633          	add	a2,a0,a2
    2794:	bec43023          	sd	a2,-1056(s0)
    2798:	03098533          	mul	a0,s3,a6
    279c:	be843603          	ld	a2,-1048(s0)
    27a0:	00c50633          	add	a2,a0,a2
    27a4:	bec43423          	sd	a2,-1048(s0)
    27a8:	03698533          	mul	a0,s3,s6
    27ac:	bf043603          	ld	a2,-1040(s0)
    27b0:	00c50633          	add	a2,a0,a2
    27b4:	bec43823          	sd	a2,-1040(s0)
    27b8:	03298533          	mul	a0,s3,s2
    27bc:	bf843603          	ld	a2,-1032(s0)
    27c0:	00c50633          	add	a2,a0,a2
    27c4:	bec43c23          	sd	a2,-1032(s0)
    27c8:	f6043683          	ld	a3,-160(s0)
    27cc:	02d98533          	mul	a0,s3,a3
    27d0:	c0043603          	ld	a2,-1024(s0)
    27d4:	00c50633          	add	a2,a0,a2
    27d8:	c0c43023          	sd	a2,-1024(s0)
    27dc:	00001537          	lui	a0,0x1
    27e0:	40a40533          	sub	a0,s0,a0
    27e4:	67853a83          	ld	s5,1656(a0) # 1678 <.LBB67_4+0x508>
    27e8:	03598533          	mul	a0,s3,s5
    27ec:	c0843603          	ld	a2,-1016(s0)
    27f0:	00c50633          	add	a2,a0,a2
    27f4:	c0c43423          	sd	a2,-1016(s0)
    27f8:	03a98533          	mul	a0,s3,s10
    27fc:	c1043603          	ld	a2,-1008(s0)
    2800:	00c50633          	add	a2,a0,a2
    2804:	c0c43823          	sd	a2,-1008(s0)
    2808:	02b98533          	mul	a0,s3,a1
    280c:	c1843603          	ld	a2,-1000(s0)
    2810:	00c50633          	add	a2,a0,a2
    2814:	c0c43c23          	sd	a2,-1000(s0)
    2818:	03198533          	mul	a0,s3,a7
    281c:	c2043603          	ld	a2,-992(s0)
    2820:	00c50633          	add	a2,a0,a2
    2824:	c2c43023          	sd	a2,-992(s0)
    2828:	02598533          	mul	a0,s3,t0
    282c:	00028913          	mv	s2,t0
    2830:	c2843603          	ld	a2,-984(s0)
    2834:	00c50633          	add	a2,a0,a2
    2838:	c2c43423          	sd	a2,-984(s0)
    283c:	02798533          	mul	a0,s3,t2
    2840:	c3043603          	ld	a2,-976(s0)
    2844:	00c50633          	add	a2,a0,a2
    2848:	c2c43823          	sd	a2,-976(s0)
    284c:	e7043883          	ld	a7,-400(s0)
    2850:	03198533          	mul	a0,s3,a7
    2854:	c3843603          	ld	a2,-968(s0)
    2858:	00c50633          	add	a2,a0,a2
    285c:	c2c43c23          	sd	a2,-968(s0)
    2860:	00001537          	lui	a0,0x1
    2864:	40a40533          	sub	a0,s0,a0
    2868:	68053283          	ld	t0,1664(a0) # 1680 <.LBB67_4+0x510>
    286c:	02598533          	mul	a0,s3,t0
    2870:	c4043603          	ld	a2,-960(s0)
    2874:	00c50633          	add	a2,a0,a2
    2878:	c4c43023          	sd	a2,-960(s0)
    287c:	eb843583          	ld	a1,-328(s0)
    2880:	02b98533          	mul	a0,s3,a1
    2884:	c4843603          	ld	a2,-952(s0)
    2888:	00c50633          	add	a2,a0,a2
    288c:	c4c43423          	sd	a2,-952(s0)
    2890:	f4843803          	ld	a6,-184(s0)
    2894:	03098533          	mul	a0,s3,a6
    2898:	c5043603          	ld	a2,-944(s0)
    289c:	00c50633          	add	a2,a0,a2
    28a0:	c4c43823          	sd	a2,-944(s0)
    28a4:	02998533          	mul	a0,s3,s1
    28a8:	c5843603          	ld	a2,-936(s0)
    28ac:	00c50633          	add	a2,a0,a2
    28b0:	c4c43c23          	sd	a2,-936(s0)
    28b4:	e5843483          	ld	s1,-424(s0)
    28b8:	02998533          	mul	a0,s3,s1
    28bc:	c6043603          	ld	a2,-928(s0)
    28c0:	00c50633          	add	a2,a0,a2
    28c4:	c6c43023          	sd	a2,-928(s0)
    28c8:	000d8f93          	mv	t6,s11
    28cc:	03b98533          	mul	a0,s3,s11
    28d0:	c6843603          	ld	a2,-920(s0)
    28d4:	00c50633          	add	a2,a0,a2
    28d8:	c6c43423          	sd	a2,-920(s0)
    28dc:	03798533          	mul	a0,s3,s7
    28e0:	c7043603          	ld	a2,-912(s0)
    28e4:	00c50633          	add	a2,a0,a2
    28e8:	c6c43823          	sd	a2,-912(s0)
    28ec:	00008713          	mv	a4,ra
    28f0:	02198533          	mul	a0,s3,ra
    28f4:	c7843603          	ld	a2,-904(s0)
    28f8:	00c50633          	add	a2,a0,a2
    28fc:	c6c43c23          	sd	a2,-904(s0)
    2900:	03c98533          	mul	a0,s3,t3
    2904:	c8043603          	ld	a2,-896(s0)
    2908:	00c50633          	add	a2,a0,a2
    290c:	c8c43023          	sd	a2,-896(s0)
    2910:	f3043503          	ld	a0,-208(s0)
    2914:	02a98533          	mul	a0,s3,a0
    2918:	c8843603          	ld	a2,-888(s0)
    291c:	00c50633          	add	a2,a0,a2
    2920:	c8c43423          	sd	a2,-888(s0)
    2924:	f8043503          	ld	a0,-128(s0)
    2928:	fc050503          	lb	a0,-64(a0)
    292c:	e7843603          	ld	a2,-392(s0)
    2930:	02c98c33          	mul	s8,s3,a2
    2934:	c9043603          	ld	a2,-880(s0)
    2938:	00cc0633          	add	a2,s8,a2
    293c:	c8c43823          	sd	a2,-880(s0)
    2940:	f2843603          	ld	a2,-216(s0)
    2944:	02c989b3          	mul	s3,s3,a2
    2948:	c9843603          	ld	a2,-872(s0)
    294c:	00c98633          	add	a2,s3,a2
    2950:	c8c43c23          	sd	a2,-872(s0)
    2954:	034509b3          	mul	s3,a0,s4
    2958:	cb843603          	ld	a2,-840(s0)
    295c:	00c98633          	add	a2,s3,a2
    2960:	cac43c23          	sd	a2,-840(s0)
    2964:	02f509b3          	mul	s3,a0,a5
    2968:	cb043603          	ld	a2,-848(s0)
    296c:	00c98633          	add	a2,s3,a2
    2970:	cac43823          	sd	a2,-848(s0)
    2974:	f4043603          	ld	a2,-192(s0)
    2978:	02c509b3          	mul	s3,a0,a2
    297c:	ca843603          	ld	a2,-856(s0)
    2980:	00c98633          	add	a2,s3,a2
    2984:	cac43423          	sd	a2,-856(s0)
    2988:	026509b3          	mul	s3,a0,t1
    298c:	ca043603          	ld	a2,-864(s0)
    2990:	00c98633          	add	a2,s3,a2
    2994:	cac43023          	sd	a2,-864(s0)
    2998:	03d509b3          	mul	s3,a0,t4
    299c:	cc043603          	ld	a2,-832(s0)
    29a0:	00c98633          	add	a2,s3,a2
    29a4:	ccc43023          	sd	a2,-832(s0)
    29a8:	03e509b3          	mul	s3,a0,t5
    29ac:	cc843603          	ld	a2,-824(s0)
    29b0:	00c98633          	add	a2,s3,a2
    29b4:	ccc43423          	sd	a2,-824(s0)
    29b8:	039509b3          	mul	s3,a0,s9
    29bc:	cd043603          	ld	a2,-816(s0)
    29c0:	00c98633          	add	a2,s3,a2
    29c4:	ccc43823          	sd	a2,-816(s0)
    29c8:	f7043603          	ld	a2,-144(s0)
    29cc:	02c509b3          	mul	s3,a0,a2
    29d0:	cd843603          	ld	a2,-808(s0)
    29d4:	00c98633          	add	a2,s3,a2
    29d8:	ccc43c23          	sd	a2,-808(s0)
    29dc:	f6843083          	ld	ra,-152(s0)
    29e0:	021509b3          	mul	s3,a0,ra
    29e4:	ce043603          	ld	a2,-800(s0)
    29e8:	00c98633          	add	a2,s3,a2
    29ec:	cec43023          	sd	a2,-800(s0)
    29f0:	e9043c83          	ld	s9,-368(s0)
    29f4:	039509b3          	mul	s3,a0,s9
    29f8:	ce843603          	ld	a2,-792(s0)
    29fc:	00c98633          	add	a2,s3,a2
    2a00:	cec43423          	sd	a2,-792(s0)
    2a04:	000b0b93          	mv	s7,s6
    2a08:	036509b3          	mul	s3,a0,s6
    2a0c:	cf043603          	ld	a2,-784(s0)
    2a10:	00c98633          	add	a2,s3,a2
    2a14:	cec43823          	sd	a2,-784(s0)
    2a18:	ea843b03          	ld	s6,-344(s0)
    2a1c:	036509b3          	mul	s3,a0,s6
    2a20:	cf843603          	ld	a2,-776(s0)
    2a24:	00c98633          	add	a2,s3,a2
    2a28:	cec43c23          	sd	a2,-776(s0)
    2a2c:	02d509b3          	mul	s3,a0,a3
    2a30:	d0043603          	ld	a2,-768(s0)
    2a34:	00c98633          	add	a2,s3,a2
    2a38:	d0c43023          	sd	a2,-768(s0)
    2a3c:	000a8d93          	mv	s11,s5
    2a40:	035509b3          	mul	s3,a0,s5
    2a44:	d0843603          	ld	a2,-760(s0)
    2a48:	00c98633          	add	a2,s3,a2
    2a4c:	d0c43423          	sd	a2,-760(s0)
    2a50:	000d0a93          	mv	s5,s10
    2a54:	03a509b3          	mul	s3,a0,s10
    2a58:	d1043603          	ld	a2,-752(s0)
    2a5c:	00c98633          	add	a2,s3,a2
    2a60:	d0c43823          	sd	a2,-752(s0)
    2a64:	e9843e83          	ld	t4,-360(s0)
    2a68:	03d509b3          	mul	s3,a0,t4
    2a6c:	d1843603          	ld	a2,-744(s0)
    2a70:	00c98633          	add	a2,s3,a2
    2a74:	d0c43c23          	sd	a2,-744(s0)
    2a78:	f5043e03          	ld	t3,-176(s0)
    2a7c:	03c509b3          	mul	s3,a0,t3
    2a80:	d2043603          	ld	a2,-736(s0)
    2a84:	00c98633          	add	a2,s3,a2
    2a88:	d2c43023          	sd	a2,-736(s0)
    2a8c:	032509b3          	mul	s3,a0,s2
    2a90:	00090d13          	mv	s10,s2
    2a94:	d2843603          	ld	a2,-728(s0)
    2a98:	00c98633          	add	a2,s3,a2
    2a9c:	d2c43423          	sd	a2,-728(s0)
    2aa0:	027509b3          	mul	s3,a0,t2
    2aa4:	d3043603          	ld	a2,-720(s0)
    2aa8:	00c98633          	add	a2,s3,a2
    2aac:	d2c43823          	sd	a2,-720(s0)
    2ab0:	031509b3          	mul	s3,a0,a7
    2ab4:	00088a13          	mv	s4,a7
    2ab8:	d3843603          	ld	a2,-712(s0)
    2abc:	00c98633          	add	a2,s3,a2
    2ac0:	d2c43c23          	sd	a2,-712(s0)
    2ac4:	025509b3          	mul	s3,a0,t0
    2ac8:	00028913          	mv	s2,t0
    2acc:	d4043603          	ld	a2,-704(s0)
    2ad0:	00c98633          	add	a2,s3,a2
    2ad4:	d4c43023          	sd	a2,-704(s0)
    2ad8:	02b509b3          	mul	s3,a0,a1
    2adc:	00058f13          	mv	t5,a1
    2ae0:	d4843603          	ld	a2,-696(s0)
    2ae4:	00c98633          	add	a2,s3,a2
    2ae8:	d4c43423          	sd	a2,-696(s0)
    2aec:	00080313          	mv	t1,a6
    2af0:	030509b3          	mul	s3,a0,a6
    2af4:	d5043603          	ld	a2,-688(s0)
    2af8:	00c98633          	add	a2,s3,a2
    2afc:	d4c43823          	sd	a2,-688(s0)
    2b00:	f3843283          	ld	t0,-200(s0)
    2b04:	025509b3          	mul	s3,a0,t0
    2b08:	d5843603          	ld	a2,-680(s0)
    2b0c:	00c98633          	add	a2,s3,a2
    2b10:	d4c43c23          	sd	a2,-680(s0)
    2b14:	029509b3          	mul	s3,a0,s1
    2b18:	d6043603          	ld	a2,-672(s0)
    2b1c:	00c98633          	add	a2,s3,a2
    2b20:	d6c43023          	sd	a2,-672(s0)
    2b24:	000f8893          	mv	a7,t6
    2b28:	03f509b3          	mul	s3,a0,t6
    2b2c:	d6843603          	ld	a2,-664(s0)
    2b30:	00c98633          	add	a2,s3,a2
    2b34:	d6c43423          	sd	a2,-664(s0)
    2b38:	e6043803          	ld	a6,-416(s0)
    2b3c:	030509b3          	mul	s3,a0,a6
    2b40:	d7043603          	ld	a2,-656(s0)
    2b44:	00c98633          	add	a2,s3,a2
    2b48:	d6c43823          	sd	a2,-656(s0)
    2b4c:	00070793          	mv	a5,a4
    2b50:	02e509b3          	mul	s3,a0,a4
    2b54:	d7843603          	ld	a2,-648(s0)
    2b58:	00c98633          	add	a2,s3,a2
    2b5c:	d6c43c23          	sd	a2,-648(s0)
    2b60:	e8043703          	ld	a4,-384(s0)
    2b64:	02e509b3          	mul	s3,a0,a4
    2b68:	d8043603          	ld	a2,-640(s0)
    2b6c:	00c98633          	add	a2,s3,a2
    2b70:	d8c43023          	sd	a2,-640(s0)
    2b74:	f3043683          	ld	a3,-208(s0)
    2b78:	02d509b3          	mul	s3,a0,a3
    2b7c:	d8843603          	ld	a2,-632(s0)
    2b80:	00c98633          	add	a2,s3,a2
    2b84:	d8c43423          	sd	a2,-632(s0)
    2b88:	f8043603          	ld	a2,-128(s0)
    2b8c:	00060983          	lb	s3,0(a2)
    2b90:	e7843583          	ld	a1,-392(s0)
    2b94:	02b50c33          	mul	s8,a0,a1
    2b98:	d9043603          	ld	a2,-624(s0)
    2b9c:	00cc0633          	add	a2,s8,a2
    2ba0:	d8c43823          	sd	a2,-624(s0)
    2ba4:	f2843f83          	ld	t6,-216(s0)
    2ba8:	03f50533          	mul	a0,a0,t6
    2bac:	d9843603          	ld	a2,-616(s0)
    2bb0:	00c50633          	add	a2,a0,a2
    2bb4:	d8c43c23          	sd	a2,-616(s0)
    2bb8:	03f98533          	mul	a0,s3,t6
    2bbc:	f2a43423          	sd	a0,-216(s0)
    2bc0:	02b98533          	mul	a0,s3,a1
    2bc4:	e6a43c23          	sd	a0,-392(s0)
    2bc8:	02d98533          	mul	a0,s3,a3
    2bcc:	000015b7          	lui	a1,0x1
    2bd0:	40b405b3          	sub	a1,s0,a1
    2bd4:	66a5b823          	sd	a0,1648(a1) # 1670 <.LBB67_4+0x500>
    2bd8:	02e98533          	mul	a0,s3,a4
    2bdc:	000015b7          	lui	a1,0x1
    2be0:	40b405b3          	sub	a1,s0,a1
    2be4:	66a5b423          	sd	a0,1640(a1) # 1668 <.LBB67_4+0x4f8>
    2be8:	02f98533          	mul	a0,s3,a5
    2bec:	e4a43823          	sd	a0,-432(s0)
    2bf0:	03098533          	mul	a0,s3,a6
    2bf4:	f2a43823          	sd	a0,-208(s0)
    2bf8:	03198533          	mul	a0,s3,a7
    2bfc:	e8a43023          	sd	a0,-384(s0)
    2c00:	02998533          	mul	a0,s3,s1
    2c04:	e6a43423          	sd	a0,-408(s0)
    2c08:	02598533          	mul	a0,s3,t0
    2c0c:	f2a43c23          	sd	a0,-200(s0)
    2c10:	026984b3          	mul	s1,s3,t1
    2c14:	03e98fb3          	mul	t6,s3,t5
    2c18:	03298333          	mul	t1,s3,s2
    2c1c:	034988b3          	mul	a7,s3,s4
    2c20:	027982b3          	mul	t0,s3,t2
    2c24:	03a98833          	mul	a6,s3,s10
    2c28:	03c98f33          	mul	t5,s3,t3
    2c2c:	03d98933          	mul	s2,s3,t4
    2c30:	03598a33          	mul	s4,s3,s5
    2c34:	03b98ab3          	mul	s5,s3,s11
    2c38:	f6043503          	ld	a0,-160(s0)
    2c3c:	02a98c33          	mul	s8,s3,a0
    2c40:	03698d33          	mul	s10,s3,s6
    2c44:	03798b33          	mul	s6,s3,s7
    2c48:	03998bb3          	mul	s7,s3,s9
    2c4c:	02198db3          	mul	s11,s3,ra
    2c50:	f7043503          	ld	a0,-144(s0)
    2c54:	02a980b3          	mul	ra,s3,a0
    2c58:	f7843503          	ld	a0,-136(s0)
    2c5c:	02a98733          	mul	a4,s3,a0
    2c60:	f5843503          	ld	a0,-168(s0)
    2c64:	02a98cb3          	mul	s9,s3,a0
    2c68:	f1843503          	ld	a0,-232(s0)
    2c6c:	02a986b3          	mul	a3,s3,a0
    2c70:	f2043503          	ld	a0,-224(s0)
    2c74:	02a98633          	mul	a2,s3,a0
    2c78:	f4043503          	ld	a0,-192(s0)
    2c7c:	02a985b3          	mul	a1,s3,a0
    2c80:	f1043503          	ld	a0,-240(s0)
    2c84:	02a98533          	mul	a0,s3,a0
    2c88:	e8843783          	ld	a5,-376(s0)
    2c8c:	02f989b3          	mul	s3,s3,a5
    2c90:	db843783          	ld	a5,-584(s0)
    2c94:	00f987b3          	add	a5,s3,a5
    2c98:	daf43c23          	sd	a5,-584(s0)
    2c9c:	000017b7          	lui	a5,0x1
    2ca0:	40f407b3          	sub	a5,s0,a5
    2ca4:	6987b983          	ld	s3,1688(a5) # 1698 <.LBB67_4+0x528>
    2ca8:	db043783          	ld	a5,-592(s0)
    2cac:	00f507b3          	add	a5,a0,a5
    2cb0:	daf43823          	sd	a5,-592(s0)
    2cb4:	da843503          	ld	a0,-600(s0)
    2cb8:	00a58533          	add	a0,a1,a0
    2cbc:	daa43423          	sd	a0,-600(s0)
    2cc0:	da043503          	ld	a0,-608(s0)
    2cc4:	00a60533          	add	a0,a2,a0
    2cc8:	daa43023          	sd	a0,-608(s0)
    2ccc:	dc043503          	ld	a0,-576(s0)
    2cd0:	00a68533          	add	a0,a3,a0
    2cd4:	dca43023          	sd	a0,-576(s0)
    2cd8:	dc843503          	ld	a0,-568(s0)
    2cdc:	00ac8533          	add	a0,s9,a0
    2ce0:	dca43423          	sd	a0,-568(s0)
    2ce4:	dd043503          	ld	a0,-560(s0)
    2ce8:	00a70533          	add	a0,a4,a0
    2cec:	dca43823          	sd	a0,-560(s0)
    2cf0:	ec843503          	ld	a0,-312(s0)
    2cf4:	00a08533          	add	a0,ra,a0
    2cf8:	eca43423          	sd	a0,-312(s0)
    2cfc:	ec843083          	ld	ra,-312(s0)
    2d00:	ed043503          	ld	a0,-304(s0)
    2d04:	00ad8533          	add	a0,s11,a0
    2d08:	eca43823          	sd	a0,-304(s0)
    2d0c:	ed043c83          	ld	s9,-304(s0)
    2d10:	ed843503          	ld	a0,-296(s0)
    2d14:	00ab8533          	add	a0,s7,a0
    2d18:	eca43c23          	sd	a0,-296(s0)
    2d1c:	ed843b83          	ld	s7,-296(s0)
    2d20:	dd843503          	ld	a0,-552(s0)
    2d24:	00ab0533          	add	a0,s6,a0
    2d28:	dca43c23          	sd	a0,-552(s0)
    2d2c:	ee043503          	ld	a0,-288(s0)
    2d30:	00ad0533          	add	a0,s10,a0
    2d34:	de843d03          	ld	s10,-536(s0)
    2d38:	eea43023          	sd	a0,-288(s0)
    2d3c:	ee043b03          	ld	s6,-288(s0)
    2d40:	ee843503          	ld	a0,-280(s0)
    2d44:	00ac0533          	add	a0,s8,a0
    2d48:	000015b7          	lui	a1,0x1
    2d4c:	40b405b3          	sub	a1,s0,a1
    2d50:	6a05bd83          	ld	s11,1696(a1) # 16a0 <.LBB67_4+0x530>
    2d54:	eea43423          	sd	a0,-280(s0)
    2d58:	ee843703          	ld	a4,-280(s0)
    2d5c:	ef043503          	ld	a0,-272(s0)
    2d60:	00aa8533          	add	a0,s5,a0
    2d64:	eea43823          	sd	a0,-272(s0)
    2d68:	ef043683          	ld	a3,-272(s0)
    2d6c:	ef843503          	ld	a0,-264(s0)
    2d70:	00aa0533          	add	a0,s4,a0
    2d74:	f8843a03          	ld	s4,-120(s0)
    2d78:	eea43c23          	sd	a0,-264(s0)
    2d7c:	ef843603          	ld	a2,-264(s0)
    2d80:	013909b3          	add	s3,s2,s3
    2d84:	de043903          	ld	s2,-544(s0)
    2d88:	012f0933          	add	s2,t5,s2
    2d8c:	df043f03          	ld	t5,-528(s0)
    2d90:	01a80d33          	add	s10,a6,s10
    2d94:	df843e03          	ld	t3,-520(s0)
    2d98:	01e28f33          	add	t5,t0,t5
    2d9c:	e0043383          	ld	t2,-512(s0)
    2da0:	01c88e33          	add	t3,a7,t3
    2da4:	e0843c03          	ld	s8,-504(s0)
    2da8:	007303b3          	add	t2,t1,t2
    2dac:	e1043303          	ld	t1,-496(s0)
    2db0:	018f8c33          	add	s8,t6,s8
    2db4:	e1843283          	ld	t0,-488(s0)
    2db8:	00648333          	add	t1,s1,t1
    2dbc:	e2043883          	ld	a7,-480(s0)
    2dc0:	f0043503          	ld	a0,-256(s0)
    2dc4:	f3843583          	ld	a1,-200(s0)
    2dc8:	00a58533          	add	a0,a1,a0
    2dcc:	000015b7          	lui	a1,0x1
    2dd0:	40b405b3          	sub	a1,s0,a1
    2dd4:	6905bf83          	ld	t6,1680(a1) # 1690 <.LBB67_4+0x520>
    2dd8:	f0a43023          	sd	a0,-256(s0)
    2ddc:	f0043583          	ld	a1,-256(s0)
    2de0:	f0843503          	ld	a0,-248(s0)
    2de4:	e6843783          	ld	a5,-408(s0)
    2de8:	00a78533          	add	a0,a5,a0
    2dec:	f8043483          	ld	s1,-128(s0)
    2df0:	f0a43423          	sd	a0,-248(s0)
    2df4:	f0843503          	ld	a0,-248(s0)
    2df8:	e8043783          	ld	a5,-384(s0)
    2dfc:	005782b3          	add	t0,a5,t0
    2e00:	e2843803          	ld	a6,-472(s0)
    2e04:	f3043783          	ld	a5,-208(s0)
    2e08:	011788b3          	add	a7,a5,a7
    2e0c:	e3043783          	ld	a5,-464(s0)
    2e10:	e5043e83          	ld	t4,-432(s0)
    2e14:	010e8833          	add	a6,t4,a6
    2e18:	00001eb7          	lui	t4,0x1
    2e1c:	41d40eb3          	sub	t4,s0,t4
    2e20:	668ebe83          	ld	t4,1640(t4) # 1668 <.LBB67_4+0x4f8>
    2e24:	00fe87b3          	add	a5,t4,a5
    2e28:	e3843a83          	ld	s5,-456(s0)
    2e2c:	00001eb7          	lui	t4,0x1
    2e30:	41d40eb3          	sub	t4,s0,t4
    2e34:	670ebe83          	ld	t4,1648(t4) # 1670 <.LBB67_4+0x500>
    2e38:	015e8ab3          	add	s5,t4,s5
    2e3c:	e3543c23          	sd	s5,-456(s0)
    2e40:	e4043a83          	ld	s5,-448(s0)
    2e44:	e7843e83          	ld	t4,-392(s0)
    2e48:	015e8ab3          	add	s5,t4,s5
    2e4c:	e5543023          	sd	s5,-448(s0)
    2e50:	e4843a83          	ld	s5,-440(s0)
    2e54:	f2843e83          	ld	t4,-216(s0)
    2e58:	015e8ab3          	add	s5,t4,s5
    2e5c:	e5543423          	sd	s5,-440(s0)
    2e60:	e80f8f93          	addi	t6,t6,-384 # 5e80 <.LBB67_304>
    2e64:	180a0a13          	addi	s4,s4,384
    2e68:	00148493          	addi	s1,s1,1
    2e6c:	000f8463          	beqz	t6,2e74 <.LBB67_6>
    2e70:	885fe06f          	j	16f4 <.LBB67_5>

0000000000002e74 <.LBB67_6>:
    2e74:	00001537          	lui	a0,0x1
    2e78:	40a40533          	sub	a0,s0,a0
    2e7c:	6d053b83          	ld	s7,1744(a0) # 16d0 <.LBB67_4+0x560>
    2e80:	00001537          	lui	a0,0x1
    2e84:	40a40533          	sub	a0,s0,a0
    2e88:	6d853083          	ld	ra,1752(a0) # 16d8 <.LBB67_4+0x568>
    2e8c:	00001537          	lui	a0,0x1
    2e90:	40a40533          	sub	a0,s0,a0
    2e94:	6c853d83          	ld	s11,1736(a0) # 16c8 <.LBB67_4+0x558>
    2e98:	00001537          	lui	a0,0x1
    2e9c:	40a40533          	sub	a0,s0,a0
    2ea0:	6c053b03          	ld	s6,1728(a0) # 16c0 <.LBB67_4+0x550>
    2ea4:	00001537          	lui	a0,0x1
    2ea8:	40a40533          	sub	a0,s0,a0
    2eac:	6b853a83          	ld	s5,1720(a0) # 16b8 <.LBB67_4+0x548>
    2eb0:	00001537          	lui	a0,0x1
    2eb4:	40a40533          	sub	a0,s0,a0
    2eb8:	6b053a03          	ld	s4,1712(a0) # 16b0 <.LBB67_4+0x540>
    2ebc:	00001537          	lui	a0,0x1
    2ec0:	40a40533          	sub	a0,s0,a0
    2ec4:	6a853483          	ld	s1,1704(a0) # 16a8 <.LBB67_4+0x538>
    2ec8:	dfa43423          	sd	s10,-536(s0)
    2ecc:	00001537          	lui	a0,0x1
    2ed0:	40a40533          	sub	a0,s0,a0
    2ed4:	66053503          	ld	a0,1632(a0) # 1660 <.LBB67_4+0x4f0>
    2ed8:	00251513          	slli	a0,a0,0x2
    2edc:	000015b7          	lui	a1,0x1
    2ee0:	40b405b3          	sub	a1,s0,a1
    2ee4:	d785b583          	ld	a1,-648(a1) # d78 <.LBB67_3+0xb64>
    2ee8:	00a585b3          	add	a1,a1,a0
    2eec:	00001637          	lui	a2,0x1
    2ef0:	40c40633          	sub	a2,s0,a2
    2ef4:	65863603          	ld	a2,1624(a2) # 1658 <.LBB67_4+0x4e8>
    2ef8:	00062703          	lw	a4,0(a2)
    2efc:	00001637          	lui	a2,0x1
    2f00:	40c40633          	sub	a2,s0,a2
    2f04:	d7063603          	ld	a2,-656(a2) # d70 <.LBB67_3+0xb5c>
    2f08:	00a60533          	add	a0,a2,a0
    2f0c:	00c52603          	lw	a2,12(a0)
    2f10:	00c5af83          	lw	t6,12(a1)
    2f14:	00171693          	slli	a3,a4,0x1
    2f18:	00e68733          	add	a4,a3,a4
    2f1c:	00361693          	slli	a3,a2,0x3
    2f20:	e9f43823          	sd	t6,-368(s0)
    2f24:	00001637          	lui	a2,0x1
    2f28:	40c40633          	sub	a2,s0,a2
    2f2c:	6e063603          	ld	a2,1760(a2) # 16e0 <.LBB67_4+0x570>
    2f30:	01f60633          	add	a2,a2,t6
    2f34:	e8d43423          	sd	a3,-376(s0)
    2f38:	00d60633          	add	a2,a2,a3
    2f3c:	40e6063b          	subw	a2,a2,a4
    2f40:	a006061b          	addiw	a2,a2,-1536
    2f44:	400006b7          	lui	a3,0x40000
    2f48:	00001eb7          	lui	t4,0x1
    2f4c:	41d40eb3          	sub	t4,s0,t4
    2f50:	02ceb823          	sd	a2,48(t4) # 1030 <.LBB67_3+0xe1c>
    2f54:	00065463          	bgez	a2,2f5c <.LBB67_8>
    2f58:	c00006b7          	lui	a3,0xc0000

0000000000002f5c <.LBB67_8>:
    2f5c:	00001637          	lui	a2,0x1
    2f60:	40c40633          	sub	a2,s0,a2
    2f64:	fed63823          	sd	a3,-16(a2) # ff0 <.LBB67_3+0xddc>
    2f68:	00852603          	lw	a2,8(a0)
    2f6c:	0085a683          	lw	a3,8(a1)
    2f70:	00361f93          	slli	t6,a2,0x3
    2f74:	e8d43023          	sd	a3,-384(s0)
    2f78:	00db8633          	add	a2,s7,a3
    2f7c:	e7f43c23          	sd	t6,-392(s0)
    2f80:	01f60633          	add	a2,a2,t6
    2f84:	40e6063b          	subw	a2,a2,a4
    2f88:	a006061b          	addiw	a2,a2,-1536
    2f8c:	400006b7          	lui	a3,0x40000
    2f90:	00001eb7          	lui	t4,0x1
    2f94:	41d40eb3          	sub	t4,s0,t4
    2f98:	02ceb023          	sd	a2,32(t4) # 1020 <.LBB67_3+0xe0c>
    2f9c:	00048e93          	mv	t4,s1
    2fa0:	000a0c93          	mv	s9,s4
    2fa4:	000a8d13          	mv	s10,s5
    2fa8:	000b0b93          	mv	s7,s6
    2fac:	00065463          	bgez	a2,2fb4 <.LBB67_10>
    2fb0:	c00006b7          	lui	a3,0xc0000

0000000000002fb4 <.LBB67_10>:
    2fb4:	00452603          	lw	a2,4(a0)
    2fb8:	0045af83          	lw	t6,4(a1)
    2fbc:	00361493          	slli	s1,a2,0x3
    2fc0:	e7f43823          	sd	t6,-400(s0)
    2fc4:	01f08633          	add	a2,ra,t6
    2fc8:	e6943423          	sd	s1,-408(s0)
    2fcc:	00960633          	add	a2,a2,s1
    2fd0:	40e6063b          	subw	a2,a2,a4
    2fd4:	a006061b          	addiw	a2,a2,-1536
    2fd8:	40000fb7          	lui	t6,0x40000
    2fdc:	000014b7          	lui	s1,0x1
    2fe0:	409404b3          	sub	s1,s0,s1
    2fe4:	00c4b823          	sd	a2,16(s1) # 1010 <.LBB67_3+0xdfc>
    2fe8:	000014b7          	lui	s1,0x1
    2fec:	409404b3          	sub	s1,s0,s1
    2ff0:	6e84b083          	ld	ra,1768(s1) # 16e8 <.LBB67_4+0x578>
    2ff4:	00065463          	bgez	a2,2ffc <.LBB67_12>
    2ff8:	c0000fb7          	lui	t6,0xc0000

0000000000002ffc <.LBB67_12>:
    2ffc:	00052603          	lw	a2,0(a0)
    3000:	0005a483          	lw	s1,0(a1)
    3004:	00361a13          	slli	s4,a2,0x3
    3008:	e6943023          	sd	s1,-416(s0)
    300c:	00908633          	add	a2,ra,s1
    3010:	e5443c23          	sd	s4,-424(s0)
    3014:	01460633          	add	a2,a2,s4
    3018:	40e6063b          	subw	a2,a2,a4
    301c:	a006061b          	addiw	a2,a2,-1536
    3020:	400004b7          	lui	s1,0x40000
    3024:	00001a37          	lui	s4,0x1
    3028:	41440a33          	sub	s4,s0,s4
    302c:	00ca3023          	sd	a2,0(s4) # 1000 <.LBB67_3+0xdec>
    3030:	00065463          	bgez	a2,3038 <.LBB67_14>
    3034:	c00004b7          	lui	s1,0xc0000

0000000000003038 <.LBB67_14>:
    3038:	01052603          	lw	a2,16(a0)
    303c:	0105aa03          	lw	s4,16(a1)
    3040:	00361a93          	slli	s5,a2,0x3
    3044:	e5443823          	sd	s4,-432(s0)
    3048:	014d8633          	add	a2,s11,s4
    304c:	00001a37          	lui	s4,0x1
    3050:	41440a33          	sub	s4,s0,s4
    3054:	6f5a3423          	sd	s5,1768(s4) # 16e8 <.LBB67_4+0x578>
    3058:	01560633          	add	a2,a2,s5
    305c:	40e6063b          	subw	a2,a2,a4
    3060:	a006061b          	addiw	a2,a2,-1536
    3064:	40000a37          	lui	s4,0x40000
    3068:	00001ab7          	lui	s5,0x1
    306c:	41540ab3          	sub	s5,s0,s5
    3070:	fecab023          	sd	a2,-32(s5) # fe0 <.LBB67_3+0xdcc>
    3074:	00065463          	bgez	a2,307c <.LBB67_16>
    3078:	c0000a37          	lui	s4,0xc0000

000000000000307c <.LBB67_16>:
    307c:	01452603          	lw	a2,20(a0)
    3080:	0145aa83          	lw	s5,20(a1)
    3084:	00361b13          	slli	s6,a2,0x3
    3088:	00001637          	lui	a2,0x1
    308c:	40c40633          	sub	a2,s0,a2
    3090:	6f563023          	sd	s5,1760(a2) # 16e0 <.LBB67_4+0x570>
    3094:	015b8633          	add	a2,s7,s5
    3098:	00001ab7          	lui	s5,0x1
    309c:	41540ab3          	sub	s5,s0,s5
    30a0:	6d6abc23          	sd	s6,1752(s5) # 16d8 <.LBB67_4+0x568>
    30a4:	01660633          	add	a2,a2,s6
    30a8:	40e6063b          	subw	a2,a2,a4
    30ac:	a006061b          	addiw	a2,a2,-1536
    30b0:	40000ab7          	lui	s5,0x40000
    30b4:	00001b37          	lui	s6,0x1
    30b8:	41640b33          	sub	s6,s0,s6
    30bc:	fccb3423          	sd	a2,-56(s6) # fc8 <.LBB67_3+0xdb4>
    30c0:	00065463          	bgez	a2,30c8 <.LBB67_18>
    30c4:	c0000ab7          	lui	s5,0xc0000

00000000000030c8 <.LBB67_18>:
    30c8:	01852603          	lw	a2,24(a0)
    30cc:	0185ab03          	lw	s6,24(a1)
    30d0:	00361b93          	slli	s7,a2,0x3
    30d4:	00001637          	lui	a2,0x1
    30d8:	40c40633          	sub	a2,s0,a2
    30dc:	6d663823          	sd	s6,1744(a2) # 16d0 <.LBB67_4+0x560>
    30e0:	016d0633          	add	a2,s10,s6
    30e4:	00001b37          	lui	s6,0x1
    30e8:	41640b33          	sub	s6,s0,s6
    30ec:	6d7b3423          	sd	s7,1736(s6) # 16c8 <.LBB67_4+0x558>
    30f0:	01760633          	add	a2,a2,s7
    30f4:	40e6063b          	subw	a2,a2,a4
    30f8:	a006061b          	addiw	a2,a2,-1536
    30fc:	40000b37          	lui	s6,0x40000
    3100:	00001bb7          	lui	s7,0x1
    3104:	41740bb3          	sub	s7,s0,s7
    3108:	facbbc23          	sd	a2,-72(s7) # fb8 <.LBB67_3+0xda4>
    310c:	00065463          	bgez	a2,3114 <.LBB67_20>
    3110:	c0000b37          	lui	s6,0xc0000

0000000000003114 <.LBB67_20>:
    3114:	00001637          	lui	a2,0x1
    3118:	40c40633          	sub	a2,s0,a2
    311c:	00d63423          	sd	a3,8(a2) # 1008 <.LBB67_3+0xdf4>
    3120:	01c52603          	lw	a2,28(a0)
    3124:	01c5a683          	lw	a3,28(a1)
    3128:	00361b93          	slli	s7,a2,0x3
    312c:	00001637          	lui	a2,0x1
    3130:	40c40633          	sub	a2,s0,a2
    3134:	6cd63023          	sd	a3,1728(a2) # 16c0 <.LBB67_4+0x550>
    3138:	00dc8633          	add	a2,s9,a3
    313c:	000016b7          	lui	a3,0x1
    3140:	40d406b3          	sub	a3,s0,a3
    3144:	6b76bc23          	sd	s7,1720(a3) # 16b8 <.LBB67_4+0x548>
    3148:	01760633          	add	a2,a2,s7
    314c:	40e6063b          	subw	a2,a2,a4
    3150:	a006061b          	addiw	a2,a2,-1536
    3154:	400006b7          	lui	a3,0x40000
    3158:	00001bb7          	lui	s7,0x1
    315c:	41740bb3          	sub	s7,s0,s7
    3160:	facbb023          	sd	a2,-96(s7) # fa0 <.LBB67_3+0xd8c>
    3164:	00065463          	bgez	a2,316c <.LBB67_22>
    3168:	c00006b7          	lui	a3,0xc0000

000000000000316c <.LBB67_22>:
    316c:	00001637          	lui	a2,0x1
    3170:	40c40633          	sub	a2,s0,a2
    3174:	f8d63023          	sd	a3,-128(a2) # f80 <.LBB67_3+0xd6c>
    3178:	00001637          	lui	a2,0x1
    317c:	40c40633          	sub	a2,s0,a2
    3180:	f9663c23          	sd	s6,-104(a2) # f98 <.LBB67_3+0xd84>
    3184:	00001637          	lui	a2,0x1
    3188:	40c40633          	sub	a2,s0,a2
    318c:	fb563423          	sd	s5,-88(a2) # fa8 <.LBB67_3+0xd94>
    3190:	00001637          	lui	a2,0x1
    3194:	40c40633          	sub	a2,s0,a2
    3198:	fd463023          	sd	s4,-64(a2) # fc0 <.LBB67_3+0xdac>
    319c:	00001637          	lui	a2,0x1
    31a0:	40c40633          	sub	a2,s0,a2
    31a4:	fc963c23          	sd	s1,-40(a2) # fd8 <.LBB67_3+0xdc4>
    31a8:	00001637          	lui	a2,0x1
    31ac:	40c40633          	sub	a2,s0,a2
    31b0:	fff63423          	sd	t6,-24(a2) # fe8 <.LBB67_3+0xdd4>
    31b4:	00098693          	mv	a3,s3
    31b8:	df243023          	sd	s2,-544(s0)
    31bc:	dfe43823          	sd	t5,-528(s0)
    31c0:	dfc43c23          	sd	t3,-520(s0)
    31c4:	e0743023          	sd	t2,-512(s0)
    31c8:	e1843423          	sd	s8,-504(s0)
    31cc:	e0643823          	sd	t1,-496(s0)
    31d0:	e0543c23          	sd	t0,-488(s0)
    31d4:	e3143023          	sd	a7,-480(s0)
    31d8:	e3043423          	sd	a6,-472(s0)
    31dc:	e2f43823          	sd	a5,-464(s0)
    31e0:	02052603          	lw	a2,32(a0)
    31e4:	0205a783          	lw	a5,32(a1)
    31e8:	00361813          	slli	a6,a2,0x3
    31ec:	00001637          	lui	a2,0x1
    31f0:	40c40633          	sub	a2,s0,a2
    31f4:	6af63823          	sd	a5,1712(a2) # 16b0 <.LBB67_4+0x540>
    31f8:	00fe8633          	add	a2,t4,a5
    31fc:	000017b7          	lui	a5,0x1
    3200:	40f407b3          	sub	a5,s0,a5
    3204:	6b07b423          	sd	a6,1704(a5) # 16a8 <.LBB67_4+0x538>
    3208:	01060633          	add	a2,a2,a6
    320c:	40e6063b          	subw	a2,a2,a4
    3210:	a006061b          	addiw	a2,a2,-1536
    3214:	400007b7          	lui	a5,0x40000
    3218:	00001837          	lui	a6,0x1
    321c:	41040833          	sub	a6,s0,a6
    3220:	f8c83423          	sd	a2,-120(a6) # f88 <.LBB67_3+0xd74>
    3224:	00065463          	bgez	a2,322c <.LBB67_24>
    3228:	c00007b7          	lui	a5,0xc0000

000000000000322c <.LBB67_24>:
    322c:	00001637          	lui	a2,0x1
    3230:	40c40633          	sub	a2,s0,a2
    3234:	f6f63823          	sd	a5,-144(a2) # f70 <.LBB67_3+0xd5c>
    3238:	07c5a603          	lw	a2,124(a1)
    323c:	f8c43423          	sd	a2,-120(s0)
    3240:	0785a603          	lw	a2,120(a1)
    3244:	f8c43023          	sd	a2,-128(s0)
    3248:	0745a603          	lw	a2,116(a1)
    324c:	f6c43c23          	sd	a2,-136(s0)
    3250:	0705a603          	lw	a2,112(a1)
    3254:	f6c43823          	sd	a2,-144(s0)
    3258:	06c5a603          	lw	a2,108(a1)
    325c:	f6c43423          	sd	a2,-152(s0)
    3260:	0685a603          	lw	a2,104(a1)
    3264:	f6c43023          	sd	a2,-160(s0)
    3268:	0645a603          	lw	a2,100(a1)
    326c:	f4c43c23          	sd	a2,-168(s0)
    3270:	0605a603          	lw	a2,96(a1)
    3274:	f4c43823          	sd	a2,-176(s0)
    3278:	05c5a603          	lw	a2,92(a1)
    327c:	f4c43423          	sd	a2,-184(s0)
    3280:	0585a603          	lw	a2,88(a1)
    3284:	f4c43023          	sd	a2,-192(s0)
    3288:	0545a603          	lw	a2,84(a1)
    328c:	f2c43c23          	sd	a2,-200(s0)
    3290:	0505a603          	lw	a2,80(a1)
    3294:	f2c43823          	sd	a2,-208(s0)
    3298:	04c5a603          	lw	a2,76(a1)
    329c:	f2c43423          	sd	a2,-216(s0)
    32a0:	0485a603          	lw	a2,72(a1)
    32a4:	f2c43023          	sd	a2,-224(s0)
    32a8:	0445a603          	lw	a2,68(a1)
    32ac:	f0c43c23          	sd	a2,-232(s0)
    32b0:	0405a603          	lw	a2,64(a1)
    32b4:	f0c43823          	sd	a2,-240(s0)
    32b8:	03c5a603          	lw	a2,60(a1)
    32bc:	ecc43023          	sd	a2,-320(s0)
    32c0:	0385a603          	lw	a2,56(a1)
    32c4:	eac43c23          	sd	a2,-328(s0)
    32c8:	0345a603          	lw	a2,52(a1)
    32cc:	eac43823          	sd	a2,-336(s0)
    32d0:	0305a603          	lw	a2,48(a1)
    32d4:	eac43423          	sd	a2,-344(s0)
    32d8:	02c5a603          	lw	a2,44(a1)
    32dc:	eac43023          	sd	a2,-352(s0)
    32e0:	0285a603          	lw	a2,40(a1)
    32e4:	e8c43c23          	sd	a2,-360(s0)
    32e8:	0245a603          	lw	a2,36(a1)
    32ec:	07c52583          	lw	a1,124(a0)
    32f0:	f8d43823          	sd	a3,-112(s0)
    32f4:	000016b7          	lui	a3,0x1
    32f8:	40d406b3          	sub	a3,s0,a3
    32fc:	66b6bc23          	sd	a1,1656(a3) # 1678 <.LBB67_4+0x508>
    3300:	07852803          	lw	a6,120(a0)
    3304:	07452283          	lw	t0,116(a0)
    3308:	07052303          	lw	t1,112(a0)
    330c:	06c52383          	lw	t2,108(a0)
    3310:	06852e03          	lw	t3,104(a0)
    3314:	06452e83          	lw	t4,100(a0)
    3318:	06052f03          	lw	t5,96(a0)
    331c:	05c52f83          	lw	t6,92(a0)
    3320:	05852483          	lw	s1,88(a0)
    3324:	05452903          	lw	s2,84(a0)
    3328:	05052983          	lw	s3,80(a0)
    332c:	04c52a03          	lw	s4,76(a0)
    3330:	04852a83          	lw	s5,72(a0)
    3334:	04452b03          	lw	s6,68(a0)
    3338:	04052b83          	lw	s7,64(a0)
    333c:	03c52c03          	lw	s8,60(a0)
    3340:	03852c83          	lw	s9,56(a0)
    3344:	03452d03          	lw	s10,52(a0)
    3348:	02452583          	lw	a1,36(a0)
    334c:	03052d83          	lw	s11,48(a0)
    3350:	02c52083          	lw	ra,44(a0)
    3354:	02852503          	lw	a0,40(a0)
    3358:	00359893          	slli	a7,a1,0x3
    335c:	000015b7          	lui	a1,0x1
    3360:	40b405b3          	sub	a1,s0,a1
    3364:	68c5bc23          	sd	a2,1688(a1) # 1698 <.LBB67_4+0x528>
    3368:	000015b7          	lui	a1,0x1
    336c:	40b405b3          	sub	a1,s0,a1
    3370:	6f05b583          	ld	a1,1776(a1) # 16f0 <.LBB67_4+0x580>
    3374:	00c585b3          	add	a1,a1,a2
    3378:	00001637          	lui	a2,0x1
    337c:	40c40633          	sub	a2,s0,a2
    3380:	6f163823          	sd	a7,1776(a2) # 16f0 <.LBB67_4+0x580>
    3384:	011585b3          	add	a1,a1,a7
    3388:	00001637          	lui	a2,0x1
    338c:	40c40633          	sub	a2,s0,a2
    3390:	65863603          	ld	a2,1624(a2) # 1658 <.LBB67_4+0x4e8>
    3394:	00462883          	lw	a7,4(a2)
    3398:	00862783          	lw	a5,8(a2)
    339c:	000016b7          	lui	a3,0x1
    33a0:	40d406b3          	sub	a3,s0,a3
    33a4:	68f6b023          	sd	a5,1664(a3) # 1680 <.LBB67_4+0x510>
    33a8:	00c62783          	lw	a5,12(a2)
    33ac:	000016b7          	lui	a3,0x1
    33b0:	40d406b3          	sub	a3,s0,a3
    33b4:	68f6b423          	sd	a5,1672(a3) # 1688 <.LBB67_4+0x518>
    33b8:	01062783          	lw	a5,16(a2)
    33bc:	000016b7          	lui	a3,0x1
    33c0:	40d406b3          	sub	a3,s0,a3
    33c4:	68f6b823          	sd	a5,1680(a3) # 1690 <.LBB67_4+0x520>
    33c8:	01462783          	lw	a5,20(a2)
    33cc:	000016b7          	lui	a3,0x1
    33d0:	40d406b3          	sub	a3,s0,a3
    33d4:	d8f6bc23          	sd	a5,-616(a3) # d98 <.LBB67_3+0xb84>
    33d8:	01862783          	lw	a5,24(a2)
    33dc:	000016b7          	lui	a3,0x1
    33e0:	40d406b3          	sub	a3,s0,a3
    33e4:	daf6b023          	sd	a5,-608(a3) # da0 <.LBB67_3+0xb8c>
    33e8:	f9043683          	ld	a3,-112(s0)
    33ec:	01c62603          	lw	a2,28(a2)
    33f0:	000017b7          	lui	a5,0x1
    33f4:	40f407b3          	sub	a5,s0,a5
    33f8:	dac7b423          	sd	a2,-600(a5) # da8 <.LBB67_3+0xb94>
    33fc:	40e585bb          	subw	a1,a1,a4
    3400:	a005859b          	addiw	a1,a1,-1536
    3404:	40000637          	lui	a2,0x40000
    3408:	000017b7          	lui	a5,0x1
    340c:	40f407b3          	sub	a5,s0,a5
    3410:	dab7b823          	sd	a1,-592(a5) # db0 <.LBB67_3+0xb9c>
    3414:	0005d463          	bgez	a1,341c <.LBB67_26>
    3418:	c0000637          	lui	a2,0xc0000

000000000000341c <.LBB67_26>:
    341c:	00351593          	slli	a1,a0,0x3
    3420:	e9843503          	ld	a0,-360(s0)
    3424:	000017b7          	lui	a5,0x1
    3428:	40f407b3          	sub	a5,s0,a5
    342c:	6f87b783          	ld	a5,1784(a5) # 16f8 <.LBB67_5+0x4>
    3430:	00a78533          	add	a0,a5,a0
    3434:	000017b7          	lui	a5,0x1
    3438:	40f407b3          	sub	a5,s0,a5
    343c:	6eb7bc23          	sd	a1,1784(a5) # 16f8 <.LBB67_5+0x4>
    3440:	00b50533          	add	a0,a0,a1
    3444:	40e5053b          	subw	a0,a0,a4
    3448:	a005051b          	addiw	a0,a0,-1536
    344c:	400005b7          	lui	a1,0x40000
    3450:	000017b7          	lui	a5,0x1
    3454:	40f407b3          	sub	a5,s0,a5
    3458:	dca7b023          	sd	a0,-576(a5) # dc0 <.LBB67_3+0xbac>
    345c:	000017b7          	lui	a5,0x1
    3460:	40f407b3          	sub	a5,s0,a5
    3464:	7407b783          	ld	a5,1856(a5) # 1740 <.LBB67_5+0x4c>
    3468:	00055463          	bgez	a0,3470 <.LBB67_28>
    346c:	c00005b7          	lui	a1,0xc0000

0000000000003470 <.LBB67_28>:
    3470:	00001537          	lui	a0,0x1
    3474:	40a40533          	sub	a0,s0,a0
    3478:	dab53c23          	sd	a1,-584(a0) # db8 <.LBB67_3+0xba4>
    347c:	00309093          	slli	ra,ra,0x3
    3480:	ea043503          	ld	a0,-352(s0)
    3484:	000015b7          	lui	a1,0x1
    3488:	40b405b3          	sub	a1,s0,a1
    348c:	7005b583          	ld	a1,1792(a1) # 1700 <.LBB67_5+0xc>
    3490:	00a58533          	add	a0,a1,a0
    3494:	000015b7          	lui	a1,0x1
    3498:	40b405b3          	sub	a1,s0,a1
    349c:	7015b023          	sd	ra,1792(a1) # 1700 <.LBB67_5+0xc>
    34a0:	00150533          	add	a0,a0,ra
    34a4:	40e5053b          	subw	a0,a0,a4
    34a8:	a005051b          	addiw	a0,a0,-1536
    34ac:	400005b7          	lui	a1,0x40000
    34b0:	000010b7          	lui	ra,0x1
    34b4:	401400b3          	sub	ra,s0,ra
    34b8:	dca0b823          	sd	a0,-560(ra) # dd0 <.LBB67_3+0xbbc>
    34bc:	00055463          	bgez	a0,34c4 <.LBB67_30>
    34c0:	c00005b7          	lui	a1,0xc0000

00000000000034c4 <.LBB67_30>:
    34c4:	00001537          	lui	a0,0x1
    34c8:	40a40533          	sub	a0,s0,a0
    34cc:	dcb53423          	sd	a1,-568(a0) # dc8 <.LBB67_3+0xbb4>
    34d0:	003d9d93          	slli	s11,s11,0x3
    34d4:	ea843503          	ld	a0,-344(s0)
    34d8:	000015b7          	lui	a1,0x1
    34dc:	40b405b3          	sub	a1,s0,a1
    34e0:	7085b583          	ld	a1,1800(a1) # 1708 <.LBB67_5+0x14>
    34e4:	00a58533          	add	a0,a1,a0
    34e8:	000015b7          	lui	a1,0x1
    34ec:	40b405b3          	sub	a1,s0,a1
    34f0:	71b5b423          	sd	s11,1800(a1) # 1708 <.LBB67_5+0x14>
    34f4:	01b50533          	add	a0,a0,s11
    34f8:	40e5053b          	subw	a0,a0,a4
    34fc:	a005051b          	addiw	a0,a0,-1536
    3500:	400005b7          	lui	a1,0x40000
    3504:	b5843083          	ld	ra,-1192(s0)
    3508:	00001db7          	lui	s11,0x1
    350c:	41b40db3          	sub	s11,s0,s11
    3510:	deadb023          	sd	a0,-544(s11) # de0 <.LBB67_3+0xbcc>
    3514:	00055463          	bgez	a0,351c <.LBB67_32>
    3518:	c00005b7          	lui	a1,0xc0000

000000000000351c <.LBB67_32>:
    351c:	f8c43823          	sd	a2,-112(s0)
    3520:	00001537          	lui	a0,0x1
    3524:	40a40533          	sub	a0,s0,a0
    3528:	dcb53c23          	sd	a1,-552(a0) # dd8 <.LBB67_3+0xbc4>
    352c:	003d1593          	slli	a1,s10,0x3
    3530:	eb043503          	ld	a0,-336(s0)
    3534:	00001637          	lui	a2,0x1
    3538:	40c40633          	sub	a2,s0,a2
    353c:	71063d03          	ld	s10,1808(a2) # 1710 <.LBB67_5+0x1c>
    3540:	00ad0533          	add	a0,s10,a0
    3544:	00058d13          	mv	s10,a1
    3548:	00b50533          	add	a0,a0,a1
    354c:	40e5053b          	subw	a0,a0,a4
    3550:	a005051b          	addiw	a0,a0,-1536
    3554:	400005b7          	lui	a1,0x40000
    3558:	b2843d83          	ld	s11,-1240(s0)
    355c:	00001637          	lui	a2,0x1
    3560:	40c40633          	sub	a2,s0,a2
    3564:	dea63823          	sd	a0,-528(a2) # df0 <.LBB67_3+0xbdc>
    3568:	f9043603          	ld	a2,-112(s0)
    356c:	00055463          	bgez	a0,3574 <.LBB67_34>
    3570:	c00005b7          	lui	a1,0xc0000

0000000000003574 <.LBB67_34>:
    3574:	00001537          	lui	a0,0x1
    3578:	40a40533          	sub	a0,s0,a0
    357c:	deb53423          	sd	a1,-536(a0) # de8 <.LBB67_3+0xbd4>
    3580:	003c9c93          	slli	s9,s9,0x3
    3584:	eb843503          	ld	a0,-328(s0)
    3588:	000015b7          	lui	a1,0x1
    358c:	40b405b3          	sub	a1,s0,a1
    3590:	7185b583          	ld	a1,1816(a1) # 1718 <.LBB67_5+0x24>
    3594:	00a58533          	add	a0,a1,a0
    3598:	000015b7          	lui	a1,0x1
    359c:	40b405b3          	sub	a1,s0,a1
    35a0:	7195bc23          	sd	s9,1816(a1) # 1718 <.LBB67_5+0x24>
    35a4:	01950533          	add	a0,a0,s9
    35a8:	40e5053b          	subw	a0,a0,a4
    35ac:	a005051b          	addiw	a0,a0,-1536
    35b0:	400005b7          	lui	a1,0x40000
    35b4:	00001cb7          	lui	s9,0x1
    35b8:	41940cb3          	sub	s9,s0,s9
    35bc:	e0acb023          	sd	a0,-512(s9) # e00 <.LBB67_3+0xbec>
    35c0:	00055463          	bgez	a0,35c8 <.LBB67_36>
    35c4:	c00005b7          	lui	a1,0xc0000

00000000000035c8 <.LBB67_36>:
    35c8:	00001537          	lui	a0,0x1
    35cc:	40a40533          	sub	a0,s0,a0
    35d0:	deb53c23          	sd	a1,-520(a0) # df8 <.LBB67_3+0xbe4>
    35d4:	003c1c13          	slli	s8,s8,0x3
    35d8:	ec043503          	ld	a0,-320(s0)
    35dc:	000015b7          	lui	a1,0x1
    35e0:	40b405b3          	sub	a1,s0,a1
    35e4:	7205b583          	ld	a1,1824(a1) # 1720 <.LBB67_5+0x2c>
    35e8:	00a58533          	add	a0,a1,a0
    35ec:	000015b7          	lui	a1,0x1
    35f0:	40b405b3          	sub	a1,s0,a1
    35f4:	7385b023          	sd	s8,1824(a1) # 1720 <.LBB67_5+0x2c>
    35f8:	01850533          	add	a0,a0,s8
    35fc:	40e5053b          	subw	a0,a0,a4
    3600:	a005051b          	addiw	a0,a0,-1536
    3604:	400005b7          	lui	a1,0x40000
    3608:	dd043c83          	ld	s9,-560(s0)
    360c:	00001c37          	lui	s8,0x1
    3610:	41840c33          	sub	s8,s0,s8
    3614:	e0ac3823          	sd	a0,-496(s8) # e10 <.LBB67_3+0xbfc>
    3618:	00055463          	bgez	a0,3620 <.LBB67_38>
    361c:	c00005b7          	lui	a1,0xc0000

0000000000003620 <.LBB67_38>:
    3620:	00001537          	lui	a0,0x1
    3624:	40a40533          	sub	a0,s0,a0
    3628:	e0b53423          	sd	a1,-504(a0) # e08 <.LBB67_3+0xbf4>
    362c:	003b9b93          	slli	s7,s7,0x3
    3630:	f1043503          	ld	a0,-240(s0)
    3634:	000015b7          	lui	a1,0x1
    3638:	40b405b3          	sub	a1,s0,a1
    363c:	7285b583          	ld	a1,1832(a1) # 1728 <.LBB67_5+0x34>
    3640:	00a58533          	add	a0,a1,a0
    3644:	000015b7          	lui	a1,0x1
    3648:	40b405b3          	sub	a1,s0,a1
    364c:	7375b423          	sd	s7,1832(a1) # 1728 <.LBB67_5+0x34>
    3650:	01750533          	add	a0,a0,s7
    3654:	40e5053b          	subw	a0,a0,a4
    3658:	a005051b          	addiw	a0,a0,-1536
    365c:	400005b7          	lui	a1,0x40000
    3660:	00001bb7          	lui	s7,0x1
    3664:	41740bb3          	sub	s7,s0,s7
    3668:	d28bbc03          	ld	s8,-728(s7) # d28 <.LBB67_3+0xb14>
    366c:	00001bb7          	lui	s7,0x1
    3670:	41740bb3          	sub	s7,s0,s7
    3674:	e2abb023          	sd	a0,-480(s7) # e20 <.LBB67_3+0xc0c>
    3678:	00055463          	bgez	a0,3680 <.LBB67_40>
    367c:	c00005b7          	lui	a1,0xc0000

0000000000003680 <.LBB67_40>:
    3680:	00001537          	lui	a0,0x1
    3684:	40a40533          	sub	a0,s0,a0
    3688:	e0b53c23          	sd	a1,-488(a0) # e18 <.LBB67_3+0xc04>
    368c:	003b1b13          	slli	s6,s6,0x3
    3690:	f1843503          	ld	a0,-232(s0)
    3694:	000015b7          	lui	a1,0x1
    3698:	40b405b3          	sub	a1,s0,a1
    369c:	7305b583          	ld	a1,1840(a1) # 1730 <.LBB67_5+0x3c>
    36a0:	00a58533          	add	a0,a1,a0
    36a4:	000015b7          	lui	a1,0x1
    36a8:	40b405b3          	sub	a1,s0,a1
    36ac:	7365b823          	sd	s6,1840(a1) # 1730 <.LBB67_5+0x3c>
    36b0:	01650533          	add	a0,a0,s6
    36b4:	40e5053b          	subw	a0,a0,a4
    36b8:	a005051b          	addiw	a0,a0,-1536
    36bc:	400005b7          	lui	a1,0x40000
    36c0:	00001b37          	lui	s6,0x1
    36c4:	41640b33          	sub	s6,s0,s6
    36c8:	650b3b83          	ld	s7,1616(s6) # 1650 <.LBB67_4+0x4e0>
    36cc:	00001b37          	lui	s6,0x1
    36d0:	41640b33          	sub	s6,s0,s6
    36d4:	e2ab3823          	sd	a0,-464(s6) # e30 <.LBB67_3+0xc1c>
    36d8:	00055463          	bgez	a0,36e0 <.LBB67_42>
    36dc:	c00005b7          	lui	a1,0xc0000

00000000000036e0 <.LBB67_42>:
    36e0:	00001537          	lui	a0,0x1
    36e4:	40a40533          	sub	a0,s0,a0
    36e8:	e2b53423          	sd	a1,-472(a0) # e28 <.LBB67_3+0xc14>
    36ec:	003a9a93          	slli	s5,s5,0x3
    36f0:	f2043503          	ld	a0,-224(s0)
    36f4:	000015b7          	lui	a1,0x1
    36f8:	40b405b3          	sub	a1,s0,a1
    36fc:	7385b583          	ld	a1,1848(a1) # 1738 <.LBB67_5+0x44>
    3700:	00a58533          	add	a0,a1,a0
    3704:	000015b7          	lui	a1,0x1
    3708:	40b405b3          	sub	a1,s0,a1
    370c:	7355bc23          	sd	s5,1848(a1) # 1738 <.LBB67_5+0x44>
    3710:	01550533          	add	a0,a0,s5
    3714:	40e5053b          	subw	a0,a0,a4
    3718:	a005051b          	addiw	a0,a0,-1536
    371c:	400005b7          	lui	a1,0x40000
    3720:	dd843b03          	ld	s6,-552(s0)
    3724:	00001ab7          	lui	s5,0x1
    3728:	41540ab3          	sub	s5,s0,s5
    372c:	e4aab023          	sd	a0,-448(s5) # e40 <.LBB67_3+0xc2c>
    3730:	00055463          	bgez	a0,3738 <.LBB67_44>
    3734:	c00005b7          	lui	a1,0xc0000

0000000000003738 <.LBB67_44>:
    3738:	00001537          	lui	a0,0x1
    373c:	40a40533          	sub	a0,s0,a0
    3740:	e2b53c23          	sd	a1,-456(a0) # e38 <.LBB67_3+0xc24>
    3744:	003a1a13          	slli	s4,s4,0x3
    3748:	f2843503          	ld	a0,-216(s0)
    374c:	00a78533          	add	a0,a5,a0
    3750:	000015b7          	lui	a1,0x1
    3754:	40b405b3          	sub	a1,s0,a1
    3758:	7545b023          	sd	s4,1856(a1) # 1740 <.LBB67_5+0x4c>
    375c:	01450533          	add	a0,a0,s4
    3760:	40e5053b          	subw	a0,a0,a4
    3764:	a005051b          	addiw	a0,a0,-1536
    3768:	400005b7          	lui	a1,0x40000
    376c:	b0843a83          	ld	s5,-1272(s0)
    3770:	000017b7          	lui	a5,0x1
    3774:	40f407b3          	sub	a5,s0,a5
    3778:	e4a7b823          	sd	a0,-432(a5) # e50 <.LBB67_3+0xc3c>
    377c:	00055463          	bgez	a0,3784 <.LBB67_46>
    3780:	c00005b7          	lui	a1,0xc0000

0000000000003784 <.LBB67_46>:
    3784:	00001537          	lui	a0,0x1
    3788:	40a40533          	sub	a0,s0,a0
    378c:	e4b53423          	sd	a1,-440(a0) # e48 <.LBB67_3+0xc34>
    3790:	00399993          	slli	s3,s3,0x3
    3794:	f3043503          	ld	a0,-208(s0)
    3798:	000015b7          	lui	a1,0x1
    379c:	40b405b3          	sub	a1,s0,a1
    37a0:	7485b583          	ld	a1,1864(a1) # 1748 <.LBB67_5+0x54>
    37a4:	00a58533          	add	a0,a1,a0
    37a8:	000015b7          	lui	a1,0x1
    37ac:	40b405b3          	sub	a1,s0,a1
    37b0:	7535b423          	sd	s3,1864(a1) # 1748 <.LBB67_5+0x54>
    37b4:	01350533          	add	a0,a0,s3
    37b8:	40e5053b          	subw	a0,a0,a4
    37bc:	a005051b          	addiw	a0,a0,-1536
    37c0:	400005b7          	lui	a1,0x40000
    37c4:	000017b7          	lui	a5,0x1
    37c8:	40f407b3          	sub	a5,s0,a5
    37cc:	e6a7b023          	sd	a0,-416(a5) # e60 <.LBB67_3+0xc4c>
    37d0:	000017b7          	lui	a5,0x1
    37d4:	40f407b3          	sub	a5,s0,a5
    37d8:	7907ba03          	ld	s4,1936(a5) # 1790 <.LBB67_5+0x9c>
    37dc:	00055463          	bgez	a0,37e4 <.LBB67_48>
    37e0:	c00005b7          	lui	a1,0xc0000

00000000000037e4 <.LBB67_48>:
    37e4:	00001537          	lui	a0,0x1
    37e8:	40a40533          	sub	a0,s0,a0
    37ec:	e4b53c23          	sd	a1,-424(a0) # e58 <.LBB67_3+0xc44>
    37f0:	00391913          	slli	s2,s2,0x3
    37f4:	f3843503          	ld	a0,-200(s0)
    37f8:	000015b7          	lui	a1,0x1
    37fc:	40b405b3          	sub	a1,s0,a1
    3800:	7505b583          	ld	a1,1872(a1) # 1750 <.LBB67_5+0x5c>
    3804:	00a58533          	add	a0,a1,a0
    3808:	000015b7          	lui	a1,0x1
    380c:	40b405b3          	sub	a1,s0,a1
    3810:	7525b823          	sd	s2,1872(a1) # 1750 <.LBB67_5+0x5c>
    3814:	01250533          	add	a0,a0,s2
    3818:	40e5053b          	subw	a0,a0,a4
    381c:	a005051b          	addiw	a0,a0,-1536
    3820:	400005b7          	lui	a1,0x40000
    3824:	00068993          	mv	s3,a3
    3828:	000016b7          	lui	a3,0x1
    382c:	40d406b3          	sub	a3,s0,a3
    3830:	e6a6b823          	sd	a0,-400(a3) # e70 <.LBB67_3+0xc5c>
    3834:	00055463          	bgez	a0,383c <.LBB67_50>
    3838:	c00005b7          	lui	a1,0xc0000

000000000000383c <.LBB67_50>:
    383c:	00001537          	lui	a0,0x1
    3840:	40a40533          	sub	a0,s0,a0
    3844:	e6b53423          	sd	a1,-408(a0) # e68 <.LBB67_3+0xc54>
    3848:	00349493          	slli	s1,s1,0x3
    384c:	f4043503          	ld	a0,-192(s0)
    3850:	000015b7          	lui	a1,0x1
    3854:	40b405b3          	sub	a1,s0,a1
    3858:	7585b583          	ld	a1,1880(a1) # 1758 <.LBB67_5+0x64>
    385c:	00a58533          	add	a0,a1,a0
    3860:	000015b7          	lui	a1,0x1
    3864:	40b405b3          	sub	a1,s0,a1
    3868:	7495bc23          	sd	s1,1880(a1) # 1758 <.LBB67_5+0x64>
    386c:	00950533          	add	a0,a0,s1
    3870:	40e5053b          	subw	a0,a0,a4
    3874:	a005051b          	addiw	a0,a0,-1536
    3878:	400005b7          	lui	a1,0x40000
    387c:	de043903          	ld	s2,-544(s0)
    3880:	000016b7          	lui	a3,0x1
    3884:	40d406b3          	sub	a3,s0,a3
    3888:	e8a6b023          	sd	a0,-384(a3) # e80 <.LBB67_3+0xc6c>
    388c:	8a043683          	ld	a3,-1888(s0)
    3890:	00055463          	bgez	a0,3898 <.LBB67_52>
    3894:	c00005b7          	lui	a1,0xc0000

0000000000003898 <.LBB67_52>:
    3898:	00001537          	lui	a0,0x1
    389c:	40a40533          	sub	a0,s0,a0
    38a0:	e6b53c23          	sd	a1,-392(a0) # e78 <.LBB67_3+0xc64>
    38a4:	003f9f93          	slli	t6,t6,0x3
    38a8:	f4843503          	ld	a0,-184(s0)
    38ac:	000015b7          	lui	a1,0x1
    38b0:	40b405b3          	sub	a1,s0,a1
    38b4:	7605b583          	ld	a1,1888(a1) # 1760 <.LBB67_5+0x6c>
    38b8:	00a58533          	add	a0,a1,a0
    38bc:	000015b7          	lui	a1,0x1
    38c0:	40b405b3          	sub	a1,s0,a1
    38c4:	77f5b023          	sd	t6,1888(a1) # 1760 <.LBB67_5+0x6c>
    38c8:	01f50533          	add	a0,a0,t6
    38cc:	40e5053b          	subw	a0,a0,a4
    38d0:	a005051b          	addiw	a0,a0,-1536
    38d4:	400005b7          	lui	a1,0x40000
    38d8:	de843483          	ld	s1,-536(s0)
    38dc:	000017b7          	lui	a5,0x1
    38e0:	40f407b3          	sub	a5,s0,a5
    38e4:	e8a7b823          	sd	a0,-368(a5) # e90 <.LBB67_3+0xc7c>
    38e8:	00055463          	bgez	a0,38f0 <.LBB67_54>
    38ec:	c00005b7          	lui	a1,0xc0000

00000000000038f0 <.LBB67_54>:
    38f0:	00001537          	lui	a0,0x1
    38f4:	40a40533          	sub	a0,s0,a0
    38f8:	e8b53423          	sd	a1,-376(a0) # e88 <.LBB67_3+0xc74>
    38fc:	003f1f13          	slli	t5,t5,0x3
    3900:	f5043503          	ld	a0,-176(s0)
    3904:	000015b7          	lui	a1,0x1
    3908:	40b405b3          	sub	a1,s0,a1
    390c:	7685b583          	ld	a1,1896(a1) # 1768 <.LBB67_5+0x74>
    3910:	00a58533          	add	a0,a1,a0
    3914:	000015b7          	lui	a1,0x1
    3918:	40b405b3          	sub	a1,s0,a1
    391c:	77e5b423          	sd	t5,1896(a1) # 1768 <.LBB67_5+0x74>
    3920:	01e50533          	add	a0,a0,t5
    3924:	40e5053b          	subw	a0,a0,a4
    3928:	a005051b          	addiw	a0,a0,-1536
    392c:	400005b7          	lui	a1,0x40000
    3930:	bf043f83          	ld	t6,-1040(s0)
    3934:	000017b7          	lui	a5,0x1
    3938:	40f407b3          	sub	a5,s0,a5
    393c:	eaa7b023          	sd	a0,-352(a5) # ea0 <.LBB67_3+0xc8c>
    3940:	00055463          	bgez	a0,3948 <.LBB67_56>
    3944:	c00005b7          	lui	a1,0xc0000

0000000000003948 <.LBB67_56>:
    3948:	00001537          	lui	a0,0x1
    394c:	40a40533          	sub	a0,s0,a0
    3950:	e8b53c23          	sd	a1,-360(a0) # e98 <.LBB67_3+0xc84>
    3954:	003e9e93          	slli	t4,t4,0x3
    3958:	f5843503          	ld	a0,-168(s0)
    395c:	000015b7          	lui	a1,0x1
    3960:	40b405b3          	sub	a1,s0,a1
    3964:	7705b583          	ld	a1,1904(a1) # 1770 <.LBB67_5+0x7c>
    3968:	00a58533          	add	a0,a1,a0
    396c:	000015b7          	lui	a1,0x1
    3970:	40b405b3          	sub	a1,s0,a1
    3974:	77d5b823          	sd	t4,1904(a1) # 1770 <.LBB67_5+0x7c>
    3978:	01d50533          	add	a0,a0,t4
    397c:	40e5053b          	subw	a0,a0,a4
    3980:	a005051b          	addiw	a0,a0,-1536
    3984:	400005b7          	lui	a1,0x40000
    3988:	df043f03          	ld	t5,-528(s0)
    398c:	000017b7          	lui	a5,0x1
    3990:	40f407b3          	sub	a5,s0,a5
    3994:	eaa7b823          	sd	a0,-336(a5) # eb0 <.LBB67_3+0xc9c>
    3998:	00055463          	bgez	a0,39a0 <.LBB67_58>
    399c:	c00005b7          	lui	a1,0xc0000

00000000000039a0 <.LBB67_58>:
    39a0:	00001537          	lui	a0,0x1
    39a4:	40a40533          	sub	a0,s0,a0
    39a8:	eab53423          	sd	a1,-344(a0) # ea8 <.LBB67_3+0xc94>
    39ac:	003e1593          	slli	a1,t3,0x3
    39b0:	f6043503          	ld	a0,-160(s0)
    39b4:	000017b7          	lui	a5,0x1
    39b8:	40f407b3          	sub	a5,s0,a5
    39bc:	7787be03          	ld	t3,1912(a5) # 1778 <.LBB67_5+0x84>
    39c0:	00ae0533          	add	a0,t3,a0
    39c4:	000017b7          	lui	a5,0x1
    39c8:	40f407b3          	sub	a5,s0,a5
    39cc:	76b7bc23          	sd	a1,1912(a5) # 1778 <.LBB67_5+0x84>
    39d0:	00b50533          	add	a0,a0,a1
    39d4:	40e5053b          	subw	a0,a0,a4
    39d8:	a005051b          	addiw	a0,a0,-1536
    39dc:	400005b7          	lui	a1,0x40000
    39e0:	df843e83          	ld	t4,-520(s0)
    39e4:	000017b7          	lui	a5,0x1
    39e8:	40f407b3          	sub	a5,s0,a5
    39ec:	eca7b023          	sd	a0,-320(a5) # ec0 <.LBB67_3+0xcac>
    39f0:	00055463          	bgez	a0,39f8 <.LBB67_60>
    39f4:	c00005b7          	lui	a1,0xc0000

00000000000039f8 <.LBB67_60>:
    39f8:	00001537          	lui	a0,0x1
    39fc:	40a40533          	sub	a0,s0,a0
    3a00:	eab53c23          	sd	a1,-328(a0) # eb8 <.LBB67_3+0xca4>
    3a04:	00339593          	slli	a1,t2,0x3
    3a08:	f6843503          	ld	a0,-152(s0)
    3a0c:	000017b7          	lui	a5,0x1
    3a10:	40f407b3          	sub	a5,s0,a5
    3a14:	7807b383          	ld	t2,1920(a5) # 1780 <.LBB67_5+0x8c>
    3a18:	00a38533          	add	a0,t2,a0
    3a1c:	00058393          	mv	t2,a1
    3a20:	00b50533          	add	a0,a0,a1
    3a24:	40e5053b          	subw	a0,a0,a4
    3a28:	a005051b          	addiw	a0,a0,-1536
    3a2c:	400005b7          	lui	a1,0x40000
    3a30:	000017b7          	lui	a5,0x1
    3a34:	40f407b3          	sub	a5,s0,a5
    3a38:	eca7b823          	sd	a0,-304(a5) # ed0 <.LBB67_3+0xcbc>
    3a3c:	000017b7          	lui	a5,0x1
    3a40:	40f407b3          	sub	a5,s0,a5
    3a44:	7987be03          	ld	t3,1944(a5) # 1798 <.LBB67_5+0xa4>
    3a48:	00055463          	bgez	a0,3a50 <.LBB67_62>
    3a4c:	c00005b7          	lui	a1,0xc0000

0000000000003a50 <.LBB67_62>:
    3a50:	00001537          	lui	a0,0x1
    3a54:	40a40533          	sub	a0,s0,a0
    3a58:	ecb53423          	sd	a1,-312(a0) # ec8 <.LBB67_3+0xcb4>
    3a5c:	00331593          	slli	a1,t1,0x3
    3a60:	f7043503          	ld	a0,-144(s0)
    3a64:	000017b7          	lui	a5,0x1
    3a68:	40f407b3          	sub	a5,s0,a5
    3a6c:	7887b303          	ld	t1,1928(a5) # 1788 <.LBB67_5+0x94>
    3a70:	00a30533          	add	a0,t1,a0
    3a74:	00058313          	mv	t1,a1
    3a78:	00b50533          	add	a0,a0,a1
    3a7c:	40e5053b          	subw	a0,a0,a4
    3a80:	a005051b          	addiw	a0,a0,-1536
    3a84:	400005b7          	lui	a1,0x40000
    3a88:	000017b7          	lui	a5,0x1
    3a8c:	40f407b3          	sub	a5,s0,a5
    3a90:	eea7b023          	sd	a0,-288(a5) # ee0 <.LBB67_3+0xccc>
    3a94:	00055463          	bgez	a0,3a9c <.LBB67_64>
    3a98:	c00005b7          	lui	a1,0xc0000

0000000000003a9c <.LBB67_64>:
    3a9c:	00001537          	lui	a0,0x1
    3aa0:	40a40533          	sub	a0,s0,a0
    3aa4:	ecb53c23          	sd	a1,-296(a0) # ed8 <.LBB67_3+0xcc4>
    3aa8:	00329593          	slli	a1,t0,0x3
    3aac:	f7843503          	ld	a0,-136(s0)
    3ab0:	000017b7          	lui	a5,0x1
    3ab4:	40f407b3          	sub	a5,s0,a5
    3ab8:	6a07b283          	ld	t0,1696(a5) # 16a0 <.LBB67_4+0x530>
    3abc:	00a28533          	add	a0,t0,a0
    3ac0:	00058293          	mv	t0,a1
    3ac4:	00b50533          	add	a0,a0,a1
    3ac8:	40e5053b          	subw	a0,a0,a4
    3acc:	a005051b          	addiw	a0,a0,-1536
    3ad0:	400005b7          	lui	a1,0x40000
    3ad4:	000017b7          	lui	a5,0x1
    3ad8:	40f407b3          	sub	a5,s0,a5
    3adc:	eea7b823          	sd	a0,-272(a5) # ef0 <.LBB67_3+0xcdc>
    3ae0:	00055463          	bgez	a0,3ae8 <.LBB67_66>
    3ae4:	c00005b7          	lui	a1,0xc0000

0000000000003ae8 <.LBB67_66>:
    3ae8:	00001537          	lui	a0,0x1
    3aec:	40a40533          	sub	a0,s0,a0
    3af0:	eeb53423          	sd	a1,-280(a0) # ee8 <.LBB67_3+0xcd4>
    3af4:	00381813          	slli	a6,a6,0x3
    3af8:	f8043503          	ld	a0,-128(s0)
    3afc:	00aa0533          	add	a0,s4,a0
    3b00:	000015b7          	lui	a1,0x1
    3b04:	40b405b3          	sub	a1,s0,a1
    3b08:	7905b823          	sd	a6,1936(a1) # 1790 <.LBB67_5+0x9c>
    3b0c:	01050533          	add	a0,a0,a6
    3b10:	40e5053b          	subw	a0,a0,a4
    3b14:	a005051b          	addiw	a0,a0,-1536
    3b18:	400005b7          	lui	a1,0x40000
    3b1c:	000017b7          	lui	a5,0x1
    3b20:	40f407b3          	sub	a5,s0,a5
    3b24:	f0a7b023          	sd	a0,-256(a5) # f00 <.LBB67_3+0xcec>
    3b28:	99043a03          	ld	s4,-1648(s0)
    3b2c:	00055463          	bgez	a0,3b34 <.LBB67_68>
    3b30:	c00005b7          	lui	a1,0xc0000

0000000000003b34 <.LBB67_68>:
    3b34:	00001537          	lui	a0,0x1
    3b38:	40a40533          	sub	a0,s0,a0
    3b3c:	eeb53c23          	sd	a1,-264(a0) # ef8 <.LBB67_3+0xce4>
    3b40:	00001537          	lui	a0,0x1
    3b44:	40a40533          	sub	a0,s0,a0
    3b48:	67853783          	ld	a5,1656(a0) # 1678 <.LBB67_4+0x508>
    3b4c:	00379793          	slli	a5,a5,0x3
    3b50:	f8843503          	ld	a0,-120(s0)
    3b54:	00ae0533          	add	a0,t3,a0
    3b58:	00078e13          	mv	t3,a5
    3b5c:	00f50533          	add	a0,a0,a5
    3b60:	40e5053b          	subw	a0,a0,a4
    3b64:	a005051b          	addiw	a0,a0,-1536
    3b68:	400005b7          	lui	a1,0x40000
    3b6c:	b1843803          	ld	a6,-1256(s0)
    3b70:	00001737          	lui	a4,0x1
    3b74:	40e40733          	sub	a4,s0,a4
    3b78:	f0a73c23          	sd	a0,-232(a4) # f18 <.LBB67_3+0xd04>
    3b7c:	00055463          	bgez	a0,3b84 <.LBB67_70>
    3b80:	c00005b7          	lui	a1,0xc0000

0000000000003b84 <.LBB67_70>:
    3b84:	00001537          	lui	a0,0x1
    3b88:	40a40533          	sub	a0,s0,a0
    3b8c:	f0b53423          	sd	a1,-248(a0) # f08 <.LBB67_3+0xcf4>
    3b90:	00189713          	slli	a4,a7,0x1
    3b94:	e9043503          	ld	a0,-368(s0)
    3b98:	000015b7          	lui	a1,0x1
    3b9c:	40b405b3          	sub	a1,s0,a1
    3ba0:	7a05b583          	ld	a1,1952(a1) # 17a0 <.LBB67_5+0xac>
    3ba4:	00a58533          	add	a0,a1,a0
    3ba8:	01170733          	add	a4,a4,a7
    3bac:	e8843583          	ld	a1,-376(s0)
    3bb0:	00b50533          	add	a0,a0,a1
    3bb4:	40e5053b          	subw	a0,a0,a4
    3bb8:	a005051b          	addiw	a0,a0,-1536
    3bbc:	400005b7          	lui	a1,0x40000
    3bc0:	aa043783          	ld	a5,-1376(s0)
    3bc4:	000018b7          	lui	a7,0x1
    3bc8:	411408b3          	sub	a7,s0,a7
    3bcc:	f2a8b023          	sd	a0,-224(a7) # f20 <.LBB67_3+0xd0c>
    3bd0:	00055463          	bgez	a0,3bd8 <.LBB67_72>
    3bd4:	c00005b7          	lui	a1,0xc0000

0000000000003bd8 <.LBB67_72>:
    3bd8:	00001537          	lui	a0,0x1
    3bdc:	40a40533          	sub	a0,s0,a0
    3be0:	f0b53823          	sd	a1,-240(a0) # f10 <.LBB67_3+0xcfc>
    3be4:	e8043503          	ld	a0,-384(s0)
    3be8:	000015b7          	lui	a1,0x1
    3bec:	40b405b3          	sub	a1,s0,a1
    3bf0:	7a85b583          	ld	a1,1960(a1) # 17a8 <.LBB67_5+0xb4>
    3bf4:	00a58533          	add	a0,a1,a0
    3bf8:	e7843583          	ld	a1,-392(s0)
    3bfc:	00b50533          	add	a0,a0,a1
    3c00:	40e5053b          	subw	a0,a0,a4
    3c04:	a005051b          	addiw	a0,a0,-1536
    3c08:	400005b7          	lui	a1,0x40000
    3c0c:	000018b7          	lui	a7,0x1
    3c10:	411408b3          	sub	a7,s0,a7
    3c14:	f2a8b823          	sd	a0,-208(a7) # f30 <.LBB67_3+0xd1c>
    3c18:	89043883          	ld	a7,-1904(s0)
    3c1c:	00055463          	bgez	a0,3c24 <.LBB67_74>
    3c20:	c00005b7          	lui	a1,0xc0000

0000000000003c24 <.LBB67_74>:
    3c24:	f8c43823          	sd	a2,-112(s0)
    3c28:	00001537          	lui	a0,0x1
    3c2c:	40a40533          	sub	a0,s0,a0
    3c30:	f2b53423          	sd	a1,-216(a0) # f28 <.LBB67_3+0xd14>
    3c34:	e7043503          	ld	a0,-400(s0)
    3c38:	000015b7          	lui	a1,0x1
    3c3c:	40b405b3          	sub	a1,s0,a1
    3c40:	7b05b583          	ld	a1,1968(a1) # 17b0 <.LBB67_5+0xbc>
    3c44:	00a58533          	add	a0,a1,a0
    3c48:	e6843583          	ld	a1,-408(s0)
    3c4c:	00b50533          	add	a0,a0,a1
    3c50:	40e5053b          	subw	a0,a0,a4
    3c54:	a005051b          	addiw	a0,a0,-1536
    3c58:	400005b7          	lui	a1,0x40000
    3c5c:	00001637          	lui	a2,0x1
    3c60:	40c40633          	sub	a2,s0,a2
    3c64:	f4a63023          	sd	a0,-192(a2) # f40 <.LBB67_3+0xd2c>
    3c68:	f9043603          	ld	a2,-112(s0)
    3c6c:	00055463          	bgez	a0,3c74 <.LBB67_76>
    3c70:	c00005b7          	lui	a1,0xc0000

0000000000003c74 <.LBB67_76>:
    3c74:	f8c43823          	sd	a2,-112(s0)
    3c78:	00001537          	lui	a0,0x1
    3c7c:	40a40533          	sub	a0,s0,a0
    3c80:	f2b53c23          	sd	a1,-200(a0) # f38 <.LBB67_3+0xd24>
    3c84:	e6043503          	ld	a0,-416(s0)
    3c88:	000015b7          	lui	a1,0x1
    3c8c:	40b405b3          	sub	a1,s0,a1
    3c90:	7b85b583          	ld	a1,1976(a1) # 17b8 <.LBB67_5+0xc4>
    3c94:	00a58533          	add	a0,a1,a0
    3c98:	e5843583          	ld	a1,-424(s0)
    3c9c:	00b50533          	add	a0,a0,a1
    3ca0:	40e5053b          	subw	a0,a0,a4
    3ca4:	a005051b          	addiw	a0,a0,-1536
    3ca8:	400005b7          	lui	a1,0x40000
    3cac:	00001637          	lui	a2,0x1
    3cb0:	40c40633          	sub	a2,s0,a2
    3cb4:	f4a63823          	sd	a0,-176(a2) # f50 <.LBB67_3+0xd3c>
    3cb8:	f9043603          	ld	a2,-112(s0)
    3cbc:	00055463          	bgez	a0,3cc4 <.LBB67_78>
    3cc0:	c00005b7          	lui	a1,0xc0000

0000000000003cc4 <.LBB67_78>:
    3cc4:	f8c43823          	sd	a2,-112(s0)
    3cc8:	00001537          	lui	a0,0x1
    3ccc:	40a40533          	sub	a0,s0,a0
    3cd0:	f4b53423          	sd	a1,-184(a0) # f48 <.LBB67_3+0xd34>
    3cd4:	e5043503          	ld	a0,-432(s0)
    3cd8:	000015b7          	lui	a1,0x1
    3cdc:	40b405b3          	sub	a1,s0,a1
    3ce0:	7c05b583          	ld	a1,1984(a1) # 17c0 <.LBB67_5+0xcc>
    3ce4:	00a58533          	add	a0,a1,a0
    3ce8:	000015b7          	lui	a1,0x1
    3cec:	40b405b3          	sub	a1,s0,a1
    3cf0:	6e85b583          	ld	a1,1768(a1) # 16e8 <.LBB67_4+0x578>
    3cf4:	00b50533          	add	a0,a0,a1
    3cf8:	40e5053b          	subw	a0,a0,a4
    3cfc:	a005051b          	addiw	a0,a0,-1536
    3d00:	400005b7          	lui	a1,0x40000
    3d04:	00001637          	lui	a2,0x1
    3d08:	40c40633          	sub	a2,s0,a2
    3d0c:	f6a63023          	sd	a0,-160(a2) # f60 <.LBB67_3+0xd4c>
    3d10:	f9043603          	ld	a2,-112(s0)
    3d14:	00055463          	bgez	a0,3d1c <.LBB67_80>
    3d18:	c00005b7          	lui	a1,0xc0000

0000000000003d1c <.LBB67_80>:
    3d1c:	f8c43823          	sd	a2,-112(s0)
    3d20:	00001537          	lui	a0,0x1
    3d24:	40a40533          	sub	a0,s0,a0
    3d28:	f4b53c23          	sd	a1,-168(a0) # f58 <.LBB67_3+0xd44>
    3d2c:	00001537          	lui	a0,0x1
    3d30:	40a40533          	sub	a0,s0,a0
    3d34:	6e053503          	ld	a0,1760(a0) # 16e0 <.LBB67_4+0x570>
    3d38:	000015b7          	lui	a1,0x1
    3d3c:	40b405b3          	sub	a1,s0,a1
    3d40:	7c85b583          	ld	a1,1992(a1) # 17c8 <.LBB67_5+0xd4>
    3d44:	00a58533          	add	a0,a1,a0
    3d48:	000015b7          	lui	a1,0x1
    3d4c:	40b405b3          	sub	a1,s0,a1
    3d50:	6d85b583          	ld	a1,1752(a1) # 16d8 <.LBB67_4+0x568>
    3d54:	00b50533          	add	a0,a0,a1
    3d58:	40e5053b          	subw	a0,a0,a4
    3d5c:	a005051b          	addiw	a0,a0,-1536
    3d60:	400005b7          	lui	a1,0x40000
    3d64:	00001637          	lui	a2,0x1
    3d68:	40c40633          	sub	a2,s0,a2
    3d6c:	f6a63c23          	sd	a0,-136(a2) # f78 <.LBB67_3+0xd64>
    3d70:	f9043603          	ld	a2,-112(s0)
    3d74:	00055463          	bgez	a0,3d7c <.LBB67_82>
    3d78:	c00005b7          	lui	a1,0xc0000

0000000000003d7c <.LBB67_82>:
    3d7c:	f8c43823          	sd	a2,-112(s0)
    3d80:	00001537          	lui	a0,0x1
    3d84:	40a40533          	sub	a0,s0,a0
    3d88:	f6b53423          	sd	a1,-152(a0) # f68 <.LBB67_3+0xd54>
    3d8c:	00001537          	lui	a0,0x1
    3d90:	40a40533          	sub	a0,s0,a0
    3d94:	6d053503          	ld	a0,1744(a0) # 16d0 <.LBB67_4+0x560>
    3d98:	000015b7          	lui	a1,0x1
    3d9c:	40b405b3          	sub	a1,s0,a1
    3da0:	7d05b583          	ld	a1,2000(a1) # 17d0 <.LBB67_5+0xdc>
    3da4:	00a58533          	add	a0,a1,a0
    3da8:	000015b7          	lui	a1,0x1
    3dac:	40b405b3          	sub	a1,s0,a1
    3db0:	6c85b583          	ld	a1,1736(a1) # 16c8 <.LBB67_4+0x558>
    3db4:	00b50533          	add	a0,a0,a1
    3db8:	40e5053b          	subw	a0,a0,a4
    3dbc:	a005051b          	addiw	a0,a0,-1536
    3dc0:	400005b7          	lui	a1,0x40000
    3dc4:	00001637          	lui	a2,0x1
    3dc8:	40c40633          	sub	a2,s0,a2
    3dcc:	faa63823          	sd	a0,-80(a2) # fb0 <.LBB67_3+0xd9c>
    3dd0:	f9043603          	ld	a2,-112(s0)
    3dd4:	00055463          	bgez	a0,3ddc <.LBB67_84>
    3dd8:	c00005b7          	lui	a1,0xc0000

0000000000003ddc <.LBB67_84>:
    3ddc:	f8c43823          	sd	a2,-112(s0)
    3de0:	00001537          	lui	a0,0x1
    3de4:	40a40533          	sub	a0,s0,a0
    3de8:	f8b53823          	sd	a1,-112(a0) # f90 <.LBB67_3+0xd7c>
    3dec:	00001537          	lui	a0,0x1
    3df0:	40a40533          	sub	a0,s0,a0
    3df4:	6c053503          	ld	a0,1728(a0) # 16c0 <.LBB67_4+0x550>
    3df8:	000015b7          	lui	a1,0x1
    3dfc:	40b405b3          	sub	a1,s0,a1
    3e00:	7d85b583          	ld	a1,2008(a1) # 17d8 <.LBB67_5+0xe4>
    3e04:	00a58533          	add	a0,a1,a0
    3e08:	000015b7          	lui	a1,0x1
    3e0c:	40b405b3          	sub	a1,s0,a1
    3e10:	6b85b583          	ld	a1,1720(a1) # 16b8 <.LBB67_4+0x548>
    3e14:	00b50533          	add	a0,a0,a1
    3e18:	40e5053b          	subw	a0,a0,a4
    3e1c:	a005051b          	addiw	a0,a0,-1536
    3e20:	400005b7          	lui	a1,0x40000
    3e24:	00001637          	lui	a2,0x1
    3e28:	40c40633          	sub	a2,s0,a2
    3e2c:	fea63c23          	sd	a0,-8(a2) # ff8 <.LBB67_3+0xde4>
    3e30:	f9043603          	ld	a2,-112(s0)
    3e34:	00055463          	bgez	a0,3e3c <.LBB67_86>
    3e38:	c00005b7          	lui	a1,0xc0000

0000000000003e3c <.LBB67_86>:
    3e3c:	f8c43823          	sd	a2,-112(s0)
    3e40:	00001537          	lui	a0,0x1
    3e44:	40a40533          	sub	a0,s0,a0
    3e48:	fcb53823          	sd	a1,-48(a0) # fd0 <.LBB67_3+0xdbc>
    3e4c:	00001537          	lui	a0,0x1
    3e50:	40a40533          	sub	a0,s0,a0
    3e54:	6b053503          	ld	a0,1712(a0) # 16b0 <.LBB67_4+0x540>
    3e58:	000015b7          	lui	a1,0x1
    3e5c:	40b405b3          	sub	a1,s0,a1
    3e60:	7e05b583          	ld	a1,2016(a1) # 17e0 <.LBB67_5+0xec>
    3e64:	00a58533          	add	a0,a1,a0
    3e68:	000015b7          	lui	a1,0x1
    3e6c:	40b405b3          	sub	a1,s0,a1
    3e70:	6a85b583          	ld	a1,1704(a1) # 16a8 <.LBB67_4+0x538>
    3e74:	00b50533          	add	a0,a0,a1
    3e78:	40e5053b          	subw	a0,a0,a4
    3e7c:	a005051b          	addiw	a0,a0,-1536
    3e80:	400005b7          	lui	a1,0x40000
    3e84:	00001637          	lui	a2,0x1
    3e88:	40c40633          	sub	a2,s0,a2
    3e8c:	02a63423          	sd	a0,40(a2) # 1028 <.LBB67_3+0xe14>
    3e90:	f9043603          	ld	a2,-112(s0)
    3e94:	00055463          	bgez	a0,3e9c <.LBB67_88>
    3e98:	c00005b7          	lui	a1,0xc0000

0000000000003e9c <.LBB67_88>:
    3e9c:	f8c43823          	sd	a2,-112(s0)
    3ea0:	00001537          	lui	a0,0x1
    3ea4:	40a40533          	sub	a0,s0,a0
    3ea8:	00b53c23          	sd	a1,24(a0) # 1018 <.LBB67_3+0xe04>
    3eac:	00001537          	lui	a0,0x1
    3eb0:	40a40533          	sub	a0,s0,a0
    3eb4:	69853503          	ld	a0,1688(a0) # 1698 <.LBB67_4+0x528>
    3eb8:	000015b7          	lui	a1,0x1
    3ebc:	40b405b3          	sub	a1,s0,a1
    3ec0:	7e85b583          	ld	a1,2024(a1) # 17e8 <.LBB67_5+0xf4>
    3ec4:	00a58533          	add	a0,a1,a0
    3ec8:	000015b7          	lui	a1,0x1
    3ecc:	40b405b3          	sub	a1,s0,a1
    3ed0:	6f05b583          	ld	a1,1776(a1) # 16f0 <.LBB67_4+0x580>
    3ed4:	00b50533          	add	a0,a0,a1
    3ed8:	40e5053b          	subw	a0,a0,a4
    3edc:	a005051b          	addiw	a0,a0,-1536
    3ee0:	400005b7          	lui	a1,0x40000
    3ee4:	00001637          	lui	a2,0x1
    3ee8:	40c40633          	sub	a2,s0,a2
    3eec:	04a63023          	sd	a0,64(a2) # 1040 <.LBB67_3+0xe2c>
    3ef0:	f9043603          	ld	a2,-112(s0)
    3ef4:	00055463          	bgez	a0,3efc <.LBB67_90>
    3ef8:	c00005b7          	lui	a1,0xc0000

0000000000003efc <.LBB67_90>:
    3efc:	f8c43823          	sd	a2,-112(s0)
    3f00:	00001537          	lui	a0,0x1
    3f04:	40a40533          	sub	a0,s0,a0
    3f08:	02b53c23          	sd	a1,56(a0) # 1038 <.LBB67_3+0xe24>
    3f0c:	e9843503          	ld	a0,-360(s0)
    3f10:	000015b7          	lui	a1,0x1
    3f14:	40b405b3          	sub	a1,s0,a1
    3f18:	7f05b583          	ld	a1,2032(a1) # 17f0 <.LBB67_5+0xfc>
    3f1c:	00a58533          	add	a0,a1,a0
    3f20:	000015b7          	lui	a1,0x1
    3f24:	40b405b3          	sub	a1,s0,a1
    3f28:	6f85b583          	ld	a1,1784(a1) # 16f8 <.LBB67_5+0x4>
    3f2c:	00b50533          	add	a0,a0,a1
    3f30:	40e5053b          	subw	a0,a0,a4
    3f34:	a005051b          	addiw	a0,a0,-1536
    3f38:	400005b7          	lui	a1,0x40000
    3f3c:	00001637          	lui	a2,0x1
    3f40:	40c40633          	sub	a2,s0,a2
    3f44:	04a63823          	sd	a0,80(a2) # 1050 <.LBB67_3+0xe3c>
    3f48:	f9043603          	ld	a2,-112(s0)
    3f4c:	00055463          	bgez	a0,3f54 <.LBB67_92>
    3f50:	c00005b7          	lui	a1,0xc0000

0000000000003f54 <.LBB67_92>:
    3f54:	f8c43823          	sd	a2,-112(s0)
    3f58:	00001537          	lui	a0,0x1
    3f5c:	40a40533          	sub	a0,s0,a0
    3f60:	04b53423          	sd	a1,72(a0) # 1048 <.LBB67_3+0xe34>
    3f64:	ea043503          	ld	a0,-352(s0)
    3f68:	000015b7          	lui	a1,0x1
    3f6c:	40b405b3          	sub	a1,s0,a1
    3f70:	7f85b583          	ld	a1,2040(a1) # 17f8 <.LBB67_5+0x104>
    3f74:	00a58533          	add	a0,a1,a0
    3f78:	000015b7          	lui	a1,0x1
    3f7c:	40b405b3          	sub	a1,s0,a1
    3f80:	7005b583          	ld	a1,1792(a1) # 1700 <.LBB67_5+0xc>
    3f84:	00b50533          	add	a0,a0,a1
    3f88:	40e5053b          	subw	a0,a0,a4
    3f8c:	a005051b          	addiw	a0,a0,-1536
    3f90:	400005b7          	lui	a1,0x40000
    3f94:	00001637          	lui	a2,0x1
    3f98:	40c40633          	sub	a2,s0,a2
    3f9c:	06a63023          	sd	a0,96(a2) # 1060 <.LBB67_3+0xe4c>
    3fa0:	f9043603          	ld	a2,-112(s0)
    3fa4:	00055463          	bgez	a0,3fac <.LBB67_94>
    3fa8:	c00005b7          	lui	a1,0xc0000

0000000000003fac <.LBB67_94>:
    3fac:	f8c43823          	sd	a2,-112(s0)
    3fb0:	00001537          	lui	a0,0x1
    3fb4:	40a40533          	sub	a0,s0,a0
    3fb8:	04b53c23          	sd	a1,88(a0) # 1058 <.LBB67_3+0xe44>
    3fbc:	ea843503          	ld	a0,-344(s0)
    3fc0:	80043583          	ld	a1,-2048(s0)
    3fc4:	00a58533          	add	a0,a1,a0
    3fc8:	000015b7          	lui	a1,0x1
    3fcc:	40b405b3          	sub	a1,s0,a1
    3fd0:	7085b583          	ld	a1,1800(a1) # 1708 <.LBB67_5+0x14>
    3fd4:	00b50533          	add	a0,a0,a1
    3fd8:	40e5053b          	subw	a0,a0,a4
    3fdc:	a005051b          	addiw	a0,a0,-1536
    3fe0:	400005b7          	lui	a1,0x40000
    3fe4:	00001637          	lui	a2,0x1
    3fe8:	40c40633          	sub	a2,s0,a2
    3fec:	06a63823          	sd	a0,112(a2) # 1070 <.LBB67_3+0xe5c>
    3ff0:	f9043603          	ld	a2,-112(s0)
    3ff4:	00055463          	bgez	a0,3ffc <.LBB67_96>
    3ff8:	c00005b7          	lui	a1,0xc0000

0000000000003ffc <.LBB67_96>:
    3ffc:	f8c43823          	sd	a2,-112(s0)
    4000:	00001537          	lui	a0,0x1
    4004:	40a40533          	sub	a0,s0,a0
    4008:	06b53423          	sd	a1,104(a0) # 1068 <.LBB67_3+0xe54>
    400c:	eb043503          	ld	a0,-336(s0)
    4010:	80843583          	ld	a1,-2040(s0)
    4014:	00a58533          	add	a0,a1,a0
    4018:	01a50533          	add	a0,a0,s10
    401c:	40e5053b          	subw	a0,a0,a4
    4020:	a005051b          	addiw	a0,a0,-1536
    4024:	400005b7          	lui	a1,0x40000
    4028:	00001637          	lui	a2,0x1
    402c:	40c40633          	sub	a2,s0,a2
    4030:	08a63023          	sd	a0,128(a2) # 1080 <.LBB67_3+0xe6c>
    4034:	f9043603          	ld	a2,-112(s0)
    4038:	00055463          	bgez	a0,4040 <.LBB67_98>
    403c:	c00005b7          	lui	a1,0xc0000

0000000000004040 <.LBB67_98>:
    4040:	f8c43823          	sd	a2,-112(s0)
    4044:	00001537          	lui	a0,0x1
    4048:	40a40533          	sub	a0,s0,a0
    404c:	06b53c23          	sd	a1,120(a0) # 1078 <.LBB67_3+0xe64>
    4050:	eb843503          	ld	a0,-328(s0)
    4054:	81043583          	ld	a1,-2032(s0)
    4058:	00a58533          	add	a0,a1,a0
    405c:	000015b7          	lui	a1,0x1
    4060:	40b405b3          	sub	a1,s0,a1
    4064:	7185b583          	ld	a1,1816(a1) # 1718 <.LBB67_5+0x24>
    4068:	00b50533          	add	a0,a0,a1
    406c:	40e5053b          	subw	a0,a0,a4
    4070:	a005051b          	addiw	a0,a0,-1536
    4074:	400005b7          	lui	a1,0x40000
    4078:	00001637          	lui	a2,0x1
    407c:	40c40633          	sub	a2,s0,a2
    4080:	08a63823          	sd	a0,144(a2) # 1090 <.LBB67_3+0xe7c>
    4084:	f9043603          	ld	a2,-112(s0)
    4088:	00055463          	bgez	a0,4090 <.LBB67_100>
    408c:	c00005b7          	lui	a1,0xc0000

0000000000004090 <.LBB67_100>:
    4090:	f8c43823          	sd	a2,-112(s0)
    4094:	00001537          	lui	a0,0x1
    4098:	40a40533          	sub	a0,s0,a0
    409c:	08b53423          	sd	a1,136(a0) # 1088 <.LBB67_3+0xe74>
    40a0:	ec043503          	ld	a0,-320(s0)
    40a4:	81843583          	ld	a1,-2024(s0)
    40a8:	00a58533          	add	a0,a1,a0
    40ac:	000015b7          	lui	a1,0x1
    40b0:	40b405b3          	sub	a1,s0,a1
    40b4:	7205b583          	ld	a1,1824(a1) # 1720 <.LBB67_5+0x2c>
    40b8:	00b50533          	add	a0,a0,a1
    40bc:	40e5053b          	subw	a0,a0,a4
    40c0:	a005051b          	addiw	a0,a0,-1536
    40c4:	400005b7          	lui	a1,0x40000
    40c8:	00001637          	lui	a2,0x1
    40cc:	40c40633          	sub	a2,s0,a2
    40d0:	0aa63023          	sd	a0,160(a2) # 10a0 <.LBB67_3+0xe8c>
    40d4:	f9043603          	ld	a2,-112(s0)
    40d8:	00055463          	bgez	a0,40e0 <.LBB67_102>
    40dc:	c00005b7          	lui	a1,0xc0000

00000000000040e0 <.LBB67_102>:
    40e0:	f8c43823          	sd	a2,-112(s0)
    40e4:	00001537          	lui	a0,0x1
    40e8:	40a40533          	sub	a0,s0,a0
    40ec:	08b53c23          	sd	a1,152(a0) # 1098 <.LBB67_3+0xe84>
    40f0:	f1043503          	ld	a0,-240(s0)
    40f4:	82043583          	ld	a1,-2016(s0)
    40f8:	00a58533          	add	a0,a1,a0
    40fc:	000015b7          	lui	a1,0x1
    4100:	40b405b3          	sub	a1,s0,a1
    4104:	7285b583          	ld	a1,1832(a1) # 1728 <.LBB67_5+0x34>
    4108:	00b50533          	add	a0,a0,a1
    410c:	40e5053b          	subw	a0,a0,a4
    4110:	a005051b          	addiw	a0,a0,-1536
    4114:	400005b7          	lui	a1,0x40000
    4118:	00001637          	lui	a2,0x1
    411c:	40c40633          	sub	a2,s0,a2
    4120:	0aa63823          	sd	a0,176(a2) # 10b0 <.LBB67_3+0xe9c>
    4124:	f9043603          	ld	a2,-112(s0)
    4128:	00055463          	bgez	a0,4130 <.LBB67_104>
    412c:	c00005b7          	lui	a1,0xc0000

0000000000004130 <.LBB67_104>:
    4130:	f8c43823          	sd	a2,-112(s0)
    4134:	00001537          	lui	a0,0x1
    4138:	40a40533          	sub	a0,s0,a0
    413c:	0ab53423          	sd	a1,168(a0) # 10a8 <.LBB67_3+0xe94>
    4140:	f1843503          	ld	a0,-232(s0)
    4144:	82843583          	ld	a1,-2008(s0)
    4148:	00a58533          	add	a0,a1,a0
    414c:	000015b7          	lui	a1,0x1
    4150:	40b405b3          	sub	a1,s0,a1
    4154:	7305b583          	ld	a1,1840(a1) # 1730 <.LBB67_5+0x3c>
    4158:	00b50533          	add	a0,a0,a1
    415c:	40e5053b          	subw	a0,a0,a4
    4160:	a005051b          	addiw	a0,a0,-1536
    4164:	400005b7          	lui	a1,0x40000
    4168:	00001637          	lui	a2,0x1
    416c:	40c40633          	sub	a2,s0,a2
    4170:	0ca63023          	sd	a0,192(a2) # 10c0 <.LBB67_3+0xeac>
    4174:	f9043603          	ld	a2,-112(s0)
    4178:	00055463          	bgez	a0,4180 <.LBB67_106>
    417c:	c00005b7          	lui	a1,0xc0000

0000000000004180 <.LBB67_106>:
    4180:	00001537          	lui	a0,0x1
    4184:	40a40533          	sub	a0,s0,a0
    4188:	0ab53c23          	sd	a1,184(a0) # 10b8 <.LBB67_3+0xea4>
    418c:	f2043503          	ld	a0,-224(s0)
    4190:	83043583          	ld	a1,-2000(s0)
    4194:	00a58533          	add	a0,a1,a0
    4198:	000015b7          	lui	a1,0x1
    419c:	40b405b3          	sub	a1,s0,a1
    41a0:	7385b583          	ld	a1,1848(a1) # 1738 <.LBB67_5+0x44>
    41a4:	00b50533          	add	a0,a0,a1
    41a8:	40e5053b          	subw	a0,a0,a4
    41ac:	a005051b          	addiw	a0,a0,-1536
    41b0:	400005b7          	lui	a1,0x40000
    41b4:	82a43823          	sd	a0,-2000(s0)
    41b8:	00055463          	bgez	a0,41c0 <.LBB67_108>
    41bc:	c00005b7          	lui	a1,0xc0000

00000000000041c0 <.LBB67_108>:
    41c0:	f8c43823          	sd	a2,-112(s0)
    41c4:	00001537          	lui	a0,0x1
    41c8:	40a40533          	sub	a0,s0,a0
    41cc:	0cb53423          	sd	a1,200(a0) # 10c8 <.LBB67_3+0xeb4>
    41d0:	f2843503          	ld	a0,-216(s0)
    41d4:	83843583          	ld	a1,-1992(s0)
    41d8:	00a58533          	add	a0,a1,a0
    41dc:	000015b7          	lui	a1,0x1
    41e0:	40b405b3          	sub	a1,s0,a1
    41e4:	7405b583          	ld	a1,1856(a1) # 1740 <.LBB67_5+0x4c>
    41e8:	00b50533          	add	a0,a0,a1
    41ec:	40e5053b          	subw	a0,a0,a4
    41f0:	a005051b          	addiw	a0,a0,-1536
    41f4:	400005b7          	lui	a1,0x40000
    41f8:	00001637          	lui	a2,0x1
    41fc:	40c40633          	sub	a2,s0,a2
    4200:	7ea63423          	sd	a0,2024(a2) # 17e8 <.LBB67_5+0xf4>
    4204:	f9043603          	ld	a2,-112(s0)
    4208:	00055463          	bgez	a0,4210 <.LBB67_110>
    420c:	c00005b7          	lui	a1,0xc0000

0000000000004210 <.LBB67_110>:
    4210:	f8c43823          	sd	a2,-112(s0)
    4214:	00001537          	lui	a0,0x1
    4218:	40a40533          	sub	a0,s0,a0
    421c:	0cb53823          	sd	a1,208(a0) # 10d0 <.LBB67_3+0xebc>
    4220:	f3043503          	ld	a0,-208(s0)
    4224:	84043583          	ld	a1,-1984(s0)
    4228:	00a58533          	add	a0,a1,a0
    422c:	000015b7          	lui	a1,0x1
    4230:	40b405b3          	sub	a1,s0,a1
    4234:	7485b583          	ld	a1,1864(a1) # 1748 <.LBB67_5+0x54>
    4238:	00b50533          	add	a0,a0,a1
    423c:	40e5053b          	subw	a0,a0,a4
    4240:	a005051b          	addiw	a0,a0,-1536
    4244:	400005b7          	lui	a1,0x40000
    4248:	00001637          	lui	a2,0x1
    424c:	40c40633          	sub	a2,s0,a2
    4250:	7aa63823          	sd	a0,1968(a2) # 17b0 <.LBB67_5+0xbc>
    4254:	f9043603          	ld	a2,-112(s0)
    4258:	00055463          	bgez	a0,4260 <.LBB67_112>
    425c:	c00005b7          	lui	a1,0xc0000

0000000000004260 <.LBB67_112>:
    4260:	f8c43823          	sd	a2,-112(s0)
    4264:	00001537          	lui	a0,0x1
    4268:	40a40533          	sub	a0,s0,a0
    426c:	0cb53c23          	sd	a1,216(a0) # 10d8 <.LBB67_3+0xec4>
    4270:	f3843503          	ld	a0,-200(s0)
    4274:	84843583          	ld	a1,-1976(s0)
    4278:	00a58533          	add	a0,a1,a0
    427c:	000015b7          	lui	a1,0x1
    4280:	40b405b3          	sub	a1,s0,a1
    4284:	7505b583          	ld	a1,1872(a1) # 1750 <.LBB67_5+0x5c>
    4288:	00b50533          	add	a0,a0,a1
    428c:	40e5053b          	subw	a0,a0,a4
    4290:	a005051b          	addiw	a0,a0,-1536
    4294:	400005b7          	lui	a1,0x40000
    4298:	00001637          	lui	a2,0x1
    429c:	40c40633          	sub	a2,s0,a2
    42a0:	0ea63423          	sd	a0,232(a2) # 10e8 <.LBB67_3+0xed4>
    42a4:	f9043603          	ld	a2,-112(s0)
    42a8:	00055463          	bgez	a0,42b0 <.LBB67_114>
    42ac:	c00005b7          	lui	a1,0xc0000

00000000000042b0 <.LBB67_114>:
    42b0:	f8c43823          	sd	a2,-112(s0)
    42b4:	00001537          	lui	a0,0x1
    42b8:	40a40533          	sub	a0,s0,a0
    42bc:	0eb53023          	sd	a1,224(a0) # 10e0 <.LBB67_3+0xecc>
    42c0:	f4043503          	ld	a0,-192(s0)
    42c4:	85043583          	ld	a1,-1968(s0)
    42c8:	00a58533          	add	a0,a1,a0
    42cc:	000015b7          	lui	a1,0x1
    42d0:	40b405b3          	sub	a1,s0,a1
    42d4:	7585b583          	ld	a1,1880(a1) # 1758 <.LBB67_5+0x64>
    42d8:	00b50533          	add	a0,a0,a1
    42dc:	40e5053b          	subw	a0,a0,a4
    42e0:	a005051b          	addiw	a0,a0,-1536
    42e4:	400005b7          	lui	a1,0x40000
    42e8:	00001637          	lui	a2,0x1
    42ec:	40c40633          	sub	a2,s0,a2
    42f0:	0ea63c23          	sd	a0,248(a2) # 10f8 <.LBB67_3+0xee4>
    42f4:	f9043603          	ld	a2,-112(s0)
    42f8:	00055463          	bgez	a0,4300 <.LBB67_116>
    42fc:	c00005b7          	lui	a1,0xc0000

0000000000004300 <.LBB67_116>:
    4300:	f8c43823          	sd	a2,-112(s0)
    4304:	00001537          	lui	a0,0x1
    4308:	40a40533          	sub	a0,s0,a0
    430c:	0eb53823          	sd	a1,240(a0) # 10f0 <.LBB67_3+0xedc>
    4310:	f4843503          	ld	a0,-184(s0)
    4314:	85843583          	ld	a1,-1960(s0)
    4318:	00a58533          	add	a0,a1,a0
    431c:	000015b7          	lui	a1,0x1
    4320:	40b405b3          	sub	a1,s0,a1
    4324:	7605b583          	ld	a1,1888(a1) # 1760 <.LBB67_5+0x6c>
    4328:	00b50533          	add	a0,a0,a1
    432c:	40e5053b          	subw	a0,a0,a4
    4330:	a005051b          	addiw	a0,a0,-1536
    4334:	400005b7          	lui	a1,0x40000
    4338:	00001637          	lui	a2,0x1
    433c:	40c40633          	sub	a2,s0,a2
    4340:	10a63423          	sd	a0,264(a2) # 1108 <.LBB67_3+0xef4>
    4344:	f9043603          	ld	a2,-112(s0)
    4348:	00055463          	bgez	a0,4350 <.LBB67_118>
    434c:	c00005b7          	lui	a1,0xc0000

0000000000004350 <.LBB67_118>:
    4350:	f8c43823          	sd	a2,-112(s0)
    4354:	00001537          	lui	a0,0x1
    4358:	40a40533          	sub	a0,s0,a0
    435c:	10b53023          	sd	a1,256(a0) # 1100 <.LBB67_3+0xeec>
    4360:	f5043503          	ld	a0,-176(s0)
    4364:	86043583          	ld	a1,-1952(s0)
    4368:	00a58533          	add	a0,a1,a0
    436c:	000015b7          	lui	a1,0x1
    4370:	40b405b3          	sub	a1,s0,a1
    4374:	7685b583          	ld	a1,1896(a1) # 1768 <.LBB67_5+0x74>
    4378:	00b50533          	add	a0,a0,a1
    437c:	40e5053b          	subw	a0,a0,a4
    4380:	a005051b          	addiw	a0,a0,-1536
    4384:	400005b7          	lui	a1,0x40000
    4388:	00001637          	lui	a2,0x1
    438c:	40c40633          	sub	a2,s0,a2
    4390:	10a63c23          	sd	a0,280(a2) # 1118 <.LBB67_3+0xf04>
    4394:	f9043603          	ld	a2,-112(s0)
    4398:	00055463          	bgez	a0,43a0 <.LBB67_120>
    439c:	c00005b7          	lui	a1,0xc0000

00000000000043a0 <.LBB67_120>:
    43a0:	f8c43823          	sd	a2,-112(s0)
    43a4:	00001537          	lui	a0,0x1
    43a8:	40a40533          	sub	a0,s0,a0
    43ac:	10b53823          	sd	a1,272(a0) # 1110 <.LBB67_3+0xefc>
    43b0:	f5843503          	ld	a0,-168(s0)
    43b4:	86843583          	ld	a1,-1944(s0)
    43b8:	00a58533          	add	a0,a1,a0
    43bc:	000015b7          	lui	a1,0x1
    43c0:	40b405b3          	sub	a1,s0,a1
    43c4:	7705b583          	ld	a1,1904(a1) # 1770 <.LBB67_5+0x7c>
    43c8:	00b50533          	add	a0,a0,a1
    43cc:	40e5053b          	subw	a0,a0,a4
    43d0:	a005051b          	addiw	a0,a0,-1536
    43d4:	400005b7          	lui	a1,0x40000
    43d8:	00001637          	lui	a2,0x1
    43dc:	40c40633          	sub	a2,s0,a2
    43e0:	12a63423          	sd	a0,296(a2) # 1128 <.LBB67_3+0xf14>
    43e4:	f9043603          	ld	a2,-112(s0)
    43e8:	00055463          	bgez	a0,43f0 <.LBB67_122>
    43ec:	c00005b7          	lui	a1,0xc0000

00000000000043f0 <.LBB67_122>:
    43f0:	f8c43823          	sd	a2,-112(s0)
    43f4:	00001537          	lui	a0,0x1
    43f8:	40a40533          	sub	a0,s0,a0
    43fc:	12b53023          	sd	a1,288(a0) # 1120 <.LBB67_3+0xf0c>
    4400:	f6043503          	ld	a0,-160(s0)
    4404:	87043583          	ld	a1,-1936(s0)
    4408:	00a58533          	add	a0,a1,a0
    440c:	000015b7          	lui	a1,0x1
    4410:	40b405b3          	sub	a1,s0,a1
    4414:	7785b583          	ld	a1,1912(a1) # 1778 <.LBB67_5+0x84>
    4418:	00b50533          	add	a0,a0,a1
    441c:	40e5053b          	subw	a0,a0,a4
    4420:	a005051b          	addiw	a0,a0,-1536
    4424:	400005b7          	lui	a1,0x40000
    4428:	00001637          	lui	a2,0x1
    442c:	40c40633          	sub	a2,s0,a2
    4430:	12a63c23          	sd	a0,312(a2) # 1138 <.LBB67_3+0xf24>
    4434:	f9043603          	ld	a2,-112(s0)
    4438:	00055463          	bgez	a0,4440 <.LBB67_124>
    443c:	c00005b7          	lui	a1,0xc0000

0000000000004440 <.LBB67_124>:
    4440:	f8c43823          	sd	a2,-112(s0)
    4444:	00001537          	lui	a0,0x1
    4448:	40a40533          	sub	a0,s0,a0
    444c:	12b53823          	sd	a1,304(a0) # 1130 <.LBB67_3+0xf1c>
    4450:	f6843503          	ld	a0,-152(s0)
    4454:	87843583          	ld	a1,-1928(s0)
    4458:	00a58533          	add	a0,a1,a0
    445c:	00750533          	add	a0,a0,t2
    4460:	40e5053b          	subw	a0,a0,a4
    4464:	a005051b          	addiw	a0,a0,-1536
    4468:	400005b7          	lui	a1,0x40000
    446c:	00001637          	lui	a2,0x1
    4470:	40c40633          	sub	a2,s0,a2
    4474:	14a63423          	sd	a0,328(a2) # 1148 <.LBB67_3+0xf34>
    4478:	f9043603          	ld	a2,-112(s0)
    447c:	00055463          	bgez	a0,4484 <.LBB67_126>
    4480:	c00005b7          	lui	a1,0xc0000

0000000000004484 <.LBB67_126>:
    4484:	f8c43823          	sd	a2,-112(s0)
    4488:	00001537          	lui	a0,0x1
    448c:	40a40533          	sub	a0,s0,a0
    4490:	14b53023          	sd	a1,320(a0) # 1140 <.LBB67_3+0xf2c>
    4494:	f7043503          	ld	a0,-144(s0)
    4498:	88043583          	ld	a1,-1920(s0)
    449c:	00a58533          	add	a0,a1,a0
    44a0:	00650533          	add	a0,a0,t1
    44a4:	40e5053b          	subw	a0,a0,a4
    44a8:	a005051b          	addiw	a0,a0,-1536
    44ac:	400005b7          	lui	a1,0x40000
    44b0:	00001637          	lui	a2,0x1
    44b4:	40c40633          	sub	a2,s0,a2
    44b8:	14a63c23          	sd	a0,344(a2) # 1158 <.LBB67_3+0xf44>
    44bc:	f9043603          	ld	a2,-112(s0)
    44c0:	00055463          	bgez	a0,44c8 <.LBB67_128>
    44c4:	c00005b7          	lui	a1,0xc0000

00000000000044c8 <.LBB67_128>:
    44c8:	f8c43823          	sd	a2,-112(s0)
    44cc:	00001537          	lui	a0,0x1
    44d0:	40a40533          	sub	a0,s0,a0
    44d4:	14b53823          	sd	a1,336(a0) # 1150 <.LBB67_3+0xf3c>
    44d8:	f7843503          	ld	a0,-136(s0)
    44dc:	88843583          	ld	a1,-1912(s0)
    44e0:	00a58533          	add	a0,a1,a0
    44e4:	00550533          	add	a0,a0,t0
    44e8:	40e5053b          	subw	a0,a0,a4
    44ec:	a005051b          	addiw	a0,a0,-1536
    44f0:	400005b7          	lui	a1,0x40000
    44f4:	00001637          	lui	a2,0x1
    44f8:	40c40633          	sub	a2,s0,a2
    44fc:	16a63423          	sd	a0,360(a2) # 1168 <.LBB67_3+0xf54>
    4500:	f9043603          	ld	a2,-112(s0)
    4504:	00055463          	bgez	a0,450c <.LBB67_130>
    4508:	c00005b7          	lui	a1,0xc0000

000000000000450c <.LBB67_130>:
    450c:	00001537          	lui	a0,0x1
    4510:	40a40533          	sub	a0,s0,a0
    4514:	16b53023          	sd	a1,352(a0) # 1160 <.LBB67_3+0xf4c>
    4518:	f8043503          	ld	a0,-128(s0)
    451c:	00a88533          	add	a0,a7,a0
    4520:	000015b7          	lui	a1,0x1
    4524:	40b405b3          	sub	a1,s0,a1
    4528:	7905b583          	ld	a1,1936(a1) # 1790 <.LBB67_5+0x9c>
    452c:	00b50533          	add	a0,a0,a1
    4530:	40e5053b          	subw	a0,a0,a4
    4534:	a005051b          	addiw	a0,a0,-1536
    4538:	400005b7          	lui	a1,0x40000
    453c:	000018b7          	lui	a7,0x1
    4540:	411408b3          	sub	a7,s0,a7
    4544:	16a8bc23          	sd	a0,376(a7) # 1178 <.LBB67_4+0x8>
    4548:	00055463          	bgez	a0,4550 <.LBB67_132>
    454c:	c00005b7          	lui	a1,0xc0000

0000000000004550 <.LBB67_132>:
    4550:	00001537          	lui	a0,0x1
    4554:	40a40533          	sub	a0,s0,a0
    4558:	16b53823          	sd	a1,368(a0) # 1170 <.LBB67_4>
    455c:	f8843503          	ld	a0,-120(s0)
    4560:	89843583          	ld	a1,-1896(s0)
    4564:	00a58533          	add	a0,a1,a0
    4568:	01c50533          	add	a0,a0,t3
    456c:	40e5053b          	subw	a0,a0,a4
    4570:	a005051b          	addiw	a0,a0,-1536
    4574:	400005b7          	lui	a1,0x40000
    4578:	00001737          	lui	a4,0x1
    457c:	40e40733          	sub	a4,s0,a4
    4580:	18a73823          	sd	a0,400(a4) # 1190 <.LBB67_4+0x20>
    4584:	00055463          	bgez	a0,458c <.LBB67_134>
    4588:	c00005b7          	lui	a1,0xc0000

000000000000458c <.LBB67_134>:
    458c:	00001537          	lui	a0,0x1
    4590:	40a40533          	sub	a0,s0,a0
    4594:	18b53023          	sd	a1,384(a0) # 1180 <.LBB67_4+0x10>
    4598:	00001537          	lui	a0,0x1
    459c:	40a40533          	sub	a0,s0,a0
    45a0:	68053703          	ld	a4,1664(a0) # 1680 <.LBB67_4+0x510>
    45a4:	00171513          	slli	a0,a4,0x1
    45a8:	e9043583          	ld	a1,-368(s0)
    45ac:	00b685b3          	add	a1,a3,a1
    45b0:	00e506b3          	add	a3,a0,a4
    45b4:	e8843503          	ld	a0,-376(s0)
    45b8:	00a585b3          	add	a1,a1,a0
    45bc:	40d585bb          	subw	a1,a1,a3
    45c0:	a005851b          	addiw	a0,a1,-1536 # ffffffffbffffa00 <.Lfunc_end80+0xffffffffbffd7038>
    45c4:	400005b7          	lui	a1,0x40000
    45c8:	e3843703          	ld	a4,-456(s0)
    45cc:	000018b7          	lui	a7,0x1
    45d0:	411408b3          	sub	a7,s0,a7
    45d4:	18a8bc23          	sd	a0,408(a7) # 1198 <.LBB67_4+0x28>
    45d8:	00055463          	bgez	a0,45e0 <.LBB67_136>
    45dc:	c00005b7          	lui	a1,0xc0000

00000000000045e0 <.LBB67_136>:
    45e0:	00001537          	lui	a0,0x1
    45e4:	40a40533          	sub	a0,s0,a0
    45e8:	18b53423          	sd	a1,392(a0) # 1188 <.LBB67_4+0x18>
    45ec:	e8043503          	ld	a0,-384(s0)
    45f0:	8a843583          	ld	a1,-1880(s0)
    45f4:	00a58533          	add	a0,a1,a0
    45f8:	e7843583          	ld	a1,-392(s0)
    45fc:	00b50533          	add	a0,a0,a1
    4600:	40d5053b          	subw	a0,a0,a3
    4604:	a005051b          	addiw	a0,a0,-1536
    4608:	400005b7          	lui	a1,0x40000
    460c:	000018b7          	lui	a7,0x1
    4610:	411408b3          	sub	a7,s0,a7
    4614:	1aa8b423          	sd	a0,424(a7) # 11a8 <.LBB67_4+0x38>
    4618:	00055463          	bgez	a0,4620 <.LBB67_138>
    461c:	c00005b7          	lui	a1,0xc0000

0000000000004620 <.LBB67_138>:
    4620:	00001537          	lui	a0,0x1
    4624:	40a40533          	sub	a0,s0,a0
    4628:	1ab53023          	sd	a1,416(a0) # 11a0 <.LBB67_4+0x30>
    462c:	e7043503          	ld	a0,-400(s0)
    4630:	8b043583          	ld	a1,-1872(s0)
    4634:	00a58533          	add	a0,a1,a0
    4638:	e6843583          	ld	a1,-408(s0)
    463c:	00b50533          	add	a0,a0,a1
    4640:	40d5053b          	subw	a0,a0,a3
    4644:	a005051b          	addiw	a0,a0,-1536
    4648:	400005b7          	lui	a1,0x40000
    464c:	000018b7          	lui	a7,0x1
    4650:	411408b3          	sub	a7,s0,a7
    4654:	1aa8bc23          	sd	a0,440(a7) # 11b8 <.LBB67_4+0x48>
    4658:	00055463          	bgez	a0,4660 <.LBB67_140>
    465c:	c00005b7          	lui	a1,0xc0000

0000000000004660 <.LBB67_140>:
    4660:	00001537          	lui	a0,0x1
    4664:	40a40533          	sub	a0,s0,a0
    4668:	1ab53823          	sd	a1,432(a0) # 11b0 <.LBB67_4+0x40>
    466c:	e6043503          	ld	a0,-416(s0)
    4670:	8b843583          	ld	a1,-1864(s0)
    4674:	00a58533          	add	a0,a1,a0
    4678:	e5843583          	ld	a1,-424(s0)
    467c:	00b50533          	add	a0,a0,a1
    4680:	40d5053b          	subw	a0,a0,a3
    4684:	a005051b          	addiw	a0,a0,-1536
    4688:	400005b7          	lui	a1,0x40000
    468c:	000018b7          	lui	a7,0x1
    4690:	411408b3          	sub	a7,s0,a7
    4694:	1ca8b423          	sd	a0,456(a7) # 11c8 <.LBB67_4+0x58>
    4698:	00055463          	bgez	a0,46a0 <.LBB67_142>
    469c:	c00005b7          	lui	a1,0xc0000

00000000000046a0 <.LBB67_142>:
    46a0:	00001537          	lui	a0,0x1
    46a4:	40a40533          	sub	a0,s0,a0
    46a8:	1cb53023          	sd	a1,448(a0) # 11c0 <.LBB67_4+0x50>
    46ac:	e5043503          	ld	a0,-432(s0)
    46b0:	8c043583          	ld	a1,-1856(s0)
    46b4:	00a58533          	add	a0,a1,a0
    46b8:	000015b7          	lui	a1,0x1
    46bc:	40b405b3          	sub	a1,s0,a1
    46c0:	6e85b583          	ld	a1,1768(a1) # 16e8 <.LBB67_4+0x578>
    46c4:	00b50533          	add	a0,a0,a1
    46c8:	40d5053b          	subw	a0,a0,a3
    46cc:	a005051b          	addiw	a0,a0,-1536
    46d0:	400005b7          	lui	a1,0x40000
    46d4:	000018b7          	lui	a7,0x1
    46d8:	411408b3          	sub	a7,s0,a7
    46dc:	1ca8bc23          	sd	a0,472(a7) # 11d8 <.LBB67_4+0x68>
    46e0:	00055463          	bgez	a0,46e8 <.LBB67_144>
    46e4:	c00005b7          	lui	a1,0xc0000

00000000000046e8 <.LBB67_144>:
    46e8:	00001537          	lui	a0,0x1
    46ec:	40a40533          	sub	a0,s0,a0
    46f0:	1cb53823          	sd	a1,464(a0) # 11d0 <.LBB67_4+0x60>
    46f4:	00001537          	lui	a0,0x1
    46f8:	40a40533          	sub	a0,s0,a0
    46fc:	6e053503          	ld	a0,1760(a0) # 16e0 <.LBB67_4+0x570>
    4700:	8c843583          	ld	a1,-1848(s0)
    4704:	00a58533          	add	a0,a1,a0
    4708:	000015b7          	lui	a1,0x1
    470c:	40b405b3          	sub	a1,s0,a1
    4710:	6d85b583          	ld	a1,1752(a1) # 16d8 <.LBB67_4+0x568>
    4714:	00b50533          	add	a0,a0,a1
    4718:	40d5053b          	subw	a0,a0,a3
    471c:	a005051b          	addiw	a0,a0,-1536
    4720:	400005b7          	lui	a1,0x40000
    4724:	000018b7          	lui	a7,0x1
    4728:	411408b3          	sub	a7,s0,a7
    472c:	1ea8b423          	sd	a0,488(a7) # 11e8 <.LBB67_4+0x78>
    4730:	00055463          	bgez	a0,4738 <.LBB67_146>
    4734:	c00005b7          	lui	a1,0xc0000

0000000000004738 <.LBB67_146>:
    4738:	00001537          	lui	a0,0x1
    473c:	40a40533          	sub	a0,s0,a0
    4740:	1eb53023          	sd	a1,480(a0) # 11e0 <.LBB67_4+0x70>
    4744:	00001537          	lui	a0,0x1
    4748:	40a40533          	sub	a0,s0,a0
    474c:	6d053503          	ld	a0,1744(a0) # 16d0 <.LBB67_4+0x560>
    4750:	8d043583          	ld	a1,-1840(s0)
    4754:	00a58533          	add	a0,a1,a0
    4758:	000015b7          	lui	a1,0x1
    475c:	40b405b3          	sub	a1,s0,a1
    4760:	6c85b583          	ld	a1,1736(a1) # 16c8 <.LBB67_4+0x558>
    4764:	00b50533          	add	a0,a0,a1
    4768:	40d5053b          	subw	a0,a0,a3
    476c:	a005051b          	addiw	a0,a0,-1536
    4770:	400005b7          	lui	a1,0x40000
    4774:	000018b7          	lui	a7,0x1
    4778:	411408b3          	sub	a7,s0,a7
    477c:	1ea8bc23          	sd	a0,504(a7) # 11f8 <.LBB67_4+0x88>
    4780:	00055463          	bgez	a0,4788 <.LBB67_148>
    4784:	c00005b7          	lui	a1,0xc0000

0000000000004788 <.LBB67_148>:
    4788:	00001537          	lui	a0,0x1
    478c:	40a40533          	sub	a0,s0,a0
    4790:	1eb53823          	sd	a1,496(a0) # 11f0 <.LBB67_4+0x80>
    4794:	00001537          	lui	a0,0x1
    4798:	40a40533          	sub	a0,s0,a0
    479c:	6c053503          	ld	a0,1728(a0) # 16c0 <.LBB67_4+0x550>
    47a0:	8d843583          	ld	a1,-1832(s0)
    47a4:	00a58533          	add	a0,a1,a0
    47a8:	000015b7          	lui	a1,0x1
    47ac:	40b405b3          	sub	a1,s0,a1
    47b0:	6b85b583          	ld	a1,1720(a1) # 16b8 <.LBB67_4+0x548>
    47b4:	00b50533          	add	a0,a0,a1
    47b8:	40d5053b          	subw	a0,a0,a3
    47bc:	a005051b          	addiw	a0,a0,-1536
    47c0:	400005b7          	lui	a1,0x40000
    47c4:	000018b7          	lui	a7,0x1
    47c8:	411408b3          	sub	a7,s0,a7
    47cc:	20a8b423          	sd	a0,520(a7) # 1208 <.LBB67_4+0x98>
    47d0:	00055463          	bgez	a0,47d8 <.LBB67_150>
    47d4:	c00005b7          	lui	a1,0xc0000

00000000000047d8 <.LBB67_150>:
    47d8:	00001537          	lui	a0,0x1
    47dc:	40a40533          	sub	a0,s0,a0
    47e0:	20b53023          	sd	a1,512(a0) # 1200 <.LBB67_4+0x90>
    47e4:	8e043503          	ld	a0,-1824(s0)
    47e8:	000015b7          	lui	a1,0x1
    47ec:	40b405b3          	sub	a1,s0,a1
    47f0:	6b05b583          	ld	a1,1712(a1) # 16b0 <.LBB67_4+0x540>
    47f4:	00b50533          	add	a0,a0,a1
    47f8:	000015b7          	lui	a1,0x1
    47fc:	40b405b3          	sub	a1,s0,a1
    4800:	6a85b583          	ld	a1,1704(a1) # 16a8 <.LBB67_4+0x538>
    4804:	00b50533          	add	a0,a0,a1
    4808:	40d5053b          	subw	a0,a0,a3
    480c:	a005051b          	addiw	a0,a0,-1536
    4810:	400005b7          	lui	a1,0x40000
    4814:	000018b7          	lui	a7,0x1
    4818:	411408b3          	sub	a7,s0,a7
    481c:	20a8bc23          	sd	a0,536(a7) # 1218 <.LBB67_4+0xa8>
    4820:	00055463          	bgez	a0,4828 <.LBB67_152>
    4824:	c00005b7          	lui	a1,0xc0000

0000000000004828 <.LBB67_152>:
    4828:	00001537          	lui	a0,0x1
    482c:	40a40533          	sub	a0,s0,a0
    4830:	20b53823          	sd	a1,528(a0) # 1210 <.LBB67_4+0xa0>
    4834:	8e843503          	ld	a0,-1816(s0)
    4838:	000015b7          	lui	a1,0x1
    483c:	40b405b3          	sub	a1,s0,a1
    4840:	6985b583          	ld	a1,1688(a1) # 1698 <.LBB67_4+0x528>
    4844:	00b50533          	add	a0,a0,a1
    4848:	000015b7          	lui	a1,0x1
    484c:	40b405b3          	sub	a1,s0,a1
    4850:	6f05b583          	ld	a1,1776(a1) # 16f0 <.LBB67_4+0x580>
    4854:	00b50533          	add	a0,a0,a1
    4858:	40d5053b          	subw	a0,a0,a3
    485c:	a005051b          	addiw	a0,a0,-1536
    4860:	400005b7          	lui	a1,0x40000
    4864:	000018b7          	lui	a7,0x1
    4868:	411408b3          	sub	a7,s0,a7
    486c:	22a8b423          	sd	a0,552(a7) # 1228 <.LBB67_4+0xb8>
    4870:	00055463          	bgez	a0,4878 <.LBB67_154>
    4874:	c00005b7          	lui	a1,0xc0000

0000000000004878 <.LBB67_154>:
    4878:	00001537          	lui	a0,0x1
    487c:	40a40533          	sub	a0,s0,a0
    4880:	22b53023          	sd	a1,544(a0) # 1220 <.LBB67_4+0xb0>
    4884:	8f043503          	ld	a0,-1808(s0)
    4888:	e9843583          	ld	a1,-360(s0)
    488c:	00b50533          	add	a0,a0,a1
    4890:	000015b7          	lui	a1,0x1
    4894:	40b405b3          	sub	a1,s0,a1
    4898:	6f85b583          	ld	a1,1784(a1) # 16f8 <.LBB67_5+0x4>
    489c:	00b50533          	add	a0,a0,a1
    48a0:	40d5053b          	subw	a0,a0,a3
    48a4:	a005051b          	addiw	a0,a0,-1536
    48a8:	400005b7          	lui	a1,0x40000
    48ac:	000018b7          	lui	a7,0x1
    48b0:	411408b3          	sub	a7,s0,a7
    48b4:	22a8bc23          	sd	a0,568(a7) # 1238 <.LBB67_4+0xc8>
    48b8:	00055463          	bgez	a0,48c0 <.LBB67_156>
    48bc:	c00005b7          	lui	a1,0xc0000

00000000000048c0 <.LBB67_156>:
    48c0:	00001537          	lui	a0,0x1
    48c4:	40a40533          	sub	a0,s0,a0
    48c8:	22b53823          	sd	a1,560(a0) # 1230 <.LBB67_4+0xc0>
    48cc:	8f843503          	ld	a0,-1800(s0)
    48d0:	ea043583          	ld	a1,-352(s0)
    48d4:	00b50533          	add	a0,a0,a1
    48d8:	000015b7          	lui	a1,0x1
    48dc:	40b405b3          	sub	a1,s0,a1
    48e0:	7005b583          	ld	a1,1792(a1) # 1700 <.LBB67_5+0xc>
    48e4:	00b50533          	add	a0,a0,a1
    48e8:	40d5053b          	subw	a0,a0,a3
    48ec:	a005051b          	addiw	a0,a0,-1536
    48f0:	400005b7          	lui	a1,0x40000
    48f4:	000018b7          	lui	a7,0x1
    48f8:	411408b3          	sub	a7,s0,a7
    48fc:	24a8b423          	sd	a0,584(a7) # 1248 <.LBB67_4+0xd8>
    4900:	00055463          	bgez	a0,4908 <.LBB67_158>
    4904:	c00005b7          	lui	a1,0xc0000

0000000000004908 <.LBB67_158>:
    4908:	00001537          	lui	a0,0x1
    490c:	40a40533          	sub	a0,s0,a0
    4910:	24b53023          	sd	a1,576(a0) # 1240 <.LBB67_4+0xd0>
    4914:	90043503          	ld	a0,-1792(s0)
    4918:	ea843583          	ld	a1,-344(s0)
    491c:	00b50533          	add	a0,a0,a1
    4920:	000015b7          	lui	a1,0x1
    4924:	40b405b3          	sub	a1,s0,a1
    4928:	7085b583          	ld	a1,1800(a1) # 1708 <.LBB67_5+0x14>
    492c:	00b50533          	add	a0,a0,a1
    4930:	40d5053b          	subw	a0,a0,a3
    4934:	a005051b          	addiw	a0,a0,-1536
    4938:	400005b7          	lui	a1,0x40000
    493c:	000018b7          	lui	a7,0x1
    4940:	411408b3          	sub	a7,s0,a7
    4944:	24a8bc23          	sd	a0,600(a7) # 1258 <.LBB67_4+0xe8>
    4948:	00055463          	bgez	a0,4950 <.LBB67_160>
    494c:	c00005b7          	lui	a1,0xc0000

0000000000004950 <.LBB67_160>:
    4950:	00001537          	lui	a0,0x1
    4954:	40a40533          	sub	a0,s0,a0
    4958:	24b53823          	sd	a1,592(a0) # 1250 <.LBB67_4+0xe0>
    495c:	90843503          	ld	a0,-1784(s0)
    4960:	eb043583          	ld	a1,-336(s0)
    4964:	00b50533          	add	a0,a0,a1
    4968:	01a50533          	add	a0,a0,s10
    496c:	40d5053b          	subw	a0,a0,a3
    4970:	a005051b          	addiw	a0,a0,-1536
    4974:	400005b7          	lui	a1,0x40000
    4978:	000018b7          	lui	a7,0x1
    497c:	411408b3          	sub	a7,s0,a7
    4980:	26a8b423          	sd	a0,616(a7) # 1268 <.LBB67_4+0xf8>
    4984:	00055463          	bgez	a0,498c <.LBB67_162>
    4988:	c00005b7          	lui	a1,0xc0000

000000000000498c <.LBB67_162>:
    498c:	00001537          	lui	a0,0x1
    4990:	40a40533          	sub	a0,s0,a0
    4994:	26b53023          	sd	a1,608(a0) # 1260 <.LBB67_4+0xf0>
    4998:	91043503          	ld	a0,-1776(s0)
    499c:	eb843583          	ld	a1,-328(s0)
    49a0:	00b50533          	add	a0,a0,a1
    49a4:	000015b7          	lui	a1,0x1
    49a8:	40b405b3          	sub	a1,s0,a1
    49ac:	7185b583          	ld	a1,1816(a1) # 1718 <.LBB67_5+0x24>
    49b0:	00b50533          	add	a0,a0,a1
    49b4:	40d5053b          	subw	a0,a0,a3
    49b8:	a005051b          	addiw	a0,a0,-1536
    49bc:	400005b7          	lui	a1,0x40000
    49c0:	000018b7          	lui	a7,0x1
    49c4:	411408b3          	sub	a7,s0,a7
    49c8:	26a8bc23          	sd	a0,632(a7) # 1278 <.LBB67_4+0x108>
    49cc:	00055463          	bgez	a0,49d4 <.LBB67_164>
    49d0:	c00005b7          	lui	a1,0xc0000

00000000000049d4 <.LBB67_164>:
    49d4:	00001537          	lui	a0,0x1
    49d8:	40a40533          	sub	a0,s0,a0
    49dc:	26b53823          	sd	a1,624(a0) # 1270 <.LBB67_4+0x100>
    49e0:	91843503          	ld	a0,-1768(s0)
    49e4:	ec043583          	ld	a1,-320(s0)
    49e8:	00b50533          	add	a0,a0,a1
    49ec:	000015b7          	lui	a1,0x1
    49f0:	40b405b3          	sub	a1,s0,a1
    49f4:	7205b583          	ld	a1,1824(a1) # 1720 <.LBB67_5+0x2c>
    49f8:	00b50533          	add	a0,a0,a1
    49fc:	40d5053b          	subw	a0,a0,a3
    4a00:	a005051b          	addiw	a0,a0,-1536
    4a04:	400005b7          	lui	a1,0x40000
    4a08:	000018b7          	lui	a7,0x1
    4a0c:	411408b3          	sub	a7,s0,a7
    4a10:	28a8b423          	sd	a0,648(a7) # 1288 <.LBB67_4+0x118>
    4a14:	00055463          	bgez	a0,4a1c <.LBB67_166>
    4a18:	c00005b7          	lui	a1,0xc0000

0000000000004a1c <.LBB67_166>:
    4a1c:	00001537          	lui	a0,0x1
    4a20:	40a40533          	sub	a0,s0,a0
    4a24:	28b53023          	sd	a1,640(a0) # 1280 <.LBB67_4+0x110>
    4a28:	92043503          	ld	a0,-1760(s0)
    4a2c:	f1043583          	ld	a1,-240(s0)
    4a30:	00b50533          	add	a0,a0,a1
    4a34:	000015b7          	lui	a1,0x1
    4a38:	40b405b3          	sub	a1,s0,a1
    4a3c:	7285b583          	ld	a1,1832(a1) # 1728 <.LBB67_5+0x34>
    4a40:	00b50533          	add	a0,a0,a1
    4a44:	40d5053b          	subw	a0,a0,a3
    4a48:	a005051b          	addiw	a0,a0,-1536
    4a4c:	400005b7          	lui	a1,0x40000
    4a50:	000018b7          	lui	a7,0x1
    4a54:	411408b3          	sub	a7,s0,a7
    4a58:	28a8bc23          	sd	a0,664(a7) # 1298 <.LBB67_4+0x128>
    4a5c:	00055463          	bgez	a0,4a64 <.LBB67_168>
    4a60:	c00005b7          	lui	a1,0xc0000

0000000000004a64 <.LBB67_168>:
    4a64:	00001537          	lui	a0,0x1
    4a68:	40a40533          	sub	a0,s0,a0
    4a6c:	28b53823          	sd	a1,656(a0) # 1290 <.LBB67_4+0x120>
    4a70:	92843503          	ld	a0,-1752(s0)
    4a74:	f1843583          	ld	a1,-232(s0)
    4a78:	00b50533          	add	a0,a0,a1
    4a7c:	000015b7          	lui	a1,0x1
    4a80:	40b405b3          	sub	a1,s0,a1
    4a84:	7305b583          	ld	a1,1840(a1) # 1730 <.LBB67_5+0x3c>
    4a88:	00b50533          	add	a0,a0,a1
    4a8c:	40d5053b          	subw	a0,a0,a3
    4a90:	a005051b          	addiw	a0,a0,-1536
    4a94:	400005b7          	lui	a1,0x40000
    4a98:	000018b7          	lui	a7,0x1
    4a9c:	411408b3          	sub	a7,s0,a7
    4aa0:	2aa8b423          	sd	a0,680(a7) # 12a8 <.LBB67_4+0x138>
    4aa4:	00055463          	bgez	a0,4aac <.LBB67_170>
    4aa8:	c00005b7          	lui	a1,0xc0000

0000000000004aac <.LBB67_170>:
    4aac:	00001537          	lui	a0,0x1
    4ab0:	40a40533          	sub	a0,s0,a0
    4ab4:	2ab53023          	sd	a1,672(a0) # 12a0 <.LBB67_4+0x130>
    4ab8:	93043503          	ld	a0,-1744(s0)
    4abc:	f2043583          	ld	a1,-224(s0)
    4ac0:	00b50533          	add	a0,a0,a1
    4ac4:	000015b7          	lui	a1,0x1
    4ac8:	40b405b3          	sub	a1,s0,a1
    4acc:	7385b583          	ld	a1,1848(a1) # 1738 <.LBB67_5+0x44>
    4ad0:	00b50533          	add	a0,a0,a1
    4ad4:	40d5053b          	subw	a0,a0,a3
    4ad8:	a005051b          	addiw	a0,a0,-1536
    4adc:	400005b7          	lui	a1,0x40000
    4ae0:	000018b7          	lui	a7,0x1
    4ae4:	411408b3          	sub	a7,s0,a7
    4ae8:	2aa8bc23          	sd	a0,696(a7) # 12b8 <.LBB67_4+0x148>
    4aec:	00055463          	bgez	a0,4af4 <.LBB67_172>
    4af0:	c00005b7          	lui	a1,0xc0000

0000000000004af4 <.LBB67_172>:
    4af4:	00001537          	lui	a0,0x1
    4af8:	40a40533          	sub	a0,s0,a0
    4afc:	2ab53823          	sd	a1,688(a0) # 12b0 <.LBB67_4+0x140>
    4b00:	93843503          	ld	a0,-1736(s0)
    4b04:	f2843583          	ld	a1,-216(s0)
    4b08:	00b50533          	add	a0,a0,a1
    4b0c:	000015b7          	lui	a1,0x1
    4b10:	40b405b3          	sub	a1,s0,a1
    4b14:	7405b583          	ld	a1,1856(a1) # 1740 <.LBB67_5+0x4c>
    4b18:	00b50533          	add	a0,a0,a1
    4b1c:	40d5053b          	subw	a0,a0,a3
    4b20:	a005051b          	addiw	a0,a0,-1536
    4b24:	400005b7          	lui	a1,0x40000
    4b28:	000018b7          	lui	a7,0x1
    4b2c:	411408b3          	sub	a7,s0,a7
    4b30:	2ca8b423          	sd	a0,712(a7) # 12c8 <.LBB67_4+0x158>
    4b34:	00055463          	bgez	a0,4b3c <.LBB67_174>
    4b38:	c00005b7          	lui	a1,0xc0000

0000000000004b3c <.LBB67_174>:
    4b3c:	00001537          	lui	a0,0x1
    4b40:	40a40533          	sub	a0,s0,a0
    4b44:	2cb53023          	sd	a1,704(a0) # 12c0 <.LBB67_4+0x150>
    4b48:	94043503          	ld	a0,-1728(s0)
    4b4c:	f3043583          	ld	a1,-208(s0)
    4b50:	00b50533          	add	a0,a0,a1
    4b54:	000015b7          	lui	a1,0x1
    4b58:	40b405b3          	sub	a1,s0,a1
    4b5c:	7485b583          	ld	a1,1864(a1) # 1748 <.LBB67_5+0x54>
    4b60:	00b50533          	add	a0,a0,a1
    4b64:	40d5053b          	subw	a0,a0,a3
    4b68:	a005051b          	addiw	a0,a0,-1536
    4b6c:	400005b7          	lui	a1,0x40000
    4b70:	000018b7          	lui	a7,0x1
    4b74:	411408b3          	sub	a7,s0,a7
    4b78:	2ca8bc23          	sd	a0,728(a7) # 12d8 <.LBB67_4+0x168>
    4b7c:	00055463          	bgez	a0,4b84 <.LBB67_176>
    4b80:	c00005b7          	lui	a1,0xc0000

0000000000004b84 <.LBB67_176>:
    4b84:	00001537          	lui	a0,0x1
    4b88:	40a40533          	sub	a0,s0,a0
    4b8c:	2cb53823          	sd	a1,720(a0) # 12d0 <.LBB67_4+0x160>
    4b90:	94843503          	ld	a0,-1720(s0)
    4b94:	f3843583          	ld	a1,-200(s0)
    4b98:	00b50533          	add	a0,a0,a1
    4b9c:	000015b7          	lui	a1,0x1
    4ba0:	40b405b3          	sub	a1,s0,a1
    4ba4:	7505b583          	ld	a1,1872(a1) # 1750 <.LBB67_5+0x5c>
    4ba8:	00b50533          	add	a0,a0,a1
    4bac:	40d5053b          	subw	a0,a0,a3
    4bb0:	a005051b          	addiw	a0,a0,-1536
    4bb4:	400005b7          	lui	a1,0x40000
    4bb8:	000018b7          	lui	a7,0x1
    4bbc:	411408b3          	sub	a7,s0,a7
    4bc0:	2ea8b423          	sd	a0,744(a7) # 12e8 <.LBB67_4+0x178>
    4bc4:	00055463          	bgez	a0,4bcc <.LBB67_178>
    4bc8:	c00005b7          	lui	a1,0xc0000

0000000000004bcc <.LBB67_178>:
    4bcc:	00001537          	lui	a0,0x1
    4bd0:	40a40533          	sub	a0,s0,a0
    4bd4:	2eb53023          	sd	a1,736(a0) # 12e0 <.LBB67_4+0x170>
    4bd8:	95043503          	ld	a0,-1712(s0)
    4bdc:	f4043583          	ld	a1,-192(s0)
    4be0:	00b50533          	add	a0,a0,a1
    4be4:	000015b7          	lui	a1,0x1
    4be8:	40b405b3          	sub	a1,s0,a1
    4bec:	7585b583          	ld	a1,1880(a1) # 1758 <.LBB67_5+0x64>
    4bf0:	00b50533          	add	a0,a0,a1
    4bf4:	40d5053b          	subw	a0,a0,a3
    4bf8:	a005051b          	addiw	a0,a0,-1536
    4bfc:	400005b7          	lui	a1,0x40000
    4c00:	000018b7          	lui	a7,0x1
    4c04:	411408b3          	sub	a7,s0,a7
    4c08:	2ea8bc23          	sd	a0,760(a7) # 12f8 <.LBB67_4+0x188>
    4c0c:	00055463          	bgez	a0,4c14 <.LBB67_180>
    4c10:	c00005b7          	lui	a1,0xc0000

0000000000004c14 <.LBB67_180>:
    4c14:	00001537          	lui	a0,0x1
    4c18:	40a40533          	sub	a0,s0,a0
    4c1c:	2eb53823          	sd	a1,752(a0) # 12f0 <.LBB67_4+0x180>
    4c20:	95843503          	ld	a0,-1704(s0)
    4c24:	f4843583          	ld	a1,-184(s0)
    4c28:	00b50533          	add	a0,a0,a1
    4c2c:	000015b7          	lui	a1,0x1
    4c30:	40b405b3          	sub	a1,s0,a1
    4c34:	7605b583          	ld	a1,1888(a1) # 1760 <.LBB67_5+0x6c>
    4c38:	00b50533          	add	a0,a0,a1
    4c3c:	40d5053b          	subw	a0,a0,a3
    4c40:	a005051b          	addiw	a0,a0,-1536
    4c44:	400005b7          	lui	a1,0x40000
    4c48:	000018b7          	lui	a7,0x1
    4c4c:	411408b3          	sub	a7,s0,a7
    4c50:	30a8b423          	sd	a0,776(a7) # 1308 <.LBB67_4+0x198>
    4c54:	00055463          	bgez	a0,4c5c <.LBB67_182>
    4c58:	c00005b7          	lui	a1,0xc0000

0000000000004c5c <.LBB67_182>:
    4c5c:	00001537          	lui	a0,0x1
    4c60:	40a40533          	sub	a0,s0,a0
    4c64:	30b53023          	sd	a1,768(a0) # 1300 <.LBB67_4+0x190>
    4c68:	96043503          	ld	a0,-1696(s0)
    4c6c:	f5043583          	ld	a1,-176(s0)
    4c70:	00b50533          	add	a0,a0,a1
    4c74:	000015b7          	lui	a1,0x1
    4c78:	40b405b3          	sub	a1,s0,a1
    4c7c:	7685b583          	ld	a1,1896(a1) # 1768 <.LBB67_5+0x74>
    4c80:	00b50533          	add	a0,a0,a1
    4c84:	40d5053b          	subw	a0,a0,a3
    4c88:	a005051b          	addiw	a0,a0,-1536
    4c8c:	400005b7          	lui	a1,0x40000
    4c90:	000018b7          	lui	a7,0x1
    4c94:	411408b3          	sub	a7,s0,a7
    4c98:	30a8bc23          	sd	a0,792(a7) # 1318 <.LBB67_4+0x1a8>
    4c9c:	00055463          	bgez	a0,4ca4 <.LBB67_184>
    4ca0:	c00005b7          	lui	a1,0xc0000

0000000000004ca4 <.LBB67_184>:
    4ca4:	00001537          	lui	a0,0x1
    4ca8:	40a40533          	sub	a0,s0,a0
    4cac:	30b53823          	sd	a1,784(a0) # 1310 <.LBB67_4+0x1a0>
    4cb0:	96843503          	ld	a0,-1688(s0)
    4cb4:	f5843583          	ld	a1,-168(s0)
    4cb8:	00b50533          	add	a0,a0,a1
    4cbc:	000015b7          	lui	a1,0x1
    4cc0:	40b405b3          	sub	a1,s0,a1
    4cc4:	7705b583          	ld	a1,1904(a1) # 1770 <.LBB67_5+0x7c>
    4cc8:	00b50533          	add	a0,a0,a1
    4ccc:	40d5053b          	subw	a0,a0,a3
    4cd0:	a005051b          	addiw	a0,a0,-1536
    4cd4:	400005b7          	lui	a1,0x40000
    4cd8:	000018b7          	lui	a7,0x1
    4cdc:	411408b3          	sub	a7,s0,a7
    4ce0:	32a8b423          	sd	a0,808(a7) # 1328 <.LBB67_4+0x1b8>
    4ce4:	00055463          	bgez	a0,4cec <.LBB67_186>
    4ce8:	c00005b7          	lui	a1,0xc0000

0000000000004cec <.LBB67_186>:
    4cec:	00001537          	lui	a0,0x1
    4cf0:	40a40533          	sub	a0,s0,a0
    4cf4:	32b53023          	sd	a1,800(a0) # 1320 <.LBB67_4+0x1b0>
    4cf8:	97043503          	ld	a0,-1680(s0)
    4cfc:	f6043583          	ld	a1,-160(s0)
    4d00:	00b50533          	add	a0,a0,a1
    4d04:	000015b7          	lui	a1,0x1
    4d08:	40b405b3          	sub	a1,s0,a1
    4d0c:	7785b583          	ld	a1,1912(a1) # 1778 <.LBB67_5+0x84>
    4d10:	00b50533          	add	a0,a0,a1
    4d14:	40d5053b          	subw	a0,a0,a3
    4d18:	a005051b          	addiw	a0,a0,-1536
    4d1c:	400005b7          	lui	a1,0x40000
    4d20:	000018b7          	lui	a7,0x1
    4d24:	411408b3          	sub	a7,s0,a7
    4d28:	32a8bc23          	sd	a0,824(a7) # 1338 <.LBB67_4+0x1c8>
    4d2c:	00055463          	bgez	a0,4d34 <.LBB67_188>
    4d30:	c00005b7          	lui	a1,0xc0000

0000000000004d34 <.LBB67_188>:
    4d34:	00001537          	lui	a0,0x1
    4d38:	40a40533          	sub	a0,s0,a0
    4d3c:	32b53823          	sd	a1,816(a0) # 1330 <.LBB67_4+0x1c0>
    4d40:	97843503          	ld	a0,-1672(s0)
    4d44:	f6843583          	ld	a1,-152(s0)
    4d48:	00b50533          	add	a0,a0,a1
    4d4c:	00750533          	add	a0,a0,t2
    4d50:	40d5053b          	subw	a0,a0,a3
    4d54:	a005051b          	addiw	a0,a0,-1536
    4d58:	400005b7          	lui	a1,0x40000
    4d5c:	000018b7          	lui	a7,0x1
    4d60:	411408b3          	sub	a7,s0,a7
    4d64:	34a8b423          	sd	a0,840(a7) # 1348 <.LBB67_4+0x1d8>
    4d68:	00055463          	bgez	a0,4d70 <.LBB67_190>
    4d6c:	c00005b7          	lui	a1,0xc0000

0000000000004d70 <.LBB67_190>:
    4d70:	00001537          	lui	a0,0x1
    4d74:	40a40533          	sub	a0,s0,a0
    4d78:	34b53023          	sd	a1,832(a0) # 1340 <.LBB67_4+0x1d0>
    4d7c:	98043503          	ld	a0,-1664(s0)
    4d80:	f7043583          	ld	a1,-144(s0)
    4d84:	00b50533          	add	a0,a0,a1
    4d88:	00650533          	add	a0,a0,t1
    4d8c:	40d5053b          	subw	a0,a0,a3
    4d90:	a005051b          	addiw	a0,a0,-1536
    4d94:	400005b7          	lui	a1,0x40000
    4d98:	000018b7          	lui	a7,0x1
    4d9c:	411408b3          	sub	a7,s0,a7
    4da0:	34a8bc23          	sd	a0,856(a7) # 1358 <.LBB67_4+0x1e8>
    4da4:	00055463          	bgez	a0,4dac <.LBB67_192>
    4da8:	c00005b7          	lui	a1,0xc0000

0000000000004dac <.LBB67_192>:
    4dac:	00001537          	lui	a0,0x1
    4db0:	40a40533          	sub	a0,s0,a0
    4db4:	34b53823          	sd	a1,848(a0) # 1350 <.LBB67_4+0x1e0>
    4db8:	f7843503          	ld	a0,-136(s0)
    4dbc:	98843583          	ld	a1,-1656(s0)
    4dc0:	00a58533          	add	a0,a1,a0
    4dc4:	00550533          	add	a0,a0,t0
    4dc8:	40d5053b          	subw	a0,a0,a3
    4dcc:	a005051b          	addiw	a0,a0,-1536
    4dd0:	400005b7          	lui	a1,0x40000
    4dd4:	000018b7          	lui	a7,0x1
    4dd8:	411408b3          	sub	a7,s0,a7
    4ddc:	36a8b423          	sd	a0,872(a7) # 1368 <.LBB67_4+0x1f8>
    4de0:	00055463          	bgez	a0,4de8 <.LBB67_194>
    4de4:	c00005b7          	lui	a1,0xc0000

0000000000004de8 <.LBB67_194>:
    4de8:	00001537          	lui	a0,0x1
    4dec:	40a40533          	sub	a0,s0,a0
    4df0:	36b53023          	sd	a1,864(a0) # 1360 <.LBB67_4+0x1f0>
    4df4:	f8043503          	ld	a0,-128(s0)
    4df8:	00aa0533          	add	a0,s4,a0
    4dfc:	000015b7          	lui	a1,0x1
    4e00:	40b405b3          	sub	a1,s0,a1
    4e04:	7905ba03          	ld	s4,1936(a1) # 1790 <.LBB67_5+0x9c>
    4e08:	01450533          	add	a0,a0,s4
    4e0c:	40d5053b          	subw	a0,a0,a3
    4e10:	a005051b          	addiw	a0,a0,-1536
    4e14:	400005b7          	lui	a1,0x40000
    4e18:	000018b7          	lui	a7,0x1
    4e1c:	411408b3          	sub	a7,s0,a7
    4e20:	36a8bc23          	sd	a0,888(a7) # 1378 <.LBB67_4+0x208>
    4e24:	00055463          	bgez	a0,4e2c <.LBB67_196>
    4e28:	c00005b7          	lui	a1,0xc0000

0000000000004e2c <.LBB67_196>:
    4e2c:	00060893          	mv	a7,a2
    4e30:	00001537          	lui	a0,0x1
    4e34:	40a40533          	sub	a0,s0,a0
    4e38:	36b53823          	sd	a1,880(a0) # 1370 <.LBB67_4+0x200>
    4e3c:	f8843503          	ld	a0,-120(s0)
    4e40:	99843583          	ld	a1,-1640(s0)
    4e44:	00a58533          	add	a0,a1,a0
    4e48:	01c50533          	add	a0,a0,t3
    4e4c:	40d5053b          	subw	a0,a0,a3
    4e50:	a005051b          	addiw	a0,a0,-1536
    4e54:	400005b7          	lui	a1,0x40000
    4e58:	00001637          	lui	a2,0x1
    4e5c:	40c40633          	sub	a2,s0,a2
    4e60:	38a63823          	sd	a0,912(a2) # 1390 <.LBB67_4+0x220>
    4e64:	00055463          	bgez	a0,4e6c <.LBB67_198>
    4e68:	c00005b7          	lui	a1,0xc0000

0000000000004e6c <.LBB67_198>:
    4e6c:	f8e43823          	sd	a4,-112(s0)
    4e70:	00001537          	lui	a0,0x1
    4e74:	40a40533          	sub	a0,s0,a0
    4e78:	38b53023          	sd	a1,896(a0) # 1380 <.LBB67_4+0x210>
    4e7c:	00001537          	lui	a0,0x1
    4e80:	40a40533          	sub	a0,s0,a0
    4e84:	68853683          	ld	a3,1672(a0) # 1688 <.LBB67_4+0x518>
    4e88:	00169513          	slli	a0,a3,0x1
    4e8c:	9a043583          	ld	a1,-1632(s0)
    4e90:	e9043603          	ld	a2,-368(s0)
    4e94:	00c585b3          	add	a1,a1,a2
    4e98:	00d50633          	add	a2,a0,a3
    4e9c:	e8843503          	ld	a0,-376(s0)
    4ea0:	00a585b3          	add	a1,a1,a0
    4ea4:	40c585bb          	subw	a1,a1,a2
    4ea8:	a005851b          	addiw	a0,a1,-1536 # ffffffffbffffa00 <.Lfunc_end80+0xffffffffbffd7038>
    4eac:	400005b7          	lui	a1,0x40000
    4eb0:	e4043683          	ld	a3,-448(s0)
    4eb4:	00001737          	lui	a4,0x1
    4eb8:	40e40733          	sub	a4,s0,a4
    4ebc:	38a73c23          	sd	a0,920(a4) # 1398 <.LBB67_4+0x228>
    4ec0:	f9043703          	ld	a4,-112(s0)
    4ec4:	00055463          	bgez	a0,4ecc <.LBB67_200>
    4ec8:	c00005b7          	lui	a1,0xc0000

0000000000004ecc <.LBB67_200>:
    4ecc:	f8d43823          	sd	a3,-112(s0)
    4ed0:	00001537          	lui	a0,0x1
    4ed4:	40a40533          	sub	a0,s0,a0
    4ed8:	38b53423          	sd	a1,904(a0) # 1388 <.LBB67_4+0x218>
    4edc:	9a843503          	ld	a0,-1624(s0)
    4ee0:	e8043583          	ld	a1,-384(s0)
    4ee4:	00b50533          	add	a0,a0,a1
    4ee8:	e7843583          	ld	a1,-392(s0)
    4eec:	00b50533          	add	a0,a0,a1
    4ef0:	40c5053b          	subw	a0,a0,a2
    4ef4:	a005051b          	addiw	a0,a0,-1536
    4ef8:	400005b7          	lui	a1,0x40000
    4efc:	000016b7          	lui	a3,0x1
    4f00:	40d406b3          	sub	a3,s0,a3
    4f04:	3aa6b423          	sd	a0,936(a3) # 13a8 <.LBB67_4+0x238>
    4f08:	f9043683          	ld	a3,-112(s0)
    4f0c:	00055463          	bgez	a0,4f14 <.LBB67_202>
    4f10:	c00005b7          	lui	a1,0xc0000

0000000000004f14 <.LBB67_202>:
    4f14:	f8d43823          	sd	a3,-112(s0)
    4f18:	00001537          	lui	a0,0x1
    4f1c:	40a40533          	sub	a0,s0,a0
    4f20:	3ab53023          	sd	a1,928(a0) # 13a0 <.LBB67_4+0x230>
    4f24:	9b043503          	ld	a0,-1616(s0)
    4f28:	e7043583          	ld	a1,-400(s0)
    4f2c:	00b50533          	add	a0,a0,a1
    4f30:	e6843583          	ld	a1,-408(s0)
    4f34:	00b50533          	add	a0,a0,a1
    4f38:	40c5053b          	subw	a0,a0,a2
    4f3c:	a005051b          	addiw	a0,a0,-1536
    4f40:	400005b7          	lui	a1,0x40000
    4f44:	000016b7          	lui	a3,0x1
    4f48:	40d406b3          	sub	a3,s0,a3
    4f4c:	3aa6bc23          	sd	a0,952(a3) # 13b8 <.LBB67_4+0x248>
    4f50:	f9043683          	ld	a3,-112(s0)
    4f54:	00055463          	bgez	a0,4f5c <.LBB67_204>
    4f58:	c00005b7          	lui	a1,0xc0000

0000000000004f5c <.LBB67_204>:
    4f5c:	f8d43823          	sd	a3,-112(s0)
    4f60:	00001537          	lui	a0,0x1
    4f64:	40a40533          	sub	a0,s0,a0
    4f68:	3ab53823          	sd	a1,944(a0) # 13b0 <.LBB67_4+0x240>
    4f6c:	9b843503          	ld	a0,-1608(s0)
    4f70:	e6043583          	ld	a1,-416(s0)
    4f74:	00b50533          	add	a0,a0,a1
    4f78:	e5843583          	ld	a1,-424(s0)
    4f7c:	00b50533          	add	a0,a0,a1
    4f80:	40c5053b          	subw	a0,a0,a2
    4f84:	a005051b          	addiw	a0,a0,-1536
    4f88:	400005b7          	lui	a1,0x40000
    4f8c:	000016b7          	lui	a3,0x1
    4f90:	40d406b3          	sub	a3,s0,a3
    4f94:	3ca6b423          	sd	a0,968(a3) # 13c8 <.LBB67_4+0x258>
    4f98:	f9043683          	ld	a3,-112(s0)
    4f9c:	00055463          	bgez	a0,4fa4 <.LBB67_206>
    4fa0:	c00005b7          	lui	a1,0xc0000

0000000000004fa4 <.LBB67_206>:
    4fa4:	f8d43823          	sd	a3,-112(s0)
    4fa8:	00001537          	lui	a0,0x1
    4fac:	40a40533          	sub	a0,s0,a0
    4fb0:	3cb53023          	sd	a1,960(a0) # 13c0 <.LBB67_4+0x250>
    4fb4:	9c043503          	ld	a0,-1600(s0)
    4fb8:	e5043583          	ld	a1,-432(s0)
    4fbc:	00b50533          	add	a0,a0,a1
    4fc0:	000015b7          	lui	a1,0x1
    4fc4:	40b405b3          	sub	a1,s0,a1
    4fc8:	6e85b583          	ld	a1,1768(a1) # 16e8 <.LBB67_4+0x578>
    4fcc:	00b50533          	add	a0,a0,a1
    4fd0:	40c5053b          	subw	a0,a0,a2
    4fd4:	a005051b          	addiw	a0,a0,-1536
    4fd8:	400005b7          	lui	a1,0x40000
    4fdc:	000016b7          	lui	a3,0x1
    4fe0:	40d406b3          	sub	a3,s0,a3
    4fe4:	3ca6bc23          	sd	a0,984(a3) # 13d8 <.LBB67_4+0x268>
    4fe8:	f9043683          	ld	a3,-112(s0)
    4fec:	00055463          	bgez	a0,4ff4 <.LBB67_208>
    4ff0:	c00005b7          	lui	a1,0xc0000

0000000000004ff4 <.LBB67_208>:
    4ff4:	f8d43823          	sd	a3,-112(s0)
    4ff8:	00001537          	lui	a0,0x1
    4ffc:	40a40533          	sub	a0,s0,a0
    5000:	3cb53823          	sd	a1,976(a0) # 13d0 <.LBB67_4+0x260>
    5004:	9c843503          	ld	a0,-1592(s0)
    5008:	000015b7          	lui	a1,0x1
    500c:	40b405b3          	sub	a1,s0,a1
    5010:	6e05b583          	ld	a1,1760(a1) # 16e0 <.LBB67_4+0x570>
    5014:	00b50533          	add	a0,a0,a1
    5018:	000015b7          	lui	a1,0x1
    501c:	40b405b3          	sub	a1,s0,a1
    5020:	6d85b583          	ld	a1,1752(a1) # 16d8 <.LBB67_4+0x568>
    5024:	00b50533          	add	a0,a0,a1
    5028:	40c5053b          	subw	a0,a0,a2
    502c:	a005051b          	addiw	a0,a0,-1536
    5030:	400005b7          	lui	a1,0x40000
    5034:	000016b7          	lui	a3,0x1
    5038:	40d406b3          	sub	a3,s0,a3
    503c:	3ea6b423          	sd	a0,1000(a3) # 13e8 <.LBB67_4+0x278>
    5040:	f9043683          	ld	a3,-112(s0)
    5044:	00055463          	bgez	a0,504c <.LBB67_210>
    5048:	c00005b7          	lui	a1,0xc0000

000000000000504c <.LBB67_210>:
    504c:	f8d43823          	sd	a3,-112(s0)
    5050:	00001537          	lui	a0,0x1
    5054:	40a40533          	sub	a0,s0,a0
    5058:	3eb53023          	sd	a1,992(a0) # 13e0 <.LBB67_4+0x270>
    505c:	9d043503          	ld	a0,-1584(s0)
    5060:	000015b7          	lui	a1,0x1
    5064:	40b405b3          	sub	a1,s0,a1
    5068:	6d05b583          	ld	a1,1744(a1) # 16d0 <.LBB67_4+0x560>
    506c:	00b50533          	add	a0,a0,a1
    5070:	000015b7          	lui	a1,0x1
    5074:	40b405b3          	sub	a1,s0,a1
    5078:	6c85b583          	ld	a1,1736(a1) # 16c8 <.LBB67_4+0x558>
    507c:	00b50533          	add	a0,a0,a1
    5080:	40c5053b          	subw	a0,a0,a2
    5084:	a005051b          	addiw	a0,a0,-1536
    5088:	400005b7          	lui	a1,0x40000
    508c:	000016b7          	lui	a3,0x1
    5090:	40d406b3          	sub	a3,s0,a3
    5094:	3ea6bc23          	sd	a0,1016(a3) # 13f8 <.LBB67_4+0x288>
    5098:	f9043683          	ld	a3,-112(s0)
    509c:	00055463          	bgez	a0,50a4 <.LBB67_212>
    50a0:	c00005b7          	lui	a1,0xc0000

00000000000050a4 <.LBB67_212>:
    50a4:	f8d43823          	sd	a3,-112(s0)
    50a8:	00001537          	lui	a0,0x1
    50ac:	40a40533          	sub	a0,s0,a0
    50b0:	3eb53823          	sd	a1,1008(a0) # 13f0 <.LBB67_4+0x280>
    50b4:	9d843503          	ld	a0,-1576(s0)
    50b8:	000015b7          	lui	a1,0x1
    50bc:	40b405b3          	sub	a1,s0,a1
    50c0:	6c05b583          	ld	a1,1728(a1) # 16c0 <.LBB67_4+0x550>
    50c4:	00b50533          	add	a0,a0,a1
    50c8:	000015b7          	lui	a1,0x1
    50cc:	40b405b3          	sub	a1,s0,a1
    50d0:	6b85b583          	ld	a1,1720(a1) # 16b8 <.LBB67_4+0x548>
    50d4:	00b50533          	add	a0,a0,a1
    50d8:	40c5053b          	subw	a0,a0,a2
    50dc:	a005051b          	addiw	a0,a0,-1536
    50e0:	400005b7          	lui	a1,0x40000
    50e4:	000016b7          	lui	a3,0x1
    50e8:	40d406b3          	sub	a3,s0,a3
    50ec:	40a6b423          	sd	a0,1032(a3) # 1408 <.LBB67_4+0x298>
    50f0:	f9043683          	ld	a3,-112(s0)
    50f4:	00055463          	bgez	a0,50fc <.LBB67_214>
    50f8:	c00005b7          	lui	a1,0xc0000

00000000000050fc <.LBB67_214>:
    50fc:	f8d43823          	sd	a3,-112(s0)
    5100:	00001537          	lui	a0,0x1
    5104:	40a40533          	sub	a0,s0,a0
    5108:	40b53023          	sd	a1,1024(a0) # 1400 <.LBB67_4+0x290>
    510c:	9e043503          	ld	a0,-1568(s0)
    5110:	000015b7          	lui	a1,0x1
    5114:	40b405b3          	sub	a1,s0,a1
    5118:	6b05b583          	ld	a1,1712(a1) # 16b0 <.LBB67_4+0x540>
    511c:	00b50533          	add	a0,a0,a1
    5120:	000015b7          	lui	a1,0x1
    5124:	40b405b3          	sub	a1,s0,a1
    5128:	6a85b583          	ld	a1,1704(a1) # 16a8 <.LBB67_4+0x538>
    512c:	00b50533          	add	a0,a0,a1
    5130:	40c5053b          	subw	a0,a0,a2
    5134:	a005051b          	addiw	a0,a0,-1536
    5138:	400005b7          	lui	a1,0x40000
    513c:	000016b7          	lui	a3,0x1
    5140:	40d406b3          	sub	a3,s0,a3
    5144:	40a6bc23          	sd	a0,1048(a3) # 1418 <.LBB67_4+0x2a8>
    5148:	f9043683          	ld	a3,-112(s0)
    514c:	00055463          	bgez	a0,5154 <.LBB67_216>
    5150:	c00005b7          	lui	a1,0xc0000

0000000000005154 <.LBB67_216>:
    5154:	f8d43823          	sd	a3,-112(s0)
    5158:	00001537          	lui	a0,0x1
    515c:	40a40533          	sub	a0,s0,a0
    5160:	40b53823          	sd	a1,1040(a0) # 1410 <.LBB67_4+0x2a0>
    5164:	9e843503          	ld	a0,-1560(s0)
    5168:	000015b7          	lui	a1,0x1
    516c:	40b405b3          	sub	a1,s0,a1
    5170:	6985b583          	ld	a1,1688(a1) # 1698 <.LBB67_4+0x528>
    5174:	00b50533          	add	a0,a0,a1
    5178:	000015b7          	lui	a1,0x1
    517c:	40b405b3          	sub	a1,s0,a1
    5180:	6f05b583          	ld	a1,1776(a1) # 16f0 <.LBB67_4+0x580>
    5184:	00b50533          	add	a0,a0,a1
    5188:	40c5053b          	subw	a0,a0,a2
    518c:	a005051b          	addiw	a0,a0,-1536
    5190:	400005b7          	lui	a1,0x40000
    5194:	000016b7          	lui	a3,0x1
    5198:	40d406b3          	sub	a3,s0,a3
    519c:	42a6b423          	sd	a0,1064(a3) # 1428 <.LBB67_4+0x2b8>
    51a0:	f9043683          	ld	a3,-112(s0)
    51a4:	00055463          	bgez	a0,51ac <.LBB67_218>
    51a8:	c00005b7          	lui	a1,0xc0000

00000000000051ac <.LBB67_218>:
    51ac:	f8d43823          	sd	a3,-112(s0)
    51b0:	00001537          	lui	a0,0x1
    51b4:	40a40533          	sub	a0,s0,a0
    51b8:	42b53023          	sd	a1,1056(a0) # 1420 <.LBB67_4+0x2b0>
    51bc:	9f043503          	ld	a0,-1552(s0)
    51c0:	e9843583          	ld	a1,-360(s0)
    51c4:	00b50533          	add	a0,a0,a1
    51c8:	000015b7          	lui	a1,0x1
    51cc:	40b405b3          	sub	a1,s0,a1
    51d0:	6f85b583          	ld	a1,1784(a1) # 16f8 <.LBB67_5+0x4>
    51d4:	00b50533          	add	a0,a0,a1
    51d8:	40c5053b          	subw	a0,a0,a2
    51dc:	a005051b          	addiw	a0,a0,-1536
    51e0:	400005b7          	lui	a1,0x40000
    51e4:	000016b7          	lui	a3,0x1
    51e8:	40d406b3          	sub	a3,s0,a3
    51ec:	42a6bc23          	sd	a0,1080(a3) # 1438 <.LBB67_4+0x2c8>
    51f0:	f9043683          	ld	a3,-112(s0)
    51f4:	00055463          	bgez	a0,51fc <.LBB67_220>
    51f8:	c00005b7          	lui	a1,0xc0000

00000000000051fc <.LBB67_220>:
    51fc:	f8d43823          	sd	a3,-112(s0)
    5200:	00001537          	lui	a0,0x1
    5204:	40a40533          	sub	a0,s0,a0
    5208:	42b53823          	sd	a1,1072(a0) # 1430 <.LBB67_4+0x2c0>
    520c:	9f843503          	ld	a0,-1544(s0)
    5210:	ea043583          	ld	a1,-352(s0)
    5214:	00b50533          	add	a0,a0,a1
    5218:	000015b7          	lui	a1,0x1
    521c:	40b405b3          	sub	a1,s0,a1
    5220:	7005b583          	ld	a1,1792(a1) # 1700 <.LBB67_5+0xc>
    5224:	00b50533          	add	a0,a0,a1
    5228:	40c5053b          	subw	a0,a0,a2
    522c:	a005051b          	addiw	a0,a0,-1536
    5230:	400005b7          	lui	a1,0x40000
    5234:	000016b7          	lui	a3,0x1
    5238:	40d406b3          	sub	a3,s0,a3
    523c:	44a6b423          	sd	a0,1096(a3) # 1448 <.LBB67_4+0x2d8>
    5240:	f9043683          	ld	a3,-112(s0)
    5244:	00055463          	bgez	a0,524c <.LBB67_222>
    5248:	c00005b7          	lui	a1,0xc0000

000000000000524c <.LBB67_222>:
    524c:	f8d43823          	sd	a3,-112(s0)
    5250:	00001537          	lui	a0,0x1
    5254:	40a40533          	sub	a0,s0,a0
    5258:	44b53023          	sd	a1,1088(a0) # 1440 <.LBB67_4+0x2d0>
    525c:	a0043503          	ld	a0,-1536(s0)
    5260:	ea843583          	ld	a1,-344(s0)
    5264:	00b50533          	add	a0,a0,a1
    5268:	000015b7          	lui	a1,0x1
    526c:	40b405b3          	sub	a1,s0,a1
    5270:	7085b583          	ld	a1,1800(a1) # 1708 <.LBB67_5+0x14>
    5274:	00b50533          	add	a0,a0,a1
    5278:	40c5053b          	subw	a0,a0,a2
    527c:	a005051b          	addiw	a0,a0,-1536
    5280:	400005b7          	lui	a1,0x40000
    5284:	000016b7          	lui	a3,0x1
    5288:	40d406b3          	sub	a3,s0,a3
    528c:	44a6bc23          	sd	a0,1112(a3) # 1458 <.LBB67_4+0x2e8>
    5290:	f9043683          	ld	a3,-112(s0)
    5294:	00055463          	bgez	a0,529c <.LBB67_224>
    5298:	c00005b7          	lui	a1,0xc0000

000000000000529c <.LBB67_224>:
    529c:	f8d43823          	sd	a3,-112(s0)
    52a0:	00001537          	lui	a0,0x1
    52a4:	40a40533          	sub	a0,s0,a0
    52a8:	44b53823          	sd	a1,1104(a0) # 1450 <.LBB67_4+0x2e0>
    52ac:	a0843503          	ld	a0,-1528(s0)
    52b0:	eb043583          	ld	a1,-336(s0)
    52b4:	00b50533          	add	a0,a0,a1
    52b8:	01a50533          	add	a0,a0,s10
    52bc:	40c5053b          	subw	a0,a0,a2
    52c0:	a005051b          	addiw	a0,a0,-1536
    52c4:	400005b7          	lui	a1,0x40000
    52c8:	000016b7          	lui	a3,0x1
    52cc:	40d406b3          	sub	a3,s0,a3
    52d0:	46a6b423          	sd	a0,1128(a3) # 1468 <.LBB67_4+0x2f8>
    52d4:	f9043683          	ld	a3,-112(s0)
    52d8:	00055463          	bgez	a0,52e0 <.LBB67_226>
    52dc:	c00005b7          	lui	a1,0xc0000

00000000000052e0 <.LBB67_226>:
    52e0:	f8d43823          	sd	a3,-112(s0)
    52e4:	00001537          	lui	a0,0x1
    52e8:	40a40533          	sub	a0,s0,a0
    52ec:	46b53023          	sd	a1,1120(a0) # 1460 <.LBB67_4+0x2f0>
    52f0:	a1043503          	ld	a0,-1520(s0)
    52f4:	eb843583          	ld	a1,-328(s0)
    52f8:	00b50533          	add	a0,a0,a1
    52fc:	000015b7          	lui	a1,0x1
    5300:	40b405b3          	sub	a1,s0,a1
    5304:	7185b583          	ld	a1,1816(a1) # 1718 <.LBB67_5+0x24>
    5308:	00b50533          	add	a0,a0,a1
    530c:	40c5053b          	subw	a0,a0,a2
    5310:	a005051b          	addiw	a0,a0,-1536
    5314:	400005b7          	lui	a1,0x40000
    5318:	000016b7          	lui	a3,0x1
    531c:	40d406b3          	sub	a3,s0,a3
    5320:	46a6bc23          	sd	a0,1144(a3) # 1478 <.LBB67_4+0x308>
    5324:	f9043683          	ld	a3,-112(s0)
    5328:	00055463          	bgez	a0,5330 <.LBB67_228>
    532c:	c00005b7          	lui	a1,0xc0000

0000000000005330 <.LBB67_228>:
    5330:	f8d43823          	sd	a3,-112(s0)
    5334:	00001537          	lui	a0,0x1
    5338:	40a40533          	sub	a0,s0,a0
    533c:	46b53823          	sd	a1,1136(a0) # 1470 <.LBB67_4+0x300>
    5340:	a1843503          	ld	a0,-1512(s0)
    5344:	ec043583          	ld	a1,-320(s0)
    5348:	00b50533          	add	a0,a0,a1
    534c:	000015b7          	lui	a1,0x1
    5350:	40b405b3          	sub	a1,s0,a1
    5354:	7205b583          	ld	a1,1824(a1) # 1720 <.LBB67_5+0x2c>
    5358:	00b50533          	add	a0,a0,a1
