
code.o:     file format elf64-littleriscv


Disassembly of section .text.main_dispatch_113_matmul_49x160x576_i8xi8xi32:

0000000000000000 <main_dispatch_113_matmul_49x160x576_i8xi8xi32>:
       0:	81010113          	addi	sp,sp,-2032
       4:	7e113423          	sd	ra,2024(sp)
       8:	7e813023          	sd	s0,2016(sp)
       c:	7c913c23          	sd	s1,2008(sp)
      10:	7d213823          	sd	s2,2000(sp)
      14:	7d313423          	sd	s3,1992(sp)
      18:	7d413023          	sd	s4,1984(sp)
      1c:	7b513c23          	sd	s5,1976(sp)
      20:	7b613823          	sd	s6,1968(sp)
      24:	7b713423          	sd	s7,1960(sp)
      28:	7b813023          	sd	s8,1952(sp)
      2c:	79913c23          	sd	s9,1944(sp)
      30:	79a13823          	sd	s10,1936(sp)
      34:	79b13423          	sd	s11,1928(sp)
      38:	7f010413          	addi	s0,sp,2032
      3c:	80010113          	addi	sp,sp,-2048
      40:	ae010113          	addi	sp,sp,-1312
      44:	0205b583          	ld	a1,32(a1)
      48:	00000513          	li	a0,0
      4c:	0005b783          	ld	a5,0(a1)
      50:	0001c637          	lui	a2,0x1c
      54:	9006061b          	addiw	a2,a2,-1792 # 1b900 <.LBB45_3539>
      58:	0085b683          	ld	a3,8(a1)
      5c:	00c78633          	add	a2,a5,a2
      60:	00001737          	lui	a4,0x1
      64:	40e40733          	sub	a4,s0,a4
      68:	b6c73c23          	sd	a2,-1160(a4) # b78 <.LBB87_3+0x90c>
      6c:	000b0637          	lui	a2,0xb0
      70:	d006061b          	addiw	a2,a2,-768 # afd00 <.Lfunc_end80+0x87338>
      74:	00c683b3          	add	t2,a3,a2
      78:	00017637          	lui	a2,0x17
      7c:	3806071b          	addiw	a4,a2,896 # 17380 <.LBB45_2604>
      80:	00e68733          	add	a4,a3,a4
      84:	00001837          	lui	a6,0x1
      88:	41040833          	sub	a6,s0,a6
      8c:	b6e83423          	sd	a4,-1176(a6) # b68 <.LBB87_3+0x8fc>
      90:	0105b583          	ld	a1,16(a1)
      94:	000c6737          	lui	a4,0xc6
      98:	5007071b          	addiw	a4,a4,1280 # c6500 <.Lfunc_end80+0x9db38>
      9c:	00e686b3          	add	a3,a3,a4
      a0:	00001737          	lui	a4,0x1
      a4:	40e40733          	sub	a4,s0,a4
      a8:	b6d73023          	sd	a3,-1184(a4) # b60 <.LBB87_3+0x8f4>
      ac:	10058593          	addi	a1,a1,256
      b0:	000016b7          	lui	a3,0x1
      b4:	40d406b3          	sub	a3,s0,a3
      b8:	b0b6b023          	sd	a1,-1280(a3) # b00 <.LBB87_3+0x894>
      bc:	0001d5b7          	lui	a1,0x1d
      c0:	8c05859b          	addiw	a1,a1,-1856 # 1c8c0 <.LBB98_3598+0x28>
      c4:	000016b7          	lui	a3,0x1
      c8:	40d406b3          	sub	a3,s0,a3
      cc:	b0f6b423          	sd	a5,-1272(a3) # b08 <.LBB87_3+0x89c>
      d0:	00b785b3          	add	a1,a5,a1
      d4:	000016b7          	lui	a3,0x1
      d8:	40d406b3          	sub	a3,s0,a3
      dc:	b6b6b823          	sd	a1,-1168(a3) # b70 <.LBB87_3+0x904>
      e0:	8006059b          	addiw	a1,a2,-2048
      e4:	00001637          	lui	a2,0x1
      e8:	40c40633          	sub	a2,s0,a2
      ec:	b0b63c23          	sd	a1,-1256(a2) # b18 <.LBB87_3+0x8ac>
      f0:	6e0d35b7          	lui	a1,0x6e0d3
      f4:	d9b5859b          	addiw	a1,a1,-613 # 6e0d2d9b <.Lfunc_end80+0x6e0aa3d3>
      f8:	00001637          	lui	a2,0x1
      fc:	40c40633          	sub	a2,s0,a2
     100:	64b63c23          	sd	a1,1624(a2) # 1658 <.LBB87_5+0x1d8>
     104:	00100593          	li	a1,1
     108:	02759593          	slli	a1,a1,0x27
     10c:	e4b43c23          	sd	a1,-424(s0)
     110:	00900593          	li	a1,9
     114:	00959593          	slli	a1,a1,0x9
     118:	00001637          	lui	a2,0x1
     11c:	40c40633          	sub	a2,s0,a2
     120:	aeb63823          	sd	a1,-1296(a2) # af0 <.LBB87_3+0x884>
     124:	000015b7          	lui	a1,0x1
     128:	40b405b3          	sub	a1,s0,a1
     12c:	b075b823          	sd	t2,-1264(a1) # b10 <.LBB87_3+0x8a4>
     130:	0700006f          	j	1a0 <.LBB87_2>

0000000000000134 <.LBB87_1>:
     134:	00001537          	lui	a0,0x1
     138:	40a40533          	sub	a0,s0,a0
     13c:	af853683          	ld	a3,-1288(a0) # af8 <.LBB87_3+0x88c>
     140:	00868513          	addi	a0,a3,8
     144:	000015b7          	lui	a1,0x1
     148:	40b405b3          	sub	a1,s0,a1
     14c:	b785b583          	ld	a1,-1160(a1) # b78 <.LBB87_3+0x90c>
     150:	00001637          	lui	a2,0x1
     154:	40c40633          	sub	a2,s0,a2
     158:	af063603          	ld	a2,-1296(a2) # af0 <.LBB87_3+0x884>
     15c:	00c585b3          	add	a1,a1,a2
     160:	00001737          	lui	a4,0x1
     164:	40e40733          	sub	a4,s0,a4
     168:	b6b73c23          	sd	a1,-1160(a4) # b78 <.LBB87_3+0x90c>
     16c:	000015b7          	lui	a1,0x1
     170:	40b405b3          	sub	a1,s0,a1
     174:	b705b583          	ld	a1,-1168(a1) # b70 <.LBB87_3+0x904>
     178:	00c585b3          	add	a1,a1,a2
     17c:	00001637          	lui	a2,0x1
     180:	40c40633          	sub	a2,s0,a2
     184:	b6b63823          	sd	a1,-1168(a2) # b70 <.LBB87_3+0x904>
     188:	000015b7          	lui	a1,0x1
     18c:	40b405b3          	sub	a1,s0,a1
     190:	b105b383          	ld	t2,-1264(a1) # b10 <.LBB87_3+0x8a4>
     194:	02800593          	li	a1,40
     198:	00b6e463          	bltu	a3,a1,1a0 <.LBB87_2>
     19c:	59d0b06f          	j	bf38 <.LBB87_1542>

00000000000001a0 <.LBB87_2>:
     1a0:	00000593          	li	a1,0
     1a4:	00050693          	mv	a3,a0
     1a8:	00251513          	slli	a0,a0,0x2
     1ac:	00001637          	lui	a2,0x1
     1b0:	40c40633          	sub	a2,s0,a2
     1b4:	b0863603          	ld	a2,-1272(a2) # b08 <.LBB87_3+0x89c>
     1b8:	00a60533          	add	a0,a2,a0
     1bc:	00001637          	lui	a2,0x1
     1c0:	40c40633          	sub	a2,s0,a2
     1c4:	64a63423          	sd	a0,1608(a2) # 1648 <.LBB87_5+0x1c8>
     1c8:	0a000513          	li	a0,160
     1cc:	00001637          	lui	a2,0x1
     1d0:	40c40633          	sub	a2,s0,a2
     1d4:	aed63c23          	sd	a3,-1288(a2) # af8 <.LBB87_3+0x88c>
     1d8:	02a68533          	mul	a0,a3,a0
     1dc:	00001637          	lui	a2,0x1
     1e0:	40c40633          	sub	a2,s0,a2
     1e4:	b0063603          	ld	a2,-1280(a2) # b00 <.LBB87_3+0x894>
     1e8:	00a60533          	add	a0,a2,a0
     1ec:	0a050613          	addi	a2,a0,160
     1f0:	000016b7          	lui	a3,0x1
     1f4:	40d406b3          	sub	a3,s0,a3
     1f8:	b4c6b823          	sd	a2,-1200(a3) # b50 <.LBB87_3+0x8e4>
     1fc:	14050613          	addi	a2,a0,320
     200:	000016b7          	lui	a3,0x1
     204:	40d406b3          	sub	a3,s0,a3
     208:	b4c6b423          	sd	a2,-1208(a3) # b48 <.LBB87_3+0x8dc>
     20c:	1e050613          	addi	a2,a0,480
     210:	000016b7          	lui	a3,0x1
     214:	40d406b3          	sub	a3,s0,a3
     218:	b4c6b023          	sd	a2,-1216(a3) # b40 <.LBB87_3+0x8d4>
     21c:	28050613          	addi	a2,a0,640
     220:	000016b7          	lui	a3,0x1
     224:	40d406b3          	sub	a3,s0,a3
     228:	b2c6bc23          	sd	a2,-1224(a3) # b38 <.LBB87_3+0x8cc>
     22c:	32050613          	addi	a2,a0,800
     230:	000016b7          	lui	a3,0x1
     234:	40d406b3          	sub	a3,s0,a3
     238:	b2c6b823          	sd	a2,-1232(a3) # b30 <.LBB87_3+0x8c4>
     23c:	3c050613          	addi	a2,a0,960
     240:	000016b7          	lui	a3,0x1
     244:	40d406b3          	sub	a3,s0,a3
     248:	b2c6b423          	sd	a2,-1240(a3) # b28 <.LBB87_3+0x8bc>
     24c:	00001637          	lui	a2,0x1
     250:	40c40633          	sub	a2,s0,a2
     254:	b4a63c23          	sd	a0,-1192(a2) # b58 <.LBB87_3+0x8ec>
     258:	46050513          	addi	a0,a0,1120
     25c:	00001637          	lui	a2,0x1
     260:	40c40633          	sub	a2,s0,a2
     264:	b2a63023          	sd	a0,-1248(a2) # b20 <.LBB87_3+0x8b4>
     268:	45d0006f          	j	ec4 <.LBB87_4>

000000000000026c <.LBB87_3>:
     26c:	94e43823          	sd	a4,-1712(s0)
     270:	d6043303          	ld	t1,-672(s0)
     274:	00430313          	addi	t1,t1,4
     278:	00001537          	lui	a0,0x1
     27c:	40a40533          	sub	a0,s0,a0
     280:	b5853703          	ld	a4,-1192(a0) # b58 <.LBB87_3+0x8ec>
     284:	00001537          	lui	a0,0x1
     288:	40a40533          	sub	a0,s0,a0
     28c:	65053503          	ld	a0,1616(a0) # 1650 <.LBB87_5+0x1d0>
     290:	00a70733          	add	a4,a4,a0
     294:	006701a3          	sb	t1,3(a4)
     298:	e4843303          	ld	t1,-440(s0)
     29c:	00430313          	addi	t1,t1,4
     2a0:	00670123          	sb	t1,2(a4)
     2a4:	e6043303          	ld	t1,-416(s0)
     2a8:	00430313          	addi	t1,t1,4
     2ac:	006700a3          	sb	t1,1(a4)
     2b0:	e7043303          	ld	t1,-400(s0)
     2b4:	00430313          	addi	t1,t1,4
     2b8:	00670023          	sb	t1,0(a4)
     2bc:	e8043303          	ld	t1,-384(s0)
     2c0:	00430313          	addi	t1,t1,4
     2c4:	00670223          	sb	t1,4(a4)
     2c8:	e9043303          	ld	t1,-368(s0)
     2cc:	00430313          	addi	t1,t1,4
     2d0:	006702a3          	sb	t1,5(a4)
     2d4:	ea043303          	ld	t1,-352(s0)
     2d8:	00430313          	addi	t1,t1,4
     2dc:	00670323          	sb	t1,6(a4)
     2e0:	eb043303          	ld	t1,-336(s0)
     2e4:	00430313          	addi	t1,t1,4
     2e8:	006703a3          	sb	t1,7(a4)
     2ec:	ec043303          	ld	t1,-320(s0)
     2f0:	00430313          	addi	t1,t1,4
     2f4:	00670423          	sb	t1,8(a4)
     2f8:	ed043303          	ld	t1,-304(s0)
     2fc:	00430313          	addi	t1,t1,4
     300:	006704a3          	sb	t1,9(a4)
     304:	ee043303          	ld	t1,-288(s0)
     308:	00430313          	addi	t1,t1,4
     30c:	00670523          	sb	t1,10(a4)
     310:	ee843303          	ld	t1,-280(s0)
     314:	00430313          	addi	t1,t1,4
     318:	006705a3          	sb	t1,11(a4)
     31c:	ef043303          	ld	t1,-272(s0)
     320:	00430313          	addi	t1,t1,4
     324:	00670623          	sb	t1,12(a4)
     328:	ef843303          	ld	t1,-264(s0)
     32c:	00430313          	addi	t1,t1,4
     330:	006706a3          	sb	t1,13(a4)
     334:	f0043303          	ld	t1,-256(s0)
     338:	00430313          	addi	t1,t1,4
     33c:	00670723          	sb	t1,14(a4)
     340:	f0843303          	ld	t1,-248(s0)
     344:	00430313          	addi	t1,t1,4
     348:	006707a3          	sb	t1,15(a4)
     34c:	f1043303          	ld	t1,-240(s0)
     350:	00430313          	addi	t1,t1,4
     354:	00670823          	sb	t1,16(a4)
     358:	f1843303          	ld	t1,-232(s0)
     35c:	00430313          	addi	t1,t1,4
     360:	006708a3          	sb	t1,17(a4)
     364:	f2043303          	ld	t1,-224(s0)
     368:	00430313          	addi	t1,t1,4
     36c:	00670923          	sb	t1,18(a4)
     370:	f2843303          	ld	t1,-216(s0)
     374:	00430313          	addi	t1,t1,4
     378:	006709a3          	sb	t1,19(a4)
     37c:	f3043303          	ld	t1,-208(s0)
     380:	00430313          	addi	t1,t1,4
     384:	00670a23          	sb	t1,20(a4)
     388:	f3843303          	ld	t1,-200(s0)
     38c:	00430313          	addi	t1,t1,4
     390:	00670aa3          	sb	t1,21(a4)
     394:	f4043303          	ld	t1,-192(s0)
     398:	00430313          	addi	t1,t1,4
     39c:	00670b23          	sb	t1,22(a4)
     3a0:	f4843303          	ld	t1,-184(s0)
     3a4:	00430313          	addi	t1,t1,4
     3a8:	00670ba3          	sb	t1,23(a4)
     3ac:	f5043303          	ld	t1,-176(s0)
     3b0:	00430313          	addi	t1,t1,4
     3b4:	00670c23          	sb	t1,24(a4)
     3b8:	f5843303          	ld	t1,-168(s0)
     3bc:	00430313          	addi	t1,t1,4
     3c0:	00670ca3          	sb	t1,25(a4)
     3c4:	f6043303          	ld	t1,-160(s0)
     3c8:	00430313          	addi	t1,t1,4
     3cc:	00670d23          	sb	t1,26(a4)
     3d0:	f6843303          	ld	t1,-152(s0)
     3d4:	00430313          	addi	t1,t1,4
     3d8:	00670da3          	sb	t1,27(a4)
     3dc:	f7043303          	ld	t1,-144(s0)
     3e0:	00430313          	addi	t1,t1,4
     3e4:	00670e23          	sb	t1,28(a4)
     3e8:	f7843303          	ld	t1,-136(s0)
     3ec:	00430313          	addi	t1,t1,4
     3f0:	00670ea3          	sb	t1,29(a4)
     3f4:	f8043303          	ld	t1,-128(s0)
     3f8:	00430313          	addi	t1,t1,4
     3fc:	00670f23          	sb	t1,30(a4)
     400:	f8843303          	ld	t1,-120(s0)
     404:	00430313          	addi	t1,t1,4
     408:	00670fa3          	sb	t1,31(a4)
     40c:	d3843303          	ld	t1,-712(s0)
     410:	00430313          	addi	t1,t1,4
     414:	00001737          	lui	a4,0x1
     418:	40e40733          	sub	a4,s0,a4
     41c:	b5073703          	ld	a4,-1200(a4) # b50 <.LBB87_3+0x8e4>
     420:	00a70733          	add	a4,a4,a0
     424:	006701a3          	sb	t1,3(a4)
     428:	d4843303          	ld	t1,-696(s0)
     42c:	00430313          	addi	t1,t1,4
     430:	00670123          	sb	t1,2(a4)
     434:	d5843303          	ld	t1,-680(s0)
     438:	00430313          	addi	t1,t1,4
     43c:	006700a3          	sb	t1,1(a4)
     440:	d7043303          	ld	t1,-656(s0)
     444:	00430313          	addi	t1,t1,4
     448:	00670023          	sb	t1,0(a4)
     44c:	d8043303          	ld	t1,-640(s0)
     450:	00430313          	addi	t1,t1,4
     454:	00670223          	sb	t1,4(a4)
     458:	d9043303          	ld	t1,-624(s0)
     45c:	00430313          	addi	t1,t1,4
     460:	006702a3          	sb	t1,5(a4)
     464:	da043303          	ld	t1,-608(s0)
     468:	00430313          	addi	t1,t1,4
     46c:	00670323          	sb	t1,6(a4)
     470:	db043303          	ld	t1,-592(s0)
     474:	00430313          	addi	t1,t1,4
     478:	006703a3          	sb	t1,7(a4)
     47c:	dc043303          	ld	t1,-576(s0)
     480:	00430313          	addi	t1,t1,4
     484:	00670423          	sb	t1,8(a4)
     488:	dd043303          	ld	t1,-560(s0)
     48c:	00430313          	addi	t1,t1,4
     490:	006704a3          	sb	t1,9(a4)
     494:	de043303          	ld	t1,-544(s0)
     498:	00430313          	addi	t1,t1,4
     49c:	00670523          	sb	t1,10(a4)
     4a0:	de843303          	ld	t1,-536(s0)
     4a4:	00430313          	addi	t1,t1,4
     4a8:	006705a3          	sb	t1,11(a4)
     4ac:	df043303          	ld	t1,-528(s0)
     4b0:	00430313          	addi	t1,t1,4
     4b4:	00670623          	sb	t1,12(a4)
     4b8:	df843303          	ld	t1,-520(s0)
     4bc:	00430313          	addi	t1,t1,4
     4c0:	006706a3          	sb	t1,13(a4)
     4c4:	e0043303          	ld	t1,-512(s0)
     4c8:	00430313          	addi	t1,t1,4
     4cc:	00670723          	sb	t1,14(a4)
     4d0:	e0843303          	ld	t1,-504(s0)
     4d4:	00430313          	addi	t1,t1,4
     4d8:	006707a3          	sb	t1,15(a4)
     4dc:	e1043303          	ld	t1,-496(s0)
     4e0:	00430313          	addi	t1,t1,4
     4e4:	00670823          	sb	t1,16(a4)
     4e8:	e1843303          	ld	t1,-488(s0)
     4ec:	00430313          	addi	t1,t1,4
     4f0:	006708a3          	sb	t1,17(a4)
     4f4:	e2043303          	ld	t1,-480(s0)
     4f8:	00430313          	addi	t1,t1,4
     4fc:	00670923          	sb	t1,18(a4)
     500:	e2843303          	ld	t1,-472(s0)
     504:	00430313          	addi	t1,t1,4
     508:	006709a3          	sb	t1,19(a4)
     50c:	e3043303          	ld	t1,-464(s0)
     510:	00430313          	addi	t1,t1,4
     514:	00670a23          	sb	t1,20(a4)
     518:	e3843303          	ld	t1,-456(s0)
     51c:	00430313          	addi	t1,t1,4
     520:	00670aa3          	sb	t1,21(a4)
     524:	e4043303          	ld	t1,-448(s0)
     528:	00430313          	addi	t1,t1,4
     52c:	00670b23          	sb	t1,22(a4)
     530:	e5043303          	ld	t1,-432(s0)
     534:	00430313          	addi	t1,t1,4
     538:	00670ba3          	sb	t1,23(a4)
     53c:	e6843303          	ld	t1,-408(s0)
     540:	00430313          	addi	t1,t1,4
     544:	00670c23          	sb	t1,24(a4)
     548:	e7843303          	ld	t1,-392(s0)
     54c:	00430313          	addi	t1,t1,4
     550:	00670ca3          	sb	t1,25(a4)
     554:	e8843303          	ld	t1,-376(s0)
     558:	00430313          	addi	t1,t1,4
     55c:	00670d23          	sb	t1,26(a4)
     560:	e9843303          	ld	t1,-360(s0)
     564:	00430313          	addi	t1,t1,4
     568:	00670da3          	sb	t1,27(a4)
     56c:	ea843303          	ld	t1,-344(s0)
     570:	00430313          	addi	t1,t1,4
     574:	00670e23          	sb	t1,28(a4)
     578:	eb843303          	ld	t1,-328(s0)
     57c:	00430313          	addi	t1,t1,4
     580:	00670ea3          	sb	t1,29(a4)
     584:	ec843303          	ld	t1,-312(s0)
     588:	00430313          	addi	t1,t1,4
     58c:	00670f23          	sb	t1,30(a4)
     590:	ed843303          	ld	t1,-296(s0)
     594:	00430313          	addi	t1,t1,4
     598:	00670fa3          	sb	t1,31(a4)
     59c:	c3843303          	ld	t1,-968(s0)
     5a0:	00430313          	addi	t1,t1,4
     5a4:	00001737          	lui	a4,0x1
     5a8:	40e40733          	sub	a4,s0,a4
     5ac:	b4873703          	ld	a4,-1208(a4) # b48 <.LBB87_3+0x8dc>
     5b0:	00a70733          	add	a4,a4,a0
     5b4:	006701a3          	sb	t1,3(a4)
     5b8:	c4843303          	ld	t1,-952(s0)
     5bc:	00430313          	addi	t1,t1,4
     5c0:	00670123          	sb	t1,2(a4)
     5c4:	c5843303          	ld	t1,-936(s0)
     5c8:	00430313          	addi	t1,t1,4
     5cc:	006700a3          	sb	t1,1(a4)
     5d0:	c6843303          	ld	t1,-920(s0)
     5d4:	00430313          	addi	t1,t1,4
     5d8:	00670023          	sb	t1,0(a4)
     5dc:	c7843303          	ld	t1,-904(s0)
     5e0:	00430313          	addi	t1,t1,4
     5e4:	00670223          	sb	t1,4(a4)
     5e8:	c8843303          	ld	t1,-888(s0)
     5ec:	00430313          	addi	t1,t1,4
     5f0:	006702a3          	sb	t1,5(a4)
     5f4:	c9843303          	ld	t1,-872(s0)
     5f8:	00430313          	addi	t1,t1,4
     5fc:	00670323          	sb	t1,6(a4)
     600:	ca843303          	ld	t1,-856(s0)
     604:	00430313          	addi	t1,t1,4
     608:	006703a3          	sb	t1,7(a4)
     60c:	cb843303          	ld	t1,-840(s0)
     610:	00430313          	addi	t1,t1,4
     614:	00670423          	sb	t1,8(a4)
     618:	cc843303          	ld	t1,-824(s0)
     61c:	00430313          	addi	t1,t1,4
     620:	006704a3          	sb	t1,9(a4)
     624:	cd843303          	ld	t1,-808(s0)
     628:	00430313          	addi	t1,t1,4
     62c:	00670523          	sb	t1,10(a4)
     630:	ce043303          	ld	t1,-800(s0)
     634:	00430313          	addi	t1,t1,4
     638:	006705a3          	sb	t1,11(a4)
     63c:	ce843303          	ld	t1,-792(s0)
     640:	00430313          	addi	t1,t1,4
     644:	00670623          	sb	t1,12(a4)
     648:	cf043303          	ld	t1,-784(s0)
     64c:	00430313          	addi	t1,t1,4
     650:	006706a3          	sb	t1,13(a4)
     654:	cf843303          	ld	t1,-776(s0)
     658:	00430313          	addi	t1,t1,4
     65c:	00670723          	sb	t1,14(a4)
     660:	d0043303          	ld	t1,-768(s0)
     664:	00430313          	addi	t1,t1,4
     668:	006707a3          	sb	t1,15(a4)
     66c:	d0843303          	ld	t1,-760(s0)
     670:	00430313          	addi	t1,t1,4
     674:	00670823          	sb	t1,16(a4)
     678:	d1043303          	ld	t1,-752(s0)
     67c:	00430313          	addi	t1,t1,4
     680:	006708a3          	sb	t1,17(a4)
     684:	d1843303          	ld	t1,-744(s0)
     688:	00430313          	addi	t1,t1,4
     68c:	00670923          	sb	t1,18(a4)
     690:	d2043303          	ld	t1,-736(s0)
     694:	00430313          	addi	t1,t1,4
     698:	006709a3          	sb	t1,19(a4)
     69c:	d2843303          	ld	t1,-728(s0)
     6a0:	00430313          	addi	t1,t1,4
     6a4:	00670a23          	sb	t1,20(a4)
     6a8:	d3043303          	ld	t1,-720(s0)
     6ac:	00430313          	addi	t1,t1,4
     6b0:	00670aa3          	sb	t1,21(a4)
     6b4:	d4043303          	ld	t1,-704(s0)
     6b8:	00430313          	addi	t1,t1,4
     6bc:	00670b23          	sb	t1,22(a4)
     6c0:	d5043303          	ld	t1,-688(s0)
     6c4:	00430313          	addi	t1,t1,4
     6c8:	00670ba3          	sb	t1,23(a4)
     6cc:	d6843303          	ld	t1,-664(s0)
     6d0:	00430313          	addi	t1,t1,4
     6d4:	00670c23          	sb	t1,24(a4)
     6d8:	d7843303          	ld	t1,-648(s0)
     6dc:	00430313          	addi	t1,t1,4
     6e0:	00670ca3          	sb	t1,25(a4)
     6e4:	d8843303          	ld	t1,-632(s0)
     6e8:	00430313          	addi	t1,t1,4
     6ec:	00670d23          	sb	t1,26(a4)
     6f0:	d9843303          	ld	t1,-616(s0)
     6f4:	00430313          	addi	t1,t1,4
     6f8:	00670da3          	sb	t1,27(a4)
     6fc:	da843303          	ld	t1,-600(s0)
     700:	00430313          	addi	t1,t1,4
     704:	00670e23          	sb	t1,28(a4)
     708:	db843303          	ld	t1,-584(s0)
     70c:	00430313          	addi	t1,t1,4
     710:	00670ea3          	sb	t1,29(a4)
     714:	dc843303          	ld	t1,-568(s0)
     718:	00430313          	addi	t1,t1,4
     71c:	00670f23          	sb	t1,30(a4)
     720:	dd843303          	ld	t1,-552(s0)
     724:	00430313          	addi	t1,t1,4
     728:	00670fa3          	sb	t1,31(a4)
     72c:	b3843303          	ld	t1,-1224(s0)
     730:	00430313          	addi	t1,t1,4
     734:	00001737          	lui	a4,0x1
     738:	40e40733          	sub	a4,s0,a4
     73c:	b4073703          	ld	a4,-1216(a4) # b40 <.LBB87_3+0x8d4>
     740:	00a70733          	add	a4,a4,a0
     744:	006701a3          	sb	t1,3(a4)
     748:	b4843303          	ld	t1,-1208(s0)
     74c:	00430313          	addi	t1,t1,4
     750:	00670123          	sb	t1,2(a4)
     754:	b5843303          	ld	t1,-1192(s0)
     758:	00430313          	addi	t1,t1,4
     75c:	006700a3          	sb	t1,1(a4)
     760:	b6843303          	ld	t1,-1176(s0)
     764:	00430313          	addi	t1,t1,4
     768:	00670023          	sb	t1,0(a4)
     76c:	b7843303          	ld	t1,-1160(s0)
     770:	00430313          	addi	t1,t1,4
     774:	00670223          	sb	t1,4(a4)
     778:	b8843303          	ld	t1,-1144(s0)
     77c:	00430313          	addi	t1,t1,4
     780:	006702a3          	sb	t1,5(a4)
     784:	b9843303          	ld	t1,-1128(s0)
     788:	00430313          	addi	t1,t1,4
     78c:	00670323          	sb	t1,6(a4)
     790:	ba843303          	ld	t1,-1112(s0)
     794:	00430313          	addi	t1,t1,4
     798:	006703a3          	sb	t1,7(a4)
     79c:	bb843303          	ld	t1,-1096(s0)
     7a0:	00430313          	addi	t1,t1,4
     7a4:	00670423          	sb	t1,8(a4)
     7a8:	bc843303          	ld	t1,-1080(s0)
     7ac:	00430313          	addi	t1,t1,4
     7b0:	006704a3          	sb	t1,9(a4)
     7b4:	bd843303          	ld	t1,-1064(s0)
     7b8:	00430313          	addi	t1,t1,4
     7bc:	00670523          	sb	t1,10(a4)
     7c0:	be043303          	ld	t1,-1056(s0)
     7c4:	00430313          	addi	t1,t1,4
     7c8:	006705a3          	sb	t1,11(a4)
     7cc:	be843303          	ld	t1,-1048(s0)
     7d0:	00430313          	addi	t1,t1,4
     7d4:	00670623          	sb	t1,12(a4)
     7d8:	bf043303          	ld	t1,-1040(s0)
     7dc:	00430313          	addi	t1,t1,4
     7e0:	006706a3          	sb	t1,13(a4)
     7e4:	bf843303          	ld	t1,-1032(s0)
     7e8:	00430313          	addi	t1,t1,4
     7ec:	00670723          	sb	t1,14(a4)
     7f0:	c0043303          	ld	t1,-1024(s0)
     7f4:	00430313          	addi	t1,t1,4
     7f8:	006707a3          	sb	t1,15(a4)
     7fc:	c0843303          	ld	t1,-1016(s0)
     800:	00430313          	addi	t1,t1,4
     804:	00670823          	sb	t1,16(a4)
     808:	c1043303          	ld	t1,-1008(s0)
     80c:	00430313          	addi	t1,t1,4
     810:	006708a3          	sb	t1,17(a4)
     814:	c1843303          	ld	t1,-1000(s0)
     818:	00430313          	addi	t1,t1,4
     81c:	00670923          	sb	t1,18(a4)
     820:	c2043303          	ld	t1,-992(s0)
     824:	00430313          	addi	t1,t1,4
     828:	006709a3          	sb	t1,19(a4)
     82c:	c2843303          	ld	t1,-984(s0)
     830:	00430313          	addi	t1,t1,4
     834:	00670a23          	sb	t1,20(a4)
     838:	c3043303          	ld	t1,-976(s0)
     83c:	00430313          	addi	t1,t1,4
     840:	00670aa3          	sb	t1,21(a4)
     844:	c4043303          	ld	t1,-960(s0)
     848:	00430313          	addi	t1,t1,4
     84c:	00670b23          	sb	t1,22(a4)
     850:	c5043303          	ld	t1,-944(s0)
     854:	00430313          	addi	t1,t1,4
     858:	00670ba3          	sb	t1,23(a4)
     85c:	c6043303          	ld	t1,-928(s0)
     860:	00430313          	addi	t1,t1,4
     864:	00670c23          	sb	t1,24(a4)
     868:	c7043303          	ld	t1,-912(s0)
     86c:	00430313          	addi	t1,t1,4
     870:	00670ca3          	sb	t1,25(a4)
     874:	c8043303          	ld	t1,-896(s0)
     878:	00430313          	addi	t1,t1,4
     87c:	00670d23          	sb	t1,26(a4)
     880:	c9043303          	ld	t1,-880(s0)
     884:	00430313          	addi	t1,t1,4
     888:	00670da3          	sb	t1,27(a4)
     88c:	ca043303          	ld	t1,-864(s0)
     890:	00430313          	addi	t1,t1,4
     894:	00670e23          	sb	t1,28(a4)
     898:	cb043303          	ld	t1,-848(s0)
     89c:	00430313          	addi	t1,t1,4
     8a0:	00670ea3          	sb	t1,29(a4)
     8a4:	cc043303          	ld	t1,-832(s0)
     8a8:	00430313          	addi	t1,t1,4
     8ac:	00670f23          	sb	t1,30(a4)
     8b0:	cd043303          	ld	t1,-816(s0)
     8b4:	00430313          	addi	t1,t1,4
     8b8:	00670fa3          	sb	t1,31(a4)
     8bc:	a3843303          	ld	t1,-1480(s0)
     8c0:	00430313          	addi	t1,t1,4
     8c4:	00001737          	lui	a4,0x1
     8c8:	40e40733          	sub	a4,s0,a4
     8cc:	b3873703          	ld	a4,-1224(a4) # b38 <.LBB87_3+0x8cc>
     8d0:	00a70733          	add	a4,a4,a0
     8d4:	006701a3          	sb	t1,3(a4)
     8d8:	a4843303          	ld	t1,-1464(s0)
     8dc:	00430313          	addi	t1,t1,4
     8e0:	00670123          	sb	t1,2(a4)
     8e4:	a5843303          	ld	t1,-1448(s0)
     8e8:	00430313          	addi	t1,t1,4
     8ec:	006700a3          	sb	t1,1(a4)
     8f0:	a6843303          	ld	t1,-1432(s0)
     8f4:	00430313          	addi	t1,t1,4
     8f8:	00670023          	sb	t1,0(a4)
     8fc:	a7843303          	ld	t1,-1416(s0)
     900:	00430313          	addi	t1,t1,4
     904:	00670223          	sb	t1,4(a4)
     908:	a8843303          	ld	t1,-1400(s0)
     90c:	00430313          	addi	t1,t1,4
     910:	006702a3          	sb	t1,5(a4)
     914:	a9843303          	ld	t1,-1384(s0)
     918:	00430313          	addi	t1,t1,4
     91c:	00670323          	sb	t1,6(a4)
     920:	aa843303          	ld	t1,-1368(s0)
     924:	00430313          	addi	t1,t1,4
     928:	006703a3          	sb	t1,7(a4)
     92c:	ab843303          	ld	t1,-1352(s0)
     930:	00430313          	addi	t1,t1,4
     934:	00670423          	sb	t1,8(a4)
     938:	ac843303          	ld	t1,-1336(s0)
     93c:	00430313          	addi	t1,t1,4
     940:	006704a3          	sb	t1,9(a4)
     944:	ad843303          	ld	t1,-1320(s0)
     948:	00430313          	addi	t1,t1,4
     94c:	00670523          	sb	t1,10(a4)
     950:	ae043303          	ld	t1,-1312(s0)
     954:	00430313          	addi	t1,t1,4
     958:	006705a3          	sb	t1,11(a4)
     95c:	ae843303          	ld	t1,-1304(s0)
     960:	00430313          	addi	t1,t1,4
     964:	00670623          	sb	t1,12(a4)
     968:	af043303          	ld	t1,-1296(s0)
     96c:	00430313          	addi	t1,t1,4
     970:	006706a3          	sb	t1,13(a4)
     974:	af843303          	ld	t1,-1288(s0)
     978:	00430313          	addi	t1,t1,4
     97c:	00670723          	sb	t1,14(a4)
     980:	b0043303          	ld	t1,-1280(s0)
     984:	00430313          	addi	t1,t1,4
     988:	006707a3          	sb	t1,15(a4)
     98c:	b0843303          	ld	t1,-1272(s0)
     990:	00430313          	addi	t1,t1,4
     994:	00670823          	sb	t1,16(a4)
     998:	b1043303          	ld	t1,-1264(s0)
     99c:	00430313          	addi	t1,t1,4
     9a0:	006708a3          	sb	t1,17(a4)
     9a4:	b1843303          	ld	t1,-1256(s0)
     9a8:	00430313          	addi	t1,t1,4
     9ac:	00670923          	sb	t1,18(a4)
     9b0:	b2043303          	ld	t1,-1248(s0)
     9b4:	00430313          	addi	t1,t1,4
     9b8:	006709a3          	sb	t1,19(a4)
     9bc:	b2843303          	ld	t1,-1240(s0)
     9c0:	00430313          	addi	t1,t1,4
     9c4:	00670a23          	sb	t1,20(a4)
     9c8:	b3043303          	ld	t1,-1232(s0)
     9cc:	00430313          	addi	t1,t1,4
     9d0:	00670aa3          	sb	t1,21(a4)
     9d4:	b4043303          	ld	t1,-1216(s0)
     9d8:	00430313          	addi	t1,t1,4
     9dc:	00670b23          	sb	t1,22(a4)
     9e0:	b5043303          	ld	t1,-1200(s0)
     9e4:	00430313          	addi	t1,t1,4
     9e8:	00670ba3          	sb	t1,23(a4)
     9ec:	b6043303          	ld	t1,-1184(s0)
     9f0:	00430313          	addi	t1,t1,4
     9f4:	00670c23          	sb	t1,24(a4)
     9f8:	b7043303          	ld	t1,-1168(s0)
     9fc:	00430313          	addi	t1,t1,4
     a00:	00670ca3          	sb	t1,25(a4)
     a04:	b8043303          	ld	t1,-1152(s0)
     a08:	00430313          	addi	t1,t1,4
     a0c:	00670d23          	sb	t1,26(a4)
     a10:	b9043303          	ld	t1,-1136(s0)
     a14:	00430313          	addi	t1,t1,4
     a18:	00670da3          	sb	t1,27(a4)
     a1c:	ba043303          	ld	t1,-1120(s0)
     a20:	00430313          	addi	t1,t1,4
     a24:	00670e23          	sb	t1,28(a4)
     a28:	bb043303          	ld	t1,-1104(s0)
     a2c:	00430313          	addi	t1,t1,4
     a30:	00670ea3          	sb	t1,29(a4)
     a34:	bc043303          	ld	t1,-1088(s0)
     a38:	00430313          	addi	t1,t1,4
     a3c:	00670f23          	sb	t1,30(a4)
     a40:	bd043303          	ld	t1,-1072(s0)
     a44:	00430313          	addi	t1,t1,4
     a48:	00670fa3          	sb	t1,31(a4)
     a4c:	9b843303          	ld	t1,-1608(s0)
     a50:	00430313          	addi	t1,t1,4
     a54:	00001737          	lui	a4,0x1
     a58:	40e40733          	sub	a4,s0,a4
     a5c:	b3073703          	ld	a4,-1232(a4) # b30 <.LBB87_3+0x8c4>
     a60:	00a70733          	add	a4,a4,a0
     a64:	006701a3          	sb	t1,3(a4)
     a68:	004d8313          	addi	t1,s11,4
     a6c:	00670123          	sb	t1,2(a4)
     a70:	004c8313          	addi	t1,s9,4
     a74:	006700a3          	sb	t1,1(a4)
     a78:	004b8313          	addi	t1,s7,4
     a7c:	00670023          	sb	t1,0(a4)
     a80:	00428313          	addi	t1,t0,4
     a84:	00670223          	sb	t1,4(a4)
     a88:	004e8313          	addi	t1,t4,4
     a8c:	006702a3          	sb	t1,5(a4)
     a90:	00490313          	addi	t1,s2,4
     a94:	00670323          	sb	t1,6(a4)
     a98:	00488313          	addi	t1,a7,4
     a9c:	006703a3          	sb	t1,7(a4)
     aa0:	004f8313          	addi	t1,t6,4
     aa4:	00670423          	sb	t1,8(a4)
     aa8:	9c843303          	ld	t1,-1592(s0)
     aac:	00430313          	addi	t1,t1,4
     ab0:	006704a3          	sb	t1,9(a4)
     ab4:	9d843303          	ld	t1,-1576(s0)
     ab8:	00430313          	addi	t1,t1,4
     abc:	00670523          	sb	t1,10(a4)
     ac0:	9e043303          	ld	t1,-1568(s0)
     ac4:	00430313          	addi	t1,t1,4
     ac8:	006705a3          	sb	t1,11(a4)
     acc:	9e843303          	ld	t1,-1560(s0)
     ad0:	00430313          	addi	t1,t1,4
     ad4:	00670623          	sb	t1,12(a4)
     ad8:	9f043303          	ld	t1,-1552(s0)
     adc:	00430313          	addi	t1,t1,4
     ae0:	006706a3          	sb	t1,13(a4)
     ae4:	9f843303          	ld	t1,-1544(s0)
     ae8:	00430313          	addi	t1,t1,4
     aec:	00670723          	sb	t1,14(a4)
     af0:	a0043303          	ld	t1,-1536(s0)
     af4:	00430313          	addi	t1,t1,4
     af8:	006707a3          	sb	t1,15(a4)
     afc:	a0843303          	ld	t1,-1528(s0)
     b00:	00430313          	addi	t1,t1,4
     b04:	00670823          	sb	t1,16(a4)
     b08:	a1043303          	ld	t1,-1520(s0)
     b0c:	00430313          	addi	t1,t1,4
     b10:	006708a3          	sb	t1,17(a4)
     b14:	a1843303          	ld	t1,-1512(s0)
     b18:	00430313          	addi	t1,t1,4
     b1c:	00670923          	sb	t1,18(a4)
     b20:	a2043303          	ld	t1,-1504(s0)
     b24:	00430313          	addi	t1,t1,4
     b28:	006709a3          	sb	t1,19(a4)
     b2c:	a2843303          	ld	t1,-1496(s0)
     b30:	00430313          	addi	t1,t1,4
     b34:	00670a23          	sb	t1,20(a4)
     b38:	a3043303          	ld	t1,-1488(s0)
     b3c:	00430313          	addi	t1,t1,4
     b40:	00670aa3          	sb	t1,21(a4)
     b44:	a4043303          	ld	t1,-1472(s0)
     b48:	00430313          	addi	t1,t1,4
     b4c:	00670b23          	sb	t1,22(a4)
     b50:	a5043303          	ld	t1,-1456(s0)
     b54:	00430313          	addi	t1,t1,4
     b58:	00670ba3          	sb	t1,23(a4)
     b5c:	a6043303          	ld	t1,-1440(s0)
     b60:	00430313          	addi	t1,t1,4
     b64:	00670c23          	sb	t1,24(a4)
     b68:	a7043303          	ld	t1,-1424(s0)
     b6c:	00430313          	addi	t1,t1,4
     b70:	00670ca3          	sb	t1,25(a4)
     b74:	a8043303          	ld	t1,-1408(s0)
     b78:	00430313          	addi	t1,t1,4
     b7c:	00670d23          	sb	t1,26(a4)
     b80:	a9043303          	ld	t1,-1392(s0)
     b84:	00430313          	addi	t1,t1,4
     b88:	00670da3          	sb	t1,27(a4)
     b8c:	aa043303          	ld	t1,-1376(s0)
     b90:	00430313          	addi	t1,t1,4
     b94:	00670e23          	sb	t1,28(a4)
     b98:	ab043303          	ld	t1,-1360(s0)
     b9c:	00430313          	addi	t1,t1,4
     ba0:	00670ea3          	sb	t1,29(a4)
     ba4:	ac043303          	ld	t1,-1344(s0)
     ba8:	00430313          	addi	t1,t1,4
     bac:	00670f23          	sb	t1,30(a4)
     bb0:	ad043303          	ld	t1,-1328(s0)
     bb4:	00430313          	addi	t1,t1,4
     bb8:	00670fa3          	sb	t1,31(a4)
     bbc:	8b843883          	ld	a7,-1864(s0)
     bc0:	00488893          	addi	a7,a7,4
     bc4:	00001737          	lui	a4,0x1
     bc8:	40e40733          	sub	a4,s0,a4
     bcc:	b2873703          	ld	a4,-1240(a4) # b28 <.LBB87_3+0x8bc>
     bd0:	00050293          	mv	t0,a0
     bd4:	00a70733          	add	a4,a4,a0
     bd8:	011701a3          	sb	a7,3(a4)
     bdc:	8c843503          	ld	a0,-1848(s0)
     be0:	00450513          	addi	a0,a0,4
     be4:	00a70123          	sb	a0,2(a4)
     be8:	8d843503          	ld	a0,-1832(s0)
     bec:	00450513          	addi	a0,a0,4
     bf0:	00a700a3          	sb	a0,1(a4)
     bf4:	8e843503          	ld	a0,-1816(s0)
     bf8:	00450513          	addi	a0,a0,4
     bfc:	00a70023          	sb	a0,0(a4)
     c00:	8f843503          	ld	a0,-1800(s0)
     c04:	00450513          	addi	a0,a0,4
     c08:	00a70223          	sb	a0,4(a4)
     c0c:	90843503          	ld	a0,-1784(s0)
     c10:	00450513          	addi	a0,a0,4
     c14:	00a702a3          	sb	a0,5(a4)
     c18:	91843503          	ld	a0,-1768(s0)
     c1c:	00450513          	addi	a0,a0,4
     c20:	00a70323          	sb	a0,6(a4)
     c24:	92843503          	ld	a0,-1752(s0)
     c28:	00450513          	addi	a0,a0,4
     c2c:	00a703a3          	sb	a0,7(a4)
     c30:	93843503          	ld	a0,-1736(s0)
     c34:	00450513          	addi	a0,a0,4
     c38:	00a70423          	sb	a0,8(a4)
     c3c:	94843503          	ld	a0,-1720(s0)
     c40:	00450513          	addi	a0,a0,4
     c44:	00a704a3          	sb	a0,9(a4)
     c48:	95843503          	ld	a0,-1704(s0)
     c4c:	00450513          	addi	a0,a0,4
     c50:	00a70523          	sb	a0,10(a4)
     c54:	96043503          	ld	a0,-1696(s0)
     c58:	00450513          	addi	a0,a0,4
     c5c:	00a705a3          	sb	a0,11(a4)
     c60:	96843503          	ld	a0,-1688(s0)
     c64:	00450513          	addi	a0,a0,4
     c68:	00a70623          	sb	a0,12(a4)
     c6c:	97043503          	ld	a0,-1680(s0)
     c70:	00450513          	addi	a0,a0,4
     c74:	00a706a3          	sb	a0,13(a4)
     c78:	97843503          	ld	a0,-1672(s0)
     c7c:	00450513          	addi	a0,a0,4
     c80:	00a70723          	sb	a0,14(a4)
     c84:	98043503          	ld	a0,-1664(s0)
     c88:	00450513          	addi	a0,a0,4
     c8c:	00a707a3          	sb	a0,15(a4)
     c90:	98843503          	ld	a0,-1656(s0)
     c94:	00450513          	addi	a0,a0,4
     c98:	00a70823          	sb	a0,16(a4)
     c9c:	99043503          	ld	a0,-1648(s0)
     ca0:	00450513          	addi	a0,a0,4
     ca4:	00a708a3          	sb	a0,17(a4)
     ca8:	99843503          	ld	a0,-1640(s0)
     cac:	00450513          	addi	a0,a0,4
     cb0:	00a70923          	sb	a0,18(a4)
     cb4:	9a043503          	ld	a0,-1632(s0)
     cb8:	00450513          	addi	a0,a0,4
     cbc:	00a709a3          	sb	a0,19(a4)
     cc0:	9a843503          	ld	a0,-1624(s0)
     cc4:	00450513          	addi	a0,a0,4
     cc8:	00a70a23          	sb	a0,20(a4)
     ccc:	9b043503          	ld	a0,-1616(s0)
     cd0:	00450513          	addi	a0,a0,4
     cd4:	00a70aa3          	sb	a0,21(a4)
     cd8:	00408513          	addi	a0,ra,4
     cdc:	00a70b23          	sb	a0,22(a4)
     ce0:	004d0513          	addi	a0,s10,4
     ce4:	00a70ba3          	sb	a0,23(a4)
     ce8:	004c0513          	addi	a0,s8,4
     cec:	00a70c23          	sb	a0,24(a4)
     cf0:	004a8513          	addi	a0,s5,4
     cf4:	00a70ca3          	sb	a0,25(a4)
     cf8:	004f0513          	addi	a0,t5,4
     cfc:	00a70d23          	sb	a0,26(a4)
     d00:	004e0513          	addi	a0,t3,4
     d04:	00a70da3          	sb	a0,27(a4)
     d08:	00438513          	addi	a0,t2,4
     d0c:	00a70e23          	sb	a0,28(a4)
     d10:	84843503          	ld	a0,-1976(s0)
     d14:	00450513          	addi	a0,a0,4
     d18:	00a70ea3          	sb	a0,29(a4)
     d1c:	9c043503          	ld	a0,-1600(s0)
     d20:	00450513          	addi	a0,a0,4
     d24:	00a70f23          	sb	a0,30(a4)
     d28:	9d043503          	ld	a0,-1584(s0)
     d2c:	00450513          	addi	a0,a0,4
     d30:	00a70fa3          	sb	a0,31(a4)
     d34:	00498993          	addi	s3,s3,4
     d38:	00001537          	lui	a0,0x1
     d3c:	40a40533          	sub	a0,s0,a0
     d40:	b2053503          	ld	a0,-1248(a0) # b20 <.LBB87_3+0x8b4>
     d44:	00550533          	add	a0,a0,t0
     d48:	00028713          	mv	a4,t0
     d4c:	013501a3          	sb	s3,3(a0)
     d50:	00458093          	addi	ra,a1,4
     d54:	00150123          	sb	ra,2(a0)
     d58:	00448493          	addi	s1,s1,4
     d5c:	009500a3          	sb	s1,1(a0)
     d60:	004a0a13          	addi	s4,s4,4
     d64:	01450023          	sb	s4,0(a0)
     d68:	00480813          	addi	a6,a6,4
     d6c:	01050223          	sb	a6,4(a0)
     d70:	00478793          	addi	a5,a5,4
     d74:	00f502a3          	sb	a5,5(a0)
     d78:	00468d93          	addi	s11,a3,4
     d7c:	01b50323          	sb	s11,6(a0)
     d80:	004b0d13          	addi	s10,s6,4
     d84:	01a503a3          	sb	s10,7(a0)
     d88:	00460c93          	addi	s9,a2,4
     d8c:	01950423          	sb	s9,8(a0)
     d90:	85043c03          	ld	s8,-1968(s0)
     d94:	004c0c13          	addi	s8,s8,4
     d98:	018504a3          	sb	s8,9(a0)
     d9c:	85843b83          	ld	s7,-1960(s0)
     da0:	004b8b93          	addi	s7,s7,4
     da4:	01750523          	sb	s7,10(a0)
     da8:	86043b03          	ld	s6,-1952(s0)
     dac:	004b0b13          	addi	s6,s6,4
     db0:	016505a3          	sb	s6,11(a0)
     db4:	86843a83          	ld	s5,-1944(s0)
     db8:	004a8a93          	addi	s5,s5,4
     dbc:	01550623          	sb	s5,12(a0)
     dc0:	87043283          	ld	t0,-1936(s0)
     dc4:	00428293          	addi	t0,t0,4
     dc8:	005506a3          	sb	t0,13(a0)
     dcc:	87843683          	ld	a3,-1928(s0)
     dd0:	00468693          	addi	a3,a3,4
     dd4:	00d50723          	sb	a3,14(a0)
     dd8:	88043603          	ld	a2,-1920(s0)
     ddc:	00460613          	addi	a2,a2,4
     de0:	00c507a3          	sb	a2,15(a0)
     de4:	88843f03          	ld	t5,-1912(s0)
     de8:	004f0f13          	addi	t5,t5,4
     dec:	01e50823          	sb	t5,16(a0)
     df0:	89043583          	ld	a1,-1904(s0)
     df4:	00458593          	addi	a1,a1,4
     df8:	00b508a3          	sb	a1,17(a0)
     dfc:	89843e83          	ld	t4,-1896(s0)
     e00:	004e8e93          	addi	t4,t4,4
     e04:	01d50923          	sb	t4,18(a0)
     e08:	8a043e03          	ld	t3,-1888(s0)
     e0c:	004e0e13          	addi	t3,t3,4
     e10:	01c509a3          	sb	t3,19(a0)
     e14:	8a843903          	ld	s2,-1880(s0)
     e18:	00490913          	addi	s2,s2,4
     e1c:	01250a23          	sb	s2,20(a0)
     e20:	8b043383          	ld	t2,-1872(s0)
     e24:	00438393          	addi	t2,t2,4
     e28:	00750aa3          	sb	t2,21(a0)
     e2c:	8c043f83          	ld	t6,-1856(s0)
     e30:	004f8f93          	addi	t6,t6,4
     e34:	01f50b23          	sb	t6,22(a0)
     e38:	8d043583          	ld	a1,-1840(s0)
     e3c:	00458593          	addi	a1,a1,4
     e40:	00b50ba3          	sb	a1,23(a0)
     e44:	8e043583          	ld	a1,-1824(s0)
     e48:	00458593          	addi	a1,a1,4
     e4c:	00b50c23          	sb	a1,24(a0)
     e50:	8f043583          	ld	a1,-1808(s0)
     e54:	00458593          	addi	a1,a1,4
     e58:	00b50ca3          	sb	a1,25(a0)
     e5c:	90043583          	ld	a1,-1792(s0)
     e60:	00458593          	addi	a1,a1,4
     e64:	00b50d23          	sb	a1,26(a0)
     e68:	91043583          	ld	a1,-1776(s0)
     e6c:	00458593          	addi	a1,a1,4
     e70:	00b50da3          	sb	a1,27(a0)
     e74:	92043583          	ld	a1,-1760(s0)
     e78:	00458593          	addi	a1,a1,4
     e7c:	00b50e23          	sb	a1,28(a0)
     e80:	93043583          	ld	a1,-1744(s0)
     e84:	00458593          	addi	a1,a1,4
     e88:	00b50ea3          	sb	a1,29(a0)
     e8c:	94043583          	ld	a1,-1728(s0)
     e90:	00458593          	addi	a1,a1,4
     e94:	00b50f23          	sb	a1,30(a0)
     e98:	95043583          	ld	a1,-1712(s0)
     e9c:	00458593          	addi	a1,a1,4
     ea0:	00b50fa3          	sb	a1,31(a0)
     ea4:	00070613          	mv	a2,a4
     ea8:	02070593          	addi	a1,a4,32
     eac:	00001537          	lui	a0,0x1
     eb0:	40a40533          	sub	a0,s0,a0
     eb4:	64053383          	ld	t2,1600(a0) # 1640 <.LBB87_5+0x1c0>
     eb8:	02038393          	addi	t2,t2,32
     ebc:	08000513          	li	a0,128
     ec0:	a6a77a63          	bgeu	a4,a0,134 <.LBB87_1>

0000000000000ec4 <.LBB87_4>:
     ec4:	00001537          	lui	a0,0x1
     ec8:	40a40533          	sub	a0,s0,a0
     ecc:	64b53823          	sd	a1,1616(a0) # 1650 <.LBB87_5+0x1d0>
     ed0:	00001537          	lui	a0,0x1
     ed4:	40a40533          	sub	a0,s0,a0
     ed8:	b1853783          	ld	a5,-1256(a0) # b18 <.LBB87_3+0x8ac>
     edc:	00001537          	lui	a0,0x1
     ee0:	40a40533          	sub	a0,s0,a0
     ee4:	b7053503          	ld	a0,-1168(a0) # b70 <.LBB87_3+0x904>
     ee8:	f6a43823          	sd	a0,-144(s0)
     eec:	00001537          	lui	a0,0x1
     ef0:	40a40533          	sub	a0,s0,a0
     ef4:	b7853f83          	ld	t6,-1160(a0) # b78 <.LBB87_3+0x90c>
     ef8:	00001537          	lui	a0,0x1
     efc:	40a40533          	sub	a0,s0,a0
     f00:	64753023          	sd	t2,1600(a0) # 1640 <.LBB87_5+0x1c0>
     f04:	00038493          	mv	s1,t2
     f08:	00001537          	lui	a0,0x1
     f0c:	40a40533          	sub	a0,s0,a0
     f10:	6c053423          	sd	zero,1736(a0) # 16c8 <.LBB87_5+0x248>
     f14:	00001537          	lui	a0,0x1
     f18:	40a40533          	sub	a0,s0,a0
     f1c:	6c053023          	sd	zero,1728(a0) # 16c0 <.LBB87_5+0x240>
     f20:	00001537          	lui	a0,0x1
     f24:	40a40533          	sub	a0,s0,a0
     f28:	6a053423          	sd	zero,1704(a0) # 16a8 <.LBB87_5+0x228>
     f2c:	00001537          	lui	a0,0x1
     f30:	40a40533          	sub	a0,s0,a0
     f34:	6a053823          	sd	zero,1712(a0) # 16b0 <.LBB87_5+0x230>
     f38:	00001537          	lui	a0,0x1
     f3c:	40a40533          	sub	a0,s0,a0
     f40:	6a053c23          	sd	zero,1720(a0) # 16b8 <.LBB87_5+0x238>
     f44:	00001537          	lui	a0,0x1
     f48:	40a40533          	sub	a0,s0,a0
     f4c:	6a053023          	sd	zero,1696(a0) # 16a0 <.LBB87_5+0x220>
     f50:	00001537          	lui	a0,0x1
     f54:	40a40533          	sub	a0,s0,a0
     f58:	68053c23          	sd	zero,1688(a0) # 1698 <.LBB87_5+0x218>
     f5c:	00001537          	lui	a0,0x1
     f60:	40a40533          	sub	a0,s0,a0
     f64:	68053823          	sd	zero,1680(a0) # 1690 <.LBB87_5+0x210>
     f68:	00001537          	lui	a0,0x1
     f6c:	40a40533          	sub	a0,s0,a0
     f70:	68053423          	sd	zero,1672(a0) # 1688 <.LBB87_5+0x208>
     f74:	00001537          	lui	a0,0x1
     f78:	40a40533          	sub	a0,s0,a0
     f7c:	6c053823          	sd	zero,1744(a0) # 16d0 <.LBB87_5+0x250>
     f80:	00001537          	lui	a0,0x1
     f84:	40a40533          	sub	a0,s0,a0
     f88:	6c053c23          	sd	zero,1752(a0) # 16d8 <.LBB87_5+0x258>
     f8c:	00001537          	lui	a0,0x1
     f90:	40a40533          	sub	a0,s0,a0
     f94:	6e053023          	sd	zero,1760(a0) # 16e0 <.LBB87_5+0x260>
     f98:	00001537          	lui	a0,0x1
     f9c:	40a40533          	sub	a0,s0,a0
     fa0:	6e053423          	sd	zero,1768(a0) # 16e8 <.LBB87_5+0x268>
     fa4:	00001537          	lui	a0,0x1
     fa8:	40a40533          	sub	a0,s0,a0
     fac:	6e053823          	sd	zero,1776(a0) # 16f0 <.LBB87_5+0x270>
     fb0:	00001537          	lui	a0,0x1
     fb4:	40a40533          	sub	a0,s0,a0
     fb8:	6e053c23          	sd	zero,1784(a0) # 16f8 <.LBB87_5+0x278>
     fbc:	00001537          	lui	a0,0x1
     fc0:	40a40533          	sub	a0,s0,a0
     fc4:	70053023          	sd	zero,1792(a0) # 1700 <.LBB87_5+0x280>
     fc8:	00001537          	lui	a0,0x1
     fcc:	40a40533          	sub	a0,s0,a0
     fd0:	70053423          	sd	zero,1800(a0) # 1708 <.LBB87_5+0x288>
     fd4:	00001537          	lui	a0,0x1
     fd8:	40a40533          	sub	a0,s0,a0
     fdc:	70053823          	sd	zero,1808(a0) # 1710 <.LBB87_5+0x290>
     fe0:	00001537          	lui	a0,0x1
     fe4:	40a40533          	sub	a0,s0,a0
     fe8:	70053c23          	sd	zero,1816(a0) # 1718 <.LBB87_5+0x298>
     fec:	00001537          	lui	a0,0x1
     ff0:	40a40533          	sub	a0,s0,a0
     ff4:	72053023          	sd	zero,1824(a0) # 1720 <.LBB87_5+0x2a0>
     ff8:	00001537          	lui	a0,0x1
     ffc:	40a40533          	sub	a0,s0,a0
    1000:	72053423          	sd	zero,1832(a0) # 1728 <.LBB87_5+0x2a8>
    1004:	00001537          	lui	a0,0x1
    1008:	40a40533          	sub	a0,s0,a0
    100c:	72053823          	sd	zero,1840(a0) # 1730 <.LBB87_5+0x2b0>
    1010:	00001537          	lui	a0,0x1
    1014:	40a40533          	sub	a0,s0,a0
    1018:	72053c23          	sd	zero,1848(a0) # 1738 <.LBB87_5+0x2b8>
    101c:	00001537          	lui	a0,0x1
    1020:	40a40533          	sub	a0,s0,a0
    1024:	74053023          	sd	zero,1856(a0) # 1740 <.LBB87_5+0x2c0>
    1028:	00001537          	lui	a0,0x1
    102c:	40a40533          	sub	a0,s0,a0
    1030:	74053423          	sd	zero,1864(a0) # 1748 <.LBB87_5+0x2c8>
    1034:	00001537          	lui	a0,0x1
    1038:	40a40533          	sub	a0,s0,a0
    103c:	74053823          	sd	zero,1872(a0) # 1750 <.LBB87_5+0x2d0>
    1040:	00001537          	lui	a0,0x1
    1044:	40a40533          	sub	a0,s0,a0
    1048:	74053c23          	sd	zero,1880(a0) # 1758 <.LBB87_5+0x2d8>
    104c:	00001537          	lui	a0,0x1
    1050:	40a40533          	sub	a0,s0,a0
    1054:	76053023          	sd	zero,1888(a0) # 1760 <.LBB87_5+0x2e0>
    1058:	00001537          	lui	a0,0x1
    105c:	40a40533          	sub	a0,s0,a0
    1060:	76053423          	sd	zero,1896(a0) # 1768 <.LBB87_5+0x2e8>
    1064:	00001537          	lui	a0,0x1
    1068:	40a40533          	sub	a0,s0,a0
    106c:	76053823          	sd	zero,1904(a0) # 1770 <.LBB87_5+0x2f0>
    1070:	00001537          	lui	a0,0x1
    1074:	40a40533          	sub	a0,s0,a0
    1078:	76053c23          	sd	zero,1912(a0) # 1778 <.LBB87_5+0x2f8>
    107c:	00001537          	lui	a0,0x1
    1080:	40a40533          	sub	a0,s0,a0
    1084:	78053023          	sd	zero,1920(a0) # 1780 <.LBB87_5+0x300>
    1088:	00001537          	lui	a0,0x1
    108c:	40a40533          	sub	a0,s0,a0
    1090:	7a053023          	sd	zero,1952(a0) # 17a0 <.LBB87_5+0x320>
    1094:	00001537          	lui	a0,0x1
    1098:	40a40533          	sub	a0,s0,a0
    109c:	78053c23          	sd	zero,1944(a0) # 1798 <.LBB87_5+0x318>
    10a0:	00001537          	lui	a0,0x1
    10a4:	40a40533          	sub	a0,s0,a0
    10a8:	78053823          	sd	zero,1936(a0) # 1790 <.LBB87_5+0x310>
    10ac:	00001537          	lui	a0,0x1
    10b0:	40a40533          	sub	a0,s0,a0
    10b4:	78053423          	sd	zero,1928(a0) # 1788 <.LBB87_5+0x308>
    10b8:	00001537          	lui	a0,0x1
    10bc:	40a40533          	sub	a0,s0,a0
    10c0:	7a053423          	sd	zero,1960(a0) # 17a8 <.LBB87_5+0x328>
    10c4:	00001537          	lui	a0,0x1
    10c8:	40a40533          	sub	a0,s0,a0
    10cc:	7a053823          	sd	zero,1968(a0) # 17b0 <.LBB87_5+0x330>
    10d0:	00001537          	lui	a0,0x1
    10d4:	40a40533          	sub	a0,s0,a0
    10d8:	7a053c23          	sd	zero,1976(a0) # 17b8 <.LBB87_5+0x338>
    10dc:	00001537          	lui	a0,0x1
    10e0:	40a40533          	sub	a0,s0,a0
    10e4:	7c053023          	sd	zero,1984(a0) # 17c0 <.LBB87_5+0x340>
    10e8:	00001537          	lui	a0,0x1
    10ec:	40a40533          	sub	a0,s0,a0
    10f0:	7c053423          	sd	zero,1992(a0) # 17c8 <.LBB87_5+0x348>
    10f4:	00001537          	lui	a0,0x1
    10f8:	40a40533          	sub	a0,s0,a0
    10fc:	7c053823          	sd	zero,2000(a0) # 17d0 <.LBB87_5+0x350>
    1100:	00001537          	lui	a0,0x1
    1104:	40a40533          	sub	a0,s0,a0
    1108:	7c053c23          	sd	zero,2008(a0) # 17d8 <.LBB87_5+0x358>
    110c:	00001537          	lui	a0,0x1
    1110:	40a40533          	sub	a0,s0,a0
    1114:	7e053023          	sd	zero,2016(a0) # 17e0 <.LBB87_5+0x360>
    1118:	00001537          	lui	a0,0x1
    111c:	40a40533          	sub	a0,s0,a0
    1120:	7e053423          	sd	zero,2024(a0) # 17e8 <.LBB87_5+0x368>
    1124:	00001537          	lui	a0,0x1
    1128:	40a40533          	sub	a0,s0,a0
    112c:	7e053823          	sd	zero,2032(a0) # 17f0 <.LBB87_5+0x370>
    1130:	00001537          	lui	a0,0x1
    1134:	40a40533          	sub	a0,s0,a0
    1138:	7e053c23          	sd	zero,2040(a0) # 17f8 <.LBB87_5+0x378>
    113c:	80043023          	sd	zero,-2048(s0)
    1140:	80043423          	sd	zero,-2040(s0)
    1144:	80043823          	sd	zero,-2032(s0)
    1148:	80043c23          	sd	zero,-2024(s0)
    114c:	82043023          	sd	zero,-2016(s0)
    1150:	82043423          	sd	zero,-2008(s0)
    1154:	82043823          	sd	zero,-2000(s0)
    1158:	82043c23          	sd	zero,-1992(s0)
    115c:	84043023          	sd	zero,-1984(s0)
    1160:	84043423          	sd	zero,-1976(s0)
    1164:	84043823          	sd	zero,-1968(s0)
    1168:	84043c23          	sd	zero,-1960(s0)
    116c:	86043023          	sd	zero,-1952(s0)
    1170:	86043423          	sd	zero,-1944(s0)
    1174:	86043823          	sd	zero,-1936(s0)
    1178:	86043c23          	sd	zero,-1928(s0)
    117c:	88043023          	sd	zero,-1920(s0)
    1180:	8a043023          	sd	zero,-1888(s0)
    1184:	88043c23          	sd	zero,-1896(s0)
    1188:	88043823          	sd	zero,-1904(s0)
    118c:	88043423          	sd	zero,-1912(s0)
    1190:	8a043423          	sd	zero,-1880(s0)
    1194:	8a043823          	sd	zero,-1872(s0)
    1198:	8a043c23          	sd	zero,-1864(s0)
    119c:	8c043023          	sd	zero,-1856(s0)
    11a0:	8c043423          	sd	zero,-1848(s0)
    11a4:	8c043823          	sd	zero,-1840(s0)
    11a8:	8c043c23          	sd	zero,-1832(s0)
    11ac:	8e043023          	sd	zero,-1824(s0)
    11b0:	8e043423          	sd	zero,-1816(s0)
    11b4:	8e043823          	sd	zero,-1808(s0)
    11b8:	8e043c23          	sd	zero,-1800(s0)
    11bc:	90043023          	sd	zero,-1792(s0)
    11c0:	90043423          	sd	zero,-1784(s0)
    11c4:	90043823          	sd	zero,-1776(s0)
    11c8:	90043c23          	sd	zero,-1768(s0)
    11cc:	92043023          	sd	zero,-1760(s0)
    11d0:	92043423          	sd	zero,-1752(s0)
    11d4:	92043823          	sd	zero,-1744(s0)
    11d8:	92043c23          	sd	zero,-1736(s0)
    11dc:	94043023          	sd	zero,-1728(s0)
    11e0:	94043423          	sd	zero,-1720(s0)
    11e4:	94043823          	sd	zero,-1712(s0)
    11e8:	94043c23          	sd	zero,-1704(s0)
    11ec:	96043023          	sd	zero,-1696(s0)
    11f0:	96043423          	sd	zero,-1688(s0)
    11f4:	96043823          	sd	zero,-1680(s0)
    11f8:	96043c23          	sd	zero,-1672(s0)
    11fc:	98043023          	sd	zero,-1664(s0)
    1200:	9a043023          	sd	zero,-1632(s0)
    1204:	98043c23          	sd	zero,-1640(s0)
    1208:	98043823          	sd	zero,-1648(s0)
    120c:	98043423          	sd	zero,-1656(s0)
    1210:	9a043423          	sd	zero,-1624(s0)
    1214:	9a043823          	sd	zero,-1616(s0)
    1218:	9a043c23          	sd	zero,-1608(s0)
    121c:	9c043023          	sd	zero,-1600(s0)
    1220:	9c043423          	sd	zero,-1592(s0)
    1224:	9c043823          	sd	zero,-1584(s0)
    1228:	9c043c23          	sd	zero,-1576(s0)
    122c:	9e043023          	sd	zero,-1568(s0)
    1230:	9e043423          	sd	zero,-1560(s0)
    1234:	9e043823          	sd	zero,-1552(s0)
    1238:	9e043c23          	sd	zero,-1544(s0)
    123c:	a0043023          	sd	zero,-1536(s0)
    1240:	a0043423          	sd	zero,-1528(s0)
    1244:	a0043823          	sd	zero,-1520(s0)
    1248:	a0043c23          	sd	zero,-1512(s0)
    124c:	a2043023          	sd	zero,-1504(s0)
    1250:	a2043423          	sd	zero,-1496(s0)
    1254:	a2043823          	sd	zero,-1488(s0)
    1258:	a2043c23          	sd	zero,-1480(s0)
    125c:	a4043023          	sd	zero,-1472(s0)
    1260:	a4043423          	sd	zero,-1464(s0)
    1264:	a4043823          	sd	zero,-1456(s0)
    1268:	a4043c23          	sd	zero,-1448(s0)
    126c:	a6043023          	sd	zero,-1440(s0)
    1270:	a6043423          	sd	zero,-1432(s0)
    1274:	a6043823          	sd	zero,-1424(s0)
    1278:	a6043c23          	sd	zero,-1416(s0)
    127c:	a8043023          	sd	zero,-1408(s0)
    1280:	aa043023          	sd	zero,-1376(s0)
    1284:	a8043c23          	sd	zero,-1384(s0)
    1288:	a8043823          	sd	zero,-1392(s0)
    128c:	a8043423          	sd	zero,-1400(s0)
    1290:	aa043423          	sd	zero,-1368(s0)
    1294:	aa043823          	sd	zero,-1360(s0)
    1298:	aa043c23          	sd	zero,-1352(s0)
    129c:	ac043023          	sd	zero,-1344(s0)
    12a0:	ac043423          	sd	zero,-1336(s0)
    12a4:	ac043823          	sd	zero,-1328(s0)
    12a8:	ac043c23          	sd	zero,-1320(s0)
    12ac:	ae043023          	sd	zero,-1312(s0)
    12b0:	ae043423          	sd	zero,-1304(s0)
    12b4:	ae043823          	sd	zero,-1296(s0)
    12b8:	ae043c23          	sd	zero,-1288(s0)
    12bc:	b0043023          	sd	zero,-1280(s0)
    12c0:	b0043423          	sd	zero,-1272(s0)
    12c4:	b0043823          	sd	zero,-1264(s0)
    12c8:	b0043c23          	sd	zero,-1256(s0)
    12cc:	b2043023          	sd	zero,-1248(s0)
    12d0:	b2043423          	sd	zero,-1240(s0)
    12d4:	b2043823          	sd	zero,-1232(s0)
    12d8:	b2043c23          	sd	zero,-1224(s0)
    12dc:	b4043023          	sd	zero,-1216(s0)
    12e0:	b4043423          	sd	zero,-1208(s0)
    12e4:	b4043823          	sd	zero,-1200(s0)
    12e8:	b4043c23          	sd	zero,-1192(s0)
    12ec:	b6043023          	sd	zero,-1184(s0)
    12f0:	b6043423          	sd	zero,-1176(s0)
    12f4:	b6043823          	sd	zero,-1168(s0)
    12f8:	b6043c23          	sd	zero,-1160(s0)
    12fc:	b8043023          	sd	zero,-1152(s0)
    1300:	ba043023          	sd	zero,-1120(s0)
    1304:	b8043c23          	sd	zero,-1128(s0)
    1308:	b8043823          	sd	zero,-1136(s0)
    130c:	b8043423          	sd	zero,-1144(s0)
    1310:	ba043423          	sd	zero,-1112(s0)
    1314:	ba043823          	sd	zero,-1104(s0)
    1318:	ba043c23          	sd	zero,-1096(s0)
    131c:	bc043023          	sd	zero,-1088(s0)
    1320:	bc043423          	sd	zero,-1080(s0)
    1324:	bc043823          	sd	zero,-1072(s0)
    1328:	bc043c23          	sd	zero,-1064(s0)
    132c:	be043023          	sd	zero,-1056(s0)
    1330:	be043423          	sd	zero,-1048(s0)
    1334:	be043823          	sd	zero,-1040(s0)
    1338:	be043c23          	sd	zero,-1032(s0)
    133c:	c0043023          	sd	zero,-1024(s0)
    1340:	c0043423          	sd	zero,-1016(s0)
    1344:	c0043823          	sd	zero,-1008(s0)
    1348:	c0043c23          	sd	zero,-1000(s0)
    134c:	c2043023          	sd	zero,-992(s0)
    1350:	c2043423          	sd	zero,-984(s0)
    1354:	c2043823          	sd	zero,-976(s0)
    1358:	c2043c23          	sd	zero,-968(s0)
    135c:	c4043023          	sd	zero,-960(s0)
    1360:	c4043423          	sd	zero,-952(s0)
    1364:	c4043823          	sd	zero,-944(s0)
    1368:	c4043c23          	sd	zero,-936(s0)
    136c:	c6043023          	sd	zero,-928(s0)
    1370:	c6043423          	sd	zero,-920(s0)
    1374:	c6043823          	sd	zero,-912(s0)
    1378:	c6043c23          	sd	zero,-904(s0)
    137c:	c8043023          	sd	zero,-896(s0)
    1380:	ca043023          	sd	zero,-864(s0)
    1384:	c8043c23          	sd	zero,-872(s0)
    1388:	c8043823          	sd	zero,-880(s0)
    138c:	c8043423          	sd	zero,-888(s0)
    1390:	ca043423          	sd	zero,-856(s0)
    1394:	ca043823          	sd	zero,-848(s0)
    1398:	ca043c23          	sd	zero,-840(s0)
    139c:	cc043023          	sd	zero,-832(s0)
    13a0:	cc043423          	sd	zero,-824(s0)
    13a4:	cc043823          	sd	zero,-816(s0)
    13a8:	cc043c23          	sd	zero,-808(s0)
    13ac:	ce043023          	sd	zero,-800(s0)
    13b0:	ce043423          	sd	zero,-792(s0)
    13b4:	ce043823          	sd	zero,-784(s0)
    13b8:	ce043c23          	sd	zero,-776(s0)
    13bc:	d0043023          	sd	zero,-768(s0)
    13c0:	d0043423          	sd	zero,-760(s0)
    13c4:	d0043823          	sd	zero,-752(s0)
    13c8:	d0043c23          	sd	zero,-744(s0)
    13cc:	d2043023          	sd	zero,-736(s0)
    13d0:	d2043423          	sd	zero,-728(s0)
    13d4:	d2043823          	sd	zero,-720(s0)
    13d8:	d2043c23          	sd	zero,-712(s0)
    13dc:	d4043023          	sd	zero,-704(s0)
    13e0:	d4043423          	sd	zero,-696(s0)
    13e4:	d4043823          	sd	zero,-688(s0)
    13e8:	d4043c23          	sd	zero,-680(s0)
    13ec:	d6043023          	sd	zero,-672(s0)
    13f0:	d6043423          	sd	zero,-664(s0)
    13f4:	d6043823          	sd	zero,-656(s0)
    13f8:	d6043c23          	sd	zero,-648(s0)
    13fc:	d8043023          	sd	zero,-640(s0)
    1400:	da043023          	sd	zero,-608(s0)
    1404:	d8043c23          	sd	zero,-616(s0)
    1408:	d8043823          	sd	zero,-624(s0)
    140c:	d8043423          	sd	zero,-632(s0)
    1410:	da043423          	sd	zero,-600(s0)
    1414:	da043823          	sd	zero,-592(s0)
    1418:	da043c23          	sd	zero,-584(s0)
    141c:	dc043023          	sd	zero,-576(s0)
    1420:	dc043423          	sd	zero,-568(s0)
    1424:	dc043823          	sd	zero,-560(s0)
    1428:	dc043c23          	sd	zero,-552(s0)
    142c:	00000093          	li	ra,0
    1430:	00000d93          	li	s11,0
    1434:	00000d13          	li	s10,0
    1438:	00000c93          	li	s9,0
    143c:	00000c13          	li	s8,0
    1440:	00000b93          	li	s7,0
    1444:	00000b13          	li	s6,0
    1448:	00000a93          	li	s5,0
    144c:	00000f13          	li	t5,0
    1450:	00000713          	li	a4,0
    1454:	00000693          	li	a3,0
    1458:	00000613          	li	a2,0
    145c:	00000593          	li	a1,0
    1460:	00000513          	li	a0,0
    1464:	00000e93          	li	t4,0
    1468:	00000e13          	li	t3,0
    146c:	00000393          	li	t2,0
    1470:	00000313          	li	t1,0
    1474:	00000813          	li	a6,0
    1478:	00000293          	li	t0,0
    147c:	00000893          	li	a7,0

0000000000001480 <.LBB87_5>:
    1480:	f8943423          	sd	s1,-120(s0)
    1484:	f7f43423          	sd	t6,-152(s0)
    1488:	00001937          	lui	s2,0x1
    148c:	41240933          	sub	s2,s0,s2
    1490:	68f93023          	sd	a5,1664(s2) # 1680 <.LBB87_5+0x200>
    1494:	de143023          	sd	ra,-544(s0)
    1498:	dfb43423          	sd	s11,-536(s0)
    149c:	dfa43823          	sd	s10,-528(s0)
    14a0:	df943c23          	sd	s9,-520(s0)
    14a4:	e1843023          	sd	s8,-512(s0)
    14a8:	e1743423          	sd	s7,-504(s0)
    14ac:	e1643823          	sd	s6,-496(s0)
    14b0:	e1543c23          	sd	s5,-488(s0)
    14b4:	f1e43023          	sd	t5,-256(s0)
    14b8:	f0e43423          	sd	a4,-248(s0)
    14bc:	f0d43823          	sd	a3,-240(s0)
    14c0:	f0c43c23          	sd	a2,-232(s0)
    14c4:	f2b43023          	sd	a1,-224(s0)
    14c8:	f2a43423          	sd	a0,-216(s0)
    14cc:	e3d43023          	sd	t4,-480(s0)
    14d0:	e3c43423          	sd	t3,-472(s0)
    14d4:	e2743823          	sd	t2,-464(s0)
    14d8:	e2643c23          	sd	t1,-456(s0)
    14dc:	e5043023          	sd	a6,-448(s0)
    14e0:	e4543423          	sd	t0,-440(s0)
    14e4:	e5143823          	sd	a7,-432(s0)
    14e8:	000f8503          	lb	a0,0(t6)
    14ec:	00248603          	lb	a2,2(s1)
    14f0:	f4c43823          	sd	a2,-176(s0)
    14f4:	00148683          	lb	a3,1(s1)
    14f8:	00048703          	lb	a4,0(s1)
    14fc:	00348783          	lb	a5,3(s1)
    1500:	00448c83          	lb	s9,4(s1)
    1504:	00548a83          	lb	s5,5(s1)
    1508:	f3543823          	sd	s5,-208(s0)
    150c:	00648b03          	lb	s6,6(s1)
    1510:	00748d83          	lb	s11,7(s1)
    1514:	edb43823          	sd	s11,-304(s0)
    1518:	00848083          	lb	ra,8(s1)
    151c:	e8143023          	sd	ra,-384(s0)
    1520:	00948883          	lb	a7,9(s1)
    1524:	f9143023          	sd	a7,-128(s0)
    1528:	00a48283          	lb	t0,10(s1)
    152c:	000015b7          	lui	a1,0x1
    1530:	40b405b3          	sub	a1,s0,a1
    1534:	6655bc23          	sd	t0,1656(a1) # 1678 <.LBB87_5+0x1f8>
    1538:	00b48e03          	lb	t3,11(s1)
    153c:	e7c43c23          	sd	t3,-392(s0)
    1540:	00c48303          	lb	t1,12(s1)
    1544:	00d48f03          	lb	t5,13(s1)
    1548:	00e48983          	lb	s3,14(s1)
    154c:	ed343423          	sd	s3,-312(s0)
    1550:	00f48903          	lb	s2,15(s1)
    1554:	01048f83          	lb	t6,16(s1)
    1558:	01148383          	lb	t2,17(s1)
    155c:	ec743c23          	sd	t2,-296(s0)
    1560:	01248e83          	lb	t4,18(s1)
    1564:	e9d43423          	sd	t4,-376(s0)
    1568:	01348a03          	lb	s4,19(s1)
    156c:	01448d03          	lb	s10,20(s1)
    1570:	efa43823          	sd	s10,-272(s0)
    1574:	f8843583          	ld	a1,-120(s0)
    1578:	01558583          	lb	a1,21(a1)
    157c:	f6b43c23          	sd	a1,-136(s0)
    1580:	f8843583          	ld	a1,-120(s0)
    1584:	01658483          	lb	s1,22(a1)
    1588:	f6943023          	sd	s1,-160(s0)
    158c:	f8843583          	ld	a1,-120(s0)
    1590:	01758b83          	lb	s7,23(a1)
    1594:	ef743423          	sd	s7,-280(s0)
    1598:	f8843583          	ld	a1,-120(s0)
    159c:	01858c03          	lb	s8,24(a1)
    15a0:	f5843c23          	sd	s8,-168(s0)
    15a4:	02c505b3          	mul	a1,a0,a2
    15a8:	00001637          	lui	a2,0x1
    15ac:	40c40633          	sub	a2,s0,a2
    15b0:	6a863603          	ld	a2,1704(a2) # 16a8 <.LBB87_5+0x228>
    15b4:	00c58633          	add	a2,a1,a2
    15b8:	000015b7          	lui	a1,0x1
    15bc:	40b405b3          	sub	a1,s0,a1
    15c0:	6ac5b423          	sd	a2,1704(a1) # 16a8 <.LBB87_5+0x228>
    15c4:	02d505b3          	mul	a1,a0,a3
    15c8:	00001637          	lui	a2,0x1
    15cc:	40c40633          	sub	a2,s0,a2
    15d0:	6c063603          	ld	a2,1728(a2) # 16c0 <.LBB87_5+0x240>
    15d4:	00c58633          	add	a2,a1,a2
    15d8:	000015b7          	lui	a1,0x1
    15dc:	40b405b3          	sub	a1,s0,a1
    15e0:	6cc5b023          	sd	a2,1728(a1) # 16c0 <.LBB87_5+0x240>
    15e4:	02e505b3          	mul	a1,a0,a4
    15e8:	00001637          	lui	a2,0x1
    15ec:	40c40633          	sub	a2,s0,a2
    15f0:	6c863603          	ld	a2,1736(a2) # 16c8 <.LBB87_5+0x248>
    15f4:	00c58633          	add	a2,a1,a2
    15f8:	000015b7          	lui	a1,0x1
    15fc:	40b405b3          	sub	a1,s0,a1
    1600:	6cc5b423          	sd	a2,1736(a1) # 16c8 <.LBB87_5+0x248>
    1604:	02f505b3          	mul	a1,a0,a5
    1608:	f4f43423          	sd	a5,-184(s0)
    160c:	00001637          	lui	a2,0x1
    1610:	40c40633          	sub	a2,s0,a2
    1614:	6b063603          	ld	a2,1712(a2) # 16b0 <.LBB87_5+0x230>
    1618:	00c58633          	add	a2,a1,a2
    161c:	000015b7          	lui	a1,0x1
    1620:	40b405b3          	sub	a1,s0,a1
    1624:	6ac5b823          	sd	a2,1712(a1) # 16b0 <.LBB87_5+0x230>
    1628:	039505b3          	mul	a1,a0,s9
    162c:	f5943023          	sd	s9,-192(s0)
    1630:	00001637          	lui	a2,0x1
    1634:	40c40633          	sub	a2,s0,a2
    1638:	6b863603          	ld	a2,1720(a2) # 16b8 <.LBB87_5+0x238>
    163c:	00c58633          	add	a2,a1,a2
    1640:	000015b7          	lui	a1,0x1
    1644:	40b405b3          	sub	a1,s0,a1
    1648:	6ac5bc23          	sd	a2,1720(a1) # 16b8 <.LBB87_5+0x238>
    164c:	035505b3          	mul	a1,a0,s5
    1650:	00001637          	lui	a2,0x1
    1654:	40c40633          	sub	a2,s0,a2
    1658:	6a063603          	ld	a2,1696(a2) # 16a0 <.LBB87_5+0x220>
    165c:	00c58633          	add	a2,a1,a2
    1660:	000015b7          	lui	a1,0x1
    1664:	40b405b3          	sub	a1,s0,a1
    1668:	6ac5b023          	sd	a2,1696(a1) # 16a0 <.LBB87_5+0x220>
    166c:	036505b3          	mul	a1,a0,s6
    1670:	000b0a93          	mv	s5,s6
    1674:	00001637          	lui	a2,0x1
    1678:	40c40633          	sub	a2,s0,a2
    167c:	69863603          	ld	a2,1688(a2) # 1698 <.LBB87_5+0x218>
    1680:	00c58633          	add	a2,a1,a2
    1684:	000015b7          	lui	a1,0x1
    1688:	40b405b3          	sub	a1,s0,a1
    168c:	68c5bc23          	sd	a2,1688(a1) # 1698 <.LBB87_5+0x218>
    1690:	03b505b3          	mul	a1,a0,s11
    1694:	00001637          	lui	a2,0x1
    1698:	40c40633          	sub	a2,s0,a2
    169c:	69063603          	ld	a2,1680(a2) # 1690 <.LBB87_5+0x210>
    16a0:	00c58633          	add	a2,a1,a2
    16a4:	000015b7          	lui	a1,0x1
    16a8:	40b405b3          	sub	a1,s0,a1
    16ac:	68c5b823          	sd	a2,1680(a1) # 1690 <.LBB87_5+0x210>
    16b0:	021505b3          	mul	a1,a0,ra
    16b4:	00001637          	lui	a2,0x1
    16b8:	40c40633          	sub	a2,s0,a2
    16bc:	68863603          	ld	a2,1672(a2) # 1688 <.LBB87_5+0x208>
    16c0:	00c58633          	add	a2,a1,a2
    16c4:	000015b7          	lui	a1,0x1
    16c8:	40b405b3          	sub	a1,s0,a1
    16cc:	68c5b423          	sd	a2,1672(a1) # 1688 <.LBB87_5+0x208>
    16d0:	031505b3          	mul	a1,a0,a7
    16d4:	00001637          	lui	a2,0x1
    16d8:	40c40633          	sub	a2,s0,a2
    16dc:	6d063603          	ld	a2,1744(a2) # 16d0 <.LBB87_5+0x250>
    16e0:	00c58633          	add	a2,a1,a2
    16e4:	000015b7          	lui	a1,0x1
    16e8:	40b405b3          	sub	a1,s0,a1
    16ec:	6cc5b823          	sd	a2,1744(a1) # 16d0 <.LBB87_5+0x250>
    16f0:	025505b3          	mul	a1,a0,t0
    16f4:	00001637          	lui	a2,0x1
    16f8:	40c40633          	sub	a2,s0,a2
    16fc:	6d863603          	ld	a2,1752(a2) # 16d8 <.LBB87_5+0x258>
    1700:	00c58633          	add	a2,a1,a2
    1704:	000015b7          	lui	a1,0x1
    1708:	40b405b3          	sub	a1,s0,a1
    170c:	6cc5bc23          	sd	a2,1752(a1) # 16d8 <.LBB87_5+0x258>
    1710:	03c505b3          	mul	a1,a0,t3
    1714:	00001637          	lui	a2,0x1
    1718:	40c40633          	sub	a2,s0,a2
    171c:	6e063603          	ld	a2,1760(a2) # 16e0 <.LBB87_5+0x260>
    1720:	00c58633          	add	a2,a1,a2
    1724:	000015b7          	lui	a1,0x1
    1728:	40b405b3          	sub	a1,s0,a1
    172c:	6ec5b023          	sd	a2,1760(a1) # 16e0 <.LBB87_5+0x260>
    1730:	026505b3          	mul	a1,a0,t1
    1734:	00030093          	mv	ra,t1
    1738:	ea643423          	sd	t1,-344(s0)
    173c:	00001637          	lui	a2,0x1
    1740:	40c40633          	sub	a2,s0,a2
    1744:	6e863603          	ld	a2,1768(a2) # 16e8 <.LBB87_5+0x268>
    1748:	00c58633          	add	a2,a1,a2
    174c:	000015b7          	lui	a1,0x1
    1750:	40b405b3          	sub	a1,s0,a1
    1754:	6ec5b423          	sd	a2,1768(a1) # 16e8 <.LBB87_5+0x268>
    1758:	03e505b3          	mul	a1,a0,t5
    175c:	00001637          	lui	a2,0x1
    1760:	40c40633          	sub	a2,s0,a2
    1764:	6f063603          	ld	a2,1776(a2) # 16f0 <.LBB87_5+0x270>
    1768:	00c58633          	add	a2,a1,a2
    176c:	000015b7          	lui	a1,0x1
    1770:	40b405b3          	sub	a1,s0,a1
    1774:	6ec5b823          	sd	a2,1776(a1) # 16f0 <.LBB87_5+0x270>
    1778:	033505b3          	mul	a1,a0,s3
    177c:	00001637          	lui	a2,0x1
    1780:	40c40633          	sub	a2,s0,a2
    1784:	6f863603          	ld	a2,1784(a2) # 16f8 <.LBB87_5+0x278>
    1788:	00c58633          	add	a2,a1,a2
    178c:	000015b7          	lui	a1,0x1
    1790:	40b405b3          	sub	a1,s0,a1
    1794:	6ec5bc23          	sd	a2,1784(a1) # 16f8 <.LBB87_5+0x278>
    1798:	032505b3          	mul	a1,a0,s2
    179c:	00090e13          	mv	t3,s2
    17a0:	e7243823          	sd	s2,-400(s0)
    17a4:	00001637          	lui	a2,0x1
    17a8:	40c40633          	sub	a2,s0,a2
    17ac:	70063603          	ld	a2,1792(a2) # 1700 <.LBB87_5+0x280>
    17b0:	00c58633          	add	a2,a1,a2
    17b4:	000015b7          	lui	a1,0x1
    17b8:	40b405b3          	sub	a1,s0,a1
    17bc:	70c5b023          	sd	a2,1792(a1) # 1700 <.LBB87_5+0x280>
    17c0:	000f8293          	mv	t0,t6
    17c4:	03f505b3          	mul	a1,a0,t6
    17c8:	00001637          	lui	a2,0x1
    17cc:	40c40633          	sub	a2,s0,a2
    17d0:	70863603          	ld	a2,1800(a2) # 1708 <.LBB87_5+0x288>
    17d4:	00c58633          	add	a2,a1,a2
    17d8:	000015b7          	lui	a1,0x1
    17dc:	40b405b3          	sub	a1,s0,a1
    17e0:	70c5b423          	sd	a2,1800(a1) # 1708 <.LBB87_5+0x288>
    17e4:	027505b3          	mul	a1,a0,t2
    17e8:	00001637          	lui	a2,0x1
    17ec:	40c40633          	sub	a2,s0,a2
    17f0:	71063603          	ld	a2,1808(a2) # 1710 <.LBB87_5+0x290>
    17f4:	00c58633          	add	a2,a1,a2
    17f8:	000015b7          	lui	a1,0x1
    17fc:	40b405b3          	sub	a1,s0,a1
    1800:	70c5b823          	sd	a2,1808(a1) # 1710 <.LBB87_5+0x290>
    1804:	03d505b3          	mul	a1,a0,t4
    1808:	00001637          	lui	a2,0x1
    180c:	40c40633          	sub	a2,s0,a2
    1810:	71863603          	ld	a2,1816(a2) # 1718 <.LBB87_5+0x298>
    1814:	00c58633          	add	a2,a1,a2
    1818:	000015b7          	lui	a1,0x1
    181c:	40b405b3          	sub	a1,s0,a1
    1820:	70c5bc23          	sd	a2,1816(a1) # 1718 <.LBB87_5+0x298>
    1824:	000a0f93          	mv	t6,s4
    1828:	e7443423          	sd	s4,-408(s0)
    182c:	034505b3          	mul	a1,a0,s4
    1830:	00001637          	lui	a2,0x1
    1834:	40c40633          	sub	a2,s0,a2
    1838:	72063603          	ld	a2,1824(a2) # 1720 <.LBB87_5+0x2a0>
    183c:	00c58633          	add	a2,a1,a2
    1840:	000015b7          	lui	a1,0x1
    1844:	40b405b3          	sub	a1,s0,a1
    1848:	72c5b023          	sd	a2,1824(a1) # 1720 <.LBB87_5+0x2a0>
    184c:	03a505b3          	mul	a1,a0,s10
    1850:	00001637          	lui	a2,0x1
    1854:	40c40633          	sub	a2,s0,a2
    1858:	72863603          	ld	a2,1832(a2) # 1728 <.LBB87_5+0x2a8>
    185c:	00c58633          	add	a2,a1,a2
    1860:	000015b7          	lui	a1,0x1
    1864:	40b405b3          	sub	a1,s0,a1
    1868:	72c5b423          	sd	a2,1832(a1) # 1728 <.LBB87_5+0x2a8>
    186c:	f7843a03          	ld	s4,-136(s0)
    1870:	034505b3          	mul	a1,a0,s4
    1874:	00001637          	lui	a2,0x1
    1878:	40c40633          	sub	a2,s0,a2
    187c:	73063603          	ld	a2,1840(a2) # 1730 <.LBB87_5+0x2b0>
    1880:	00c58633          	add	a2,a1,a2
    1884:	000015b7          	lui	a1,0x1
    1888:	40b405b3          	sub	a1,s0,a1
    188c:	72c5b823          	sd	a2,1840(a1) # 1730 <.LBB87_5+0x2b0>
    1890:	029505b3          	mul	a1,a0,s1
    1894:	00001637          	lui	a2,0x1
    1898:	40c40633          	sub	a2,s0,a2
    189c:	73863603          	ld	a2,1848(a2) # 1738 <.LBB87_5+0x2b8>
    18a0:	00c58633          	add	a2,a1,a2
    18a4:	000015b7          	lui	a1,0x1
    18a8:	40b405b3          	sub	a1,s0,a1
    18ac:	72c5bc23          	sd	a2,1848(a1) # 1738 <.LBB87_5+0x2b8>
    18b0:	037505b3          	mul	a1,a0,s7
    18b4:	00001637          	lui	a2,0x1
    18b8:	40c40633          	sub	a2,s0,a2
    18bc:	74063603          	ld	a2,1856(a2) # 1740 <.LBB87_5+0x2c0>
    18c0:	00c58633          	add	a2,a1,a2
    18c4:	000015b7          	lui	a1,0x1
    18c8:	40b405b3          	sub	a1,s0,a1
    18cc:	74c5b023          	sd	a2,1856(a1) # 1740 <.LBB87_5+0x2c0>
    18d0:	f8843583          	ld	a1,-120(s0)
    18d4:	01958303          	lb	t1,25(a1)
    18d8:	038505b3          	mul	a1,a0,s8
    18dc:	00001637          	lui	a2,0x1
    18e0:	40c40633          	sub	a2,s0,a2
    18e4:	74863603          	ld	a2,1864(a2) # 1748 <.LBB87_5+0x2c8>
    18e8:	00c58633          	add	a2,a1,a2
    18ec:	000015b7          	lui	a1,0x1
    18f0:	40b405b3          	sub	a1,s0,a1
    18f4:	74c5b423          	sd	a2,1864(a1) # 1748 <.LBB87_5+0x2c8>
    18f8:	f8843583          	ld	a1,-120(s0)
    18fc:	01a58383          	lb	t2,26(a1)
    1900:	026505b3          	mul	a1,a0,t1
    1904:	ea643823          	sd	t1,-336(s0)
    1908:	00001637          	lui	a2,0x1
    190c:	40c40633          	sub	a2,s0,a2
    1910:	75063603          	ld	a2,1872(a2) # 1750 <.LBB87_5+0x2d0>
    1914:	00c58633          	add	a2,a1,a2
    1918:	000015b7          	lui	a1,0x1
    191c:	40b405b3          	sub	a1,s0,a1
    1920:	74c5b823          	sd	a2,1872(a1) # 1750 <.LBB87_5+0x2d0>
    1924:	f8843583          	ld	a1,-120(s0)
    1928:	01b58483          	lb	s1,27(a1)
    192c:	027505b3          	mul	a1,a0,t2
    1930:	ea743c23          	sd	t2,-328(s0)
    1934:	00001637          	lui	a2,0x1
    1938:	40c40633          	sub	a2,s0,a2
    193c:	75863603          	ld	a2,1880(a2) # 1758 <.LBB87_5+0x2d8>
    1940:	00c58633          	add	a2,a1,a2
    1944:	000015b7          	lui	a1,0x1
    1948:	40b405b3          	sub	a1,s0,a1
    194c:	74c5bc23          	sd	a2,1880(a1) # 1758 <.LBB87_5+0x2d8>
    1950:	f8843583          	ld	a1,-120(s0)
    1954:	01c58803          	lb	a6,28(a1)
    1958:	029505b3          	mul	a1,a0,s1
    195c:	ec943023          	sd	s1,-320(s0)
    1960:	00001637          	lui	a2,0x1
    1964:	40c40633          	sub	a2,s0,a2
    1968:	76063603          	ld	a2,1888(a2) # 1760 <.LBB87_5+0x2e0>
    196c:	00c58633          	add	a2,a1,a2
    1970:	000015b7          	lui	a1,0x1
    1974:	40b405b3          	sub	a1,s0,a1
    1978:	76c5b023          	sd	a2,1888(a1) # 1760 <.LBB87_5+0x2e0>
    197c:	f8843583          	ld	a1,-120(s0)
    1980:	01d58883          	lb	a7,29(a1)
    1984:	e9143823          	sd	a7,-368(s0)
    1988:	030505b3          	mul	a1,a0,a6
    198c:	e7043023          	sd	a6,-416(s0)
    1990:	00001637          	lui	a2,0x1
    1994:	40c40633          	sub	a2,s0,a2
    1998:	76863603          	ld	a2,1896(a2) # 1768 <.LBB87_5+0x2e8>
    199c:	00c58633          	add	a2,a1,a2
    19a0:	000015b7          	lui	a1,0x1
    19a4:	40b405b3          	sub	a1,s0,a1
    19a8:	76c5b423          	sd	a2,1896(a1) # 1768 <.LBB87_5+0x2e8>
    19ac:	f8843583          	ld	a1,-120(s0)
    19b0:	01e58d03          	lb	s10,30(a1)
    19b4:	031505b3          	mul	a1,a0,a7
    19b8:	00001637          	lui	a2,0x1
    19bc:	40c40633          	sub	a2,s0,a2
    19c0:	77063603          	ld	a2,1904(a2) # 1770 <.LBB87_5+0x2f0>
    19c4:	00c58633          	add	a2,a1,a2
    19c8:	000015b7          	lui	a1,0x1
    19cc:	40b405b3          	sub	a1,s0,a1
    19d0:	76c5b823          	sd	a2,1904(a1) # 1770 <.LBB87_5+0x2f0>
    19d4:	f8843583          	ld	a1,-120(s0)
    19d8:	01f58583          	lb	a1,31(a1)
    19dc:	f2b43c23          	sd	a1,-200(s0)
    19e0:	f6843603          	ld	a2,-152(s0)
    19e4:	24060b03          	lb	s6,576(a2)
    19e8:	03a50db3          	mul	s11,a0,s10
    19ec:	00001637          	lui	a2,0x1
    19f0:	40c40633          	sub	a2,s0,a2
    19f4:	77863603          	ld	a2,1912(a2) # 1778 <.LBB87_5+0x2f8>
    19f8:	00cd8633          	add	a2,s11,a2
    19fc:	000018b7          	lui	a7,0x1
    1a00:	411408b3          	sub	a7,s0,a7
    1a04:	76c8bc23          	sd	a2,1912(a7) # 1778 <.LBB87_5+0x2f8>
    1a08:	02b50533          	mul	a0,a0,a1
    1a0c:	000015b7          	lui	a1,0x1
    1a10:	40b405b3          	sub	a1,s0,a1
    1a14:	7805b603          	ld	a2,1920(a1) # 1780 <.LBB87_5+0x300>
    1a18:	00c50633          	add	a2,a0,a2
    1a1c:	00001537          	lui	a0,0x1
    1a20:	40a40533          	sub	a0,s0,a0
    1a24:	78c53023          	sd	a2,1920(a0) # 1780 <.LBB87_5+0x300>
    1a28:	eee43023          	sd	a4,-288(s0)
    1a2c:	02eb0533          	mul	a0,s6,a4
    1a30:	000015b7          	lui	a1,0x1
    1a34:	40b405b3          	sub	a1,s0,a1
    1a38:	7a05b603          	ld	a2,1952(a1) # 17a0 <.LBB87_5+0x320>
    1a3c:	00c50633          	add	a2,a0,a2
    1a40:	00001537          	lui	a0,0x1
    1a44:	40a40533          	sub	a0,s0,a0
    1a48:	7ac53023          	sd	a2,1952(a0) # 17a0 <.LBB87_5+0x320>
    1a4c:	e8d43c23          	sd	a3,-360(s0)
    1a50:	02db0533          	mul	a0,s6,a3
    1a54:	000015b7          	lui	a1,0x1
    1a58:	40b405b3          	sub	a1,s0,a1
    1a5c:	7985b603          	ld	a2,1944(a1) # 1798 <.LBB87_5+0x318>
    1a60:	00c50633          	add	a2,a0,a2
    1a64:	00001537          	lui	a0,0x1
    1a68:	40a40533          	sub	a0,s0,a0
    1a6c:	78c53c23          	sd	a2,1944(a0) # 1798 <.LBB87_5+0x318>
    1a70:	f5043883          	ld	a7,-176(s0)
    1a74:	031b0533          	mul	a0,s6,a7
    1a78:	000015b7          	lui	a1,0x1
    1a7c:	40b405b3          	sub	a1,s0,a1
    1a80:	7905b603          	ld	a2,1936(a1) # 1790 <.LBB87_5+0x310>
    1a84:	00c50633          	add	a2,a0,a2
    1a88:	00001537          	lui	a0,0x1
    1a8c:	40a40533          	sub	a0,s0,a0
    1a90:	78c53823          	sd	a2,1936(a0) # 1790 <.LBB87_5+0x310>
    1a94:	02fb0533          	mul	a0,s6,a5
    1a98:	000015b7          	lui	a1,0x1
    1a9c:	40b405b3          	sub	a1,s0,a1
    1aa0:	7885b603          	ld	a2,1928(a1) # 1788 <.LBB87_5+0x308>
    1aa4:	00c50633          	add	a2,a0,a2
    1aa8:	00001537          	lui	a0,0x1
    1aac:	40a40533          	sub	a0,s0,a0
    1ab0:	78c53423          	sd	a2,1928(a0) # 1788 <.LBB87_5+0x308>
    1ab4:	039b0533          	mul	a0,s6,s9
    1ab8:	000015b7          	lui	a1,0x1
    1abc:	40b405b3          	sub	a1,s0,a1
    1ac0:	7a85b603          	ld	a2,1960(a1) # 17a8 <.LBB87_5+0x328>
    1ac4:	00c50633          	add	a2,a0,a2
    1ac8:	00001537          	lui	a0,0x1
    1acc:	40a40533          	sub	a0,s0,a0
    1ad0:	7ac53423          	sd	a2,1960(a0) # 17a8 <.LBB87_5+0x328>
    1ad4:	f3043783          	ld	a5,-208(s0)
    1ad8:	02fb0533          	mul	a0,s6,a5
    1adc:	000015b7          	lui	a1,0x1
    1ae0:	40b405b3          	sub	a1,s0,a1
    1ae4:	7b05b603          	ld	a2,1968(a1) # 17b0 <.LBB87_5+0x330>
    1ae8:	00c50633          	add	a2,a0,a2
    1aec:	00001537          	lui	a0,0x1
    1af0:	40a40533          	sub	a0,s0,a0
    1af4:	7ac53823          	sd	a2,1968(a0) # 17b0 <.LBB87_5+0x330>
    1af8:	000a8993          	mv	s3,s5
    1afc:	eb543023          	sd	s5,-352(s0)
    1b00:	035b0533          	mul	a0,s6,s5
    1b04:	000015b7          	lui	a1,0x1
    1b08:	40b405b3          	sub	a1,s0,a1
    1b0c:	7b85b603          	ld	a2,1976(a1) # 17b8 <.LBB87_5+0x338>
    1b10:	00c50633          	add	a2,a0,a2
    1b14:	00001537          	lui	a0,0x1
    1b18:	40a40533          	sub	a0,s0,a0
    1b1c:	7ac53c23          	sd	a2,1976(a0) # 17b8 <.LBB87_5+0x338>
    1b20:	ed043c83          	ld	s9,-304(s0)
    1b24:	039b0533          	mul	a0,s6,s9
    1b28:	000015b7          	lui	a1,0x1
    1b2c:	40b405b3          	sub	a1,s0,a1
    1b30:	7c05b603          	ld	a2,1984(a1) # 17c0 <.LBB87_5+0x340>
    1b34:	00c50633          	add	a2,a0,a2
    1b38:	00001537          	lui	a0,0x1
    1b3c:	40a40533          	sub	a0,s0,a0
    1b40:	7cc53023          	sd	a2,1984(a0) # 17c0 <.LBB87_5+0x340>
    1b44:	e8043a83          	ld	s5,-384(s0)
    1b48:	035b0533          	mul	a0,s6,s5
    1b4c:	000015b7          	lui	a1,0x1
    1b50:	40b405b3          	sub	a1,s0,a1
    1b54:	7c85b603          	ld	a2,1992(a1) # 17c8 <.LBB87_5+0x348>
    1b58:	00c50633          	add	a2,a0,a2
    1b5c:	00001537          	lui	a0,0x1
    1b60:	40a40533          	sub	a0,s0,a0
    1b64:	7cc53423          	sd	a2,1992(a0) # 17c8 <.LBB87_5+0x348>
    1b68:	f8043503          	ld	a0,-128(s0)
    1b6c:	02ab0533          	mul	a0,s6,a0
    1b70:	000015b7          	lui	a1,0x1
    1b74:	40b405b3          	sub	a1,s0,a1
    1b78:	7d05b603          	ld	a2,2000(a1) # 17d0 <.LBB87_5+0x350>
    1b7c:	00c50633          	add	a2,a0,a2
    1b80:	00001537          	lui	a0,0x1
    1b84:	40a40533          	sub	a0,s0,a0
    1b88:	7cc53823          	sd	a2,2000(a0) # 17d0 <.LBB87_5+0x350>
    1b8c:	00001537          	lui	a0,0x1
    1b90:	40a40533          	sub	a0,s0,a0
    1b94:	67853c03          	ld	s8,1656(a0) # 1678 <.LBB87_5+0x1f8>
    1b98:	038b0533          	mul	a0,s6,s8
    1b9c:	000015b7          	lui	a1,0x1
    1ba0:	40b405b3          	sub	a1,s0,a1
    1ba4:	7d85b603          	ld	a2,2008(a1) # 17d8 <.LBB87_5+0x358>
    1ba8:	00c50633          	add	a2,a0,a2
    1bac:	00001537          	lui	a0,0x1
    1bb0:	40a40533          	sub	a0,s0,a0
    1bb4:	7cc53c23          	sd	a2,2008(a0) # 17d8 <.LBB87_5+0x358>
    1bb8:	e7843b83          	ld	s7,-392(s0)
    1bbc:	037b0533          	mul	a0,s6,s7
    1bc0:	000015b7          	lui	a1,0x1
    1bc4:	40b405b3          	sub	a1,s0,a1
    1bc8:	7e05b603          	ld	a2,2016(a1) # 17e0 <.LBB87_5+0x360>
    1bcc:	00c50633          	add	a2,a0,a2
    1bd0:	00001537          	lui	a0,0x1
    1bd4:	40a40533          	sub	a0,s0,a0
    1bd8:	7ec53023          	sd	a2,2016(a0) # 17e0 <.LBB87_5+0x360>
    1bdc:	021b0533          	mul	a0,s6,ra
    1be0:	000015b7          	lui	a1,0x1
    1be4:	40b405b3          	sub	a1,s0,a1
    1be8:	7e85b603          	ld	a2,2024(a1) # 17e8 <.LBB87_5+0x368>
    1bec:	00c50633          	add	a2,a0,a2
    1bf0:	00001537          	lui	a0,0x1
    1bf4:	40a40533          	sub	a0,s0,a0
    1bf8:	7ec53423          	sd	a2,2024(a0) # 17e8 <.LBB87_5+0x368>
    1bfc:	03eb0533          	mul	a0,s6,t5
    1c00:	000f0913          	mv	s2,t5
    1c04:	000015b7          	lui	a1,0x1
    1c08:	40b405b3          	sub	a1,s0,a1
    1c0c:	7f05b603          	ld	a2,2032(a1) # 17f0 <.LBB87_5+0x370>
    1c10:	00c50633          	add	a2,a0,a2
    1c14:	00001537          	lui	a0,0x1
    1c18:	40a40533          	sub	a0,s0,a0
    1c1c:	7ec53823          	sd	a2,2032(a0) # 17f0 <.LBB87_5+0x370>
    1c20:	ec843e83          	ld	t4,-312(s0)
    1c24:	03db0533          	mul	a0,s6,t4
    1c28:	000015b7          	lui	a1,0x1
    1c2c:	40b405b3          	sub	a1,s0,a1
    1c30:	7f85b603          	ld	a2,2040(a1) # 17f8 <.LBB87_5+0x378>
    1c34:	00c50633          	add	a2,a0,a2
    1c38:	00001537          	lui	a0,0x1
    1c3c:	40a40533          	sub	a0,s0,a0
    1c40:	7ec53c23          	sd	a2,2040(a0) # 17f8 <.LBB87_5+0x378>
    1c44:	03cb0533          	mul	a0,s6,t3
    1c48:	80043603          	ld	a2,-2048(s0)
    1c4c:	00c50633          	add	a2,a0,a2
    1c50:	80c43023          	sd	a2,-2048(s0)
    1c54:	025b0533          	mul	a0,s6,t0
    1c58:	00028f13          	mv	t5,t0
    1c5c:	ee543c23          	sd	t0,-264(s0)
    1c60:	80843603          	ld	a2,-2040(s0)
    1c64:	00c50633          	add	a2,a0,a2
    1c68:	80c43423          	sd	a2,-2040(s0)
    1c6c:	ed843583          	ld	a1,-296(s0)
    1c70:	02bb0533          	mul	a0,s6,a1
    1c74:	81043603          	ld	a2,-2032(s0)
    1c78:	00c50633          	add	a2,a0,a2
    1c7c:	80c43823          	sd	a2,-2032(s0)
    1c80:	e8843283          	ld	t0,-376(s0)
    1c84:	025b0533          	mul	a0,s6,t0
    1c88:	81843603          	ld	a2,-2024(s0)
    1c8c:	00c50633          	add	a2,a0,a2
    1c90:	80c43c23          	sd	a2,-2024(s0)
    1c94:	03fb0533          	mul	a0,s6,t6
    1c98:	82043603          	ld	a2,-2016(s0)
    1c9c:	00c50633          	add	a2,a0,a2
    1ca0:	82c43023          	sd	a2,-2016(s0)
    1ca4:	ef043f83          	ld	t6,-272(s0)
    1ca8:	03fb0533          	mul	a0,s6,t6
    1cac:	82843603          	ld	a2,-2008(s0)
    1cb0:	00c50633          	add	a2,a0,a2
    1cb4:	82c43423          	sd	a2,-2008(s0)
    1cb8:	034b0533          	mul	a0,s6,s4
    1cbc:	83043603          	ld	a2,-2000(s0)
    1cc0:	00c50633          	add	a2,a0,a2
    1cc4:	82c43823          	sd	a2,-2000(s0)
    1cc8:	f6043503          	ld	a0,-160(s0)
    1ccc:	02ab0533          	mul	a0,s6,a0
    1cd0:	83843603          	ld	a2,-1992(s0)
    1cd4:	00c50633          	add	a2,a0,a2
    1cd8:	82c43c23          	sd	a2,-1992(s0)
    1cdc:	ee843a03          	ld	s4,-280(s0)
    1ce0:	034b0533          	mul	a0,s6,s4
    1ce4:	84043603          	ld	a2,-1984(s0)
    1ce8:	00c50633          	add	a2,a0,a2
    1cec:	84c43023          	sd	a2,-1984(s0)
    1cf0:	f5843503          	ld	a0,-168(s0)
    1cf4:	02ab0533          	mul	a0,s6,a0
    1cf8:	84843603          	ld	a2,-1976(s0)
    1cfc:	00c50633          	add	a2,a0,a2
    1d00:	84c43423          	sd	a2,-1976(s0)
    1d04:	026b0533          	mul	a0,s6,t1
    1d08:	85043603          	ld	a2,-1968(s0)
    1d0c:	00c50633          	add	a2,a0,a2
    1d10:	84c43823          	sd	a2,-1968(s0)
    1d14:	027b0533          	mul	a0,s6,t2
    1d18:	85843603          	ld	a2,-1960(s0)
    1d1c:	00c50633          	add	a2,a0,a2
    1d20:	84c43c23          	sd	a2,-1960(s0)
    1d24:	029b0533          	mul	a0,s6,s1
    1d28:	86043603          	ld	a2,-1952(s0)
    1d2c:	00c50633          	add	a2,a0,a2
    1d30:	86c43023          	sd	a2,-1952(s0)
    1d34:	030b0533          	mul	a0,s6,a6
    1d38:	86843603          	ld	a2,-1944(s0)
    1d3c:	00c50633          	add	a2,a0,a2
    1d40:	86c43423          	sd	a2,-1944(s0)
    1d44:	e9043083          	ld	ra,-368(s0)
    1d48:	021b0533          	mul	a0,s6,ra
    1d4c:	87043603          	ld	a2,-1936(s0)
    1d50:	00c50633          	add	a2,a0,a2
    1d54:	86c43823          	sd	a2,-1936(s0)
    1d58:	f6843503          	ld	a0,-152(s0)
    1d5c:	48050503          	lb	a0,1152(a0)
    1d60:	03ab0db3          	mul	s11,s6,s10
    1d64:	87843603          	ld	a2,-1928(s0)
    1d68:	00cd8633          	add	a2,s11,a2
    1d6c:	86c43c23          	sd	a2,-1928(s0)
    1d70:	f3843803          	ld	a6,-200(s0)
    1d74:	030b0b33          	mul	s6,s6,a6
    1d78:	88043603          	ld	a2,-1920(s0)
    1d7c:	00cb0633          	add	a2,s6,a2
    1d80:	88c43023          	sd	a2,-1920(s0)
    1d84:	02e50b33          	mul	s6,a0,a4
    1d88:	8a043603          	ld	a2,-1888(s0)
    1d8c:	00cb0633          	add	a2,s6,a2
    1d90:	8ac43023          	sd	a2,-1888(s0)
    1d94:	02d50b33          	mul	s6,a0,a3
    1d98:	89843603          	ld	a2,-1896(s0)
    1d9c:	00cb0633          	add	a2,s6,a2
    1da0:	88c43c23          	sd	a2,-1896(s0)
    1da4:	03150b33          	mul	s6,a0,a7
    1da8:	00088693          	mv	a3,a7
    1dac:	89043603          	ld	a2,-1904(s0)
    1db0:	00cb0633          	add	a2,s6,a2
    1db4:	88c43823          	sd	a2,-1904(s0)
    1db8:	f4843303          	ld	t1,-184(s0)
    1dbc:	02650b33          	mul	s6,a0,t1
    1dc0:	88843603          	ld	a2,-1912(s0)
    1dc4:	00cb0633          	add	a2,s6,a2
    1dc8:	88c43423          	sd	a2,-1912(s0)
    1dcc:	f4043e03          	ld	t3,-192(s0)
    1dd0:	03c50b33          	mul	s6,a0,t3
    1dd4:	8a843603          	ld	a2,-1880(s0)
    1dd8:	00cb0633          	add	a2,s6,a2
    1ddc:	8ac43423          	sd	a2,-1880(s0)
    1de0:	02f50b33          	mul	s6,a0,a5
    1de4:	8b043603          	ld	a2,-1872(s0)
    1de8:	00cb0633          	add	a2,s6,a2
    1dec:	8ac43823          	sd	a2,-1872(s0)
    1df0:	03350b33          	mul	s6,a0,s3
    1df4:	8b843603          	ld	a2,-1864(s0)
    1df8:	00cb0633          	add	a2,s6,a2
    1dfc:	8ac43c23          	sd	a2,-1864(s0)
    1e00:	000c8713          	mv	a4,s9
    1e04:	03950b33          	mul	s6,a0,s9
    1e08:	8c043603          	ld	a2,-1856(s0)
    1e0c:	00cb0633          	add	a2,s6,a2
    1e10:	8cc43023          	sd	a2,-1856(s0)
    1e14:	03550b33          	mul	s6,a0,s5
    1e18:	8c843603          	ld	a2,-1848(s0)
    1e1c:	00cb0633          	add	a2,s6,a2
    1e20:	8cc43423          	sd	a2,-1848(s0)
    1e24:	f8043c83          	ld	s9,-128(s0)
    1e28:	03950b33          	mul	s6,a0,s9
    1e2c:	8d043603          	ld	a2,-1840(s0)
    1e30:	00cb0633          	add	a2,s6,a2
    1e34:	8cc43823          	sd	a2,-1840(s0)
    1e38:	03850b33          	mul	s6,a0,s8
    1e3c:	8d843603          	ld	a2,-1832(s0)
    1e40:	00cb0633          	add	a2,s6,a2
    1e44:	8cc43c23          	sd	a2,-1832(s0)
    1e48:	03750b33          	mul	s6,a0,s7
    1e4c:	8e043603          	ld	a2,-1824(s0)
    1e50:	00cb0633          	add	a2,s6,a2
    1e54:	8ec43023          	sd	a2,-1824(s0)
    1e58:	ea843883          	ld	a7,-344(s0)
    1e5c:	03150b33          	mul	s6,a0,a7
    1e60:	8e843603          	ld	a2,-1816(s0)
    1e64:	00cb0633          	add	a2,s6,a2
    1e68:	8ec43423          	sd	a2,-1816(s0)
    1e6c:	03250b33          	mul	s6,a0,s2
    1e70:	8f043603          	ld	a2,-1808(s0)
    1e74:	00cb0633          	add	a2,s6,a2
    1e78:	8ec43823          	sd	a2,-1808(s0)
    1e7c:	000e8793          	mv	a5,t4
    1e80:	03d50b33          	mul	s6,a0,t4
    1e84:	8f843603          	ld	a2,-1800(s0)
    1e88:	00cb0633          	add	a2,s6,a2
    1e8c:	8ec43c23          	sd	a2,-1800(s0)
    1e90:	e7043483          	ld	s1,-400(s0)
    1e94:	02950b33          	mul	s6,a0,s1
    1e98:	90043603          	ld	a2,-1792(s0)
    1e9c:	00cb0633          	add	a2,s6,a2
    1ea0:	90c43023          	sd	a2,-1792(s0)
    1ea4:	03e50b33          	mul	s6,a0,t5
    1ea8:	90843603          	ld	a2,-1784(s0)
    1eac:	00cb0633          	add	a2,s6,a2
    1eb0:	90c43423          	sd	a2,-1784(s0)
    1eb4:	02b50b33          	mul	s6,a0,a1
    1eb8:	00058993          	mv	s3,a1
    1ebc:	91043603          	ld	a2,-1776(s0)
    1ec0:	00cb0633          	add	a2,s6,a2
    1ec4:	90c43823          	sd	a2,-1776(s0)
    1ec8:	02550b33          	mul	s6,a0,t0
    1ecc:	00028393          	mv	t2,t0
    1ed0:	91843603          	ld	a2,-1768(s0)
    1ed4:	00cb0633          	add	a2,s6,a2
    1ed8:	90c43c23          	sd	a2,-1768(s0)
    1edc:	e6843f03          	ld	t5,-408(s0)
    1ee0:	03e50b33          	mul	s6,a0,t5
    1ee4:	92043603          	ld	a2,-1760(s0)
    1ee8:	00cb0633          	add	a2,s6,a2
    1eec:	92c43023          	sd	a2,-1760(s0)
    1ef0:	03f50b33          	mul	s6,a0,t6
    1ef4:	92843603          	ld	a2,-1752(s0)
    1ef8:	00cb0633          	add	a2,s6,a2
    1efc:	92c43423          	sd	a2,-1752(s0)
    1f00:	f7843283          	ld	t0,-136(s0)
    1f04:	02550b33          	mul	s6,a0,t0
    1f08:	93043603          	ld	a2,-1744(s0)
    1f0c:	00cb0633          	add	a2,s6,a2
    1f10:	92c43823          	sd	a2,-1744(s0)
    1f14:	f6043583          	ld	a1,-160(s0)
    1f18:	02b50b33          	mul	s6,a0,a1
    1f1c:	93843603          	ld	a2,-1736(s0)
    1f20:	00cb0633          	add	a2,s6,a2
    1f24:	92c43c23          	sd	a2,-1736(s0)
    1f28:	000a0e93          	mv	t4,s4
    1f2c:	03450b33          	mul	s6,a0,s4
    1f30:	94043603          	ld	a2,-1728(s0)
    1f34:	00cb0633          	add	a2,s6,a2
    1f38:	94c43023          	sd	a2,-1728(s0)
    1f3c:	f5843a03          	ld	s4,-168(s0)
    1f40:	03450b33          	mul	s6,a0,s4
    1f44:	94843603          	ld	a2,-1720(s0)
    1f48:	00cb0633          	add	a2,s6,a2
    1f4c:	94c43423          	sd	a2,-1720(s0)
    1f50:	eb043603          	ld	a2,-336(s0)
    1f54:	02c50b33          	mul	s6,a0,a2
    1f58:	95043603          	ld	a2,-1712(s0)
    1f5c:	00cb0633          	add	a2,s6,a2
    1f60:	94c43823          	sd	a2,-1712(s0)
    1f64:	eb843603          	ld	a2,-328(s0)
    1f68:	02c50b33          	mul	s6,a0,a2
    1f6c:	95843603          	ld	a2,-1704(s0)
    1f70:	00cb0633          	add	a2,s6,a2
    1f74:	94c43c23          	sd	a2,-1704(s0)
    1f78:	ec043603          	ld	a2,-320(s0)
    1f7c:	02c50b33          	mul	s6,a0,a2
    1f80:	96043603          	ld	a2,-1696(s0)
    1f84:	00cb0633          	add	a2,s6,a2
    1f88:	96c43023          	sd	a2,-1696(s0)
    1f8c:	e6043a83          	ld	s5,-416(s0)
    1f90:	03550b33          	mul	s6,a0,s5
    1f94:	96843603          	ld	a2,-1688(s0)
    1f98:	00cb0633          	add	a2,s6,a2
    1f9c:	96c43423          	sd	a2,-1688(s0)
    1fa0:	02150b33          	mul	s6,a0,ra
    1fa4:	97043603          	ld	a2,-1680(s0)
    1fa8:	00cb0633          	add	a2,s6,a2
    1fac:	96c43823          	sd	a2,-1680(s0)
    1fb0:	f6843603          	ld	a2,-152(s0)
    1fb4:	6c060b03          	lb	s6,1728(a2)
    1fb8:	03a50db3          	mul	s11,a0,s10
    1fbc:	00001637          	lui	a2,0x1
    1fc0:	40c40633          	sub	a2,s0,a2
    1fc4:	67a63823          	sd	s10,1648(a2) # 1670 <.LBB87_5+0x1f0>
    1fc8:	97843603          	ld	a2,-1672(s0)
    1fcc:	00cd8633          	add	a2,s11,a2
    1fd0:	96c43c23          	sd	a2,-1672(s0)
    1fd4:	03050533          	mul	a0,a0,a6
    1fd8:	98043603          	ld	a2,-1664(s0)
    1fdc:	00c50633          	add	a2,a0,a2
    1fe0:	98c43023          	sd	a2,-1664(s0)
    1fe4:	ee043503          	ld	a0,-288(s0)
    1fe8:	02ab0533          	mul	a0,s6,a0
    1fec:	9a043603          	ld	a2,-1632(s0)
    1ff0:	00c50633          	add	a2,a0,a2
    1ff4:	9ac43023          	sd	a2,-1632(s0)
    1ff8:	e9843803          	ld	a6,-360(s0)
    1ffc:	030b0533          	mul	a0,s6,a6
    2000:	99843603          	ld	a2,-1640(s0)
    2004:	00c50633          	add	a2,a0,a2
    2008:	98c43c23          	sd	a2,-1640(s0)
    200c:	02db0533          	mul	a0,s6,a3
    2010:	99043603          	ld	a2,-1648(s0)
    2014:	00c50633          	add	a2,a0,a2
    2018:	98c43823          	sd	a2,-1648(s0)
    201c:	026b0533          	mul	a0,s6,t1
    2020:	98843603          	ld	a2,-1656(s0)
    2024:	00c50633          	add	a2,a0,a2
    2028:	98c43423          	sd	a2,-1656(s0)
    202c:	03cb0533          	mul	a0,s6,t3
    2030:	9a843603          	ld	a2,-1624(s0)
    2034:	00c50633          	add	a2,a0,a2
    2038:	9ac43423          	sd	a2,-1624(s0)
    203c:	f3043683          	ld	a3,-208(s0)
    2040:	02db0533          	mul	a0,s6,a3
    2044:	9b043603          	ld	a2,-1616(s0)
    2048:	00c50633          	add	a2,a0,a2
    204c:	9ac43823          	sd	a2,-1616(s0)
    2050:	ea043e03          	ld	t3,-352(s0)
    2054:	03cb0533          	mul	a0,s6,t3
    2058:	9b843603          	ld	a2,-1608(s0)
    205c:	00c50633          	add	a2,a0,a2
    2060:	9ac43c23          	sd	a2,-1608(s0)
    2064:	02eb0533          	mul	a0,s6,a4
    2068:	9c043603          	ld	a2,-1600(s0)
    206c:	00c50633          	add	a2,a0,a2
    2070:	9cc43023          	sd	a2,-1600(s0)
    2074:	e8043703          	ld	a4,-384(s0)
    2078:	02eb0533          	mul	a0,s6,a4
    207c:	9c843603          	ld	a2,-1592(s0)
    2080:	00c50633          	add	a2,a0,a2
    2084:	9cc43423          	sd	a2,-1592(s0)
    2088:	039b0533          	mul	a0,s6,s9
    208c:	9d043603          	ld	a2,-1584(s0)
    2090:	00c50633          	add	a2,a0,a2
    2094:	9cc43823          	sd	a2,-1584(s0)
    2098:	038b0533          	mul	a0,s6,s8
    209c:	9d843603          	ld	a2,-1576(s0)
    20a0:	00c50633          	add	a2,a0,a2
    20a4:	9cc43c23          	sd	a2,-1576(s0)
    20a8:	037b0533          	mul	a0,s6,s7
    20ac:	9e043603          	ld	a2,-1568(s0)
    20b0:	00c50633          	add	a2,a0,a2
    20b4:	9ec43023          	sd	a2,-1568(s0)
    20b8:	031b0533          	mul	a0,s6,a7
    20bc:	9e843603          	ld	a2,-1560(s0)
    20c0:	00c50633          	add	a2,a0,a2
    20c4:	9ec43423          	sd	a2,-1560(s0)
    20c8:	00090313          	mv	t1,s2
    20cc:	00001537          	lui	a0,0x1
    20d0:	40a40533          	sub	a0,s0,a0
    20d4:	67253423          	sd	s2,1640(a0) # 1668 <.LBB87_5+0x1e8>
    20d8:	032b0533          	mul	a0,s6,s2
    20dc:	9f043603          	ld	a2,-1552(s0)
    20e0:	00c50633          	add	a2,a0,a2
    20e4:	9ec43823          	sd	a2,-1552(s0)
    20e8:	02fb0533          	mul	a0,s6,a5
    20ec:	9f843603          	ld	a2,-1544(s0)
    20f0:	00c50633          	add	a2,a0,a2
    20f4:	9ec43c23          	sd	a2,-1544(s0)
    20f8:	00048893          	mv	a7,s1
    20fc:	029b0533          	mul	a0,s6,s1
    2100:	a0043603          	ld	a2,-1536(s0)
    2104:	00c50633          	add	a2,a0,a2
    2108:	a0c43023          	sd	a2,-1536(s0)
    210c:	ef843503          	ld	a0,-264(s0)
    2110:	02ab0533          	mul	a0,s6,a0
    2114:	a0843603          	ld	a2,-1528(s0)
    2118:	00c50633          	add	a2,a0,a2
    211c:	a0c43423          	sd	a2,-1528(s0)
    2120:	033b0533          	mul	a0,s6,s3
    2124:	a1043603          	ld	a2,-1520(s0)
    2128:	00c50633          	add	a2,a0,a2
    212c:	a0c43823          	sd	a2,-1520(s0)
    2130:	027b0533          	mul	a0,s6,t2
    2134:	a1843603          	ld	a2,-1512(s0)
    2138:	00c50633          	add	a2,a0,a2
    213c:	a0c43c23          	sd	a2,-1512(s0)
    2140:	03eb0533          	mul	a0,s6,t5
    2144:	000f0793          	mv	a5,t5
    2148:	a2043603          	ld	a2,-1504(s0)
    214c:	00c50633          	add	a2,a0,a2
    2150:	a2c43023          	sd	a2,-1504(s0)
    2154:	03fb0533          	mul	a0,s6,t6
    2158:	a2843603          	ld	a2,-1496(s0)
    215c:	00c50633          	add	a2,a0,a2
    2160:	a2c43423          	sd	a2,-1496(s0)
    2164:	025b0533          	mul	a0,s6,t0
    2168:	a3043603          	ld	a2,-1488(s0)
    216c:	00c50633          	add	a2,a0,a2
    2170:	a2c43823          	sd	a2,-1488(s0)
    2174:	02bb0533          	mul	a0,s6,a1
    2178:	a3843603          	ld	a2,-1480(s0)
    217c:	00c50633          	add	a2,a0,a2
    2180:	a2c43c23          	sd	a2,-1480(s0)
    2184:	03db0533          	mul	a0,s6,t4
    2188:	a4043603          	ld	a2,-1472(s0)
    218c:	00c50633          	add	a2,a0,a2
    2190:	a4c43023          	sd	a2,-1472(s0)
    2194:	034b0533          	mul	a0,s6,s4
    2198:	a4843603          	ld	a2,-1464(s0)
    219c:	00c50633          	add	a2,a0,a2
    21a0:	a4c43423          	sd	a2,-1464(s0)
    21a4:	eb043e83          	ld	t4,-336(s0)
    21a8:	03db0533          	mul	a0,s6,t4
    21ac:	a5043603          	ld	a2,-1456(s0)
    21b0:	00c50633          	add	a2,a0,a2
    21b4:	a4c43823          	sd	a2,-1456(s0)
    21b8:	eb843f03          	ld	t5,-328(s0)
    21bc:	03eb0533          	mul	a0,s6,t5
    21c0:	a5843603          	ld	a2,-1448(s0)
    21c4:	00c50633          	add	a2,a0,a2
    21c8:	a4c43c23          	sd	a2,-1448(s0)
    21cc:	ec043f83          	ld	t6,-320(s0)
    21d0:	03fb0533          	mul	a0,s6,t6
    21d4:	a6043603          	ld	a2,-1440(s0)
    21d8:	00c50633          	add	a2,a0,a2
    21dc:	a6c43023          	sd	a2,-1440(s0)
    21e0:	000a8c93          	mv	s9,s5
    21e4:	035b0533          	mul	a0,s6,s5
    21e8:	a6843603          	ld	a2,-1432(s0)
    21ec:	00c50633          	add	a2,a0,a2
    21f0:	a6c43423          	sd	a2,-1432(s0)
    21f4:	021b0533          	mul	a0,s6,ra
    21f8:	a7043603          	ld	a2,-1424(s0)
    21fc:	00c50633          	add	a2,a0,a2
    2200:	a6c43823          	sd	a2,-1424(s0)
    2204:	f7043583          	ld	a1,-144(s0)
    2208:	94058503          	lb	a0,-1728(a1)
    220c:	00058093          	mv	ra,a1
    2210:	03ab0db3          	mul	s11,s6,s10
    2214:	a7843603          	ld	a2,-1416(s0)
    2218:	00cd8633          	add	a2,s11,a2
    221c:	a6c43c23          	sd	a2,-1416(s0)
    2220:	f3843d03          	ld	s10,-200(s0)
    2224:	03ab0b33          	mul	s6,s6,s10
    2228:	a8043603          	ld	a2,-1408(s0)
    222c:	00cb0633          	add	a2,s6,a2
    2230:	a8c43023          	sd	a2,-1408(s0)
    2234:	ee043a83          	ld	s5,-288(s0)
    2238:	03550b33          	mul	s6,a0,s5
    223c:	aa043603          	ld	a2,-1376(s0)
    2240:	00cb0633          	add	a2,s6,a2
    2244:	aac43023          	sd	a2,-1376(s0)
    2248:	03050b33          	mul	s6,a0,a6
    224c:	a9843603          	ld	a2,-1384(s0)
    2250:	00cb0633          	add	a2,s6,a2
    2254:	a8c43c23          	sd	a2,-1384(s0)
    2258:	f5043803          	ld	a6,-176(s0)
    225c:	03050b33          	mul	s6,a0,a6
    2260:	a9043603          	ld	a2,-1392(s0)
    2264:	00cb0633          	add	a2,s6,a2
    2268:	a8c43823          	sd	a2,-1392(s0)
    226c:	f4843383          	ld	t2,-184(s0)
    2270:	02750b33          	mul	s6,a0,t2
    2274:	a8843603          	ld	a2,-1400(s0)
    2278:	00cb0633          	add	a2,s6,a2
    227c:	a8c43423          	sd	a2,-1400(s0)
    2280:	f4043483          	ld	s1,-192(s0)
    2284:	02950b33          	mul	s6,a0,s1
    2288:	aa843603          	ld	a2,-1368(s0)
    228c:	00cb0633          	add	a2,s6,a2
    2290:	aac43423          	sd	a2,-1368(s0)
    2294:	02d50b33          	mul	s6,a0,a3
    2298:	ab043603          	ld	a2,-1360(s0)
    229c:	00cb0633          	add	a2,s6,a2
    22a0:	aac43823          	sd	a2,-1360(s0)
    22a4:	03c50b33          	mul	s6,a0,t3
    22a8:	ab843603          	ld	a2,-1352(s0)
    22ac:	00cb0633          	add	a2,s6,a2
    22b0:	aac43c23          	sd	a2,-1352(s0)
    22b4:	ed043903          	ld	s2,-304(s0)
    22b8:	03250b33          	mul	s6,a0,s2
    22bc:	ac043603          	ld	a2,-1344(s0)
    22c0:	00cb0633          	add	a2,s6,a2
    22c4:	acc43023          	sd	a2,-1344(s0)
    22c8:	02e50b33          	mul	s6,a0,a4
    22cc:	ac843603          	ld	a2,-1336(s0)
    22d0:	00cb0633          	add	a2,s6,a2
    22d4:	acc43423          	sd	a2,-1336(s0)
    22d8:	f8043583          	ld	a1,-128(s0)
    22dc:	02b50b33          	mul	s6,a0,a1
    22e0:	ad043603          	ld	a2,-1328(s0)
    22e4:	00cb0633          	add	a2,s6,a2
    22e8:	acc43823          	sd	a2,-1328(s0)
    22ec:	03850b33          	mul	s6,a0,s8
    22f0:	ad843603          	ld	a2,-1320(s0)
    22f4:	00cb0633          	add	a2,s6,a2
    22f8:	acc43c23          	sd	a2,-1320(s0)
    22fc:	03750b33          	mul	s6,a0,s7
    2300:	ae043603          	ld	a2,-1312(s0)
    2304:	00cb0633          	add	a2,s6,a2
    2308:	aec43023          	sd	a2,-1312(s0)
    230c:	ea843983          	ld	s3,-344(s0)
    2310:	03350b33          	mul	s6,a0,s3
    2314:	ae843603          	ld	a2,-1304(s0)
    2318:	00cb0633          	add	a2,s6,a2
    231c:	aec43423          	sd	a2,-1304(s0)
    2320:	02650b33          	mul	s6,a0,t1
    2324:	af043603          	ld	a2,-1296(s0)
    2328:	00cb0633          	add	a2,s6,a2
    232c:	aec43823          	sd	a2,-1296(s0)
    2330:	ec843e03          	ld	t3,-312(s0)
    2334:	03c50b33          	mul	s6,a0,t3
    2338:	af843603          	ld	a2,-1288(s0)
    233c:	00cb0633          	add	a2,s6,a2
    2340:	aec43c23          	sd	a2,-1288(s0)
    2344:	00088593          	mv	a1,a7
    2348:	03150b33          	mul	s6,a0,a7
    234c:	b0043603          	ld	a2,-1280(s0)
    2350:	00cb0633          	add	a2,s6,a2
    2354:	b0c43023          	sd	a2,-1280(s0)
    2358:	ef843883          	ld	a7,-264(s0)
    235c:	03150b33          	mul	s6,a0,a7
    2360:	b0843603          	ld	a2,-1272(s0)
    2364:	00cb0633          	add	a2,s6,a2
    2368:	b0c43423          	sd	a2,-1272(s0)
    236c:	ed843303          	ld	t1,-296(s0)
    2370:	02650b33          	mul	s6,a0,t1
    2374:	b1043603          	ld	a2,-1264(s0)
    2378:	00cb0633          	add	a2,s6,a2
    237c:	b0c43823          	sd	a2,-1264(s0)
    2380:	e8843283          	ld	t0,-376(s0)
    2384:	02550b33          	mul	s6,a0,t0
    2388:	b1843603          	ld	a2,-1256(s0)
    238c:	00cb0633          	add	a2,s6,a2
    2390:	b0c43c23          	sd	a2,-1256(s0)
    2394:	02f50b33          	mul	s6,a0,a5
    2398:	b2043603          	ld	a2,-1248(s0)
    239c:	00cb0633          	add	a2,s6,a2
    23a0:	b2c43023          	sd	a2,-1248(s0)
    23a4:	ef043603          	ld	a2,-272(s0)
    23a8:	02c50b33          	mul	s6,a0,a2
    23ac:	b2843603          	ld	a2,-1240(s0)
    23b0:	00cb0633          	add	a2,s6,a2
    23b4:	b2c43423          	sd	a2,-1240(s0)
    23b8:	f7843603          	ld	a2,-136(s0)
    23bc:	02c50b33          	mul	s6,a0,a2
    23c0:	b3043603          	ld	a2,-1232(s0)
    23c4:	00cb0633          	add	a2,s6,a2
    23c8:	b2c43823          	sd	a2,-1232(s0)
    23cc:	f6043683          	ld	a3,-160(s0)
    23d0:	02d50b33          	mul	s6,a0,a3
    23d4:	b3843603          	ld	a2,-1224(s0)
    23d8:	00cb0633          	add	a2,s6,a2
    23dc:	b2c43c23          	sd	a2,-1224(s0)
    23e0:	ee843603          	ld	a2,-280(s0)
    23e4:	02c50b33          	mul	s6,a0,a2
    23e8:	b4043603          	ld	a2,-1216(s0)
    23ec:	00cb0633          	add	a2,s6,a2
    23f0:	b4c43023          	sd	a2,-1216(s0)
    23f4:	03450b33          	mul	s6,a0,s4
    23f8:	b4843603          	ld	a2,-1208(s0)
    23fc:	00cb0633          	add	a2,s6,a2
    2400:	b4c43423          	sd	a2,-1208(s0)
    2404:	03d50b33          	mul	s6,a0,t4
    2408:	b5043603          	ld	a2,-1200(s0)
    240c:	00cb0633          	add	a2,s6,a2
    2410:	b4c43823          	sd	a2,-1200(s0)
    2414:	03e50b33          	mul	s6,a0,t5
    2418:	b5843603          	ld	a2,-1192(s0)
    241c:	00cb0633          	add	a2,s6,a2
    2420:	b4c43c23          	sd	a2,-1192(s0)
    2424:	03f50b33          	mul	s6,a0,t6
    2428:	b6043603          	ld	a2,-1184(s0)
    242c:	00cb0633          	add	a2,s6,a2
    2430:	b6c43023          	sd	a2,-1184(s0)
    2434:	03950b33          	mul	s6,a0,s9
    2438:	000c8f13          	mv	t5,s9
    243c:	b6843603          	ld	a2,-1176(s0)
    2440:	00cb0633          	add	a2,s6,a2
    2444:	b6c43423          	sd	a2,-1176(s0)
    2448:	e9043a03          	ld	s4,-368(s0)
    244c:	03450b33          	mul	s6,a0,s4
    2450:	b7043603          	ld	a2,-1168(s0)
    2454:	00cb0633          	add	a2,s6,a2
    2458:	b6c43823          	sd	a2,-1168(s0)
    245c:	b8008b03          	lb	s6,-1152(ra)
    2460:	f6143823          	sd	ra,-144(s0)
    2464:	00001637          	lui	a2,0x1
    2468:	40c40633          	sub	a2,s0,a2
    246c:	67063c83          	ld	s9,1648(a2) # 1670 <.LBB87_5+0x1f0>
    2470:	03950db3          	mul	s11,a0,s9
    2474:	b7843603          	ld	a2,-1160(s0)
    2478:	00cd8633          	add	a2,s11,a2
    247c:	b6c43c23          	sd	a2,-1160(s0)
    2480:	03a50533          	mul	a0,a0,s10
    2484:	b8043603          	ld	a2,-1152(s0)
    2488:	00c50633          	add	a2,a0,a2
    248c:	b8c43023          	sd	a2,-1152(s0)
    2490:	035b0533          	mul	a0,s6,s5
    2494:	000a8e93          	mv	t4,s5
    2498:	ba043603          	ld	a2,-1120(s0)
    249c:	00c50633          	add	a2,a0,a2
    24a0:	bac43023          	sd	a2,-1120(s0)
    24a4:	e9843a83          	ld	s5,-360(s0)
    24a8:	035b0533          	mul	a0,s6,s5
    24ac:	b9843603          	ld	a2,-1128(s0)
    24b0:	00c50633          	add	a2,a0,a2
    24b4:	b8c43c23          	sd	a2,-1128(s0)
    24b8:	030b0533          	mul	a0,s6,a6
    24bc:	b9043603          	ld	a2,-1136(s0)
    24c0:	00c50633          	add	a2,a0,a2
    24c4:	b8c43823          	sd	a2,-1136(s0)
    24c8:	027b0533          	mul	a0,s6,t2
    24cc:	b8843603          	ld	a2,-1144(s0)
    24d0:	00c50633          	add	a2,a0,a2
    24d4:	b8c43423          	sd	a2,-1144(s0)
    24d8:	029b0533          	mul	a0,s6,s1
    24dc:	ba843603          	ld	a2,-1112(s0)
    24e0:	00c50633          	add	a2,a0,a2
    24e4:	bac43423          	sd	a2,-1112(s0)
    24e8:	f3043d03          	ld	s10,-208(s0)
    24ec:	03ab0533          	mul	a0,s6,s10
    24f0:	bb043603          	ld	a2,-1104(s0)
    24f4:	00c50633          	add	a2,a0,a2
    24f8:	bac43823          	sd	a2,-1104(s0)
    24fc:	ea043783          	ld	a5,-352(s0)
    2500:	02fb0533          	mul	a0,s6,a5
    2504:	bb843603          	ld	a2,-1096(s0)
    2508:	00c50633          	add	a2,a0,a2
    250c:	bac43c23          	sd	a2,-1096(s0)
    2510:	032b0533          	mul	a0,s6,s2
    2514:	bc043603          	ld	a2,-1088(s0)
    2518:	00c50633          	add	a2,a0,a2
    251c:	bcc43023          	sd	a2,-1088(s0)
    2520:	02eb0533          	mul	a0,s6,a4
    2524:	bc843603          	ld	a2,-1080(s0)
    2528:	00c50633          	add	a2,a0,a2
    252c:	bcc43423          	sd	a2,-1080(s0)
    2530:	f8043903          	ld	s2,-128(s0)
    2534:	032b0533          	mul	a0,s6,s2
    2538:	bd043603          	ld	a2,-1072(s0)
    253c:	00c50633          	add	a2,a0,a2
    2540:	bcc43823          	sd	a2,-1072(s0)
    2544:	038b0533          	mul	a0,s6,s8
    2548:	bd843603          	ld	a2,-1064(s0)
    254c:	00c50633          	add	a2,a0,a2
    2550:	bcc43c23          	sd	a2,-1064(s0)
    2554:	037b0533          	mul	a0,s6,s7
    2558:	be043603          	ld	a2,-1056(s0)
    255c:	00c50633          	add	a2,a0,a2
    2560:	bec43023          	sd	a2,-1056(s0)
    2564:	033b0533          	mul	a0,s6,s3
    2568:	be843603          	ld	a2,-1048(s0)
    256c:	00c50633          	add	a2,a0,a2
    2570:	bec43423          	sd	a2,-1048(s0)
    2574:	00001537          	lui	a0,0x1
    2578:	40a40533          	sub	a0,s0,a0
    257c:	66853b83          	ld	s7,1640(a0) # 1668 <.LBB87_5+0x1e8>
    2580:	037b0533          	mul	a0,s6,s7
    2584:	bf043603          	ld	a2,-1040(s0)
    2588:	00c50633          	add	a2,a0,a2
    258c:	bec43823          	sd	a2,-1040(s0)
    2590:	03cb0533          	mul	a0,s6,t3
    2594:	bf843603          	ld	a2,-1032(s0)
    2598:	00c50633          	add	a2,a0,a2
    259c:	bec43c23          	sd	a2,-1032(s0)
    25a0:	02bb0533          	mul	a0,s6,a1
    25a4:	c0043603          	ld	a2,-1024(s0)
    25a8:	00c50633          	add	a2,a0,a2
    25ac:	c0c43023          	sd	a2,-1024(s0)
    25b0:	031b0533          	mul	a0,s6,a7
    25b4:	00088e13          	mv	t3,a7
    25b8:	c0843603          	ld	a2,-1016(s0)
    25bc:	00c50633          	add	a2,a0,a2
    25c0:	c0c43423          	sd	a2,-1016(s0)
    25c4:	026b0533          	mul	a0,s6,t1
    25c8:	c1043603          	ld	a2,-1008(s0)
    25cc:	00c50633          	add	a2,a0,a2
    25d0:	c0c43823          	sd	a2,-1008(s0)
    25d4:	00028593          	mv	a1,t0
    25d8:	025b0533          	mul	a0,s6,t0
    25dc:	c1843603          	ld	a2,-1000(s0)
    25e0:	00c50633          	add	a2,a0,a2
    25e4:	c0c43c23          	sd	a2,-1000(s0)
    25e8:	e6843983          	ld	s3,-408(s0)
    25ec:	033b0533          	mul	a0,s6,s3
    25f0:	c2043603          	ld	a2,-992(s0)
    25f4:	00c50633          	add	a2,a0,a2
    25f8:	c2c43023          	sd	a2,-992(s0)
    25fc:	ef043283          	ld	t0,-272(s0)
    2600:	025b0533          	mul	a0,s6,t0
    2604:	c2843603          	ld	a2,-984(s0)
    2608:	00c50633          	add	a2,a0,a2
    260c:	c2c43423          	sd	a2,-984(s0)
    2610:	f7843503          	ld	a0,-136(s0)
    2614:	02ab0533          	mul	a0,s6,a0
    2618:	c3043603          	ld	a2,-976(s0)
    261c:	00c50633          	add	a2,a0,a2
    2620:	c2c43823          	sd	a2,-976(s0)
    2624:	02db0533          	mul	a0,s6,a3
    2628:	c3843603          	ld	a2,-968(s0)
    262c:	00c50633          	add	a2,a0,a2
    2630:	c2c43c23          	sd	a2,-968(s0)
    2634:	ee843f83          	ld	t6,-280(s0)
    2638:	03fb0533          	mul	a0,s6,t6
    263c:	c4043603          	ld	a2,-960(s0)
    2640:	00c50633          	add	a2,a0,a2
    2644:	c4c43023          	sd	a2,-960(s0)
    2648:	f5843503          	ld	a0,-168(s0)
    264c:	02ab0533          	mul	a0,s6,a0
    2650:	c4843603          	ld	a2,-952(s0)
    2654:	00c50633          	add	a2,a0,a2
    2658:	c4c43423          	sd	a2,-952(s0)
    265c:	eb043803          	ld	a6,-336(s0)
    2660:	030b0533          	mul	a0,s6,a6
    2664:	c5043603          	ld	a2,-944(s0)
    2668:	00c50633          	add	a2,a0,a2
    266c:	c4c43823          	sd	a2,-944(s0)
    2670:	eb843383          	ld	t2,-328(s0)
    2674:	027b0533          	mul	a0,s6,t2
    2678:	c5843603          	ld	a2,-936(s0)
    267c:	00c50633          	add	a2,a0,a2
    2680:	c4c43c23          	sd	a2,-936(s0)
    2684:	ec043483          	ld	s1,-320(s0)
    2688:	029b0533          	mul	a0,s6,s1
    268c:	c6043603          	ld	a2,-928(s0)
    2690:	00c50633          	add	a2,a0,a2
    2694:	c6c43023          	sd	a2,-928(s0)
    2698:	03eb0533          	mul	a0,s6,t5
    269c:	c6843603          	ld	a2,-920(s0)
    26a0:	00c50633          	add	a2,a0,a2
    26a4:	c6c43423          	sd	a2,-920(s0)
    26a8:	034b0533          	mul	a0,s6,s4
    26ac:	c7043603          	ld	a2,-912(s0)
    26b0:	00c50633          	add	a2,a0,a2
    26b4:	c6c43823          	sd	a2,-912(s0)
    26b8:	dc008503          	lb	a0,-576(ra)
    26bc:	039b0db3          	mul	s11,s6,s9
    26c0:	c7843603          	ld	a2,-904(s0)
    26c4:	00cd8633          	add	a2,s11,a2
    26c8:	c6c43c23          	sd	a2,-904(s0)
    26cc:	f3843603          	ld	a2,-200(s0)
    26d0:	02cb0b33          	mul	s6,s6,a2
    26d4:	c8043603          	ld	a2,-896(s0)
    26d8:	00cb0633          	add	a2,s6,a2
    26dc:	c8c43023          	sd	a2,-896(s0)
    26e0:	03d50b33          	mul	s6,a0,t4
    26e4:	ca043603          	ld	a2,-864(s0)
    26e8:	00cb0633          	add	a2,s6,a2
    26ec:	cac43023          	sd	a2,-864(s0)
    26f0:	03550b33          	mul	s6,a0,s5
    26f4:	c9843603          	ld	a2,-872(s0)
    26f8:	00cb0633          	add	a2,s6,a2
    26fc:	c8c43c23          	sd	a2,-872(s0)
    2700:	f5043603          	ld	a2,-176(s0)
    2704:	02c50b33          	mul	s6,a0,a2
    2708:	c9043603          	ld	a2,-880(s0)
    270c:	00cb0633          	add	a2,s6,a2
    2710:	c8c43823          	sd	a2,-880(s0)
    2714:	f4843603          	ld	a2,-184(s0)
    2718:	02c50b33          	mul	s6,a0,a2
    271c:	c8843603          	ld	a2,-888(s0)
    2720:	00cb0633          	add	a2,s6,a2
    2724:	c8c43423          	sd	a2,-888(s0)
    2728:	f4043603          	ld	a2,-192(s0)
    272c:	02c50b33          	mul	s6,a0,a2
    2730:	ca843603          	ld	a2,-856(s0)
    2734:	00cb0633          	add	a2,s6,a2
    2738:	cac43423          	sd	a2,-856(s0)
    273c:	03a50b33          	mul	s6,a0,s10
    2740:	cb043603          	ld	a2,-848(s0)
    2744:	00cb0633          	add	a2,s6,a2
    2748:	cac43823          	sd	a2,-848(s0)
    274c:	02f50b33          	mul	s6,a0,a5
    2750:	cb843603          	ld	a2,-840(s0)
    2754:	00cb0633          	add	a2,s6,a2
    2758:	cac43c23          	sd	a2,-840(s0)
    275c:	ed043083          	ld	ra,-304(s0)
    2760:	02150b33          	mul	s6,a0,ra
    2764:	cc043603          	ld	a2,-832(s0)
    2768:	00cb0633          	add	a2,s6,a2
    276c:	ccc43023          	sd	a2,-832(s0)
    2770:	00070d13          	mv	s10,a4
    2774:	02e50b33          	mul	s6,a0,a4
    2778:	cc843603          	ld	a2,-824(s0)
    277c:	00cb0633          	add	a2,s6,a2
    2780:	ccc43423          	sd	a2,-824(s0)
    2784:	03250b33          	mul	s6,a0,s2
    2788:	cd043603          	ld	a2,-816(s0)
    278c:	00cb0633          	add	a2,s6,a2
    2790:	ccc43823          	sd	a2,-816(s0)
    2794:	03850b33          	mul	s6,a0,s8
    2798:	cd843603          	ld	a2,-808(s0)
    279c:	00cb0633          	add	a2,s6,a2
    27a0:	ccc43c23          	sd	a2,-808(s0)
    27a4:	e7843a03          	ld	s4,-392(s0)
    27a8:	03450b33          	mul	s6,a0,s4
    27ac:	ce043603          	ld	a2,-800(s0)
    27b0:	00cb0633          	add	a2,s6,a2
    27b4:	cec43023          	sd	a2,-800(s0)
    27b8:	ea843303          	ld	t1,-344(s0)
    27bc:	02650b33          	mul	s6,a0,t1
    27c0:	ce843603          	ld	a2,-792(s0)
    27c4:	00cb0633          	add	a2,s6,a2
    27c8:	cec43423          	sd	a2,-792(s0)
    27cc:	000b8893          	mv	a7,s7
    27d0:	03750b33          	mul	s6,a0,s7
    27d4:	cf043603          	ld	a2,-784(s0)
    27d8:	00cb0633          	add	a2,s6,a2
    27dc:	cec43823          	sd	a2,-784(s0)
    27e0:	ec843783          	ld	a5,-312(s0)
    27e4:	02f50b33          	mul	s6,a0,a5
    27e8:	cf843603          	ld	a2,-776(s0)
    27ec:	00cb0633          	add	a2,s6,a2
    27f0:	cec43c23          	sd	a2,-776(s0)
    27f4:	e7043703          	ld	a4,-400(s0)
    27f8:	02e50b33          	mul	s6,a0,a4
    27fc:	d0043603          	ld	a2,-768(s0)
    2800:	00cb0633          	add	a2,s6,a2
    2804:	d0c43023          	sd	a2,-768(s0)
    2808:	03c50b33          	mul	s6,a0,t3
    280c:	d0843603          	ld	a2,-760(s0)
    2810:	00cb0633          	add	a2,s6,a2
    2814:	d0c43423          	sd	a2,-760(s0)
    2818:	ed843683          	ld	a3,-296(s0)
    281c:	02d50b33          	mul	s6,a0,a3
    2820:	d1043603          	ld	a2,-752(s0)
    2824:	00cb0633          	add	a2,s6,a2
    2828:	d0c43823          	sd	a2,-752(s0)
    282c:	02b50b33          	mul	s6,a0,a1
    2830:	00058e13          	mv	t3,a1
    2834:	d1843603          	ld	a2,-744(s0)
    2838:	00cb0633          	add	a2,s6,a2
    283c:	d0c43c23          	sd	a2,-744(s0)
    2840:	03350b33          	mul	s6,a0,s3
    2844:	00098b93          	mv	s7,s3
    2848:	d2043603          	ld	a2,-736(s0)
    284c:	00cb0633          	add	a2,s6,a2
    2850:	d2c43023          	sd	a2,-736(s0)
    2854:	02550b33          	mul	s6,a0,t0
    2858:	d2843603          	ld	a2,-728(s0)
    285c:	00cb0633          	add	a2,s6,a2
    2860:	d2c43423          	sd	a2,-728(s0)
    2864:	f7843e83          	ld	t4,-136(s0)
    2868:	03d50b33          	mul	s6,a0,t4
    286c:	d3043603          	ld	a2,-720(s0)
    2870:	00cb0633          	add	a2,s6,a2
    2874:	d2c43823          	sd	a2,-720(s0)
    2878:	f6043f03          	ld	t5,-160(s0)
    287c:	03e50b33          	mul	s6,a0,t5
    2880:	d3843603          	ld	a2,-712(s0)
    2884:	00cb0633          	add	a2,s6,a2
    2888:	d2c43c23          	sd	a2,-712(s0)
    288c:	03f50b33          	mul	s6,a0,t6
    2890:	d4043603          	ld	a2,-704(s0)
    2894:	00cb0633          	add	a2,s6,a2
    2898:	d4c43023          	sd	a2,-704(s0)
    289c:	f5843583          	ld	a1,-168(s0)
    28a0:	02b50b33          	mul	s6,a0,a1
    28a4:	d4843603          	ld	a2,-696(s0)
    28a8:	00cb0633          	add	a2,s6,a2
    28ac:	d4c43423          	sd	a2,-696(s0)
    28b0:	03050b33          	mul	s6,a0,a6
    28b4:	d5043603          	ld	a2,-688(s0)
    28b8:	00cb0633          	add	a2,s6,a2
    28bc:	d4c43823          	sd	a2,-688(s0)
    28c0:	02750b33          	mul	s6,a0,t2
    28c4:	d5843603          	ld	a2,-680(s0)
    28c8:	00cb0633          	add	a2,s6,a2
    28cc:	d4c43c23          	sd	a2,-680(s0)
    28d0:	02950b33          	mul	s6,a0,s1
    28d4:	d6043603          	ld	a2,-672(s0)
    28d8:	00cb0633          	add	a2,s6,a2
    28dc:	d6c43023          	sd	a2,-672(s0)
    28e0:	e6043903          	ld	s2,-416(s0)
    28e4:	03250b33          	mul	s6,a0,s2
    28e8:	d6843603          	ld	a2,-664(s0)
    28ec:	00cb0633          	add	a2,s6,a2
    28f0:	d6c43423          	sd	a2,-664(s0)
    28f4:	e9043a83          	ld	s5,-368(s0)
    28f8:	03550b33          	mul	s6,a0,s5
    28fc:	d7043603          	ld	a2,-656(s0)
    2900:	00cb0633          	add	a2,s6,a2
    2904:	d6c43823          	sd	a2,-656(s0)
    2908:	f7043603          	ld	a2,-144(s0)
    290c:	00060b03          	lb	s6,0(a2)
    2910:	03950db3          	mul	s11,a0,s9
    2914:	d7843603          	ld	a2,-648(s0)
    2918:	00cd8633          	add	a2,s11,a2
    291c:	d6c43c23          	sd	a2,-648(s0)
    2920:	f3843983          	ld	s3,-200(s0)
    2924:	03350533          	mul	a0,a0,s3
    2928:	d8043603          	ld	a2,-640(s0)
    292c:	00c50633          	add	a2,a0,a2
    2930:	d8c43023          	sd	a2,-640(s0)
    2934:	033b0533          	mul	a0,s6,s3
    2938:	f2a43c23          	sd	a0,-200(s0)
    293c:	039b0533          	mul	a0,s6,s9
    2940:	00001637          	lui	a2,0x1
    2944:	40c40633          	sub	a2,s0,a2
    2948:	66a63823          	sd	a0,1648(a2) # 1670 <.LBB87_5+0x1f0>
    294c:	035b0533          	mul	a0,s6,s5
    2950:	e8a43823          	sd	a0,-368(s0)
    2954:	032b0533          	mul	a0,s6,s2
    2958:	e6a43023          	sd	a0,-416(s0)
    295c:	029b0533          	mul	a0,s6,s1
    2960:	00001637          	lui	a2,0x1
    2964:	40c40633          	sub	a2,s0,a2
    2968:	66a63023          	sd	a0,1632(a2) # 1660 <.LBB87_5+0x1e0>
    296c:	027b0533          	mul	a0,s6,t2
    2970:	eca43023          	sd	a0,-320(s0)
    2974:	030b0533          	mul	a0,s6,a6
    2978:	eaa43c23          	sd	a0,-328(s0)
    297c:	02bb0533          	mul	a0,s6,a1
    2980:	f4a43c23          	sd	a0,-168(s0)
    2984:	03fb0533          	mul	a0,s6,t6
    2988:	eea43423          	sd	a0,-280(s0)
    298c:	03eb09b3          	mul	s3,s6,t5
    2990:	03db0933          	mul	s2,s6,t4
    2994:	025b04b3          	mul	s1,s6,t0
    2998:	037b0fb3          	mul	t6,s6,s7
    299c:	03cb0f33          	mul	t5,s6,t3
    29a0:	02db02b3          	mul	t0,s6,a3
    29a4:	ef843503          	ld	a0,-264(s0)
    29a8:	02ab0833          	mul	a6,s6,a0
    29ac:	02eb03b3          	mul	t2,s6,a4
    29b0:	02fb0e33          	mul	t3,s6,a5
    29b4:	031b0eb3          	mul	t4,s6,a7
    29b8:	026b0ab3          	mul	s5,s6,t1
    29bc:	034b0bb3          	mul	s7,s6,s4
    29c0:	038b0c33          	mul	s8,s6,s8
    29c4:	f8043503          	ld	a0,-128(s0)
    29c8:	02ab0cb3          	mul	s9,s6,a0
    29cc:	03ab0d33          	mul	s10,s6,s10
    29d0:	021b0db3          	mul	s11,s6,ra
    29d4:	ea043503          	ld	a0,-352(s0)
    29d8:	02ab0733          	mul	a4,s6,a0
    29dc:	f3043503          	ld	a0,-208(s0)
    29e0:	02ab00b3          	mul	ra,s6,a0
    29e4:	f4043503          	ld	a0,-192(s0)
    29e8:	02ab06b3          	mul	a3,s6,a0
    29ec:	f4843503          	ld	a0,-184(s0)
    29f0:	02ab0633          	mul	a2,s6,a0
    29f4:	f5043503          	ld	a0,-176(s0)
    29f8:	02ab05b3          	mul	a1,s6,a0
    29fc:	e9843503          	ld	a0,-360(s0)
    2a00:	02ab0533          	mul	a0,s6,a0
    2a04:	ee043783          	ld	a5,-288(s0)
    2a08:	02fb0b33          	mul	s6,s6,a5
    2a0c:	da043783          	ld	a5,-608(s0)
    2a10:	00fb07b3          	add	a5,s6,a5
    2a14:	daf43023          	sd	a5,-608(s0)
    2a18:	e1043b03          	ld	s6,-496(s0)
    2a1c:	d9843783          	ld	a5,-616(s0)
    2a20:	00f507b3          	add	a5,a0,a5
    2a24:	d8f43c23          	sd	a5,-616(s0)
    2a28:	d9043503          	ld	a0,-624(s0)
    2a2c:	00a58533          	add	a0,a1,a0
    2a30:	d8a43823          	sd	a0,-624(s0)
    2a34:	d8843503          	ld	a0,-632(s0)
    2a38:	00a60533          	add	a0,a2,a0
    2a3c:	d8a43423          	sd	a0,-632(s0)
    2a40:	da843503          	ld	a0,-600(s0)
    2a44:	00a68533          	add	a0,a3,a0
    2a48:	daa43423          	sd	a0,-600(s0)
    2a4c:	db043503          	ld	a0,-592(s0)
    2a50:	00a08533          	add	a0,ra,a0
    2a54:	daa43823          	sd	a0,-592(s0)
    2a58:	de043083          	ld	ra,-544(s0)
    2a5c:	db843503          	ld	a0,-584(s0)
    2a60:	00a70533          	add	a0,a4,a0
    2a64:	daa43c23          	sd	a0,-584(s0)
    2a68:	dc043503          	ld	a0,-576(s0)
    2a6c:	00ad8533          	add	a0,s11,a0
    2a70:	dca43023          	sd	a0,-576(s0)
    2a74:	de843d83          	ld	s11,-536(s0)
    2a78:	dc843503          	ld	a0,-568(s0)
    2a7c:	00ad0533          	add	a0,s10,a0
    2a80:	dca43423          	sd	a0,-568(s0)
    2a84:	df043d03          	ld	s10,-528(s0)
    2a88:	dd043503          	ld	a0,-560(s0)
    2a8c:	00ac8533          	add	a0,s9,a0
    2a90:	dca43823          	sd	a0,-560(s0)
    2a94:	df843c83          	ld	s9,-520(s0)
    2a98:	dd843503          	ld	a0,-552(s0)
    2a9c:	00ac0533          	add	a0,s8,a0
    2aa0:	dca43c23          	sd	a0,-552(s0)
    2aa4:	e0043c03          	ld	s8,-512(s0)
    2aa8:	001b80b3          	add	ra,s7,ra
    2aac:	e0843b83          	ld	s7,-504(s0)
    2ab0:	01ba8db3          	add	s11,s5,s11
    2ab4:	e1843a83          	ld	s5,-488(s0)
    2ab8:	01ae8d33          	add	s10,t4,s10
    2abc:	e2043e83          	ld	t4,-480(s0)
    2ac0:	019e0cb3          	add	s9,t3,s9
    2ac4:	e2843e03          	ld	t3,-472(s0)
    2ac8:	01838c33          	add	s8,t2,s8
    2acc:	e3043383          	ld	t2,-464(s0)
    2ad0:	01780bb3          	add	s7,a6,s7
    2ad4:	01628b33          	add	s6,t0,s6
    2ad8:	015f0ab3          	add	s5,t5,s5
    2adc:	e3843303          	ld	t1,-456(s0)
    2ae0:	f0043503          	ld	a0,-256(s0)
    2ae4:	00af8533          	add	a0,t6,a0
    2ae8:	f0a43023          	sd	a0,-256(s0)
    2aec:	f0043f03          	ld	t5,-256(s0)
    2af0:	f0843503          	ld	a0,-248(s0)
    2af4:	00a48533          	add	a0,s1,a0
    2af8:	f6843f83          	ld	t6,-152(s0)
    2afc:	f0a43423          	sd	a0,-248(s0)
    2b00:	f0843703          	ld	a4,-248(s0)
    2b04:	f1043503          	ld	a0,-240(s0)
    2b08:	00a90533          	add	a0,s2,a0
    2b0c:	f8843483          	ld	s1,-120(s0)
    2b10:	f0a43823          	sd	a0,-240(s0)
    2b14:	f1043683          	ld	a3,-240(s0)
    2b18:	e4843283          	ld	t0,-440(s0)
    2b1c:	e5043883          	ld	a7,-432(s0)
    2b20:	f1843503          	ld	a0,-232(s0)
    2b24:	00a98533          	add	a0,s3,a0
    2b28:	f0a43c23          	sd	a0,-232(s0)
    2b2c:	f1843603          	ld	a2,-232(s0)
    2b30:	f2043503          	ld	a0,-224(s0)
    2b34:	ee843583          	ld	a1,-280(s0)
    2b38:	00a58533          	add	a0,a1,a0
    2b3c:	f2a43023          	sd	a0,-224(s0)
    2b40:	f2043583          	ld	a1,-224(s0)
    2b44:	f2843503          	ld	a0,-216(s0)
    2b48:	f5843783          	ld	a5,-168(s0)
    2b4c:	00a78533          	add	a0,a5,a0
    2b50:	f2a43423          	sd	a0,-216(s0)
    2b54:	f2843503          	ld	a0,-216(s0)
    2b58:	eb843783          	ld	a5,-328(s0)
    2b5c:	01d78eb3          	add	t4,a5,t4
    2b60:	e4043803          	ld	a6,-448(s0)
    2b64:	ec043783          	ld	a5,-320(s0)
    2b68:	01c78e33          	add	t3,a5,t3
    2b6c:	000017b7          	lui	a5,0x1
    2b70:	40f407b3          	sub	a5,s0,a5
    2b74:	6807b783          	ld	a5,1664(a5) # 1680 <.LBB87_5+0x200>
    2b78:	00001937          	lui	s2,0x1
    2b7c:	41240933          	sub	s2,s0,s2
    2b80:	66093903          	ld	s2,1632(s2) # 1660 <.LBB87_5+0x1e0>
    2b84:	007903b3          	add	t2,s2,t2
    2b88:	e6043903          	ld	s2,-416(s0)
    2b8c:	00690333          	add	t1,s2,t1
    2b90:	e9043903          	ld	s2,-368(s0)
    2b94:	01090833          	add	a6,s2,a6
    2b98:	00001937          	lui	s2,0x1
    2b9c:	41240933          	sub	s2,s0,s2
    2ba0:	67093903          	ld	s2,1648(s2) # 1670 <.LBB87_5+0x1f0>
    2ba4:	005902b3          	add	t0,s2,t0
    2ba8:	f3843903          	ld	s2,-200(s0)
    2bac:	011908b3          	add	a7,s2,a7
    2bb0:	0a048493          	addi	s1,s1,160
    2bb4:	f6078793          	addi	a5,a5,-160
    2bb8:	001f8f93          	addi	t6,t6,1
    2bbc:	f7043903          	ld	s2,-144(s0)
    2bc0:	00190913          	addi	s2,s2,1
    2bc4:	f7243823          	sd	s2,-144(s0)
    2bc8:	00078463          	beqz	a5,2bd0 <.LBB87_6>
    2bcc:	8b5fe06f          	j	1480 <.LBB87_5>

0000000000002bd0 <.LBB87_6>:
    2bd0:	00001537          	lui	a0,0x1
    2bd4:	40a40533          	sub	a0,s0,a0
    2bd8:	6a853a03          	ld	s4,1704(a0) # 16a8 <.LBB87_5+0x228>
    2bdc:	00001537          	lui	a0,0x1
    2be0:	40a40533          	sub	a0,s0,a0
    2be4:	6a053983          	ld	s3,1696(a0) # 16a0 <.LBB87_5+0x220>
    2be8:	00001537          	lui	a0,0x1
    2bec:	40a40533          	sub	a0,s0,a0
    2bf0:	69853903          	ld	s2,1688(a0) # 1698 <.LBB87_5+0x218>
    2bf4:	00001537          	lui	a0,0x1
    2bf8:	40a40533          	sub	a0,s0,a0
    2bfc:	69053483          	ld	s1,1680(a0) # 1690 <.LBB87_5+0x210>
    2c00:	00001537          	lui	a0,0x1
    2c04:	40a40533          	sub	a0,s0,a0
    2c08:	68853f83          	ld	t6,1672(a0) # 1688 <.LBB87_5+0x208>
    2c0c:	00001537          	lui	a0,0x1
    2c10:	40a40533          	sub	a0,s0,a0
    2c14:	65053503          	ld	a0,1616(a0) # 1650 <.LBB87_5+0x1d0>
    2c18:	00251513          	slli	a0,a0,0x2
    2c1c:	000015b7          	lui	a1,0x1
    2c20:	40b405b3          	sub	a1,s0,a1
    2c24:	b685b603          	ld	a2,-1176(a1) # b68 <.LBB87_3+0x8fc>
    2c28:	00a60633          	add	a2,a2,a0
    2c2c:	000015b7          	lui	a1,0x1
    2c30:	40b405b3          	sub	a1,s0,a1
    2c34:	6485b583          	ld	a1,1608(a1) # 1648 <.LBB87_5+0x1c8>
    2c38:	0005a583          	lw	a1,0(a1)
    2c3c:	000016b7          	lui	a3,0x1
    2c40:	40d406b3          	sub	a3,s0,a3
    2c44:	b606b683          	ld	a3,-1184(a3) # b60 <.LBB87_3+0x8f4>
    2c48:	00a68533          	add	a0,a3,a0
    2c4c:	00c52683          	lw	a3,12(a0)
    2c50:	00c62783          	lw	a5,12(a2)
    2c54:	00c00713          	li	a4,12
    2c58:	02e585b3          	mul	a1,a1,a4
    2c5c:	00769713          	slli	a4,a3,0x7
    2c60:	eaf43423          	sd	a5,-344(s0)
    2c64:	000016b7          	lui	a3,0x1
    2c68:	40d406b3          	sub	a3,s0,a3
    2c6c:	6b06b683          	ld	a3,1712(a3) # 16b0 <.LBB87_5+0x230>
    2c70:	00f686b3          	add	a3,a3,a5
    2c74:	eae43023          	sd	a4,-352(s0)
    2c78:	00e686b3          	add	a3,a3,a4
    2c7c:	fff287b7          	lui	a5,0xfff28
    2c80:	40f5873b          	subw	a4,a1,a5
    2c84:	40e6873b          	subw	a4,a3,a4
    2c88:	400006b7          	lui	a3,0x40000
    2c8c:	00001f37          	lui	t5,0x1
    2c90:	41e40f33          	sub	t5,s0,t5
    2c94:	68df3023          	sd	a3,1664(t5) # 1680 <.LBB87_5+0x200>
    2c98:	00001f37          	lui	t5,0x1
    2c9c:	41e40f33          	sub	t5,s0,t5
    2ca0:	66ef3c23          	sd	a4,1656(t5) # 1678 <.LBB87_5+0x1f8>
    2ca4:	00075463          	bgez	a4,2cac <.LBB87_8>
    2ca8:	c00006b7          	lui	a3,0xc0000

0000000000002cac <.LBB87_8>:
    2cac:	00001737          	lui	a4,0x1
    2cb0:	40e40733          	sub	a4,s0,a4
    2cb4:	66d73823          	sd	a3,1648(a4) # 1670 <.LBB87_5+0x1f0>
    2cb8:	00852683          	lw	a3,8(a0)
    2cbc:	00862703          	lw	a4,8(a2)
    2cc0:	00769f13          	slli	t5,a3,0x7
    2cc4:	e8e43c23          	sd	a4,-360(s0)
    2cc8:	00ea06b3          	add	a3,s4,a4
    2ccc:	e9e43823          	sd	t5,-368(s0)
    2cd0:	01e686b3          	add	a3,a3,t5
    2cd4:	40f5873b          	subw	a4,a1,a5
    2cd8:	40e686bb          	subw	a3,a3,a4
    2cdc:	40000737          	lui	a4,0x40000
    2ce0:	00001f37          	lui	t5,0x1
    2ce4:	41e40f33          	sub	t5,s0,t5
    2ce8:	66df3423          	sd	a3,1640(t5) # 1668 <.LBB87_5+0x1e8>
    2cec:	00001f37          	lui	t5,0x1
    2cf0:	41e40f33          	sub	t5,s0,t5
    2cf4:	6b8f3a03          	ld	s4,1720(t5) # 16b8 <.LBB87_5+0x238>
    2cf8:	0006d463          	bgez	a3,2d00 <.LBB87_10>
    2cfc:	c0000737          	lui	a4,0xc0000

0000000000002d00 <.LBB87_10>:
    2d00:	000016b7          	lui	a3,0x1
    2d04:	40d406b3          	sub	a3,s0,a3
    2d08:	66e6b023          	sd	a4,1632(a3) # 1660 <.LBB87_5+0x1e0>
    2d0c:	00452683          	lw	a3,4(a0)
    2d10:	00462703          	lw	a4,4(a2)
    2d14:	00769f13          	slli	t5,a3,0x7
    2d18:	e8e43423          	sd	a4,-376(s0)
    2d1c:	000016b7          	lui	a3,0x1
    2d20:	40d406b3          	sub	a3,s0,a3
    2d24:	6c06b683          	ld	a3,1728(a3) # 16c0 <.LBB87_5+0x240>
    2d28:	00e686b3          	add	a3,a3,a4
    2d2c:	e9e43023          	sd	t5,-384(s0)
    2d30:	01e686b3          	add	a3,a3,t5
    2d34:	40f5873b          	subw	a4,a1,a5
    2d38:	40e686bb          	subw	a3,a3,a4
    2d3c:	40000737          	lui	a4,0x40000
    2d40:	00001f37          	lui	t5,0x1
    2d44:	41e40f33          	sub	t5,s0,t5
    2d48:	62df3c23          	sd	a3,1592(t5) # 1638 <.LBB87_5+0x1b8>
    2d4c:	0006d463          	bgez	a3,2d54 <.LBB87_12>
    2d50:	c0000737          	lui	a4,0xc0000

0000000000002d54 <.LBB87_12>:
    2d54:	000016b7          	lui	a3,0x1
    2d58:	40d406b3          	sub	a3,s0,a3
    2d5c:	62e6b823          	sd	a4,1584(a3) # 1630 <.LBB87_5+0x1b0>
    2d60:	00052683          	lw	a3,0(a0)
    2d64:	00062703          	lw	a4,0(a2)
    2d68:	00769f13          	slli	t5,a3,0x7
    2d6c:	e6e43c23          	sd	a4,-392(s0)
    2d70:	000016b7          	lui	a3,0x1
    2d74:	40d406b3          	sub	a3,s0,a3
    2d78:	6c86b683          	ld	a3,1736(a3) # 16c8 <.LBB87_5+0x248>
    2d7c:	00e686b3          	add	a3,a3,a4
    2d80:	e7e43823          	sd	t5,-400(s0)
    2d84:	01e686b3          	add	a3,a3,t5
    2d88:	40f5873b          	subw	a4,a1,a5
    2d8c:	40e686bb          	subw	a3,a3,a4
    2d90:	40000737          	lui	a4,0x40000
    2d94:	00001f37          	lui	t5,0x1
    2d98:	41e40f33          	sub	t5,s0,t5
    2d9c:	62df3423          	sd	a3,1576(t5) # 1628 <.LBB87_5+0x1a8>
    2da0:	0006d463          	bgez	a3,2da8 <.LBB87_14>
    2da4:	c0000737          	lui	a4,0xc0000

0000000000002da8 <.LBB87_14>:
    2da8:	000016b7          	lui	a3,0x1
    2dac:	40d406b3          	sub	a3,s0,a3
    2db0:	62e6b023          	sd	a4,1568(a3) # 1620 <.LBB87_5+0x1a0>
    2db4:	01052683          	lw	a3,16(a0)
    2db8:	01062703          	lw	a4,16(a2)
    2dbc:	00769f13          	slli	t5,a3,0x7
    2dc0:	e6e43423          	sd	a4,-408(s0)
    2dc4:	00ea06b3          	add	a3,s4,a4
    2dc8:	e7e43023          	sd	t5,-416(s0)
    2dcc:	01e686b3          	add	a3,a3,t5
    2dd0:	40f5873b          	subw	a4,a1,a5
    2dd4:	40e686bb          	subw	a3,a3,a4
    2dd8:	40000737          	lui	a4,0x40000
    2ddc:	00001f37          	lui	t5,0x1
    2de0:	41e40f33          	sub	t5,s0,t5
    2de4:	60df3c23          	sd	a3,1560(t5) # 1618 <.LBB87_5+0x198>
    2de8:	0006d463          	bgez	a3,2df0 <.LBB87_16>
    2dec:	c0000737          	lui	a4,0xc0000

0000000000002df0 <.LBB87_16>:
    2df0:	000016b7          	lui	a3,0x1
    2df4:	40d406b3          	sub	a3,s0,a3
    2df8:	60e6b823          	sd	a4,1552(a3) # 1610 <.LBB87_5+0x190>
    2dfc:	01452683          	lw	a3,20(a0)
    2e00:	01462703          	lw	a4,20(a2)
    2e04:	00769f13          	slli	t5,a3,0x7
    2e08:	000016b7          	lui	a3,0x1
    2e0c:	40d406b3          	sub	a3,s0,a3
    2e10:	6ce6b423          	sd	a4,1736(a3) # 16c8 <.LBB87_5+0x248>
    2e14:	00e986b3          	add	a3,s3,a4
    2e18:	00001737          	lui	a4,0x1
    2e1c:	40e40733          	sub	a4,s0,a4
    2e20:	6de73023          	sd	t5,1728(a4) # 16c0 <.LBB87_5+0x240>
    2e24:	01e686b3          	add	a3,a3,t5
    2e28:	40f5873b          	subw	a4,a1,a5
    2e2c:	40e686bb          	subw	a3,a3,a4
    2e30:	40000737          	lui	a4,0x40000
    2e34:	00001f37          	lui	t5,0x1
    2e38:	41e40f33          	sub	t5,s0,t5
    2e3c:	60df3423          	sd	a3,1544(t5) # 1608 <.LBB87_5+0x188>
    2e40:	0006d463          	bgez	a3,2e48 <.LBB87_18>
    2e44:	c0000737          	lui	a4,0xc0000

0000000000002e48 <.LBB87_18>:
    2e48:	000016b7          	lui	a3,0x1
    2e4c:	40d406b3          	sub	a3,s0,a3
    2e50:	60e6b023          	sd	a4,1536(a3) # 1600 <.LBB87_5+0x180>
    2e54:	01852683          	lw	a3,24(a0)
    2e58:	01862703          	lw	a4,24(a2)
    2e5c:	00769f13          	slli	t5,a3,0x7
    2e60:	000016b7          	lui	a3,0x1
    2e64:	40d406b3          	sub	a3,s0,a3
    2e68:	6ae6bc23          	sd	a4,1720(a3) # 16b8 <.LBB87_5+0x238>
    2e6c:	00e906b3          	add	a3,s2,a4
    2e70:	00001737          	lui	a4,0x1
    2e74:	40e40733          	sub	a4,s0,a4
    2e78:	6be73823          	sd	t5,1712(a4) # 16b0 <.LBB87_5+0x230>
    2e7c:	01e686b3          	add	a3,a3,t5
    2e80:	40f5873b          	subw	a4,a1,a5
    2e84:	40e686bb          	subw	a3,a3,a4
    2e88:	40000737          	lui	a4,0x40000
    2e8c:	00001f37          	lui	t5,0x1
    2e90:	41e40f33          	sub	t5,s0,t5
    2e94:	5edf3c23          	sd	a3,1528(t5) # 15f8 <.LBB87_5+0x178>
    2e98:	0006d463          	bgez	a3,2ea0 <.LBB87_20>
    2e9c:	c0000737          	lui	a4,0xc0000

0000000000002ea0 <.LBB87_20>:
    2ea0:	000016b7          	lui	a3,0x1
    2ea4:	40d406b3          	sub	a3,s0,a3
    2ea8:	5ee6b823          	sd	a4,1520(a3) # 15f0 <.LBB87_5+0x170>
    2eac:	e5043023          	sd	a6,-448(s0)
    2eb0:	01c52683          	lw	a3,28(a0)
    2eb4:	01c62703          	lw	a4,28(a2)
    2eb8:	00769813          	slli	a6,a3,0x7
    2ebc:	000016b7          	lui	a3,0x1
    2ec0:	40d406b3          	sub	a3,s0,a3
    2ec4:	6ae6b423          	sd	a4,1704(a3) # 16a8 <.LBB87_5+0x228>
    2ec8:	00e486b3          	add	a3,s1,a4
    2ecc:	00001737          	lui	a4,0x1
    2ed0:	40e40733          	sub	a4,s0,a4
    2ed4:	6b073023          	sd	a6,1696(a4) # 16a0 <.LBB87_5+0x220>
    2ed8:	010686b3          	add	a3,a3,a6
    2edc:	40f5873b          	subw	a4,a1,a5
    2ee0:	40e686bb          	subw	a3,a3,a4
    2ee4:	40000737          	lui	a4,0x40000
    2ee8:	00001837          	lui	a6,0x1
    2eec:	41040833          	sub	a6,s0,a6
    2ef0:	5ed83423          	sd	a3,1512(a6) # 15e8 <.LBB87_5+0x168>
    2ef4:	0006d463          	bgez	a3,2efc <.LBB87_22>
    2ef8:	c0000737          	lui	a4,0xc0000

0000000000002efc <.LBB87_22>:
    2efc:	000016b7          	lui	a3,0x1
    2f00:	40d406b3          	sub	a3,s0,a3
    2f04:	5ee6b023          	sd	a4,1504(a3) # 15e0 <.LBB87_5+0x160>
    2f08:	de143023          	sd	ra,-544(s0)
    2f0c:	dfb43423          	sd	s11,-536(s0)
    2f10:	dfa43823          	sd	s10,-528(s0)
    2f14:	df943c23          	sd	s9,-520(s0)
    2f18:	e1843023          	sd	s8,-512(s0)
    2f1c:	000b8f13          	mv	t5,s7
    2f20:	e1643823          	sd	s6,-496(s0)
    2f24:	e1543c23          	sd	s5,-488(s0)
    2f28:	e3d43023          	sd	t4,-480(s0)
    2f2c:	e3c43423          	sd	t3,-472(s0)
    2f30:	e2743823          	sd	t2,-464(s0)
    2f34:	e2643c23          	sd	t1,-456(s0)
    2f38:	e4543423          	sd	t0,-440(s0)
    2f3c:	e5143823          	sd	a7,-432(s0)
    2f40:	02052683          	lw	a3,32(a0)
    2f44:	02062703          	lw	a4,32(a2)
    2f48:	00769813          	slli	a6,a3,0x7
    2f4c:	000016b7          	lui	a3,0x1
    2f50:	40d406b3          	sub	a3,s0,a3
    2f54:	68e6bc23          	sd	a4,1688(a3) # 1698 <.LBB87_5+0x218>
    2f58:	00ef86b3          	add	a3,t6,a4
    2f5c:	00001737          	lui	a4,0x1
    2f60:	40e40733          	sub	a4,s0,a4
    2f64:	69073823          	sd	a6,1680(a4) # 1690 <.LBB87_5+0x210>
    2f68:	010686b3          	add	a3,a3,a6
    2f6c:	fff28837          	lui	a6,0xfff28
    2f70:	40f5873b          	subw	a4,a1,a5
    2f74:	40e686bb          	subw	a3,a3,a4
    2f78:	40000737          	lui	a4,0x40000
    2f7c:	000017b7          	lui	a5,0x1
    2f80:	40f407b3          	sub	a5,s0,a5
    2f84:	5cd7bc23          	sd	a3,1496(a5) # 15d8 <.LBB87_5+0x158>
    2f88:	0006d463          	bgez	a3,2f90 <.LBB87_24>
    2f8c:	c0000737          	lui	a4,0xc0000

0000000000002f90 <.LBB87_24>:
    2f90:	000016b7          	lui	a3,0x1
    2f94:	40d406b3          	sub	a3,s0,a3
    2f98:	5ce6b823          	sd	a4,1488(a3) # 15d0 <.LBB87_5+0x150>
    2f9c:	07c62683          	lw	a3,124(a2)
    2fa0:	f8d43423          	sd	a3,-120(s0)
    2fa4:	07862683          	lw	a3,120(a2)
    2fa8:	f8d43023          	sd	a3,-128(s0)
    2fac:	07462683          	lw	a3,116(a2)
    2fb0:	f6d43c23          	sd	a3,-136(s0)
    2fb4:	07062683          	lw	a3,112(a2)
    2fb8:	f6d43823          	sd	a3,-144(s0)
    2fbc:	06c62683          	lw	a3,108(a2)
    2fc0:	f6d43423          	sd	a3,-152(s0)
    2fc4:	06862683          	lw	a3,104(a2)
    2fc8:	f6d43023          	sd	a3,-160(s0)
    2fcc:	06462683          	lw	a3,100(a2)
    2fd0:	f4d43c23          	sd	a3,-168(s0)
    2fd4:	06062683          	lw	a3,96(a2)
    2fd8:	f4d43823          	sd	a3,-176(s0)
    2fdc:	05c62683          	lw	a3,92(a2)
    2fe0:	f4d43423          	sd	a3,-184(s0)
    2fe4:	05862683          	lw	a3,88(a2)
    2fe8:	f4d43023          	sd	a3,-192(s0)
    2fec:	05462683          	lw	a3,84(a2)
    2ff0:	f2d43c23          	sd	a3,-200(s0)
    2ff4:	05062683          	lw	a3,80(a2)
    2ff8:	f2d43823          	sd	a3,-208(s0)
    2ffc:	04c62683          	lw	a3,76(a2)
    3000:	eed43c23          	sd	a3,-264(s0)
    3004:	04862683          	lw	a3,72(a2)
    3008:	eed43823          	sd	a3,-272(s0)
    300c:	04462683          	lw	a3,68(a2)
    3010:	eed43423          	sd	a3,-280(s0)
    3014:	04062683          	lw	a3,64(a2)
    3018:	eed43023          	sd	a3,-288(s0)
    301c:	03c62683          	lw	a3,60(a2)
    3020:	ecd43c23          	sd	a3,-296(s0)
    3024:	03862683          	lw	a3,56(a2)
    3028:	ecd43823          	sd	a3,-304(s0)
    302c:	03462683          	lw	a3,52(a2)
    3030:	ecd43423          	sd	a3,-312(s0)
    3034:	03062683          	lw	a3,48(a2)
    3038:	ecd43023          	sd	a3,-320(s0)
    303c:	02c62683          	lw	a3,44(a2)
    3040:	ead43c23          	sd	a3,-328(s0)
    3044:	02862683          	lw	a3,40(a2)
    3048:	ead43823          	sd	a3,-336(s0)
    304c:	02462283          	lw	t0,36(a2)
    3050:	07c52603          	lw	a2,124(a0)
    3054:	f8b43823          	sd	a1,-112(s0)
    3058:	000015b7          	lui	a1,0x1
    305c:	40b405b3          	sub	a1,s0,a1
    3060:	5ac5b023          	sd	a2,1440(a1) # 15a0 <.LBB87_5+0x120>
    3064:	07852603          	lw	a2,120(a0)
    3068:	000015b7          	lui	a1,0x1
    306c:	40b405b3          	sub	a1,s0,a1
    3070:	58c5b423          	sd	a2,1416(a1) # 1588 <.LBB87_5+0x108>
    3074:	07452883          	lw	a7,116(a0)
    3078:	07052303          	lw	t1,112(a0)
    307c:	06c52383          	lw	t2,108(a0)
    3080:	06852e03          	lw	t3,104(a0)
    3084:	06452e83          	lw	t4,100(a0)
    3088:	06052603          	lw	a2,96(a0)
    308c:	05c52f83          	lw	t6,92(a0)
    3090:	05852483          	lw	s1,88(a0)
    3094:	05452903          	lw	s2,84(a0)
    3098:	05052983          	lw	s3,80(a0)
    309c:	04c52a03          	lw	s4,76(a0)
    30a0:	04852a83          	lw	s5,72(a0)
    30a4:	04452b03          	lw	s6,68(a0)
    30a8:	04052b83          	lw	s7,64(a0)
    30ac:	03c52c03          	lw	s8,60(a0)
    30b0:	03852c83          	lw	s9,56(a0)
    30b4:	03452d03          	lw	s10,52(a0)
    30b8:	02452703          	lw	a4,36(a0)
    30bc:	03052d83          	lw	s11,48(a0)
    30c0:	02c52083          	lw	ra,44(a0)
    30c4:	02852783          	lw	a5,40(a0)
    30c8:	00771713          	slli	a4,a4,0x7
    30cc:	00001537          	lui	a0,0x1
    30d0:	40a40533          	sub	a0,s0,a0
    30d4:	68553423          	sd	t0,1672(a0) # 1688 <.LBB87_5+0x208>
    30d8:	00001537          	lui	a0,0x1
    30dc:	40a40533          	sub	a0,s0,a0
    30e0:	6d053503          	ld	a0,1744(a0) # 16d0 <.LBB87_5+0x250>
    30e4:	00550533          	add	a0,a0,t0
    30e8:	000015b7          	lui	a1,0x1
    30ec:	40b405b3          	sub	a1,s0,a1
    30f0:	6ce5b823          	sd	a4,1744(a1) # 16d0 <.LBB87_5+0x250>
    30f4:	00e50533          	add	a0,a0,a4
    30f8:	000015b7          	lui	a1,0x1
    30fc:	40b405b3          	sub	a1,s0,a1
    3100:	6485b283          	ld	t0,1608(a1) # 1648 <.LBB87_5+0x1c8>
    3104:	0042a703          	lw	a4,4(t0)
    3108:	0082a683          	lw	a3,8(t0)
    310c:	000015b7          	lui	a1,0x1
    3110:	40b405b3          	sub	a1,s0,a1
    3114:	5cd5b423          	sd	a3,1480(a1) # 15c8 <.LBB87_5+0x148>
    3118:	00c2a683          	lw	a3,12(t0)
    311c:	000015b7          	lui	a1,0x1
    3120:	40b405b3          	sub	a1,s0,a1
    3124:	5cd5b023          	sd	a3,1472(a1) # 15c0 <.LBB87_5+0x140>
    3128:	0102a683          	lw	a3,16(t0)
    312c:	000015b7          	lui	a1,0x1
    3130:	40b405b3          	sub	a1,s0,a1
    3134:	5ad5b423          	sd	a3,1448(a1) # 15a8 <.LBB87_5+0x128>
    3138:	0142a683          	lw	a3,20(t0)
    313c:	000015b7          	lui	a1,0x1
    3140:	40b405b3          	sub	a1,s0,a1
    3144:	5ad5bc23          	sd	a3,1464(a1) # 15b8 <.LBB87_5+0x138>
    3148:	0182a683          	lw	a3,24(t0)
    314c:	000015b7          	lui	a1,0x1
    3150:	40b405b3          	sub	a1,s0,a1
    3154:	5ad5b823          	sd	a3,1456(a1) # 15b0 <.LBB87_5+0x130>
    3158:	f9043583          	ld	a1,-112(s0)
    315c:	01c2a283          	lw	t0,28(t0)
    3160:	000016b7          	lui	a3,0x1
    3164:	40d406b3          	sub	a3,s0,a3
    3168:	3e56b023          	sd	t0,992(a3) # 13e0 <.LBB87_4+0x51c>
    316c:	410582bb          	subw	t0,a1,a6
    3170:	4055053b          	subw	a0,a0,t0
    3174:	400002b7          	lui	t0,0x40000
    3178:	000016b7          	lui	a3,0x1
    317c:	40d406b3          	sub	a3,s0,a3
    3180:	58a6bc23          	sd	a0,1432(a3) # 1598 <.LBB87_5+0x118>
    3184:	00055463          	bgez	a0,318c <.LBB87_26>
    3188:	c00002b7          	lui	t0,0xc0000

000000000000318c <.LBB87_26>:
    318c:	00001537          	lui	a0,0x1
    3190:	40a40533          	sub	a0,s0,a0
    3194:	58553823          	sd	t0,1424(a0) # 1590 <.LBB87_5+0x110>
    3198:	00779793          	slli	a5,a5,0x7
    319c:	eb043503          	ld	a0,-336(s0)
    31a0:	000016b7          	lui	a3,0x1
    31a4:	40d406b3          	sub	a3,s0,a3
    31a8:	6d86b683          	ld	a3,1752(a3) # 16d8 <.LBB87_5+0x258>
    31ac:	00a68533          	add	a0,a3,a0
    31b0:	00078293          	mv	t0,a5
    31b4:	00f50533          	add	a0,a0,a5
    31b8:	410587bb          	subw	a5,a1,a6
    31bc:	40f5053b          	subw	a0,a0,a5
    31c0:	400007b7          	lui	a5,0x40000
    31c4:	000016b7          	lui	a3,0x1
    31c8:	40d406b3          	sub	a3,s0,a3
    31cc:	54a6b023          	sd	a0,1344(a3) # 1540 <.LBB87_5+0xc0>
    31d0:	000016b7          	lui	a3,0x1
    31d4:	40d406b3          	sub	a3,s0,a3
    31d8:	7206b683          	ld	a3,1824(a3) # 1720 <.LBB87_5+0x2a0>
    31dc:	00055463          	bgez	a0,31e4 <.LBB87_28>
    31e0:	c00007b7          	lui	a5,0xc0000

00000000000031e4 <.LBB87_28>:
    31e4:	f8c43823          	sd	a2,-112(s0)
    31e8:	00001537          	lui	a0,0x1
    31ec:	40a40533          	sub	a0,s0,a0
    31f0:	52f53c23          	sd	a5,1336(a0) # 1538 <.LBB87_5+0xb8>
    31f4:	00709793          	slli	a5,ra,0x7
    31f8:	eb843503          	ld	a0,-328(s0)
    31fc:	00001637          	lui	a2,0x1
    3200:	40c40633          	sub	a2,s0,a2
    3204:	6e063083          	ld	ra,1760(a2) # 16e0 <.LBB87_5+0x260>
    3208:	00a08533          	add	a0,ra,a0
    320c:	00078093          	mv	ra,a5
    3210:	00f50533          	add	a0,a0,a5
    3214:	410587bb          	subw	a5,a1,a6
    3218:	40f5053b          	subw	a0,a0,a5
    321c:	400007b7          	lui	a5,0x40000
    3220:	00001637          	lui	a2,0x1
    3224:	40c40633          	sub	a2,s0,a2
    3228:	4ea63023          	sd	a0,1248(a2) # 14e0 <.LBB87_5+0x60>
    322c:	f9043603          	ld	a2,-112(s0)
    3230:	00055463          	bgez	a0,3238 <.LBB87_30>
    3234:	c00007b7          	lui	a5,0xc0000

0000000000003238 <.LBB87_30>:
    3238:	00001537          	lui	a0,0x1
    323c:	40a40533          	sub	a0,s0,a0
    3240:	4cf53823          	sd	a5,1232(a0) # 14d0 <.LBB87_5+0x50>
    3244:	007d9793          	slli	a5,s11,0x7
    3248:	ec043503          	ld	a0,-320(s0)
    324c:	00001db7          	lui	s11,0x1
    3250:	41b40db3          	sub	s11,s0,s11
    3254:	6e8dbd83          	ld	s11,1768(s11) # 16e8 <.LBB87_5+0x268>
    3258:	00ad8533          	add	a0,s11,a0
    325c:	00078d93          	mv	s11,a5
    3260:	00f50533          	add	a0,a0,a5
    3264:	410587bb          	subw	a5,a1,a6
    3268:	40f5053b          	subw	a0,a0,a5
    326c:	400007b7          	lui	a5,0x40000
    3270:	00001837          	lui	a6,0x1
    3274:	41040833          	sub	a6,s0,a6
    3278:	48a83423          	sd	a0,1160(a6) # 1488 <.LBB87_5+0x8>
    327c:	00055463          	bgez	a0,3284 <.LBB87_32>
    3280:	c00007b7          	lui	a5,0xc0000

0000000000003284 <.LBB87_32>:
    3284:	00001537          	lui	a0,0x1
    3288:	40a40533          	sub	a0,s0,a0
    328c:	46f53823          	sd	a5,1136(a0) # 1470 <.LBB87_4+0x5ac>
    3290:	007d1d13          	slli	s10,s10,0x7
    3294:	ec843503          	ld	a0,-312(s0)
    3298:	000017b7          	lui	a5,0x1
    329c:	40f407b3          	sub	a5,s0,a5
    32a0:	6f07b783          	ld	a5,1776(a5) # 16f0 <.LBB87_5+0x270>
    32a4:	00a78533          	add	a0,a5,a0
    32a8:	000017b7          	lui	a5,0x1
    32ac:	40f407b3          	sub	a5,s0,a5
    32b0:	6fa7b823          	sd	s10,1776(a5) # 16f0 <.LBB87_5+0x270>
    32b4:	01a50533          	add	a0,a0,s10
    32b8:	fff28d37          	lui	s10,0xfff28
    32bc:	41a587bb          	subw	a5,a1,s10
    32c0:	40f5053b          	subw	a0,a0,a5
    32c4:	400007b7          	lui	a5,0x40000
    32c8:	00001837          	lui	a6,0x1
    32cc:	41040833          	sub	a6,s0,a6
    32d0:	42a83423          	sd	a0,1064(a6) # 1428 <.LBB87_4+0x564>
    32d4:	00001837          	lui	a6,0x1
    32d8:	41040833          	sub	a6,s0,a6
    32dc:	70083803          	ld	a6,1792(a6) # 1700 <.LBB87_5+0x280>
    32e0:	00055463          	bgez	a0,32e8 <.LBB87_34>
    32e4:	c00007b7          	lui	a5,0xc0000

00000000000032e8 <.LBB87_34>:
    32e8:	f8c43823          	sd	a2,-112(s0)
    32ec:	00001537          	lui	a0,0x1
    32f0:	40a40533          	sub	a0,s0,a0
    32f4:	40f53823          	sd	a5,1040(a0) # 1410 <.LBB87_4+0x54c>
    32f8:	007c9793          	slli	a5,s9,0x7
    32fc:	ed043503          	ld	a0,-304(s0)
    3300:	00001637          	lui	a2,0x1
    3304:	40c40633          	sub	a2,s0,a2
    3308:	6f863c83          	ld	s9,1784(a2) # 16f8 <.LBB87_5+0x278>
    330c:	00ac8533          	add	a0,s9,a0
    3310:	00078c93          	mv	s9,a5
    3314:	00f50533          	add	a0,a0,a5
    3318:	41a587bb          	subw	a5,a1,s10
    331c:	40f5053b          	subw	a0,a0,a5
    3320:	400007b7          	lui	a5,0x40000
    3324:	00001637          	lui	a2,0x1
    3328:	40c40633          	sub	a2,s0,a2
    332c:	3aa63823          	sd	a0,944(a2) # 13b0 <.LBB87_4+0x4ec>
    3330:	f9043603          	ld	a2,-112(s0)
    3334:	00055463          	bgez	a0,333c <.LBB87_36>
    3338:	c00007b7          	lui	a5,0xc0000

000000000000333c <.LBB87_36>:
    333c:	00001537          	lui	a0,0x1
    3340:	40a40533          	sub	a0,s0,a0
    3344:	3af53023          	sd	a5,928(a0) # 13a0 <.LBB87_4+0x4dc>
    3348:	007c1793          	slli	a5,s8,0x7
    334c:	ed843503          	ld	a0,-296(s0)
    3350:	00a80533          	add	a0,a6,a0
    3354:	00078c13          	mv	s8,a5
    3358:	00f50533          	add	a0,a0,a5
    335c:	41a587bb          	subw	a5,a1,s10
    3360:	40f5053b          	subw	a0,a0,a5
    3364:	400007b7          	lui	a5,0x40000
    3368:	00001837          	lui	a6,0x1
    336c:	41040833          	sub	a6,s0,a6
    3370:	34a83423          	sd	a0,840(a6) # 1348 <.LBB87_4+0x484>
    3374:	98043803          	ld	a6,-1664(s0)
    3378:	00055463          	bgez	a0,3380 <.LBB87_38>
    337c:	c00007b7          	lui	a5,0xc0000

0000000000003380 <.LBB87_38>:
    3380:	f8c43823          	sd	a2,-112(s0)
    3384:	00001537          	lui	a0,0x1
    3388:	40a40533          	sub	a0,s0,a0
    338c:	32f53823          	sd	a5,816(a0) # 1330 <.LBB87_4+0x46c>
    3390:	007b9793          	slli	a5,s7,0x7
    3394:	ee043503          	ld	a0,-288(s0)
    3398:	00001637          	lui	a2,0x1
    339c:	40c40633          	sub	a2,s0,a2
    33a0:	70863b83          	ld	s7,1800(a2) # 1708 <.LBB87_5+0x288>
    33a4:	00ab8533          	add	a0,s7,a0
    33a8:	00078b93          	mv	s7,a5
    33ac:	00f50533          	add	a0,a0,a5
    33b0:	41a587bb          	subw	a5,a1,s10
    33b4:	40f5053b          	subw	a0,a0,a5
    33b8:	400007b7          	lui	a5,0x40000
    33bc:	00001637          	lui	a2,0x1
    33c0:	40c40633          	sub	a2,s0,a2
    33c4:	2ca63c23          	sd	a0,728(a2) # 12d8 <.LBB87_4+0x414>
    33c8:	f9043603          	ld	a2,-112(s0)
    33cc:	00055463          	bgez	a0,33d4 <.LBB87_40>
    33d0:	c00007b7          	lui	a5,0xc0000

00000000000033d4 <.LBB87_40>:
    33d4:	00001537          	lui	a0,0x1
    33d8:	40a40533          	sub	a0,s0,a0
    33dc:	2cf53023          	sd	a5,704(a0) # 12c0 <.LBB87_4+0x3fc>
    33e0:	007b1793          	slli	a5,s6,0x7
    33e4:	ee843503          	ld	a0,-280(s0)
    33e8:	00001b37          	lui	s6,0x1
    33ec:	41640b33          	sub	s6,s0,s6
    33f0:	710b3b03          	ld	s6,1808(s6) # 1710 <.LBB87_5+0x290>
    33f4:	00ab0533          	add	a0,s6,a0
    33f8:	00078b13          	mv	s6,a5
    33fc:	00f50533          	add	a0,a0,a5
    3400:	41a587bb          	subw	a5,a1,s10
    3404:	40f5053b          	subw	a0,a0,a5
    3408:	400007b7          	lui	a5,0x40000
    340c:	e1e43423          	sd	t5,-504(s0)
    3410:	00001f37          	lui	t5,0x1
    3414:	41e40f33          	sub	t5,s0,t5
    3418:	24af3c23          	sd	a0,600(t5) # 1258 <.LBB87_4+0x394>
    341c:	00055463          	bgez	a0,3424 <.LBB87_42>
    3420:	c00007b7          	lui	a5,0xc0000

0000000000003424 <.LBB87_42>:
    3424:	00001537          	lui	a0,0x1
    3428:	40a40533          	sub	a0,s0,a0
    342c:	22f53c23          	sd	a5,568(a0) # 1238 <.LBB87_4+0x374>
    3430:	007a9a93          	slli	s5,s5,0x7
    3434:	ef043503          	ld	a0,-272(s0)
    3438:	000017b7          	lui	a5,0x1
    343c:	40f407b3          	sub	a5,s0,a5
    3440:	7187b783          	ld	a5,1816(a5) # 1718 <.LBB87_5+0x298>
    3444:	00a78533          	add	a0,a5,a0
    3448:	000a8f13          	mv	t5,s5
    344c:	01550533          	add	a0,a0,s5
    3450:	41a587bb          	subw	a5,a1,s10
    3454:	40f5053b          	subw	a0,a0,a5
    3458:	400007b7          	lui	a5,0x40000
    345c:	00001ab7          	lui	s5,0x1
    3460:	41540ab3          	sub	s5,s0,s5
    3464:	1caab823          	sd	a0,464(s5) # 11d0 <.LBB87_4+0x30c>
    3468:	00055463          	bgez	a0,3470 <.LBB87_44>
    346c:	c00007b7          	lui	a5,0xc0000

0000000000003470 <.LBB87_44>:
    3470:	00001537          	lui	a0,0x1
    3474:	40a40533          	sub	a0,s0,a0
    3478:	1af53c23          	sd	a5,440(a0) # 11b8 <.LBB87_4+0x2f4>
    347c:	007a1793          	slli	a5,s4,0x7
    3480:	ef843503          	ld	a0,-264(s0)
    3484:	00a68533          	add	a0,a3,a0
    3488:	00078a13          	mv	s4,a5
    348c:	00f50533          	add	a0,a0,a5
    3490:	41a587bb          	subw	a5,a1,s10
    3494:	40f5053b          	subw	a0,a0,a5
    3498:	400007b7          	lui	a5,0x40000
    349c:	000016b7          	lui	a3,0x1
    34a0:	40d406b3          	sub	a3,s0,a3
    34a4:	14a6b423          	sd	a0,328(a3) # 1148 <.LBB87_4+0x284>
    34a8:	000016b7          	lui	a3,0x1
    34ac:	40d406b3          	sub	a3,s0,a3
    34b0:	7606ba83          	ld	s5,1888(a3) # 1760 <.LBB87_5+0x2e0>
    34b4:	00055463          	bgez	a0,34bc <.LBB87_46>
    34b8:	c00007b7          	lui	a5,0xc0000

00000000000034bc <.LBB87_46>:
    34bc:	00001537          	lui	a0,0x1
    34c0:	40a40533          	sub	a0,s0,a0
    34c4:	12f53c23          	sd	a5,312(a0) # 1138 <.LBB87_4+0x274>
    34c8:	00799793          	slli	a5,s3,0x7
    34cc:	f3043503          	ld	a0,-208(s0)
    34d0:	000016b7          	lui	a3,0x1
    34d4:	40d406b3          	sub	a3,s0,a3
    34d8:	7286b983          	ld	s3,1832(a3) # 1728 <.LBB87_5+0x2a8>
    34dc:	00a98533          	add	a0,s3,a0
    34e0:	00078993          	mv	s3,a5
    34e4:	00f50533          	add	a0,a0,a5
    34e8:	41a587bb          	subw	a5,a1,s10
    34ec:	40f5053b          	subw	a0,a0,a5
    34f0:	400007b7          	lui	a5,0x40000
    34f4:	000016b7          	lui	a3,0x1
    34f8:	40d406b3          	sub	a3,s0,a3
    34fc:	0ca6b423          	sd	a0,200(a3) # 10c8 <.LBB87_4+0x204>
    3500:	00055463          	bgez	a0,3508 <.LBB87_48>
    3504:	c00007b7          	lui	a5,0xc0000

0000000000003508 <.LBB87_48>:
    3508:	00001537          	lui	a0,0x1
    350c:	40a40533          	sub	a0,s0,a0
    3510:	0cf53023          	sd	a5,192(a0) # 10c0 <.LBB87_4+0x1fc>
    3514:	00791793          	slli	a5,s2,0x7
    3518:	f3843503          	ld	a0,-200(s0)
    351c:	000016b7          	lui	a3,0x1
    3520:	40d406b3          	sub	a3,s0,a3
    3524:	7306b903          	ld	s2,1840(a3) # 1730 <.LBB87_5+0x2b0>
    3528:	00a90533          	add	a0,s2,a0
    352c:	00078913          	mv	s2,a5
    3530:	00f50533          	add	a0,a0,a5
    3534:	41a587bb          	subw	a5,a1,s10
    3538:	40f5053b          	subw	a0,a0,a5
    353c:	400007b7          	lui	a5,0x40000
    3540:	000016b7          	lui	a3,0x1
    3544:	40d406b3          	sub	a3,s0,a3
    3548:	04a6b823          	sd	a0,80(a3) # 1050 <.LBB87_4+0x18c>
    354c:	00055463          	bgez	a0,3554 <.LBB87_50>
    3550:	c00007b7          	lui	a5,0xc0000

0000000000003554 <.LBB87_50>:
    3554:	00001537          	lui	a0,0x1
    3558:	40a40533          	sub	a0,s0,a0
    355c:	04f53423          	sd	a5,72(a0) # 1048 <.LBB87_4+0x184>
    3560:	00749493          	slli	s1,s1,0x7
    3564:	f4043503          	ld	a0,-192(s0)
    3568:	000016b7          	lui	a3,0x1
    356c:	40d406b3          	sub	a3,s0,a3
    3570:	7386b783          	ld	a5,1848(a3) # 1738 <.LBB87_5+0x2b8>
    3574:	00a78533          	add	a0,a5,a0
    3578:	000016b7          	lui	a3,0x1
    357c:	40d406b3          	sub	a3,s0,a3
    3580:	7296bc23          	sd	s1,1848(a3) # 1738 <.LBB87_5+0x2b8>
    3584:	00950533          	add	a0,a0,s1
    3588:	41a587bb          	subw	a5,a1,s10
    358c:	40f5053b          	subw	a0,a0,a5
    3590:	400007b7          	lui	a5,0x40000
    3594:	000016b7          	lui	a3,0x1
    3598:	40d406b3          	sub	a3,s0,a3
    359c:	fca6bc23          	sd	a0,-40(a3) # fd8 <.LBB87_4+0x114>
    35a0:	00055463          	bgez	a0,35a8 <.LBB87_52>
    35a4:	c00007b7          	lui	a5,0xc0000

00000000000035a8 <.LBB87_52>:
    35a8:	00001537          	lui	a0,0x1
    35ac:	40a40533          	sub	a0,s0,a0
    35b0:	fcf53823          	sd	a5,-48(a0) # fd0 <.LBB87_4+0x10c>
    35b4:	007f9793          	slli	a5,t6,0x7
    35b8:	f4843503          	ld	a0,-184(s0)
    35bc:	000016b7          	lui	a3,0x1
    35c0:	40d406b3          	sub	a3,s0,a3
    35c4:	7406bf83          	ld	t6,1856(a3) # 1740 <.LBB87_5+0x2c0>
    35c8:	00af8533          	add	a0,t6,a0
    35cc:	000016b7          	lui	a3,0x1
    35d0:	40d406b3          	sub	a3,s0,a3
    35d4:	74f6b023          	sd	a5,1856(a3) # 1740 <.LBB87_5+0x2c0>
    35d8:	00f50533          	add	a0,a0,a5
    35dc:	41a587bb          	subw	a5,a1,s10
    35e0:	40f5053b          	subw	a0,a0,a5
    35e4:	400007b7          	lui	a5,0x40000
    35e8:	00c00493          	li	s1,12
    35ec:	000016b7          	lui	a3,0x1
    35f0:	40d406b3          	sub	a3,s0,a3
    35f4:	f6a6b023          	sd	a0,-160(a3) # f60 <.LBB87_4+0x9c>
    35f8:	00055463          	bgez	a0,3600 <.LBB87_54>
    35fc:	c00007b7          	lui	a5,0xc0000

0000000000003600 <.LBB87_54>:
    3600:	00001537          	lui	a0,0x1
    3604:	40a40533          	sub	a0,s0,a0
    3608:	f4f53c23          	sd	a5,-168(a0) # f58 <.LBB87_4+0x94>
    360c:	00761613          	slli	a2,a2,0x7
    3610:	f5043503          	ld	a0,-176(s0)
    3614:	000016b7          	lui	a3,0x1
    3618:	40d406b3          	sub	a3,s0,a3
    361c:	7486b783          	ld	a5,1864(a3) # 1748 <.LBB87_5+0x2c8>
    3620:	00a78533          	add	a0,a5,a0
    3624:	000016b7          	lui	a3,0x1
    3628:	40d406b3          	sub	a3,s0,a3
    362c:	74c6b423          	sd	a2,1864(a3) # 1748 <.LBB87_5+0x2c8>
    3630:	00c50533          	add	a0,a0,a2
    3634:	41a587bb          	subw	a5,a1,s10
    3638:	40f5053b          	subw	a0,a0,a5
    363c:	40000637          	lui	a2,0x40000
    3640:	000016b7          	lui	a3,0x1
    3644:	40d406b3          	sub	a3,s0,a3
    3648:	eea6b823          	sd	a0,-272(a3) # ef0 <.LBB87_4+0x2c>
    364c:	000016b7          	lui	a3,0x1
    3650:	40d406b3          	sub	a3,s0,a3
    3654:	7686bf83          	ld	t6,1896(a3) # 1768 <.LBB87_5+0x2e8>
    3658:	00055463          	bgez	a0,3660 <.LBB87_56>
    365c:	c0000637          	lui	a2,0xc0000

0000000000003660 <.LBB87_56>:
    3660:	007e9e93          	slli	t4,t4,0x7
    3664:	f5843503          	ld	a0,-168(s0)
    3668:	000016b7          	lui	a3,0x1
    366c:	40d406b3          	sub	a3,s0,a3
    3670:	7506b783          	ld	a5,1872(a3) # 1750 <.LBB87_5+0x2d0>
    3674:	00a78533          	add	a0,a5,a0
    3678:	000016b7          	lui	a3,0x1
    367c:	40d406b3          	sub	a3,s0,a3
    3680:	75d6b823          	sd	t4,1872(a3) # 1750 <.LBB87_5+0x2d0>
    3684:	01d50533          	add	a0,a0,t4
    3688:	41a587bb          	subw	a5,a1,s10
    368c:	40f5053b          	subw	a0,a0,a5
    3690:	400007b7          	lui	a5,0x40000
    3694:	000016b7          	lui	a3,0x1
    3698:	40d406b3          	sub	a3,s0,a3
    369c:	e6a6bc23          	sd	a0,-392(a3) # e78 <.LBB87_3+0xc0c>
    36a0:	00055463          	bgez	a0,36a8 <.LBB87_58>
    36a4:	c00007b7          	lui	a5,0xc0000

00000000000036a8 <.LBB87_58>:
    36a8:	00001537          	lui	a0,0x1
    36ac:	40a40533          	sub	a0,s0,a0
    36b0:	e6f53823          	sd	a5,-400(a0) # e70 <.LBB87_3+0xc04>
    36b4:	007e1e13          	slli	t3,t3,0x7
    36b8:	f6043503          	ld	a0,-160(s0)
    36bc:	000016b7          	lui	a3,0x1
    36c0:	40d406b3          	sub	a3,s0,a3
    36c4:	7586b783          	ld	a5,1880(a3) # 1758 <.LBB87_5+0x2d8>
    36c8:	00a78533          	add	a0,a5,a0
    36cc:	000016b7          	lui	a3,0x1
    36d0:	40d406b3          	sub	a3,s0,a3
    36d4:	75c6bc23          	sd	t3,1880(a3) # 1758 <.LBB87_5+0x2d8>
    36d8:	01c50533          	add	a0,a0,t3
    36dc:	41a587bb          	subw	a5,a1,s10
    36e0:	40f5053b          	subw	a0,a0,a5
    36e4:	400007b7          	lui	a5,0x40000
    36e8:	b0043e83          	ld	t4,-1280(s0)
    36ec:	000016b7          	lui	a3,0x1
    36f0:	40d406b3          	sub	a3,s0,a3
    36f4:	e0a6b423          	sd	a0,-504(a3) # e08 <.LBB87_3+0xb9c>
    36f8:	00055463          	bgez	a0,3700 <.LBB87_60>
    36fc:	c00007b7          	lui	a5,0xc0000

0000000000003700 <.LBB87_60>:
    3700:	00001537          	lui	a0,0x1
    3704:	40a40533          	sub	a0,s0,a0
    3708:	e0f53023          	sd	a5,-512(a0) # e00 <.LBB87_3+0xb94>
    370c:	00739393          	slli	t2,t2,0x7
    3710:	f6843503          	ld	a0,-152(s0)
    3714:	00aa8533          	add	a0,s5,a0
    3718:	00038a93          	mv	s5,t2
    371c:	00750533          	add	a0,a0,t2
    3720:	41a587bb          	subw	a5,a1,s10
    3724:	40f5053b          	subw	a0,a0,a5
    3728:	400007b7          	lui	a5,0x40000
    372c:	000016b7          	lui	a3,0x1
    3730:	40d406b3          	sub	a3,s0,a3
    3734:	d8a6b823          	sd	a0,-624(a3) # d90 <.LBB87_3+0xb24>
    3738:	000016b7          	lui	a3,0x1
    373c:	40d406b3          	sub	a3,s0,a3
    3740:	7786be03          	ld	t3,1912(a3) # 1778 <.LBB87_5+0x2f8>
    3744:	00055463          	bgez	a0,374c <.LBB87_62>
    3748:	c00007b7          	lui	a5,0xc0000

000000000000374c <.LBB87_62>:
    374c:	00001537          	lui	a0,0x1
    3750:	40a40533          	sub	a0,s0,a0
    3754:	d8f53423          	sd	a5,-632(a0) # d88 <.LBB87_3+0xb1c>
    3758:	00731313          	slli	t1,t1,0x7
    375c:	f7043503          	ld	a0,-144(s0)
    3760:	00af8533          	add	a0,t6,a0
    3764:	00030f93          	mv	t6,t1
    3768:	00650533          	add	a0,a0,t1
    376c:	41a587bb          	subw	a5,a1,s10
    3770:	40f5053b          	subw	a0,a0,a5
    3774:	400007b7          	lui	a5,0x40000
    3778:	000016b7          	lui	a3,0x1
    377c:	40d406b3          	sub	a3,s0,a3
    3780:	d0a6bc23          	sd	a0,-744(a3) # d18 <.LBB87_3+0xaac>
    3784:	000016b7          	lui	a3,0x1
    3788:	40d406b3          	sub	a3,s0,a3
    378c:	7806b383          	ld	t2,1920(a3) # 1780 <.LBB87_5+0x300>
    3790:	00055463          	bgez	a0,3798 <.LBB87_64>
    3794:	c00007b7          	lui	a5,0xc0000

0000000000003798 <.LBB87_64>:
    3798:	00001537          	lui	a0,0x1
    379c:	40a40533          	sub	a0,s0,a0
    37a0:	d0f53823          	sd	a5,-752(a0) # d10 <.LBB87_3+0xaa4>
    37a4:	00789793          	slli	a5,a7,0x7
    37a8:	f7843503          	ld	a0,-136(s0)
    37ac:	000016b7          	lui	a3,0x1
    37b0:	40d406b3          	sub	a3,s0,a3
    37b4:	7706b883          	ld	a7,1904(a3) # 1770 <.LBB87_5+0x2f0>
    37b8:	00a88533          	add	a0,a7,a0
    37bc:	00078893          	mv	a7,a5
    37c0:	00f50533          	add	a0,a0,a5
    37c4:	41a587bb          	subw	a5,a1,s10
    37c8:	40f5053b          	subw	a0,a0,a5
    37cc:	400007b7          	lui	a5,0x40000
    37d0:	c8843303          	ld	t1,-888(s0)
    37d4:	000016b7          	lui	a3,0x1
    37d8:	40d406b3          	sub	a3,s0,a3
    37dc:	caa6b423          	sd	a0,-856(a3) # ca8 <.LBB87_3+0xa3c>
    37e0:	00055463          	bgez	a0,37e8 <.LBB87_66>
    37e4:	c00007b7          	lui	a5,0xc0000

00000000000037e8 <.LBB87_66>:
    37e8:	f8c43823          	sd	a2,-112(s0)
    37ec:	00001537          	lui	a0,0x1
    37f0:	40a40533          	sub	a0,s0,a0
    37f4:	caf53023          	sd	a5,-864(a0) # ca0 <.LBB87_3+0xa34>
    37f8:	00001537          	lui	a0,0x1
    37fc:	40a40533          	sub	a0,s0,a0
    3800:	58853683          	ld	a3,1416(a0) # 1588 <.LBB87_5+0x108>
    3804:	00769693          	slli	a3,a3,0x7
    3808:	f8043503          	ld	a0,-128(s0)
    380c:	00ae0533          	add	a0,t3,a0
    3810:	00001637          	lui	a2,0x1
    3814:	40c40633          	sub	a2,s0,a2
    3818:	76d63c23          	sd	a3,1912(a2) # 1778 <.LBB87_5+0x2f8>
    381c:	00d50533          	add	a0,a0,a3
    3820:	41a586bb          	subw	a3,a1,s10
    3824:	40d5053b          	subw	a0,a0,a3
    3828:	400006b7          	lui	a3,0x40000
    382c:	a7843783          	ld	a5,-1416(s0)
    3830:	97843e03          	ld	t3,-1672(s0)
    3834:	00001637          	lui	a2,0x1
    3838:	40c40633          	sub	a2,s0,a2
    383c:	c6a63023          	sd	a0,-928(a2) # c60 <.LBB87_3+0x9f4>
    3840:	f9043603          	ld	a2,-112(s0)
    3844:	00055463          	bgez	a0,384c <.LBB87_68>
    3848:	c00006b7          	lui	a3,0xc0000

000000000000384c <.LBB87_68>:
    384c:	00001537          	lui	a0,0x1
    3850:	40a40533          	sub	a0,s0,a0
    3854:	c4d53c23          	sd	a3,-936(a0) # c58 <.LBB87_3+0x9ec>
    3858:	00001537          	lui	a0,0x1
    385c:	40a40533          	sub	a0,s0,a0
    3860:	eec53423          	sd	a2,-280(a0) # ee8 <.LBB87_4+0x24>
    3864:	00001537          	lui	a0,0x1
    3868:	40a40533          	sub	a0,s0,a0
    386c:	5a053603          	ld	a2,1440(a0) # 15a0 <.LBB87_5+0x120>
    3870:	00761613          	slli	a2,a2,0x7
    3874:	f8843503          	ld	a0,-120(s0)
    3878:	00a38533          	add	a0,t2,a0
    387c:	00060693          	mv	a3,a2
    3880:	00c50533          	add	a0,a0,a2
    3884:	41a585bb          	subw	a1,a1,s10
    3888:	40b5053b          	subw	a0,a0,a1
    388c:	400005b7          	lui	a1,0x40000
    3890:	97043383          	ld	t2,-1680(s0)
    3894:	00001637          	lui	a2,0x1
    3898:	40c40633          	sub	a2,s0,a2
    389c:	bca63023          	sd	a0,-1088(a2) # bc0 <.LBB87_3+0x954>
    38a0:	00055463          	bgez	a0,38a8 <.LBB87_70>
    38a4:	c00005b7          	lui	a1,0xc0000

00000000000038a8 <.LBB87_70>:
    38a8:	00001537          	lui	a0,0x1
    38ac:	40a40533          	sub	a0,s0,a0
    38b0:	bab53c23          	sd	a1,-1096(a0) # bb8 <.LBB87_3+0x94c>
    38b4:	ea843503          	ld	a0,-344(s0)
    38b8:	000015b7          	lui	a1,0x1
    38bc:	40b405b3          	sub	a1,s0,a1
    38c0:	7885b583          	ld	a1,1928(a1) # 1788 <.LBB87_5+0x308>
    38c4:	00a58533          	add	a0,a1,a0
    38c8:	029705b3          	mul	a1,a4,s1
    38cc:	ea043603          	ld	a2,-352(s0)
    38d0:	00c50533          	add	a0,a0,a2
    38d4:	41a5863b          	subw	a2,a1,s10
    38d8:	40c5053b          	subw	a0,a0,a2
    38dc:	40000637          	lui	a2,0x40000
    38e0:	00001737          	lui	a4,0x1
    38e4:	40e40733          	sub	a4,s0,a4
    38e8:	78a73423          	sd	a0,1928(a4) # 1788 <.LBB87_5+0x308>
    38ec:	00055463          	bgez	a0,38f4 <.LBB87_72>
    38f0:	c0000637          	lui	a2,0xc0000

00000000000038f4 <.LBB87_72>:
    38f4:	00001537          	lui	a0,0x1
    38f8:	40a40533          	sub	a0,s0,a0
    38fc:	78c53023          	sd	a2,1920(a0) # 1780 <.LBB87_5+0x300>
    3900:	e9843503          	ld	a0,-360(s0)
    3904:	00001637          	lui	a2,0x1
    3908:	40c40633          	sub	a2,s0,a2
    390c:	79063603          	ld	a2,1936(a2) # 1790 <.LBB87_5+0x310>
    3910:	00a60533          	add	a0,a2,a0
    3914:	e9043603          	ld	a2,-368(s0)
    3918:	00c50533          	add	a0,a0,a2
    391c:	41a5863b          	subw	a2,a1,s10
    3920:	40c5053b          	subw	a0,a0,a2
    3924:	40000637          	lui	a2,0x40000
    3928:	00001737          	lui	a4,0x1
    392c:	40e40733          	sub	a4,s0,a4
    3930:	78a73823          	sd	a0,1936(a4) # 1790 <.LBB87_5+0x310>
    3934:	88043703          	ld	a4,-1920(s0)
    3938:	00055463          	bgez	a0,3940 <.LBB87_74>
    393c:	c0000637          	lui	a2,0xc0000

0000000000003940 <.LBB87_74>:
    3940:	f8d43823          	sd	a3,-112(s0)
    3944:	00001537          	lui	a0,0x1
    3948:	40a40533          	sub	a0,s0,a0
    394c:	76c53823          	sd	a2,1904(a0) # 1770 <.LBB87_5+0x2f0>
    3950:	e8843503          	ld	a0,-376(s0)
    3954:	00001637          	lui	a2,0x1
    3958:	40c40633          	sub	a2,s0,a2
    395c:	79863603          	ld	a2,1944(a2) # 1798 <.LBB87_5+0x318>
    3960:	00a60533          	add	a0,a2,a0
    3964:	e8043603          	ld	a2,-384(s0)
    3968:	00c50533          	add	a0,a0,a2
    396c:	41a5863b          	subw	a2,a1,s10
    3970:	40c5053b          	subw	a0,a0,a2
    3974:	40000637          	lui	a2,0x40000
    3978:	000016b7          	lui	a3,0x1
    397c:	40d406b3          	sub	a3,s0,a3
    3980:	78a6bc23          	sd	a0,1944(a3) # 1798 <.LBB87_5+0x318>
    3984:	f9043683          	ld	a3,-112(s0)
    3988:	00055463          	bgez	a0,3990 <.LBB87_76>
    398c:	c0000637          	lui	a2,0xc0000

0000000000003990 <.LBB87_76>:
    3990:	f8d43823          	sd	a3,-112(s0)
    3994:	00001537          	lui	a0,0x1
    3998:	40a40533          	sub	a0,s0,a0
    399c:	76c53423          	sd	a2,1896(a0) # 1768 <.LBB87_5+0x2e8>
    39a0:	e7843503          	ld	a0,-392(s0)
    39a4:	00001637          	lui	a2,0x1
    39a8:	40c40633          	sub	a2,s0,a2
    39ac:	7a063603          	ld	a2,1952(a2) # 17a0 <.LBB87_5+0x320>
    39b0:	00a60533          	add	a0,a2,a0
    39b4:	e7043603          	ld	a2,-400(s0)
    39b8:	00c50533          	add	a0,a0,a2
    39bc:	41a5863b          	subw	a2,a1,s10
    39c0:	40c5053b          	subw	a0,a0,a2
    39c4:	40000637          	lui	a2,0x40000
    39c8:	000016b7          	lui	a3,0x1
    39cc:	40d406b3          	sub	a3,s0,a3
    39d0:	7aa6b023          	sd	a0,1952(a3) # 17a0 <.LBB87_5+0x320>
    39d4:	f9043683          	ld	a3,-112(s0)
    39d8:	00055463          	bgez	a0,39e0 <.LBB87_78>
    39dc:	c0000637          	lui	a2,0xc0000

00000000000039e0 <.LBB87_78>:
    39e0:	f8d43823          	sd	a3,-112(s0)
    39e4:	00001537          	lui	a0,0x1
    39e8:	40a40533          	sub	a0,s0,a0
    39ec:	76c53023          	sd	a2,1888(a0) # 1760 <.LBB87_5+0x2e0>
    39f0:	e6843503          	ld	a0,-408(s0)
    39f4:	00001637          	lui	a2,0x1
    39f8:	40c40633          	sub	a2,s0,a2
    39fc:	7a863603          	ld	a2,1960(a2) # 17a8 <.LBB87_5+0x328>
    3a00:	00a60533          	add	a0,a2,a0
    3a04:	e6043603          	ld	a2,-416(s0)
    3a08:	00c50533          	add	a0,a0,a2
    3a0c:	41a5863b          	subw	a2,a1,s10
    3a10:	40c5053b          	subw	a0,a0,a2
    3a14:	40000637          	lui	a2,0x40000
    3a18:	000016b7          	lui	a3,0x1
    3a1c:	40d406b3          	sub	a3,s0,a3
    3a20:	7aa6b423          	sd	a0,1960(a3) # 17a8 <.LBB87_5+0x328>
    3a24:	f9043683          	ld	a3,-112(s0)
    3a28:	00055463          	bgez	a0,3a30 <.LBB87_80>
    3a2c:	c0000637          	lui	a2,0xc0000

0000000000003a30 <.LBB87_80>:
    3a30:	f8d43823          	sd	a3,-112(s0)
    3a34:	00001537          	lui	a0,0x1
    3a38:	40a40533          	sub	a0,s0,a0
    3a3c:	72c53823          	sd	a2,1840(a0) # 1730 <.LBB87_5+0x2b0>
    3a40:	00001537          	lui	a0,0x1
    3a44:	40a40533          	sub	a0,s0,a0
    3a48:	6c853503          	ld	a0,1736(a0) # 16c8 <.LBB87_5+0x248>
    3a4c:	00001637          	lui	a2,0x1
    3a50:	40c40633          	sub	a2,s0,a2
    3a54:	7b063603          	ld	a2,1968(a2) # 17b0 <.LBB87_5+0x330>
    3a58:	00a60533          	add	a0,a2,a0
    3a5c:	00001637          	lui	a2,0x1
    3a60:	40c40633          	sub	a2,s0,a2
    3a64:	6c063603          	ld	a2,1728(a2) # 16c0 <.LBB87_5+0x240>
    3a68:	00c50533          	add	a0,a0,a2
    3a6c:	41a5863b          	subw	a2,a1,s10
    3a70:	40c5053b          	subw	a0,a0,a2
    3a74:	40000637          	lui	a2,0x40000
    3a78:	000016b7          	lui	a3,0x1
    3a7c:	40d406b3          	sub	a3,s0,a3
    3a80:	7aa6b823          	sd	a0,1968(a3) # 17b0 <.LBB87_5+0x330>
    3a84:	f9043683          	ld	a3,-112(s0)
    3a88:	00055463          	bgez	a0,3a90 <.LBB87_82>
    3a8c:	c0000637          	lui	a2,0xc0000

0000000000003a90 <.LBB87_82>:
    3a90:	f8d43823          	sd	a3,-112(s0)
    3a94:	00001537          	lui	a0,0x1
    3a98:	40a40533          	sub	a0,s0,a0
    3a9c:	72c53423          	sd	a2,1832(a0) # 1728 <.LBB87_5+0x2a8>
    3aa0:	00001537          	lui	a0,0x1
    3aa4:	40a40533          	sub	a0,s0,a0
    3aa8:	6b853503          	ld	a0,1720(a0) # 16b8 <.LBB87_5+0x238>
    3aac:	00001637          	lui	a2,0x1
    3ab0:	40c40633          	sub	a2,s0,a2
    3ab4:	7b863603          	ld	a2,1976(a2) # 17b8 <.LBB87_5+0x338>
    3ab8:	00a60533          	add	a0,a2,a0
    3abc:	00001637          	lui	a2,0x1
    3ac0:	40c40633          	sub	a2,s0,a2
    3ac4:	6b063603          	ld	a2,1712(a2) # 16b0 <.LBB87_5+0x230>
    3ac8:	00c50533          	add	a0,a0,a2
    3acc:	41a5863b          	subw	a2,a1,s10
    3ad0:	40c5053b          	subw	a0,a0,a2
    3ad4:	40000637          	lui	a2,0x40000
    3ad8:	000016b7          	lui	a3,0x1
    3adc:	40d406b3          	sub	a3,s0,a3
    3ae0:	7aa6bc23          	sd	a0,1976(a3) # 17b8 <.LBB87_5+0x338>
    3ae4:	f9043683          	ld	a3,-112(s0)
    3ae8:	00055463          	bgez	a0,3af0 <.LBB87_84>
    3aec:	c0000637          	lui	a2,0xc0000

0000000000003af0 <.LBB87_84>:
    3af0:	f8d43823          	sd	a3,-112(s0)
    3af4:	00001537          	lui	a0,0x1
    3af8:	40a40533          	sub	a0,s0,a0
    3afc:	72c53023          	sd	a2,1824(a0) # 1720 <.LBB87_5+0x2a0>
    3b00:	00001537          	lui	a0,0x1
    3b04:	40a40533          	sub	a0,s0,a0
    3b08:	6a853503          	ld	a0,1704(a0) # 16a8 <.LBB87_5+0x228>
    3b0c:	00001637          	lui	a2,0x1
    3b10:	40c40633          	sub	a2,s0,a2
    3b14:	7c063603          	ld	a2,1984(a2) # 17c0 <.LBB87_5+0x340>
    3b18:	00a60533          	add	a0,a2,a0
    3b1c:	00001637          	lui	a2,0x1
    3b20:	40c40633          	sub	a2,s0,a2
    3b24:	6a063603          	ld	a2,1696(a2) # 16a0 <.LBB87_5+0x220>
    3b28:	00c50533          	add	a0,a0,a2
    3b2c:	41a5863b          	subw	a2,a1,s10
    3b30:	40c5053b          	subw	a0,a0,a2
    3b34:	40000637          	lui	a2,0x40000
    3b38:	000016b7          	lui	a3,0x1
    3b3c:	40d406b3          	sub	a3,s0,a3
    3b40:	6ea6bc23          	sd	a0,1784(a3) # 16f8 <.LBB87_5+0x278>
    3b44:	f9043683          	ld	a3,-112(s0)
    3b48:	00055463          	bgez	a0,3b50 <.LBB87_86>
    3b4c:	c0000637          	lui	a2,0xc0000

0000000000003b50 <.LBB87_86>:
    3b50:	f8d43823          	sd	a3,-112(s0)
    3b54:	00001537          	lui	a0,0x1
    3b58:	40a40533          	sub	a0,s0,a0
    3b5c:	6ec53023          	sd	a2,1760(a0) # 16e0 <.LBB87_5+0x260>
    3b60:	00001537          	lui	a0,0x1
    3b64:	40a40533          	sub	a0,s0,a0
    3b68:	69853503          	ld	a0,1688(a0) # 1698 <.LBB87_5+0x218>
    3b6c:	00001637          	lui	a2,0x1
    3b70:	40c40633          	sub	a2,s0,a2
    3b74:	7c863603          	ld	a2,1992(a2) # 17c8 <.LBB87_5+0x348>
    3b78:	00a60533          	add	a0,a2,a0
    3b7c:	00001637          	lui	a2,0x1
    3b80:	40c40633          	sub	a2,s0,a2
    3b84:	69063603          	ld	a2,1680(a2) # 1690 <.LBB87_5+0x210>
    3b88:	00c50533          	add	a0,a0,a2
    3b8c:	41a5863b          	subw	a2,a1,s10
    3b90:	40c5053b          	subw	a0,a0,a2
    3b94:	40000637          	lui	a2,0x40000
    3b98:	000016b7          	lui	a3,0x1
    3b9c:	40d406b3          	sub	a3,s0,a3
    3ba0:	58a6b423          	sd	a0,1416(a3) # 1588 <.LBB87_5+0x108>
    3ba4:	f9043683          	ld	a3,-112(s0)
    3ba8:	00055463          	bgez	a0,3bb0 <.LBB87_88>
    3bac:	c0000637          	lui	a2,0xc0000

0000000000003bb0 <.LBB87_88>:
    3bb0:	f8d43823          	sd	a3,-112(s0)
    3bb4:	00001537          	lui	a0,0x1
    3bb8:	40a40533          	sub	a0,s0,a0
    3bbc:	56c53c23          	sd	a2,1400(a0) # 1578 <.LBB87_5+0xf8>
    3bc0:	00001537          	lui	a0,0x1
    3bc4:	40a40533          	sub	a0,s0,a0
    3bc8:	68853503          	ld	a0,1672(a0) # 1688 <.LBB87_5+0x208>
    3bcc:	00001637          	lui	a2,0x1
    3bd0:	40c40633          	sub	a2,s0,a2
    3bd4:	7d063603          	ld	a2,2000(a2) # 17d0 <.LBB87_5+0x350>
    3bd8:	00a60533          	add	a0,a2,a0
    3bdc:	00001637          	lui	a2,0x1
    3be0:	40c40633          	sub	a2,s0,a2
    3be4:	6d063603          	ld	a2,1744(a2) # 16d0 <.LBB87_5+0x250>
    3be8:	00c50533          	add	a0,a0,a2
    3bec:	41a5863b          	subw	a2,a1,s10
    3bf0:	40c5053b          	subw	a0,a0,a2
    3bf4:	40000637          	lui	a2,0x40000
    3bf8:	000016b7          	lui	a3,0x1
    3bfc:	40d406b3          	sub	a3,s0,a3
    3c00:	52a6b823          	sd	a0,1328(a3) # 1530 <.LBB87_5+0xb0>
    3c04:	f9043683          	ld	a3,-112(s0)
    3c08:	00055463          	bgez	a0,3c10 <.LBB87_90>
    3c0c:	c0000637          	lui	a2,0xc0000

0000000000003c10 <.LBB87_90>:
    3c10:	f8d43823          	sd	a3,-112(s0)
    3c14:	00001537          	lui	a0,0x1
    3c18:	40a40533          	sub	a0,s0,a0
    3c1c:	52c53023          	sd	a2,1312(a0) # 1520 <.LBB87_5+0xa0>
    3c20:	eb043503          	ld	a0,-336(s0)
    3c24:	00001637          	lui	a2,0x1
    3c28:	40c40633          	sub	a2,s0,a2
    3c2c:	7d863603          	ld	a2,2008(a2) # 17d8 <.LBB87_5+0x358>
    3c30:	00a60533          	add	a0,a2,a0
    3c34:	00550533          	add	a0,a0,t0
    3c38:	41a5863b          	subw	a2,a1,s10
    3c3c:	40c5053b          	subw	a0,a0,a2
    3c40:	40000637          	lui	a2,0x40000
    3c44:	000016b7          	lui	a3,0x1
    3c48:	40d406b3          	sub	a3,s0,a3
    3c4c:	4ca6bc23          	sd	a0,1240(a3) # 14d8 <.LBB87_5+0x58>
    3c50:	f9043683          	ld	a3,-112(s0)
    3c54:	00055463          	bgez	a0,3c5c <.LBB87_92>
    3c58:	c0000637          	lui	a2,0xc0000

0000000000003c5c <.LBB87_92>:
    3c5c:	f8d43823          	sd	a3,-112(s0)
    3c60:	00001537          	lui	a0,0x1
    3c64:	40a40533          	sub	a0,s0,a0
    3c68:	4cc53023          	sd	a2,1216(a0) # 14c0 <.LBB87_5+0x40>
    3c6c:	eb843503          	ld	a0,-328(s0)
    3c70:	00001637          	lui	a2,0x1
    3c74:	40c40633          	sub	a2,s0,a2
    3c78:	7e063603          	ld	a2,2016(a2) # 17e0 <.LBB87_5+0x360>
    3c7c:	00a60533          	add	a0,a2,a0
    3c80:	00150533          	add	a0,a0,ra
    3c84:	41a5863b          	subw	a2,a1,s10
    3c88:	40c5053b          	subw	a0,a0,a2
    3c8c:	40000637          	lui	a2,0x40000
    3c90:	000016b7          	lui	a3,0x1
    3c94:	40d406b3          	sub	a3,s0,a3
    3c98:	48a6b023          	sd	a0,1152(a3) # 1480 <.LBB87_5>
    3c9c:	f9043683          	ld	a3,-112(s0)
    3ca0:	00055463          	bgez	a0,3ca8 <.LBB87_94>
    3ca4:	c0000637          	lui	a2,0xc0000

0000000000003ca8 <.LBB87_94>:
    3ca8:	f8d43823          	sd	a3,-112(s0)
    3cac:	00001537          	lui	a0,0x1
    3cb0:	40a40533          	sub	a0,s0,a0
    3cb4:	46c53423          	sd	a2,1128(a0) # 1468 <.LBB87_4+0x5a4>
    3cb8:	ec043503          	ld	a0,-320(s0)
    3cbc:	00001637          	lui	a2,0x1
    3cc0:	40c40633          	sub	a2,s0,a2
    3cc4:	7e863603          	ld	a2,2024(a2) # 17e8 <.LBB87_5+0x368>
    3cc8:	00a60533          	add	a0,a2,a0
    3ccc:	01b50533          	add	a0,a0,s11
    3cd0:	41a5863b          	subw	a2,a1,s10
    3cd4:	40c5053b          	subw	a0,a0,a2
    3cd8:	40000637          	lui	a2,0x40000
    3cdc:	000016b7          	lui	a3,0x1
    3ce0:	40d406b3          	sub	a3,s0,a3
    3ce4:	42a6b823          	sd	a0,1072(a3) # 1430 <.LBB87_4+0x56c>
    3ce8:	f9043683          	ld	a3,-112(s0)
    3cec:	00055463          	bgez	a0,3cf4 <.LBB87_96>
    3cf0:	c0000637          	lui	a2,0xc0000

0000000000003cf4 <.LBB87_96>:
    3cf4:	f8d43823          	sd	a3,-112(s0)
    3cf8:	00001537          	lui	a0,0x1
    3cfc:	40a40533          	sub	a0,s0,a0
    3d00:	40c53c23          	sd	a2,1048(a0) # 1418 <.LBB87_4+0x554>
    3d04:	ec843503          	ld	a0,-312(s0)
    3d08:	00001637          	lui	a2,0x1
    3d0c:	40c40633          	sub	a2,s0,a2
    3d10:	7f063603          	ld	a2,2032(a2) # 17f0 <.LBB87_5+0x370>
    3d14:	00a60533          	add	a0,a2,a0
    3d18:	00001637          	lui	a2,0x1
    3d1c:	40c40633          	sub	a2,s0,a2
    3d20:	6f063603          	ld	a2,1776(a2) # 16f0 <.LBB87_5+0x270>
    3d24:	00c50533          	add	a0,a0,a2
    3d28:	41a5863b          	subw	a2,a1,s10
    3d2c:	40c5053b          	subw	a0,a0,a2
    3d30:	40000637          	lui	a2,0x40000
    3d34:	000016b7          	lui	a3,0x1
    3d38:	40d406b3          	sub	a3,s0,a3
    3d3c:	3ca6b423          	sd	a0,968(a3) # 13c8 <.LBB87_4+0x504>
    3d40:	f9043683          	ld	a3,-112(s0)
    3d44:	00055463          	bgez	a0,3d4c <.LBB87_98>
    3d48:	c0000637          	lui	a2,0xc0000

0000000000003d4c <.LBB87_98>:
    3d4c:	f8d43823          	sd	a3,-112(s0)
    3d50:	00001537          	lui	a0,0x1
    3d54:	40a40533          	sub	a0,s0,a0
    3d58:	3ac53c23          	sd	a2,952(a0) # 13b8 <.LBB87_4+0x4f4>
    3d5c:	ed043503          	ld	a0,-304(s0)
    3d60:	00001637          	lui	a2,0x1
    3d64:	40c40633          	sub	a2,s0,a2
    3d68:	7f863603          	ld	a2,2040(a2) # 17f8 <.LBB87_5+0x378>
    3d6c:	00a60533          	add	a0,a2,a0
    3d70:	01950533          	add	a0,a0,s9
    3d74:	41a5863b          	subw	a2,a1,s10
    3d78:	40c5053b          	subw	a0,a0,a2
    3d7c:	40000637          	lui	a2,0x40000
    3d80:	000016b7          	lui	a3,0x1
    3d84:	40d406b3          	sub	a3,s0,a3
    3d88:	36a6b423          	sd	a0,872(a3) # 1368 <.LBB87_4+0x4a4>
    3d8c:	f9043683          	ld	a3,-112(s0)
    3d90:	00055463          	bgez	a0,3d98 <.LBB87_100>
    3d94:	c0000637          	lui	a2,0xc0000

0000000000003d98 <.LBB87_100>:
    3d98:	f8d43823          	sd	a3,-112(s0)
    3d9c:	00001537          	lui	a0,0x1
    3da0:	40a40533          	sub	a0,s0,a0
    3da4:	34c53c23          	sd	a2,856(a0) # 1358 <.LBB87_4+0x494>
    3da8:	ed843503          	ld	a0,-296(s0)
    3dac:	80043603          	ld	a2,-2048(s0)
    3db0:	00a60533          	add	a0,a2,a0
    3db4:	01850533          	add	a0,a0,s8
    3db8:	41a5863b          	subw	a2,a1,s10
    3dbc:	40c5053b          	subw	a0,a0,a2
    3dc0:	40000637          	lui	a2,0x40000
    3dc4:	000016b7          	lui	a3,0x1
    3dc8:	40d406b3          	sub	a3,s0,a3
    3dcc:	30a6b023          	sd	a0,768(a3) # 1300 <.LBB87_4+0x43c>
    3dd0:	f9043683          	ld	a3,-112(s0)
    3dd4:	00055463          	bgez	a0,3ddc <.LBB87_102>
    3dd8:	c0000637          	lui	a2,0xc0000

0000000000003ddc <.LBB87_102>:
    3ddc:	f8d43823          	sd	a3,-112(s0)
    3de0:	00001537          	lui	a0,0x1
    3de4:	40a40533          	sub	a0,s0,a0
    3de8:	2ec53823          	sd	a2,752(a0) # 12f0 <.LBB87_4+0x42c>
    3dec:	ee043503          	ld	a0,-288(s0)
    3df0:	80843603          	ld	a2,-2040(s0)
    3df4:	00a60533          	add	a0,a2,a0
    3df8:	01750533          	add	a0,a0,s7
    3dfc:	41a5863b          	subw	a2,a1,s10
    3e00:	40c5053b          	subw	a0,a0,a2
    3e04:	40000637          	lui	a2,0x40000
    3e08:	000016b7          	lui	a3,0x1
    3e0c:	40d406b3          	sub	a3,s0,a3
    3e10:	28a6bc23          	sd	a0,664(a3) # 1298 <.LBB87_4+0x3d4>
    3e14:	f9043683          	ld	a3,-112(s0)
    3e18:	00055463          	bgez	a0,3e20 <.LBB87_104>
    3e1c:	c0000637          	lui	a2,0xc0000

0000000000003e20 <.LBB87_104>:
    3e20:	f8d43823          	sd	a3,-112(s0)
    3e24:	00001537          	lui	a0,0x1
    3e28:	40a40533          	sub	a0,s0,a0
    3e2c:	28c53423          	sd	a2,648(a0) # 1288 <.LBB87_4+0x3c4>
    3e30:	ee843503          	ld	a0,-280(s0)
    3e34:	81043603          	ld	a2,-2032(s0)
    3e38:	00a60533          	add	a0,a2,a0
    3e3c:	01650533          	add	a0,a0,s6
    3e40:	41a5863b          	subw	a2,a1,s10
    3e44:	40c5053b          	subw	a0,a0,a2
    3e48:	40000637          	lui	a2,0x40000
    3e4c:	000016b7          	lui	a3,0x1
    3e50:	40d406b3          	sub	a3,s0,a3
    3e54:	22a6b023          	sd	a0,544(a3) # 1220 <.LBB87_4+0x35c>
    3e58:	f9043683          	ld	a3,-112(s0)
    3e5c:	00055463          	bgez	a0,3e64 <.LBB87_106>
    3e60:	c0000637          	lui	a2,0xc0000

0000000000003e64 <.LBB87_106>:
    3e64:	f8d43823          	sd	a3,-112(s0)
    3e68:	00001537          	lui	a0,0x1
    3e6c:	40a40533          	sub	a0,s0,a0
    3e70:	20c53823          	sd	a2,528(a0) # 1210 <.LBB87_4+0x34c>
    3e74:	ef043503          	ld	a0,-272(s0)
    3e78:	81843603          	ld	a2,-2024(s0)
    3e7c:	00a60533          	add	a0,a2,a0
    3e80:	01e50533          	add	a0,a0,t5
    3e84:	41a5863b          	subw	a2,a1,s10
    3e88:	40c5053b          	subw	a0,a0,a2
    3e8c:	40000637          	lui	a2,0x40000
    3e90:	000016b7          	lui	a3,0x1
    3e94:	40d406b3          	sub	a3,s0,a3
    3e98:	1aa6b423          	sd	a0,424(a3) # 11a8 <.LBB87_4+0x2e4>
    3e9c:	f9043683          	ld	a3,-112(s0)
    3ea0:	00055463          	bgez	a0,3ea8 <.LBB87_108>
    3ea4:	c0000637          	lui	a2,0xc0000

0000000000003ea8 <.LBB87_108>:
    3ea8:	f8d43823          	sd	a3,-112(s0)
    3eac:	00001537          	lui	a0,0x1
    3eb0:	40a40533          	sub	a0,s0,a0
    3eb4:	18c53c23          	sd	a2,408(a0) # 1198 <.LBB87_4+0x2d4>
    3eb8:	ef843503          	ld	a0,-264(s0)
    3ebc:	82043603          	ld	a2,-2016(s0)
    3ec0:	00a60533          	add	a0,a2,a0
    3ec4:	01450533          	add	a0,a0,s4
    3ec8:	41a5863b          	subw	a2,a1,s10
    3ecc:	40c5053b          	subw	a0,a0,a2
    3ed0:	40000637          	lui	a2,0x40000
    3ed4:	000016b7          	lui	a3,0x1
    3ed8:	40d406b3          	sub	a3,s0,a3
    3edc:	12a6b823          	sd	a0,304(a3) # 1130 <.LBB87_4+0x26c>
    3ee0:	f9043683          	ld	a3,-112(s0)
    3ee4:	00055463          	bgez	a0,3eec <.LBB87_110>
    3ee8:	c0000637          	lui	a2,0xc0000

0000000000003eec <.LBB87_110>:
    3eec:	f8d43823          	sd	a3,-112(s0)
    3ef0:	00001537          	lui	a0,0x1
    3ef4:	40a40533          	sub	a0,s0,a0
    3ef8:	12c53023          	sd	a2,288(a0) # 1120 <.LBB87_4+0x25c>
    3efc:	f3043503          	ld	a0,-208(s0)
    3f00:	82843603          	ld	a2,-2008(s0)
    3f04:	00a60533          	add	a0,a2,a0
    3f08:	01350533          	add	a0,a0,s3
    3f0c:	41a5863b          	subw	a2,a1,s10
    3f10:	40c5053b          	subw	a0,a0,a2
    3f14:	40000637          	lui	a2,0x40000
    3f18:	000016b7          	lui	a3,0x1
    3f1c:	40d406b3          	sub	a3,s0,a3
    3f20:	0aa6bc23          	sd	a0,184(a3) # 10b8 <.LBB87_4+0x1f4>
    3f24:	f9043683          	ld	a3,-112(s0)
    3f28:	00055463          	bgez	a0,3f30 <.LBB87_112>
    3f2c:	c0000637          	lui	a2,0xc0000

0000000000003f30 <.LBB87_112>:
    3f30:	f8d43823          	sd	a3,-112(s0)
    3f34:	00001537          	lui	a0,0x1
    3f38:	40a40533          	sub	a0,s0,a0
    3f3c:	0ac53423          	sd	a2,168(a0) # 10a8 <.LBB87_4+0x1e4>
    3f40:	f3843503          	ld	a0,-200(s0)
    3f44:	83043603          	ld	a2,-2000(s0)
    3f48:	00a60533          	add	a0,a2,a0
    3f4c:	01250533          	add	a0,a0,s2
    3f50:	41a5863b          	subw	a2,a1,s10
    3f54:	40c5053b          	subw	a0,a0,a2
    3f58:	40000637          	lui	a2,0x40000
    3f5c:	000016b7          	lui	a3,0x1
    3f60:	40d406b3          	sub	a3,s0,a3
    3f64:	04a6b023          	sd	a0,64(a3) # 1040 <.LBB87_4+0x17c>
    3f68:	f9043683          	ld	a3,-112(s0)
    3f6c:	00055463          	bgez	a0,3f74 <.LBB87_114>
    3f70:	c0000637          	lui	a2,0xc0000

0000000000003f74 <.LBB87_114>:
    3f74:	f8d43823          	sd	a3,-112(s0)
    3f78:	00001537          	lui	a0,0x1
    3f7c:	40a40533          	sub	a0,s0,a0
    3f80:	02c53823          	sd	a2,48(a0) # 1030 <.LBB87_4+0x16c>
    3f84:	f4043503          	ld	a0,-192(s0)
    3f88:	83843603          	ld	a2,-1992(s0)
    3f8c:	00a60533          	add	a0,a2,a0
    3f90:	00001637          	lui	a2,0x1
    3f94:	40c40633          	sub	a2,s0,a2
    3f98:	73863603          	ld	a2,1848(a2) # 1738 <.LBB87_5+0x2b8>
    3f9c:	00c50533          	add	a0,a0,a2
    3fa0:	41a5863b          	subw	a2,a1,s10
    3fa4:	40c5053b          	subw	a0,a0,a2
    3fa8:	40000637          	lui	a2,0x40000
    3fac:	000016b7          	lui	a3,0x1
    3fb0:	40d406b3          	sub	a3,s0,a3
    3fb4:	fca6b423          	sd	a0,-56(a3) # fc8 <.LBB87_4+0x104>
    3fb8:	f9043683          	ld	a3,-112(s0)
    3fbc:	00055463          	bgez	a0,3fc4 <.LBB87_116>
    3fc0:	c0000637          	lui	a2,0xc0000

0000000000003fc4 <.LBB87_116>:
    3fc4:	f8d43823          	sd	a3,-112(s0)
    3fc8:	00001537          	lui	a0,0x1
    3fcc:	40a40533          	sub	a0,s0,a0
    3fd0:	fac53c23          	sd	a2,-72(a0) # fb8 <.LBB87_4+0xf4>
    3fd4:	f4843503          	ld	a0,-184(s0)
    3fd8:	84043603          	ld	a2,-1984(s0)
    3fdc:	00a60533          	add	a0,a2,a0
    3fe0:	00001637          	lui	a2,0x1
    3fe4:	40c40633          	sub	a2,s0,a2
    3fe8:	74063603          	ld	a2,1856(a2) # 1740 <.LBB87_5+0x2c0>
    3fec:	00c50533          	add	a0,a0,a2
    3ff0:	41a5863b          	subw	a2,a1,s10
    3ff4:	40c5053b          	subw	a0,a0,a2
    3ff8:	40000637          	lui	a2,0x40000
    3ffc:	000016b7          	lui	a3,0x1
    4000:	40d406b3          	sub	a3,s0,a3
    4004:	f4a6b823          	sd	a0,-176(a3) # f50 <.LBB87_4+0x8c>
    4008:	f9043683          	ld	a3,-112(s0)
    400c:	00055463          	bgez	a0,4014 <.LBB87_118>
    4010:	c0000637          	lui	a2,0xc0000

0000000000004014 <.LBB87_118>:
    4014:	f8d43823          	sd	a3,-112(s0)
    4018:	00001537          	lui	a0,0x1
    401c:	40a40533          	sub	a0,s0,a0
    4020:	f4c53023          	sd	a2,-192(a0) # f40 <.LBB87_4+0x7c>
    4024:	f5043503          	ld	a0,-176(s0)
    4028:	84843603          	ld	a2,-1976(s0)
    402c:	00a60533          	add	a0,a2,a0
    4030:	00001637          	lui	a2,0x1
    4034:	40c40633          	sub	a2,s0,a2
    4038:	74863603          	ld	a2,1864(a2) # 1748 <.LBB87_5+0x2c8>
    403c:	00c50533          	add	a0,a0,a2
    4040:	41a5863b          	subw	a2,a1,s10
    4044:	40c5053b          	subw	a0,a0,a2
    4048:	40000637          	lui	a2,0x40000
    404c:	000016b7          	lui	a3,0x1
    4050:	40d406b3          	sub	a3,s0,a3
    4054:	eea6b023          	sd	a0,-288(a3) # ee0 <.LBB87_4+0x1c>
    4058:	f9043683          	ld	a3,-112(s0)
    405c:	00055463          	bgez	a0,4064 <.LBB87_120>
    4060:	c0000637          	lui	a2,0xc0000

0000000000004064 <.LBB87_120>:
    4064:	f8d43823          	sd	a3,-112(s0)
    4068:	00001537          	lui	a0,0x1
    406c:	40a40533          	sub	a0,s0,a0
    4070:	ecc53823          	sd	a2,-304(a0) # ed0 <.LBB87_4+0xc>
    4074:	f5843503          	ld	a0,-168(s0)
    4078:	85043603          	ld	a2,-1968(s0)
    407c:	00a60533          	add	a0,a2,a0
    4080:	00001637          	lui	a2,0x1
    4084:	40c40633          	sub	a2,s0,a2
    4088:	75063603          	ld	a2,1872(a2) # 1750 <.LBB87_5+0x2d0>
    408c:	00c50533          	add	a0,a0,a2
    4090:	41a5863b          	subw	a2,a1,s10
    4094:	40c5053b          	subw	a0,a0,a2
    4098:	40000637          	lui	a2,0x40000
    409c:	000016b7          	lui	a3,0x1
    40a0:	40d406b3          	sub	a3,s0,a3
    40a4:	e6a6b423          	sd	a0,-408(a3) # e68 <.LBB87_3+0xbfc>
    40a8:	f9043683          	ld	a3,-112(s0)
    40ac:	00055463          	bgez	a0,40b4 <.LBB87_122>
    40b0:	c0000637          	lui	a2,0xc0000

00000000000040b4 <.LBB87_122>:
    40b4:	f8d43823          	sd	a3,-112(s0)
    40b8:	00001537          	lui	a0,0x1
    40bc:	40a40533          	sub	a0,s0,a0
    40c0:	e4c53c23          	sd	a2,-424(a0) # e58 <.LBB87_3+0xbec>
    40c4:	f6043503          	ld	a0,-160(s0)
    40c8:	85843603          	ld	a2,-1960(s0)
    40cc:	00a60533          	add	a0,a2,a0
    40d0:	00001637          	lui	a2,0x1
    40d4:	40c40633          	sub	a2,s0,a2
    40d8:	75863603          	ld	a2,1880(a2) # 1758 <.LBB87_5+0x2d8>
    40dc:	00c50533          	add	a0,a0,a2
    40e0:	41a5863b          	subw	a2,a1,s10
    40e4:	40c5053b          	subw	a0,a0,a2
    40e8:	40000637          	lui	a2,0x40000
    40ec:	000016b7          	lui	a3,0x1
    40f0:	40d406b3          	sub	a3,s0,a3
    40f4:	dea6bc23          	sd	a0,-520(a3) # df8 <.LBB87_3+0xb8c>
    40f8:	f9043683          	ld	a3,-112(s0)
    40fc:	00055463          	bgez	a0,4104 <.LBB87_124>
    4100:	c0000637          	lui	a2,0xc0000

0000000000004104 <.LBB87_124>:
    4104:	f8d43823          	sd	a3,-112(s0)
    4108:	00001537          	lui	a0,0x1
    410c:	40a40533          	sub	a0,s0,a0
    4110:	dec53423          	sd	a2,-536(a0) # de8 <.LBB87_3+0xb7c>
    4114:	f6843503          	ld	a0,-152(s0)
    4118:	86043603          	ld	a2,-1952(s0)
    411c:	00a60533          	add	a0,a2,a0
    4120:	01550533          	add	a0,a0,s5
    4124:	41a5863b          	subw	a2,a1,s10
    4128:	40c5053b          	subw	a0,a0,a2
    412c:	40000637          	lui	a2,0x40000
    4130:	000016b7          	lui	a3,0x1
    4134:	40d406b3          	sub	a3,s0,a3
    4138:	d8a6b023          	sd	a0,-640(a3) # d80 <.LBB87_3+0xb14>
    413c:	f9043683          	ld	a3,-112(s0)
    4140:	00055463          	bgez	a0,4148 <.LBB87_126>
    4144:	c0000637          	lui	a2,0xc0000

0000000000004148 <.LBB87_126>:
    4148:	f8d43823          	sd	a3,-112(s0)
    414c:	00001537          	lui	a0,0x1
    4150:	40a40533          	sub	a0,s0,a0
    4154:	d6c53823          	sd	a2,-656(a0) # d70 <.LBB87_3+0xb04>
    4158:	f7043503          	ld	a0,-144(s0)
    415c:	86843603          	ld	a2,-1944(s0)
    4160:	00a60533          	add	a0,a2,a0
    4164:	01f50533          	add	a0,a0,t6
    4168:	41a5863b          	subw	a2,a1,s10
    416c:	40c5053b          	subw	a0,a0,a2
    4170:	40000637          	lui	a2,0x40000
    4174:	000016b7          	lui	a3,0x1
    4178:	40d406b3          	sub	a3,s0,a3
    417c:	d0a6b423          	sd	a0,-760(a3) # d08 <.LBB87_3+0xa9c>
    4180:	f9043683          	ld	a3,-112(s0)
    4184:	00055463          	bgez	a0,418c <.LBB87_128>
    4188:	c0000637          	lui	a2,0xc0000

000000000000418c <.LBB87_128>:
    418c:	f8d43823          	sd	a3,-112(s0)
    4190:	00001537          	lui	a0,0x1
    4194:	40a40533          	sub	a0,s0,a0
    4198:	cec53c23          	sd	a2,-776(a0) # cf8 <.LBB87_3+0xa8c>
    419c:	f7843503          	ld	a0,-136(s0)
    41a0:	87043603          	ld	a2,-1936(s0)
    41a4:	00a60533          	add	a0,a2,a0
    41a8:	01150533          	add	a0,a0,a7
    41ac:	41a5863b          	subw	a2,a1,s10
    41b0:	40c5053b          	subw	a0,a0,a2
    41b4:	40000637          	lui	a2,0x40000
    41b8:	000016b7          	lui	a3,0x1
    41bc:	40d406b3          	sub	a3,s0,a3
    41c0:	c8a6bc23          	sd	a0,-872(a3) # c98 <.LBB87_3+0xa2c>
    41c4:	f9043683          	ld	a3,-112(s0)
    41c8:	00055463          	bgez	a0,41d0 <.LBB87_130>
    41cc:	c0000637          	lui	a2,0xc0000

00000000000041d0 <.LBB87_130>:
    41d0:	f8d43823          	sd	a3,-112(s0)
    41d4:	00001537          	lui	a0,0x1
    41d8:	40a40533          	sub	a0,s0,a0
    41dc:	c8c53823          	sd	a2,-880(a0) # c90 <.LBB87_3+0xa24>
    41e0:	f8043503          	ld	a0,-128(s0)
    41e4:	87843603          	ld	a2,-1928(s0)
    41e8:	00a60533          	add	a0,a2,a0
    41ec:	00001637          	lui	a2,0x1
    41f0:	40c40633          	sub	a2,s0,a2
    41f4:	77863603          	ld	a2,1912(a2) # 1778 <.LBB87_5+0x2f8>
    41f8:	00c50533          	add	a0,a0,a2
    41fc:	41a5863b          	subw	a2,a1,s10
    4200:	40c5053b          	subw	a0,a0,a2
    4204:	40000637          	lui	a2,0x40000
    4208:	000016b7          	lui	a3,0x1
    420c:	40d406b3          	sub	a3,s0,a3
    4210:	c4a6b823          	sd	a0,-944(a3) # c50 <.LBB87_3+0x9e4>
    4214:	f9043683          	ld	a3,-112(s0)
    4218:	00055463          	bgez	a0,4220 <.LBB87_132>
    421c:	c0000637          	lui	a2,0xc0000

0000000000004220 <.LBB87_132>:
    4220:	00001537          	lui	a0,0x1
    4224:	40a40533          	sub	a0,s0,a0
    4228:	c4c53423          	sd	a2,-952(a0) # c48 <.LBB87_3+0x9dc>
    422c:	f8843503          	ld	a0,-120(s0)
    4230:	00a70533          	add	a0,a4,a0
    4234:	00d50533          	add	a0,a0,a3
    4238:	41a585bb          	subw	a1,a1,s10
    423c:	40b5073b          	subw	a4,a0,a1
    4240:	40000537          	lui	a0,0x40000
    4244:	00075463          	bgez	a4,424c <.LBB87_134>
    4248:	c0000537          	lui	a0,0xc0000

000000000000424c <.LBB87_134>:
    424c:	000015b7          	lui	a1,0x1
    4250:	40b405b3          	sub	a1,s0,a1
    4254:	baa5b823          	sd	a0,-1104(a1) # bb0 <.LBB87_3+0x944>
    4258:	ea843583          	ld	a1,-344(s0)
    425c:	88843503          	ld	a0,-1912(s0)
    4260:	00b505b3          	add	a1,a0,a1
    4264:	00001537          	lui	a0,0x1
    4268:	40a40533          	sub	a0,s0,a0
    426c:	5c853503          	ld	a0,1480(a0) # 15c8 <.LBB87_5+0x148>
    4270:	02950533          	mul	a0,a0,s1
    4274:	ea043603          	ld	a2,-352(s0)
    4278:	00c585b3          	add	a1,a1,a2
    427c:	41a5063b          	subw	a2,a0,s10
    4280:	40c585bb          	subw	a1,a1,a2
    4284:	40000637          	lui	a2,0x40000
    4288:	88b43423          	sd	a1,-1912(s0)
    428c:	0005d463          	bgez	a1,4294 <.LBB87_136>
    4290:	c0000637          	lui	a2,0xc0000

0000000000004294 <.LBB87_136>:
    4294:	88c43023          	sd	a2,-1920(s0)
    4298:	e9843583          	ld	a1,-360(s0)
    429c:	89043603          	ld	a2,-1904(s0)
    42a0:	00b605b3          	add	a1,a2,a1
    42a4:	e9043603          	ld	a2,-368(s0)
    42a8:	00c585b3          	add	a1,a1,a2
    42ac:	41a5063b          	subw	a2,a0,s10
    42b0:	40c585bb          	subw	a1,a1,a2
    42b4:	40000637          	lui	a2,0x40000
    42b8:	88b43823          	sd	a1,-1904(s0)
    42bc:	0005d463          	bgez	a1,42c4 <.LBB87_138>
    42c0:	c0000637          	lui	a2,0xc0000

00000000000042c4 <.LBB87_138>:
    42c4:	86c43c23          	sd	a2,-1928(s0)
    42c8:	e8843583          	ld	a1,-376(s0)
    42cc:	89843603          	ld	a2,-1896(s0)
    42d0:	00b605b3          	add	a1,a2,a1
    42d4:	e8043603          	ld	a2,-384(s0)
    42d8:	00c585b3          	add	a1,a1,a2
    42dc:	41a5063b          	subw	a2,a0,s10
    42e0:	40c585bb          	subw	a1,a1,a2
    42e4:	40000637          	lui	a2,0x40000
    42e8:	88b43c23          	sd	a1,-1896(s0)
    42ec:	0005d463          	bgez	a1,42f4 <.LBB87_140>
    42f0:	c0000637          	lui	a2,0xc0000

00000000000042f4 <.LBB87_140>:
    42f4:	86c43823          	sd	a2,-1936(s0)
    42f8:	e7843583          	ld	a1,-392(s0)
    42fc:	8a043603          	ld	a2,-1888(s0)
    4300:	00b605b3          	add	a1,a2,a1
    4304:	e7043603          	ld	a2,-400(s0)
    4308:	00c585b3          	add	a1,a1,a2
    430c:	41a5063b          	subw	a2,a0,s10
    4310:	40c585bb          	subw	a1,a1,a2
    4314:	40000637          	lui	a2,0x40000
    4318:	8ab43023          	sd	a1,-1888(s0)
    431c:	0005d463          	bgez	a1,4324 <.LBB87_142>
    4320:	c0000637          	lui	a2,0xc0000

0000000000004324 <.LBB87_142>:
    4324:	86c43423          	sd	a2,-1944(s0)
    4328:	e6843583          	ld	a1,-408(s0)
    432c:	8a843603          	ld	a2,-1880(s0)
    4330:	00b605b3          	add	a1,a2,a1
    4334:	e6043603          	ld	a2,-416(s0)
    4338:	00c585b3          	add	a1,a1,a2
    433c:	41a5063b          	subw	a2,a0,s10
    4340:	40c585bb          	subw	a1,a1,a2
    4344:	40000637          	lui	a2,0x40000
    4348:	8ab43423          	sd	a1,-1880(s0)
    434c:	0005d463          	bgez	a1,4354 <.LBB87_144>
    4350:	c0000637          	lui	a2,0xc0000

0000000000004354 <.LBB87_144>:
    4354:	86c43023          	sd	a2,-1952(s0)
    4358:	000015b7          	lui	a1,0x1
    435c:	40b405b3          	sub	a1,s0,a1
    4360:	6c85b583          	ld	a1,1736(a1) # 16c8 <.LBB87_5+0x248>
    4364:	8b043603          	ld	a2,-1872(s0)
    4368:	00b605b3          	add	a1,a2,a1
    436c:	00001637          	lui	a2,0x1
    4370:	40c40633          	sub	a2,s0,a2
    4374:	6c063603          	ld	a2,1728(a2) # 16c0 <.LBB87_5+0x240>
    4378:	00c585b3          	add	a1,a1,a2
    437c:	41a5063b          	subw	a2,a0,s10
    4380:	40c585bb          	subw	a1,a1,a2
    4384:	40000637          	lui	a2,0x40000
    4388:	8ab43823          	sd	a1,-1872(s0)
    438c:	0005d463          	bgez	a1,4394 <.LBB87_146>
    4390:	c0000637          	lui	a2,0xc0000

0000000000004394 <.LBB87_146>:
    4394:	84c43c23          	sd	a2,-1960(s0)
    4398:	f8d43823          	sd	a3,-112(s0)
    439c:	000015b7          	lui	a1,0x1
    43a0:	40b405b3          	sub	a1,s0,a1
    43a4:	6b85b583          	ld	a1,1720(a1) # 16b8 <.LBB87_5+0x238>
    43a8:	8b843603          	ld	a2,-1864(s0)
    43ac:	00b605b3          	add	a1,a2,a1
    43b0:	00001637          	lui	a2,0x1
    43b4:	40c40633          	sub	a2,s0,a2
    43b8:	6b063603          	ld	a2,1712(a2) # 16b0 <.LBB87_5+0x230>
    43bc:	00c585b3          	add	a1,a1,a2
    43c0:	41a5063b          	subw	a2,a0,s10
    43c4:	40c585bb          	subw	a1,a1,a2
    43c8:	40000637          	lui	a2,0x40000
    43cc:	000016b7          	lui	a3,0x1
    43d0:	40d406b3          	sub	a3,s0,a3
    43d4:	7eb6bc23          	sd	a1,2040(a3) # 17f8 <.LBB87_5+0x378>
    43d8:	f9043683          	ld	a3,-112(s0)
    43dc:	0005d463          	bgez	a1,43e4 <.LBB87_148>
    43e0:	c0000637          	lui	a2,0xc0000

00000000000043e4 <.LBB87_148>:
    43e4:	f8d43823          	sd	a3,-112(s0)
    43e8:	000015b7          	lui	a1,0x1
    43ec:	40b405b3          	sub	a1,s0,a1
    43f0:	7cc5bc23          	sd	a2,2008(a1) # 17d8 <.LBB87_5+0x358>
    43f4:	000015b7          	lui	a1,0x1
    43f8:	40b405b3          	sub	a1,s0,a1
    43fc:	6a85b583          	ld	a1,1704(a1) # 16a8 <.LBB87_5+0x228>
    4400:	8c043603          	ld	a2,-1856(s0)
    4404:	00b605b3          	add	a1,a2,a1
    4408:	00001637          	lui	a2,0x1
    440c:	40c40633          	sub	a2,s0,a2
    4410:	6a063603          	ld	a2,1696(a2) # 16a0 <.LBB87_5+0x220>
    4414:	00c585b3          	add	a1,a1,a2
    4418:	41a5063b          	subw	a2,a0,s10
    441c:	40c585bb          	subw	a1,a1,a2
    4420:	40000637          	lui	a2,0x40000
    4424:	000016b7          	lui	a3,0x1
    4428:	40d406b3          	sub	a3,s0,a3
    442c:	6eb6b423          	sd	a1,1768(a3) # 16e8 <.LBB87_5+0x268>
    4430:	f9043683          	ld	a3,-112(s0)
    4434:	0005d463          	bgez	a1,443c <.LBB87_150>
    4438:	c0000637          	lui	a2,0xc0000

000000000000443c <.LBB87_150>:
    443c:	f8d43823          	sd	a3,-112(s0)
    4440:	000015b7          	lui	a1,0x1
    4444:	40b405b3          	sub	a1,s0,a1
    4448:	5cc5b423          	sd	a2,1480(a1) # 15c8 <.LBB87_5+0x148>
    444c:	8c843583          	ld	a1,-1848(s0)
    4450:	00001637          	lui	a2,0x1
    4454:	40c40633          	sub	a2,s0,a2
    4458:	69863603          	ld	a2,1688(a2) # 1698 <.LBB87_5+0x218>
    445c:	00c585b3          	add	a1,a1,a2
    4460:	00001637          	lui	a2,0x1
    4464:	40c40633          	sub	a2,s0,a2
    4468:	69063603          	ld	a2,1680(a2) # 1690 <.LBB87_5+0x210>
    446c:	00c585b3          	add	a1,a1,a2
    4470:	41a5063b          	subw	a2,a0,s10
    4474:	40c585bb          	subw	a1,a1,a2
    4478:	40000637          	lui	a2,0x40000
    447c:	000016b7          	lui	a3,0x1
    4480:	40d406b3          	sub	a3,s0,a3
    4484:	58b6b023          	sd	a1,1408(a3) # 1580 <.LBB87_5+0x100>
    4488:	f9043683          	ld	a3,-112(s0)
    448c:	0005d463          	bgez	a1,4494 <.LBB87_152>
    4490:	c0000637          	lui	a2,0xc0000

0000000000004494 <.LBB87_152>:
    4494:	f8d43823          	sd	a3,-112(s0)
    4498:	000015b7          	lui	a1,0x1
    449c:	40b405b3          	sub	a1,s0,a1
    44a0:	56c5b823          	sd	a2,1392(a1) # 1570 <.LBB87_5+0xf0>
    44a4:	8d043583          	ld	a1,-1840(s0)
    44a8:	00001637          	lui	a2,0x1
    44ac:	40c40633          	sub	a2,s0,a2
    44b0:	68863603          	ld	a2,1672(a2) # 1688 <.LBB87_5+0x208>
    44b4:	00c585b3          	add	a1,a1,a2
    44b8:	00001637          	lui	a2,0x1
    44bc:	40c40633          	sub	a2,s0,a2
    44c0:	6d063603          	ld	a2,1744(a2) # 16d0 <.LBB87_5+0x250>
    44c4:	00c585b3          	add	a1,a1,a2
    44c8:	41a5063b          	subw	a2,a0,s10
    44cc:	40c585bb          	subw	a1,a1,a2
    44d0:	40000637          	lui	a2,0x40000
    44d4:	000016b7          	lui	a3,0x1
    44d8:	40d406b3          	sub	a3,s0,a3
    44dc:	52b6b423          	sd	a1,1320(a3) # 1528 <.LBB87_5+0xa8>
    44e0:	f9043683          	ld	a3,-112(s0)
    44e4:	0005d463          	bgez	a1,44ec <.LBB87_154>
    44e8:	c0000637          	lui	a2,0xc0000

00000000000044ec <.LBB87_154>:
    44ec:	f8d43823          	sd	a3,-112(s0)
    44f0:	000015b7          	lui	a1,0x1
    44f4:	40b405b3          	sub	a1,s0,a1
    44f8:	50c5b823          	sd	a2,1296(a1) # 1510 <.LBB87_5+0x90>
    44fc:	8d843583          	ld	a1,-1832(s0)
    4500:	eb043603          	ld	a2,-336(s0)
    4504:	00c585b3          	add	a1,a1,a2
    4508:	005585b3          	add	a1,a1,t0
    450c:	41a5063b          	subw	a2,a0,s10
    4510:	40c585bb          	subw	a1,a1,a2
    4514:	40000637          	lui	a2,0x40000
    4518:	000016b7          	lui	a3,0x1
    451c:	40d406b3          	sub	a3,s0,a3
    4520:	4cb6b423          	sd	a1,1224(a3) # 14c8 <.LBB87_5+0x48>
    4524:	f9043683          	ld	a3,-112(s0)
    4528:	0005d463          	bgez	a1,4530 <.LBB87_156>
    452c:	c0000637          	lui	a2,0xc0000

0000000000004530 <.LBB87_156>:
    4530:	f8d43823          	sd	a3,-112(s0)
    4534:	000015b7          	lui	a1,0x1
    4538:	40b405b3          	sub	a1,s0,a1
    453c:	4ac5bc23          	sd	a2,1208(a1) # 14b8 <.LBB87_5+0x38>
    4540:	8e043583          	ld	a1,-1824(s0)
    4544:	eb843603          	ld	a2,-328(s0)
    4548:	00c585b3          	add	a1,a1,a2
    454c:	001585b3          	add	a1,a1,ra
    4550:	41a5063b          	subw	a2,a0,s10
    4554:	40c585bb          	subw	a1,a1,a2
    4558:	40000637          	lui	a2,0x40000
    455c:	000016b7          	lui	a3,0x1
    4560:	40d406b3          	sub	a3,s0,a3
    4564:	46b6bc23          	sd	a1,1144(a3) # 1478 <.LBB87_4+0x5b4>
    4568:	f9043683          	ld	a3,-112(s0)
    456c:	0005d463          	bgez	a1,4574 <.LBB87_158>
    4570:	c0000637          	lui	a2,0xc0000

0000000000004574 <.LBB87_158>:
    4574:	f8d43823          	sd	a3,-112(s0)
    4578:	000015b7          	lui	a1,0x1
    457c:	40b405b3          	sub	a1,s0,a1
    4580:	46c5b023          	sd	a2,1120(a1) # 1460 <.LBB87_4+0x59c>
    4584:	8e843583          	ld	a1,-1816(s0)
    4588:	ec043603          	ld	a2,-320(s0)
    458c:	00c585b3          	add	a1,a1,a2
    4590:	01b585b3          	add	a1,a1,s11
    4594:	41a5063b          	subw	a2,a0,s10
    4598:	40c585bb          	subw	a1,a1,a2
    459c:	40000637          	lui	a2,0x40000
    45a0:	000016b7          	lui	a3,0x1
    45a4:	40d406b3          	sub	a3,s0,a3
    45a8:	42b6b023          	sd	a1,1056(a3) # 1420 <.LBB87_4+0x55c>
    45ac:	f9043683          	ld	a3,-112(s0)
    45b0:	0005d463          	bgez	a1,45b8 <.LBB87_160>
    45b4:	c0000637          	lui	a2,0xc0000

00000000000045b8 <.LBB87_160>:
    45b8:	f8d43823          	sd	a3,-112(s0)
    45bc:	000015b7          	lui	a1,0x1
    45c0:	40b405b3          	sub	a1,s0,a1
    45c4:	40c5b423          	sd	a2,1032(a1) # 1408 <.LBB87_4+0x544>
    45c8:	8f043583          	ld	a1,-1808(s0)
    45cc:	ec843603          	ld	a2,-312(s0)
    45d0:	00c585b3          	add	a1,a1,a2
    45d4:	00001637          	lui	a2,0x1
    45d8:	40c40633          	sub	a2,s0,a2
    45dc:	6f063603          	ld	a2,1776(a2) # 16f0 <.LBB87_5+0x270>
    45e0:	00c585b3          	add	a1,a1,a2
    45e4:	41a5063b          	subw	a2,a0,s10
    45e8:	40c585bb          	subw	a1,a1,a2
    45ec:	40000637          	lui	a2,0x40000
    45f0:	000016b7          	lui	a3,0x1
    45f4:	40d406b3          	sub	a3,s0,a3
    45f8:	3cb6b023          	sd	a1,960(a3) # 13c0 <.LBB87_4+0x4fc>
    45fc:	f9043683          	ld	a3,-112(s0)
    4600:	0005d463          	bgez	a1,4608 <.LBB87_162>
    4604:	c0000637          	lui	a2,0xc0000

0000000000004608 <.LBB87_162>:
    4608:	f8d43823          	sd	a3,-112(s0)
    460c:	000015b7          	lui	a1,0x1
    4610:	40b405b3          	sub	a1,s0,a1
    4614:	3ac5b423          	sd	a2,936(a1) # 13a8 <.LBB87_4+0x4e4>
    4618:	8f843583          	ld	a1,-1800(s0)
    461c:	ed043603          	ld	a2,-304(s0)
    4620:	00c585b3          	add	a1,a1,a2
    4624:	019585b3          	add	a1,a1,s9
    4628:	41a5063b          	subw	a2,a0,s10
    462c:	40c585bb          	subw	a1,a1,a2
    4630:	40000637          	lui	a2,0x40000
    4634:	000016b7          	lui	a3,0x1
    4638:	40d406b3          	sub	a3,s0,a3
    463c:	36b6b023          	sd	a1,864(a3) # 1360 <.LBB87_4+0x49c>
    4640:	f9043683          	ld	a3,-112(s0)
    4644:	0005d463          	bgez	a1,464c <.LBB87_164>
    4648:	c0000637          	lui	a2,0xc0000

000000000000464c <.LBB87_164>:
    464c:	f8d43823          	sd	a3,-112(s0)
    4650:	000015b7          	lui	a1,0x1
    4654:	40b405b3          	sub	a1,s0,a1
    4658:	34c5b823          	sd	a2,848(a1) # 1350 <.LBB87_4+0x48c>
    465c:	90043583          	ld	a1,-1792(s0)
    4660:	ed843603          	ld	a2,-296(s0)
    4664:	00c585b3          	add	a1,a1,a2
    4668:	018585b3          	add	a1,a1,s8
    466c:	41a5063b          	subw	a2,a0,s10
    4670:	40c585bb          	subw	a1,a1,a2
    4674:	40000637          	lui	a2,0x40000
    4678:	000016b7          	lui	a3,0x1
    467c:	40d406b3          	sub	a3,s0,a3
    4680:	2eb6bc23          	sd	a1,760(a3) # 12f8 <.LBB87_4+0x434>
    4684:	f9043683          	ld	a3,-112(s0)
    4688:	0005d463          	bgez	a1,4690 <.LBB87_166>
    468c:	c0000637          	lui	a2,0xc0000

0000000000004690 <.LBB87_166>:
    4690:	f8d43823          	sd	a3,-112(s0)
    4694:	000015b7          	lui	a1,0x1
    4698:	40b405b3          	sub	a1,s0,a1
    469c:	2ec5b423          	sd	a2,744(a1) # 12e8 <.LBB87_4+0x424>
    46a0:	90843583          	ld	a1,-1784(s0)
    46a4:	ee043603          	ld	a2,-288(s0)
    46a8:	00c585b3          	add	a1,a1,a2
    46ac:	017585b3          	add	a1,a1,s7
    46b0:	41a5063b          	subw	a2,a0,s10
    46b4:	40c585bb          	subw	a1,a1,a2
    46b8:	40000637          	lui	a2,0x40000
    46bc:	000016b7          	lui	a3,0x1
    46c0:	40d406b3          	sub	a3,s0,a3
    46c4:	28b6b823          	sd	a1,656(a3) # 1290 <.LBB87_4+0x3cc>
    46c8:	f9043683          	ld	a3,-112(s0)
    46cc:	0005d463          	bgez	a1,46d4 <.LBB87_168>
    46d0:	c0000637          	lui	a2,0xc0000

00000000000046d4 <.LBB87_168>:
    46d4:	f8d43823          	sd	a3,-112(s0)
    46d8:	000015b7          	lui	a1,0x1
    46dc:	40b405b3          	sub	a1,s0,a1
    46e0:	26c5bc23          	sd	a2,632(a1) # 1278 <.LBB87_4+0x3b4>
    46e4:	91043583          	ld	a1,-1776(s0)
    46e8:	ee843603          	ld	a2,-280(s0)
    46ec:	00c585b3          	add	a1,a1,a2
    46f0:	016585b3          	add	a1,a1,s6
    46f4:	41a5063b          	subw	a2,a0,s10
    46f8:	40c585bb          	subw	a1,a1,a2
    46fc:	40000637          	lui	a2,0x40000
    4700:	000016b7          	lui	a3,0x1
    4704:	40d406b3          	sub	a3,s0,a3
    4708:	20b6bc23          	sd	a1,536(a3) # 1218 <.LBB87_4+0x354>
    470c:	f9043683          	ld	a3,-112(s0)
    4710:	0005d463          	bgez	a1,4718 <.LBB87_170>
    4714:	c0000637          	lui	a2,0xc0000

0000000000004718 <.LBB87_170>:
    4718:	f8d43823          	sd	a3,-112(s0)
    471c:	000015b7          	lui	a1,0x1
    4720:	40b405b3          	sub	a1,s0,a1
    4724:	20c5b023          	sd	a2,512(a1) # 1200 <.LBB87_4+0x33c>
    4728:	91843583          	ld	a1,-1768(s0)
    472c:	ef043603          	ld	a2,-272(s0)
    4730:	00c585b3          	add	a1,a1,a2
    4734:	01e585b3          	add	a1,a1,t5
    4738:	41a5063b          	subw	a2,a0,s10
    473c:	40c585bb          	subw	a1,a1,a2
    4740:	40000637          	lui	a2,0x40000
    4744:	000016b7          	lui	a3,0x1
    4748:	40d406b3          	sub	a3,s0,a3
    474c:	1ab6b023          	sd	a1,416(a3) # 11a0 <.LBB87_4+0x2dc>
    4750:	f9043683          	ld	a3,-112(s0)
    4754:	0005d463          	bgez	a1,475c <.LBB87_172>
    4758:	c0000637          	lui	a2,0xc0000

000000000000475c <.LBB87_172>:
    475c:	f8d43823          	sd	a3,-112(s0)
    4760:	000015b7          	lui	a1,0x1
    4764:	40b405b3          	sub	a1,s0,a1
    4768:	18c5b423          	sd	a2,392(a1) # 1188 <.LBB87_4+0x2c4>
    476c:	92043583          	ld	a1,-1760(s0)
    4770:	ef843603          	ld	a2,-264(s0)
    4774:	00c585b3          	add	a1,a1,a2
    4778:	014585b3          	add	a1,a1,s4
    477c:	41a5063b          	subw	a2,a0,s10
    4780:	40c585bb          	subw	a1,a1,a2
    4784:	40000637          	lui	a2,0x40000
    4788:	000016b7          	lui	a3,0x1
    478c:	40d406b3          	sub	a3,s0,a3
    4790:	12b6b423          	sd	a1,296(a3) # 1128 <.LBB87_4+0x264>
    4794:	f9043683          	ld	a3,-112(s0)
    4798:	0005d463          	bgez	a1,47a0 <.LBB87_174>
    479c:	c0000637          	lui	a2,0xc0000

00000000000047a0 <.LBB87_174>:
    47a0:	f8d43823          	sd	a3,-112(s0)
    47a4:	000015b7          	lui	a1,0x1
    47a8:	40b405b3          	sub	a1,s0,a1
    47ac:	10c5b823          	sd	a2,272(a1) # 1110 <.LBB87_4+0x24c>
    47b0:	92843583          	ld	a1,-1752(s0)
    47b4:	f3043603          	ld	a2,-208(s0)
    47b8:	00c585b3          	add	a1,a1,a2
    47bc:	013585b3          	add	a1,a1,s3
    47c0:	41a5063b          	subw	a2,a0,s10
    47c4:	40c585bb          	subw	a1,a1,a2
    47c8:	40000637          	lui	a2,0x40000
    47cc:	000016b7          	lui	a3,0x1
    47d0:	40d406b3          	sub	a3,s0,a3
    47d4:	0ab6b823          	sd	a1,176(a3) # 10b0 <.LBB87_4+0x1ec>
    47d8:	f9043683          	ld	a3,-112(s0)
    47dc:	0005d463          	bgez	a1,47e4 <.LBB87_176>
    47e0:	c0000637          	lui	a2,0xc0000

00000000000047e4 <.LBB87_176>:
    47e4:	f8d43823          	sd	a3,-112(s0)
    47e8:	000015b7          	lui	a1,0x1
    47ec:	40b405b3          	sub	a1,s0,a1
    47f0:	08c5bc23          	sd	a2,152(a1) # 1098 <.LBB87_4+0x1d4>
    47f4:	93043583          	ld	a1,-1744(s0)
    47f8:	f3843603          	ld	a2,-200(s0)
    47fc:	00c585b3          	add	a1,a1,a2
    4800:	012585b3          	add	a1,a1,s2
    4804:	41a5063b          	subw	a2,a0,s10
    4808:	40c585bb          	subw	a1,a1,a2
    480c:	40000637          	lui	a2,0x40000
    4810:	000016b7          	lui	a3,0x1
    4814:	40d406b3          	sub	a3,s0,a3
    4818:	02b6bc23          	sd	a1,56(a3) # 1038 <.LBB87_4+0x174>
    481c:	f9043683          	ld	a3,-112(s0)
    4820:	0005d463          	bgez	a1,4828 <.LBB87_178>
    4824:	c0000637          	lui	a2,0xc0000

0000000000004828 <.LBB87_178>:
    4828:	f8d43823          	sd	a3,-112(s0)
    482c:	000015b7          	lui	a1,0x1
    4830:	40b405b3          	sub	a1,s0,a1
    4834:	02c5b023          	sd	a2,32(a1) # 1020 <.LBB87_4+0x15c>
    4838:	93843583          	ld	a1,-1736(s0)
    483c:	f4043603          	ld	a2,-192(s0)
    4840:	00c585b3          	add	a1,a1,a2
    4844:	00001637          	lui	a2,0x1
    4848:	40c40633          	sub	a2,s0,a2
    484c:	73863603          	ld	a2,1848(a2) # 1738 <.LBB87_5+0x2b8>
    4850:	00c585b3          	add	a1,a1,a2
    4854:	41a5063b          	subw	a2,a0,s10
    4858:	40c585bb          	subw	a1,a1,a2
    485c:	40000637          	lui	a2,0x40000
    4860:	000016b7          	lui	a3,0x1
    4864:	40d406b3          	sub	a3,s0,a3
    4868:	fcb6b023          	sd	a1,-64(a3) # fc0 <.LBB87_4+0xfc>
    486c:	f9043683          	ld	a3,-112(s0)
    4870:	0005d463          	bgez	a1,4878 <.LBB87_180>
    4874:	c0000637          	lui	a2,0xc0000

0000000000004878 <.LBB87_180>:
    4878:	f8d43823          	sd	a3,-112(s0)
    487c:	000015b7          	lui	a1,0x1
    4880:	40b405b3          	sub	a1,s0,a1
    4884:	fac5b423          	sd	a2,-88(a1) # fa8 <.LBB87_4+0xe4>
    4888:	94043583          	ld	a1,-1728(s0)
    488c:	f4843603          	ld	a2,-184(s0)
    4890:	00c585b3          	add	a1,a1,a2
    4894:	00001637          	lui	a2,0x1
    4898:	40c40633          	sub	a2,s0,a2
    489c:	74063603          	ld	a2,1856(a2) # 1740 <.LBB87_5+0x2c0>
    48a0:	00c585b3          	add	a1,a1,a2
    48a4:	41a5063b          	subw	a2,a0,s10
    48a8:	40c585bb          	subw	a1,a1,a2
    48ac:	40000637          	lui	a2,0x40000
    48b0:	000016b7          	lui	a3,0x1
    48b4:	40d406b3          	sub	a3,s0,a3
    48b8:	f4b6b423          	sd	a1,-184(a3) # f48 <.LBB87_4+0x84>
    48bc:	f9043683          	ld	a3,-112(s0)
    48c0:	0005d463          	bgez	a1,48c8 <.LBB87_182>
    48c4:	c0000637          	lui	a2,0xc0000

00000000000048c8 <.LBB87_182>:
    48c8:	f8d43823          	sd	a3,-112(s0)
    48cc:	000015b7          	lui	a1,0x1
    48d0:	40b405b3          	sub	a1,s0,a1
    48d4:	f2c5b823          	sd	a2,-208(a1) # f30 <.LBB87_4+0x6c>
    48d8:	94843583          	ld	a1,-1720(s0)
    48dc:	f5043603          	ld	a2,-176(s0)
    48e0:	00c585b3          	add	a1,a1,a2
    48e4:	00001637          	lui	a2,0x1
    48e8:	40c40633          	sub	a2,s0,a2
    48ec:	74863603          	ld	a2,1864(a2) # 1748 <.LBB87_5+0x2c8>
    48f0:	00c585b3          	add	a1,a1,a2
    48f4:	41a5063b          	subw	a2,a0,s10
    48f8:	40c585bb          	subw	a1,a1,a2
    48fc:	40000637          	lui	a2,0x40000
    4900:	000016b7          	lui	a3,0x1
    4904:	40d406b3          	sub	a3,s0,a3
    4908:	ecb6bc23          	sd	a1,-296(a3) # ed8 <.LBB87_4+0x14>
    490c:	f9043683          	ld	a3,-112(s0)
    4910:	0005d463          	bgez	a1,4918 <.LBB87_184>
    4914:	c0000637          	lui	a2,0xc0000

0000000000004918 <.LBB87_184>:
    4918:	f8d43823          	sd	a3,-112(s0)
    491c:	000015b7          	lui	a1,0x1
    4920:	40b405b3          	sub	a1,s0,a1
    4924:	ecc5b023          	sd	a2,-320(a1) # ec0 <.LBB87_3+0xc54>
    4928:	95043583          	ld	a1,-1712(s0)
    492c:	f5843603          	ld	a2,-168(s0)
    4930:	00c585b3          	add	a1,a1,a2
    4934:	00001637          	lui	a2,0x1
    4938:	40c40633          	sub	a2,s0,a2
    493c:	75063603          	ld	a2,1872(a2) # 1750 <.LBB87_5+0x2d0>
    4940:	00c585b3          	add	a1,a1,a2
    4944:	41a5063b          	subw	a2,a0,s10
    4948:	40c585bb          	subw	a1,a1,a2
    494c:	40000637          	lui	a2,0x40000
    4950:	000016b7          	lui	a3,0x1
    4954:	40d406b3          	sub	a3,s0,a3
    4958:	e6b6b023          	sd	a1,-416(a3) # e60 <.LBB87_3+0xbf4>
    495c:	f9043683          	ld	a3,-112(s0)
    4960:	0005d463          	bgez	a1,4968 <.LBB87_186>
    4964:	c0000637          	lui	a2,0xc0000

0000000000004968 <.LBB87_186>:
    4968:	f8d43823          	sd	a3,-112(s0)
    496c:	000015b7          	lui	a1,0x1
    4970:	40b405b3          	sub	a1,s0,a1
    4974:	e4c5b423          	sd	a2,-440(a1) # e48 <.LBB87_3+0xbdc>
    4978:	95843583          	ld	a1,-1704(s0)
    497c:	f6043603          	ld	a2,-160(s0)
    4980:	00c585b3          	add	a1,a1,a2
    4984:	00001637          	lui	a2,0x1
    4988:	40c40633          	sub	a2,s0,a2
    498c:	75863603          	ld	a2,1880(a2) # 1758 <.LBB87_5+0x2d8>
    4990:	00c585b3          	add	a1,a1,a2
    4994:	41a5063b          	subw	a2,a0,s10
    4998:	40c585bb          	subw	a1,a1,a2
    499c:	40000637          	lui	a2,0x40000
    49a0:	000016b7          	lui	a3,0x1
    49a4:	40d406b3          	sub	a3,s0,a3
    49a8:	deb6b823          	sd	a1,-528(a3) # df0 <.LBB87_3+0xb84>
    49ac:	f9043683          	ld	a3,-112(s0)
    49b0:	0005d463          	bgez	a1,49b8 <.LBB87_188>
    49b4:	c0000637          	lui	a2,0xc0000

00000000000049b8 <.LBB87_188>:
    49b8:	f8d43823          	sd	a3,-112(s0)
    49bc:	000015b7          	lui	a1,0x1
    49c0:	40b405b3          	sub	a1,s0,a1
    49c4:	dcc5bc23          	sd	a2,-552(a1) # dd8 <.LBB87_3+0xb6c>
    49c8:	96043583          	ld	a1,-1696(s0)
    49cc:	f6843603          	ld	a2,-152(s0)
    49d0:	00c585b3          	add	a1,a1,a2
    49d4:	015585b3          	add	a1,a1,s5
    49d8:	41a5063b          	subw	a2,a0,s10
    49dc:	40c585bb          	subw	a1,a1,a2
    49e0:	40000637          	lui	a2,0x40000
    49e4:	000016b7          	lui	a3,0x1
    49e8:	40d406b3          	sub	a3,s0,a3
    49ec:	d6b6bc23          	sd	a1,-648(a3) # d78 <.LBB87_3+0xb0c>
    49f0:	f9043683          	ld	a3,-112(s0)
    49f4:	0005d463          	bgez	a1,49fc <.LBB87_190>
    49f8:	c0000637          	lui	a2,0xc0000

00000000000049fc <.LBB87_190>:
    49fc:	f8d43823          	sd	a3,-112(s0)
    4a00:	000015b7          	lui	a1,0x1
    4a04:	40b405b3          	sub	a1,s0,a1
    4a08:	d6c5b023          	sd	a2,-672(a1) # d60 <.LBB87_3+0xaf4>
    4a0c:	96843583          	ld	a1,-1688(s0)
    4a10:	f7043603          	ld	a2,-144(s0)
    4a14:	00c585b3          	add	a1,a1,a2
    4a18:	01f585b3          	add	a1,a1,t6
    4a1c:	41a5063b          	subw	a2,a0,s10
    4a20:	40c585bb          	subw	a1,a1,a2
    4a24:	40000637          	lui	a2,0x40000
    4a28:	000016b7          	lui	a3,0x1
    4a2c:	40d406b3          	sub	a3,s0,a3
    4a30:	d0b6b023          	sd	a1,-768(a3) # d00 <.LBB87_3+0xa94>
    4a34:	f9043683          	ld	a3,-112(s0)
    4a38:	0005d463          	bgez	a1,4a40 <.LBB87_192>
    4a3c:	c0000637          	lui	a2,0xc0000

0000000000004a40 <.LBB87_192>:
    4a40:	000015b7          	lui	a1,0x1
    4a44:	40b405b3          	sub	a1,s0,a1
    4a48:	cec5b423          	sd	a2,-792(a1) # ce8 <.LBB87_3+0xa7c>
    4a4c:	f7843583          	ld	a1,-136(s0)
    4a50:	00b385b3          	add	a1,t2,a1
    4a54:	011585b3          	add	a1,a1,a7
    4a58:	41a5063b          	subw	a2,a0,s10
    4a5c:	40c5863b          	subw	a2,a1,a2
    4a60:	400005b7          	lui	a1,0x40000
    4a64:	000013b7          	lui	t2,0x1
    4a68:	407403b3          	sub	t2,s0,t2
    4a6c:	c0c3b023          	sd	a2,-1024(t2) # c00 <.LBB87_3+0x994>
    4a70:	00065463          	bgez	a2,4a78 <.LBB87_194>
    4a74:	c00005b7          	lui	a1,0xc0000

0000000000004a78 <.LBB87_194>:
    4a78:	00001637          	lui	a2,0x1
    4a7c:	40c40633          	sub	a2,s0,a2
    4a80:	c8b63423          	sd	a1,-888(a2) # c88 <.LBB87_3+0xa1c>
    4a84:	f8043583          	ld	a1,-128(s0)
    4a88:	00be05b3          	add	a1,t3,a1
    4a8c:	00001637          	lui	a2,0x1
    4a90:	40c40633          	sub	a2,s0,a2
    4a94:	77863e03          	ld	t3,1912(a2) # 1778 <.LBB87_5+0x2f8>
    4a98:	01c585b3          	add	a1,a1,t3
    4a9c:	41a5063b          	subw	a2,a0,s10
    4aa0:	40c5863b          	subw	a2,a1,a2
    4aa4:	400005b7          	lui	a1,0x40000
    4aa8:	000013b7          	lui	t2,0x1
    4aac:	407403b3          	sub	t2,s0,t2
    4ab0:	bac3b023          	sd	a2,-1120(t2) # ba0 <.LBB87_3+0x934>
    4ab4:	00065463          	bgez	a2,4abc <.LBB87_196>
    4ab8:	c00005b7          	lui	a1,0xc0000

0000000000004abc <.LBB87_196>:
    4abc:	00001637          	lui	a2,0x1
    4ac0:	40c40633          	sub	a2,s0,a2
    4ac4:	c4b63023          	sd	a1,-960(a2) # c40 <.LBB87_3+0x9d4>
    4ac8:	f8843583          	ld	a1,-120(s0)
    4acc:	00b805b3          	add	a1,a6,a1
    4ad0:	00d585b3          	add	a1,a1,a3
    4ad4:	41a5053b          	subw	a0,a0,s10
    4ad8:	40a5863b          	subw	a2,a1,a0
    4adc:	40000537          	lui	a0,0x40000
    4ae0:	98843583          	ld	a1,-1656(s0)
    4ae4:	00001837          	lui	a6,0x1
    4ae8:	41040833          	sub	a6,s0,a6
    4aec:	b8c83823          	sd	a2,-1136(a6) # b90 <.LBB87_3+0x924>
    4af0:	00065463          	bgez	a2,4af8 <.LBB87_198>
    4af4:	c0000537          	lui	a0,0xc0000

0000000000004af8 <.LBB87_198>:
    4af8:	00001637          	lui	a2,0x1
    4afc:	40c40633          	sub	a2,s0,a2
    4b00:	baa63423          	sd	a0,-1112(a2) # ba8 <.LBB87_3+0x93c>
    4b04:	ea843503          	ld	a0,-344(s0)
    4b08:	00a585b3          	add	a1,a1,a0
    4b0c:	00001537          	lui	a0,0x1
    4b10:	40a40533          	sub	a0,s0,a0
    4b14:	5c053503          	ld	a0,1472(a0) # 15c0 <.LBB87_5+0x140>
    4b18:	02950533          	mul	a0,a0,s1
    4b1c:	ea043603          	ld	a2,-352(s0)
    4b20:	00c585b3          	add	a1,a1,a2
    4b24:	41a5063b          	subw	a2,a0,s10
    4b28:	40c585bb          	subw	a1,a1,a2
    4b2c:	40000637          	lui	a2,0x40000
    4b30:	98b43423          	sd	a1,-1656(s0)
    4b34:	0005d463          	bgez	a1,4b3c <.LBB87_200>
    4b38:	c0000637          	lui	a2,0xc0000

0000000000004b3c <.LBB87_200>:
    4b3c:	98c43023          	sd	a2,-1664(s0)
    4b40:	99043583          	ld	a1,-1648(s0)
    4b44:	e9843603          	ld	a2,-360(s0)
    4b48:	00c585b3          	add	a1,a1,a2
    4b4c:	e9043603          	ld	a2,-368(s0)
    4b50:	00c585b3          	add	a1,a1,a2
    4b54:	41a5063b          	subw	a2,a0,s10
    4b58:	40c585bb          	subw	a1,a1,a2
    4b5c:	40000637          	lui	a2,0x40000
    4b60:	98b43823          	sd	a1,-1648(s0)
    4b64:	0005d463          	bgez	a1,4b6c <.LBB87_202>
    4b68:	c0000637          	lui	a2,0xc0000

0000000000004b6c <.LBB87_202>:
    4b6c:	96c43c23          	sd	a2,-1672(s0)
    4b70:	99843583          	ld	a1,-1640(s0)
    4b74:	e8843603          	ld	a2,-376(s0)
    4b78:	00c585b3          	add	a1,a1,a2
    4b7c:	e8043603          	ld	a2,-384(s0)
    4b80:	00c585b3          	add	a1,a1,a2
    4b84:	41a5063b          	subw	a2,a0,s10
    4b88:	40c585bb          	subw	a1,a1,a2
    4b8c:	40000637          	lui	a2,0x40000
    4b90:	98b43c23          	sd	a1,-1640(s0)
    4b94:	0005d463          	bgez	a1,4b9c <.LBB87_204>
    4b98:	c0000637          	lui	a2,0xc0000

0000000000004b9c <.LBB87_204>:
    4b9c:	96c43823          	sd	a2,-1680(s0)
    4ba0:	9a043583          	ld	a1,-1632(s0)
    4ba4:	e7843603          	ld	a2,-392(s0)
    4ba8:	00c585b3          	add	a1,a1,a2
    4bac:	e7043603          	ld	a2,-400(s0)
    4bb0:	00c585b3          	add	a1,a1,a2
    4bb4:	41a5063b          	subw	a2,a0,s10
    4bb8:	40c585bb          	subw	a1,a1,a2
    4bbc:	40000637          	lui	a2,0x40000
    4bc0:	96b43423          	sd	a1,-1688(s0)
    4bc4:	0005d463          	bgez	a1,4bcc <.LBB87_206>
    4bc8:	c0000637          	lui	a2,0xc0000

0000000000004bcc <.LBB87_206>:
    4bcc:	96c43023          	sd	a2,-1696(s0)
    4bd0:	9a843583          	ld	a1,-1624(s0)
    4bd4:	e6843603          	ld	a2,-408(s0)
    4bd8:	00c585b3          	add	a1,a1,a2
    4bdc:	e6043603          	ld	a2,-416(s0)
    4be0:	00c585b3          	add	a1,a1,a2
    4be4:	41a5063b          	subw	a2,a0,s10
    4be8:	40c585bb          	subw	a1,a1,a2
    4bec:	40000637          	lui	a2,0x40000
    4bf0:	92b43c23          	sd	a1,-1736(s0)
    4bf4:	0005d463          	bgez	a1,4bfc <.LBB87_208>
    4bf8:	c0000637          	lui	a2,0xc0000

0000000000004bfc <.LBB87_208>:
    4bfc:	92c43423          	sd	a2,-1752(s0)
    4c00:	9b043583          	ld	a1,-1616(s0)
    4c04:	00001637          	lui	a2,0x1
    4c08:	40c40633          	sub	a2,s0,a2
    4c0c:	6c863603          	ld	a2,1736(a2) # 16c8 <.LBB87_5+0x248>
    4c10:	00c585b3          	add	a1,a1,a2
    4c14:	00001637          	lui	a2,0x1
    4c18:	40c40633          	sub	a2,s0,a2
    4c1c:	6c063603          	ld	a2,1728(a2) # 16c0 <.LBB87_5+0x240>
    4c20:	00c585b3          	add	a1,a1,a2
    4c24:	41a5063b          	subw	a2,a0,s10
    4c28:	40c585bb          	subw	a1,a1,a2
    4c2c:	40000637          	lui	a2,0x40000
    4c30:	8cb43c23          	sd	a1,-1832(s0)
    4c34:	0005d463          	bgez	a1,4c3c <.LBB87_210>
    4c38:	c0000637          	lui	a2,0xc0000

0000000000004c3c <.LBB87_210>:
    4c3c:	8cc43823          	sd	a2,-1840(s0)
    4c40:	9b843583          	ld	a1,-1608(s0)
    4c44:	00001637          	lui	a2,0x1
    4c48:	40c40633          	sub	a2,s0,a2
    4c4c:	6b863603          	ld	a2,1720(a2) # 16b8 <.LBB87_5+0x238>
    4c50:	00c585b3          	add	a1,a1,a2
    4c54:	00001637          	lui	a2,0x1
    4c58:	40c40633          	sub	a2,s0,a2
    4c5c:	6b063603          	ld	a2,1712(a2) # 16b0 <.LBB87_5+0x230>
    4c60:	00c585b3          	add	a1,a1,a2
    4c64:	41a5063b          	subw	a2,a0,s10
    4c68:	40c585bb          	subw	a1,a1,a2
    4c6c:	40000637          	lui	a2,0x40000
    4c70:	00001837          	lui	a6,0x1
    4c74:	41040833          	sub	a6,s0,a6
    4c78:	7eb83023          	sd	a1,2016(a6) # 17e0 <.LBB87_5+0x360>
    4c7c:	0005d463          	bgez	a1,4c84 <.LBB87_212>
    4c80:	c0000637          	lui	a2,0xc0000

0000000000004c84 <.LBB87_212>:
    4c84:	000015b7          	lui	a1,0x1
    4c88:	40b405b3          	sub	a1,s0,a1
    4c8c:	7cc5b823          	sd	a2,2000(a1) # 17d0 <.LBB87_5+0x350>
    4c90:	9c043583          	ld	a1,-1600(s0)
    4c94:	00001637          	lui	a2,0x1
    4c98:	40c40633          	sub	a2,s0,a2
    4c9c:	6a863603          	ld	a2,1704(a2) # 16a8 <.LBB87_5+0x228>
    4ca0:	00c585b3          	add	a1,a1,a2
    4ca4:	00001637          	lui	a2,0x1
    4ca8:	40c40633          	sub	a2,s0,a2
    4cac:	6a063603          	ld	a2,1696(a2) # 16a0 <.LBB87_5+0x220>
    4cb0:	00c585b3          	add	a1,a1,a2
    4cb4:	41a5063b          	subw	a2,a0,s10
    4cb8:	40c585bb          	subw	a1,a1,a2
    4cbc:	40000637          	lui	a2,0x40000
    4cc0:	00001837          	lui	a6,0x1
    4cc4:	41040833          	sub	a6,s0,a6
    4cc8:	6cb83c23          	sd	a1,1752(a6) # 16d8 <.LBB87_5+0x258>
    4ccc:	0005d463          	bgez	a1,4cd4 <.LBB87_214>
    4cd0:	c0000637          	lui	a2,0xc0000

0000000000004cd4 <.LBB87_214>:
    4cd4:	000015b7          	lui	a1,0x1
    4cd8:	40b405b3          	sub	a1,s0,a1
    4cdc:	5cc5b023          	sd	a2,1472(a1) # 15c0 <.LBB87_5+0x140>
    4ce0:	9c843583          	ld	a1,-1592(s0)
    4ce4:	00001637          	lui	a2,0x1
    4ce8:	40c40633          	sub	a2,s0,a2
    4cec:	69863603          	ld	a2,1688(a2) # 1698 <.LBB87_5+0x218>
    4cf0:	00c585b3          	add	a1,a1,a2
    4cf4:	00001637          	lui	a2,0x1
    4cf8:	40c40633          	sub	a2,s0,a2
    4cfc:	69063603          	ld	a2,1680(a2) # 1690 <.LBB87_5+0x210>
    4d00:	00c585b3          	add	a1,a1,a2
    4d04:	41a5063b          	subw	a2,a0,s10
    4d08:	40c585bb          	subw	a1,a1,a2
    4d0c:	40000637          	lui	a2,0x40000
    4d10:	9cb43423          	sd	a1,-1592(s0)
    4d14:	0005d463          	bgez	a1,4d1c <.LBB87_216>
    4d18:	c0000637          	lui	a2,0xc0000

0000000000004d1c <.LBB87_216>:
    4d1c:	000015b7          	lui	a1,0x1
    4d20:	40b405b3          	sub	a1,s0,a1
    4d24:	56c5b423          	sd	a2,1384(a1) # 1568 <.LBB87_5+0xe8>
    4d28:	9d043583          	ld	a1,-1584(s0)
    4d2c:	00001637          	lui	a2,0x1
    4d30:	40c40633          	sub	a2,s0,a2
    4d34:	68863603          	ld	a2,1672(a2) # 1688 <.LBB87_5+0x208>
    4d38:	00c585b3          	add	a1,a1,a2
    4d3c:	00001637          	lui	a2,0x1
    4d40:	40c40633          	sub	a2,s0,a2
    4d44:	6d063603          	ld	a2,1744(a2) # 16d0 <.LBB87_5+0x250>
    4d48:	00c585b3          	add	a1,a1,a2
    4d4c:	41a5063b          	subw	a2,a0,s10
    4d50:	40c585bb          	subw	a1,a1,a2
    4d54:	40000637          	lui	a2,0x40000
    4d58:	00001837          	lui	a6,0x1
    4d5c:	41040833          	sub	a6,s0,a6
    4d60:	50b83c23          	sd	a1,1304(a6) # 1518 <.LBB87_5+0x98>
    4d64:	0005d463          	bgez	a1,4d6c <.LBB87_218>
    4d68:	c0000637          	lui	a2,0xc0000

0000000000004d6c <.LBB87_218>:
    4d6c:	000015b7          	lui	a1,0x1
    4d70:	40b405b3          	sub	a1,s0,a1
    4d74:	50c5b423          	sd	a2,1288(a1) # 1508 <.LBB87_5+0x88>
    4d78:	9d843583          	ld	a1,-1576(s0)
    4d7c:	eb043603          	ld	a2,-336(s0)
    4d80:	00c585b3          	add	a1,a1,a2
    4d84:	005585b3          	add	a1,a1,t0
    4d88:	41a5063b          	subw	a2,a0,s10
    4d8c:	40c585bb          	subw	a1,a1,a2
    4d90:	40000637          	lui	a2,0x40000
    4d94:	9cb43c23          	sd	a1,-1576(s0)
    4d98:	0005d463          	bgez	a1,4da0 <.LBB87_220>
    4d9c:	c0000637          	lui	a2,0xc0000

0000000000004da0 <.LBB87_220>:
    4da0:	000015b7          	lui	a1,0x1
    4da4:	40b405b3          	sub	a1,s0,a1
    4da8:	4ac5b823          	sd	a2,1200(a1) # 14b0 <.LBB87_5+0x30>
    4dac:	9e043583          	ld	a1,-1568(s0)
    4db0:	eb843603          	ld	a2,-328(s0)
    4db4:	00c585b3          	add	a1,a1,a2
    4db8:	001585b3          	add	a1,a1,ra
    4dbc:	41a5063b          	subw	a2,a0,s10
    4dc0:	40c585bb          	subw	a1,a1,a2
    4dc4:	40000637          	lui	a2,0x40000
    4dc8:	9eb43023          	sd	a1,-1568(s0)
    4dcc:	0005d463          	bgez	a1,4dd4 <.LBB87_222>
    4dd0:	c0000637          	lui	a2,0xc0000

0000000000004dd4 <.LBB87_222>:
    4dd4:	000015b7          	lui	a1,0x1
    4dd8:	40b405b3          	sub	a1,s0,a1
    4ddc:	44c5bc23          	sd	a2,1112(a1) # 1458 <.LBB87_4+0x594>
    4de0:	9e843583          	ld	a1,-1560(s0)
    4de4:	ec043603          	ld	a2,-320(s0)
    4de8:	00c585b3          	add	a1,a1,a2
    4dec:	01b585b3          	add	a1,a1,s11
    4df0:	41a5063b          	subw	a2,a0,s10
    4df4:	40c585bb          	subw	a1,a1,a2
    4df8:	40000637          	lui	a2,0x40000
    4dfc:	9eb43423          	sd	a1,-1560(s0)
    4e00:	0005d463          	bgez	a1,4e08 <.LBB87_224>
    4e04:	c0000637          	lui	a2,0xc0000

0000000000004e08 <.LBB87_224>:
    4e08:	000015b7          	lui	a1,0x1
    4e0c:	40b405b3          	sub	a1,s0,a1
    4e10:	40c5b023          	sd	a2,1024(a1) # 1400 <.LBB87_4+0x53c>
    4e14:	9f043583          	ld	a1,-1552(s0)
    4e18:	ec843603          	ld	a2,-312(s0)
    4e1c:	00c585b3          	add	a1,a1,a2
    4e20:	00001637          	lui	a2,0x1
    4e24:	40c40633          	sub	a2,s0,a2
    4e28:	6f063603          	ld	a2,1776(a2) # 16f0 <.LBB87_5+0x270>
    4e2c:	00c585b3          	add	a1,a1,a2
    4e30:	41a5063b          	subw	a2,a0,s10
    4e34:	40c585bb          	subw	a1,a1,a2
    4e38:	40000637          	lui	a2,0x40000
    4e3c:	9eb43823          	sd	a1,-1552(s0)
    4e40:	0005d463          	bgez	a1,4e48 <.LBB87_226>
    4e44:	c0000637          	lui	a2,0xc0000

0000000000004e48 <.LBB87_226>:
    4e48:	000015b7          	lui	a1,0x1
    4e4c:	40b405b3          	sub	a1,s0,a1
    4e50:	38c5bc23          	sd	a2,920(a1) # 1398 <.LBB87_4+0x4d4>
    4e54:	9f843583          	ld	a1,-1544(s0)
    4e58:	ed043603          	ld	a2,-304(s0)
    4e5c:	00c585b3          	add	a1,a1,a2
    4e60:	019585b3          	add	a1,a1,s9
    4e64:	41a5063b          	subw	a2,a0,s10
    4e68:	40c585bb          	subw	a1,a1,a2
    4e6c:	40000637          	lui	a2,0x40000
    4e70:	9eb43c23          	sd	a1,-1544(s0)
    4e74:	0005d463          	bgez	a1,4e7c <.LBB87_228>
    4e78:	c0000637          	lui	a2,0xc0000

0000000000004e7c <.LBB87_228>:
    4e7c:	000015b7          	lui	a1,0x1
    4e80:	40b405b3          	sub	a1,s0,a1
    4e84:	34c5b023          	sd	a2,832(a1) # 1340 <.LBB87_4+0x47c>
    4e88:	a0043583          	ld	a1,-1536(s0)
    4e8c:	ed843603          	ld	a2,-296(s0)
    4e90:	00c585b3          	add	a1,a1,a2
    4e94:	018585b3          	add	a1,a1,s8
    4e98:	41a5063b          	subw	a2,a0,s10
    4e9c:	40c585bb          	subw	a1,a1,a2
    4ea0:	40000637          	lui	a2,0x40000
    4ea4:	a0b43023          	sd	a1,-1536(s0)
    4ea8:	0005d463          	bgez	a1,4eb0 <.LBB87_230>
    4eac:	c0000637          	lui	a2,0xc0000

0000000000004eb0 <.LBB87_230>:
    4eb0:	000015b7          	lui	a1,0x1
    4eb4:	40b405b3          	sub	a1,s0,a1
    4eb8:	2ec5b023          	sd	a2,736(a1) # 12e0 <.LBB87_4+0x41c>
    4ebc:	a0843583          	ld	a1,-1528(s0)
    4ec0:	ee043603          	ld	a2,-288(s0)
    4ec4:	00c585b3          	add	a1,a1,a2
    4ec8:	017585b3          	add	a1,a1,s7
    4ecc:	41a5063b          	subw	a2,a0,s10
    4ed0:	40c585bb          	subw	a1,a1,a2
    4ed4:	40000637          	lui	a2,0x40000
    4ed8:	00001837          	lui	a6,0x1
    4edc:	41040833          	sub	a6,s0,a6
    4ee0:	28b83023          	sd	a1,640(a6) # 1280 <.LBB87_4+0x3bc>
    4ee4:	0005d463          	bgez	a1,4eec <.LBB87_232>
    4ee8:	c0000637          	lui	a2,0xc0000

0000000000004eec <.LBB87_232>:
    4eec:	000015b7          	lui	a1,0x1
    4ef0:	40b405b3          	sub	a1,s0,a1
    4ef4:	26c5b823          	sd	a2,624(a1) # 1270 <.LBB87_4+0x3ac>
    4ef8:	a1043583          	ld	a1,-1520(s0)
    4efc:	ee843603          	ld	a2,-280(s0)
    4f00:	00c585b3          	add	a1,a1,a2
    4f04:	016585b3          	add	a1,a1,s6
    4f08:	41a5063b          	subw	a2,a0,s10
    4f0c:	40c585bb          	subw	a1,a1,a2
    4f10:	40000637          	lui	a2,0x40000
    4f14:	00001837          	lui	a6,0x1
    4f18:	41040833          	sub	a6,s0,a6
    4f1c:	20b83423          	sd	a1,520(a6) # 1208 <.LBB87_4+0x344>
    4f20:	0005d463          	bgez	a1,4f28 <.LBB87_234>
    4f24:	c0000637          	lui	a2,0xc0000

0000000000004f28 <.LBB87_234>:
    4f28:	000015b7          	lui	a1,0x1
    4f2c:	40b405b3          	sub	a1,s0,a1
    4f30:	1ec5bc23          	sd	a2,504(a1) # 11f8 <.LBB87_4+0x334>
    4f34:	a1843583          	ld	a1,-1512(s0)
    4f38:	ef043603          	ld	a2,-272(s0)
    4f3c:	00c585b3          	add	a1,a1,a2
    4f40:	01e585b3          	add	a1,a1,t5
    4f44:	41a5063b          	subw	a2,a0,s10
    4f48:	40c585bb          	subw	a1,a1,a2
    4f4c:	40000637          	lui	a2,0x40000
    4f50:	00001837          	lui	a6,0x1
    4f54:	41040833          	sub	a6,s0,a6
    4f58:	18b83823          	sd	a1,400(a6) # 1190 <.LBB87_4+0x2cc>
    4f5c:	0005d463          	bgez	a1,4f64 <.LBB87_236>
    4f60:	c0000637          	lui	a2,0xc0000

0000000000004f64 <.LBB87_236>:
    4f64:	000015b7          	lui	a1,0x1
    4f68:	40b405b3          	sub	a1,s0,a1
    4f6c:	18c5b023          	sd	a2,384(a1) # 1180 <.LBB87_4+0x2bc>
    4f70:	a2043583          	ld	a1,-1504(s0)
    4f74:	ef843603          	ld	a2,-264(s0)
    4f78:	00c585b3          	add	a1,a1,a2
    4f7c:	014585b3          	add	a1,a1,s4
    4f80:	41a5063b          	subw	a2,a0,s10
    4f84:	40c585bb          	subw	a1,a1,a2
    4f88:	40000637          	lui	a2,0x40000
    4f8c:	00001837          	lui	a6,0x1
    4f90:	41040833          	sub	a6,s0,a6
    4f94:	10b83c23          	sd	a1,280(a6) # 1118 <.LBB87_4+0x254>
    4f98:	0005d463          	bgez	a1,4fa0 <.LBB87_238>
    4f9c:	c0000637          	lui	a2,0xc0000

0000000000004fa0 <.LBB87_238>:
    4fa0:	000015b7          	lui	a1,0x1
    4fa4:	40b405b3          	sub	a1,s0,a1
    4fa8:	10c5b423          	sd	a2,264(a1) # 1108 <.LBB87_4+0x244>
    4fac:	a2843583          	ld	a1,-1496(s0)
    4fb0:	f3043603          	ld	a2,-208(s0)
    4fb4:	00c585b3          	add	a1,a1,a2
    4fb8:	013585b3          	add	a1,a1,s3
    4fbc:	41a5063b          	subw	a2,a0,s10
    4fc0:	40c585bb          	subw	a1,a1,a2
    4fc4:	40000637          	lui	a2,0x40000
    4fc8:	00001837          	lui	a6,0x1
    4fcc:	41040833          	sub	a6,s0,a6
    4fd0:	0ab83023          	sd	a1,160(a6) # 10a0 <.LBB87_4+0x1dc>
    4fd4:	0005d463          	bgez	a1,4fdc <.LBB87_240>
    4fd8:	c0000637          	lui	a2,0xc0000

0000000000004fdc <.LBB87_240>:
    4fdc:	000015b7          	lui	a1,0x1
    4fe0:	40b405b3          	sub	a1,s0,a1
    4fe4:	08c5b823          	sd	a2,144(a1) # 1090 <.LBB87_4+0x1cc>
    4fe8:	a3043583          	ld	a1,-1488(s0)
    4fec:	f3843603          	ld	a2,-200(s0)
    4ff0:	00c585b3          	add	a1,a1,a2
    4ff4:	012585b3          	add	a1,a1,s2
    4ff8:	41a5063b          	subw	a2,a0,s10
    4ffc:	40c585bb          	subw	a1,a1,a2
    5000:	40000637          	lui	a2,0x40000
    5004:	00001837          	lui	a6,0x1
    5008:	41040833          	sub	a6,s0,a6
    500c:	02b83423          	sd	a1,40(a6) # 1028 <.LBB87_4+0x164>
    5010:	0005d463          	bgez	a1,5018 <.LBB87_242>
    5014:	c0000637          	lui	a2,0xc0000

0000000000005018 <.LBB87_242>:
    5018:	000015b7          	lui	a1,0x1
    501c:	40b405b3          	sub	a1,s0,a1
    5020:	00c5bc23          	sd	a2,24(a1) # 1018 <.LBB87_4+0x154>
    5024:	a3843583          	ld	a1,-1480(s0)
    5028:	f4043603          	ld	a2,-192(s0)
    502c:	00c585b3          	add	a1,a1,a2
    5030:	00001637          	lui	a2,0x1
    5034:	40c40633          	sub	a2,s0,a2
    5038:	73863603          	ld	a2,1848(a2) # 1738 <.LBB87_5+0x2b8>
    503c:	00c585b3          	add	a1,a1,a2
    5040:	41a5063b          	subw	a2,a0,s10
    5044:	40c585bb          	subw	a1,a1,a2
    5048:	40000637          	lui	a2,0x40000
    504c:	00001837          	lui	a6,0x1
    5050:	41040833          	sub	a6,s0,a6
    5054:	fab83823          	sd	a1,-80(a6) # fb0 <.LBB87_4+0xec>
    5058:	0005d463          	bgez	a1,5060 <.LBB87_244>
    505c:	c0000637          	lui	a2,0xc0000

0000000000005060 <.LBB87_244>:
    5060:	000015b7          	lui	a1,0x1
    5064:	40b405b3          	sub	a1,s0,a1
    5068:	f8c5bc23          	sd	a2,-104(a1) # f98 <.LBB87_4+0xd4>
    506c:	f4843583          	ld	a1,-184(s0)
    5070:	a4043603          	ld	a2,-1472(s0)
    5074:	00b605b3          	add	a1,a2,a1
    5078:	00001637          	lui	a2,0x1
    507c:	40c40633          	sub	a2,s0,a2
    5080:	74063603          	ld	a2,1856(a2) # 1740 <.LBB87_5+0x2c0>
    5084:	00c585b3          	add	a1,a1,a2
    5088:	41a5063b          	subw	a2,a0,s10
    508c:	40c585bb          	subw	a1,a1,a2
    5090:	40000637          	lui	a2,0x40000
    5094:	00001837          	lui	a6,0x1
    5098:	41040833          	sub	a6,s0,a6
    509c:	f2b83c23          	sd	a1,-200(a6) # f38 <.LBB87_4+0x74>
    50a0:	0005d463          	bgez	a1,50a8 <.LBB87_246>
    50a4:	c0000637          	lui	a2,0xc0000

00000000000050a8 <.LBB87_246>:
    50a8:	000015b7          	lui	a1,0x1
    50ac:	40b405b3          	sub	a1,s0,a1
    50b0:	f2c5b423          	sd	a2,-216(a1) # f28 <.LBB87_4+0x64>
    50b4:	a4843583          	ld	a1,-1464(s0)
    50b8:	f5043603          	ld	a2,-176(s0)
    50bc:	00c585b3          	add	a1,a1,a2
    50c0:	00001637          	lui	a2,0x1
    50c4:	40c40633          	sub	a2,s0,a2
    50c8:	74863603          	ld	a2,1864(a2) # 1748 <.LBB87_5+0x2c8>
    50cc:	00c585b3          	add	a1,a1,a2
    50d0:	41a5063b          	subw	a2,a0,s10
    50d4:	40c585bb          	subw	a1,a1,a2
    50d8:	40000637          	lui	a2,0x40000
    50dc:	00001837          	lui	a6,0x1
    50e0:	41040833          	sub	a6,s0,a6
    50e4:	ecb83423          	sd	a1,-312(a6) # ec8 <.LBB87_4+0x4>
    50e8:	0005d463          	bgez	a1,50f0 <.LBB87_248>
    50ec:	c0000637          	lui	a2,0xc0000

00000000000050f0 <.LBB87_248>:
    50f0:	000015b7          	lui	a1,0x1
    50f4:	40b405b3          	sub	a1,s0,a1
    50f8:	eac5b823          	sd	a2,-336(a1) # eb0 <.LBB87_3+0xc44>
    50fc:	f5843583          	ld	a1,-168(s0)
    5100:	a5043603          	ld	a2,-1456(s0)
    5104:	00b605b3          	add	a1,a2,a1
    5108:	00001637          	lui	a2,0x1
    510c:	40c40633          	sub	a2,s0,a2
    5110:	75063603          	ld	a2,1872(a2) # 1750 <.LBB87_5+0x2d0>
    5114:	00c585b3          	add	a1,a1,a2
    5118:	41a5063b          	subw	a2,a0,s10
    511c:	40c585bb          	subw	a1,a1,a2
    5120:	40000637          	lui	a2,0x40000
    5124:	00001837          	lui	a6,0x1
    5128:	41040833          	sub	a6,s0,a6
    512c:	e4b83823          	sd	a1,-432(a6) # e50 <.LBB87_3+0xbe4>
    5130:	0005d463          	bgez	a1,5138 <.LBB87_250>
    5134:	c0000637          	lui	a2,0xc0000

0000000000005138 <.LBB87_250>:
    5138:	000015b7          	lui	a1,0x1
    513c:	40b405b3          	sub	a1,s0,a1
    5140:	e4c5b023          	sd	a2,-448(a1) # e40 <.LBB87_3+0xbd4>
    5144:	a5843583          	ld	a1,-1448(s0)
    5148:	f6043603          	ld	a2,-160(s0)
    514c:	00c585b3          	add	a1,a1,a2
    5150:	00001637          	lui	a2,0x1
    5154:	40c40633          	sub	a2,s0,a2
    5158:	75863603          	ld	a2,1880(a2) # 1758 <.LBB87_5+0x2d8>
    515c:	00c585b3          	add	a1,a1,a2
    5160:	41a5063b          	subw	a2,a0,s10
    5164:	40c585bb          	subw	a1,a1,a2
    5168:	40000637          	lui	a2,0x40000
    516c:	00001837          	lui	a6,0x1
    5170:	41040833          	sub	a6,s0,a6
    5174:	deb83023          	sd	a1,-544(a6) # de0 <.LBB87_3+0xb74>
    5178:	0005d463          	bgez	a1,5180 <.LBB87_252>
    517c:	c0000637          	lui	a2,0xc0000

0000000000005180 <.LBB87_252>:
    5180:	000015b7          	lui	a1,0x1
    5184:	40b405b3          	sub	a1,s0,a1
    5188:	dcc5b423          	sd	a2,-568(a1) # dc8 <.LBB87_3+0xb5c>
    518c:	a6043583          	ld	a1,-1440(s0)
    5190:	f6843603          	ld	a2,-152(s0)
    5194:	00c585b3          	add	a1,a1,a2
    5198:	015585b3          	add	a1,a1,s5
    519c:	41a5063b          	subw	a2,a0,s10
    51a0:	40c585bb          	subw	a1,a1,a2
    51a4:	40000637          	lui	a2,0x40000
    51a8:	00001837          	lui	a6,0x1
    51ac:	41040833          	sub	a6,s0,a6
    51b0:	d6b83423          	sd	a1,-664(a6) # d68 <.LBB87_3+0xafc>
    51b4:	0005d463          	bgez	a1,51bc <.LBB87_254>
    51b8:	c0000637          	lui	a2,0xc0000

00000000000051bc <.LBB87_254>:
    51bc:	000015b7          	lui	a1,0x1
    51c0:	40b405b3          	sub	a1,s0,a1
    51c4:	d4c5bc23          	sd	a2,-680(a1) # d58 <.LBB87_3+0xaec>
    51c8:	a6843583          	ld	a1,-1432(s0)
    51cc:	f7043603          	ld	a2,-144(s0)
    51d0:	00c585b3          	add	a1,a1,a2
    51d4:	01f585b3          	add	a1,a1,t6
    51d8:	41a5063b          	subw	a2,a0,s10
    51dc:	40c585bb          	subw	a1,a1,a2
    51e0:	40000637          	lui	a2,0x40000
    51e4:	00001837          	lui	a6,0x1
    51e8:	41040833          	sub	a6,s0,a6
    51ec:	ceb83823          	sd	a1,-784(a6) # cf0 <.LBB87_3+0xa84>
    51f0:	0005d463          	bgez	a1,51f8 <.LBB87_256>
    51f4:	c0000637          	lui	a2,0xc0000

00000000000051f8 <.LBB87_256>:
    51f8:	000015b7          	lui	a1,0x1
    51fc:	40b405b3          	sub	a1,s0,a1
    5200:	ccc5bc23          	sd	a2,-808(a1) # cd8 <.LBB87_3+0xa6c>
    5204:	f7843583          	ld	a1,-136(s0)
    5208:	a7043603          	ld	a2,-1424(s0)
    520c:	00b605b3          	add	a1,a2,a1
    5210:	011585b3          	add	a1,a1,a7
    5214:	41a5063b          	subw	a2,a0,s10
    5218:	40c5863b          	subw	a2,a1,a2
    521c:	400005b7          	lui	a1,0x40000
    5220:	00001837          	lui	a6,0x1
    5224:	41040833          	sub	a6,s0,a6
    5228:	c0c83823          	sd	a2,-1008(a6) # c10 <.LBB87_3+0x9a4>
    522c:	00065463          	bgez	a2,5234 <.LBB87_258>
    5230:	c00005b7          	lui	a1,0xc0000

0000000000005234 <.LBB87_258>:
    5234:	00001637          	lui	a2,0x1
    5238:	40c40633          	sub	a2,s0,a2
    523c:	c8b63023          	sd	a1,-896(a2) # c80 <.LBB87_3+0xa14>
    5240:	f8043583          	ld	a1,-128(s0)
    5244:	00b785b3          	add	a1,a5,a1
    5248:	01c585b3          	add	a1,a1,t3
    524c:	41a507bb          	subw	a5,a0,s10
    5250:	40f5863b          	subw	a2,a1,a5
    5254:	400005b7          	lui	a1,0x40000
    5258:	000017b7          	lui	a5,0x1
    525c:	40f407b3          	sub	a5,s0,a5
    5260:	bec7b023          	sd	a2,-1056(a5) # be0 <.LBB87_3+0x974>
    5264:	00065463          	bgez	a2,526c <.LBB87_260>
    5268:	c00005b7          	lui	a1,0xc0000

000000000000526c <.LBB87_260>:
    526c:	00001637          	lui	a2,0x1
    5270:	40c40633          	sub	a2,s0,a2
    5274:	c2b63c23          	sd	a1,-968(a2) # c38 <.LBB87_3+0x9cc>
    5278:	f8843583          	ld	a1,-120(s0)
    527c:	a8043603          	ld	a2,-1408(s0)
    5280:	00b605b3          	add	a1,a2,a1
    5284:	00d585b3          	add	a1,a1,a3
    5288:	41a5053b          	subw	a0,a0,s10
    528c:	40a5863b          	subw	a2,a1,a0
    5290:	40000537          	lui	a0,0x40000
    5294:	a8843583          	ld	a1,-1400(s0)
    5298:	00065463          	bgez	a2,52a0 <.LBB87_262>
    529c:	c0000537          	lui	a0,0xc0000

00000000000052a0 <.LBB87_262>:
    52a0:	000017b7          	lui	a5,0x1
    52a4:	40f407b3          	sub	a5,s0,a5
    52a8:	b8a7bc23          	sd	a0,-1128(a5) # b98 <.LBB87_3+0x92c>
    52ac:	ea843503          	ld	a0,-344(s0)
    52b0:	00a585b3          	add	a1,a1,a0
    52b4:	00001537          	lui	a0,0x1
    52b8:	40a40533          	sub	a0,s0,a0
    52bc:	5a853503          	ld	a0,1448(a0) # 15a8 <.LBB87_5+0x128>
    52c0:	02950533          	mul	a0,a0,s1
    52c4:	ea043783          	ld	a5,-352(s0)
    52c8:	00f585b3          	add	a1,a1,a5
    52cc:	41a507bb          	subw	a5,a0,s10
    52d0:	40f585bb          	subw	a1,a1,a5
    52d4:	400007b7          	lui	a5,0x40000
    52d8:	a8b43023          	sd	a1,-1408(s0)
    52dc:	0005d463          	bgez	a1,52e4 <.LBB87_264>
    52e0:	c00007b7          	lui	a5,0xc0000

00000000000052e4 <.LBB87_264>:
    52e4:	a6f43823          	sd	a5,-1424(s0)
    52e8:	a9043583          	ld	a1,-1392(s0)
    52ec:	e9843783          	ld	a5,-360(s0)
    52f0:	00f585b3          	add	a1,a1,a5
    52f4:	e9043783          	ld	a5,-368(s0)
    52f8:	00f585b3          	add	a1,a1,a5
    52fc:	41a507bb          	subw	a5,a0,s10
    5300:	40f585bb          	subw	a1,a1,a5
    5304:	400007b7          	lui	a5,0x40000
    5308:	a8b43823          	sd	a1,-1392(s0)
    530c:	0005d463          	bgez	a1,5314 <.LBB87_266>
    5310:	c00007b7          	lui	a5,0xc0000

0000000000005314 <.LBB87_266>:
    5314:	a6f43023          	sd	a5,-1440(s0)
    5318:	a9843583          	ld	a1,-1384(s0)
    531c:	e8843783          	ld	a5,-376(s0)
    5320:	00f585b3          	add	a1,a1,a5
    5324:	e8043783          	ld	a5,-384(s0)
    5328:	00f585b3          	add	a1,a1,a5
    532c:	41a507bb          	subw	a5,a0,s10
    5330:	40f585bb          	subw	a1,a1,a5
    5334:	400007b7          	lui	a5,0x40000
    5338:	a4b43c23          	sd	a1,-1448(s0)
    533c:	0005d463          	bgez	a1,5344 <.LBB87_268>
    5340:	c00007b7          	lui	a5,0xc0000

0000000000005344 <.LBB87_268>:
    5344:	a4f43823          	sd	a5,-1456(s0)
    5348:	aa043583          	ld	a1,-1376(s0)
    534c:	e7843783          	ld	a5,-392(s0)
    5350:	00f585b3          	add	a1,a1,a5
    5354:	e7043783          	ld	a5,-400(s0)
    5358:	00f585b3          	add	a1,a1,a5
    535c:	41a507bb          	subw	a5,a0,s10
    5360:	40f585bb          	subw	a1,a1,a5
    5364:	400007b7          	lui	a5,0x40000
    5368:	aab43023          	sd	a1,-1376(s0)
    536c:	0005d463          	bgez	a1,5374 <.LBB87_270>
    5370:	c00007b7          	lui	a5,0xc0000

0000000000005374 <.LBB87_270>:
    5374:	a6f43423          	sd	a5,-1432(s0)
    5378:	aa843583          	ld	a1,-1368(s0)
    537c:	e6843783          	ld	a5,-408(s0)
    5380:	00f585b3          	add	a1,a1,a5
    5384:	e6043783          	ld	a5,-416(s0)
    5388:	00f585b3          	add	a1,a1,a5
    538c:	41a507bb          	subw	a5,a0,s10
    5390:	40f585bb          	subw	a1,a1,a5
    5394:	400007b7          	lui	a5,0x40000
    5398:	a6b43c23          	sd	a1,-1416(s0)
    539c:	0005d463          	bgez	a1,53a4 <.LBB87_272>
    53a0:	c00007b7          	lui	a5,0xc0000

00000000000053a4 <.LBB87_272>:
    53a4:	a4f43423          	sd	a5,-1464(s0)
    53a8:	ab043583          	ld	a1,-1360(s0)
    53ac:	000017b7          	lui	a5,0x1
    53b0:	40f407b3          	sub	a5,s0,a5
    53b4:	6c87b783          	ld	a5,1736(a5) # 16c8 <.LBB87_5+0x248>
    53b8:	00f585b3          	add	a1,a1,a5
    53bc:	000017b7          	lui	a5,0x1
    53c0:	40f407b3          	sub	a5,s0,a5
    53c4:	6c07b783          	ld	a5,1728(a5) # 16c0 <.LBB87_5+0x240>
    53c8:	00f585b3          	add	a1,a1,a5
    53cc:	41a507bb          	subw	a5,a0,s10
    53d0:	40f585bb          	subw	a1,a1,a5
    53d4:	400007b7          	lui	a5,0x40000
    53d8:	aab43823          	sd	a1,-1360(s0)
    53dc:	0005d463          	bgez	a1,53e4 <.LBB87_274>
    53e0:	c00007b7          	lui	a5,0xc0000

00000000000053e4 <.LBB87_274>:
    53e4:	a8f43423          	sd	a5,-1400(s0)
    53e8:	ab843583          	ld	a1,-1352(s0)
    53ec:	000017b7          	lui	a5,0x1
    53f0:	40f407b3          	sub	a5,s0,a5
    53f4:	6b87b783          	ld	a5,1720(a5) # 16b8 <.LBB87_5+0x238>
    53f8:	00f585b3          	add	a1,a1,a5
    53fc:	000017b7          	lui	a5,0x1
    5400:	40f407b3          	sub	a5,s0,a5
    5404:	6b07b783          	ld	a5,1712(a5) # 16b0 <.LBB87_5+0x230>
    5408:	00f585b3          	add	a1,a1,a5
    540c:	41a507bb          	subw	a5,a0,s10
    5410:	40f585bb          	subw	a1,a1,a5
    5414:	400007b7          	lui	a5,0x40000
    5418:	a8b43c23          	sd	a1,-1384(s0)
    541c:	0005d463          	bgez	a1,5424 <.LBB87_276>
    5420:	c00007b7          	lui	a5,0xc0000

0000000000005424 <.LBB87_276>:
    5424:	a4f43023          	sd	a5,-1472(s0)
    5428:	ac043583          	ld	a1,-1344(s0)
    542c:	000017b7          	lui	a5,0x1
    5430:	40f407b3          	sub	a5,s0,a5
    5434:	6a87b783          	ld	a5,1704(a5) # 16a8 <.LBB87_5+0x228>
    5438:	00f585b3          	add	a1,a1,a5
    543c:	000017b7          	lui	a5,0x1
    5440:	40f407b3          	sub	a5,s0,a5
    5444:	6a07b783          	ld	a5,1696(a5) # 16a0 <.LBB87_5+0x220>
    5448:	00f585b3          	add	a1,a1,a5
    544c:	41a507bb          	subw	a5,a0,s10
    5450:	40f585bb          	subw	a1,a1,a5
    5454:	400007b7          	lui	a5,0x40000
    5458:	acb43023          	sd	a1,-1344(s0)
    545c:	0005d463          	bgez	a1,5464 <.LBB87_278>
    5460:	c00007b7          	lui	a5,0xc0000

0000000000005464 <.LBB87_278>:
    5464:	aaf43423          	sd	a5,-1368(s0)
    5468:	ac843583          	ld	a1,-1336(s0)
    546c:	000017b7          	lui	a5,0x1
    5470:	40f407b3          	sub	a5,s0,a5
    5474:	6987b783          	ld	a5,1688(a5) # 1698 <.LBB87_5+0x218>
    5478:	00f585b3          	add	a1,a1,a5
    547c:	000017b7          	lui	a5,0x1
    5480:	40f407b3          	sub	a5,s0,a5
    5484:	6907b783          	ld	a5,1680(a5) # 1690 <.LBB87_5+0x210>
    5488:	00f585b3          	add	a1,a1,a5
    548c:	41a507bb          	subw	a5,a0,s10
    5490:	40f585bb          	subw	a1,a1,a5
    5494:	400007b7          	lui	a5,0x40000
    5498:	aab43c23          	sd	a1,-1352(s0)
    549c:	0005d463          	bgez	a1,54a4 <.LBB87_280>
    54a0:	c00007b7          	lui	a5,0xc0000

00000000000054a4 <.LBB87_280>:
    54a4:	a2f43c23          	sd	a5,-1480(s0)
    54a8:	ad043583          	ld	a1,-1328(s0)
    54ac:	000017b7          	lui	a5,0x1
    54b0:	40f407b3          	sub	a5,s0,a5
    54b4:	6887b783          	ld	a5,1672(a5) # 1688 <.LBB87_5+0x208>
    54b8:	00f585b3          	add	a1,a1,a5
    54bc:	000017b7          	lui	a5,0x1
    54c0:	40f407b3          	sub	a5,s0,a5
    54c4:	6d07b783          	ld	a5,1744(a5) # 16d0 <.LBB87_5+0x250>
    54c8:	00f585b3          	add	a1,a1,a5
    54cc:	41a507bb          	subw	a5,a0,s10
    54d0:	40f585bb          	subw	a1,a1,a5
    54d4:	400007b7          	lui	a5,0x40000
    54d8:	acb43823          	sd	a1,-1328(s0)
    54dc:	0005d463          	bgez	a1,54e4 <.LBB87_282>
    54e0:	c00007b7          	lui	a5,0xc0000

00000000000054e4 <.LBB87_282>:
    54e4:	acf43423          	sd	a5,-1336(s0)
    54e8:	ad843583          	ld	a1,-1320(s0)
    54ec:	eb043783          	ld	a5,-336(s0)
    54f0:	00f585b3          	add	a1,a1,a5
    54f4:	005585b3          	add	a1,a1,t0
    54f8:	41a507bb          	subw	a5,a0,s10
    54fc:	40f585bb          	subw	a1,a1,a5
    5500:	400007b7          	lui	a5,0x40000
    5504:	acb43c23          	sd	a1,-1320(s0)
    5508:	0005d463          	bgez	a1,5510 <.LBB87_284>
    550c:	c00007b7          	lui	a5,0xc0000

0000000000005510 <.LBB87_284>:
    5510:	a2f43823          	sd	a5,-1488(s0)
    5514:	ae043583          	ld	a1,-1312(s0)
    5518:	eb843783          	ld	a5,-328(s0)
    551c:	00f585b3          	add	a1,a1,a5
    5520:	001585b3          	add	a1,a1,ra
    5524:	41a507bb          	subw	a5,a0,s10
    5528:	40f585bb          	subw	a1,a1,a5
    552c:	400007b7          	lui	a5,0x40000
    5530:	aeb43023          	sd	a1,-1312(s0)
    5534:	0005d463          	bgez	a1,553c <.LBB87_286>
    5538:	c00007b7          	lui	a5,0xc0000

000000000000553c <.LBB87_286>:
    553c:	a2f43423          	sd	a5,-1496(s0)
    5540:	ae843583          	ld	a1,-1304(s0)
    5544:	ec043783          	ld	a5,-320(s0)
    5548:	00f585b3          	add	a1,a1,a5
    554c:	01b585b3          	add	a1,a1,s11
    5550:	41a507bb          	subw	a5,a0,s10
    5554:	40f585bb          	subw	a1,a1,a5
    5558:	400007b7          	lui	a5,0x40000
    555c:	aeb43423          	sd	a1,-1304(s0)
    5560:	0005d463          	bgez	a1,5568 <.LBB87_288>
    5564:	c00007b7          	lui	a5,0xc0000

0000000000005568 <.LBB87_288>:
    5568:	a2f43023          	sd	a5,-1504(s0)
    556c:	af043583          	ld	a1,-1296(s0)
    5570:	ec843783          	ld	a5,-312(s0)
    5574:	00f585b3          	add	a1,a1,a5
    5578:	000017b7          	lui	a5,0x1
    557c:	40f407b3          	sub	a5,s0,a5
    5580:	6f07b783          	ld	a5,1776(a5) # 16f0 <.LBB87_5+0x270>
    5584:	00f585b3          	add	a1,a1,a5
    5588:	41a507bb          	subw	a5,a0,s10
    558c:	40f585bb          	subw	a1,a1,a5
    5590:	400007b7          	lui	a5,0x40000
    5594:	aeb43823          	sd	a1,-1296(s0)
    5598:	0005d463          	bgez	a1,55a0 <.LBB87_290>
    559c:	c00007b7          	lui	a5,0xc0000

00000000000055a0 <.LBB87_290>:
    55a0:	a0f43c23          	sd	a5,-1512(s0)
    55a4:	af843583          	ld	a1,-1288(s0)
    55a8:	ed043783          	ld	a5,-304(s0)
    55ac:	00f585b3          	add	a1,a1,a5
    55b0:	019585b3          	add	a1,a1,s9
    55b4:	41a507bb          	subw	a5,a0,s10
    55b8:	40f585bb          	subw	a1,a1,a5
    55bc:	400007b7          	lui	a5,0x40000
    55c0:	aeb43c23          	sd	a1,-1288(s0)
    55c4:	0005d463          	bgez	a1,55cc <.LBB87_292>
    55c8:	c00007b7          	lui	a5,0xc0000

00000000000055cc <.LBB87_292>:
    55cc:	a0f43823          	sd	a5,-1520(s0)
    55d0:	ed843583          	ld	a1,-296(s0)
    55d4:	00be85b3          	add	a1,t4,a1
    55d8:	018585b3          	add	a1,a1,s8
    55dc:	41a507bb          	subw	a5,a0,s10
    55e0:	40f585bb          	subw	a1,a1,a5
    55e4:	400007b7          	lui	a5,0x40000
    55e8:	b0b43023          	sd	a1,-1280(s0)
    55ec:	0005d463          	bgez	a1,55f4 <.LBB87_294>
    55f0:	c00007b7          	lui	a5,0xc0000

00000000000055f4 <.LBB87_294>:
    55f4:	a0f43423          	sd	a5,-1528(s0)
    55f8:	b0843583          	ld	a1,-1272(s0)
    55fc:	ee043783          	ld	a5,-288(s0)
    5600:	00f585b3          	add	a1,a1,a5
    5604:	017585b3          	add	a1,a1,s7
    5608:	41a507bb          	subw	a5,a0,s10
    560c:	40f585bb          	subw	a1,a1,a5
    5610:	400007b7          	lui	a5,0x40000
    5614:	b0b43423          	sd	a1,-1272(s0)
    5618:	0005d463          	bgez	a1,5620 <.LBB87_296>
    561c:	c00007b7          	lui	a5,0xc0000

0000000000005620 <.LBB87_296>:
    5620:	000015b7          	lui	a1,0x1
    5624:	40b405b3          	sub	a1,s0,a1
    5628:	26f5b023          	sd	a5,608(a1) # 1260 <.LBB87_4+0x39c>
    562c:	b1043583          	ld	a1,-1264(s0)
    5630:	ee843783          	ld	a5,-280(s0)
    5634:	00f585b3          	add	a1,a1,a5
    5638:	016585b3          	add	a1,a1,s6
    563c:	41a507bb          	subw	a5,a0,s10
    5640:	40f585bb          	subw	a1,a1,a5
    5644:	400007b7          	lui	a5,0x40000
    5648:	b0b43823          	sd	a1,-1264(s0)
    564c:	0005d463          	bgez	a1,5654 <.LBB87_298>
    5650:	c00007b7          	lui	a5,0xc0000

0000000000005654 <.LBB87_298>:
    5654:	000015b7          	lui	a1,0x1
    5658:	40b405b3          	sub	a1,s0,a1
    565c:	1ef5b423          	sd	a5,488(a1) # 11e8 <.LBB87_4+0x324>
    5660:	b1843583          	ld	a1,-1256(s0)
    5664:	ef043783          	ld	a5,-272(s0)
    5668:	00f585b3          	add	a1,a1,a5
    566c:	01e585b3          	add	a1,a1,t5
    5670:	41a507bb          	subw	a5,a0,s10
    5674:	40f585bb          	subw	a1,a1,a5
    5678:	400007b7          	lui	a5,0x40000
    567c:	b0b43c23          	sd	a1,-1256(s0)
    5680:	0005d463          	bgez	a1,5688 <.LBB87_300>
    5684:	c00007b7          	lui	a5,0xc0000

0000000000005688 <.LBB87_300>:
    5688:	000015b7          	lui	a1,0x1
    568c:	40b405b3          	sub	a1,s0,a1
    5690:	16f5b823          	sd	a5,368(a1) # 1170 <.LBB87_4+0x2ac>
    5694:	b2043583          	ld	a1,-1248(s0)
    5698:	ef843783          	ld	a5,-264(s0)
    569c:	00f585b3          	add	a1,a1,a5
    56a0:	014585b3          	add	a1,a1,s4
    56a4:	41a507bb          	subw	a5,a0,s10
    56a8:	40f585bb          	subw	a1,a1,a5
    56ac:	400007b7          	lui	a5,0x40000
    56b0:	b2b43023          	sd	a1,-1248(s0)
    56b4:	0005d463          	bgez	a1,56bc <.LBB87_302>
    56b8:	c00007b7          	lui	a5,0xc0000

00000000000056bc <.LBB87_302>:
    56bc:	000015b7          	lui	a1,0x1
    56c0:	40b405b3          	sub	a1,s0,a1
    56c4:	0ef5bc23          	sd	a5,248(a1) # 10f8 <.LBB87_4+0x234>
    56c8:	b2843583          	ld	a1,-1240(s0)
    56cc:	f3043783          	ld	a5,-208(s0)
    56d0:	00f585b3          	add	a1,a1,a5
    56d4:	013585b3          	add	a1,a1,s3
    56d8:	41a507bb          	subw	a5,a0,s10
    56dc:	40f585bb          	subw	a1,a1,a5
    56e0:	400007b7          	lui	a5,0x40000
    56e4:	b2b43423          	sd	a1,-1240(s0)
    56e8:	0005d463          	bgez	a1,56f0 <.LBB87_304>
    56ec:	c00007b7          	lui	a5,0xc0000

00000000000056f0 <.LBB87_304>:
    56f0:	000015b7          	lui	a1,0x1
    56f4:	40b405b3          	sub	a1,s0,a1
    56f8:	08f5b023          	sd	a5,128(a1) # 1080 <.LBB87_4+0x1bc>
    56fc:	b3043583          	ld	a1,-1232(s0)
    5700:	f3843783          	ld	a5,-200(s0)
    5704:	00f585b3          	add	a1,a1,a5
    5708:	012585b3          	add	a1,a1,s2
    570c:	41a507bb          	subw	a5,a0,s10
    5710:	40f585bb          	subw	a1,a1,a5
    5714:	400007b7          	lui	a5,0x40000
    5718:	b2b43823          	sd	a1,-1232(s0)
    571c:	0005d463          	bgez	a1,5724 <.LBB87_306>
    5720:	c00007b7          	lui	a5,0xc0000

0000000000005724 <.LBB87_306>:
    5724:	000015b7          	lui	a1,0x1
    5728:	40b405b3          	sub	a1,s0,a1
    572c:	00f5b423          	sd	a5,8(a1) # 1008 <.LBB87_4+0x144>
    5730:	b3843583          	ld	a1,-1224(s0)
    5734:	f4043783          	ld	a5,-192(s0)
    5738:	00f585b3          	add	a1,a1,a5
    573c:	000017b7          	lui	a5,0x1
    5740:	40f407b3          	sub	a5,s0,a5
    5744:	7387b783          	ld	a5,1848(a5) # 1738 <.LBB87_5+0x2b8>
    5748:	00f585b3          	add	a1,a1,a5
    574c:	41a507bb          	subw	a5,a0,s10
    5750:	40f585bb          	subw	a1,a1,a5
    5754:	400007b7          	lui	a5,0x40000
    5758:	00001837          	lui	a6,0x1
    575c:	41040833          	sub	a6,s0,a6
    5760:	fab83023          	sd	a1,-96(a6) # fa0 <.LBB87_4+0xdc>
    5764:	0005d463          	bgez	a1,576c <.LBB87_308>
    5768:	c00007b7          	lui	a5,0xc0000

000000000000576c <.LBB87_308>:
    576c:	000015b7          	lui	a1,0x1
    5770:	40b405b3          	sub	a1,s0,a1
    5774:	f8f5b423          	sd	a5,-120(a1) # f88 <.LBB87_4+0xc4>
    5778:	b4043583          	ld	a1,-1216(s0)
    577c:	f4843783          	ld	a5,-184(s0)
    5780:	00f585b3          	add	a1,a1,a5
    5784:	000017b7          	lui	a5,0x1
    5788:	40f407b3          	sub	a5,s0,a5
    578c:	7407b783          	ld	a5,1856(a5) # 1740 <.LBB87_5+0x2c0>
    5790:	00f585b3          	add	a1,a1,a5
    5794:	41a507bb          	subw	a5,a0,s10
    5798:	40f585bb          	subw	a1,a1,a5
    579c:	400007b7          	lui	a5,0x40000
    57a0:	b4b43023          	sd	a1,-1216(s0)
    57a4:	0005d463          	bgez	a1,57ac <.LBB87_310>
    57a8:	c00007b7          	lui	a5,0xc0000

00000000000057ac <.LBB87_310>:
    57ac:	000015b7          	lui	a1,0x1
    57b0:	40b405b3          	sub	a1,s0,a1
    57b4:	f0f5bc23          	sd	a5,-232(a1) # f18 <.LBB87_4+0x54>
    57b8:	b4843583          	ld	a1,-1208(s0)
    57bc:	f5043783          	ld	a5,-176(s0)
    57c0:	00f585b3          	add	a1,a1,a5
    57c4:	000017b7          	lui	a5,0x1
    57c8:	40f407b3          	sub	a5,s0,a5
    57cc:	7487b783          	ld	a5,1864(a5) # 1748 <.LBB87_5+0x2c8>
    57d0:	00f585b3          	add	a1,a1,a5
    57d4:	41a507bb          	subw	a5,a0,s10
    57d8:	40f585bb          	subw	a1,a1,a5
    57dc:	400007b7          	lui	a5,0x40000
    57e0:	00001837          	lui	a6,0x1
    57e4:	41040833          	sub	a6,s0,a6
    57e8:	eab83c23          	sd	a1,-328(a6) # eb8 <.LBB87_3+0xc4c>
    57ec:	0005d463          	bgez	a1,57f4 <.LBB87_312>
    57f0:	c00007b7          	lui	a5,0xc0000

00000000000057f4 <.LBB87_312>:
    57f4:	000015b7          	lui	a1,0x1
    57f8:	40b405b3          	sub	a1,s0,a1
    57fc:	eaf5b023          	sd	a5,-352(a1) # ea0 <.LBB87_3+0xc34>
    5800:	b5043583          	ld	a1,-1200(s0)
    5804:	f5843783          	ld	a5,-168(s0)
    5808:	00f585b3          	add	a1,a1,a5
    580c:	000017b7          	lui	a5,0x1
    5810:	40f407b3          	sub	a5,s0,a5
    5814:	7507b783          	ld	a5,1872(a5) # 1750 <.LBB87_5+0x2d0>
    5818:	00f585b3          	add	a1,a1,a5
    581c:	41a507bb          	subw	a5,a0,s10
    5820:	40f585bb          	subw	a1,a1,a5
    5824:	400007b7          	lui	a5,0x40000
    5828:	b4b43823          	sd	a1,-1200(s0)
    582c:	0005d463          	bgez	a1,5834 <.LBB87_314>
    5830:	c00007b7          	lui	a5,0xc0000

0000000000005834 <.LBB87_314>:
    5834:	000015b7          	lui	a1,0x1
    5838:	40b405b3          	sub	a1,s0,a1
    583c:	e2f5b823          	sd	a5,-464(a1) # e30 <.LBB87_3+0xbc4>
    5840:	b5843583          	ld	a1,-1192(s0)
    5844:	f6043783          	ld	a5,-160(s0)
    5848:	00f585b3          	add	a1,a1,a5
    584c:	000017b7          	lui	a5,0x1
    5850:	40f407b3          	sub	a5,s0,a5
    5854:	7587b783          	ld	a5,1880(a5) # 1758 <.LBB87_5+0x2d8>
    5858:	00f585b3          	add	a1,a1,a5
    585c:	41a507bb          	subw	a5,a0,s10
    5860:	40f585bb          	subw	a1,a1,a5
    5864:	400007b7          	lui	a5,0x40000
    5868:	00001837          	lui	a6,0x1
    586c:	41040833          	sub	a6,s0,a6
    5870:	dcb83823          	sd	a1,-560(a6) # dd0 <.LBB87_3+0xb64>
    5874:	0005d463          	bgez	a1,587c <.LBB87_316>
    5878:	c00007b7          	lui	a5,0xc0000

000000000000587c <.LBB87_316>:
    587c:	000015b7          	lui	a1,0x1
    5880:	40b405b3          	sub	a1,s0,a1
    5884:	daf5bc23          	sd	a5,-584(a1) # db8 <.LBB87_3+0xb4c>
    5888:	b6043583          	ld	a1,-1184(s0)
    588c:	f6843783          	ld	a5,-152(s0)
    5890:	00f585b3          	add	a1,a1,a5
    5894:	015585b3          	add	a1,a1,s5
    5898:	41a507bb          	subw	a5,a0,s10
    589c:	40f585bb          	subw	a1,a1,a5
    58a0:	400007b7          	lui	a5,0x40000
    58a4:	b6b43023          	sd	a1,-1184(s0)
    58a8:	0005d463          	bgez	a1,58b0 <.LBB87_318>
    58ac:	c00007b7          	lui	a5,0xc0000

00000000000058b0 <.LBB87_318>:
    58b0:	000015b7          	lui	a1,0x1
    58b4:	40b405b3          	sub	a1,s0,a1
    58b8:	d4f5b423          	sd	a5,-696(a1) # d48 <.LBB87_3+0xadc>
    58bc:	f7043583          	ld	a1,-144(s0)
    58c0:	b6843783          	ld	a5,-1176(s0)
    58c4:	00b785b3          	add	a1,a5,a1
    58c8:	01f585b3          	add	a1,a1,t6
    58cc:	41a507bb          	subw	a5,a0,s10
    58d0:	40f585bb          	subw	a1,a1,a5
    58d4:	400007b7          	lui	a5,0x40000
    58d8:	00001837          	lui	a6,0x1
    58dc:	41040833          	sub	a6,s0,a6
    58e0:	ceb83023          	sd	a1,-800(a6) # ce0 <.LBB87_3+0xa74>
    58e4:	0005d463          	bgez	a1,58ec <.LBB87_320>
    58e8:	c00007b7          	lui	a5,0xc0000

00000000000058ec <.LBB87_320>:
    58ec:	000015b7          	lui	a1,0x1
    58f0:	40b405b3          	sub	a1,s0,a1
    58f4:	ccf5b823          	sd	a5,-816(a1) # cd0 <.LBB87_3+0xa64>
    58f8:	f7843583          	ld	a1,-136(s0)
    58fc:	b7043783          	ld	a5,-1168(s0)
    5900:	00b785b3          	add	a1,a5,a1
    5904:	011585b3          	add	a1,a1,a7
    5908:	41a507bb          	subw	a5,a0,s10
    590c:	40f587bb          	subw	a5,a1,a5
    5910:	400005b7          	lui	a1,0x40000
    5914:	00001837          	lui	a6,0x1
    5918:	41040833          	sub	a6,s0,a6
    591c:	bef83823          	sd	a5,-1040(a6) # bf0 <.LBB87_3+0x984>
    5920:	0007d463          	bgez	a5,5928 <.LBB87_322>
    5924:	c00005b7          	lui	a1,0xc0000

0000000000005928 <.LBB87_322>:
    5928:	b6b43823          	sd	a1,-1168(s0)
    592c:	f8043583          	ld	a1,-128(s0)
    5930:	b7843783          	ld	a5,-1160(s0)
    5934:	00b785b3          	add	a1,a5,a1
    5938:	01c585b3          	add	a1,a1,t3
    593c:	41a507bb          	subw	a5,a0,s10
    5940:	40f587bb          	subw	a5,a1,a5
    5944:	400005b7          	lui	a1,0x40000
    5948:	00001837          	lui	a6,0x1
    594c:	41040833          	sub	a6,s0,a6
    5950:	bcf83823          	sd	a5,-1072(a6) # bd0 <.LBB87_3+0x964>
    5954:	0007d463          	bgez	a5,595c <.LBB87_324>
    5958:	c00005b7          	lui	a1,0xc0000

000000000000595c <.LBB87_324>:
    595c:	000017b7          	lui	a5,0x1
    5960:	40f407b3          	sub	a5,s0,a5
    5964:	c2b7b423          	sd	a1,-984(a5) # c28 <.LBB87_3+0x9bc>
    5968:	f8843583          	ld	a1,-120(s0)
    596c:	b8043783          	ld	a5,-1152(s0)
    5970:	00b785b3          	add	a1,a5,a1
    5974:	00d585b3          	add	a1,a1,a3
    5978:	41a5053b          	subw	a0,a0,s10
    597c:	40a585bb          	subw	a1,a1,a0
    5980:	400007b7          	lui	a5,0x40000
    5984:	b8843503          	ld	a0,-1144(s0)
    5988:	0005d463          	bgez	a1,5990 <.LBB87_326>
    598c:	c00007b7          	lui	a5,0xc0000

0000000000005990 <.LBB87_326>:
    5990:	b8f43023          	sd	a5,-1152(s0)
    5994:	ea843783          	ld	a5,-344(s0)
    5998:	00f50533          	add	a0,a0,a5
    599c:	000017b7          	lui	a5,0x1
    59a0:	40f407b3          	sub	a5,s0,a5
    59a4:	5b87b783          	ld	a5,1464(a5) # 15b8 <.LBB87_5+0x138>
    59a8:	029787b3          	mul	a5,a5,s1
    59ac:	ea043803          	ld	a6,-352(s0)
    59b0:	01050533          	add	a0,a0,a6
    59b4:	41a7883b          	subw	a6,a5,s10
    59b8:	4105053b          	subw	a0,a0,a6
    59bc:	40000837          	lui	a6,0x40000
    59c0:	9ca43823          	sd	a0,-1584(s0)
    59c4:	00055463          	bgez	a0,59cc <.LBB87_328>
    59c8:	c0000837          	lui	a6,0xc0000

00000000000059cc <.LBB87_328>:
    59cc:	9d043023          	sd	a6,-1600(s0)
    59d0:	b9043503          	ld	a0,-1136(s0)
    59d4:	e9843803          	ld	a6,-360(s0)
    59d8:	01050533          	add	a0,a0,a6
    59dc:	e9043803          	ld	a6,-368(s0)
    59e0:	01050533          	add	a0,a0,a6
    59e4:	41a7883b          	subw	a6,a5,s10
    59e8:	4105053b          	subw	a0,a0,a6
    59ec:	40000837          	lui	a6,0x40000
    59f0:	9aa43c23          	sd	a0,-1608(s0)
    59f4:	00055463          	bgez	a0,59fc <.LBB87_330>
    59f8:	c0000837          	lui	a6,0xc0000

00000000000059fc <.LBB87_330>:
    59fc:	9b043823          	sd	a6,-1616(s0)
    5a00:	b9843503          	ld	a0,-1128(s0)
    5a04:	e8843803          	ld	a6,-376(s0)
    5a08:	01050533          	add	a0,a0,a6
    5a0c:	e8043803          	ld	a6,-384(s0)
    5a10:	01050533          	add	a0,a0,a6
    5a14:	41a7883b          	subw	a6,a5,s10
    5a18:	4105053b          	subw	a0,a0,a6
    5a1c:	40000837          	lui	a6,0x40000
    5a20:	9aa43423          	sd	a0,-1624(s0)
    5a24:	00055463          	bgez	a0,5a2c <.LBB87_332>
    5a28:	c0000837          	lui	a6,0xc0000

0000000000005a2c <.LBB87_332>:
    5a2c:	9b043023          	sd	a6,-1632(s0)
    5a30:	ba043503          	ld	a0,-1120(s0)
    5a34:	e7843803          	ld	a6,-392(s0)
    5a38:	01050533          	add	a0,a0,a6
    5a3c:	e7043803          	ld	a6,-400(s0)
    5a40:	01050533          	add	a0,a0,a6
    5a44:	41a7883b          	subw	a6,a5,s10
    5a48:	4105053b          	subw	a0,a0,a6
    5a4c:	40000837          	lui	a6,0x40000
    5a50:	94a43c23          	sd	a0,-1704(s0)
    5a54:	00055463          	bgez	a0,5a5c <.LBB87_334>
    5a58:	c0000837          	lui	a6,0xc0000

0000000000005a5c <.LBB87_334>:
    5a5c:	95043423          	sd	a6,-1720(s0)
    5a60:	ba843503          	ld	a0,-1112(s0)
    5a64:	e6843803          	ld	a6,-408(s0)
    5a68:	01050533          	add	a0,a0,a6
    5a6c:	e6043803          	ld	a6,-416(s0)
    5a70:	01050533          	add	a0,a0,a6
    5a74:	41a7883b          	subw	a6,a5,s10
    5a78:	4105053b          	subw	a0,a0,a6
    5a7c:	40000837          	lui	a6,0x40000
    5a80:	90a43c23          	sd	a0,-1768(s0)
    5a84:	00055463          	bgez	a0,5a8c <.LBB87_336>
    5a88:	c0000837          	lui	a6,0xc0000

0000000000005a8c <.LBB87_336>:
    5a8c:	91043423          	sd	a6,-1784(s0)
    5a90:	bb043503          	ld	a0,-1104(s0)
    5a94:	00001837          	lui	a6,0x1
    5a98:	41040833          	sub	a6,s0,a6
    5a9c:	6c883803          	ld	a6,1736(a6) # 16c8 <.LBB87_5+0x248>
    5aa0:	01050533          	add	a0,a0,a6
    5aa4:	00001837          	lui	a6,0x1
    5aa8:	41040833          	sub	a6,s0,a6
    5aac:	6c083803          	ld	a6,1728(a6) # 16c0 <.LBB87_5+0x240>
    5ab0:	01050533          	add	a0,a0,a6
    5ab4:	41a7883b          	subw	a6,a5,s10
    5ab8:	4105053b          	subw	a0,a0,a6
    5abc:	40000837          	lui	a6,0x40000
    5ac0:	8ca43423          	sd	a0,-1848(s0)
    5ac4:	00055463          	bgez	a0,5acc <.LBB87_338>
    5ac8:	c0000837          	lui	a6,0xc0000

0000000000005acc <.LBB87_338>:
    5acc:	8b043c23          	sd	a6,-1864(s0)
    5ad0:	bb843503          	ld	a0,-1096(s0)
    5ad4:	00001837          	lui	a6,0x1
    5ad8:	41040833          	sub	a6,s0,a6
    5adc:	6b883803          	ld	a6,1720(a6) # 16b8 <.LBB87_5+0x238>
    5ae0:	01050533          	add	a0,a0,a6
    5ae4:	00001837          	lui	a6,0x1
    5ae8:	41040833          	sub	a6,s0,a6
    5aec:	6b083803          	ld	a6,1712(a6) # 16b0 <.LBB87_5+0x230>
    5af0:	01050533          	add	a0,a0,a6
    5af4:	41a7883b          	subw	a6,a5,s10
    5af8:	4105053b          	subw	a0,a0,a6
    5afc:	40000837          	lui	a6,0x40000
    5b00:	000013b7          	lui	t2,0x1
    5b04:	407403b3          	sub	t2,s0,t2
    5b08:	7ca3b423          	sd	a0,1992(t2) # 17c8 <.LBB87_5+0x348>
    5b0c:	00055463          	bgez	a0,5b14 <.LBB87_340>
    5b10:	c0000837          	lui	a6,0xc0000

0000000000005b14 <.LBB87_340>:
    5b14:	00001537          	lui	a0,0x1
    5b18:	40a40533          	sub	a0,s0,a0
    5b1c:	71053c23          	sd	a6,1816(a0) # 1718 <.LBB87_5+0x298>
    5b20:	bc043503          	ld	a0,-1088(s0)
    5b24:	00001837          	lui	a6,0x1
    5b28:	41040833          	sub	a6,s0,a6
    5b2c:	6a883803          	ld	a6,1704(a6) # 16a8 <.LBB87_5+0x228>
    5b30:	01050533          	add	a0,a0,a6
    5b34:	00001837          	lui	a6,0x1
    5b38:	41040833          	sub	a6,s0,a6
    5b3c:	6a083803          	ld	a6,1696(a6) # 16a0 <.LBB87_5+0x220>
    5b40:	01050533          	add	a0,a0,a6
    5b44:	41a7883b          	subw	a6,a5,s10
    5b48:	4105053b          	subw	a0,a0,a6
    5b4c:	40000837          	lui	a6,0x40000
    5b50:	000013b7          	lui	t2,0x1
    5b54:	407403b3          	sub	t2,s0,t2
    5b58:	5aa3bc23          	sd	a0,1464(t2) # 15b8 <.LBB87_5+0x138>
    5b5c:	00055463          	bgez	a0,5b64 <.LBB87_342>
    5b60:	c0000837          	lui	a6,0xc0000

0000000000005b64 <.LBB87_342>:
    5b64:	00001537          	lui	a0,0x1
    5b68:	40a40533          	sub	a0,s0,a0
    5b6c:	5b053423          	sd	a6,1448(a0) # 15a8 <.LBB87_5+0x128>
    5b70:	bc843503          	ld	a0,-1080(s0)
    5b74:	00001837          	lui	a6,0x1
    5b78:	41040833          	sub	a6,s0,a6
    5b7c:	69883803          	ld	a6,1688(a6) # 1698 <.LBB87_5+0x218>
    5b80:	01050533          	add	a0,a0,a6
    5b84:	00001837          	lui	a6,0x1
    5b88:	41040833          	sub	a6,s0,a6
    5b8c:	69083803          	ld	a6,1680(a6) # 1690 <.LBB87_5+0x210>
    5b90:	01050533          	add	a0,a0,a6
    5b94:	41a7883b          	subw	a6,a5,s10
    5b98:	4105053b          	subw	a0,a0,a6
    5b9c:	40000837          	lui	a6,0x40000
    5ba0:	000013b7          	lui	t2,0x1
    5ba4:	407403b3          	sub	t2,s0,t2
    5ba8:	56a3b023          	sd	a0,1376(t2) # 1560 <.LBB87_5+0xe0>
    5bac:	00055463          	bgez	a0,5bb4 <.LBB87_344>
    5bb0:	c0000837          	lui	a6,0xc0000

0000000000005bb4 <.LBB87_344>:
    5bb4:	00001537          	lui	a0,0x1
    5bb8:	40a40533          	sub	a0,s0,a0
    5bbc:	55053823          	sd	a6,1360(a0) # 1550 <.LBB87_5+0xd0>
    5bc0:	bd043503          	ld	a0,-1072(s0)
    5bc4:	00001837          	lui	a6,0x1
    5bc8:	41040833          	sub	a6,s0,a6
    5bcc:	68883803          	ld	a6,1672(a6) # 1688 <.LBB87_5+0x208>
    5bd0:	01050533          	add	a0,a0,a6
    5bd4:	00001837          	lui	a6,0x1
    5bd8:	41040833          	sub	a6,s0,a6
    5bdc:	6d083803          	ld	a6,1744(a6) # 16d0 <.LBB87_5+0x250>
    5be0:	01050533          	add	a0,a0,a6
    5be4:	41a7883b          	subw	a6,a5,s10
    5be8:	4105053b          	subw	a0,a0,a6
    5bec:	40000837          	lui	a6,0x40000
    5bf0:	000013b7          	lui	t2,0x1
    5bf4:	407403b3          	sub	t2,s0,t2
    5bf8:	50a3b023          	sd	a0,1280(t2) # 1500 <.LBB87_5+0x80>
    5bfc:	00055463          	bgez	a0,5c04 <.LBB87_346>
    5c00:	c0000837          	lui	a6,0xc0000

0000000000005c04 <.LBB87_346>:
    5c04:	00001537          	lui	a0,0x1
    5c08:	40a40533          	sub	a0,s0,a0
    5c0c:	4f053823          	sd	a6,1264(a0) # 14f0 <.LBB87_5+0x70>
    5c10:	bd843503          	ld	a0,-1064(s0)
    5c14:	eb043803          	ld	a6,-336(s0)
    5c18:	01050533          	add	a0,a0,a6
    5c1c:	00550533          	add	a0,a0,t0
    5c20:	41a7883b          	subw	a6,a5,s10
    5c24:	4105053b          	subw	a0,a0,a6
    5c28:	40000837          	lui	a6,0x40000
    5c2c:	000013b7          	lui	t2,0x1
    5c30:	407403b3          	sub	t2,s0,t2
    5c34:	4aa3b423          	sd	a0,1192(t2) # 14a8 <.LBB87_5+0x28>
    5c38:	00055463          	bgez	a0,5c40 <.LBB87_348>
    5c3c:	c0000837          	lui	a6,0xc0000

0000000000005c40 <.LBB87_348>:
    5c40:	00001537          	lui	a0,0x1
    5c44:	40a40533          	sub	a0,s0,a0
    5c48:	49053c23          	sd	a6,1176(a0) # 1498 <.LBB87_5+0x18>
    5c4c:	be043503          	ld	a0,-1056(s0)
    5c50:	eb843803          	ld	a6,-328(s0)
    5c54:	01050533          	add	a0,a0,a6
    5c58:	00150533          	add	a0,a0,ra
    5c5c:	41a7883b          	subw	a6,a5,s10
    5c60:	4105053b          	subw	a0,a0,a6
    5c64:	40000837          	lui	a6,0x40000
    5c68:	000013b7          	lui	t2,0x1
    5c6c:	407403b3          	sub	t2,s0,t2
    5c70:	44a3b823          	sd	a0,1104(t2) # 1450 <.LBB87_4+0x58c>
    5c74:	00055463          	bgez	a0,5c7c <.LBB87_350>
    5c78:	c0000837          	lui	a6,0xc0000

0000000000005c7c <.LBB87_350>:
    5c7c:	00001537          	lui	a0,0x1
    5c80:	40a40533          	sub	a0,s0,a0
    5c84:	45053023          	sd	a6,1088(a0) # 1440 <.LBB87_4+0x57c>
    5c88:	be843503          	ld	a0,-1048(s0)
    5c8c:	ec043803          	ld	a6,-320(s0)
    5c90:	01050533          	add	a0,a0,a6
    5c94:	01b50533          	add	a0,a0,s11
    5c98:	41a7883b          	subw	a6,a5,s10
    5c9c:	4105053b          	subw	a0,a0,a6
    5ca0:	40000837          	lui	a6,0x40000
    5ca4:	000013b7          	lui	t2,0x1
    5ca8:	407403b3          	sub	t2,s0,t2
    5cac:	3ea3bc23          	sd	a0,1016(t2) # 13f8 <.LBB87_4+0x534>
    5cb0:	00055463          	bgez	a0,5cb8 <.LBB87_352>
    5cb4:	c0000837          	lui	a6,0xc0000

0000000000005cb8 <.LBB87_352>:
    5cb8:	00001537          	lui	a0,0x1
    5cbc:	40a40533          	sub	a0,s0,a0
    5cc0:	3f053423          	sd	a6,1000(a0) # 13e8 <.LBB87_4+0x524>
    5cc4:	bf043503          	ld	a0,-1040(s0)
    5cc8:	ec843803          	ld	a6,-312(s0)
    5ccc:	01050533          	add	a0,a0,a6
    5cd0:	00001837          	lui	a6,0x1
    5cd4:	41040833          	sub	a6,s0,a6
    5cd8:	6f083803          	ld	a6,1776(a6) # 16f0 <.LBB87_5+0x270>
    5cdc:	01050533          	add	a0,a0,a6
    5ce0:	41a7883b          	subw	a6,a5,s10
    5ce4:	4105053b          	subw	a0,a0,a6
    5ce8:	40000837          	lui	a6,0x40000
    5cec:	000013b7          	lui	t2,0x1
    5cf0:	407403b3          	sub	t2,s0,t2
    5cf4:	38a3b823          	sd	a0,912(t2) # 1390 <.LBB87_4+0x4cc>
    5cf8:	00055463          	bgez	a0,5d00 <.LBB87_354>
    5cfc:	c0000837          	lui	a6,0xc0000

0000000000005d00 <.LBB87_354>:
    5d00:	00001537          	lui	a0,0x1
    5d04:	40a40533          	sub	a0,s0,a0
    5d08:	39053023          	sd	a6,896(a0) # 1380 <.LBB87_4+0x4bc>
    5d0c:	bf843503          	ld	a0,-1032(s0)
    5d10:	ed043803          	ld	a6,-304(s0)
    5d14:	01050533          	add	a0,a0,a6
    5d18:	01950533          	add	a0,a0,s9
    5d1c:	41a7883b          	subw	a6,a5,s10
    5d20:	4105053b          	subw	a0,a0,a6
    5d24:	40000837          	lui	a6,0x40000
    5d28:	000013b7          	lui	t2,0x1
    5d2c:	407403b3          	sub	t2,s0,t2
    5d30:	32a3bc23          	sd	a0,824(t2) # 1338 <.LBB87_4+0x474>
    5d34:	00055463          	bgez	a0,5d3c <.LBB87_356>
    5d38:	c0000837          	lui	a6,0xc0000

0000000000005d3c <.LBB87_356>:
    5d3c:	00001537          	lui	a0,0x1
    5d40:	40a40533          	sub	a0,s0,a0
    5d44:	33053023          	sd	a6,800(a0) # 1320 <.LBB87_4+0x45c>
    5d48:	c0043503          	ld	a0,-1024(s0)
    5d4c:	ed843803          	ld	a6,-296(s0)
    5d50:	01050533          	add	a0,a0,a6
    5d54:	01850533          	add	a0,a0,s8
    5d58:	41a7883b          	subw	a6,a5,s10
    5d5c:	4105053b          	subw	a0,a0,a6
    5d60:	40000837          	lui	a6,0x40000
    5d64:	000013b7          	lui	t2,0x1
    5d68:	407403b3          	sub	t2,s0,t2
    5d6c:	2ca3b823          	sd	a0,720(t2) # 12d0 <.LBB87_4+0x40c>
    5d70:	00055463          	bgez	a0,5d78 <.LBB87_358>
    5d74:	c0000837          	lui	a6,0xc0000

0000000000005d78 <.LBB87_358>:
    5d78:	00001537          	lui	a0,0x1
    5d7c:	40a40533          	sub	a0,s0,a0
    5d80:	2b053c23          	sd	a6,696(a0) # 12b8 <.LBB87_4+0x3f4>
    5d84:	c0843503          	ld	a0,-1016(s0)
    5d88:	ee043803          	ld	a6,-288(s0)
    5d8c:	01050533          	add	a0,a0,a6
    5d90:	01750533          	add	a0,a0,s7
    5d94:	41a7883b          	subw	a6,a5,s10
    5d98:	4105053b          	subw	a0,a0,a6
    5d9c:	40000837          	lui	a6,0x40000
    5da0:	000013b7          	lui	t2,0x1
    5da4:	407403b3          	sub	t2,s0,t2
    5da8:	26a3b423          	sd	a0,616(t2) # 1268 <.LBB87_4+0x3a4>
    5dac:	00055463          	bgez	a0,5db4 <.LBB87_360>
    5db0:	c0000837          	lui	a6,0xc0000

0000000000005db4 <.LBB87_360>:
    5db4:	00001537          	lui	a0,0x1
    5db8:	40a40533          	sub	a0,s0,a0
    5dbc:	25053423          	sd	a6,584(a0) # 1248 <.LBB87_4+0x384>
    5dc0:	c1043503          	ld	a0,-1008(s0)
    5dc4:	ee843803          	ld	a6,-280(s0)
    5dc8:	01050533          	add	a0,a0,a6
    5dcc:	01650533          	add	a0,a0,s6
    5dd0:	41a7883b          	subw	a6,a5,s10
    5dd4:	4105053b          	subw	a0,a0,a6
    5dd8:	40000837          	lui	a6,0x40000
    5ddc:	000013b7          	lui	t2,0x1
    5de0:	407403b3          	sub	t2,s0,t2
    5de4:	1ea3b823          	sd	a0,496(t2) # 11f0 <.LBB87_4+0x32c>
    5de8:	00055463          	bgez	a0,5df0 <.LBB87_362>
    5dec:	c0000837          	lui	a6,0xc0000

0000000000005df0 <.LBB87_362>:
    5df0:	00001537          	lui	a0,0x1
    5df4:	40a40533          	sub	a0,s0,a0
    5df8:	1d053c23          	sd	a6,472(a0) # 11d8 <.LBB87_4+0x314>
    5dfc:	c1843503          	ld	a0,-1000(s0)
    5e00:	ef043803          	ld	a6,-272(s0)
    5e04:	01050533          	add	a0,a0,a6
    5e08:	01e50533          	add	a0,a0,t5
    5e0c:	41a7883b          	subw	a6,a5,s10
    5e10:	4105053b          	subw	a0,a0,a6
    5e14:	40000837          	lui	a6,0x40000
    5e18:	000013b7          	lui	t2,0x1
    5e1c:	407403b3          	sub	t2,s0,t2
    5e20:	16a3bc23          	sd	a0,376(t2) # 1178 <.LBB87_4+0x2b4>
    5e24:	00055463          	bgez	a0,5e2c <.LBB87_364>
    5e28:	c0000837          	lui	a6,0xc0000

0000000000005e2c <.LBB87_364>:
    5e2c:	00001537          	lui	a0,0x1
    5e30:	40a40533          	sub	a0,s0,a0
    5e34:	17053023          	sd	a6,352(a0) # 1160 <.LBB87_4+0x29c>
    5e38:	c2043503          	ld	a0,-992(s0)
    5e3c:	ef843803          	ld	a6,-264(s0)
    5e40:	01050533          	add	a0,a0,a6
    5e44:	01450533          	add	a0,a0,s4
    5e48:	41a7883b          	subw	a6,a5,s10
    5e4c:	4105053b          	subw	a0,a0,a6
    5e50:	40000837          	lui	a6,0x40000
    5e54:	000013b7          	lui	t2,0x1
    5e58:	407403b3          	sub	t2,s0,t2
    5e5c:	10a3b023          	sd	a0,256(t2) # 1100 <.LBB87_4+0x23c>
    5e60:	00055463          	bgez	a0,5e68 <.LBB87_366>
    5e64:	c0000837          	lui	a6,0xc0000

0000000000005e68 <.LBB87_366>:
    5e68:	00001537          	lui	a0,0x1
    5e6c:	40a40533          	sub	a0,s0,a0
    5e70:	0f053423          	sd	a6,232(a0) # 10e8 <.LBB87_4+0x224>
    5e74:	c2843503          	ld	a0,-984(s0)
    5e78:	f3043803          	ld	a6,-208(s0)
    5e7c:	01050533          	add	a0,a0,a6
    5e80:	01350533          	add	a0,a0,s3
    5e84:	41a7883b          	subw	a6,a5,s10
    5e88:	4105053b          	subw	a0,a0,a6
    5e8c:	40000837          	lui	a6,0x40000
    5e90:	000013b7          	lui	t2,0x1
    5e94:	407403b3          	sub	t2,s0,t2
    5e98:	08a3b423          	sd	a0,136(t2) # 1088 <.LBB87_4+0x1c4>
    5e9c:	00055463          	bgez	a0,5ea4 <.LBB87_368>
    5ea0:	c0000837          	lui	a6,0xc0000

0000000000005ea4 <.LBB87_368>:
    5ea4:	00001537          	lui	a0,0x1
    5ea8:	40a40533          	sub	a0,s0,a0
    5eac:	07053823          	sd	a6,112(a0) # 1070 <.LBB87_4+0x1ac>
    5eb0:	c3043503          	ld	a0,-976(s0)
    5eb4:	f3843803          	ld	a6,-200(s0)
    5eb8:	01050533          	add	a0,a0,a6
    5ebc:	01250533          	add	a0,a0,s2
    5ec0:	41a7883b          	subw	a6,a5,s10
    5ec4:	4105053b          	subw	a0,a0,a6
    5ec8:	40000837          	lui	a6,0x40000
    5ecc:	000013b7          	lui	t2,0x1
    5ed0:	407403b3          	sub	t2,s0,t2
    5ed4:	00a3b823          	sd	a0,16(t2) # 1010 <.LBB87_4+0x14c>
    5ed8:	00055463          	bgez	a0,5ee0 <.LBB87_370>
    5edc:	c0000837          	lui	a6,0xc0000

0000000000005ee0 <.LBB87_370>:
    5ee0:	00001537          	lui	a0,0x1
    5ee4:	40a40533          	sub	a0,s0,a0
    5ee8:	ff053c23          	sd	a6,-8(a0) # ff8 <.LBB87_4+0x134>
    5eec:	c3843503          	ld	a0,-968(s0)
    5ef0:	f4043803          	ld	a6,-192(s0)
    5ef4:	01050533          	add	a0,a0,a6
    5ef8:	00001837          	lui	a6,0x1
    5efc:	41040833          	sub	a6,s0,a6
    5f00:	73883803          	ld	a6,1848(a6) # 1738 <.LBB87_5+0x2b8>
    5f04:	01050533          	add	a0,a0,a6
    5f08:	41a7883b          	subw	a6,a5,s10
    5f0c:	4105053b          	subw	a0,a0,a6
    5f10:	40000837          	lui	a6,0x40000
    5f14:	000013b7          	lui	t2,0x1
    5f18:	407403b3          	sub	t2,s0,t2
    5f1c:	f8a3b823          	sd	a0,-112(t2) # f90 <.LBB87_4+0xcc>
    5f20:	00055463          	bgez	a0,5f28 <.LBB87_372>
    5f24:	c0000837          	lui	a6,0xc0000

0000000000005f28 <.LBB87_372>:
    5f28:	00001537          	lui	a0,0x1
    5f2c:	40a40533          	sub	a0,s0,a0
    5f30:	f7053c23          	sd	a6,-136(a0) # f78 <.LBB87_4+0xb4>
    5f34:	c4043503          	ld	a0,-960(s0)
    5f38:	f4843803          	ld	a6,-184(s0)
    5f3c:	01050533          	add	a0,a0,a6
    5f40:	00001837          	lui	a6,0x1
    5f44:	41040833          	sub	a6,s0,a6
    5f48:	74083803          	ld	a6,1856(a6) # 1740 <.LBB87_5+0x2c0>
    5f4c:	01050533          	add	a0,a0,a6
    5f50:	41a7883b          	subw	a6,a5,s10
    5f54:	4105053b          	subw	a0,a0,a6
    5f58:	40000837          	lui	a6,0x40000
    5f5c:	000013b7          	lui	t2,0x1
    5f60:	407403b3          	sub	t2,s0,t2
    5f64:	f2a3b023          	sd	a0,-224(t2) # f20 <.LBB87_4+0x5c>
    5f68:	00055463          	bgez	a0,5f70 <.LBB87_374>
    5f6c:	c0000837          	lui	a6,0xc0000

0000000000005f70 <.LBB87_374>:
    5f70:	00001537          	lui	a0,0x1
    5f74:	40a40533          	sub	a0,s0,a0
    5f78:	f1053423          	sd	a6,-248(a0) # f08 <.LBB87_4+0x44>
    5f7c:	c4843503          	ld	a0,-952(s0)
    5f80:	f5043803          	ld	a6,-176(s0)
    5f84:	01050533          	add	a0,a0,a6
    5f88:	00001837          	lui	a6,0x1
    5f8c:	41040833          	sub	a6,s0,a6
    5f90:	74883803          	ld	a6,1864(a6) # 1748 <.LBB87_5+0x2c8>
    5f94:	01050533          	add	a0,a0,a6
    5f98:	41a7883b          	subw	a6,a5,s10
    5f9c:	4105053b          	subw	a0,a0,a6
    5fa0:	40000837          	lui	a6,0x40000
    5fa4:	000013b7          	lui	t2,0x1
    5fa8:	407403b3          	sub	t2,s0,t2
    5fac:	eaa3b423          	sd	a0,-344(t2) # ea8 <.LBB87_3+0xc3c>
    5fb0:	00055463          	bgez	a0,5fb8 <.LBB87_376>
    5fb4:	c0000837          	lui	a6,0xc0000

0000000000005fb8 <.LBB87_376>:
    5fb8:	00001537          	lui	a0,0x1
    5fbc:	40a40533          	sub	a0,s0,a0
    5fc0:	e9053823          	sd	a6,-368(a0) # e90 <.LBB87_3+0xc24>
    5fc4:	c5043503          	ld	a0,-944(s0)
    5fc8:	f5843803          	ld	a6,-168(s0)
    5fcc:	01050533          	add	a0,a0,a6
    5fd0:	00001837          	lui	a6,0x1
    5fd4:	41040833          	sub	a6,s0,a6
    5fd8:	75083803          	ld	a6,1872(a6) # 1750 <.LBB87_5+0x2d0>
    5fdc:	01050533          	add	a0,a0,a6
    5fe0:	41a7883b          	subw	a6,a5,s10
    5fe4:	4105053b          	subw	a0,a0,a6
    5fe8:	40000837          	lui	a6,0x40000
    5fec:	000013b7          	lui	t2,0x1
    5ff0:	407403b3          	sub	t2,s0,t2
    5ff4:	e2a3bc23          	sd	a0,-456(t2) # e38 <.LBB87_3+0xbcc>
    5ff8:	00055463          	bgez	a0,6000 <.LBB87_378>
    5ffc:	c0000837          	lui	a6,0xc0000

0000000000006000 <.LBB87_378>:
    6000:	00001537          	lui	a0,0x1
    6004:	40a40533          	sub	a0,s0,a0
    6008:	e3053023          	sd	a6,-480(a0) # e20 <.LBB87_3+0xbb4>
    600c:	c5843503          	ld	a0,-936(s0)
    6010:	f6043803          	ld	a6,-160(s0)
    6014:	01050533          	add	a0,a0,a6
    6018:	00001837          	lui	a6,0x1
    601c:	41040833          	sub	a6,s0,a6
    6020:	75883803          	ld	a6,1880(a6) # 1758 <.LBB87_5+0x2d8>
    6024:	01050533          	add	a0,a0,a6
    6028:	41a7883b          	subw	a6,a5,s10
    602c:	4105053b          	subw	a0,a0,a6
    6030:	40000837          	lui	a6,0x40000
    6034:	000013b7          	lui	t2,0x1
    6038:	407403b3          	sub	t2,s0,t2
    603c:	dca3b023          	sd	a0,-576(t2) # dc0 <.LBB87_3+0xb54>
    6040:	00055463          	bgez	a0,6048 <.LBB87_380>
    6044:	c0000837          	lui	a6,0xc0000

0000000000006048 <.LBB87_380>:
    6048:	00001537          	lui	a0,0x1
    604c:	40a40533          	sub	a0,s0,a0
    6050:	db053423          	sd	a6,-600(a0) # da8 <.LBB87_3+0xb3c>
    6054:	c6043503          	ld	a0,-928(s0)
    6058:	f6843803          	ld	a6,-152(s0)
    605c:	01050533          	add	a0,a0,a6
    6060:	01550533          	add	a0,a0,s5
    6064:	41a7883b          	subw	a6,a5,s10
    6068:	4105053b          	subw	a0,a0,a6
    606c:	40000837          	lui	a6,0x40000
    6070:	000013b7          	lui	t2,0x1
    6074:	407403b3          	sub	t2,s0,t2
    6078:	d4a3b823          	sd	a0,-688(t2) # d50 <.LBB87_3+0xae4>
    607c:	00055463          	bgez	a0,6084 <.LBB87_382>
    6080:	c0000837          	lui	a6,0xc0000

0000000000006084 <.LBB87_382>:
    6084:	00001537          	lui	a0,0x1
    6088:	40a40533          	sub	a0,s0,a0
    608c:	d3053c23          	sd	a6,-712(a0) # d38 <.LBB87_3+0xacc>
    6090:	f7043503          	ld	a0,-144(s0)
    6094:	c6843803          	ld	a6,-920(s0)
    6098:	00a80533          	add	a0,a6,a0
    609c:	01f50533          	add	a0,a0,t6
    60a0:	41a7883b          	subw	a6,a5,s10
    60a4:	4105083b          	subw	a6,a0,a6
    60a8:	40000537          	lui	a0,0x40000
    60ac:	000013b7          	lui	t2,0x1
    60b0:	407403b3          	sub	t2,s0,t2
    60b4:	bf03bc23          	sd	a6,-1032(t2) # bf8 <.LBB87_3+0x98c>
    60b8:	00085463          	bgez	a6,60c0 <.LBB87_384>
    60bc:	c0000537          	lui	a0,0xc0000

00000000000060c0 <.LBB87_384>:
    60c0:	00001837          	lui	a6,0x1
    60c4:	41040833          	sub	a6,s0,a6
    60c8:	cca83423          	sd	a0,-824(a6) # cc8 <.LBB87_3+0xa5c>
    60cc:	f7843503          	ld	a0,-136(s0)
    60d0:	c7043803          	ld	a6,-912(s0)
    60d4:	00a80533          	add	a0,a6,a0
    60d8:	01150533          	add	a0,a0,a7
    60dc:	41a7883b          	subw	a6,a5,s10
    60e0:	4105083b          	subw	a6,a0,a6
    60e4:	40000537          	lui	a0,0x40000
    60e8:	000013b7          	lui	t2,0x1
    60ec:	407403b3          	sub	t2,s0,t2
    60f0:	bd03bc23          	sd	a6,-1064(t2) # bd8 <.LBB87_3+0x96c>
    60f4:	00085463          	bgez	a6,60fc <.LBB87_386>
    60f8:	c0000537          	lui	a0,0xc0000

00000000000060fc <.LBB87_386>:
    60fc:	00001837          	lui	a6,0x1
    6100:	41040833          	sub	a6,s0,a6
    6104:	c2a83823          	sd	a0,-976(a6) # c30 <.LBB87_3+0x9c4>
    6108:	c7843503          	ld	a0,-904(s0)
    610c:	f8043803          	ld	a6,-128(s0)
    6110:	01050533          	add	a0,a0,a6
    6114:	01c50533          	add	a0,a0,t3
    6118:	41a7883b          	subw	a6,a5,s10
    611c:	4105053b          	subw	a0,a0,a6
    6120:	40000837          	lui	a6,0x40000
    6124:	00055463          	bgez	a0,612c <.LBB87_388>
    6128:	c0000837          	lui	a6,0xc0000

000000000000612c <.LBB87_388>:
    612c:	000013b7          	lui	t2,0x1
    6130:	407403b3          	sub	t2,s0,t2
    6134:	c103bc23          	sd	a6,-1000(t2) # c18 <.LBB87_3+0x9ac>
    6138:	f8843803          	ld	a6,-120(s0)
    613c:	c8043383          	ld	t2,-896(s0)
    6140:	01038833          	add	a6,t2,a6
    6144:	00d80833          	add	a6,a6,a3
    6148:	41a787bb          	subw	a5,a5,s10
    614c:	40f8083b          	subw	a6,a6,a5
    6150:	400007b7          	lui	a5,0x40000
    6154:	00085463          	bgez	a6,615c <.LBB87_390>
    6158:	c00007b7          	lui	a5,0xc0000

000000000000615c <.LBB87_390>:
    615c:	000013b7          	lui	t2,0x1
    6160:	407403b3          	sub	t2,s0,t2
    6164:	b8f3b423          	sd	a5,-1144(t2) # b88 <.LBB87_3+0x91c>
    6168:	ea843783          	ld	a5,-344(s0)
    616c:	00f30333          	add	t1,t1,a5
    6170:	000017b7          	lui	a5,0x1
    6174:	40f407b3          	sub	a5,s0,a5
    6178:	5b07b783          	ld	a5,1456(a5) # 15b0 <.LBB87_5+0x130>
    617c:	029787b3          	mul	a5,a5,s1
    6180:	ea043383          	ld	t2,-352(s0)
    6184:	00730333          	add	t1,t1,t2
    6188:	41a783bb          	subw	t2,a5,s10
    618c:	4073033b          	subw	t1,t1,t2
    6190:	400003b7          	lui	t2,0x40000
    6194:	94643823          	sd	t1,-1712(s0)
    6198:	00035463          	bgez	t1,61a0 <.LBB87_392>
    619c:	c00003b7          	lui	t2,0xc0000

00000000000061a0 <.LBB87_392>:
    61a0:	94743023          	sd	t2,-1728(s0)
    61a4:	c9043303          	ld	t1,-880(s0)
    61a8:	e9843383          	ld	t2,-360(s0)
    61ac:	00730333          	add	t1,t1,t2
    61b0:	e9043383          	ld	t2,-368(s0)
    61b4:	00730333          	add	t1,t1,t2
    61b8:	41a783bb          	subw	t2,a5,s10
    61bc:	4073033b          	subw	t1,t1,t2
    61c0:	400003b7          	lui	t2,0x40000
    61c4:	92643823          	sd	t1,-1744(s0)
    61c8:	00035463          	bgez	t1,61d0 <.LBB87_394>
    61cc:	c00003b7          	lui	t2,0xc0000

00000000000061d0 <.LBB87_394>:
    61d0:	92743023          	sd	t2,-1760(s0)
    61d4:	c9843303          	ld	t1,-872(s0)
    61d8:	e8843383          	ld	t2,-376(s0)
    61dc:	00730333          	add	t1,t1,t2
    61e0:	e8043383          	ld	t2,-384(s0)
    61e4:	00730333          	add	t1,t1,t2
    61e8:	41a783bb          	subw	t2,a5,s10
    61ec:	4073033b          	subw	t1,t1,t2
    61f0:	400003b7          	lui	t2,0x40000
    61f4:	90643823          	sd	t1,-1776(s0)
    61f8:	00035463          	bgez	t1,6200 <.LBB87_396>
    61fc:	c00003b7          	lui	t2,0xc0000

0000000000006200 <.LBB87_396>:
    6200:	90743023          	sd	t2,-1792(s0)
    6204:	ca043303          	ld	t1,-864(s0)
    6208:	e7843383          	ld	t2,-392(s0)
    620c:	00730333          	add	t1,t1,t2
    6210:	e7043383          	ld	t2,-400(s0)
    6214:	00730333          	add	t1,t1,t2
    6218:	41a783bb          	subw	t2,a5,s10
    621c:	4073033b          	subw	t1,t1,t2
    6220:	400003b7          	lui	t2,0x40000
    6224:	8e643823          	sd	t1,-1808(s0)
    6228:	00035463          	bgez	t1,6230 <.LBB87_398>
    622c:	c00003b7          	lui	t2,0xc0000

0000000000006230 <.LBB87_398>:
    6230:	8e743423          	sd	t2,-1816(s0)
    6234:	ca843303          	ld	t1,-856(s0)
    6238:	e6843383          	ld	t2,-408(s0)
    623c:	00730333          	add	t1,t1,t2
    6240:	e6043383          	ld	t2,-416(s0)
    6244:	00730333          	add	t1,t1,t2
    6248:	41a783bb          	subw	t2,a5,s10
    624c:	4073033b          	subw	t1,t1,t2
    6250:	400003b7          	lui	t2,0x40000
    6254:	8e643c23          	sd	t1,-1800(s0)
    6258:	00035463          	bgez	t1,6260 <.LBB87_400>
    625c:	c00003b7          	lui	t2,0xc0000

0000000000006260 <.LBB87_400>:
    6260:	8e743023          	sd	t2,-1824(s0)
    6264:	cb043303          	ld	t1,-848(s0)
    6268:	000013b7          	lui	t2,0x1
    626c:	407403b3          	sub	t2,s0,t2
    6270:	6c83b383          	ld	t2,1736(t2) # 16c8 <.LBB87_5+0x248>
    6274:	00730333          	add	t1,t1,t2
    6278:	000013b7          	lui	t2,0x1
    627c:	407403b3          	sub	t2,s0,t2
    6280:	6c03b383          	ld	t2,1728(t2) # 16c0 <.LBB87_5+0x240>
    6284:	00730333          	add	t1,t1,t2
    6288:	41a783bb          	subw	t2,a5,s10
    628c:	4073033b          	subw	t1,t1,t2
    6290:	400003b7          	lui	t2,0x40000
    6294:	8c643023          	sd	t1,-1856(s0)
    6298:	00035463          	bgez	t1,62a0 <.LBB87_402>
    629c:	c00003b7          	lui	t2,0xc0000

00000000000062a0 <.LBB87_402>:
    62a0:	84743823          	sd	t2,-1968(s0)
    62a4:	cb843303          	ld	t1,-840(s0)
    62a8:	000013b7          	lui	t2,0x1
    62ac:	407403b3          	sub	t2,s0,t2
    62b0:	6b83b383          	ld	t2,1720(t2) # 16b8 <.LBB87_5+0x238>
    62b4:	00730333          	add	t1,t1,t2
    62b8:	000013b7          	lui	t2,0x1
    62bc:	407403b3          	sub	t2,s0,t2
    62c0:	6b03b383          	ld	t2,1712(t2) # 16b0 <.LBB87_5+0x230>
    62c4:	00730333          	add	t1,t1,t2
    62c8:	41a783bb          	subw	t2,a5,s10
    62cc:	4073033b          	subw	t1,t1,t2
    62d0:	400003b7          	lui	t2,0x40000
    62d4:	00001eb7          	lui	t4,0x1
    62d8:	41d40eb3          	sub	t4,s0,t4
    62dc:	7c6eb023          	sd	t1,1984(t4) # 17c0 <.LBB87_5+0x340>
    62e0:	00035463          	bgez	t1,62e8 <.LBB87_404>
    62e4:	c00003b7          	lui	t2,0xc0000

00000000000062e8 <.LBB87_404>:
    62e8:	00001337          	lui	t1,0x1
    62ec:	40640333          	sub	t1,s0,t1
    62f0:	70733423          	sd	t2,1800(t1) # 1708 <.LBB87_5+0x288>
    62f4:	cc043303          	ld	t1,-832(s0)
    62f8:	000013b7          	lui	t2,0x1
    62fc:	407403b3          	sub	t2,s0,t2
    6300:	6a83b383          	ld	t2,1704(t2) # 16a8 <.LBB87_5+0x228>
    6304:	00730333          	add	t1,t1,t2
    6308:	000013b7          	lui	t2,0x1
    630c:	407403b3          	sub	t2,s0,t2
    6310:	6a03b383          	ld	t2,1696(t2) # 16a0 <.LBB87_5+0x220>
    6314:	00730333          	add	t1,t1,t2
    6318:	41a783bb          	subw	t2,a5,s10
    631c:	4073033b          	subw	t1,t1,t2
    6320:	400003b7          	lui	t2,0x40000
    6324:	00001eb7          	lui	t4,0x1
    6328:	41d40eb3          	sub	t4,s0,t4
    632c:	5a6eb823          	sd	t1,1456(t4) # 15b0 <.LBB87_5+0x130>
    6330:	00035463          	bgez	t1,6338 <.LBB87_406>
    6334:	c00003b7          	lui	t2,0xc0000

0000000000006338 <.LBB87_406>:
    6338:	00001337          	lui	t1,0x1
    633c:	40640333          	sub	t1,s0,t1
    6340:	5a733023          	sd	t2,1440(t1) # 15a0 <.LBB87_5+0x120>
    6344:	cc843303          	ld	t1,-824(s0)
    6348:	000013b7          	lui	t2,0x1
    634c:	407403b3          	sub	t2,s0,t2
    6350:	6983b383          	ld	t2,1688(t2) # 1698 <.LBB87_5+0x218>
    6354:	00730333          	add	t1,t1,t2
    6358:	000013b7          	lui	t2,0x1
    635c:	407403b3          	sub	t2,s0,t2
    6360:	6903b383          	ld	t2,1680(t2) # 1690 <.LBB87_5+0x210>
    6364:	00730333          	add	t1,t1,t2
    6368:	41a783bb          	subw	t2,a5,s10
    636c:	4073033b          	subw	t1,t1,t2
    6370:	400003b7          	lui	t2,0x40000
    6374:	00001eb7          	lui	t4,0x1
    6378:	41d40eb3          	sub	t4,s0,t4
    637c:	546ebc23          	sd	t1,1368(t4) # 1558 <.LBB87_5+0xd8>
    6380:	00035463          	bgez	t1,6388 <.LBB87_408>
    6384:	c00003b7          	lui	t2,0xc0000

0000000000006388 <.LBB87_408>:
    6388:	00001337          	lui	t1,0x1
    638c:	40640333          	sub	t1,s0,t1
    6390:	54733423          	sd	t2,1352(t1) # 1548 <.LBB87_5+0xc8>
    6394:	cd043303          	ld	t1,-816(s0)
    6398:	000013b7          	lui	t2,0x1
    639c:	407403b3          	sub	t2,s0,t2
    63a0:	6883b383          	ld	t2,1672(t2) # 1688 <.LBB87_5+0x208>
    63a4:	00730333          	add	t1,t1,t2
    63a8:	000013b7          	lui	t2,0x1
    63ac:	407403b3          	sub	t2,s0,t2
    63b0:	6d03b383          	ld	t2,1744(t2) # 16d0 <.LBB87_5+0x250>
    63b4:	00730333          	add	t1,t1,t2
    63b8:	41a783bb          	subw	t2,a5,s10
    63bc:	4073033b          	subw	t1,t1,t2
    63c0:	400003b7          	lui	t2,0x40000
    63c4:	00001eb7          	lui	t4,0x1
    63c8:	41d40eb3          	sub	t4,s0,t4
    63cc:	4e6ebc23          	sd	t1,1272(t4) # 14f8 <.LBB87_5+0x78>
    63d0:	00035463          	bgez	t1,63d8 <.LBB87_410>
    63d4:	c00003b7          	lui	t2,0xc0000

00000000000063d8 <.LBB87_410>:
    63d8:	00001337          	lui	t1,0x1
    63dc:	40640333          	sub	t1,s0,t1
    63e0:	4e733423          	sd	t2,1256(t1) # 14e8 <.LBB87_5+0x68>
    63e4:	cd843303          	ld	t1,-808(s0)
    63e8:	eb043383          	ld	t2,-336(s0)
    63ec:	00730333          	add	t1,t1,t2
    63f0:	00530333          	add	t1,t1,t0
    63f4:	41a783bb          	subw	t2,a5,s10
    63f8:	4073033b          	subw	t1,t1,t2
    63fc:	400003b7          	lui	t2,0x40000
    6400:	00001eb7          	lui	t4,0x1
    6404:	41d40eb3          	sub	t4,s0,t4
    6408:	4a6eb023          	sd	t1,1184(t4) # 14a0 <.LBB87_5+0x20>
    640c:	00035463          	bgez	t1,6414 <.LBB87_412>
    6410:	c00003b7          	lui	t2,0xc0000

0000000000006414 <.LBB87_412>:
    6414:	00001337          	lui	t1,0x1
    6418:	40640333          	sub	t1,s0,t1
    641c:	48733823          	sd	t2,1168(t1) # 1490 <.LBB87_5+0x10>
    6420:	ce043303          	ld	t1,-800(s0)
    6424:	eb843383          	ld	t2,-328(s0)
    6428:	00730333          	add	t1,t1,t2
    642c:	00130333          	add	t1,t1,ra
    6430:	41a783bb          	subw	t2,a5,s10
    6434:	4073033b          	subw	t1,t1,t2
    6438:	400003b7          	lui	t2,0x40000
    643c:	00001eb7          	lui	t4,0x1
    6440:	41d40eb3          	sub	t4,s0,t4
    6444:	446eb423          	sd	t1,1096(t4) # 1448 <.LBB87_4+0x584>
    6448:	00035463          	bgez	t1,6450 <.LBB87_414>
    644c:	c00003b7          	lui	t2,0xc0000

0000000000006450 <.LBB87_414>:
    6450:	00001337          	lui	t1,0x1
    6454:	40640333          	sub	t1,s0,t1
    6458:	42733c23          	sd	t2,1080(t1) # 1438 <.LBB87_4+0x574>
    645c:	ce843303          	ld	t1,-792(s0)
    6460:	ec043383          	ld	t2,-320(s0)
    6464:	00730333          	add	t1,t1,t2
    6468:	01b30333          	add	t1,t1,s11
    646c:	41a783bb          	subw	t2,a5,s10
    6470:	4073033b          	subw	t1,t1,t2
    6474:	400003b7          	lui	t2,0x40000
    6478:	00001eb7          	lui	t4,0x1
    647c:	41d40eb3          	sub	t4,s0,t4
    6480:	3e6eb823          	sd	t1,1008(t4) # 13f0 <.LBB87_4+0x52c>
    6484:	00035463          	bgez	t1,648c <.LBB87_416>
    6488:	c00003b7          	lui	t2,0xc0000

000000000000648c <.LBB87_416>:
    648c:	00001337          	lui	t1,0x1
    6490:	40640333          	sub	t1,s0,t1
    6494:	3c733c23          	sd	t2,984(t1) # 13d8 <.LBB87_4+0x514>
    6498:	cf043303          	ld	t1,-784(s0)
    649c:	ec843383          	ld	t2,-312(s0)
    64a0:	00730333          	add	t1,t1,t2
    64a4:	000013b7          	lui	t2,0x1
    64a8:	407403b3          	sub	t2,s0,t2
    64ac:	6f03b383          	ld	t2,1776(t2) # 16f0 <.LBB87_5+0x270>
    64b0:	00730333          	add	t1,t1,t2
    64b4:	41a783bb          	subw	t2,a5,s10
    64b8:	4073033b          	subw	t1,t1,t2
    64bc:	400003b7          	lui	t2,0x40000
    64c0:	00001eb7          	lui	t4,0x1
    64c4:	41d40eb3          	sub	t4,s0,t4
    64c8:	386eb423          	sd	t1,904(t4) # 1388 <.LBB87_4+0x4c4>
    64cc:	00035463          	bgez	t1,64d4 <.LBB87_418>
    64d0:	c00003b7          	lui	t2,0xc0000

00000000000064d4 <.LBB87_418>:
    64d4:	00001337          	lui	t1,0x1
    64d8:	40640333          	sub	t1,s0,t1
    64dc:	36733c23          	sd	t2,888(t1) # 1378 <.LBB87_4+0x4b4>
    64e0:	cf843303          	ld	t1,-776(s0)
    64e4:	ed043383          	ld	t2,-304(s0)
    64e8:	00730333          	add	t1,t1,t2
    64ec:	01930333          	add	t1,t1,s9
    64f0:	41a783bb          	subw	t2,a5,s10
    64f4:	4073033b          	subw	t1,t1,t2
    64f8:	400003b7          	lui	t2,0x40000
    64fc:	00001eb7          	lui	t4,0x1
    6500:	41d40eb3          	sub	t4,s0,t4
    6504:	326eb423          	sd	t1,808(t4) # 1328 <.LBB87_4+0x464>
    6508:	00035463          	bgez	t1,6510 <.LBB87_420>
    650c:	c00003b7          	lui	t2,0xc0000

0000000000006510 <.LBB87_420>:
    6510:	00001337          	lui	t1,0x1
    6514:	40640333          	sub	t1,s0,t1
    6518:	30733823          	sd	t2,784(t1) # 1310 <.LBB87_4+0x44c>
    651c:	d0043303          	ld	t1,-768(s0)
    6520:	ed843383          	ld	t2,-296(s0)
    6524:	00730333          	add	t1,t1,t2
    6528:	01830333          	add	t1,t1,s8
    652c:	41a783bb          	subw	t2,a5,s10
    6530:	4073033b          	subw	t1,t1,t2
    6534:	400003b7          	lui	t2,0x40000
    6538:	00001eb7          	lui	t4,0x1
    653c:	41d40eb3          	sub	t4,s0,t4
    6540:	2c6eb423          	sd	t1,712(t4) # 12c8 <.LBB87_4+0x404>
    6544:	00035463          	bgez	t1,654c <.LBB87_422>
    6548:	c00003b7          	lui	t2,0xc0000

000000000000654c <.LBB87_422>:
    654c:	00001337          	lui	t1,0x1
    6550:	40640333          	sub	t1,s0,t1
    6554:	2a733423          	sd	t2,680(t1) # 12a8 <.LBB87_4+0x3e4>
    6558:	d0843303          	ld	t1,-760(s0)
    655c:	ee043383          	ld	t2,-288(s0)
    6560:	00730333          	add	t1,t1,t2
    6564:	01730333          	add	t1,t1,s7
    6568:	41a783bb          	subw	t2,a5,s10
    656c:	4073033b          	subw	t1,t1,t2
    6570:	400003b7          	lui	t2,0x40000
    6574:	00001eb7          	lui	t4,0x1
    6578:	41d40eb3          	sub	t4,s0,t4
    657c:	246eb823          	sd	t1,592(t4) # 1250 <.LBB87_4+0x38c>
    6580:	00035463          	bgez	t1,6588 <.LBB87_424>
    6584:	c00003b7          	lui	t2,0xc0000

0000000000006588 <.LBB87_424>:
    6588:	00001337          	lui	t1,0x1
    658c:	40640333          	sub	t1,s0,t1
    6590:	22733823          	sd	t2,560(t1) # 1230 <.LBB87_4+0x36c>
    6594:	d1043303          	ld	t1,-752(s0)
    6598:	ee843383          	ld	t2,-280(s0)
    659c:	00730333          	add	t1,t1,t2
    65a0:	01630333          	add	t1,t1,s6
    65a4:	41a783bb          	subw	t2,a5,s10
    65a8:	4073033b          	subw	t1,t1,t2
    65ac:	400003b7          	lui	t2,0x40000
    65b0:	00001eb7          	lui	t4,0x1
    65b4:	41d40eb3          	sub	t4,s0,t4
    65b8:	1e6eb023          	sd	t1,480(t4) # 11e0 <.LBB87_4+0x31c>
    65bc:	00035463          	bgez	t1,65c4 <.LBB87_426>
    65c0:	c00003b7          	lui	t2,0xc0000

00000000000065c4 <.LBB87_426>:
    65c4:	00001337          	lui	t1,0x1
    65c8:	40640333          	sub	t1,s0,t1
    65cc:	1c733023          	sd	t2,448(t1) # 11c0 <.LBB87_4+0x2fc>
    65d0:	d1843303          	ld	t1,-744(s0)
    65d4:	ef043383          	ld	t2,-272(s0)
    65d8:	00730333          	add	t1,t1,t2
    65dc:	01e30333          	add	t1,t1,t5
    65e0:	41a783bb          	subw	t2,a5,s10
    65e4:	4073033b          	subw	t1,t1,t2
    65e8:	400003b7          	lui	t2,0x40000
    65ec:	00001eb7          	lui	t4,0x1
    65f0:	41d40eb3          	sub	t4,s0,t4
    65f4:	166eb423          	sd	t1,360(t4) # 1168 <.LBB87_4+0x2a4>
    65f8:	00035463          	bgez	t1,6600 <.LBB87_428>
    65fc:	c00003b7          	lui	t2,0xc0000

0000000000006600 <.LBB87_428>:
    6600:	00001337          	lui	t1,0x1
    6604:	40640333          	sub	t1,s0,t1
    6608:	14733823          	sd	t2,336(t1) # 1150 <.LBB87_4+0x28c>
    660c:	d2043303          	ld	t1,-736(s0)
    6610:	ef843383          	ld	t2,-264(s0)
    6614:	00730333          	add	t1,t1,t2
    6618:	01430333          	add	t1,t1,s4
    661c:	41a783bb          	subw	t2,a5,s10
    6620:	4073033b          	subw	t1,t1,t2
    6624:	400003b7          	lui	t2,0x40000
    6628:	00001eb7          	lui	t4,0x1
    662c:	41d40eb3          	sub	t4,s0,t4
    6630:	0e6eb823          	sd	t1,240(t4) # 10f0 <.LBB87_4+0x22c>
    6634:	00035463          	bgez	t1,663c <.LBB87_430>
    6638:	c00003b7          	lui	t2,0xc0000

000000000000663c <.LBB87_430>:
    663c:	00001337          	lui	t1,0x1
    6640:	40640333          	sub	t1,s0,t1
    6644:	0c733c23          	sd	t2,216(t1) # 10d8 <.LBB87_4+0x214>
    6648:	d2843303          	ld	t1,-728(s0)
    664c:	f3043383          	ld	t2,-208(s0)
    6650:	00730333          	add	t1,t1,t2
    6654:	01330333          	add	t1,t1,s3
    6658:	41a783bb          	subw	t2,a5,s10
    665c:	4073033b          	subw	t1,t1,t2
    6660:	400003b7          	lui	t2,0x40000
    6664:	00001eb7          	lui	t4,0x1
    6668:	41d40eb3          	sub	t4,s0,t4
    666c:	066ebc23          	sd	t1,120(t4) # 1078 <.LBB87_4+0x1b4>
    6670:	00035463          	bgez	t1,6678 <.LBB87_432>
    6674:	c00003b7          	lui	t2,0xc0000

0000000000006678 <.LBB87_432>:
    6678:	00001337          	lui	t1,0x1
    667c:	40640333          	sub	t1,s0,t1
    6680:	06733023          	sd	t2,96(t1) # 1060 <.LBB87_4+0x19c>
    6684:	d3043303          	ld	t1,-720(s0)
    6688:	f3843383          	ld	t2,-200(s0)
    668c:	00730333          	add	t1,t1,t2
    6690:	01230333          	add	t1,t1,s2
    6694:	41a783bb          	subw	t2,a5,s10
    6698:	4073033b          	subw	t1,t1,t2
    669c:	400003b7          	lui	t2,0x40000
    66a0:	00001eb7          	lui	t4,0x1
    66a4:	41d40eb3          	sub	t4,s0,t4
    66a8:	006eb023          	sd	t1,0(t4) # 1000 <.LBB87_4+0x13c>
    66ac:	00035463          	bgez	t1,66b4 <.LBB87_434>
    66b0:	c00003b7          	lui	t2,0xc0000

00000000000066b4 <.LBB87_434>:
    66b4:	00001337          	lui	t1,0x1
    66b8:	40640333          	sub	t1,s0,t1
    66bc:	fe733423          	sd	t2,-24(t1) # fe8 <.LBB87_4+0x124>
    66c0:	d3843303          	ld	t1,-712(s0)
    66c4:	f4043383          	ld	t2,-192(s0)
    66c8:	00730333          	add	t1,t1,t2
    66cc:	000013b7          	lui	t2,0x1
    66d0:	407403b3          	sub	t2,s0,t2
    66d4:	7383b383          	ld	t2,1848(t2) # 1738 <.LBB87_5+0x2b8>
    66d8:	00730333          	add	t1,t1,t2
    66dc:	41a783bb          	subw	t2,a5,s10
    66e0:	4073033b          	subw	t1,t1,t2
    66e4:	400003b7          	lui	t2,0x40000
    66e8:	00001eb7          	lui	t4,0x1
    66ec:	41d40eb3          	sub	t4,s0,t4
    66f0:	f86eb023          	sd	t1,-128(t4) # f80 <.LBB87_4+0xbc>
    66f4:	00035463          	bgez	t1,66fc <.LBB87_436>
    66f8:	c00003b7          	lui	t2,0xc0000

00000000000066fc <.LBB87_436>:
    66fc:	00001337          	lui	t1,0x1
    6700:	40640333          	sub	t1,s0,t1
    6704:	f6733823          	sd	t2,-144(t1) # f70 <.LBB87_4+0xac>
    6708:	d4043303          	ld	t1,-704(s0)
    670c:	f4843383          	ld	t2,-184(s0)
    6710:	00730333          	add	t1,t1,t2
    6714:	000013b7          	lui	t2,0x1
    6718:	407403b3          	sub	t2,s0,t2
    671c:	7403b383          	ld	t2,1856(t2) # 1740 <.LBB87_5+0x2c0>
    6720:	00730333          	add	t1,t1,t2
    6724:	41a783bb          	subw	t2,a5,s10
    6728:	4073033b          	subw	t1,t1,t2
    672c:	400003b7          	lui	t2,0x40000
    6730:	00001eb7          	lui	t4,0x1
    6734:	41d40eb3          	sub	t4,s0,t4
    6738:	f06eb823          	sd	t1,-240(t4) # f10 <.LBB87_4+0x4c>
    673c:	00035463          	bgez	t1,6744 <.LBB87_438>
    6740:	c00003b7          	lui	t2,0xc0000

0000000000006744 <.LBB87_438>:
    6744:	00001337          	lui	t1,0x1
    6748:	40640333          	sub	t1,s0,t1
    674c:	f0733023          	sd	t2,-256(t1) # f00 <.LBB87_4+0x3c>
    6750:	d4843303          	ld	t1,-696(s0)
    6754:	f5043383          	ld	t2,-176(s0)
    6758:	00730333          	add	t1,t1,t2
    675c:	000013b7          	lui	t2,0x1
    6760:	407403b3          	sub	t2,s0,t2
    6764:	7483b383          	ld	t2,1864(t2) # 1748 <.LBB87_5+0x2c8>
    6768:	00730333          	add	t1,t1,t2
    676c:	41a783bb          	subw	t2,a5,s10
    6770:	4073033b          	subw	t1,t1,t2
    6774:	400003b7          	lui	t2,0x40000
    6778:	00001eb7          	lui	t4,0x1
    677c:	41d40eb3          	sub	t4,s0,t4
    6780:	e86ebc23          	sd	t1,-360(t4) # e98 <.LBB87_3+0xc2c>
    6784:	00035463          	bgez	t1,678c <.LBB87_440>
    6788:	c00003b7          	lui	t2,0xc0000

000000000000678c <.LBB87_440>:
    678c:	00001337          	lui	t1,0x1
    6790:	40640333          	sub	t1,s0,t1
    6794:	e8733423          	sd	t2,-376(t1) # e88 <.LBB87_3+0xc1c>
    6798:	d5043303          	ld	t1,-688(s0)
    679c:	f5843383          	ld	t2,-168(s0)
    67a0:	00730333          	add	t1,t1,t2
    67a4:	000013b7          	lui	t2,0x1
    67a8:	407403b3          	sub	t2,s0,t2
    67ac:	7503b383          	ld	t2,1872(t2) # 1750 <.LBB87_5+0x2d0>
    67b0:	00730333          	add	t1,t1,t2
    67b4:	41a783bb          	subw	t2,a5,s10
    67b8:	4073033b          	subw	t1,t1,t2
    67bc:	400003b7          	lui	t2,0x40000
    67c0:	00001eb7          	lui	t4,0x1
    67c4:	41d40eb3          	sub	t4,s0,t4
    67c8:	e26eb423          	sd	t1,-472(t4) # e28 <.LBB87_3+0xbbc>
    67cc:	00035463          	bgez	t1,67d4 <.LBB87_442>
    67d0:	c00003b7          	lui	t2,0xc0000

00000000000067d4 <.LBB87_442>:
    67d4:	00001337          	lui	t1,0x1
    67d8:	40640333          	sub	t1,s0,t1
    67dc:	e0733c23          	sd	t2,-488(t1) # e18 <.LBB87_3+0xbac>
    67e0:	d5843303          	ld	t1,-680(s0)
    67e4:	f6043383          	ld	t2,-160(s0)
    67e8:	00730333          	add	t1,t1,t2
    67ec:	000013b7          	lui	t2,0x1
    67f0:	407403b3          	sub	t2,s0,t2
    67f4:	7583b383          	ld	t2,1880(t2) # 1758 <.LBB87_5+0x2d8>
    67f8:	00730333          	add	t1,t1,t2
    67fc:	41a783bb          	subw	t2,a5,s10
    6800:	4073033b          	subw	t1,t1,t2
    6804:	400003b7          	lui	t2,0x40000
    6808:	00001eb7          	lui	t4,0x1
    680c:	41d40eb3          	sub	t4,s0,t4
    6810:	da6eb823          	sd	t1,-592(t4) # db0 <.LBB87_3+0xb44>
    6814:	00035463          	bgez	t1,681c <.LBB87_444>
    6818:	c00003b7          	lui	t2,0xc0000

000000000000681c <.LBB87_444>:
    681c:	00001337          	lui	t1,0x1
    6820:	40640333          	sub	t1,s0,t1
    6824:	da733023          	sd	t2,-608(t1) # da0 <.LBB87_3+0xb34>
    6828:	d6043303          	ld	t1,-672(s0)
    682c:	f6843383          	ld	t2,-152(s0)
    6830:	00730333          	add	t1,t1,t2
    6834:	01530333          	add	t1,t1,s5
    6838:	41a783bb          	subw	t2,a5,s10
    683c:	4073033b          	subw	t1,t1,t2
    6840:	400003b7          	lui	t2,0x40000
    6844:	00001eb7          	lui	t4,0x1
    6848:	41d40eb3          	sub	t4,s0,t4
    684c:	d46eb023          	sd	t1,-704(t4) # d40 <.LBB87_3+0xad4>
    6850:	00035463          	bgez	t1,6858 <.LBB87_446>
    6854:	c00003b7          	lui	t2,0xc0000

0000000000006858 <.LBB87_446>:
    6858:	00001337          	lui	t1,0x1
    685c:	40640333          	sub	t1,s0,t1
    6860:	d2733423          	sd	t2,-728(t1) # d28 <.LBB87_3+0xabc>
    6864:	f7043303          	ld	t1,-144(s0)
    6868:	d6843383          	ld	t2,-664(s0)
    686c:	00638333          	add	t1,t2,t1
    6870:	01f30333          	add	t1,t1,t6
    6874:	41a783bb          	subw	t2,a5,s10
    6878:	407303bb          	subw	t2,t1,t2
    687c:	40000337          	lui	t1,0x40000
    6880:	00001eb7          	lui	t4,0x1
    6884:	41d40eb3          	sub	t4,s0,t4
    6888:	c27eb023          	sd	t2,-992(t4) # c20 <.LBB87_3+0x9b4>
    688c:	0003d463          	bgez	t2,6894 <.LBB87_448>
    6890:	c0000337          	lui	t1,0xc0000

0000000000006894 <.LBB87_448>:
    6894:	000013b7          	lui	t2,0x1
    6898:	407403b3          	sub	t2,s0,t2
    689c:	ca63bc23          	sd	t1,-840(t2) # cb8 <.LBB87_3+0xa4c>
    68a0:	f7843303          	ld	t1,-136(s0)
    68a4:	d7043383          	ld	t2,-656(s0)
    68a8:	00638333          	add	t1,t2,t1
    68ac:	01130333          	add	t1,t1,a7
    68b0:	41a783bb          	subw	t2,a5,s10
    68b4:	407303bb          	subw	t2,t1,t2
    68b8:	40000337          	lui	t1,0x40000
    68bc:	00001eb7          	lui	t4,0x1
    68c0:	41d40eb3          	sub	t4,s0,t4
    68c4:	be7eb423          	sd	t2,-1048(t4) # be8 <.LBB87_3+0x97c>
    68c8:	0003d463          	bgez	t2,68d0 <.LBB87_450>
    68cc:	c0000337          	lui	t1,0xc0000

00000000000068d0 <.LBB87_450>:
    68d0:	000013b7          	lui	t2,0x1
    68d4:	407403b3          	sub	t2,s0,t2
    68d8:	c663b823          	sd	t1,-912(t2) # c70 <.LBB87_3+0xa04>
    68dc:	d7843303          	ld	t1,-648(s0)
    68e0:	f8043383          	ld	t2,-128(s0)
    68e4:	00730333          	add	t1,t1,t2
    68e8:	01c30333          	add	t1,t1,t3
    68ec:	41a783bb          	subw	t2,a5,s10
    68f0:	407303bb          	subw	t2,t1,t2
    68f4:	40000337          	lui	t1,0x40000
    68f8:	00001e37          	lui	t3,0x1
    68fc:	41c40e33          	sub	t3,s0,t3
    6900:	bc7e3423          	sd	t2,-1080(t3) # bc8 <.LBB87_3+0x95c>
    6904:	0003d463          	bgez	t2,690c <.LBB87_452>
    6908:	c0000337          	lui	t1,0xc0000

000000000000690c <.LBB87_452>:
    690c:	000013b7          	lui	t2,0x1
    6910:	407403b3          	sub	t2,s0,t2
    6914:	c063b423          	sd	t1,-1016(t2) # c08 <.LBB87_3+0x99c>
    6918:	f8843303          	ld	t1,-120(s0)
    691c:	d8043383          	ld	t2,-640(s0)
    6920:	00638333          	add	t1,t2,t1
    6924:	00d30333          	add	t1,t1,a3
    6928:	41a787bb          	subw	a5,a5,s10
    692c:	40f303bb          	subw	t2,t1,a5
    6930:	400007b7          	lui	a5,0x40000
    6934:	0003d463          	bgez	t2,693c <.LBB87_454>
    6938:	c00007b7          	lui	a5,0xc0000

000000000000693c <.LBB87_454>:
    693c:	00001337          	lui	t1,0x1
    6940:	40640333          	sub	t1,s0,t1
    6944:	b8f33023          	sd	a5,-1152(t1) # b80 <.LBB87_3+0x914>
    6948:	d8843783          	ld	a5,-632(s0)
    694c:	ea843303          	ld	t1,-344(s0)
    6950:	006787b3          	add	a5,a5,t1
    6954:	00001337          	lui	t1,0x1
    6958:	40640333          	sub	t1,s0,t1
    695c:	3e033303          	ld	t1,992(t1) # 13e0 <.LBB87_4+0x51c>
    6960:	02930333          	mul	t1,t1,s1
    6964:	ea043e03          	ld	t3,-352(s0)
    6968:	01c787b3          	add	a5,a5,t3
    696c:	41a304bb          	subw	s1,t1,s10
    6970:	409787bb          	subw	a5,a5,s1
    6974:	40000eb7          	lui	t4,0x40000
    6978:	84f43423          	sd	a5,-1976(s0)
    697c:	0007d463          	bgez	a5,6984 <.LBB87_456>
    6980:	c0000eb7          	lui	t4,0xc0000

0000000000006984 <.LBB87_456>:
    6984:	d9043783          	ld	a5,-624(s0)
    6988:	e9843e03          	ld	t3,-360(s0)
    698c:	01c787b3          	add	a5,a5,t3
    6990:	e9043e03          	ld	t3,-368(s0)
    6994:	01c787b3          	add	a5,a5,t3
    6998:	41a304bb          	subw	s1,t1,s10
    699c:	409787bb          	subw	a5,a5,s1
    69a0:	400004b7          	lui	s1,0x40000
    69a4:	82f43c23          	sd	a5,-1992(s0)
    69a8:	0007d463          	bgez	a5,69b0 <.LBB87_458>
    69ac:	c00004b7          	lui	s1,0xc0000

00000000000069b0 <.LBB87_458>:
    69b0:	82943823          	sd	s1,-2000(s0)
    69b4:	d9843783          	ld	a5,-616(s0)
    69b8:	e8843e03          	ld	t3,-376(s0)
    69bc:	01c787b3          	add	a5,a5,t3
    69c0:	e8043e03          	ld	t3,-384(s0)
    69c4:	01c787b3          	add	a5,a5,t3
    69c8:	41a304bb          	subw	s1,t1,s10
    69cc:	409787bb          	subw	a5,a5,s1
    69d0:	40000e37          	lui	t3,0x40000
    69d4:	82f43423          	sd	a5,-2008(s0)
    69d8:	0007d463          	bgez	a5,69e0 <.LBB87_460>
    69dc:	c0000e37          	lui	t3,0xc0000

00000000000069e0 <.LBB87_460>:
    69e0:	83c43023          	sd	t3,-2016(s0)
    69e4:	da043783          	ld	a5,-608(s0)
    69e8:	e7843e03          	ld	t3,-392(s0)
    69ec:	01c787b3          	add	a5,a5,t3
    69f0:	e7043e03          	ld	t3,-400(s0)
    69f4:	01c787b3          	add	a5,a5,t3
    69f8:	41a304bb          	subw	s1,t1,s10
    69fc:	409787bb          	subw	a5,a5,s1
    6a00:	40000e37          	lui	t3,0x40000
    6a04:	80f43c23          	sd	a5,-2024(s0)
    6a08:	0007d463          	bgez	a5,6a10 <.LBB87_462>
    6a0c:	c0000e37          	lui	t3,0xc0000

0000000000006a10 <.LBB87_462>:
    6a10:	81c43823          	sd	t3,-2032(s0)
    6a14:	da843783          	ld	a5,-600(s0)
    6a18:	e6843e03          	ld	t3,-408(s0)
    6a1c:	01c787b3          	add	a5,a5,t3
    6a20:	e6043e03          	ld	t3,-416(s0)
    6a24:	01c787b3          	add	a5,a5,t3
    6a28:	41a304bb          	subw	s1,t1,s10
    6a2c:	409787bb          	subw	a5,a5,s1
    6a30:	40000e37          	lui	t3,0x40000
    6a34:	80f43423          	sd	a5,-2040(s0)
    6a38:	0007d463          	bgez	a5,6a40 <.LBB87_464>
    6a3c:	c0000e37          	lui	t3,0xc0000

0000000000006a40 <.LBB87_464>:
    6a40:	db043783          	ld	a5,-592(s0)
    6a44:	f8a43823          	sd	a0,-112(s0)
    6a48:	00001537          	lui	a0,0x1
    6a4c:	40a40533          	sub	a0,s0,a0
    6a50:	6c853483          	ld	s1,1736(a0) # 16c8 <.LBB87_5+0x248>
    6a54:	009787b3          	add	a5,a5,s1
    6a58:	00001537          	lui	a0,0x1
    6a5c:	40a40533          	sub	a0,s0,a0
    6a60:	6c053483          	ld	s1,1728(a0) # 16c0 <.LBB87_5+0x240>
    6a64:	009787b3          	add	a5,a5,s1
    6a68:	41a304bb          	subw	s1,t1,s10
    6a6c:	409787bb          	subw	a5,a5,s1
    6a70:	400004b7          	lui	s1,0x40000
    6a74:	00001537          	lui	a0,0x1
    6a78:	40a40533          	sub	a0,s0,a0
    6a7c:	7ef53823          	sd	a5,2032(a0) # 17f0 <.LBB87_5+0x370>
    6a80:	f9043503          	ld	a0,-112(s0)
    6a84:	0007d463          	bgez	a5,6a8c <.LBB87_466>
    6a88:	c00004b7          	lui	s1,0xc0000

0000000000006a8c <.LBB87_466>:
    6a8c:	f8a43823          	sd	a0,-112(s0)
    6a90:	00001537          	lui	a0,0x1
    6a94:	40a40533          	sub	a0,s0,a0
    6a98:	7e953423          	sd	s1,2024(a0) # 17e8 <.LBB87_5+0x368>
    6a9c:	db843783          	ld	a5,-584(s0)
    6aa0:	00001537          	lui	a0,0x1
    6aa4:	40a40533          	sub	a0,s0,a0
    6aa8:	6b853483          	ld	s1,1720(a0) # 16b8 <.LBB87_5+0x238>
    6aac:	009787b3          	add	a5,a5,s1
    6ab0:	00001537          	lui	a0,0x1
    6ab4:	40a40533          	sub	a0,s0,a0
    6ab8:	6b053483          	ld	s1,1712(a0) # 16b0 <.LBB87_5+0x230>
    6abc:	009787b3          	add	a5,a5,s1
    6ac0:	41a304bb          	subw	s1,t1,s10
    6ac4:	409787bb          	subw	a5,a5,s1
    6ac8:	400004b7          	lui	s1,0x40000
    6acc:	00001537          	lui	a0,0x1
    6ad0:	40a40533          	sub	a0,s0,a0
    6ad4:	70f53823          	sd	a5,1808(a0) # 1710 <.LBB87_5+0x290>
    6ad8:	f9043503          	ld	a0,-112(s0)
    6adc:	0007d463          	bgez	a5,6ae4 <.LBB87_468>
    6ae0:	c00004b7          	lui	s1,0xc0000

0000000000006ae4 <.LBB87_468>:
    6ae4:	f8a43823          	sd	a0,-112(s0)
    6ae8:	00001537          	lui	a0,0x1
    6aec:	40a40533          	sub	a0,s0,a0
    6af0:	70953023          	sd	s1,1792(a0) # 1700 <.LBB87_5+0x280>
    6af4:	dc043783          	ld	a5,-576(s0)
    6af8:	00001537          	lui	a0,0x1
    6afc:	40a40533          	sub	a0,s0,a0
    6b00:	6a853483          	ld	s1,1704(a0) # 16a8 <.LBB87_5+0x228>
    6b04:	009787b3          	add	a5,a5,s1
    6b08:	00001537          	lui	a0,0x1
    6b0c:	40a40533          	sub	a0,s0,a0
    6b10:	6a053483          	ld	s1,1696(a0) # 16a0 <.LBB87_5+0x220>
    6b14:	009787b3          	add	a5,a5,s1
    6b18:	41a304bb          	subw	s1,t1,s10
    6b1c:	409787bb          	subw	a5,a5,s1
    6b20:	400004b7          	lui	s1,0x40000
    6b24:	00001537          	lui	a0,0x1
    6b28:	40a40533          	sub	a0,s0,a0
    6b2c:	6cf53423          	sd	a5,1736(a0) # 16c8 <.LBB87_5+0x248>
    6b30:	f9043503          	ld	a0,-112(s0)
    6b34:	0007d463          	bgez	a5,6b3c <.LBB87_470>
    6b38:	c00004b7          	lui	s1,0xc0000

0000000000006b3c <.LBB87_470>:
    6b3c:	f8a43823          	sd	a0,-112(s0)
    6b40:	00001537          	lui	a0,0x1
    6b44:	40a40533          	sub	a0,s0,a0
    6b48:	6c953023          	sd	s1,1728(a0) # 16c0 <.LBB87_5+0x240>
    6b4c:	dc843783          	ld	a5,-568(s0)
    6b50:	00001537          	lui	a0,0x1
    6b54:	40a40533          	sub	a0,s0,a0
    6b58:	69853483          	ld	s1,1688(a0) # 1698 <.LBB87_5+0x218>
    6b5c:	009787b3          	add	a5,a5,s1
    6b60:	00001537          	lui	a0,0x1
    6b64:	40a40533          	sub	a0,s0,a0
    6b68:	69053483          	ld	s1,1680(a0) # 1690 <.LBB87_5+0x210>
    6b6c:	009787b3          	add	a5,a5,s1
    6b70:	41a304bb          	subw	s1,t1,s10
    6b74:	409787bb          	subw	a5,a5,s1
    6b78:	400004b7          	lui	s1,0x40000
    6b7c:	00001537          	lui	a0,0x1
    6b80:	40a40533          	sub	a0,s0,a0
    6b84:	6af53c23          	sd	a5,1720(a0) # 16b8 <.LBB87_5+0x238>
    6b88:	f9043503          	ld	a0,-112(s0)
    6b8c:	0007d463          	bgez	a5,6b94 <.LBB87_472>
    6b90:	c00004b7          	lui	s1,0xc0000

0000000000006b94 <.LBB87_472>:
    6b94:	f8a43823          	sd	a0,-112(s0)
    6b98:	00001537          	lui	a0,0x1
    6b9c:	40a40533          	sub	a0,s0,a0
    6ba0:	6a953823          	sd	s1,1712(a0) # 16b0 <.LBB87_5+0x230>
    6ba4:	dd043783          	ld	a5,-560(s0)
    6ba8:	00001537          	lui	a0,0x1
    6bac:	40a40533          	sub	a0,s0,a0
    6bb0:	68853483          	ld	s1,1672(a0) # 1688 <.LBB87_5+0x208>
    6bb4:	009787b3          	add	a5,a5,s1
    6bb8:	00001537          	lui	a0,0x1
    6bbc:	40a40533          	sub	a0,s0,a0
    6bc0:	6d053483          	ld	s1,1744(a0) # 16d0 <.LBB87_5+0x250>
    6bc4:	009787b3          	add	a5,a5,s1
    6bc8:	41a304bb          	subw	s1,t1,s10
    6bcc:	409787bb          	subw	a5,a5,s1
    6bd0:	400004b7          	lui	s1,0x40000
    6bd4:	00001537          	lui	a0,0x1
    6bd8:	40a40533          	sub	a0,s0,a0
    6bdc:	6cf53823          	sd	a5,1744(a0) # 16d0 <.LBB87_5+0x250>
    6be0:	f9043503          	ld	a0,-112(s0)
    6be4:	0007d463          	bgez	a5,6bec <.LBB87_474>
    6be8:	c00004b7          	lui	s1,0xc0000

0000000000006bec <.LBB87_474>:
    6bec:	000017b7          	lui	a5,0x1
    6bf0:	40f407b3          	sub	a5,s0,a5
    6bf4:	6a97b423          	sd	s1,1704(a5) # 16a8 <.LBB87_5+0x228>
    6bf8:	dd843783          	ld	a5,-552(s0)
    6bfc:	eb043483          	ld	s1,-336(s0)
    6c00:	009787b3          	add	a5,a5,s1
    6c04:	005787b3          	add	a5,a5,t0
    6c08:	41a304bb          	subw	s1,t1,s10
    6c0c:	409787bb          	subw	a5,a5,s1
    6c10:	400004b7          	lui	s1,0x40000
    6c14:	000012b7          	lui	t0,0x1
    6c18:	405402b3          	sub	t0,s0,t0
    6c1c:	6af2b023          	sd	a5,1696(t0) # 16a0 <.LBB87_5+0x220>
    6c20:	0007d463          	bgez	a5,6c28 <.LBB87_476>
    6c24:	c00004b7          	lui	s1,0xc0000

0000000000006c28 <.LBB87_476>:
    6c28:	000017b7          	lui	a5,0x1
    6c2c:	40f407b3          	sub	a5,s0,a5
    6c30:	6897bc23          	sd	s1,1688(a5) # 1698 <.LBB87_5+0x218>
    6c34:	de043783          	ld	a5,-544(s0)
    6c38:	eb843483          	ld	s1,-328(s0)
    6c3c:	009787b3          	add	a5,a5,s1
    6c40:	001787b3          	add	a5,a5,ra
    6c44:	41a304bb          	subw	s1,t1,s10
    6c48:	409787bb          	subw	a5,a5,s1
    6c4c:	400004b7          	lui	s1,0x40000
    6c50:	000012b7          	lui	t0,0x1
    6c54:	405402b3          	sub	t0,s0,t0
    6c58:	68f2b823          	sd	a5,1680(t0) # 1690 <.LBB87_5+0x210>
    6c5c:	0007d463          	bgez	a5,6c64 <.LBB87_478>
    6c60:	c00004b7          	lui	s1,0xc0000

0000000000006c64 <.LBB87_478>:
    6c64:	000017b7          	lui	a5,0x1
    6c68:	40f407b3          	sub	a5,s0,a5
    6c6c:	6897b423          	sd	s1,1672(a5) # 1688 <.LBB87_5+0x208>
    6c70:	de843783          	ld	a5,-536(s0)
    6c74:	ec043483          	ld	s1,-320(s0)
    6c78:	009787b3          	add	a5,a5,s1
    6c7c:	01b787b3          	add	a5,a5,s11
    6c80:	41a304bb          	subw	s1,t1,s10
    6c84:	409787bb          	subw	a5,a5,s1
    6c88:	400004b7          	lui	s1,0x40000
    6c8c:	000012b7          	lui	t0,0x1
    6c90:	405402b3          	sub	t0,s0,t0
    6c94:	3ef2b023          	sd	a5,992(t0) # 13e0 <.LBB87_4+0x51c>
    6c98:	0007d463          	bgez	a5,6ca0 <.LBB87_480>
    6c9c:	c00004b7          	lui	s1,0xc0000

0000000000006ca0 <.LBB87_480>:
    6ca0:	000017b7          	lui	a5,0x1
    6ca4:	40f407b3          	sub	a5,s0,a5
    6ca8:	3c97b823          	sd	s1,976(a5) # 13d0 <.LBB87_4+0x50c>
    6cac:	df043783          	ld	a5,-528(s0)
    6cb0:	ec843483          	ld	s1,-312(s0)
    6cb4:	009787b3          	add	a5,a5,s1
    6cb8:	000012b7          	lui	t0,0x1
    6cbc:	405402b3          	sub	t0,s0,t0
    6cc0:	6f02b283          	ld	t0,1776(t0) # 16f0 <.LBB87_5+0x270>
    6cc4:	005787b3          	add	a5,a5,t0
    6cc8:	41a304bb          	subw	s1,t1,s10
    6ccc:	409787bb          	subw	a5,a5,s1
    6cd0:	400004b7          	lui	s1,0x40000
    6cd4:	000012b7          	lui	t0,0x1
    6cd8:	405402b3          	sub	t0,s0,t0
    6cdc:	6ef2b823          	sd	a5,1776(t0) # 16f0 <.LBB87_5+0x270>
    6ce0:	0007d463          	bgez	a5,6ce8 <.LBB87_482>
    6ce4:	c00004b7          	lui	s1,0xc0000

0000000000006ce8 <.LBB87_482>:
    6ce8:	000017b7          	lui	a5,0x1
    6cec:	40f407b3          	sub	a5,s0,a5
    6cf0:	3697b823          	sd	s1,880(a5) # 1370 <.LBB87_4+0x4ac>
    6cf4:	df843783          	ld	a5,-520(s0)
    6cf8:	ed043483          	ld	s1,-304(s0)
    6cfc:	009787b3          	add	a5,a5,s1
    6d00:	019787b3          	add	a5,a5,s9
    6d04:	41a304bb          	subw	s1,t1,s10
    6d08:	409787bb          	subw	a5,a5,s1
    6d0c:	400004b7          	lui	s1,0x40000
    6d10:	000012b7          	lui	t0,0x1
    6d14:	405402b3          	sub	t0,s0,t0
    6d18:	30f2bc23          	sd	a5,792(t0) # 1318 <.LBB87_4+0x454>
    6d1c:	0007d463          	bgez	a5,6d24 <.LBB87_484>
    6d20:	c00004b7          	lui	s1,0xc0000

0000000000006d24 <.LBB87_484>:
    6d24:	000017b7          	lui	a5,0x1
    6d28:	40f407b3          	sub	a5,s0,a5
    6d2c:	3097b423          	sd	s1,776(a5) # 1308 <.LBB87_4+0x444>
    6d30:	e0043783          	ld	a5,-512(s0)
    6d34:	ed843483          	ld	s1,-296(s0)
    6d38:	009787b3          	add	a5,a5,s1
    6d3c:	018787b3          	add	a5,a5,s8
    6d40:	41a304bb          	subw	s1,t1,s10
    6d44:	409787bb          	subw	a5,a5,s1
    6d48:	400004b7          	lui	s1,0x40000
    6d4c:	000012b7          	lui	t0,0x1
    6d50:	405402b3          	sub	t0,s0,t0
    6d54:	2af2b823          	sd	a5,688(t0) # 12b0 <.LBB87_4+0x3ec>
    6d58:	0007d463          	bgez	a5,6d60 <.LBB87_486>
    6d5c:	c00004b7          	lui	s1,0xc0000

0000000000006d60 <.LBB87_486>:
    6d60:	000017b7          	lui	a5,0x1
    6d64:	40f407b3          	sub	a5,s0,a5
    6d68:	2a97b023          	sd	s1,672(a5) # 12a0 <.LBB87_4+0x3dc>
    6d6c:	ee043783          	ld	a5,-288(s0)
    6d70:	e0843283          	ld	t0,-504(s0)
    6d74:	00f287b3          	add	a5,t0,a5
    6d78:	017787b3          	add	a5,a5,s7
    6d7c:	41a304bb          	subw	s1,t1,s10
    6d80:	409787bb          	subw	a5,a5,s1
    6d84:	400004b7          	lui	s1,0x40000
    6d88:	000012b7          	lui	t0,0x1
    6d8c:	405402b3          	sub	t0,s0,t0
    6d90:	24f2b023          	sd	a5,576(t0) # 1240 <.LBB87_4+0x37c>
    6d94:	0007d463          	bgez	a5,6d9c <.LBB87_488>
    6d98:	c00004b7          	lui	s1,0xc0000

0000000000006d9c <.LBB87_488>:
    6d9c:	000017b7          	lui	a5,0x1
    6da0:	40f407b3          	sub	a5,s0,a5
    6da4:	2297b423          	sd	s1,552(a5) # 1228 <.LBB87_4+0x364>
    6da8:	ee843783          	ld	a5,-280(s0)
    6dac:	e1043283          	ld	t0,-496(s0)
    6db0:	00f287b3          	add	a5,t0,a5
    6db4:	016787b3          	add	a5,a5,s6
    6db8:	41a304bb          	subw	s1,t1,s10
    6dbc:	409787bb          	subw	a5,a5,s1
    6dc0:	400004b7          	lui	s1,0x40000
    6dc4:	000012b7          	lui	t0,0x1
    6dc8:	405402b3          	sub	t0,s0,t0
    6dcc:	1cf2b423          	sd	a5,456(t0) # 11c8 <.LBB87_4+0x304>
    6dd0:	0007d463          	bgez	a5,6dd8 <.LBB87_490>
    6dd4:	c00004b7          	lui	s1,0xc0000

0000000000006dd8 <.LBB87_490>:
    6dd8:	000017b7          	lui	a5,0x1
    6ddc:	40f407b3          	sub	a5,s0,a5
    6de0:	1a97b823          	sd	s1,432(a5) # 11b0 <.LBB87_4+0x2ec>
    6de4:	e1843783          	ld	a5,-488(s0)
    6de8:	ef043483          	ld	s1,-272(s0)
    6dec:	009787b3          	add	a5,a5,s1
    6df0:	01e787b3          	add	a5,a5,t5
    6df4:	41a304bb          	subw	s1,t1,s10
    6df8:	409787bb          	subw	a5,a5,s1
    6dfc:	400004b7          	lui	s1,0x40000
    6e00:	000012b7          	lui	t0,0x1
    6e04:	405402b3          	sub	t0,s0,t0
    6e08:	14f2bc23          	sd	a5,344(t0) # 1158 <.LBB87_4+0x294>
    6e0c:	0007d463          	bgez	a5,6e14 <.LBB87_492>
    6e10:	c00004b7          	lui	s1,0xc0000

0000000000006e14 <.LBB87_492>:
    6e14:	000017b7          	lui	a5,0x1
    6e18:	40f407b3          	sub	a5,s0,a5
    6e1c:	1497b023          	sd	s1,320(a5) # 1140 <.LBB87_4+0x27c>
    6e20:	f0043783          	ld	a5,-256(s0)
    6e24:	ef843483          	ld	s1,-264(s0)
    6e28:	009787b3          	add	a5,a5,s1
    6e2c:	014787b3          	add	a5,a5,s4
    6e30:	41a304bb          	subw	s1,t1,s10
    6e34:	409787bb          	subw	a5,a5,s1
    6e38:	400004b7          	lui	s1,0x40000
    6e3c:	000012b7          	lui	t0,0x1
    6e40:	405402b3          	sub	t0,s0,t0
    6e44:	0ef2b023          	sd	a5,224(t0) # 10e0 <.LBB87_4+0x21c>
    6e48:	0007d463          	bgez	a5,6e50 <.LBB87_494>
    6e4c:	c00004b7          	lui	s1,0xc0000

0000000000006e50 <.LBB87_494>:
    6e50:	000017b7          	lui	a5,0x1
    6e54:	40f407b3          	sub	a5,s0,a5
    6e58:	0c97b823          	sd	s1,208(a5) # 10d0 <.LBB87_4+0x20c>
    6e5c:	f0843783          	ld	a5,-248(s0)
    6e60:	f3043483          	ld	s1,-208(s0)
    6e64:	009787b3          	add	a5,a5,s1
    6e68:	013787b3          	add	a5,a5,s3
    6e6c:	41a304bb          	subw	s1,t1,s10
    6e70:	409787bb          	subw	a5,a5,s1
    6e74:	400004b7          	lui	s1,0x40000
    6e78:	000012b7          	lui	t0,0x1
    6e7c:	405402b3          	sub	t0,s0,t0
    6e80:	06f2b423          	sd	a5,104(t0) # 1068 <.LBB87_4+0x1a4>
    6e84:	0007d463          	bgez	a5,6e8c <.LBB87_496>
    6e88:	c00004b7          	lui	s1,0xc0000

0000000000006e8c <.LBB87_496>:
    6e8c:	000017b7          	lui	a5,0x1
    6e90:	40f407b3          	sub	a5,s0,a5
    6e94:	0497bc23          	sd	s1,88(a5) # 1058 <.LBB87_4+0x194>
    6e98:	f1043783          	ld	a5,-240(s0)
    6e9c:	f3843483          	ld	s1,-200(s0)
    6ea0:	009787b3          	add	a5,a5,s1
    6ea4:	012787b3          	add	a5,a5,s2
    6ea8:	41a304bb          	subw	s1,t1,s10
    6eac:	409787bb          	subw	a5,a5,s1
    6eb0:	400004b7          	lui	s1,0x40000
    6eb4:	000012b7          	lui	t0,0x1
    6eb8:	405402b3          	sub	t0,s0,t0
    6ebc:	fef2b823          	sd	a5,-16(t0) # ff0 <.LBB87_4+0x12c>
    6ec0:	0007d463          	bgez	a5,6ec8 <.LBB87_498>
    6ec4:	c00004b7          	lui	s1,0xc0000

0000000000006ec8 <.LBB87_498>:
    6ec8:	000017b7          	lui	a5,0x1
    6ecc:	40f407b3          	sub	a5,s0,a5
    6ed0:	fe97b023          	sd	s1,-32(a5) # fe0 <.LBB87_4+0x11c>
    6ed4:	f1843783          	ld	a5,-232(s0)
    6ed8:	f4043483          	ld	s1,-192(s0)
    6edc:	009787b3          	add	a5,a5,s1
    6ee0:	000012b7          	lui	t0,0x1
    6ee4:	405402b3          	sub	t0,s0,t0
    6ee8:	7382b283          	ld	t0,1848(t0) # 1738 <.LBB87_5+0x2b8>
    6eec:	005787b3          	add	a5,a5,t0
    6ef0:	41a304bb          	subw	s1,t1,s10
    6ef4:	409787bb          	subw	a5,a5,s1
    6ef8:	400004b7          	lui	s1,0x40000
    6efc:	000012b7          	lui	t0,0x1
    6f00:	405402b3          	sub	t0,s0,t0
    6f04:	72f2bc23          	sd	a5,1848(t0) # 1738 <.LBB87_5+0x2b8>
    6f08:	0007d463          	bgez	a5,6f10 <.LBB87_500>
    6f0c:	c00004b7          	lui	s1,0xc0000

0000000000006f10 <.LBB87_500>:
    6f10:	000017b7          	lui	a5,0x1
    6f14:	40f407b3          	sub	a5,s0,a5
    6f18:	f697b423          	sd	s1,-152(a5) # f68 <.LBB87_4+0xa4>
    6f1c:	f2043783          	ld	a5,-224(s0)
    6f20:	f4843483          	ld	s1,-184(s0)
    6f24:	009787b3          	add	a5,a5,s1
    6f28:	000012b7          	lui	t0,0x1
    6f2c:	405402b3          	sub	t0,s0,t0
    6f30:	7402b283          	ld	t0,1856(t0) # 1740 <.LBB87_5+0x2c0>
    6f34:	005787b3          	add	a5,a5,t0
    6f38:	41a304bb          	subw	s1,t1,s10
    6f3c:	409787bb          	subw	a5,a5,s1
    6f40:	400004b7          	lui	s1,0x40000
    6f44:	000012b7          	lui	t0,0x1
    6f48:	405402b3          	sub	t0,s0,t0
    6f4c:	74f2b023          	sd	a5,1856(t0) # 1740 <.LBB87_5+0x2c0>
    6f50:	0007d463          	bgez	a5,6f58 <.LBB87_502>
    6f54:	c00004b7          	lui	s1,0xc0000

0000000000006f58 <.LBB87_502>:
    6f58:	000017b7          	lui	a5,0x1
    6f5c:	40f407b3          	sub	a5,s0,a5
    6f60:	ee97bc23          	sd	s1,-264(a5) # ef8 <.LBB87_4+0x34>
    6f64:	f5043783          	ld	a5,-176(s0)
    6f68:	f2843483          	ld	s1,-216(s0)
    6f6c:	00f487b3          	add	a5,s1,a5
    6f70:	000012b7          	lui	t0,0x1
    6f74:	405402b3          	sub	t0,s0,t0
    6f78:	7482b283          	ld	t0,1864(t0) # 1748 <.LBB87_5+0x2c8>
    6f7c:	005787b3          	add	a5,a5,t0
    6f80:	41a304bb          	subw	s1,t1,s10
    6f84:	409787bb          	subw	a5,a5,s1
    6f88:	400004b7          	lui	s1,0x40000
    6f8c:	000012b7          	lui	t0,0x1
    6f90:	405402b3          	sub	t0,s0,t0
    6f94:	74f2b423          	sd	a5,1864(t0) # 1748 <.LBB87_5+0x2c8>
    6f98:	0007d463          	bgez	a5,6fa0 <.LBB87_504>
    6f9c:	c00004b7          	lui	s1,0xc0000

0000000000006fa0 <.LBB87_504>:
    6fa0:	000017b7          	lui	a5,0x1
    6fa4:	40f407b3          	sub	a5,s0,a5
    6fa8:	e897b023          	sd	s1,-384(a5) # e80 <.LBB87_3+0xc14>
    6fac:	e2043783          	ld	a5,-480(s0)
    6fb0:	f5843483          	ld	s1,-168(s0)
    6fb4:	009787b3          	add	a5,a5,s1
    6fb8:	000012b7          	lui	t0,0x1
    6fbc:	405402b3          	sub	t0,s0,t0
    6fc0:	7502b283          	ld	t0,1872(t0) # 1750 <.LBB87_5+0x2d0>
    6fc4:	005787b3          	add	a5,a5,t0
    6fc8:	41a304bb          	subw	s1,t1,s10
    6fcc:	409787bb          	subw	a5,a5,s1
    6fd0:	400004b7          	lui	s1,0x40000
    6fd4:	000012b7          	lui	t0,0x1
    6fd8:	405402b3          	sub	t0,s0,t0
    6fdc:	74f2b823          	sd	a5,1872(t0) # 1750 <.LBB87_5+0x2d0>
    6fe0:	0007d463          	bgez	a5,6fe8 <.LBB87_506>
    6fe4:	c00004b7          	lui	s1,0xc0000

0000000000006fe8 <.LBB87_506>:
    6fe8:	000017b7          	lui	a5,0x1
    6fec:	40f407b3          	sub	a5,s0,a5
    6ff0:	e097b823          	sd	s1,-496(a5) # e10 <.LBB87_3+0xba4>
    6ff4:	e2843783          	ld	a5,-472(s0)
    6ff8:	f6043483          	ld	s1,-160(s0)
    6ffc:	009787b3          	add	a5,a5,s1
    7000:	000012b7          	lui	t0,0x1
    7004:	405402b3          	sub	t0,s0,t0
    7008:	7582b283          	ld	t0,1880(t0) # 1758 <.LBB87_5+0x2d8>
    700c:	005787b3          	add	a5,a5,t0
    7010:	41a304bb          	subw	s1,t1,s10
    7014:	409787bb          	subw	a5,a5,s1
    7018:	400004b7          	lui	s1,0x40000
    701c:	000012b7          	lui	t0,0x1
    7020:	405402b3          	sub	t0,s0,t0
    7024:	74f2bc23          	sd	a5,1880(t0) # 1758 <.LBB87_5+0x2d8>
    7028:	0007d463          	bgez	a5,7030 <.LBB87_508>
    702c:	c00004b7          	lui	s1,0xc0000

0000000000007030 <.LBB87_508>:
    7030:	000017b7          	lui	a5,0x1
    7034:	40f407b3          	sub	a5,s0,a5
    7038:	d897bc23          	sd	s1,-616(a5) # d98 <.LBB87_3+0xb2c>
    703c:	e3043783          	ld	a5,-464(s0)
    7040:	f6843483          	ld	s1,-152(s0)
    7044:	009787b3          	add	a5,a5,s1
    7048:	015787b3          	add	a5,a5,s5
    704c:	41a304bb          	subw	s1,t1,s10
    7050:	409787bb          	subw	a5,a5,s1
    7054:	400004b7          	lui	s1,0x40000
    7058:	000012b7          	lui	t0,0x1
    705c:	405402b3          	sub	t0,s0,t0
    7060:	d2f2b823          	sd	a5,-720(t0) # d30 <.LBB87_3+0xac4>
    7064:	0007d463          	bgez	a5,706c <.LBB87_510>
    7068:	c00004b7          	lui	s1,0xc0000

000000000000706c <.LBB87_510>:
    706c:	000017b7          	lui	a5,0x1
    7070:	40f407b3          	sub	a5,s0,a5
    7074:	d297b023          	sd	s1,-736(a5) # d20 <.LBB87_3+0xab4>
    7078:	e3843783          	ld	a5,-456(s0)
    707c:	f7043483          	ld	s1,-144(s0)
    7080:	009787b3          	add	a5,a5,s1
    7084:	01f787b3          	add	a5,a5,t6
    7088:	41a304bb          	subw	s1,t1,s10
    708c:	409787bb          	subw	a5,a5,s1
    7090:	400004b7          	lui	s1,0x40000
    7094:	000012b7          	lui	t0,0x1
    7098:	405402b3          	sub	t0,s0,t0
    709c:	ccf2b023          	sd	a5,-832(t0) # cc0 <.LBB87_3+0xa54>
    70a0:	0007d463          	bgez	a5,70a8 <.LBB87_512>
    70a4:	c00004b7          	lui	s1,0xc0000

00000000000070a8 <.LBB87_512>:
    70a8:	000017b7          	lui	a5,0x1
    70ac:	40f407b3          	sub	a5,s0,a5
    70b0:	ca97b823          	sd	s1,-848(a5) # cb0 <.LBB87_3+0xa44>
    70b4:	e4043783          	ld	a5,-448(s0)
    70b8:	f7843483          	ld	s1,-136(s0)
    70bc:	009787b3          	add	a5,a5,s1
    70c0:	011787b3          	add	a5,a5,a7
    70c4:	41a304bb          	subw	s1,t1,s10
    70c8:	409787bb          	subw	a5,a5,s1
    70cc:	400004b7          	lui	s1,0x40000
    70d0:	000018b7          	lui	a7,0x1
    70d4:	411408b3          	sub	a7,s0,a7
    70d8:	c6f8bc23          	sd	a5,-904(a7) # c78 <.LBB87_3+0xa0c>
    70dc:	0007d463          	bgez	a5,70e4 <.LBB87_514>
    70e0:	c00004b7          	lui	s1,0xc0000

00000000000070e4 <.LBB87_514>:
    70e4:	000017b7          	lui	a5,0x1
    70e8:	40f407b3          	sub	a5,s0,a5
    70ec:	c697b423          	sd	s1,-920(a5) # c68 <.LBB87_3+0x9fc>
    70f0:	e4843483          	ld	s1,-440(s0)
    70f4:	f8043783          	ld	a5,-128(s0)
    70f8:	00f484b3          	add	s1,s1,a5
    70fc:	000017b7          	lui	a5,0x1
    7100:	40f407b3          	sub	a5,s0,a5
    7104:	7787b783          	ld	a5,1912(a5) # 1778 <.LBB87_5+0x2f8>
    7108:	00f484b3          	add	s1,s1,a5
    710c:	fff28a37          	lui	s4,0xfff28
    7110:	fff28b37          	lui	s6,0xfff28
    7114:	41630d3b          	subw	s10,t1,s6
    7118:	41a487bb          	subw	a5,s1,s10
    711c:	400002b7          	lui	t0,0x40000
    7120:	0007d463          	bgez	a5,7128 <.LBB87_516>
    7124:	c00002b7          	lui	t0,0xc0000

0000000000007128 <.LBB87_516>:
    7128:	e5043483          	ld	s1,-432(s0)
    712c:	f8843b03          	ld	s6,-120(s0)
    7130:	016484b3          	add	s1,s1,s6
    7134:	00d484b3          	add	s1,s1,a3
    7138:	4143033b          	subw	t1,t1,s4
    713c:	406484bb          	subw	s1,s1,t1
    7140:	000016b7          	lui	a3,0x1
    7144:	40d406b3          	sub	a3,s0,a3
    7148:	6586b303          	ld	t1,1624(a3) # 1658 <.LBB87_5+0x1d8>
    714c:	0004da63          	bgez	s1,7160 <.LBB87_518>
    7150:	c0000a37          	lui	s4,0xc0000
    7154:	000016b7          	lui	a3,0x1
    7158:	40d406b3          	sub	a3,s0,a3
    715c:	6946b023          	sd	s4,1664(a3) # 1680 <.LBB87_5+0x200>

0000000000007160 <.LBB87_518>:
    7160:	000016b7          	lui	a3,0x1
    7164:	40d406b3          	sub	a3,s0,a3
    7168:	bc06bf03          	ld	t5,-1088(a3) # bc0 <.LBB87_3+0x954>
    716c:	026f0333          	mul	t1,t5,t1
    7170:	e5843b03          	ld	s6,-424(s0)
    7174:	000016b7          	lui	a3,0x1
    7178:	40d406b3          	sub	a3,s0,a3
    717c:	bb86bf03          	ld	t5,-1096(a3) # bb8 <.LBB87_3+0x94c>
    7180:	016f0b33          	add	s6,t5,s6
    7184:	01630333          	add	t1,t1,s6
    7188:	42835a13          	srai	s4,t1,0x28
    718c:	f7c00313          	li	t1,-132
    7190:	f9443423          	sd	s4,-120(s0)
    7194:	01434663          	blt	t1,s4,71a0 <.LBB87_520>
    7198:	f7c00a13          	li	s4,-132
    719c:	f9443423          	sd	s4,-120(s0)

00000000000071a0 <.LBB87_520>:
    71a0:	000016b7          	lui	a3,0x1
    71a4:	40d406b3          	sub	a3,s0,a3
    71a8:	6586ba03          	ld	s4,1624(a3) # 1658 <.LBB87_5+0x1d8>
    71ac:	000016b7          	lui	a3,0x1
    71b0:	40d406b3          	sub	a3,s0,a3
    71b4:	c606bb03          	ld	s6,-928(a3) # c60 <.LBB87_3+0x9f4>
    71b8:	034b0b33          	mul	s6,s6,s4
    71bc:	e5843a03          	ld	s4,-424(s0)
    71c0:	000016b7          	lui	a3,0x1
    71c4:	40d406b3          	sub	a3,s0,a3
    71c8:	c586bd03          	ld	s10,-936(a3) # c58 <.LBB87_3+0x9ec>
    71cc:	014d0a33          	add	s4,s10,s4
    71d0:	014b0a33          	add	s4,s6,s4
    71d4:	428a5a13          	srai	s4,s4,0x28
    71d8:	f9443023          	sd	s4,-128(s0)
    71dc:	01434663          	blt	t1,s4,71e8 <.LBB87_522>
    71e0:	f7c00a13          	li	s4,-132
    71e4:	f9443023          	sd	s4,-128(s0)

00000000000071e8 <.LBB87_522>:
    71e8:	000016b7          	lui	a3,0x1
    71ec:	40d406b3          	sub	a3,s0,a3
    71f0:	6586ba03          	ld	s4,1624(a3) # 1658 <.LBB87_5+0x1d8>
    71f4:	000016b7          	lui	a3,0x1
    71f8:	40d406b3          	sub	a3,s0,a3
    71fc:	ca86bb03          	ld	s6,-856(a3) # ca8 <.LBB87_3+0xa3c>
    7200:	034b0a33          	mul	s4,s6,s4
    7204:	e5843b03          	ld	s6,-424(s0)
    7208:	000016b7          	lui	a3,0x1
    720c:	40d406b3          	sub	a3,s0,a3
    7210:	ca06bd03          	ld	s10,-864(a3) # ca0 <.LBB87_3+0xa34>
    7214:	016d0b33          	add	s6,s10,s6
    7218:	016a0a33          	add	s4,s4,s6
    721c:	428a5a13          	srai	s4,s4,0x28
    7220:	f7443c23          	sd	s4,-136(s0)
    7224:	01434663          	blt	t1,s4,7230 <.LBB87_524>
    7228:	f7c00a13          	li	s4,-132
    722c:	f7443c23          	sd	s4,-136(s0)

0000000000007230 <.LBB87_524>:
    7230:	000016b7          	lui	a3,0x1
    7234:	40d406b3          	sub	a3,s0,a3
    7238:	6586ba03          	ld	s4,1624(a3) # 1658 <.LBB87_5+0x1d8>
    723c:	000016b7          	lui	a3,0x1
    7240:	40d406b3          	sub	a3,s0,a3
    7244:	d186bb03          	ld	s6,-744(a3) # d18 <.LBB87_3+0xaac>
    7248:	034b0a33          	mul	s4,s6,s4
    724c:	e5843b03          	ld	s6,-424(s0)
    7250:	000016b7          	lui	a3,0x1
    7254:	40d406b3          	sub	a3,s0,a3
    7258:	d106bd03          	ld	s10,-752(a3) # d10 <.LBB87_3+0xaa4>
    725c:	016d0b33          	add	s6,s10,s6
    7260:	016a0a33          	add	s4,s4,s6
    7264:	428a5a13          	srai	s4,s4,0x28
    7268:	f7443823          	sd	s4,-144(s0)
    726c:	01434663          	blt	t1,s4,7278 <.LBB87_526>
    7270:	f7c00a13          	li	s4,-132
    7274:	f7443823          	sd	s4,-144(s0)

0000000000007278 <.LBB87_526>:
    7278:	000016b7          	lui	a3,0x1
    727c:	40d406b3          	sub	a3,s0,a3
    7280:	6586ba03          	ld	s4,1624(a3) # 1658 <.LBB87_5+0x1d8>
    7284:	000016b7          	lui	a3,0x1
    7288:	40d406b3          	sub	a3,s0,a3
    728c:	d906bb03          	ld	s6,-624(a3) # d90 <.LBB87_3+0xb24>
    7290:	034b0a33          	mul	s4,s6,s4
    7294:	e5843b03          	ld	s6,-424(s0)
    7298:	000016b7          	lui	a3,0x1
    729c:	40d406b3          	sub	a3,s0,a3
    72a0:	d886bd03          	ld	s10,-632(a3) # d88 <.LBB87_3+0xb1c>
    72a4:	016d0b33          	add	s6,s10,s6
    72a8:	016a0a33          	add	s4,s4,s6
    72ac:	428a5a13          	srai	s4,s4,0x28
    72b0:	f7443423          	sd	s4,-152(s0)
    72b4:	01434663          	blt	t1,s4,72c0 <.LBB87_528>
    72b8:	f7c00a13          	li	s4,-132
    72bc:	f7443423          	sd	s4,-152(s0)

00000000000072c0 <.LBB87_528>:
    72c0:	000016b7          	lui	a3,0x1
    72c4:	40d406b3          	sub	a3,s0,a3
    72c8:	6586ba03          	ld	s4,1624(a3) # 1658 <.LBB87_5+0x1d8>
    72cc:	000016b7          	lui	a3,0x1
    72d0:	40d406b3          	sub	a3,s0,a3
    72d4:	e086bb03          	ld	s6,-504(a3) # e08 <.LBB87_3+0xb9c>
    72d8:	034b0a33          	mul	s4,s6,s4
    72dc:	e5843b03          	ld	s6,-424(s0)
    72e0:	000016b7          	lui	a3,0x1
    72e4:	40d406b3          	sub	a3,s0,a3
    72e8:	e006bd03          	ld	s10,-512(a3) # e00 <.LBB87_3+0xb94>
    72ec:	016d0b33          	add	s6,s10,s6
    72f0:	016a0a33          	add	s4,s4,s6
    72f4:	428a5a13          	srai	s4,s4,0x28
    72f8:	f7443023          	sd	s4,-160(s0)
    72fc:	01434663          	blt	t1,s4,7308 <.LBB87_530>
    7300:	f7c00a13          	li	s4,-132
    7304:	f7443023          	sd	s4,-160(s0)

0000000000007308 <.LBB87_530>:
    7308:	000016b7          	lui	a3,0x1
    730c:	40d406b3          	sub	a3,s0,a3
    7310:	6586ba03          	ld	s4,1624(a3) # 1658 <.LBB87_5+0x1d8>
    7314:	000016b7          	lui	a3,0x1
    7318:	40d406b3          	sub	a3,s0,a3
    731c:	e786bb03          	ld	s6,-392(a3) # e78 <.LBB87_3+0xc0c>
    7320:	034b0a33          	mul	s4,s6,s4
    7324:	e5843b03          	ld	s6,-424(s0)
    7328:	000016b7          	lui	a3,0x1
    732c:	40d406b3          	sub	a3,s0,a3
    7330:	e706bd03          	ld	s10,-400(a3) # e70 <.LBB87_3+0xc04>
    7334:	016d0b33          	add	s6,s10,s6
    7338:	016a0a33          	add	s4,s4,s6
    733c:	428a5a13          	srai	s4,s4,0x28
    7340:	f5443c23          	sd	s4,-168(s0)
    7344:	01434663          	blt	t1,s4,7350 <.LBB87_532>
    7348:	f7c00a13          	li	s4,-132
    734c:	f5443c23          	sd	s4,-168(s0)

0000000000007350 <.LBB87_532>:
    7350:	000016b7          	lui	a3,0x1
    7354:	40d406b3          	sub	a3,s0,a3
    7358:	6586ba03          	ld	s4,1624(a3) # 1658 <.LBB87_5+0x1d8>
    735c:	000016b7          	lui	a3,0x1
    7360:	40d406b3          	sub	a3,s0,a3
    7364:	ef06bb03          	ld	s6,-272(a3) # ef0 <.LBB87_4+0x2c>
    7368:	034b0a33          	mul	s4,s6,s4
    736c:	e5843b03          	ld	s6,-424(s0)
    7370:	000016b7          	lui	a3,0x1
    7374:	40d406b3          	sub	a3,s0,a3
    7378:	ee86bd03          	ld	s10,-280(a3) # ee8 <.LBB87_4+0x24>
    737c:	016d0b33          	add	s6,s10,s6
    7380:	016a0a33          	add	s4,s4,s6
    7384:	428a5a13          	srai	s4,s4,0x28
    7388:	f5443823          	sd	s4,-176(s0)
    738c:	01434663          	blt	t1,s4,7398 <.LBB87_534>
    7390:	f7c00a13          	li	s4,-132
    7394:	f5443823          	sd	s4,-176(s0)

0000000000007398 <.LBB87_534>:
    7398:	000016b7          	lui	a3,0x1
    739c:	40d406b3          	sub	a3,s0,a3
    73a0:	6586ba03          	ld	s4,1624(a3) # 1658 <.LBB87_5+0x1d8>
    73a4:	000016b7          	lui	a3,0x1
    73a8:	40d406b3          	sub	a3,s0,a3
    73ac:	f606bb03          	ld	s6,-160(a3) # f60 <.LBB87_4+0x9c>
    73b0:	034b0a33          	mul	s4,s6,s4
    73b4:	e5843b03          	ld	s6,-424(s0)
    73b8:	000016b7          	lui	a3,0x1
    73bc:	40d406b3          	sub	a3,s0,a3
    73c0:	f586bd03          	ld	s10,-168(a3) # f58 <.LBB87_4+0x94>
    73c4:	016d0b33          	add	s6,s10,s6
    73c8:	016a0a33          	add	s4,s4,s6
    73cc:	428a5a13          	srai	s4,s4,0x28
    73d0:	f5443423          	sd	s4,-184(s0)
    73d4:	01434663          	blt	t1,s4,73e0 <.LBB87_536>
    73d8:	f7c00a13          	li	s4,-132
    73dc:	f5443423          	sd	s4,-184(s0)

00000000000073e0 <.LBB87_536>:
    73e0:	000016b7          	lui	a3,0x1
    73e4:	40d406b3          	sub	a3,s0,a3
    73e8:	6586ba03          	ld	s4,1624(a3) # 1658 <.LBB87_5+0x1d8>
    73ec:	000016b7          	lui	a3,0x1
    73f0:	40d406b3          	sub	a3,s0,a3
    73f4:	fd86bb03          	ld	s6,-40(a3) # fd8 <.LBB87_4+0x114>
    73f8:	034b0a33          	mul	s4,s6,s4
    73fc:	e5843b03          	ld	s6,-424(s0)
    7400:	000016b7          	lui	a3,0x1
    7404:	40d406b3          	sub	a3,s0,a3
    7408:	fd06bd03          	ld	s10,-48(a3) # fd0 <.LBB87_4+0x10c>
    740c:	016d0b33          	add	s6,s10,s6
    7410:	016a0a33          	add	s4,s4,s6
    7414:	428a5a13          	srai	s4,s4,0x28
    7418:	f5443023          	sd	s4,-192(s0)
    741c:	01434663          	blt	t1,s4,7428 <.LBB87_538>
    7420:	f7c00a13          	li	s4,-132
    7424:	f5443023          	sd	s4,-192(s0)

0000000000007428 <.LBB87_538>:
    7428:	000016b7          	lui	a3,0x1
    742c:	40d406b3          	sub	a3,s0,a3
    7430:	6586ba03          	ld	s4,1624(a3) # 1658 <.LBB87_5+0x1d8>
    7434:	000016b7          	lui	a3,0x1
    7438:	40d406b3          	sub	a3,s0,a3
    743c:	0506bb03          	ld	s6,80(a3) # 1050 <.LBB87_4+0x18c>
    7440:	034b0a33          	mul	s4,s6,s4
    7444:	e5843b03          	ld	s6,-424(s0)
    7448:	000016b7          	lui	a3,0x1
    744c:	40d406b3          	sub	a3,s0,a3
    7450:	0486bd03          	ld	s10,72(a3) # 1048 <.LBB87_4+0x184>
    7454:	016d0b33          	add	s6,s10,s6
    7458:	016a0a33          	add	s4,s4,s6
    745c:	428a5a13          	srai	s4,s4,0x28
    7460:	f3443c23          	sd	s4,-200(s0)
    7464:	01434663          	blt	t1,s4,7470 <.LBB87_540>
    7468:	f7c00a13          	li	s4,-132
    746c:	f3443c23          	sd	s4,-200(s0)

0000000000007470 <.LBB87_540>:
    7470:	000016b7          	lui	a3,0x1
    7474:	40d406b3          	sub	a3,s0,a3
    7478:	6586ba03          	ld	s4,1624(a3) # 1658 <.LBB87_5+0x1d8>
    747c:	000016b7          	lui	a3,0x1
    7480:	40d406b3          	sub	a3,s0,a3
    7484:	0c86bb03          	ld	s6,200(a3) # 10c8 <.LBB87_4+0x204>
    7488:	034b0a33          	mul	s4,s6,s4
    748c:	e5843b03          	ld	s6,-424(s0)
    7490:	000016b7          	lui	a3,0x1
    7494:	40d406b3          	sub	a3,s0,a3
    7498:	0c06bd03          	ld	s10,192(a3) # 10c0 <.LBB87_4+0x1fc>
    749c:	016d0b33          	add	s6,s10,s6
    74a0:	016a0a33          	add	s4,s4,s6
    74a4:	428a5a13          	srai	s4,s4,0x28
    74a8:	f3443823          	sd	s4,-208(s0)
    74ac:	01434663          	blt	t1,s4,74b8 <.LBB87_542>
    74b0:	f7c00a13          	li	s4,-132
    74b4:	f3443823          	sd	s4,-208(s0)

00000000000074b8 <.LBB87_542>:
    74b8:	000016b7          	lui	a3,0x1
    74bc:	40d406b3          	sub	a3,s0,a3
    74c0:	6586ba03          	ld	s4,1624(a3) # 1658 <.LBB87_5+0x1d8>
    74c4:	000016b7          	lui	a3,0x1
    74c8:	40d406b3          	sub	a3,s0,a3
    74cc:	1486bb03          	ld	s6,328(a3) # 1148 <.LBB87_4+0x284>
    74d0:	034b0a33          	mul	s4,s6,s4
    74d4:	e5843b03          	ld	s6,-424(s0)
    74d8:	000016b7          	lui	a3,0x1
    74dc:	40d406b3          	sub	a3,s0,a3
    74e0:	1386bd03          	ld	s10,312(a3) # 1138 <.LBB87_4+0x274>
    74e4:	016d0b33          	add	s6,s10,s6
    74e8:	016a0a33          	add	s4,s4,s6
    74ec:	428a5a13          	srai	s4,s4,0x28
    74f0:	f3443423          	sd	s4,-216(s0)
    74f4:	01434663          	blt	t1,s4,7500 <.LBB87_544>
    74f8:	f7c00a13          	li	s4,-132
    74fc:	f3443423          	sd	s4,-216(s0)

0000000000007500 <.LBB87_544>:
    7500:	000016b7          	lui	a3,0x1
    7504:	40d406b3          	sub	a3,s0,a3
    7508:	6586ba03          	ld	s4,1624(a3) # 1658 <.LBB87_5+0x1d8>
    750c:	000016b7          	lui	a3,0x1
    7510:	40d406b3          	sub	a3,s0,a3
    7514:	1d06bb03          	ld	s6,464(a3) # 11d0 <.LBB87_4+0x30c>
    7518:	034b0a33          	mul	s4,s6,s4
    751c:	e5843b03          	ld	s6,-424(s0)
    7520:	000016b7          	lui	a3,0x1
    7524:	40d406b3          	sub	a3,s0,a3
    7528:	1b86bd03          	ld	s10,440(a3) # 11b8 <.LBB87_4+0x2f4>
    752c:	016d0b33          	add	s6,s10,s6
    7530:	016a0a33          	add	s4,s4,s6
    7534:	428a5a13          	srai	s4,s4,0x28
    7538:	f3443023          	sd	s4,-224(s0)
    753c:	01434663          	blt	t1,s4,7548 <.LBB87_546>
    7540:	f7c00a13          	li	s4,-132
    7544:	f3443023          	sd	s4,-224(s0)

0000000000007548 <.LBB87_546>:
    7548:	000016b7          	lui	a3,0x1
    754c:	40d406b3          	sub	a3,s0,a3
    7550:	6586ba03          	ld	s4,1624(a3) # 1658 <.LBB87_5+0x1d8>
    7554:	000016b7          	lui	a3,0x1
    7558:	40d406b3          	sub	a3,s0,a3
    755c:	2586bb03          	ld	s6,600(a3) # 1258 <.LBB87_4+0x394>
    7560:	034b0a33          	mul	s4,s6,s4
    7564:	e5843b03          	ld	s6,-424(s0)
    7568:	000016b7          	lui	a3,0x1
    756c:	40d406b3          	sub	a3,s0,a3
    7570:	2386bd03          	ld	s10,568(a3) # 1238 <.LBB87_4+0x374>
    7574:	016d0b33          	add	s6,s10,s6
    7578:	016a0a33          	add	s4,s4,s6
    757c:	428a5a13          	srai	s4,s4,0x28
    7580:	f1443c23          	sd	s4,-232(s0)
    7584:	01434663          	blt	t1,s4,7590 <.LBB87_548>
    7588:	f7c00a13          	li	s4,-132
    758c:	f1443c23          	sd	s4,-232(s0)

0000000000007590 <.LBB87_548>:
    7590:	000016b7          	lui	a3,0x1
    7594:	40d406b3          	sub	a3,s0,a3
    7598:	6586ba03          	ld	s4,1624(a3) # 1658 <.LBB87_5+0x1d8>
    759c:	000016b7          	lui	a3,0x1
    75a0:	40d406b3          	sub	a3,s0,a3
    75a4:	2d86bb03          	ld	s6,728(a3) # 12d8 <.LBB87_4+0x414>
    75a8:	034b0a33          	mul	s4,s6,s4
    75ac:	e5843b03          	ld	s6,-424(s0)
    75b0:	000016b7          	lui	a3,0x1
    75b4:	40d406b3          	sub	a3,s0,a3
    75b8:	2c06bd03          	ld	s10,704(a3) # 12c0 <.LBB87_4+0x3fc>
    75bc:	016d0b33          	add	s6,s10,s6
    75c0:	016a0a33          	add	s4,s4,s6
    75c4:	428a5a13          	srai	s4,s4,0x28
    75c8:	f1443823          	sd	s4,-240(s0)
    75cc:	01434663          	blt	t1,s4,75d8 <.LBB87_550>
    75d0:	f7c00a13          	li	s4,-132
    75d4:	f1443823          	sd	s4,-240(s0)

00000000000075d8 <.LBB87_550>:
    75d8:	000016b7          	lui	a3,0x1
    75dc:	40d406b3          	sub	a3,s0,a3
    75e0:	6586ba03          	ld	s4,1624(a3) # 1658 <.LBB87_5+0x1d8>
    75e4:	000016b7          	lui	a3,0x1
    75e8:	40d406b3          	sub	a3,s0,a3
    75ec:	3486bb03          	ld	s6,840(a3) # 1348 <.LBB87_4+0x484>
    75f0:	034b0a33          	mul	s4,s6,s4
    75f4:	e5843b03          	ld	s6,-424(s0)
    75f8:	000016b7          	lui	a3,0x1
    75fc:	40d406b3          	sub	a3,s0,a3
    7600:	3306bd03          	ld	s10,816(a3) # 1330 <.LBB87_4+0x46c>
    7604:	016d0b33          	add	s6,s10,s6
    7608:	016a0a33          	add	s4,s4,s6
    760c:	428a5a13          	srai	s4,s4,0x28
    7610:	f1443423          	sd	s4,-248(s0)
    7614:	01434663          	blt	t1,s4,7620 <.LBB87_552>
    7618:	f7c00a13          	li	s4,-132
    761c:	f1443423          	sd	s4,-248(s0)

0000000000007620 <.LBB87_552>:
    7620:	000016b7          	lui	a3,0x1
    7624:	40d406b3          	sub	a3,s0,a3
    7628:	6586ba03          	ld	s4,1624(a3) # 1658 <.LBB87_5+0x1d8>
    762c:	000016b7          	lui	a3,0x1
    7630:	40d406b3          	sub	a3,s0,a3
    7634:	3b06bb03          	ld	s6,944(a3) # 13b0 <.LBB87_4+0x4ec>
    7638:	034b0a33          	mul	s4,s6,s4
    763c:	e5843b03          	ld	s6,-424(s0)
    7640:	000016b7          	lui	a3,0x1
    7644:	40d406b3          	sub	a3,s0,a3
    7648:	3a06bd03          	ld	s10,928(a3) # 13a0 <.LBB87_4+0x4dc>
    764c:	016d0b33          	add	s6,s10,s6
    7650:	016a0a33          	add	s4,s4,s6
    7654:	428a5a13          	srai	s4,s4,0x28
    7658:	f1443023          	sd	s4,-256(s0)
    765c:	01434663          	blt	t1,s4,7668 <.LBB87_554>
    7660:	f7c00a13          	li	s4,-132
    7664:	f1443023          	sd	s4,-256(s0)

0000000000007668 <.LBB87_554>:
    7668:	000016b7          	lui	a3,0x1
    766c:	40d406b3          	sub	a3,s0,a3
    7670:	6586ba03          	ld	s4,1624(a3) # 1658 <.LBB87_5+0x1d8>
    7674:	000016b7          	lui	a3,0x1
    7678:	40d406b3          	sub	a3,s0,a3
    767c:	4286bb03          	ld	s6,1064(a3) # 1428 <.LBB87_4+0x564>
    7680:	034b0a33          	mul	s4,s6,s4
    7684:	e5843b03          	ld	s6,-424(s0)
    7688:	000016b7          	lui	a3,0x1
    768c:	40d406b3          	sub	a3,s0,a3
    7690:	4106bd03          	ld	s10,1040(a3) # 1410 <.LBB87_4+0x54c>
    7694:	016d0b33          	add	s6,s10,s6
    7698:	016a0a33          	add	s4,s4,s6
    769c:	428a5a13          	srai	s4,s4,0x28
    76a0:	ef443c23          	sd	s4,-264(s0)
    76a4:	01434663          	blt	t1,s4,76b0 <.LBB87_556>
    76a8:	f7c00a13          	li	s4,-132
    76ac:	ef443c23          	sd	s4,-264(s0)

00000000000076b0 <.LBB87_556>:
    76b0:	000016b7          	lui	a3,0x1
    76b4:	40d406b3          	sub	a3,s0,a3
    76b8:	6586ba03          	ld	s4,1624(a3) # 1658 <.LBB87_5+0x1d8>
    76bc:	000016b7          	lui	a3,0x1
    76c0:	40d406b3          	sub	a3,s0,a3
    76c4:	4886bb03          	ld	s6,1160(a3) # 1488 <.LBB87_5+0x8>
    76c8:	034b0a33          	mul	s4,s6,s4
    76cc:	e5843b03          	ld	s6,-424(s0)
    76d0:	000016b7          	lui	a3,0x1
    76d4:	40d406b3          	sub	a3,s0,a3
    76d8:	4706bd03          	ld	s10,1136(a3) # 1470 <.LBB87_4+0x5ac>
    76dc:	016d0b33          	add	s6,s10,s6
    76e0:	016a0a33          	add	s4,s4,s6
    76e4:	428a5a13          	srai	s4,s4,0x28
    76e8:	ef443823          	sd	s4,-272(s0)
    76ec:	01434663          	blt	t1,s4,76f8 <.LBB87_558>
    76f0:	f7c00a13          	li	s4,-132
    76f4:	ef443823          	sd	s4,-272(s0)

00000000000076f8 <.LBB87_558>:
    76f8:	000016b7          	lui	a3,0x1
    76fc:	40d406b3          	sub	a3,s0,a3
    7700:	6586ba03          	ld	s4,1624(a3) # 1658 <.LBB87_5+0x1d8>
    7704:	000016b7          	lui	a3,0x1
    7708:	40d406b3          	sub	a3,s0,a3
    770c:	4e06bb03          	ld	s6,1248(a3) # 14e0 <.LBB87_5+0x60>
    7710:	034b0a33          	mul	s4,s6,s4
    7714:	e5843b03          	ld	s6,-424(s0)
    7718:	000016b7          	lui	a3,0x1
    771c:	40d406b3          	sub	a3,s0,a3
    7720:	4d06bd03          	ld	s10,1232(a3) # 14d0 <.LBB87_5+0x50>
    7724:	016d0b33          	add	s6,s10,s6
    7728:	016a0a33          	add	s4,s4,s6
    772c:	428a5a13          	srai	s4,s4,0x28
    7730:	ef443423          	sd	s4,-280(s0)
    7734:	01434663          	blt	t1,s4,7740 <.LBB87_560>
    7738:	f7c00a13          	li	s4,-132
    773c:	ef443423          	sd	s4,-280(s0)

0000000000007740 <.LBB87_560>:
    7740:	000016b7          	lui	a3,0x1
    7744:	40d406b3          	sub	a3,s0,a3
    7748:	6586ba03          	ld	s4,1624(a3) # 1658 <.LBB87_5+0x1d8>
    774c:	000016b7          	lui	a3,0x1
    7750:	40d406b3          	sub	a3,s0,a3
    7754:	5406bb03          	ld	s6,1344(a3) # 1540 <.LBB87_5+0xc0>
    7758:	034b0a33          	mul	s4,s6,s4
    775c:	e5843b03          	ld	s6,-424(s0)
    7760:	000016b7          	lui	a3,0x1
    7764:	40d406b3          	sub	a3,s0,a3
    7768:	5386bd03          	ld	s10,1336(a3) # 1538 <.LBB87_5+0xb8>
    776c:	016d0b33          	add	s6,s10,s6
    7770:	016a0a33          	add	s4,s4,s6
    7774:	428a5a13          	srai	s4,s4,0x28
    7778:	ef443023          	sd	s4,-288(s0)
    777c:	01434663          	blt	t1,s4,7788 <.LBB87_562>
    7780:	f7c00a13          	li	s4,-132
    7784:	ef443023          	sd	s4,-288(s0)

0000000000007788 <.LBB87_562>:
    7788:	81c43023          	sd	t3,-2048(s0)
    778c:	000016b7          	lui	a3,0x1
    7790:	40d406b3          	sub	a3,s0,a3
    7794:	6586ba03          	ld	s4,1624(a3) # 1658 <.LBB87_5+0x1d8>
    7798:	000016b7          	lui	a3,0x1
    779c:	40d406b3          	sub	a3,s0,a3
    77a0:	5986be03          	ld	t3,1432(a3) # 1598 <.LBB87_5+0x118>
    77a4:	034e0a33          	mul	s4,t3,s4
    77a8:	e5843b03          	ld	s6,-424(s0)
    77ac:	000016b7          	lui	a3,0x1
    77b0:	40d406b3          	sub	a3,s0,a3
    77b4:	5906be03          	ld	t3,1424(a3) # 1590 <.LBB87_5+0x110>
    77b8:	016e0b33          	add	s6,t3,s6
    77bc:	016a0a33          	add	s4,s4,s6
    77c0:	428a5a13          	srai	s4,s4,0x28
    77c4:	ed443823          	sd	s4,-304(s0)
    77c8:	01434663          	blt	t1,s4,77d4 <.LBB87_564>
    77cc:	f7c00a13          	li	s4,-132
    77d0:	ed443823          	sd	s4,-304(s0)

00000000000077d4 <.LBB87_564>:
    77d4:	000016b7          	lui	a3,0x1
    77d8:	40d406b3          	sub	a3,s0,a3
    77dc:	6586ba03          	ld	s4,1624(a3) # 1658 <.LBB87_5+0x1d8>
    77e0:	000016b7          	lui	a3,0x1
    77e4:	40d406b3          	sub	a3,s0,a3
    77e8:	5d86be03          	ld	t3,1496(a3) # 15d8 <.LBB87_5+0x158>
    77ec:	034e0a33          	mul	s4,t3,s4
    77f0:	e5843b03          	ld	s6,-424(s0)
    77f4:	000016b7          	lui	a3,0x1
    77f8:	40d406b3          	sub	a3,s0,a3
    77fc:	5d06be03          	ld	t3,1488(a3) # 15d0 <.LBB87_5+0x150>
    7800:	016e0b33          	add	s6,t3,s6
    7804:	016a0a33          	add	s4,s4,s6
    7808:	428a5a13          	srai	s4,s4,0x28
    780c:	ed443023          	sd	s4,-320(s0)
    7810:	01434663          	blt	t1,s4,781c <.LBB87_566>
    7814:	f7c00a13          	li	s4,-132
    7818:	ed443023          	sd	s4,-320(s0)

000000000000781c <.LBB87_566>:
    781c:	000016b7          	lui	a3,0x1
    7820:	40d406b3          	sub	a3,s0,a3
    7824:	6586ba03          	ld	s4,1624(a3) # 1658 <.LBB87_5+0x1d8>
    7828:	000016b7          	lui	a3,0x1
    782c:	40d406b3          	sub	a3,s0,a3
    7830:	5e86be03          	ld	t3,1512(a3) # 15e8 <.LBB87_5+0x168>
    7834:	034e0a33          	mul	s4,t3,s4
    7838:	e5843b03          	ld	s6,-424(s0)
    783c:	000016b7          	lui	a3,0x1
    7840:	40d406b3          	sub	a3,s0,a3
    7844:	5e06be03          	ld	t3,1504(a3) # 15e0 <.LBB87_5+0x160>
    7848:	016e0b33          	add	s6,t3,s6
    784c:	016a0a33          	add	s4,s4,s6
    7850:	428a5a13          	srai	s4,s4,0x28
    7854:	eb443823          	sd	s4,-336(s0)
    7858:	01434663          	blt	t1,s4,7864 <.LBB87_568>
    785c:	f7c00a13          	li	s4,-132
    7860:	eb443823          	sd	s4,-336(s0)

0000000000007864 <.LBB87_568>:
    7864:	85d43023          	sd	t4,-1984(s0)
    7868:	000016b7          	lui	a3,0x1
    786c:	40d406b3          	sub	a3,s0,a3
    7870:	6586ba03          	ld	s4,1624(a3) # 1658 <.LBB87_5+0x1d8>
    7874:	000016b7          	lui	a3,0x1
    7878:	40d406b3          	sub	a3,s0,a3
    787c:	5f86be83          	ld	t4,1528(a3) # 15f8 <.LBB87_5+0x178>
    7880:	034e8a33          	mul	s4,t4,s4
    7884:	e5843b03          	ld	s6,-424(s0)
    7888:	000016b7          	lui	a3,0x1
    788c:	40d406b3          	sub	a3,s0,a3
    7890:	5f06be83          	ld	t4,1520(a3) # 15f0 <.LBB87_5+0x170>
    7894:	016e8b33          	add	s6,t4,s6
    7898:	016a0a33          	add	s4,s4,s6
    789c:	428a5a13          	srai	s4,s4,0x28
    78a0:	eb443023          	sd	s4,-352(s0)
    78a4:	01434663          	blt	t1,s4,78b0 <.LBB87_570>
    78a8:	f7c00a13          	li	s4,-132
    78ac:	eb443023          	sd	s4,-352(s0)

00000000000078b0 <.LBB87_570>:
    78b0:	000016b7          	lui	a3,0x1
    78b4:	40d406b3          	sub	a3,s0,a3
    78b8:	6586ba03          	ld	s4,1624(a3) # 1658 <.LBB87_5+0x1d8>
    78bc:	000016b7          	lui	a3,0x1
    78c0:	40d406b3          	sub	a3,s0,a3
    78c4:	6086be83          	ld	t4,1544(a3) # 1608 <.LBB87_5+0x188>
    78c8:	034e8a33          	mul	s4,t4,s4
    78cc:	e5843b03          	ld	s6,-424(s0)
    78d0:	000016b7          	lui	a3,0x1
    78d4:	40d406b3          	sub	a3,s0,a3
    78d8:	6006be83          	ld	t4,1536(a3) # 1600 <.LBB87_5+0x180>
    78dc:	016e8b33          	add	s6,t4,s6
    78e0:	016a0a33          	add	s4,s4,s6
    78e4:	428a5a13          	srai	s4,s4,0x28
    78e8:	e9443823          	sd	s4,-368(s0)
    78ec:	01434663          	blt	t1,s4,78f8 <.LBB87_572>
    78f0:	f7c00a13          	li	s4,-132
    78f4:	e9443823          	sd	s4,-368(s0)

00000000000078f8 <.LBB87_572>:
    78f8:	000016b7          	lui	a3,0x1
    78fc:	40d406b3          	sub	a3,s0,a3
    7900:	6586ba03          	ld	s4,1624(a3) # 1658 <.LBB87_5+0x1d8>
    7904:	000016b7          	lui	a3,0x1
    7908:	40d406b3          	sub	a3,s0,a3
    790c:	6186be83          	ld	t4,1560(a3) # 1618 <.LBB87_5+0x198>
    7910:	034e8a33          	mul	s4,t4,s4
    7914:	e5843b03          	ld	s6,-424(s0)
    7918:	000016b7          	lui	a3,0x1
    791c:	40d406b3          	sub	a3,s0,a3
    7920:	6106be83          	ld	t4,1552(a3) # 1610 <.LBB87_5+0x190>
    7924:	016e8b33          	add	s6,t4,s6
    7928:	016a0a33          	add	s4,s4,s6
    792c:	428a5a13          	srai	s4,s4,0x28
    7930:	e9443023          	sd	s4,-384(s0)
    7934:	01434663          	blt	t1,s4,7940 <.LBB87_574>
    7938:	f7c00a13          	li	s4,-132
    793c:	e9443023          	sd	s4,-384(s0)

0000000000007940 <.LBB87_574>:
    7940:	000016b7          	lui	a3,0x1
    7944:	40d406b3          	sub	a3,s0,a3
    7948:	6586ba03          	ld	s4,1624(a3) # 1658 <.LBB87_5+0x1d8>
    794c:	000016b7          	lui	a3,0x1
    7950:	40d406b3          	sub	a3,s0,a3
    7954:	6286be83          	ld	t4,1576(a3) # 1628 <.LBB87_5+0x1a8>
    7958:	034e8a33          	mul	s4,t4,s4
    795c:	e5843b03          	ld	s6,-424(s0)
    7960:	000016b7          	lui	a3,0x1
    7964:	40d406b3          	sub	a3,s0,a3
    7968:	6206be83          	ld	t4,1568(a3) # 1620 <.LBB87_5+0x1a0>
    796c:	016e8b33          	add	s6,t4,s6
    7970:	016a0a33          	add	s4,s4,s6
    7974:	428a5a13          	srai	s4,s4,0x28
    7978:	e7443823          	sd	s4,-400(s0)
    797c:	01434663          	blt	t1,s4,7988 <.LBB87_576>
    7980:	f7c00a13          	li	s4,-132
    7984:	e7443823          	sd	s4,-400(s0)

0000000000007988 <.LBB87_576>:
    7988:	000016b7          	lui	a3,0x1
    798c:	40d406b3          	sub	a3,s0,a3
    7990:	6586ba03          	ld	s4,1624(a3) # 1658 <.LBB87_5+0x1d8>
    7994:	000016b7          	lui	a3,0x1
    7998:	40d406b3          	sub	a3,s0,a3
    799c:	6386be83          	ld	t4,1592(a3) # 1638 <.LBB87_5+0x1b8>
    79a0:	034e8a33          	mul	s4,t4,s4
    79a4:	e5843b03          	ld	s6,-424(s0)
    79a8:	000016b7          	lui	a3,0x1
    79ac:	40d406b3          	sub	a3,s0,a3
    79b0:	6306be83          	ld	t4,1584(a3) # 1630 <.LBB87_5+0x1b0>
    79b4:	016e8b33          	add	s6,t4,s6
    79b8:	016a0a33          	add	s4,s4,s6
    79bc:	428a5a13          	srai	s4,s4,0x28
    79c0:	e7443023          	sd	s4,-416(s0)
    79c4:	01434663          	blt	t1,s4,79d0 <.LBB87_578>
    79c8:	f7c00a13          	li	s4,-132
    79cc:	e7443023          	sd	s4,-416(s0)

00000000000079d0 <.LBB87_578>:
    79d0:	000016b7          	lui	a3,0x1
    79d4:	40d406b3          	sub	a3,s0,a3
    79d8:	6586ba03          	ld	s4,1624(a3) # 1658 <.LBB87_5+0x1d8>
    79dc:	000016b7          	lui	a3,0x1
    79e0:	40d406b3          	sub	a3,s0,a3
    79e4:	6686be83          	ld	t4,1640(a3) # 1668 <.LBB87_5+0x1e8>
    79e8:	034e8a33          	mul	s4,t4,s4
    79ec:	e5843b03          	ld	s6,-424(s0)
    79f0:	000016b7          	lui	a3,0x1
    79f4:	40d406b3          	sub	a3,s0,a3
    79f8:	6606be83          	ld	t4,1632(a3) # 1660 <.LBB87_5+0x1e0>
    79fc:	016e8b33          	add	s6,t4,s6
    7a00:	016a0a33          	add	s4,s4,s6
    7a04:	428a5a13          	srai	s4,s4,0x28
    7a08:	e5443423          	sd	s4,-440(s0)
    7a0c:	01434663          	blt	t1,s4,7a18 <.LBB87_580>
    7a10:	f7c00a13          	li	s4,-132
    7a14:	e5443423          	sd	s4,-440(s0)

0000000000007a18 <.LBB87_580>:
    7a18:	000016b7          	lui	a3,0x1
    7a1c:	40d406b3          	sub	a3,s0,a3
    7a20:	6586ba03          	ld	s4,1624(a3) # 1658 <.LBB87_5+0x1d8>
    7a24:	000016b7          	lui	a3,0x1
    7a28:	40d406b3          	sub	a3,s0,a3
    7a2c:	6786bb03          	ld	s6,1656(a3) # 1678 <.LBB87_5+0x1f8>
    7a30:	034b0a33          	mul	s4,s6,s4
    7a34:	e5843b03          	ld	s6,-424(s0)
    7a38:	000016b7          	lui	a3,0x1
    7a3c:	40d406b3          	sub	a3,s0,a3
    7a40:	6706be83          	ld	t4,1648(a3) # 1670 <.LBB87_5+0x1f0>
    7a44:	016e8b33          	add	s6,t4,s6
    7a48:	016a0a33          	add	s4,s4,s6
    7a4c:	428a5a13          	srai	s4,s4,0x28
    7a50:	d7443023          	sd	s4,-672(s0)
    7a54:	01434663          	blt	t1,s4,7a60 <.LBB87_582>
    7a58:	f7c00a13          	li	s4,-132
    7a5c:	d7443023          	sd	s4,-672(s0)

0000000000007a60 <.LBB87_582>:
    7a60:	000016b7          	lui	a3,0x1
    7a64:	40d406b3          	sub	a3,s0,a3
    7a68:	6586bb03          	ld	s6,1624(a3) # 1658 <.LBB87_5+0x1d8>
    7a6c:	03670733          	mul	a4,a4,s6
    7a70:	e5843a03          	ld	s4,-424(s0)
    7a74:	000016b7          	lui	a3,0x1
    7a78:	40d406b3          	sub	a3,s0,a3
    7a7c:	bb06be03          	ld	t3,-1104(a3) # bb0 <.LBB87_3+0x944>
    7a80:	014e0a33          	add	s4,t3,s4
    7a84:	01470733          	add	a4,a4,s4
    7a88:	42875713          	srai	a4,a4,0x28
    7a8c:	ece43c23          	sd	a4,-296(s0)
    7a90:	00e34663          	blt	t1,a4,7a9c <.LBB87_584>
    7a94:	f7c00713          	li	a4,-132
    7a98:	ece43c23          	sd	a4,-296(s0)

0000000000007a9c <.LBB87_584>:
    7a9c:	000016b7          	lui	a3,0x1
    7aa0:	40d406b3          	sub	a3,s0,a3
    7aa4:	c506b703          	ld	a4,-944(a3) # c50 <.LBB87_3+0x9e4>
    7aa8:	03670733          	mul	a4,a4,s6
    7aac:	e5843a03          	ld	s4,-424(s0)
    7ab0:	000016b7          	lui	a3,0x1
    7ab4:	40d406b3          	sub	a3,s0,a3
    7ab8:	c486be03          	ld	t3,-952(a3) # c48 <.LBB87_3+0x9dc>
    7abc:	014e0a33          	add	s4,t3,s4
    7ac0:	01470733          	add	a4,a4,s4
    7ac4:	42875713          	srai	a4,a4,0x28
    7ac8:	ece43423          	sd	a4,-312(s0)
    7acc:	00e34663          	blt	t1,a4,7ad8 <.LBB87_586>
    7ad0:	f7c00713          	li	a4,-132
    7ad4:	ece43423          	sd	a4,-312(s0)

0000000000007ad8 <.LBB87_586>:
    7ad8:	000016b7          	lui	a3,0x1
    7adc:	40d406b3          	sub	a3,s0,a3
    7ae0:	c986b703          	ld	a4,-872(a3) # c98 <.LBB87_3+0xa2c>
    7ae4:	03670733          	mul	a4,a4,s6
    7ae8:	e5843a03          	ld	s4,-424(s0)
    7aec:	000016b7          	lui	a3,0x1
    7af0:	40d406b3          	sub	a3,s0,a3
    7af4:	c906be03          	ld	t3,-880(a3) # c90 <.LBB87_3+0xa24>
    7af8:	014e0a33          	add	s4,t3,s4
    7afc:	01470733          	add	a4,a4,s4
    7b00:	42875713          	srai	a4,a4,0x28
    7b04:	eae43c23          	sd	a4,-328(s0)
    7b08:	00e34663          	blt	t1,a4,7b14 <.LBB87_588>
    7b0c:	f7c00713          	li	a4,-132
    7b10:	eae43c23          	sd	a4,-328(s0)

0000000000007b14 <.LBB87_588>:
    7b14:	000016b7          	lui	a3,0x1
    7b18:	40d406b3          	sub	a3,s0,a3
    7b1c:	d086b703          	ld	a4,-760(a3) # d08 <.LBB87_3+0xa9c>
    7b20:	03670733          	mul	a4,a4,s6
    7b24:	e5843a03          	ld	s4,-424(s0)
    7b28:	000016b7          	lui	a3,0x1
    7b2c:	40d406b3          	sub	a3,s0,a3
    7b30:	cf86be03          	ld	t3,-776(a3) # cf8 <.LBB87_3+0xa8c>
    7b34:	014e0a33          	add	s4,t3,s4
    7b38:	01470733          	add	a4,a4,s4
    7b3c:	42875713          	srai	a4,a4,0x28
    7b40:	eae43423          	sd	a4,-344(s0)
    7b44:	00e34663          	blt	t1,a4,7b50 <.LBB87_590>
    7b48:	f7c00713          	li	a4,-132
    7b4c:	eae43423          	sd	a4,-344(s0)

0000000000007b50 <.LBB87_590>:
    7b50:	000016b7          	lui	a3,0x1
    7b54:	40d406b3          	sub	a3,s0,a3
    7b58:	d806b703          	ld	a4,-640(a3) # d80 <.LBB87_3+0xb14>
    7b5c:	03670733          	mul	a4,a4,s6
    7b60:	e5843a03          	ld	s4,-424(s0)
    7b64:	000016b7          	lui	a3,0x1
    7b68:	40d406b3          	sub	a3,s0,a3
    7b6c:	d706be03          	ld	t3,-656(a3) # d70 <.LBB87_3+0xb04>
    7b70:	014e0a33          	add	s4,t3,s4
    7b74:	01470733          	add	a4,a4,s4
    7b78:	42875713          	srai	a4,a4,0x28
    7b7c:	e8e43c23          	sd	a4,-360(s0)
    7b80:	00e34663          	blt	t1,a4,7b8c <.LBB87_592>
    7b84:	f7c00713          	li	a4,-132
    7b88:	e8e43c23          	sd	a4,-360(s0)

0000000000007b8c <.LBB87_592>:
    7b8c:	000016b7          	lui	a3,0x1
    7b90:	40d406b3          	sub	a3,s0,a3
    7b94:	df86b703          	ld	a4,-520(a3) # df8 <.LBB87_3+0xb8c>
    7b98:	03670733          	mul	a4,a4,s6
    7b9c:	e5843a03          	ld	s4,-424(s0)
    7ba0:	000016b7          	lui	a3,0x1
    7ba4:	40d406b3          	sub	a3,s0,a3
    7ba8:	de86be03          	ld	t3,-536(a3) # de8 <.LBB87_3+0xb7c>
    7bac:	014e0a33          	add	s4,t3,s4
    7bb0:	01470733          	add	a4,a4,s4
    7bb4:	42875713          	srai	a4,a4,0x28
    7bb8:	e8e43423          	sd	a4,-376(s0)
    7bbc:	00e34663          	blt	t1,a4,7bc8 <.LBB87_594>
    7bc0:	f7c00713          	li	a4,-132
    7bc4:	e8e43423          	sd	a4,-376(s0)

0000000000007bc8 <.LBB87_594>:
    7bc8:	000016b7          	lui	a3,0x1
    7bcc:	40d406b3          	sub	a3,s0,a3
    7bd0:	e686b703          	ld	a4,-408(a3) # e68 <.LBB87_3+0xbfc>
    7bd4:	03670733          	mul	a4,a4,s6
    7bd8:	e5843a03          	ld	s4,-424(s0)
    7bdc:	000016b7          	lui	a3,0x1
    7be0:	40d406b3          	sub	a3,s0,a3
    7be4:	e586be03          	ld	t3,-424(a3) # e58 <.LBB87_3+0xbec>
    7be8:	014e0a33          	add	s4,t3,s4
    7bec:	01470733          	add	a4,a4,s4
    7bf0:	42875713          	srai	a4,a4,0x28
    7bf4:	e6e43c23          	sd	a4,-392(s0)
    7bf8:	00e34663          	blt	t1,a4,7c04 <.LBB87_596>
    7bfc:	f7c00713          	li	a4,-132
    7c00:	e6e43c23          	sd	a4,-392(s0)

0000000000007c04 <.LBB87_596>:
    7c04:	000016b7          	lui	a3,0x1
    7c08:	40d406b3          	sub	a3,s0,a3
    7c0c:	ee06b703          	ld	a4,-288(a3) # ee0 <.LBB87_4+0x1c>
    7c10:	03670733          	mul	a4,a4,s6
    7c14:	e5843a03          	ld	s4,-424(s0)
    7c18:	000016b7          	lui	a3,0x1
    7c1c:	40d406b3          	sub	a3,s0,a3
    7c20:	ed06be03          	ld	t3,-304(a3) # ed0 <.LBB87_4+0xc>
    7c24:	014e0a33          	add	s4,t3,s4
    7c28:	01470733          	add	a4,a4,s4
    7c2c:	42875713          	srai	a4,a4,0x28
    7c30:	e6e43423          	sd	a4,-408(s0)
    7c34:	00e34663          	blt	t1,a4,7c40 <.LBB87_598>
    7c38:	f7c00713          	li	a4,-132
    7c3c:	e6e43423          	sd	a4,-408(s0)

0000000000007c40 <.LBB87_598>:
    7c40:	000016b7          	lui	a3,0x1
    7c44:	40d406b3          	sub	a3,s0,a3
    7c48:	f506b703          	ld	a4,-176(a3) # f50 <.LBB87_4+0x8c>
    7c4c:	03670733          	mul	a4,a4,s6
    7c50:	e5843a03          	ld	s4,-424(s0)
    7c54:	000016b7          	lui	a3,0x1
    7c58:	40d406b3          	sub	a3,s0,a3
    7c5c:	f406be03          	ld	t3,-192(a3) # f40 <.LBB87_4+0x7c>
    7c60:	014e0a33          	add	s4,t3,s4
    7c64:	01470733          	add	a4,a4,s4
    7c68:	42875713          	srai	a4,a4,0x28
    7c6c:	e4e43823          	sd	a4,-432(s0)
    7c70:	00e34663          	blt	t1,a4,7c7c <.LBB87_600>
    7c74:	f7c00713          	li	a4,-132
    7c78:	e4e43823          	sd	a4,-432(s0)

0000000000007c7c <.LBB87_600>:
    7c7c:	000016b7          	lui	a3,0x1
    7c80:	40d406b3          	sub	a3,s0,a3
    7c84:	fc86b703          	ld	a4,-56(a3) # fc8 <.LBB87_4+0x104>
    7c88:	03670733          	mul	a4,a4,s6
    7c8c:	e5843a03          	ld	s4,-424(s0)
    7c90:	000016b7          	lui	a3,0x1
    7c94:	40d406b3          	sub	a3,s0,a3
    7c98:	fb86be03          	ld	t3,-72(a3) # fb8 <.LBB87_4+0xf4>
    7c9c:	014e0a33          	add	s4,t3,s4
    7ca0:	01470733          	add	a4,a4,s4
    7ca4:	42875713          	srai	a4,a4,0x28
    7ca8:	e4e43023          	sd	a4,-448(s0)
    7cac:	00e34663          	blt	t1,a4,7cb8 <.LBB87_602>
    7cb0:	f7c00713          	li	a4,-132
    7cb4:	e4e43023          	sd	a4,-448(s0)

0000000000007cb8 <.LBB87_602>:
    7cb8:	000016b7          	lui	a3,0x1
    7cbc:	40d406b3          	sub	a3,s0,a3
    7cc0:	0406b703          	ld	a4,64(a3) # 1040 <.LBB87_4+0x17c>
    7cc4:	03670733          	mul	a4,a4,s6
    7cc8:	e5843a03          	ld	s4,-424(s0)
    7ccc:	000016b7          	lui	a3,0x1
    7cd0:	40d406b3          	sub	a3,s0,a3
    7cd4:	0306be03          	ld	t3,48(a3) # 1030 <.LBB87_4+0x16c>
    7cd8:	014e0a33          	add	s4,t3,s4
    7cdc:	01470733          	add	a4,a4,s4
    7ce0:	42875713          	srai	a4,a4,0x28
    7ce4:	e2e43c23          	sd	a4,-456(s0)
    7ce8:	00e34663          	blt	t1,a4,7cf4 <.LBB87_604>
    7cec:	f7c00713          	li	a4,-132
    7cf0:	e2e43c23          	sd	a4,-456(s0)

0000000000007cf4 <.LBB87_604>:
    7cf4:	000016b7          	lui	a3,0x1
    7cf8:	40d406b3          	sub	a3,s0,a3
    7cfc:	0b86b703          	ld	a4,184(a3) # 10b8 <.LBB87_4+0x1f4>
    7d00:	03670733          	mul	a4,a4,s6
    7d04:	e5843a03          	ld	s4,-424(s0)
    7d08:	000016b7          	lui	a3,0x1
    7d0c:	40d406b3          	sub	a3,s0,a3
    7d10:	0a86be03          	ld	t3,168(a3) # 10a8 <.LBB87_4+0x1e4>
    7d14:	014e0a33          	add	s4,t3,s4
    7d18:	01470733          	add	a4,a4,s4
    7d1c:	42875713          	srai	a4,a4,0x28
    7d20:	e2e43823          	sd	a4,-464(s0)
    7d24:	00e34663          	blt	t1,a4,7d30 <.LBB87_606>
    7d28:	f7c00713          	li	a4,-132
    7d2c:	e2e43823          	sd	a4,-464(s0)

0000000000007d30 <.LBB87_606>:
    7d30:	000016b7          	lui	a3,0x1
    7d34:	40d406b3          	sub	a3,s0,a3
    7d38:	1306b703          	ld	a4,304(a3) # 1130 <.LBB87_4+0x26c>
    7d3c:	03670733          	mul	a4,a4,s6
    7d40:	e5843a03          	ld	s4,-424(s0)
    7d44:	000016b7          	lui	a3,0x1
    7d48:	40d406b3          	sub	a3,s0,a3
    7d4c:	1206be03          	ld	t3,288(a3) # 1120 <.LBB87_4+0x25c>
    7d50:	014e0a33          	add	s4,t3,s4
    7d54:	01470733          	add	a4,a4,s4
    7d58:	42875713          	srai	a4,a4,0x28
    7d5c:	e2e43423          	sd	a4,-472(s0)
    7d60:	00e34663          	blt	t1,a4,7d6c <.LBB87_608>
    7d64:	f7c00713          	li	a4,-132
    7d68:	e2e43423          	sd	a4,-472(s0)

0000000000007d6c <.LBB87_608>:
    7d6c:	000016b7          	lui	a3,0x1
    7d70:	40d406b3          	sub	a3,s0,a3
    7d74:	1a86b703          	ld	a4,424(a3) # 11a8 <.LBB87_4+0x2e4>
    7d78:	03670733          	mul	a4,a4,s6
    7d7c:	e5843a03          	ld	s4,-424(s0)
    7d80:	000016b7          	lui	a3,0x1
    7d84:	40d406b3          	sub	a3,s0,a3
    7d88:	1986be03          	ld	t3,408(a3) # 1198 <.LBB87_4+0x2d4>
    7d8c:	014e0a33          	add	s4,t3,s4
    7d90:	01470733          	add	a4,a4,s4
    7d94:	42875713          	srai	a4,a4,0x28
    7d98:	e2e43023          	sd	a4,-480(s0)
    7d9c:	00e34663          	blt	t1,a4,7da8 <.LBB87_610>
    7da0:	f7c00713          	li	a4,-132
    7da4:	e2e43023          	sd	a4,-480(s0)

0000000000007da8 <.LBB87_610>:
    7da8:	000016b7          	lui	a3,0x1
    7dac:	40d406b3          	sub	a3,s0,a3
    7db0:	2206b703          	ld	a4,544(a3) # 1220 <.LBB87_4+0x35c>
    7db4:	03670733          	mul	a4,a4,s6
    7db8:	e5843a03          	ld	s4,-424(s0)
    7dbc:	000016b7          	lui	a3,0x1
    7dc0:	40d406b3          	sub	a3,s0,a3
    7dc4:	2106be03          	ld	t3,528(a3) # 1210 <.LBB87_4+0x34c>
    7dc8:	014e0a33          	add	s4,t3,s4
    7dcc:	01470733          	add	a4,a4,s4
    7dd0:	42875713          	srai	a4,a4,0x28
    7dd4:	e0e43c23          	sd	a4,-488(s0)
    7dd8:	00e34663          	blt	t1,a4,7de4 <.LBB87_612>
    7ddc:	f7c00713          	li	a4,-132
    7de0:	e0e43c23          	sd	a4,-488(s0)

0000000000007de4 <.LBB87_612>:
    7de4:	000016b7          	lui	a3,0x1
    7de8:	40d406b3          	sub	a3,s0,a3
    7dec:	2986b703          	ld	a4,664(a3) # 1298 <.LBB87_4+0x3d4>
    7df0:	03670733          	mul	a4,a4,s6
    7df4:	e5843a03          	ld	s4,-424(s0)
    7df8:	000016b7          	lui	a3,0x1
    7dfc:	40d406b3          	sub	a3,s0,a3
    7e00:	2886be03          	ld	t3,648(a3) # 1288 <.LBB87_4+0x3c4>
    7e04:	014e0a33          	add	s4,t3,s4
    7e08:	01470733          	add	a4,a4,s4
    7e0c:	42875713          	srai	a4,a4,0x28
    7e10:	e0e43823          	sd	a4,-496(s0)
    7e14:	00e34663          	blt	t1,a4,7e20 <.LBB87_614>
    7e18:	f7c00713          	li	a4,-132
    7e1c:	e0e43823          	sd	a4,-496(s0)

0000000000007e20 <.LBB87_614>:
    7e20:	000016b7          	lui	a3,0x1
    7e24:	40d406b3          	sub	a3,s0,a3
    7e28:	3006b703          	ld	a4,768(a3) # 1300 <.LBB87_4+0x43c>
    7e2c:	03670733          	mul	a4,a4,s6
    7e30:	e5843a03          	ld	s4,-424(s0)
    7e34:	000016b7          	lui	a3,0x1
    7e38:	40d406b3          	sub	a3,s0,a3
    7e3c:	2f06be03          	ld	t3,752(a3) # 12f0 <.LBB87_4+0x42c>
    7e40:	014e0a33          	add	s4,t3,s4
    7e44:	01470733          	add	a4,a4,s4
    7e48:	42875713          	srai	a4,a4,0x28
    7e4c:	e0e43423          	sd	a4,-504(s0)
    7e50:	00e34663          	blt	t1,a4,7e5c <.LBB87_616>
    7e54:	f7c00713          	li	a4,-132
    7e58:	e0e43423          	sd	a4,-504(s0)

0000000000007e5c <.LBB87_616>:
    7e5c:	000016b7          	lui	a3,0x1
    7e60:	40d406b3          	sub	a3,s0,a3
    7e64:	3686b703          	ld	a4,872(a3) # 1368 <.LBB87_4+0x4a4>
    7e68:	03670733          	mul	a4,a4,s6
    7e6c:	e5843a03          	ld	s4,-424(s0)
    7e70:	000016b7          	lui	a3,0x1
    7e74:	40d406b3          	sub	a3,s0,a3
    7e78:	3586be03          	ld	t3,856(a3) # 1358 <.LBB87_4+0x494>
    7e7c:	014e0a33          	add	s4,t3,s4
    7e80:	01470733          	add	a4,a4,s4
    7e84:	42875713          	srai	a4,a4,0x28
    7e88:	e0e43023          	sd	a4,-512(s0)
    7e8c:	00e34663          	blt	t1,a4,7e98 <.LBB87_618>
    7e90:	f7c00713          	li	a4,-132
    7e94:	e0e43023          	sd	a4,-512(s0)

0000000000007e98 <.LBB87_618>:
    7e98:	000016b7          	lui	a3,0x1
    7e9c:	40d406b3          	sub	a3,s0,a3
    7ea0:	3c86b703          	ld	a4,968(a3) # 13c8 <.LBB87_4+0x504>
    7ea4:	03670733          	mul	a4,a4,s6
    7ea8:	e5843a03          	ld	s4,-424(s0)
    7eac:	000016b7          	lui	a3,0x1
    7eb0:	40d406b3          	sub	a3,s0,a3
    7eb4:	3b86be03          	ld	t3,952(a3) # 13b8 <.LBB87_4+0x4f4>
    7eb8:	014e0a33          	add	s4,t3,s4
    7ebc:	01470733          	add	a4,a4,s4
    7ec0:	42875713          	srai	a4,a4,0x28
    7ec4:	dee43c23          	sd	a4,-520(s0)
    7ec8:	00e34663          	blt	t1,a4,7ed4 <.LBB87_620>
    7ecc:	f7c00713          	li	a4,-132
    7ed0:	dee43c23          	sd	a4,-520(s0)

0000000000007ed4 <.LBB87_620>:
    7ed4:	000016b7          	lui	a3,0x1
    7ed8:	40d406b3          	sub	a3,s0,a3
    7edc:	4306b703          	ld	a4,1072(a3) # 1430 <.LBB87_4+0x56c>
    7ee0:	03670733          	mul	a4,a4,s6
    7ee4:	e5843a03          	ld	s4,-424(s0)
    7ee8:	000016b7          	lui	a3,0x1
    7eec:	40d406b3          	sub	a3,s0,a3
    7ef0:	4186be03          	ld	t3,1048(a3) # 1418 <.LBB87_4+0x554>
    7ef4:	014e0a33          	add	s4,t3,s4
    7ef8:	01470733          	add	a4,a4,s4
    7efc:	42875713          	srai	a4,a4,0x28
    7f00:	dee43823          	sd	a4,-528(s0)
    7f04:	00e34663          	blt	t1,a4,7f10 <.LBB87_622>
    7f08:	f7c00713          	li	a4,-132
    7f0c:	dee43823          	sd	a4,-528(s0)

0000000000007f10 <.LBB87_622>:
    7f10:	000016b7          	lui	a3,0x1
    7f14:	40d406b3          	sub	a3,s0,a3
    7f18:	4806b703          	ld	a4,1152(a3) # 1480 <.LBB87_5>
    7f1c:	03670733          	mul	a4,a4,s6
    7f20:	e5843a03          	ld	s4,-424(s0)
    7f24:	000016b7          	lui	a3,0x1
    7f28:	40d406b3          	sub	a3,s0,a3
    7f2c:	4686be03          	ld	t3,1128(a3) # 1468 <.LBB87_4+0x5a4>
    7f30:	014e0a33          	add	s4,t3,s4
    7f34:	01470733          	add	a4,a4,s4
    7f38:	42875713          	srai	a4,a4,0x28
    7f3c:	dee43423          	sd	a4,-536(s0)
    7f40:	00e34663          	blt	t1,a4,7f4c <.LBB87_624>
    7f44:	f7c00713          	li	a4,-132
    7f48:	dee43423          	sd	a4,-536(s0)

0000000000007f4c <.LBB87_624>:
    7f4c:	000016b7          	lui	a3,0x1
    7f50:	40d406b3          	sub	a3,s0,a3
    7f54:	4d86b703          	ld	a4,1240(a3) # 14d8 <.LBB87_5+0x58>
    7f58:	03670733          	mul	a4,a4,s6
    7f5c:	e5843a03          	ld	s4,-424(s0)
    7f60:	000016b7          	lui	a3,0x1
    7f64:	40d406b3          	sub	a3,s0,a3
    7f68:	4c06be03          	ld	t3,1216(a3) # 14c0 <.LBB87_5+0x40>
    7f6c:	014e0a33          	add	s4,t3,s4
    7f70:	01470733          	add	a4,a4,s4
    7f74:	42875713          	srai	a4,a4,0x28
    7f78:	dee43023          	sd	a4,-544(s0)
    7f7c:	00e34663          	blt	t1,a4,7f88 <.LBB87_626>
    7f80:	f7c00713          	li	a4,-132
    7f84:	dee43023          	sd	a4,-544(s0)

0000000000007f88 <.LBB87_626>:
    7f88:	000016b7          	lui	a3,0x1
    7f8c:	40d406b3          	sub	a3,s0,a3
    7f90:	5306b703          	ld	a4,1328(a3) # 1530 <.LBB87_5+0xb0>
    7f94:	03670733          	mul	a4,a4,s6
    7f98:	e5843a03          	ld	s4,-424(s0)
    7f9c:	000016b7          	lui	a3,0x1
    7fa0:	40d406b3          	sub	a3,s0,a3
    7fa4:	5206be03          	ld	t3,1312(a3) # 1520 <.LBB87_5+0xa0>
    7fa8:	014e0a33          	add	s4,t3,s4
    7fac:	01470733          	add	a4,a4,s4
    7fb0:	42875713          	srai	a4,a4,0x28
    7fb4:	dce43823          	sd	a4,-560(s0)
    7fb8:	00e34663          	blt	t1,a4,7fc4 <.LBB87_628>
    7fbc:	f7c00713          	li	a4,-132
    7fc0:	dce43823          	sd	a4,-560(s0)

0000000000007fc4 <.LBB87_628>:
    7fc4:	000016b7          	lui	a3,0x1
    7fc8:	40d406b3          	sub	a3,s0,a3
    7fcc:	5886b703          	ld	a4,1416(a3) # 1588 <.LBB87_5+0x108>
    7fd0:	03670733          	mul	a4,a4,s6
    7fd4:	e5843a03          	ld	s4,-424(s0)
    7fd8:	000016b7          	lui	a3,0x1
    7fdc:	40d406b3          	sub	a3,s0,a3
    7fe0:	5786be03          	ld	t3,1400(a3) # 1578 <.LBB87_5+0xf8>
    7fe4:	014e0a33          	add	s4,t3,s4
    7fe8:	01470733          	add	a4,a4,s4
    7fec:	42875713          	srai	a4,a4,0x28
    7ff0:	dce43023          	sd	a4,-576(s0)
    7ff4:	00e34663          	blt	t1,a4,8000 <.LBB87_630>
    7ff8:	f7c00713          	li	a4,-132
    7ffc:	dce43023          	sd	a4,-576(s0)

0000000000008000 <.LBB87_630>:
    8000:	000016b7          	lui	a3,0x1
    8004:	40d406b3          	sub	a3,s0,a3
    8008:	6f86b703          	ld	a4,1784(a3) # 16f8 <.LBB87_5+0x278>
    800c:	03670733          	mul	a4,a4,s6
    8010:	e5843a03          	ld	s4,-424(s0)
    8014:	000016b7          	lui	a3,0x1
    8018:	40d406b3          	sub	a3,s0,a3
    801c:	6e06be03          	ld	t3,1760(a3) # 16e0 <.LBB87_5+0x260>
    8020:	014e0a33          	add	s4,t3,s4
    8024:	01470733          	add	a4,a4,s4
    8028:	42875713          	srai	a4,a4,0x28
    802c:	dae43823          	sd	a4,-592(s0)
    8030:	00e34663          	blt	t1,a4,803c <.LBB87_632>
    8034:	f7c00713          	li	a4,-132
    8038:	dae43823          	sd	a4,-592(s0)

000000000000803c <.LBB87_632>:
    803c:	000016b7          	lui	a3,0x1
    8040:	40d406b3          	sub	a3,s0,a3
    8044:	7b86b703          	ld	a4,1976(a3) # 17b8 <.LBB87_5+0x338>
    8048:	03670733          	mul	a4,a4,s6
    804c:	e5843a03          	ld	s4,-424(s0)
    8050:	000016b7          	lui	a3,0x1
    8054:	40d406b3          	sub	a3,s0,a3
    8058:	7206be03          	ld	t3,1824(a3) # 1720 <.LBB87_5+0x2a0>
    805c:	014e0a33          	add	s4,t3,s4
    8060:	01470733          	add	a4,a4,s4
    8064:	42875713          	srai	a4,a4,0x28
    8068:	dae43023          	sd	a4,-608(s0)
    806c:	00e34663          	blt	t1,a4,8078 <.LBB87_634>
    8070:	f7c00713          	li	a4,-132
    8074:	dae43023          	sd	a4,-608(s0)

0000000000008078 <.LBB87_634>:
    8078:	000016b7          	lui	a3,0x1
    807c:	40d406b3          	sub	a3,s0,a3
    8080:	7b06b703          	ld	a4,1968(a3) # 17b0 <.LBB87_5+0x330>
    8084:	03670733          	mul	a4,a4,s6
    8088:	e5843a03          	ld	s4,-424(s0)
    808c:	000016b7          	lui	a3,0x1
    8090:	40d406b3          	sub	a3,s0,a3
    8094:	7286be03          	ld	t3,1832(a3) # 1728 <.LBB87_5+0x2a8>
    8098:	014e0a33          	add	s4,t3,s4
    809c:	01470733          	add	a4,a4,s4
    80a0:	42875713          	srai	a4,a4,0x28
    80a4:	d8e43823          	sd	a4,-624(s0)
    80a8:	00e34663          	blt	t1,a4,80b4 <.LBB87_636>
    80ac:	f7c00713          	li	a4,-132
    80b0:	d8e43823          	sd	a4,-624(s0)

00000000000080b4 <.LBB87_636>:
    80b4:	000016b7          	lui	a3,0x1
    80b8:	40d406b3          	sub	a3,s0,a3
    80bc:	7a86b703          	ld	a4,1960(a3) # 17a8 <.LBB87_5+0x328>
    80c0:	03670733          	mul	a4,a4,s6
    80c4:	e5843a03          	ld	s4,-424(s0)
    80c8:	000016b7          	lui	a3,0x1
    80cc:	40d406b3          	sub	a3,s0,a3
    80d0:	7306be03          	ld	t3,1840(a3) # 1730 <.LBB87_5+0x2b0>
    80d4:	014e0a33          	add	s4,t3,s4
    80d8:	01470733          	add	a4,a4,s4
    80dc:	42875713          	srai	a4,a4,0x28
    80e0:	d8e43023          	sd	a4,-640(s0)
    80e4:	00e34663          	blt	t1,a4,80f0 <.LBB87_638>
    80e8:	f7c00713          	li	a4,-132
    80ec:	d8e43023          	sd	a4,-640(s0)

00000000000080f0 <.LBB87_638>:
    80f0:	000016b7          	lui	a3,0x1
    80f4:	40d406b3          	sub	a3,s0,a3
    80f8:	7a06b703          	ld	a4,1952(a3) # 17a0 <.LBB87_5+0x320>
    80fc:	03670733          	mul	a4,a4,s6
    8100:	e5843a03          	ld	s4,-424(s0)
    8104:	000016b7          	lui	a3,0x1
    8108:	40d406b3          	sub	a3,s0,a3
    810c:	7606be03          	ld	t3,1888(a3) # 1760 <.LBB87_5+0x2e0>
    8110:	014e0a33          	add	s4,t3,s4
    8114:	01470733          	add	a4,a4,s4
    8118:	42875713          	srai	a4,a4,0x28
    811c:	d6e43823          	sd	a4,-656(s0)
    8120:	00e34663          	blt	t1,a4,812c <.LBB87_640>
    8124:	f7c00713          	li	a4,-132
    8128:	d6e43823          	sd	a4,-656(s0)

000000000000812c <.LBB87_640>:
    812c:	000016b7          	lui	a3,0x1
    8130:	40d406b3          	sub	a3,s0,a3
    8134:	7986b703          	ld	a4,1944(a3) # 1798 <.LBB87_5+0x318>
    8138:	03670733          	mul	a4,a4,s6
    813c:	e5843a03          	ld	s4,-424(s0)
    8140:	000016b7          	lui	a3,0x1
    8144:	40d406b3          	sub	a3,s0,a3
    8148:	7686be03          	ld	t3,1896(a3) # 1768 <.LBB87_5+0x2e8>
    814c:	014e0a33          	add	s4,t3,s4
    8150:	01470733          	add	a4,a4,s4
    8154:	42875713          	srai	a4,a4,0x28
    8158:	d4e43c23          	sd	a4,-680(s0)
    815c:	00e34663          	blt	t1,a4,8168 <.LBB87_642>
    8160:	f7c00713          	li	a4,-132
    8164:	d4e43c23          	sd	a4,-680(s0)

0000000000008168 <.LBB87_642>:
    8168:	000016b7          	lui	a3,0x1
    816c:	40d406b3          	sub	a3,s0,a3
    8170:	7906b703          	ld	a4,1936(a3) # 1790 <.LBB87_5+0x310>
    8174:	03670733          	mul	a4,a4,s6
    8178:	e5843a03          	ld	s4,-424(s0)
    817c:	000016b7          	lui	a3,0x1
    8180:	40d406b3          	sub	a3,s0,a3
    8184:	7706be83          	ld	t4,1904(a3) # 1770 <.LBB87_5+0x2f0>
    8188:	014e8a33          	add	s4,t4,s4
    818c:	01470733          	add	a4,a4,s4
    8190:	42875713          	srai	a4,a4,0x28
    8194:	d4e43423          	sd	a4,-696(s0)
    8198:	00e34663          	blt	t1,a4,81a4 <.LBB87_644>
    819c:	f7c00713          	li	a4,-132
    81a0:	d4e43423          	sd	a4,-696(s0)

00000000000081a4 <.LBB87_644>:
    81a4:	000016b7          	lui	a3,0x1
    81a8:	40d406b3          	sub	a3,s0,a3
    81ac:	7886b703          	ld	a4,1928(a3) # 1788 <.LBB87_5+0x308>
    81b0:	03670733          	mul	a4,a4,s6
    81b4:	e5843a03          	ld	s4,-424(s0)
    81b8:	000016b7          	lui	a3,0x1
    81bc:	40d406b3          	sub	a3,s0,a3
    81c0:	7806be83          	ld	t4,1920(a3) # 1780 <.LBB87_5+0x300>
    81c4:	014e8a33          	add	s4,t4,s4
    81c8:	01470733          	add	a4,a4,s4
    81cc:	42875713          	srai	a4,a4,0x28
    81d0:	d2e43c23          	sd	a4,-712(s0)
    81d4:	00e34663          	blt	t1,a4,81e0 <.LBB87_646>
    81d8:	f7c00713          	li	a4,-132
    81dc:	d2e43c23          	sd	a4,-712(s0)

00000000000081e0 <.LBB87_646>:
    81e0:	000016b7          	lui	a3,0x1
    81e4:	40d406b3          	sub	a3,s0,a3
    81e8:	b906b683          	ld	a3,-1136(a3) # b90 <.LBB87_3+0x924>
    81ec:	03668733          	mul	a4,a3,s6
    81f0:	e5843a03          	ld	s4,-424(s0)
    81f4:	000016b7          	lui	a3,0x1
    81f8:	40d406b3          	sub	a3,s0,a3
    81fc:	ba86b683          	ld	a3,-1112(a3) # ba8 <.LBB87_3+0x93c>
    8200:	01468a33          	add	s4,a3,s4
    8204:	01470733          	add	a4,a4,s4
    8208:	42875713          	srai	a4,a4,0x28
    820c:	dce43c23          	sd	a4,-552(s0)
    8210:	00e34663          	blt	t1,a4,821c <.LBB87_648>
    8214:	f7c00713          	li	a4,-132
    8218:	dce43c23          	sd	a4,-552(s0)

000000000000821c <.LBB87_648>:
    821c:	000016b7          	lui	a3,0x1
    8220:	40d406b3          	sub	a3,s0,a3
    8224:	ba06b683          	ld	a3,-1120(a3) # ba0 <.LBB87_3+0x934>
    8228:	03668733          	mul	a4,a3,s6
    822c:	e5843a03          	ld	s4,-424(s0)
    8230:	000016b7          	lui	a3,0x1
    8234:	40d406b3          	sub	a3,s0,a3
    8238:	c406b883          	ld	a7,-960(a3) # c40 <.LBB87_3+0x9d4>
    823c:	014888b3          	add	a7,a7,s4
    8240:	01170733          	add	a4,a4,a7
    8244:	42875713          	srai	a4,a4,0x28
    8248:	dce43423          	sd	a4,-568(s0)
    824c:	00e34663          	blt	t1,a4,8258 <.LBB87_650>
    8250:	f7c00713          	li	a4,-132
    8254:	dce43423          	sd	a4,-568(s0)

0000000000008258 <.LBB87_650>:
    8258:	000016b7          	lui	a3,0x1
    825c:	40d406b3          	sub	a3,s0,a3
    8260:	c006b683          	ld	a3,-1024(a3) # c00 <.LBB87_3+0x994>
    8264:	036686b3          	mul	a3,a3,s6
    8268:	00001737          	lui	a4,0x1
    826c:	40e40733          	sub	a4,s0,a4
    8270:	c8873703          	ld	a4,-888(a4) # c88 <.LBB87_3+0xa1c>
    8274:	01470733          	add	a4,a4,s4
    8278:	00e686b3          	add	a3,a3,a4
    827c:	4286d693          	srai	a3,a3,0x28
    8280:	dad43c23          	sd	a3,-584(s0)
    8284:	00d34663          	blt	t1,a3,8290 <.LBB87_652>
    8288:	f7c00693          	li	a3,-132
    828c:	dad43c23          	sd	a3,-584(s0)

0000000000008290 <.LBB87_652>:
    8290:	000016b7          	lui	a3,0x1
    8294:	40d406b3          	sub	a3,s0,a3
    8298:	d006b683          	ld	a3,-768(a3) # d00 <.LBB87_3+0xa94>
    829c:	036686b3          	mul	a3,a3,s6
    82a0:	00001737          	lui	a4,0x1
    82a4:	40e40733          	sub	a4,s0,a4
    82a8:	ce873703          	ld	a4,-792(a4) # ce8 <.LBB87_3+0xa7c>
    82ac:	01470733          	add	a4,a4,s4
    82b0:	00e686b3          	add	a3,a3,a4
    82b4:	4286d693          	srai	a3,a3,0x28
    82b8:	dad43423          	sd	a3,-600(s0)
    82bc:	00d34663          	blt	t1,a3,82c8 <.LBB87_654>
    82c0:	f7c00693          	li	a3,-132
    82c4:	dad43423          	sd	a3,-600(s0)

00000000000082c8 <.LBB87_654>:
    82c8:	000016b7          	lui	a3,0x1
    82cc:	40d406b3          	sub	a3,s0,a3
    82d0:	d786b683          	ld	a3,-648(a3) # d78 <.LBB87_3+0xb0c>
    82d4:	036686b3          	mul	a3,a3,s6
    82d8:	00001737          	lui	a4,0x1
    82dc:	40e40733          	sub	a4,s0,a4
    82e0:	d6073703          	ld	a4,-672(a4) # d60 <.LBB87_3+0xaf4>
    82e4:	01470733          	add	a4,a4,s4
    82e8:	00e686b3          	add	a3,a3,a4
    82ec:	4286d693          	srai	a3,a3,0x28
    82f0:	d8d43c23          	sd	a3,-616(s0)
    82f4:	00d34663          	blt	t1,a3,8300 <.LBB87_656>
    82f8:	f7c00693          	li	a3,-132
    82fc:	d8d43c23          	sd	a3,-616(s0)

0000000000008300 <.LBB87_656>:
    8300:	000016b7          	lui	a3,0x1
    8304:	40d406b3          	sub	a3,s0,a3
    8308:	df06b683          	ld	a3,-528(a3) # df0 <.LBB87_3+0xb84>
    830c:	036686b3          	mul	a3,a3,s6
    8310:	00001737          	lui	a4,0x1
    8314:	40e40733          	sub	a4,s0,a4
    8318:	dd873703          	ld	a4,-552(a4) # dd8 <.LBB87_3+0xb6c>
    831c:	01470733          	add	a4,a4,s4
    8320:	00e686b3          	add	a3,a3,a4
    8324:	4286d693          	srai	a3,a3,0x28
    8328:	d8d43423          	sd	a3,-632(s0)
    832c:	00d34663          	blt	t1,a3,8338 <.LBB87_658>
    8330:	f7c00693          	li	a3,-132
    8334:	d8d43423          	sd	a3,-632(s0)

0000000000008338 <.LBB87_658>:
    8338:	000016b7          	lui	a3,0x1
    833c:	40d406b3          	sub	a3,s0,a3
    8340:	e606b683          	ld	a3,-416(a3) # e60 <.LBB87_3+0xbf4>
    8344:	036686b3          	mul	a3,a3,s6
    8348:	00001737          	lui	a4,0x1
    834c:	40e40733          	sub	a4,s0,a4
    8350:	e4873703          	ld	a4,-440(a4) # e48 <.LBB87_3+0xbdc>
    8354:	01470733          	add	a4,a4,s4
    8358:	00e686b3          	add	a3,a3,a4
    835c:	4286d693          	srai	a3,a3,0x28
    8360:	d6d43c23          	sd	a3,-648(s0)
    8364:	00d34663          	blt	t1,a3,8370 <.LBB87_660>
    8368:	f7c00693          	li	a3,-132
    836c:	d6d43c23          	sd	a3,-648(s0)

0000000000008370 <.LBB87_660>:
    8370:	000016b7          	lui	a3,0x1
    8374:	40d406b3          	sub	a3,s0,a3
    8378:	ed86b683          	ld	a3,-296(a3) # ed8 <.LBB87_4+0x14>
    837c:	036686b3          	mul	a3,a3,s6
    8380:	00001737          	lui	a4,0x1
    8384:	40e40733          	sub	a4,s0,a4
    8388:	ec073703          	ld	a4,-320(a4) # ec0 <.LBB87_3+0xc54>
    838c:	01470733          	add	a4,a4,s4
    8390:	00e686b3          	add	a3,a3,a4
    8394:	4286d693          	srai	a3,a3,0x28
    8398:	d6d43423          	sd	a3,-664(s0)
    839c:	00d34663          	blt	t1,a3,83a8 <.LBB87_662>
    83a0:	f7c00693          	li	a3,-132
    83a4:	d6d43423          	sd	a3,-664(s0)

00000000000083a8 <.LBB87_662>:
    83a8:	000016b7          	lui	a3,0x1
    83ac:	40d406b3          	sub	a3,s0,a3
    83b0:	f486b683          	ld	a3,-184(a3) # f48 <.LBB87_4+0x84>
    83b4:	036686b3          	mul	a3,a3,s6
    83b8:	00001737          	lui	a4,0x1
    83bc:	40e40733          	sub	a4,s0,a4
    83c0:	f3073703          	ld	a4,-208(a4) # f30 <.LBB87_4+0x6c>
    83c4:	01470733          	add	a4,a4,s4
    83c8:	00e686b3          	add	a3,a3,a4
    83cc:	4286d693          	srai	a3,a3,0x28
    83d0:	d4d43823          	sd	a3,-688(s0)
    83d4:	00d34663          	blt	t1,a3,83e0 <.LBB87_664>
    83d8:	f7c00693          	li	a3,-132
    83dc:	d4d43823          	sd	a3,-688(s0)

00000000000083e0 <.LBB87_664>:
    83e0:	000016b7          	lui	a3,0x1
    83e4:	40d406b3          	sub	a3,s0,a3
    83e8:	fc06b683          	ld	a3,-64(a3) # fc0 <.LBB87_4+0xfc>
    83ec:	036686b3          	mul	a3,a3,s6
    83f0:	00001737          	lui	a4,0x1
    83f4:	40e40733          	sub	a4,s0,a4
    83f8:	fa873703          	ld	a4,-88(a4) # fa8 <.LBB87_4+0xe4>
    83fc:	01470733          	add	a4,a4,s4
    8400:	00e686b3          	add	a3,a3,a4
    8404:	4286d693          	srai	a3,a3,0x28
    8408:	d4d43023          	sd	a3,-704(s0)
    840c:	00d34663          	blt	t1,a3,8418 <.LBB87_666>
    8410:	f7c00693          	li	a3,-132
    8414:	d4d43023          	sd	a3,-704(s0)

0000000000008418 <.LBB87_666>:
    8418:	000016b7          	lui	a3,0x1
    841c:	40d406b3          	sub	a3,s0,a3
    8420:	0386b683          	ld	a3,56(a3) # 1038 <.LBB87_4+0x174>
    8424:	036686b3          	mul	a3,a3,s6
    8428:	00001737          	lui	a4,0x1
    842c:	40e40733          	sub	a4,s0,a4
    8430:	02073703          	ld	a4,32(a4) # 1020 <.LBB87_4+0x15c>
    8434:	01470733          	add	a4,a4,s4
    8438:	00e686b3          	add	a3,a3,a4
    843c:	4286d693          	srai	a3,a3,0x28
    8440:	d2d43823          	sd	a3,-720(s0)
    8444:	00d34663          	blt	t1,a3,8450 <.LBB87_668>
    8448:	f7c00693          	li	a3,-132
    844c:	d2d43823          	sd	a3,-720(s0)

0000000000008450 <.LBB87_668>:
    8450:	000016b7          	lui	a3,0x1
    8454:	40d406b3          	sub	a3,s0,a3
    8458:	0b06b683          	ld	a3,176(a3) # 10b0 <.LBB87_4+0x1ec>
    845c:	036686b3          	mul	a3,a3,s6
    8460:	00001737          	lui	a4,0x1
    8464:	40e40733          	sub	a4,s0,a4
    8468:	09873703          	ld	a4,152(a4) # 1098 <.LBB87_4+0x1d4>
    846c:	01470733          	add	a4,a4,s4
    8470:	00e686b3          	add	a3,a3,a4
    8474:	4286d693          	srai	a3,a3,0x28
    8478:	d2d43423          	sd	a3,-728(s0)
    847c:	00d34663          	blt	t1,a3,8488 <.LBB87_670>
    8480:	f7c00693          	li	a3,-132
    8484:	d2d43423          	sd	a3,-728(s0)

0000000000008488 <.LBB87_670>:
    8488:	000016b7          	lui	a3,0x1
    848c:	40d406b3          	sub	a3,s0,a3
    8490:	1286b683          	ld	a3,296(a3) # 1128 <.LBB87_4+0x264>
    8494:	036686b3          	mul	a3,a3,s6
    8498:	00001737          	lui	a4,0x1
    849c:	40e40733          	sub	a4,s0,a4
    84a0:	11073703          	ld	a4,272(a4) # 1110 <.LBB87_4+0x24c>
    84a4:	01470733          	add	a4,a4,s4
    84a8:	00e686b3          	add	a3,a3,a4
    84ac:	4286d693          	srai	a3,a3,0x28
    84b0:	d2d43023          	sd	a3,-736(s0)
    84b4:	00d34663          	blt	t1,a3,84c0 <.LBB87_672>
    84b8:	f7c00693          	li	a3,-132
    84bc:	d2d43023          	sd	a3,-736(s0)

00000000000084c0 <.LBB87_672>:
    84c0:	000016b7          	lui	a3,0x1
    84c4:	40d406b3          	sub	a3,s0,a3
    84c8:	1a06b683          	ld	a3,416(a3) # 11a0 <.LBB87_4+0x2dc>
    84cc:	036686b3          	mul	a3,a3,s6
    84d0:	00001737          	lui	a4,0x1
    84d4:	40e40733          	sub	a4,s0,a4
    84d8:	18873703          	ld	a4,392(a4) # 1188 <.LBB87_4+0x2c4>
    84dc:	01470733          	add	a4,a4,s4
    84e0:	00e686b3          	add	a3,a3,a4
    84e4:	4286d693          	srai	a3,a3,0x28
    84e8:	d0d43c23          	sd	a3,-744(s0)
    84ec:	00d34663          	blt	t1,a3,84f8 <.LBB87_674>
    84f0:	f7c00693          	li	a3,-132
    84f4:	d0d43c23          	sd	a3,-744(s0)

00000000000084f8 <.LBB87_674>:
    84f8:	000016b7          	lui	a3,0x1
    84fc:	40d406b3          	sub	a3,s0,a3
    8500:	2186b683          	ld	a3,536(a3) # 1218 <.LBB87_4+0x354>
    8504:	036686b3          	mul	a3,a3,s6
    8508:	00001737          	lui	a4,0x1
    850c:	40e40733          	sub	a4,s0,a4
    8510:	20073703          	ld	a4,512(a4) # 1200 <.LBB87_4+0x33c>
    8514:	01470733          	add	a4,a4,s4
    8518:	00e686b3          	add	a3,a3,a4
    851c:	4286d693          	srai	a3,a3,0x28
    8520:	d0d43823          	sd	a3,-752(s0)
    8524:	00d34663          	blt	t1,a3,8530 <.LBB87_676>
    8528:	f7c00693          	li	a3,-132
    852c:	d0d43823          	sd	a3,-752(s0)

0000000000008530 <.LBB87_676>:
    8530:	000016b7          	lui	a3,0x1
    8534:	40d406b3          	sub	a3,s0,a3
    8538:	2906b683          	ld	a3,656(a3) # 1290 <.LBB87_4+0x3cc>
    853c:	036686b3          	mul	a3,a3,s6
    8540:	00001737          	lui	a4,0x1
    8544:	40e40733          	sub	a4,s0,a4
    8548:	27873703          	ld	a4,632(a4) # 1278 <.LBB87_4+0x3b4>
    854c:	01470733          	add	a4,a4,s4
    8550:	00e686b3          	add	a3,a3,a4
    8554:	4286d693          	srai	a3,a3,0x28
    8558:	d0d43423          	sd	a3,-760(s0)
    855c:	00d34663          	blt	t1,a3,8568 <.LBB87_678>
    8560:	f7c00693          	li	a3,-132
    8564:	d0d43423          	sd	a3,-760(s0)

0000000000008568 <.LBB87_678>:
    8568:	000016b7          	lui	a3,0x1
    856c:	40d406b3          	sub	a3,s0,a3
    8570:	2f86b683          	ld	a3,760(a3) # 12f8 <.LBB87_4+0x434>
    8574:	036686b3          	mul	a3,a3,s6
    8578:	00001737          	lui	a4,0x1
    857c:	40e40733          	sub	a4,s0,a4
    8580:	2e873703          	ld	a4,744(a4) # 12e8 <.LBB87_4+0x424>
    8584:	01470733          	add	a4,a4,s4
    8588:	00e686b3          	add	a3,a3,a4
    858c:	4286d693          	srai	a3,a3,0x28
    8590:	d0d43023          	sd	a3,-768(s0)
    8594:	00d34663          	blt	t1,a3,85a0 <.LBB87_680>
    8598:	f7c00693          	li	a3,-132
    859c:	d0d43023          	sd	a3,-768(s0)

00000000000085a0 <.LBB87_680>:
    85a0:	000016b7          	lui	a3,0x1
    85a4:	40d406b3          	sub	a3,s0,a3
    85a8:	3606b683          	ld	a3,864(a3) # 1360 <.LBB87_4+0x49c>
    85ac:	036686b3          	mul	a3,a3,s6
    85b0:	00001737          	lui	a4,0x1
    85b4:	40e40733          	sub	a4,s0,a4
    85b8:	35073703          	ld	a4,848(a4) # 1350 <.LBB87_4+0x48c>
    85bc:	01470733          	add	a4,a4,s4
    85c0:	00e686b3          	add	a3,a3,a4
    85c4:	4286d693          	srai	a3,a3,0x28
    85c8:	ced43c23          	sd	a3,-776(s0)
    85cc:	00d34663          	blt	t1,a3,85d8 <.LBB87_682>
    85d0:	f7c00693          	li	a3,-132
    85d4:	ced43c23          	sd	a3,-776(s0)

00000000000085d8 <.LBB87_682>:
    85d8:	000016b7          	lui	a3,0x1
    85dc:	40d406b3          	sub	a3,s0,a3
    85e0:	3c06b683          	ld	a3,960(a3) # 13c0 <.LBB87_4+0x4fc>
    85e4:	036686b3          	mul	a3,a3,s6
    85e8:	00001737          	lui	a4,0x1
    85ec:	40e40733          	sub	a4,s0,a4
    85f0:	3a873703          	ld	a4,936(a4) # 13a8 <.LBB87_4+0x4e4>
    85f4:	01470733          	add	a4,a4,s4
    85f8:	00e686b3          	add	a3,a3,a4
    85fc:	4286d693          	srai	a3,a3,0x28
    8600:	ced43823          	sd	a3,-784(s0)
    8604:	00d34663          	blt	t1,a3,8610 <.LBB87_684>
    8608:	f7c00693          	li	a3,-132
    860c:	ced43823          	sd	a3,-784(s0)

0000000000008610 <.LBB87_684>:
    8610:	000016b7          	lui	a3,0x1
    8614:	40d406b3          	sub	a3,s0,a3
    8618:	4206b683          	ld	a3,1056(a3) # 1420 <.LBB87_4+0x55c>
    861c:	036686b3          	mul	a3,a3,s6
    8620:	00001737          	lui	a4,0x1
    8624:	40e40733          	sub	a4,s0,a4
    8628:	40873703          	ld	a4,1032(a4) # 1408 <.LBB87_4+0x544>
    862c:	01470733          	add	a4,a4,s4
    8630:	00e686b3          	add	a3,a3,a4
    8634:	4286d693          	srai	a3,a3,0x28
    8638:	ced43423          	sd	a3,-792(s0)
    863c:	00d34663          	blt	t1,a3,8648 <.LBB87_686>
    8640:	f7c00693          	li	a3,-132
    8644:	ced43423          	sd	a3,-792(s0)

0000000000008648 <.LBB87_686>:
    8648:	000016b7          	lui	a3,0x1
    864c:	40d406b3          	sub	a3,s0,a3
    8650:	4786b683          	ld	a3,1144(a3) # 1478 <.LBB87_4+0x5b4>
    8654:	036686b3          	mul	a3,a3,s6
    8658:	00001737          	lui	a4,0x1
    865c:	40e40733          	sub	a4,s0,a4
    8660:	46073703          	ld	a4,1120(a4) # 1460 <.LBB87_4+0x59c>
    8664:	01470733          	add	a4,a4,s4
    8668:	00e686b3          	add	a3,a3,a4
    866c:	4286d693          	srai	a3,a3,0x28
    8670:	ced43023          	sd	a3,-800(s0)
    8674:	00d34663          	blt	t1,a3,8680 <.LBB87_688>
    8678:	f7c00693          	li	a3,-132
    867c:	ced43023          	sd	a3,-800(s0)

0000000000008680 <.LBB87_688>:
    8680:	000016b7          	lui	a3,0x1
    8684:	40d406b3          	sub	a3,s0,a3
    8688:	4c86b683          	ld	a3,1224(a3) # 14c8 <.LBB87_5+0x48>
    868c:	036686b3          	mul	a3,a3,s6
    8690:	00001737          	lui	a4,0x1
    8694:	40e40733          	sub	a4,s0,a4
    8698:	4b873703          	ld	a4,1208(a4) # 14b8 <.LBB87_5+0x38>
    869c:	01470733          	add	a4,a4,s4
    86a0:	00e686b3          	add	a3,a3,a4
    86a4:	4286d693          	srai	a3,a3,0x28
    86a8:	ccd43c23          	sd	a3,-808(s0)
    86ac:	00d34663          	blt	t1,a3,86b8 <.LBB87_690>
    86b0:	f7c00693          	li	a3,-132
    86b4:	ccd43c23          	sd	a3,-808(s0)

00000000000086b8 <.LBB87_690>:
    86b8:	000016b7          	lui	a3,0x1
    86bc:	40d406b3          	sub	a3,s0,a3
    86c0:	5286b683          	ld	a3,1320(a3) # 1528 <.LBB87_5+0xa8>
    86c4:	036686b3          	mul	a3,a3,s6
    86c8:	00001737          	lui	a4,0x1
    86cc:	40e40733          	sub	a4,s0,a4
    86d0:	51073703          	ld	a4,1296(a4) # 1510 <.LBB87_5+0x90>
    86d4:	01470733          	add	a4,a4,s4
    86d8:	00e686b3          	add	a3,a3,a4
    86dc:	4286d693          	srai	a3,a3,0x28
    86e0:	ccd43423          	sd	a3,-824(s0)
    86e4:	00d34663          	blt	t1,a3,86f0 <.LBB87_692>
    86e8:	f7c00693          	li	a3,-132
    86ec:	ccd43423          	sd	a3,-824(s0)

00000000000086f0 <.LBB87_692>:
    86f0:	000016b7          	lui	a3,0x1
    86f4:	40d406b3          	sub	a3,s0,a3
    86f8:	5806b683          	ld	a3,1408(a3) # 1580 <.LBB87_5+0x100>
    86fc:	036686b3          	mul	a3,a3,s6
    8700:	00001737          	lui	a4,0x1
    8704:	40e40733          	sub	a4,s0,a4
    8708:	57073703          	ld	a4,1392(a4) # 1570 <.LBB87_5+0xf0>
    870c:	01470733          	add	a4,a4,s4
    8710:	00e686b3          	add	a3,a3,a4
    8714:	4286d693          	srai	a3,a3,0x28
    8718:	cad43c23          	sd	a3,-840(s0)
    871c:	00d34663          	blt	t1,a3,8728 <.LBB87_694>
    8720:	f7c00693          	li	a3,-132
    8724:	cad43c23          	sd	a3,-840(s0)

0000000000008728 <.LBB87_694>:
    8728:	000016b7          	lui	a3,0x1
    872c:	40d406b3          	sub	a3,s0,a3
    8730:	6e86b683          	ld	a3,1768(a3) # 16e8 <.LBB87_5+0x268>
    8734:	036686b3          	mul	a3,a3,s6
    8738:	00001737          	lui	a4,0x1
    873c:	40e40733          	sub	a4,s0,a4
    8740:	5c873703          	ld	a4,1480(a4) # 15c8 <.LBB87_5+0x148>
    8744:	01470733          	add	a4,a4,s4
    8748:	00e686b3          	add	a3,a3,a4
    874c:	4286d693          	srai	a3,a3,0x28
    8750:	cad43423          	sd	a3,-856(s0)
    8754:	00d34663          	blt	t1,a3,8760 <.LBB87_696>
    8758:	f7c00693          	li	a3,-132
    875c:	cad43423          	sd	a3,-856(s0)

0000000000008760 <.LBB87_696>:
    8760:	000016b7          	lui	a3,0x1
    8764:	40d406b3          	sub	a3,s0,a3
    8768:	7f86b683          	ld	a3,2040(a3) # 17f8 <.LBB87_5+0x378>
    876c:	036686b3          	mul	a3,a3,s6
    8770:	00001737          	lui	a4,0x1
    8774:	40e40733          	sub	a4,s0,a4
    8778:	7d873703          	ld	a4,2008(a4) # 17d8 <.LBB87_5+0x358>
    877c:	01470733          	add	a4,a4,s4
    8780:	00e686b3          	add	a3,a3,a4
    8784:	4286d693          	srai	a3,a3,0x28
    8788:	c8d43c23          	sd	a3,-872(s0)
    878c:	00d34663          	blt	t1,a3,8798 <.LBB87_698>
    8790:	f7c00693          	li	a3,-132
    8794:	c8d43c23          	sd	a3,-872(s0)

0000000000008798 <.LBB87_698>:
    8798:	8b043683          	ld	a3,-1872(s0)
    879c:	036686b3          	mul	a3,a3,s6
    87a0:	85843703          	ld	a4,-1960(s0)
    87a4:	01470733          	add	a4,a4,s4
    87a8:	00e686b3          	add	a3,a3,a4
    87ac:	4286d693          	srai	a3,a3,0x28
    87b0:	c8d43423          	sd	a3,-888(s0)
    87b4:	00d34663          	blt	t1,a3,87c0 <.LBB87_700>
    87b8:	f7c00693          	li	a3,-132
    87bc:	c8d43423          	sd	a3,-888(s0)

00000000000087c0 <.LBB87_700>:
    87c0:	8a843683          	ld	a3,-1880(s0)
    87c4:	036686b3          	mul	a3,a3,s6
    87c8:	86043703          	ld	a4,-1952(s0)
    87cc:	01470733          	add	a4,a4,s4
    87d0:	00e686b3          	add	a3,a3,a4
    87d4:	4286d693          	srai	a3,a3,0x28
    87d8:	c6d43c23          	sd	a3,-904(s0)
    87dc:	00d34663          	blt	t1,a3,87e8 <.LBB87_702>
    87e0:	f7c00693          	li	a3,-132
    87e4:	c6d43c23          	sd	a3,-904(s0)

00000000000087e8 <.LBB87_702>:
    87e8:	8a043683          	ld	a3,-1888(s0)
    87ec:	036686b3          	mul	a3,a3,s6
    87f0:	86843703          	ld	a4,-1944(s0)
    87f4:	01470733          	add	a4,a4,s4
    87f8:	00e686b3          	add	a3,a3,a4
    87fc:	4286d693          	srai	a3,a3,0x28
    8800:	c6d43423          	sd	a3,-920(s0)
    8804:	00d34663          	blt	t1,a3,8810 <.LBB87_704>
    8808:	f7c00693          	li	a3,-132
    880c:	c6d43423          	sd	a3,-920(s0)

0000000000008810 <.LBB87_704>:
    8810:	89843683          	ld	a3,-1896(s0)
    8814:	036686b3          	mul	a3,a3,s6
    8818:	87043703          	ld	a4,-1936(s0)
    881c:	01470733          	add	a4,a4,s4
    8820:	00e686b3          	add	a3,a3,a4
    8824:	4286d693          	srai	a3,a3,0x28
    8828:	c4d43c23          	sd	a3,-936(s0)
    882c:	00d34663          	blt	t1,a3,8838 <.LBB87_706>
    8830:	f7c00693          	li	a3,-132
    8834:	c4d43c23          	sd	a3,-936(s0)

0000000000008838 <.LBB87_706>:
    8838:	89043683          	ld	a3,-1904(s0)
    883c:	036686b3          	mul	a3,a3,s6
    8840:	87843703          	ld	a4,-1928(s0)
    8844:	01470733          	add	a4,a4,s4
    8848:	00e686b3          	add	a3,a3,a4
    884c:	4286d693          	srai	a3,a3,0x28
    8850:	c4d43423          	sd	a3,-952(s0)
    8854:	00d34663          	blt	t1,a3,8860 <.LBB87_708>
    8858:	f7c00693          	li	a3,-132
    885c:	c4d43423          	sd	a3,-952(s0)

0000000000008860 <.LBB87_708>:
    8860:	88843683          	ld	a3,-1912(s0)
    8864:	036686b3          	mul	a3,a3,s6
    8868:	88043703          	ld	a4,-1920(s0)
    886c:	01470733          	add	a4,a4,s4
    8870:	00e686b3          	add	a3,a3,a4
    8874:	4286d693          	srai	a3,a3,0x28
    8878:	c2d43c23          	sd	a3,-968(s0)
    887c:	00d34663          	blt	t1,a3,8888 <.LBB87_710>
    8880:	f7c00693          	li	a3,-132
    8884:	c2d43c23          	sd	a3,-968(s0)

0000000000008888 <.LBB87_710>:
    8888:	036606b3          	mul	a3,a2,s6
    888c:	00001637          	lui	a2,0x1
    8890:	40c40633          	sub	a2,s0,a2
    8894:	b9863703          	ld	a4,-1128(a2) # b98 <.LBB87_3+0x92c>
    8898:	01470733          	add	a4,a4,s4
    889c:	00e686b3          	add	a3,a3,a4
    88a0:	4286d693          	srai	a3,a3,0x28
    88a4:	ccd43823          	sd	a3,-816(s0)
    88a8:	00d34663          	blt	t1,a3,88b4 <.LBB87_712>
    88ac:	f7c00693          	li	a3,-132
    88b0:	ccd43823          	sd	a3,-816(s0)

00000000000088b4 <.LBB87_712>:
    88b4:	00001637          	lui	a2,0x1
    88b8:	40c40633          	sub	a2,s0,a2
    88bc:	be063603          	ld	a2,-1056(a2) # be0 <.LBB87_3+0x974>
    88c0:	036606b3          	mul	a3,a2,s6
    88c4:	00001637          	lui	a2,0x1
    88c8:	40c40633          	sub	a2,s0,a2
    88cc:	c3863703          	ld	a4,-968(a2) # c38 <.LBB87_3+0x9cc>
    88d0:	01470733          	add	a4,a4,s4
    88d4:	00e686b3          	add	a3,a3,a4
    88d8:	4286d693          	srai	a3,a3,0x28
    88dc:	ccd43023          	sd	a3,-832(s0)
    88e0:	00d34663          	blt	t1,a3,88ec <.LBB87_714>
    88e4:	f7c00693          	li	a3,-132
    88e8:	ccd43023          	sd	a3,-832(s0)

00000000000088ec <.LBB87_714>:
    88ec:	00001637          	lui	a2,0x1
    88f0:	40c40633          	sub	a2,s0,a2
    88f4:	c1063603          	ld	a2,-1008(a2) # c10 <.LBB87_3+0x9a4>
    88f8:	03660633          	mul	a2,a2,s6
    88fc:	000016b7          	lui	a3,0x1
    8900:	40d406b3          	sub	a3,s0,a3
    8904:	c806b683          	ld	a3,-896(a3) # c80 <.LBB87_3+0xa14>
    8908:	014686b3          	add	a3,a3,s4
    890c:	00d60633          	add	a2,a2,a3
    8910:	42865613          	srai	a2,a2,0x28
    8914:	cac43823          	sd	a2,-848(s0)
    8918:	00c34663          	blt	t1,a2,8924 <.LBB87_716>
    891c:	f7c00613          	li	a2,-132
    8920:	cac43823          	sd	a2,-848(s0)

0000000000008924 <.LBB87_716>:
    8924:	00001637          	lui	a2,0x1
    8928:	40c40633          	sub	a2,s0,a2
    892c:	cf063603          	ld	a2,-784(a2) # cf0 <.LBB87_3+0xa84>
    8930:	03660633          	mul	a2,a2,s6
    8934:	000016b7          	lui	a3,0x1
    8938:	40d406b3          	sub	a3,s0,a3
    893c:	cd86b683          	ld	a3,-808(a3) # cd8 <.LBB87_3+0xa6c>
    8940:	014686b3          	add	a3,a3,s4
    8944:	00d60633          	add	a2,a2,a3
    8948:	42865613          	srai	a2,a2,0x28
    894c:	cac43023          	sd	a2,-864(s0)
    8950:	00c34663          	blt	t1,a2,895c <.LBB87_718>
    8954:	f7c00613          	li	a2,-132
    8958:	cac43023          	sd	a2,-864(s0)

000000000000895c <.LBB87_718>:
    895c:	00001637          	lui	a2,0x1
    8960:	40c40633          	sub	a2,s0,a2
    8964:	d6863603          	ld	a2,-664(a2) # d68 <.LBB87_3+0xafc>
    8968:	03660633          	mul	a2,a2,s6
    896c:	000016b7          	lui	a3,0x1
    8970:	40d406b3          	sub	a3,s0,a3
    8974:	d586b683          	ld	a3,-680(a3) # d58 <.LBB87_3+0xaec>
    8978:	014686b3          	add	a3,a3,s4
    897c:	00d60633          	add	a2,a2,a3
    8980:	42865613          	srai	a2,a2,0x28
    8984:	c8c43823          	sd	a2,-880(s0)
    8988:	00c34663          	blt	t1,a2,8994 <.LBB87_720>
    898c:	f7c00613          	li	a2,-132
    8990:	c8c43823          	sd	a2,-880(s0)

0000000000008994 <.LBB87_720>:
    8994:	00001637          	lui	a2,0x1
    8998:	40c40633          	sub	a2,s0,a2
    899c:	de063603          	ld	a2,-544(a2) # de0 <.LBB87_3+0xb74>
    89a0:	03660633          	mul	a2,a2,s6
    89a4:	000016b7          	lui	a3,0x1
    89a8:	40d406b3          	sub	a3,s0,a3
    89ac:	dc86b683          	ld	a3,-568(a3) # dc8 <.LBB87_3+0xb5c>
    89b0:	014686b3          	add	a3,a3,s4
    89b4:	00d60633          	add	a2,a2,a3
    89b8:	42865613          	srai	a2,a2,0x28
    89bc:	c8c43023          	sd	a2,-896(s0)
    89c0:	00c34663          	blt	t1,a2,89cc <.LBB87_722>
    89c4:	f7c00613          	li	a2,-132
    89c8:	c8c43023          	sd	a2,-896(s0)

00000000000089cc <.LBB87_722>:
    89cc:	00001637          	lui	a2,0x1
    89d0:	40c40633          	sub	a2,s0,a2
    89d4:	e5063603          	ld	a2,-432(a2) # e50 <.LBB87_3+0xbe4>
    89d8:	03660633          	mul	a2,a2,s6
    89dc:	000016b7          	lui	a3,0x1
    89e0:	40d406b3          	sub	a3,s0,a3
    89e4:	e406b683          	ld	a3,-448(a3) # e40 <.LBB87_3+0xbd4>
    89e8:	014686b3          	add	a3,a3,s4
    89ec:	00d60633          	add	a2,a2,a3
    89f0:	42865613          	srai	a2,a2,0x28
    89f4:	c6c43823          	sd	a2,-912(s0)
    89f8:	00c34663          	blt	t1,a2,8a04 <.LBB87_724>
    89fc:	f7c00613          	li	a2,-132
    8a00:	c6c43823          	sd	a2,-912(s0)

0000000000008a04 <.LBB87_724>:
    8a04:	00001637          	lui	a2,0x1
    8a08:	40c40633          	sub	a2,s0,a2
    8a0c:	ec863603          	ld	a2,-312(a2) # ec8 <.LBB87_4+0x4>
    8a10:	03660633          	mul	a2,a2,s6
    8a14:	000016b7          	lui	a3,0x1
    8a18:	40d406b3          	sub	a3,s0,a3
    8a1c:	eb06b683          	ld	a3,-336(a3) # eb0 <.LBB87_3+0xc44>
    8a20:	014686b3          	add	a3,a3,s4
    8a24:	00d60633          	add	a2,a2,a3
    8a28:	42865613          	srai	a2,a2,0x28
    8a2c:	c6c43023          	sd	a2,-928(s0)
    8a30:	00c34663          	blt	t1,a2,8a3c <.LBB87_726>
    8a34:	f7c00613          	li	a2,-132
    8a38:	c6c43023          	sd	a2,-928(s0)

0000000000008a3c <.LBB87_726>:
    8a3c:	00001637          	lui	a2,0x1
    8a40:	40c40633          	sub	a2,s0,a2
    8a44:	f3863603          	ld	a2,-200(a2) # f38 <.LBB87_4+0x74>
    8a48:	03660633          	mul	a2,a2,s6
    8a4c:	000016b7          	lui	a3,0x1
    8a50:	40d406b3          	sub	a3,s0,a3
    8a54:	f286b683          	ld	a3,-216(a3) # f28 <.LBB87_4+0x64>
    8a58:	014686b3          	add	a3,a3,s4
    8a5c:	00d60633          	add	a2,a2,a3
    8a60:	42865613          	srai	a2,a2,0x28
    8a64:	c4c43823          	sd	a2,-944(s0)
    8a68:	00c34663          	blt	t1,a2,8a74 <.LBB87_728>
    8a6c:	f7c00613          	li	a2,-132
    8a70:	c4c43823          	sd	a2,-944(s0)

0000000000008a74 <.LBB87_728>:
    8a74:	00001637          	lui	a2,0x1
    8a78:	40c40633          	sub	a2,s0,a2
    8a7c:	fb063603          	ld	a2,-80(a2) # fb0 <.LBB87_4+0xec>
    8a80:	03660633          	mul	a2,a2,s6
    8a84:	000016b7          	lui	a3,0x1
    8a88:	40d406b3          	sub	a3,s0,a3
    8a8c:	f986b683          	ld	a3,-104(a3) # f98 <.LBB87_4+0xd4>
    8a90:	014686b3          	add	a3,a3,s4
    8a94:	00d60633          	add	a2,a2,a3
    8a98:	42865613          	srai	a2,a2,0x28
    8a9c:	c4c43023          	sd	a2,-960(s0)
    8aa0:	00c34663          	blt	t1,a2,8aac <.LBB87_730>
    8aa4:	f7c00613          	li	a2,-132
    8aa8:	c4c43023          	sd	a2,-960(s0)

0000000000008aac <.LBB87_730>:
    8aac:	00001637          	lui	a2,0x1
    8ab0:	40c40633          	sub	a2,s0,a2
    8ab4:	02863603          	ld	a2,40(a2) # 1028 <.LBB87_4+0x164>
    8ab8:	03660633          	mul	a2,a2,s6
    8abc:	000016b7          	lui	a3,0x1
    8ac0:	40d406b3          	sub	a3,s0,a3
    8ac4:	0186b683          	ld	a3,24(a3) # 1018 <.LBB87_4+0x154>
    8ac8:	014686b3          	add	a3,a3,s4
    8acc:	00d60633          	add	a2,a2,a3
    8ad0:	42865613          	srai	a2,a2,0x28
    8ad4:	c2c43823          	sd	a2,-976(s0)
    8ad8:	00c34663          	blt	t1,a2,8ae4 <.LBB87_732>
    8adc:	f7c00613          	li	a2,-132
    8ae0:	c2c43823          	sd	a2,-976(s0)

0000000000008ae4 <.LBB87_732>:
    8ae4:	00001637          	lui	a2,0x1
    8ae8:	40c40633          	sub	a2,s0,a2
    8aec:	0a063603          	ld	a2,160(a2) # 10a0 <.LBB87_4+0x1dc>
    8af0:	03660633          	mul	a2,a2,s6
    8af4:	000016b7          	lui	a3,0x1
    8af8:	40d406b3          	sub	a3,s0,a3
    8afc:	0906b683          	ld	a3,144(a3) # 1090 <.LBB87_4+0x1cc>
    8b00:	014686b3          	add	a3,a3,s4
    8b04:	00d60633          	add	a2,a2,a3
    8b08:	42865613          	srai	a2,a2,0x28
    8b0c:	c2c43423          	sd	a2,-984(s0)
    8b10:	00c34663          	blt	t1,a2,8b1c <.LBB87_734>
    8b14:	f7c00613          	li	a2,-132
    8b18:	c2c43423          	sd	a2,-984(s0)

0000000000008b1c <.LBB87_734>:
    8b1c:	00001637          	lui	a2,0x1
    8b20:	40c40633          	sub	a2,s0,a2
    8b24:	11863603          	ld	a2,280(a2) # 1118 <.LBB87_4+0x254>
    8b28:	03660633          	mul	a2,a2,s6
    8b2c:	000016b7          	lui	a3,0x1
    8b30:	40d406b3          	sub	a3,s0,a3
    8b34:	1086b683          	ld	a3,264(a3) # 1108 <.LBB87_4+0x244>
    8b38:	014686b3          	add	a3,a3,s4
    8b3c:	00d60633          	add	a2,a2,a3
    8b40:	42865613          	srai	a2,a2,0x28
    8b44:	c2c43023          	sd	a2,-992(s0)
    8b48:	00c34663          	blt	t1,a2,8b54 <.LBB87_736>
    8b4c:	f7c00613          	li	a2,-132
    8b50:	c2c43023          	sd	a2,-992(s0)

0000000000008b54 <.LBB87_736>:
    8b54:	00001637          	lui	a2,0x1
    8b58:	40c40633          	sub	a2,s0,a2
    8b5c:	19063603          	ld	a2,400(a2) # 1190 <.LBB87_4+0x2cc>
    8b60:	03660633          	mul	a2,a2,s6
    8b64:	000016b7          	lui	a3,0x1
    8b68:	40d406b3          	sub	a3,s0,a3
    8b6c:	1806b683          	ld	a3,384(a3) # 1180 <.LBB87_4+0x2bc>
    8b70:	014686b3          	add	a3,a3,s4
    8b74:	00d60633          	add	a2,a2,a3
    8b78:	42865613          	srai	a2,a2,0x28
    8b7c:	c0c43c23          	sd	a2,-1000(s0)
    8b80:	00c34663          	blt	t1,a2,8b8c <.LBB87_738>
    8b84:	f7c00613          	li	a2,-132
    8b88:	c0c43c23          	sd	a2,-1000(s0)

0000000000008b8c <.LBB87_738>:
    8b8c:	00001637          	lui	a2,0x1
    8b90:	40c40633          	sub	a2,s0,a2
    8b94:	20863603          	ld	a2,520(a2) # 1208 <.LBB87_4+0x344>
    8b98:	03660633          	mul	a2,a2,s6
    8b9c:	000016b7          	lui	a3,0x1
    8ba0:	40d406b3          	sub	a3,s0,a3
    8ba4:	1f86b683          	ld	a3,504(a3) # 11f8 <.LBB87_4+0x334>
    8ba8:	014686b3          	add	a3,a3,s4
    8bac:	00d60633          	add	a2,a2,a3
    8bb0:	42865613          	srai	a2,a2,0x28
    8bb4:	c0c43823          	sd	a2,-1008(s0)
    8bb8:	00c34663          	blt	t1,a2,8bc4 <.LBB87_740>
    8bbc:	f7c00613          	li	a2,-132
    8bc0:	c0c43823          	sd	a2,-1008(s0)

0000000000008bc4 <.LBB87_740>:
    8bc4:	00001637          	lui	a2,0x1
    8bc8:	40c40633          	sub	a2,s0,a2
    8bcc:	28063603          	ld	a2,640(a2) # 1280 <.LBB87_4+0x3bc>
    8bd0:	03660633          	mul	a2,a2,s6
    8bd4:	000016b7          	lui	a3,0x1
    8bd8:	40d406b3          	sub	a3,s0,a3
    8bdc:	2706b683          	ld	a3,624(a3) # 1270 <.LBB87_4+0x3ac>
    8be0:	014686b3          	add	a3,a3,s4
    8be4:	00d60633          	add	a2,a2,a3
    8be8:	42865613          	srai	a2,a2,0x28
    8bec:	c0c43423          	sd	a2,-1016(s0)
    8bf0:	00c34663          	blt	t1,a2,8bfc <.LBB87_742>
    8bf4:	f7c00613          	li	a2,-132
    8bf8:	c0c43423          	sd	a2,-1016(s0)

0000000000008bfc <.LBB87_742>:
    8bfc:	a0043603          	ld	a2,-1536(s0)
    8c00:	03660633          	mul	a2,a2,s6
    8c04:	000016b7          	lui	a3,0x1
    8c08:	40d406b3          	sub	a3,s0,a3
    8c0c:	2e06b683          	ld	a3,736(a3) # 12e0 <.LBB87_4+0x41c>
    8c10:	014686b3          	add	a3,a3,s4
    8c14:	00d60633          	add	a2,a2,a3
    8c18:	42865613          	srai	a2,a2,0x28
    8c1c:	c0c43023          	sd	a2,-1024(s0)
    8c20:	00c34663          	blt	t1,a2,8c2c <.LBB87_744>
    8c24:	f7c00613          	li	a2,-132
    8c28:	c0c43023          	sd	a2,-1024(s0)

0000000000008c2c <.LBB87_744>:
    8c2c:	9f843603          	ld	a2,-1544(s0)
    8c30:	03660633          	mul	a2,a2,s6
    8c34:	000016b7          	lui	a3,0x1
    8c38:	40d406b3          	sub	a3,s0,a3
    8c3c:	3406b683          	ld	a3,832(a3) # 1340 <.LBB87_4+0x47c>
    8c40:	014686b3          	add	a3,a3,s4
    8c44:	00d60633          	add	a2,a2,a3
    8c48:	42865613          	srai	a2,a2,0x28
    8c4c:	bec43c23          	sd	a2,-1032(s0)
    8c50:	00c34663          	blt	t1,a2,8c5c <.LBB87_746>
    8c54:	f7c00613          	li	a2,-132
    8c58:	bec43c23          	sd	a2,-1032(s0)

0000000000008c5c <.LBB87_746>:
    8c5c:	9f043603          	ld	a2,-1552(s0)
    8c60:	03660633          	mul	a2,a2,s6
    8c64:	000016b7          	lui	a3,0x1
    8c68:	40d406b3          	sub	a3,s0,a3
    8c6c:	3986b683          	ld	a3,920(a3) # 1398 <.LBB87_4+0x4d4>
    8c70:	014686b3          	add	a3,a3,s4
    8c74:	00d60633          	add	a2,a2,a3
    8c78:	42865613          	srai	a2,a2,0x28
    8c7c:	bec43823          	sd	a2,-1040(s0)
    8c80:	00c34663          	blt	t1,a2,8c8c <.LBB87_748>
    8c84:	f7c00613          	li	a2,-132
    8c88:	bec43823          	sd	a2,-1040(s0)

0000000000008c8c <.LBB87_748>:
    8c8c:	9e843603          	ld	a2,-1560(s0)
    8c90:	03660633          	mul	a2,a2,s6
    8c94:	000016b7          	lui	a3,0x1
    8c98:	40d406b3          	sub	a3,s0,a3
    8c9c:	4006b683          	ld	a3,1024(a3) # 1400 <.LBB87_4+0x53c>
    8ca0:	014686b3          	add	a3,a3,s4
    8ca4:	00d60633          	add	a2,a2,a3
    8ca8:	42865613          	srai	a2,a2,0x28
    8cac:	bec43423          	sd	a2,-1048(s0)
    8cb0:	00c34663          	blt	t1,a2,8cbc <.LBB87_750>
    8cb4:	f7c00613          	li	a2,-132
    8cb8:	bec43423          	sd	a2,-1048(s0)

0000000000008cbc <.LBB87_750>:
    8cbc:	9e043603          	ld	a2,-1568(s0)
    8cc0:	03660633          	mul	a2,a2,s6
    8cc4:	000016b7          	lui	a3,0x1
    8cc8:	40d406b3          	sub	a3,s0,a3
    8ccc:	4586b683          	ld	a3,1112(a3) # 1458 <.LBB87_4+0x594>
    8cd0:	014686b3          	add	a3,a3,s4
    8cd4:	00d60633          	add	a2,a2,a3
    8cd8:	42865613          	srai	a2,a2,0x28
    8cdc:	bec43023          	sd	a2,-1056(s0)
    8ce0:	00c34663          	blt	t1,a2,8cec <.LBB87_752>
    8ce4:	f7c00613          	li	a2,-132
    8ce8:	bec43023          	sd	a2,-1056(s0)

0000000000008cec <.LBB87_752>:
    8cec:	9d843603          	ld	a2,-1576(s0)
    8cf0:	03660633          	mul	a2,a2,s6
    8cf4:	000016b7          	lui	a3,0x1
    8cf8:	40d406b3          	sub	a3,s0,a3
    8cfc:	4b06b683          	ld	a3,1200(a3) # 14b0 <.LBB87_5+0x30>
    8d00:	014686b3          	add	a3,a3,s4
    8d04:	00d60633          	add	a2,a2,a3
    8d08:	42865613          	srai	a2,a2,0x28
    8d0c:	bcc43c23          	sd	a2,-1064(s0)
    8d10:	00c34663          	blt	t1,a2,8d1c <.LBB87_754>
    8d14:	f7c00613          	li	a2,-132
    8d18:	bcc43c23          	sd	a2,-1064(s0)

0000000000008d1c <.LBB87_754>:
    8d1c:	00001637          	lui	a2,0x1
    8d20:	40c40633          	sub	a2,s0,a2
    8d24:	51863603          	ld	a2,1304(a2) # 1518 <.LBB87_5+0x98>
    8d28:	03660633          	mul	a2,a2,s6
    8d2c:	000016b7          	lui	a3,0x1
    8d30:	40d406b3          	sub	a3,s0,a3
    8d34:	5086b683          	ld	a3,1288(a3) # 1508 <.LBB87_5+0x88>
    8d38:	014686b3          	add	a3,a3,s4
    8d3c:	00d60633          	add	a2,a2,a3
    8d40:	42865613          	srai	a2,a2,0x28
    8d44:	bcc43423          	sd	a2,-1080(s0)
    8d48:	00c34663          	blt	t1,a2,8d54 <.LBB87_756>
    8d4c:	f7c00613          	li	a2,-132
    8d50:	bcc43423          	sd	a2,-1080(s0)

0000000000008d54 <.LBB87_756>:
    8d54:	9c843603          	ld	a2,-1592(s0)
    8d58:	03660633          	mul	a2,a2,s6
    8d5c:	000016b7          	lui	a3,0x1
    8d60:	40d406b3          	sub	a3,s0,a3
    8d64:	5686b683          	ld	a3,1384(a3) # 1568 <.LBB87_5+0xe8>
    8d68:	014686b3          	add	a3,a3,s4
    8d6c:	00d60633          	add	a2,a2,a3
    8d70:	42865613          	srai	a2,a2,0x28
    8d74:	bac43c23          	sd	a2,-1096(s0)
    8d78:	00c34663          	blt	t1,a2,8d84 <.LBB87_758>
    8d7c:	f7c00613          	li	a2,-132
    8d80:	bac43c23          	sd	a2,-1096(s0)

0000000000008d84 <.LBB87_758>:
    8d84:	00001637          	lui	a2,0x1
    8d88:	40c40633          	sub	a2,s0,a2
    8d8c:	6d863603          	ld	a2,1752(a2) # 16d8 <.LBB87_5+0x258>
    8d90:	03660633          	mul	a2,a2,s6
    8d94:	000016b7          	lui	a3,0x1
    8d98:	40d406b3          	sub	a3,s0,a3
    8d9c:	5c06b683          	ld	a3,1472(a3) # 15c0 <.LBB87_5+0x140>
    8da0:	014686b3          	add	a3,a3,s4
    8da4:	00d60633          	add	a2,a2,a3
    8da8:	42865613          	srai	a2,a2,0x28
    8dac:	bac43423          	sd	a2,-1112(s0)
    8db0:	00c34663          	blt	t1,a2,8dbc <.LBB87_760>
    8db4:	f7c00613          	li	a2,-132
    8db8:	bac43423          	sd	a2,-1112(s0)

0000000000008dbc <.LBB87_760>:
    8dbc:	00001637          	lui	a2,0x1
    8dc0:	40c40633          	sub	a2,s0,a2
    8dc4:	7e063603          	ld	a2,2016(a2) # 17e0 <.LBB87_5+0x360>
    8dc8:	03660633          	mul	a2,a2,s6
    8dcc:	000016b7          	lui	a3,0x1
    8dd0:	40d406b3          	sub	a3,s0,a3
    8dd4:	7d06b683          	ld	a3,2000(a3) # 17d0 <.LBB87_5+0x350>
    8dd8:	014686b3          	add	a3,a3,s4
    8ddc:	00d60633          	add	a2,a2,a3
    8de0:	42865613          	srai	a2,a2,0x28
    8de4:	b8c43c23          	sd	a2,-1128(s0)
    8de8:	00c34663          	blt	t1,a2,8df4 <.LBB87_762>
    8dec:	f7c00613          	li	a2,-132
    8df0:	b8c43c23          	sd	a2,-1128(s0)

0000000000008df4 <.LBB87_762>:
    8df4:	8d843603          	ld	a2,-1832(s0)
    8df8:	03660633          	mul	a2,a2,s6
    8dfc:	8d043683          	ld	a3,-1840(s0)
    8e00:	014686b3          	add	a3,a3,s4
    8e04:	00d60633          	add	a2,a2,a3
    8e08:	42865613          	srai	a2,a2,0x28
    8e0c:	b8c43423          	sd	a2,-1144(s0)
    8e10:	00c34663          	blt	t1,a2,8e1c <.LBB87_764>
    8e14:	f7c00613          	li	a2,-132
    8e18:	b8c43423          	sd	a2,-1144(s0)

0000000000008e1c <.LBB87_764>:
    8e1c:	93843603          	ld	a2,-1736(s0)
    8e20:	03660633          	mul	a2,a2,s6
    8e24:	92843683          	ld	a3,-1752(s0)
    8e28:	014686b3          	add	a3,a3,s4
    8e2c:	00d60633          	add	a2,a2,a3
    8e30:	42865613          	srai	a2,a2,0x28
    8e34:	b6c43c23          	sd	a2,-1160(s0)
    8e38:	00c34663          	blt	t1,a2,8e44 <.LBB87_766>
    8e3c:	f7c00613          	li	a2,-132
    8e40:	b6c43c23          	sd	a2,-1160(s0)

0000000000008e44 <.LBB87_766>:
    8e44:	96843603          	ld	a2,-1688(s0)
    8e48:	03660633          	mul	a2,a2,s6
    8e4c:	96043683          	ld	a3,-1696(s0)
    8e50:	014686b3          	add	a3,a3,s4
    8e54:	00d60633          	add	a2,a2,a3
    8e58:	42865613          	srai	a2,a2,0x28
    8e5c:	b6c43423          	sd	a2,-1176(s0)
    8e60:	00c34663          	blt	t1,a2,8e6c <.LBB87_768>
    8e64:	f7c00613          	li	a2,-132
    8e68:	b6c43423          	sd	a2,-1176(s0)

0000000000008e6c <.LBB87_768>:
    8e6c:	99843603          	ld	a2,-1640(s0)
    8e70:	03660633          	mul	a2,a2,s6
    8e74:	97043683          	ld	a3,-1680(s0)
    8e78:	014686b3          	add	a3,a3,s4
    8e7c:	00d60633          	add	a2,a2,a3
    8e80:	42865613          	srai	a2,a2,0x28
    8e84:	b4c43c23          	sd	a2,-1192(s0)
    8e88:	00c34663          	blt	t1,a2,8e94 <.LBB87_770>
    8e8c:	f7c00613          	li	a2,-132
    8e90:	b4c43c23          	sd	a2,-1192(s0)

0000000000008e94 <.LBB87_770>:
    8e94:	99043603          	ld	a2,-1648(s0)
    8e98:	03660633          	mul	a2,a2,s6
    8e9c:	97843683          	ld	a3,-1672(s0)
    8ea0:	014686b3          	add	a3,a3,s4
    8ea4:	00d60633          	add	a2,a2,a3
    8ea8:	42865613          	srai	a2,a2,0x28
    8eac:	b4c43423          	sd	a2,-1208(s0)
    8eb0:	00c34663          	blt	t1,a2,8ebc <.LBB87_772>
    8eb4:	f7c00613          	li	a2,-132
    8eb8:	b4c43423          	sd	a2,-1208(s0)

0000000000008ebc <.LBB87_772>:
    8ebc:	98843603          	ld	a2,-1656(s0)
    8ec0:	03660633          	mul	a2,a2,s6
    8ec4:	98043683          	ld	a3,-1664(s0)
    8ec8:	014686b3          	add	a3,a3,s4
    8ecc:	00d60633          	add	a2,a2,a3
    8ed0:	42865613          	srai	a2,a2,0x28
    8ed4:	b2c43c23          	sd	a2,-1224(s0)
    8ed8:	00c34663          	blt	t1,a2,8ee4 <.LBB87_774>
    8edc:	f7c00613          	li	a2,-132
    8ee0:	b2c43c23          	sd	a2,-1224(s0)

0000000000008ee4 <.LBB87_774>:
    8ee4:	036585b3          	mul	a1,a1,s6
    8ee8:	b8043603          	ld	a2,-1152(s0)
    8eec:	01460633          	add	a2,a2,s4
    8ef0:	00c585b3          	add	a1,a1,a2
    8ef4:	4285d593          	srai	a1,a1,0x28
    8ef8:	bcb43823          	sd	a1,-1072(s0)
    8efc:	00b34663          	blt	t1,a1,8f08 <.LBB87_776>
    8f00:	f7c00593          	li	a1,-132
    8f04:	bcb43823          	sd	a1,-1072(s0)

0000000000008f08 <.LBB87_776>:
    8f08:	000015b7          	lui	a1,0x1
    8f0c:	40b405b3          	sub	a1,s0,a1
    8f10:	bd05b583          	ld	a1,-1072(a1) # bd0 <.LBB87_3+0x964>
    8f14:	036585b3          	mul	a1,a1,s6
    8f18:	00001637          	lui	a2,0x1
    8f1c:	40c40633          	sub	a2,s0,a2
    8f20:	c2863603          	ld	a2,-984(a2) # c28 <.LBB87_3+0x9bc>
    8f24:	01460633          	add	a2,a2,s4
    8f28:	00c585b3          	add	a1,a1,a2
    8f2c:	4285d593          	srai	a1,a1,0x28
    8f30:	bcb43023          	sd	a1,-1088(s0)
    8f34:	00b34663          	blt	t1,a1,8f40 <.LBB87_778>
    8f38:	f7c00593          	li	a1,-132
    8f3c:	bcb43023          	sd	a1,-1088(s0)

0000000000008f40 <.LBB87_778>:
    8f40:	000015b7          	lui	a1,0x1
    8f44:	40b405b3          	sub	a1,s0,a1
    8f48:	bf05b583          	ld	a1,-1040(a1) # bf0 <.LBB87_3+0x984>
    8f4c:	036585b3          	mul	a1,a1,s6
    8f50:	b7043603          	ld	a2,-1168(s0)
    8f54:	01460633          	add	a2,a2,s4
    8f58:	00c585b3          	add	a1,a1,a2
    8f5c:	4285d593          	srai	a1,a1,0x28
    8f60:	bab43823          	sd	a1,-1104(s0)
    8f64:	00b34663          	blt	t1,a1,8f70 <.LBB87_780>
    8f68:	f7c00593          	li	a1,-132
    8f6c:	bab43823          	sd	a1,-1104(s0)

0000000000008f70 <.LBB87_780>:
    8f70:	000015b7          	lui	a1,0x1
    8f74:	40b405b3          	sub	a1,s0,a1
    8f78:	ce05b583          	ld	a1,-800(a1) # ce0 <.LBB87_3+0xa74>
    8f7c:	036585b3          	mul	a1,a1,s6
    8f80:	00001637          	lui	a2,0x1
    8f84:	40c40633          	sub	a2,s0,a2
    8f88:	cd063603          	ld	a2,-816(a2) # cd0 <.LBB87_3+0xa64>
    8f8c:	01460633          	add	a2,a2,s4
    8f90:	00c585b3          	add	a1,a1,a2
    8f94:	4285d593          	srai	a1,a1,0x28
    8f98:	bab43023          	sd	a1,-1120(s0)
    8f9c:	00b34663          	blt	t1,a1,8fa8 <.LBB87_782>
    8fa0:	f7c00593          	li	a1,-132
    8fa4:	bab43023          	sd	a1,-1120(s0)

0000000000008fa8 <.LBB87_782>:
    8fa8:	b6043583          	ld	a1,-1184(s0)
    8fac:	036585b3          	mul	a1,a1,s6
    8fb0:	00001637          	lui	a2,0x1
    8fb4:	40c40633          	sub	a2,s0,a2
    8fb8:	d4863603          	ld	a2,-696(a2) # d48 <.LBB87_3+0xadc>
    8fbc:	01460633          	add	a2,a2,s4
    8fc0:	00c585b3          	add	a1,a1,a2
    8fc4:	4285d593          	srai	a1,a1,0x28
    8fc8:	b8b43823          	sd	a1,-1136(s0)
    8fcc:	00b34663          	blt	t1,a1,8fd8 <.LBB87_784>
    8fd0:	f7c00593          	li	a1,-132
    8fd4:	b8b43823          	sd	a1,-1136(s0)

0000000000008fd8 <.LBB87_784>:
    8fd8:	000015b7          	lui	a1,0x1
    8fdc:	40b405b3          	sub	a1,s0,a1
    8fe0:	dd05b583          	ld	a1,-560(a1) # dd0 <.LBB87_3+0xb64>
    8fe4:	036585b3          	mul	a1,a1,s6
    8fe8:	00001637          	lui	a2,0x1
    8fec:	40c40633          	sub	a2,s0,a2
    8ff0:	db863603          	ld	a2,-584(a2) # db8 <.LBB87_3+0xb4c>
    8ff4:	01460633          	add	a2,a2,s4
    8ff8:	00c585b3          	add	a1,a1,a2
    8ffc:	4285d593          	srai	a1,a1,0x28
    9000:	b8b43023          	sd	a1,-1152(s0)
    9004:	00b34663          	blt	t1,a1,9010 <.LBB87_786>
    9008:	f7c00593          	li	a1,-132
    900c:	b8b43023          	sd	a1,-1152(s0)

0000000000009010 <.LBB87_786>:
    9010:	b5043583          	ld	a1,-1200(s0)
    9014:	036585b3          	mul	a1,a1,s6
    9018:	00001637          	lui	a2,0x1
    901c:	40c40633          	sub	a2,s0,a2
    9020:	e3063603          	ld	a2,-464(a2) # e30 <.LBB87_3+0xbc4>
    9024:	01460633          	add	a2,a2,s4
    9028:	00c585b3          	add	a1,a1,a2
    902c:	4285d593          	srai	a1,a1,0x28
    9030:	b6b43823          	sd	a1,-1168(s0)
    9034:	00b34663          	blt	t1,a1,9040 <.LBB87_788>
    9038:	f7c00593          	li	a1,-132
    903c:	b6b43823          	sd	a1,-1168(s0)

0000000000009040 <.LBB87_788>:
    9040:	000015b7          	lui	a1,0x1
    9044:	40b405b3          	sub	a1,s0,a1
    9048:	eb85b583          	ld	a1,-328(a1) # eb8 <.LBB87_3+0xc4c>
    904c:	036585b3          	mul	a1,a1,s6
    9050:	00001637          	lui	a2,0x1
    9054:	40c40633          	sub	a2,s0,a2
    9058:	ea063603          	ld	a2,-352(a2) # ea0 <.LBB87_3+0xc34>
    905c:	01460633          	add	a2,a2,s4
    9060:	00c585b3          	add	a1,a1,a2
    9064:	4285d593          	srai	a1,a1,0x28
    9068:	b6b43023          	sd	a1,-1184(s0)
    906c:	00b34663          	blt	t1,a1,9078 <.LBB87_790>
    9070:	f7c00593          	li	a1,-132
    9074:	b6b43023          	sd	a1,-1184(s0)

0000000000009078 <.LBB87_790>:
    9078:	b4043583          	ld	a1,-1216(s0)
    907c:	036585b3          	mul	a1,a1,s6
    9080:	00001637          	lui	a2,0x1
    9084:	40c40633          	sub	a2,s0,a2
    9088:	f1863603          	ld	a2,-232(a2) # f18 <.LBB87_4+0x54>
    908c:	01460633          	add	a2,a2,s4
    9090:	00c585b3          	add	a1,a1,a2
    9094:	4285d593          	srai	a1,a1,0x28
    9098:	b4b43823          	sd	a1,-1200(s0)
    909c:	00b34663          	blt	t1,a1,90a8 <.LBB87_792>
    90a0:	f7c00593          	li	a1,-132
    90a4:	b4b43823          	sd	a1,-1200(s0)

00000000000090a8 <.LBB87_792>:
    90a8:	000015b7          	lui	a1,0x1
    90ac:	40b405b3          	sub	a1,s0,a1
    90b0:	fa05b583          	ld	a1,-96(a1) # fa0 <.LBB87_4+0xdc>
    90b4:	036585b3          	mul	a1,a1,s6
    90b8:	00001637          	lui	a2,0x1
    90bc:	40c40633          	sub	a2,s0,a2
    90c0:	f8863603          	ld	a2,-120(a2) # f88 <.LBB87_4+0xc4>
    90c4:	01460633          	add	a2,a2,s4
    90c8:	00c585b3          	add	a1,a1,a2
    90cc:	4285d593          	srai	a1,a1,0x28
    90d0:	b4b43023          	sd	a1,-1216(s0)
    90d4:	00b34663          	blt	t1,a1,90e0 <.LBB87_794>
    90d8:	f7c00593          	li	a1,-132
    90dc:	b4b43023          	sd	a1,-1216(s0)

00000000000090e0 <.LBB87_794>:
    90e0:	b3043583          	ld	a1,-1232(s0)
    90e4:	036585b3          	mul	a1,a1,s6
    90e8:	00001637          	lui	a2,0x1
    90ec:	40c40633          	sub	a2,s0,a2
    90f0:	00863603          	ld	a2,8(a2) # 1008 <.LBB87_4+0x144>
    90f4:	01460633          	add	a2,a2,s4
    90f8:	00c585b3          	add	a1,a1,a2
    90fc:	4285d593          	srai	a1,a1,0x28
    9100:	b2b43823          	sd	a1,-1232(s0)
    9104:	00b34663          	blt	t1,a1,9110 <.LBB87_796>
    9108:	f7c00593          	li	a1,-132
    910c:	b2b43823          	sd	a1,-1232(s0)

0000000000009110 <.LBB87_796>:
    9110:	b2843583          	ld	a1,-1240(s0)
    9114:	036585b3          	mul	a1,a1,s6
    9118:	00001637          	lui	a2,0x1
    911c:	40c40633          	sub	a2,s0,a2
    9120:	08063603          	ld	a2,128(a2) # 1080 <.LBB87_4+0x1bc>
    9124:	01460633          	add	a2,a2,s4
    9128:	00c585b3          	add	a1,a1,a2
    912c:	4285d593          	srai	a1,a1,0x28
    9130:	b2b43423          	sd	a1,-1240(s0)
    9134:	00b34663          	blt	t1,a1,9140 <.LBB87_798>
    9138:	f7c00593          	li	a1,-132
    913c:	b2b43423          	sd	a1,-1240(s0)

0000000000009140 <.LBB87_798>:
    9140:	b2043583          	ld	a1,-1248(s0)
    9144:	036585b3          	mul	a1,a1,s6
    9148:	00001637          	lui	a2,0x1
    914c:	40c40633          	sub	a2,s0,a2
    9150:	0f863603          	ld	a2,248(a2) # 10f8 <.LBB87_4+0x234>
    9154:	01460633          	add	a2,a2,s4
    9158:	00c585b3          	add	a1,a1,a2
    915c:	4285d593          	srai	a1,a1,0x28
    9160:	b2b43023          	sd	a1,-1248(s0)
    9164:	00b34663          	blt	t1,a1,9170 <.LBB87_800>
    9168:	f7c00593          	li	a1,-132
    916c:	b2b43023          	sd	a1,-1248(s0)

0000000000009170 <.LBB87_800>:
    9170:	b1843583          	ld	a1,-1256(s0)
    9174:	036585b3          	mul	a1,a1,s6
    9178:	00001637          	lui	a2,0x1
    917c:	40c40633          	sub	a2,s0,a2
    9180:	17063603          	ld	a2,368(a2) # 1170 <.LBB87_4+0x2ac>
    9184:	01460633          	add	a2,a2,s4
    9188:	00c585b3          	add	a1,a1,a2
    918c:	4285d593          	srai	a1,a1,0x28
    9190:	b0b43c23          	sd	a1,-1256(s0)
    9194:	00b34663          	blt	t1,a1,91a0 <.LBB87_802>
    9198:	f7c00593          	li	a1,-132
    919c:	b0b43c23          	sd	a1,-1256(s0)

00000000000091a0 <.LBB87_802>:
    91a0:	b1043583          	ld	a1,-1264(s0)
    91a4:	036585b3          	mul	a1,a1,s6
    91a8:	00001637          	lui	a2,0x1
    91ac:	40c40633          	sub	a2,s0,a2
    91b0:	1e863603          	ld	a2,488(a2) # 11e8 <.LBB87_4+0x324>
    91b4:	01460633          	add	a2,a2,s4
    91b8:	00c585b3          	add	a1,a1,a2
    91bc:	4285d593          	srai	a1,a1,0x28
    91c0:	b0b43823          	sd	a1,-1264(s0)
    91c4:	00b34663          	blt	t1,a1,91d0 <.LBB87_804>
    91c8:	f7c00593          	li	a1,-132
    91cc:	b0b43823          	sd	a1,-1264(s0)

00000000000091d0 <.LBB87_804>:
    91d0:	b0843583          	ld	a1,-1272(s0)
    91d4:	036585b3          	mul	a1,a1,s6
    91d8:	00001637          	lui	a2,0x1
    91dc:	40c40633          	sub	a2,s0,a2
    91e0:	26063603          	ld	a2,608(a2) # 1260 <.LBB87_4+0x39c>
    91e4:	01460633          	add	a2,a2,s4
    91e8:	00c585b3          	add	a1,a1,a2
    91ec:	4285d593          	srai	a1,a1,0x28
    91f0:	b0b43423          	sd	a1,-1272(s0)
    91f4:	00b34663          	blt	t1,a1,9200 <.LBB87_806>
    91f8:	f7c00593          	li	a1,-132
    91fc:	b0b43423          	sd	a1,-1272(s0)

0000000000009200 <.LBB87_806>:
    9200:	b0043583          	ld	a1,-1280(s0)
    9204:	036585b3          	mul	a1,a1,s6
    9208:	a0843603          	ld	a2,-1528(s0)
    920c:	01460633          	add	a2,a2,s4
    9210:	00c585b3          	add	a1,a1,a2
    9214:	4285d593          	srai	a1,a1,0x28
    9218:	b0b43023          	sd	a1,-1280(s0)
    921c:	00b34663          	blt	t1,a1,9228 <.LBB87_808>
    9220:	f7c00593          	li	a1,-132
    9224:	b0b43023          	sd	a1,-1280(s0)

0000000000009228 <.LBB87_808>:
    9228:	af843583          	ld	a1,-1288(s0)
    922c:	036585b3          	mul	a1,a1,s6
    9230:	a1043603          	ld	a2,-1520(s0)
    9234:	01460633          	add	a2,a2,s4
    9238:	00c585b3          	add	a1,a1,a2
    923c:	4285d593          	srai	a1,a1,0x28
    9240:	aeb43c23          	sd	a1,-1288(s0)
    9244:	00b34663          	blt	t1,a1,9250 <.LBB87_810>
    9248:	f7c00593          	li	a1,-132
    924c:	aeb43c23          	sd	a1,-1288(s0)

0000000000009250 <.LBB87_810>:
    9250:	af043583          	ld	a1,-1296(s0)
    9254:	036585b3          	mul	a1,a1,s6
    9258:	a1843603          	ld	a2,-1512(s0)
    925c:	01460633          	add	a2,a2,s4
    9260:	00c585b3          	add	a1,a1,a2
    9264:	4285d593          	srai	a1,a1,0x28
    9268:	aeb43823          	sd	a1,-1296(s0)
    926c:	00b34663          	blt	t1,a1,9278 <.LBB87_812>
    9270:	f7c00593          	li	a1,-132
    9274:	aeb43823          	sd	a1,-1296(s0)

0000000000009278 <.LBB87_812>:
    9278:	ae843583          	ld	a1,-1304(s0)
    927c:	036585b3          	mul	a1,a1,s6
    9280:	a2043603          	ld	a2,-1504(s0)
    9284:	01460633          	add	a2,a2,s4
    9288:	00c585b3          	add	a1,a1,a2
    928c:	4285d593          	srai	a1,a1,0x28
    9290:	aeb43423          	sd	a1,-1304(s0)
    9294:	00b34663          	blt	t1,a1,92a0 <.LBB87_814>
    9298:	f7c00593          	li	a1,-132
    929c:	aeb43423          	sd	a1,-1304(s0)

00000000000092a0 <.LBB87_814>:
    92a0:	ae043583          	ld	a1,-1312(s0)
    92a4:	036585b3          	mul	a1,a1,s6
    92a8:	a2843603          	ld	a2,-1496(s0)
    92ac:	01460633          	add	a2,a2,s4
    92b0:	00c585b3          	add	a1,a1,a2
    92b4:	4285d593          	srai	a1,a1,0x28
    92b8:	aeb43023          	sd	a1,-1312(s0)
    92bc:	00b34663          	blt	t1,a1,92c8 <.LBB87_816>
    92c0:	f7c00593          	li	a1,-132
    92c4:	aeb43023          	sd	a1,-1312(s0)

00000000000092c8 <.LBB87_816>:
    92c8:	ad843583          	ld	a1,-1320(s0)
    92cc:	036585b3          	mul	a1,a1,s6
    92d0:	a3043603          	ld	a2,-1488(s0)
    92d4:	01460633          	add	a2,a2,s4
    92d8:	00c585b3          	add	a1,a1,a2
    92dc:	4285d593          	srai	a1,a1,0x28
    92e0:	acb43c23          	sd	a1,-1320(s0)
    92e4:	00b34663          	blt	t1,a1,92f0 <.LBB87_818>
    92e8:	f7c00593          	li	a1,-132
    92ec:	acb43c23          	sd	a1,-1320(s0)

00000000000092f0 <.LBB87_818>:
    92f0:	ad043583          	ld	a1,-1328(s0)
    92f4:	036585b3          	mul	a1,a1,s6
    92f8:	ac843603          	ld	a2,-1336(s0)
    92fc:	01460633          	add	a2,a2,s4
    9300:	00c585b3          	add	a1,a1,a2
    9304:	4285d593          	srai	a1,a1,0x28
    9308:	acb43423          	sd	a1,-1336(s0)
    930c:	00b34663          	blt	t1,a1,9318 <.LBB87_820>
    9310:	f7c00593          	li	a1,-132
    9314:	acb43423          	sd	a1,-1336(s0)

0000000000009318 <.LBB87_820>:
    9318:	ab843583          	ld	a1,-1352(s0)
    931c:	036585b3          	mul	a1,a1,s6
    9320:	a3843603          	ld	a2,-1480(s0)
    9324:	01460633          	add	a2,a2,s4
    9328:	00c585b3          	add	a1,a1,a2
    932c:	4285d593          	srai	a1,a1,0x28
    9330:	aab43c23          	sd	a1,-1352(s0)
    9334:	00b34663          	blt	t1,a1,9340 <.LBB87_822>
    9338:	f7c00593          	li	a1,-132
    933c:	aab43c23          	sd	a1,-1352(s0)

0000000000009340 <.LBB87_822>:
    9340:	ac043583          	ld	a1,-1344(s0)
    9344:	036585b3          	mul	a1,a1,s6
    9348:	aa843603          	ld	a2,-1368(s0)
    934c:	01460633          	add	a2,a2,s4
    9350:	00c585b3          	add	a1,a1,a2
    9354:	4285d593          	srai	a1,a1,0x28
    9358:	aab43423          	sd	a1,-1368(s0)
    935c:	00b34663          	blt	t1,a1,9368 <.LBB87_824>
    9360:	f7c00593          	li	a1,-132
    9364:	aab43423          	sd	a1,-1368(s0)

0000000000009368 <.LBB87_824>:
    9368:	a9843583          	ld	a1,-1384(s0)
    936c:	036585b3          	mul	a1,a1,s6
    9370:	a4043603          	ld	a2,-1472(s0)
    9374:	01460633          	add	a2,a2,s4
    9378:	00c585b3          	add	a1,a1,a2
    937c:	4285d593          	srai	a1,a1,0x28
    9380:	a8b43c23          	sd	a1,-1384(s0)
    9384:	00b34663          	blt	t1,a1,9390 <.LBB87_826>
    9388:	f7c00593          	li	a1,-132
    938c:	a8b43c23          	sd	a1,-1384(s0)

0000000000009390 <.LBB87_826>:
    9390:	ab043583          	ld	a1,-1360(s0)
    9394:	036585b3          	mul	a1,a1,s6
    9398:	a8843603          	ld	a2,-1400(s0)
    939c:	01460633          	add	a2,a2,s4
    93a0:	00c585b3          	add	a1,a1,a2
    93a4:	4285d593          	srai	a1,a1,0x28
    93a8:	a8b43423          	sd	a1,-1400(s0)
    93ac:	00b34663          	blt	t1,a1,93b8 <.LBB87_828>
    93b0:	f7c00593          	li	a1,-132
    93b4:	a8b43423          	sd	a1,-1400(s0)

00000000000093b8 <.LBB87_828>:
    93b8:	a7843583          	ld	a1,-1416(s0)
    93bc:	036585b3          	mul	a1,a1,s6
    93c0:	a4843603          	ld	a2,-1464(s0)
    93c4:	01460633          	add	a2,a2,s4
    93c8:	00c585b3          	add	a1,a1,a2
    93cc:	4285d593          	srai	a1,a1,0x28
    93d0:	a6b43c23          	sd	a1,-1416(s0)
    93d4:	00b34663          	blt	t1,a1,93e0 <.LBB87_830>
    93d8:	f7c00593          	li	a1,-132
    93dc:	a6b43c23          	sd	a1,-1416(s0)

00000000000093e0 <.LBB87_830>:
    93e0:	aa043583          	ld	a1,-1376(s0)
    93e4:	036585b3          	mul	a1,a1,s6
    93e8:	a6843603          	ld	a2,-1432(s0)
    93ec:	01460633          	add	a2,a2,s4
    93f0:	00c585b3          	add	a1,a1,a2
    93f4:	4285d593          	srai	a1,a1,0x28
    93f8:	a6b43423          	sd	a1,-1432(s0)
    93fc:	00b34663          	blt	t1,a1,9408 <.LBB87_832>
    9400:	f7c00593          	li	a1,-132
    9404:	a6b43423          	sd	a1,-1432(s0)

0000000000009408 <.LBB87_832>:
    9408:	a5843583          	ld	a1,-1448(s0)
    940c:	036585b3          	mul	a1,a1,s6
    9410:	a5043603          	ld	a2,-1456(s0)
    9414:	01460633          	add	a2,a2,s4
    9418:	00c585b3          	add	a1,a1,a2
    941c:	4285d593          	srai	a1,a1,0x28
    9420:	a4b43c23          	sd	a1,-1448(s0)
    9424:	00b34663          	blt	t1,a1,9430 <.LBB87_834>
    9428:	f7c00593          	li	a1,-132
    942c:	a4b43c23          	sd	a1,-1448(s0)

0000000000009430 <.LBB87_834>:
    9430:	a9043583          	ld	a1,-1392(s0)
    9434:	036585b3          	mul	a1,a1,s6
    9438:	a6043603          	ld	a2,-1440(s0)
    943c:	01460633          	add	a2,a2,s4
    9440:	00c585b3          	add	a1,a1,a2
    9444:	4285d593          	srai	a1,a1,0x28
    9448:	a4b43423          	sd	a1,-1464(s0)
    944c:	00b34663          	blt	t1,a1,9458 <.LBB87_836>
    9450:	f7c00593          	li	a1,-132
    9454:	a4b43423          	sd	a1,-1464(s0)

0000000000009458 <.LBB87_836>:
    9458:	a8043583          	ld	a1,-1408(s0)
    945c:	036585b3          	mul	a1,a1,s6
    9460:	a7043603          	ld	a2,-1424(s0)
    9464:	01460633          	add	a2,a2,s4
    9468:	00c585b3          	add	a1,a1,a2
    946c:	4285d593          	srai	a1,a1,0x28
    9470:	a2b43c23          	sd	a1,-1480(s0)
    9474:	00b34663          	blt	t1,a1,9480 <.LBB87_838>
    9478:	f7c00593          	li	a1,-132
    947c:	a2b43c23          	sd	a1,-1480(s0)

0000000000009480 <.LBB87_838>:
    9480:	036805b3          	mul	a1,a6,s6
    9484:	00001637          	lui	a2,0x1
    9488:	40c40633          	sub	a2,s0,a2
    948c:	b8863603          	ld	a2,-1144(a2) # b88 <.LBB87_3+0x91c>
    9490:	01460633          	add	a2,a2,s4
    9494:	00c585b3          	add	a1,a1,a2
    9498:	4285d593          	srai	a1,a1,0x28
    949c:	acb43823          	sd	a1,-1328(s0)
    94a0:	00b34663          	blt	t1,a1,94ac <.LBB87_840>
    94a4:	f7c00593          	li	a1,-132
    94a8:	acb43823          	sd	a1,-1328(s0)

00000000000094ac <.LBB87_840>:
    94ac:	03650533          	mul	a0,a0,s6
    94b0:	000015b7          	lui	a1,0x1
    94b4:	40b405b3          	sub	a1,s0,a1
    94b8:	c185b583          	ld	a1,-1000(a1) # c18 <.LBB87_3+0x9ac>
    94bc:	014585b3          	add	a1,a1,s4
    94c0:	00b50533          	add	a0,a0,a1
    94c4:	42855513          	srai	a0,a0,0x28
    94c8:	aca43023          	sd	a0,-1344(s0)
    94cc:	9c043603          	ld	a2,-1600(s0)
    94d0:	9b043683          	ld	a3,-1616(s0)
    94d4:	9a043703          	ld	a4,-1632(s0)
    94d8:	94843803          	ld	a6,-1720(s0)
    94dc:	00a34663          	blt	t1,a0,94e8 <.LBB87_842>
    94e0:	f7c00513          	li	a0,-132
    94e4:	aca43023          	sd	a0,-1344(s0)

00000000000094e8 <.LBB87_842>:
    94e8:	00001537          	lui	a0,0x1
    94ec:	40a40533          	sub	a0,s0,a0
    94f0:	bd853503          	ld	a0,-1064(a0) # bd8 <.LBB87_3+0x96c>
    94f4:	03650533          	mul	a0,a0,s6
    94f8:	000015b7          	lui	a1,0x1
    94fc:	40b405b3          	sub	a1,s0,a1
    9500:	c305b583          	ld	a1,-976(a1) # c30 <.LBB87_3+0x9c4>
    9504:	014585b3          	add	a1,a1,s4
    9508:	00b50533          	add	a0,a0,a1
    950c:	42855513          	srai	a0,a0,0x28
    9510:	aaa43823          	sd	a0,-1360(s0)
    9514:	00a34663          	blt	t1,a0,9520 <.LBB87_844>
    9518:	f7c00513          	li	a0,-132
    951c:	aaa43823          	sd	a0,-1360(s0)

0000000000009520 <.LBB87_844>:
    9520:	00001537          	lui	a0,0x1
    9524:	40a40533          	sub	a0,s0,a0
    9528:	bf853503          	ld	a0,-1032(a0) # bf8 <.LBB87_3+0x98c>
    952c:	03650533          	mul	a0,a0,s6
    9530:	000015b7          	lui	a1,0x1
    9534:	40b405b3          	sub	a1,s0,a1
    9538:	cc85b583          	ld	a1,-824(a1) # cc8 <.LBB87_3+0xa5c>
    953c:	014585b3          	add	a1,a1,s4
    9540:	00b50533          	add	a0,a0,a1
    9544:	42855513          	srai	a0,a0,0x28
    9548:	aaa43023          	sd	a0,-1376(s0)
    954c:	00a34663          	blt	t1,a0,9558 <.LBB87_846>
    9550:	f7c00513          	li	a0,-132
    9554:	aaa43023          	sd	a0,-1376(s0)

0000000000009558 <.LBB87_846>:
    9558:	00001537          	lui	a0,0x1
    955c:	40a40533          	sub	a0,s0,a0
    9560:	d5053503          	ld	a0,-688(a0) # d50 <.LBB87_3+0xae4>
    9564:	03650533          	mul	a0,a0,s6
    9568:	000015b7          	lui	a1,0x1
    956c:	40b405b3          	sub	a1,s0,a1
    9570:	d385b583          	ld	a1,-712(a1) # d38 <.LBB87_3+0xacc>
    9574:	014585b3          	add	a1,a1,s4
    9578:	00b50533          	add	a0,a0,a1
    957c:	42855513          	srai	a0,a0,0x28
    9580:	a8a43823          	sd	a0,-1392(s0)
    9584:	00a34663          	blt	t1,a0,9590 <.LBB87_848>
    9588:	f7c00513          	li	a0,-132
    958c:	a8a43823          	sd	a0,-1392(s0)

0000000000009590 <.LBB87_848>:
    9590:	00001537          	lui	a0,0x1
    9594:	40a40533          	sub	a0,s0,a0
    9598:	dc053503          	ld	a0,-576(a0) # dc0 <.LBB87_3+0xb54>
    959c:	03650533          	mul	a0,a0,s6
    95a0:	000015b7          	lui	a1,0x1
    95a4:	40b405b3          	sub	a1,s0,a1
    95a8:	da85b583          	ld	a1,-600(a1) # da8 <.LBB87_3+0xb3c>
    95ac:	014585b3          	add	a1,a1,s4
    95b0:	00b50533          	add	a0,a0,a1
    95b4:	42855513          	srai	a0,a0,0x28
    95b8:	a8a43023          	sd	a0,-1408(s0)
    95bc:	00a34663          	blt	t1,a0,95c8 <.LBB87_850>
    95c0:	f7c00513          	li	a0,-132
    95c4:	a8a43023          	sd	a0,-1408(s0)

00000000000095c8 <.LBB87_850>:
    95c8:	00001537          	lui	a0,0x1
    95cc:	40a40533          	sub	a0,s0,a0
    95d0:	e3853503          	ld	a0,-456(a0) # e38 <.LBB87_3+0xbcc>
    95d4:	03650533          	mul	a0,a0,s6
    95d8:	000015b7          	lui	a1,0x1
    95dc:	40b405b3          	sub	a1,s0,a1
    95e0:	e205b583          	ld	a1,-480(a1) # e20 <.LBB87_3+0xbb4>
    95e4:	014585b3          	add	a1,a1,s4
    95e8:	00b50533          	add	a0,a0,a1
    95ec:	42855513          	srai	a0,a0,0x28
    95f0:	a6a43823          	sd	a0,-1424(s0)
    95f4:	00a34663          	blt	t1,a0,9600 <.LBB87_852>
    95f8:	f7c00513          	li	a0,-132
    95fc:	a6a43823          	sd	a0,-1424(s0)

0000000000009600 <.LBB87_852>:
    9600:	00001537          	lui	a0,0x1
    9604:	40a40533          	sub	a0,s0,a0
    9608:	ea853503          	ld	a0,-344(a0) # ea8 <.LBB87_3+0xc3c>
    960c:	03650533          	mul	a0,a0,s6
    9610:	000015b7          	lui	a1,0x1
    9614:	40b405b3          	sub	a1,s0,a1
    9618:	e905b583          	ld	a1,-368(a1) # e90 <.LBB87_3+0xc24>
    961c:	014585b3          	add	a1,a1,s4
    9620:	00b50533          	add	a0,a0,a1
    9624:	42855513          	srai	a0,a0,0x28
    9628:	a6a43023          	sd	a0,-1440(s0)
    962c:	00a34663          	blt	t1,a0,9638 <.LBB87_854>
    9630:	f7c00513          	li	a0,-132
    9634:	a6a43023          	sd	a0,-1440(s0)

0000000000009638 <.LBB87_854>:
    9638:	00001537          	lui	a0,0x1
    963c:	40a40533          	sub	a0,s0,a0
    9640:	f2053503          	ld	a0,-224(a0) # f20 <.LBB87_4+0x5c>
    9644:	03650533          	mul	a0,a0,s6
    9648:	000015b7          	lui	a1,0x1
    964c:	40b405b3          	sub	a1,s0,a1
    9650:	f085b583          	ld	a1,-248(a1) # f08 <.LBB87_4+0x44>
    9654:	014585b3          	add	a1,a1,s4
    9658:	00b50533          	add	a0,a0,a1
    965c:	42855513          	srai	a0,a0,0x28
    9660:	a4a43823          	sd	a0,-1456(s0)
    9664:	00a34663          	blt	t1,a0,9670 <.LBB87_856>
    9668:	f7c00513          	li	a0,-132
    966c:	a4a43823          	sd	a0,-1456(s0)

0000000000009670 <.LBB87_856>:
    9670:	00001537          	lui	a0,0x1
    9674:	40a40533          	sub	a0,s0,a0
    9678:	f9053503          	ld	a0,-112(a0) # f90 <.LBB87_4+0xcc>
    967c:	03650533          	mul	a0,a0,s6
    9680:	000015b7          	lui	a1,0x1
    9684:	40b405b3          	sub	a1,s0,a1
    9688:	f785b583          	ld	a1,-136(a1) # f78 <.LBB87_4+0xb4>
    968c:	014585b3          	add	a1,a1,s4
    9690:	00b50533          	add	a0,a0,a1
    9694:	42855513          	srai	a0,a0,0x28
    9698:	a4a43023          	sd	a0,-1472(s0)
    969c:	00a34663          	blt	t1,a0,96a8 <.LBB87_858>
    96a0:	f7c00513          	li	a0,-132
    96a4:	a4a43023          	sd	a0,-1472(s0)

00000000000096a8 <.LBB87_858>:
    96a8:	00001537          	lui	a0,0x1
    96ac:	40a40533          	sub	a0,s0,a0
    96b0:	01053503          	ld	a0,16(a0) # 1010 <.LBB87_4+0x14c>
    96b4:	03650533          	mul	a0,a0,s6
    96b8:	000015b7          	lui	a1,0x1
    96bc:	40b405b3          	sub	a1,s0,a1
    96c0:	ff85b583          	ld	a1,-8(a1) # ff8 <.LBB87_4+0x134>
    96c4:	014585b3          	add	a1,a1,s4
    96c8:	00b50533          	add	a0,a0,a1
    96cc:	42855513          	srai	a0,a0,0x28
    96d0:	a2a43823          	sd	a0,-1488(s0)
    96d4:	00a34663          	blt	t1,a0,96e0 <.LBB87_860>
    96d8:	f7c00513          	li	a0,-132
    96dc:	a2a43823          	sd	a0,-1488(s0)

00000000000096e0 <.LBB87_860>:
    96e0:	00001537          	lui	a0,0x1
    96e4:	40a40533          	sub	a0,s0,a0
    96e8:	08853503          	ld	a0,136(a0) # 1088 <.LBB87_4+0x1c4>
    96ec:	03650533          	mul	a0,a0,s6
    96f0:	000015b7          	lui	a1,0x1
    96f4:	40b405b3          	sub	a1,s0,a1
    96f8:	0705b583          	ld	a1,112(a1) # 1070 <.LBB87_4+0x1ac>
    96fc:	014585b3          	add	a1,a1,s4
    9700:	00b50533          	add	a0,a0,a1
    9704:	42855513          	srai	a0,a0,0x28
    9708:	a2a43423          	sd	a0,-1496(s0)
    970c:	00a34663          	blt	t1,a0,9718 <.LBB87_862>
    9710:	f7c00513          	li	a0,-132
    9714:	a2a43423          	sd	a0,-1496(s0)

0000000000009718 <.LBB87_862>:
    9718:	00001537          	lui	a0,0x1
    971c:	40a40533          	sub	a0,s0,a0
    9720:	10053503          	ld	a0,256(a0) # 1100 <.LBB87_4+0x23c>
    9724:	03650533          	mul	a0,a0,s6
    9728:	000015b7          	lui	a1,0x1
    972c:	40b405b3          	sub	a1,s0,a1
    9730:	0e85b583          	ld	a1,232(a1) # 10e8 <.LBB87_4+0x224>
    9734:	014585b3          	add	a1,a1,s4
    9738:	00b50533          	add	a0,a0,a1
    973c:	42855513          	srai	a0,a0,0x28
    9740:	a2a43023          	sd	a0,-1504(s0)
    9744:	00a34663          	blt	t1,a0,9750 <.LBB87_864>
    9748:	f7c00513          	li	a0,-132
    974c:	a2a43023          	sd	a0,-1504(s0)

0000000000009750 <.LBB87_864>:
    9750:	00001537          	lui	a0,0x1
    9754:	40a40533          	sub	a0,s0,a0
    9758:	17853503          	ld	a0,376(a0) # 1178 <.LBB87_4+0x2b4>
    975c:	03650533          	mul	a0,a0,s6
    9760:	000015b7          	lui	a1,0x1
    9764:	40b405b3          	sub	a1,s0,a1
    9768:	1605b583          	ld	a1,352(a1) # 1160 <.LBB87_4+0x29c>
    976c:	014585b3          	add	a1,a1,s4
    9770:	00b50533          	add	a0,a0,a1
    9774:	42855513          	srai	a0,a0,0x28
    9778:	a0a43c23          	sd	a0,-1512(s0)
    977c:	00a34663          	blt	t1,a0,9788 <.LBB87_866>
    9780:	f7c00513          	li	a0,-132
    9784:	a0a43c23          	sd	a0,-1512(s0)

0000000000009788 <.LBB87_866>:
    9788:	00001537          	lui	a0,0x1
    978c:	40a40533          	sub	a0,s0,a0
    9790:	1f053503          	ld	a0,496(a0) # 11f0 <.LBB87_4+0x32c>
    9794:	03650533          	mul	a0,a0,s6
    9798:	000015b7          	lui	a1,0x1
    979c:	40b405b3          	sub	a1,s0,a1
    97a0:	1d85b583          	ld	a1,472(a1) # 11d8 <.LBB87_4+0x314>
    97a4:	014585b3          	add	a1,a1,s4
    97a8:	00b50533          	add	a0,a0,a1
    97ac:	42855513          	srai	a0,a0,0x28
    97b0:	a0a43823          	sd	a0,-1520(s0)
    97b4:	00a34663          	blt	t1,a0,97c0 <.LBB87_868>
    97b8:	f7c00513          	li	a0,-132
    97bc:	a0a43823          	sd	a0,-1520(s0)

00000000000097c0 <.LBB87_868>:
    97c0:	00001537          	lui	a0,0x1
    97c4:	40a40533          	sub	a0,s0,a0
    97c8:	26853503          	ld	a0,616(a0) # 1268 <.LBB87_4+0x3a4>
    97cc:	03650533          	mul	a0,a0,s6
    97d0:	000015b7          	lui	a1,0x1
    97d4:	40b405b3          	sub	a1,s0,a1
    97d8:	2485b583          	ld	a1,584(a1) # 1248 <.LBB87_4+0x384>
    97dc:	014585b3          	add	a1,a1,s4
    97e0:	00b50533          	add	a0,a0,a1
    97e4:	42855513          	srai	a0,a0,0x28
    97e8:	a0a43423          	sd	a0,-1528(s0)
    97ec:	00a34663          	blt	t1,a0,97f8 <.LBB87_870>
    97f0:	f7c00513          	li	a0,-132
    97f4:	a0a43423          	sd	a0,-1528(s0)

00000000000097f8 <.LBB87_870>:
    97f8:	00001537          	lui	a0,0x1
    97fc:	40a40533          	sub	a0,s0,a0
    9800:	2d053503          	ld	a0,720(a0) # 12d0 <.LBB87_4+0x40c>
    9804:	03650533          	mul	a0,a0,s6
    9808:	000015b7          	lui	a1,0x1
    980c:	40b405b3          	sub	a1,s0,a1
    9810:	2b85b583          	ld	a1,696(a1) # 12b8 <.LBB87_4+0x3f4>
    9814:	014585b3          	add	a1,a1,s4
    9818:	00b50533          	add	a0,a0,a1
    981c:	42855513          	srai	a0,a0,0x28
    9820:	a0a43023          	sd	a0,-1536(s0)
    9824:	00a34663          	blt	t1,a0,9830 <.LBB87_872>
    9828:	f7c00513          	li	a0,-132
    982c:	a0a43023          	sd	a0,-1536(s0)

0000000000009830 <.LBB87_872>:
    9830:	00001537          	lui	a0,0x1
    9834:	40a40533          	sub	a0,s0,a0
    9838:	33853503          	ld	a0,824(a0) # 1338 <.LBB87_4+0x474>
    983c:	03650533          	mul	a0,a0,s6
    9840:	000015b7          	lui	a1,0x1
    9844:	40b405b3          	sub	a1,s0,a1
    9848:	3205b583          	ld	a1,800(a1) # 1320 <.LBB87_4+0x45c>
    984c:	014585b3          	add	a1,a1,s4
    9850:	00b50533          	add	a0,a0,a1
    9854:	42855513          	srai	a0,a0,0x28
    9858:	9ea43c23          	sd	a0,-1544(s0)
    985c:	00a34663          	blt	t1,a0,9868 <.LBB87_874>
    9860:	f7c00513          	li	a0,-132
    9864:	9ea43c23          	sd	a0,-1544(s0)

0000000000009868 <.LBB87_874>:
    9868:	00001537          	lui	a0,0x1
    986c:	40a40533          	sub	a0,s0,a0
    9870:	39053503          	ld	a0,912(a0) # 1390 <.LBB87_4+0x4cc>
    9874:	03650533          	mul	a0,a0,s6
    9878:	000015b7          	lui	a1,0x1
    987c:	40b405b3          	sub	a1,s0,a1
    9880:	3805b583          	ld	a1,896(a1) # 1380 <.LBB87_4+0x4bc>
    9884:	014585b3          	add	a1,a1,s4
    9888:	00b50533          	add	a0,a0,a1
    988c:	42855513          	srai	a0,a0,0x28
    9890:	9ea43823          	sd	a0,-1552(s0)
    9894:	00a34663          	blt	t1,a0,98a0 <.LBB87_876>
    9898:	f7c00513          	li	a0,-132
    989c:	9ea43823          	sd	a0,-1552(s0)

00000000000098a0 <.LBB87_876>:
    98a0:	00001537          	lui	a0,0x1
    98a4:	40a40533          	sub	a0,s0,a0
    98a8:	3f853503          	ld	a0,1016(a0) # 13f8 <.LBB87_4+0x534>
    98ac:	03650533          	mul	a0,a0,s6
    98b0:	000015b7          	lui	a1,0x1
    98b4:	40b405b3          	sub	a1,s0,a1
    98b8:	3e85b583          	ld	a1,1000(a1) # 13e8 <.LBB87_4+0x524>
    98bc:	014585b3          	add	a1,a1,s4
    98c0:	00b50533          	add	a0,a0,a1
    98c4:	42855513          	srai	a0,a0,0x28
    98c8:	9ea43423          	sd	a0,-1560(s0)
    98cc:	00a34663          	blt	t1,a0,98d8 <.LBB87_878>
    98d0:	f7c00513          	li	a0,-132
    98d4:	9ea43423          	sd	a0,-1560(s0)

00000000000098d8 <.LBB87_878>:
    98d8:	00001537          	lui	a0,0x1
    98dc:	40a40533          	sub	a0,s0,a0
    98e0:	45053503          	ld	a0,1104(a0) # 1450 <.LBB87_4+0x58c>
    98e4:	03650533          	mul	a0,a0,s6
    98e8:	000015b7          	lui	a1,0x1
    98ec:	40b405b3          	sub	a1,s0,a1
    98f0:	4405b583          	ld	a1,1088(a1) # 1440 <.LBB87_4+0x57c>
    98f4:	014585b3          	add	a1,a1,s4
    98f8:	00b50533          	add	a0,a0,a1
    98fc:	42855513          	srai	a0,a0,0x28
    9900:	9ea43023          	sd	a0,-1568(s0)
    9904:	00a34663          	blt	t1,a0,9910 <.LBB87_880>
    9908:	f7c00513          	li	a0,-132
    990c:	9ea43023          	sd	a0,-1568(s0)

0000000000009910 <.LBB87_880>:
    9910:	00001537          	lui	a0,0x1
    9914:	40a40533          	sub	a0,s0,a0
    9918:	4a853503          	ld	a0,1192(a0) # 14a8 <.LBB87_5+0x28>
    991c:	03650533          	mul	a0,a0,s6
    9920:	000015b7          	lui	a1,0x1
    9924:	40b405b3          	sub	a1,s0,a1
    9928:	4985b583          	ld	a1,1176(a1) # 1498 <.LBB87_5+0x18>
    992c:	014585b3          	add	a1,a1,s4
    9930:	00b50533          	add	a0,a0,a1
    9934:	42855513          	srai	a0,a0,0x28
    9938:	9ca43c23          	sd	a0,-1576(s0)
    993c:	00a34663          	blt	t1,a0,9948 <.LBB87_882>
    9940:	f7c00513          	li	a0,-132
    9944:	9ca43c23          	sd	a0,-1576(s0)

0000000000009948 <.LBB87_882>:
    9948:	00001537          	lui	a0,0x1
    994c:	40a40533          	sub	a0,s0,a0
    9950:	50053503          	ld	a0,1280(a0) # 1500 <.LBB87_5+0x80>
    9954:	03650533          	mul	a0,a0,s6
    9958:	000015b7          	lui	a1,0x1
    995c:	40b405b3          	sub	a1,s0,a1
    9960:	4f05b583          	ld	a1,1264(a1) # 14f0 <.LBB87_5+0x70>
    9964:	014585b3          	add	a1,a1,s4
    9968:	00b50533          	add	a0,a0,a1
    996c:	42855513          	srai	a0,a0,0x28
    9970:	9ca43423          	sd	a0,-1592(s0)
    9974:	00a34663          	blt	t1,a0,9980 <.LBB87_884>
    9978:	f7c00513          	li	a0,-132
    997c:	9ca43423          	sd	a0,-1592(s0)

0000000000009980 <.LBB87_884>:
    9980:	00001537          	lui	a0,0x1
    9984:	40a40533          	sub	a0,s0,a0
    9988:	56053503          	ld	a0,1376(a0) # 1560 <.LBB87_5+0xe0>
    998c:	03650533          	mul	a0,a0,s6
    9990:	000015b7          	lui	a1,0x1
    9994:	40b405b3          	sub	a1,s0,a1
    9998:	5505b583          	ld	a1,1360(a1) # 1550 <.LBB87_5+0xd0>
    999c:	014585b3          	add	a1,a1,s4
    99a0:	00b50533          	add	a0,a0,a1
    99a4:	42855513          	srai	a0,a0,0x28
    99a8:	00a34463          	blt	t1,a0,99b0 <.LBB87_886>
    99ac:	f7c00513          	li	a0,-132

00000000000099b0 <.LBB87_886>:
    99b0:	000015b7          	lui	a1,0x1
    99b4:	40b405b3          	sub	a1,s0,a1
    99b8:	7ea5bc23          	sd	a0,2040(a1) # 17f8 <.LBB87_5+0x378>
    99bc:	00001537          	lui	a0,0x1
    99c0:	40a40533          	sub	a0,s0,a0
    99c4:	5b853503          	ld	a0,1464(a0) # 15b8 <.LBB87_5+0x138>
    99c8:	03650533          	mul	a0,a0,s6
    99cc:	000015b7          	lui	a1,0x1
    99d0:	40b405b3          	sub	a1,s0,a1
    99d4:	5a85b583          	ld	a1,1448(a1) # 15a8 <.LBB87_5+0x128>
    99d8:	014585b3          	add	a1,a1,s4
    99dc:	00b50533          	add	a0,a0,a1
    99e0:	42855513          	srai	a0,a0,0x28
    99e4:	00050893          	mv	a7,a0
    99e8:	00a34463          	blt	t1,a0,99f0 <.LBB87_888>
    99ec:	f7c00893          	li	a7,-132

00000000000099f0 <.LBB87_888>:
    99f0:	00001537          	lui	a0,0x1
    99f4:	40a40533          	sub	a0,s0,a0
    99f8:	7c853503          	ld	a0,1992(a0) # 17c8 <.LBB87_5+0x348>
    99fc:	03650533          	mul	a0,a0,s6
    9a00:	000015b7          	lui	a1,0x1
    9a04:	40b405b3          	sub	a1,s0,a1
    9a08:	7185b583          	ld	a1,1816(a1) # 1718 <.LBB87_5+0x298>
    9a0c:	014585b3          	add	a1,a1,s4
    9a10:	00b50533          	add	a0,a0,a1
    9a14:	42855513          	srai	a0,a0,0x28
    9a18:	00050913          	mv	s2,a0
    9a1c:	00a34463          	blt	t1,a0,9a24 <.LBB87_890>
    9a20:	f7c00913          	li	s2,-132

0000000000009a24 <.LBB87_890>:
    9a24:	00028993          	mv	s3,t0
    9a28:	8c843503          	ld	a0,-1848(s0)
    9a2c:	03650533          	mul	a0,a0,s6
    9a30:	8b843583          	ld	a1,-1864(s0)
    9a34:	014585b3          	add	a1,a1,s4
    9a38:	00b50533          	add	a0,a0,a1
    9a3c:	42855513          	srai	a0,a0,0x28
    9a40:	00050e93          	mv	t4,a0
    9a44:	00a34463          	blt	t1,a0,9a4c <.LBB87_892>
    9a48:	f7c00e93          	li	t4,-132

0000000000009a4c <.LBB87_892>:
    9a4c:	91843503          	ld	a0,-1768(s0)
    9a50:	03650533          	mul	a0,a0,s6
    9a54:	90843583          	ld	a1,-1784(s0)
    9a58:	014585b3          	add	a1,a1,s4
    9a5c:	00b50533          	add	a0,a0,a1
    9a60:	42855513          	srai	a0,a0,0x28
    9a64:	00050293          	mv	t0,a0
    9a68:	00a34463          	blt	t1,a0,9a70 <.LBB87_894>
    9a6c:	f7c00293          	li	t0,-132

0000000000009a70 <.LBB87_894>:
    9a70:	95843503          	ld	a0,-1704(s0)
    9a74:	03650533          	mul	a0,a0,s6
    9a78:	014805b3          	add	a1,a6,s4
    9a7c:	00b50533          	add	a0,a0,a1
    9a80:	42855513          	srai	a0,a0,0x28
    9a84:	00050b93          	mv	s7,a0
    9a88:	00a34463          	blt	t1,a0,9a90 <.LBB87_896>
    9a8c:	f7c00b93          	li	s7,-132

0000000000009a90 <.LBB87_896>:
    9a90:	9a843503          	ld	a0,-1624(s0)
    9a94:	03650533          	mul	a0,a0,s6
    9a98:	014705b3          	add	a1,a4,s4
    9a9c:	00b50533          	add	a0,a0,a1
    9aa0:	42855513          	srai	a0,a0,0x28
    9aa4:	00050c93          	mv	s9,a0
    9aa8:	00a34463          	blt	t1,a0,9ab0 <.LBB87_898>
    9aac:	f7c00c93          	li	s9,-132

0000000000009ab0 <.LBB87_898>:
    9ab0:	9b843503          	ld	a0,-1608(s0)
    9ab4:	03650533          	mul	a0,a0,s6
    9ab8:	014685b3          	add	a1,a3,s4
    9abc:	00b50533          	add	a0,a0,a1
    9ac0:	42855513          	srai	a0,a0,0x28
    9ac4:	00050d93          	mv	s11,a0
    9ac8:	00a34463          	blt	t1,a0,9ad0 <.LBB87_900>
    9acc:	f7c00d93          	li	s11,-132

0000000000009ad0 <.LBB87_900>:
    9ad0:	9d043503          	ld	a0,-1584(s0)
    9ad4:	03650533          	mul	a0,a0,s6
    9ad8:	014605b3          	add	a1,a2,s4
    9adc:	00b50533          	add	a0,a0,a1
    9ae0:	42855513          	srai	a0,a0,0x28
    9ae4:	9aa43c23          	sd	a0,-1608(s0)
    9ae8:	00a34663          	blt	t1,a0,9af4 <.LBB87_902>
    9aec:	f7c00513          	li	a0,-132
    9af0:	9aa43c23          	sd	a0,-1608(s0)

0000000000009af4 <.LBB87_902>:
    9af4:	03638533          	mul	a0,t2,s6
    9af8:	000015b7          	lui	a1,0x1
    9afc:	40b405b3          	sub	a1,s0,a1
    9b00:	b805b583          	ld	a1,-1152(a1) # b80 <.LBB87_3+0x914>
    9b04:	014585b3          	add	a1,a1,s4
    9b08:	00b50533          	add	a0,a0,a1
    9b0c:	42855513          	srai	a0,a0,0x28
    9b10:	9ca43823          	sd	a0,-1584(s0)
    9b14:	00a34663          	blt	t1,a0,9b20 <.LBB87_904>
    9b18:	f7c00513          	li	a0,-132
    9b1c:	9ca43823          	sd	a0,-1584(s0)

0000000000009b20 <.LBB87_904>:
    9b20:	00001537          	lui	a0,0x1
    9b24:	40a40533          	sub	a0,s0,a0
    9b28:	bc853503          	ld	a0,-1080(a0) # bc8 <.LBB87_3+0x95c>
    9b2c:	03650533          	mul	a0,a0,s6
    9b30:	000015b7          	lui	a1,0x1
    9b34:	40b405b3          	sub	a1,s0,a1
    9b38:	c085b583          	ld	a1,-1016(a1) # c08 <.LBB87_3+0x99c>
    9b3c:	014585b3          	add	a1,a1,s4
    9b40:	00b50533          	add	a0,a0,a1
    9b44:	42855513          	srai	a0,a0,0x28
    9b48:	9ca43023          	sd	a0,-1600(s0)
    9b4c:	00a34663          	blt	t1,a0,9b58 <.LBB87_906>
    9b50:	f7c00513          	li	a0,-132
    9b54:	9ca43023          	sd	a0,-1600(s0)

0000000000009b58 <.LBB87_906>:
    9b58:	00001537          	lui	a0,0x1
    9b5c:	40a40533          	sub	a0,s0,a0
    9b60:	be853503          	ld	a0,-1048(a0) # be8 <.LBB87_3+0x97c>
    9b64:	03650533          	mul	a0,a0,s6
    9b68:	000015b7          	lui	a1,0x1
    9b6c:	40b405b3          	sub	a1,s0,a1
    9b70:	c705b583          	ld	a1,-912(a1) # c70 <.LBB87_3+0xa04>
    9b74:	014585b3          	add	a1,a1,s4
    9b78:	00b50533          	add	a0,a0,a1
    9b7c:	42855513          	srai	a0,a0,0x28
    9b80:	94043603          	ld	a2,-1728(s0)
    9b84:	00050f93          	mv	t6,a0
    9b88:	92043683          	ld	a3,-1760(s0)
    9b8c:	00a34463          	blt	t1,a0,9b94 <.LBB87_908>
    9b90:	f7c00f93          	li	t6,-132

0000000000009b94 <.LBB87_908>:
    9b94:	00001537          	lui	a0,0x1
    9b98:	40a40533          	sub	a0,s0,a0
    9b9c:	c2053503          	ld	a0,-992(a0) # c20 <.LBB87_3+0x9b4>
    9ba0:	03650533          	mul	a0,a0,s6
    9ba4:	000015b7          	lui	a1,0x1
    9ba8:	40b405b3          	sub	a1,s0,a1
    9bac:	cb85b583          	ld	a1,-840(a1) # cb8 <.LBB87_3+0xa4c>
    9bb0:	014585b3          	add	a1,a1,s4
    9bb4:	00b50533          	add	a0,a0,a1
    9bb8:	42855513          	srai	a0,a0,0x28
    9bbc:	00050393          	mv	t2,a0
    9bc0:	00a34463          	blt	t1,a0,9bc8 <.LBB87_910>
    9bc4:	f7c00393          	li	t2,-132

0000000000009bc8 <.LBB87_910>:
    9bc8:	00001537          	lui	a0,0x1
    9bcc:	40a40533          	sub	a0,s0,a0
    9bd0:	d4053503          	ld	a0,-704(a0) # d40 <.LBB87_3+0xad4>
    9bd4:	03650533          	mul	a0,a0,s6
    9bd8:	000015b7          	lui	a1,0x1
    9bdc:	40b405b3          	sub	a1,s0,a1
    9be0:	d285b583          	ld	a1,-728(a1) # d28 <.LBB87_3+0xabc>
    9be4:	014585b3          	add	a1,a1,s4
    9be8:	00b50533          	add	a0,a0,a1
    9bec:	42855513          	srai	a0,a0,0x28
    9bf0:	00050e13          	mv	t3,a0
    9bf4:	00a34463          	blt	t1,a0,9bfc <.LBB87_912>
    9bf8:	f7c00e13          	li	t3,-132

0000000000009bfc <.LBB87_912>:
    9bfc:	00001537          	lui	a0,0x1
    9c00:	40a40533          	sub	a0,s0,a0
    9c04:	db053503          	ld	a0,-592(a0) # db0 <.LBB87_3+0xb44>
    9c08:	03650533          	mul	a0,a0,s6
    9c0c:	000015b7          	lui	a1,0x1
    9c10:	40b405b3          	sub	a1,s0,a1
    9c14:	da05b583          	ld	a1,-608(a1) # da0 <.LBB87_3+0xb34>
    9c18:	014585b3          	add	a1,a1,s4
    9c1c:	00b50533          	add	a0,a0,a1
    9c20:	42855513          	srai	a0,a0,0x28
    9c24:	00050f13          	mv	t5,a0
    9c28:	00a34463          	blt	t1,a0,9c30 <.LBB87_914>
    9c2c:	f7c00f13          	li	t5,-132

0000000000009c30 <.LBB87_914>:
    9c30:	00001537          	lui	a0,0x1
    9c34:	40a40533          	sub	a0,s0,a0
    9c38:	e2853503          	ld	a0,-472(a0) # e28 <.LBB87_3+0xbbc>
    9c3c:	03650533          	mul	a0,a0,s6
    9c40:	000015b7          	lui	a1,0x1
    9c44:	40b405b3          	sub	a1,s0,a1
    9c48:	e185b583          	ld	a1,-488(a1) # e18 <.LBB87_3+0xbac>
    9c4c:	014585b3          	add	a1,a1,s4
    9c50:	00b50533          	add	a0,a0,a1
    9c54:	42855513          	srai	a0,a0,0x28
    9c58:	00050a93          	mv	s5,a0
    9c5c:	00a34463          	blt	t1,a0,9c64 <.LBB87_916>
    9c60:	f7c00a93          	li	s5,-132

0000000000009c64 <.LBB87_916>:
    9c64:	00001537          	lui	a0,0x1
    9c68:	40a40533          	sub	a0,s0,a0
    9c6c:	e9853503          	ld	a0,-360(a0) # e98 <.LBB87_3+0xc2c>
    9c70:	03650533          	mul	a0,a0,s6
    9c74:	000015b7          	lui	a1,0x1
    9c78:	40b405b3          	sub	a1,s0,a1
    9c7c:	e885b583          	ld	a1,-376(a1) # e88 <.LBB87_3+0xc1c>
    9c80:	014585b3          	add	a1,a1,s4
    9c84:	00b50533          	add	a0,a0,a1
    9c88:	42855513          	srai	a0,a0,0x28
    9c8c:	00050c13          	mv	s8,a0
    9c90:	00a34463          	blt	t1,a0,9c98 <.LBB87_918>
    9c94:	f7c00c13          	li	s8,-132

0000000000009c98 <.LBB87_918>:
    9c98:	00001537          	lui	a0,0x1
    9c9c:	40a40533          	sub	a0,s0,a0
    9ca0:	f1053503          	ld	a0,-240(a0) # f10 <.LBB87_4+0x4c>
    9ca4:	03650533          	mul	a0,a0,s6
    9ca8:	000015b7          	lui	a1,0x1
    9cac:	40b405b3          	sub	a1,s0,a1
    9cb0:	f005b583          	ld	a1,-256(a1) # f00 <.LBB87_4+0x3c>
    9cb4:	014585b3          	add	a1,a1,s4
    9cb8:	00b50533          	add	a0,a0,a1
    9cbc:	42855513          	srai	a0,a0,0x28
    9cc0:	00050d13          	mv	s10,a0
    9cc4:	00a34463          	blt	t1,a0,9ccc <.LBB87_920>
    9cc8:	f7c00d13          	li	s10,-132

0000000000009ccc <.LBB87_920>:
    9ccc:	00001537          	lui	a0,0x1
    9cd0:	40a40533          	sub	a0,s0,a0
    9cd4:	f8053503          	ld	a0,-128(a0) # f80 <.LBB87_4+0xbc>
    9cd8:	03650533          	mul	a0,a0,s6
    9cdc:	000015b7          	lui	a1,0x1
    9ce0:	40b405b3          	sub	a1,s0,a1
    9ce4:	f705b583          	ld	a1,-144(a1) # f70 <.LBB87_4+0xac>
    9ce8:	014585b3          	add	a1,a1,s4
    9cec:	00b50533          	add	a0,a0,a1
    9cf0:	42855513          	srai	a0,a0,0x28
    9cf4:	00050093          	mv	ra,a0
    9cf8:	00a34463          	blt	t1,a0,9d00 <.LBB87_922>
    9cfc:	f7c00093          	li	ra,-132

0000000000009d00 <.LBB87_922>:
    9d00:	00001537          	lui	a0,0x1
    9d04:	40a40533          	sub	a0,s0,a0
    9d08:	00053503          	ld	a0,0(a0) # 1000 <.LBB87_4+0x13c>
    9d0c:	03650533          	mul	a0,a0,s6
    9d10:	000015b7          	lui	a1,0x1
    9d14:	40b405b3          	sub	a1,s0,a1
    9d18:	fe85b583          	ld	a1,-24(a1) # fe8 <.LBB87_4+0x124>
    9d1c:	014585b3          	add	a1,a1,s4
    9d20:	00b50533          	add	a0,a0,a1
    9d24:	42855513          	srai	a0,a0,0x28
    9d28:	9aa43823          	sd	a0,-1616(s0)
    9d2c:	00a34663          	blt	t1,a0,9d38 <.LBB87_924>
    9d30:	f7c00513          	li	a0,-132
    9d34:	9aa43823          	sd	a0,-1616(s0)

0000000000009d38 <.LBB87_924>:
    9d38:	00001537          	lui	a0,0x1
    9d3c:	40a40533          	sub	a0,s0,a0
    9d40:	07853503          	ld	a0,120(a0) # 1078 <.LBB87_4+0x1b4>
    9d44:	03650533          	mul	a0,a0,s6
    9d48:	000015b7          	lui	a1,0x1
    9d4c:	40b405b3          	sub	a1,s0,a1
    9d50:	0605b583          	ld	a1,96(a1) # 1060 <.LBB87_4+0x19c>
    9d54:	014585b3          	add	a1,a1,s4
    9d58:	00b50533          	add	a0,a0,a1
    9d5c:	42855513          	srai	a0,a0,0x28
    9d60:	9aa43423          	sd	a0,-1624(s0)
    9d64:	00a34663          	blt	t1,a0,9d70 <.LBB87_926>
    9d68:	f7c00513          	li	a0,-132
    9d6c:	9aa43423          	sd	a0,-1624(s0)

0000000000009d70 <.LBB87_926>:
    9d70:	00001537          	lui	a0,0x1
    9d74:	40a40533          	sub	a0,s0,a0
    9d78:	0f053503          	ld	a0,240(a0) # 10f0 <.LBB87_4+0x22c>
    9d7c:	03650533          	mul	a0,a0,s6
    9d80:	000015b7          	lui	a1,0x1
    9d84:	40b405b3          	sub	a1,s0,a1
    9d88:	0d85b583          	ld	a1,216(a1) # 10d8 <.LBB87_4+0x214>
    9d8c:	014585b3          	add	a1,a1,s4
    9d90:	00b50533          	add	a0,a0,a1
    9d94:	42855513          	srai	a0,a0,0x28
    9d98:	9aa43023          	sd	a0,-1632(s0)
    9d9c:	00a34663          	blt	t1,a0,9da8 <.LBB87_928>
    9da0:	f7c00513          	li	a0,-132
    9da4:	9aa43023          	sd	a0,-1632(s0)

0000000000009da8 <.LBB87_928>:
    9da8:	00001537          	lui	a0,0x1
    9dac:	40a40533          	sub	a0,s0,a0
    9db0:	16853503          	ld	a0,360(a0) # 1168 <.LBB87_4+0x2a4>
    9db4:	03650533          	mul	a0,a0,s6
    9db8:	000015b7          	lui	a1,0x1
    9dbc:	40b405b3          	sub	a1,s0,a1
    9dc0:	1505b583          	ld	a1,336(a1) # 1150 <.LBB87_4+0x28c>
    9dc4:	014585b3          	add	a1,a1,s4
    9dc8:	00b50533          	add	a0,a0,a1
    9dcc:	42855513          	srai	a0,a0,0x28
    9dd0:	98a43c23          	sd	a0,-1640(s0)
    9dd4:	00a34663          	blt	t1,a0,9de0 <.LBB87_930>
    9dd8:	f7c00513          	li	a0,-132
    9ddc:	98a43c23          	sd	a0,-1640(s0)

0000000000009de0 <.LBB87_930>:
    9de0:	00001537          	lui	a0,0x1
    9de4:	40a40533          	sub	a0,s0,a0
    9de8:	1e053503          	ld	a0,480(a0) # 11e0 <.LBB87_4+0x31c>
    9dec:	03650533          	mul	a0,a0,s6
    9df0:	000015b7          	lui	a1,0x1
    9df4:	40b405b3          	sub	a1,s0,a1
    9df8:	1c05b583          	ld	a1,448(a1) # 11c0 <.LBB87_4+0x2fc>
    9dfc:	014585b3          	add	a1,a1,s4
    9e00:	00b50533          	add	a0,a0,a1
    9e04:	42855513          	srai	a0,a0,0x28
    9e08:	98a43823          	sd	a0,-1648(s0)
    9e0c:	00a34663          	blt	t1,a0,9e18 <.LBB87_932>
    9e10:	f7c00513          	li	a0,-132
    9e14:	98a43823          	sd	a0,-1648(s0)

0000000000009e18 <.LBB87_932>:
    9e18:	00001537          	lui	a0,0x1
    9e1c:	40a40533          	sub	a0,s0,a0
    9e20:	25053503          	ld	a0,592(a0) # 1250 <.LBB87_4+0x38c>
    9e24:	03650533          	mul	a0,a0,s6
    9e28:	000015b7          	lui	a1,0x1
    9e2c:	40b405b3          	sub	a1,s0,a1
    9e30:	2305b583          	ld	a1,560(a1) # 1230 <.LBB87_4+0x36c>
    9e34:	014585b3          	add	a1,a1,s4
    9e38:	00b50533          	add	a0,a0,a1
    9e3c:	42855513          	srai	a0,a0,0x28
    9e40:	98a43423          	sd	a0,-1656(s0)
    9e44:	00a34663          	blt	t1,a0,9e50 <.LBB87_934>
    9e48:	f7c00513          	li	a0,-132
    9e4c:	98a43423          	sd	a0,-1656(s0)

0000000000009e50 <.LBB87_934>:
    9e50:	00001537          	lui	a0,0x1
    9e54:	40a40533          	sub	a0,s0,a0
    9e58:	2c853503          	ld	a0,712(a0) # 12c8 <.LBB87_4+0x404>
    9e5c:	03650533          	mul	a0,a0,s6
    9e60:	000015b7          	lui	a1,0x1
    9e64:	40b405b3          	sub	a1,s0,a1
    9e68:	2a85b583          	ld	a1,680(a1) # 12a8 <.LBB87_4+0x3e4>
    9e6c:	014585b3          	add	a1,a1,s4
    9e70:	00b50533          	add	a0,a0,a1
    9e74:	42855513          	srai	a0,a0,0x28
    9e78:	98a43023          	sd	a0,-1664(s0)
    9e7c:	00a34663          	blt	t1,a0,9e88 <.LBB87_936>
    9e80:	f7c00513          	li	a0,-132
    9e84:	98a43023          	sd	a0,-1664(s0)

0000000000009e88 <.LBB87_936>:
    9e88:	00001537          	lui	a0,0x1
    9e8c:	40a40533          	sub	a0,s0,a0
    9e90:	32853503          	ld	a0,808(a0) # 1328 <.LBB87_4+0x464>
    9e94:	03650533          	mul	a0,a0,s6
    9e98:	000015b7          	lui	a1,0x1
    9e9c:	40b405b3          	sub	a1,s0,a1
    9ea0:	3105b583          	ld	a1,784(a1) # 1310 <.LBB87_4+0x44c>
    9ea4:	014585b3          	add	a1,a1,s4
    9ea8:	00b50533          	add	a0,a0,a1
    9eac:	42855513          	srai	a0,a0,0x28
    9eb0:	96a43c23          	sd	a0,-1672(s0)
    9eb4:	00a34663          	blt	t1,a0,9ec0 <.LBB87_938>
    9eb8:	f7c00513          	li	a0,-132
    9ebc:	96a43c23          	sd	a0,-1672(s0)

0000000000009ec0 <.LBB87_938>:
    9ec0:	00001537          	lui	a0,0x1
    9ec4:	40a40533          	sub	a0,s0,a0
    9ec8:	38853503          	ld	a0,904(a0) # 1388 <.LBB87_4+0x4c4>
    9ecc:	03650533          	mul	a0,a0,s6
    9ed0:	000015b7          	lui	a1,0x1
    9ed4:	40b405b3          	sub	a1,s0,a1
    9ed8:	3785b583          	ld	a1,888(a1) # 1378 <.LBB87_4+0x4b4>
    9edc:	014585b3          	add	a1,a1,s4
    9ee0:	00b50533          	add	a0,a0,a1
    9ee4:	42855513          	srai	a0,a0,0x28
    9ee8:	96a43823          	sd	a0,-1680(s0)
    9eec:	00a34663          	blt	t1,a0,9ef8 <.LBB87_940>
    9ef0:	f7c00513          	li	a0,-132
    9ef4:	96a43823          	sd	a0,-1680(s0)

0000000000009ef8 <.LBB87_940>:
    9ef8:	00001537          	lui	a0,0x1
    9efc:	40a40533          	sub	a0,s0,a0
    9f00:	3f053503          	ld	a0,1008(a0) # 13f0 <.LBB87_4+0x52c>
    9f04:	03650533          	mul	a0,a0,s6
    9f08:	000015b7          	lui	a1,0x1
    9f0c:	40b405b3          	sub	a1,s0,a1
    9f10:	3d85b583          	ld	a1,984(a1) # 13d8 <.LBB87_4+0x514>
    9f14:	014585b3          	add	a1,a1,s4
    9f18:	00b50533          	add	a0,a0,a1
    9f1c:	42855513          	srai	a0,a0,0x28
    9f20:	96a43423          	sd	a0,-1688(s0)
    9f24:	00a34663          	blt	t1,a0,9f30 <.LBB87_942>
    9f28:	f7c00513          	li	a0,-132
    9f2c:	96a43423          	sd	a0,-1688(s0)

0000000000009f30 <.LBB87_942>:
    9f30:	00001537          	lui	a0,0x1
    9f34:	40a40533          	sub	a0,s0,a0
    9f38:	44853503          	ld	a0,1096(a0) # 1448 <.LBB87_4+0x584>
    9f3c:	03650533          	mul	a0,a0,s6
    9f40:	000015b7          	lui	a1,0x1
    9f44:	40b405b3          	sub	a1,s0,a1
    9f48:	4385b583          	ld	a1,1080(a1) # 1438 <.LBB87_4+0x574>
    9f4c:	014585b3          	add	a1,a1,s4
    9f50:	00b50533          	add	a0,a0,a1
    9f54:	42855513          	srai	a0,a0,0x28
    9f58:	96a43023          	sd	a0,-1696(s0)
    9f5c:	00a34663          	blt	t1,a0,9f68 <.LBB87_944>
    9f60:	f7c00513          	li	a0,-132
    9f64:	96a43023          	sd	a0,-1696(s0)

0000000000009f68 <.LBB87_944>:
    9f68:	00001537          	lui	a0,0x1
    9f6c:	40a40533          	sub	a0,s0,a0
    9f70:	4a053503          	ld	a0,1184(a0) # 14a0 <.LBB87_5+0x20>
    9f74:	03650533          	mul	a0,a0,s6
    9f78:	000015b7          	lui	a1,0x1
    9f7c:	40b405b3          	sub	a1,s0,a1
    9f80:	4905b583          	ld	a1,1168(a1) # 1490 <.LBB87_5+0x10>
    9f84:	014585b3          	add	a1,a1,s4
    9f88:	00b50533          	add	a0,a0,a1
    9f8c:	42855513          	srai	a0,a0,0x28
    9f90:	94a43c23          	sd	a0,-1704(s0)
    9f94:	00a34663          	blt	t1,a0,9fa0 <.LBB87_946>
    9f98:	f7c00513          	li	a0,-132
    9f9c:	94a43c23          	sd	a0,-1704(s0)

0000000000009fa0 <.LBB87_946>:
    9fa0:	00001537          	lui	a0,0x1
    9fa4:	40a40533          	sub	a0,s0,a0
    9fa8:	4f853503          	ld	a0,1272(a0) # 14f8 <.LBB87_5+0x78>
    9fac:	03650533          	mul	a0,a0,s6
    9fb0:	000015b7          	lui	a1,0x1
    9fb4:	40b405b3          	sub	a1,s0,a1
    9fb8:	4e85b583          	ld	a1,1256(a1) # 14e8 <.LBB87_5+0x68>
    9fbc:	014585b3          	add	a1,a1,s4
    9fc0:	00b50533          	add	a0,a0,a1
    9fc4:	42855513          	srai	a0,a0,0x28
    9fc8:	94a43423          	sd	a0,-1720(s0)
    9fcc:	00a34663          	blt	t1,a0,9fd8 <.LBB87_948>
    9fd0:	f7c00513          	li	a0,-132
    9fd4:	94a43423          	sd	a0,-1720(s0)

0000000000009fd8 <.LBB87_948>:
    9fd8:	00001537          	lui	a0,0x1
    9fdc:	40a40533          	sub	a0,s0,a0
    9fe0:	55853503          	ld	a0,1368(a0) # 1558 <.LBB87_5+0xd8>
    9fe4:	03650533          	mul	a0,a0,s6
    9fe8:	000015b7          	lui	a1,0x1
    9fec:	40b405b3          	sub	a1,s0,a1
    9ff0:	5485b583          	ld	a1,1352(a1) # 1548 <.LBB87_5+0xc8>
    9ff4:	014585b3          	add	a1,a1,s4
    9ff8:	00b50533          	add	a0,a0,a1
    9ffc:	42855513          	srai	a0,a0,0x28
    a000:	92a43c23          	sd	a0,-1736(s0)
    a004:	00a34663          	blt	t1,a0,a010 <.LBB87_950>
    a008:	f7c00513          	li	a0,-132
    a00c:	92a43c23          	sd	a0,-1736(s0)

000000000000a010 <.LBB87_950>:
    a010:	00001537          	lui	a0,0x1
    a014:	40a40533          	sub	a0,s0,a0
    a018:	5b053503          	ld	a0,1456(a0) # 15b0 <.LBB87_5+0x130>
    a01c:	03650533          	mul	a0,a0,s6
    a020:	000015b7          	lui	a1,0x1
    a024:	40b405b3          	sub	a1,s0,a1
    a028:	5a05b583          	ld	a1,1440(a1) # 15a0 <.LBB87_5+0x120>
    a02c:	014585b3          	add	a1,a1,s4
    a030:	00b50533          	add	a0,a0,a1
    a034:	42855513          	srai	a0,a0,0x28
    a038:	92a43423          	sd	a0,-1752(s0)
    a03c:	00a34663          	blt	t1,a0,a048 <.LBB87_952>
    a040:	f7c00513          	li	a0,-132
    a044:	92a43423          	sd	a0,-1752(s0)

000000000000a048 <.LBB87_952>:
    a048:	00001537          	lui	a0,0x1
    a04c:	40a40533          	sub	a0,s0,a0
    a050:	7c053503          	ld	a0,1984(a0) # 17c0 <.LBB87_5+0x340>
    a054:	03650533          	mul	a0,a0,s6
    a058:	000015b7          	lui	a1,0x1
    a05c:	40b405b3          	sub	a1,s0,a1
    a060:	7085b583          	ld	a1,1800(a1) # 1708 <.LBB87_5+0x288>
    a064:	014585b3          	add	a1,a1,s4
    a068:	00b50533          	add	a0,a0,a1
    a06c:	42855513          	srai	a0,a0,0x28
    a070:	90a43c23          	sd	a0,-1768(s0)
    a074:	00a34663          	blt	t1,a0,a080 <.LBB87_954>
    a078:	f7c00513          	li	a0,-132
    a07c:	90a43c23          	sd	a0,-1768(s0)

000000000000a080 <.LBB87_954>:
    a080:	8c043503          	ld	a0,-1856(s0)
    a084:	03650533          	mul	a0,a0,s6
    a088:	85043583          	ld	a1,-1968(s0)
    a08c:	014585b3          	add	a1,a1,s4
    a090:	00b50533          	add	a0,a0,a1
    a094:	42855513          	srai	a0,a0,0x28
    a098:	90a43423          	sd	a0,-1784(s0)
    a09c:	00a34663          	blt	t1,a0,a0a8 <.LBB87_956>
    a0a0:	f7c00513          	li	a0,-132
    a0a4:	90a43423          	sd	a0,-1784(s0)

000000000000a0a8 <.LBB87_956>:
    a0a8:	8f843503          	ld	a0,-1800(s0)
    a0ac:	03650533          	mul	a0,a0,s6
    a0b0:	8e043583          	ld	a1,-1824(s0)
    a0b4:	014585b3          	add	a1,a1,s4
    a0b8:	00b50533          	add	a0,a0,a1
    a0bc:	42855513          	srai	a0,a0,0x28
    a0c0:	8ea43c23          	sd	a0,-1800(s0)
    a0c4:	00a34663          	blt	t1,a0,a0d0 <.LBB87_958>
    a0c8:	f7c00513          	li	a0,-132
    a0cc:	8ea43c23          	sd	a0,-1800(s0)

000000000000a0d0 <.LBB87_958>:
    a0d0:	8f043503          	ld	a0,-1808(s0)
    a0d4:	03650533          	mul	a0,a0,s6
    a0d8:	8e843583          	ld	a1,-1816(s0)
    a0dc:	014585b3          	add	a1,a1,s4
    a0e0:	00b50533          	add	a0,a0,a1
    a0e4:	42855513          	srai	a0,a0,0x28
    a0e8:	8ea43423          	sd	a0,-1816(s0)
    a0ec:	00a34663          	blt	t1,a0,a0f8 <.LBB87_960>
    a0f0:	f7c00513          	li	a0,-132
    a0f4:	8ea43423          	sd	a0,-1816(s0)

000000000000a0f8 <.LBB87_960>:
    a0f8:	91043503          	ld	a0,-1776(s0)
    a0fc:	03650533          	mul	a0,a0,s6
    a100:	90043583          	ld	a1,-1792(s0)
    a104:	014585b3          	add	a1,a1,s4
    a108:	00b50533          	add	a0,a0,a1
    a10c:	42855513          	srai	a0,a0,0x28
    a110:	8ca43c23          	sd	a0,-1832(s0)
    a114:	00a34663          	blt	t1,a0,a120 <.LBB87_962>
    a118:	f7c00513          	li	a0,-132
    a11c:	8ca43c23          	sd	a0,-1832(s0)

000000000000a120 <.LBB87_962>:
    a120:	93043503          	ld	a0,-1744(s0)
    a124:	03650533          	mul	a0,a0,s6
    a128:	014685b3          	add	a1,a3,s4
    a12c:	00b50533          	add	a0,a0,a1
    a130:	42855513          	srai	a0,a0,0x28
    a134:	8ca43423          	sd	a0,-1848(s0)
    a138:	00a34663          	blt	t1,a0,a144 <.LBB87_964>
    a13c:	f7c00513          	li	a0,-132
    a140:	8ca43423          	sd	a0,-1848(s0)

000000000000a144 <.LBB87_964>:
    a144:	95043583          	ld	a1,-1712(s0)
    a148:	036585b3          	mul	a1,a1,s6
    a14c:	01460633          	add	a2,a2,s4
    a150:	00c585b3          	add	a1,a1,a2
    a154:	4285d593          	srai	a1,a1,0x28
    a158:	8ab43c23          	sd	a1,-1864(s0)
    a15c:	00b34663          	blt	t1,a1,a168 <.LBB87_966>
    a160:	f7c00513          	li	a0,-132
    a164:	8aa43c23          	sd	a0,-1864(s0)

000000000000a168 <.LBB87_966>:
    a168:	036485b3          	mul	a1,s1,s6
    a16c:	00001537          	lui	a0,0x1
    a170:	40a40533          	sub	a0,s0,a0
    a174:	68053603          	ld	a2,1664(a0) # 1680 <.LBB87_5+0x200>
    a178:	01460633          	add	a2,a2,s4
    a17c:	00c585b3          	add	a1,a1,a2
    a180:	4285d513          	srai	a0,a1,0x28
    a184:	00a34463          	blt	t1,a0,a18c <.LBB87_968>
    a188:	f7c00513          	li	a0,-132

000000000000a18c <.LBB87_968>:
    a18c:	036785b3          	mul	a1,a5,s6
    a190:	01498633          	add	a2,s3,s4
    a194:	00c585b3          	add	a1,a1,a2
    a198:	4285d593          	srai	a1,a1,0x28
    a19c:	81043483          	ld	s1,-2032(s0)
    a1a0:	94b43023          	sd	a1,-1728(s0)
    a1a4:	00b34663          	blt	t1,a1,a1b0 <.LBB87_970>
    a1a8:	f7c00593          	li	a1,-132
    a1ac:	94b43023          	sd	a1,-1728(s0)

000000000000a1b0 <.LBB87_970>:
    a1b0:	000015b7          	lui	a1,0x1
    a1b4:	40b405b3          	sub	a1,s0,a1
    a1b8:	c785b583          	ld	a1,-904(a1) # c78 <.LBB87_3+0xa0c>
    a1bc:	036585b3          	mul	a1,a1,s6
    a1c0:	00001637          	lui	a2,0x1
    a1c4:	40c40633          	sub	a2,s0,a2
    a1c8:	c6863603          	ld	a2,-920(a2) # c68 <.LBB87_3+0x9fc>
    a1cc:	01460633          	add	a2,a2,s4
    a1d0:	00c585b3          	add	a1,a1,a2
    a1d4:	4285d593          	srai	a1,a1,0x28
    a1d8:	92b43823          	sd	a1,-1744(s0)
    a1dc:	00b34663          	blt	t1,a1,a1e8 <.LBB87_972>
    a1e0:	f7c00593          	li	a1,-132
    a1e4:	92b43823          	sd	a1,-1744(s0)

000000000000a1e8 <.LBB87_972>:
    a1e8:	000015b7          	lui	a1,0x1
    a1ec:	40b405b3          	sub	a1,s0,a1
    a1f0:	cc05b583          	ld	a1,-832(a1) # cc0 <.LBB87_3+0xa54>
    a1f4:	036585b3          	mul	a1,a1,s6
    a1f8:	00001637          	lui	a2,0x1
    a1fc:	40c40633          	sub	a2,s0,a2
    a200:	cb063603          	ld	a2,-848(a2) # cb0 <.LBB87_3+0xa44>
    a204:	01460633          	add	a2,a2,s4
    a208:	00c585b3          	add	a1,a1,a2
    a20c:	4285d593          	srai	a1,a1,0x28
    a210:	92b43023          	sd	a1,-1760(s0)
    a214:	00b34663          	blt	t1,a1,a220 <.LBB87_974>
    a218:	f7c00593          	li	a1,-132
    a21c:	92b43023          	sd	a1,-1760(s0)

000000000000a220 <.LBB87_974>:
    a220:	000015b7          	lui	a1,0x1
    a224:	40b405b3          	sub	a1,s0,a1
    a228:	d305b583          	ld	a1,-720(a1) # d30 <.LBB87_3+0xac4>
    a22c:	036585b3          	mul	a1,a1,s6
    a230:	00001637          	lui	a2,0x1
    a234:	40c40633          	sub	a2,s0,a2
    a238:	d2063603          	ld	a2,-736(a2) # d20 <.LBB87_3+0xab4>
    a23c:	01460633          	add	a2,a2,s4
    a240:	00c585b3          	add	a1,a1,a2
    a244:	4285d593          	srai	a1,a1,0x28
    a248:	90b43823          	sd	a1,-1776(s0)
    a24c:	00b34663          	blt	t1,a1,a258 <.LBB87_976>
    a250:	f7c00593          	li	a1,-132
    a254:	90b43823          	sd	a1,-1776(s0)

000000000000a258 <.LBB87_976>:
    a258:	000015b7          	lui	a1,0x1
    a25c:	40b405b3          	sub	a1,s0,a1
    a260:	7585b583          	ld	a1,1880(a1) # 1758 <.LBB87_5+0x2d8>
    a264:	036585b3          	mul	a1,a1,s6
    a268:	00001637          	lui	a2,0x1
    a26c:	40c40633          	sub	a2,s0,a2
    a270:	d9863603          	ld	a2,-616(a2) # d98 <.LBB87_3+0xb2c>
    a274:	01460633          	add	a2,a2,s4
    a278:	00c585b3          	add	a1,a1,a2
    a27c:	4285d593          	srai	a1,a1,0x28
    a280:	90b43023          	sd	a1,-1792(s0)
    a284:	00b34663          	blt	t1,a1,a290 <.LBB87_978>
    a288:	f7c00593          	li	a1,-132
    a28c:	90b43023          	sd	a1,-1792(s0)

000000000000a290 <.LBB87_978>:
    a290:	000015b7          	lui	a1,0x1
    a294:	40b405b3          	sub	a1,s0,a1
    a298:	7505b583          	ld	a1,1872(a1) # 1750 <.LBB87_5+0x2d0>
    a29c:	036585b3          	mul	a1,a1,s6
    a2a0:	00001637          	lui	a2,0x1
    a2a4:	40c40633          	sub	a2,s0,a2
    a2a8:	e1063603          	ld	a2,-496(a2) # e10 <.LBB87_3+0xba4>
    a2ac:	01460633          	add	a2,a2,s4
    a2b0:	00c585b3          	add	a1,a1,a2
    a2b4:	4285d593          	srai	a1,a1,0x28
    a2b8:	8eb43823          	sd	a1,-1808(s0)
    a2bc:	00b34663          	blt	t1,a1,a2c8 <.LBB87_980>
    a2c0:	f7c00593          	li	a1,-132
    a2c4:	8eb43823          	sd	a1,-1808(s0)

000000000000a2c8 <.LBB87_980>:
    a2c8:	000015b7          	lui	a1,0x1
    a2cc:	40b405b3          	sub	a1,s0,a1
    a2d0:	7485b583          	ld	a1,1864(a1) # 1748 <.LBB87_5+0x2c8>
    a2d4:	036585b3          	mul	a1,a1,s6
    a2d8:	00001637          	lui	a2,0x1
    a2dc:	40c40633          	sub	a2,s0,a2
    a2e0:	e8063603          	ld	a2,-384(a2) # e80 <.LBB87_3+0xc14>
    a2e4:	01460633          	add	a2,a2,s4
    a2e8:	00c585b3          	add	a1,a1,a2
    a2ec:	4285d593          	srai	a1,a1,0x28
    a2f0:	8eb43023          	sd	a1,-1824(s0)
    a2f4:	00b34663          	blt	t1,a1,a300 <.LBB87_982>
    a2f8:	f7c00593          	li	a1,-132
    a2fc:	8eb43023          	sd	a1,-1824(s0)

000000000000a300 <.LBB87_982>:
    a300:	000015b7          	lui	a1,0x1
    a304:	40b405b3          	sub	a1,s0,a1
    a308:	7405b583          	ld	a1,1856(a1) # 1740 <.LBB87_5+0x2c0>
    a30c:	036585b3          	mul	a1,a1,s6
    a310:	00001637          	lui	a2,0x1
    a314:	40c40633          	sub	a2,s0,a2
    a318:	ef863603          	ld	a2,-264(a2) # ef8 <.LBB87_4+0x34>
    a31c:	01460633          	add	a2,a2,s4
    a320:	00c585b3          	add	a1,a1,a2
    a324:	4285d593          	srai	a1,a1,0x28
    a328:	8cb43823          	sd	a1,-1840(s0)
    a32c:	00b34663          	blt	t1,a1,a338 <.LBB87_984>
    a330:	f7c00593          	li	a1,-132
    a334:	8cb43823          	sd	a1,-1840(s0)

000000000000a338 <.LBB87_984>:
    a338:	000015b7          	lui	a1,0x1
    a33c:	40b405b3          	sub	a1,s0,a1
    a340:	7385b583          	ld	a1,1848(a1) # 1738 <.LBB87_5+0x2b8>
    a344:	036585b3          	mul	a1,a1,s6
    a348:	00001637          	lui	a2,0x1
    a34c:	40c40633          	sub	a2,s0,a2
    a350:	f6863603          	ld	a2,-152(a2) # f68 <.LBB87_4+0xa4>
    a354:	01460633          	add	a2,a2,s4
    a358:	00c585b3          	add	a1,a1,a2
    a35c:	4285d593          	srai	a1,a1,0x28
    a360:	8cb43023          	sd	a1,-1856(s0)
    a364:	00b34663          	blt	t1,a1,a370 <.LBB87_986>
    a368:	f7c00593          	li	a1,-132
    a36c:	8cb43023          	sd	a1,-1856(s0)

000000000000a370 <.LBB87_986>:
    a370:	000015b7          	lui	a1,0x1
    a374:	40b405b3          	sub	a1,s0,a1
    a378:	ff05b583          	ld	a1,-16(a1) # ff0 <.LBB87_4+0x12c>
    a37c:	036585b3          	mul	a1,a1,s6
    a380:	00001637          	lui	a2,0x1
    a384:	40c40633          	sub	a2,s0,a2
    a388:	fe063603          	ld	a2,-32(a2) # fe0 <.LBB87_4+0x11c>
    a38c:	01460633          	add	a2,a2,s4
    a390:	00c585b3          	add	a1,a1,a2
    a394:	4285d593          	srai	a1,a1,0x28
    a398:	8ab43823          	sd	a1,-1872(s0)
    a39c:	00b34663          	blt	t1,a1,a3a8 <.LBB87_988>
    a3a0:	f7c00593          	li	a1,-132
    a3a4:	8ab43823          	sd	a1,-1872(s0)

000000000000a3a8 <.LBB87_988>:
    a3a8:	000015b7          	lui	a1,0x1
    a3ac:	40b405b3          	sub	a1,s0,a1
    a3b0:	0685b583          	ld	a1,104(a1) # 1068 <.LBB87_4+0x1a4>
    a3b4:	036585b3          	mul	a1,a1,s6
    a3b8:	00001637          	lui	a2,0x1
    a3bc:	40c40633          	sub	a2,s0,a2
    a3c0:	05863603          	ld	a2,88(a2) # 1058 <.LBB87_4+0x194>
    a3c4:	01460633          	add	a2,a2,s4
    a3c8:	00c585b3          	add	a1,a1,a2
    a3cc:	4285d593          	srai	a1,a1,0x28
    a3d0:	8ab43423          	sd	a1,-1880(s0)
    a3d4:	00b34663          	blt	t1,a1,a3e0 <.LBB87_990>
    a3d8:	f7c00593          	li	a1,-132
    a3dc:	8ab43423          	sd	a1,-1880(s0)

000000000000a3e0 <.LBB87_990>:
    a3e0:	000015b7          	lui	a1,0x1
    a3e4:	40b405b3          	sub	a1,s0,a1
    a3e8:	0e05b583          	ld	a1,224(a1) # 10e0 <.LBB87_4+0x21c>
    a3ec:	036585b3          	mul	a1,a1,s6
    a3f0:	00001637          	lui	a2,0x1
    a3f4:	40c40633          	sub	a2,s0,a2
    a3f8:	0d063603          	ld	a2,208(a2) # 10d0 <.LBB87_4+0x20c>
    a3fc:	01460633          	add	a2,a2,s4
    a400:	00c585b3          	add	a1,a1,a2
    a404:	4285d593          	srai	a1,a1,0x28
    a408:	8ab43023          	sd	a1,-1888(s0)
    a40c:	00b34663          	blt	t1,a1,a418 <.LBB87_992>
    a410:	f7c00593          	li	a1,-132
    a414:	8ab43023          	sd	a1,-1888(s0)

000000000000a418 <.LBB87_992>:
    a418:	000015b7          	lui	a1,0x1
    a41c:	40b405b3          	sub	a1,s0,a1
    a420:	1585b583          	ld	a1,344(a1) # 1158 <.LBB87_4+0x294>
    a424:	036585b3          	mul	a1,a1,s6
    a428:	00001637          	lui	a2,0x1
    a42c:	40c40633          	sub	a2,s0,a2
    a430:	14063603          	ld	a2,320(a2) # 1140 <.LBB87_4+0x27c>
    a434:	01460633          	add	a2,a2,s4
    a438:	00c585b3          	add	a1,a1,a2
    a43c:	4285d593          	srai	a1,a1,0x28
    a440:	88b43c23          	sd	a1,-1896(s0)
    a444:	00b34663          	blt	t1,a1,a450 <.LBB87_994>
    a448:	f7c00593          	li	a1,-132
    a44c:	88b43c23          	sd	a1,-1896(s0)

000000000000a450 <.LBB87_994>:
    a450:	000015b7          	lui	a1,0x1
    a454:	40b405b3          	sub	a1,s0,a1
    a458:	1c85b583          	ld	a1,456(a1) # 11c8 <.LBB87_4+0x304>
    a45c:	036585b3          	mul	a1,a1,s6
    a460:	00001637          	lui	a2,0x1
    a464:	40c40633          	sub	a2,s0,a2
    a468:	1b063603          	ld	a2,432(a2) # 11b0 <.LBB87_4+0x2ec>
    a46c:	01460633          	add	a2,a2,s4
    a470:	00c585b3          	add	a1,a1,a2
    a474:	4285d593          	srai	a1,a1,0x28
    a478:	88b43823          	sd	a1,-1904(s0)
    a47c:	00b34663          	blt	t1,a1,a488 <.LBB87_996>
    a480:	f7c00593          	li	a1,-132
    a484:	88b43823          	sd	a1,-1904(s0)

000000000000a488 <.LBB87_996>:
    a488:	000015b7          	lui	a1,0x1
    a48c:	40b405b3          	sub	a1,s0,a1
    a490:	2405b583          	ld	a1,576(a1) # 1240 <.LBB87_4+0x37c>
    a494:	03658633          	mul	a2,a1,s6
    a498:	000015b7          	lui	a1,0x1
    a49c:	40b405b3          	sub	a1,s0,a1
    a4a0:	2285b683          	ld	a3,552(a1) # 1228 <.LBB87_4+0x364>
    a4a4:	014686b3          	add	a3,a3,s4
    a4a8:	00d60633          	add	a2,a2,a3
    a4ac:	42865613          	srai	a2,a2,0x28
    a4b0:	88c43423          	sd	a2,-1912(s0)
    a4b4:	00c34663          	blt	t1,a2,a4c0 <.LBB87_998>
    a4b8:	f7c00593          	li	a1,-132
    a4bc:	88b43423          	sd	a1,-1912(s0)

000000000000a4c0 <.LBB87_998>:
    a4c0:	94a43823          	sd	a0,-1712(s0)
    a4c4:	00001537          	lui	a0,0x1
    a4c8:	40a40533          	sub	a0,s0,a0
    a4cc:	2b053503          	ld	a0,688(a0) # 12b0 <.LBB87_4+0x3ec>
    a4d0:	03650633          	mul	a2,a0,s6
    a4d4:	00001537          	lui	a0,0x1
    a4d8:	40a40533          	sub	a0,s0,a0
    a4dc:	2a053683          	ld	a3,672(a0) # 12a0 <.LBB87_4+0x3dc>
    a4e0:	014686b3          	add	a3,a3,s4
    a4e4:	00d60633          	add	a2,a2,a3
    a4e8:	42865613          	srai	a2,a2,0x28
    a4ec:	88c43023          	sd	a2,-1920(s0)
    a4f0:	00c34663          	blt	t1,a2,a4fc <.LBB87_1000>
    a4f4:	f7c00513          	li	a0,-132
    a4f8:	88a43023          	sd	a0,-1920(s0)

000000000000a4fc <.LBB87_1000>:
    a4fc:	00001537          	lui	a0,0x1
    a500:	40a40533          	sub	a0,s0,a0
    a504:	31853503          	ld	a0,792(a0) # 1318 <.LBB87_4+0x454>
    a508:	036506b3          	mul	a3,a0,s6
    a50c:	00001537          	lui	a0,0x1
    a510:	40a40533          	sub	a0,s0,a0
    a514:	30853703          	ld	a4,776(a0) # 1308 <.LBB87_4+0x444>
    a518:	01470733          	add	a4,a4,s4
    a51c:	00e686b3          	add	a3,a3,a4
    a520:	4286d693          	srai	a3,a3,0x28
    a524:	86d43c23          	sd	a3,-1928(s0)
    a528:	00d34663          	blt	t1,a3,a534 <.LBB87_1002>
    a52c:	f7c00513          	li	a0,-132
    a530:	86a43c23          	sd	a0,-1928(s0)

000000000000a534 <.LBB87_1002>:
    a534:	00001537          	lui	a0,0x1
    a538:	40a40533          	sub	a0,s0,a0
    a53c:	6f053503          	ld	a0,1776(a0) # 16f0 <.LBB87_5+0x270>
    a540:	03650733          	mul	a4,a0,s6
    a544:	00001537          	lui	a0,0x1
    a548:	40a40533          	sub	a0,s0,a0
    a54c:	37053783          	ld	a5,880(a0) # 1370 <.LBB87_4+0x4ac>
    a550:	014787b3          	add	a5,a5,s4
    a554:	00f70733          	add	a4,a4,a5
    a558:	42875713          	srai	a4,a4,0x28
    a55c:	86e43823          	sd	a4,-1936(s0)
    a560:	00e34663          	blt	t1,a4,a56c <.LBB87_1004>
    a564:	f7c00513          	li	a0,-132
    a568:	86a43823          	sd	a0,-1936(s0)

000000000000a56c <.LBB87_1004>:
    a56c:	00001537          	lui	a0,0x1
    a570:	40a40533          	sub	a0,s0,a0
    a574:	3e053503          	ld	a0,992(a0) # 13e0 <.LBB87_4+0x51c>
    a578:	03650733          	mul	a4,a0,s6
    a57c:	00001537          	lui	a0,0x1
    a580:	40a40533          	sub	a0,s0,a0
    a584:	3d053783          	ld	a5,976(a0) # 13d0 <.LBB87_4+0x50c>
    a588:	014787b3          	add	a5,a5,s4
    a58c:	00f70733          	add	a4,a4,a5
    a590:	42875713          	srai	a4,a4,0x28
    a594:	86e43423          	sd	a4,-1944(s0)
    a598:	00e34663          	blt	t1,a4,a5a4 <.LBB87_1006>
    a59c:	f7c00513          	li	a0,-132
    a5a0:	86a43423          	sd	a0,-1944(s0)

000000000000a5a4 <.LBB87_1006>:
    a5a4:	00001537          	lui	a0,0x1
    a5a8:	40a40533          	sub	a0,s0,a0
    a5ac:	69053503          	ld	a0,1680(a0) # 1690 <.LBB87_5+0x210>
    a5b0:	03650733          	mul	a4,a0,s6
    a5b4:	00001537          	lui	a0,0x1
    a5b8:	40a40533          	sub	a0,s0,a0
    a5bc:	68853783          	ld	a5,1672(a0) # 1688 <.LBB87_5+0x208>
    a5c0:	014787b3          	add	a5,a5,s4
    a5c4:	00f70733          	add	a4,a4,a5
    a5c8:	42875713          	srai	a4,a4,0x28
    a5cc:	86e43023          	sd	a4,-1952(s0)
    a5d0:	00e34663          	blt	t1,a4,a5dc <.LBB87_1008>
    a5d4:	f7c00513          	li	a0,-132
    a5d8:	86a43023          	sd	a0,-1952(s0)

000000000000a5dc <.LBB87_1008>:
    a5dc:	00001537          	lui	a0,0x1
    a5e0:	40a40533          	sub	a0,s0,a0
    a5e4:	65853703          	ld	a4,1624(a0) # 1658 <.LBB87_5+0x1d8>
    a5e8:	00001537          	lui	a0,0x1
    a5ec:	40a40533          	sub	a0,s0,a0
    a5f0:	6a053503          	ld	a0,1696(a0) # 16a0 <.LBB87_5+0x220>
    a5f4:	02e50733          	mul	a4,a0,a4
    a5f8:	00001537          	lui	a0,0x1
    a5fc:	40a40533          	sub	a0,s0,a0
    a600:	69853783          	ld	a5,1688(a0) # 1698 <.LBB87_5+0x218>
    a604:	014787b3          	add	a5,a5,s4
    a608:	00f70733          	add	a4,a4,a5
    a60c:	42875713          	srai	a4,a4,0x28
    a610:	84e43c23          	sd	a4,-1960(s0)
    a614:	00e34663          	blt	t1,a4,a620 <.LBB87_1010>
    a618:	f7c00513          	li	a0,-132
    a61c:	84a43c23          	sd	a0,-1960(s0)

000000000000a620 <.LBB87_1010>:
    a620:	00001537          	lui	a0,0x1
    a624:	40a40533          	sub	a0,s0,a0
    a628:	65853703          	ld	a4,1624(a0) # 1658 <.LBB87_5+0x1d8>
    a62c:	00001537          	lui	a0,0x1
    a630:	40a40533          	sub	a0,s0,a0
    a634:	6d053503          	ld	a0,1744(a0) # 16d0 <.LBB87_5+0x250>
    a638:	02e50733          	mul	a4,a0,a4
    a63c:	00001537          	lui	a0,0x1
    a640:	40a40533          	sub	a0,s0,a0
    a644:	6a853783          	ld	a5,1704(a0) # 16a8 <.LBB87_5+0x228>
    a648:	014787b3          	add	a5,a5,s4
    a64c:	00f70733          	add	a4,a4,a5
    a650:	42875713          	srai	a4,a4,0x28
    a654:	84e43823          	sd	a4,-1968(s0)
    a658:	00e34663          	blt	t1,a4,a664 <.LBB87_1012>
    a65c:	f7c00513          	li	a0,-132
    a660:	84a43823          	sd	a0,-1968(s0)

000000000000a664 <.LBB87_1012>:
    a664:	00001537          	lui	a0,0x1
    a668:	40a40533          	sub	a0,s0,a0
    a66c:	65853703          	ld	a4,1624(a0) # 1658 <.LBB87_5+0x1d8>
    a670:	00001537          	lui	a0,0x1
    a674:	40a40533          	sub	a0,s0,a0
    a678:	6b853503          	ld	a0,1720(a0) # 16b8 <.LBB87_5+0x238>
    a67c:	02e50733          	mul	a4,a0,a4
    a680:	00001537          	lui	a0,0x1
    a684:	40a40533          	sub	a0,s0,a0
    a688:	6b053783          	ld	a5,1712(a0) # 16b0 <.LBB87_5+0x230>
    a68c:	014787b3          	add	a5,a5,s4
    a690:	00f70733          	add	a4,a4,a5
    a694:	42875613          	srai	a2,a4,0x28
    a698:	00c34463          	blt	t1,a2,a6a0 <.LBB87_1014>
    a69c:	f7c00613          	li	a2,-132

000000000000a6a0 <.LBB87_1014>:
    a6a0:	00001537          	lui	a0,0x1
    a6a4:	40a40533          	sub	a0,s0,a0
    a6a8:	65853703          	ld	a4,1624(a0) # 1658 <.LBB87_5+0x1d8>
    a6ac:	00001537          	lui	a0,0x1
    a6b0:	40a40533          	sub	a0,s0,a0
    a6b4:	6c853503          	ld	a0,1736(a0) # 16c8 <.LBB87_5+0x248>
    a6b8:	02e50733          	mul	a4,a0,a4
    a6bc:	00001537          	lui	a0,0x1
    a6c0:	40a40533          	sub	a0,s0,a0
    a6c4:	6c053783          	ld	a5,1728(a0) # 16c0 <.LBB87_5+0x240>
    a6c8:	014787b3          	add	a5,a5,s4
    a6cc:	00f70733          	add	a4,a4,a5
    a6d0:	42875b13          	srai	s6,a4,0x28
    a6d4:	01634463          	blt	t1,s6,a6dc <.LBB87_1016>
    a6d8:	f7c00b13          	li	s6,-132

000000000000a6dc <.LBB87_1016>:
    a6dc:	00001537          	lui	a0,0x1
    a6e0:	40a40533          	sub	a0,s0,a0
    a6e4:	65853703          	ld	a4,1624(a0) # 1658 <.LBB87_5+0x1d8>
    a6e8:	00001537          	lui	a0,0x1
    a6ec:	40a40533          	sub	a0,s0,a0
    a6f0:	71053503          	ld	a0,1808(a0) # 1710 <.LBB87_5+0x290>
    a6f4:	02e50733          	mul	a4,a0,a4
    a6f8:	00001537          	lui	a0,0x1
    a6fc:	40a40533          	sub	a0,s0,a0
    a700:	70053783          	ld	a5,1792(a0) # 1700 <.LBB87_5+0x280>
    a704:	014787b3          	add	a5,a5,s4
    a708:	00f70733          	add	a4,a4,a5
    a70c:	42875693          	srai	a3,a4,0x28
    a710:	00d34463          	blt	t1,a3,a718 <.LBB87_1018>
    a714:	f7c00693          	li	a3,-132

000000000000a718 <.LBB87_1018>:
    a718:	00001537          	lui	a0,0x1
    a71c:	40a40533          	sub	a0,s0,a0
    a720:	65853703          	ld	a4,1624(a0) # 1658 <.LBB87_5+0x1d8>
    a724:	00001537          	lui	a0,0x1
    a728:	40a40533          	sub	a0,s0,a0
    a72c:	7f053503          	ld	a0,2032(a0) # 17f0 <.LBB87_5+0x370>
    a730:	02e50733          	mul	a4,a0,a4
    a734:	00001537          	lui	a0,0x1
    a738:	40a40533          	sub	a0,s0,a0
    a73c:	7e853783          	ld	a5,2024(a0) # 17e8 <.LBB87_5+0x368>
    a740:	014787b3          	add	a5,a5,s4
    a744:	00f70733          	add	a4,a4,a5
    a748:	42875793          	srai	a5,a4,0x28
    a74c:	00f34463          	blt	t1,a5,a754 <.LBB87_1020>
    a750:	f7c00793          	li	a5,-132

000000000000a754 <.LBB87_1020>:
    a754:	00001537          	lui	a0,0x1
    a758:	40a40533          	sub	a0,s0,a0
    a75c:	65853703          	ld	a4,1624(a0) # 1658 <.LBB87_5+0x1d8>
    a760:	80843503          	ld	a0,-2040(s0)
    a764:	02e50733          	mul	a4,a0,a4
    a768:	80043803          	ld	a6,-2048(s0)
    a76c:	01480833          	add	a6,a6,s4
    a770:	01070733          	add	a4,a4,a6
    a774:	42875813          	srai	a6,a4,0x28
    a778:	01034463          	blt	t1,a6,a780 <.LBB87_1022>
    a77c:	f7c00813          	li	a6,-132

000000000000a780 <.LBB87_1022>:
    a780:	00001537          	lui	a0,0x1
    a784:	40a40533          	sub	a0,s0,a0
    a788:	65853703          	ld	a4,1624(a0) # 1658 <.LBB87_5+0x1d8>
    a78c:	81843503          	ld	a0,-2024(s0)
    a790:	02e50733          	mul	a4,a0,a4
    a794:	014484b3          	add	s1,s1,s4
    a798:	00970733          	add	a4,a4,s1
    a79c:	42875a13          	srai	s4,a4,0x28
    a7a0:	01434463          	blt	t1,s4,a7a8 <.LBB87_1024>
    a7a4:	f7c00a13          	li	s4,-132

000000000000a7a8 <.LBB87_1024>:
    a7a8:	00001537          	lui	a0,0x1
    a7ac:	40a40533          	sub	a0,s0,a0
    a7b0:	65853703          	ld	a4,1624(a0) # 1658 <.LBB87_5+0x1d8>
    a7b4:	82843503          	ld	a0,-2008(s0)
    a7b8:	02e50733          	mul	a4,a0,a4
    a7bc:	e5843483          	ld	s1,-424(s0)
    a7c0:	82043503          	ld	a0,-2016(s0)
    a7c4:	009504b3          	add	s1,a0,s1
    a7c8:	00970733          	add	a4,a4,s1
    a7cc:	42875493          	srai	s1,a4,0x28
    a7d0:	00934463          	blt	t1,s1,a7d8 <.LBB87_1026>
    a7d4:	f7c00493          	li	s1,-132

000000000000a7d8 <.LBB87_1026>:
    a7d8:	00001537          	lui	a0,0x1
    a7dc:	40a40533          	sub	a0,s0,a0
    a7e0:	65853703          	ld	a4,1624(a0) # 1658 <.LBB87_5+0x1d8>
    a7e4:	83843503          	ld	a0,-1992(s0)
    a7e8:	02e50733          	mul	a4,a0,a4
    a7ec:	e5843983          	ld	s3,-424(s0)
    a7f0:	83043503          	ld	a0,-2000(s0)
    a7f4:	013509b3          	add	s3,a0,s3
    a7f8:	01370733          	add	a4,a4,s3
    a7fc:	42875593          	srai	a1,a4,0x28
    a800:	00b34463          	blt	t1,a1,a808 <.LBB87_1028>
    a804:	f7c00593          	li	a1,-132

000000000000a808 <.LBB87_1028>:
    a808:	00001537          	lui	a0,0x1
    a80c:	40a40533          	sub	a0,s0,a0
    a810:	65853703          	ld	a4,1624(a0) # 1658 <.LBB87_5+0x1d8>
    a814:	84843983          	ld	s3,-1976(s0)
    a818:	02e98733          	mul	a4,s3,a4
    a81c:	e5843983          	ld	s3,-424(s0)
    a820:	84043503          	ld	a0,-1984(s0)
    a824:	013509b3          	add	s3,a0,s3
    a828:	01370733          	add	a4,a4,s3
    a82c:	42875993          	srai	s3,a4,0x28
    a830:	01334463          	blt	t1,s3,a838 <.LBB87_1030>
    a834:	f7c00993          	li	s3,-132

000000000000a838 <.LBB87_1030>:
    a838:	07b00313          	li	t1,123
    a83c:	d6043703          	ld	a4,-672(s0)
    a840:	00001537          	lui	a0,0x1
    a844:	40a40533          	sub	a0,s0,a0
    a848:	7f853503          	ld	a0,2040(a0) # 17f8 <.LBB87_5+0x378>
    a84c:	7a675463          	bge	a4,t1,aff4 <.LBB87_1286>
    a850:	e4843703          	ld	a4,-440(s0)
    a854:	85f43423          	sd	t6,-1976(s0)
    a858:	7a675863          	bge	a4,t1,b008 <.LBB87_1287>

000000000000a85c <.LBB87_1032>:
    a85c:	e6043703          	ld	a4,-416(s0)
    a860:	7a675c63          	bge	a4,t1,b018 <.LBB87_1288>

000000000000a864 <.LBB87_1033>:
    a864:	e7043703          	ld	a4,-400(s0)
    a868:	7c675063          	bge	a4,t1,b028 <.LBB87_1289>

000000000000a86c <.LBB87_1034>:
    a86c:	e8043703          	ld	a4,-384(s0)
    a870:	7c675463          	bge	a4,t1,b038 <.LBB87_1290>

000000000000a874 <.LBB87_1035>:
    a874:	e9043703          	ld	a4,-368(s0)
    a878:	7c675863          	bge	a4,t1,b048 <.LBB87_1291>

000000000000a87c <.LBB87_1036>:
    a87c:	ea043703          	ld	a4,-352(s0)
    a880:	7c675c63          	bge	a4,t1,b058 <.LBB87_1292>

000000000000a884 <.LBB87_1037>:
    a884:	eb043703          	ld	a4,-336(s0)
    a888:	7e675063          	bge	a4,t1,b068 <.LBB87_1293>

000000000000a88c <.LBB87_1038>:
    a88c:	ec043703          	ld	a4,-320(s0)
    a890:	7e675463          	bge	a4,t1,b078 <.LBB87_1294>

000000000000a894 <.LBB87_1039>:
    a894:	ed043703          	ld	a4,-304(s0)
    a898:	7e675863          	bge	a4,t1,b088 <.LBB87_1295>

000000000000a89c <.LBB87_1040>:
    a89c:	ee043703          	ld	a4,-288(s0)
    a8a0:	7e675c63          	bge	a4,t1,b098 <.LBB87_1296>

000000000000a8a4 <.LBB87_1041>:
    a8a4:	ee843703          	ld	a4,-280(s0)
    a8a8:	006750e3          	bge	a4,t1,b0a8 <.LBB87_1297>

000000000000a8ac <.LBB87_1042>:
    a8ac:	ef043703          	ld	a4,-272(s0)
    a8b0:	006754e3          	bge	a4,t1,b0b8 <.LBB87_1298>

000000000000a8b4 <.LBB87_1043>:
    a8b4:	ef843703          	ld	a4,-264(s0)
    a8b8:	006758e3          	bge	a4,t1,b0c8 <.LBB87_1299>

000000000000a8bc <.LBB87_1044>:
    a8bc:	f0043703          	ld	a4,-256(s0)
    a8c0:	00675ce3          	bge	a4,t1,b0d8 <.LBB87_1300>

000000000000a8c4 <.LBB87_1045>:
    a8c4:	f0843703          	ld	a4,-248(s0)
    a8c8:	026750e3          	bge	a4,t1,b0e8 <.LBB87_1301>

000000000000a8cc <.LBB87_1046>:
    a8cc:	f1043703          	ld	a4,-240(s0)
    a8d0:	026754e3          	bge	a4,t1,b0f8 <.LBB87_1302>

000000000000a8d4 <.LBB87_1047>:
    a8d4:	f1843703          	ld	a4,-232(s0)
    a8d8:	026758e3          	bge	a4,t1,b108 <.LBB87_1303>

000000000000a8dc <.LBB87_1048>:
    a8dc:	f2043703          	ld	a4,-224(s0)
    a8e0:	02675ce3          	bge	a4,t1,b118 <.LBB87_1304>

000000000000a8e4 <.LBB87_1049>:
    a8e4:	f2843703          	ld	a4,-216(s0)
    a8e8:	046750e3          	bge	a4,t1,b128 <.LBB87_1305>

000000000000a8ec <.LBB87_1050>:
    a8ec:	f3043703          	ld	a4,-208(s0)
    a8f0:	046754e3          	bge	a4,t1,b138 <.LBB87_1306>

000000000000a8f4 <.LBB87_1051>:
    a8f4:	f3843703          	ld	a4,-200(s0)
    a8f8:	046758e3          	bge	a4,t1,b148 <.LBB87_1307>

000000000000a8fc <.LBB87_1052>:
    a8fc:	f4043703          	ld	a4,-192(s0)
    a900:	04675ce3          	bge	a4,t1,b158 <.LBB87_1308>

000000000000a904 <.LBB87_1053>:
    a904:	f4843703          	ld	a4,-184(s0)
    a908:	066750e3          	bge	a4,t1,b168 <.LBB87_1309>

000000000000a90c <.LBB87_1054>:
    a90c:	f5043703          	ld	a4,-176(s0)
    a910:	066754e3          	bge	a4,t1,b178 <.LBB87_1310>

000000000000a914 <.LBB87_1055>:
    a914:	f5843703          	ld	a4,-168(s0)
    a918:	066758e3          	bge	a4,t1,b188 <.LBB87_1311>

000000000000a91c <.LBB87_1056>:
    a91c:	f6043703          	ld	a4,-160(s0)
    a920:	06675ce3          	bge	a4,t1,b198 <.LBB87_1312>

000000000000a924 <.LBB87_1057>:
    a924:	f6843703          	ld	a4,-152(s0)
    a928:	086750e3          	bge	a4,t1,b1a8 <.LBB87_1313>

000000000000a92c <.LBB87_1058>:
    a92c:	f7043703          	ld	a4,-144(s0)
    a930:	086754e3          	bge	a4,t1,b1b8 <.LBB87_1314>

000000000000a934 <.LBB87_1059>:
    a934:	f7843703          	ld	a4,-136(s0)
    a938:	086758e3          	bge	a4,t1,b1c8 <.LBB87_1315>

000000000000a93c <.LBB87_1060>:
    a93c:	f8043703          	ld	a4,-128(s0)
    a940:	08675ce3          	bge	a4,t1,b1d8 <.LBB87_1316>

000000000000a944 <.LBB87_1061>:
    a944:	f8843703          	ld	a4,-120(s0)
    a948:	0a6750e3          	bge	a4,t1,b1e8 <.LBB87_1317>

000000000000a94c <.LBB87_1062>:
    a94c:	d3843703          	ld	a4,-712(s0)
    a950:	0a6754e3          	bge	a4,t1,b1f8 <.LBB87_1318>

000000000000a954 <.LBB87_1063>:
    a954:	d4843703          	ld	a4,-696(s0)
    a958:	0a6758e3          	bge	a4,t1,b208 <.LBB87_1319>

000000000000a95c <.LBB87_1064>:
    a95c:	d5843703          	ld	a4,-680(s0)
    a960:	0a675ce3          	bge	a4,t1,b218 <.LBB87_1320>

000000000000a964 <.LBB87_1065>:
    a964:	d7043703          	ld	a4,-656(s0)
    a968:	0c6750e3          	bge	a4,t1,b228 <.LBB87_1321>

000000000000a96c <.LBB87_1066>:
    a96c:	d8043703          	ld	a4,-640(s0)
    a970:	0c6754e3          	bge	a4,t1,b238 <.LBB87_1322>

000000000000a974 <.LBB87_1067>:
    a974:	d9043703          	ld	a4,-624(s0)
    a978:	0c6758e3          	bge	a4,t1,b248 <.LBB87_1323>

000000000000a97c <.LBB87_1068>:
    a97c:	da043703          	ld	a4,-608(s0)
    a980:	0c675ce3          	bge	a4,t1,b258 <.LBB87_1324>

000000000000a984 <.LBB87_1069>:
    a984:	db043703          	ld	a4,-592(s0)
    a988:	0e6750e3          	bge	a4,t1,b268 <.LBB87_1325>

000000000000a98c <.LBB87_1070>:
    a98c:	dc043703          	ld	a4,-576(s0)
    a990:	0e6754e3          	bge	a4,t1,b278 <.LBB87_1326>

000000000000a994 <.LBB87_1071>:
    a994:	dd043703          	ld	a4,-560(s0)
    a998:	0e6758e3          	bge	a4,t1,b288 <.LBB87_1327>

000000000000a99c <.LBB87_1072>:
    a99c:	de043703          	ld	a4,-544(s0)
    a9a0:	0e675ce3          	bge	a4,t1,b298 <.LBB87_1328>

000000000000a9a4 <.LBB87_1073>:
    a9a4:	de843703          	ld	a4,-536(s0)
    a9a8:	106750e3          	bge	a4,t1,b2a8 <.LBB87_1329>

000000000000a9ac <.LBB87_1074>:
    a9ac:	df043703          	ld	a4,-528(s0)
    a9b0:	106754e3          	bge	a4,t1,b2b8 <.LBB87_1330>

000000000000a9b4 <.LBB87_1075>:
    a9b4:	df843703          	ld	a4,-520(s0)
    a9b8:	106758e3          	bge	a4,t1,b2c8 <.LBB87_1331>

000000000000a9bc <.LBB87_1076>:
    a9bc:	e0043703          	ld	a4,-512(s0)
    a9c0:	10675ce3          	bge	a4,t1,b2d8 <.LBB87_1332>

000000000000a9c4 <.LBB87_1077>:
    a9c4:	e0843703          	ld	a4,-504(s0)
    a9c8:	126750e3          	bge	a4,t1,b2e8 <.LBB87_1333>

000000000000a9cc <.LBB87_1078>:
    a9cc:	e1043703          	ld	a4,-496(s0)
    a9d0:	126754e3          	bge	a4,t1,b2f8 <.LBB87_1334>

000000000000a9d4 <.LBB87_1079>:
    a9d4:	e1843703          	ld	a4,-488(s0)
    a9d8:	126758e3          	bge	a4,t1,b308 <.LBB87_1335>

000000000000a9dc <.LBB87_1080>:
    a9dc:	e2043703          	ld	a4,-480(s0)
    a9e0:	12675ce3          	bge	a4,t1,b318 <.LBB87_1336>

000000000000a9e4 <.LBB87_1081>:
    a9e4:	e2843703          	ld	a4,-472(s0)
    a9e8:	146750e3          	bge	a4,t1,b328 <.LBB87_1337>

000000000000a9ec <.LBB87_1082>:
    a9ec:	e3043703          	ld	a4,-464(s0)
    a9f0:	146754e3          	bge	a4,t1,b338 <.LBB87_1338>

000000000000a9f4 <.LBB87_1083>:
    a9f4:	e3843703          	ld	a4,-456(s0)
    a9f8:	146758e3          	bge	a4,t1,b348 <.LBB87_1339>

000000000000a9fc <.LBB87_1084>:
    a9fc:	e4043703          	ld	a4,-448(s0)
    aa00:	14675ce3          	bge	a4,t1,b358 <.LBB87_1340>

000000000000aa04 <.LBB87_1085>:
    aa04:	e5043703          	ld	a4,-432(s0)
    aa08:	166750e3          	bge	a4,t1,b368 <.LBB87_1341>

000000000000aa0c <.LBB87_1086>:
    aa0c:	e6843703          	ld	a4,-408(s0)
    aa10:	166754e3          	bge	a4,t1,b378 <.LBB87_1342>

000000000000aa14 <.LBB87_1087>:
    aa14:	e7843703          	ld	a4,-392(s0)
    aa18:	166758e3          	bge	a4,t1,b388 <.LBB87_1343>

000000000000aa1c <.LBB87_1088>:
    aa1c:	e8843703          	ld	a4,-376(s0)
    aa20:	16675ce3          	bge	a4,t1,b398 <.LBB87_1344>

000000000000aa24 <.LBB87_1089>:
    aa24:	e9843703          	ld	a4,-360(s0)
    aa28:	186750e3          	bge	a4,t1,b3a8 <.LBB87_1345>

000000000000aa2c <.LBB87_1090>:
    aa2c:	ea843703          	ld	a4,-344(s0)
    aa30:	186754e3          	bge	a4,t1,b3b8 <.LBB87_1346>

000000000000aa34 <.LBB87_1091>:
    aa34:	eb843703          	ld	a4,-328(s0)
    aa38:	186758e3          	bge	a4,t1,b3c8 <.LBB87_1347>

000000000000aa3c <.LBB87_1092>:
    aa3c:	ec843703          	ld	a4,-312(s0)
    aa40:	18675ce3          	bge	a4,t1,b3d8 <.LBB87_1348>

000000000000aa44 <.LBB87_1093>:
    aa44:	ed843703          	ld	a4,-296(s0)
    aa48:	1a6750e3          	bge	a4,t1,b3e8 <.LBB87_1349>

000000000000aa4c <.LBB87_1094>:
    aa4c:	c3843703          	ld	a4,-968(s0)
    aa50:	1a6754e3          	bge	a4,t1,b3f8 <.LBB87_1350>

000000000000aa54 <.LBB87_1095>:
    aa54:	c4843703          	ld	a4,-952(s0)
    aa58:	1a6758e3          	bge	a4,t1,b408 <.LBB87_1351>

000000000000aa5c <.LBB87_1096>:
    aa5c:	c5843703          	ld	a4,-936(s0)
    aa60:	1a675ce3          	bge	a4,t1,b418 <.LBB87_1352>

000000000000aa64 <.LBB87_1097>:
    aa64:	c6843703          	ld	a4,-920(s0)
    aa68:	1c6750e3          	bge	a4,t1,b428 <.LBB87_1353>

000000000000aa6c <.LBB87_1098>:
    aa6c:	c7843703          	ld	a4,-904(s0)
    aa70:	1c6754e3          	bge	a4,t1,b438 <.LBB87_1354>

000000000000aa74 <.LBB87_1099>:
    aa74:	c8843703          	ld	a4,-888(s0)
    aa78:	1c6758e3          	bge	a4,t1,b448 <.LBB87_1355>

000000000000aa7c <.LBB87_1100>:
    aa7c:	c9843703          	ld	a4,-872(s0)
    aa80:	1c675ce3          	bge	a4,t1,b458 <.LBB87_1356>

000000000000aa84 <.LBB87_1101>:
    aa84:	ca843703          	ld	a4,-856(s0)
    aa88:	1e6750e3          	bge	a4,t1,b468 <.LBB87_1357>

000000000000aa8c <.LBB87_1102>:
    aa8c:	cb843703          	ld	a4,-840(s0)
    aa90:	1e6754e3          	bge	a4,t1,b478 <.LBB87_1358>

000000000000aa94 <.LBB87_1103>:
    aa94:	cc843703          	ld	a4,-824(s0)
    aa98:	1e6758e3          	bge	a4,t1,b488 <.LBB87_1359>

000000000000aa9c <.LBB87_1104>:
    aa9c:	cd843703          	ld	a4,-808(s0)
    aaa0:	1e675ce3          	bge	a4,t1,b498 <.LBB87_1360>

000000000000aaa4 <.LBB87_1105>:
    aaa4:	ce043703          	ld	a4,-800(s0)
    aaa8:	206750e3          	bge	a4,t1,b4a8 <.LBB87_1361>

000000000000aaac <.LBB87_1106>:
    aaac:	ce843703          	ld	a4,-792(s0)
    aab0:	206754e3          	bge	a4,t1,b4b8 <.LBB87_1362>

000000000000aab4 <.LBB87_1107>:
    aab4:	cf043703          	ld	a4,-784(s0)
    aab8:	206758e3          	bge	a4,t1,b4c8 <.LBB87_1363>

000000000000aabc <.LBB87_1108>:
    aabc:	cf843703          	ld	a4,-776(s0)
    aac0:	20675ce3          	bge	a4,t1,b4d8 <.LBB87_1364>

000000000000aac4 <.LBB87_1109>:
    aac4:	d0043703          	ld	a4,-768(s0)
    aac8:	226750e3          	bge	a4,t1,b4e8 <.LBB87_1365>

000000000000aacc <.LBB87_1110>:
    aacc:	d0843703          	ld	a4,-760(s0)
    aad0:	226754e3          	bge	a4,t1,b4f8 <.LBB87_1366>

000000000000aad4 <.LBB87_1111>:
    aad4:	d1043703          	ld	a4,-752(s0)
    aad8:	226758e3          	bge	a4,t1,b508 <.LBB87_1367>

000000000000aadc <.LBB87_1112>:
    aadc:	d1843703          	ld	a4,-744(s0)
    aae0:	22675ce3          	bge	a4,t1,b518 <.LBB87_1368>

000000000000aae4 <.LBB87_1113>:
    aae4:	d2043703          	ld	a4,-736(s0)
    aae8:	246750e3          	bge	a4,t1,b528 <.LBB87_1369>

000000000000aaec <.LBB87_1114>:
    aaec:	d2843703          	ld	a4,-728(s0)
    aaf0:	246754e3          	bge	a4,t1,b538 <.LBB87_1370>

000000000000aaf4 <.LBB87_1115>:
    aaf4:	d3043703          	ld	a4,-720(s0)
    aaf8:	246758e3          	bge	a4,t1,b548 <.LBB87_1371>

000000000000aafc <.LBB87_1116>:
    aafc:	d4043703          	ld	a4,-704(s0)
    ab00:	24675ce3          	bge	a4,t1,b558 <.LBB87_1372>

000000000000ab04 <.LBB87_1117>:
    ab04:	d5043703          	ld	a4,-688(s0)
    ab08:	266750e3          	bge	a4,t1,b568 <.LBB87_1373>

000000000000ab0c <.LBB87_1118>:
    ab0c:	d6843703          	ld	a4,-664(s0)
    ab10:	266754e3          	bge	a4,t1,b578 <.LBB87_1374>

000000000000ab14 <.LBB87_1119>:
    ab14:	d7843703          	ld	a4,-648(s0)
    ab18:	266758e3          	bge	a4,t1,b588 <.LBB87_1375>

000000000000ab1c <.LBB87_1120>:
    ab1c:	d8843703          	ld	a4,-632(s0)
    ab20:	26675ce3          	bge	a4,t1,b598 <.LBB87_1376>

000000000000ab24 <.LBB87_1121>:
    ab24:	d9843703          	ld	a4,-616(s0)
    ab28:	286750e3          	bge	a4,t1,b5a8 <.LBB87_1377>

000000000000ab2c <.LBB87_1122>:
    ab2c:	da843703          	ld	a4,-600(s0)
    ab30:	286754e3          	bge	a4,t1,b5b8 <.LBB87_1378>

000000000000ab34 <.LBB87_1123>:
    ab34:	db843703          	ld	a4,-584(s0)
    ab38:	286758e3          	bge	a4,t1,b5c8 <.LBB87_1379>

000000000000ab3c <.LBB87_1124>:
    ab3c:	dc843703          	ld	a4,-568(s0)
    ab40:	28675ce3          	bge	a4,t1,b5d8 <.LBB87_1380>

000000000000ab44 <.LBB87_1125>:
    ab44:	dd843703          	ld	a4,-552(s0)
    ab48:	2a6750e3          	bge	a4,t1,b5e8 <.LBB87_1381>

000000000000ab4c <.LBB87_1126>:
    ab4c:	b3843703          	ld	a4,-1224(s0)
    ab50:	2a6754e3          	bge	a4,t1,b5f8 <.LBB87_1382>

000000000000ab54 <.LBB87_1127>:
    ab54:	b4843703          	ld	a4,-1208(s0)
    ab58:	2a6758e3          	bge	a4,t1,b608 <.LBB87_1383>

000000000000ab5c <.LBB87_1128>:
    ab5c:	b5843703          	ld	a4,-1192(s0)
    ab60:	2a675ce3          	bge	a4,t1,b618 <.LBB87_1384>

000000000000ab64 <.LBB87_1129>:
    ab64:	b6843703          	ld	a4,-1176(s0)
    ab68:	2c6750e3          	bge	a4,t1,b628 <.LBB87_1385>

000000000000ab6c <.LBB87_1130>:
    ab6c:	b7843703          	ld	a4,-1160(s0)
    ab70:	2c6754e3          	bge	a4,t1,b638 <.LBB87_1386>

000000000000ab74 <.LBB87_1131>:
    ab74:	b8843703          	ld	a4,-1144(s0)
    ab78:	2c6758e3          	bge	a4,t1,b648 <.LBB87_1387>

000000000000ab7c <.LBB87_1132>:
    ab7c:	b9843703          	ld	a4,-1128(s0)
    ab80:	2c675ce3          	bge	a4,t1,b658 <.LBB87_1388>

000000000000ab84 <.LBB87_1133>:
    ab84:	ba843703          	ld	a4,-1112(s0)
    ab88:	2e6750e3          	bge	a4,t1,b668 <.LBB87_1389>

000000000000ab8c <.LBB87_1134>:
    ab8c:	bb843703          	ld	a4,-1096(s0)
    ab90:	2e6754e3          	bge	a4,t1,b678 <.LBB87_1390>

000000000000ab94 <.LBB87_1135>:
    ab94:	bc843703          	ld	a4,-1080(s0)
    ab98:	2e6758e3          	bge	a4,t1,b688 <.LBB87_1391>

000000000000ab9c <.LBB87_1136>:
    ab9c:	bd843703          	ld	a4,-1064(s0)
    aba0:	2e675ce3          	bge	a4,t1,b698 <.LBB87_1392>

000000000000aba4 <.LBB87_1137>:
    aba4:	be043703          	ld	a4,-1056(s0)
    aba8:	306750e3          	bge	a4,t1,b6a8 <.LBB87_1393>

000000000000abac <.LBB87_1138>:
    abac:	be843703          	ld	a4,-1048(s0)
    abb0:	306754e3          	bge	a4,t1,b6b8 <.LBB87_1394>

000000000000abb4 <.LBB87_1139>:
    abb4:	bf043703          	ld	a4,-1040(s0)
    abb8:	306758e3          	bge	a4,t1,b6c8 <.LBB87_1395>

000000000000abbc <.LBB87_1140>:
    abbc:	bf843703          	ld	a4,-1032(s0)
    abc0:	30675ce3          	bge	a4,t1,b6d8 <.LBB87_1396>

000000000000abc4 <.LBB87_1141>:
    abc4:	c0043703          	ld	a4,-1024(s0)
    abc8:	326750e3          	bge	a4,t1,b6e8 <.LBB87_1397>

000000000000abcc <.LBB87_1142>:
    abcc:	c0843703          	ld	a4,-1016(s0)
    abd0:	326754e3          	bge	a4,t1,b6f8 <.LBB87_1398>

000000000000abd4 <.LBB87_1143>:
    abd4:	c1043703          	ld	a4,-1008(s0)
    abd8:	326758e3          	bge	a4,t1,b708 <.LBB87_1399>

000000000000abdc <.LBB87_1144>:
    abdc:	c1843703          	ld	a4,-1000(s0)
    abe0:	32675ce3          	bge	a4,t1,b718 <.LBB87_1400>

000000000000abe4 <.LBB87_1145>:
    abe4:	c2043703          	ld	a4,-992(s0)
    abe8:	346750e3          	bge	a4,t1,b728 <.LBB87_1401>

000000000000abec <.LBB87_1146>:
    abec:	c2843703          	ld	a4,-984(s0)
    abf0:	346754e3          	bge	a4,t1,b738 <.LBB87_1402>

000000000000abf4 <.LBB87_1147>:
    abf4:	c3043703          	ld	a4,-976(s0)
    abf8:	346758e3          	bge	a4,t1,b748 <.LBB87_1403>

000000000000abfc <.LBB87_1148>:
    abfc:	c4043703          	ld	a4,-960(s0)
    ac00:	34675ce3          	bge	a4,t1,b758 <.LBB87_1404>

000000000000ac04 <.LBB87_1149>:
    ac04:	c5043703          	ld	a4,-944(s0)
    ac08:	366750e3          	bge	a4,t1,b768 <.LBB87_1405>

000000000000ac0c <.LBB87_1150>:
    ac0c:	c6043703          	ld	a4,-928(s0)
    ac10:	366754e3          	bge	a4,t1,b778 <.LBB87_1406>

000000000000ac14 <.LBB87_1151>:
    ac14:	c7043703          	ld	a4,-912(s0)
    ac18:	366758e3          	bge	a4,t1,b788 <.LBB87_1407>

000000000000ac1c <.LBB87_1152>:
    ac1c:	c8043703          	ld	a4,-896(s0)
    ac20:	36675ce3          	bge	a4,t1,b798 <.LBB87_1408>

000000000000ac24 <.LBB87_1153>:
    ac24:	c9043703          	ld	a4,-880(s0)
    ac28:	386750e3          	bge	a4,t1,b7a8 <.LBB87_1409>

000000000000ac2c <.LBB87_1154>:
    ac2c:	ca043703          	ld	a4,-864(s0)
    ac30:	386754e3          	bge	a4,t1,b7b8 <.LBB87_1410>

000000000000ac34 <.LBB87_1155>:
    ac34:	cb043703          	ld	a4,-848(s0)
    ac38:	386758e3          	bge	a4,t1,b7c8 <.LBB87_1411>

000000000000ac3c <.LBB87_1156>:
    ac3c:	cc043703          	ld	a4,-832(s0)
    ac40:	38675ce3          	bge	a4,t1,b7d8 <.LBB87_1412>

000000000000ac44 <.LBB87_1157>:
    ac44:	cd043703          	ld	a4,-816(s0)
    ac48:	3a6750e3          	bge	a4,t1,b7e8 <.LBB87_1413>

000000000000ac4c <.LBB87_1158>:
    ac4c:	a3843703          	ld	a4,-1480(s0)
    ac50:	3a6754e3          	bge	a4,t1,b7f8 <.LBB87_1414>

000000000000ac54 <.LBB87_1159>:
    ac54:	a4843703          	ld	a4,-1464(s0)
    ac58:	3a6758e3          	bge	a4,t1,b808 <.LBB87_1415>

000000000000ac5c <.LBB87_1160>:
    ac5c:	a5843703          	ld	a4,-1448(s0)
    ac60:	3a675ce3          	bge	a4,t1,b818 <.LBB87_1416>

000000000000ac64 <.LBB87_1161>:
    ac64:	a6843703          	ld	a4,-1432(s0)
    ac68:	3c6750e3          	bge	a4,t1,b828 <.LBB87_1417>

000000000000ac6c <.LBB87_1162>:
    ac6c:	a7843703          	ld	a4,-1416(s0)
    ac70:	3c6754e3          	bge	a4,t1,b838 <.LBB87_1418>

000000000000ac74 <.LBB87_1163>:
    ac74:	a8843703          	ld	a4,-1400(s0)
    ac78:	3c6758e3          	bge	a4,t1,b848 <.LBB87_1419>

000000000000ac7c <.LBB87_1164>:
    ac7c:	a9843703          	ld	a4,-1384(s0)
    ac80:	3c675ce3          	bge	a4,t1,b858 <.LBB87_1420>

000000000000ac84 <.LBB87_1165>:
    ac84:	aa843703          	ld	a4,-1368(s0)
    ac88:	3e6750e3          	bge	a4,t1,b868 <.LBB87_1421>

000000000000ac8c <.LBB87_1166>:
    ac8c:	ab843703          	ld	a4,-1352(s0)
    ac90:	3e6754e3          	bge	a4,t1,b878 <.LBB87_1422>

000000000000ac94 <.LBB87_1167>:
    ac94:	ac843703          	ld	a4,-1336(s0)
    ac98:	3e6758e3          	bge	a4,t1,b888 <.LBB87_1423>

000000000000ac9c <.LBB87_1168>:
    ac9c:	ad843703          	ld	a4,-1320(s0)
    aca0:	3e675ce3          	bge	a4,t1,b898 <.LBB87_1424>

000000000000aca4 <.LBB87_1169>:
    aca4:	ae043703          	ld	a4,-1312(s0)
    aca8:	406750e3          	bge	a4,t1,b8a8 <.LBB87_1425>

000000000000acac <.LBB87_1170>:
    acac:	ae843703          	ld	a4,-1304(s0)
    acb0:	406754e3          	bge	a4,t1,b8b8 <.LBB87_1426>

000000000000acb4 <.LBB87_1171>:
    acb4:	af043703          	ld	a4,-1296(s0)
    acb8:	406758e3          	bge	a4,t1,b8c8 <.LBB87_1427>

000000000000acbc <.LBB87_1172>:
    acbc:	af843703          	ld	a4,-1288(s0)
    acc0:	40675ce3          	bge	a4,t1,b8d8 <.LBB87_1428>

000000000000acc4 <.LBB87_1173>:
    acc4:	b0043703          	ld	a4,-1280(s0)
    acc8:	426750e3          	bge	a4,t1,b8e8 <.LBB87_1429>

000000000000accc <.LBB87_1174>:
    accc:	b0843703          	ld	a4,-1272(s0)
    acd0:	426754e3          	bge	a4,t1,b8f8 <.LBB87_1430>

000000000000acd4 <.LBB87_1175>:
    acd4:	b1043703          	ld	a4,-1264(s0)
    acd8:	426758e3          	bge	a4,t1,b908 <.LBB87_1431>

000000000000acdc <.LBB87_1176>:
    acdc:	b1843703          	ld	a4,-1256(s0)
    ace0:	42675ce3          	bge	a4,t1,b918 <.LBB87_1432>

000000000000ace4 <.LBB87_1177>:
    ace4:	b2043703          	ld	a4,-1248(s0)
    ace8:	446750e3          	bge	a4,t1,b928 <.LBB87_1433>

000000000000acec <.LBB87_1178>:
    acec:	b2843703          	ld	a4,-1240(s0)
    acf0:	446754e3          	bge	a4,t1,b938 <.LBB87_1434>

000000000000acf4 <.LBB87_1179>:
    acf4:	b3043703          	ld	a4,-1232(s0)
    acf8:	446758e3          	bge	a4,t1,b948 <.LBB87_1435>

000000000000acfc <.LBB87_1180>:
    acfc:	b4043703          	ld	a4,-1216(s0)
    ad00:	44675ce3          	bge	a4,t1,b958 <.LBB87_1436>

000000000000ad04 <.LBB87_1181>:
    ad04:	b5043703          	ld	a4,-1200(s0)
    ad08:	466750e3          	bge	a4,t1,b968 <.LBB87_1437>

000000000000ad0c <.LBB87_1182>:
    ad0c:	b6043703          	ld	a4,-1184(s0)
    ad10:	466754e3          	bge	a4,t1,b978 <.LBB87_1438>

000000000000ad14 <.LBB87_1183>:
    ad14:	b7043703          	ld	a4,-1168(s0)
    ad18:	466758e3          	bge	a4,t1,b988 <.LBB87_1439>

000000000000ad1c <.LBB87_1184>:
    ad1c:	b8043703          	ld	a4,-1152(s0)
    ad20:	46675ce3          	bge	a4,t1,b998 <.LBB87_1440>

000000000000ad24 <.LBB87_1185>:
    ad24:	b9043703          	ld	a4,-1136(s0)
    ad28:	486750e3          	bge	a4,t1,b9a8 <.LBB87_1441>

000000000000ad2c <.LBB87_1186>:
    ad2c:	ba043703          	ld	a4,-1120(s0)
    ad30:	486754e3          	bge	a4,t1,b9b8 <.LBB87_1442>

000000000000ad34 <.LBB87_1187>:
    ad34:	bb043703          	ld	a4,-1104(s0)
    ad38:	486758e3          	bge	a4,t1,b9c8 <.LBB87_1443>

000000000000ad3c <.LBB87_1188>:
    ad3c:	bc043703          	ld	a4,-1088(s0)
    ad40:	48675ce3          	bge	a4,t1,b9d8 <.LBB87_1444>

000000000000ad44 <.LBB87_1189>:
    ad44:	bd043703          	ld	a4,-1072(s0)
    ad48:	4a6750e3          	bge	a4,t1,b9e8 <.LBB87_1445>

000000000000ad4c <.LBB87_1190>:
    ad4c:	9b843703          	ld	a4,-1608(s0)
    ad50:	4a6754e3          	bge	a4,t1,b9f8 <.LBB87_1446>

000000000000ad54 <.LBB87_1191>:
    ad54:	4a6dd8e3          	bge	s11,t1,ba04 <.LBB87_1447>

000000000000ad58 <.LBB87_1192>:
    ad58:	4a6cdae3          	bge	s9,t1,ba0c <.LBB87_1448>

000000000000ad5c <.LBB87_1193>:
    ad5c:	4a6bdce3          	bge	s7,t1,ba14 <.LBB87_1449>

000000000000ad60 <.LBB87_1194>:
    ad60:	4a62dee3          	bge	t0,t1,ba1c <.LBB87_1450>

000000000000ad64 <.LBB87_1195>:
    ad64:	4c6ed0e3          	bge	t4,t1,ba24 <.LBB87_1451>

000000000000ad68 <.LBB87_1196>:
    ad68:	4c6952e3          	bge	s2,t1,ba2c <.LBB87_1452>

000000000000ad6c <.LBB87_1197>:
    ad6c:	4c68d4e3          	bge	a7,t1,ba34 <.LBB87_1453>

000000000000ad70 <.LBB87_1198>:
    ad70:	4c6556e3          	bge	a0,t1,ba3c <.LBB87_1454>

000000000000ad74 <.LBB87_1199>:
    ad74:	9c843703          	ld	a4,-1592(s0)
    ad78:	4c6758e3          	bge	a4,t1,ba48 <.LBB87_1455>

000000000000ad7c <.LBB87_1200>:
    ad7c:	9d843703          	ld	a4,-1576(s0)
    ad80:	4c675ce3          	bge	a4,t1,ba58 <.LBB87_1456>

000000000000ad84 <.LBB87_1201>:
    ad84:	9e043703          	ld	a4,-1568(s0)
    ad88:	4e6750e3          	bge	a4,t1,ba68 <.LBB87_1457>

000000000000ad8c <.LBB87_1202>:
    ad8c:	9e843703          	ld	a4,-1560(s0)
    ad90:	4e6754e3          	bge	a4,t1,ba78 <.LBB87_1458>

000000000000ad94 <.LBB87_1203>:
    ad94:	9f043703          	ld	a4,-1552(s0)
    ad98:	4e6758e3          	bge	a4,t1,ba88 <.LBB87_1459>

000000000000ad9c <.LBB87_1204>:
    ad9c:	9f843703          	ld	a4,-1544(s0)
    ada0:	4e675ce3          	bge	a4,t1,ba98 <.LBB87_1460>

000000000000ada4 <.LBB87_1205>:
    ada4:	a0043703          	ld	a4,-1536(s0)
    ada8:	506750e3          	bge	a4,t1,baa8 <.LBB87_1461>

000000000000adac <.LBB87_1206>:
    adac:	a0843703          	ld	a4,-1528(s0)
    adb0:	506754e3          	bge	a4,t1,bab8 <.LBB87_1462>

000000000000adb4 <.LBB87_1207>:
    adb4:	a1043703          	ld	a4,-1520(s0)
    adb8:	506758e3          	bge	a4,t1,bac8 <.LBB87_1463>

000000000000adbc <.LBB87_1208>:
    adbc:	a1843703          	ld	a4,-1512(s0)
    adc0:	50675ce3          	bge	a4,t1,bad8 <.LBB87_1464>

000000000000adc4 <.LBB87_1209>:
    adc4:	a2043703          	ld	a4,-1504(s0)
    adc8:	526750e3          	bge	a4,t1,bae8 <.LBB87_1465>

000000000000adcc <.LBB87_1210>:
    adcc:	a2843703          	ld	a4,-1496(s0)
    add0:	526754e3          	bge	a4,t1,baf8 <.LBB87_1466>

000000000000add4 <.LBB87_1211>:
    add4:	a3043703          	ld	a4,-1488(s0)
    add8:	526758e3          	bge	a4,t1,bb08 <.LBB87_1467>

000000000000addc <.LBB87_1212>:
    addc:	a4043703          	ld	a4,-1472(s0)
    ade0:	52675ce3          	bge	a4,t1,bb18 <.LBB87_1468>

000000000000ade4 <.LBB87_1213>:
    ade4:	a5043703          	ld	a4,-1456(s0)
    ade8:	546750e3          	bge	a4,t1,bb28 <.LBB87_1469>

000000000000adec <.LBB87_1214>:
    adec:	a6043703          	ld	a4,-1440(s0)
    adf0:	546754e3          	bge	a4,t1,bb38 <.LBB87_1470>

000000000000adf4 <.LBB87_1215>:
    adf4:	a7043703          	ld	a4,-1424(s0)
    adf8:	546758e3          	bge	a4,t1,bb48 <.LBB87_1471>

000000000000adfc <.LBB87_1216>:
    adfc:	a8043703          	ld	a4,-1408(s0)
    ae00:	54675ce3          	bge	a4,t1,bb58 <.LBB87_1472>

000000000000ae04 <.LBB87_1217>:
    ae04:	a9043703          	ld	a4,-1392(s0)
    ae08:	566750e3          	bge	a4,t1,bb68 <.LBB87_1473>

000000000000ae0c <.LBB87_1218>:
    ae0c:	aa043703          	ld	a4,-1376(s0)
    ae10:	566754e3          	bge	a4,t1,bb78 <.LBB87_1474>

000000000000ae14 <.LBB87_1219>:
    ae14:	ab043703          	ld	a4,-1360(s0)
    ae18:	566758e3          	bge	a4,t1,bb88 <.LBB87_1475>

000000000000ae1c <.LBB87_1220>:
    ae1c:	ac043703          	ld	a4,-1344(s0)
    ae20:	56675ce3          	bge	a4,t1,bb98 <.LBB87_1476>

000000000000ae24 <.LBB87_1221>:
    ae24:	00050f93          	mv	t6,a0
    ae28:	ad043703          	ld	a4,-1328(s0)
    ae2c:	586750e3          	bge	a4,t1,bbac <.LBB87_1477>

000000000000ae30 <.LBB87_1222>:
    ae30:	8b843503          	ld	a0,-1864(s0)
    ae34:	586554e3          	bge	a0,t1,bbbc <.LBB87_1478>

000000000000ae38 <.LBB87_1223>:
    ae38:	8c843503          	ld	a0,-1848(s0)
    ae3c:	586558e3          	bge	a0,t1,bbcc <.LBB87_1479>

000000000000ae40 <.LBB87_1224>:
    ae40:	8d843503          	ld	a0,-1832(s0)
    ae44:	58655ce3          	bge	a0,t1,bbdc <.LBB87_1480>

000000000000ae48 <.LBB87_1225>:
    ae48:	8e843503          	ld	a0,-1816(s0)
    ae4c:	5a6550e3          	bge	a0,t1,bbec <.LBB87_1481>

000000000000ae50 <.LBB87_1226>:
    ae50:	8f843503          	ld	a0,-1800(s0)
    ae54:	5a6554e3          	bge	a0,t1,bbfc <.LBB87_1482>

000000000000ae58 <.LBB87_1227>:
    ae58:	90843503          	ld	a0,-1784(s0)
    ae5c:	5a6558e3          	bge	a0,t1,bc0c <.LBB87_1483>

000000000000ae60 <.LBB87_1228>:
    ae60:	91843503          	ld	a0,-1768(s0)
    ae64:	5a655ce3          	bge	a0,t1,bc1c <.LBB87_1484>

000000000000ae68 <.LBB87_1229>:
    ae68:	92843503          	ld	a0,-1752(s0)
    ae6c:	5c6550e3          	bge	a0,t1,bc2c <.LBB87_1485>

000000000000ae70 <.LBB87_1230>:
    ae70:	93843503          	ld	a0,-1736(s0)
    ae74:	5c6554e3          	bge	a0,t1,bc3c <.LBB87_1486>

000000000000ae78 <.LBB87_1231>:
    ae78:	94843703          	ld	a4,-1720(s0)
    ae7c:	5c6758e3          	bge	a4,t1,bc4c <.LBB87_1487>

000000000000ae80 <.LBB87_1232>:
    ae80:	95843703          	ld	a4,-1704(s0)
    ae84:	5c675ce3          	bge	a4,t1,bc5c <.LBB87_1488>

000000000000ae88 <.LBB87_1233>:
    ae88:	96043703          	ld	a4,-1696(s0)
    ae8c:	5e6750e3          	bge	a4,t1,bc6c <.LBB87_1489>

000000000000ae90 <.LBB87_1234>:
    ae90:	96843703          	ld	a4,-1688(s0)
    ae94:	5e6754e3          	bge	a4,t1,bc7c <.LBB87_1490>

000000000000ae98 <.LBB87_1235>:
    ae98:	97043703          	ld	a4,-1680(s0)
    ae9c:	5e6758e3          	bge	a4,t1,bc8c <.LBB87_1491>

000000000000aea0 <.LBB87_1236>:
    aea0:	97843703          	ld	a4,-1672(s0)
    aea4:	5e675ce3          	bge	a4,t1,bc9c <.LBB87_1492>

000000000000aea8 <.LBB87_1237>:
    aea8:	98043703          	ld	a4,-1664(s0)
    aeac:	606750e3          	bge	a4,t1,bcac <.LBB87_1493>

000000000000aeb0 <.LBB87_1238>:
    aeb0:	98843703          	ld	a4,-1656(s0)
    aeb4:	606754e3          	bge	a4,t1,bcbc <.LBB87_1494>

000000000000aeb8 <.LBB87_1239>:
    aeb8:	99043703          	ld	a4,-1648(s0)
    aebc:	606758e3          	bge	a4,t1,bccc <.LBB87_1495>

000000000000aec0 <.LBB87_1240>:
    aec0:	99843703          	ld	a4,-1640(s0)
    aec4:	60675ce3          	bge	a4,t1,bcdc <.LBB87_1496>

000000000000aec8 <.LBB87_1241>:
    aec8:	9a043703          	ld	a4,-1632(s0)
    aecc:	626750e3          	bge	a4,t1,bcec <.LBB87_1497>

000000000000aed0 <.LBB87_1242>:
    aed0:	9a843703          	ld	a4,-1624(s0)
    aed4:	626754e3          	bge	a4,t1,bcfc <.LBB87_1498>

000000000000aed8 <.LBB87_1243>:
    aed8:	9b043703          	ld	a4,-1616(s0)
    aedc:	626758e3          	bge	a4,t1,bd0c <.LBB87_1499>

000000000000aee0 <.LBB87_1244>:
    aee0:	6260dce3          	bge	ra,t1,bd18 <.LBB87_1500>

000000000000aee4 <.LBB87_1245>:
    aee4:	626d5ee3          	bge	s10,t1,bd20 <.LBB87_1501>

000000000000aee8 <.LBB87_1246>:
    aee8:	646c50e3          	bge	s8,t1,bd28 <.LBB87_1502>

000000000000aeec <.LBB87_1247>:
    aeec:	646ad2e3          	bge	s5,t1,bd30 <.LBB87_1503>

000000000000aef0 <.LBB87_1248>:
    aef0:	646f54e3          	bge	t5,t1,bd38 <.LBB87_1504>

000000000000aef4 <.LBB87_1249>:
    aef4:	646e56e3          	bge	t3,t1,bd40 <.LBB87_1505>

000000000000aef8 <.LBB87_1250>:
    aef8:	6463d8e3          	bge	t2,t1,bd48 <.LBB87_1506>

000000000000aefc <.LBB87_1251>:
    aefc:	84843503          	ld	a0,-1976(s0)
    af00:	64655ae3          	bge	a0,t1,bd54 <.LBB87_1507>

000000000000af04 <.LBB87_1252>:
    af04:	9c043703          	ld	a4,-1600(s0)
    af08:	64675ee3          	bge	a4,t1,bd64 <.LBB87_1508>

000000000000af0c <.LBB87_1253>:
    af0c:	9d043703          	ld	a4,-1584(s0)
    af10:	666752e3          	bge	a4,t1,bd74 <.LBB87_1509>

000000000000af14 <.LBB87_1254>:
    af14:	6669d6e3          	bge	s3,t1,bd80 <.LBB87_1510>

000000000000af18 <.LBB87_1255>:
    af18:	95043703          	ld	a4,-1712(s0)
    af1c:	6665d8e3          	bge	a1,t1,bd8c <.LBB87_1511>

000000000000af20 <.LBB87_1256>:
    af20:	6664dae3          	bge	s1,t1,bd94 <.LBB87_1512>

000000000000af24 <.LBB87_1257>:
    af24:	666a5ce3          	bge	s4,t1,bd9c <.LBB87_1513>

000000000000af28 <.LBB87_1258>:
    af28:	66685ee3          	bge	a6,t1,bda4 <.LBB87_1514>

000000000000af2c <.LBB87_1259>:
    af2c:	6867d0e3          	bge	a5,t1,bdac <.LBB87_1515>

000000000000af30 <.LBB87_1260>:
    af30:	6866d2e3          	bge	a3,t1,bdb4 <.LBB87_1516>

000000000000af34 <.LBB87_1261>:
    af34:	686b54e3          	bge	s6,t1,bdbc <.LBB87_1517>

000000000000af38 <.LBB87_1262>:
    af38:	686656e3          	bge	a2,t1,bdc4 <.LBB87_1518>

000000000000af3c <.LBB87_1263>:
    af3c:	85043503          	ld	a0,-1968(s0)
    af40:	686558e3          	bge	a0,t1,bdd0 <.LBB87_1519>

000000000000af44 <.LBB87_1264>:
    af44:	85843503          	ld	a0,-1960(s0)
    af48:	68655ce3          	bge	a0,t1,bde0 <.LBB87_1520>

000000000000af4c <.LBB87_1265>:
    af4c:	86043503          	ld	a0,-1952(s0)
    af50:	6a6550e3          	bge	a0,t1,bdf0 <.LBB87_1521>

000000000000af54 <.LBB87_1266>:
    af54:	86843503          	ld	a0,-1944(s0)
    af58:	6a6554e3          	bge	a0,t1,be00 <.LBB87_1522>

000000000000af5c <.LBB87_1267>:
    af5c:	87043503          	ld	a0,-1936(s0)
    af60:	6a6558e3          	bge	a0,t1,be10 <.LBB87_1523>

000000000000af64 <.LBB87_1268>:
    af64:	87843503          	ld	a0,-1928(s0)
    af68:	6a655ce3          	bge	a0,t1,be20 <.LBB87_1524>

000000000000af6c <.LBB87_1269>:
    af6c:	88043503          	ld	a0,-1920(s0)
    af70:	6c6550e3          	bge	a0,t1,be30 <.LBB87_1525>

000000000000af74 <.LBB87_1270>:
    af74:	88843503          	ld	a0,-1912(s0)
    af78:	6c6554e3          	bge	a0,t1,be40 <.LBB87_1526>

000000000000af7c <.LBB87_1271>:
    af7c:	89043503          	ld	a0,-1904(s0)
    af80:	6c6558e3          	bge	a0,t1,be50 <.LBB87_1527>

000000000000af84 <.LBB87_1272>:
    af84:	89843503          	ld	a0,-1896(s0)
    af88:	6c655ce3          	bge	a0,t1,be60 <.LBB87_1528>

000000000000af8c <.LBB87_1273>:
    af8c:	8a043503          	ld	a0,-1888(s0)
    af90:	6e6550e3          	bge	a0,t1,be70 <.LBB87_1529>

000000000000af94 <.LBB87_1274>:
    af94:	8a843503          	ld	a0,-1880(s0)
    af98:	6e6554e3          	bge	a0,t1,be80 <.LBB87_1530>

000000000000af9c <.LBB87_1275>:
    af9c:	8b043503          	ld	a0,-1872(s0)
    afa0:	6e6558e3          	bge	a0,t1,be90 <.LBB87_1531>

000000000000afa4 <.LBB87_1276>:
    afa4:	8c043503          	ld	a0,-1856(s0)
    afa8:	6e655ce3          	bge	a0,t1,bea0 <.LBB87_1532>

000000000000afac <.LBB87_1277>:
    afac:	8d043503          	ld	a0,-1840(s0)
    afb0:	706550e3          	bge	a0,t1,beb0 <.LBB87_1533>

000000000000afb4 <.LBB87_1278>:
    afb4:	8e043503          	ld	a0,-1824(s0)
    afb8:	706554e3          	bge	a0,t1,bec0 <.LBB87_1534>

000000000000afbc <.LBB87_1279>:
    afbc:	8f043503          	ld	a0,-1808(s0)
    afc0:	706558e3          	bge	a0,t1,bed0 <.LBB87_1535>

000000000000afc4 <.LBB87_1280>:
    afc4:	90043503          	ld	a0,-1792(s0)
    afc8:	70655ce3          	bge	a0,t1,bee0 <.LBB87_1536>

000000000000afcc <.LBB87_1281>:
    afcc:	91043503          	ld	a0,-1776(s0)
    afd0:	726550e3          	bge	a0,t1,bef0 <.LBB87_1537>

000000000000afd4 <.LBB87_1282>:
    afd4:	92043503          	ld	a0,-1760(s0)
    afd8:	726554e3          	bge	a0,t1,bf00 <.LBB87_1538>

000000000000afdc <.LBB87_1283>:
    afdc:	93043503          	ld	a0,-1744(s0)
    afe0:	726558e3          	bge	a0,t1,bf10 <.LBB87_1539>

000000000000afe4 <.LBB87_1284>:
    afe4:	94043503          	ld	a0,-1728(s0)
    afe8:	72655ce3          	bge	a0,t1,bf20 <.LBB87_1540>

000000000000afec <.LBB87_1285>:
    afec:	746752e3          	bge	a4,t1,bf30 <.LBB87_1541>
    aff0:	a7cf506f          	j	26c <.LBB87_3>

000000000000aff4 <.LBB87_1286>:
    aff4:	07b00713          	li	a4,123
    aff8:	d6e43023          	sd	a4,-672(s0)
    affc:	e4843703          	ld	a4,-440(s0)
    b000:	85f43423          	sd	t6,-1976(s0)
    b004:	84674ce3          	blt	a4,t1,a85c <.LBB87_1032>

000000000000b008 <.LBB87_1287>:
    b008:	07b00713          	li	a4,123
    b00c:	e4e43423          	sd	a4,-440(s0)
    b010:	e6043703          	ld	a4,-416(s0)
    b014:	846748e3          	blt	a4,t1,a864 <.LBB87_1033>

000000000000b018 <.LBB87_1288>:
    b018:	07b00713          	li	a4,123
    b01c:	e6e43023          	sd	a4,-416(s0)
    b020:	e7043703          	ld	a4,-400(s0)
    b024:	846744e3          	blt	a4,t1,a86c <.LBB87_1034>

000000000000b028 <.LBB87_1289>:
    b028:	07b00713          	li	a4,123
    b02c:	e6e43823          	sd	a4,-400(s0)
    b030:	e8043703          	ld	a4,-384(s0)
    b034:	846740e3          	blt	a4,t1,a874 <.LBB87_1035>

000000000000b038 <.LBB87_1290>:
    b038:	07b00713          	li	a4,123
    b03c:	e8e43023          	sd	a4,-384(s0)
    b040:	e9043703          	ld	a4,-368(s0)
    b044:	82674ce3          	blt	a4,t1,a87c <.LBB87_1036>

000000000000b048 <.LBB87_1291>:
    b048:	07b00713          	li	a4,123
    b04c:	e8e43823          	sd	a4,-368(s0)
    b050:	ea043703          	ld	a4,-352(s0)
    b054:	826748e3          	blt	a4,t1,a884 <.LBB87_1037>

000000000000b058 <.LBB87_1292>:
    b058:	07b00713          	li	a4,123
    b05c:	eae43023          	sd	a4,-352(s0)
    b060:	eb043703          	ld	a4,-336(s0)
    b064:	826744e3          	blt	a4,t1,a88c <.LBB87_1038>

000000000000b068 <.LBB87_1293>:
    b068:	07b00713          	li	a4,123
    b06c:	eae43823          	sd	a4,-336(s0)
    b070:	ec043703          	ld	a4,-320(s0)
    b074:	826740e3          	blt	a4,t1,a894 <.LBB87_1039>

000000000000b078 <.LBB87_1294>:
    b078:	07b00713          	li	a4,123
    b07c:	ece43023          	sd	a4,-320(s0)
    b080:	ed043703          	ld	a4,-304(s0)
    b084:	80674ce3          	blt	a4,t1,a89c <.LBB87_1040>

000000000000b088 <.LBB87_1295>:
    b088:	07b00713          	li	a4,123
    b08c:	ece43823          	sd	a4,-304(s0)
    b090:	ee043703          	ld	a4,-288(s0)
    b094:	806748e3          	blt	a4,t1,a8a4 <.LBB87_1041>

000000000000b098 <.LBB87_1296>:
    b098:	07b00713          	li	a4,123
    b09c:	eee43023          	sd	a4,-288(s0)
    b0a0:	ee843703          	ld	a4,-280(s0)
    b0a4:	806744e3          	blt	a4,t1,a8ac <.LBB87_1042>

000000000000b0a8 <.LBB87_1297>:
    b0a8:	07b00713          	li	a4,123
    b0ac:	eee43423          	sd	a4,-280(s0)
    b0b0:	ef043703          	ld	a4,-272(s0)
    b0b4:	806740e3          	blt	a4,t1,a8b4 <.LBB87_1043>

000000000000b0b8 <.LBB87_1298>:
    b0b8:	07b00713          	li	a4,123
    b0bc:	eee43823          	sd	a4,-272(s0)
    b0c0:	ef843703          	ld	a4,-264(s0)
    b0c4:	fe674c63          	blt	a4,t1,a8bc <.LBB87_1044>

000000000000b0c8 <.LBB87_1299>:
    b0c8:	07b00713          	li	a4,123
    b0cc:	eee43c23          	sd	a4,-264(s0)
    b0d0:	f0043703          	ld	a4,-256(s0)
    b0d4:	fe674863          	blt	a4,t1,a8c4 <.LBB87_1045>

000000000000b0d8 <.LBB87_1300>:
    b0d8:	07b00713          	li	a4,123
    b0dc:	f0e43023          	sd	a4,-256(s0)
    b0e0:	f0843703          	ld	a4,-248(s0)
    b0e4:	fe674463          	blt	a4,t1,a8cc <.LBB87_1046>

000000000000b0e8 <.LBB87_1301>:
    b0e8:	07b00713          	li	a4,123
    b0ec:	f0e43423          	sd	a4,-248(s0)
    b0f0:	f1043703          	ld	a4,-240(s0)
    b0f4:	fe674063          	blt	a4,t1,a8d4 <.LBB87_1047>

000000000000b0f8 <.LBB87_1302>:
    b0f8:	07b00713          	li	a4,123
    b0fc:	f0e43823          	sd	a4,-240(s0)
    b100:	f1843703          	ld	a4,-232(s0)
    b104:	fc674c63          	blt	a4,t1,a8dc <.LBB87_1048>

000000000000b108 <.LBB87_1303>:
    b108:	07b00713          	li	a4,123
    b10c:	f0e43c23          	sd	a4,-232(s0)
    b110:	f2043703          	ld	a4,-224(s0)
    b114:	fc674863          	blt	a4,t1,a8e4 <.LBB87_1049>

000000000000b118 <.LBB87_1304>:
    b118:	07b00713          	li	a4,123
    b11c:	f2e43023          	sd	a4,-224(s0)
    b120:	f2843703          	ld	a4,-216(s0)
    b124:	fc674463          	blt	a4,t1,a8ec <.LBB87_1050>

000000000000b128 <.LBB87_1305>:
    b128:	07b00713          	li	a4,123
    b12c:	f2e43423          	sd	a4,-216(s0)
    b130:	f3043703          	ld	a4,-208(s0)
    b134:	fc674063          	blt	a4,t1,a8f4 <.LBB87_1051>

000000000000b138 <.LBB87_1306>:
    b138:	07b00713          	li	a4,123
    b13c:	f2e43823          	sd	a4,-208(s0)
    b140:	f3843703          	ld	a4,-200(s0)
    b144:	fa674c63          	blt	a4,t1,a8fc <.LBB87_1052>

000000000000b148 <.LBB87_1307>:
    b148:	07b00713          	li	a4,123
    b14c:	f2e43c23          	sd	a4,-200(s0)
    b150:	f4043703          	ld	a4,-192(s0)
    b154:	fa674863          	blt	a4,t1,a904 <.LBB87_1053>

000000000000b158 <.LBB87_1308>:
    b158:	07b00713          	li	a4,123
    b15c:	f4e43023          	sd	a4,-192(s0)
    b160:	f4843703          	ld	a4,-184(s0)
    b164:	fa674463          	blt	a4,t1,a90c <.LBB87_1054>

000000000000b168 <.LBB87_1309>:
    b168:	07b00713          	li	a4,123
    b16c:	f4e43423          	sd	a4,-184(s0)
    b170:	f5043703          	ld	a4,-176(s0)
    b174:	fa674063          	blt	a4,t1,a914 <.LBB87_1055>

000000000000b178 <.LBB87_1310>:
    b178:	07b00713          	li	a4,123
    b17c:	f4e43823          	sd	a4,-176(s0)
    b180:	f5843703          	ld	a4,-168(s0)
    b184:	f8674c63          	blt	a4,t1,a91c <.LBB87_1056>

000000000000b188 <.LBB87_1311>:
    b188:	07b00713          	li	a4,123
    b18c:	f4e43c23          	sd	a4,-168(s0)
    b190:	f6043703          	ld	a4,-160(s0)
    b194:	f8674863          	blt	a4,t1,a924 <.LBB87_1057>

000000000000b198 <.LBB87_1312>:
    b198:	07b00713          	li	a4,123
    b19c:	f6e43023          	sd	a4,-160(s0)
    b1a0:	f6843703          	ld	a4,-152(s0)
    b1a4:	f8674463          	blt	a4,t1,a92c <.LBB87_1058>

000000000000b1a8 <.LBB87_1313>:
    b1a8:	07b00713          	li	a4,123
    b1ac:	f6e43423          	sd	a4,-152(s0)
    b1b0:	f7043703          	ld	a4,-144(s0)
    b1b4:	f8674063          	blt	a4,t1,a934 <.LBB87_1059>

000000000000b1b8 <.LBB87_1314>:
    b1b8:	07b00713          	li	a4,123
    b1bc:	f6e43823          	sd	a4,-144(s0)
    b1c0:	f7843703          	ld	a4,-136(s0)
    b1c4:	f6674c63          	blt	a4,t1,a93c <.LBB87_1060>

000000000000b1c8 <.LBB87_1315>:
    b1c8:	07b00713          	li	a4,123
    b1cc:	f6e43c23          	sd	a4,-136(s0)
    b1d0:	f8043703          	ld	a4,-128(s0)
    b1d4:	f6674863          	blt	a4,t1,a944 <.LBB87_1061>

000000000000b1d8 <.LBB87_1316>:
    b1d8:	07b00713          	li	a4,123
    b1dc:	f8e43023          	sd	a4,-128(s0)
    b1e0:	f8843703          	ld	a4,-120(s0)
    b1e4:	f6674463          	blt	a4,t1,a94c <.LBB87_1062>

000000000000b1e8 <.LBB87_1317>:
    b1e8:	07b00713          	li	a4,123
    b1ec:	f8e43423          	sd	a4,-120(s0)
    b1f0:	d3843703          	ld	a4,-712(s0)
    b1f4:	f6674063          	blt	a4,t1,a954 <.LBB87_1063>

000000000000b1f8 <.LBB87_1318>:
    b1f8:	07b00713          	li	a4,123
    b1fc:	d2e43c23          	sd	a4,-712(s0)
    b200:	d4843703          	ld	a4,-696(s0)
    b204:	f4674c63          	blt	a4,t1,a95c <.LBB87_1064>

000000000000b208 <.LBB87_1319>:
    b208:	07b00713          	li	a4,123
    b20c:	d4e43423          	sd	a4,-696(s0)
    b210:	d5843703          	ld	a4,-680(s0)
    b214:	f4674863          	blt	a4,t1,a964 <.LBB87_1065>

000000000000b218 <.LBB87_1320>:
    b218:	07b00713          	li	a4,123
    b21c:	d4e43c23          	sd	a4,-680(s0)
    b220:	d7043703          	ld	a4,-656(s0)
    b224:	f4674463          	blt	a4,t1,a96c <.LBB87_1066>

000000000000b228 <.LBB87_1321>:
    b228:	07b00713          	li	a4,123
    b22c:	d6e43823          	sd	a4,-656(s0)
    b230:	d8043703          	ld	a4,-640(s0)
    b234:	f4674063          	blt	a4,t1,a974 <.LBB87_1067>

000000000000b238 <.LBB87_1322>:
    b238:	07b00713          	li	a4,123
    b23c:	d8e43023          	sd	a4,-640(s0)
    b240:	d9043703          	ld	a4,-624(s0)
    b244:	f2674c63          	blt	a4,t1,a97c <.LBB87_1068>

000000000000b248 <.LBB87_1323>:
    b248:	07b00713          	li	a4,123
    b24c:	d8e43823          	sd	a4,-624(s0)
    b250:	da043703          	ld	a4,-608(s0)
    b254:	f2674863          	blt	a4,t1,a984 <.LBB87_1069>

000000000000b258 <.LBB87_1324>:
    b258:	07b00713          	li	a4,123
    b25c:	dae43023          	sd	a4,-608(s0)
    b260:	db043703          	ld	a4,-592(s0)
    b264:	f2674463          	blt	a4,t1,a98c <.LBB87_1070>

000000000000b268 <.LBB87_1325>:
    b268:	07b00713          	li	a4,123
    b26c:	dae43823          	sd	a4,-592(s0)
    b270:	dc043703          	ld	a4,-576(s0)
    b274:	f2674063          	blt	a4,t1,a994 <.LBB87_1071>

000000000000b278 <.LBB87_1326>:
    b278:	07b00713          	li	a4,123
    b27c:	dce43023          	sd	a4,-576(s0)
    b280:	dd043703          	ld	a4,-560(s0)
    b284:	f0674c63          	blt	a4,t1,a99c <.LBB87_1072>

000000000000b288 <.LBB87_1327>:
    b288:	07b00713          	li	a4,123
    b28c:	dce43823          	sd	a4,-560(s0)
    b290:	de043703          	ld	a4,-544(s0)
    b294:	f0674863          	blt	a4,t1,a9a4 <.LBB87_1073>

000000000000b298 <.LBB87_1328>:
    b298:	07b00713          	li	a4,123
    b29c:	dee43023          	sd	a4,-544(s0)
    b2a0:	de843703          	ld	a4,-536(s0)
    b2a4:	f0674463          	blt	a4,t1,a9ac <.LBB87_1074>

000000000000b2a8 <.LBB87_1329>:
    b2a8:	07b00713          	li	a4,123
    b2ac:	dee43423          	sd	a4,-536(s0)
    b2b0:	df043703          	ld	a4,-528(s0)
    b2b4:	f0674063          	blt	a4,t1,a9b4 <.LBB87_1075>

000000000000b2b8 <.LBB87_1330>:
    b2b8:	07b00713          	li	a4,123
    b2bc:	dee43823          	sd	a4,-528(s0)
    b2c0:	df843703          	ld	a4,-520(s0)
    b2c4:	ee674c63          	blt	a4,t1,a9bc <.LBB87_1076>

000000000000b2c8 <.LBB87_1331>:
    b2c8:	07b00713          	li	a4,123
    b2cc:	dee43c23          	sd	a4,-520(s0)
    b2d0:	e0043703          	ld	a4,-512(s0)
    b2d4:	ee674863          	blt	a4,t1,a9c4 <.LBB87_1077>

000000000000b2d8 <.LBB87_1332>:
    b2d8:	07b00713          	li	a4,123
    b2dc:	e0e43023          	sd	a4,-512(s0)
    b2e0:	e0843703          	ld	a4,-504(s0)
    b2e4:	ee674463          	blt	a4,t1,a9cc <.LBB87_1078>

000000000000b2e8 <.LBB87_1333>:
    b2e8:	07b00713          	li	a4,123
    b2ec:	e0e43423          	sd	a4,-504(s0)
    b2f0:	e1043703          	ld	a4,-496(s0)
    b2f4:	ee674063          	blt	a4,t1,a9d4 <.LBB87_1079>

000000000000b2f8 <.LBB87_1334>:
    b2f8:	07b00713          	li	a4,123
    b2fc:	e0e43823          	sd	a4,-496(s0)
    b300:	e1843703          	ld	a4,-488(s0)
    b304:	ec674c63          	blt	a4,t1,a9dc <.LBB87_1080>

000000000000b308 <.LBB87_1335>:
    b308:	07b00713          	li	a4,123
    b30c:	e0e43c23          	sd	a4,-488(s0)
    b310:	e2043703          	ld	a4,-480(s0)
    b314:	ec674863          	blt	a4,t1,a9e4 <.LBB87_1081>

000000000000b318 <.LBB87_1336>:
    b318:	07b00713          	li	a4,123
    b31c:	e2e43023          	sd	a4,-480(s0)
    b320:	e2843703          	ld	a4,-472(s0)
    b324:	ec674463          	blt	a4,t1,a9ec <.LBB87_1082>

000000000000b328 <.LBB87_1337>:
    b328:	07b00713          	li	a4,123
    b32c:	e2e43423          	sd	a4,-472(s0)
    b330:	e3043703          	ld	a4,-464(s0)
    b334:	ec674063          	blt	a4,t1,a9f4 <.LBB87_1083>

000000000000b338 <.LBB87_1338>:
    b338:	07b00713          	li	a4,123
    b33c:	e2e43823          	sd	a4,-464(s0)
    b340:	e3843703          	ld	a4,-456(s0)
    b344:	ea674c63          	blt	a4,t1,a9fc <.LBB87_1084>

000000000000b348 <.LBB87_1339>:
    b348:	07b00713          	li	a4,123
    b34c:	e2e43c23          	sd	a4,-456(s0)
    b350:	e4043703          	ld	a4,-448(s0)
    b354:	ea674863          	blt	a4,t1,aa04 <.LBB87_1085>

000000000000b358 <.LBB87_1340>:
    b358:	07b00713          	li	a4,123
    b35c:	e4e43023          	sd	a4,-448(s0)
    b360:	e5043703          	ld	a4,-432(s0)
    b364:	ea674463          	blt	a4,t1,aa0c <.LBB87_1086>

000000000000b368 <.LBB87_1341>:
    b368:	07b00713          	li	a4,123
    b36c:	e4e43823          	sd	a4,-432(s0)
    b370:	e6843703          	ld	a4,-408(s0)
    b374:	ea674063          	blt	a4,t1,aa14 <.LBB87_1087>

000000000000b378 <.LBB87_1342>:
    b378:	07b00713          	li	a4,123
    b37c:	e6e43423          	sd	a4,-408(s0)
    b380:	e7843703          	ld	a4,-392(s0)
    b384:	e8674c63          	blt	a4,t1,aa1c <.LBB87_1088>

000000000000b388 <.LBB87_1343>:
    b388:	07b00713          	li	a4,123
    b38c:	e6e43c23          	sd	a4,-392(s0)
    b390:	e8843703          	ld	a4,-376(s0)
    b394:	e8674863          	blt	a4,t1,aa24 <.LBB87_1089>

000000000000b398 <.LBB87_1344>:
    b398:	07b00713          	li	a4,123
    b39c:	e8e43423          	sd	a4,-376(s0)
    b3a0:	e9843703          	ld	a4,-360(s0)
    b3a4:	e8674463          	blt	a4,t1,aa2c <.LBB87_1090>

000000000000b3a8 <.LBB87_1345>:
    b3a8:	07b00713          	li	a4,123
    b3ac:	e8e43c23          	sd	a4,-360(s0)
    b3b0:	ea843703          	ld	a4,-344(s0)
    b3b4:	e8674063          	blt	a4,t1,aa34 <.LBB87_1091>

000000000000b3b8 <.LBB87_1346>:
    b3b8:	07b00713          	li	a4,123
    b3bc:	eae43423          	sd	a4,-344(s0)
    b3c0:	eb843703          	ld	a4,-328(s0)
    b3c4:	e6674c63          	blt	a4,t1,aa3c <.LBB87_1092>

000000000000b3c8 <.LBB87_1347>:
    b3c8:	07b00713          	li	a4,123
    b3cc:	eae43c23          	sd	a4,-328(s0)
    b3d0:	ec843703          	ld	a4,-312(s0)
    b3d4:	e6674863          	blt	a4,t1,aa44 <.LBB87_1093>

000000000000b3d8 <.LBB87_1348>:
    b3d8:	07b00713          	li	a4,123
    b3dc:	ece43423          	sd	a4,-312(s0)
    b3e0:	ed843703          	ld	a4,-296(s0)
    b3e4:	e6674463          	blt	a4,t1,aa4c <.LBB87_1094>

000000000000b3e8 <.LBB87_1349>:
    b3e8:	07b00713          	li	a4,123
    b3ec:	ece43c23          	sd	a4,-296(s0)
    b3f0:	c3843703          	ld	a4,-968(s0)
    b3f4:	e6674063          	blt	a4,t1,aa54 <.LBB87_1095>

000000000000b3f8 <.LBB87_1350>:
    b3f8:	07b00713          	li	a4,123
    b3fc:	c2e43c23          	sd	a4,-968(s0)
    b400:	c4843703          	ld	a4,-952(s0)
    b404:	e4674c63          	blt	a4,t1,aa5c <.LBB87_1096>

000000000000b408 <.LBB87_1351>:
    b408:	07b00713          	li	a4,123
    b40c:	c4e43423          	sd	a4,-952(s0)
    b410:	c5843703          	ld	a4,-936(s0)
    b414:	e4674863          	blt	a4,t1,aa64 <.LBB87_1097>

000000000000b418 <.LBB87_1352>:
    b418:	07b00713          	li	a4,123
    b41c:	c4e43c23          	sd	a4,-936(s0)
    b420:	c6843703          	ld	a4,-920(s0)
    b424:	e4674463          	blt	a4,t1,aa6c <.LBB87_1098>

000000000000b428 <.LBB87_1353>:
    b428:	07b00713          	li	a4,123
    b42c:	c6e43423          	sd	a4,-920(s0)
    b430:	c7843703          	ld	a4,-904(s0)
    b434:	e4674063          	blt	a4,t1,aa74 <.LBB87_1099>

000000000000b438 <.LBB87_1354>:
    b438:	07b00713          	li	a4,123
    b43c:	c6e43c23          	sd	a4,-904(s0)
    b440:	c8843703          	ld	a4,-888(s0)
    b444:	e2674c63          	blt	a4,t1,aa7c <.LBB87_1100>

000000000000b448 <.LBB87_1355>:
    b448:	07b00713          	li	a4,123
    b44c:	c8e43423          	sd	a4,-888(s0)
    b450:	c9843703          	ld	a4,-872(s0)
    b454:	e2674863          	blt	a4,t1,aa84 <.LBB87_1101>

000000000000b458 <.LBB87_1356>:
    b458:	07b00713          	li	a4,123
    b45c:	c8e43c23          	sd	a4,-872(s0)
    b460:	ca843703          	ld	a4,-856(s0)
    b464:	e2674463          	blt	a4,t1,aa8c <.LBB87_1102>

000000000000b468 <.LBB87_1357>:
    b468:	07b00713          	li	a4,123
    b46c:	cae43423          	sd	a4,-856(s0)
    b470:	cb843703          	ld	a4,-840(s0)
    b474:	e2674063          	blt	a4,t1,aa94 <.LBB87_1103>

000000000000b478 <.LBB87_1358>:
    b478:	07b00713          	li	a4,123
    b47c:	cae43c23          	sd	a4,-840(s0)
    b480:	cc843703          	ld	a4,-824(s0)
    b484:	e0674c63          	blt	a4,t1,aa9c <.LBB87_1104>

000000000000b488 <.LBB87_1359>:
    b488:	07b00713          	li	a4,123
    b48c:	cce43423          	sd	a4,-824(s0)
    b490:	cd843703          	ld	a4,-808(s0)
    b494:	e0674863          	blt	a4,t1,aaa4 <.LBB87_1105>

000000000000b498 <.LBB87_1360>:
    b498:	07b00713          	li	a4,123
    b49c:	cce43c23          	sd	a4,-808(s0)
    b4a0:	ce043703          	ld	a4,-800(s0)
    b4a4:	e0674463          	blt	a4,t1,aaac <.LBB87_1106>

000000000000b4a8 <.LBB87_1361>:
    b4a8:	07b00713          	li	a4,123
    b4ac:	cee43023          	sd	a4,-800(s0)
    b4b0:	ce843703          	ld	a4,-792(s0)
    b4b4:	e0674063          	blt	a4,t1,aab4 <.LBB87_1107>

000000000000b4b8 <.LBB87_1362>:
    b4b8:	07b00713          	li	a4,123
    b4bc:	cee43423          	sd	a4,-792(s0)
    b4c0:	cf043703          	ld	a4,-784(s0)
    b4c4:	de674c63          	blt	a4,t1,aabc <.LBB87_1108>

000000000000b4c8 <.LBB87_1363>:
    b4c8:	07b00713          	li	a4,123
    b4cc:	cee43823          	sd	a4,-784(s0)
    b4d0:	cf843703          	ld	a4,-776(s0)
    b4d4:	de674863          	blt	a4,t1,aac4 <.LBB87_1109>

000000000000b4d8 <.LBB87_1364>:
    b4d8:	07b00713          	li	a4,123
    b4dc:	cee43c23          	sd	a4,-776(s0)
    b4e0:	d0043703          	ld	a4,-768(s0)
    b4e4:	de674463          	blt	a4,t1,aacc <.LBB87_1110>

000000000000b4e8 <.LBB87_1365>:
    b4e8:	07b00713          	li	a4,123
    b4ec:	d0e43023          	sd	a4,-768(s0)
    b4f0:	d0843703          	ld	a4,-760(s0)
    b4f4:	de674063          	blt	a4,t1,aad4 <.LBB87_1111>

000000000000b4f8 <.LBB87_1366>:
    b4f8:	07b00713          	li	a4,123
    b4fc:	d0e43423          	sd	a4,-760(s0)
    b500:	d1043703          	ld	a4,-752(s0)
    b504:	dc674c63          	blt	a4,t1,aadc <.LBB87_1112>

000000000000b508 <.LBB87_1367>:
    b508:	07b00713          	li	a4,123
    b50c:	d0e43823          	sd	a4,-752(s0)
    b510:	d1843703          	ld	a4,-744(s0)
    b514:	dc674863          	blt	a4,t1,aae4 <.LBB87_1113>

000000000000b518 <.LBB87_1368>:
    b518:	07b00713          	li	a4,123
    b51c:	d0e43c23          	sd	a4,-744(s0)
    b520:	d2043703          	ld	a4,-736(s0)
    b524:	dc674463          	blt	a4,t1,aaec <.LBB87_1114>

000000000000b528 <.LBB87_1369>:
    b528:	07b00713          	li	a4,123
    b52c:	d2e43023          	sd	a4,-736(s0)
    b530:	d2843703          	ld	a4,-728(s0)
    b534:	dc674063          	blt	a4,t1,aaf4 <.LBB87_1115>

000000000000b538 <.LBB87_1370>:
    b538:	07b00713          	li	a4,123
    b53c:	d2e43423          	sd	a4,-728(s0)
    b540:	d3043703          	ld	a4,-720(s0)
    b544:	da674c63          	blt	a4,t1,aafc <.LBB87_1116>

000000000000b548 <.LBB87_1371>:
    b548:	07b00713          	li	a4,123
    b54c:	d2e43823          	sd	a4,-720(s0)
    b550:	d4043703          	ld	a4,-704(s0)
    b554:	da674863          	blt	a4,t1,ab04 <.LBB87_1117>

000000000000b558 <.LBB87_1372>:
    b558:	07b00713          	li	a4,123
    b55c:	d4e43023          	sd	a4,-704(s0)
    b560:	d5043703          	ld	a4,-688(s0)
    b564:	da674463          	blt	a4,t1,ab0c <.LBB87_1118>

000000000000b568 <.LBB87_1373>:
    b568:	07b00713          	li	a4,123
    b56c:	d4e43823          	sd	a4,-688(s0)
    b570:	d6843703          	ld	a4,-664(s0)
    b574:	da674063          	blt	a4,t1,ab14 <.LBB87_1119>

000000000000b578 <.LBB87_1374>:
    b578:	07b00713          	li	a4,123
    b57c:	d6e43423          	sd	a4,-664(s0)
    b580:	d7843703          	ld	a4,-648(s0)
    b584:	d8674c63          	blt	a4,t1,ab1c <.LBB87_1120>

000000000000b588 <.LBB87_1375>:
    b588:	07b00713          	li	a4,123
    b58c:	d6e43c23          	sd	a4,-648(s0)
    b590:	d8843703          	ld	a4,-632(s0)
    b594:	d8674863          	blt	a4,t1,ab24 <.LBB87_1121>

000000000000b598 <.LBB87_1376>:
    b598:	07b00713          	li	a4,123
    b59c:	d8e43423          	sd	a4,-632(s0)
    b5a0:	d9843703          	ld	a4,-616(s0)
    b5a4:	d8674463          	blt	a4,t1,ab2c <.LBB87_1122>

000000000000b5a8 <.LBB87_1377>:
    b5a8:	07b00713          	li	a4,123
    b5ac:	d8e43c23          	sd	a4,-616(s0)
    b5b0:	da843703          	ld	a4,-600(s0)
    b5b4:	d8674063          	blt	a4,t1,ab34 <.LBB87_1123>

000000000000b5b8 <.LBB87_1378>:
    b5b8:	07b00713          	li	a4,123
    b5bc:	dae43423          	sd	a4,-600(s0)
    b5c0:	db843703          	ld	a4,-584(s0)
    b5c4:	d6674c63          	blt	a4,t1,ab3c <.LBB87_1124>

000000000000b5c8 <.LBB87_1379>:
    b5c8:	07b00713          	li	a4,123
    b5cc:	dae43c23          	sd	a4,-584(s0)
    b5d0:	dc843703          	ld	a4,-568(s0)
    b5d4:	d6674863          	blt	a4,t1,ab44 <.LBB87_1125>

000000000000b5d8 <.LBB87_1380>:
    b5d8:	07b00713          	li	a4,123
    b5dc:	dce43423          	sd	a4,-568(s0)
    b5e0:	dd843703          	ld	a4,-552(s0)
    b5e4:	d6674463          	blt	a4,t1,ab4c <.LBB87_1126>

000000000000b5e8 <.LBB87_1381>:
    b5e8:	07b00713          	li	a4,123
    b5ec:	dce43c23          	sd	a4,-552(s0)
    b5f0:	b3843703          	ld	a4,-1224(s0)
    b5f4:	d6674063          	blt	a4,t1,ab54 <.LBB87_1127>

000000000000b5f8 <.LBB87_1382>:
    b5f8:	07b00713          	li	a4,123
    b5fc:	b2e43c23          	sd	a4,-1224(s0)
    b600:	b4843703          	ld	a4,-1208(s0)
    b604:	d4674c63          	blt	a4,t1,ab5c <.LBB87_1128>

000000000000b608 <.LBB87_1383>:
    b608:	07b00713          	li	a4,123
    b60c:	b4e43423          	sd	a4,-1208(s0)
    b610:	b5843703          	ld	a4,-1192(s0)
    b614:	d4674863          	blt	a4,t1,ab64 <.LBB87_1129>

000000000000b618 <.LBB87_1384>:
    b618:	07b00713          	li	a4,123
    b61c:	b4e43c23          	sd	a4,-1192(s0)
    b620:	b6843703          	ld	a4,-1176(s0)
    b624:	d4674463          	blt	a4,t1,ab6c <.LBB87_1130>

000000000000b628 <.LBB87_1385>:
    b628:	07b00713          	li	a4,123
    b62c:	b6e43423          	sd	a4,-1176(s0)
    b630:	b7843703          	ld	a4,-1160(s0)
    b634:	d4674063          	blt	a4,t1,ab74 <.LBB87_1131>

000000000000b638 <.LBB87_1386>:
    b638:	07b00713          	li	a4,123
    b63c:	b6e43c23          	sd	a4,-1160(s0)
    b640:	b8843703          	ld	a4,-1144(s0)
    b644:	d2674c63          	blt	a4,t1,ab7c <.LBB87_1132>

000000000000b648 <.LBB87_1387>:
    b648:	07b00713          	li	a4,123
    b64c:	b8e43423          	sd	a4,-1144(s0)
    b650:	b9843703          	ld	a4,-1128(s0)
    b654:	d2674863          	blt	a4,t1,ab84 <.LBB87_1133>

000000000000b658 <.LBB87_1388>:
    b658:	07b00713          	li	a4,123
    b65c:	b8e43c23          	sd	a4,-1128(s0)
    b660:	ba843703          	ld	a4,-1112(s0)
    b664:	d2674463          	blt	a4,t1,ab8c <.LBB87_1134>

000000000000b668 <.LBB87_1389>:
    b668:	07b00713          	li	a4,123
    b66c:	bae43423          	sd	a4,-1112(s0)
    b670:	bb843703          	ld	a4,-1096(s0)
    b674:	d2674063          	blt	a4,t1,ab94 <.LBB87_1135>

000000000000b678 <.LBB87_1390>:
    b678:	07b00713          	li	a4,123
    b67c:	bae43c23          	sd	a4,-1096(s0)
    b680:	bc843703          	ld	a4,-1080(s0)
    b684:	d0674c63          	blt	a4,t1,ab9c <.LBB87_1136>

000000000000b688 <.LBB87_1391>:
    b688:	07b00713          	li	a4,123
    b68c:	bce43423          	sd	a4,-1080(s0)
    b690:	bd843703          	ld	a4,-1064(s0)
    b694:	d0674863          	blt	a4,t1,aba4 <.LBB87_1137>

000000000000b698 <.LBB87_1392>:
    b698:	07b00713          	li	a4,123
    b69c:	bce43c23          	sd	a4,-1064(s0)
    b6a0:	be043703          	ld	a4,-1056(s0)
    b6a4:	d0674463          	blt	a4,t1,abac <.LBB87_1138>

000000000000b6a8 <.LBB87_1393>:
    b6a8:	07b00713          	li	a4,123
    b6ac:	bee43023          	sd	a4,-1056(s0)
    b6b0:	be843703          	ld	a4,-1048(s0)
    b6b4:	d0674063          	blt	a4,t1,abb4 <.LBB87_1139>

000000000000b6b8 <.LBB87_1394>:
    b6b8:	07b00713          	li	a4,123
    b6bc:	bee43423          	sd	a4,-1048(s0)
    b6c0:	bf043703          	ld	a4,-1040(s0)
    b6c4:	ce674c63          	blt	a4,t1,abbc <.LBB87_1140>

000000000000b6c8 <.LBB87_1395>:
    b6c8:	07b00713          	li	a4,123
    b6cc:	bee43823          	sd	a4,-1040(s0)
    b6d0:	bf843703          	ld	a4,-1032(s0)
    b6d4:	ce674863          	blt	a4,t1,abc4 <.LBB87_1141>

000000000000b6d8 <.LBB87_1396>:
    b6d8:	07b00713          	li	a4,123
    b6dc:	bee43c23          	sd	a4,-1032(s0)
    b6e0:	c0043703          	ld	a4,-1024(s0)
    b6e4:	ce674463          	blt	a4,t1,abcc <.LBB87_1142>

000000000000b6e8 <.LBB87_1397>:
    b6e8:	07b00713          	li	a4,123
    b6ec:	c0e43023          	sd	a4,-1024(s0)
    b6f0:	c0843703          	ld	a4,-1016(s0)
    b6f4:	ce674063          	blt	a4,t1,abd4 <.LBB87_1143>

000000000000b6f8 <.LBB87_1398>:
    b6f8:	07b00713          	li	a4,123
    b6fc:	c0e43423          	sd	a4,-1016(s0)
    b700:	c1043703          	ld	a4,-1008(s0)
    b704:	cc674c63          	blt	a4,t1,abdc <.LBB87_1144>

000000000000b708 <.LBB87_1399>:
    b708:	07b00713          	li	a4,123
    b70c:	c0e43823          	sd	a4,-1008(s0)
    b710:	c1843703          	ld	a4,-1000(s0)
    b714:	cc674863          	blt	a4,t1,abe4 <.LBB87_1145>

000000000000b718 <.LBB87_1400>:
    b718:	07b00713          	li	a4,123
    b71c:	c0e43c23          	sd	a4,-1000(s0)
    b720:	c2043703          	ld	a4,-992(s0)
    b724:	cc674463          	blt	a4,t1,abec <.LBB87_1146>

000000000000b728 <.LBB87_1401>:
    b728:	07b00713          	li	a4,123
    b72c:	c2e43023          	sd	a4,-992(s0)
    b730:	c2843703          	ld	a4,-984(s0)
    b734:	cc674063          	blt	a4,t1,abf4 <.LBB87_1147>

000000000000b738 <.LBB87_1402>:
    b738:	07b00713          	li	a4,123
    b73c:	c2e43423          	sd	a4,-984(s0)
    b740:	c3043703          	ld	a4,-976(s0)
    b744:	ca674c63          	blt	a4,t1,abfc <.LBB87_1148>

000000000000b748 <.LBB87_1403>:
    b748:	07b00713          	li	a4,123
    b74c:	c2e43823          	sd	a4,-976(s0)
    b750:	c4043703          	ld	a4,-960(s0)
    b754:	ca674863          	blt	a4,t1,ac04 <.LBB87_1149>

000000000000b758 <.LBB87_1404>:
    b758:	07b00713          	li	a4,123
    b75c:	c4e43023          	sd	a4,-960(s0)
    b760:	c5043703          	ld	a4,-944(s0)
    b764:	ca674463          	blt	a4,t1,ac0c <.LBB87_1150>

000000000000b768 <.LBB87_1405>:
    b768:	07b00713          	li	a4,123
    b76c:	c4e43823          	sd	a4,-944(s0)
    b770:	c6043703          	ld	a4,-928(s0)
    b774:	ca674063          	blt	a4,t1,ac14 <.LBB87_1151>

000000000000b778 <.LBB87_1406>:
    b778:	07b00713          	li	a4,123
    b77c:	c6e43023          	sd	a4,-928(s0)
    b780:	c7043703          	ld	a4,-912(s0)
    b784:	c8674c63          	blt	a4,t1,ac1c <.LBB87_1152>

000000000000b788 <.LBB87_1407>:
    b788:	07b00713          	li	a4,123
    b78c:	c6e43823          	sd	a4,-912(s0)
    b790:	c8043703          	ld	a4,-896(s0)
    b794:	c8674863          	blt	a4,t1,ac24 <.LBB87_1153>

000000000000b798 <.LBB87_1408>:
    b798:	07b00713          	li	a4,123
    b79c:	c8e43023          	sd	a4,-896(s0)
    b7a0:	c9043703          	ld	a4,-880(s0)
    b7a4:	c8674463          	blt	a4,t1,ac2c <.LBB87_1154>

000000000000b7a8 <.LBB87_1409>:
    b7a8:	07b00713          	li	a4,123
    b7ac:	c8e43823          	sd	a4,-880(s0)
    b7b0:	ca043703          	ld	a4,-864(s0)
    b7b4:	c8674063          	blt	a4,t1,ac34 <.LBB87_1155>

000000000000b7b8 <.LBB87_1410>:
    b7b8:	07b00713          	li	a4,123
    b7bc:	cae43023          	sd	a4,-864(s0)
    b7c0:	cb043703          	ld	a4,-848(s0)
    b7c4:	c6674c63          	blt	a4,t1,ac3c <.LBB87_1156>

000000000000b7c8 <.LBB87_1411>:
    b7c8:	07b00713          	li	a4,123
    b7cc:	cae43823          	sd	a4,-848(s0)
    b7d0:	cc043703          	ld	a4,-832(s0)
    b7d4:	c6674863          	blt	a4,t1,ac44 <.LBB87_1157>

000000000000b7d8 <.LBB87_1412>:
    b7d8:	07b00713          	li	a4,123
    b7dc:	cce43023          	sd	a4,-832(s0)
    b7e0:	cd043703          	ld	a4,-816(s0)
    b7e4:	c6674463          	blt	a4,t1,ac4c <.LBB87_1158>

000000000000b7e8 <.LBB87_1413>:
    b7e8:	07b00713          	li	a4,123
    b7ec:	cce43823          	sd	a4,-816(s0)
    b7f0:	a3843703          	ld	a4,-1480(s0)
    b7f4:	c6674063          	blt	a4,t1,ac54 <.LBB87_1159>

000000000000b7f8 <.LBB87_1414>:
    b7f8:	07b00713          	li	a4,123
    b7fc:	a2e43c23          	sd	a4,-1480(s0)
    b800:	a4843703          	ld	a4,-1464(s0)
    b804:	c4674c63          	blt	a4,t1,ac5c <.LBB87_1160>

000000000000b808 <.LBB87_1415>:
    b808:	07b00713          	li	a4,123
    b80c:	a4e43423          	sd	a4,-1464(s0)
    b810:	a5843703          	ld	a4,-1448(s0)
    b814:	c4674863          	blt	a4,t1,ac64 <.LBB87_1161>

000000000000b818 <.LBB87_1416>:
    b818:	07b00713          	li	a4,123
    b81c:	a4e43c23          	sd	a4,-1448(s0)
    b820:	a6843703          	ld	a4,-1432(s0)
    b824:	c4674463          	blt	a4,t1,ac6c <.LBB87_1162>

000000000000b828 <.LBB87_1417>:
    b828:	07b00713          	li	a4,123
    b82c:	a6e43423          	sd	a4,-1432(s0)
    b830:	a7843703          	ld	a4,-1416(s0)
    b834:	c4674063          	blt	a4,t1,ac74 <.LBB87_1163>

000000000000b838 <.LBB87_1418>:
    b838:	07b00713          	li	a4,123
    b83c:	a6e43c23          	sd	a4,-1416(s0)
    b840:	a8843703          	ld	a4,-1400(s0)
    b844:	c2674c63          	blt	a4,t1,ac7c <.LBB87_1164>

000000000000b848 <.LBB87_1419>:
    b848:	07b00713          	li	a4,123
    b84c:	a8e43423          	sd	a4,-1400(s0)
    b850:	a9843703          	ld	a4,-1384(s0)
    b854:	c2674863          	blt	a4,t1,ac84 <.LBB87_1165>

000000000000b858 <.LBB87_1420>:
    b858:	07b00713          	li	a4,123
    b85c:	a8e43c23          	sd	a4,-1384(s0)
    b860:	aa843703          	ld	a4,-1368(s0)
    b864:	c2674463          	blt	a4,t1,ac8c <.LBB87_1166>

000000000000b868 <.LBB87_1421>:
    b868:	07b00713          	li	a4,123
    b86c:	aae43423          	sd	a4,-1368(s0)
    b870:	ab843703          	ld	a4,-1352(s0)
    b874:	c2674063          	blt	a4,t1,ac94 <.LBB87_1167>

000000000000b878 <.LBB87_1422>:
    b878:	07b00713          	li	a4,123
    b87c:	aae43c23          	sd	a4,-1352(s0)
    b880:	ac843703          	ld	a4,-1336(s0)
    b884:	c0674c63          	blt	a4,t1,ac9c <.LBB87_1168>

000000000000b888 <.LBB87_1423>:
    b888:	07b00713          	li	a4,123
    b88c:	ace43423          	sd	a4,-1336(s0)
    b890:	ad843703          	ld	a4,-1320(s0)
    b894:	c0674863          	blt	a4,t1,aca4 <.LBB87_1169>

000000000000b898 <.LBB87_1424>:
    b898:	07b00713          	li	a4,123
    b89c:	ace43c23          	sd	a4,-1320(s0)
    b8a0:	ae043703          	ld	a4,-1312(s0)
    b8a4:	c0674463          	blt	a4,t1,acac <.LBB87_1170>

000000000000b8a8 <.LBB87_1425>:
    b8a8:	07b00713          	li	a4,123
    b8ac:	aee43023          	sd	a4,-1312(s0)
    b8b0:	ae843703          	ld	a4,-1304(s0)
    b8b4:	c0674063          	blt	a4,t1,acb4 <.LBB87_1171>

000000000000b8b8 <.LBB87_1426>:
    b8b8:	07b00713          	li	a4,123
    b8bc:	aee43423          	sd	a4,-1304(s0)
    b8c0:	af043703          	ld	a4,-1296(s0)
    b8c4:	be674c63          	blt	a4,t1,acbc <.LBB87_1172>

000000000000b8c8 <.LBB87_1427>:
    b8c8:	07b00713          	li	a4,123
    b8cc:	aee43823          	sd	a4,-1296(s0)
    b8d0:	af843703          	ld	a4,-1288(s0)
    b8d4:	be674863          	blt	a4,t1,acc4 <.LBB87_1173>

000000000000b8d8 <.LBB87_1428>:
    b8d8:	07b00713          	li	a4,123
    b8dc:	aee43c23          	sd	a4,-1288(s0)
    b8e0:	b0043703          	ld	a4,-1280(s0)
    b8e4:	be674463          	blt	a4,t1,accc <.LBB87_1174>

000000000000b8e8 <.LBB87_1429>:
    b8e8:	07b00713          	li	a4,123
    b8ec:	b0e43023          	sd	a4,-1280(s0)
    b8f0:	b0843703          	ld	a4,-1272(s0)
    b8f4:	be674063          	blt	a4,t1,acd4 <.LBB87_1175>

000000000000b8f8 <.LBB87_1430>:
    b8f8:	07b00713          	li	a4,123
    b8fc:	b0e43423          	sd	a4,-1272(s0)
    b900:	b1043703          	ld	a4,-1264(s0)
    b904:	bc674c63          	blt	a4,t1,acdc <.LBB87_1176>

000000000000b908 <.LBB87_1431>:
    b908:	07b00713          	li	a4,123
    b90c:	b0e43823          	sd	a4,-1264(s0)
    b910:	b1843703          	ld	a4,-1256(s0)
    b914:	bc674863          	blt	a4,t1,ace4 <.LBB87_1177>

000000000000b918 <.LBB87_1432>:
    b918:	07b00713          	li	a4,123
    b91c:	b0e43c23          	sd	a4,-1256(s0)
    b920:	b2043703          	ld	a4,-1248(s0)
    b924:	bc674463          	blt	a4,t1,acec <.LBB87_1178>

000000000000b928 <.LBB87_1433>:
    b928:	07b00713          	li	a4,123
    b92c:	b2e43023          	sd	a4,-1248(s0)
    b930:	b2843703          	ld	a4,-1240(s0)
    b934:	bc674063          	blt	a4,t1,acf4 <.LBB87_1179>

000000000000b938 <.LBB87_1434>:
    b938:	07b00713          	li	a4,123
    b93c:	b2e43423          	sd	a4,-1240(s0)
    b940:	b3043703          	ld	a4,-1232(s0)
    b944:	ba674c63          	blt	a4,t1,acfc <.LBB87_1180>

000000000000b948 <.LBB87_1435>:
    b948:	07b00713          	li	a4,123
    b94c:	b2e43823          	sd	a4,-1232(s0)
    b950:	b4043703          	ld	a4,-1216(s0)
    b954:	ba674863          	blt	a4,t1,ad04 <.LBB87_1181>

000000000000b958 <.LBB87_1436>:
    b958:	07b00713          	li	a4,123
    b95c:	b4e43023          	sd	a4,-1216(s0)
    b960:	b5043703          	ld	a4,-1200(s0)
    b964:	ba674463          	blt	a4,t1,ad0c <.LBB87_1182>

000000000000b968 <.LBB87_1437>:
    b968:	07b00713          	li	a4,123
    b96c:	b4e43823          	sd	a4,-1200(s0)
    b970:	b6043703          	ld	a4,-1184(s0)
    b974:	ba674063          	blt	a4,t1,ad14 <.LBB87_1183>

000000000000b978 <.LBB87_1438>:
    b978:	07b00713          	li	a4,123
    b97c:	b6e43023          	sd	a4,-1184(s0)
    b980:	b7043703          	ld	a4,-1168(s0)
    b984:	b8674c63          	blt	a4,t1,ad1c <.LBB87_1184>

000000000000b988 <.LBB87_1439>:
    b988:	07b00713          	li	a4,123
    b98c:	b6e43823          	sd	a4,-1168(s0)
    b990:	b8043703          	ld	a4,-1152(s0)
    b994:	b8674863          	blt	a4,t1,ad24 <.LBB87_1185>

000000000000b998 <.LBB87_1440>:
    b998:	07b00713          	li	a4,123
    b99c:	b8e43023          	sd	a4,-1152(s0)
    b9a0:	b9043703          	ld	a4,-1136(s0)
    b9a4:	b8674463          	blt	a4,t1,ad2c <.LBB87_1186>

000000000000b9a8 <.LBB87_1441>:
    b9a8:	07b00713          	li	a4,123
    b9ac:	b8e43823          	sd	a4,-1136(s0)
    b9b0:	ba043703          	ld	a4,-1120(s0)
    b9b4:	b8674063          	blt	a4,t1,ad34 <.LBB87_1187>

000000000000b9b8 <.LBB87_1442>:
    b9b8:	07b00713          	li	a4,123
    b9bc:	bae43023          	sd	a4,-1120(s0)
    b9c0:	bb043703          	ld	a4,-1104(s0)
    b9c4:	b6674c63          	blt	a4,t1,ad3c <.LBB87_1188>

000000000000b9c8 <.LBB87_1443>:
    b9c8:	07b00713          	li	a4,123
    b9cc:	bae43823          	sd	a4,-1104(s0)
    b9d0:	bc043703          	ld	a4,-1088(s0)
    b9d4:	b6674863          	blt	a4,t1,ad44 <.LBB87_1189>

000000000000b9d8 <.LBB87_1444>:
    b9d8:	07b00713          	li	a4,123
    b9dc:	bce43023          	sd	a4,-1088(s0)
    b9e0:	bd043703          	ld	a4,-1072(s0)
    b9e4:	b6674463          	blt	a4,t1,ad4c <.LBB87_1190>

000000000000b9e8 <.LBB87_1445>:
    b9e8:	07b00713          	li	a4,123
    b9ec:	bce43823          	sd	a4,-1072(s0)
    b9f0:	9b843703          	ld	a4,-1608(s0)
    b9f4:	b6674063          	blt	a4,t1,ad54 <.LBB87_1191>

000000000000b9f8 <.LBB87_1446>:
    b9f8:	07b00713          	li	a4,123
    b9fc:	9ae43c23          	sd	a4,-1608(s0)
    ba00:	b46dcc63          	blt	s11,t1,ad58 <.LBB87_1192>

000000000000ba04 <.LBB87_1447>:
    ba04:	07b00d93          	li	s11,123
    ba08:	b46cca63          	blt	s9,t1,ad5c <.LBB87_1193>

000000000000ba0c <.LBB87_1448>:
    ba0c:	07b00c93          	li	s9,123
    ba10:	b46bc863          	blt	s7,t1,ad60 <.LBB87_1194>

000000000000ba14 <.LBB87_1449>:
    ba14:	07b00b93          	li	s7,123
    ba18:	b462c663          	blt	t0,t1,ad64 <.LBB87_1195>

000000000000ba1c <.LBB87_1450>:
    ba1c:	07b00293          	li	t0,123
    ba20:	b46ec463          	blt	t4,t1,ad68 <.LBB87_1196>

000000000000ba24 <.LBB87_1451>:
    ba24:	07b00e93          	li	t4,123
    ba28:	b4694263          	blt	s2,t1,ad6c <.LBB87_1197>

000000000000ba2c <.LBB87_1452>:
    ba2c:	07b00913          	li	s2,123
    ba30:	b468c063          	blt	a7,t1,ad70 <.LBB87_1198>

000000000000ba34 <.LBB87_1453>:
    ba34:	07b00893          	li	a7,123
    ba38:	b2654e63          	blt	a0,t1,ad74 <.LBB87_1199>

000000000000ba3c <.LBB87_1454>:
    ba3c:	07b00513          	li	a0,123
    ba40:	9c843703          	ld	a4,-1592(s0)
    ba44:	b2674c63          	blt	a4,t1,ad7c <.LBB87_1200>

000000000000ba48 <.LBB87_1455>:
    ba48:	07b00713          	li	a4,123
    ba4c:	9ce43423          	sd	a4,-1592(s0)
    ba50:	9d843703          	ld	a4,-1576(s0)
    ba54:	b2674863          	blt	a4,t1,ad84 <.LBB87_1201>

000000000000ba58 <.LBB87_1456>:
    ba58:	07b00713          	li	a4,123
    ba5c:	9ce43c23          	sd	a4,-1576(s0)
    ba60:	9e043703          	ld	a4,-1568(s0)
    ba64:	b2674463          	blt	a4,t1,ad8c <.LBB87_1202>

000000000000ba68 <.LBB87_1457>:
    ba68:	07b00713          	li	a4,123
    ba6c:	9ee43023          	sd	a4,-1568(s0)
    ba70:	9e843703          	ld	a4,-1560(s0)
    ba74:	b2674063          	blt	a4,t1,ad94 <.LBB87_1203>

000000000000ba78 <.LBB87_1458>:
    ba78:	07b00713          	li	a4,123
    ba7c:	9ee43423          	sd	a4,-1560(s0)
    ba80:	9f043703          	ld	a4,-1552(s0)
    ba84:	b0674c63          	blt	a4,t1,ad9c <.LBB87_1204>

000000000000ba88 <.LBB87_1459>:
    ba88:	07b00713          	li	a4,123
    ba8c:	9ee43823          	sd	a4,-1552(s0)
    ba90:	9f843703          	ld	a4,-1544(s0)
    ba94:	b0674863          	blt	a4,t1,ada4 <.LBB87_1205>

000000000000ba98 <.LBB87_1460>:
    ba98:	07b00713          	li	a4,123
    ba9c:	9ee43c23          	sd	a4,-1544(s0)
    baa0:	a0043703          	ld	a4,-1536(s0)
    baa4:	b0674463          	blt	a4,t1,adac <.LBB87_1206>

000000000000baa8 <.LBB87_1461>:
    baa8:	07b00713          	li	a4,123
    baac:	a0e43023          	sd	a4,-1536(s0)
    bab0:	a0843703          	ld	a4,-1528(s0)
    bab4:	b0674063          	blt	a4,t1,adb4 <.LBB87_1207>

000000000000bab8 <.LBB87_1462>:
    bab8:	07b00713          	li	a4,123
    babc:	a0e43423          	sd	a4,-1528(s0)
    bac0:	a1043703          	ld	a4,-1520(s0)
    bac4:	ae674c63          	blt	a4,t1,adbc <.LBB87_1208>

000000000000bac8 <.LBB87_1463>:
    bac8:	07b00713          	li	a4,123
    bacc:	a0e43823          	sd	a4,-1520(s0)
    bad0:	a1843703          	ld	a4,-1512(s0)
    bad4:	ae674863          	blt	a4,t1,adc4 <.LBB87_1209>

000000000000bad8 <.LBB87_1464>:
    bad8:	07b00713          	li	a4,123
    badc:	a0e43c23          	sd	a4,-1512(s0)
    bae0:	a2043703          	ld	a4,-1504(s0)
    bae4:	ae674463          	blt	a4,t1,adcc <.LBB87_1210>

000000000000bae8 <.LBB87_1465>:
    bae8:	07b00713          	li	a4,123
    baec:	a2e43023          	sd	a4,-1504(s0)
    baf0:	a2843703          	ld	a4,-1496(s0)
    baf4:	ae674063          	blt	a4,t1,add4 <.LBB87_1211>

000000000000baf8 <.LBB87_1466>:
    baf8:	07b00713          	li	a4,123
    bafc:	a2e43423          	sd	a4,-1496(s0)
    bb00:	a3043703          	ld	a4,-1488(s0)
    bb04:	ac674c63          	blt	a4,t1,addc <.LBB87_1212>

000000000000bb08 <.LBB87_1467>:
    bb08:	07b00713          	li	a4,123
    bb0c:	a2e43823          	sd	a4,-1488(s0)
    bb10:	a4043703          	ld	a4,-1472(s0)
    bb14:	ac674863          	blt	a4,t1,ade4 <.LBB87_1213>

000000000000bb18 <.LBB87_1468>:
    bb18:	07b00713          	li	a4,123
    bb1c:	a4e43023          	sd	a4,-1472(s0)
    bb20:	a5043703          	ld	a4,-1456(s0)
    bb24:	ac674463          	blt	a4,t1,adec <.LBB87_1214>

000000000000bb28 <.LBB87_1469>:
    bb28:	07b00713          	li	a4,123
    bb2c:	a4e43823          	sd	a4,-1456(s0)
    bb30:	a6043703          	ld	a4,-1440(s0)
    bb34:	ac674063          	blt	a4,t1,adf4 <.LBB87_1215>

000000000000bb38 <.LBB87_1470>:
    bb38:	07b00713          	li	a4,123
    bb3c:	a6e43023          	sd	a4,-1440(s0)
    bb40:	a7043703          	ld	a4,-1424(s0)
    bb44:	aa674c63          	blt	a4,t1,adfc <.LBB87_1216>

000000000000bb48 <.LBB87_1471>:
    bb48:	07b00713          	li	a4,123
    bb4c:	a6e43823          	sd	a4,-1424(s0)
    bb50:	a8043703          	ld	a4,-1408(s0)
    bb54:	aa674863          	blt	a4,t1,ae04 <.LBB87_1217>

000000000000bb58 <.LBB87_1472>:
    bb58:	07b00713          	li	a4,123
    bb5c:	a8e43023          	sd	a4,-1408(s0)
    bb60:	a9043703          	ld	a4,-1392(s0)
    bb64:	aa674463          	blt	a4,t1,ae0c <.LBB87_1218>

000000000000bb68 <.LBB87_1473>:
    bb68:	07b00713          	li	a4,123
    bb6c:	a8e43823          	sd	a4,-1392(s0)
    bb70:	aa043703          	ld	a4,-1376(s0)
    bb74:	aa674063          	blt	a4,t1,ae14 <.LBB87_1219>

000000000000bb78 <.LBB87_1474>:
    bb78:	07b00713          	li	a4,123
    bb7c:	aae43023          	sd	a4,-1376(s0)
    bb80:	ab043703          	ld	a4,-1360(s0)
    bb84:	a8674c63          	blt	a4,t1,ae1c <.LBB87_1220>

000000000000bb88 <.LBB87_1475>:
    bb88:	07b00713          	li	a4,123
    bb8c:	aae43823          	sd	a4,-1360(s0)
    bb90:	ac043703          	ld	a4,-1344(s0)
    bb94:	a8674863          	blt	a4,t1,ae24 <.LBB87_1221>

000000000000bb98 <.LBB87_1476>:
    bb98:	07b00713          	li	a4,123
    bb9c:	ace43023          	sd	a4,-1344(s0)
    bba0:	00050f93          	mv	t6,a0
    bba4:	ad043703          	ld	a4,-1328(s0)
    bba8:	a8674463          	blt	a4,t1,ae30 <.LBB87_1222>

000000000000bbac <.LBB87_1477>:
    bbac:	07b00713          	li	a4,123
    bbb0:	ace43823          	sd	a4,-1328(s0)
    bbb4:	8b843503          	ld	a0,-1864(s0)
    bbb8:	a8654063          	blt	a0,t1,ae38 <.LBB87_1223>

000000000000bbbc <.LBB87_1478>:
    bbbc:	07b00513          	li	a0,123
    bbc0:	8aa43c23          	sd	a0,-1864(s0)
    bbc4:	8c843503          	ld	a0,-1848(s0)
    bbc8:	a6654c63          	blt	a0,t1,ae40 <.LBB87_1224>

000000000000bbcc <.LBB87_1479>:
    bbcc:	07b00513          	li	a0,123
    bbd0:	8ca43423          	sd	a0,-1848(s0)
    bbd4:	8d843503          	ld	a0,-1832(s0)
    bbd8:	a6654863          	blt	a0,t1,ae48 <.LBB87_1225>

000000000000bbdc <.LBB87_1480>:
    bbdc:	07b00513          	li	a0,123
    bbe0:	8ca43c23          	sd	a0,-1832(s0)
    bbe4:	8e843503          	ld	a0,-1816(s0)
    bbe8:	a6654463          	blt	a0,t1,ae50 <.LBB87_1226>

000000000000bbec <.LBB87_1481>:
    bbec:	07b00513          	li	a0,123
    bbf0:	8ea43423          	sd	a0,-1816(s0)
    bbf4:	8f843503          	ld	a0,-1800(s0)
    bbf8:	a6654063          	blt	a0,t1,ae58 <.LBB87_1227>

000000000000bbfc <.LBB87_1482>:
    bbfc:	07b00513          	li	a0,123
    bc00:	8ea43c23          	sd	a0,-1800(s0)
    bc04:	90843503          	ld	a0,-1784(s0)
    bc08:	a4654c63          	blt	a0,t1,ae60 <.LBB87_1228>

000000000000bc0c <.LBB87_1483>:
    bc0c:	07b00513          	li	a0,123
    bc10:	90a43423          	sd	a0,-1784(s0)
    bc14:	91843503          	ld	a0,-1768(s0)
    bc18:	a4654863          	blt	a0,t1,ae68 <.LBB87_1229>

000000000000bc1c <.LBB87_1484>:
    bc1c:	07b00513          	li	a0,123
    bc20:	90a43c23          	sd	a0,-1768(s0)
    bc24:	92843503          	ld	a0,-1752(s0)
    bc28:	a4654463          	blt	a0,t1,ae70 <.LBB87_1230>

000000000000bc2c <.LBB87_1485>:
    bc2c:	07b00513          	li	a0,123
    bc30:	92a43423          	sd	a0,-1752(s0)
    bc34:	93843503          	ld	a0,-1736(s0)
    bc38:	a4654063          	blt	a0,t1,ae78 <.LBB87_1231>

000000000000bc3c <.LBB87_1486>:
    bc3c:	07b00513          	li	a0,123
    bc40:	92a43c23          	sd	a0,-1736(s0)
    bc44:	94843703          	ld	a4,-1720(s0)
    bc48:	a2674c63          	blt	a4,t1,ae80 <.LBB87_1232>

000000000000bc4c <.LBB87_1487>:
    bc4c:	07b00713          	li	a4,123
    bc50:	94e43423          	sd	a4,-1720(s0)
    bc54:	95843703          	ld	a4,-1704(s0)
    bc58:	a2674863          	blt	a4,t1,ae88 <.LBB87_1233>

000000000000bc5c <.LBB87_1488>:
    bc5c:	07b00713          	li	a4,123
    bc60:	94e43c23          	sd	a4,-1704(s0)
    bc64:	96043703          	ld	a4,-1696(s0)
    bc68:	a2674463          	blt	a4,t1,ae90 <.LBB87_1234>

000000000000bc6c <.LBB87_1489>:
    bc6c:	07b00713          	li	a4,123
    bc70:	96e43023          	sd	a4,-1696(s0)
    bc74:	96843703          	ld	a4,-1688(s0)
    bc78:	a2674063          	blt	a4,t1,ae98 <.LBB87_1235>

000000000000bc7c <.LBB87_1490>:
    bc7c:	07b00713          	li	a4,123
    bc80:	96e43423          	sd	a4,-1688(s0)
    bc84:	97043703          	ld	a4,-1680(s0)
    bc88:	a0674c63          	blt	a4,t1,aea0 <.LBB87_1236>

000000000000bc8c <.LBB87_1491>:
    bc8c:	07b00713          	li	a4,123
    bc90:	96e43823          	sd	a4,-1680(s0)
    bc94:	97843703          	ld	a4,-1672(s0)
    bc98:	a0674863          	blt	a4,t1,aea8 <.LBB87_1237>

000000000000bc9c <.LBB87_1492>:
    bc9c:	07b00713          	li	a4,123
    bca0:	96e43c23          	sd	a4,-1672(s0)
    bca4:	98043703          	ld	a4,-1664(s0)
    bca8:	a0674463          	blt	a4,t1,aeb0 <.LBB87_1238>

000000000000bcac <.LBB87_1493>:
    bcac:	07b00713          	li	a4,123
    bcb0:	98e43023          	sd	a4,-1664(s0)
    bcb4:	98843703          	ld	a4,-1656(s0)
    bcb8:	a0674063          	blt	a4,t1,aeb8 <.LBB87_1239>

000000000000bcbc <.LBB87_1494>:
    bcbc:	07b00713          	li	a4,123
    bcc0:	98e43423          	sd	a4,-1656(s0)
    bcc4:	99043703          	ld	a4,-1648(s0)
    bcc8:	9e674c63          	blt	a4,t1,aec0 <.LBB87_1240>

000000000000bccc <.LBB87_1495>:
    bccc:	07b00713          	li	a4,123
    bcd0:	98e43823          	sd	a4,-1648(s0)
    bcd4:	99843703          	ld	a4,-1640(s0)
    bcd8:	9e674863          	blt	a4,t1,aec8 <.LBB87_1241>

000000000000bcdc <.LBB87_1496>:
    bcdc:	07b00713          	li	a4,123
    bce0:	98e43c23          	sd	a4,-1640(s0)
    bce4:	9a043703          	ld	a4,-1632(s0)
    bce8:	9e674463          	blt	a4,t1,aed0 <.LBB87_1242>

000000000000bcec <.LBB87_1497>:
    bcec:	07b00713          	li	a4,123
    bcf0:	9ae43023          	sd	a4,-1632(s0)
    bcf4:	9a843703          	ld	a4,-1624(s0)
    bcf8:	9e674063          	blt	a4,t1,aed8 <.LBB87_1243>

000000000000bcfc <.LBB87_1498>:
    bcfc:	07b00713          	li	a4,123
    bd00:	9ae43423          	sd	a4,-1624(s0)
    bd04:	9b043703          	ld	a4,-1616(s0)
    bd08:	9c674c63          	blt	a4,t1,aee0 <.LBB87_1244>

000000000000bd0c <.LBB87_1499>:
    bd0c:	07b00713          	li	a4,123
    bd10:	9ae43823          	sd	a4,-1616(s0)
    bd14:	9c60c863          	blt	ra,t1,aee4 <.LBB87_1245>

000000000000bd18 <.LBB87_1500>:
    bd18:	07b00093          	li	ra,123
    bd1c:	9c6d4663          	blt	s10,t1,aee8 <.LBB87_1246>

000000000000bd20 <.LBB87_1501>:
    bd20:	07b00d13          	li	s10,123
    bd24:	9c6c4463          	blt	s8,t1,aeec <.LBB87_1247>

000000000000bd28 <.LBB87_1502>:
    bd28:	07b00c13          	li	s8,123
    bd2c:	9c6ac263          	blt	s5,t1,aef0 <.LBB87_1248>

000000000000bd30 <.LBB87_1503>:
    bd30:	07b00a93          	li	s5,123
    bd34:	9c6f4063          	blt	t5,t1,aef4 <.LBB87_1249>

000000000000bd38 <.LBB87_1504>:
    bd38:	07b00f13          	li	t5,123
    bd3c:	9a6e4e63          	blt	t3,t1,aef8 <.LBB87_1250>

000000000000bd40 <.LBB87_1505>:
    bd40:	07b00e13          	li	t3,123
    bd44:	9a63cc63          	blt	t2,t1,aefc <.LBB87_1251>

000000000000bd48 <.LBB87_1506>:
    bd48:	07b00393          	li	t2,123
    bd4c:	84843503          	ld	a0,-1976(s0)
    bd50:	9a654a63          	blt	a0,t1,af04 <.LBB87_1252>

000000000000bd54 <.LBB87_1507>:
    bd54:	07b00513          	li	a0,123
    bd58:	84a43423          	sd	a0,-1976(s0)
    bd5c:	9c043703          	ld	a4,-1600(s0)
    bd60:	9a674663          	blt	a4,t1,af0c <.LBB87_1253>

000000000000bd64 <.LBB87_1508>:
    bd64:	07b00713          	li	a4,123
    bd68:	9ce43023          	sd	a4,-1600(s0)
    bd6c:	9d043703          	ld	a4,-1584(s0)
    bd70:	9a674263          	blt	a4,t1,af14 <.LBB87_1254>

000000000000bd74 <.LBB87_1509>:
    bd74:	07b00713          	li	a4,123
    bd78:	9ce43823          	sd	a4,-1584(s0)
    bd7c:	9869ce63          	blt	s3,t1,af18 <.LBB87_1255>

000000000000bd80 <.LBB87_1510>:
    bd80:	07b00993          	li	s3,123
    bd84:	95043703          	ld	a4,-1712(s0)
    bd88:	9865cc63          	blt	a1,t1,af20 <.LBB87_1256>

000000000000bd8c <.LBB87_1511>:
    bd8c:	07b00593          	li	a1,123
    bd90:	9864ca63          	blt	s1,t1,af24 <.LBB87_1257>

000000000000bd94 <.LBB87_1512>:
    bd94:	07b00493          	li	s1,123
    bd98:	986a4863          	blt	s4,t1,af28 <.LBB87_1258>

000000000000bd9c <.LBB87_1513>:
    bd9c:	07b00a13          	li	s4,123
    bda0:	98684663          	blt	a6,t1,af2c <.LBB87_1259>

000000000000bda4 <.LBB87_1514>:
    bda4:	07b00813          	li	a6,123
    bda8:	9867c463          	blt	a5,t1,af30 <.LBB87_1260>

000000000000bdac <.LBB87_1515>:
    bdac:	07b00793          	li	a5,123
    bdb0:	9866c263          	blt	a3,t1,af34 <.LBB87_1261>

000000000000bdb4 <.LBB87_1516>:
    bdb4:	07b00693          	li	a3,123
    bdb8:	986b4063          	blt	s6,t1,af38 <.LBB87_1262>

000000000000bdbc <.LBB87_1517>:
    bdbc:	07b00b13          	li	s6,123
    bdc0:	96664e63          	blt	a2,t1,af3c <.LBB87_1263>

000000000000bdc4 <.LBB87_1518>:
    bdc4:	07b00613          	li	a2,123
    bdc8:	85043503          	ld	a0,-1968(s0)
    bdcc:	96654c63          	blt	a0,t1,af44 <.LBB87_1264>

000000000000bdd0 <.LBB87_1519>:
    bdd0:	07b00513          	li	a0,123
    bdd4:	84a43823          	sd	a0,-1968(s0)
    bdd8:	85843503          	ld	a0,-1960(s0)
    bddc:	96654863          	blt	a0,t1,af4c <.LBB87_1265>

000000000000bde0 <.LBB87_1520>:
    bde0:	07b00513          	li	a0,123
    bde4:	84a43c23          	sd	a0,-1960(s0)
    bde8:	86043503          	ld	a0,-1952(s0)
    bdec:	96654463          	blt	a0,t1,af54 <.LBB87_1266>

000000000000bdf0 <.LBB87_1521>:
    bdf0:	07b00513          	li	a0,123
    bdf4:	86a43023          	sd	a0,-1952(s0)
    bdf8:	86843503          	ld	a0,-1944(s0)
    bdfc:	96654063          	blt	a0,t1,af5c <.LBB87_1267>

000000000000be00 <.LBB87_1522>:
    be00:	07b00513          	li	a0,123
    be04:	86a43423          	sd	a0,-1944(s0)
    be08:	87043503          	ld	a0,-1936(s0)
    be0c:	94654c63          	blt	a0,t1,af64 <.LBB87_1268>

000000000000be10 <.LBB87_1523>:
    be10:	07b00513          	li	a0,123
    be14:	86a43823          	sd	a0,-1936(s0)
    be18:	87843503          	ld	a0,-1928(s0)
    be1c:	94654863          	blt	a0,t1,af6c <.LBB87_1269>

000000000000be20 <.LBB87_1524>:
    be20:	07b00513          	li	a0,123
    be24:	86a43c23          	sd	a0,-1928(s0)
    be28:	88043503          	ld	a0,-1920(s0)
    be2c:	94654463          	blt	a0,t1,af74 <.LBB87_1270>

000000000000be30 <.LBB87_1525>:
    be30:	07b00513          	li	a0,123
    be34:	88a43023          	sd	a0,-1920(s0)
    be38:	88843503          	ld	a0,-1912(s0)
    be3c:	94654063          	blt	a0,t1,af7c <.LBB87_1271>

000000000000be40 <.LBB87_1526>:
    be40:	07b00513          	li	a0,123
    be44:	88a43423          	sd	a0,-1912(s0)
    be48:	89043503          	ld	a0,-1904(s0)
    be4c:	92654c63          	blt	a0,t1,af84 <.LBB87_1272>

000000000000be50 <.LBB87_1527>:
    be50:	07b00513          	li	a0,123
    be54:	88a43823          	sd	a0,-1904(s0)
    be58:	89843503          	ld	a0,-1896(s0)
    be5c:	92654863          	blt	a0,t1,af8c <.LBB87_1273>

000000000000be60 <.LBB87_1528>:
    be60:	07b00513          	li	a0,123
    be64:	88a43c23          	sd	a0,-1896(s0)
    be68:	8a043503          	ld	a0,-1888(s0)
    be6c:	92654463          	blt	a0,t1,af94 <.LBB87_1274>

000000000000be70 <.LBB87_1529>:
    be70:	07b00513          	li	a0,123
    be74:	8aa43023          	sd	a0,-1888(s0)
    be78:	8a843503          	ld	a0,-1880(s0)
    be7c:	92654063          	blt	a0,t1,af9c <.LBB87_1275>

000000000000be80 <.LBB87_1530>:
    be80:	07b00513          	li	a0,123
    be84:	8aa43423          	sd	a0,-1880(s0)
    be88:	8b043503          	ld	a0,-1872(s0)
    be8c:	90654c63          	blt	a0,t1,afa4 <.LBB87_1276>

000000000000be90 <.LBB87_1531>:
    be90:	07b00513          	li	a0,123
    be94:	8aa43823          	sd	a0,-1872(s0)
    be98:	8c043503          	ld	a0,-1856(s0)
    be9c:	90654863          	blt	a0,t1,afac <.LBB87_1277>

000000000000bea0 <.LBB87_1532>:
    bea0:	07b00513          	li	a0,123
    bea4:	8ca43023          	sd	a0,-1856(s0)
    bea8:	8d043503          	ld	a0,-1840(s0)
    beac:	90654463          	blt	a0,t1,afb4 <.LBB87_1278>

000000000000beb0 <.LBB87_1533>:
    beb0:	07b00513          	li	a0,123
    beb4:	8ca43823          	sd	a0,-1840(s0)
    beb8:	8e043503          	ld	a0,-1824(s0)
    bebc:	90654063          	blt	a0,t1,afbc <.LBB87_1279>

000000000000bec0 <.LBB87_1534>:
    bec0:	07b00513          	li	a0,123
    bec4:	8ea43023          	sd	a0,-1824(s0)
    bec8:	8f043503          	ld	a0,-1808(s0)
    becc:	8e654c63          	blt	a0,t1,afc4 <.LBB87_1280>

000000000000bed0 <.LBB87_1535>:
    bed0:	07b00513          	li	a0,123
    bed4:	8ea43823          	sd	a0,-1808(s0)
    bed8:	90043503          	ld	a0,-1792(s0)
    bedc:	8e654863          	blt	a0,t1,afcc <.LBB87_1281>

000000000000bee0 <.LBB87_1536>:
    bee0:	07b00513          	li	a0,123
    bee4:	90a43023          	sd	a0,-1792(s0)
    bee8:	91043503          	ld	a0,-1776(s0)
    beec:	8e654463          	blt	a0,t1,afd4 <.LBB87_1282>

000000000000bef0 <.LBB87_1537>:
    bef0:	07b00513          	li	a0,123
    bef4:	90a43823          	sd	a0,-1776(s0)
    bef8:	92043503          	ld	a0,-1760(s0)
    befc:	8e654063          	blt	a0,t1,afdc <.LBB87_1283>

000000000000bf00 <.LBB87_1538>:
    bf00:	07b00513          	li	a0,123
    bf04:	92a43023          	sd	a0,-1760(s0)
    bf08:	93043503          	ld	a0,-1744(s0)
    bf0c:	8c654c63          	blt	a0,t1,afe4 <.LBB87_1284>

000000000000bf10 <.LBB87_1539>:
    bf10:	07b00513          	li	a0,123
    bf14:	92a43823          	sd	a0,-1744(s0)
    bf18:	94043503          	ld	a0,-1728(s0)
    bf1c:	8c654863          	blt	a0,t1,afec <.LBB87_1285>

000000000000bf20 <.LBB87_1540>:
    bf20:	07b00513          	li	a0,123
    bf24:	94a43023          	sd	a0,-1728(s0)
    bf28:	00675463          	bge	a4,t1,bf30 <.LBB87_1541>
    bf2c:	b40f406f          	j	26c <.LBB87_3>

000000000000bf30 <.LBB87_1541>:
    bf30:	07b00713          	li	a4,123
    bf34:	b38f406f          	j	26c <.LBB87_3>

000000000000bf38 <.LBB87_1542>:
    bf38:	00000593          	li	a1,0
    bf3c:	00022537          	lui	a0,0x22
    bf40:	5005051b          	addiw	a0,a0,1280 # 22500 <.LBB77_4442+0x8>
    bf44:	00001637          	lui	a2,0x1
    bf48:	40c40633          	sub	a2,s0,a2
    bf4c:	b0863603          	ld	a2,-1272(a2) # b08 <.LBB87_3+0x89c>
    bf50:	00a60533          	add	a0,a2,a0
    bf54:	d0a43823          	sd	a0,-752(s0)
    bf58:	00017537          	lui	a0,0x17
    bf5c:	8005051b          	addiw	a0,a0,-2048 # 16800 <.LBB41_2397+0xc>
    bf60:	d0a43423          	sd	a0,-760(s0)
    bf64:	6e0d3537          	lui	a0,0x6e0d3
    bf68:	d9b5051b          	addiw	a0,a0,-613 # 6e0d2d9b <.Lfunc_end80+0x6e0aa3d3>
    bf6c:	e0a43c23          	sd	a0,-488(s0)
    bf70:	00100513          	li	a0,1
    bf74:	02751513          	slli	a0,a0,0x27
    bf78:	e0a43823          	sd	a0,-496(s0)
    bf7c:	00f00513          	li	a0,15
    bf80:	00951513          	slli	a0,a0,0x9
    bf84:	d0a43023          	sd	a0,-768(s0)
    bf88:	1640006f          	j	c0ec <.LBB87_1544>

000000000000bf8c <.LBB87_1543>:
    bf8c:	00490a13          	addi	s4,s2,4
    bf90:	00001937          	lui	s2,0x1
    bf94:	41240933          	sub	s2,s0,s2
    bf98:	b0093903          	ld	s2,-1280(s2) # b00 <.LBB87_3+0x894>
    bf9c:	e0843083          	ld	ra,-504(s0)
    bfa0:	00190933          	add	s2,s2,ra
    bfa4:	d0043083          	ld	ra,-768(s0)
    bfa8:	00190933          	add	s2,s2,ra
    bfac:	014901a3          	sb	s4,3(s2)
    bfb0:	00438393          	addi	t2,t2,4
    bfb4:	00790123          	sb	t2,2(s2)
    bfb8:	00458593          	addi	a1,a1,4
    bfbc:	00b900a3          	sb	a1,1(s2)
    bfc0:	00480813          	addi	a6,a6,4 # ffffffffc0000004 <.Lfunc_end80+0xffffffffbffd763c>
    bfc4:	01090023          	sb	a6,0(s2)
    bfc8:	00460613          	addi	a2,a2,4
    bfcc:	00c90223          	sb	a2,4(s2)
    bfd0:	004a8a93          	addi	s5,s5,4
    bfd4:	015902a3          	sb	s5,5(s2)
    bfd8:	00478793          	addi	a5,a5,4
    bfdc:	00f90323          	sb	a5,6(s2)
    bfe0:	00470713          	addi	a4,a4,4
    bfe4:	00e903a3          	sb	a4,7(s2)
    bfe8:	00468693          	addi	a3,a3,4
    bfec:	00d90423          	sb	a3,8(s2)
    bff0:	004d8d93          	addi	s11,s11,4
    bff4:	01b904a3          	sb	s11,9(s2)
    bff8:	004d0d13          	addi	s10,s10,4 # fffffffffff28004 <.Lfunc_end80+0xffffffffffeff63c>
    bffc:	01a90523          	sb	s10,10(s2)
    c000:	004e8e93          	addi	t4,t4,4 # ffffffffc0000004 <.Lfunc_end80+0xffffffffbffd763c>
    c004:	01d905a3          	sb	t4,11(s2)
    c008:	00448493          	addi	s1,s1,4 # ffffffffc0000004 <.Lfunc_end80+0xffffffffbffd763c>
    c00c:	00990623          	sb	s1,12(s2)
    c010:	004c8c93          	addi	s9,s9,4
    c014:	019906a3          	sb	s9,13(s2)
    c018:	004c0c13          	addi	s8,s8,4
    c01c:	01890723          	sb	s8,14(s2)
    c020:	004b0b13          	addi	s6,s6,4 # fffffffffff28004 <.Lfunc_end80+0xffffffffffeff63c>
    c024:	016907a3          	sb	s6,15(s2)
    c028:	004f8f93          	addi	t6,t6,4
    c02c:	01f90823          	sb	t6,16(s2)
    c030:	00488893          	addi	a7,a7,4
    c034:	011908a3          	sb	a7,17(s2)
    c038:	00498993          	addi	s3,s3,4
    c03c:	01390923          	sb	s3,18(s2)
    c040:	004f0f13          	addi	t5,t5,4
    c044:	01e909a3          	sb	t5,19(s2)
    c048:	004e0e13          	addi	t3,t3,4 # ffffffffc0000004 <.Lfunc_end80+0xffffffffbffd763c>
    c04c:	01c90a23          	sb	t3,20(s2)
    c050:	00450513          	addi	a0,a0,4
    c054:	00a90aa3          	sb	a0,21(s2)
    c058:	004b8b93          	addi	s7,s7,4
    c05c:	01790b23          	sb	s7,22(s2)
    c060:	00428293          	addi	t0,t0,4 # ffffffffc0000004 <.Lfunc_end80+0xffffffffbffd763c>
    c064:	00590ba3          	sb	t0,23(s2)
    c068:	00030593          	mv	a1,t1
    c06c:	f5843303          	ld	t1,-168(s0)
    c070:	00430313          	addi	t1,t1,4
    c074:	00690c23          	sb	t1,24(s2)
    c078:	f6043503          	ld	a0,-160(s0)
    c07c:	00450513          	addi	a0,a0,4
    c080:	00a90ca3          	sb	a0,25(s2)
    c084:	f6843503          	ld	a0,-152(s0)
    c088:	00450513          	addi	a0,a0,4
    c08c:	00a90d23          	sb	a0,26(s2)
    c090:	f7043503          	ld	a0,-144(s0)
    c094:	00450513          	addi	a0,a0,4
    c098:	00a90da3          	sb	a0,27(s2)
    c09c:	f7843503          	ld	a0,-136(s0)
    c0a0:	00450513          	addi	a0,a0,4
    c0a4:	00a90e23          	sb	a0,28(s2)
    c0a8:	f8043503          	ld	a0,-128(s0)
    c0ac:	00450513          	addi	a0,a0,4
    c0b0:	00a90ea3          	sb	a0,29(s2)
    c0b4:	f8843503          	ld	a0,-120(s0)
    c0b8:	00450513          	addi	a0,a0,4
    c0bc:	00a90f23          	sb	a0,30(s2)
    c0c0:	00458513          	addi	a0,a1,4
    c0c4:	00a90fa3          	sb	a0,31(s2)
    c0c8:	e0843603          	ld	a2,-504(s0)
    c0cc:	02060593          	addi	a1,a2,32
    c0d0:	00001537          	lui	a0,0x1
    c0d4:	40a40533          	sub	a0,s0,a0
    c0d8:	b1053383          	ld	t2,-1264(a0) # b10 <.LBB87_3+0x8a4>
    c0dc:	02038393          	addi	t2,t2,32
    c0e0:	08000513          	li	a0,128
    c0e4:	00a66463          	bltu	a2,a0,c0ec <.LBB87_1544>
    c0e8:	1480106f          	j	d230 <.LBB87_1738>

000000000000c0ec <.LBB87_1544>:
    c0ec:	f0043423          	sd	zero,-248(s0)
    c0f0:	f0043023          	sd	zero,-256(s0)
    c0f4:	ee043c23          	sd	zero,-264(s0)
    c0f8:	f0043823          	sd	zero,-240(s0)
    c0fc:	00000d93          	li	s11,0
    c100:	ee043823          	sd	zero,-272(s0)
    c104:	ee043423          	sd	zero,-280(s0)
    c108:	00000093          	li	ra,0
    c10c:	00000c93          	li	s9,0
    c110:	00000c13          	li	s8,0
    c114:	00000913          	li	s2,0
    c118:	00000f93          	li	t6,0
    c11c:	00000d13          	li	s10,0
    c120:	00000b93          	li	s7,0
    c124:	f2043023          	sd	zero,-224(s0)
    c128:	00000313          	li	t1,0
    c12c:	00000e93          	li	t4,0
    c130:	00000a93          	li	s5,0
    c134:	00000713          	li	a4,0
    c138:	00000693          	li	a3,0
    c13c:	00000613          	li	a2,0
    c140:	00000513          	li	a0,0
    c144:	00000993          	li	s3,0
    c148:	00000a13          	li	s4,0
    c14c:	00000293          	li	t0,0
    c150:	ee043023          	sd	zero,-288(s0)
    c154:	ec043c23          	sd	zero,-296(s0)
    c158:	00000893          	li	a7,0
    c15c:	00000813          	li	a6,0
    c160:	00000b13          	li	s6,0
    c164:	f4043023          	sd	zero,-192(s0)
    c168:	00000793          	li	a5,0
    c16c:	e0b43423          	sd	a1,-504(s0)
    c170:	d0843583          	ld	a1,-760(s0)
    c174:	d1043e03          	ld	t3,-752(s0)
    c178:	00001f37          	lui	t5,0x1
    c17c:	41e40f33          	sub	t5,s0,t5
    c180:	b07f3823          	sd	t2,-1264(t5) # b10 <.LBB87_3+0x8a4>

000000000000c184 <.LBB87_1545>:
    c184:	e9c43c23          	sd	t3,-360(s0)
    c188:	eab43023          	sd	a1,-352(s0)
    c18c:	f3443423          	sd	s4,-216(s0)
    c190:	f3343c23          	sd	s3,-200(s0)
    c194:	f3543823          	sd	s5,-208(s0)
    c198:	f1743c23          	sd	s7,-232(s0)
    c19c:	ebb43423          	sd	s11,-344(s0)
    c1a0:	eb943823          	sd	s9,-336(s0)
    c1a4:	eb843c23          	sd	s8,-328(s0)
    c1a8:	ed243023          	sd	s2,-320(s0)
    c1ac:	f7f43023          	sd	t6,-160(s0)
    c1b0:	eda43423          	sd	s10,-312(s0)
    c1b4:	f7d43423          	sd	t4,-152(s0)
    c1b8:	f6e43823          	sd	a4,-144(s0)
    c1bc:	f6d43c23          	sd	a3,-136(s0)
    c1c0:	f8c43023          	sd	a2,-128(s0)
    c1c4:	f8a43423          	sd	a0,-120(s0)
    c1c8:	f4543423          	sd	t0,-184(s0)
    c1cc:	f5143823          	sd	a7,-176(s0)
    c1d0:	f5043c23          	sd	a6,-168(s0)
    c1d4:	ed643823          	sd	s6,-304(s0)
    c1d8:	000e0903          	lb	s2,0(t3)
    c1dc:	00638503          	lb	a0,6(t2)
    c1e0:	e4a43c23          	sd	a0,-424(s0)
    c1e4:	00738503          	lb	a0,7(t2)
    c1e8:	e2a43823          	sd	a0,-464(s0)
    c1ec:	00838503          	lb	a0,8(t2)
    c1f0:	e2a43423          	sd	a0,-472(s0)
    c1f4:	00938503          	lb	a0,9(t2)
    c1f8:	e2a43023          	sd	a0,-480(s0)
    c1fc:	00a38d03          	lb	s10,10(t2)
    c200:	00b38483          	lb	s1,11(t2)
    c204:	00c38e83          	lb	t4,12(t2)
    c208:	00d38703          	lb	a4,13(t2)
    c20c:	00e38883          	lb	a7,14(t2)
    c210:	00f38f83          	lb	t6,15(t2)
    c214:	01038a83          	lb	s5,16(t2)
    c218:	01138c03          	lb	s8,17(t2)
    c21c:	01238c83          	lb	s9,18(t2)
    c220:	01338a03          	lb	s4,19(t2)
    c224:	01438683          	lb	a3,20(t2)
    c228:	01538b83          	lb	s7,21(t2)
    c22c:	01638583          	lb	a1,22(t2)
    c230:	01738603          	lb	a2,23(t2)
    c234:	01838983          	lb	s3,24(t2)
    c238:	01938503          	lb	a0,25(t2)
    c23c:	01a38e03          	lb	t3,26(t2)
    c240:	01b38d83          	lb	s11,27(t2)
    c244:	01f38283          	lb	t0,31(t2)
    c248:	01e38803          	lb	a6,30(t2)
    c24c:	01d38f03          	lb	t5,29(t2)
    c250:	01c38b03          	lb	s6,28(t2)
    c254:	025902b3          	mul	t0,s2,t0
    c258:	e8543823          	sd	t0,-368(s0)
    c25c:	03090833          	mul	a6,s2,a6
    c260:	e9043423          	sd	a6,-376(s0)
    c264:	03e90833          	mul	a6,s2,t5
    c268:	e9043023          	sd	a6,-384(s0)
    c26c:	03690833          	mul	a6,s2,s6
    c270:	e7043c23          	sd	a6,-392(s0)
    c274:	03b90833          	mul	a6,s2,s11
    c278:	e7043823          	sd	a6,-400(s0)
    c27c:	03c90833          	mul	a6,s2,t3
    c280:	e7043423          	sd	a6,-408(s0)
    c284:	02a90533          	mul	a0,s2,a0
    c288:	e6a43023          	sd	a0,-416(s0)
    c28c:	03390533          	mul	a0,s2,s3
    c290:	e4a43423          	sd	a0,-440(s0)
    c294:	02c90533          	mul	a0,s2,a2
    c298:	e4a43823          	sd	a0,-432(s0)
    c29c:	02b90533          	mul	a0,s2,a1
    c2a0:	e2a43c23          	sd	a0,-456(s0)
    c2a4:	03790533          	mul	a0,s2,s7
    c2a8:	e4a43023          	sd	a0,-448(s0)
    c2ac:	02d909b3          	mul	s3,s2,a3
    c2b0:	03490f33          	mul	t5,s2,s4
    c2b4:	03990a33          	mul	s4,s2,s9
    c2b8:	03890b33          	mul	s6,s2,s8
    c2bc:	03590ab3          	mul	s5,s2,s5
    c2c0:	03f90e33          	mul	t3,s2,t6
    c2c4:	031902b3          	mul	t0,s2,a7
    c2c8:	02e90833          	mul	a6,s2,a4
    c2cc:	03d90733          	mul	a4,s2,t4
    c2d0:	029904b3          	mul	s1,s2,s1
    c2d4:	03a90bb3          	mul	s7,s2,s10
    c2d8:	e2043503          	ld	a0,-480(s0)
    c2dc:	02a90eb3          	mul	t4,s2,a0
    c2e0:	e2843503          	ld	a0,-472(s0)
    c2e4:	02a90c33          	mul	s8,s2,a0
    c2e8:	00538c83          	lb	s9,5(t2)
    c2ec:	00438d03          	lb	s10,4(t2)
    c2f0:	e3043503          	ld	a0,-464(s0)
    c2f4:	02a906b3          	mul	a3,s2,a0
    c2f8:	e5843503          	ld	a0,-424(s0)
    c2fc:	02a90633          	mul	a2,s2,a0
    c300:	03990cb3          	mul	s9,s2,s9
    c304:	03a90d33          	mul	s10,s2,s10
    c308:	00338f83          	lb	t6,3(t2)
    c30c:	00038883          	lb	a7,0(t2)
    c310:	00078513          	mv	a0,a5
    c314:	00138783          	lb	a5,1(t2)
    c318:	00238583          	lb	a1,2(t2)
    c31c:	03f90fb3          	mul	t6,s2,t6
    c320:	031908b3          	mul	a7,s2,a7
    c324:	02f907b3          	mul	a5,s2,a5
    c328:	02b905b3          	mul	a1,s2,a1
    c32c:	ec043903          	ld	s2,-320(s0)
    c330:	ef843d83          	ld	s11,-264(s0)
    c334:	01b58db3          	add	s11,a1,s11
    c338:	efb43c23          	sd	s11,-264(s0)
    c33c:	ea843d83          	ld	s11,-344(s0)
    c340:	f0043583          	ld	a1,-256(s0)
    c344:	00b785b3          	add	a1,a5,a1
    c348:	f0b43023          	sd	a1,-256(s0)
    c34c:	00050793          	mv	a5,a0
    c350:	f0843503          	ld	a0,-248(s0)
    c354:	00a88533          	add	a0,a7,a0
    c358:	f0a43423          	sd	a0,-248(s0)
    c35c:	f5043883          	ld	a7,-176(s0)
    c360:	f1043503          	ld	a0,-240(s0)
    c364:	00af8533          	add	a0,t6,a0
    c368:	f0a43823          	sd	a0,-240(s0)
    c36c:	01bd0db3          	add	s11,s10,s11
    c370:	ef043503          	ld	a0,-272(s0)
    c374:	00ac8533          	add	a0,s9,a0
    c378:	eea43823          	sd	a0,-272(s0)
    c37c:	eb043c83          	ld	s9,-336(s0)
    c380:	ee843503          	ld	a0,-280(s0)
    c384:	00a60533          	add	a0,a2,a0
    c388:	eea43423          	sd	a0,-280(s0)
    c38c:	001680b3          	add	ra,a3,ra
    c390:	ec843d03          	ld	s10,-312(s0)
    c394:	019c0cb3          	add	s9,s8,s9
    c398:	eb843c03          	ld	s8,-328(s0)
    c39c:	018e8c33          	add	s8,t4,s8
    c3a0:	012b8933          	add	s2,s7,s2
    c3a4:	f1843b83          	ld	s7,-232(s0)
    c3a8:	f6043503          	ld	a0,-160(s0)
    c3ac:	00a48533          	add	a0,s1,a0
    c3b0:	f6a43023          	sd	a0,-160(s0)
    c3b4:	f6043f83          	ld	t6,-160(s0)
    c3b8:	01a70d33          	add	s10,a4,s10
    c3bc:	01780bb3          	add	s7,a6,s7
    c3c0:	f2043503          	ld	a0,-224(s0)
    c3c4:	00a28533          	add	a0,t0,a0
    c3c8:	f2a43023          	sd	a0,-224(s0)
    c3cc:	f5843803          	ld	a6,-168(s0)
    c3d0:	006e0333          	add	t1,t3,t1
    c3d4:	e9843e03          	ld	t3,-360(s0)
    c3d8:	f4843283          	ld	t0,-184(s0)
    c3dc:	f6843503          	ld	a0,-152(s0)
    c3e0:	00aa8533          	add	a0,s5,a0
    c3e4:	f3043a83          	ld	s5,-208(s0)
    c3e8:	f6a43423          	sd	a0,-152(s0)
    c3ec:	f6843e83          	ld	t4,-152(s0)
    c3f0:	015b0ab3          	add	s5,s6,s5
    c3f4:	ed043b03          	ld	s6,-304(s0)
    c3f8:	f7043503          	ld	a0,-144(s0)
    c3fc:	00aa0533          	add	a0,s4,a0
    c400:	f2843a03          	ld	s4,-216(s0)
    c404:	f6a43823          	sd	a0,-144(s0)
    c408:	f7043703          	ld	a4,-144(s0)
    c40c:	f7843503          	ld	a0,-136(s0)
    c410:	00af0533          	add	a0,t5,a0
    c414:	f6a43c23          	sd	a0,-136(s0)
    c418:	f7843683          	ld	a3,-136(s0)
    c41c:	f8043503          	ld	a0,-128(s0)
    c420:	00a98533          	add	a0,s3,a0
    c424:	f3843983          	ld	s3,-200(s0)
    c428:	f8a43023          	sd	a0,-128(s0)
    c42c:	f8043603          	ld	a2,-128(s0)
    c430:	f8843503          	ld	a0,-120(s0)
    c434:	e4043583          	ld	a1,-448(s0)
    c438:	00a58533          	add	a0,a1,a0
    c43c:	f8a43423          	sd	a0,-120(s0)
    c440:	f8843503          	ld	a0,-120(s0)
    c444:	e3843583          	ld	a1,-456(s0)
    c448:	013589b3          	add	s3,a1,s3
    c44c:	e5043583          	ld	a1,-432(s0)
    c450:	01458a33          	add	s4,a1,s4
    c454:	e4843583          	ld	a1,-440(s0)
    c458:	005582b3          	add	t0,a1,t0
    c45c:	ee043583          	ld	a1,-288(s0)
    c460:	e6043f03          	ld	t5,-416(s0)
    c464:	00bf05b3          	add	a1,t5,a1
    c468:	eeb43023          	sd	a1,-288(s0)
    c46c:	ed843583          	ld	a1,-296(s0)
    c470:	e6843f03          	ld	t5,-408(s0)
    c474:	00bf05b3          	add	a1,t5,a1
    c478:	ecb43c23          	sd	a1,-296(s0)
    c47c:	e7043583          	ld	a1,-400(s0)
    c480:	011588b3          	add	a7,a1,a7
    c484:	e7843583          	ld	a1,-392(s0)
    c488:	01058833          	add	a6,a1,a6
    c48c:	e8043583          	ld	a1,-384(s0)
    c490:	01658b33          	add	s6,a1,s6
    c494:	f4043583          	ld	a1,-192(s0)
    c498:	e8843f03          	ld	t5,-376(s0)
    c49c:	00bf05b3          	add	a1,t5,a1
    c4a0:	f4b43023          	sd	a1,-192(s0)
    c4a4:	ea043583          	ld	a1,-352(s0)
    c4a8:	e9043f03          	ld	t5,-368(s0)
    c4ac:	00ff07b3          	add	a5,t5,a5
    c4b0:	0a038393          	addi	t2,t2,160
    c4b4:	f6058593          	addi	a1,a1,-160
    c4b8:	001e0e13          	addi	t3,t3,1
    c4bc:	cc0594e3          	bnez	a1,c184 <.LBB87_1545>
    c4c0:	ef843483          	ld	s1,-264(s0)
    c4c4:	f0043f83          	ld	t6,-256(s0)
    c4c8:	f0843f03          	ld	t5,-248(s0)
    c4cc:	000d8e93          	mv	t4,s11
    c4d0:	ef043e03          	ld	t3,-272(s0)
    c4d4:	ee843383          	ld	t2,-280(s0)
    c4d8:	f1743c23          	sd	s7,-232(s0)
    c4dc:	e4643423          	sd	t1,-440(s0)
    c4e0:	f3543823          	sd	s5,-208(s0)
    c4e4:	f3343c23          	sd	s3,-200(s0)
    c4e8:	f3443423          	sd	s4,-216(s0)
    c4ec:	ee043a03          	ld	s4,-288(s0)
    c4f0:	ed843b83          	ld	s7,-296(s0)
    c4f4:	e0843503          	ld	a0,-504(s0)
    c4f8:	00251513          	slli	a0,a0,0x2
    c4fc:	000015b7          	lui	a1,0x1
    c500:	40b405b3          	sub	a1,s0,a1
    c504:	b685b583          	ld	a1,-1176(a1) # b68 <.LBB87_3+0x8fc>
    c508:	00a585b3          	add	a1,a1,a0
    c50c:	00001637          	lui	a2,0x1
    c510:	40c40633          	sub	a2,s0,a2
    c514:	b0863603          	ld	a2,-1272(a2) # b08 <.LBB87_3+0x89c>
    c518:	0c062603          	lw	a2,192(a2)
    c51c:	000016b7          	lui	a3,0x1
    c520:	40d406b3          	sub	a3,s0,a3
    c524:	b606b683          	ld	a3,-1184(a3) # b60 <.LBB87_3+0x8f4>
    c528:	00a68ab3          	add	s5,a3,a0
    c52c:	00caa503          	lw	a0,12(s5)
    c530:	00c5a683          	lw	a3,12(a1)
    c534:	ff400713          	li	a4,-12
    c538:	02e60333          	mul	t1,a2,a4
    c53c:	00751513          	slli	a0,a0,0x7
    c540:	f1043603          	ld	a2,-240(s0)
    c544:	00d606b3          	add	a3,a2,a3
    c548:	00a68533          	add	a0,a3,a0
    c54c:	fff28db7          	lui	s11,0xfff28
    c550:	01b30633          	add	a2,t1,s11
    c554:	00c5053b          	addw	a0,a0,a2
    c558:	40000637          	lui	a2,0x40000
    c55c:	f0c43823          	sd	a2,-240(s0)
    c560:	eca43823          	sd	a0,-304(s0)
    c564:	00055463          	bgez	a0,c56c <.LBB87_1548>
    c568:	c0000637          	lui	a2,0xc0000

000000000000c56c <.LBB87_1548>:
    c56c:	ecc43423          	sd	a2,-312(s0)
    c570:	008aa503          	lw	a0,8(s5)
    c574:	0085a603          	lw	a2,8(a1)
    c578:	00751513          	slli	a0,a0,0x7
    c57c:	00c48633          	add	a2,s1,a2
    c580:	00a60533          	add	a0,a2,a0
    c584:	01b30633          	add	a2,t1,s11
    c588:	00c5053b          	addw	a0,a0,a2
    c58c:	400006b7          	lui	a3,0x40000
    c590:	eea43c23          	sd	a0,-264(s0)
    c594:	00055463          	bgez	a0,c59c <.LBB87_1550>
    c598:	c00006b7          	lui	a3,0xc0000

000000000000c59c <.LBB87_1550>:
    c59c:	eaf43423          	sd	a5,-344(s0)
    c5a0:	004aa503          	lw	a0,4(s5)
    c5a4:	0045a603          	lw	a2,4(a1)
    c5a8:	00751513          	slli	a0,a0,0x7
    c5ac:	00cf8633          	add	a2,t6,a2
    c5b0:	00a60533          	add	a0,a2,a0
    c5b4:	01b30633          	add	a2,t1,s11
    c5b8:	00c5053b          	addw	a0,a0,a2
    c5bc:	40000737          	lui	a4,0x40000
    c5c0:	f0a43023          	sd	a0,-256(s0)
    c5c4:	00055463          	bgez	a0,c5cc <.LBB87_1552>
    c5c8:	c0000737          	lui	a4,0xc0000

000000000000c5cc <.LBB87_1552>:
    c5cc:	000aa503          	lw	a0,0(s5)
    c5d0:	0005a603          	lw	a2,0(a1)
    c5d4:	00751513          	slli	a0,a0,0x7
    c5d8:	00cf0633          	add	a2,t5,a2
    c5dc:	00a60533          	add	a0,a2,a0
    c5e0:	01b30633          	add	a2,t1,s11
    c5e4:	00c5053b          	addw	a0,a0,a2
    c5e8:	400007b7          	lui	a5,0x40000
    c5ec:	eca43023          	sd	a0,-320(s0)
    c5f0:	00055463          	bgez	a0,c5f8 <.LBB87_1554>
    c5f4:	c00007b7          	lui	a5,0xc0000

000000000000c5f8 <.LBB87_1554>:
    c5f8:	010aa503          	lw	a0,16(s5)
    c5fc:	0105a603          	lw	a2,16(a1)
    c600:	00751513          	slli	a0,a0,0x7
    c604:	00ce8633          	add	a2,t4,a2
    c608:	00a60533          	add	a0,a2,a0
    c60c:	01b30633          	add	a2,t1,s11
    c610:	00c5053b          	addw	a0,a0,a2
    c614:	40000637          	lui	a2,0x40000
    c618:	eaa43c23          	sd	a0,-328(s0)
    c61c:	00055463          	bgez	a0,c624 <.LBB87_1556>
    c620:	c0000637          	lui	a2,0xc0000

000000000000c624 <.LBB87_1556>:
    c624:	eac43823          	sd	a2,-336(s0)
    c628:	014aa503          	lw	a0,20(s5)
    c62c:	0145a603          	lw	a2,20(a1)
    c630:	00751513          	slli	a0,a0,0x7
    c634:	00ce0633          	add	a2,t3,a2
    c638:	00a60533          	add	a0,a2,a0
    c63c:	01b30633          	add	a2,t1,s11
    c640:	00c5053b          	addw	a0,a0,a2
    c644:	40000637          	lui	a2,0x40000
    c648:	eaa43023          	sd	a0,-352(s0)
    c64c:	00055463          	bgez	a0,c654 <.LBB87_1558>
    c650:	c0000637          	lui	a2,0xc0000

000000000000c654 <.LBB87_1558>:
    c654:	e8c43c23          	sd	a2,-360(s0)
    c658:	018aa503          	lw	a0,24(s5)
    c65c:	0185a603          	lw	a2,24(a1)
    c660:	00751513          	slli	a0,a0,0x7
    c664:	00c38633          	add	a2,t2,a2
    c668:	00a60533          	add	a0,a2,a0
    c66c:	01b30633          	add	a2,t1,s11
    c670:	00c5053b          	addw	a0,a0,a2
    c674:	40000637          	lui	a2,0x40000
    c678:	e8a43823          	sd	a0,-368(s0)
    c67c:	00055463          	bgez	a0,c684 <.LBB87_1560>
    c680:	c0000637          	lui	a2,0xc0000

000000000000c684 <.LBB87_1560>:
    c684:	e8c43423          	sd	a2,-376(s0)
    c688:	01caa503          	lw	a0,28(s5)
    c68c:	01c5a603          	lw	a2,28(a1)
    c690:	00751513          	slli	a0,a0,0x7
    c694:	00c08633          	add	a2,ra,a2
    c698:	00a60533          	add	a0,a2,a0
    c69c:	01b30633          	add	a2,t1,s11
    c6a0:	00c5053b          	addw	a0,a0,a2
    c6a4:	40000637          	lui	a2,0x40000
    c6a8:	e8a43023          	sd	a0,-384(s0)
    c6ac:	00055463          	bgez	a0,c6b4 <.LBB87_1562>
    c6b0:	c0000637          	lui	a2,0xc0000

000000000000c6b4 <.LBB87_1562>:
    c6b4:	00090f93          	mv	t6,s2
    c6b8:	f4543423          	sd	t0,-184(s0)
    c6bc:	e6c43c23          	sd	a2,-392(s0)
    c6c0:	f5143823          	sd	a7,-176(s0)
    c6c4:	f5043c23          	sd	a6,-168(s0)
    c6c8:	eef43423          	sd	a5,-280(s0)
    c6cc:	eee43823          	sd	a4,-272(s0)
    c6d0:	f0d43423          	sd	a3,-248(s0)
    c6d4:	020aa503          	lw	a0,32(s5)
    c6d8:	0205a603          	lw	a2,32(a1)
    c6dc:	00751513          	slli	a0,a0,0x7
    c6e0:	00cc8633          	add	a2,s9,a2
    c6e4:	00a60533          	add	a0,a2,a0
    c6e8:	00030993          	mv	s3,t1
    c6ec:	01b30633          	add	a2,t1,s11
    c6f0:	00c5053b          	addw	a0,a0,a2
    c6f4:	40000637          	lui	a2,0x40000
    c6f8:	e6a43823          	sd	a0,-400(s0)
    c6fc:	00055463          	bgez	a0,c704 <.LBB87_1564>
    c700:	c0000637          	lui	a2,0xc0000

000000000000c704 <.LBB87_1564>:
    c704:	e6c43423          	sd	a2,-408(s0)
    c708:	0245a783          	lw	a5,36(a1)
    c70c:	0285a883          	lw	a7,40(a1)
    c710:	02c5a683          	lw	a3,44(a1)
    c714:	0305a083          	lw	ra,48(a1)
    c718:	0345a383          	lw	t2,52(a1)
    c71c:	0385a803          	lw	a6,56(a1)
    c720:	03c5a603          	lw	a2,60(a1)
    c724:	0405a703          	lw	a4,64(a1)
    c728:	0445a503          	lw	a0,68(a1)
    c72c:	dea43823          	sd	a0,-528(s0)
    c730:	0485a503          	lw	a0,72(a1)
    c734:	dca43823          	sd	a0,-560(s0)
    c738:	04c5a503          	lw	a0,76(a1)
    c73c:	daa43423          	sd	a0,-600(s0)
    c740:	0505a503          	lw	a0,80(a1)
    c744:	dea43423          	sd	a0,-536(s0)
    c748:	0545a503          	lw	a0,84(a1)
    c74c:	d6a43423          	sd	a0,-664(s0)
    c750:	0585a503          	lw	a0,88(a1)
    c754:	dca43c23          	sd	a0,-552(s0)
    c758:	05c5a503          	lw	a0,92(a1)
    c75c:	d4a43c23          	sd	a0,-680(s0)
    c760:	0605a503          	lw	a0,96(a1)
    c764:	d6a43823          	sd	a0,-656(s0)
    c768:	0645a503          	lw	a0,100(a1)
    c76c:	d8a43023          	sd	a0,-640(s0)
    c770:	0685a503          	lw	a0,104(a1)
    c774:	d8a43823          	sd	a0,-624(s0)
    c778:	06c5a503          	lw	a0,108(a1)
    c77c:	daa43023          	sd	a0,-608(s0)
    c780:	0705a503          	lw	a0,112(a1)
    c784:	daa43823          	sd	a0,-592(s0)
    c788:	0745a503          	lw	a0,116(a1)
    c78c:	daa43c23          	sd	a0,-584(s0)
    c790:	0785a503          	lw	a0,120(a1)
    c794:	dca43023          	sd	a0,-576(s0)
    c798:	07c5a503          	lw	a0,124(a1)
    c79c:	dea43023          	sd	a0,-544(s0)
    c7a0:	024aa583          	lw	a1,36(s5)
    c7a4:	028aa503          	lw	a0,40(s5)
    c7a8:	00fc07b3          	add	a5,s8,a5
    c7ac:	02caae03          	lw	t3,44(s5)
    c7b0:	00759593          	slli	a1,a1,0x7
    c7b4:	00b78eb3          	add	t4,a5,a1
    c7b8:	030aa303          	lw	t1,48(s5)
    c7bc:	034aa283          	lw	t0,52(s5)
    c7c0:	038aa903          	lw	s2,56(s5)
    c7c4:	03caa783          	lw	a5,60(s5)
    c7c8:	040aac03          	lw	s8,64(s5)
    c7cc:	044aa483          	lw	s1,68(s5)
    c7d0:	048aa583          	lw	a1,72(s5)
    c7d4:	04caac83          	lw	s9,76(s5)
    c7d8:	050aaf03          	lw	t5,80(s5)
    c7dc:	d1e43c23          	sd	t5,-744(s0)
    c7e0:	054aaf03          	lw	t5,84(s5)
    c7e4:	d3e43023          	sd	t5,-736(s0)
    c7e8:	058aaf03          	lw	t5,88(s5)
    c7ec:	d3e43423          	sd	t5,-728(s0)
    c7f0:	05caaf03          	lw	t5,92(s5)
    c7f4:	d3e43823          	sd	t5,-720(s0)
    c7f8:	060aaf03          	lw	t5,96(s5)
    c7fc:	d3e43c23          	sd	t5,-712(s0)
    c800:	064aaf03          	lw	t5,100(s5)
    c804:	d5e43023          	sd	t5,-704(s0)
    c808:	068aaf03          	lw	t5,104(s5)
    c80c:	d5e43423          	sd	t5,-696(s0)
    c810:	06caaf03          	lw	t5,108(s5)
    c814:	d5e43823          	sd	t5,-688(s0)
    c818:	070aaf03          	lw	t5,112(s5)
    c81c:	d7e43023          	sd	t5,-672(s0)
    c820:	074aaf03          	lw	t5,116(s5)
    c824:	d7e43c23          	sd	t5,-648(s0)
    c828:	078aaf03          	lw	t5,120(s5)
    c82c:	d9e43423          	sd	t5,-632(s0)
    c830:	07caaf03          	lw	t5,124(s5)
    c834:	d9e43c23          	sd	t5,-616(s0)
    c838:	01b98f33          	add	t5,s3,s11
    c83c:	01ee8ebb          	addw	t4,t4,t5
    c840:	40000f37          	lui	t5,0x40000
    c844:	e7d43023          	sd	t4,-416(s0)
    c848:	000ed463          	bgez	t4,c850 <.LBB87_1566>
    c84c:	c0000f37          	lui	t5,0xc0000

000000000000c850 <.LBB87_1566>:
    c850:	00751513          	slli	a0,a0,0x7
    c854:	011f88b3          	add	a7,t6,a7
    c858:	00a88533          	add	a0,a7,a0
    c85c:	01b988b3          	add	a7,s3,s11
    c860:	0115053b          	addw	a0,a0,a7
    c864:	400008b7          	lui	a7,0x40000
    c868:	f7843e83          	ld	t4,-136(s0)
    c86c:	e4a43c23          	sd	a0,-424(s0)
    c870:	00055463          	bgez	a0,c878 <.LBB87_1568>
    c874:	c00008b7          	lui	a7,0xc0000

000000000000c878 <.LBB87_1568>:
    c878:	e5143823          	sd	a7,-432(s0)
    c87c:	007e1e13          	slli	t3,t3,0x7
    c880:	f6043503          	ld	a0,-160(s0)
    c884:	00d506b3          	add	a3,a0,a3
    c888:	01c686b3          	add	a3,a3,t3
    c88c:	01b98533          	add	a0,s3,s11
    c890:	00a6853b          	addw	a0,a3,a0
    c894:	400006b7          	lui	a3,0x40000
    c898:	000b8893          	mv	a7,s7
    c89c:	e4a43023          	sd	a0,-448(s0)
    c8a0:	00055463          	bgez	a0,c8a8 <.LBB87_1570>
    c8a4:	c00006b7          	lui	a3,0xc0000

000000000000c8a8 <.LBB87_1570>:
    c8a8:	e2d43c23          	sd	a3,-456(s0)
    c8ac:	00731313          	slli	t1,t1,0x7
    c8b0:	001d00b3          	add	ra,s10,ra
    c8b4:	00608333          	add	t1,ra,t1
    c8b8:	00098093          	mv	ra,s3
    c8bc:	01b98533          	add	a0,s3,s11
    c8c0:	00a3053b          	addw	a0,t1,a0
    c8c4:	40000337          	lui	t1,0x40000
    c8c8:	000a0693          	mv	a3,s4
    c8cc:	f1843a03          	ld	s4,-232(s0)
    c8d0:	e2a43823          	sd	a0,-464(s0)
    c8d4:	00055463          	bgez	a0,c8dc <.LBB87_1572>
    c8d8:	c0000337          	lui	t1,0xc0000

000000000000c8dc <.LBB87_1572>:
    c8dc:	00729293          	slli	t0,t0,0x7
    c8e0:	007a03b3          	add	t2,s4,t2
    c8e4:	005382b3          	add	t0,t2,t0
    c8e8:	01b08533          	add	a0,ra,s11
    c8ec:	00a2853b          	addw	a0,t0,a0
    c8f0:	400003b7          	lui	t2,0x40000
    c8f4:	f8043283          	ld	t0,-128(s0)
    c8f8:	e4843f83          	ld	t6,-440(s0)
    c8fc:	f2043b83          	ld	s7,-224(s0)
    c900:	f0a43c23          	sd	a0,-232(s0)
    c904:	00055463          	bgez	a0,c90c <.LBB87_1574>
    c908:	c00003b7          	lui	t2,0xc0000

000000000000c90c <.LBB87_1574>:
    c90c:	00791913          	slli	s2,s2,0x7
    c910:	010b8833          	add	a6,s7,a6
    c914:	01280833          	add	a6,a6,s2
    c918:	01b08533          	add	a0,ra,s11
    c91c:	00a8053b          	addw	a0,a6,a0
    c920:	40000837          	lui	a6,0x40000
    c924:	f2a43023          	sd	a0,-224(s0)
    c928:	00055463          	bgez	a0,c930 <.LBB87_1576>
    c92c:	c0000837          	lui	a6,0xc0000

000000000000c930 <.LBB87_1576>:
    c930:	e3043423          	sd	a6,-472(s0)
    c934:	00779793          	slli	a5,a5,0x7
    c938:	00cf8633          	add	a2,t6,a2
    c93c:	00f60633          	add	a2,a2,a5
    c940:	01b08533          	add	a0,ra,s11
    c944:	00a6053b          	addw	a0,a2,a0
    c948:	40000637          	lui	a2,0x40000
    c94c:	f2843803          	ld	a6,-216(s0)
    c950:	e4a43423          	sd	a0,-440(s0)
    c954:	00055463          	bgez	a0,c95c <.LBB87_1578>
    c958:	c0000637          	lui	a2,0xc0000

000000000000c95c <.LBB87_1578>:
    c95c:	e2c43023          	sd	a2,-480(s0)
    c960:	007c1c13          	slli	s8,s8,0x7
    c964:	f6843503          	ld	a0,-152(s0)
    c968:	00e50733          	add	a4,a0,a4
    c96c:	01870733          	add	a4,a4,s8
    c970:	01b08533          	add	a0,ra,s11
    c974:	00a7073b          	addw	a4,a4,a0
    c978:	400007b7          	lui	a5,0x40000
    c97c:	f3843603          	ld	a2,-200(s0)
    c980:	f3043503          	ld	a0,-208(s0)
    c984:	e0e43023          	sd	a4,-512(s0)
    c988:	00075463          	bgez	a4,c990 <.LBB87_1580>
    c98c:	c00007b7          	lui	a5,0xc0000

000000000000c990 <.LBB87_1580>:
    c990:	def43c23          	sd	a5,-520(s0)
    c994:	00749a93          	slli	s5,s1,0x7
    c998:	df043703          	ld	a4,-528(s0)
    c99c:	00e50533          	add	a0,a0,a4
    c9a0:	01550533          	add	a0,a0,s5
    c9a4:	01b087b3          	add	a5,ra,s11
    c9a8:	00f5053b          	addw	a0,a0,a5
    c9ac:	40000737          	lui	a4,0x40000
    c9b0:	dea43823          	sd	a0,-528(s0)
    c9b4:	00055463          	bgez	a0,c9bc <.LBB87_1582>
    c9b8:	c0000737          	lui	a4,0xc0000

000000000000c9bc <.LBB87_1582>:
    c9bc:	f3e43823          	sd	t5,-208(s0)
    c9c0:	00759593          	slli	a1,a1,0x7
    c9c4:	f7043503          	ld	a0,-144(s0)
    c9c8:	dd043783          	ld	a5,-560(s0)
    c9cc:	00f50533          	add	a0,a0,a5
    c9d0:	00b50533          	add	a0,a0,a1
    c9d4:	01b085b3          	add	a1,ra,s11
    c9d8:	00b5053b          	addw	a0,a0,a1
    c9dc:	400005b7          	lui	a1,0x40000
    c9e0:	f4043783          	ld	a5,-192(s0)
    c9e4:	dca43823          	sd	a0,-560(s0)
    c9e8:	00055463          	bgez	a0,c9f0 <.LBB87_1584>
    c9ec:	c00005b7          	lui	a1,0xc0000

000000000000c9f0 <.LBB87_1584>:
    c9f0:	dcb43423          	sd	a1,-568(s0)
    c9f4:	007c9c93          	slli	s9,s9,0x7
    c9f8:	da843503          	ld	a0,-600(s0)
    c9fc:	00ae8533          	add	a0,t4,a0
    ca00:	01950533          	add	a0,a0,s9
    ca04:	01b085b3          	add	a1,ra,s11
    ca08:	00b50f3b          	addw	t5,a0,a1
    ca0c:	40000537          	lui	a0,0x40000
    ca10:	000f5463          	bgez	t5,ca18 <.LBB87_1586>
    ca14:	c0000537          	lui	a0,0xc0000

000000000000ca18 <.LBB87_1586>:
    ca18:	daa43423          	sd	a0,-600(s0)
    ca1c:	d1843483          	ld	s1,-744(s0)
    ca20:	00749493          	slli	s1,s1,0x7
    ca24:	de843503          	ld	a0,-536(s0)
    ca28:	00a28533          	add	a0,t0,a0
    ca2c:	00950533          	add	a0,a0,s1
    ca30:	01b085b3          	add	a1,ra,s11
    ca34:	00b50e3b          	addw	t3,a0,a1
    ca38:	40000d37          	lui	s10,0x40000
    ca3c:	000e5463          	bgez	t3,ca44 <.LBB87_1588>
    ca40:	c0000d37          	lui	s10,0xc0000

000000000000ca44 <.LBB87_1588>:
    ca44:	dee43423          	sd	a4,-536(s0)
    ca48:	d2043503          	ld	a0,-736(s0)
    ca4c:	00751513          	slli	a0,a0,0x7
    ca50:	f8843583          	ld	a1,-120(s0)
    ca54:	d6843703          	ld	a4,-664(s0)
    ca58:	00e585b3          	add	a1,a1,a4
    ca5c:	00a58533          	add	a0,a1,a0
    ca60:	01b085b3          	add	a1,ra,s11
    ca64:	00b5053b          	addw	a0,a0,a1
    ca68:	400005b7          	lui	a1,0x40000
    ca6c:	00055463          	bgez	a0,ca74 <.LBB87_1590>
    ca70:	c00005b7          	lui	a1,0xc0000

000000000000ca74 <.LBB87_1590>:
    ca74:	d6b43423          	sd	a1,-664(s0)
    ca78:	d2843583          	ld	a1,-728(s0)
    ca7c:	00759593          	slli	a1,a1,0x7
    ca80:	dd843703          	ld	a4,-552(s0)
    ca84:	00e60633          	add	a2,a2,a4
    ca88:	00b605b3          	add	a1,a2,a1
    ca8c:	01b08733          	add	a4,ra,s11
    ca90:	00e5873b          	addw	a4,a1,a4
    ca94:	40000bb7          	lui	s7,0x40000
    ca98:	00075463          	bgez	a4,caa0 <.LBB87_1592>
    ca9c:	c0000bb7          	lui	s7,0xc0000

000000000000caa0 <.LBB87_1592>:
    caa0:	f2743c23          	sd	t2,-200(s0)
    caa4:	dc643c23          	sd	t1,-552(s0)
    caa8:	d3043583          	ld	a1,-720(s0)
    caac:	00759593          	slli	a1,a1,0x7
    cab0:	d5843603          	ld	a2,-680(s0)
    cab4:	00c80633          	add	a2,a6,a2
    cab8:	00b605b3          	add	a1,a2,a1
    cabc:	01b08633          	add	a2,ra,s11
    cac0:	00c5883b          	addw	a6,a1,a2
    cac4:	400002b7          	lui	t0,0x40000
    cac8:	00085463          	bgez	a6,cad0 <.LBB87_1594>
    cacc:	c00002b7          	lui	t0,0xc0000

000000000000cad0 <.LBB87_1594>:
    cad0:	d3843583          	ld	a1,-712(s0)
    cad4:	00759593          	slli	a1,a1,0x7
    cad8:	f4843603          	ld	a2,-184(s0)
    cadc:	d7043303          	ld	t1,-656(s0)
    cae0:	00660633          	add	a2,a2,t1
    cae4:	00b605b3          	add	a1,a2,a1
    cae8:	01b08633          	add	a2,ra,s11
    caec:	00c5833b          	addw	t1,a1,a2
    caf0:	400003b7          	lui	t2,0x40000
    caf4:	00035463          	bgez	t1,cafc <.LBB87_1596>
    caf8:	c00003b7          	lui	t2,0xc0000

000000000000cafc <.LBB87_1596>:
    cafc:	d4043583          	ld	a1,-704(s0)
    cb00:	00759593          	slli	a1,a1,0x7
    cb04:	d8043603          	ld	a2,-640(s0)
    cb08:	00c68633          	add	a2,a3,a2
    cb0c:	00b605b3          	add	a1,a2,a1
    cb10:	01b08633          	add	a2,ra,s11
    cb14:	00c585bb          	addw	a1,a1,a2
    cb18:	400006b7          	lui	a3,0x40000
    cb1c:	0005d463          	bgez	a1,cb24 <.LBB87_1598>
    cb20:	c00006b7          	lui	a3,0xc0000

000000000000cb24 <.LBB87_1598>:
    cb24:	d4843603          	ld	a2,-696(s0)
    cb28:	00761613          	slli	a2,a2,0x7
    cb2c:	d9043e83          	ld	t4,-624(s0)
    cb30:	01d888b3          	add	a7,a7,t4
    cb34:	00c88633          	add	a2,a7,a2
    cb38:	01b088b3          	add	a7,ra,s11
    cb3c:	0116063b          	addw	a2,a2,a7
    cb40:	400008b7          	lui	a7,0x40000
    cb44:	00065463          	bgez	a2,cb4c <.LBB87_1600>
    cb48:	c00008b7          	lui	a7,0xc0000

000000000000cb4c <.LBB87_1600>:
    cb4c:	d5043e83          	ld	t4,-688(s0)
    cb50:	007e9e93          	slli	t4,t4,0x7
    cb54:	f5043f83          	ld	t6,-176(s0)
    cb58:	da043483          	ld	s1,-608(s0)
    cb5c:	009f8fb3          	add	t6,t6,s1
    cb60:	01df8eb3          	add	t4,t6,t4
    cb64:	01b08fb3          	add	t6,ra,s11
    cb68:	01fe893b          	addw	s2,t4,t6
    cb6c:	40000a37          	lui	s4,0x40000
    cb70:	00095463          	bgez	s2,cb78 <.LBB87_1602>
    cb74:	c0000a37          	lui	s4,0xc0000

000000000000cb78 <.LBB87_1602>:
    cb78:	d6043e83          	ld	t4,-672(s0)
    cb7c:	007e9e93          	slli	t4,t4,0x7
    cb80:	f5843f83          	ld	t6,-168(s0)
    cb84:	db043483          	ld	s1,-592(s0)
    cb88:	009f8fb3          	add	t6,t6,s1
    cb8c:	01df8eb3          	add	t4,t6,t4
    cb90:	01b08fb3          	add	t6,ra,s11
    cb94:	01fe8abb          	addw	s5,t4,t6
    cb98:	40000c37          	lui	s8,0x40000
    cb9c:	000ad463          	bgez	s5,cba4 <.LBB87_1604>
    cba0:	c0000c37          	lui	s8,0xc0000

000000000000cba4 <.LBB87_1604>:
    cba4:	d7843e83          	ld	t4,-648(s0)
    cba8:	007e9e93          	slli	t4,t4,0x7
    cbac:	db843f83          	ld	t6,-584(s0)
    cbb0:	01fb0fb3          	add	t6,s6,t6
    cbb4:	01df8eb3          	add	t4,t6,t4
    cbb8:	01b08fb3          	add	t6,ra,s11
    cbbc:	01fe8cbb          	addw	s9,t4,t6
    cbc0:	40000b37          	lui	s6,0x40000
    cbc4:	000cd463          	bgez	s9,cbcc <.LBB87_1606>
    cbc8:	c0000b37          	lui	s6,0xc0000

000000000000cbcc <.LBB87_1606>:
    cbcc:	d8843e83          	ld	t4,-632(s0)
    cbd0:	007e9e93          	slli	t4,t4,0x7
    cbd4:	dc043f83          	ld	t6,-576(s0)
    cbd8:	01f78fb3          	add	t6,a5,t6
    cbdc:	01df8eb3          	add	t4,t6,t4
    cbe0:	fff287b7          	lui	a5,0xfff28
    cbe4:	01b08fb3          	add	t6,ra,s11
    cbe8:	01fe8fbb          	addw	t6,t4,t6
    cbec:	40000eb7          	lui	t4,0x40000
    cbf0:	000fd463          	bgez	t6,cbf8 <.LBB87_1608>
    cbf4:	c0000eb7          	lui	t4,0xc0000

000000000000cbf8 <.LBB87_1608>:
    cbf8:	d9843083          	ld	ra,-616(s0)
    cbfc:	00709093          	slli	ra,ra,0x7
    cc00:	ea843d83          	ld	s11,-344(s0)
    cc04:	de043483          	ld	s1,-544(s0)
    cc08:	009d8db3          	add	s11,s11,s1
    cc0c:	001d8db3          	add	s11,s11,ra
    cc10:	00f980b3          	add	ra,s3,a5
    cc14:	001d80bb          	addw	ra,s11,ra
    cc18:	0000d663          	bgez	ra,cc24 <.LBB87_1610>
    cc1c:	c00007b7          	lui	a5,0xc0000
    cc20:	f0f43823          	sd	a5,-240(s0)

000000000000cc24 <.LBB87_1610>:
    cc24:	e1843783          	ld	a5,-488(s0)
    cc28:	02f08db3          	mul	s11,ra,a5
    cc2c:	e1043083          	ld	ra,-496(s0)
    cc30:	f1043783          	ld	a5,-240(s0)
    cc34:	001780b3          	add	ra,a5,ra
    cc38:	001d8db3          	add	s11,s11,ra
    cc3c:	428dd793          	srai	a5,s11,0x28
    cc40:	f7c00093          	li	ra,-132
    cc44:	000d0493          	mv	s1,s10
    cc48:	00f0c463          	blt	ra,a5,cc50 <.LBB87_1612>
    cc4c:	f7c00793          	li	a5,-132

000000000000cc50 <.LBB87_1612>:
    cc50:	f4f43823          	sd	a5,-176(s0)
    cc54:	e1843783          	ld	a5,-488(s0)
    cc58:	02ff8fb3          	mul	t6,t6,a5
    cc5c:	e1043783          	ld	a5,-496(s0)
    cc60:	00fe8eb3          	add	t4,t4,a5
    cc64:	01df8eb3          	add	t4,t6,t4
    cc68:	428ed793          	srai	a5,t4,0x28
    cc6c:	f8f43423          	sd	a5,-120(s0)
    cc70:	00f0c663          	blt	ra,a5,cc7c <.LBB87_1614>
    cc74:	f7c00793          	li	a5,-132
    cc78:	f8f43423          	sd	a5,-120(s0)

000000000000cc7c <.LBB87_1614>:
    cc7c:	e1843783          	ld	a5,-488(s0)
    cc80:	02fc8eb3          	mul	t4,s9,a5
    cc84:	e1043783          	ld	a5,-496(s0)
    cc88:	00fb0b33          	add	s6,s6,a5
    cc8c:	016e8eb3          	add	t4,t4,s6
    cc90:	428ed793          	srai	a5,t4,0x28
    cc94:	f8f43023          	sd	a5,-128(s0)
    cc98:	00f0c663          	blt	ra,a5,cca4 <.LBB87_1616>
    cc9c:	f7c00793          	li	a5,-132
    cca0:	f8f43023          	sd	a5,-128(s0)

000000000000cca4 <.LBB87_1616>:
    cca4:	e1843783          	ld	a5,-488(s0)
    cca8:	02fa8eb3          	mul	t4,s5,a5
    ccac:	e1043783          	ld	a5,-496(s0)
    ccb0:	00fc0c33          	add	s8,s8,a5
    ccb4:	018e8eb3          	add	t4,t4,s8
    ccb8:	428ed793          	srai	a5,t4,0x28
    ccbc:	f6f43c23          	sd	a5,-136(s0)
    ccc0:	00f0c663          	blt	ra,a5,cccc <.LBB87_1618>
    ccc4:	f7c00793          	li	a5,-132
    ccc8:	f6f43c23          	sd	a5,-136(s0)

000000000000cccc <.LBB87_1618>:
    cccc:	e1843783          	ld	a5,-488(s0)
    ccd0:	02f90eb3          	mul	t4,s2,a5
    ccd4:	00078913          	mv	s2,a5
    ccd8:	e1043783          	ld	a5,-496(s0)
    ccdc:	00fa0a33          	add	s4,s4,a5
    cce0:	014e8eb3          	add	t4,t4,s4
    cce4:	428ed793          	srai	a5,t4,0x28
    cce8:	f6f43823          	sd	a5,-144(s0)
    ccec:	00f0c663          	blt	ra,a5,ccf8 <.LBB87_1620>
    ccf0:	f7c00793          	li	a5,-132
    ccf4:	f6f43823          	sd	a5,-144(s0)

000000000000ccf8 <.LBB87_1620>:
    ccf8:	03260633          	mul	a2,a2,s2
    ccfc:	e1043a03          	ld	s4,-496(s0)
    cd00:	014888b3          	add	a7,a7,s4
    cd04:	01160633          	add	a2,a2,a7
    cd08:	42865613          	srai	a2,a2,0x28
    cd0c:	f6c43423          	sd	a2,-152(s0)
    cd10:	00c0c663          	blt	ra,a2,cd1c <.LBB87_1622>
    cd14:	f7c00613          	li	a2,-132
    cd18:	f6c43423          	sd	a2,-152(s0)

000000000000cd1c <.LBB87_1622>:
    cd1c:	032585b3          	mul	a1,a1,s2
    cd20:	014686b3          	add	a3,a3,s4
    cd24:	00d585b3          	add	a1,a1,a3
    cd28:	4285d593          	srai	a1,a1,0x28
    cd2c:	f6b43023          	sd	a1,-160(s0)
    cd30:	00b0c663          	blt	ra,a1,cd3c <.LBB87_1624>
    cd34:	f7c00593          	li	a1,-132
    cd38:	f6b43023          	sd	a1,-160(s0)

000000000000cd3c <.LBB87_1624>:
    cd3c:	032305b3          	mul	a1,t1,s2
    cd40:	014383b3          	add	t2,t2,s4
    cd44:	007585b3          	add	a1,a1,t2
    cd48:	4285d593          	srai	a1,a1,0x28
    cd4c:	f4b43c23          	sd	a1,-168(s0)
    cd50:	e3843683          	ld	a3,-456(s0)
    cd54:	00b0c663          	blt	ra,a1,cd60 <.LBB87_1626>
    cd58:	f7c00593          	li	a1,-132
    cd5c:	f4b43c23          	sd	a1,-168(s0)

000000000000cd60 <.LBB87_1626>:
    cd60:	032805b3          	mul	a1,a6,s2
    cd64:	014282b3          	add	t0,t0,s4
    cd68:	005585b3          	add	a1,a1,t0
    cd6c:	4285d293          	srai	t0,a1,0x28
    cd70:	ef043383          	ld	t2,-272(s0)
    cd74:	dd843783          	ld	a5,-552(s0)
    cd78:	0050c463          	blt	ra,t0,cd80 <.LBB87_1628>
    cd7c:	f7c00293          	li	t0,-132

000000000000cd80 <.LBB87_1628>:
    cd80:	032705b3          	mul	a1,a4,s2
    cd84:	014b8bb3          	add	s7,s7,s4
    cd88:	017585b3          	add	a1,a1,s7
    cd8c:	4285db93          	srai	s7,a1,0x28
    cd90:	ee843803          	ld	a6,-280(s0)
    cd94:	0170c463          	blt	ra,s7,cd9c <.LBB87_1630>
    cd98:	f7c00b93          	li	s7,-132

000000000000cd9c <.LBB87_1630>:
    cd9c:	03250533          	mul	a0,a0,s2
    cda0:	d6843d03          	ld	s10,-664(s0)
    cda4:	014d0d33          	add	s10,s10,s4
    cda8:	01a50533          	add	a0,a0,s10
    cdac:	42855513          	srai	a0,a0,0x28
    cdb0:	de843703          	ld	a4,-536(s0)
    cdb4:	00a0c463          	blt	ra,a0,cdbc <.LBB87_1632>
    cdb8:	f7c00513          	li	a0,-132

000000000000cdbc <.LBB87_1632>:
    cdbc:	032e05b3          	mul	a1,t3,s2
    cdc0:	014484b3          	add	s1,s1,s4
    cdc4:	009585b3          	add	a1,a1,s1
    cdc8:	4285de13          	srai	t3,a1,0x28
    cdcc:	01c0c463          	blt	ra,t3,cdd4 <.LBB87_1634>
    cdd0:	f7c00e13          	li	t3,-132

000000000000cdd4 <.LBB87_1634>:
    cdd4:	032f05b3          	mul	a1,t5,s2
    cdd8:	da843603          	ld	a2,-600(s0)
    cddc:	01460633          	add	a2,a2,s4
    cde0:	00c585b3          	add	a1,a1,a2
    cde4:	4285df13          	srai	t5,a1,0x28
    cde8:	01e0c463          	blt	ra,t5,cdf0 <.LBB87_1636>
    cdec:	f7c00f13          	li	t5,-132

000000000000cdf0 <.LBB87_1636>:
    cdf0:	dd043583          	ld	a1,-560(s0)
    cdf4:	032585b3          	mul	a1,a1,s2
    cdf8:	dc843603          	ld	a2,-568(s0)
    cdfc:	01460633          	add	a2,a2,s4
    ce00:	00c585b3          	add	a1,a1,a2
    ce04:	4285d993          	srai	s3,a1,0x28
    ce08:	0130c463          	blt	ra,s3,ce10 <.LBB87_1638>
    ce0c:	f7c00993          	li	s3,-132

000000000000ce10 <.LBB87_1638>:
    ce10:	df043583          	ld	a1,-528(s0)
    ce14:	032585b3          	mul	a1,a1,s2
    ce18:	01470633          	add	a2,a4,s4
    ce1c:	00c585b3          	add	a1,a1,a2
    ce20:	4285d893          	srai	a7,a1,0x28
    ce24:	0110c463          	blt	ra,a7,ce2c <.LBB87_1640>
    ce28:	f7c00893          	li	a7,-132

000000000000ce2c <.LBB87_1640>:
    ce2c:	e0043583          	ld	a1,-512(s0)
    ce30:	032585b3          	mul	a1,a1,s2
    ce34:	df843603          	ld	a2,-520(s0)
    ce38:	01460633          	add	a2,a2,s4
    ce3c:	00c585b3          	add	a1,a1,a2
    ce40:	4285df93          	srai	t6,a1,0x28
    ce44:	01f0c463          	blt	ra,t6,ce4c <.LBB87_1642>
    ce48:	f7c00f93          	li	t6,-132

000000000000ce4c <.LBB87_1642>:
    ce4c:	e4843583          	ld	a1,-440(s0)
    ce50:	032585b3          	mul	a1,a1,s2
    ce54:	e2043603          	ld	a2,-480(s0)
    ce58:	01460633          	add	a2,a2,s4
    ce5c:	00c585b3          	add	a1,a1,a2
    ce60:	4285db13          	srai	s6,a1,0x28
    ce64:	0160c463          	blt	ra,s6,ce6c <.LBB87_1644>
    ce68:	f7c00b13          	li	s6,-132

000000000000ce6c <.LBB87_1644>:
    ce6c:	f2043583          	ld	a1,-224(s0)
    ce70:	032585b3          	mul	a1,a1,s2
    ce74:	e2843603          	ld	a2,-472(s0)
    ce78:	01460633          	add	a2,a2,s4
    ce7c:	00c585b3          	add	a1,a1,a2
    ce80:	4285dc13          	srai	s8,a1,0x28
    ce84:	0180c463          	blt	ra,s8,ce8c <.LBB87_1646>
    ce88:	f7c00c13          	li	s8,-132

000000000000ce8c <.LBB87_1646>:
    ce8c:	f1843583          	ld	a1,-232(s0)
    ce90:	032585b3          	mul	a1,a1,s2
    ce94:	f3843603          	ld	a2,-200(s0)
    ce98:	01460633          	add	a2,a2,s4
    ce9c:	00c585b3          	add	a1,a1,a2
    cea0:	4285dc93          	srai	s9,a1,0x28
    cea4:	0190c463          	blt	ra,s9,ceac <.LBB87_1648>
    cea8:	f7c00c93          	li	s9,-132

000000000000ceac <.LBB87_1648>:
    ceac:	e3043583          	ld	a1,-464(s0)
    ceb0:	032585b3          	mul	a1,a1,s2
    ceb4:	01478633          	add	a2,a5,s4
    ceb8:	00c585b3          	add	a1,a1,a2
    cebc:	4285d493          	srai	s1,a1,0x28
    cec0:	0090c463          	blt	ra,s1,cec8 <.LBB87_1650>
    cec4:	f7c00493          	li	s1,-132

000000000000cec8 <.LBB87_1650>:
    cec8:	e4043583          	ld	a1,-448(s0)
    cecc:	032585b3          	mul	a1,a1,s2
    ced0:	01468633          	add	a2,a3,s4
    ced4:	00c585b3          	add	a1,a1,a2
    ced8:	4285de93          	srai	t4,a1,0x28
    cedc:	01d0c463          	blt	ra,t4,cee4 <.LBB87_1652>
    cee0:	f7c00e93          	li	t4,-132

000000000000cee4 <.LBB87_1652>:
    cee4:	e5843583          	ld	a1,-424(s0)
    cee8:	032585b3          	mul	a1,a1,s2
    ceec:	e5043603          	ld	a2,-432(s0)
    cef0:	01460633          	add	a2,a2,s4
    cef4:	00c585b3          	add	a1,a1,a2
    cef8:	4285dd13          	srai	s10,a1,0x28
    cefc:	01a0c463          	blt	ra,s10,cf04 <.LBB87_1654>
    cf00:	f7c00d13          	li	s10,-132

000000000000cf04 <.LBB87_1654>:
    cf04:	e6043583          	ld	a1,-416(s0)
    cf08:	032585b3          	mul	a1,a1,s2
    cf0c:	f3043603          	ld	a2,-208(s0)
    cf10:	01460633          	add	a2,a2,s4
    cf14:	00c585b3          	add	a1,a1,a2
    cf18:	4285dd93          	srai	s11,a1,0x28
    cf1c:	01b0c463          	blt	ra,s11,cf24 <.LBB87_1656>
    cf20:	f7c00d93          	li	s11,-132

000000000000cf24 <.LBB87_1656>:
    cf24:	e7043583          	ld	a1,-400(s0)
    cf28:	032585b3          	mul	a1,a1,s2
    cf2c:	e6843603          	ld	a2,-408(s0)
    cf30:	01460633          	add	a2,a2,s4
    cf34:	00c585b3          	add	a1,a1,a2
    cf38:	4285d693          	srai	a3,a1,0x28
    cf3c:	00d0c463          	blt	ra,a3,cf44 <.LBB87_1658>
    cf40:	f7c00693          	li	a3,-132

000000000000cf44 <.LBB87_1658>:
    cf44:	e8043583          	ld	a1,-384(s0)
    cf48:	032585b3          	mul	a1,a1,s2
    cf4c:	e7843603          	ld	a2,-392(s0)
    cf50:	01460633          	add	a2,a2,s4
    cf54:	00c585b3          	add	a1,a1,a2
    cf58:	4285d713          	srai	a4,a1,0x28
    cf5c:	00e0c463          	blt	ra,a4,cf64 <.LBB87_1660>
    cf60:	f7c00713          	li	a4,-132

000000000000cf64 <.LBB87_1660>:
    cf64:	e9043583          	ld	a1,-368(s0)
    cf68:	032585b3          	mul	a1,a1,s2
    cf6c:	e8843603          	ld	a2,-376(s0)
    cf70:	01460633          	add	a2,a2,s4
    cf74:	00c585b3          	add	a1,a1,a2
    cf78:	4285d793          	srai	a5,a1,0x28
    cf7c:	00f0c463          	blt	ra,a5,cf84 <.LBB87_1662>
    cf80:	f7c00793          	li	a5,-132

000000000000cf84 <.LBB87_1662>:
    cf84:	ea043583          	ld	a1,-352(s0)
    cf88:	032585b3          	mul	a1,a1,s2
    cf8c:	e9843603          	ld	a2,-360(s0)
    cf90:	01460633          	add	a2,a2,s4
    cf94:	00c585b3          	add	a1,a1,a2
    cf98:	4285da93          	srai	s5,a1,0x28
    cf9c:	0150c463          	blt	ra,s5,cfa4 <.LBB87_1664>
    cfa0:	f7c00a93          	li	s5,-132

000000000000cfa4 <.LBB87_1664>:
    cfa4:	eb843583          	ld	a1,-328(s0)
    cfa8:	032585b3          	mul	a1,a1,s2
    cfac:	eb043603          	ld	a2,-336(s0)
    cfb0:	01460633          	add	a2,a2,s4
    cfb4:	00c585b3          	add	a1,a1,a2
    cfb8:	4285d613          	srai	a2,a1,0x28
    cfbc:	00c0c463          	blt	ra,a2,cfc4 <.LBB87_1666>
    cfc0:	f7c00613          	li	a2,-132

000000000000cfc4 <.LBB87_1666>:
    cfc4:	ec043583          	ld	a1,-320(s0)
    cfc8:	032585b3          	mul	a1,a1,s2
    cfcc:	01480833          	add	a6,a6,s4
    cfd0:	010585b3          	add	a1,a1,a6
    cfd4:	4285d813          	srai	a6,a1,0x28
    cfd8:	0100c463          	blt	ra,a6,cfe0 <.LBB87_1668>
    cfdc:	f7c00813          	li	a6,-132

000000000000cfe0 <.LBB87_1668>:
    cfe0:	f0043583          	ld	a1,-256(s0)
    cfe4:	032585b3          	mul	a1,a1,s2
    cfe8:	014383b3          	add	t2,t2,s4
    cfec:	007585b3          	add	a1,a1,t2
    cff0:	4285d593          	srai	a1,a1,0x28
    cff4:	00b0c463          	blt	ra,a1,cffc <.LBB87_1670>
    cff8:	f7c00593          	li	a1,-132

000000000000cffc <.LBB87_1670>:
    cffc:	ef843303          	ld	t1,-264(s0)
    d000:	032303b3          	mul	t2,t1,s2
    d004:	f0843903          	ld	s2,-248(s0)
    d008:	01490933          	add	s2,s2,s4
    d00c:	012383b3          	add	t2,t2,s2
    d010:	4283d393          	srai	t2,t2,0x28
    d014:	0070c463          	blt	ra,t2,d01c <.LBB87_1672>
    d018:	f7c00393          	li	t2,-132

000000000000d01c <.LBB87_1672>:
    d01c:	e1843903          	ld	s2,-488(s0)
    d020:	ed043303          	ld	t1,-304(s0)
    d024:	03230933          	mul	s2,t1,s2
    d028:	ec843303          	ld	t1,-312(s0)
    d02c:	01430a33          	add	s4,t1,s4
    d030:	01490933          	add	s2,s2,s4
    d034:	42895913          	srai	s2,s2,0x28
    d038:	0b20d663          	bge	ra,s2,d0e4 <.LBB87_1705>
    d03c:	07b00093          	li	ra,123
    d040:	0a195863          	bge	s2,ra,d0f0 <.LBB87_1706>

000000000000d044 <.LBB87_1674>:
    d044:	0a13da63          	bge	t2,ra,d0f8 <.LBB87_1707>

000000000000d048 <.LBB87_1675>:
    d048:	0a15dc63          	bge	a1,ra,d100 <.LBB87_1708>

000000000000d04c <.LBB87_1676>:
    d04c:	0a185e63          	bge	a6,ra,d108 <.LBB87_1709>

000000000000d050 <.LBB87_1677>:
    d050:	0c165063          	bge	a2,ra,d110 <.LBB87_1710>

000000000000d054 <.LBB87_1678>:
    d054:	0c1ad263          	bge	s5,ra,d118 <.LBB87_1711>

000000000000d058 <.LBB87_1679>:
    d058:	0c17d463          	bge	a5,ra,d120 <.LBB87_1712>

000000000000d05c <.LBB87_1680>:
    d05c:	0c175663          	bge	a4,ra,d128 <.LBB87_1713>

000000000000d060 <.LBB87_1681>:
    d060:	0c16d863          	bge	a3,ra,d130 <.LBB87_1714>

000000000000d064 <.LBB87_1682>:
    d064:	0c1dda63          	bge	s11,ra,d138 <.LBB87_1715>

000000000000d068 <.LBB87_1683>:
    d068:	0c1d5c63          	bge	s10,ra,d140 <.LBB87_1716>

000000000000d06c <.LBB87_1684>:
    d06c:	0c1ede63          	bge	t4,ra,d148 <.LBB87_1717>

000000000000d070 <.LBB87_1685>:
    d070:	0e14d063          	bge	s1,ra,d150 <.LBB87_1718>

000000000000d074 <.LBB87_1686>:
    d074:	0e1cd263          	bge	s9,ra,d158 <.LBB87_1719>

000000000000d078 <.LBB87_1687>:
    d078:	0e1c5463          	bge	s8,ra,d160 <.LBB87_1720>

000000000000d07c <.LBB87_1688>:
    d07c:	0e1b5663          	bge	s6,ra,d168 <.LBB87_1721>

000000000000d080 <.LBB87_1689>:
    d080:	0e1fd863          	bge	t6,ra,d170 <.LBB87_1722>

000000000000d084 <.LBB87_1690>:
    d084:	0e18da63          	bge	a7,ra,d178 <.LBB87_1723>

000000000000d088 <.LBB87_1691>:
    d088:	0e19dc63          	bge	s3,ra,d180 <.LBB87_1724>

000000000000d08c <.LBB87_1692>:
    d08c:	0e1f5e63          	bge	t5,ra,d188 <.LBB87_1725>

000000000000d090 <.LBB87_1693>:
    d090:	101e5063          	bge	t3,ra,d190 <.LBB87_1726>

000000000000d094 <.LBB87_1694>:
    d094:	10155263          	bge	a0,ra,d198 <.LBB87_1727>

000000000000d098 <.LBB87_1695>:
    d098:	101bd463          	bge	s7,ra,d1a0 <.LBB87_1728>

000000000000d09c <.LBB87_1696>:
    d09c:	1012d663          	bge	t0,ra,d1a8 <.LBB87_1729>

000000000000d0a0 <.LBB87_1697>:
    d0a0:	f5843303          	ld	t1,-168(s0)
    d0a4:	10135863          	bge	t1,ra,d1b4 <.LBB87_1730>

000000000000d0a8 <.LBB87_1698>:
    d0a8:	f6043303          	ld	t1,-160(s0)
    d0ac:	10135c63          	bge	t1,ra,d1c4 <.LBB87_1731>

000000000000d0b0 <.LBB87_1699>:
    d0b0:	f6843303          	ld	t1,-152(s0)
    d0b4:	12135063          	bge	t1,ra,d1d4 <.LBB87_1732>

000000000000d0b8 <.LBB87_1700>:
    d0b8:	f7043303          	ld	t1,-144(s0)
    d0bc:	12135463          	bge	t1,ra,d1e4 <.LBB87_1733>

000000000000d0c0 <.LBB87_1701>:
    d0c0:	f7843303          	ld	t1,-136(s0)
    d0c4:	12135863          	bge	t1,ra,d1f4 <.LBB87_1734>

000000000000d0c8 <.LBB87_1702>:
    d0c8:	f8043303          	ld	t1,-128(s0)
    d0cc:	12135c63          	bge	t1,ra,d204 <.LBB87_1735>

000000000000d0d0 <.LBB87_1703>:
    d0d0:	f8843303          	ld	t1,-120(s0)
    d0d4:	14135063          	bge	t1,ra,d214 <.LBB87_1736>

000000000000d0d8 <.LBB87_1704>:
    d0d8:	f5043303          	ld	t1,-176(s0)
    d0dc:	14135663          	bge	t1,ra,d228 <.LBB87_1737>
    d0e0:	eadfe06f          	j	bf8c <.LBB87_1543>

000000000000d0e4 <.LBB87_1705>:
    d0e4:	f7c00913          	li	s2,-132
    d0e8:	07b00093          	li	ra,123
    d0ec:	f4194ce3          	blt	s2,ra,d044 <.LBB87_1674>

000000000000d0f0 <.LBB87_1706>:
    d0f0:	07b00913          	li	s2,123
    d0f4:	f413cae3          	blt	t2,ra,d048 <.LBB87_1675>

000000000000d0f8 <.LBB87_1707>:
    d0f8:	07b00393          	li	t2,123
    d0fc:	f415c8e3          	blt	a1,ra,d04c <.LBB87_1676>

000000000000d100 <.LBB87_1708>:
    d100:	07b00593          	li	a1,123
    d104:	f41846e3          	blt	a6,ra,d050 <.LBB87_1677>

000000000000d108 <.LBB87_1709>:
    d108:	07b00813          	li	a6,123
    d10c:	f41644e3          	blt	a2,ra,d054 <.LBB87_1678>

000000000000d110 <.LBB87_1710>:
    d110:	07b00613          	li	a2,123
    d114:	f41ac2e3          	blt	s5,ra,d058 <.LBB87_1679>

000000000000d118 <.LBB87_1711>:
    d118:	07b00a93          	li	s5,123
    d11c:	f417c0e3          	blt	a5,ra,d05c <.LBB87_1680>

000000000000d120 <.LBB87_1712>:
    d120:	07b00793          	li	a5,123
    d124:	f2174ee3          	blt	a4,ra,d060 <.LBB87_1681>

000000000000d128 <.LBB87_1713>:
    d128:	07b00713          	li	a4,123
    d12c:	f216cce3          	blt	a3,ra,d064 <.LBB87_1682>

000000000000d130 <.LBB87_1714>:
    d130:	07b00693          	li	a3,123
    d134:	f21dcae3          	blt	s11,ra,d068 <.LBB87_1683>

000000000000d138 <.LBB87_1715>:
    d138:	07b00d93          	li	s11,123
    d13c:	f21d48e3          	blt	s10,ra,d06c <.LBB87_1684>

000000000000d140 <.LBB87_1716>:
    d140:	07b00d13          	li	s10,123
    d144:	f21ec6e3          	blt	t4,ra,d070 <.LBB87_1685>

000000000000d148 <.LBB87_1717>:
    d148:	07b00e93          	li	t4,123
    d14c:	f214c4e3          	blt	s1,ra,d074 <.LBB87_1686>

000000000000d150 <.LBB87_1718>:
    d150:	07b00493          	li	s1,123
    d154:	f21cc2e3          	blt	s9,ra,d078 <.LBB87_1687>

000000000000d158 <.LBB87_1719>:
    d158:	07b00c93          	li	s9,123
    d15c:	f21c40e3          	blt	s8,ra,d07c <.LBB87_1688>

000000000000d160 <.LBB87_1720>:
    d160:	07b00c13          	li	s8,123
    d164:	f01b4ee3          	blt	s6,ra,d080 <.LBB87_1689>

000000000000d168 <.LBB87_1721>:
    d168:	07b00b13          	li	s6,123
    d16c:	f01fcce3          	blt	t6,ra,d084 <.LBB87_1690>

000000000000d170 <.LBB87_1722>:
    d170:	07b00f93          	li	t6,123
    d174:	f018cae3          	blt	a7,ra,d088 <.LBB87_1691>

000000000000d178 <.LBB87_1723>:
    d178:	07b00893          	li	a7,123
    d17c:	f019c8e3          	blt	s3,ra,d08c <.LBB87_1692>

000000000000d180 <.LBB87_1724>:
    d180:	07b00993          	li	s3,123
    d184:	f01f46e3          	blt	t5,ra,d090 <.LBB87_1693>

000000000000d188 <.LBB87_1725>:
    d188:	07b00f13          	li	t5,123
    d18c:	f01e44e3          	blt	t3,ra,d094 <.LBB87_1694>

000000000000d190 <.LBB87_1726>:
    d190:	07b00e13          	li	t3,123
    d194:	f01542e3          	blt	a0,ra,d098 <.LBB87_1695>

000000000000d198 <.LBB87_1727>:
    d198:	07b00513          	li	a0,123
    d19c:	f01bc0e3          	blt	s7,ra,d09c <.LBB87_1696>

000000000000d1a0 <.LBB87_1728>:
    d1a0:	07b00b93          	li	s7,123
    d1a4:	ee12cee3          	blt	t0,ra,d0a0 <.LBB87_1697>

000000000000d1a8 <.LBB87_1729>:
    d1a8:	07b00293          	li	t0,123
    d1ac:	f5843303          	ld	t1,-168(s0)
    d1b0:	ee134ce3          	blt	t1,ra,d0a8 <.LBB87_1698>

000000000000d1b4 <.LBB87_1730>:
    d1b4:	07b00313          	li	t1,123
    d1b8:	f4643c23          	sd	t1,-168(s0)
    d1bc:	f6043303          	ld	t1,-160(s0)
    d1c0:	ee1348e3          	blt	t1,ra,d0b0 <.LBB87_1699>

000000000000d1c4 <.LBB87_1731>:
    d1c4:	07b00313          	li	t1,123
    d1c8:	f6643023          	sd	t1,-160(s0)
    d1cc:	f6843303          	ld	t1,-152(s0)
    d1d0:	ee1344e3          	blt	t1,ra,d0b8 <.LBB87_1700>

000000000000d1d4 <.LBB87_1732>:
    d1d4:	07b00313          	li	t1,123
    d1d8:	f6643423          	sd	t1,-152(s0)
    d1dc:	f7043303          	ld	t1,-144(s0)
    d1e0:	ee1340e3          	blt	t1,ra,d0c0 <.LBB87_1701>

000000000000d1e4 <.LBB87_1733>:
    d1e4:	07b00313          	li	t1,123
    d1e8:	f6643823          	sd	t1,-144(s0)
    d1ec:	f7843303          	ld	t1,-136(s0)
    d1f0:	ec134ce3          	blt	t1,ra,d0c8 <.LBB87_1702>

000000000000d1f4 <.LBB87_1734>:
    d1f4:	07b00313          	li	t1,123
    d1f8:	f6643c23          	sd	t1,-136(s0)
    d1fc:	f8043303          	ld	t1,-128(s0)
    d200:	ec1348e3          	blt	t1,ra,d0d0 <.LBB87_1703>

000000000000d204 <.LBB87_1735>:
    d204:	07b00313          	li	t1,123
    d208:	f8643023          	sd	t1,-128(s0)
    d20c:	f8843303          	ld	t1,-120(s0)
    d210:	ec1344e3          	blt	t1,ra,d0d8 <.LBB87_1704>

000000000000d214 <.LBB87_1736>:
    d214:	07b00313          	li	t1,123
    d218:	f8643423          	sd	t1,-120(s0)
    d21c:	f5043303          	ld	t1,-176(s0)
    d220:	00135463          	bge	t1,ra,d228 <.LBB87_1737>
    d224:	d69fe06f          	j	bf8c <.LBB87_1543>

000000000000d228 <.LBB87_1737>:
    d228:	07b00313          	li	t1,123
    d22c:	d61fe06f          	j	bf8c <.LBB87_1543>

000000000000d230 <.LBB87_1738>:
    d230:	00000513          	li	a0,0
    d234:	7f010113          	addi	sp,sp,2032
    d238:	53010113          	addi	sp,sp,1328
    d23c:	7e813083          	ld	ra,2024(sp)
    d240:	7e013403          	ld	s0,2016(sp)
    d244:	7d813483          	ld	s1,2008(sp)
    d248:	7d013903          	ld	s2,2000(sp)
    d24c:	7c813983          	ld	s3,1992(sp)
    d250:	7c013a03          	ld	s4,1984(sp)
    d254:	7b813a83          	ld	s5,1976(sp)
    d258:	7b013b03          	ld	s6,1968(sp)
    d25c:	7a813b83          	ld	s7,1960(sp)
    d260:	7a013c03          	ld	s8,1952(sp)
    d264:	79813c83          	ld	s9,1944(sp)
    d268:	79013d03          	ld	s10,1936(sp)
    d26c:	78813d83          	ld	s11,1928(sp)
    d270:	7f010113          	addi	sp,sp,2032
    d274:	00008067          	ret
