
code.o:     file format elf64-littleriscv


Disassembly of section .text.main_dispatch_89_matmul_196x96x384_i8xi8xi32:

0000000000000000 <main_dispatch_89_matmul_196x96x384_i8xi8xi32>:
       0:	81010113          	addi	sp,sp,-2032
       4:	7e113423          	sd	ra,2024(sp)
       8:	7e813023          	sd	s0,2016(sp)
       c:	7c913c23          	sd	s1,2008(sp)
      10:	7d213823          	sd	s2,2000(sp)
      14:	7d313423          	sd	s3,1992(sp)
      18:	7d413023          	sd	s4,1984(sp)
      1c:	7b513c23          	sd	s5,1976(sp)
      20:	7b613823          	sd	s6,1968(sp)
      24:	7b713423          	sd	s7,1960(sp)
      28:	7b813023          	sd	s8,1952(sp)
      2c:	79913c23          	sd	s9,1944(sp)
      30:	79a13823          	sd	s10,1936(sp)
      34:	79b13423          	sd	s11,1928(sp)
      38:	7f010413          	addi	s0,sp,2032
      3c:	80010113          	addi	sp,sp,-2048
      40:	ae010113          	addi	sp,sp,-1312
      44:	0205b583          	ld	a1,32(a1)
      48:	00000513          	li	a0,0
      4c:	0085b603          	ld	a2,8(a1)
      50:	0005b703          	ld	a4,0(a1)
      54:	000606b7          	lui	a3,0x60
      58:	a806869b          	addiw	a3,a3,-1408 # 5fa80 <.Lfunc_end80+0x370b8>
      5c:	00d609b3          	add	s3,a2,a3
      60:	0001b6b7          	lui	a3,0x1b
      64:	f006869b          	addiw	a3,a3,-256 # 1af00 <.LBB27_2613>
      68:	00d606b3          	add	a3,a2,a3
      6c:	000017b7          	lui	a5,0x1
      70:	40f407b3          	sub	a5,s0,a5
      74:	b6d7b023          	sd	a3,-1184(a5) # b60 <.LBB69_3+0x93c>
      78:	000126b7          	lui	a3,0x12
      7c:	6006869b          	addiw	a3,a3,1536 # 12600 <.LBB98_2051>
      80:	00d706b3          	add	a3,a4,a3
      84:	000017b7          	lui	a5,0x1
      88:	40f407b3          	sub	a5,s0,a5
      8c:	aed7bc23          	sd	a3,-1288(a5) # af8 <.LBB69_3+0x8d4>
      90:	000696b7          	lui	a3,0x69
      94:	a806869b          	addiw	a3,a3,-1408 # 68a80 <.Lfunc_end80+0x400b8>
      98:	0105b583          	ld	a1,16(a1)
      9c:	00d60633          	add	a2,a2,a3
      a0:	000016b7          	lui	a3,0x1
      a4:	40d406b3          	sub	a3,s0,a3
      a8:	b4c6bc23          	sd	a2,-1192(a3) # b58 <.LBB69_3+0x934>
      ac:	00013637          	lui	a2,0x13
      b0:	9406061b          	addiw	a2,a2,-1728 # 12940 <.LBB21_1104+0xc>
      b4:	00c585b3          	add	a1,a1,a2
      b8:	00001637          	lui	a2,0x1
      bc:	40c40633          	sub	a2,s0,a2
      c0:	b0b63423          	sd	a1,-1272(a2) # b08 <.LBB69_3+0x8e4>
      c4:	000015b7          	lui	a1,0x1
      c8:	40b405b3          	sub	a1,s0,a1
      cc:	aee5b823          	sd	a4,-1296(a1) # af0 <.LBB69_3+0x8cc>
      d0:	60070593          	addi	a1,a4,1536
      d4:	00001637          	lui	a2,0x1
      d8:	40c40633          	sub	a2,s0,a2
      dc:	b6b63423          	sd	a1,-1176(a2) # b68 <.LBB69_3+0x944>
      e0:	433575b7          	lui	a1,0x43357
      e4:	d2d5859b          	addiw	a1,a1,-723 # 43356d2d <.Lfunc_end80+0x4332e365>
      e8:	00001637          	lui	a2,0x1
      ec:	40c40633          	sub	a2,s0,a2
      f0:	66b63423          	sd	a1,1640(a2) # 1668 <.LBB69_5+0x24c>
      f4:	00100593          	li	a1,1
      f8:	02759593          	slli	a1,a1,0x27
      fc:	e6b43023          	sd	a1,-416(s0)
     100:	000015b7          	lui	a1,0x1
     104:	40b405b3          	sub	a1,s0,a1
     108:	b135b823          	sd	s3,-1264(a1) # b10 <.LBB69_3+0x8ec>
     10c:	04c0006f          	j	158 <.LBB69_2>

0000000000000110 <.LBB69_1>:
     110:	00001537          	lui	a0,0x1
     114:	40a40533          	sub	a0,s0,a0
     118:	b0053603          	ld	a2,-1280(a0) # b00 <.LBB69_3+0x8dc>
     11c:	00860513          	addi	a0,a2,8
     120:	000015b7          	lui	a1,0x1
     124:	40b405b3          	sub	a1,s0,a1
     128:	b685b583          	ld	a1,-1176(a1) # b68 <.LBB69_3+0x944>
     12c:	7ff58593          	addi	a1,a1,2047
     130:	40158593          	addi	a1,a1,1025
     134:	000016b7          	lui	a3,0x1
     138:	40d406b3          	sub	a3,s0,a3
     13c:	b6b6b423          	sd	a1,-1176(a3) # b68 <.LBB69_3+0x944>
     140:	000015b7          	lui	a1,0x1
     144:	40b405b3          	sub	a1,s0,a1
     148:	b105b983          	ld	s3,-1264(a1) # b10 <.LBB69_3+0x8ec>
     14c:	0b800593          	li	a1,184
     150:	00b66463          	bltu	a2,a1,158 <.LBB69_2>
     154:	3a90b06f          	j	bcfc <.LBB69_1542>

0000000000000158 <.LBB69_2>:
     158:	00000593          	li	a1,0
     15c:	00050693          	mv	a3,a0
     160:	00251513          	slli	a0,a0,0x2
     164:	00001637          	lui	a2,0x1
     168:	40c40633          	sub	a2,s0,a2
     16c:	af863603          	ld	a2,-1288(a2) # af8 <.LBB69_3+0x8d4>
     170:	00a60533          	add	a0,a2,a0
     174:	00001637          	lui	a2,0x1
     178:	40c40633          	sub	a2,s0,a2
     17c:	64a63c23          	sd	a0,1624(a2) # 1658 <.LBB69_5+0x23c>
     180:	06000513          	li	a0,96
     184:	00001637          	lui	a2,0x1
     188:	40c40633          	sub	a2,s0,a2
     18c:	b0d63023          	sd	a3,-1280(a2) # b00 <.LBB69_3+0x8dc>
     190:	02a68533          	mul	a0,a3,a0
     194:	00001637          	lui	a2,0x1
     198:	40c40633          	sub	a2,s0,a2
     19c:	b0863603          	ld	a2,-1272(a2) # b08 <.LBB69_3+0x8e4>
     1a0:	00a60533          	add	a0,a2,a0
     1a4:	06050613          	addi	a2,a0,96
     1a8:	000016b7          	lui	a3,0x1
     1ac:	40d406b3          	sub	a3,s0,a3
     1b0:	b4c6b423          	sd	a2,-1208(a3) # b48 <.LBB69_3+0x924>
     1b4:	0c050613          	addi	a2,a0,192
     1b8:	000016b7          	lui	a3,0x1
     1bc:	40d406b3          	sub	a3,s0,a3
     1c0:	b4c6b023          	sd	a2,-1216(a3) # b40 <.LBB69_3+0x91c>
     1c4:	12050613          	addi	a2,a0,288
     1c8:	000016b7          	lui	a3,0x1
     1cc:	40d406b3          	sub	a3,s0,a3
     1d0:	b2c6bc23          	sd	a2,-1224(a3) # b38 <.LBB69_3+0x914>
     1d4:	18050613          	addi	a2,a0,384
     1d8:	000016b7          	lui	a3,0x1
     1dc:	40d406b3          	sub	a3,s0,a3
     1e0:	b2c6b823          	sd	a2,-1232(a3) # b30 <.LBB69_3+0x90c>
     1e4:	1e050613          	addi	a2,a0,480
     1e8:	000016b7          	lui	a3,0x1
     1ec:	40d406b3          	sub	a3,s0,a3
     1f0:	b2c6b423          	sd	a2,-1240(a3) # b28 <.LBB69_3+0x904>
     1f4:	24050613          	addi	a2,a0,576
     1f8:	000016b7          	lui	a3,0x1
     1fc:	40d406b3          	sub	a3,s0,a3
     200:	b2c6b023          	sd	a2,-1248(a3) # b20 <.LBB69_3+0x8fc>
     204:	00001637          	lui	a2,0x1
     208:	40c40633          	sub	a2,s0,a2
     20c:	b4a63823          	sd	a0,-1200(a2) # b50 <.LBB69_3+0x92c>
     210:	2a050513          	addi	a0,a0,672
     214:	00001637          	lui	a2,0x1
     218:	40c40633          	sub	a2,s0,a2
     21c:	b0a63c23          	sd	a0,-1256(a2) # b18 <.LBB69_3+0x8f4>
     220:	4590006f          	j	e78 <.LBB69_4>

0000000000000224 <.LBB69_3>:
     224:	96143023          	sd	ra,-1696(s0)
     228:	d6043483          	ld	s1,-672(s0)
     22c:	00148493          	addi	s1,s1,1
     230:	00001837          	lui	a6,0x1
     234:	41040833          	sub	a6,s0,a6
     238:	b5083083          	ld	ra,-1200(a6) # b50 <.LBB69_3+0x92c>
     23c:	00001837          	lui	a6,0x1
     240:	41040833          	sub	a6,s0,a6
     244:	66083803          	ld	a6,1632(a6) # 1660 <.LBB69_5+0x244>
     248:	010080b3          	add	ra,ra,a6
     24c:	009081a3          	sb	s1,3(ra)
     250:	e4843483          	ld	s1,-440(s0)
     254:	00148493          	addi	s1,s1,1
     258:	00908123          	sb	s1,2(ra)
     25c:	e5843483          	ld	s1,-424(s0)
     260:	00148493          	addi	s1,s1,1
     264:	009080a3          	sb	s1,1(ra)
     268:	e7043483          	ld	s1,-400(s0)
     26c:	00148493          	addi	s1,s1,1
     270:	00908023          	sb	s1,0(ra)
     274:	e8043483          	ld	s1,-384(s0)
     278:	00148493          	addi	s1,s1,1
     27c:	00908223          	sb	s1,4(ra)
     280:	e9043483          	ld	s1,-368(s0)
     284:	00148493          	addi	s1,s1,1
     288:	009082a3          	sb	s1,5(ra)
     28c:	ea043483          	ld	s1,-352(s0)
     290:	00148493          	addi	s1,s1,1
     294:	00908323          	sb	s1,6(ra)
     298:	eb043483          	ld	s1,-336(s0)
     29c:	00148493          	addi	s1,s1,1
     2a0:	009083a3          	sb	s1,7(ra)
     2a4:	ec043483          	ld	s1,-320(s0)
     2a8:	00148493          	addi	s1,s1,1
     2ac:	00908423          	sb	s1,8(ra)
     2b0:	ed043483          	ld	s1,-304(s0)
     2b4:	00148493          	addi	s1,s1,1
     2b8:	009084a3          	sb	s1,9(ra)
     2bc:	ee043483          	ld	s1,-288(s0)
     2c0:	00148493          	addi	s1,s1,1
     2c4:	00908523          	sb	s1,10(ra)
     2c8:	ee843483          	ld	s1,-280(s0)
     2cc:	00148493          	addi	s1,s1,1
     2d0:	009085a3          	sb	s1,11(ra)
     2d4:	ef043483          	ld	s1,-272(s0)
     2d8:	00148493          	addi	s1,s1,1
     2dc:	00908623          	sb	s1,12(ra)
     2e0:	ef843483          	ld	s1,-264(s0)
     2e4:	00148493          	addi	s1,s1,1
     2e8:	009086a3          	sb	s1,13(ra)
     2ec:	f0043483          	ld	s1,-256(s0)
     2f0:	00148493          	addi	s1,s1,1
     2f4:	00908723          	sb	s1,14(ra)
     2f8:	f0843483          	ld	s1,-248(s0)
     2fc:	00148493          	addi	s1,s1,1
     300:	009087a3          	sb	s1,15(ra)
     304:	f1043483          	ld	s1,-240(s0)
     308:	00148493          	addi	s1,s1,1
     30c:	00908823          	sb	s1,16(ra)
     310:	f1843483          	ld	s1,-232(s0)
     314:	00148493          	addi	s1,s1,1
     318:	009088a3          	sb	s1,17(ra)
     31c:	f2043483          	ld	s1,-224(s0)
     320:	00148493          	addi	s1,s1,1
     324:	00908923          	sb	s1,18(ra)
     328:	f2843483          	ld	s1,-216(s0)
     32c:	00148493          	addi	s1,s1,1
     330:	009089a3          	sb	s1,19(ra)
     334:	f3043483          	ld	s1,-208(s0)
     338:	00148493          	addi	s1,s1,1
     33c:	00908a23          	sb	s1,20(ra)
     340:	f3843483          	ld	s1,-200(s0)
     344:	00148493          	addi	s1,s1,1
     348:	00908aa3          	sb	s1,21(ra)
     34c:	f4043483          	ld	s1,-192(s0)
     350:	00148493          	addi	s1,s1,1
     354:	00908b23          	sb	s1,22(ra)
     358:	f4843483          	ld	s1,-184(s0)
     35c:	00148493          	addi	s1,s1,1
     360:	00908ba3          	sb	s1,23(ra)
     364:	f5043483          	ld	s1,-176(s0)
     368:	00148493          	addi	s1,s1,1
     36c:	00908c23          	sb	s1,24(ra)
     370:	f5843483          	ld	s1,-168(s0)
     374:	00148493          	addi	s1,s1,1
     378:	00908ca3          	sb	s1,25(ra)
     37c:	f6043483          	ld	s1,-160(s0)
     380:	00148493          	addi	s1,s1,1
     384:	00908d23          	sb	s1,26(ra)
     388:	f6843483          	ld	s1,-152(s0)
     38c:	00148493          	addi	s1,s1,1
     390:	00908da3          	sb	s1,27(ra)
     394:	f7043483          	ld	s1,-144(s0)
     398:	00148493          	addi	s1,s1,1
     39c:	00908e23          	sb	s1,28(ra)
     3a0:	f7843483          	ld	s1,-136(s0)
     3a4:	00148493          	addi	s1,s1,1
     3a8:	00908ea3          	sb	s1,29(ra)
     3ac:	f8043483          	ld	s1,-128(s0)
     3b0:	00148493          	addi	s1,s1,1
     3b4:	00908f23          	sb	s1,30(ra)
     3b8:	f8843483          	ld	s1,-120(s0)
     3bc:	00148493          	addi	s1,s1,1
     3c0:	00908fa3          	sb	s1,31(ra)
     3c4:	d3843083          	ld	ra,-712(s0)
     3c8:	00108093          	addi	ra,ra,1
     3cc:	000014b7          	lui	s1,0x1
     3d0:	409404b3          	sub	s1,s0,s1
     3d4:	b484b483          	ld	s1,-1208(s1) # b48 <.LBB69_3+0x924>
     3d8:	010484b3          	add	s1,s1,a6
     3dc:	001481a3          	sb	ra,3(s1)
     3e0:	d4843083          	ld	ra,-696(s0)
     3e4:	00108093          	addi	ra,ra,1
     3e8:	00148123          	sb	ra,2(s1)
     3ec:	d5843083          	ld	ra,-680(s0)
     3f0:	00108093          	addi	ra,ra,1
     3f4:	001480a3          	sb	ra,1(s1)
     3f8:	d7043083          	ld	ra,-656(s0)
     3fc:	00108093          	addi	ra,ra,1
     400:	00148023          	sb	ra,0(s1)
     404:	d8043083          	ld	ra,-640(s0)
     408:	00108093          	addi	ra,ra,1
     40c:	00148223          	sb	ra,4(s1)
     410:	d9043083          	ld	ra,-624(s0)
     414:	00108093          	addi	ra,ra,1
     418:	001482a3          	sb	ra,5(s1)
     41c:	da043083          	ld	ra,-608(s0)
     420:	00108093          	addi	ra,ra,1
     424:	00148323          	sb	ra,6(s1)
     428:	db043083          	ld	ra,-592(s0)
     42c:	00108093          	addi	ra,ra,1
     430:	001483a3          	sb	ra,7(s1)
     434:	dc043083          	ld	ra,-576(s0)
     438:	00108093          	addi	ra,ra,1
     43c:	00148423          	sb	ra,8(s1)
     440:	dd043083          	ld	ra,-560(s0)
     444:	00108093          	addi	ra,ra,1
     448:	001484a3          	sb	ra,9(s1)
     44c:	de043083          	ld	ra,-544(s0)
     450:	00108093          	addi	ra,ra,1
     454:	00148523          	sb	ra,10(s1)
     458:	de843083          	ld	ra,-536(s0)
     45c:	00108093          	addi	ra,ra,1
     460:	001485a3          	sb	ra,11(s1)
     464:	df043083          	ld	ra,-528(s0)
     468:	00108093          	addi	ra,ra,1
     46c:	00148623          	sb	ra,12(s1)
     470:	df843083          	ld	ra,-520(s0)
     474:	00108093          	addi	ra,ra,1
     478:	001486a3          	sb	ra,13(s1)
     47c:	e0043083          	ld	ra,-512(s0)
     480:	00108093          	addi	ra,ra,1
     484:	00148723          	sb	ra,14(s1)
     488:	e0843083          	ld	ra,-504(s0)
     48c:	00108093          	addi	ra,ra,1
     490:	001487a3          	sb	ra,15(s1)
     494:	e1043083          	ld	ra,-496(s0)
     498:	00108093          	addi	ra,ra,1
     49c:	00148823          	sb	ra,16(s1)
     4a0:	e1843083          	ld	ra,-488(s0)
     4a4:	00108093          	addi	ra,ra,1
     4a8:	001488a3          	sb	ra,17(s1)
     4ac:	e2043083          	ld	ra,-480(s0)
     4b0:	00108093          	addi	ra,ra,1
     4b4:	00148923          	sb	ra,18(s1)
     4b8:	e2843083          	ld	ra,-472(s0)
     4bc:	00108093          	addi	ra,ra,1
     4c0:	001489a3          	sb	ra,19(s1)
     4c4:	e3043083          	ld	ra,-464(s0)
     4c8:	00108093          	addi	ra,ra,1
     4cc:	00148a23          	sb	ra,20(s1)
     4d0:	e3843083          	ld	ra,-456(s0)
     4d4:	00108093          	addi	ra,ra,1
     4d8:	00148aa3          	sb	ra,21(s1)
     4dc:	e4043083          	ld	ra,-448(s0)
     4e0:	00108093          	addi	ra,ra,1
     4e4:	00148b23          	sb	ra,22(s1)
     4e8:	e5043083          	ld	ra,-432(s0)
     4ec:	00108093          	addi	ra,ra,1
     4f0:	00148ba3          	sb	ra,23(s1)
     4f4:	e6843083          	ld	ra,-408(s0)
     4f8:	00108093          	addi	ra,ra,1
     4fc:	00148c23          	sb	ra,24(s1)
     500:	e7843083          	ld	ra,-392(s0)
     504:	00108093          	addi	ra,ra,1
     508:	00148ca3          	sb	ra,25(s1)
     50c:	e8843083          	ld	ra,-376(s0)
     510:	00108093          	addi	ra,ra,1
     514:	00148d23          	sb	ra,26(s1)
     518:	e9843083          	ld	ra,-360(s0)
     51c:	00108093          	addi	ra,ra,1
     520:	00148da3          	sb	ra,27(s1)
     524:	ea843083          	ld	ra,-344(s0)
     528:	00108093          	addi	ra,ra,1
     52c:	00148e23          	sb	ra,28(s1)
     530:	eb843083          	ld	ra,-328(s0)
     534:	00108093          	addi	ra,ra,1
     538:	00148ea3          	sb	ra,29(s1)
     53c:	ec843083          	ld	ra,-312(s0)
     540:	00108093          	addi	ra,ra,1
     544:	00148f23          	sb	ra,30(s1)
     548:	ed843083          	ld	ra,-296(s0)
     54c:	00108093          	addi	ra,ra,1
     550:	00148fa3          	sb	ra,31(s1)
     554:	c3843083          	ld	ra,-968(s0)
     558:	00108093          	addi	ra,ra,1
     55c:	000014b7          	lui	s1,0x1
     560:	409404b3          	sub	s1,s0,s1
     564:	b404b483          	ld	s1,-1216(s1) # b40 <.LBB69_3+0x91c>
     568:	010484b3          	add	s1,s1,a6
     56c:	001481a3          	sb	ra,3(s1)
     570:	c4843083          	ld	ra,-952(s0)
     574:	00108093          	addi	ra,ra,1
     578:	00148123          	sb	ra,2(s1)
     57c:	c5843083          	ld	ra,-936(s0)
     580:	00108093          	addi	ra,ra,1
     584:	001480a3          	sb	ra,1(s1)
     588:	c6843083          	ld	ra,-920(s0)
     58c:	00108093          	addi	ra,ra,1
     590:	00148023          	sb	ra,0(s1)
     594:	c7843083          	ld	ra,-904(s0)
     598:	00108093          	addi	ra,ra,1
     59c:	00148223          	sb	ra,4(s1)
     5a0:	c8843083          	ld	ra,-888(s0)
     5a4:	00108093          	addi	ra,ra,1
     5a8:	001482a3          	sb	ra,5(s1)
     5ac:	c9843083          	ld	ra,-872(s0)
     5b0:	00108093          	addi	ra,ra,1
     5b4:	00148323          	sb	ra,6(s1)
     5b8:	ca843083          	ld	ra,-856(s0)
     5bc:	00108093          	addi	ra,ra,1
     5c0:	001483a3          	sb	ra,7(s1)
     5c4:	cb843083          	ld	ra,-840(s0)
     5c8:	00108093          	addi	ra,ra,1
     5cc:	00148423          	sb	ra,8(s1)
     5d0:	cc843083          	ld	ra,-824(s0)
     5d4:	00108093          	addi	ra,ra,1
     5d8:	001484a3          	sb	ra,9(s1)
     5dc:	cd843083          	ld	ra,-808(s0)
     5e0:	00108093          	addi	ra,ra,1
     5e4:	00148523          	sb	ra,10(s1)
     5e8:	ce043083          	ld	ra,-800(s0)
     5ec:	00108093          	addi	ra,ra,1
     5f0:	001485a3          	sb	ra,11(s1)
     5f4:	ce843083          	ld	ra,-792(s0)
     5f8:	00108093          	addi	ra,ra,1
     5fc:	00148623          	sb	ra,12(s1)
     600:	cf043083          	ld	ra,-784(s0)
     604:	00108093          	addi	ra,ra,1
     608:	001486a3          	sb	ra,13(s1)
     60c:	cf843083          	ld	ra,-776(s0)
     610:	00108093          	addi	ra,ra,1
     614:	00148723          	sb	ra,14(s1)
     618:	d0043083          	ld	ra,-768(s0)
     61c:	00108093          	addi	ra,ra,1
     620:	001487a3          	sb	ra,15(s1)
     624:	d0843083          	ld	ra,-760(s0)
     628:	00108093          	addi	ra,ra,1
     62c:	00148823          	sb	ra,16(s1)
     630:	d1043083          	ld	ra,-752(s0)
     634:	00108093          	addi	ra,ra,1
     638:	001488a3          	sb	ra,17(s1)
     63c:	d1843083          	ld	ra,-744(s0)
     640:	00108093          	addi	ra,ra,1
     644:	00148923          	sb	ra,18(s1)
     648:	d2043083          	ld	ra,-736(s0)
     64c:	00108093          	addi	ra,ra,1
     650:	001489a3          	sb	ra,19(s1)
     654:	d2843083          	ld	ra,-728(s0)
     658:	00108093          	addi	ra,ra,1
     65c:	00148a23          	sb	ra,20(s1)
     660:	d3043083          	ld	ra,-720(s0)
     664:	00108093          	addi	ra,ra,1
     668:	00148aa3          	sb	ra,21(s1)
     66c:	d4043083          	ld	ra,-704(s0)
     670:	00108093          	addi	ra,ra,1
     674:	00148b23          	sb	ra,22(s1)
     678:	d5043083          	ld	ra,-688(s0)
     67c:	00108093          	addi	ra,ra,1
     680:	00148ba3          	sb	ra,23(s1)
     684:	d6843083          	ld	ra,-664(s0)
     688:	00108093          	addi	ra,ra,1
     68c:	00148c23          	sb	ra,24(s1)
     690:	d7843083          	ld	ra,-648(s0)
     694:	00108093          	addi	ra,ra,1
     698:	00148ca3          	sb	ra,25(s1)
     69c:	d8843083          	ld	ra,-632(s0)
     6a0:	00108093          	addi	ra,ra,1
     6a4:	00148d23          	sb	ra,26(s1)
     6a8:	d9843083          	ld	ra,-616(s0)
     6ac:	00108093          	addi	ra,ra,1
     6b0:	00148da3          	sb	ra,27(s1)
     6b4:	da843083          	ld	ra,-600(s0)
     6b8:	00108093          	addi	ra,ra,1
     6bc:	00148e23          	sb	ra,28(s1)
     6c0:	db843083          	ld	ra,-584(s0)
     6c4:	00108093          	addi	ra,ra,1
     6c8:	00148ea3          	sb	ra,29(s1)
     6cc:	dc843083          	ld	ra,-568(s0)
     6d0:	00108093          	addi	ra,ra,1
     6d4:	00148f23          	sb	ra,30(s1)
     6d8:	dd843083          	ld	ra,-552(s0)
     6dc:	00108093          	addi	ra,ra,1
     6e0:	00148fa3          	sb	ra,31(s1)
     6e4:	b3843083          	ld	ra,-1224(s0)
     6e8:	00108093          	addi	ra,ra,1
     6ec:	000014b7          	lui	s1,0x1
     6f0:	409404b3          	sub	s1,s0,s1
     6f4:	b384b483          	ld	s1,-1224(s1) # b38 <.LBB69_3+0x914>
     6f8:	010484b3          	add	s1,s1,a6
     6fc:	001481a3          	sb	ra,3(s1)
     700:	b4843083          	ld	ra,-1208(s0)
     704:	00108093          	addi	ra,ra,1
     708:	00148123          	sb	ra,2(s1)
     70c:	b5843083          	ld	ra,-1192(s0)
     710:	00108093          	addi	ra,ra,1
     714:	001480a3          	sb	ra,1(s1)
     718:	b6843083          	ld	ra,-1176(s0)
     71c:	00108093          	addi	ra,ra,1
     720:	00148023          	sb	ra,0(s1)
     724:	b7843083          	ld	ra,-1160(s0)
     728:	00108093          	addi	ra,ra,1
     72c:	00148223          	sb	ra,4(s1)
     730:	b8843083          	ld	ra,-1144(s0)
     734:	00108093          	addi	ra,ra,1
     738:	001482a3          	sb	ra,5(s1)
     73c:	b9843083          	ld	ra,-1128(s0)
     740:	00108093          	addi	ra,ra,1
     744:	00148323          	sb	ra,6(s1)
     748:	ba843083          	ld	ra,-1112(s0)
     74c:	00108093          	addi	ra,ra,1
     750:	001483a3          	sb	ra,7(s1)
     754:	bb843083          	ld	ra,-1096(s0)
     758:	00108093          	addi	ra,ra,1
     75c:	00148423          	sb	ra,8(s1)
     760:	bc843083          	ld	ra,-1080(s0)
     764:	00108093          	addi	ra,ra,1
     768:	001484a3          	sb	ra,9(s1)
     76c:	bd843083          	ld	ra,-1064(s0)
     770:	00108093          	addi	ra,ra,1
     774:	00148523          	sb	ra,10(s1)
     778:	be043083          	ld	ra,-1056(s0)
     77c:	00108093          	addi	ra,ra,1
     780:	001485a3          	sb	ra,11(s1)
     784:	be843083          	ld	ra,-1048(s0)
     788:	00108093          	addi	ra,ra,1
     78c:	00148623          	sb	ra,12(s1)
     790:	bf043083          	ld	ra,-1040(s0)
     794:	00108093          	addi	ra,ra,1
     798:	001486a3          	sb	ra,13(s1)
     79c:	bf843083          	ld	ra,-1032(s0)
     7a0:	00108093          	addi	ra,ra,1
     7a4:	00148723          	sb	ra,14(s1)
     7a8:	c0043083          	ld	ra,-1024(s0)
     7ac:	00108093          	addi	ra,ra,1
     7b0:	001487a3          	sb	ra,15(s1)
     7b4:	c0843083          	ld	ra,-1016(s0)
     7b8:	00108093          	addi	ra,ra,1
     7bc:	00148823          	sb	ra,16(s1)
     7c0:	c1043083          	ld	ra,-1008(s0)
     7c4:	00108093          	addi	ra,ra,1
     7c8:	001488a3          	sb	ra,17(s1)
     7cc:	c1843083          	ld	ra,-1000(s0)
     7d0:	00108093          	addi	ra,ra,1
     7d4:	00148923          	sb	ra,18(s1)
     7d8:	c2043083          	ld	ra,-992(s0)
     7dc:	00108093          	addi	ra,ra,1
     7e0:	001489a3          	sb	ra,19(s1)
     7e4:	c2843083          	ld	ra,-984(s0)
     7e8:	00108093          	addi	ra,ra,1
     7ec:	00148a23          	sb	ra,20(s1)
     7f0:	c3043083          	ld	ra,-976(s0)
     7f4:	00108093          	addi	ra,ra,1
     7f8:	00148aa3          	sb	ra,21(s1)
     7fc:	c4043083          	ld	ra,-960(s0)
     800:	00108093          	addi	ra,ra,1
     804:	00148b23          	sb	ra,22(s1)
     808:	c5043083          	ld	ra,-944(s0)
     80c:	00108093          	addi	ra,ra,1
     810:	00148ba3          	sb	ra,23(s1)
     814:	c6043083          	ld	ra,-928(s0)
     818:	00108093          	addi	ra,ra,1
     81c:	00148c23          	sb	ra,24(s1)
     820:	c7043083          	ld	ra,-912(s0)
     824:	00108093          	addi	ra,ra,1
     828:	00148ca3          	sb	ra,25(s1)
     82c:	c8043083          	ld	ra,-896(s0)
     830:	00108093          	addi	ra,ra,1
     834:	00148d23          	sb	ra,26(s1)
     838:	c9043083          	ld	ra,-880(s0)
     83c:	00108093          	addi	ra,ra,1
     840:	00148da3          	sb	ra,27(s1)
     844:	ca043083          	ld	ra,-864(s0)
     848:	00108093          	addi	ra,ra,1
     84c:	00148e23          	sb	ra,28(s1)
     850:	cb043083          	ld	ra,-848(s0)
     854:	00108093          	addi	ra,ra,1
     858:	00148ea3          	sb	ra,29(s1)
     85c:	cc043083          	ld	ra,-832(s0)
     860:	00108093          	addi	ra,ra,1
     864:	00148f23          	sb	ra,30(s1)
     868:	cd043083          	ld	ra,-816(s0)
     86c:	00108093          	addi	ra,ra,1
     870:	00148fa3          	sb	ra,31(s1)
     874:	a3843083          	ld	ra,-1480(s0)
     878:	00108093          	addi	ra,ra,1
     87c:	000014b7          	lui	s1,0x1
     880:	409404b3          	sub	s1,s0,s1
     884:	b304b483          	ld	s1,-1232(s1) # b30 <.LBB69_3+0x90c>
     888:	010484b3          	add	s1,s1,a6
     88c:	001481a3          	sb	ra,3(s1)
     890:	a4843083          	ld	ra,-1464(s0)
     894:	00108093          	addi	ra,ra,1
     898:	00148123          	sb	ra,2(s1)
     89c:	a5843083          	ld	ra,-1448(s0)
     8a0:	00108093          	addi	ra,ra,1
     8a4:	001480a3          	sb	ra,1(s1)
     8a8:	a6843083          	ld	ra,-1432(s0)
     8ac:	00108093          	addi	ra,ra,1
     8b0:	00148023          	sb	ra,0(s1)
     8b4:	a7843083          	ld	ra,-1416(s0)
     8b8:	00108093          	addi	ra,ra,1
     8bc:	00148223          	sb	ra,4(s1)
     8c0:	a8843083          	ld	ra,-1400(s0)
     8c4:	00108093          	addi	ra,ra,1
     8c8:	001482a3          	sb	ra,5(s1)
     8cc:	a9843083          	ld	ra,-1384(s0)
     8d0:	00108093          	addi	ra,ra,1
     8d4:	00148323          	sb	ra,6(s1)
     8d8:	aa843083          	ld	ra,-1368(s0)
     8dc:	00108093          	addi	ra,ra,1
     8e0:	001483a3          	sb	ra,7(s1)
     8e4:	ab843083          	ld	ra,-1352(s0)
     8e8:	00108093          	addi	ra,ra,1
     8ec:	00148423          	sb	ra,8(s1)
     8f0:	ac843083          	ld	ra,-1336(s0)
     8f4:	00108093          	addi	ra,ra,1
     8f8:	001484a3          	sb	ra,9(s1)
     8fc:	ad843083          	ld	ra,-1320(s0)
     900:	00108093          	addi	ra,ra,1
     904:	00148523          	sb	ra,10(s1)
     908:	ae043083          	ld	ra,-1312(s0)
     90c:	00108093          	addi	ra,ra,1
     910:	001485a3          	sb	ra,11(s1)
     914:	ae843083          	ld	ra,-1304(s0)
     918:	00108093          	addi	ra,ra,1
     91c:	00148623          	sb	ra,12(s1)
     920:	af043083          	ld	ra,-1296(s0)
     924:	00108093          	addi	ra,ra,1
     928:	001486a3          	sb	ra,13(s1)
     92c:	af843083          	ld	ra,-1288(s0)
     930:	00108093          	addi	ra,ra,1
     934:	00148723          	sb	ra,14(s1)
     938:	b0043083          	ld	ra,-1280(s0)
     93c:	00108093          	addi	ra,ra,1
     940:	001487a3          	sb	ra,15(s1)
     944:	b0843083          	ld	ra,-1272(s0)
     948:	00108093          	addi	ra,ra,1
     94c:	00148823          	sb	ra,16(s1)
     950:	b1043083          	ld	ra,-1264(s0)
     954:	00108093          	addi	ra,ra,1
     958:	001488a3          	sb	ra,17(s1)
     95c:	b1843083          	ld	ra,-1256(s0)
     960:	00108093          	addi	ra,ra,1
     964:	00148923          	sb	ra,18(s1)
     968:	b2043083          	ld	ra,-1248(s0)
     96c:	00108093          	addi	ra,ra,1
     970:	001489a3          	sb	ra,19(s1)
     974:	b2843083          	ld	ra,-1240(s0)
     978:	00108093          	addi	ra,ra,1
     97c:	00148a23          	sb	ra,20(s1)
     980:	b3043083          	ld	ra,-1232(s0)
     984:	00108093          	addi	ra,ra,1
     988:	00148aa3          	sb	ra,21(s1)
     98c:	b4043083          	ld	ra,-1216(s0)
     990:	00108093          	addi	ra,ra,1
     994:	00148b23          	sb	ra,22(s1)
     998:	b5043083          	ld	ra,-1200(s0)
     99c:	00108093          	addi	ra,ra,1
     9a0:	00148ba3          	sb	ra,23(s1)
     9a4:	b6043083          	ld	ra,-1184(s0)
     9a8:	00108093          	addi	ra,ra,1
     9ac:	00148c23          	sb	ra,24(s1)
     9b0:	b7043083          	ld	ra,-1168(s0)
     9b4:	00108093          	addi	ra,ra,1
     9b8:	00148ca3          	sb	ra,25(s1)
     9bc:	b8043083          	ld	ra,-1152(s0)
     9c0:	00108093          	addi	ra,ra,1
     9c4:	00148d23          	sb	ra,26(s1)
     9c8:	b9043083          	ld	ra,-1136(s0)
     9cc:	00108093          	addi	ra,ra,1
     9d0:	00148da3          	sb	ra,27(s1)
     9d4:	ba043083          	ld	ra,-1120(s0)
     9d8:	00108093          	addi	ra,ra,1
     9dc:	00148e23          	sb	ra,28(s1)
     9e0:	bb043083          	ld	ra,-1104(s0)
     9e4:	00108093          	addi	ra,ra,1
     9e8:	00148ea3          	sb	ra,29(s1)
     9ec:	bc043083          	ld	ra,-1088(s0)
     9f0:	00108093          	addi	ra,ra,1
     9f4:	00148f23          	sb	ra,30(s1)
     9f8:	bd043083          	ld	ra,-1072(s0)
     9fc:	00108093          	addi	ra,ra,1
     a00:	00148fa3          	sb	ra,31(s1)
     a04:	001b8093          	addi	ra,s7,1
     a08:	000014b7          	lui	s1,0x1
     a0c:	409404b3          	sub	s1,s0,s1
     a10:	b284b483          	ld	s1,-1240(s1) # b28 <.LBB69_3+0x904>
     a14:	010484b3          	add	s1,s1,a6
     a18:	001481a3          	sb	ra,3(s1)
     a1c:	001a8093          	addi	ra,s5,1
     a20:	00148123          	sb	ra,2(s1)
     a24:	00198093          	addi	ra,s3,1
     a28:	001480a3          	sb	ra,1(s1)
     a2c:	001e0093          	addi	ra,t3,1
     a30:	00148023          	sb	ra,0(s1)
     a34:	00168093          	addi	ra,a3,1
     a38:	00148223          	sb	ra,4(s1)
     a3c:	00130093          	addi	ra,t1,1
     a40:	001482a3          	sb	ra,5(s1)
     a44:	00170093          	addi	ra,a4,1
     a48:	00148323          	sb	ra,6(s1)
     a4c:	001e8093          	addi	ra,t4,1
     a50:	001483a3          	sb	ra,7(s1)
     a54:	84843083          	ld	ra,-1976(s0)
     a58:	00108093          	addi	ra,ra,1
     a5c:	00148423          	sb	ra,8(s1)
     a60:	9c843083          	ld	ra,-1592(s0)
     a64:	00108093          	addi	ra,ra,1
     a68:	001484a3          	sb	ra,9(s1)
     a6c:	9d843083          	ld	ra,-1576(s0)
     a70:	00108093          	addi	ra,ra,1
     a74:	00148523          	sb	ra,10(s1)
     a78:	9e043083          	ld	ra,-1568(s0)
     a7c:	00108093          	addi	ra,ra,1
     a80:	001485a3          	sb	ra,11(s1)
     a84:	9e843083          	ld	ra,-1560(s0)
     a88:	00108093          	addi	ra,ra,1
     a8c:	00148623          	sb	ra,12(s1)
     a90:	9f043083          	ld	ra,-1552(s0)
     a94:	00108093          	addi	ra,ra,1
     a98:	001486a3          	sb	ra,13(s1)
     a9c:	9f843083          	ld	ra,-1544(s0)
     aa0:	00108093          	addi	ra,ra,1
     aa4:	00148723          	sb	ra,14(s1)
     aa8:	a0043083          	ld	ra,-1536(s0)
     aac:	00108093          	addi	ra,ra,1
     ab0:	001487a3          	sb	ra,15(s1)
     ab4:	a0843083          	ld	ra,-1528(s0)
     ab8:	00108093          	addi	ra,ra,1
     abc:	00148823          	sb	ra,16(s1)
     ac0:	a1043083          	ld	ra,-1520(s0)
     ac4:	00108093          	addi	ra,ra,1
     ac8:	001488a3          	sb	ra,17(s1)
     acc:	a1843083          	ld	ra,-1512(s0)
     ad0:	00108093          	addi	ra,ra,1
     ad4:	00148923          	sb	ra,18(s1)
     ad8:	a2043083          	ld	ra,-1504(s0)
     adc:	00108093          	addi	ra,ra,1
     ae0:	001489a3          	sb	ra,19(s1)
     ae4:	a2843083          	ld	ra,-1496(s0)
     ae8:	00108093          	addi	ra,ra,1
     aec:	00148a23          	sb	ra,20(s1)
     af0:	a3043083          	ld	ra,-1488(s0)
     af4:	00108093          	addi	ra,ra,1
     af8:	00148aa3          	sb	ra,21(s1)
     afc:	a4043083          	ld	ra,-1472(s0)
     b00:	00108093          	addi	ra,ra,1
     b04:	00148b23          	sb	ra,22(s1)
     b08:	a5043083          	ld	ra,-1456(s0)
     b0c:	00108093          	addi	ra,ra,1
     b10:	00148ba3          	sb	ra,23(s1)
     b14:	a6043083          	ld	ra,-1440(s0)
     b18:	00108093          	addi	ra,ra,1
     b1c:	00148c23          	sb	ra,24(s1)
     b20:	a7043083          	ld	ra,-1424(s0)
     b24:	00108093          	addi	ra,ra,1
     b28:	00148ca3          	sb	ra,25(s1)
     b2c:	a8043083          	ld	ra,-1408(s0)
     b30:	00108093          	addi	ra,ra,1
     b34:	00148d23          	sb	ra,26(s1)
     b38:	a9043083          	ld	ra,-1392(s0)
     b3c:	00108093          	addi	ra,ra,1
     b40:	00148da3          	sb	ra,27(s1)
     b44:	aa043083          	ld	ra,-1376(s0)
     b48:	00108093          	addi	ra,ra,1
     b4c:	00148e23          	sb	ra,28(s1)
     b50:	ab043083          	ld	ra,-1360(s0)
     b54:	00108093          	addi	ra,ra,1
     b58:	00148ea3          	sb	ra,29(s1)
     b5c:	ac043083          	ld	ra,-1344(s0)
     b60:	00108093          	addi	ra,ra,1
     b64:	00148f23          	sb	ra,30(s1)
     b68:	ad043083          	ld	ra,-1328(s0)
     b6c:	00108093          	addi	ra,ra,1
     b70:	00148fa3          	sb	ra,31(s1)
     b74:	8c843483          	ld	s1,-1848(s0)
     b78:	00148493          	addi	s1,s1,1
     b7c:	000016b7          	lui	a3,0x1
     b80:	40d406b3          	sub	a3,s0,a3
     b84:	b206be83          	ld	t4,-1248(a3) # b20 <.LBB69_3+0x8fc>
     b88:	010e8eb3          	add	t4,t4,a6
     b8c:	009e81a3          	sb	s1,3(t4)
     b90:	8d843703          	ld	a4,-1832(s0)
     b94:	00170713          	addi	a4,a4,1
     b98:	00ee8123          	sb	a4,2(t4)
     b9c:	8e843703          	ld	a4,-1816(s0)
     ba0:	00170713          	addi	a4,a4,1
     ba4:	00ee80a3          	sb	a4,1(t4)
     ba8:	8f843703          	ld	a4,-1800(s0)
     bac:	00170713          	addi	a4,a4,1
     bb0:	00ee8023          	sb	a4,0(t4)
     bb4:	90843703          	ld	a4,-1784(s0)
     bb8:	00170713          	addi	a4,a4,1
     bbc:	00ee8223          	sb	a4,4(t4)
     bc0:	91843703          	ld	a4,-1768(s0)
     bc4:	00170713          	addi	a4,a4,1
     bc8:	00ee82a3          	sb	a4,5(t4)
     bcc:	92843703          	ld	a4,-1752(s0)
     bd0:	00170713          	addi	a4,a4,1
     bd4:	00ee8323          	sb	a4,6(t4)
     bd8:	93843703          	ld	a4,-1736(s0)
     bdc:	00170713          	addi	a4,a4,1
     be0:	00ee83a3          	sb	a4,7(t4)
     be4:	94843703          	ld	a4,-1720(s0)
     be8:	00170713          	addi	a4,a4,1
     bec:	00ee8423          	sb	a4,8(t4)
     bf0:	95843703          	ld	a4,-1704(s0)
     bf4:	00170713          	addi	a4,a4,1
     bf8:	00ee84a3          	sb	a4,9(t4)
     bfc:	96843703          	ld	a4,-1688(s0)
     c00:	00170713          	addi	a4,a4,1
     c04:	00ee8523          	sb	a4,10(t4)
     c08:	97043703          	ld	a4,-1680(s0)
     c0c:	00170713          	addi	a4,a4,1
     c10:	00ee85a3          	sb	a4,11(t4)
     c14:	97843703          	ld	a4,-1672(s0)
     c18:	00170713          	addi	a4,a4,1
     c1c:	00ee8623          	sb	a4,12(t4)
     c20:	98043703          	ld	a4,-1664(s0)
     c24:	00170713          	addi	a4,a4,1
     c28:	00ee86a3          	sb	a4,13(t4)
     c2c:	98843703          	ld	a4,-1656(s0)
     c30:	00170713          	addi	a4,a4,1
     c34:	00ee8723          	sb	a4,14(t4)
     c38:	99043703          	ld	a4,-1648(s0)
     c3c:	00170713          	addi	a4,a4,1
     c40:	00ee87a3          	sb	a4,15(t4)
     c44:	99843703          	ld	a4,-1640(s0)
     c48:	00170713          	addi	a4,a4,1
     c4c:	00ee8823          	sb	a4,16(t4)
     c50:	9a043703          	ld	a4,-1632(s0)
     c54:	00170713          	addi	a4,a4,1
     c58:	00ee88a3          	sb	a4,17(t4)
     c5c:	9a843703          	ld	a4,-1624(s0)
     c60:	00170713          	addi	a4,a4,1
     c64:	00ee8923          	sb	a4,18(t4)
     c68:	9b043703          	ld	a4,-1616(s0)
     c6c:	00170713          	addi	a4,a4,1
     c70:	00ee89a3          	sb	a4,19(t4)
     c74:	9b843703          	ld	a4,-1608(s0)
     c78:	00170713          	addi	a4,a4,1
     c7c:	00ee8a23          	sb	a4,20(t4)
     c80:	001d8713          	addi	a4,s11,1
     c84:	00ee8aa3          	sb	a4,21(t4)
     c88:	001b0713          	addi	a4,s6,1
     c8c:	00ee8b23          	sb	a4,22(t4)
     c90:	001a0713          	addi	a4,s4,1
     c94:	00ee8ba3          	sb	a4,23(t4)
     c98:	00190713          	addi	a4,s2,1
     c9c:	00ee8c23          	sb	a4,24(t4)
     ca0:	001f0713          	addi	a4,t5,1
     ca4:	00ee8ca3          	sb	a4,25(t4)
     ca8:	00138713          	addi	a4,t2,1
     cac:	00ee8d23          	sb	a4,26(t4)
     cb0:	00128713          	addi	a4,t0,1
     cb4:	00ee8da3          	sb	a4,27(t4)
     cb8:	00178713          	addi	a4,a5,1
     cbc:	00ee8e23          	sb	a4,28(t4)
     cc0:	001d0713          	addi	a4,s10,1
     cc4:	00ee8ea3          	sb	a4,29(t4)
     cc8:	9c043703          	ld	a4,-1600(s0)
     ccc:	00170713          	addi	a4,a4,1
     cd0:	00ee8f23          	sb	a4,30(t4)
     cd4:	9d043703          	ld	a4,-1584(s0)
     cd8:	00170713          	addi	a4,a4,1
     cdc:	00ee8fa3          	sb	a4,31(t4)
     ce0:	001f8f93          	addi	t6,t6,1
     ce4:	000016b7          	lui	a3,0x1
     ce8:	40d406b3          	sub	a3,s0,a3
     cec:	b186b703          	ld	a4,-1256(a3) # b18 <.LBB69_3+0x8f4>
     cf0:	01070733          	add	a4,a4,a6
     cf4:	00080e93          	mv	t4,a6
     cf8:	01f701a3          	sb	t6,3(a4)
     cfc:	001c8c93          	addi	s9,s9,1
     d00:	01970123          	sb	s9,2(a4)
     d04:	00150d93          	addi	s11,a0,1
     d08:	01b700a3          	sb	s11,1(a4)
     d0c:	00188893          	addi	a7,a7,1
     d10:	01170023          	sb	a7,0(a4)
     d14:	001c0c13          	addi	s8,s8,1
     d18:	01870223          	sb	s8,4(a4)
     d1c:	00160b93          	addi	s7,a2,1
     d20:	017702a3          	sb	s7,5(a4)
     d24:	00158b13          	addi	s6,a1,1
     d28:	01670323          	sb	s6,6(a4)
     d2c:	85043a83          	ld	s5,-1968(s0)
     d30:	001a8a93          	addi	s5,s5,1
     d34:	015703a3          	sb	s5,7(a4)
     d38:	85843a03          	ld	s4,-1960(s0)
     d3c:	001a0a13          	addi	s4,s4,1
     d40:	01470423          	sb	s4,8(a4)
     d44:	86043983          	ld	s3,-1952(s0)
     d48:	00198993          	addi	s3,s3,1
     d4c:	013704a3          	sb	s3,9(a4)
     d50:	86843903          	ld	s2,-1944(s0)
     d54:	00190913          	addi	s2,s2,1
     d58:	01270523          	sb	s2,10(a4)
     d5c:	87043603          	ld	a2,-1936(s0)
     d60:	00160613          	addi	a2,a2,1
     d64:	00c705a3          	sb	a2,11(a4)
     d68:	87843583          	ld	a1,-1928(s0)
     d6c:	00158593          	addi	a1,a1,1
     d70:	00b70623          	sb	a1,12(a4)
     d74:	88043e03          	ld	t3,-1920(s0)
     d78:	001e0e13          	addi	t3,t3,1
     d7c:	01c706a3          	sb	t3,13(a4)
     d80:	88843503          	ld	a0,-1912(s0)
     d84:	00150513          	addi	a0,a0,1
     d88:	00a70723          	sb	a0,14(a4)
     d8c:	89043f03          	ld	t5,-1904(s0)
     d90:	001f0f13          	addi	t5,t5,1
     d94:	01e707a3          	sb	t5,15(a4)
     d98:	89843683          	ld	a3,-1896(s0)
     d9c:	00168693          	addi	a3,a3,1
     da0:	00d70823          	sb	a3,16(a4)
     da4:	8a043383          	ld	t2,-1888(s0)
     da8:	00138393          	addi	t2,t2,1
     dac:	007708a3          	sb	t2,17(a4)
     db0:	8a843303          	ld	t1,-1880(s0)
     db4:	00130313          	addi	t1,t1,1
     db8:	00670923          	sb	t1,18(a4)
     dbc:	8b043283          	ld	t0,-1872(s0)
     dc0:	00128293          	addi	t0,t0,1
     dc4:	005709a3          	sb	t0,19(a4)
     dc8:	8b843783          	ld	a5,-1864(s0)
     dcc:	00178793          	addi	a5,a5,1
     dd0:	00f70a23          	sb	a5,20(a4)
     dd4:	8c043d03          	ld	s10,-1856(s0)
     dd8:	001d0d13          	addi	s10,s10,1
     ddc:	01a70aa3          	sb	s10,21(a4)
     de0:	8d043803          	ld	a6,-1840(s0)
     de4:	00180813          	addi	a6,a6,1
     de8:	01070b23          	sb	a6,22(a4)
     dec:	8e043503          	ld	a0,-1824(s0)
     df0:	00150513          	addi	a0,a0,1
     df4:	00a70ba3          	sb	a0,23(a4)
     df8:	8f043503          	ld	a0,-1808(s0)
     dfc:	00150513          	addi	a0,a0,1
     e00:	00a70c23          	sb	a0,24(a4)
     e04:	90043503          	ld	a0,-1792(s0)
     e08:	00150513          	addi	a0,a0,1
     e0c:	00a70ca3          	sb	a0,25(a4)
     e10:	91043503          	ld	a0,-1776(s0)
     e14:	00150513          	addi	a0,a0,1
     e18:	00a70d23          	sb	a0,26(a4)
     e1c:	92043503          	ld	a0,-1760(s0)
     e20:	00150513          	addi	a0,a0,1
     e24:	00a70da3          	sb	a0,27(a4)
     e28:	93043503          	ld	a0,-1744(s0)
     e2c:	00150513          	addi	a0,a0,1
     e30:	00a70e23          	sb	a0,28(a4)
     e34:	94043503          	ld	a0,-1728(s0)
     e38:	00150513          	addi	a0,a0,1
     e3c:	00a70ea3          	sb	a0,29(a4)
     e40:	95043503          	ld	a0,-1712(s0)
     e44:	00150513          	addi	a0,a0,1
     e48:	00a70f23          	sb	a0,30(a4)
     e4c:	96043503          	ld	a0,-1696(s0)
     e50:	00150513          	addi	a0,a0,1
     e54:	00a70fa3          	sb	a0,31(a4)
     e58:	000e8613          	mv	a2,t4
     e5c:	020e8593          	addi	a1,t4,32
     e60:	00001537          	lui	a0,0x1
     e64:	40a40533          	sub	a0,s0,a0
     e68:	65053983          	ld	s3,1616(a0) # 1650 <.LBB69_5+0x234>
     e6c:	02098993          	addi	s3,s3,32
     e70:	04000513          	li	a0,64
     e74:	a8aefe63          	bgeu	t4,a0,110 <.LBB69_1>

0000000000000e78 <.LBB69_4>:
     e78:	00001537          	lui	a0,0x1
     e7c:	40a40533          	sub	a0,s0,a0
     e80:	66b53023          	sd	a1,1632(a0) # 1660 <.LBB69_5+0x244>
     e84:	18000793          	li	a5,384
     e88:	00001537          	lui	a0,0x1
     e8c:	40a40533          	sub	a0,s0,a0
     e90:	65353823          	sd	s3,1616(a0) # 1650 <.LBB69_5+0x234>
     e94:	00098e93          	mv	t4,s3
     e98:	00001537          	lui	a0,0x1
     e9c:	40a40533          	sub	a0,s0,a0
     ea0:	b6853f03          	ld	t5,-1176(a0) # b68 <.LBB69_3+0x944>
     ea4:	00001537          	lui	a0,0x1
     ea8:	40a40533          	sub	a0,s0,a0
     eac:	6c053023          	sd	zero,1728(a0) # 16c0 <.LBB69_5+0x2a4>
     eb0:	00001537          	lui	a0,0x1
     eb4:	40a40533          	sub	a0,s0,a0
     eb8:	6a053c23          	sd	zero,1720(a0) # 16b8 <.LBB69_5+0x29c>
     ebc:	00001537          	lui	a0,0x1
     ec0:	40a40533          	sub	a0,s0,a0
     ec4:	6a053023          	sd	zero,1696(a0) # 16a0 <.LBB69_5+0x284>
     ec8:	00001537          	lui	a0,0x1
     ecc:	40a40533          	sub	a0,s0,a0
     ed0:	6a053423          	sd	zero,1704(a0) # 16a8 <.LBB69_5+0x28c>
     ed4:	00001537          	lui	a0,0x1
     ed8:	40a40533          	sub	a0,s0,a0
     edc:	6c053423          	sd	zero,1736(a0) # 16c8 <.LBB69_5+0x2ac>
     ee0:	00001537          	lui	a0,0x1
     ee4:	40a40533          	sub	a0,s0,a0
     ee8:	6a053823          	sd	zero,1712(a0) # 16b0 <.LBB69_5+0x294>
     eec:	00001537          	lui	a0,0x1
     ef0:	40a40533          	sub	a0,s0,a0
     ef4:	68053c23          	sd	zero,1688(a0) # 1698 <.LBB69_5+0x27c>
     ef8:	00001537          	lui	a0,0x1
     efc:	40a40533          	sub	a0,s0,a0
     f00:	68053823          	sd	zero,1680(a0) # 1690 <.LBB69_5+0x274>
     f04:	00001537          	lui	a0,0x1
     f08:	40a40533          	sub	a0,s0,a0
     f0c:	68053423          	sd	zero,1672(a0) # 1688 <.LBB69_5+0x26c>
     f10:	00001537          	lui	a0,0x1
     f14:	40a40533          	sub	a0,s0,a0
     f18:	6c053823          	sd	zero,1744(a0) # 16d0 <.LBB69_5+0x2b4>
     f1c:	00001537          	lui	a0,0x1
     f20:	40a40533          	sub	a0,s0,a0
     f24:	6c053c23          	sd	zero,1752(a0) # 16d8 <.LBB69_5+0x2bc>
     f28:	00001537          	lui	a0,0x1
     f2c:	40a40533          	sub	a0,s0,a0
     f30:	6e053023          	sd	zero,1760(a0) # 16e0 <.LBB69_5+0x2c4>
     f34:	00001537          	lui	a0,0x1
     f38:	40a40533          	sub	a0,s0,a0
     f3c:	6e053423          	sd	zero,1768(a0) # 16e8 <.LBB69_5+0x2cc>
     f40:	00001537          	lui	a0,0x1
     f44:	40a40533          	sub	a0,s0,a0
     f48:	6e053823          	sd	zero,1776(a0) # 16f0 <.LBB69_5+0x2d4>
     f4c:	00001537          	lui	a0,0x1
     f50:	40a40533          	sub	a0,s0,a0
     f54:	6e053c23          	sd	zero,1784(a0) # 16f8 <.LBB69_5+0x2dc>
     f58:	00001537          	lui	a0,0x1
     f5c:	40a40533          	sub	a0,s0,a0
     f60:	70053023          	sd	zero,1792(a0) # 1700 <.LBB69_5+0x2e4>
     f64:	00001537          	lui	a0,0x1
     f68:	40a40533          	sub	a0,s0,a0
     f6c:	70053423          	sd	zero,1800(a0) # 1708 <.LBB69_5+0x2ec>
     f70:	00001537          	lui	a0,0x1
     f74:	40a40533          	sub	a0,s0,a0
     f78:	70053823          	sd	zero,1808(a0) # 1710 <.LBB69_5+0x2f4>
     f7c:	00001537          	lui	a0,0x1
     f80:	40a40533          	sub	a0,s0,a0
     f84:	70053c23          	sd	zero,1816(a0) # 1718 <.LBB69_5+0x2fc>
     f88:	00001537          	lui	a0,0x1
     f8c:	40a40533          	sub	a0,s0,a0
     f90:	72053023          	sd	zero,1824(a0) # 1720 <.LBB69_5+0x304>
     f94:	00001537          	lui	a0,0x1
     f98:	40a40533          	sub	a0,s0,a0
     f9c:	72053423          	sd	zero,1832(a0) # 1728 <.LBB69_5+0x30c>
     fa0:	00001537          	lui	a0,0x1
     fa4:	40a40533          	sub	a0,s0,a0
     fa8:	72053823          	sd	zero,1840(a0) # 1730 <.LBB69_5+0x314>
     fac:	00001537          	lui	a0,0x1
     fb0:	40a40533          	sub	a0,s0,a0
     fb4:	72053c23          	sd	zero,1848(a0) # 1738 <.LBB69_5+0x31c>
     fb8:	00001537          	lui	a0,0x1
     fbc:	40a40533          	sub	a0,s0,a0
     fc0:	74053023          	sd	zero,1856(a0) # 1740 <.LBB69_5+0x324>
     fc4:	00001537          	lui	a0,0x1
     fc8:	40a40533          	sub	a0,s0,a0
     fcc:	74053423          	sd	zero,1864(a0) # 1748 <.LBB69_5+0x32c>
     fd0:	00001537          	lui	a0,0x1
     fd4:	40a40533          	sub	a0,s0,a0
     fd8:	74053823          	sd	zero,1872(a0) # 1750 <.LBB69_5+0x334>
     fdc:	00001537          	lui	a0,0x1
     fe0:	40a40533          	sub	a0,s0,a0
     fe4:	74053c23          	sd	zero,1880(a0) # 1758 <.LBB69_5+0x33c>
     fe8:	00001537          	lui	a0,0x1
     fec:	40a40533          	sub	a0,s0,a0
     ff0:	76053023          	sd	zero,1888(a0) # 1760 <.LBB69_5+0x344>
     ff4:	00001537          	lui	a0,0x1
     ff8:	40a40533          	sub	a0,s0,a0
     ffc:	76053423          	sd	zero,1896(a0) # 1768 <.LBB69_5+0x34c>
    1000:	00001537          	lui	a0,0x1
    1004:	40a40533          	sub	a0,s0,a0
    1008:	76053823          	sd	zero,1904(a0) # 1770 <.LBB69_5+0x354>
    100c:	00001537          	lui	a0,0x1
    1010:	40a40533          	sub	a0,s0,a0
    1014:	76053c23          	sd	zero,1912(a0) # 1778 <.LBB69_5+0x35c>
    1018:	00001537          	lui	a0,0x1
    101c:	40a40533          	sub	a0,s0,a0
    1020:	78053023          	sd	zero,1920(a0) # 1780 <.LBB69_5+0x364>
    1024:	00001537          	lui	a0,0x1
    1028:	40a40533          	sub	a0,s0,a0
    102c:	7a053023          	sd	zero,1952(a0) # 17a0 <.LBB69_5+0x384>
    1030:	00001537          	lui	a0,0x1
    1034:	40a40533          	sub	a0,s0,a0
    1038:	78053c23          	sd	zero,1944(a0) # 1798 <.LBB69_5+0x37c>
    103c:	00001537          	lui	a0,0x1
    1040:	40a40533          	sub	a0,s0,a0
    1044:	78053823          	sd	zero,1936(a0) # 1790 <.LBB69_5+0x374>
    1048:	00001537          	lui	a0,0x1
    104c:	40a40533          	sub	a0,s0,a0
    1050:	78053423          	sd	zero,1928(a0) # 1788 <.LBB69_5+0x36c>
    1054:	00001537          	lui	a0,0x1
    1058:	40a40533          	sub	a0,s0,a0
    105c:	7a053423          	sd	zero,1960(a0) # 17a8 <.LBB69_5+0x38c>
    1060:	00001537          	lui	a0,0x1
    1064:	40a40533          	sub	a0,s0,a0
    1068:	7a053823          	sd	zero,1968(a0) # 17b0 <.LBB69_5+0x394>
    106c:	00001537          	lui	a0,0x1
    1070:	40a40533          	sub	a0,s0,a0
    1074:	7a053c23          	sd	zero,1976(a0) # 17b8 <.LBB69_5+0x39c>
    1078:	00001537          	lui	a0,0x1
    107c:	40a40533          	sub	a0,s0,a0
    1080:	7c053023          	sd	zero,1984(a0) # 17c0 <.LBB69_5+0x3a4>
    1084:	00001537          	lui	a0,0x1
    1088:	40a40533          	sub	a0,s0,a0
    108c:	7c053423          	sd	zero,1992(a0) # 17c8 <.LBB69_5+0x3ac>
    1090:	00001537          	lui	a0,0x1
    1094:	40a40533          	sub	a0,s0,a0
    1098:	7c053823          	sd	zero,2000(a0) # 17d0 <.LBB69_5+0x3b4>
    109c:	00001537          	lui	a0,0x1
    10a0:	40a40533          	sub	a0,s0,a0
    10a4:	7c053c23          	sd	zero,2008(a0) # 17d8 <.LBB69_5+0x3bc>
    10a8:	00001537          	lui	a0,0x1
    10ac:	40a40533          	sub	a0,s0,a0
    10b0:	7e053023          	sd	zero,2016(a0) # 17e0 <.LBB69_5+0x3c4>
    10b4:	00001537          	lui	a0,0x1
    10b8:	40a40533          	sub	a0,s0,a0
    10bc:	7e053423          	sd	zero,2024(a0) # 17e8 <.LBB69_5+0x3cc>
    10c0:	00001537          	lui	a0,0x1
    10c4:	40a40533          	sub	a0,s0,a0
    10c8:	7e053823          	sd	zero,2032(a0) # 17f0 <.LBB69_5+0x3d4>
    10cc:	00001537          	lui	a0,0x1
    10d0:	40a40533          	sub	a0,s0,a0
    10d4:	7e053c23          	sd	zero,2040(a0) # 17f8 <.LBB69_5+0x3dc>
    10d8:	80043023          	sd	zero,-2048(s0)
    10dc:	80043423          	sd	zero,-2040(s0)
    10e0:	80043823          	sd	zero,-2032(s0)
    10e4:	80043c23          	sd	zero,-2024(s0)
    10e8:	82043023          	sd	zero,-2016(s0)
    10ec:	82043423          	sd	zero,-2008(s0)
    10f0:	82043823          	sd	zero,-2000(s0)
    10f4:	82043c23          	sd	zero,-1992(s0)
    10f8:	84043023          	sd	zero,-1984(s0)
    10fc:	84043423          	sd	zero,-1976(s0)
    1100:	84043823          	sd	zero,-1968(s0)
    1104:	84043c23          	sd	zero,-1960(s0)
    1108:	86043023          	sd	zero,-1952(s0)
    110c:	86043423          	sd	zero,-1944(s0)
    1110:	86043823          	sd	zero,-1936(s0)
    1114:	86043c23          	sd	zero,-1928(s0)
    1118:	88043023          	sd	zero,-1920(s0)
    111c:	8a043023          	sd	zero,-1888(s0)
    1120:	88043c23          	sd	zero,-1896(s0)
    1124:	88043823          	sd	zero,-1904(s0)
    1128:	88043423          	sd	zero,-1912(s0)
    112c:	8a043423          	sd	zero,-1880(s0)
    1130:	8a043823          	sd	zero,-1872(s0)
    1134:	8a043c23          	sd	zero,-1864(s0)
    1138:	8c043023          	sd	zero,-1856(s0)
    113c:	8c043423          	sd	zero,-1848(s0)
    1140:	8c043823          	sd	zero,-1840(s0)
    1144:	8c043c23          	sd	zero,-1832(s0)
    1148:	8e043023          	sd	zero,-1824(s0)
    114c:	8e043423          	sd	zero,-1816(s0)
    1150:	8e043823          	sd	zero,-1808(s0)
    1154:	8e043c23          	sd	zero,-1800(s0)
    1158:	90043023          	sd	zero,-1792(s0)
    115c:	90043423          	sd	zero,-1784(s0)
    1160:	90043823          	sd	zero,-1776(s0)
    1164:	90043c23          	sd	zero,-1768(s0)
    1168:	92043023          	sd	zero,-1760(s0)
    116c:	92043423          	sd	zero,-1752(s0)
    1170:	92043823          	sd	zero,-1744(s0)
    1174:	92043c23          	sd	zero,-1736(s0)
    1178:	94043023          	sd	zero,-1728(s0)
    117c:	94043423          	sd	zero,-1720(s0)
    1180:	94043823          	sd	zero,-1712(s0)
    1184:	94043c23          	sd	zero,-1704(s0)
    1188:	96043023          	sd	zero,-1696(s0)
    118c:	96043423          	sd	zero,-1688(s0)
    1190:	96043823          	sd	zero,-1680(s0)
    1194:	96043c23          	sd	zero,-1672(s0)
    1198:	98043023          	sd	zero,-1664(s0)
    119c:	9a043023          	sd	zero,-1632(s0)
    11a0:	98043c23          	sd	zero,-1640(s0)
    11a4:	98043823          	sd	zero,-1648(s0)
    11a8:	98043423          	sd	zero,-1656(s0)
    11ac:	9a043423          	sd	zero,-1624(s0)
    11b0:	9a043823          	sd	zero,-1616(s0)
    11b4:	9a043c23          	sd	zero,-1608(s0)
    11b8:	9c043023          	sd	zero,-1600(s0)
    11bc:	9c043423          	sd	zero,-1592(s0)
    11c0:	9c043823          	sd	zero,-1584(s0)
    11c4:	9c043c23          	sd	zero,-1576(s0)
    11c8:	9e043023          	sd	zero,-1568(s0)
    11cc:	9e043423          	sd	zero,-1560(s0)
    11d0:	9e043823          	sd	zero,-1552(s0)
    11d4:	9e043c23          	sd	zero,-1544(s0)
    11d8:	a0043023          	sd	zero,-1536(s0)
    11dc:	a0043423          	sd	zero,-1528(s0)
    11e0:	a0043823          	sd	zero,-1520(s0)
    11e4:	a0043c23          	sd	zero,-1512(s0)
    11e8:	a2043023          	sd	zero,-1504(s0)
    11ec:	a2043423          	sd	zero,-1496(s0)
    11f0:	a2043823          	sd	zero,-1488(s0)
    11f4:	a2043c23          	sd	zero,-1480(s0)
    11f8:	a4043023          	sd	zero,-1472(s0)
    11fc:	a4043423          	sd	zero,-1464(s0)
    1200:	a4043823          	sd	zero,-1456(s0)
    1204:	a4043c23          	sd	zero,-1448(s0)
    1208:	a6043023          	sd	zero,-1440(s0)
    120c:	a6043423          	sd	zero,-1432(s0)
    1210:	a6043823          	sd	zero,-1424(s0)
    1214:	a6043c23          	sd	zero,-1416(s0)
    1218:	a8043023          	sd	zero,-1408(s0)
    121c:	aa043023          	sd	zero,-1376(s0)
    1220:	a8043c23          	sd	zero,-1384(s0)
    1224:	a8043823          	sd	zero,-1392(s0)
    1228:	a8043423          	sd	zero,-1400(s0)
    122c:	aa043423          	sd	zero,-1368(s0)
    1230:	aa043823          	sd	zero,-1360(s0)
    1234:	aa043c23          	sd	zero,-1352(s0)
    1238:	ac043023          	sd	zero,-1344(s0)
    123c:	ac043423          	sd	zero,-1336(s0)
    1240:	ac043823          	sd	zero,-1328(s0)
    1244:	ac043c23          	sd	zero,-1320(s0)
    1248:	ae043023          	sd	zero,-1312(s0)
    124c:	ae043423          	sd	zero,-1304(s0)
    1250:	ae043823          	sd	zero,-1296(s0)
    1254:	ae043c23          	sd	zero,-1288(s0)
    1258:	b0043023          	sd	zero,-1280(s0)
    125c:	b0043423          	sd	zero,-1272(s0)
    1260:	b0043823          	sd	zero,-1264(s0)
    1264:	b0043c23          	sd	zero,-1256(s0)
    1268:	b2043023          	sd	zero,-1248(s0)
    126c:	b2043423          	sd	zero,-1240(s0)
    1270:	b2043823          	sd	zero,-1232(s0)
    1274:	b2043c23          	sd	zero,-1224(s0)
    1278:	b4043023          	sd	zero,-1216(s0)
    127c:	b4043423          	sd	zero,-1208(s0)
    1280:	b4043823          	sd	zero,-1200(s0)
    1284:	b4043c23          	sd	zero,-1192(s0)
    1288:	b6043023          	sd	zero,-1184(s0)
    128c:	b6043423          	sd	zero,-1176(s0)
    1290:	b6043823          	sd	zero,-1168(s0)
    1294:	b6043c23          	sd	zero,-1160(s0)
    1298:	b8043023          	sd	zero,-1152(s0)
    129c:	ba043023          	sd	zero,-1120(s0)
    12a0:	b8043c23          	sd	zero,-1128(s0)
    12a4:	b8043823          	sd	zero,-1136(s0)
    12a8:	b8043423          	sd	zero,-1144(s0)
    12ac:	ba043423          	sd	zero,-1112(s0)
    12b0:	ba043823          	sd	zero,-1104(s0)
    12b4:	ba043c23          	sd	zero,-1096(s0)
    12b8:	bc043023          	sd	zero,-1088(s0)
    12bc:	bc043423          	sd	zero,-1080(s0)
    12c0:	bc043823          	sd	zero,-1072(s0)
    12c4:	bc043c23          	sd	zero,-1064(s0)
    12c8:	be043023          	sd	zero,-1056(s0)
    12cc:	be043423          	sd	zero,-1048(s0)
    12d0:	be043823          	sd	zero,-1040(s0)
    12d4:	be043c23          	sd	zero,-1032(s0)
    12d8:	c0043023          	sd	zero,-1024(s0)
    12dc:	c0043423          	sd	zero,-1016(s0)
    12e0:	c0043823          	sd	zero,-1008(s0)
    12e4:	c0043c23          	sd	zero,-1000(s0)
    12e8:	c2043023          	sd	zero,-992(s0)
    12ec:	c2043423          	sd	zero,-984(s0)
    12f0:	c2043823          	sd	zero,-976(s0)
    12f4:	c2043c23          	sd	zero,-968(s0)
    12f8:	c4043023          	sd	zero,-960(s0)
    12fc:	c4043423          	sd	zero,-952(s0)
    1300:	c4043823          	sd	zero,-944(s0)
    1304:	c4043c23          	sd	zero,-936(s0)
    1308:	c6043023          	sd	zero,-928(s0)
    130c:	c6043423          	sd	zero,-920(s0)
    1310:	c6043823          	sd	zero,-912(s0)
    1314:	c6043c23          	sd	zero,-904(s0)
    1318:	c8043023          	sd	zero,-896(s0)
    131c:	ca043023          	sd	zero,-864(s0)
    1320:	c8043c23          	sd	zero,-872(s0)
    1324:	c8043823          	sd	zero,-880(s0)
    1328:	c8043423          	sd	zero,-888(s0)
    132c:	ca043423          	sd	zero,-856(s0)
    1330:	ca043823          	sd	zero,-848(s0)
    1334:	ca043c23          	sd	zero,-840(s0)
    1338:	cc043023          	sd	zero,-832(s0)
    133c:	cc043423          	sd	zero,-824(s0)
    1340:	cc043823          	sd	zero,-816(s0)
    1344:	cc043c23          	sd	zero,-808(s0)
    1348:	ce043023          	sd	zero,-800(s0)
    134c:	ce043423          	sd	zero,-792(s0)
    1350:	ce043823          	sd	zero,-784(s0)
    1354:	ce043c23          	sd	zero,-776(s0)
    1358:	d0043023          	sd	zero,-768(s0)
    135c:	d0043423          	sd	zero,-760(s0)
    1360:	d0043823          	sd	zero,-752(s0)
    1364:	d0043c23          	sd	zero,-744(s0)
    1368:	d2043023          	sd	zero,-736(s0)
    136c:	d2043423          	sd	zero,-728(s0)
    1370:	d2043823          	sd	zero,-720(s0)
    1374:	d2043c23          	sd	zero,-712(s0)
    1378:	d4043023          	sd	zero,-704(s0)
    137c:	d4043423          	sd	zero,-696(s0)
    1380:	d4043823          	sd	zero,-688(s0)
    1384:	d4043c23          	sd	zero,-680(s0)
    1388:	d6043023          	sd	zero,-672(s0)
    138c:	d6043423          	sd	zero,-664(s0)
    1390:	d6043823          	sd	zero,-656(s0)
    1394:	d6043c23          	sd	zero,-648(s0)
    1398:	d8043023          	sd	zero,-640(s0)
    139c:	da043023          	sd	zero,-608(s0)
    13a0:	d8043c23          	sd	zero,-616(s0)
    13a4:	d8043823          	sd	zero,-624(s0)
    13a8:	d8043423          	sd	zero,-632(s0)
    13ac:	da043423          	sd	zero,-600(s0)
    13b0:	da043823          	sd	zero,-592(s0)
    13b4:	da043c23          	sd	zero,-584(s0)
    13b8:	dc043023          	sd	zero,-576(s0)
    13bc:	dc043423          	sd	zero,-568(s0)
    13c0:	dc043823          	sd	zero,-560(s0)
    13c4:	00000093          	li	ra,0
    13c8:	00000d93          	li	s11,0
    13cc:	00000d13          	li	s10,0
    13d0:	00000c93          	li	s9,0
    13d4:	00000c13          	li	s8,0
    13d8:	00000b93          	li	s7,0
    13dc:	00000b13          	li	s6,0
    13e0:	00000a93          	li	s5,0
    13e4:	00000a13          	li	s4,0
    13e8:	00000993          	li	s3,0
    13ec:	00000713          	li	a4,0
    13f0:	00000693          	li	a3,0
    13f4:	00000613          	li	a2,0
    13f8:	00000593          	li	a1,0
    13fc:	00000513          	li	a0,0
    1400:	00000e13          	li	t3,0
    1404:	00000393          	li	t2,0
    1408:	00000313          	li	t1,0
    140c:	00000293          	li	t0,0
    1410:	00000813          	li	a6,0
    1414:	e4043823          	sd	zero,-432(s0)
    1418:	00000893          	li	a7,0

000000000000141c <.LBB69_5>:
    141c:	f9e43023          	sd	t5,-128(s0)
    1420:	f9d43423          	sd	t4,-120(s0)
    1424:	00001fb7          	lui	t6,0x1
    1428:	41f40fb3          	sub	t6,s0,t6
    142c:	68ffb023          	sd	a5,1664(t6) # 1680 <.LBB69_5+0x264>
    1430:	dc143c23          	sd	ra,-552(s0)
    1434:	dfb43023          	sd	s11,-544(s0)
    1438:	dfa43423          	sd	s10,-536(s0)
    143c:	df943823          	sd	s9,-528(s0)
    1440:	df843c23          	sd	s8,-520(s0)
    1444:	e1743023          	sd	s7,-512(s0)
    1448:	e1643423          	sd	s6,-504(s0)
    144c:	e1543823          	sd	s5,-496(s0)
    1450:	e1443c23          	sd	s4,-488(s0)
    1454:	e3343023          	sd	s3,-480(s0)
    1458:	f0e43823          	sd	a4,-240(s0)
    145c:	f0d43c23          	sd	a3,-232(s0)
    1460:	f2c43023          	sd	a2,-224(s0)
    1464:	f2b43423          	sd	a1,-216(s0)
    1468:	f2a43823          	sd	a0,-208(s0)
    146c:	e3c43423          	sd	t3,-472(s0)
    1470:	e2743823          	sd	t2,-464(s0)
    1474:	e2643c23          	sd	t1,-456(s0)
    1478:	e4543023          	sd	t0,-448(s0)
    147c:	e5043423          	sd	a6,-440(s0)
    1480:	e5143c23          	sd	a7,-424(s0)
    1484:	a00f0503          	lb	a0,-1536(t5)
    1488:	002e8603          	lb	a2,2(t4)
    148c:	f4c43423          	sd	a2,-184(s0)
    1490:	001e8683          	lb	a3,1(t4)
    1494:	f4d43023          	sd	a3,-192(s0)
    1498:	000e8703          	lb	a4,0(t4)
    149c:	003e8783          	lb	a5,3(t4)
    14a0:	f2f43c23          	sd	a5,-200(s0)
    14a4:	004e8803          	lb	a6,4(t4)
    14a8:	f7043c23          	sd	a6,-136(s0)
    14ac:	005e8983          	lb	s3,5(t4)
    14b0:	f7343823          	sd	s3,-144(s0)
    14b4:	006e8a03          	lb	s4,6(t4)
    14b8:	007e8d83          	lb	s11,7(t4)
    14bc:	edb43c23          	sd	s11,-296(s0)
    14c0:	008e8083          	lb	ra,8(t4)
    14c4:	009e8883          	lb	a7,9(t4)
    14c8:	000015b7          	lui	a1,0x1
    14cc:	40b405b3          	sub	a1,s0,a1
    14d0:	6715bc23          	sd	a7,1656(a1) # 1678 <.LBB69_5+0x25c>
    14d4:	00ae8283          	lb	t0,10(t4)
    14d8:	e8543423          	sd	t0,-376(s0)
    14dc:	00be8c83          	lb	s9,11(t4)
    14e0:	ef943823          	sd	s9,-272(s0)
    14e4:	00ce8b03          	lb	s6,12(t4)
    14e8:	f5643c23          	sd	s6,-168(s0)
    14ec:	00de8483          	lb	s1,13(t4)
    14f0:	f0943023          	sd	s1,-256(s0)
    14f4:	00ee8303          	lb	t1,14(t4)
    14f8:	00fe8d03          	lb	s10,15(t4)
    14fc:	eba43c23          	sd	s10,-328(s0)
    1500:	010e8e03          	lb	t3,16(t4)
    1504:	011e8f83          	lb	t6,17(t4)
    1508:	012e8f03          	lb	t5,18(t4)
    150c:	013e8383          	lb	t2,19(t4)
    1510:	f8843583          	ld	a1,-120(s0)
    1514:	01458a83          	lb	s5,20(a1)
    1518:	f1543423          	sd	s5,-248(s0)
    151c:	f8843583          	ld	a1,-120(s0)
    1520:	01558e83          	lb	t4,21(a1)
    1524:	f8843583          	ld	a1,-120(s0)
    1528:	01658b83          	lb	s7,22(a1)
    152c:	ed743423          	sd	s7,-312(s0)
    1530:	f8843583          	ld	a1,-120(s0)
    1534:	01758903          	lb	s2,23(a1)
    1538:	ed243823          	sd	s2,-304(s0)
    153c:	f8843583          	ld	a1,-120(s0)
    1540:	01858c03          	lb	s8,24(a1)
    1544:	f7843023          	sd	s8,-160(s0)
    1548:	02c505b3          	mul	a1,a0,a2
    154c:	00001637          	lui	a2,0x1
    1550:	40c40633          	sub	a2,s0,a2
    1554:	6a063603          	ld	a2,1696(a2) # 16a0 <.LBB69_5+0x284>
    1558:	00c58633          	add	a2,a1,a2
    155c:	000015b7          	lui	a1,0x1
    1560:	40b405b3          	sub	a1,s0,a1
    1564:	6ac5b023          	sd	a2,1696(a1) # 16a0 <.LBB69_5+0x284>
    1568:	02d505b3          	mul	a1,a0,a3
    156c:	00001637          	lui	a2,0x1
    1570:	40c40633          	sub	a2,s0,a2
    1574:	6b863603          	ld	a2,1720(a2) # 16b8 <.LBB69_5+0x29c>
    1578:	00c58633          	add	a2,a1,a2
    157c:	000015b7          	lui	a1,0x1
    1580:	40b405b3          	sub	a1,s0,a1
    1584:	6ac5bc23          	sd	a2,1720(a1) # 16b8 <.LBB69_5+0x29c>
    1588:	02e505b3          	mul	a1,a0,a4
    158c:	00070693          	mv	a3,a4
    1590:	00001637          	lui	a2,0x1
    1594:	40c40633          	sub	a2,s0,a2
    1598:	6c063603          	ld	a2,1728(a2) # 16c0 <.LBB69_5+0x2a4>
    159c:	00c58633          	add	a2,a1,a2
    15a0:	000015b7          	lui	a1,0x1
    15a4:	40b405b3          	sub	a1,s0,a1
    15a8:	6cc5b023          	sd	a2,1728(a1) # 16c0 <.LBB69_5+0x2a4>
    15ac:	02f505b3          	mul	a1,a0,a5
    15b0:	00001637          	lui	a2,0x1
    15b4:	40c40633          	sub	a2,s0,a2
    15b8:	6a863603          	ld	a2,1704(a2) # 16a8 <.LBB69_5+0x28c>
    15bc:	00c58633          	add	a2,a1,a2
    15c0:	000015b7          	lui	a1,0x1
    15c4:	40b405b3          	sub	a1,s0,a1
    15c8:	6ac5b423          	sd	a2,1704(a1) # 16a8 <.LBB69_5+0x28c>
    15cc:	030505b3          	mul	a1,a0,a6
    15d0:	00001637          	lui	a2,0x1
    15d4:	40c40633          	sub	a2,s0,a2
    15d8:	6c863603          	ld	a2,1736(a2) # 16c8 <.LBB69_5+0x2ac>
    15dc:	00c58633          	add	a2,a1,a2
    15e0:	000015b7          	lui	a1,0x1
    15e4:	40b405b3          	sub	a1,s0,a1
    15e8:	6cc5b423          	sd	a2,1736(a1) # 16c8 <.LBB69_5+0x2ac>
    15ec:	033505b3          	mul	a1,a0,s3
    15f0:	00001637          	lui	a2,0x1
    15f4:	40c40633          	sub	a2,s0,a2
    15f8:	6b063603          	ld	a2,1712(a2) # 16b0 <.LBB69_5+0x294>
    15fc:	00c58633          	add	a2,a1,a2
    1600:	000015b7          	lui	a1,0x1
    1604:	40b405b3          	sub	a1,s0,a1
    1608:	6ac5b823          	sd	a2,1712(a1) # 16b0 <.LBB69_5+0x294>
    160c:	034505b3          	mul	a1,a0,s4
    1610:	000a0713          	mv	a4,s4
    1614:	00001637          	lui	a2,0x1
    1618:	40c40633          	sub	a2,s0,a2
    161c:	69863603          	ld	a2,1688(a2) # 1698 <.LBB69_5+0x27c>
    1620:	00c58633          	add	a2,a1,a2
    1624:	000015b7          	lui	a1,0x1
    1628:	40b405b3          	sub	a1,s0,a1
    162c:	68c5bc23          	sd	a2,1688(a1) # 1698 <.LBB69_5+0x27c>
    1630:	03b505b3          	mul	a1,a0,s11
    1634:	00001637          	lui	a2,0x1
    1638:	40c40633          	sub	a2,s0,a2
    163c:	69063603          	ld	a2,1680(a2) # 1690 <.LBB69_5+0x274>
    1640:	00c58633          	add	a2,a1,a2
    1644:	000015b7          	lui	a1,0x1
    1648:	40b405b3          	sub	a1,s0,a1
    164c:	68c5b823          	sd	a2,1680(a1) # 1690 <.LBB69_5+0x274>
    1650:	021505b3          	mul	a1,a0,ra
    1654:	00001637          	lui	a2,0x1
    1658:	40c40633          	sub	a2,s0,a2
    165c:	68863603          	ld	a2,1672(a2) # 1688 <.LBB69_5+0x26c>
    1660:	00c58633          	add	a2,a1,a2
    1664:	000015b7          	lui	a1,0x1
    1668:	40b405b3          	sub	a1,s0,a1
    166c:	68c5b423          	sd	a2,1672(a1) # 1688 <.LBB69_5+0x26c>
    1670:	031505b3          	mul	a1,a0,a7
    1674:	00001637          	lui	a2,0x1
    1678:	40c40633          	sub	a2,s0,a2
    167c:	6d063603          	ld	a2,1744(a2) # 16d0 <.LBB69_5+0x2b4>
    1680:	00c58633          	add	a2,a1,a2
    1684:	000015b7          	lui	a1,0x1
    1688:	40b405b3          	sub	a1,s0,a1
    168c:	6cc5b823          	sd	a2,1744(a1) # 16d0 <.LBB69_5+0x2b4>
    1690:	025505b3          	mul	a1,a0,t0
    1694:	00001637          	lui	a2,0x1
    1698:	40c40633          	sub	a2,s0,a2
    169c:	6d863603          	ld	a2,1752(a2) # 16d8 <.LBB69_5+0x2bc>
    16a0:	00c58633          	add	a2,a1,a2
    16a4:	000015b7          	lui	a1,0x1
    16a8:	40b405b3          	sub	a1,s0,a1
    16ac:	6cc5bc23          	sd	a2,1752(a1) # 16d8 <.LBB69_5+0x2bc>
    16b0:	039505b3          	mul	a1,a0,s9
    16b4:	00001637          	lui	a2,0x1
    16b8:	40c40633          	sub	a2,s0,a2
    16bc:	6e063603          	ld	a2,1760(a2) # 16e0 <.LBB69_5+0x2c4>
    16c0:	00c58633          	add	a2,a1,a2
    16c4:	000015b7          	lui	a1,0x1
    16c8:	40b405b3          	sub	a1,s0,a1
    16cc:	6ec5b023          	sd	a2,1760(a1) # 16e0 <.LBB69_5+0x2c4>
    16d0:	036505b3          	mul	a1,a0,s6
    16d4:	00001637          	lui	a2,0x1
    16d8:	40c40633          	sub	a2,s0,a2
    16dc:	6e863603          	ld	a2,1768(a2) # 16e8 <.LBB69_5+0x2cc>
    16e0:	00c58633          	add	a2,a1,a2
    16e4:	000015b7          	lui	a1,0x1
    16e8:	40b405b3          	sub	a1,s0,a1
    16ec:	6ec5b423          	sd	a2,1768(a1) # 16e8 <.LBB69_5+0x2cc>
    16f0:	029505b3          	mul	a1,a0,s1
    16f4:	00001637          	lui	a2,0x1
    16f8:	40c40633          	sub	a2,s0,a2
    16fc:	6f063603          	ld	a2,1776(a2) # 16f0 <.LBB69_5+0x2d4>
    1700:	00c58633          	add	a2,a1,a2
    1704:	000015b7          	lui	a1,0x1
    1708:	40b405b3          	sub	a1,s0,a1
    170c:	6ec5b823          	sd	a2,1776(a1) # 16f0 <.LBB69_5+0x2d4>
    1710:	026505b3          	mul	a1,a0,t1
    1714:	00030493          	mv	s1,t1
    1718:	e6643423          	sd	t1,-408(s0)
    171c:	00001637          	lui	a2,0x1
    1720:	40c40633          	sub	a2,s0,a2
    1724:	6f863603          	ld	a2,1784(a2) # 16f8 <.LBB69_5+0x2dc>
    1728:	00c58633          	add	a2,a1,a2
    172c:	000015b7          	lui	a1,0x1
    1730:	40b405b3          	sub	a1,s0,a1
    1734:	6ec5bc23          	sd	a2,1784(a1) # 16f8 <.LBB69_5+0x2dc>
    1738:	03a505b3          	mul	a1,a0,s10
    173c:	00001637          	lui	a2,0x1
    1740:	40c40633          	sub	a2,s0,a2
    1744:	70063603          	ld	a2,1792(a2) # 1700 <.LBB69_5+0x2e4>
    1748:	00c58633          	add	a2,a1,a2
    174c:	000015b7          	lui	a1,0x1
    1750:	40b405b3          	sub	a1,s0,a1
    1754:	70c5b023          	sd	a2,1792(a1) # 1700 <.LBB69_5+0x2e4>
    1758:	03c505b3          	mul	a1,a0,t3
    175c:	000e0313          	mv	t1,t3
    1760:	e9c43823          	sd	t3,-368(s0)
    1764:	00001637          	lui	a2,0x1
    1768:	40c40633          	sub	a2,s0,a2
    176c:	70863603          	ld	a2,1800(a2) # 1708 <.LBB69_5+0x2ec>
    1770:	00c58633          	add	a2,a1,a2
    1774:	000015b7          	lui	a1,0x1
    1778:	40b405b3          	sub	a1,s0,a1
    177c:	70c5b423          	sd	a2,1800(a1) # 1708 <.LBB69_5+0x2ec>
    1780:	03f505b3          	mul	a1,a0,t6
    1784:	000f8d13          	mv	s10,t6
    1788:	00001637          	lui	a2,0x1
    178c:	40c40633          	sub	a2,s0,a2
    1790:	71063603          	ld	a2,1808(a2) # 1710 <.LBB69_5+0x2f4>
    1794:	00c58633          	add	a2,a1,a2
    1798:	000015b7          	lui	a1,0x1
    179c:	40b405b3          	sub	a1,s0,a1
    17a0:	70c5b823          	sd	a2,1808(a1) # 1710 <.LBB69_5+0x2f4>
    17a4:	03e505b3          	mul	a1,a0,t5
    17a8:	00001637          	lui	a2,0x1
    17ac:	40c40633          	sub	a2,s0,a2
    17b0:	71863603          	ld	a2,1816(a2) # 1718 <.LBB69_5+0x2fc>
    17b4:	00c58633          	add	a2,a1,a2
    17b8:	000015b7          	lui	a1,0x1
    17bc:	40b405b3          	sub	a1,s0,a1
    17c0:	70c5bc23          	sd	a2,1816(a1) # 1718 <.LBB69_5+0x2fc>
    17c4:	027505b3          	mul	a1,a0,t2
    17c8:	00001637          	lui	a2,0x1
    17cc:	40c40633          	sub	a2,s0,a2
    17d0:	72063603          	ld	a2,1824(a2) # 1720 <.LBB69_5+0x304>
    17d4:	00c58633          	add	a2,a1,a2
    17d8:	000015b7          	lui	a1,0x1
    17dc:	40b405b3          	sub	a1,s0,a1
    17e0:	72c5b023          	sd	a2,1824(a1) # 1720 <.LBB69_5+0x304>
    17e4:	035505b3          	mul	a1,a0,s5
    17e8:	00001637          	lui	a2,0x1
    17ec:	40c40633          	sub	a2,s0,a2
    17f0:	72863603          	ld	a2,1832(a2) # 1728 <.LBB69_5+0x30c>
    17f4:	00c58633          	add	a2,a1,a2
    17f8:	000015b7          	lui	a1,0x1
    17fc:	40b405b3          	sub	a1,s0,a1
    1800:	72c5b423          	sd	a2,1832(a1) # 1728 <.LBB69_5+0x30c>
    1804:	03d505b3          	mul	a1,a0,t4
    1808:	00001637          	lui	a2,0x1
    180c:	40c40633          	sub	a2,s0,a2
    1810:	73063603          	ld	a2,1840(a2) # 1730 <.LBB69_5+0x314>
    1814:	00c58633          	add	a2,a1,a2
    1818:	000015b7          	lui	a1,0x1
    181c:	40b405b3          	sub	a1,s0,a1
    1820:	72c5b823          	sd	a2,1840(a1) # 1730 <.LBB69_5+0x314>
    1824:	037505b3          	mul	a1,a0,s7
    1828:	00001637          	lui	a2,0x1
    182c:	40c40633          	sub	a2,s0,a2
    1830:	73863603          	ld	a2,1848(a2) # 1738 <.LBB69_5+0x31c>
    1834:	00c58633          	add	a2,a1,a2
    1838:	000015b7          	lui	a1,0x1
    183c:	40b405b3          	sub	a1,s0,a1
    1840:	72c5bc23          	sd	a2,1848(a1) # 1738 <.LBB69_5+0x31c>
    1844:	032505b3          	mul	a1,a0,s2
    1848:	00001637          	lui	a2,0x1
    184c:	40c40633          	sub	a2,s0,a2
    1850:	74063603          	ld	a2,1856(a2) # 1740 <.LBB69_5+0x324>
    1854:	00c58633          	add	a2,a1,a2
    1858:	000015b7          	lui	a1,0x1
    185c:	40b405b3          	sub	a1,s0,a1
    1860:	74c5b023          	sd	a2,1856(a1) # 1740 <.LBB69_5+0x324>
    1864:	f8843583          	ld	a1,-120(s0)
    1868:	01958803          	lb	a6,25(a1)
    186c:	038505b3          	mul	a1,a0,s8
    1870:	00001637          	lui	a2,0x1
    1874:	40c40633          	sub	a2,s0,a2
    1878:	74863603          	ld	a2,1864(a2) # 1748 <.LBB69_5+0x32c>
    187c:	00c58633          	add	a2,a1,a2
    1880:	000015b7          	lui	a1,0x1
    1884:	40b405b3          	sub	a1,s0,a1
    1888:	74c5b423          	sd	a2,1864(a1) # 1748 <.LBB69_5+0x32c>
    188c:	f8843583          	ld	a1,-120(s0)
    1890:	01a58783          	lb	a5,26(a1)
    1894:	f4f43823          	sd	a5,-176(s0)
    1898:	030505b3          	mul	a1,a0,a6
    189c:	00001637          	lui	a2,0x1
    18a0:	40c40633          	sub	a2,s0,a2
    18a4:	75063603          	ld	a2,1872(a2) # 1750 <.LBB69_5+0x334>
    18a8:	00c58633          	add	a2,a1,a2
    18ac:	000015b7          	lui	a1,0x1
    18b0:	40b405b3          	sub	a1,s0,a1
    18b4:	74c5b823          	sd	a2,1872(a1) # 1750 <.LBB69_5+0x334>
    18b8:	f8843583          	ld	a1,-120(s0)
    18bc:	01b58883          	lb	a7,27(a1)
    18c0:	f7143423          	sd	a7,-152(s0)
    18c4:	02f505b3          	mul	a1,a0,a5
    18c8:	00001637          	lui	a2,0x1
    18cc:	40c40633          	sub	a2,s0,a2
    18d0:	75863603          	ld	a2,1880(a2) # 1758 <.LBB69_5+0x33c>
    18d4:	00c58633          	add	a2,a1,a2
    18d8:	000015b7          	lui	a1,0x1
    18dc:	40b405b3          	sub	a1,s0,a1
    18e0:	74c5bc23          	sd	a2,1880(a1) # 1758 <.LBB69_5+0x33c>
    18e4:	f8843583          	ld	a1,-120(s0)
    18e8:	01c58283          	lb	t0,28(a1)
    18ec:	031505b3          	mul	a1,a0,a7
    18f0:	00001637          	lui	a2,0x1
    18f4:	40c40633          	sub	a2,s0,a2
    18f8:	76063603          	ld	a2,1888(a2) # 1760 <.LBB69_5+0x344>
    18fc:	00c58633          	add	a2,a1,a2
    1900:	000015b7          	lui	a1,0x1
    1904:	40b405b3          	sub	a1,s0,a1
    1908:	76c5b023          	sd	a2,1888(a1) # 1760 <.LBB69_5+0x344>
    190c:	f8843583          	ld	a1,-120(s0)
    1910:	01d58783          	lb	a5,29(a1)
    1914:	ecf43023          	sd	a5,-320(s0)
    1918:	025505b3          	mul	a1,a0,t0
    191c:	00001637          	lui	a2,0x1
    1920:	40c40633          	sub	a2,s0,a2
    1924:	76863603          	ld	a2,1896(a2) # 1768 <.LBB69_5+0x34c>
    1928:	00c58633          	add	a2,a1,a2
    192c:	000015b7          	lui	a1,0x1
    1930:	40b405b3          	sub	a1,s0,a1
    1934:	76c5b423          	sd	a2,1896(a1) # 1768 <.LBB69_5+0x34c>
    1938:	f8843583          	ld	a1,-120(s0)
    193c:	01e58883          	lb	a7,30(a1)
    1940:	eb143423          	sd	a7,-344(s0)
    1944:	02f505b3          	mul	a1,a0,a5
    1948:	00001637          	lui	a2,0x1
    194c:	40c40633          	sub	a2,s0,a2
    1950:	77063603          	ld	a2,1904(a2) # 1770 <.LBB69_5+0x354>
    1954:	00c58633          	add	a2,a1,a2
    1958:	000015b7          	lui	a1,0x1
    195c:	40b405b3          	sub	a1,s0,a1
    1960:	76c5b823          	sd	a2,1904(a1) # 1770 <.LBB69_5+0x354>
    1964:	f8843583          	ld	a1,-120(s0)
    1968:	01f58a83          	lb	s5,31(a1)
    196c:	f8043603          	ld	a2,-128(s0)
    1970:	b8060983          	lb	s3,-1152(a2)
    1974:	03150db3          	mul	s11,a0,a7
    1978:	000015b7          	lui	a1,0x1
    197c:	40b405b3          	sub	a1,s0,a1
    1980:	7785b603          	ld	a2,1912(a1) # 1778 <.LBB69_5+0x35c>
    1984:	00cd8633          	add	a2,s11,a2
    1988:	000015b7          	lui	a1,0x1
    198c:	40b405b3          	sub	a1,s0,a1
    1990:	76c5bc23          	sd	a2,1912(a1) # 1778 <.LBB69_5+0x35c>
    1994:	03550533          	mul	a0,a0,s5
    1998:	e7543823          	sd	s5,-400(s0)
    199c:	000015b7          	lui	a1,0x1
    19a0:	40b405b3          	sub	a1,s0,a1
    19a4:	7805b603          	ld	a2,1920(a1) # 1780 <.LBB69_5+0x364>
    19a8:	00c50633          	add	a2,a0,a2
    19ac:	00001537          	lui	a0,0x1
    19b0:	40a40533          	sub	a0,s0,a0
    19b4:	78c53023          	sd	a2,1920(a0) # 1780 <.LBB69_5+0x364>
    19b8:	00068793          	mv	a5,a3
    19bc:	02d98533          	mul	a0,s3,a3
    19c0:	000015b7          	lui	a1,0x1
    19c4:	40b405b3          	sub	a1,s0,a1
    19c8:	7a05b603          	ld	a2,1952(a1) # 17a0 <.LBB69_5+0x384>
    19cc:	00c50633          	add	a2,a0,a2
    19d0:	00001537          	lui	a0,0x1
    19d4:	40a40533          	sub	a0,s0,a0
    19d8:	7ac53023          	sd	a2,1952(a0) # 17a0 <.LBB69_5+0x384>
    19dc:	f4043683          	ld	a3,-192(s0)
    19e0:	02d98533          	mul	a0,s3,a3
    19e4:	000015b7          	lui	a1,0x1
    19e8:	40b405b3          	sub	a1,s0,a1
    19ec:	7985b603          	ld	a2,1944(a1) # 1798 <.LBB69_5+0x37c>
    19f0:	00c50633          	add	a2,a0,a2
    19f4:	00001537          	lui	a0,0x1
    19f8:	40a40533          	sub	a0,s0,a0
    19fc:	78c53c23          	sd	a2,1944(a0) # 1798 <.LBB69_5+0x37c>
    1a00:	f4843883          	ld	a7,-184(s0)
    1a04:	03198533          	mul	a0,s3,a7
    1a08:	000015b7          	lui	a1,0x1
    1a0c:	40b405b3          	sub	a1,s0,a1
    1a10:	7905b603          	ld	a2,1936(a1) # 1790 <.LBB69_5+0x374>
    1a14:	00c50633          	add	a2,a0,a2
    1a18:	00001537          	lui	a0,0x1
    1a1c:	40a40533          	sub	a0,s0,a0
    1a20:	78c53823          	sd	a2,1936(a0) # 1790 <.LBB69_5+0x374>
    1a24:	f3843c83          	ld	s9,-200(s0)
    1a28:	03998533          	mul	a0,s3,s9
    1a2c:	000015b7          	lui	a1,0x1
    1a30:	40b405b3          	sub	a1,s0,a1
    1a34:	7885b603          	ld	a2,1928(a1) # 1788 <.LBB69_5+0x36c>
    1a38:	00c50633          	add	a2,a0,a2
    1a3c:	00001537          	lui	a0,0x1
    1a40:	40a40533          	sub	a0,s0,a0
    1a44:	78c53423          	sd	a2,1928(a0) # 1788 <.LBB69_5+0x36c>
    1a48:	f7843e03          	ld	t3,-136(s0)
    1a4c:	03c98533          	mul	a0,s3,t3
    1a50:	000015b7          	lui	a1,0x1
    1a54:	40b405b3          	sub	a1,s0,a1
    1a58:	7a85b603          	ld	a2,1960(a1) # 17a8 <.LBB69_5+0x38c>
    1a5c:	00c50633          	add	a2,a0,a2
    1a60:	00001537          	lui	a0,0x1
    1a64:	40a40533          	sub	a0,s0,a0
    1a68:	7ac53423          	sd	a2,1960(a0) # 17a8 <.LBB69_5+0x38c>
    1a6c:	f7043a03          	ld	s4,-144(s0)
    1a70:	03498533          	mul	a0,s3,s4
    1a74:	000015b7          	lui	a1,0x1
    1a78:	40b405b3          	sub	a1,s0,a1
    1a7c:	7b05b603          	ld	a2,1968(a1) # 17b0 <.LBB69_5+0x394>
    1a80:	00c50633          	add	a2,a0,a2
    1a84:	00001537          	lui	a0,0x1
    1a88:	40a40533          	sub	a0,s0,a0
    1a8c:	7ac53823          	sd	a2,1968(a0) # 17b0 <.LBB69_5+0x394>
    1a90:	02e98533          	mul	a0,s3,a4
    1a94:	00070c13          	mv	s8,a4
    1a98:	eae43823          	sd	a4,-336(s0)
    1a9c:	000015b7          	lui	a1,0x1
    1aa0:	40b405b3          	sub	a1,s0,a1
    1aa4:	7b85b603          	ld	a2,1976(a1) # 17b8 <.LBB69_5+0x39c>
    1aa8:	00c50633          	add	a2,a0,a2
    1aac:	00001537          	lui	a0,0x1
    1ab0:	40a40533          	sub	a0,s0,a0
    1ab4:	7ac53c23          	sd	a2,1976(a0) # 17b8 <.LBB69_5+0x39c>
    1ab8:	ed843703          	ld	a4,-296(s0)
    1abc:	02e98533          	mul	a0,s3,a4
    1ac0:	000015b7          	lui	a1,0x1
    1ac4:	40b405b3          	sub	a1,s0,a1
    1ac8:	7c05b603          	ld	a2,1984(a1) # 17c0 <.LBB69_5+0x3a4>
    1acc:	00c50633          	add	a2,a0,a2
    1ad0:	00001537          	lui	a0,0x1
    1ad4:	40a40533          	sub	a0,s0,a0
    1ad8:	7cc53023          	sd	a2,1984(a0) # 17c0 <.LBB69_5+0x3a4>
    1adc:	02198533          	mul	a0,s3,ra
    1ae0:	000015b7          	lui	a1,0x1
    1ae4:	40b405b3          	sub	a1,s0,a1
    1ae8:	7c85b603          	ld	a2,1992(a1) # 17c8 <.LBB69_5+0x3ac>
    1aec:	00c50633          	add	a2,a0,a2
    1af0:	00001537          	lui	a0,0x1
    1af4:	40a40533          	sub	a0,s0,a0
    1af8:	7cc53423          	sd	a2,1992(a0) # 17c8 <.LBB69_5+0x3ac>
    1afc:	00001537          	lui	a0,0x1
    1b00:	40a40533          	sub	a0,s0,a0
    1b04:	67853b03          	ld	s6,1656(a0) # 1678 <.LBB69_5+0x25c>
    1b08:	03698533          	mul	a0,s3,s6
    1b0c:	000015b7          	lui	a1,0x1
    1b10:	40b405b3          	sub	a1,s0,a1
    1b14:	7d05b603          	ld	a2,2000(a1) # 17d0 <.LBB69_5+0x3b4>
    1b18:	00c50633          	add	a2,a0,a2
    1b1c:	00001537          	lui	a0,0x1
    1b20:	40a40533          	sub	a0,s0,a0
    1b24:	7cc53823          	sd	a2,2000(a0) # 17d0 <.LBB69_5+0x3b4>
    1b28:	e8843b83          	ld	s7,-376(s0)
    1b2c:	03798533          	mul	a0,s3,s7
    1b30:	000015b7          	lui	a1,0x1
    1b34:	40b405b3          	sub	a1,s0,a1
    1b38:	7d85b603          	ld	a2,2008(a1) # 17d8 <.LBB69_5+0x3bc>
    1b3c:	00c50633          	add	a2,a0,a2
    1b40:	00001537          	lui	a0,0x1
    1b44:	40a40533          	sub	a0,s0,a0
    1b48:	7cc53c23          	sd	a2,2008(a0) # 17d8 <.LBB69_5+0x3bc>
    1b4c:	ef043503          	ld	a0,-272(s0)
    1b50:	02a98533          	mul	a0,s3,a0
    1b54:	000015b7          	lui	a1,0x1
    1b58:	40b405b3          	sub	a1,s0,a1
    1b5c:	7e05b603          	ld	a2,2016(a1) # 17e0 <.LBB69_5+0x3c4>
    1b60:	00c50633          	add	a2,a0,a2
    1b64:	00001537          	lui	a0,0x1
    1b68:	40a40533          	sub	a0,s0,a0
    1b6c:	7ec53023          	sd	a2,2016(a0) # 17e0 <.LBB69_5+0x3c4>
    1b70:	f5843503          	ld	a0,-168(s0)
    1b74:	02a98533          	mul	a0,s3,a0
    1b78:	000015b7          	lui	a1,0x1
    1b7c:	40b405b3          	sub	a1,s0,a1
    1b80:	7e85b603          	ld	a2,2024(a1) # 17e8 <.LBB69_5+0x3cc>
    1b84:	00c50633          	add	a2,a0,a2
    1b88:	00001537          	lui	a0,0x1
    1b8c:	40a40533          	sub	a0,s0,a0
    1b90:	7ec53423          	sd	a2,2024(a0) # 17e8 <.LBB69_5+0x3cc>
    1b94:	f0043503          	ld	a0,-256(s0)
    1b98:	02a98533          	mul	a0,s3,a0
    1b9c:	000015b7          	lui	a1,0x1
    1ba0:	40b405b3          	sub	a1,s0,a1
    1ba4:	7f05b603          	ld	a2,2032(a1) # 17f0 <.LBB69_5+0x3d4>
    1ba8:	00c50633          	add	a2,a0,a2
    1bac:	00001537          	lui	a0,0x1
    1bb0:	40a40533          	sub	a0,s0,a0
    1bb4:	7ec53823          	sd	a2,2032(a0) # 17f0 <.LBB69_5+0x3d4>
    1bb8:	02998533          	mul	a0,s3,s1
    1bbc:	000015b7          	lui	a1,0x1
    1bc0:	40b405b3          	sub	a1,s0,a1
    1bc4:	7f85b603          	ld	a2,2040(a1) # 17f8 <.LBB69_5+0x3dc>
    1bc8:	00c50633          	add	a2,a0,a2
    1bcc:	00001537          	lui	a0,0x1
    1bd0:	40a40533          	sub	a0,s0,a0
    1bd4:	7ec53c23          	sd	a2,2040(a0) # 17f8 <.LBB69_5+0x3dc>
    1bd8:	eb843483          	ld	s1,-328(s0)
    1bdc:	02998533          	mul	a0,s3,s1
    1be0:	80043603          	ld	a2,-2048(s0)
    1be4:	00c50633          	add	a2,a0,a2
    1be8:	80c43023          	sd	a2,-2048(s0)
    1bec:	02698533          	mul	a0,s3,t1
    1bf0:	80843603          	ld	a2,-2040(s0)
    1bf4:	00c50633          	add	a2,a0,a2
    1bf8:	80c43423          	sd	a2,-2040(s0)
    1bfc:	000f8913          	mv	s2,t6
    1c00:	eff43023          	sd	t6,-288(s0)
    1c04:	03f98533          	mul	a0,s3,t6
    1c08:	81043603          	ld	a2,-2032(s0)
    1c0c:	00c50633          	add	a2,a0,a2
    1c10:	80c43823          	sd	a2,-2032(s0)
    1c14:	03e98533          	mul	a0,s3,t5
    1c18:	000f0d13          	mv	s10,t5
    1c1c:	efe43423          	sd	t5,-280(s0)
    1c20:	81843603          	ld	a2,-2024(s0)
    1c24:	00c50633          	add	a2,a0,a2
    1c28:	80c43c23          	sd	a2,-2024(s0)
    1c2c:	ee743c23          	sd	t2,-264(s0)
    1c30:	02798533          	mul	a0,s3,t2
    1c34:	82043603          	ld	a2,-2016(s0)
    1c38:	00c50633          	add	a2,a0,a2
    1c3c:	82c43023          	sd	a2,-2016(s0)
    1c40:	f0843503          	ld	a0,-248(s0)
    1c44:	02a98533          	mul	a0,s3,a0
    1c48:	82843603          	ld	a2,-2008(s0)
    1c4c:	00c50633          	add	a2,a0,a2
    1c50:	82c43423          	sd	a2,-2008(s0)
    1c54:	000e8f13          	mv	t5,t4
    1c58:	03d98533          	mul	a0,s3,t4
    1c5c:	83043603          	ld	a2,-2000(s0)
    1c60:	00c50633          	add	a2,a0,a2
    1c64:	82c43823          	sd	a2,-2000(s0)
    1c68:	ec843303          	ld	t1,-312(s0)
    1c6c:	02698533          	mul	a0,s3,t1
    1c70:	83843603          	ld	a2,-1992(s0)
    1c74:	00c50633          	add	a2,a0,a2
    1c78:	82c43c23          	sd	a2,-1992(s0)
    1c7c:	ed043583          	ld	a1,-304(s0)
    1c80:	02b98533          	mul	a0,s3,a1
    1c84:	84043603          	ld	a2,-1984(s0)
    1c88:	00c50633          	add	a2,a0,a2
    1c8c:	84c43023          	sd	a2,-1984(s0)
    1c90:	f6043503          	ld	a0,-160(s0)
    1c94:	02a98533          	mul	a0,s3,a0
    1c98:	84843603          	ld	a2,-1976(s0)
    1c9c:	00c50633          	add	a2,a0,a2
    1ca0:	84c43423          	sd	a2,-1976(s0)
    1ca4:	03098533          	mul	a0,s3,a6
    1ca8:	85043603          	ld	a2,-1968(s0)
    1cac:	00c50633          	add	a2,a0,a2
    1cb0:	84c43823          	sd	a2,-1968(s0)
    1cb4:	f5043503          	ld	a0,-176(s0)
    1cb8:	02a98533          	mul	a0,s3,a0
    1cbc:	85843603          	ld	a2,-1960(s0)
    1cc0:	00c50633          	add	a2,a0,a2
    1cc4:	84c43c23          	sd	a2,-1960(s0)
    1cc8:	f6843503          	ld	a0,-152(s0)
    1ccc:	02a98533          	mul	a0,s3,a0
    1cd0:	86043603          	ld	a2,-1952(s0)
    1cd4:	00c50633          	add	a2,a0,a2
    1cd8:	86c43023          	sd	a2,-1952(s0)
    1cdc:	02598533          	mul	a0,s3,t0
    1ce0:	e6543c23          	sd	t0,-392(s0)
    1ce4:	86843603          	ld	a2,-1944(s0)
    1ce8:	00c50633          	add	a2,a0,a2
    1cec:	86c43423          	sd	a2,-1944(s0)
    1cf0:	ec043f83          	ld	t6,-320(s0)
    1cf4:	03f98533          	mul	a0,s3,t6
    1cf8:	87043603          	ld	a2,-1936(s0)
    1cfc:	00c50633          	add	a2,a0,a2
    1d00:	86c43823          	sd	a2,-1936(s0)
    1d04:	f8043503          	ld	a0,-128(s0)
    1d08:	d0050503          	lb	a0,-768(a0)
    1d0c:	ea843e83          	ld	t4,-344(s0)
    1d10:	03d98db3          	mul	s11,s3,t4
    1d14:	87843603          	ld	a2,-1928(s0)
    1d18:	00cd8633          	add	a2,s11,a2
    1d1c:	86c43c23          	sd	a2,-1928(s0)
    1d20:	035989b3          	mul	s3,s3,s5
    1d24:	88043603          	ld	a2,-1920(s0)
    1d28:	00c98633          	add	a2,s3,a2
    1d2c:	88c43023          	sd	a2,-1920(s0)
    1d30:	02f509b3          	mul	s3,a0,a5
    1d34:	e8f43023          	sd	a5,-384(s0)
    1d38:	8a043603          	ld	a2,-1888(s0)
    1d3c:	00c98633          	add	a2,s3,a2
    1d40:	8ac43023          	sd	a2,-1888(s0)
    1d44:	02d509b3          	mul	s3,a0,a3
    1d48:	89843603          	ld	a2,-1896(s0)
    1d4c:	00c98633          	add	a2,s3,a2
    1d50:	88c43c23          	sd	a2,-1896(s0)
    1d54:	031509b3          	mul	s3,a0,a7
    1d58:	89043603          	ld	a2,-1904(s0)
    1d5c:	00c98633          	add	a2,s3,a2
    1d60:	88c43823          	sd	a2,-1904(s0)
    1d64:	039509b3          	mul	s3,a0,s9
    1d68:	88843603          	ld	a2,-1912(s0)
    1d6c:	00c98633          	add	a2,s3,a2
    1d70:	88c43423          	sd	a2,-1912(s0)
    1d74:	03c509b3          	mul	s3,a0,t3
    1d78:	8a843603          	ld	a2,-1880(s0)
    1d7c:	00c98633          	add	a2,s3,a2
    1d80:	8ac43423          	sd	a2,-1880(s0)
    1d84:	034509b3          	mul	s3,a0,s4
    1d88:	8b043603          	ld	a2,-1872(s0)
    1d8c:	00c98633          	add	a2,s3,a2
    1d90:	8ac43823          	sd	a2,-1872(s0)
    1d94:	038509b3          	mul	s3,a0,s8
    1d98:	8b843603          	ld	a2,-1864(s0)
    1d9c:	00c98633          	add	a2,s3,a2
    1da0:	8ac43c23          	sd	a2,-1864(s0)
    1da4:	02e509b3          	mul	s3,a0,a4
    1da8:	00070e13          	mv	t3,a4
    1dac:	8c043603          	ld	a2,-1856(s0)
    1db0:	00c98633          	add	a2,s3,a2
    1db4:	8cc43023          	sd	a2,-1856(s0)
    1db8:	021509b3          	mul	s3,a0,ra
    1dbc:	00008a13          	mv	s4,ra
    1dc0:	8c843603          	ld	a2,-1848(s0)
    1dc4:	00c98633          	add	a2,s3,a2
    1dc8:	8cc43423          	sd	a2,-1848(s0)
    1dcc:	000b0c93          	mv	s9,s6
    1dd0:	036509b3          	mul	s3,a0,s6
    1dd4:	8d043603          	ld	a2,-1840(s0)
    1dd8:	00c98633          	add	a2,s3,a2
    1ddc:	8cc43823          	sd	a2,-1840(s0)
    1de0:	000b8c13          	mv	s8,s7
    1de4:	037509b3          	mul	s3,a0,s7
    1de8:	8d843603          	ld	a2,-1832(s0)
    1dec:	00c98633          	add	a2,s3,a2
    1df0:	8cc43c23          	sd	a2,-1832(s0)
    1df4:	ef043b83          	ld	s7,-272(s0)
    1df8:	037509b3          	mul	s3,a0,s7
    1dfc:	8e043603          	ld	a2,-1824(s0)
    1e00:	00c98633          	add	a2,s3,a2
    1e04:	8ec43023          	sd	a2,-1824(s0)
    1e08:	f5843b03          	ld	s6,-168(s0)
    1e0c:	036509b3          	mul	s3,a0,s6
    1e10:	8e843603          	ld	a2,-1816(s0)
    1e14:	00c98633          	add	a2,s3,a2
    1e18:	8ec43423          	sd	a2,-1816(s0)
    1e1c:	f0043a83          	ld	s5,-256(s0)
    1e20:	035509b3          	mul	s3,a0,s5
    1e24:	8f043603          	ld	a2,-1808(s0)
    1e28:	00c98633          	add	a2,s3,a2
    1e2c:	8ec43823          	sd	a2,-1808(s0)
    1e30:	e6843883          	ld	a7,-408(s0)
    1e34:	031509b3          	mul	s3,a0,a7
    1e38:	8f843603          	ld	a2,-1800(s0)
    1e3c:	00c98633          	add	a2,s3,a2
    1e40:	8ec43c23          	sd	a2,-1800(s0)
    1e44:	029509b3          	mul	s3,a0,s1
    1e48:	90043603          	ld	a2,-1792(s0)
    1e4c:	00c98633          	add	a2,s3,a2
    1e50:	90c43023          	sd	a2,-1792(s0)
    1e54:	e9043603          	ld	a2,-368(s0)
    1e58:	02c509b3          	mul	s3,a0,a2
    1e5c:	90843603          	ld	a2,-1784(s0)
    1e60:	00c98633          	add	a2,s3,a2
    1e64:	90c43423          	sd	a2,-1784(s0)
    1e68:	032509b3          	mul	s3,a0,s2
    1e6c:	91043603          	ld	a2,-1776(s0)
    1e70:	00c98633          	add	a2,s3,a2
    1e74:	90c43823          	sd	a2,-1776(s0)
    1e78:	03a509b3          	mul	s3,a0,s10
    1e7c:	91843603          	ld	a2,-1768(s0)
    1e80:	00c98633          	add	a2,s3,a2
    1e84:	90c43c23          	sd	a2,-1768(s0)
    1e88:	027509b3          	mul	s3,a0,t2
    1e8c:	92043603          	ld	a2,-1760(s0)
    1e90:	00c98633          	add	a2,s3,a2
    1e94:	92c43023          	sd	a2,-1760(s0)
    1e98:	f0843683          	ld	a3,-248(s0)
    1e9c:	02d509b3          	mul	s3,a0,a3
    1ea0:	92843603          	ld	a2,-1752(s0)
    1ea4:	00c98633          	add	a2,s3,a2
    1ea8:	92c43423          	sd	a2,-1752(s0)
    1eac:	03e509b3          	mul	s3,a0,t5
    1eb0:	000f0913          	mv	s2,t5
    1eb4:	ebe43023          	sd	t5,-352(s0)
    1eb8:	93043603          	ld	a2,-1744(s0)
    1ebc:	00c98633          	add	a2,s3,a2
    1ec0:	92c43823          	sd	a2,-1744(s0)
    1ec4:	026509b3          	mul	s3,a0,t1
    1ec8:	00030493          	mv	s1,t1
    1ecc:	93843603          	ld	a2,-1736(s0)
    1ed0:	00c98633          	add	a2,s3,a2
    1ed4:	92c43c23          	sd	a2,-1736(s0)
    1ed8:	02b509b3          	mul	s3,a0,a1
    1edc:	94043603          	ld	a2,-1728(s0)
    1ee0:	00c98633          	add	a2,s3,a2
    1ee4:	94c43023          	sd	a2,-1728(s0)
    1ee8:	f6043583          	ld	a1,-160(s0)
    1eec:	02b509b3          	mul	s3,a0,a1
    1ef0:	94843603          	ld	a2,-1720(s0)
    1ef4:	00c98633          	add	a2,s3,a2
    1ef8:	94c43423          	sd	a2,-1720(s0)
    1efc:	030509b3          	mul	s3,a0,a6
    1f00:	00080f13          	mv	t5,a6
    1f04:	95043603          	ld	a2,-1712(s0)
    1f08:	00c98633          	add	a2,s3,a2
    1f0c:	94c43823          	sd	a2,-1712(s0)
    1f10:	f5043803          	ld	a6,-176(s0)
    1f14:	030509b3          	mul	s3,a0,a6
    1f18:	95843603          	ld	a2,-1704(s0)
    1f1c:	00c98633          	add	a2,s3,a2
    1f20:	94c43c23          	sd	a2,-1704(s0)
    1f24:	f6843603          	ld	a2,-152(s0)
    1f28:	02c509b3          	mul	s3,a0,a2
    1f2c:	96043603          	ld	a2,-1696(s0)
    1f30:	00c98633          	add	a2,s3,a2
    1f34:	96c43023          	sd	a2,-1696(s0)
    1f38:	025509b3          	mul	s3,a0,t0
    1f3c:	96843603          	ld	a2,-1688(s0)
    1f40:	00c98633          	add	a2,s3,a2
    1f44:	96c43423          	sd	a2,-1688(s0)
    1f48:	03f509b3          	mul	s3,a0,t6
    1f4c:	97043603          	ld	a2,-1680(s0)
    1f50:	00c98633          	add	a2,s3,a2
    1f54:	96c43823          	sd	a2,-1680(s0)
    1f58:	f8043603          	ld	a2,-128(s0)
    1f5c:	e8060983          	lb	s3,-384(a2)
    1f60:	03d50db3          	mul	s11,a0,t4
    1f64:	97843603          	ld	a2,-1672(s0)
    1f68:	00cd8633          	add	a2,s11,a2
    1f6c:	96c43c23          	sd	a2,-1672(s0)
    1f70:	e7043e83          	ld	t4,-400(s0)
    1f74:	03d50533          	mul	a0,a0,t4
    1f78:	98043603          	ld	a2,-1664(s0)
    1f7c:	00c50633          	add	a2,a0,a2
    1f80:	98c43023          	sd	a2,-1664(s0)
    1f84:	02f98533          	mul	a0,s3,a5
    1f88:	9a043603          	ld	a2,-1632(s0)
    1f8c:	00c50633          	add	a2,a0,a2
    1f90:	9ac43023          	sd	a2,-1632(s0)
    1f94:	f4043783          	ld	a5,-192(s0)
    1f98:	02f98533          	mul	a0,s3,a5
    1f9c:	99843603          	ld	a2,-1640(s0)
    1fa0:	00c50633          	add	a2,a0,a2
    1fa4:	98c43c23          	sd	a2,-1640(s0)
    1fa8:	f4843283          	ld	t0,-184(s0)
    1fac:	02598533          	mul	a0,s3,t0
    1fb0:	99043603          	ld	a2,-1648(s0)
    1fb4:	00c50633          	add	a2,a0,a2
    1fb8:	98c43823          	sd	a2,-1648(s0)
    1fbc:	f3843703          	ld	a4,-200(s0)
    1fc0:	02e98533          	mul	a0,s3,a4
    1fc4:	98843603          	ld	a2,-1656(s0)
    1fc8:	00c50633          	add	a2,a0,a2
    1fcc:	98c43423          	sd	a2,-1656(s0)
    1fd0:	f7843503          	ld	a0,-136(s0)
    1fd4:	02a98533          	mul	a0,s3,a0
    1fd8:	9a843603          	ld	a2,-1624(s0)
    1fdc:	00c50633          	add	a2,a0,a2
    1fe0:	9ac43423          	sd	a2,-1624(s0)
    1fe4:	f7043503          	ld	a0,-144(s0)
    1fe8:	02a98533          	mul	a0,s3,a0
    1fec:	9b043603          	ld	a2,-1616(s0)
    1ff0:	00c50633          	add	a2,a0,a2
    1ff4:	9ac43823          	sd	a2,-1616(s0)
    1ff8:	eb043f83          	ld	t6,-336(s0)
    1ffc:	03f98533          	mul	a0,s3,t6
    2000:	9b843603          	ld	a2,-1608(s0)
    2004:	00c50633          	add	a2,a0,a2
    2008:	9ac43c23          	sd	a2,-1608(s0)
    200c:	03c98533          	mul	a0,s3,t3
    2010:	000e0093          	mv	ra,t3
    2014:	9c043603          	ld	a2,-1600(s0)
    2018:	00c50633          	add	a2,a0,a2
    201c:	9cc43023          	sd	a2,-1600(s0)
    2020:	03498533          	mul	a0,s3,s4
    2024:	000a0d13          	mv	s10,s4
    2028:	e9443c23          	sd	s4,-360(s0)
    202c:	9c843603          	ld	a2,-1592(s0)
    2030:	00c50633          	add	a2,a0,a2
    2034:	9cc43423          	sd	a2,-1592(s0)
    2038:	03998533          	mul	a0,s3,s9
    203c:	9d043603          	ld	a2,-1584(s0)
    2040:	00c50633          	add	a2,a0,a2
    2044:	9cc43823          	sd	a2,-1584(s0)
    2048:	03898533          	mul	a0,s3,s8
    204c:	9d843603          	ld	a2,-1576(s0)
    2050:	00c50633          	add	a2,a0,a2
    2054:	9cc43c23          	sd	a2,-1576(s0)
    2058:	03798533          	mul	a0,s3,s7
    205c:	9e043603          	ld	a2,-1568(s0)
    2060:	00c50633          	add	a2,a0,a2
    2064:	9ec43023          	sd	a2,-1568(s0)
    2068:	03698533          	mul	a0,s3,s6
    206c:	9e843603          	ld	a2,-1560(s0)
    2070:	00c50633          	add	a2,a0,a2
    2074:	9ec43423          	sd	a2,-1560(s0)
    2078:	03598533          	mul	a0,s3,s5
    207c:	9f043603          	ld	a2,-1552(s0)
    2080:	00c50633          	add	a2,a0,a2
    2084:	9ec43823          	sd	a2,-1552(s0)
    2088:	03198533          	mul	a0,s3,a7
    208c:	00088b13          	mv	s6,a7
    2090:	9f843603          	ld	a2,-1544(s0)
    2094:	00c50633          	add	a2,a0,a2
    2098:	9ec43c23          	sd	a2,-1544(s0)
    209c:	eb843303          	ld	t1,-328(s0)
    20a0:	02698533          	mul	a0,s3,t1
    20a4:	a0043603          	ld	a2,-1536(s0)
    20a8:	00c50633          	add	a2,a0,a2
    20ac:	a0c43023          	sd	a2,-1536(s0)
    20b0:	e9043883          	ld	a7,-368(s0)
    20b4:	03198533          	mul	a0,s3,a7
    20b8:	a0843603          	ld	a2,-1528(s0)
    20bc:	00c50633          	add	a2,a0,a2
    20c0:	a0c43423          	sd	a2,-1528(s0)
    20c4:	ee043383          	ld	t2,-288(s0)
    20c8:	02798533          	mul	a0,s3,t2
    20cc:	a1043603          	ld	a2,-1520(s0)
    20d0:	00c50633          	add	a2,a0,a2
    20d4:	a0c43823          	sd	a2,-1520(s0)
    20d8:	ee843e03          	ld	t3,-280(s0)
    20dc:	03c98533          	mul	a0,s3,t3
    20e0:	a1843603          	ld	a2,-1512(s0)
    20e4:	00c50633          	add	a2,a0,a2
    20e8:	a0c43c23          	sd	a2,-1512(s0)
    20ec:	ef843503          	ld	a0,-264(s0)
    20f0:	02a98533          	mul	a0,s3,a0
    20f4:	a2043603          	ld	a2,-1504(s0)
    20f8:	00c50633          	add	a2,a0,a2
    20fc:	a2c43023          	sd	a2,-1504(s0)
    2100:	02d98533          	mul	a0,s3,a3
    2104:	00068a93          	mv	s5,a3
    2108:	a2843603          	ld	a2,-1496(s0)
    210c:	00c50633          	add	a2,a0,a2
    2110:	a2c43423          	sd	a2,-1496(s0)
    2114:	03298533          	mul	a0,s3,s2
    2118:	a3043603          	ld	a2,-1488(s0)
    211c:	00c50633          	add	a2,a0,a2
    2120:	a2c43823          	sd	a2,-1488(s0)
    2124:	02998533          	mul	a0,s3,s1
    2128:	a3843603          	ld	a2,-1480(s0)
    212c:	00c50633          	add	a2,a0,a2
    2130:	a2c43c23          	sd	a2,-1480(s0)
    2134:	ed043a03          	ld	s4,-304(s0)
    2138:	03498533          	mul	a0,s3,s4
    213c:	a4043603          	ld	a2,-1472(s0)
    2140:	00c50633          	add	a2,a0,a2
    2144:	a4c43023          	sd	a2,-1472(s0)
    2148:	02b98533          	mul	a0,s3,a1
    214c:	a4843603          	ld	a2,-1464(s0)
    2150:	00c50633          	add	a2,a0,a2
    2154:	a4c43423          	sd	a2,-1464(s0)
    2158:	03e98533          	mul	a0,s3,t5
    215c:	000f0493          	mv	s1,t5
    2160:	a5043603          	ld	a2,-1456(s0)
    2164:	00c50633          	add	a2,a0,a2
    2168:	a4c43823          	sd	a2,-1456(s0)
    216c:	03098533          	mul	a0,s3,a6
    2170:	a5843603          	ld	a2,-1448(s0)
    2174:	00c50633          	add	a2,a0,a2
    2178:	a4c43c23          	sd	a2,-1448(s0)
    217c:	f6843503          	ld	a0,-152(s0)
    2180:	02a98533          	mul	a0,s3,a0
    2184:	a6043603          	ld	a2,-1440(s0)
    2188:	00c50633          	add	a2,a0,a2
    218c:	a6c43023          	sd	a2,-1440(s0)
    2190:	e7843803          	ld	a6,-392(s0)
    2194:	03098533          	mul	a0,s3,a6
    2198:	a6843603          	ld	a2,-1432(s0)
    219c:	00c50633          	add	a2,a0,a2
    21a0:	a6c43423          	sd	a2,-1432(s0)
    21a4:	ec043f03          	ld	t5,-320(s0)
    21a8:	03e98533          	mul	a0,s3,t5
    21ac:	a7043603          	ld	a2,-1424(s0)
    21b0:	00c50633          	add	a2,a0,a2
    21b4:	a6c43823          	sd	a2,-1424(s0)
    21b8:	f8043503          	ld	a0,-128(s0)
    21bc:	00050503          	lb	a0,0(a0)
    21c0:	ea843683          	ld	a3,-344(s0)
    21c4:	02d98db3          	mul	s11,s3,a3
    21c8:	a7843603          	ld	a2,-1416(s0)
    21cc:	00cd8633          	add	a2,s11,a2
    21d0:	a6c43c23          	sd	a2,-1416(s0)
    21d4:	03d989b3          	mul	s3,s3,t4
    21d8:	a8043603          	ld	a2,-1408(s0)
    21dc:	00c98633          	add	a2,s3,a2
    21e0:	a8c43023          	sd	a2,-1408(s0)
    21e4:	e8043903          	ld	s2,-384(s0)
    21e8:	032509b3          	mul	s3,a0,s2
    21ec:	aa043603          	ld	a2,-1376(s0)
    21f0:	00c98633          	add	a2,s3,a2
    21f4:	aac43023          	sd	a2,-1376(s0)
    21f8:	02f509b3          	mul	s3,a0,a5
    21fc:	a9843603          	ld	a2,-1384(s0)
    2200:	00c98633          	add	a2,s3,a2
    2204:	a8c43c23          	sd	a2,-1384(s0)
    2208:	025509b3          	mul	s3,a0,t0
    220c:	a9043603          	ld	a2,-1392(s0)
    2210:	00c98633          	add	a2,s3,a2
    2214:	a8c43823          	sd	a2,-1392(s0)
    2218:	02e509b3          	mul	s3,a0,a4
    221c:	a8843603          	ld	a2,-1400(s0)
    2220:	00c98633          	add	a2,s3,a2
    2224:	a8c43423          	sd	a2,-1400(s0)
    2228:	f7843783          	ld	a5,-136(s0)
    222c:	02f509b3          	mul	s3,a0,a5
    2230:	aa843603          	ld	a2,-1368(s0)
    2234:	00c98633          	add	a2,s3,a2
    2238:	aac43423          	sd	a2,-1368(s0)
    223c:	f7043583          	ld	a1,-144(s0)
    2240:	02b509b3          	mul	s3,a0,a1
    2244:	ab043603          	ld	a2,-1360(s0)
    2248:	00c98633          	add	a2,s3,a2
    224c:	aac43823          	sd	a2,-1360(s0)
    2250:	03f509b3          	mul	s3,a0,t6
    2254:	ab843603          	ld	a2,-1352(s0)
    2258:	00c98633          	add	a2,s3,a2
    225c:	aac43c23          	sd	a2,-1352(s0)
    2260:	00008713          	mv	a4,ra
    2264:	021509b3          	mul	s3,a0,ra
    2268:	ac043603          	ld	a2,-1344(s0)
    226c:	00c98633          	add	a2,s3,a2
    2270:	acc43023          	sd	a2,-1344(s0)
    2274:	03a509b3          	mul	s3,a0,s10
    2278:	ac843603          	ld	a2,-1336(s0)
    227c:	00c98633          	add	a2,s3,a2
    2280:	acc43423          	sd	a2,-1336(s0)
    2284:	039509b3          	mul	s3,a0,s9
    2288:	ad043603          	ld	a2,-1328(s0)
    228c:	00c98633          	add	a2,s3,a2
    2290:	acc43823          	sd	a2,-1328(s0)
    2294:	038509b3          	mul	s3,a0,s8
    2298:	ad843603          	ld	a2,-1320(s0)
    229c:	00c98633          	add	a2,s3,a2
    22a0:	acc43c23          	sd	a2,-1320(s0)
    22a4:	037509b3          	mul	s3,a0,s7
    22a8:	ae043603          	ld	a2,-1312(s0)
    22ac:	00c98633          	add	a2,s3,a2
    22b0:	aec43023          	sd	a2,-1312(s0)
    22b4:	f5843f83          	ld	t6,-168(s0)
    22b8:	03f509b3          	mul	s3,a0,t6
    22bc:	ae843603          	ld	a2,-1304(s0)
    22c0:	00c98633          	add	a2,s3,a2
    22c4:	aec43423          	sd	a2,-1304(s0)
    22c8:	f0043083          	ld	ra,-256(s0)
    22cc:	021509b3          	mul	s3,a0,ra
    22d0:	af043603          	ld	a2,-1296(s0)
    22d4:	00c98633          	add	a2,s3,a2
    22d8:	aec43823          	sd	a2,-1296(s0)
    22dc:	036509b3          	mul	s3,a0,s6
    22e0:	af843603          	ld	a2,-1288(s0)
    22e4:	00c98633          	add	a2,s3,a2
    22e8:	aec43c23          	sd	a2,-1288(s0)
    22ec:	026509b3          	mul	s3,a0,t1
    22f0:	b0043603          	ld	a2,-1280(s0)
    22f4:	00c98633          	add	a2,s3,a2
    22f8:	b0c43023          	sd	a2,-1280(s0)
    22fc:	00088313          	mv	t1,a7
    2300:	031509b3          	mul	s3,a0,a7
    2304:	b0843603          	ld	a2,-1272(s0)
    2308:	00c98633          	add	a2,s3,a2
    230c:	b0c43423          	sd	a2,-1272(s0)
    2310:	027509b3          	mul	s3,a0,t2
    2314:	b1043603          	ld	a2,-1264(s0)
    2318:	00c98633          	add	a2,s3,a2
    231c:	b0c43823          	sd	a2,-1264(s0)
    2320:	03c509b3          	mul	s3,a0,t3
    2324:	b1843603          	ld	a2,-1256(s0)
    2328:	00c98633          	add	a2,s3,a2
    232c:	b0c43c23          	sd	a2,-1256(s0)
    2330:	ef843e03          	ld	t3,-264(s0)
    2334:	03c509b3          	mul	s3,a0,t3
    2338:	b2043603          	ld	a2,-1248(s0)
    233c:	00c98633          	add	a2,s3,a2
    2340:	b2c43023          	sd	a2,-1248(s0)
    2344:	035509b3          	mul	s3,a0,s5
    2348:	b2843603          	ld	a2,-1240(s0)
    234c:	00c98633          	add	a2,s3,a2
    2350:	b2c43423          	sd	a2,-1240(s0)
    2354:	ea043603          	ld	a2,-352(s0)
    2358:	02c509b3          	mul	s3,a0,a2
    235c:	b3043603          	ld	a2,-1232(s0)
    2360:	00c98633          	add	a2,s3,a2
    2364:	b2c43823          	sd	a2,-1232(s0)
    2368:	ec843b03          	ld	s6,-312(s0)
    236c:	036509b3          	mul	s3,a0,s6
    2370:	b3843603          	ld	a2,-1224(s0)
    2374:	00c98633          	add	a2,s3,a2
    2378:	b2c43c23          	sd	a2,-1224(s0)
    237c:	034509b3          	mul	s3,a0,s4
    2380:	b4043603          	ld	a2,-1216(s0)
    2384:	00c98633          	add	a2,s3,a2
    2388:	b4c43023          	sd	a2,-1216(s0)
    238c:	f6043a03          	ld	s4,-160(s0)
    2390:	034509b3          	mul	s3,a0,s4
    2394:	b4843603          	ld	a2,-1208(s0)
    2398:	00c98633          	add	a2,s3,a2
    239c:	b4c43423          	sd	a2,-1208(s0)
    23a0:	029509b3          	mul	s3,a0,s1
    23a4:	b5043603          	ld	a2,-1200(s0)
    23a8:	00c98633          	add	a2,s3,a2
    23ac:	b4c43823          	sd	a2,-1200(s0)
    23b0:	f5043d03          	ld	s10,-176(s0)
    23b4:	03a509b3          	mul	s3,a0,s10
    23b8:	b5843603          	ld	a2,-1192(s0)
    23bc:	00c98633          	add	a2,s3,a2
    23c0:	b4c43c23          	sd	a2,-1192(s0)
    23c4:	f6843283          	ld	t0,-152(s0)
    23c8:	025509b3          	mul	s3,a0,t0
    23cc:	b6043603          	ld	a2,-1184(s0)
    23d0:	00c98633          	add	a2,s3,a2
    23d4:	b6c43023          	sd	a2,-1184(s0)
    23d8:	030509b3          	mul	s3,a0,a6
    23dc:	b6843603          	ld	a2,-1176(s0)
    23e0:	00c98633          	add	a2,s3,a2
    23e4:	b6c43423          	sd	a2,-1176(s0)
    23e8:	03e509b3          	mul	s3,a0,t5
    23ec:	b7043603          	ld	a2,-1168(s0)
    23f0:	00c98633          	add	a2,s3,a2
    23f4:	b6c43823          	sd	a2,-1168(s0)
    23f8:	f8043603          	ld	a2,-128(s0)
    23fc:	18060983          	lb	s3,384(a2)
    2400:	02d50db3          	mul	s11,a0,a3
    2404:	b7843603          	ld	a2,-1160(s0)
    2408:	00cd8633          	add	a2,s11,a2
    240c:	b6c43c23          	sd	a2,-1160(s0)
    2410:	000e8893          	mv	a7,t4
    2414:	03d50533          	mul	a0,a0,t4
    2418:	b8043603          	ld	a2,-1152(s0)
    241c:	00c50633          	add	a2,a0,a2
    2420:	b8c43023          	sd	a2,-1152(s0)
    2424:	03298533          	mul	a0,s3,s2
    2428:	00090e93          	mv	t4,s2
    242c:	ba043603          	ld	a2,-1120(s0)
    2430:	00c50633          	add	a2,a0,a2
    2434:	bac43023          	sd	a2,-1120(s0)
    2438:	f4043803          	ld	a6,-192(s0)
    243c:	03098533          	mul	a0,s3,a6
    2440:	b9843603          	ld	a2,-1128(s0)
    2444:	00c50633          	add	a2,a0,a2
    2448:	b8c43c23          	sd	a2,-1128(s0)
    244c:	f4843383          	ld	t2,-184(s0)
    2450:	02798533          	mul	a0,s3,t2
    2454:	b9043603          	ld	a2,-1136(s0)
    2458:	00c50633          	add	a2,a0,a2
    245c:	b8c43823          	sd	a2,-1136(s0)
    2460:	f3843903          	ld	s2,-200(s0)
    2464:	03298533          	mul	a0,s3,s2
    2468:	b8843603          	ld	a2,-1144(s0)
    246c:	00c50633          	add	a2,a0,a2
    2470:	b8c43423          	sd	a2,-1144(s0)
    2474:	02f98533          	mul	a0,s3,a5
    2478:	ba843603          	ld	a2,-1112(s0)
    247c:	00c50633          	add	a2,a0,a2
    2480:	bac43423          	sd	a2,-1112(s0)
    2484:	02b98533          	mul	a0,s3,a1
    2488:	bb043603          	ld	a2,-1104(s0)
    248c:	00c50633          	add	a2,a0,a2
    2490:	bac43823          	sd	a2,-1104(s0)
    2494:	eb043783          	ld	a5,-336(s0)
    2498:	02f98533          	mul	a0,s3,a5
    249c:	bb843603          	ld	a2,-1096(s0)
    24a0:	00c50633          	add	a2,a0,a2
    24a4:	bac43c23          	sd	a2,-1096(s0)
    24a8:	02e98533          	mul	a0,s3,a4
    24ac:	bc043603          	ld	a2,-1088(s0)
    24b0:	00c50633          	add	a2,a0,a2
    24b4:	bcc43023          	sd	a2,-1088(s0)
    24b8:	e9843503          	ld	a0,-360(s0)
    24bc:	02a98533          	mul	a0,s3,a0
    24c0:	bc843603          	ld	a2,-1080(s0)
    24c4:	00c50633          	add	a2,a0,a2
    24c8:	bcc43423          	sd	a2,-1080(s0)
    24cc:	03998533          	mul	a0,s3,s9
    24d0:	bd043603          	ld	a2,-1072(s0)
    24d4:	00c50633          	add	a2,a0,a2
    24d8:	bcc43823          	sd	a2,-1072(s0)
    24dc:	03898533          	mul	a0,s3,s8
    24e0:	bd843603          	ld	a2,-1064(s0)
    24e4:	00c50633          	add	a2,a0,a2
    24e8:	bcc43c23          	sd	a2,-1064(s0)
    24ec:	03798533          	mul	a0,s3,s7
    24f0:	be043603          	ld	a2,-1056(s0)
    24f4:	00c50633          	add	a2,a0,a2
    24f8:	bec43023          	sd	a2,-1056(s0)
    24fc:	000f8693          	mv	a3,t6
    2500:	03f98533          	mul	a0,s3,t6
    2504:	be843603          	ld	a2,-1048(s0)
    2508:	00c50633          	add	a2,a0,a2
    250c:	bec43423          	sd	a2,-1048(s0)
    2510:	00008593          	mv	a1,ra
    2514:	02198533          	mul	a0,s3,ra
    2518:	bf043603          	ld	a2,-1040(s0)
    251c:	00c50633          	add	a2,a0,a2
    2520:	bec43823          	sd	a2,-1040(s0)
    2524:	e6843f83          	ld	t6,-408(s0)
    2528:	03f98533          	mul	a0,s3,t6
    252c:	bf843603          	ld	a2,-1032(s0)
    2530:	00c50633          	add	a2,a0,a2
    2534:	bec43c23          	sd	a2,-1032(s0)
    2538:	eb843c03          	ld	s8,-328(s0)
    253c:	03898533          	mul	a0,s3,s8
    2540:	c0043603          	ld	a2,-1024(s0)
    2544:	00c50633          	add	a2,a0,a2
    2548:	c0c43023          	sd	a2,-1024(s0)
    254c:	02698533          	mul	a0,s3,t1
    2550:	c0843603          	ld	a2,-1016(s0)
    2554:	00c50633          	add	a2,a0,a2
    2558:	c0c43423          	sd	a2,-1016(s0)
    255c:	ee043503          	ld	a0,-288(s0)
    2560:	02a98533          	mul	a0,s3,a0
    2564:	c1043603          	ld	a2,-1008(s0)
    2568:	00c50633          	add	a2,a0,a2
    256c:	c0c43823          	sd	a2,-1008(s0)
    2570:	ee843503          	ld	a0,-280(s0)
    2574:	02a98533          	mul	a0,s3,a0
    2578:	c1843603          	ld	a2,-1000(s0)
    257c:	00c50633          	add	a2,a0,a2
    2580:	c0c43c23          	sd	a2,-1000(s0)
    2584:	03c98533          	mul	a0,s3,t3
    2588:	c2043603          	ld	a2,-992(s0)
    258c:	00c50633          	add	a2,a0,a2
    2590:	c2c43023          	sd	a2,-992(s0)
    2594:	03598533          	mul	a0,s3,s5
    2598:	c2843603          	ld	a2,-984(s0)
    259c:	00c50633          	add	a2,a0,a2
    25a0:	c2c43423          	sd	a2,-984(s0)
    25a4:	ea043a83          	ld	s5,-352(s0)
    25a8:	03598533          	mul	a0,s3,s5
    25ac:	c3043603          	ld	a2,-976(s0)
    25b0:	00c50633          	add	a2,a0,a2
    25b4:	c2c43823          	sd	a2,-976(s0)
    25b8:	03698533          	mul	a0,s3,s6
    25bc:	c3843603          	ld	a2,-968(s0)
    25c0:	00c50633          	add	a2,a0,a2
    25c4:	c2c43c23          	sd	a2,-968(s0)
    25c8:	ed043703          	ld	a4,-304(s0)
    25cc:	02e98533          	mul	a0,s3,a4
    25d0:	c4043603          	ld	a2,-960(s0)
    25d4:	00c50633          	add	a2,a0,a2
    25d8:	c4c43023          	sd	a2,-960(s0)
    25dc:	03498533          	mul	a0,s3,s4
    25e0:	c4843603          	ld	a2,-952(s0)
    25e4:	00c50633          	add	a2,a0,a2
    25e8:	c4c43423          	sd	a2,-952(s0)
    25ec:	02998533          	mul	a0,s3,s1
    25f0:	c5043603          	ld	a2,-944(s0)
    25f4:	00c50633          	add	a2,a0,a2
    25f8:	c4c43823          	sd	a2,-944(s0)
    25fc:	03a98533          	mul	a0,s3,s10
    2600:	c5843603          	ld	a2,-936(s0)
    2604:	00c50633          	add	a2,a0,a2
    2608:	c4c43c23          	sd	a2,-936(s0)
    260c:	02598533          	mul	a0,s3,t0
    2610:	c6043603          	ld	a2,-928(s0)
    2614:	00c50633          	add	a2,a0,a2
    2618:	c6c43023          	sd	a2,-928(s0)
    261c:	e7843283          	ld	t0,-392(s0)
    2620:	02598533          	mul	a0,s3,t0
    2624:	c6843603          	ld	a2,-920(s0)
    2628:	00c50633          	add	a2,a0,a2
    262c:	c6c43423          	sd	a2,-920(s0)
    2630:	03e98533          	mul	a0,s3,t5
    2634:	c7043603          	ld	a2,-912(s0)
    2638:	00c50633          	add	a2,a0,a2
    263c:	c6c43823          	sd	a2,-912(s0)
    2640:	f8043503          	ld	a0,-128(s0)
    2644:	30050503          	lb	a0,768(a0)
    2648:	ea843b03          	ld	s6,-344(s0)
    264c:	03698db3          	mul	s11,s3,s6
    2650:	c7843603          	ld	a2,-904(s0)
    2654:	00cd8633          	add	a2,s11,a2
    2658:	c6c43c23          	sd	a2,-904(s0)
    265c:	031989b3          	mul	s3,s3,a7
    2660:	c8043603          	ld	a2,-896(s0)
    2664:	00c98633          	add	a2,s3,a2
    2668:	c8c43023          	sd	a2,-896(s0)
    266c:	03d509b3          	mul	s3,a0,t4
    2670:	ca043603          	ld	a2,-864(s0)
    2674:	00c98633          	add	a2,s3,a2
    2678:	cac43023          	sd	a2,-864(s0)
    267c:	030509b3          	mul	s3,a0,a6
    2680:	c9843603          	ld	a2,-872(s0)
    2684:	00c98633          	add	a2,s3,a2
    2688:	c8c43c23          	sd	a2,-872(s0)
    268c:	027509b3          	mul	s3,a0,t2
    2690:	c9043603          	ld	a2,-880(s0)
    2694:	00c98633          	add	a2,s3,a2
    2698:	c8c43823          	sd	a2,-880(s0)
    269c:	032509b3          	mul	s3,a0,s2
    26a0:	c8843603          	ld	a2,-888(s0)
    26a4:	00c98633          	add	a2,s3,a2
    26a8:	c8c43423          	sd	a2,-888(s0)
    26ac:	f7843603          	ld	a2,-136(s0)
    26b0:	02c509b3          	mul	s3,a0,a2
    26b4:	ca843603          	ld	a2,-856(s0)
    26b8:	00c98633          	add	a2,s3,a2
    26bc:	cac43423          	sd	a2,-856(s0)
    26c0:	f7043603          	ld	a2,-144(s0)
    26c4:	02c509b3          	mul	s3,a0,a2
    26c8:	cb043603          	ld	a2,-848(s0)
    26cc:	00c98633          	add	a2,s3,a2
    26d0:	cac43823          	sd	a2,-848(s0)
    26d4:	02f509b3          	mul	s3,a0,a5
    26d8:	cb843603          	ld	a2,-840(s0)
    26dc:	00c98633          	add	a2,s3,a2
    26e0:	cac43c23          	sd	a2,-840(s0)
    26e4:	ed843603          	ld	a2,-296(s0)
    26e8:	02c509b3          	mul	s3,a0,a2
    26ec:	cc043603          	ld	a2,-832(s0)
    26f0:	00c98633          	add	a2,s3,a2
    26f4:	ccc43023          	sd	a2,-832(s0)
    26f8:	e9843083          	ld	ra,-360(s0)
    26fc:	021509b3          	mul	s3,a0,ra
    2700:	cc843603          	ld	a2,-824(s0)
    2704:	00c98633          	add	a2,s3,a2
    2708:	ccc43423          	sd	a2,-824(s0)
    270c:	000c8d13          	mv	s10,s9
    2710:	039509b3          	mul	s3,a0,s9
    2714:	cd043603          	ld	a2,-816(s0)
    2718:	00c98633          	add	a2,s3,a2
    271c:	ccc43823          	sd	a2,-816(s0)
    2720:	e8843c83          	ld	s9,-376(s0)
    2724:	039509b3          	mul	s3,a0,s9
    2728:	cd843603          	ld	a2,-808(s0)
    272c:	00c98633          	add	a2,s3,a2
    2730:	ccc43c23          	sd	a2,-808(s0)
    2734:	037509b3          	mul	s3,a0,s7
    2738:	ce043603          	ld	a2,-800(s0)
    273c:	00c98633          	add	a2,s3,a2
    2740:	cec43023          	sd	a2,-800(s0)
    2744:	02d509b3          	mul	s3,a0,a3
    2748:	ce843603          	ld	a2,-792(s0)
    274c:	00c98633          	add	a2,s3,a2
    2750:	cec43423          	sd	a2,-792(s0)
    2754:	02b509b3          	mul	s3,a0,a1
    2758:	00058b93          	mv	s7,a1
    275c:	cf043603          	ld	a2,-784(s0)
    2760:	00c98633          	add	a2,s3,a2
    2764:	cec43823          	sd	a2,-784(s0)
    2768:	000f8a13          	mv	s4,t6
    276c:	03f509b3          	mul	s3,a0,t6
    2770:	cf843603          	ld	a2,-776(s0)
    2774:	00c98633          	add	a2,s3,a2
    2778:	cec43c23          	sd	a2,-776(s0)
    277c:	000c0e13          	mv	t3,s8
    2780:	038509b3          	mul	s3,a0,s8
    2784:	d0043603          	ld	a2,-768(s0)
    2788:	00c98633          	add	a2,s3,a2
    278c:	d0c43023          	sd	a2,-768(s0)
    2790:	00030c13          	mv	s8,t1
    2794:	026509b3          	mul	s3,a0,t1
    2798:	d0843603          	ld	a2,-760(s0)
    279c:	00c98633          	add	a2,s3,a2
    27a0:	d0c43423          	sd	a2,-760(s0)
    27a4:	ee043383          	ld	t2,-288(s0)
    27a8:	027509b3          	mul	s3,a0,t2
    27ac:	d1043603          	ld	a2,-752(s0)
    27b0:	00c98633          	add	a2,s3,a2
    27b4:	d0c43823          	sd	a2,-752(s0)
    27b8:	ee843303          	ld	t1,-280(s0)
    27bc:	026509b3          	mul	s3,a0,t1
    27c0:	d1843603          	ld	a2,-744(s0)
    27c4:	00c98633          	add	a2,s3,a2
    27c8:	d0c43c23          	sd	a2,-744(s0)
    27cc:	ef843883          	ld	a7,-264(s0)
    27d0:	031509b3          	mul	s3,a0,a7
    27d4:	d2043603          	ld	a2,-736(s0)
    27d8:	00c98633          	add	a2,s3,a2
    27dc:	d2c43023          	sd	a2,-736(s0)
    27e0:	f0843803          	ld	a6,-248(s0)
    27e4:	030509b3          	mul	s3,a0,a6
    27e8:	d2843603          	ld	a2,-728(s0)
    27ec:	00c98633          	add	a2,s3,a2
    27f0:	d2c43423          	sd	a2,-728(s0)
    27f4:	000a8793          	mv	a5,s5
    27f8:	035509b3          	mul	s3,a0,s5
    27fc:	d3043603          	ld	a2,-720(s0)
    2800:	00c98633          	add	a2,s3,a2
    2804:	d2c43823          	sd	a2,-720(s0)
    2808:	ec843683          	ld	a3,-312(s0)
    280c:	02d509b3          	mul	s3,a0,a3
    2810:	d3843603          	ld	a2,-712(s0)
    2814:	00c98633          	add	a2,s3,a2
    2818:	d2c43c23          	sd	a2,-712(s0)
    281c:	00070593          	mv	a1,a4
    2820:	02e509b3          	mul	s3,a0,a4
    2824:	d4043603          	ld	a2,-704(s0)
    2828:	00c98633          	add	a2,s3,a2
    282c:	d4c43023          	sd	a2,-704(s0)
    2830:	f6043f03          	ld	t5,-160(s0)
    2834:	03e509b3          	mul	s3,a0,t5
    2838:	d4843603          	ld	a2,-696(s0)
    283c:	00c98633          	add	a2,s3,a2
    2840:	d4c43423          	sd	a2,-696(s0)
    2844:	00048913          	mv	s2,s1
    2848:	029509b3          	mul	s3,a0,s1
    284c:	d5043603          	ld	a2,-688(s0)
    2850:	00c98633          	add	a2,s3,a2
    2854:	d4c43823          	sd	a2,-688(s0)
    2858:	f5043483          	ld	s1,-176(s0)
    285c:	029509b3          	mul	s3,a0,s1
    2860:	d5843603          	ld	a2,-680(s0)
    2864:	00c98633          	add	a2,s3,a2
    2868:	d4c43c23          	sd	a2,-680(s0)
    286c:	f6843a83          	ld	s5,-152(s0)
    2870:	035509b3          	mul	s3,a0,s5
    2874:	d6043603          	ld	a2,-672(s0)
    2878:	00c98633          	add	a2,s3,a2
    287c:	d6c43023          	sd	a2,-672(s0)
    2880:	025509b3          	mul	s3,a0,t0
    2884:	d6843603          	ld	a2,-664(s0)
    2888:	00c98633          	add	a2,s3,a2
    288c:	d6c43423          	sd	a2,-664(s0)
    2890:	ec043f83          	ld	t6,-320(s0)
    2894:	03f509b3          	mul	s3,a0,t6
    2898:	d7043603          	ld	a2,-656(s0)
    289c:	00c98633          	add	a2,s3,a2
    28a0:	d6c43823          	sd	a2,-656(s0)
    28a4:	f8043603          	ld	a2,-128(s0)
    28a8:	48060983          	lb	s3,1152(a2)
    28ac:	03650db3          	mul	s11,a0,s6
    28b0:	d7843603          	ld	a2,-648(s0)
    28b4:	00cd8633          	add	a2,s11,a2
    28b8:	d6c43c23          	sd	a2,-648(s0)
    28bc:	e7043703          	ld	a4,-400(s0)
    28c0:	02e50533          	mul	a0,a0,a4
    28c4:	d8043603          	ld	a2,-640(s0)
    28c8:	00c50633          	add	a2,a0,a2
    28cc:	d8c43023          	sd	a2,-640(s0)
    28d0:	02e98533          	mul	a0,s3,a4
    28d4:	e6a43823          	sd	a0,-400(s0)
    28d8:	03698533          	mul	a0,s3,s6
    28dc:	eaa43423          	sd	a0,-344(s0)
    28e0:	03f98533          	mul	a0,s3,t6
    28e4:	eca43023          	sd	a0,-320(s0)
    28e8:	02598533          	mul	a0,s3,t0
    28ec:	e6a43c23          	sd	a0,-392(s0)
    28f0:	03598533          	mul	a0,s3,s5
    28f4:	00001637          	lui	a2,0x1
    28f8:	40c40633          	sub	a2,s0,a2
    28fc:	66a63823          	sd	a0,1648(a2) # 1670 <.LBB69_5+0x254>
    2900:	02998533          	mul	a0,s3,s1
    2904:	f6a43423          	sd	a0,-152(s0)
    2908:	03298533          	mul	a0,s3,s2
    290c:	f4a43823          	sd	a0,-176(s0)
    2910:	03e98533          	mul	a0,s3,t5
    2914:	f6a43023          	sd	a0,-160(s0)
    2918:	02b98533          	mul	a0,s3,a1
    291c:	eca43823          	sd	a0,-304(s0)
    2920:	02d98933          	mul	s2,s3,a3
    2924:	02f984b3          	mul	s1,s3,a5
    2928:	03098fb3          	mul	t6,s3,a6
    292c:	03198f33          	mul	t5,s3,a7
    2930:	02698eb3          	mul	t4,s3,t1
    2934:	027982b3          	mul	t0,s3,t2
    2938:	03898833          	mul	a6,s3,s8
    293c:	03c983b3          	mul	t2,s3,t3
    2940:	03498a33          	mul	s4,s3,s4
    2944:	03798ab3          	mul	s5,s3,s7
    2948:	f5843503          	ld	a0,-168(s0)
    294c:	02a98b33          	mul	s6,s3,a0
    2950:	ef043503          	ld	a0,-272(s0)
    2954:	02a98bb3          	mul	s7,s3,a0
    2958:	03998c33          	mul	s8,s3,s9
    295c:	03a98cb3          	mul	s9,s3,s10
    2960:	02198d33          	mul	s10,s3,ra
    2964:	ed843503          	ld	a0,-296(s0)
    2968:	02a98db3          	mul	s11,s3,a0
    296c:	eb043503          	ld	a0,-336(s0)
    2970:	02a98733          	mul	a4,s3,a0
    2974:	f7043503          	ld	a0,-144(s0)
    2978:	02a980b3          	mul	ra,s3,a0
    297c:	f7843503          	ld	a0,-136(s0)
    2980:	02a986b3          	mul	a3,s3,a0
    2984:	f3843503          	ld	a0,-200(s0)
    2988:	02a98633          	mul	a2,s3,a0
    298c:	f4843503          	ld	a0,-184(s0)
    2990:	02a985b3          	mul	a1,s3,a0
    2994:	f4043503          	ld	a0,-192(s0)
    2998:	02a98533          	mul	a0,s3,a0
    299c:	e8043783          	ld	a5,-384(s0)
    29a0:	02f989b3          	mul	s3,s3,a5
    29a4:	da043783          	ld	a5,-608(s0)
    29a8:	00f987b3          	add	a5,s3,a5
    29ac:	daf43023          	sd	a5,-608(s0)
    29b0:	e2043983          	ld	s3,-480(s0)
    29b4:	d9843783          	ld	a5,-616(s0)
    29b8:	00f507b3          	add	a5,a0,a5
    29bc:	d8f43c23          	sd	a5,-616(s0)
    29c0:	d9043503          	ld	a0,-624(s0)
    29c4:	00a58533          	add	a0,a1,a0
    29c8:	d8a43823          	sd	a0,-624(s0)
    29cc:	d8843503          	ld	a0,-632(s0)
    29d0:	00a60533          	add	a0,a2,a0
    29d4:	d8a43423          	sd	a0,-632(s0)
    29d8:	da843503          	ld	a0,-600(s0)
    29dc:	00a68533          	add	a0,a3,a0
    29e0:	daa43423          	sd	a0,-600(s0)
    29e4:	db043503          	ld	a0,-592(s0)
    29e8:	00a08533          	add	a0,ra,a0
    29ec:	daa43823          	sd	a0,-592(s0)
    29f0:	dd843083          	ld	ra,-552(s0)
    29f4:	db843503          	ld	a0,-584(s0)
    29f8:	00a70533          	add	a0,a4,a0
    29fc:	daa43c23          	sd	a0,-584(s0)
    2a00:	dc043503          	ld	a0,-576(s0)
    2a04:	00ad8533          	add	a0,s11,a0
    2a08:	dca43023          	sd	a0,-576(s0)
    2a0c:	de043d83          	ld	s11,-544(s0)
    2a10:	dc843503          	ld	a0,-568(s0)
    2a14:	00ad0533          	add	a0,s10,a0
    2a18:	dca43423          	sd	a0,-568(s0)
    2a1c:	de843d03          	ld	s10,-536(s0)
    2a20:	dd043503          	ld	a0,-560(s0)
    2a24:	00ac8533          	add	a0,s9,a0
    2a28:	dca43823          	sd	a0,-560(s0)
    2a2c:	df043c83          	ld	s9,-528(s0)
    2a30:	001c00b3          	add	ra,s8,ra
    2a34:	df843c03          	ld	s8,-520(s0)
    2a38:	01bb8db3          	add	s11,s7,s11
    2a3c:	e0043b83          	ld	s7,-512(s0)
    2a40:	01ab0d33          	add	s10,s6,s10
    2a44:	e0843b03          	ld	s6,-504(s0)
    2a48:	019a8cb3          	add	s9,s5,s9
    2a4c:	e1043a83          	ld	s5,-496(s0)
    2a50:	018a0c33          	add	s8,s4,s8
    2a54:	e1843a03          	ld	s4,-488(s0)
    2a58:	01738bb3          	add	s7,t2,s7
    2a5c:	e3043383          	ld	t2,-464(s0)
    2a60:	01680b33          	add	s6,a6,s6
    2a64:	e3843303          	ld	t1,-456(s0)
    2a68:	01528ab3          	add	s5,t0,s5
    2a6c:	e4043283          	ld	t0,-448(s0)
    2a70:	014e8a33          	add	s4,t4,s4
    2a74:	013f09b3          	add	s3,t5,s3
    2a78:	e2843e03          	ld	t3,-472(s0)
    2a7c:	f1043503          	ld	a0,-240(s0)
    2a80:	00af8533          	add	a0,t6,a0
    2a84:	f8843e83          	ld	t4,-120(s0)
    2a88:	f0a43823          	sd	a0,-240(s0)
    2a8c:	f1043703          	ld	a4,-240(s0)
    2a90:	f1843503          	ld	a0,-232(s0)
    2a94:	00a48533          	add	a0,s1,a0
    2a98:	f8043f03          	ld	t5,-128(s0)
    2a9c:	f0a43c23          	sd	a0,-232(s0)
    2aa0:	f1843683          	ld	a3,-232(s0)
    2aa4:	f2043503          	ld	a0,-224(s0)
    2aa8:	00a90533          	add	a0,s2,a0
    2aac:	f2a43023          	sd	a0,-224(s0)
    2ab0:	f2043603          	ld	a2,-224(s0)
    2ab4:	f2843503          	ld	a0,-216(s0)
    2ab8:	ed043583          	ld	a1,-304(s0)
    2abc:	00a58533          	add	a0,a1,a0
    2ac0:	f2a43423          	sd	a0,-216(s0)
    2ac4:	f2843583          	ld	a1,-216(s0)
    2ac8:	e5843883          	ld	a7,-424(s0)
    2acc:	f3043503          	ld	a0,-208(s0)
    2ad0:	f6043783          	ld	a5,-160(s0)
    2ad4:	00a78533          	add	a0,a5,a0
    2ad8:	f2a43823          	sd	a0,-208(s0)
    2adc:	f3043503          	ld	a0,-208(s0)
    2ae0:	f5043783          	ld	a5,-176(s0)
    2ae4:	01c78e33          	add	t3,a5,t3
    2ae8:	e4843803          	ld	a6,-440(s0)
    2aec:	f6843783          	ld	a5,-152(s0)
    2af0:	007783b3          	add	t2,a5,t2
    2af4:	000017b7          	lui	a5,0x1
    2af8:	40f407b3          	sub	a5,s0,a5
    2afc:	6807b783          	ld	a5,1664(a5) # 1680 <.LBB69_5+0x264>
    2b00:	00001fb7          	lui	t6,0x1
    2b04:	41f40fb3          	sub	t6,s0,t6
    2b08:	670fbf83          	ld	t6,1648(t6) # 1670 <.LBB69_5+0x254>
    2b0c:	006f8333          	add	t1,t6,t1
    2b10:	e7843f83          	ld	t6,-392(s0)
    2b14:	005f82b3          	add	t0,t6,t0
    2b18:	ec043f83          	ld	t6,-320(s0)
    2b1c:	010f8833          	add	a6,t6,a6
    2b20:	e5043f83          	ld	t6,-432(s0)
    2b24:	ea843483          	ld	s1,-344(s0)
    2b28:	01f48fb3          	add	t6,s1,t6
    2b2c:	e5f43823          	sd	t6,-432(s0)
    2b30:	e7043f83          	ld	t6,-400(s0)
    2b34:	011f88b3          	add	a7,t6,a7
    2b38:	fff78793          	addi	a5,a5,-1
    2b3c:	001f0f13          	addi	t5,t5,1
    2b40:	060e8e93          	addi	t4,t4,96
    2b44:	00078463          	beqz	a5,2b4c <.LBB69_6>
    2b48:	8d5fe06f          	j	141c <.LBB69_5>

0000000000002b4c <.LBB69_6>:
    2b4c:	00001537          	lui	a0,0x1
    2b50:	40a40533          	sub	a0,s0,a0
    2b54:	6a053903          	ld	s2,1696(a0) # 16a0 <.LBB69_5+0x284>
    2b58:	00001537          	lui	a0,0x1
    2b5c:	40a40533          	sub	a0,s0,a0
    2b60:	69853483          	ld	s1,1688(a0) # 1698 <.LBB69_5+0x27c>
    2b64:	00001537          	lui	a0,0x1
    2b68:	40a40533          	sub	a0,s0,a0
    2b6c:	69053f83          	ld	t6,1680(a0) # 1690 <.LBB69_5+0x274>
    2b70:	00001537          	lui	a0,0x1
    2b74:	40a40533          	sub	a0,s0,a0
    2b78:	68853f03          	ld	t5,1672(a0) # 1688 <.LBB69_5+0x26c>
    2b7c:	00001537          	lui	a0,0x1
    2b80:	40a40533          	sub	a0,s0,a0
    2b84:	66053503          	ld	a0,1632(a0) # 1660 <.LBB69_5+0x244>
    2b88:	00251513          	slli	a0,a0,0x2
    2b8c:	000015b7          	lui	a1,0x1
    2b90:	40b405b3          	sub	a1,s0,a1
    2b94:	b605b603          	ld	a2,-1184(a1) # b60 <.LBB69_3+0x93c>
    2b98:	00a60633          	add	a2,a2,a0
    2b9c:	000015b7          	lui	a1,0x1
    2ba0:	40b405b3          	sub	a1,s0,a1
    2ba4:	b585b583          	ld	a1,-1192(a1) # b58 <.LBB69_3+0x934>
    2ba8:	00a58533          	add	a0,a1,a0
    2bac:	00c52683          	lw	a3,12(a0)
    2bb0:	00c62703          	lw	a4,12(a2)
    2bb4:	000015b7          	lui	a1,0x1
    2bb8:	40b405b3          	sub	a1,s0,a1
    2bbc:	6585b583          	ld	a1,1624(a1) # 1658 <.LBB69_5+0x23c>
    2bc0:	0005a583          	lw	a1,0(a1)
    2bc4:	00769793          	slli	a5,a3,0x7
    2bc8:	eae43823          	sd	a4,-336(s0)
    2bcc:	000016b7          	lui	a3,0x1
    2bd0:	40d406b3          	sub	a3,s0,a3
    2bd4:	6a86b683          	ld	a3,1704(a3) # 16a8 <.LBB69_5+0x28c>
    2bd8:	00e686b3          	add	a3,a3,a4
    2bdc:	eaf43423          	sd	a5,-344(s0)
    2be0:	00f686b3          	add	a3,a3,a5
    2be4:	ffff47b7          	lui	a5,0xffff4
    2be8:	40f5873b          	subw	a4,a1,a5
    2bec:	40e6873b          	subw	a4,a3,a4
    2bf0:	400006b7          	lui	a3,0x40000
    2bf4:	00001eb7          	lui	t4,0x1
    2bf8:	41d40eb3          	sub	t4,s0,t4
    2bfc:	68deb023          	sd	a3,1664(t4) # 1680 <.LBB69_5+0x264>
    2c00:	00001eb7          	lui	t4,0x1
    2c04:	41d40eb3          	sub	t4,s0,t4
    2c08:	66eebc23          	sd	a4,1656(t4) # 1678 <.LBB69_5+0x25c>
    2c0c:	00075463          	bgez	a4,2c14 <.LBB69_8>
    2c10:	c00006b7          	lui	a3,0xc0000

0000000000002c14 <.LBB69_8>:
    2c14:	00001737          	lui	a4,0x1
    2c18:	40e40733          	sub	a4,s0,a4
    2c1c:	66d73823          	sd	a3,1648(a4) # 1670 <.LBB69_5+0x254>
    2c20:	00852683          	lw	a3,8(a0)
    2c24:	00862703          	lw	a4,8(a2)
    2c28:	00769e93          	slli	t4,a3,0x7
    2c2c:	eae43023          	sd	a4,-352(s0)
    2c30:	00e906b3          	add	a3,s2,a4
    2c34:	e9d43c23          	sd	t4,-360(s0)
    2c38:	01d686b3          	add	a3,a3,t4
    2c3c:	40f5873b          	subw	a4,a1,a5
    2c40:	40e686bb          	subw	a3,a3,a4
    2c44:	40000737          	lui	a4,0x40000
    2c48:	00001eb7          	lui	t4,0x1
    2c4c:	41d40eb3          	sub	t4,s0,t4
    2c50:	64deb423          	sd	a3,1608(t4) # 1648 <.LBB69_5+0x22c>
    2c54:	00001eb7          	lui	t4,0x1
    2c58:	41d40eb3          	sub	t4,s0,t4
    2c5c:	6b0eb903          	ld	s2,1712(t4) # 16b0 <.LBB69_5+0x294>
    2c60:	0006d463          	bgez	a3,2c68 <.LBB69_10>
    2c64:	c0000737          	lui	a4,0xc0000

0000000000002c68 <.LBB69_10>:
    2c68:	000016b7          	lui	a3,0x1
    2c6c:	40d406b3          	sub	a3,s0,a3
    2c70:	64e6b023          	sd	a4,1600(a3) # 1640 <.LBB69_5+0x224>
    2c74:	00452683          	lw	a3,4(a0)
    2c78:	00462703          	lw	a4,4(a2)
    2c7c:	00769e93          	slli	t4,a3,0x7
    2c80:	e8e43823          	sd	a4,-368(s0)
    2c84:	000016b7          	lui	a3,0x1
    2c88:	40d406b3          	sub	a3,s0,a3
    2c8c:	6b86b683          	ld	a3,1720(a3) # 16b8 <.LBB69_5+0x29c>
    2c90:	00e686b3          	add	a3,a3,a4
    2c94:	e9d43423          	sd	t4,-376(s0)
    2c98:	01d686b3          	add	a3,a3,t4
    2c9c:	40f5873b          	subw	a4,a1,a5
    2ca0:	40e686bb          	subw	a3,a3,a4
    2ca4:	40000737          	lui	a4,0x40000
    2ca8:	00001eb7          	lui	t4,0x1
    2cac:	41d40eb3          	sub	t4,s0,t4
    2cb0:	62debc23          	sd	a3,1592(t4) # 1638 <.LBB69_5+0x21c>
    2cb4:	0006d463          	bgez	a3,2cbc <.LBB69_12>
    2cb8:	c0000737          	lui	a4,0xc0000

0000000000002cbc <.LBB69_12>:
    2cbc:	000016b7          	lui	a3,0x1
    2cc0:	40d406b3          	sub	a3,s0,a3
    2cc4:	62e6b823          	sd	a4,1584(a3) # 1630 <.LBB69_5+0x214>
    2cc8:	00052683          	lw	a3,0(a0)
    2ccc:	00062703          	lw	a4,0(a2)
    2cd0:	00769e93          	slli	t4,a3,0x7
    2cd4:	e8e43023          	sd	a4,-384(s0)
    2cd8:	000016b7          	lui	a3,0x1
    2cdc:	40d406b3          	sub	a3,s0,a3
    2ce0:	6c06b683          	ld	a3,1728(a3) # 16c0 <.LBB69_5+0x2a4>
    2ce4:	00e686b3          	add	a3,a3,a4
    2ce8:	e7d43c23          	sd	t4,-392(s0)
    2cec:	01d686b3          	add	a3,a3,t4
    2cf0:	40f5873b          	subw	a4,a1,a5
    2cf4:	40e686bb          	subw	a3,a3,a4
    2cf8:	40000737          	lui	a4,0x40000
    2cfc:	00001eb7          	lui	t4,0x1
    2d00:	41d40eb3          	sub	t4,s0,t4
    2d04:	62deb423          	sd	a3,1576(t4) # 1628 <.LBB69_5+0x20c>
    2d08:	0006d463          	bgez	a3,2d10 <.LBB69_14>
    2d0c:	c0000737          	lui	a4,0xc0000

0000000000002d10 <.LBB69_14>:
    2d10:	000016b7          	lui	a3,0x1
    2d14:	40d406b3          	sub	a3,s0,a3
    2d18:	62e6b023          	sd	a4,1568(a3) # 1620 <.LBB69_5+0x204>
    2d1c:	01052683          	lw	a3,16(a0)
    2d20:	01062703          	lw	a4,16(a2)
    2d24:	00769e93          	slli	t4,a3,0x7
    2d28:	e6e43823          	sd	a4,-400(s0)
    2d2c:	000016b7          	lui	a3,0x1
    2d30:	40d406b3          	sub	a3,s0,a3
    2d34:	6c86b683          	ld	a3,1736(a3) # 16c8 <.LBB69_5+0x2ac>
    2d38:	00e686b3          	add	a3,a3,a4
    2d3c:	e7d43423          	sd	t4,-408(s0)
    2d40:	01d686b3          	add	a3,a3,t4
    2d44:	40f5873b          	subw	a4,a1,a5
    2d48:	40e686bb          	subw	a3,a3,a4
    2d4c:	40000737          	lui	a4,0x40000
    2d50:	00001eb7          	lui	t4,0x1
    2d54:	41d40eb3          	sub	t4,s0,t4
    2d58:	60debc23          	sd	a3,1560(t4) # 1618 <.LBB69_5+0x1fc>
    2d5c:	0006d463          	bgez	a3,2d64 <.LBB69_16>
    2d60:	c0000737          	lui	a4,0xc0000

0000000000002d64 <.LBB69_16>:
    2d64:	000016b7          	lui	a3,0x1
    2d68:	40d406b3          	sub	a3,s0,a3
    2d6c:	60e6b823          	sd	a4,1552(a3) # 1610 <.LBB69_5+0x1f4>
    2d70:	01452683          	lw	a3,20(a0)
    2d74:	01462703          	lw	a4,20(a2)
    2d78:	00769e93          	slli	t4,a3,0x7
    2d7c:	000016b7          	lui	a3,0x1
    2d80:	40d406b3          	sub	a3,s0,a3
    2d84:	6ce6b423          	sd	a4,1736(a3) # 16c8 <.LBB69_5+0x2ac>
    2d88:	00e906b3          	add	a3,s2,a4
    2d8c:	00001737          	lui	a4,0x1
    2d90:	40e40733          	sub	a4,s0,a4
    2d94:	6dd73023          	sd	t4,1728(a4) # 16c0 <.LBB69_5+0x2a4>
    2d98:	01d686b3          	add	a3,a3,t4
    2d9c:	40f5873b          	subw	a4,a1,a5
    2da0:	40e686bb          	subw	a3,a3,a4
    2da4:	40000737          	lui	a4,0x40000
    2da8:	00001eb7          	lui	t4,0x1
    2dac:	41d40eb3          	sub	t4,s0,t4
    2db0:	60deb423          	sd	a3,1544(t4) # 1608 <.LBB69_5+0x1ec>
    2db4:	0006d463          	bgez	a3,2dbc <.LBB69_18>
    2db8:	c0000737          	lui	a4,0xc0000

0000000000002dbc <.LBB69_18>:
    2dbc:	000016b7          	lui	a3,0x1
    2dc0:	40d406b3          	sub	a3,s0,a3
    2dc4:	60e6b023          	sd	a4,1536(a3) # 1600 <.LBB69_5+0x1e4>
    2dc8:	01852683          	lw	a3,24(a0)
    2dcc:	01862703          	lw	a4,24(a2)
    2dd0:	00769e93          	slli	t4,a3,0x7
    2dd4:	000016b7          	lui	a3,0x1
    2dd8:	40d406b3          	sub	a3,s0,a3
    2ddc:	6ae6bc23          	sd	a4,1720(a3) # 16b8 <.LBB69_5+0x29c>
    2de0:	00e486b3          	add	a3,s1,a4
    2de4:	00001737          	lui	a4,0x1
    2de8:	40e40733          	sub	a4,s0,a4
    2dec:	6bd73823          	sd	t4,1712(a4) # 16b0 <.LBB69_5+0x294>
    2df0:	01d686b3          	add	a3,a3,t4
    2df4:	40f5873b          	subw	a4,a1,a5
    2df8:	40e686bb          	subw	a3,a3,a4
    2dfc:	40000737          	lui	a4,0x40000
    2e00:	00001eb7          	lui	t4,0x1
    2e04:	41d40eb3          	sub	t4,s0,t4
    2e08:	5edebc23          	sd	a3,1528(t4) # 15f8 <.LBB69_5+0x1dc>
    2e0c:	0006d463          	bgez	a3,2e14 <.LBB69_20>
    2e10:	c0000737          	lui	a4,0xc0000

0000000000002e14 <.LBB69_20>:
    2e14:	000016b7          	lui	a3,0x1
    2e18:	40d406b3          	sub	a3,s0,a3
    2e1c:	5ee6b823          	sd	a4,1520(a3) # 15f0 <.LBB69_5+0x1d4>
    2e20:	01c52683          	lw	a3,28(a0)
    2e24:	01c62703          	lw	a4,28(a2)
    2e28:	00769e93          	slli	t4,a3,0x7
    2e2c:	000016b7          	lui	a3,0x1
    2e30:	40d406b3          	sub	a3,s0,a3
    2e34:	6ae6b423          	sd	a4,1704(a3) # 16a8 <.LBB69_5+0x28c>
    2e38:	00ef86b3          	add	a3,t6,a4
    2e3c:	00001737          	lui	a4,0x1
    2e40:	40e40733          	sub	a4,s0,a4
    2e44:	6bd73023          	sd	t4,1696(a4) # 16a0 <.LBB69_5+0x284>
    2e48:	01d686b3          	add	a3,a3,t4
    2e4c:	40f5873b          	subw	a4,a1,a5
    2e50:	40e686bb          	subw	a3,a3,a4
    2e54:	40000737          	lui	a4,0x40000
    2e58:	00001eb7          	lui	t4,0x1
    2e5c:	41d40eb3          	sub	t4,s0,t4
    2e60:	5edeb423          	sd	a3,1512(t4) # 15e8 <.LBB69_5+0x1cc>
    2e64:	0006d463          	bgez	a3,2e6c <.LBB69_22>
    2e68:	c0000737          	lui	a4,0xc0000

0000000000002e6c <.LBB69_22>:
    2e6c:	000016b7          	lui	a3,0x1
    2e70:	40d406b3          	sub	a3,s0,a3
    2e74:	5ee6b023          	sd	a4,1504(a3) # 15e0 <.LBB69_5+0x1c4>
    2e78:	dc143c23          	sd	ra,-552(s0)
    2e7c:	dfb43023          	sd	s11,-544(s0)
    2e80:	dfa43423          	sd	s10,-536(s0)
    2e84:	df943823          	sd	s9,-528(s0)
    2e88:	df843c23          	sd	s8,-520(s0)
    2e8c:	e1743023          	sd	s7,-512(s0)
    2e90:	e1643423          	sd	s6,-504(s0)
    2e94:	e1543823          	sd	s5,-496(s0)
    2e98:	e1443c23          	sd	s4,-488(s0)
    2e9c:	e3343023          	sd	s3,-480(s0)
    2ea0:	e3c43423          	sd	t3,-472(s0)
    2ea4:	e2743823          	sd	t2,-464(s0)
    2ea8:	e2643c23          	sd	t1,-456(s0)
    2eac:	e4543023          	sd	t0,-448(s0)
    2eb0:	e5043423          	sd	a6,-440(s0)
    2eb4:	e5143c23          	sd	a7,-424(s0)
    2eb8:	02052683          	lw	a3,32(a0)
    2ebc:	02062703          	lw	a4,32(a2)
    2ec0:	00769813          	slli	a6,a3,0x7
    2ec4:	000016b7          	lui	a3,0x1
    2ec8:	40d406b3          	sub	a3,s0,a3
    2ecc:	68e6bc23          	sd	a4,1688(a3) # 1698 <.LBB69_5+0x27c>
    2ed0:	00ef06b3          	add	a3,t5,a4
    2ed4:	00001737          	lui	a4,0x1
    2ed8:	40e40733          	sub	a4,s0,a4
    2edc:	69073823          	sd	a6,1680(a4) # 1690 <.LBB69_5+0x274>
    2ee0:	010686b3          	add	a3,a3,a6
    2ee4:	ffff48b7          	lui	a7,0xffff4
    2ee8:	40f5873b          	subw	a4,a1,a5
    2eec:	40e686bb          	subw	a3,a3,a4
    2ef0:	40000737          	lui	a4,0x40000
    2ef4:	000017b7          	lui	a5,0x1
    2ef8:	40f407b3          	sub	a5,s0,a5
    2efc:	5cd7bc23          	sd	a3,1496(a5) # 15d8 <.LBB69_5+0x1bc>
    2f00:	0006d463          	bgez	a3,2f08 <.LBB69_24>
    2f04:	c0000737          	lui	a4,0xc0000

0000000000002f08 <.LBB69_24>:
    2f08:	000016b7          	lui	a3,0x1
    2f0c:	40d406b3          	sub	a3,s0,a3
    2f10:	5ce6b823          	sd	a4,1488(a3) # 15d0 <.LBB69_5+0x1b4>
    2f14:	07c62683          	lw	a3,124(a2)
    2f18:	f8d43423          	sd	a3,-120(s0)
    2f1c:	07862683          	lw	a3,120(a2)
    2f20:	f8d43023          	sd	a3,-128(s0)
    2f24:	07462683          	lw	a3,116(a2)
    2f28:	f6d43c23          	sd	a3,-136(s0)
    2f2c:	07062683          	lw	a3,112(a2)
    2f30:	f6d43823          	sd	a3,-144(s0)
    2f34:	06c62683          	lw	a3,108(a2)
    2f38:	f6d43423          	sd	a3,-152(s0)
    2f3c:	06862683          	lw	a3,104(a2)
    2f40:	f6d43023          	sd	a3,-160(s0)
    2f44:	06462683          	lw	a3,100(a2)
    2f48:	f4d43c23          	sd	a3,-168(s0)
    2f4c:	06062683          	lw	a3,96(a2)
    2f50:	f4d43823          	sd	a3,-176(s0)
    2f54:	05c62683          	lw	a3,92(a2)
    2f58:	f4d43423          	sd	a3,-184(s0)
    2f5c:	05862683          	lw	a3,88(a2)
    2f60:	f4d43023          	sd	a3,-192(s0)
    2f64:	05462683          	lw	a3,84(a2)
    2f68:	f2d43c23          	sd	a3,-200(s0)
    2f6c:	05062683          	lw	a3,80(a2)
    2f70:	f0d43423          	sd	a3,-248(s0)
    2f74:	04c62683          	lw	a3,76(a2)
    2f78:	f0d43023          	sd	a3,-256(s0)
    2f7c:	04862683          	lw	a3,72(a2)
    2f80:	eed43c23          	sd	a3,-264(s0)
    2f84:	04462683          	lw	a3,68(a2)
    2f88:	eed43823          	sd	a3,-272(s0)
    2f8c:	04062683          	lw	a3,64(a2)
    2f90:	eed43423          	sd	a3,-280(s0)
    2f94:	03c62683          	lw	a3,60(a2)
    2f98:	eed43023          	sd	a3,-288(s0)
    2f9c:	03862683          	lw	a3,56(a2)
    2fa0:	ecd43c23          	sd	a3,-296(s0)
    2fa4:	03462683          	lw	a3,52(a2)
    2fa8:	ecd43823          	sd	a3,-304(s0)
    2fac:	03062683          	lw	a3,48(a2)
    2fb0:	ecd43423          	sd	a3,-312(s0)
    2fb4:	02c62683          	lw	a3,44(a2)
    2fb8:	ecd43023          	sd	a3,-320(s0)
    2fbc:	02862683          	lw	a3,40(a2)
    2fc0:	ead43c23          	sd	a3,-328(s0)
    2fc4:	02462603          	lw	a2,36(a2)
    2fc8:	07c52683          	lw	a3,124(a0)
    2fcc:	00001737          	lui	a4,0x1
    2fd0:	40e40733          	sub	a4,s0,a4
    2fd4:	5cd73423          	sd	a3,1480(a4) # 15c8 <.LBB69_5+0x1ac>
    2fd8:	07852683          	lw	a3,120(a0)
    2fdc:	00001737          	lui	a4,0x1
    2fe0:	40e40733          	sub	a4,s0,a4
    2fe4:	5cd73023          	sd	a3,1472(a4) # 15c0 <.LBB69_5+0x1a4>
    2fe8:	07452683          	lw	a3,116(a0)
    2fec:	00001737          	lui	a4,0x1
    2ff0:	40e40733          	sub	a4,s0,a4
    2ff4:	5ad73c23          	sd	a3,1464(a4) # 15b8 <.LBB69_5+0x19c>
    2ff8:	07052283          	lw	t0,112(a0)
    2ffc:	06c52303          	lw	t1,108(a0)
    3000:	06852383          	lw	t2,104(a0)
    3004:	06452e03          	lw	t3,100(a0)
    3008:	06052e83          	lw	t4,96(a0)
    300c:	05c52f03          	lw	t5,92(a0)
    3010:	05852f83          	lw	t6,88(a0)
    3014:	05452483          	lw	s1,84(a0)
    3018:	05052903          	lw	s2,80(a0)
    301c:	04c52983          	lw	s3,76(a0)
    3020:	04852a03          	lw	s4,72(a0)
    3024:	04452a83          	lw	s5,68(a0)
    3028:	04052b03          	lw	s6,64(a0)
    302c:	03c52b83          	lw	s7,60(a0)
    3030:	03852c03          	lw	s8,56(a0)
    3034:	03452c83          	lw	s9,52(a0)
    3038:	02452703          	lw	a4,36(a0)
    303c:	03052d03          	lw	s10,48(a0)
    3040:	02c52d83          	lw	s11,44(a0)
    3044:	02852083          	lw	ra,40(a0)
    3048:	00771713          	slli	a4,a4,0x7
    304c:	00001537          	lui	a0,0x1
    3050:	40a40533          	sub	a0,s0,a0
    3054:	68c53423          	sd	a2,1672(a0) # 1688 <.LBB69_5+0x26c>
    3058:	00001537          	lui	a0,0x1
    305c:	40a40533          	sub	a0,s0,a0
    3060:	6d053503          	ld	a0,1744(a0) # 16d0 <.LBB69_5+0x2b4>
    3064:	00c50533          	add	a0,a0,a2
    3068:	00001637          	lui	a2,0x1
    306c:	40c40633          	sub	a2,s0,a2
    3070:	6ce63823          	sd	a4,1744(a2) # 16d0 <.LBB69_5+0x2b4>
    3074:	00e50533          	add	a0,a0,a4
    3078:	00001637          	lui	a2,0x1
    307c:	40c40633          	sub	a2,s0,a2
    3080:	65863603          	ld	a2,1624(a2) # 1658 <.LBB69_5+0x23c>
    3084:	01c62683          	lw	a3,28(a2)
    3088:	00001737          	lui	a4,0x1
    308c:	40e40733          	sub	a4,s0,a4
    3090:	14d73423          	sd	a3,328(a4) # 1148 <.LBB69_4+0x2d0>
    3094:	01862683          	lw	a3,24(a2)
    3098:	00001737          	lui	a4,0x1
    309c:	40e40733          	sub	a4,s0,a4
    30a0:	3cd73023          	sd	a3,960(a4) # 13c0 <.LBB69_4+0x548>
    30a4:	01462683          	lw	a3,20(a2)
    30a8:	00001737          	lui	a4,0x1
    30ac:	40e40733          	sub	a4,s0,a4
    30b0:	5ad73423          	sd	a3,1448(a4) # 15a8 <.LBB69_5+0x18c>
    30b4:	01062703          	lw	a4,16(a2)
    30b8:	00c62783          	lw	a5,12(a2)
    30bc:	00862803          	lw	a6,8(a2)
    30c0:	00462603          	lw	a2,4(a2)
    30c4:	411586bb          	subw	a3,a1,a7
    30c8:	40d5053b          	subw	a0,a0,a3
    30cc:	400006b7          	lui	a3,0x40000
    30d0:	000018b7          	lui	a7,0x1
    30d4:	411408b3          	sub	a7,s0,a7
    30d8:	5aa8b023          	sd	a0,1440(a7) # 15a0 <.LBB69_5+0x184>
    30dc:	00055463          	bgez	a0,30e4 <.LBB69_26>
    30e0:	c00006b7          	lui	a3,0xc0000

00000000000030e4 <.LBB69_26>:
    30e4:	00001537          	lui	a0,0x1
    30e8:	40a40533          	sub	a0,s0,a0
    30ec:	58d53c23          	sd	a3,1432(a0) # 1598 <.LBB69_5+0x17c>
    30f0:	00709093          	slli	ra,ra,0x7
    30f4:	eb843503          	ld	a0,-328(s0)
    30f8:	000016b7          	lui	a3,0x1
    30fc:	40d406b3          	sub	a3,s0,a3
    3100:	6d86b683          	ld	a3,1752(a3) # 16d8 <.LBB69_5+0x2bc>
    3104:	00a68533          	add	a0,a3,a0
    3108:	000016b7          	lui	a3,0x1
    310c:	40d406b3          	sub	a3,s0,a3
    3110:	6c16bc23          	sd	ra,1752(a3) # 16d8 <.LBB69_5+0x2bc>
    3114:	00150533          	add	a0,a0,ra
    3118:	ffff40b7          	lui	ra,0xffff4
    311c:	401586bb          	subw	a3,a1,ra
    3120:	40d5053b          	subw	a0,a0,a3
    3124:	400006b7          	lui	a3,0x40000
    3128:	000018b7          	lui	a7,0x1
    312c:	411408b3          	sub	a7,s0,a7
    3130:	54a8b423          	sd	a0,1352(a7) # 1548 <.LBB69_5+0x12c>
    3134:	000018b7          	lui	a7,0x1
    3138:	411408b3          	sub	a7,s0,a7
    313c:	7088b883          	ld	a7,1800(a7) # 1708 <.LBB69_5+0x2ec>
    3140:	00055463          	bgez	a0,3148 <.LBB69_28>
    3144:	c00006b7          	lui	a3,0xc0000

0000000000003148 <.LBB69_28>:
    3148:	f8c43823          	sd	a2,-112(s0)
    314c:	00001537          	lui	a0,0x1
    3150:	40a40533          	sub	a0,s0,a0
    3154:	50d53c23          	sd	a3,1304(a0) # 1518 <.LBB69_5+0xfc>
    3158:	007d9693          	slli	a3,s11,0x7
    315c:	ec043503          	ld	a0,-320(s0)
    3160:	00001637          	lui	a2,0x1
    3164:	40c40633          	sub	a2,s0,a2
    3168:	6e063d83          	ld	s11,1760(a2) # 16e0 <.LBB69_5+0x2c4>
    316c:	00ad8533          	add	a0,s11,a0
    3170:	00068d93          	mv	s11,a3
    3174:	00d50533          	add	a0,a0,a3
    3178:	401586bb          	subw	a3,a1,ra
    317c:	40d5053b          	subw	a0,a0,a3
    3180:	400006b7          	lui	a3,0x40000
    3184:	00001637          	lui	a2,0x1
    3188:	40c40633          	sub	a2,s0,a2
    318c:	4ea63423          	sd	a0,1256(a2) # 14e8 <.LBB69_5+0xcc>
    3190:	f9043603          	ld	a2,-112(s0)
    3194:	00055463          	bgez	a0,319c <.LBB69_30>
    3198:	c00006b7          	lui	a3,0xc0000

000000000000319c <.LBB69_30>:
    319c:	f8c43823          	sd	a2,-112(s0)
    31a0:	00001537          	lui	a0,0x1
    31a4:	40a40533          	sub	a0,s0,a0
    31a8:	4cd53023          	sd	a3,1216(a0) # 14c0 <.LBB69_5+0xa4>
    31ac:	007d1693          	slli	a3,s10,0x7
    31b0:	ec843503          	ld	a0,-312(s0)
    31b4:	00001637          	lui	a2,0x1
    31b8:	40c40633          	sub	a2,s0,a2
    31bc:	6e863d03          	ld	s10,1768(a2) # 16e8 <.LBB69_5+0x2cc>
    31c0:	00ad0533          	add	a0,s10,a0
    31c4:	00068d13          	mv	s10,a3
    31c8:	00d50533          	add	a0,a0,a3
    31cc:	401586bb          	subw	a3,a1,ra
    31d0:	40d5053b          	subw	a0,a0,a3
    31d4:	400006b7          	lui	a3,0x40000
    31d8:	00001637          	lui	a2,0x1
    31dc:	40c40633          	sub	a2,s0,a2
    31e0:	46a63823          	sd	a0,1136(a2) # 1470 <.LBB69_5+0x54>
    31e4:	f9043603          	ld	a2,-112(s0)
    31e8:	00055463          	bgez	a0,31f0 <.LBB69_32>
    31ec:	c00006b7          	lui	a3,0xc0000

00000000000031f0 <.LBB69_32>:
    31f0:	f8c43823          	sd	a2,-112(s0)
    31f4:	00001537          	lui	a0,0x1
    31f8:	40a40533          	sub	a0,s0,a0
    31fc:	44d53023          	sd	a3,1088(a0) # 1440 <.LBB69_5+0x24>
    3200:	007c9693          	slli	a3,s9,0x7
    3204:	ed043503          	ld	a0,-304(s0)
    3208:	00001637          	lui	a2,0x1
    320c:	40c40633          	sub	a2,s0,a2
    3210:	6f063c83          	ld	s9,1776(a2) # 16f0 <.LBB69_5+0x2d4>
    3214:	00ac8533          	add	a0,s9,a0
    3218:	00068c93          	mv	s9,a3
    321c:	00d50533          	add	a0,a0,a3
    3220:	401586bb          	subw	a3,a1,ra
    3224:	40d5053b          	subw	a0,a0,a3
    3228:	400006b7          	lui	a3,0x40000
    322c:	00001637          	lui	a2,0x1
    3230:	40c40633          	sub	a2,s0,a2
    3234:	3ea63823          	sd	a0,1008(a2) # 13f0 <.LBB69_4+0x578>
    3238:	f9043603          	ld	a2,-112(s0)
    323c:	00055463          	bgez	a0,3244 <.LBB69_34>
    3240:	c00006b7          	lui	a3,0xc0000

0000000000003244 <.LBB69_34>:
    3244:	f8c43823          	sd	a2,-112(s0)
    3248:	00001537          	lui	a0,0x1
    324c:	40a40533          	sub	a0,s0,a0
    3250:	3ed53423          	sd	a3,1000(a0) # 13e8 <.LBB69_4+0x570>
    3254:	007c1693          	slli	a3,s8,0x7
    3258:	ed843503          	ld	a0,-296(s0)
    325c:	00001637          	lui	a2,0x1
    3260:	40c40633          	sub	a2,s0,a2
    3264:	6f863c03          	ld	s8,1784(a2) # 16f8 <.LBB69_5+0x2dc>
    3268:	00ac0533          	add	a0,s8,a0
    326c:	00068c13          	mv	s8,a3
    3270:	00d50533          	add	a0,a0,a3
    3274:	401586bb          	subw	a3,a1,ra
    3278:	40d5053b          	subw	a0,a0,a3
    327c:	400006b7          	lui	a3,0x40000
    3280:	00001637          	lui	a2,0x1
    3284:	40c40633          	sub	a2,s0,a2
    3288:	38a63423          	sd	a0,904(a2) # 1388 <.LBB69_4+0x510>
    328c:	f9043603          	ld	a2,-112(s0)
    3290:	00055463          	bgez	a0,3298 <.LBB69_36>
    3294:	c00006b7          	lui	a3,0xc0000

0000000000003298 <.LBB69_36>:
    3298:	f8c43823          	sd	a2,-112(s0)
    329c:	00001537          	lui	a0,0x1
    32a0:	40a40533          	sub	a0,s0,a0
    32a4:	38d53023          	sd	a3,896(a0) # 1380 <.LBB69_4+0x508>
    32a8:	007b9693          	slli	a3,s7,0x7
    32ac:	ee043503          	ld	a0,-288(s0)
    32b0:	00001637          	lui	a2,0x1
    32b4:	40c40633          	sub	a2,s0,a2
    32b8:	70063b83          	ld	s7,1792(a2) # 1700 <.LBB69_5+0x2e4>
    32bc:	00ab8533          	add	a0,s7,a0
    32c0:	00068b93          	mv	s7,a3
    32c4:	00d50533          	add	a0,a0,a3
    32c8:	401586bb          	subw	a3,a1,ra
    32cc:	40d5053b          	subw	a0,a0,a3
    32d0:	400006b7          	lui	a3,0x40000
    32d4:	00001637          	lui	a2,0x1
    32d8:	40c40633          	sub	a2,s0,a2
    32dc:	32a63023          	sd	a0,800(a2) # 1320 <.LBB69_4+0x4a8>
    32e0:	f9043603          	ld	a2,-112(s0)
    32e4:	00055463          	bgez	a0,32ec <.LBB69_38>
    32e8:	c00006b7          	lui	a3,0xc0000

00000000000032ec <.LBB69_38>:
    32ec:	00001537          	lui	a0,0x1
    32f0:	40a40533          	sub	a0,s0,a0
    32f4:	30d53c23          	sd	a3,792(a0) # 1318 <.LBB69_4+0x4a0>
    32f8:	007b1693          	slli	a3,s6,0x7
    32fc:	ee843503          	ld	a0,-280(s0)
    3300:	00a88533          	add	a0,a7,a0
    3304:	00068b13          	mv	s6,a3
    3308:	00d50533          	add	a0,a0,a3
    330c:	401586bb          	subw	a3,a1,ra
    3310:	40d5053b          	subw	a0,a0,a3
    3314:	400006b7          	lui	a3,0x40000
    3318:	000018b7          	lui	a7,0x1
    331c:	411408b3          	sub	a7,s0,a7
    3320:	2aa8bc23          	sd	a0,696(a7) # 12b8 <.LBB69_4+0x440>
    3324:	97843883          	ld	a7,-1672(s0)
    3328:	00055463          	bgez	a0,3330 <.LBB69_40>
    332c:	c00006b7          	lui	a3,0xc0000

0000000000003330 <.LBB69_40>:
    3330:	f8c43823          	sd	a2,-112(s0)
    3334:	00001537          	lui	a0,0x1
    3338:	40a40533          	sub	a0,s0,a0
    333c:	2ad53823          	sd	a3,688(a0) # 12b0 <.LBB69_4+0x438>
    3340:	007a9693          	slli	a3,s5,0x7
    3344:	ef043503          	ld	a0,-272(s0)
    3348:	00001637          	lui	a2,0x1
    334c:	40c40633          	sub	a2,s0,a2
    3350:	71063a83          	ld	s5,1808(a2) # 1710 <.LBB69_5+0x2f4>
    3354:	00aa8533          	add	a0,s5,a0
    3358:	00068a93          	mv	s5,a3
    335c:	00d50533          	add	a0,a0,a3
    3360:	401586bb          	subw	a3,a1,ra
    3364:	40d5053b          	subw	a0,a0,a3
    3368:	400006b7          	lui	a3,0x40000
    336c:	00001637          	lui	a2,0x1
    3370:	40c40633          	sub	a2,s0,a2
    3374:	24a63023          	sd	a0,576(a2) # 1240 <.LBB69_4+0x3c8>
    3378:	f9043603          	ld	a2,-112(s0)
    337c:	00055463          	bgez	a0,3384 <.LBB69_42>
    3380:	c00006b7          	lui	a3,0xc0000

0000000000003384 <.LBB69_42>:
    3384:	00001537          	lui	a0,0x1
    3388:	40a40533          	sub	a0,s0,a0
    338c:	22d53c23          	sd	a3,568(a0) # 1238 <.LBB69_4+0x3c0>
    3390:	007a1a13          	slli	s4,s4,0x7
    3394:	ef843503          	ld	a0,-264(s0)
    3398:	000016b7          	lui	a3,0x1
    339c:	40d406b3          	sub	a3,s0,a3
    33a0:	7186b683          	ld	a3,1816(a3) # 1718 <.LBB69_5+0x2fc>
    33a4:	00a68533          	add	a0,a3,a0
    33a8:	000016b7          	lui	a3,0x1
    33ac:	40d406b3          	sub	a3,s0,a3
    33b0:	7146bc23          	sd	s4,1816(a3) # 1718 <.LBB69_5+0x2fc>
    33b4:	01450533          	add	a0,a0,s4
    33b8:	401586bb          	subw	a3,a1,ra
    33bc:	40d5053b          	subw	a0,a0,a3
    33c0:	400006b7          	lui	a3,0x40000
    33c4:	00001a37          	lui	s4,0x1
    33c8:	41440a33          	sub	s4,s0,s4
    33cc:	1caa3423          	sd	a0,456(s4) # 11c8 <.LBB69_4+0x350>
    33d0:	00055463          	bgez	a0,33d8 <.LBB69_44>
    33d4:	c00006b7          	lui	a3,0xc0000

00000000000033d8 <.LBB69_44>:
    33d8:	00001537          	lui	a0,0x1
    33dc:	40a40533          	sub	a0,s0,a0
    33e0:	1cd53023          	sd	a3,448(a0) # 11c0 <.LBB69_4+0x348>
    33e4:	00799693          	slli	a3,s3,0x7
    33e8:	f0043503          	ld	a0,-256(s0)
    33ec:	000019b7          	lui	s3,0x1
    33f0:	413409b3          	sub	s3,s0,s3
    33f4:	7209b983          	ld	s3,1824(s3) # 1720 <.LBB69_5+0x304>
    33f8:	00a98533          	add	a0,s3,a0
    33fc:	00068993          	mv	s3,a3
    3400:	00d50533          	add	a0,a0,a3
    3404:	401586bb          	subw	a3,a1,ra
    3408:	40d5053b          	subw	a0,a0,a3
    340c:	400006b7          	lui	a3,0x40000
    3410:	00001a37          	lui	s4,0x1
    3414:	41440a33          	sub	s4,s0,s4
    3418:	14aa3c23          	sd	a0,344(s4) # 1158 <.LBB69_4+0x2e0>
    341c:	00001a37          	lui	s4,0x1
    3420:	41440a33          	sub	s4,s0,s4
    3424:	728a3a03          	ld	s4,1832(s4) # 1728 <.LBB69_5+0x30c>
    3428:	00055463          	bgez	a0,3430 <.LBB69_46>
    342c:	c00006b7          	lui	a3,0xc0000

0000000000003430 <.LBB69_46>:
    3430:	f8c43823          	sd	a2,-112(s0)
    3434:	00001537          	lui	a0,0x1
    3438:	40a40533          	sub	a0,s0,a0
    343c:	14d53823          	sd	a3,336(a0) # 1150 <.LBB69_4+0x2d8>
    3440:	00791693          	slli	a3,s2,0x7
    3444:	f0843503          	ld	a0,-248(s0)
    3448:	00aa0533          	add	a0,s4,a0
    344c:	00068913          	mv	s2,a3
    3450:	00d50533          	add	a0,a0,a3
    3454:	401586bb          	subw	a3,a1,ra
    3458:	40d5053b          	subw	a0,a0,a3
    345c:	400006b7          	lui	a3,0x40000
    3460:	97043a03          	ld	s4,-1680(s0)
    3464:	00001637          	lui	a2,0x1
    3468:	40c40633          	sub	a2,s0,a2
    346c:	0ca63c23          	sd	a0,216(a2) # 10d8 <.LBB69_4+0x260>
    3470:	f9043603          	ld	a2,-112(s0)
    3474:	00055463          	bgez	a0,347c <.LBB69_48>
    3478:	c00006b7          	lui	a3,0xc0000

000000000000347c <.LBB69_48>:
    347c:	00001537          	lui	a0,0x1
    3480:	40a40533          	sub	a0,s0,a0
    3484:	0cd53823          	sd	a3,208(a0) # 10d0 <.LBB69_4+0x258>
    3488:	00749693          	slli	a3,s1,0x7
    348c:	f3843503          	ld	a0,-200(s0)
    3490:	000014b7          	lui	s1,0x1
    3494:	409404b3          	sub	s1,s0,s1
    3498:	7304b483          	ld	s1,1840(s1) # 1730 <.LBB69_5+0x314>
    349c:	00a48533          	add	a0,s1,a0
    34a0:	000014b7          	lui	s1,0x1
    34a4:	409404b3          	sub	s1,s0,s1
    34a8:	72d4b823          	sd	a3,1840(s1) # 1730 <.LBB69_5+0x314>
    34ac:	00d50533          	add	a0,a0,a3
    34b0:	401586bb          	subw	a3,a1,ra
    34b4:	40d5053b          	subw	a0,a0,a3
    34b8:	400006b7          	lui	a3,0x40000
    34bc:	000014b7          	lui	s1,0x1
    34c0:	409404b3          	sub	s1,s0,s1
    34c4:	06a4b023          	sd	a0,96(s1) # 1060 <.LBB69_4+0x1e8>
    34c8:	00055463          	bgez	a0,34d0 <.LBB69_50>
    34cc:	c00006b7          	lui	a3,0xc0000

00000000000034d0 <.LBB69_50>:
    34d0:	00001537          	lui	a0,0x1
    34d4:	40a40533          	sub	a0,s0,a0
    34d8:	04d53c23          	sd	a3,88(a0) # 1058 <.LBB69_4+0x1e0>
    34dc:	007f9693          	slli	a3,t6,0x7
    34e0:	f4043503          	ld	a0,-192(s0)
    34e4:	00001fb7          	lui	t6,0x1
    34e8:	41f40fb3          	sub	t6,s0,t6
    34ec:	738fbf83          	ld	t6,1848(t6) # 1738 <.LBB69_5+0x31c>
    34f0:	00af8533          	add	a0,t6,a0
    34f4:	00001fb7          	lui	t6,0x1
    34f8:	41f40fb3          	sub	t6,s0,t6
    34fc:	72dfbc23          	sd	a3,1848(t6) # 1738 <.LBB69_5+0x31c>
    3500:	00d50533          	add	a0,a0,a3
    3504:	401586bb          	subw	a3,a1,ra
    3508:	40d5053b          	subw	a0,a0,a3
    350c:	400006b7          	lui	a3,0x40000
    3510:	00001fb7          	lui	t6,0x1
    3514:	41f40fb3          	sub	t6,s0,t6
    3518:	feafb823          	sd	a0,-16(t6) # ff0 <.LBB69_4+0x178>
    351c:	00001fb7          	lui	t6,0x1
    3520:	41f40fb3          	sub	t6,s0,t6
    3524:	778fb483          	ld	s1,1912(t6) # 1778 <.LBB69_5+0x35c>
    3528:	00055463          	bgez	a0,3530 <.LBB69_52>
    352c:	c00006b7          	lui	a3,0xc0000

0000000000003530 <.LBB69_52>:
    3530:	00001537          	lui	a0,0x1
    3534:	40a40533          	sub	a0,s0,a0
    3538:	fed53423          	sd	a3,-24(a0) # fe8 <.LBB69_4+0x170>
    353c:	007f1693          	slli	a3,t5,0x7
    3540:	f4843503          	ld	a0,-184(s0)
    3544:	00001f37          	lui	t5,0x1
    3548:	41e40f33          	sub	t5,s0,t5
    354c:	740f3f03          	ld	t5,1856(t5) # 1740 <.LBB69_5+0x324>
    3550:	00af0533          	add	a0,t5,a0
    3554:	00001f37          	lui	t5,0x1
    3558:	41e40f33          	sub	t5,s0,t5
    355c:	74df3023          	sd	a3,1856(t5) # 1740 <.LBB69_5+0x324>
    3560:	00d50533          	add	a0,a0,a3
    3564:	401586bb          	subw	a3,a1,ra
    3568:	40d5053b          	subw	a0,a0,a3
    356c:	400006b7          	lui	a3,0x40000
    3570:	00001f37          	lui	t5,0x1
    3574:	41e40f33          	sub	t5,s0,t5
    3578:	f6af3c23          	sd	a0,-136(t5) # f78 <.LBB69_4+0x100>
    357c:	00001f37          	lui	t5,0x1
    3580:	41e40f33          	sub	t5,s0,t5
    3584:	768f3f83          	ld	t6,1896(t5) # 1768 <.LBB69_5+0x34c>
    3588:	00055463          	bgez	a0,3590 <.LBB69_54>
    358c:	c00006b7          	lui	a3,0xc0000

0000000000003590 <.LBB69_54>:
    3590:	00001537          	lui	a0,0x1
    3594:	40a40533          	sub	a0,s0,a0
    3598:	f6d53823          	sd	a3,-144(a0) # f70 <.LBB69_4+0xf8>
    359c:	007e9693          	slli	a3,t4,0x7
    35a0:	f5043503          	ld	a0,-176(s0)
    35a4:	00001eb7          	lui	t4,0x1
    35a8:	41d40eb3          	sub	t4,s0,t4
    35ac:	748ebe83          	ld	t4,1864(t4) # 1748 <.LBB69_5+0x32c>
    35b0:	00ae8533          	add	a0,t4,a0
    35b4:	00068f13          	mv	t5,a3
    35b8:	00d50533          	add	a0,a0,a3
    35bc:	401586bb          	subw	a3,a1,ra
    35c0:	40d5053b          	subw	a0,a0,a3
    35c4:	400006b7          	lui	a3,0x40000
    35c8:	00001eb7          	lui	t4,0x1
    35cc:	41d40eb3          	sub	t4,s0,t4
    35d0:	f0aeb423          	sd	a0,-248(t4) # f08 <.LBB69_4+0x90>
    35d4:	00055463          	bgez	a0,35dc <.LBB69_56>
    35d8:	c00006b7          	lui	a3,0xc0000

00000000000035dc <.LBB69_56>:
    35dc:	00001537          	lui	a0,0x1
    35e0:	40a40533          	sub	a0,s0,a0
    35e4:	f0d53023          	sd	a3,-256(a0) # f00 <.LBB69_4+0x88>
    35e8:	007e1693          	slli	a3,t3,0x7
    35ec:	f5843503          	ld	a0,-168(s0)
    35f0:	00001e37          	lui	t3,0x1
    35f4:	41c40e33          	sub	t3,s0,t3
    35f8:	750e3e03          	ld	t3,1872(t3) # 1750 <.LBB69_5+0x334>
    35fc:	00ae0533          	add	a0,t3,a0
    3600:	00068e13          	mv	t3,a3
    3604:	00d50533          	add	a0,a0,a3
    3608:	401586bb          	subw	a3,a1,ra
    360c:	40d5053b          	subw	a0,a0,a3
    3610:	400006b7          	lui	a3,0x40000
    3614:	00001eb7          	lui	t4,0x1
    3618:	41d40eb3          	sub	t4,s0,t4
    361c:	e8aeb423          	sd	a0,-376(t4) # e88 <.LBB69_4+0x10>
    3620:	00001eb7          	lui	t4,0x1
    3624:	41d40eb3          	sub	t4,s0,t4
    3628:	780ebe83          	ld	t4,1920(t4) # 1780 <.LBB69_5+0x364>
    362c:	00055463          	bgez	a0,3634 <.LBB69_58>
    3630:	c00006b7          	lui	a3,0xc0000

0000000000003634 <.LBB69_58>:
    3634:	f8c43823          	sd	a2,-112(s0)
    3638:	00001537          	lui	a0,0x1
    363c:	40a40533          	sub	a0,s0,a0
    3640:	e8d53023          	sd	a3,-384(a0) # e80 <.LBB69_4+0x8>
    3644:	00739693          	slli	a3,t2,0x7
    3648:	f6043503          	ld	a0,-160(s0)
    364c:	00001637          	lui	a2,0x1
    3650:	40c40633          	sub	a2,s0,a2
    3654:	75863383          	ld	t2,1880(a2) # 1758 <.LBB69_5+0x33c>
    3658:	00a38533          	add	a0,t2,a0
    365c:	00068393          	mv	t2,a3
    3660:	00d50533          	add	a0,a0,a3
    3664:	401586bb          	subw	a3,a1,ra
    3668:	40d5053b          	subw	a0,a0,a3
    366c:	400006b7          	lui	a3,0x40000
    3670:	00001637          	lui	a2,0x1
    3674:	40c40633          	sub	a2,s0,a2
    3678:	e0a63823          	sd	a0,-496(a2) # e10 <.LBB69_3+0xbec>
    367c:	f9043603          	ld	a2,-112(s0)
    3680:	00055463          	bgez	a0,3688 <.LBB69_60>
    3684:	c00006b7          	lui	a3,0xc0000

0000000000003688 <.LBB69_60>:
    3688:	f8c43823          	sd	a2,-112(s0)
    368c:	00001537          	lui	a0,0x1
    3690:	40a40533          	sub	a0,s0,a0
    3694:	e0d53423          	sd	a3,-504(a0) # e08 <.LBB69_3+0xbe4>
    3698:	00731693          	slli	a3,t1,0x7
    369c:	f6843503          	ld	a0,-152(s0)
    36a0:	00001637          	lui	a2,0x1
    36a4:	40c40633          	sub	a2,s0,a2
    36a8:	76063303          	ld	t1,1888(a2) # 1760 <.LBB69_5+0x344>
    36ac:	00a30533          	add	a0,t1,a0
    36b0:	00068313          	mv	t1,a3
    36b4:	00d50533          	add	a0,a0,a3
    36b8:	401586bb          	subw	a3,a1,ra
    36bc:	40d5053b          	subw	a0,a0,a3
    36c0:	400006b7          	lui	a3,0x40000
    36c4:	00001637          	lui	a2,0x1
    36c8:	40c40633          	sub	a2,s0,a2
    36cc:	d8a63823          	sd	a0,-624(a2) # d90 <.LBB69_3+0xb6c>
    36d0:	f9043603          	ld	a2,-112(s0)
    36d4:	00055463          	bgez	a0,36dc <.LBB69_62>
    36d8:	c00006b7          	lui	a3,0xc0000

00000000000036dc <.LBB69_62>:
    36dc:	00001537          	lui	a0,0x1
    36e0:	40a40533          	sub	a0,s0,a0
    36e4:	d8d53423          	sd	a3,-632(a0) # d88 <.LBB69_3+0xb64>
    36e8:	00729293          	slli	t0,t0,0x7
    36ec:	f7043503          	ld	a0,-144(s0)
    36f0:	00af8533          	add	a0,t6,a0
    36f4:	00028f93          	mv	t6,t0
    36f8:	00550533          	add	a0,a0,t0
    36fc:	401586bb          	subw	a3,a1,ra
    3700:	40d5053b          	subw	a0,a0,a3
    3704:	400006b7          	lui	a3,0x40000
    3708:	000012b7          	lui	t0,0x1
    370c:	405402b3          	sub	t0,s0,t0
    3710:	d0a2bc23          	sd	a0,-744(t0) # d18 <.LBB69_3+0xaf4>
    3714:	00055463          	bgez	a0,371c <.LBB69_64>
    3718:	c00006b7          	lui	a3,0xc0000

000000000000371c <.LBB69_64>:
    371c:	00001537          	lui	a0,0x1
    3720:	40a40533          	sub	a0,s0,a0
    3724:	d0d53823          	sd	a3,-752(a0) # d10 <.LBB69_3+0xaec>
    3728:	00001537          	lui	a0,0x1
    372c:	40a40533          	sub	a0,s0,a0
    3730:	5b853683          	ld	a3,1464(a0) # 15b8 <.LBB69_5+0x19c>
    3734:	00769693          	slli	a3,a3,0x7
    3738:	f7843503          	ld	a0,-136(s0)
    373c:	000012b7          	lui	t0,0x1
    3740:	405402b3          	sub	t0,s0,t0
    3744:	7702b283          	ld	t0,1904(t0) # 1770 <.LBB69_5+0x354>
    3748:	00a28533          	add	a0,t0,a0
    374c:	000012b7          	lui	t0,0x1
    3750:	405402b3          	sub	t0,s0,t0
    3754:	76d2b823          	sd	a3,1904(t0) # 1770 <.LBB69_5+0x354>
    3758:	00d50533          	add	a0,a0,a3
    375c:	401586bb          	subw	a3,a1,ra
    3760:	40d5053b          	subw	a0,a0,a3
    3764:	400006b7          	lui	a3,0x40000
    3768:	000012b7          	lui	t0,0x1
    376c:	405402b3          	sub	t0,s0,t0
    3770:	caa2b423          	sd	a0,-856(t0) # ca8 <.LBB69_3+0xa84>
    3774:	00055463          	bgez	a0,377c <.LBB69_66>
    3778:	c00006b7          	lui	a3,0xc0000

000000000000377c <.LBB69_66>:
    377c:	00001537          	lui	a0,0x1
    3780:	40a40533          	sub	a0,s0,a0
    3784:	cad53023          	sd	a3,-864(a0) # ca0 <.LBB69_3+0xa7c>
    3788:	00001537          	lui	a0,0x1
    378c:	40a40533          	sub	a0,s0,a0
    3790:	5c053683          	ld	a3,1472(a0) # 15c0 <.LBB69_5+0x1a4>
    3794:	00769693          	slli	a3,a3,0x7
    3798:	f8043503          	ld	a0,-128(s0)
    379c:	00a48533          	add	a0,s1,a0
    37a0:	00068493          	mv	s1,a3
    37a4:	00d50533          	add	a0,a0,a3
    37a8:	401586bb          	subw	a3,a1,ra
    37ac:	40d5053b          	subw	a0,a0,a3
    37b0:	400006b7          	lui	a3,0x40000
    37b4:	000012b7          	lui	t0,0x1
    37b8:	405402b3          	sub	t0,s0,t0
    37bc:	c6a2b023          	sd	a0,-928(t0) # c60 <.LBB69_3+0xa3c>
    37c0:	00055463          	bgez	a0,37c8 <.LBB69_68>
    37c4:	c00006b7          	lui	a3,0xc0000

00000000000037c8 <.LBB69_68>:
    37c8:	00001537          	lui	a0,0x1
    37cc:	40a40533          	sub	a0,s0,a0
    37d0:	c4d53423          	sd	a3,-952(a0) # c48 <.LBB69_3+0xa24>
    37d4:	00001537          	lui	a0,0x1
    37d8:	40a40533          	sub	a0,s0,a0
    37dc:	5c853683          	ld	a3,1480(a0) # 15c8 <.LBB69_5+0x1ac>
    37e0:	00769693          	slli	a3,a3,0x7
    37e4:	f8843503          	ld	a0,-120(s0)
    37e8:	00ae8533          	add	a0,t4,a0
    37ec:	00068e93          	mv	t4,a3
    37f0:	00d50533          	add	a0,a0,a3
    37f4:	401585bb          	subw	a1,a1,ra
    37f8:	40b5053b          	subw	a0,a0,a1
    37fc:	400005b7          	lui	a1,0x40000
    3800:	000016b7          	lui	a3,0x1
    3804:	40d406b3          	sub	a3,s0,a3
    3808:	baa6b423          	sd	a0,-1112(a3) # ba8 <.LBB69_3+0x984>
    380c:	00055463          	bgez	a0,3814 <.LBB69_70>
    3810:	c00005b7          	lui	a1,0xc0000

0000000000003814 <.LBB69_70>:
    3814:	00001537          	lui	a0,0x1
    3818:	40a40533          	sub	a0,s0,a0
    381c:	b6b53823          	sd	a1,-1168(a0) # b70 <.LBB69_3+0x94c>
    3820:	eb043503          	ld	a0,-336(s0)
    3824:	000015b7          	lui	a1,0x1
    3828:	40b405b3          	sub	a1,s0,a1
    382c:	7885b583          	ld	a1,1928(a1) # 1788 <.LBB69_5+0x36c>
    3830:	00a58533          	add	a0,a1,a0
    3834:	ea843583          	ld	a1,-344(s0)
    3838:	00b50533          	add	a0,a0,a1
    383c:	401605bb          	subw	a1,a2,ra
    3840:	40b5053b          	subw	a0,a0,a1
    3844:	400006b7          	lui	a3,0x40000
    3848:	000015b7          	lui	a1,0x1
    384c:	40b405b3          	sub	a1,s0,a1
    3850:	78a5b423          	sd	a0,1928(a1) # 1788 <.LBB69_5+0x36c>
    3854:	00055463          	bgez	a0,385c <.LBB69_72>
    3858:	c00006b7          	lui	a3,0xc0000

000000000000385c <.LBB69_72>:
    385c:	ea043503          	ld	a0,-352(s0)
    3860:	000015b7          	lui	a1,0x1
    3864:	40b405b3          	sub	a1,s0,a1
    3868:	7905b583          	ld	a1,1936(a1) # 1790 <.LBB69_5+0x374>
    386c:	00a58533          	add	a0,a1,a0
    3870:	e9843583          	ld	a1,-360(s0)
    3874:	00b50533          	add	a0,a0,a1
    3878:	401605bb          	subw	a1,a2,ra
    387c:	40b5053b          	subw	a0,a0,a1
    3880:	400005b7          	lui	a1,0x40000
    3884:	000012b7          	lui	t0,0x1
    3888:	405402b3          	sub	t0,s0,t0
    388c:	78a2b823          	sd	a0,1936(t0) # 1790 <.LBB69_5+0x374>
    3890:	00055463          	bgez	a0,3898 <.LBB69_74>
    3894:	c00005b7          	lui	a1,0xc0000

0000000000003898 <.LBB69_74>:
    3898:	00001537          	lui	a0,0x1
    389c:	40a40533          	sub	a0,s0,a0
    38a0:	78b53023          	sd	a1,1920(a0) # 1780 <.LBB69_5+0x364>
    38a4:	e9043503          	ld	a0,-368(s0)
    38a8:	000015b7          	lui	a1,0x1
    38ac:	40b405b3          	sub	a1,s0,a1
    38b0:	7985b583          	ld	a1,1944(a1) # 1798 <.LBB69_5+0x37c>
    38b4:	00a58533          	add	a0,a1,a0
    38b8:	e8843583          	ld	a1,-376(s0)
    38bc:	00b50533          	add	a0,a0,a1
    38c0:	401605bb          	subw	a1,a2,ra
    38c4:	40b5053b          	subw	a0,a0,a1
    38c8:	400005b7          	lui	a1,0x40000
    38cc:	000012b7          	lui	t0,0x1
    38d0:	405402b3          	sub	t0,s0,t0
    38d4:	78a2bc23          	sd	a0,1944(t0) # 1798 <.LBB69_5+0x37c>
    38d8:	00055463          	bgez	a0,38e0 <.LBB69_76>
    38dc:	c00005b7          	lui	a1,0xc0000

00000000000038e0 <.LBB69_76>:
    38e0:	00001537          	lui	a0,0x1
    38e4:	40a40533          	sub	a0,s0,a0
    38e8:	76b53c23          	sd	a1,1912(a0) # 1778 <.LBB69_5+0x35c>
    38ec:	e8043503          	ld	a0,-384(s0)
    38f0:	000015b7          	lui	a1,0x1
    38f4:	40b405b3          	sub	a1,s0,a1
    38f8:	7a05b583          	ld	a1,1952(a1) # 17a0 <.LBB69_5+0x384>
    38fc:	00a58533          	add	a0,a1,a0
    3900:	e7843583          	ld	a1,-392(s0)
    3904:	00b50533          	add	a0,a0,a1
    3908:	401605bb          	subw	a1,a2,ra
    390c:	40b5053b          	subw	a0,a0,a1
    3910:	400005b7          	lui	a1,0x40000
    3914:	000012b7          	lui	t0,0x1
    3918:	405402b3          	sub	t0,s0,t0
    391c:	7aa2b023          	sd	a0,1952(t0) # 17a0 <.LBB69_5+0x384>
    3920:	00055463          	bgez	a0,3928 <.LBB69_78>
    3924:	c00005b7          	lui	a1,0xc0000

0000000000003928 <.LBB69_78>:
    3928:	00001537          	lui	a0,0x1
    392c:	40a40533          	sub	a0,s0,a0
    3930:	76b53423          	sd	a1,1896(a0) # 1768 <.LBB69_5+0x34c>
    3934:	e7043503          	ld	a0,-400(s0)
    3938:	000015b7          	lui	a1,0x1
    393c:	40b405b3          	sub	a1,s0,a1
    3940:	7a85b583          	ld	a1,1960(a1) # 17a8 <.LBB69_5+0x38c>
    3944:	00a58533          	add	a0,a1,a0
    3948:	e6843583          	ld	a1,-408(s0)
    394c:	00b50533          	add	a0,a0,a1
    3950:	401605bb          	subw	a1,a2,ra
    3954:	40b5053b          	subw	a0,a0,a1
    3958:	400005b7          	lui	a1,0x40000
    395c:	000012b7          	lui	t0,0x1
    3960:	405402b3          	sub	t0,s0,t0
    3964:	7aa2b423          	sd	a0,1960(t0) # 17a8 <.LBB69_5+0x38c>
    3968:	00055463          	bgez	a0,3970 <.LBB69_80>
    396c:	c00005b7          	lui	a1,0xc0000

0000000000003970 <.LBB69_80>:
    3970:	00001537          	lui	a0,0x1
    3974:	40a40533          	sub	a0,s0,a0
    3978:	76b53023          	sd	a1,1888(a0) # 1760 <.LBB69_5+0x344>
    397c:	00001537          	lui	a0,0x1
    3980:	40a40533          	sub	a0,s0,a0
    3984:	6c853503          	ld	a0,1736(a0) # 16c8 <.LBB69_5+0x2ac>
    3988:	000015b7          	lui	a1,0x1
    398c:	40b405b3          	sub	a1,s0,a1
    3990:	7b05b583          	ld	a1,1968(a1) # 17b0 <.LBB69_5+0x394>
    3994:	00a58533          	add	a0,a1,a0
    3998:	000015b7          	lui	a1,0x1
    399c:	40b405b3          	sub	a1,s0,a1
    39a0:	6c05b583          	ld	a1,1728(a1) # 16c0 <.LBB69_5+0x2a4>
    39a4:	00b50533          	add	a0,a0,a1
    39a8:	401605bb          	subw	a1,a2,ra
    39ac:	40b5053b          	subw	a0,a0,a1
    39b0:	400005b7          	lui	a1,0x40000
    39b4:	000012b7          	lui	t0,0x1
    39b8:	405402b3          	sub	t0,s0,t0
    39bc:	7aa2b823          	sd	a0,1968(t0) # 17b0 <.LBB69_5+0x394>
    39c0:	00055463          	bgez	a0,39c8 <.LBB69_82>
    39c4:	c00005b7          	lui	a1,0xc0000

00000000000039c8 <.LBB69_82>:
    39c8:	00001537          	lui	a0,0x1
    39cc:	40a40533          	sub	a0,s0,a0
    39d0:	74b53c23          	sd	a1,1880(a0) # 1758 <.LBB69_5+0x33c>
    39d4:	00001537          	lui	a0,0x1
    39d8:	40a40533          	sub	a0,s0,a0
    39dc:	6b853503          	ld	a0,1720(a0) # 16b8 <.LBB69_5+0x29c>
    39e0:	000015b7          	lui	a1,0x1
    39e4:	40b405b3          	sub	a1,s0,a1
    39e8:	7b85b583          	ld	a1,1976(a1) # 17b8 <.LBB69_5+0x39c>
    39ec:	00a58533          	add	a0,a1,a0
    39f0:	000015b7          	lui	a1,0x1
    39f4:	40b405b3          	sub	a1,s0,a1
    39f8:	6b05b583          	ld	a1,1712(a1) # 16b0 <.LBB69_5+0x294>
    39fc:	00b50533          	add	a0,a0,a1
    3a00:	401605bb          	subw	a1,a2,ra
    3a04:	40b5053b          	subw	a0,a0,a1
    3a08:	400005b7          	lui	a1,0x40000
    3a0c:	000012b7          	lui	t0,0x1
    3a10:	405402b3          	sub	t0,s0,t0
    3a14:	7aa2bc23          	sd	a0,1976(t0) # 17b8 <.LBB69_5+0x39c>
    3a18:	00055463          	bgez	a0,3a20 <.LBB69_84>
    3a1c:	c00005b7          	lui	a1,0xc0000

0000000000003a20 <.LBB69_84>:
    3a20:	00001537          	lui	a0,0x1
    3a24:	40a40533          	sub	a0,s0,a0
    3a28:	74b53823          	sd	a1,1872(a0) # 1750 <.LBB69_5+0x334>
    3a2c:	00001537          	lui	a0,0x1
    3a30:	40a40533          	sub	a0,s0,a0
    3a34:	6a853503          	ld	a0,1704(a0) # 16a8 <.LBB69_5+0x28c>
    3a38:	000015b7          	lui	a1,0x1
    3a3c:	40b405b3          	sub	a1,s0,a1
    3a40:	7c05b583          	ld	a1,1984(a1) # 17c0 <.LBB69_5+0x3a4>
    3a44:	00a58533          	add	a0,a1,a0
    3a48:	000015b7          	lui	a1,0x1
    3a4c:	40b405b3          	sub	a1,s0,a1
    3a50:	6a05b583          	ld	a1,1696(a1) # 16a0 <.LBB69_5+0x284>
    3a54:	00b50533          	add	a0,a0,a1
    3a58:	401605bb          	subw	a1,a2,ra
    3a5c:	40b5053b          	subw	a0,a0,a1
    3a60:	400005b7          	lui	a1,0x40000
    3a64:	000012b7          	lui	t0,0x1
    3a68:	405402b3          	sub	t0,s0,t0
    3a6c:	70a2b423          	sd	a0,1800(t0) # 1708 <.LBB69_5+0x2ec>
    3a70:	00055463          	bgez	a0,3a78 <.LBB69_86>
    3a74:	c00005b7          	lui	a1,0xc0000

0000000000003a78 <.LBB69_86>:
    3a78:	00001537          	lui	a0,0x1
    3a7c:	40a40533          	sub	a0,s0,a0
    3a80:	5cb53423          	sd	a1,1480(a0) # 15c8 <.LBB69_5+0x1ac>
    3a84:	00001537          	lui	a0,0x1
    3a88:	40a40533          	sub	a0,s0,a0
    3a8c:	69853503          	ld	a0,1688(a0) # 1698 <.LBB69_5+0x27c>
    3a90:	000015b7          	lui	a1,0x1
    3a94:	40b405b3          	sub	a1,s0,a1
    3a98:	7c85b583          	ld	a1,1992(a1) # 17c8 <.LBB69_5+0x3ac>
    3a9c:	00a58533          	add	a0,a1,a0
    3aa0:	000015b7          	lui	a1,0x1
    3aa4:	40b405b3          	sub	a1,s0,a1
    3aa8:	6905b583          	ld	a1,1680(a1) # 1690 <.LBB69_5+0x274>
    3aac:	00b50533          	add	a0,a0,a1
    3ab0:	401605bb          	subw	a1,a2,ra
    3ab4:	40b5053b          	subw	a0,a0,a1
    3ab8:	400005b7          	lui	a1,0x40000
    3abc:	000012b7          	lui	t0,0x1
    3ac0:	405402b3          	sub	t0,s0,t0
    3ac4:	58a2b823          	sd	a0,1424(t0) # 1590 <.LBB69_5+0x174>
    3ac8:	00055463          	bgez	a0,3ad0 <.LBB69_88>
    3acc:	c00005b7          	lui	a1,0xc0000

0000000000003ad0 <.LBB69_88>:
    3ad0:	00001537          	lui	a0,0x1
    3ad4:	40a40533          	sub	a0,s0,a0
    3ad8:	56b53823          	sd	a1,1392(a0) # 1570 <.LBB69_5+0x154>
    3adc:	00001537          	lui	a0,0x1
    3ae0:	40a40533          	sub	a0,s0,a0
    3ae4:	68853503          	ld	a0,1672(a0) # 1688 <.LBB69_5+0x26c>
    3ae8:	000015b7          	lui	a1,0x1
    3aec:	40b405b3          	sub	a1,s0,a1
    3af0:	7d05b583          	ld	a1,2000(a1) # 17d0 <.LBB69_5+0x3b4>
    3af4:	00a58533          	add	a0,a1,a0
    3af8:	000015b7          	lui	a1,0x1
    3afc:	40b405b3          	sub	a1,s0,a1
    3b00:	6d05b583          	ld	a1,1744(a1) # 16d0 <.LBB69_5+0x2b4>
    3b04:	00b50533          	add	a0,a0,a1
    3b08:	401605bb          	subw	a1,a2,ra
    3b0c:	40b5053b          	subw	a0,a0,a1
    3b10:	400005b7          	lui	a1,0x40000
    3b14:	000012b7          	lui	t0,0x1
    3b18:	405402b3          	sub	t0,s0,t0
    3b1c:	54a2b023          	sd	a0,1344(t0) # 1540 <.LBB69_5+0x124>
    3b20:	00055463          	bgez	a0,3b28 <.LBB69_90>
    3b24:	c00005b7          	lui	a1,0xc0000

0000000000003b28 <.LBB69_90>:
    3b28:	00001537          	lui	a0,0x1
    3b2c:	40a40533          	sub	a0,s0,a0
    3b30:	50b53823          	sd	a1,1296(a0) # 1510 <.LBB69_5+0xf4>
    3b34:	eb843503          	ld	a0,-328(s0)
    3b38:	000015b7          	lui	a1,0x1
    3b3c:	40b405b3          	sub	a1,s0,a1
    3b40:	7d85b583          	ld	a1,2008(a1) # 17d8 <.LBB69_5+0x3bc>
    3b44:	00a58533          	add	a0,a1,a0
    3b48:	000015b7          	lui	a1,0x1
    3b4c:	40b405b3          	sub	a1,s0,a1
    3b50:	6d85b583          	ld	a1,1752(a1) # 16d8 <.LBB69_5+0x2bc>
    3b54:	00b50533          	add	a0,a0,a1
    3b58:	401605bb          	subw	a1,a2,ra
    3b5c:	40b5053b          	subw	a0,a0,a1
    3b60:	400005b7          	lui	a1,0x40000
    3b64:	000012b7          	lui	t0,0x1
    3b68:	405402b3          	sub	t0,s0,t0
    3b6c:	4ea2b023          	sd	a0,1248(t0) # 14e0 <.LBB69_5+0xc4>
    3b70:	00055463          	bgez	a0,3b78 <.LBB69_92>
    3b74:	c00005b7          	lui	a1,0xc0000

0000000000003b78 <.LBB69_92>:
    3b78:	00001537          	lui	a0,0x1
    3b7c:	40a40533          	sub	a0,s0,a0
    3b80:	4ab53c23          	sd	a1,1208(a0) # 14b8 <.LBB69_5+0x9c>
    3b84:	ec043503          	ld	a0,-320(s0)
    3b88:	000015b7          	lui	a1,0x1
    3b8c:	40b405b3          	sub	a1,s0,a1
    3b90:	7e05b583          	ld	a1,2016(a1) # 17e0 <.LBB69_5+0x3c4>
    3b94:	00a58533          	add	a0,a1,a0
    3b98:	01b50533          	add	a0,a0,s11
    3b9c:	401605bb          	subw	a1,a2,ra
    3ba0:	40b5053b          	subw	a0,a0,a1
    3ba4:	400005b7          	lui	a1,0x40000
    3ba8:	000012b7          	lui	t0,0x1
    3bac:	405402b3          	sub	t0,s0,t0
    3bb0:	48a2b823          	sd	a0,1168(t0) # 1490 <.LBB69_5+0x74>
    3bb4:	00055463          	bgez	a0,3bbc <.LBB69_94>
    3bb8:	c00005b7          	lui	a1,0xc0000

0000000000003bbc <.LBB69_94>:
    3bbc:	00001537          	lui	a0,0x1
    3bc0:	40a40533          	sub	a0,s0,a0
    3bc4:	46b53423          	sd	a1,1128(a0) # 1468 <.LBB69_5+0x4c>
    3bc8:	ec843503          	ld	a0,-312(s0)
    3bcc:	000015b7          	lui	a1,0x1
    3bd0:	40b405b3          	sub	a1,s0,a1
    3bd4:	7e85b583          	ld	a1,2024(a1) # 17e8 <.LBB69_5+0x3cc>
    3bd8:	00a58533          	add	a0,a1,a0
    3bdc:	01a50533          	add	a0,a0,s10
    3be0:	401605bb          	subw	a1,a2,ra
    3be4:	40b5053b          	subw	a0,a0,a1
    3be8:	400005b7          	lui	a1,0x40000
    3bec:	000012b7          	lui	t0,0x1
    3bf0:	405402b3          	sub	t0,s0,t0
    3bf4:	42a2bc23          	sd	a0,1080(t0) # 1438 <.LBB69_5+0x1c>
    3bf8:	00055463          	bgez	a0,3c00 <.LBB69_96>
    3bfc:	c00005b7          	lui	a1,0xc0000

0000000000003c00 <.LBB69_96>:
    3c00:	00001537          	lui	a0,0x1
    3c04:	40a40533          	sub	a0,s0,a0
    3c08:	40b53c23          	sd	a1,1048(a0) # 1418 <.LBB69_4+0x5a0>
    3c0c:	ed043503          	ld	a0,-304(s0)
    3c10:	000015b7          	lui	a1,0x1
    3c14:	40b405b3          	sub	a1,s0,a1
    3c18:	7f05b583          	ld	a1,2032(a1) # 17f0 <.LBB69_5+0x3d4>
    3c1c:	00a58533          	add	a0,a1,a0
    3c20:	01950533          	add	a0,a0,s9
    3c24:	401605bb          	subw	a1,a2,ra
    3c28:	40b5053b          	subw	a0,a0,a1
    3c2c:	400005b7          	lui	a1,0x40000
    3c30:	000012b7          	lui	t0,0x1
    3c34:	405402b3          	sub	t0,s0,t0
    3c38:	3ea2b023          	sd	a0,992(t0) # 13e0 <.LBB69_4+0x568>
    3c3c:	00055463          	bgez	a0,3c44 <.LBB69_98>
    3c40:	c00005b7          	lui	a1,0xc0000

0000000000003c44 <.LBB69_98>:
    3c44:	00001537          	lui	a0,0x1
    3c48:	40a40533          	sub	a0,s0,a0
    3c4c:	3ab53c23          	sd	a1,952(a0) # 13b8 <.LBB69_4+0x540>
    3c50:	ed843503          	ld	a0,-296(s0)
    3c54:	000015b7          	lui	a1,0x1
    3c58:	40b405b3          	sub	a1,s0,a1
    3c5c:	7f85b583          	ld	a1,2040(a1) # 17f8 <.LBB69_5+0x3dc>
    3c60:	00a58533          	add	a0,a1,a0
    3c64:	01850533          	add	a0,a0,s8
    3c68:	401605bb          	subw	a1,a2,ra
    3c6c:	40b5053b          	subw	a0,a0,a1
    3c70:	400005b7          	lui	a1,0x40000
    3c74:	000012b7          	lui	t0,0x1
    3c78:	405402b3          	sub	t0,s0,t0
    3c7c:	36a2bc23          	sd	a0,888(t0) # 1378 <.LBB69_4+0x500>
    3c80:	00055463          	bgez	a0,3c88 <.LBB69_100>
    3c84:	c00005b7          	lui	a1,0xc0000

0000000000003c88 <.LBB69_100>:
    3c88:	00001537          	lui	a0,0x1
    3c8c:	40a40533          	sub	a0,s0,a0
    3c90:	34b53823          	sd	a1,848(a0) # 1350 <.LBB69_4+0x4d8>
    3c94:	ee043503          	ld	a0,-288(s0)
    3c98:	80043583          	ld	a1,-2048(s0)
    3c9c:	00a58533          	add	a0,a1,a0
    3ca0:	01750533          	add	a0,a0,s7
    3ca4:	401605bb          	subw	a1,a2,ra
    3ca8:	40b5053b          	subw	a0,a0,a1
    3cac:	400005b7          	lui	a1,0x40000
    3cb0:	000012b7          	lui	t0,0x1
    3cb4:	405402b3          	sub	t0,s0,t0
    3cb8:	30a2b823          	sd	a0,784(t0) # 1310 <.LBB69_4+0x498>
    3cbc:	00055463          	bgez	a0,3cc4 <.LBB69_102>
    3cc0:	c00005b7          	lui	a1,0xc0000

0000000000003cc4 <.LBB69_102>:
    3cc4:	00001537          	lui	a0,0x1
    3cc8:	40a40533          	sub	a0,s0,a0
    3ccc:	2eb53423          	sd	a1,744(a0) # 12e8 <.LBB69_4+0x470>
    3cd0:	ee843503          	ld	a0,-280(s0)
    3cd4:	80843583          	ld	a1,-2040(s0)
    3cd8:	00a58533          	add	a0,a1,a0
    3cdc:	01650533          	add	a0,a0,s6
    3ce0:	401605bb          	subw	a1,a2,ra
    3ce4:	40b5053b          	subw	a0,a0,a1
    3ce8:	400005b7          	lui	a1,0x40000
    3cec:	000012b7          	lui	t0,0x1
    3cf0:	405402b3          	sub	t0,s0,t0
    3cf4:	2aa2b423          	sd	a0,680(t0) # 12a8 <.LBB69_4+0x430>
    3cf8:	00055463          	bgez	a0,3d00 <.LBB69_104>
    3cfc:	c00005b7          	lui	a1,0xc0000

0000000000003d00 <.LBB69_104>:
    3d00:	00001537          	lui	a0,0x1
    3d04:	40a40533          	sub	a0,s0,a0
    3d08:	26b53c23          	sd	a1,632(a0) # 1278 <.LBB69_4+0x400>
    3d0c:	ef043503          	ld	a0,-272(s0)
    3d10:	81043583          	ld	a1,-2032(s0)
    3d14:	00a58533          	add	a0,a1,a0
    3d18:	01550533          	add	a0,a0,s5
    3d1c:	401605bb          	subw	a1,a2,ra
    3d20:	40b5053b          	subw	a0,a0,a1
    3d24:	400005b7          	lui	a1,0x40000
    3d28:	000012b7          	lui	t0,0x1
    3d2c:	405402b3          	sub	t0,s0,t0
    3d30:	22a2b823          	sd	a0,560(t0) # 1230 <.LBB69_4+0x3b8>
    3d34:	00055463          	bgez	a0,3d3c <.LBB69_106>
    3d38:	c00005b7          	lui	a1,0xc0000

0000000000003d3c <.LBB69_106>:
    3d3c:	00001537          	lui	a0,0x1
    3d40:	40a40533          	sub	a0,s0,a0
    3d44:	20b53023          	sd	a1,512(a0) # 1200 <.LBB69_4+0x388>
    3d48:	ef843503          	ld	a0,-264(s0)
    3d4c:	81843583          	ld	a1,-2024(s0)
    3d50:	00a58533          	add	a0,a1,a0
    3d54:	000015b7          	lui	a1,0x1
    3d58:	40b405b3          	sub	a1,s0,a1
    3d5c:	7185b583          	ld	a1,1816(a1) # 1718 <.LBB69_5+0x2fc>
    3d60:	00b50533          	add	a0,a0,a1
    3d64:	401605bb          	subw	a1,a2,ra
    3d68:	40b5053b          	subw	a0,a0,a1
    3d6c:	400005b7          	lui	a1,0x40000
    3d70:	000012b7          	lui	t0,0x1
    3d74:	405402b3          	sub	t0,s0,t0
    3d78:	1aa2bc23          	sd	a0,440(t0) # 11b8 <.LBB69_4+0x340>
    3d7c:	00055463          	bgez	a0,3d84 <.LBB69_108>
    3d80:	c00005b7          	lui	a1,0xc0000

0000000000003d84 <.LBB69_108>:
    3d84:	00001537          	lui	a0,0x1
    3d88:	40a40533          	sub	a0,s0,a0
    3d8c:	18b53823          	sd	a1,400(a0) # 1190 <.LBB69_4+0x318>
    3d90:	f0043503          	ld	a0,-256(s0)
    3d94:	82043583          	ld	a1,-2016(s0)
    3d98:	00a58533          	add	a0,a1,a0
    3d9c:	01350533          	add	a0,a0,s3
    3da0:	401605bb          	subw	a1,a2,ra
    3da4:	40b5053b          	subw	a0,a0,a1
    3da8:	400005b7          	lui	a1,0x40000
    3dac:	000012b7          	lui	t0,0x1
    3db0:	405402b3          	sub	t0,s0,t0
    3db4:	14a2b023          	sd	a0,320(t0) # 1140 <.LBB69_4+0x2c8>
    3db8:	00055463          	bgez	a0,3dc0 <.LBB69_110>
    3dbc:	c00005b7          	lui	a1,0xc0000

0000000000003dc0 <.LBB69_110>:
    3dc0:	00001537          	lui	a0,0x1
    3dc4:	40a40533          	sub	a0,s0,a0
    3dc8:	10b53823          	sd	a1,272(a0) # 1110 <.LBB69_4+0x298>
    3dcc:	f0843503          	ld	a0,-248(s0)
    3dd0:	82843583          	ld	a1,-2008(s0)
    3dd4:	00a58533          	add	a0,a1,a0
    3dd8:	01250533          	add	a0,a0,s2
    3ddc:	401605bb          	subw	a1,a2,ra
    3de0:	40b5053b          	subw	a0,a0,a1
    3de4:	400005b7          	lui	a1,0x40000
    3de8:	000012b7          	lui	t0,0x1
    3dec:	405402b3          	sub	t0,s0,t0
    3df0:	0ca2b423          	sd	a0,200(t0) # 10c8 <.LBB69_4+0x250>
    3df4:	00055463          	bgez	a0,3dfc <.LBB69_112>
    3df8:	c00005b7          	lui	a1,0xc0000

0000000000003dfc <.LBB69_112>:
    3dfc:	00001537          	lui	a0,0x1
    3e00:	40a40533          	sub	a0,s0,a0
    3e04:	08b53c23          	sd	a1,152(a0) # 1098 <.LBB69_4+0x220>
    3e08:	f3843503          	ld	a0,-200(s0)
    3e0c:	83043583          	ld	a1,-2000(s0)
    3e10:	00a58533          	add	a0,a1,a0
    3e14:	000015b7          	lui	a1,0x1
    3e18:	40b405b3          	sub	a1,s0,a1
    3e1c:	7305b583          	ld	a1,1840(a1) # 1730 <.LBB69_5+0x314>
    3e20:	00b50533          	add	a0,a0,a1
    3e24:	401605bb          	subw	a1,a2,ra
    3e28:	40b5053b          	subw	a0,a0,a1
    3e2c:	400005b7          	lui	a1,0x40000
    3e30:	000012b7          	lui	t0,0x1
    3e34:	405402b3          	sub	t0,s0,t0
    3e38:	04a2b823          	sd	a0,80(t0) # 1050 <.LBB69_4+0x1d8>
    3e3c:	00055463          	bgez	a0,3e44 <.LBB69_114>
    3e40:	c00005b7          	lui	a1,0xc0000

0000000000003e44 <.LBB69_114>:
    3e44:	00001537          	lui	a0,0x1
    3e48:	40a40533          	sub	a0,s0,a0
    3e4c:	02b53423          	sd	a1,40(a0) # 1028 <.LBB69_4+0x1b0>
    3e50:	f4043503          	ld	a0,-192(s0)
    3e54:	83843583          	ld	a1,-1992(s0)
    3e58:	00a58533          	add	a0,a1,a0
    3e5c:	000015b7          	lui	a1,0x1
    3e60:	40b405b3          	sub	a1,s0,a1
    3e64:	7385b583          	ld	a1,1848(a1) # 1738 <.LBB69_5+0x31c>
    3e68:	00b50533          	add	a0,a0,a1
    3e6c:	401605bb          	subw	a1,a2,ra
    3e70:	40b5053b          	subw	a0,a0,a1
    3e74:	400005b7          	lui	a1,0x40000
    3e78:	000012b7          	lui	t0,0x1
    3e7c:	405402b3          	sub	t0,s0,t0
    3e80:	fea2b023          	sd	a0,-32(t0) # fe0 <.LBB69_4+0x168>
    3e84:	00055463          	bgez	a0,3e8c <.LBB69_116>
    3e88:	c00005b7          	lui	a1,0xc0000

0000000000003e8c <.LBB69_116>:
    3e8c:	00001537          	lui	a0,0x1
    3e90:	40a40533          	sub	a0,s0,a0
    3e94:	fab53823          	sd	a1,-80(a0) # fb0 <.LBB69_4+0x138>
    3e98:	f4843503          	ld	a0,-184(s0)
    3e9c:	84043583          	ld	a1,-1984(s0)
    3ea0:	00a58533          	add	a0,a1,a0
    3ea4:	000015b7          	lui	a1,0x1
    3ea8:	40b405b3          	sub	a1,s0,a1
    3eac:	7405b583          	ld	a1,1856(a1) # 1740 <.LBB69_5+0x324>
    3eb0:	00b50533          	add	a0,a0,a1
    3eb4:	401605bb          	subw	a1,a2,ra
    3eb8:	40b5053b          	subw	a0,a0,a1
    3ebc:	400005b7          	lui	a1,0x40000
    3ec0:	000012b7          	lui	t0,0x1
    3ec4:	405402b3          	sub	t0,s0,t0
    3ec8:	f6a2b423          	sd	a0,-152(t0) # f68 <.LBB69_4+0xf0>
    3ecc:	00055463          	bgez	a0,3ed4 <.LBB69_118>
    3ed0:	c00005b7          	lui	a1,0xc0000

0000000000003ed4 <.LBB69_118>:
    3ed4:	00001537          	lui	a0,0x1
    3ed8:	40a40533          	sub	a0,s0,a0
    3edc:	f4b53023          	sd	a1,-192(a0) # f40 <.LBB69_4+0xc8>
    3ee0:	f5043503          	ld	a0,-176(s0)
    3ee4:	84843583          	ld	a1,-1976(s0)
    3ee8:	00a58533          	add	a0,a1,a0
    3eec:	01e50533          	add	a0,a0,t5
    3ef0:	401605bb          	subw	a1,a2,ra
    3ef4:	40b5053b          	subw	a0,a0,a1
    3ef8:	400005b7          	lui	a1,0x40000
    3efc:	000012b7          	lui	t0,0x1
    3f00:	405402b3          	sub	t0,s0,t0
    3f04:	eea2bc23          	sd	a0,-264(t0) # ef8 <.LBB69_4+0x80>
    3f08:	00055463          	bgez	a0,3f10 <.LBB69_120>
    3f0c:	c00005b7          	lui	a1,0xc0000

0000000000003f10 <.LBB69_120>:
    3f10:	00001537          	lui	a0,0x1
    3f14:	40a40533          	sub	a0,s0,a0
    3f18:	ecb53023          	sd	a1,-320(a0) # ec0 <.LBB69_4+0x48>
    3f1c:	f5843503          	ld	a0,-168(s0)
    3f20:	85043583          	ld	a1,-1968(s0)
    3f24:	00a58533          	add	a0,a1,a0
    3f28:	01c50533          	add	a0,a0,t3
    3f2c:	401605bb          	subw	a1,a2,ra
    3f30:	40b5053b          	subw	a0,a0,a1
    3f34:	400005b7          	lui	a1,0x40000
    3f38:	000012b7          	lui	t0,0x1
    3f3c:	405402b3          	sub	t0,s0,t0
    3f40:	e6a2bc23          	sd	a0,-392(t0) # e78 <.LBB69_4>
    3f44:	00055463          	bgez	a0,3f4c <.LBB69_122>
    3f48:	c00005b7          	lui	a1,0xc0000

0000000000003f4c <.LBB69_122>:
    3f4c:	00001537          	lui	a0,0x1
    3f50:	40a40533          	sub	a0,s0,a0
    3f54:	e4b53423          	sd	a1,-440(a0) # e48 <.LBB69_3+0xc24>
    3f58:	f6043503          	ld	a0,-160(s0)
    3f5c:	85843583          	ld	a1,-1960(s0)
    3f60:	00a58533          	add	a0,a1,a0
    3f64:	00750533          	add	a0,a0,t2
    3f68:	401605bb          	subw	a1,a2,ra
    3f6c:	40b5053b          	subw	a0,a0,a1
    3f70:	400005b7          	lui	a1,0x40000
    3f74:	000012b7          	lui	t0,0x1
    3f78:	405402b3          	sub	t0,s0,t0
    3f7c:	e0a2b023          	sd	a0,-512(t0) # e00 <.LBB69_3+0xbdc>
    3f80:	00055463          	bgez	a0,3f88 <.LBB69_124>
    3f84:	c00005b7          	lui	a1,0xc0000

0000000000003f88 <.LBB69_124>:
    3f88:	00001537          	lui	a0,0x1
    3f8c:	40a40533          	sub	a0,s0,a0
    3f90:	dcb53423          	sd	a1,-568(a0) # dc8 <.LBB69_3+0xba4>
    3f94:	f6843503          	ld	a0,-152(s0)
    3f98:	86043583          	ld	a1,-1952(s0)
    3f9c:	00a58533          	add	a0,a1,a0
    3fa0:	00650533          	add	a0,a0,t1
    3fa4:	401605bb          	subw	a1,a2,ra
    3fa8:	40b5053b          	subw	a0,a0,a1
    3fac:	400005b7          	lui	a1,0x40000
    3fb0:	000012b7          	lui	t0,0x1
    3fb4:	405402b3          	sub	t0,s0,t0
    3fb8:	d8a2b023          	sd	a0,-640(t0) # d80 <.LBB69_3+0xb5c>
    3fbc:	00055463          	bgez	a0,3fc4 <.LBB69_126>
    3fc0:	c00005b7          	lui	a1,0xc0000

0000000000003fc4 <.LBB69_126>:
    3fc4:	00001537          	lui	a0,0x1
    3fc8:	40a40533          	sub	a0,s0,a0
    3fcc:	d4b53823          	sd	a1,-688(a0) # d50 <.LBB69_3+0xb2c>
    3fd0:	f7043503          	ld	a0,-144(s0)
    3fd4:	86843583          	ld	a1,-1944(s0)
    3fd8:	00a58533          	add	a0,a1,a0
    3fdc:	01f50533          	add	a0,a0,t6
    3fe0:	401605bb          	subw	a1,a2,ra
    3fe4:	40b5053b          	subw	a0,a0,a1
    3fe8:	400005b7          	lui	a1,0x40000
    3fec:	000012b7          	lui	t0,0x1
    3ff0:	405402b3          	sub	t0,s0,t0
    3ff4:	d0a2b423          	sd	a0,-760(t0) # d08 <.LBB69_3+0xae4>
    3ff8:	00055463          	bgez	a0,4000 <.LBB69_128>
    3ffc:	c00005b7          	lui	a1,0xc0000

0000000000004000 <.LBB69_128>:
    4000:	00001537          	lui	a0,0x1
    4004:	40a40533          	sub	a0,s0,a0
    4008:	ceb53023          	sd	a1,-800(a0) # ce0 <.LBB69_3+0xabc>
    400c:	f7843503          	ld	a0,-136(s0)
    4010:	87043583          	ld	a1,-1936(s0)
    4014:	00a58533          	add	a0,a1,a0
    4018:	000015b7          	lui	a1,0x1
    401c:	40b405b3          	sub	a1,s0,a1
    4020:	7705b583          	ld	a1,1904(a1) # 1770 <.LBB69_5+0x354>
    4024:	00b50533          	add	a0,a0,a1
    4028:	401605bb          	subw	a1,a2,ra
    402c:	40b5053b          	subw	a0,a0,a1
    4030:	400005b7          	lui	a1,0x40000
    4034:	000012b7          	lui	t0,0x1
    4038:	405402b3          	sub	t0,s0,t0
    403c:	c8a2bc23          	sd	a0,-872(t0) # c98 <.LBB69_3+0xa74>
    4040:	00055463          	bgez	a0,4048 <.LBB69_130>
    4044:	c00005b7          	lui	a1,0xc0000

0000000000004048 <.LBB69_130>:
    4048:	00001537          	lui	a0,0x1
    404c:	40a40533          	sub	a0,s0,a0
    4050:	c8b53823          	sd	a1,-880(a0) # c90 <.LBB69_3+0xa6c>
    4054:	86d43823          	sd	a3,-1936(s0)
    4058:	f8043503          	ld	a0,-128(s0)
    405c:	87843583          	ld	a1,-1928(s0)
    4060:	00a58533          	add	a0,a1,a0
    4064:	00950533          	add	a0,a0,s1
    4068:	401605bb          	subw	a1,a2,ra
    406c:	40b5053b          	subw	a0,a0,a1
    4070:	400005b7          	lui	a1,0x40000
    4074:	000016b7          	lui	a3,0x1
    4078:	40d406b3          	sub	a3,s0,a3
    407c:	c4a6bc23          	sd	a0,-936(a3) # c58 <.LBB69_3+0xa34>
    4080:	00055463          	bgez	a0,4088 <.LBB69_132>
    4084:	c00005b7          	lui	a1,0xc0000

0000000000004088 <.LBB69_132>:
    4088:	00001537          	lui	a0,0x1
    408c:	40a40533          	sub	a0,s0,a0
    4090:	c4b53023          	sd	a1,-960(a0) # c40 <.LBB69_3+0xa1c>
    4094:	f8843503          	ld	a0,-120(s0)
    4098:	88043583          	ld	a1,-1920(s0)
    409c:	00a58533          	add	a0,a1,a0
    40a0:	01d50533          	add	a0,a0,t4
    40a4:	401605bb          	subw	a1,a2,ra
    40a8:	40b506bb          	subw	a3,a0,a1
    40ac:	40000537          	lui	a0,0x40000
    40b0:	0006d463          	bgez	a3,40b8 <.LBB69_134>
    40b4:	c0000537          	lui	a0,0xc0000

00000000000040b8 <.LBB69_134>:
    40b8:	000015b7          	lui	a1,0x1
    40bc:	40b405b3          	sub	a1,s0,a1
    40c0:	baa5b023          	sd	a0,-1120(a1) # ba0 <.LBB69_3+0x97c>
    40c4:	eb043503          	ld	a0,-336(s0)
    40c8:	88843583          	ld	a1,-1912(s0)
    40cc:	00a58533          	add	a0,a1,a0
    40d0:	ea843583          	ld	a1,-344(s0)
    40d4:	00b50533          	add	a0,a0,a1
    40d8:	401805bb          	subw	a1,a6,ra
    40dc:	40b5053b          	subw	a0,a0,a1
    40e0:	400005b7          	lui	a1,0x40000
    40e4:	88a43423          	sd	a0,-1912(s0)
    40e8:	98843603          	ld	a2,-1656(s0)
    40ec:	00055463          	bgez	a0,40f4 <.LBB69_136>
    40f0:	c00005b7          	lui	a1,0xc0000

00000000000040f4 <.LBB69_136>:
    40f4:	88b43023          	sd	a1,-1920(s0)
    40f8:	ea043503          	ld	a0,-352(s0)
    40fc:	89043583          	ld	a1,-1904(s0)
    4100:	00a58533          	add	a0,a1,a0
    4104:	e9843583          	ld	a1,-360(s0)
    4108:	00b50533          	add	a0,a0,a1
    410c:	401805bb          	subw	a1,a6,ra
    4110:	40b5053b          	subw	a0,a0,a1
    4114:	400005b7          	lui	a1,0x40000
    4118:	88a43823          	sd	a0,-1904(s0)
    411c:	00055463          	bgez	a0,4124 <.LBB69_138>
    4120:	c00005b7          	lui	a1,0xc0000

0000000000004124 <.LBB69_138>:
    4124:	86b43c23          	sd	a1,-1928(s0)
    4128:	e9043503          	ld	a0,-368(s0)
    412c:	89843583          	ld	a1,-1896(s0)
    4130:	00a58533          	add	a0,a1,a0
    4134:	e8843583          	ld	a1,-376(s0)
    4138:	00b50533          	add	a0,a0,a1
    413c:	401805bb          	subw	a1,a6,ra
    4140:	40b5053b          	subw	a0,a0,a1
    4144:	400005b7          	lui	a1,0x40000
    4148:	88a43c23          	sd	a0,-1896(s0)
    414c:	00055463          	bgez	a0,4154 <.LBB69_140>
    4150:	c00005b7          	lui	a1,0xc0000

0000000000004154 <.LBB69_140>:
    4154:	86b43423          	sd	a1,-1944(s0)
    4158:	e8043503          	ld	a0,-384(s0)
    415c:	8a043583          	ld	a1,-1888(s0)
    4160:	00a58533          	add	a0,a1,a0
    4164:	e7843583          	ld	a1,-392(s0)
    4168:	00b50533          	add	a0,a0,a1
    416c:	401805bb          	subw	a1,a6,ra
    4170:	40b5053b          	subw	a0,a0,a1
    4174:	400005b7          	lui	a1,0x40000
    4178:	8aa43023          	sd	a0,-1888(s0)
    417c:	00055463          	bgez	a0,4184 <.LBB69_142>
    4180:	c00005b7          	lui	a1,0xc0000

0000000000004184 <.LBB69_142>:
    4184:	86b43023          	sd	a1,-1952(s0)
    4188:	e7043503          	ld	a0,-400(s0)
    418c:	8a843583          	ld	a1,-1880(s0)
    4190:	00a58533          	add	a0,a1,a0
    4194:	e6843583          	ld	a1,-408(s0)
    4198:	00b50533          	add	a0,a0,a1
    419c:	401805bb          	subw	a1,a6,ra
    41a0:	40b5053b          	subw	a0,a0,a1
    41a4:	400005b7          	lui	a1,0x40000
    41a8:	8aa43423          	sd	a0,-1880(s0)
    41ac:	00055463          	bgez	a0,41b4 <.LBB69_144>
    41b0:	c00005b7          	lui	a1,0xc0000

00000000000041b4 <.LBB69_144>:
    41b4:	84b43c23          	sd	a1,-1960(s0)
    41b8:	00001537          	lui	a0,0x1
    41bc:	40a40533          	sub	a0,s0,a0
    41c0:	6c853503          	ld	a0,1736(a0) # 16c8 <.LBB69_5+0x2ac>
    41c4:	8b043583          	ld	a1,-1872(s0)
    41c8:	00a58533          	add	a0,a1,a0
    41cc:	000015b7          	lui	a1,0x1
    41d0:	40b405b3          	sub	a1,s0,a1
    41d4:	6c05b583          	ld	a1,1728(a1) # 16c0 <.LBB69_5+0x2a4>
    41d8:	00b50533          	add	a0,a0,a1
    41dc:	401805bb          	subw	a1,a6,ra
    41e0:	40b5053b          	subw	a0,a0,a1
    41e4:	400005b7          	lui	a1,0x40000
    41e8:	8aa43823          	sd	a0,-1872(s0)
    41ec:	00055463          	bgez	a0,41f4 <.LBB69_146>
    41f0:	c00005b7          	lui	a1,0xc0000

00000000000041f4 <.LBB69_146>:
    41f4:	84b43823          	sd	a1,-1968(s0)
    41f8:	00001537          	lui	a0,0x1
    41fc:	40a40533          	sub	a0,s0,a0
    4200:	6b853503          	ld	a0,1720(a0) # 16b8 <.LBB69_5+0x29c>
    4204:	8b843583          	ld	a1,-1864(s0)
    4208:	00a58533          	add	a0,a1,a0
    420c:	000015b7          	lui	a1,0x1
    4210:	40b405b3          	sub	a1,s0,a1
    4214:	6b05b583          	ld	a1,1712(a1) # 16b0 <.LBB69_5+0x294>
    4218:	00b50533          	add	a0,a0,a1
    421c:	401805bb          	subw	a1,a6,ra
    4220:	40b5053b          	subw	a0,a0,a1
    4224:	400005b7          	lui	a1,0x40000
    4228:	84a43023          	sd	a0,-1984(s0)
    422c:	00055463          	bgez	a0,4234 <.LBB69_148>
    4230:	c00005b7          	lui	a1,0xc0000

0000000000004234 <.LBB69_148>:
    4234:	00001537          	lui	a0,0x1
    4238:	40a40533          	sub	a0,s0,a0
    423c:	7cb53023          	sd	a1,1984(a0) # 17c0 <.LBB69_5+0x3a4>
    4240:	8c043503          	ld	a0,-1856(s0)
    4244:	000015b7          	lui	a1,0x1
    4248:	40b405b3          	sub	a1,s0,a1
    424c:	6a85b583          	ld	a1,1704(a1) # 16a8 <.LBB69_5+0x28c>
    4250:	00b50533          	add	a0,a0,a1
    4254:	000015b7          	lui	a1,0x1
    4258:	40b405b3          	sub	a1,s0,a1
    425c:	6a05b583          	ld	a1,1696(a1) # 16a0 <.LBB69_5+0x284>
    4260:	00b50533          	add	a0,a0,a1
    4264:	401805bb          	subw	a1,a6,ra
    4268:	40b5053b          	subw	a0,a0,a1
    426c:	400005b7          	lui	a1,0x40000
    4270:	000012b7          	lui	t0,0x1
    4274:	405402b3          	sub	t0,s0,t0
    4278:	70a2b023          	sd	a0,1792(t0) # 1700 <.LBB69_5+0x2e4>
    427c:	00055463          	bgez	a0,4284 <.LBB69_150>
    4280:	c00005b7          	lui	a1,0xc0000

0000000000004284 <.LBB69_150>:
    4284:	00001537          	lui	a0,0x1
    4288:	40a40533          	sub	a0,s0,a0
    428c:	5cb53023          	sd	a1,1472(a0) # 15c0 <.LBB69_5+0x1a4>
    4290:	8c843503          	ld	a0,-1848(s0)
    4294:	000015b7          	lui	a1,0x1
    4298:	40b405b3          	sub	a1,s0,a1
    429c:	6985b583          	ld	a1,1688(a1) # 1698 <.LBB69_5+0x27c>
    42a0:	00b50533          	add	a0,a0,a1
    42a4:	000015b7          	lui	a1,0x1
    42a8:	40b405b3          	sub	a1,s0,a1
    42ac:	6905b583          	ld	a1,1680(a1) # 1690 <.LBB69_5+0x274>
    42b0:	00b50533          	add	a0,a0,a1
    42b4:	401805bb          	subw	a1,a6,ra
    42b8:	40b5053b          	subw	a0,a0,a1
    42bc:	400005b7          	lui	a1,0x40000
    42c0:	000012b7          	lui	t0,0x1
    42c4:	405402b3          	sub	t0,s0,t0
    42c8:	58a2b423          	sd	a0,1416(t0) # 1588 <.LBB69_5+0x16c>
    42cc:	00055463          	bgez	a0,42d4 <.LBB69_152>
    42d0:	c00005b7          	lui	a1,0xc0000

00000000000042d4 <.LBB69_152>:
    42d4:	00001537          	lui	a0,0x1
    42d8:	40a40533          	sub	a0,s0,a0
    42dc:	56b53423          	sd	a1,1384(a0) # 1568 <.LBB69_5+0x14c>
    42e0:	8d043503          	ld	a0,-1840(s0)
    42e4:	000015b7          	lui	a1,0x1
    42e8:	40b405b3          	sub	a1,s0,a1
    42ec:	6885b583          	ld	a1,1672(a1) # 1688 <.LBB69_5+0x26c>
    42f0:	00b50533          	add	a0,a0,a1
    42f4:	000015b7          	lui	a1,0x1
    42f8:	40b405b3          	sub	a1,s0,a1
    42fc:	6d05b583          	ld	a1,1744(a1) # 16d0 <.LBB69_5+0x2b4>
    4300:	00b50533          	add	a0,a0,a1
    4304:	401805bb          	subw	a1,a6,ra
    4308:	40b5053b          	subw	a0,a0,a1
    430c:	400005b7          	lui	a1,0x40000
    4310:	000012b7          	lui	t0,0x1
    4314:	405402b3          	sub	t0,s0,t0
    4318:	52a2bc23          	sd	a0,1336(t0) # 1538 <.LBB69_5+0x11c>
    431c:	00055463          	bgez	a0,4324 <.LBB69_154>
    4320:	c00005b7          	lui	a1,0xc0000

0000000000004324 <.LBB69_154>:
    4324:	00001537          	lui	a0,0x1
    4328:	40a40533          	sub	a0,s0,a0
    432c:	50b53423          	sd	a1,1288(a0) # 1508 <.LBB69_5+0xec>
    4330:	8d843503          	ld	a0,-1832(s0)
    4334:	eb843583          	ld	a1,-328(s0)
    4338:	00b50533          	add	a0,a0,a1
    433c:	000015b7          	lui	a1,0x1
    4340:	40b405b3          	sub	a1,s0,a1
    4344:	6d85b583          	ld	a1,1752(a1) # 16d8 <.LBB69_5+0x2bc>
    4348:	00b50533          	add	a0,a0,a1
    434c:	401805bb          	subw	a1,a6,ra
    4350:	40b5053b          	subw	a0,a0,a1
    4354:	400005b7          	lui	a1,0x40000
    4358:	000012b7          	lui	t0,0x1
    435c:	405402b3          	sub	t0,s0,t0
    4360:	4ca2bc23          	sd	a0,1240(t0) # 14d8 <.LBB69_5+0xbc>
    4364:	00055463          	bgez	a0,436c <.LBB69_156>
    4368:	c00005b7          	lui	a1,0xc0000

000000000000436c <.LBB69_156>:
    436c:	00001537          	lui	a0,0x1
    4370:	40a40533          	sub	a0,s0,a0
    4374:	4ab53823          	sd	a1,1200(a0) # 14b0 <.LBB69_5+0x94>
    4378:	8e043503          	ld	a0,-1824(s0)
    437c:	ec043583          	ld	a1,-320(s0)
    4380:	00b50533          	add	a0,a0,a1
    4384:	01b50533          	add	a0,a0,s11
    4388:	401805bb          	subw	a1,a6,ra
    438c:	40b5053b          	subw	a0,a0,a1
    4390:	400005b7          	lui	a1,0x40000
    4394:	000012b7          	lui	t0,0x1
    4398:	405402b3          	sub	t0,s0,t0
    439c:	48a2b423          	sd	a0,1160(t0) # 1488 <.LBB69_5+0x6c>
    43a0:	00055463          	bgez	a0,43a8 <.LBB69_158>
    43a4:	c00005b7          	lui	a1,0xc0000

00000000000043a8 <.LBB69_158>:
    43a8:	00001537          	lui	a0,0x1
    43ac:	40a40533          	sub	a0,s0,a0
    43b0:	46b53023          	sd	a1,1120(a0) # 1460 <.LBB69_5+0x44>
    43b4:	8e843503          	ld	a0,-1816(s0)
    43b8:	ec843583          	ld	a1,-312(s0)
    43bc:	00b50533          	add	a0,a0,a1
    43c0:	01a50533          	add	a0,a0,s10
    43c4:	401805bb          	subw	a1,a6,ra
    43c8:	40b5053b          	subw	a0,a0,a1
    43cc:	400005b7          	lui	a1,0x40000
    43d0:	000012b7          	lui	t0,0x1
    43d4:	405402b3          	sub	t0,s0,t0
    43d8:	42a2b823          	sd	a0,1072(t0) # 1430 <.LBB69_5+0x14>
    43dc:	00055463          	bgez	a0,43e4 <.LBB69_160>
    43e0:	c00005b7          	lui	a1,0xc0000

00000000000043e4 <.LBB69_160>:
    43e4:	00001537          	lui	a0,0x1
    43e8:	40a40533          	sub	a0,s0,a0
    43ec:	40b53823          	sd	a1,1040(a0) # 1410 <.LBB69_4+0x598>
    43f0:	8f043503          	ld	a0,-1808(s0)
    43f4:	ed043583          	ld	a1,-304(s0)
    43f8:	00b50533          	add	a0,a0,a1
    43fc:	01950533          	add	a0,a0,s9
    4400:	401805bb          	subw	a1,a6,ra
    4404:	40b5053b          	subw	a0,a0,a1
    4408:	400005b7          	lui	a1,0x40000
    440c:	000012b7          	lui	t0,0x1
    4410:	405402b3          	sub	t0,s0,t0
    4414:	3ca2bc23          	sd	a0,984(t0) # 13d8 <.LBB69_4+0x560>
    4418:	00055463          	bgez	a0,4420 <.LBB69_162>
    441c:	c00005b7          	lui	a1,0xc0000

0000000000004420 <.LBB69_162>:
    4420:	00001537          	lui	a0,0x1
    4424:	40a40533          	sub	a0,s0,a0
    4428:	3ab53823          	sd	a1,944(a0) # 13b0 <.LBB69_4+0x538>
    442c:	8f843503          	ld	a0,-1800(s0)
    4430:	ed843583          	ld	a1,-296(s0)
    4434:	00b50533          	add	a0,a0,a1
    4438:	01850533          	add	a0,a0,s8
    443c:	401805bb          	subw	a1,a6,ra
    4440:	40b5053b          	subw	a0,a0,a1
    4444:	400005b7          	lui	a1,0x40000
    4448:	000012b7          	lui	t0,0x1
    444c:	405402b3          	sub	t0,s0,t0
    4450:	36a2b823          	sd	a0,880(t0) # 1370 <.LBB69_4+0x4f8>
    4454:	00055463          	bgez	a0,445c <.LBB69_164>
    4458:	c00005b7          	lui	a1,0xc0000

000000000000445c <.LBB69_164>:
    445c:	00001537          	lui	a0,0x1
    4460:	40a40533          	sub	a0,s0,a0
    4464:	34b53423          	sd	a1,840(a0) # 1348 <.LBB69_4+0x4d0>
    4468:	90043503          	ld	a0,-1792(s0)
    446c:	ee043583          	ld	a1,-288(s0)
    4470:	00b50533          	add	a0,a0,a1
    4474:	01750533          	add	a0,a0,s7
    4478:	401805bb          	subw	a1,a6,ra
    447c:	40b5053b          	subw	a0,a0,a1
    4480:	400005b7          	lui	a1,0x40000
    4484:	000012b7          	lui	t0,0x1
    4488:	405402b3          	sub	t0,s0,t0
    448c:	30a2b423          	sd	a0,776(t0) # 1308 <.LBB69_4+0x490>
    4490:	00055463          	bgez	a0,4498 <.LBB69_166>
    4494:	c00005b7          	lui	a1,0xc0000

0000000000004498 <.LBB69_166>:
    4498:	00001537          	lui	a0,0x1
    449c:	40a40533          	sub	a0,s0,a0
    44a0:	2eb53023          	sd	a1,736(a0) # 12e0 <.LBB69_4+0x468>
    44a4:	90843503          	ld	a0,-1784(s0)
    44a8:	ee843583          	ld	a1,-280(s0)
    44ac:	00b50533          	add	a0,a0,a1
    44b0:	01650533          	add	a0,a0,s6
    44b4:	401805bb          	subw	a1,a6,ra
    44b8:	40b5053b          	subw	a0,a0,a1
    44bc:	400005b7          	lui	a1,0x40000
    44c0:	000012b7          	lui	t0,0x1
    44c4:	405402b3          	sub	t0,s0,t0
    44c8:	2aa2b023          	sd	a0,672(t0) # 12a0 <.LBB69_4+0x428>
    44cc:	00055463          	bgez	a0,44d4 <.LBB69_168>
    44d0:	c00005b7          	lui	a1,0xc0000

00000000000044d4 <.LBB69_168>:
    44d4:	00001537          	lui	a0,0x1
    44d8:	40a40533          	sub	a0,s0,a0
    44dc:	26b53823          	sd	a1,624(a0) # 1270 <.LBB69_4+0x3f8>
    44e0:	91043503          	ld	a0,-1776(s0)
    44e4:	ef043583          	ld	a1,-272(s0)
    44e8:	00b50533          	add	a0,a0,a1
    44ec:	01550533          	add	a0,a0,s5
    44f0:	401805bb          	subw	a1,a6,ra
    44f4:	40b5053b          	subw	a0,a0,a1
    44f8:	400005b7          	lui	a1,0x40000
    44fc:	000012b7          	lui	t0,0x1
    4500:	405402b3          	sub	t0,s0,t0
    4504:	22a2b423          	sd	a0,552(t0) # 1228 <.LBB69_4+0x3b0>
    4508:	00055463          	bgez	a0,4510 <.LBB69_170>
    450c:	c00005b7          	lui	a1,0xc0000

0000000000004510 <.LBB69_170>:
    4510:	00001537          	lui	a0,0x1
    4514:	40a40533          	sub	a0,s0,a0
    4518:	1eb53c23          	sd	a1,504(a0) # 11f8 <.LBB69_4+0x380>
    451c:	91843503          	ld	a0,-1768(s0)
    4520:	ef843583          	ld	a1,-264(s0)
    4524:	00b50533          	add	a0,a0,a1
    4528:	000015b7          	lui	a1,0x1
    452c:	40b405b3          	sub	a1,s0,a1
    4530:	7185b583          	ld	a1,1816(a1) # 1718 <.LBB69_5+0x2fc>
    4534:	00b50533          	add	a0,a0,a1
    4538:	401805bb          	subw	a1,a6,ra
    453c:	40b5053b          	subw	a0,a0,a1
    4540:	400005b7          	lui	a1,0x40000
    4544:	000012b7          	lui	t0,0x1
    4548:	405402b3          	sub	t0,s0,t0
    454c:	1aa2b823          	sd	a0,432(t0) # 11b0 <.LBB69_4+0x338>
    4550:	00055463          	bgez	a0,4558 <.LBB69_172>
    4554:	c00005b7          	lui	a1,0xc0000

0000000000004558 <.LBB69_172>:
    4558:	00001537          	lui	a0,0x1
    455c:	40a40533          	sub	a0,s0,a0
    4560:	18b53423          	sd	a1,392(a0) # 1188 <.LBB69_4+0x310>
    4564:	92043503          	ld	a0,-1760(s0)
    4568:	f0043583          	ld	a1,-256(s0)
    456c:	00b50533          	add	a0,a0,a1
    4570:	01350533          	add	a0,a0,s3
    4574:	401805bb          	subw	a1,a6,ra
    4578:	40b5053b          	subw	a0,a0,a1
    457c:	400005b7          	lui	a1,0x40000
    4580:	000012b7          	lui	t0,0x1
    4584:	405402b3          	sub	t0,s0,t0
    4588:	12a2bc23          	sd	a0,312(t0) # 1138 <.LBB69_4+0x2c0>
    458c:	00055463          	bgez	a0,4594 <.LBB69_174>
    4590:	c00005b7          	lui	a1,0xc0000

0000000000004594 <.LBB69_174>:
    4594:	00001537          	lui	a0,0x1
    4598:	40a40533          	sub	a0,s0,a0
    459c:	10b53423          	sd	a1,264(a0) # 1108 <.LBB69_4+0x290>
    45a0:	92843503          	ld	a0,-1752(s0)
    45a4:	f0843583          	ld	a1,-248(s0)
    45a8:	00b50533          	add	a0,a0,a1
    45ac:	01250533          	add	a0,a0,s2
    45b0:	401805bb          	subw	a1,a6,ra
    45b4:	40b5053b          	subw	a0,a0,a1
    45b8:	400005b7          	lui	a1,0x40000
    45bc:	000012b7          	lui	t0,0x1
    45c0:	405402b3          	sub	t0,s0,t0
    45c4:	0ca2b023          	sd	a0,192(t0) # 10c0 <.LBB69_4+0x248>
    45c8:	00055463          	bgez	a0,45d0 <.LBB69_176>
    45cc:	c00005b7          	lui	a1,0xc0000

00000000000045d0 <.LBB69_176>:
    45d0:	00001537          	lui	a0,0x1
    45d4:	40a40533          	sub	a0,s0,a0
    45d8:	08b53823          	sd	a1,144(a0) # 1090 <.LBB69_4+0x218>
    45dc:	93043503          	ld	a0,-1744(s0)
    45e0:	f3843583          	ld	a1,-200(s0)
    45e4:	00b50533          	add	a0,a0,a1
    45e8:	000015b7          	lui	a1,0x1
    45ec:	40b405b3          	sub	a1,s0,a1
    45f0:	7305b583          	ld	a1,1840(a1) # 1730 <.LBB69_5+0x314>
    45f4:	00b50533          	add	a0,a0,a1
    45f8:	401805bb          	subw	a1,a6,ra
    45fc:	40b5053b          	subw	a0,a0,a1
    4600:	400005b7          	lui	a1,0x40000
    4604:	000012b7          	lui	t0,0x1
    4608:	405402b3          	sub	t0,s0,t0
    460c:	04a2b423          	sd	a0,72(t0) # 1048 <.LBB69_4+0x1d0>
    4610:	00055463          	bgez	a0,4618 <.LBB69_178>
    4614:	c00005b7          	lui	a1,0xc0000

0000000000004618 <.LBB69_178>:
    4618:	00001537          	lui	a0,0x1
    461c:	40a40533          	sub	a0,s0,a0
    4620:	02b53023          	sd	a1,32(a0) # 1020 <.LBB69_4+0x1a8>
    4624:	93843503          	ld	a0,-1736(s0)
    4628:	f4043583          	ld	a1,-192(s0)
    462c:	00b50533          	add	a0,a0,a1
    4630:	000015b7          	lui	a1,0x1
    4634:	40b405b3          	sub	a1,s0,a1
    4638:	7385b583          	ld	a1,1848(a1) # 1738 <.LBB69_5+0x31c>
    463c:	00b50533          	add	a0,a0,a1
    4640:	401805bb          	subw	a1,a6,ra
    4644:	40b5053b          	subw	a0,a0,a1
    4648:	400005b7          	lui	a1,0x40000
    464c:	000012b7          	lui	t0,0x1
    4650:	405402b3          	sub	t0,s0,t0
    4654:	fca2bc23          	sd	a0,-40(t0) # fd8 <.LBB69_4+0x160>
    4658:	00055463          	bgez	a0,4660 <.LBB69_180>
    465c:	c00005b7          	lui	a1,0xc0000

0000000000004660 <.LBB69_180>:
    4660:	00001537          	lui	a0,0x1
    4664:	40a40533          	sub	a0,s0,a0
    4668:	fab53423          	sd	a1,-88(a0) # fa8 <.LBB69_4+0x130>
    466c:	94043503          	ld	a0,-1728(s0)
    4670:	f4843583          	ld	a1,-184(s0)
    4674:	00b50533          	add	a0,a0,a1
    4678:	000015b7          	lui	a1,0x1
    467c:	40b405b3          	sub	a1,s0,a1
    4680:	7405b583          	ld	a1,1856(a1) # 1740 <.LBB69_5+0x324>
    4684:	00b50533          	add	a0,a0,a1
    4688:	401805bb          	subw	a1,a6,ra
    468c:	40b5053b          	subw	a0,a0,a1
    4690:	400005b7          	lui	a1,0x40000
    4694:	000012b7          	lui	t0,0x1
    4698:	405402b3          	sub	t0,s0,t0
    469c:	f6a2b023          	sd	a0,-160(t0) # f60 <.LBB69_4+0xe8>
    46a0:	00055463          	bgez	a0,46a8 <.LBB69_182>
    46a4:	c00005b7          	lui	a1,0xc0000

00000000000046a8 <.LBB69_182>:
    46a8:	00001537          	lui	a0,0x1
    46ac:	40a40533          	sub	a0,s0,a0
    46b0:	f2b53c23          	sd	a1,-200(a0) # f38 <.LBB69_4+0xc0>
    46b4:	94843503          	ld	a0,-1720(s0)
    46b8:	f5043583          	ld	a1,-176(s0)
    46bc:	00b50533          	add	a0,a0,a1
    46c0:	01e50533          	add	a0,a0,t5
    46c4:	401805bb          	subw	a1,a6,ra
    46c8:	40b5053b          	subw	a0,a0,a1
    46cc:	400005b7          	lui	a1,0x40000
    46d0:	000012b7          	lui	t0,0x1
    46d4:	405402b3          	sub	t0,s0,t0
    46d8:	eea2b823          	sd	a0,-272(t0) # ef0 <.LBB69_4+0x78>
    46dc:	00055463          	bgez	a0,46e4 <.LBB69_184>
    46e0:	c00005b7          	lui	a1,0xc0000

00000000000046e4 <.LBB69_184>:
    46e4:	00001537          	lui	a0,0x1
    46e8:	40a40533          	sub	a0,s0,a0
    46ec:	eab53c23          	sd	a1,-328(a0) # eb8 <.LBB69_4+0x40>
    46f0:	95043503          	ld	a0,-1712(s0)
    46f4:	f5843583          	ld	a1,-168(s0)
    46f8:	00b50533          	add	a0,a0,a1
    46fc:	01c50533          	add	a0,a0,t3
    4700:	401805bb          	subw	a1,a6,ra
    4704:	40b5053b          	subw	a0,a0,a1
    4708:	400005b7          	lui	a1,0x40000
    470c:	000012b7          	lui	t0,0x1
    4710:	405402b3          	sub	t0,s0,t0
    4714:	e6a2b823          	sd	a0,-400(t0) # e70 <.LBB69_3+0xc4c>
    4718:	00055463          	bgez	a0,4720 <.LBB69_186>
    471c:	c00005b7          	lui	a1,0xc0000

0000000000004720 <.LBB69_186>:
    4720:	00001537          	lui	a0,0x1
    4724:	40a40533          	sub	a0,s0,a0
    4728:	e4b53023          	sd	a1,-448(a0) # e40 <.LBB69_3+0xc1c>
    472c:	95843503          	ld	a0,-1704(s0)
    4730:	f6043583          	ld	a1,-160(s0)
    4734:	00b50533          	add	a0,a0,a1
    4738:	00750533          	add	a0,a0,t2
    473c:	401805bb          	subw	a1,a6,ra
    4740:	40b5053b          	subw	a0,a0,a1
    4744:	400005b7          	lui	a1,0x40000
    4748:	000012b7          	lui	t0,0x1
    474c:	405402b3          	sub	t0,s0,t0
    4750:	dea2bc23          	sd	a0,-520(t0) # df8 <.LBB69_3+0xbd4>
    4754:	00055463          	bgez	a0,475c <.LBB69_188>
    4758:	c00005b7          	lui	a1,0xc0000

000000000000475c <.LBB69_188>:
    475c:	00001537          	lui	a0,0x1
    4760:	40a40533          	sub	a0,s0,a0
    4764:	dcb53023          	sd	a1,-576(a0) # dc0 <.LBB69_3+0xb9c>
    4768:	96043503          	ld	a0,-1696(s0)
    476c:	f6843583          	ld	a1,-152(s0)
    4770:	00b50533          	add	a0,a0,a1
    4774:	00650533          	add	a0,a0,t1
    4778:	401805bb          	subw	a1,a6,ra
    477c:	40b5053b          	subw	a0,a0,a1
    4780:	400005b7          	lui	a1,0x40000
    4784:	000012b7          	lui	t0,0x1
    4788:	405402b3          	sub	t0,s0,t0
    478c:	d6a2bc23          	sd	a0,-648(t0) # d78 <.LBB69_3+0xb54>
    4790:	00055463          	bgez	a0,4798 <.LBB69_190>
    4794:	c00005b7          	lui	a1,0xc0000

0000000000004798 <.LBB69_190>:
    4798:	00001537          	lui	a0,0x1
    479c:	40a40533          	sub	a0,s0,a0
    47a0:	d4b53423          	sd	a1,-696(a0) # d48 <.LBB69_3+0xb24>
    47a4:	96843503          	ld	a0,-1688(s0)
    47a8:	f7043583          	ld	a1,-144(s0)
    47ac:	00b50533          	add	a0,a0,a1
    47b0:	01f50533          	add	a0,a0,t6
    47b4:	401805bb          	subw	a1,a6,ra
    47b8:	40b5053b          	subw	a0,a0,a1
    47bc:	400005b7          	lui	a1,0x40000
    47c0:	000012b7          	lui	t0,0x1
    47c4:	405402b3          	sub	t0,s0,t0
    47c8:	d0a2b023          	sd	a0,-768(t0) # d00 <.LBB69_3+0xadc>
    47cc:	00055463          	bgez	a0,47d4 <.LBB69_192>
    47d0:	c00005b7          	lui	a1,0xc0000

00000000000047d4 <.LBB69_192>:
    47d4:	00001537          	lui	a0,0x1
    47d8:	40a40533          	sub	a0,s0,a0
    47dc:	ccb53c23          	sd	a1,-808(a0) # cd8 <.LBB69_3+0xab4>
    47e0:	f7843503          	ld	a0,-136(s0)
    47e4:	00aa0533          	add	a0,s4,a0
    47e8:	000015b7          	lui	a1,0x1
    47ec:	40b405b3          	sub	a1,s0,a1
    47f0:	7705ba03          	ld	s4,1904(a1) # 1770 <.LBB69_5+0x354>
    47f4:	01450533          	add	a0,a0,s4
    47f8:	401805bb          	subw	a1,a6,ra
    47fc:	40b505bb          	subw	a1,a0,a1
    4800:	40000537          	lui	a0,0x40000
    4804:	000012b7          	lui	t0,0x1
    4808:	405402b3          	sub	t0,s0,t0
    480c:	beb2bc23          	sd	a1,-1032(t0) # bf8 <.LBB69_3+0x9d4>
    4810:	0005d463          	bgez	a1,4818 <.LBB69_194>
    4814:	c0000537          	lui	a0,0xc0000

0000000000004818 <.LBB69_194>:
    4818:	000015b7          	lui	a1,0x1
    481c:	40b405b3          	sub	a1,s0,a1
    4820:	c8a5b423          	sd	a0,-888(a1) # c88 <.LBB69_3+0xa64>
    4824:	f8043503          	ld	a0,-128(s0)
    4828:	00a88533          	add	a0,a7,a0
    482c:	00950533          	add	a0,a0,s1
    4830:	401805bb          	subw	a1,a6,ra
    4834:	40b505bb          	subw	a1,a0,a1
    4838:	40000537          	lui	a0,0x40000
    483c:	000018b7          	lui	a7,0x1
    4840:	411408b3          	sub	a7,s0,a7
    4844:	beb8b823          	sd	a1,-1040(a7) # bf0 <.LBB69_3+0x9cc>
    4848:	0005d463          	bgez	a1,4850 <.LBB69_196>
    484c:	c0000537          	lui	a0,0xc0000

0000000000004850 <.LBB69_196>:
    4850:	000015b7          	lui	a1,0x1
    4854:	40b405b3          	sub	a1,s0,a1
    4858:	c2a5bc23          	sd	a0,-968(a1) # c38 <.LBB69_3+0xa14>
    485c:	f8843503          	ld	a0,-120(s0)
    4860:	98043583          	ld	a1,-1664(s0)
    4864:	00a58533          	add	a0,a1,a0
    4868:	01d50533          	add	a0,a0,t4
    486c:	401805bb          	subw	a1,a6,ra
    4870:	40b5053b          	subw	a0,a0,a1
    4874:	400005b7          	lui	a1,0x40000
    4878:	00001837          	lui	a6,0x1
    487c:	41040833          	sub	a6,s0,a6
    4880:	baa83c23          	sd	a0,-1096(a6) # bb8 <.LBB69_3+0x994>
    4884:	00001837          	lui	a6,0x1
    4888:	41040833          	sub	a6,s0,a6
    488c:	5a883883          	ld	a7,1448(a6) # 15a8 <.LBB69_5+0x18c>
    4890:	00055463          	bgez	a0,4898 <.LBB69_198>
    4894:	c00005b7          	lui	a1,0xc0000

0000000000004898 <.LBB69_198>:
    4898:	00001537          	lui	a0,0x1
    489c:	40a40533          	sub	a0,s0,a0
    48a0:	b8b53c23          	sd	a1,-1128(a0) # b98 <.LBB69_3+0x974>
    48a4:	eb043503          	ld	a0,-336(s0)
    48a8:	00a60533          	add	a0,a2,a0
    48ac:	ea843583          	ld	a1,-344(s0)
    48b0:	00b50533          	add	a0,a0,a1
    48b4:	401785bb          	subw	a1,a5,ra
    48b8:	40b5053b          	subw	a0,a0,a1
    48bc:	40000637          	lui	a2,0x40000
    48c0:	c8043803          	ld	a6,-896(s0)
    48c4:	98a43423          	sd	a0,-1656(s0)
    48c8:	00055463          	bgez	a0,48d0 <.LBB69_200>
    48cc:	c0000637          	lui	a2,0xc0000

00000000000048d0 <.LBB69_200>:
    48d0:	99043503          	ld	a0,-1648(s0)
    48d4:	ea043583          	ld	a1,-352(s0)
    48d8:	00b50533          	add	a0,a0,a1
    48dc:	e9843583          	ld	a1,-360(s0)
    48e0:	00b50533          	add	a0,a0,a1
    48e4:	401785bb          	subw	a1,a5,ra
    48e8:	40b5053b          	subw	a0,a0,a1
    48ec:	400005b7          	lui	a1,0x40000
    48f0:	98a43823          	sd	a0,-1648(s0)
    48f4:	00055463          	bgez	a0,48fc <.LBB69_202>
    48f8:	c00005b7          	lui	a1,0xc0000

00000000000048fc <.LBB69_202>:
    48fc:	98b43023          	sd	a1,-1664(s0)
    4900:	99843503          	ld	a0,-1640(s0)
    4904:	e9043583          	ld	a1,-368(s0)
    4908:	00b50533          	add	a0,a0,a1
    490c:	e8843583          	ld	a1,-376(s0)
    4910:	00b50533          	add	a0,a0,a1
    4914:	401785bb          	subw	a1,a5,ra
    4918:	40b5053b          	subw	a0,a0,a1
    491c:	400005b7          	lui	a1,0x40000
    4920:	98a43c23          	sd	a0,-1640(s0)
    4924:	00055463          	bgez	a0,492c <.LBB69_204>
    4928:	c00005b7          	lui	a1,0xc0000

000000000000492c <.LBB69_204>:
    492c:	96b43c23          	sd	a1,-1672(s0)
    4930:	9a043503          	ld	a0,-1632(s0)
    4934:	e8043583          	ld	a1,-384(s0)
    4938:	00b50533          	add	a0,a0,a1
    493c:	e7843583          	ld	a1,-392(s0)
    4940:	00b50533          	add	a0,a0,a1
    4944:	401785bb          	subw	a1,a5,ra
    4948:	40b5053b          	subw	a0,a0,a1
    494c:	400005b7          	lui	a1,0x40000
    4950:	96a43823          	sd	a0,-1680(s0)
    4954:	00055463          	bgez	a0,495c <.LBB69_206>
    4958:	c00005b7          	lui	a1,0xc0000

000000000000495c <.LBB69_206>:
    495c:	94b43c23          	sd	a1,-1704(s0)
    4960:	9a843503          	ld	a0,-1624(s0)
    4964:	e7043583          	ld	a1,-400(s0)
    4968:	00b50533          	add	a0,a0,a1
    496c:	e6843583          	ld	a1,-408(s0)
    4970:	00b50533          	add	a0,a0,a1
    4974:	401785bb          	subw	a1,a5,ra
    4978:	40b5053b          	subw	a0,a0,a1
    497c:	400005b7          	lui	a1,0x40000
    4980:	92a43c23          	sd	a0,-1736(s0)
    4984:	00055463          	bgez	a0,498c <.LBB69_208>
    4988:	c00005b7          	lui	a1,0xc0000

000000000000498c <.LBB69_208>:
    498c:	90b43c23          	sd	a1,-1768(s0)
    4990:	9b043503          	ld	a0,-1616(s0)
    4994:	000015b7          	lui	a1,0x1
    4998:	40b405b3          	sub	a1,s0,a1
    499c:	6c85b583          	ld	a1,1736(a1) # 16c8 <.LBB69_5+0x2ac>
    49a0:	00b50533          	add	a0,a0,a1
    49a4:	000015b7          	lui	a1,0x1
    49a8:	40b405b3          	sub	a1,s0,a1
    49ac:	6c05b583          	ld	a1,1728(a1) # 16c0 <.LBB69_5+0x2a4>
    49b0:	00b50533          	add	a0,a0,a1
    49b4:	401785bb          	subw	a1,a5,ra
    49b8:	40b5053b          	subw	a0,a0,a1
    49bc:	400005b7          	lui	a1,0x40000
    49c0:	8ea43023          	sd	a0,-1824(s0)
    49c4:	00055463          	bgez	a0,49cc <.LBB69_210>
    49c8:	c00005b7          	lui	a1,0xc0000

00000000000049cc <.LBB69_210>:
    49cc:	8cb43423          	sd	a1,-1848(s0)
    49d0:	9b843503          	ld	a0,-1608(s0)
    49d4:	000015b7          	lui	a1,0x1
    49d8:	40b405b3          	sub	a1,s0,a1
    49dc:	6b85b583          	ld	a1,1720(a1) # 16b8 <.LBB69_5+0x29c>
    49e0:	00b50533          	add	a0,a0,a1
    49e4:	000015b7          	lui	a1,0x1
    49e8:	40b405b3          	sub	a1,s0,a1
    49ec:	6b05b583          	ld	a1,1712(a1) # 16b0 <.LBB69_5+0x294>
    49f0:	00b50533          	add	a0,a0,a1
    49f4:	401785bb          	subw	a1,a5,ra
    49f8:	40b5053b          	subw	a0,a0,a1
    49fc:	400005b7          	lui	a1,0x40000
    4a00:	000012b7          	lui	t0,0x1
    4a04:	405402b3          	sub	t0,s0,t0
    4a08:	7ea2b023          	sd	a0,2016(t0) # 17e0 <.LBB69_5+0x3c4>
    4a0c:	00055463          	bgez	a0,4a14 <.LBB69_212>
    4a10:	c00005b7          	lui	a1,0xc0000

0000000000004a14 <.LBB69_212>:
    4a14:	00001537          	lui	a0,0x1
    4a18:	40a40533          	sub	a0,s0,a0
    4a1c:	74b53423          	sd	a1,1864(a0) # 1748 <.LBB69_5+0x32c>
    4a20:	9c043503          	ld	a0,-1600(s0)
    4a24:	000015b7          	lui	a1,0x1
    4a28:	40b405b3          	sub	a1,s0,a1
    4a2c:	6a85b583          	ld	a1,1704(a1) # 16a8 <.LBB69_5+0x28c>
    4a30:	00b50533          	add	a0,a0,a1
    4a34:	000015b7          	lui	a1,0x1
    4a38:	40b405b3          	sub	a1,s0,a1
    4a3c:	6a05b583          	ld	a1,1696(a1) # 16a0 <.LBB69_5+0x284>
    4a40:	00b50533          	add	a0,a0,a1
    4a44:	401785bb          	subw	a1,a5,ra
    4a48:	40b5053b          	subw	a0,a0,a1
    4a4c:	400005b7          	lui	a1,0x40000
    4a50:	000012b7          	lui	t0,0x1
    4a54:	405402b3          	sub	t0,s0,t0
    4a58:	6ea2bc23          	sd	a0,1784(t0) # 16f8 <.LBB69_5+0x2dc>
    4a5c:	00055463          	bgez	a0,4a64 <.LBB69_214>
    4a60:	c00005b7          	lui	a1,0xc0000

0000000000004a64 <.LBB69_214>:
    4a64:	00001537          	lui	a0,0x1
    4a68:	40a40533          	sub	a0,s0,a0
    4a6c:	5ab53c23          	sd	a1,1464(a0) # 15b8 <.LBB69_5+0x19c>
    4a70:	9c843503          	ld	a0,-1592(s0)
    4a74:	000015b7          	lui	a1,0x1
    4a78:	40b405b3          	sub	a1,s0,a1
    4a7c:	6985b583          	ld	a1,1688(a1) # 1698 <.LBB69_5+0x27c>
    4a80:	00b50533          	add	a0,a0,a1
    4a84:	000015b7          	lui	a1,0x1
    4a88:	40b405b3          	sub	a1,s0,a1
    4a8c:	6905b583          	ld	a1,1680(a1) # 1690 <.LBB69_5+0x274>
    4a90:	00b50533          	add	a0,a0,a1
    4a94:	401785bb          	subw	a1,a5,ra
    4a98:	40b5053b          	subw	a0,a0,a1
    4a9c:	400005b7          	lui	a1,0x40000
    4aa0:	9ca43423          	sd	a0,-1592(s0)
    4aa4:	00055463          	bgez	a0,4aac <.LBB69_216>
    4aa8:	c00005b7          	lui	a1,0xc0000

0000000000004aac <.LBB69_216>:
    4aac:	00001537          	lui	a0,0x1
    4ab0:	40a40533          	sub	a0,s0,a0
    4ab4:	56b53023          	sd	a1,1376(a0) # 1560 <.LBB69_5+0x144>
    4ab8:	9d043503          	ld	a0,-1584(s0)
    4abc:	000015b7          	lui	a1,0x1
    4ac0:	40b405b3          	sub	a1,s0,a1
    4ac4:	6885b583          	ld	a1,1672(a1) # 1688 <.LBB69_5+0x26c>
    4ac8:	00b50533          	add	a0,a0,a1
    4acc:	000015b7          	lui	a1,0x1
    4ad0:	40b405b3          	sub	a1,s0,a1
    4ad4:	6d05b583          	ld	a1,1744(a1) # 16d0 <.LBB69_5+0x2b4>
    4ad8:	00b50533          	add	a0,a0,a1
    4adc:	401785bb          	subw	a1,a5,ra
    4ae0:	40b5053b          	subw	a0,a0,a1
    4ae4:	400005b7          	lui	a1,0x40000
    4ae8:	000012b7          	lui	t0,0x1
    4aec:	405402b3          	sub	t0,s0,t0
    4af0:	52a2b823          	sd	a0,1328(t0) # 1530 <.LBB69_5+0x114>
    4af4:	00055463          	bgez	a0,4afc <.LBB69_218>
    4af8:	c00005b7          	lui	a1,0xc0000

0000000000004afc <.LBB69_218>:
    4afc:	00001537          	lui	a0,0x1
    4b00:	40a40533          	sub	a0,s0,a0
    4b04:	50b53023          	sd	a1,1280(a0) # 1500 <.LBB69_5+0xe4>
    4b08:	9d843503          	ld	a0,-1576(s0)
    4b0c:	eb843583          	ld	a1,-328(s0)
    4b10:	00b50533          	add	a0,a0,a1
    4b14:	000015b7          	lui	a1,0x1
    4b18:	40b405b3          	sub	a1,s0,a1
    4b1c:	6d85b583          	ld	a1,1752(a1) # 16d8 <.LBB69_5+0x2bc>
    4b20:	00b50533          	add	a0,a0,a1
    4b24:	401785bb          	subw	a1,a5,ra
    4b28:	40b5053b          	subw	a0,a0,a1
    4b2c:	400005b7          	lui	a1,0x40000
    4b30:	9ca43c23          	sd	a0,-1576(s0)
    4b34:	00055463          	bgez	a0,4b3c <.LBB69_220>
    4b38:	c00005b7          	lui	a1,0xc0000

0000000000004b3c <.LBB69_220>:
    4b3c:	00001537          	lui	a0,0x1
    4b40:	40a40533          	sub	a0,s0,a0
    4b44:	4ab53423          	sd	a1,1192(a0) # 14a8 <.LBB69_5+0x8c>
    4b48:	9e043503          	ld	a0,-1568(s0)
    4b4c:	ec043583          	ld	a1,-320(s0)
    4b50:	00b50533          	add	a0,a0,a1
    4b54:	01b50533          	add	a0,a0,s11
    4b58:	401785bb          	subw	a1,a5,ra
    4b5c:	40b5053b          	subw	a0,a0,a1
    4b60:	400005b7          	lui	a1,0x40000
    4b64:	9ea43023          	sd	a0,-1568(s0)
    4b68:	00055463          	bgez	a0,4b70 <.LBB69_222>
    4b6c:	c00005b7          	lui	a1,0xc0000

0000000000004b70 <.LBB69_222>:
    4b70:	00001537          	lui	a0,0x1
    4b74:	40a40533          	sub	a0,s0,a0
    4b78:	44b53c23          	sd	a1,1112(a0) # 1458 <.LBB69_5+0x3c>
    4b7c:	9e843503          	ld	a0,-1560(s0)
    4b80:	ec843583          	ld	a1,-312(s0)
    4b84:	00b50533          	add	a0,a0,a1
    4b88:	01a50533          	add	a0,a0,s10
    4b8c:	401785bb          	subw	a1,a5,ra
    4b90:	40b5053b          	subw	a0,a0,a1
    4b94:	400005b7          	lui	a1,0x40000
    4b98:	9ea43423          	sd	a0,-1560(s0)
    4b9c:	00055463          	bgez	a0,4ba4 <.LBB69_224>
    4ba0:	c00005b7          	lui	a1,0xc0000

0000000000004ba4 <.LBB69_224>:
    4ba4:	00001537          	lui	a0,0x1
    4ba8:	40a40533          	sub	a0,s0,a0
    4bac:	40b53423          	sd	a1,1032(a0) # 1408 <.LBB69_4+0x590>
    4bb0:	9f043503          	ld	a0,-1552(s0)
    4bb4:	ed043583          	ld	a1,-304(s0)
    4bb8:	00b50533          	add	a0,a0,a1
    4bbc:	01950533          	add	a0,a0,s9
    4bc0:	401785bb          	subw	a1,a5,ra
    4bc4:	40b5053b          	subw	a0,a0,a1
    4bc8:	400005b7          	lui	a1,0x40000
    4bcc:	9ea43823          	sd	a0,-1552(s0)
    4bd0:	00055463          	bgez	a0,4bd8 <.LBB69_226>
    4bd4:	c00005b7          	lui	a1,0xc0000

0000000000004bd8 <.LBB69_226>:
    4bd8:	00001537          	lui	a0,0x1
    4bdc:	40a40533          	sub	a0,s0,a0
    4be0:	3ab53423          	sd	a1,936(a0) # 13a8 <.LBB69_4+0x530>
    4be4:	9f843503          	ld	a0,-1544(s0)
    4be8:	ed843583          	ld	a1,-296(s0)
    4bec:	00b50533          	add	a0,a0,a1
    4bf0:	01850533          	add	a0,a0,s8
    4bf4:	401785bb          	subw	a1,a5,ra
    4bf8:	40b5053b          	subw	a0,a0,a1
    4bfc:	400005b7          	lui	a1,0x40000
    4c00:	9ea43c23          	sd	a0,-1544(s0)
    4c04:	00055463          	bgez	a0,4c0c <.LBB69_228>
    4c08:	c00005b7          	lui	a1,0xc0000

0000000000004c0c <.LBB69_228>:
    4c0c:	00001537          	lui	a0,0x1
    4c10:	40a40533          	sub	a0,s0,a0
    4c14:	34b53023          	sd	a1,832(a0) # 1340 <.LBB69_4+0x4c8>
    4c18:	a0043503          	ld	a0,-1536(s0)
    4c1c:	ee043583          	ld	a1,-288(s0)
    4c20:	00b50533          	add	a0,a0,a1
    4c24:	01750533          	add	a0,a0,s7
    4c28:	401785bb          	subw	a1,a5,ra
    4c2c:	40b5053b          	subw	a0,a0,a1
    4c30:	400005b7          	lui	a1,0x40000
    4c34:	a0a43023          	sd	a0,-1536(s0)
    4c38:	00055463          	bgez	a0,4c40 <.LBB69_230>
    4c3c:	c00005b7          	lui	a1,0xc0000

0000000000004c40 <.LBB69_230>:
    4c40:	00001537          	lui	a0,0x1
    4c44:	40a40533          	sub	a0,s0,a0
    4c48:	2cb53c23          	sd	a1,728(a0) # 12d8 <.LBB69_4+0x460>
    4c4c:	a0843503          	ld	a0,-1528(s0)
    4c50:	ee843583          	ld	a1,-280(s0)
    4c54:	00b50533          	add	a0,a0,a1
    4c58:	01650533          	add	a0,a0,s6
    4c5c:	401785bb          	subw	a1,a5,ra
    4c60:	40b5053b          	subw	a0,a0,a1
    4c64:	400005b7          	lui	a1,0x40000
    4c68:	000012b7          	lui	t0,0x1
    4c6c:	405402b3          	sub	t0,s0,t0
    4c70:	28a2bc23          	sd	a0,664(t0) # 1298 <.LBB69_4+0x420>
    4c74:	00055463          	bgez	a0,4c7c <.LBB69_232>
    4c78:	c00005b7          	lui	a1,0xc0000

0000000000004c7c <.LBB69_232>:
    4c7c:	00001537          	lui	a0,0x1
    4c80:	40a40533          	sub	a0,s0,a0
    4c84:	26b53423          	sd	a1,616(a0) # 1268 <.LBB69_4+0x3f0>
    4c88:	a1043503          	ld	a0,-1520(s0)
    4c8c:	ef043583          	ld	a1,-272(s0)
    4c90:	00b50533          	add	a0,a0,a1
    4c94:	01550533          	add	a0,a0,s5
    4c98:	401785bb          	subw	a1,a5,ra
    4c9c:	40b5053b          	subw	a0,a0,a1
    4ca0:	400005b7          	lui	a1,0x40000
    4ca4:	000012b7          	lui	t0,0x1
    4ca8:	405402b3          	sub	t0,s0,t0
    4cac:	22a2b023          	sd	a0,544(t0) # 1220 <.LBB69_4+0x3a8>
    4cb0:	00055463          	bgez	a0,4cb8 <.LBB69_234>
    4cb4:	c00005b7          	lui	a1,0xc0000

0000000000004cb8 <.LBB69_234>:
    4cb8:	00001537          	lui	a0,0x1
    4cbc:	40a40533          	sub	a0,s0,a0
    4cc0:	1eb53823          	sd	a1,496(a0) # 11f0 <.LBB69_4+0x378>
    4cc4:	a1843503          	ld	a0,-1512(s0)
    4cc8:	ef843583          	ld	a1,-264(s0)
    4ccc:	00b50533          	add	a0,a0,a1
    4cd0:	000015b7          	lui	a1,0x1
    4cd4:	40b405b3          	sub	a1,s0,a1
    4cd8:	7185b583          	ld	a1,1816(a1) # 1718 <.LBB69_5+0x2fc>
    4cdc:	00b50533          	add	a0,a0,a1
    4ce0:	401785bb          	subw	a1,a5,ra
    4ce4:	40b5053b          	subw	a0,a0,a1
    4ce8:	400005b7          	lui	a1,0x40000
    4cec:	000012b7          	lui	t0,0x1
    4cf0:	405402b3          	sub	t0,s0,t0
    4cf4:	1aa2b423          	sd	a0,424(t0) # 11a8 <.LBB69_4+0x330>
    4cf8:	00055463          	bgez	a0,4d00 <.LBB69_236>
    4cfc:	c00005b7          	lui	a1,0xc0000

0000000000004d00 <.LBB69_236>:
    4d00:	00001537          	lui	a0,0x1
    4d04:	40a40533          	sub	a0,s0,a0
    4d08:	18b53023          	sd	a1,384(a0) # 1180 <.LBB69_4+0x308>
    4d0c:	a2043503          	ld	a0,-1504(s0)
    4d10:	f0043583          	ld	a1,-256(s0)
    4d14:	00b50533          	add	a0,a0,a1
    4d18:	01350533          	add	a0,a0,s3
    4d1c:	401785bb          	subw	a1,a5,ra
    4d20:	40b5053b          	subw	a0,a0,a1
    4d24:	400005b7          	lui	a1,0x40000
    4d28:	000012b7          	lui	t0,0x1
    4d2c:	405402b3          	sub	t0,s0,t0
    4d30:	12a2b823          	sd	a0,304(t0) # 1130 <.LBB69_4+0x2b8>
    4d34:	00055463          	bgez	a0,4d3c <.LBB69_238>
    4d38:	c00005b7          	lui	a1,0xc0000

0000000000004d3c <.LBB69_238>:
    4d3c:	00001537          	lui	a0,0x1
    4d40:	40a40533          	sub	a0,s0,a0
    4d44:	10b53023          	sd	a1,256(a0) # 1100 <.LBB69_4+0x288>
    4d48:	a2843503          	ld	a0,-1496(s0)
    4d4c:	f0843583          	ld	a1,-248(s0)
    4d50:	00b50533          	add	a0,a0,a1
    4d54:	01250533          	add	a0,a0,s2
    4d58:	401785bb          	subw	a1,a5,ra
    4d5c:	40b5053b          	subw	a0,a0,a1
    4d60:	400005b7          	lui	a1,0x40000
    4d64:	000012b7          	lui	t0,0x1
    4d68:	405402b3          	sub	t0,s0,t0
    4d6c:	0aa2bc23          	sd	a0,184(t0) # 10b8 <.LBB69_4+0x240>
    4d70:	00055463          	bgez	a0,4d78 <.LBB69_240>
    4d74:	c00005b7          	lui	a1,0xc0000

0000000000004d78 <.LBB69_240>:
    4d78:	00001537          	lui	a0,0x1
    4d7c:	40a40533          	sub	a0,s0,a0
    4d80:	08b53423          	sd	a1,136(a0) # 1088 <.LBB69_4+0x210>
    4d84:	a3043503          	ld	a0,-1488(s0)
    4d88:	f3843583          	ld	a1,-200(s0)
    4d8c:	00b50533          	add	a0,a0,a1
    4d90:	000015b7          	lui	a1,0x1
    4d94:	40b405b3          	sub	a1,s0,a1
    4d98:	7305b583          	ld	a1,1840(a1) # 1730 <.LBB69_5+0x314>
    4d9c:	00b50533          	add	a0,a0,a1
    4da0:	401785bb          	subw	a1,a5,ra
    4da4:	40b5053b          	subw	a0,a0,a1
    4da8:	400005b7          	lui	a1,0x40000
    4dac:	000012b7          	lui	t0,0x1
    4db0:	405402b3          	sub	t0,s0,t0
    4db4:	04a2b023          	sd	a0,64(t0) # 1040 <.LBB69_4+0x1c8>
    4db8:	00055463          	bgez	a0,4dc0 <.LBB69_242>
    4dbc:	c00005b7          	lui	a1,0xc0000

0000000000004dc0 <.LBB69_242>:
    4dc0:	00001537          	lui	a0,0x1
    4dc4:	40a40533          	sub	a0,s0,a0
    4dc8:	00b53c23          	sd	a1,24(a0) # 1018 <.LBB69_4+0x1a0>
    4dcc:	a3843503          	ld	a0,-1480(s0)
    4dd0:	f4043583          	ld	a1,-192(s0)
    4dd4:	00b50533          	add	a0,a0,a1
    4dd8:	000015b7          	lui	a1,0x1
    4ddc:	40b405b3          	sub	a1,s0,a1
    4de0:	7385b583          	ld	a1,1848(a1) # 1738 <.LBB69_5+0x31c>
    4de4:	00b50533          	add	a0,a0,a1
    4de8:	401785bb          	subw	a1,a5,ra
    4dec:	40b5053b          	subw	a0,a0,a1
    4df0:	400005b7          	lui	a1,0x40000
    4df4:	000012b7          	lui	t0,0x1
    4df8:	405402b3          	sub	t0,s0,t0
    4dfc:	fca2b823          	sd	a0,-48(t0) # fd0 <.LBB69_4+0x158>
    4e00:	00055463          	bgez	a0,4e08 <.LBB69_244>
    4e04:	c00005b7          	lui	a1,0xc0000

0000000000004e08 <.LBB69_244>:
    4e08:	00001537          	lui	a0,0x1
    4e0c:	40a40533          	sub	a0,s0,a0
    4e10:	fab53023          	sd	a1,-96(a0) # fa0 <.LBB69_4+0x128>
    4e14:	f4843503          	ld	a0,-184(s0)
    4e18:	a4043583          	ld	a1,-1472(s0)
    4e1c:	00a58533          	add	a0,a1,a0
    4e20:	000015b7          	lui	a1,0x1
    4e24:	40b405b3          	sub	a1,s0,a1
    4e28:	7405b583          	ld	a1,1856(a1) # 1740 <.LBB69_5+0x324>
    4e2c:	00b50533          	add	a0,a0,a1
    4e30:	401785bb          	subw	a1,a5,ra
    4e34:	40b5053b          	subw	a0,a0,a1
    4e38:	400005b7          	lui	a1,0x40000
    4e3c:	000012b7          	lui	t0,0x1
    4e40:	405402b3          	sub	t0,s0,t0
    4e44:	f4a2bc23          	sd	a0,-168(t0) # f58 <.LBB69_4+0xe0>
    4e48:	00055463          	bgez	a0,4e50 <.LBB69_246>
    4e4c:	c00005b7          	lui	a1,0xc0000

0000000000004e50 <.LBB69_246>:
    4e50:	00001537          	lui	a0,0x1
    4e54:	40a40533          	sub	a0,s0,a0
    4e58:	f2b53823          	sd	a1,-208(a0) # f30 <.LBB69_4+0xb8>
    4e5c:	f5043503          	ld	a0,-176(s0)
    4e60:	a4843583          	ld	a1,-1464(s0)
    4e64:	00a58533          	add	a0,a1,a0
    4e68:	01e50533          	add	a0,a0,t5
    4e6c:	401785bb          	subw	a1,a5,ra
    4e70:	40b5053b          	subw	a0,a0,a1
    4e74:	400005b7          	lui	a1,0x40000
    4e78:	000012b7          	lui	t0,0x1
    4e7c:	405402b3          	sub	t0,s0,t0
    4e80:	eea2b423          	sd	a0,-280(t0) # ee8 <.LBB69_4+0x70>
    4e84:	00055463          	bgez	a0,4e8c <.LBB69_248>
    4e88:	c00005b7          	lui	a1,0xc0000

0000000000004e8c <.LBB69_248>:
    4e8c:	00001537          	lui	a0,0x1
    4e90:	40a40533          	sub	a0,s0,a0
    4e94:	eab53823          	sd	a1,-336(a0) # eb0 <.LBB69_4+0x38>
    4e98:	a5043503          	ld	a0,-1456(s0)
    4e9c:	f5843583          	ld	a1,-168(s0)
    4ea0:	00b50533          	add	a0,a0,a1
    4ea4:	01c50533          	add	a0,a0,t3
    4ea8:	401785bb          	subw	a1,a5,ra
    4eac:	40b5053b          	subw	a0,a0,a1
    4eb0:	400005b7          	lui	a1,0x40000
    4eb4:	000012b7          	lui	t0,0x1
    4eb8:	405402b3          	sub	t0,s0,t0
    4ebc:	e6a2b423          	sd	a0,-408(t0) # e68 <.LBB69_3+0xc44>
    4ec0:	00055463          	bgez	a0,4ec8 <.LBB69_250>
    4ec4:	c00005b7          	lui	a1,0xc0000

0000000000004ec8 <.LBB69_250>:
    4ec8:	00001537          	lui	a0,0x1
    4ecc:	40a40533          	sub	a0,s0,a0
    4ed0:	e2b53c23          	sd	a1,-456(a0) # e38 <.LBB69_3+0xc14>
    4ed4:	f6043503          	ld	a0,-160(s0)
    4ed8:	a5843583          	ld	a1,-1448(s0)
    4edc:	00a58533          	add	a0,a1,a0
    4ee0:	00750533          	add	a0,a0,t2
    4ee4:	401785bb          	subw	a1,a5,ra
    4ee8:	40b5053b          	subw	a0,a0,a1
    4eec:	400005b7          	lui	a1,0x40000
    4ef0:	000012b7          	lui	t0,0x1
    4ef4:	405402b3          	sub	t0,s0,t0
    4ef8:	dea2b823          	sd	a0,-528(t0) # df0 <.LBB69_3+0xbcc>
    4efc:	00055463          	bgez	a0,4f04 <.LBB69_252>
    4f00:	c00005b7          	lui	a1,0xc0000

0000000000004f04 <.LBB69_252>:
    4f04:	00001537          	lui	a0,0x1
    4f08:	40a40533          	sub	a0,s0,a0
    4f0c:	dab53c23          	sd	a1,-584(a0) # db8 <.LBB69_3+0xb94>
    4f10:	f6843503          	ld	a0,-152(s0)
    4f14:	a6043583          	ld	a1,-1440(s0)
    4f18:	00a58533          	add	a0,a1,a0
    4f1c:	00650533          	add	a0,a0,t1
    4f20:	401785bb          	subw	a1,a5,ra
    4f24:	40b5053b          	subw	a0,a0,a1
    4f28:	400005b7          	lui	a1,0x40000
    4f2c:	000012b7          	lui	t0,0x1
    4f30:	405402b3          	sub	t0,s0,t0
    4f34:	d6a2b823          	sd	a0,-656(t0) # d70 <.LBB69_3+0xb4c>
    4f38:	00055463          	bgez	a0,4f40 <.LBB69_254>
    4f3c:	c00005b7          	lui	a1,0xc0000

0000000000004f40 <.LBB69_254>:
    4f40:	00001537          	lui	a0,0x1
    4f44:	40a40533          	sub	a0,s0,a0
    4f48:	d4b53023          	sd	a1,-704(a0) # d40 <.LBB69_3+0xb1c>
    4f4c:	f7043503          	ld	a0,-144(s0)
    4f50:	a6843583          	ld	a1,-1432(s0)
    4f54:	00a58533          	add	a0,a1,a0
    4f58:	01f50533          	add	a0,a0,t6
    4f5c:	401785bb          	subw	a1,a5,ra
    4f60:	40b505bb          	subw	a1,a0,a1
    4f64:	40000537          	lui	a0,0x40000
    4f68:	000012b7          	lui	t0,0x1
    4f6c:	405402b3          	sub	t0,s0,t0
    4f70:	c0b2b023          	sd	a1,-1024(t0) # c00 <.LBB69_3+0x9dc>
    4f74:	0005d463          	bgez	a1,4f7c <.LBB69_256>
    4f78:	c0000537          	lui	a0,0xc0000

0000000000004f7c <.LBB69_256>:
    4f7c:	000015b7          	lui	a1,0x1
    4f80:	40b405b3          	sub	a1,s0,a1
    4f84:	cca5b823          	sd	a0,-816(a1) # cd0 <.LBB69_3+0xaac>
    4f88:	f7843503          	ld	a0,-136(s0)
    4f8c:	a7043583          	ld	a1,-1424(s0)
    4f90:	00a58533          	add	a0,a1,a0
    4f94:	01450533          	add	a0,a0,s4
    4f98:	401785bb          	subw	a1,a5,ra
    4f9c:	40b505bb          	subw	a1,a0,a1
    4fa0:	40000537          	lui	a0,0x40000
    4fa4:	000012b7          	lui	t0,0x1
    4fa8:	405402b3          	sub	t0,s0,t0
    4fac:	beb2b423          	sd	a1,-1048(t0) # be8 <.LBB69_3+0x9c4>
    4fb0:	0005d463          	bgez	a1,4fb8 <.LBB69_258>
    4fb4:	c0000537          	lui	a0,0xc0000

0000000000004fb8 <.LBB69_258>:
    4fb8:	000015b7          	lui	a1,0x1
    4fbc:	40b405b3          	sub	a1,s0,a1
    4fc0:	c8a5b023          	sd	a0,-896(a1) # c80 <.LBB69_3+0xa5c>
    4fc4:	f8043503          	ld	a0,-128(s0)
    4fc8:	a7843583          	ld	a1,-1416(s0)
    4fcc:	00a58533          	add	a0,a1,a0
    4fd0:	00950533          	add	a0,a0,s1
    4fd4:	401785bb          	subw	a1,a5,ra
    4fd8:	40b505bb          	subw	a1,a0,a1
    4fdc:	40000537          	lui	a0,0x40000
    4fe0:	000012b7          	lui	t0,0x1
    4fe4:	405402b3          	sub	t0,s0,t0
    4fe8:	bcb2b023          	sd	a1,-1088(t0) # bc0 <.LBB69_3+0x99c>
    4fec:	0005d463          	bgez	a1,4ff4 <.LBB69_260>
    4ff0:	c0000537          	lui	a0,0xc0000

0000000000004ff4 <.LBB69_260>:
    4ff4:	000015b7          	lui	a1,0x1
    4ff8:	40b405b3          	sub	a1,s0,a1
    4ffc:	c2a5b823          	sd	a0,-976(a1) # c30 <.LBB69_3+0xa0c>
    5000:	a6c43c23          	sd	a2,-1416(s0)
    5004:	a8043503          	ld	a0,-1408(s0)
    5008:	f8843583          	ld	a1,-120(s0)
    500c:	00b50533          	add	a0,a0,a1
    5010:	01d50533          	add	a0,a0,t4
    5014:	401785bb          	subw	a1,a5,ra
    5018:	40b5053b          	subw	a0,a0,a1
    501c:	400005b7          	lui	a1,0x40000
    5020:	00055463          	bgez	a0,5028 <.LBB69_262>
    5024:	c00005b7          	lui	a1,0xc0000

0000000000005028 <.LBB69_262>:
    5028:	00001637          	lui	a2,0x1
    502c:	40c40633          	sub	a2,s0,a2
    5030:	b8b63823          	sd	a1,-1136(a2) # b90 <.LBB69_3+0x96c>
    5034:	a8843583          	ld	a1,-1400(s0)
    5038:	eb043603          	ld	a2,-336(s0)
    503c:	00c585b3          	add	a1,a1,a2
    5040:	ea843603          	ld	a2,-344(s0)
    5044:	00c585b3          	add	a1,a1,a2
    5048:	4017063b          	subw	a2,a4,ra
    504c:	40c585bb          	subw	a1,a1,a2
    5050:	40000637          	lui	a2,0x40000
    5054:	b7043783          	ld	a5,-1168(s0)
    5058:	a8b43023          	sd	a1,-1408(s0)
    505c:	0005d463          	bgez	a1,5064 <.LBB69_264>
    5060:	c0000637          	lui	a2,0xc0000

0000000000005064 <.LBB69_264>:
    5064:	a6c43823          	sd	a2,-1424(s0)
    5068:	a9043583          	ld	a1,-1392(s0)
    506c:	ea043603          	ld	a2,-352(s0)
    5070:	00c585b3          	add	a1,a1,a2
    5074:	e9843603          	ld	a2,-360(s0)
    5078:	00c585b3          	add	a1,a1,a2
    507c:	4017063b          	subw	a2,a4,ra
    5080:	40c585bb          	subw	a1,a1,a2
    5084:	40000637          	lui	a2,0x40000
    5088:	a8b43823          	sd	a1,-1392(s0)
    508c:	0005d463          	bgez	a1,5094 <.LBB69_266>
    5090:	c0000637          	lui	a2,0xc0000

0000000000005094 <.LBB69_266>:
    5094:	a6c43023          	sd	a2,-1440(s0)
    5098:	a9843583          	ld	a1,-1384(s0)
    509c:	e9043603          	ld	a2,-368(s0)
    50a0:	00c585b3          	add	a1,a1,a2
    50a4:	e8843603          	ld	a2,-376(s0)
    50a8:	00c585b3          	add	a1,a1,a2
    50ac:	4017063b          	subw	a2,a4,ra
    50b0:	40c585bb          	subw	a1,a1,a2
    50b4:	40000637          	lui	a2,0x40000
    50b8:	a4b43c23          	sd	a1,-1448(s0)
    50bc:	0005d463          	bgez	a1,50c4 <.LBB69_268>
    50c0:	c0000637          	lui	a2,0xc0000

00000000000050c4 <.LBB69_268>:
    50c4:	a4c43823          	sd	a2,-1456(s0)
    50c8:	aa043583          	ld	a1,-1376(s0)
    50cc:	e8043603          	ld	a2,-384(s0)
    50d0:	00c585b3          	add	a1,a1,a2
    50d4:	e7843603          	ld	a2,-392(s0)
    50d8:	00c585b3          	add	a1,a1,a2
    50dc:	4017063b          	subw	a2,a4,ra
    50e0:	40c585bb          	subw	a1,a1,a2
    50e4:	40000637          	lui	a2,0x40000
    50e8:	aab43023          	sd	a1,-1376(s0)
    50ec:	0005d463          	bgez	a1,50f4 <.LBB69_270>
    50f0:	c0000637          	lui	a2,0xc0000

00000000000050f4 <.LBB69_270>:
    50f4:	a6c43423          	sd	a2,-1432(s0)
    50f8:	aa843583          	ld	a1,-1368(s0)
    50fc:	e7043603          	ld	a2,-400(s0)
    5100:	00c585b3          	add	a1,a1,a2
    5104:	e6843603          	ld	a2,-408(s0)
    5108:	00c585b3          	add	a1,a1,a2
    510c:	4017063b          	subw	a2,a4,ra
    5110:	40c585bb          	subw	a1,a1,a2
    5114:	40000637          	lui	a2,0x40000
    5118:	a4b43423          	sd	a1,-1464(s0)
    511c:	0005d463          	bgez	a1,5124 <.LBB69_272>
    5120:	c0000637          	lui	a2,0xc0000

0000000000005124 <.LBB69_272>:
    5124:	a4c43023          	sd	a2,-1472(s0)
    5128:	ab043583          	ld	a1,-1360(s0)
    512c:	00001637          	lui	a2,0x1
    5130:	40c40633          	sub	a2,s0,a2
    5134:	6c863603          	ld	a2,1736(a2) # 16c8 <.LBB69_5+0x2ac>
    5138:	00c585b3          	add	a1,a1,a2
    513c:	00001637          	lui	a2,0x1
    5140:	40c40633          	sub	a2,s0,a2
    5144:	6c063603          	ld	a2,1728(a2) # 16c0 <.LBB69_5+0x2a4>
    5148:	00c585b3          	add	a1,a1,a2
    514c:	4017063b          	subw	a2,a4,ra
    5150:	40c585bb          	subw	a1,a1,a2
    5154:	40000637          	lui	a2,0x40000
    5158:	aab43823          	sd	a1,-1360(s0)
    515c:	0005d463          	bgez	a1,5164 <.LBB69_274>
    5160:	c0000637          	lui	a2,0xc0000

0000000000005164 <.LBB69_274>:
    5164:	a8c43423          	sd	a2,-1400(s0)
    5168:	ab843583          	ld	a1,-1352(s0)
    516c:	00001637          	lui	a2,0x1
    5170:	40c40633          	sub	a2,s0,a2
    5174:	6b863603          	ld	a2,1720(a2) # 16b8 <.LBB69_5+0x29c>
    5178:	00c585b3          	add	a1,a1,a2
    517c:	00001637          	lui	a2,0x1
    5180:	40c40633          	sub	a2,s0,a2
    5184:	6b063603          	ld	a2,1712(a2) # 16b0 <.LBB69_5+0x294>
    5188:	00c585b3          	add	a1,a1,a2
    518c:	4017063b          	subw	a2,a4,ra
    5190:	40c5863b          	subw	a2,a1,a2
    5194:	400005b7          	lui	a1,0x40000
    5198:	000012b7          	lui	t0,0x1
    519c:	405402b3          	sub	t0,s0,t0
    51a0:	c0c2b823          	sd	a2,-1008(t0) # c10 <.LBB69_3+0x9ec>
    51a4:	00065463          	bgez	a2,51ac <.LBB69_276>
    51a8:	c00005b7          	lui	a1,0xc0000

00000000000051ac <.LBB69_276>:
    51ac:	a8b43c23          	sd	a1,-1384(s0)
    51b0:	ac043583          	ld	a1,-1344(s0)
    51b4:	00001637          	lui	a2,0x1
    51b8:	40c40633          	sub	a2,s0,a2
    51bc:	6a863603          	ld	a2,1704(a2) # 16a8 <.LBB69_5+0x28c>
    51c0:	00c585b3          	add	a1,a1,a2
    51c4:	00001637          	lui	a2,0x1
    51c8:	40c40633          	sub	a2,s0,a2
    51cc:	6a063603          	ld	a2,1696(a2) # 16a0 <.LBB69_5+0x284>
    51d0:	00c585b3          	add	a1,a1,a2
    51d4:	4017063b          	subw	a2,a4,ra
    51d8:	40c585bb          	subw	a1,a1,a2
    51dc:	40000637          	lui	a2,0x40000
    51e0:	acb43023          	sd	a1,-1344(s0)
    51e4:	0005d463          	bgez	a1,51ec <.LBB69_278>
    51e8:	c0000637          	lui	a2,0xc0000

00000000000051ec <.LBB69_278>:
    51ec:	aac43423          	sd	a2,-1368(s0)
    51f0:	ac843583          	ld	a1,-1336(s0)
    51f4:	00001637          	lui	a2,0x1
    51f8:	40c40633          	sub	a2,s0,a2
    51fc:	69863603          	ld	a2,1688(a2) # 1698 <.LBB69_5+0x27c>
    5200:	00c585b3          	add	a1,a1,a2
    5204:	00001637          	lui	a2,0x1
    5208:	40c40633          	sub	a2,s0,a2
    520c:	69063603          	ld	a2,1680(a2) # 1690 <.LBB69_5+0x274>
    5210:	00c585b3          	add	a1,a1,a2
    5214:	4017063b          	subw	a2,a4,ra
    5218:	40c585bb          	subw	a1,a1,a2
    521c:	40000637          	lui	a2,0x40000
    5220:	aab43c23          	sd	a1,-1352(s0)
    5224:	0005d463          	bgez	a1,522c <.LBB69_280>
    5228:	c0000637          	lui	a2,0xc0000

000000000000522c <.LBB69_280>:
    522c:	a2c43c23          	sd	a2,-1480(s0)
    5230:	ad043583          	ld	a1,-1328(s0)
    5234:	00001637          	lui	a2,0x1
    5238:	40c40633          	sub	a2,s0,a2
    523c:	68863603          	ld	a2,1672(a2) # 1688 <.LBB69_5+0x26c>
    5240:	00c585b3          	add	a1,a1,a2
    5244:	00001637          	lui	a2,0x1
    5248:	40c40633          	sub	a2,s0,a2
    524c:	6d063603          	ld	a2,1744(a2) # 16d0 <.LBB69_5+0x2b4>
    5250:	00c585b3          	add	a1,a1,a2
    5254:	4017063b          	subw	a2,a4,ra
    5258:	40c585bb          	subw	a1,a1,a2
    525c:	40000637          	lui	a2,0x40000
    5260:	acb43823          	sd	a1,-1328(s0)
    5264:	0005d463          	bgez	a1,526c <.LBB69_282>
    5268:	c0000637          	lui	a2,0xc0000

000000000000526c <.LBB69_282>:
    526c:	acc43423          	sd	a2,-1336(s0)
    5270:	ad843583          	ld	a1,-1320(s0)
    5274:	eb843603          	ld	a2,-328(s0)
    5278:	00c585b3          	add	a1,a1,a2
    527c:	00001637          	lui	a2,0x1
    5280:	40c40633          	sub	a2,s0,a2
    5284:	6d863603          	ld	a2,1752(a2) # 16d8 <.LBB69_5+0x2bc>
    5288:	00c585b3          	add	a1,a1,a2
    528c:	4017063b          	subw	a2,a4,ra
    5290:	40c585bb          	subw	a1,a1,a2
    5294:	40000637          	lui	a2,0x40000
    5298:	acb43c23          	sd	a1,-1320(s0)
    529c:	0005d463          	bgez	a1,52a4 <.LBB69_284>
    52a0:	c0000637          	lui	a2,0xc0000

00000000000052a4 <.LBB69_284>:
    52a4:	a2c43823          	sd	a2,-1488(s0)
    52a8:	ae043583          	ld	a1,-1312(s0)
    52ac:	ec043603          	ld	a2,-320(s0)
    52b0:	00c585b3          	add	a1,a1,a2
    52b4:	01b585b3          	add	a1,a1,s11
    52b8:	4017063b          	subw	a2,a4,ra
    52bc:	40c585bb          	subw	a1,a1,a2
    52c0:	40000637          	lui	a2,0x40000
    52c4:	aeb43023          	sd	a1,-1312(s0)
    52c8:	0005d463          	bgez	a1,52d0 <.LBB69_286>
    52cc:	c0000637          	lui	a2,0xc0000

00000000000052d0 <.LBB69_286>:
    52d0:	a2c43423          	sd	a2,-1496(s0)
    52d4:	ae843583          	ld	a1,-1304(s0)
    52d8:	ec843603          	ld	a2,-312(s0)
    52dc:	00c585b3          	add	a1,a1,a2
    52e0:	01a585b3          	add	a1,a1,s10
    52e4:	4017063b          	subw	a2,a4,ra
    52e8:	40c585bb          	subw	a1,a1,a2
    52ec:	40000637          	lui	a2,0x40000
    52f0:	aeb43423          	sd	a1,-1304(s0)
    52f4:	0005d463          	bgez	a1,52fc <.LBB69_288>
    52f8:	c0000637          	lui	a2,0xc0000

00000000000052fc <.LBB69_288>:
    52fc:	a2c43023          	sd	a2,-1504(s0)
    5300:	af043583          	ld	a1,-1296(s0)
    5304:	ed043603          	ld	a2,-304(s0)
    5308:	00c585b3          	add	a1,a1,a2
    530c:	019585b3          	add	a1,a1,s9
    5310:	4017063b          	subw	a2,a4,ra
    5314:	40c585bb          	subw	a1,a1,a2
    5318:	40000637          	lui	a2,0x40000
    531c:	aeb43823          	sd	a1,-1296(s0)
    5320:	0005d463          	bgez	a1,5328 <.LBB69_290>
    5324:	c0000637          	lui	a2,0xc0000

0000000000005328 <.LBB69_290>:
    5328:	a0c43c23          	sd	a2,-1512(s0)
    532c:	af843583          	ld	a1,-1288(s0)
    5330:	ed843603          	ld	a2,-296(s0)
    5334:	00c585b3          	add	a1,a1,a2
    5338:	018585b3          	add	a1,a1,s8
    533c:	4017063b          	subw	a2,a4,ra
    5340:	40c585bb          	subw	a1,a1,a2
    5344:	40000637          	lui	a2,0x40000
    5348:	aeb43c23          	sd	a1,-1288(s0)
    534c:	0005d463          	bgez	a1,5354 <.LBB69_292>
    5350:	c0000637          	lui	a2,0xc0000

0000000000005354 <.LBB69_292>:
    5354:	a0c43823          	sd	a2,-1520(s0)
    5358:	b0043583          	ld	a1,-1280(s0)
    535c:	ee043603          	ld	a2,-288(s0)
    5360:	00c585b3          	add	a1,a1,a2
    5364:	017585b3          	add	a1,a1,s7
    5368:	4017063b          	subw	a2,a4,ra
    536c:	40c585bb          	subw	a1,a1,a2
    5370:	40000637          	lui	a2,0x40000
    5374:	b0b43023          	sd	a1,-1280(s0)
    5378:	0005d463          	bgez	a1,5380 <.LBB69_294>
    537c:	c0000637          	lui	a2,0xc0000

0000000000005380 <.LBB69_294>:
    5380:	a0c43423          	sd	a2,-1528(s0)
    5384:	b0843583          	ld	a1,-1272(s0)
    5388:	ee843603          	ld	a2,-280(s0)
    538c:	00c585b3          	add	a1,a1,a2
    5390:	016585b3          	add	a1,a1,s6
    5394:	4017063b          	subw	a2,a4,ra
    5398:	40c585bb          	subw	a1,a1,a2
    539c:	40000637          	lui	a2,0x40000
    53a0:	b0b43423          	sd	a1,-1272(s0)
    53a4:	0005d463          	bgez	a1,53ac <.LBB69_296>
    53a8:	c0000637          	lui	a2,0xc0000

00000000000053ac <.LBB69_296>:
    53ac:	000015b7          	lui	a1,0x1
    53b0:	40b405b3          	sub	a1,s0,a1
    53b4:	26c5b023          	sd	a2,608(a1) # 1260 <.LBB69_4+0x3e8>
    53b8:	b1043583          	ld	a1,-1264(s0)
    53bc:	ef043603          	ld	a2,-272(s0)
    53c0:	00c585b3          	add	a1,a1,a2
    53c4:	015585b3          	add	a1,a1,s5
    53c8:	4017063b          	subw	a2,a4,ra
    53cc:	40c585bb          	subw	a1,a1,a2
    53d0:	40000637          	lui	a2,0x40000
    53d4:	b0b43823          	sd	a1,-1264(s0)
    53d8:	0005d463          	bgez	a1,53e0 <.LBB69_298>
    53dc:	c0000637          	lui	a2,0xc0000

00000000000053e0 <.LBB69_298>:
    53e0:	000015b7          	lui	a1,0x1
    53e4:	40b405b3          	sub	a1,s0,a1
    53e8:	1ec5b423          	sd	a2,488(a1) # 11e8 <.LBB69_4+0x370>
    53ec:	b1843583          	ld	a1,-1256(s0)
    53f0:	ef843603          	ld	a2,-264(s0)
    53f4:	00c585b3          	add	a1,a1,a2
    53f8:	00001637          	lui	a2,0x1
    53fc:	40c40633          	sub	a2,s0,a2
    5400:	71863603          	ld	a2,1816(a2) # 1718 <.LBB69_5+0x2fc>
    5404:	00c585b3          	add	a1,a1,a2
    5408:	4017063b          	subw	a2,a4,ra
    540c:	40c585bb          	subw	a1,a1,a2
    5410:	40000637          	lui	a2,0x40000
    5414:	b0b43c23          	sd	a1,-1256(s0)
    5418:	0005d463          	bgez	a1,5420 <.LBB69_300>
    541c:	c0000637          	lui	a2,0xc0000

0000000000005420 <.LBB69_300>:
    5420:	000015b7          	lui	a1,0x1
    5424:	40b405b3          	sub	a1,s0,a1
    5428:	16c5bc23          	sd	a2,376(a1) # 1178 <.LBB69_4+0x300>
    542c:	b2043583          	ld	a1,-1248(s0)
    5430:	f0043603          	ld	a2,-256(s0)
    5434:	00c585b3          	add	a1,a1,a2
    5438:	013585b3          	add	a1,a1,s3
    543c:	4017063b          	subw	a2,a4,ra
    5440:	40c585bb          	subw	a1,a1,a2
    5444:	40000637          	lui	a2,0x40000
    5448:	b2b43023          	sd	a1,-1248(s0)
    544c:	0005d463          	bgez	a1,5454 <.LBB69_302>
    5450:	c0000637          	lui	a2,0xc0000

0000000000005454 <.LBB69_302>:
    5454:	000015b7          	lui	a1,0x1
    5458:	40b405b3          	sub	a1,s0,a1
    545c:	0ec5bc23          	sd	a2,248(a1) # 10f8 <.LBB69_4+0x280>
    5460:	b2843583          	ld	a1,-1240(s0)
    5464:	f0843603          	ld	a2,-248(s0)
    5468:	00c585b3          	add	a1,a1,a2
    546c:	012585b3          	add	a1,a1,s2
    5470:	4017063b          	subw	a2,a4,ra
    5474:	40c585bb          	subw	a1,a1,a2
    5478:	40000637          	lui	a2,0x40000
    547c:	b2b43423          	sd	a1,-1240(s0)
    5480:	0005d463          	bgez	a1,5488 <.LBB69_304>
    5484:	c0000637          	lui	a2,0xc0000

0000000000005488 <.LBB69_304>:
    5488:	000015b7          	lui	a1,0x1
    548c:	40b405b3          	sub	a1,s0,a1
    5490:	08c5b023          	sd	a2,128(a1) # 1080 <.LBB69_4+0x208>
    5494:	b3043583          	ld	a1,-1232(s0)
    5498:	f3843603          	ld	a2,-200(s0)
    549c:	00c585b3          	add	a1,a1,a2
    54a0:	00001637          	lui	a2,0x1
    54a4:	40c40633          	sub	a2,s0,a2
    54a8:	73063603          	ld	a2,1840(a2) # 1730 <.LBB69_5+0x314>
    54ac:	00c585b3          	add	a1,a1,a2
    54b0:	4017063b          	subw	a2,a4,ra
    54b4:	40c585bb          	subw	a1,a1,a2
    54b8:	40000637          	lui	a2,0x40000
    54bc:	b2b43823          	sd	a1,-1232(s0)
    54c0:	0005d463          	bgez	a1,54c8 <.LBB69_306>
    54c4:	c0000637          	lui	a2,0xc0000

00000000000054c8 <.LBB69_306>:
    54c8:	000015b7          	lui	a1,0x1
    54cc:	40b405b3          	sub	a1,s0,a1
    54d0:	00c5b823          	sd	a2,16(a1) # 1010 <.LBB69_4+0x198>
    54d4:	b3843583          	ld	a1,-1224(s0)
    54d8:	f4043603          	ld	a2,-192(s0)
    54dc:	00c585b3          	add	a1,a1,a2
    54e0:	00001637          	lui	a2,0x1
    54e4:	40c40633          	sub	a2,s0,a2
    54e8:	73863603          	ld	a2,1848(a2) # 1738 <.LBB69_5+0x31c>
    54ec:	00c585b3          	add	a1,a1,a2
    54f0:	4017063b          	subw	a2,a4,ra
    54f4:	40c585bb          	subw	a1,a1,a2
    54f8:	40000637          	lui	a2,0x40000
    54fc:	000012b7          	lui	t0,0x1
    5500:	405402b3          	sub	t0,s0,t0
    5504:	fcb2b423          	sd	a1,-56(t0) # fc8 <.LBB69_4+0x150>
    5508:	0005d463          	bgez	a1,5510 <.LBB69_308>
    550c:	c0000637          	lui	a2,0xc0000

0000000000005510 <.LBB69_308>:
    5510:	000015b7          	lui	a1,0x1
    5514:	40b405b3          	sub	a1,s0,a1
    5518:	f8c5bc23          	sd	a2,-104(a1) # f98 <.LBB69_4+0x120>
    551c:	b4043583          	ld	a1,-1216(s0)
    5520:	f4843603          	ld	a2,-184(s0)
    5524:	00c585b3          	add	a1,a1,a2
    5528:	00001637          	lui	a2,0x1
    552c:	40c40633          	sub	a2,s0,a2
    5530:	74063603          	ld	a2,1856(a2) # 1740 <.LBB69_5+0x324>
    5534:	00c585b3          	add	a1,a1,a2
    5538:	4017063b          	subw	a2,a4,ra
    553c:	40c585bb          	subw	a1,a1,a2
    5540:	40000637          	lui	a2,0x40000
    5544:	b4b43023          	sd	a1,-1216(s0)
    5548:	0005d463          	bgez	a1,5550 <.LBB69_310>
    554c:	c0000637          	lui	a2,0xc0000

0000000000005550 <.LBB69_310>:
    5550:	000015b7          	lui	a1,0x1
    5554:	40b405b3          	sub	a1,s0,a1
    5558:	f2c5b423          	sd	a2,-216(a1) # f28 <.LBB69_4+0xb0>
    555c:	b4843583          	ld	a1,-1208(s0)
    5560:	f5043603          	ld	a2,-176(s0)
    5564:	00c585b3          	add	a1,a1,a2
    5568:	01e585b3          	add	a1,a1,t5
    556c:	4017063b          	subw	a2,a4,ra
    5570:	40c585bb          	subw	a1,a1,a2
    5574:	40000637          	lui	a2,0x40000
    5578:	000012b7          	lui	t0,0x1
    557c:	405402b3          	sub	t0,s0,t0
    5580:	eeb2b023          	sd	a1,-288(t0) # ee0 <.LBB69_4+0x68>
    5584:	0005d463          	bgez	a1,558c <.LBB69_312>
    5588:	c0000637          	lui	a2,0xc0000

000000000000558c <.LBB69_312>:
    558c:	000015b7          	lui	a1,0x1
    5590:	40b405b3          	sub	a1,s0,a1
    5594:	eac5b423          	sd	a2,-344(a1) # ea8 <.LBB69_4+0x30>
    5598:	b5043583          	ld	a1,-1200(s0)
    559c:	f5843603          	ld	a2,-168(s0)
    55a0:	00c585b3          	add	a1,a1,a2
    55a4:	01c585b3          	add	a1,a1,t3
    55a8:	4017063b          	subw	a2,a4,ra
    55ac:	40c585bb          	subw	a1,a1,a2
    55b0:	40000637          	lui	a2,0x40000
    55b4:	b4b43823          	sd	a1,-1200(s0)
    55b8:	0005d463          	bgez	a1,55c0 <.LBB69_314>
    55bc:	c0000637          	lui	a2,0xc0000

00000000000055c0 <.LBB69_314>:
    55c0:	000015b7          	lui	a1,0x1
    55c4:	40b405b3          	sub	a1,s0,a1
    55c8:	e2c5b823          	sd	a2,-464(a1) # e30 <.LBB69_3+0xc0c>
    55cc:	b5843583          	ld	a1,-1192(s0)
    55d0:	f6043603          	ld	a2,-160(s0)
    55d4:	00c585b3          	add	a1,a1,a2
    55d8:	007585b3          	add	a1,a1,t2
    55dc:	4017063b          	subw	a2,a4,ra
    55e0:	40c585bb          	subw	a1,a1,a2
    55e4:	40000637          	lui	a2,0x40000
    55e8:	000012b7          	lui	t0,0x1
    55ec:	405402b3          	sub	t0,s0,t0
    55f0:	deb2b423          	sd	a1,-536(t0) # de8 <.LBB69_3+0xbc4>
    55f4:	0005d463          	bgez	a1,55fc <.LBB69_316>
    55f8:	c0000637          	lui	a2,0xc0000

00000000000055fc <.LBB69_316>:
    55fc:	000015b7          	lui	a1,0x1
    5600:	40b405b3          	sub	a1,s0,a1
    5604:	dac5b823          	sd	a2,-592(a1) # db0 <.LBB69_3+0xb8c>
    5608:	b6043583          	ld	a1,-1184(s0)
    560c:	f6843603          	ld	a2,-152(s0)
    5610:	00c585b3          	add	a1,a1,a2
    5614:	006585b3          	add	a1,a1,t1
    5618:	4017063b          	subw	a2,a4,ra
    561c:	40c585bb          	subw	a1,a1,a2
    5620:	40000637          	lui	a2,0x40000
    5624:	b6b43023          	sd	a1,-1184(s0)
    5628:	0005d463          	bgez	a1,5630 <.LBB69_318>
    562c:	c0000637          	lui	a2,0xc0000

0000000000005630 <.LBB69_318>:
    5630:	000015b7          	lui	a1,0x1
    5634:	40b405b3          	sub	a1,s0,a1
    5638:	d2c5bc23          	sd	a2,-712(a1) # d38 <.LBB69_3+0xb14>
    563c:	f7043583          	ld	a1,-144(s0)
    5640:	b6843603          	ld	a2,-1176(s0)
    5644:	00b605b3          	add	a1,a2,a1
    5648:	01f585b3          	add	a1,a1,t6
    564c:	4017063b          	subw	a2,a4,ra
    5650:	40c585bb          	subw	a1,a1,a2
    5654:	40000637          	lui	a2,0x40000
    5658:	000012b7          	lui	t0,0x1
    565c:	405402b3          	sub	t0,s0,t0
    5660:	ceb2bc23          	sd	a1,-776(t0) # cf8 <.LBB69_3+0xad4>
    5664:	0005d463          	bgez	a1,566c <.LBB69_320>
    5668:	c0000637          	lui	a2,0xc0000

000000000000566c <.LBB69_320>:
    566c:	000015b7          	lui	a1,0x1
    5670:	40b405b3          	sub	a1,s0,a1
    5674:	ccc5b423          	sd	a2,-824(a1) # cc8 <.LBB69_3+0xaa4>
    5678:	f7843583          	ld	a1,-136(s0)
    567c:	00b785b3          	add	a1,a5,a1
    5680:	014585b3          	add	a1,a1,s4
    5684:	401707bb          	subw	a5,a4,ra
    5688:	40f587bb          	subw	a5,a1,a5
    568c:	400005b7          	lui	a1,0x40000
    5690:	e5043603          	ld	a2,-432(s0)
    5694:	000012b7          	lui	t0,0x1
    5698:	405402b3          	sub	t0,s0,t0
    569c:	bcf2b823          	sd	a5,-1072(t0) # bd0 <.LBB69_3+0x9ac>
    56a0:	000012b7          	lui	t0,0x1
    56a4:	405402b3          	sub	t0,s0,t0
    56a8:	3c02b283          	ld	t0,960(t0) # 13c0 <.LBB69_4+0x548>
    56ac:	0007d463          	bgez	a5,56b4 <.LBB69_322>
    56b0:	c00005b7          	lui	a1,0xc0000

00000000000056b4 <.LBB69_322>:
    56b4:	b6b43823          	sd	a1,-1168(s0)
    56b8:	b7843583          	ld	a1,-1160(s0)
    56bc:	f8043783          	ld	a5,-128(s0)
    56c0:	00f585b3          	add	a1,a1,a5
    56c4:	009585b3          	add	a1,a1,s1
    56c8:	401707bb          	subw	a5,a4,ra
    56cc:	40f585bb          	subw	a1,a1,a5
    56d0:	400007b7          	lui	a5,0x40000
    56d4:	f8a43823          	sd	a0,-112(s0)
    56d8:	00001537          	lui	a0,0x1
    56dc:	40a40533          	sub	a0,s0,a0
    56e0:	bcb53423          	sd	a1,-1080(a0) # bc8 <.LBB69_3+0x9a4>
    56e4:	f9043503          	ld	a0,-112(s0)
    56e8:	0005d463          	bgez	a1,56f0 <.LBB69_324>
    56ec:	c00007b7          	lui	a5,0xc0000

00000000000056f0 <.LBB69_324>:
    56f0:	000015b7          	lui	a1,0x1
    56f4:	40b405b3          	sub	a1,s0,a1
    56f8:	c2f5b423          	sd	a5,-984(a1) # c28 <.LBB69_3+0xa04>
    56fc:	f8843783          	ld	a5,-120(s0)
    5700:	b8043583          	ld	a1,-1152(s0)
    5704:	00f587b3          	add	a5,a1,a5
    5708:	01d787b3          	add	a5,a5,t4
    570c:	4017073b          	subw	a4,a4,ra
    5710:	40e785bb          	subw	a1,a5,a4
    5714:	40000737          	lui	a4,0x40000
    5718:	0005d463          	bgez	a1,5720 <.LBB69_326>
    571c:	c0000737          	lui	a4,0xc0000

0000000000005720 <.LBB69_326>:
    5720:	b8e43023          	sd	a4,-1152(s0)
    5724:	b8843703          	ld	a4,-1144(s0)
    5728:	eb043783          	ld	a5,-336(s0)
    572c:	00f70733          	add	a4,a4,a5
    5730:	ea843783          	ld	a5,-344(s0)
    5734:	00f70733          	add	a4,a4,a5
    5738:	401887bb          	subw	a5,a7,ra
    573c:	40f7073b          	subw	a4,a4,a5
    5740:	400007b7          	lui	a5,0x40000
    5744:	9ce43823          	sd	a4,-1584(s0)
    5748:	00075463          	bgez	a4,5750 <.LBB69_328>
    574c:	c00007b7          	lui	a5,0xc0000

0000000000005750 <.LBB69_328>:
    5750:	9cf43023          	sd	a5,-1600(s0)
    5754:	b9043703          	ld	a4,-1136(s0)
    5758:	ea043783          	ld	a5,-352(s0)
    575c:	00f70733          	add	a4,a4,a5
    5760:	e9843783          	ld	a5,-360(s0)
    5764:	00f70733          	add	a4,a4,a5
    5768:	401887bb          	subw	a5,a7,ra
    576c:	40f7073b          	subw	a4,a4,a5
    5770:	400007b7          	lui	a5,0x40000
    5774:	9ae43c23          	sd	a4,-1608(s0)
    5778:	00075463          	bgez	a4,5780 <.LBB69_330>
    577c:	c00007b7          	lui	a5,0xc0000

0000000000005780 <.LBB69_330>:
    5780:	9af43823          	sd	a5,-1616(s0)
    5784:	b9843703          	ld	a4,-1128(s0)
    5788:	e9043783          	ld	a5,-368(s0)
    578c:	00f70733          	add	a4,a4,a5
    5790:	e8843783          	ld	a5,-376(s0)
    5794:	00f70733          	add	a4,a4,a5
    5798:	401887bb          	subw	a5,a7,ra
    579c:	40f7073b          	subw	a4,a4,a5
    57a0:	400007b7          	lui	a5,0x40000
    57a4:	9ae43423          	sd	a4,-1624(s0)
    57a8:	00075463          	bgez	a4,57b0 <.LBB69_332>
    57ac:	c00007b7          	lui	a5,0xc0000

00000000000057b0 <.LBB69_332>:
    57b0:	9af43023          	sd	a5,-1632(s0)
    57b4:	ba043703          	ld	a4,-1120(s0)
    57b8:	e8043783          	ld	a5,-384(s0)
    57bc:	00f70733          	add	a4,a4,a5
    57c0:	e7843783          	ld	a5,-392(s0)
    57c4:	00f70733          	add	a4,a4,a5
    57c8:	401887bb          	subw	a5,a7,ra
    57cc:	40f7073b          	subw	a4,a4,a5
    57d0:	400007b7          	lui	a5,0x40000
    57d4:	96e43423          	sd	a4,-1688(s0)
    57d8:	00075463          	bgez	a4,57e0 <.LBB69_334>
    57dc:	c00007b7          	lui	a5,0xc0000

00000000000057e0 <.LBB69_334>:
    57e0:	94f43423          	sd	a5,-1720(s0)
    57e4:	ba843703          	ld	a4,-1112(s0)
    57e8:	e7043783          	ld	a5,-400(s0)
    57ec:	00f70733          	add	a4,a4,a5
    57f0:	e6843783          	ld	a5,-408(s0)
    57f4:	00f70733          	add	a4,a4,a5
    57f8:	401887bb          	subw	a5,a7,ra
    57fc:	40f7073b          	subw	a4,a4,a5
    5800:	400007b7          	lui	a5,0x40000
    5804:	92e43423          	sd	a4,-1752(s0)
    5808:	00075463          	bgez	a4,5810 <.LBB69_336>
    580c:	c00007b7          	lui	a5,0xc0000

0000000000005810 <.LBB69_336>:
    5810:	8ef43823          	sd	a5,-1808(s0)
    5814:	bb043703          	ld	a4,-1104(s0)
    5818:	000017b7          	lui	a5,0x1
    581c:	40f407b3          	sub	a5,s0,a5
    5820:	6c87b783          	ld	a5,1736(a5) # 16c8 <.LBB69_5+0x2ac>
    5824:	00f70733          	add	a4,a4,a5
    5828:	000017b7          	lui	a5,0x1
    582c:	40f407b3          	sub	a5,s0,a5
    5830:	6c07b783          	ld	a5,1728(a5) # 16c0 <.LBB69_5+0x2a4>
    5834:	00f70733          	add	a4,a4,a5
    5838:	401887bb          	subw	a5,a7,ra
    583c:	40f7073b          	subw	a4,a4,a5
    5840:	400007b7          	lui	a5,0x40000
    5844:	8ce43c23          	sd	a4,-1832(s0)
    5848:	00075463          	bgez	a4,5850 <.LBB69_338>
    584c:	c00007b7          	lui	a5,0xc0000

0000000000005850 <.LBB69_338>:
    5850:	8cf43023          	sd	a5,-1856(s0)
    5854:	bb843703          	ld	a4,-1096(s0)
    5858:	f8a43823          	sd	a0,-112(s0)
    585c:	00001537          	lui	a0,0x1
    5860:	40a40533          	sub	a0,s0,a0
    5864:	6b853783          	ld	a5,1720(a0) # 16b8 <.LBB69_5+0x29c>
    5868:	00f70733          	add	a4,a4,a5
    586c:	00001537          	lui	a0,0x1
    5870:	40a40533          	sub	a0,s0,a0
    5874:	6b053783          	ld	a5,1712(a0) # 16b0 <.LBB69_5+0x294>
    5878:	00f70733          	add	a4,a4,a5
    587c:	401887bb          	subw	a5,a7,ra
    5880:	40f7073b          	subw	a4,a4,a5
    5884:	400007b7          	lui	a5,0x40000
    5888:	00001537          	lui	a0,0x1
    588c:	40a40533          	sub	a0,s0,a0
    5890:	7ce53c23          	sd	a4,2008(a0) # 17d8 <.LBB69_5+0x3bc>
    5894:	f9043503          	ld	a0,-112(s0)
    5898:	00075463          	bgez	a4,58a0 <.LBB69_340>
    589c:	c00007b7          	lui	a5,0xc0000

00000000000058a0 <.LBB69_340>:
    58a0:	f8a43823          	sd	a0,-112(s0)
    58a4:	00001537          	lui	a0,0x1
    58a8:	40a40533          	sub	a0,s0,a0
    58ac:	72f53423          	sd	a5,1832(a0) # 1728 <.LBB69_5+0x30c>
    58b0:	bc043703          	ld	a4,-1088(s0)
    58b4:	00001537          	lui	a0,0x1
    58b8:	40a40533          	sub	a0,s0,a0
    58bc:	6a853783          	ld	a5,1704(a0) # 16a8 <.LBB69_5+0x28c>
    58c0:	00f70733          	add	a4,a4,a5
    58c4:	00001537          	lui	a0,0x1
    58c8:	40a40533          	sub	a0,s0,a0
    58cc:	6a053783          	ld	a5,1696(a0) # 16a0 <.LBB69_5+0x284>
    58d0:	00f70733          	add	a4,a4,a5
    58d4:	401887bb          	subw	a5,a7,ra
    58d8:	40f7073b          	subw	a4,a4,a5
    58dc:	400007b7          	lui	a5,0x40000
    58e0:	00001537          	lui	a0,0x1
    58e4:	40a40533          	sub	a0,s0,a0
    58e8:	6ee53823          	sd	a4,1776(a0) # 16f0 <.LBB69_5+0x2d4>
    58ec:	f9043503          	ld	a0,-112(s0)
    58f0:	00075463          	bgez	a4,58f8 <.LBB69_342>
    58f4:	c00007b7          	lui	a5,0xc0000

00000000000058f8 <.LBB69_342>:
    58f8:	f8a43823          	sd	a0,-112(s0)
    58fc:	00001537          	lui	a0,0x1
    5900:	40a40533          	sub	a0,s0,a0
    5904:	5af53823          	sd	a5,1456(a0) # 15b0 <.LBB69_5+0x194>
    5908:	bc843703          	ld	a4,-1080(s0)
    590c:	00001537          	lui	a0,0x1
    5910:	40a40533          	sub	a0,s0,a0
    5914:	69853783          	ld	a5,1688(a0) # 1698 <.LBB69_5+0x27c>
    5918:	00f70733          	add	a4,a4,a5
    591c:	00001537          	lui	a0,0x1
    5920:	40a40533          	sub	a0,s0,a0
    5924:	69053783          	ld	a5,1680(a0) # 1690 <.LBB69_5+0x274>
    5928:	00f70733          	add	a4,a4,a5
    592c:	401887bb          	subw	a5,a7,ra
    5930:	40f7073b          	subw	a4,a4,a5
    5934:	400007b7          	lui	a5,0x40000
    5938:	00001537          	lui	a0,0x1
    593c:	40a40533          	sub	a0,s0,a0
    5940:	58e53023          	sd	a4,1408(a0) # 1580 <.LBB69_5+0x164>
    5944:	f9043503          	ld	a0,-112(s0)
    5948:	00075463          	bgez	a4,5950 <.LBB69_344>
    594c:	c00007b7          	lui	a5,0xc0000

0000000000005950 <.LBB69_344>:
    5950:	f8a43823          	sd	a0,-112(s0)
    5954:	00001537          	lui	a0,0x1
    5958:	40a40533          	sub	a0,s0,a0
    595c:	54f53c23          	sd	a5,1368(a0) # 1558 <.LBB69_5+0x13c>
    5960:	bd043703          	ld	a4,-1072(s0)
    5964:	00001537          	lui	a0,0x1
    5968:	40a40533          	sub	a0,s0,a0
    596c:	68853783          	ld	a5,1672(a0) # 1688 <.LBB69_5+0x26c>
    5970:	00f70733          	add	a4,a4,a5
    5974:	00001537          	lui	a0,0x1
    5978:	40a40533          	sub	a0,s0,a0
    597c:	6d053783          	ld	a5,1744(a0) # 16d0 <.LBB69_5+0x2b4>
    5980:	00f70733          	add	a4,a4,a5
    5984:	401887bb          	subw	a5,a7,ra
    5988:	40f7073b          	subw	a4,a4,a5
    598c:	400007b7          	lui	a5,0x40000
    5990:	00001537          	lui	a0,0x1
    5994:	40a40533          	sub	a0,s0,a0
    5998:	52e53423          	sd	a4,1320(a0) # 1528 <.LBB69_5+0x10c>
    599c:	f9043503          	ld	a0,-112(s0)
    59a0:	00075463          	bgez	a4,59a8 <.LBB69_346>
    59a4:	c00007b7          	lui	a5,0xc0000

00000000000059a8 <.LBB69_346>:
    59a8:	f8a43823          	sd	a0,-112(s0)
    59ac:	00001537          	lui	a0,0x1
    59b0:	40a40533          	sub	a0,s0,a0
    59b4:	4ef53c23          	sd	a5,1272(a0) # 14f8 <.LBB69_5+0xdc>
    59b8:	bd843703          	ld	a4,-1064(s0)
    59bc:	eb843783          	ld	a5,-328(s0)
    59c0:	00f70733          	add	a4,a4,a5
    59c4:	00001537          	lui	a0,0x1
    59c8:	40a40533          	sub	a0,s0,a0
    59cc:	6d853783          	ld	a5,1752(a0) # 16d8 <.LBB69_5+0x2bc>
    59d0:	00f70733          	add	a4,a4,a5
    59d4:	401887bb          	subw	a5,a7,ra
    59d8:	40f7073b          	subw	a4,a4,a5
    59dc:	400007b7          	lui	a5,0x40000
    59e0:	00001537          	lui	a0,0x1
    59e4:	40a40533          	sub	a0,s0,a0
    59e8:	4ce53823          	sd	a4,1232(a0) # 14d0 <.LBB69_5+0xb4>
    59ec:	f9043503          	ld	a0,-112(s0)
    59f0:	00075463          	bgez	a4,59f8 <.LBB69_348>
    59f4:	c00007b7          	lui	a5,0xc0000

00000000000059f8 <.LBB69_348>:
    59f8:	f8a43823          	sd	a0,-112(s0)
    59fc:	00001537          	lui	a0,0x1
    5a00:	40a40533          	sub	a0,s0,a0
    5a04:	4af53023          	sd	a5,1184(a0) # 14a0 <.LBB69_5+0x84>
    5a08:	be043703          	ld	a4,-1056(s0)
    5a0c:	ec043783          	ld	a5,-320(s0)
    5a10:	00f70733          	add	a4,a4,a5
    5a14:	01b70733          	add	a4,a4,s11
    5a18:	401887bb          	subw	a5,a7,ra
    5a1c:	40f7073b          	subw	a4,a4,a5
    5a20:	400007b7          	lui	a5,0x40000
    5a24:	00001537          	lui	a0,0x1
    5a28:	40a40533          	sub	a0,s0,a0
    5a2c:	48e53023          	sd	a4,1152(a0) # 1480 <.LBB69_5+0x64>
    5a30:	f9043503          	ld	a0,-112(s0)
    5a34:	00075463          	bgez	a4,5a3c <.LBB69_350>
    5a38:	c00007b7          	lui	a5,0xc0000

0000000000005a3c <.LBB69_350>:
    5a3c:	f8a43823          	sd	a0,-112(s0)
    5a40:	00001537          	lui	a0,0x1
    5a44:	40a40533          	sub	a0,s0,a0
    5a48:	44f53823          	sd	a5,1104(a0) # 1450 <.LBB69_5+0x34>
    5a4c:	be843703          	ld	a4,-1048(s0)
    5a50:	ec843783          	ld	a5,-312(s0)
    5a54:	00f70733          	add	a4,a4,a5
    5a58:	01a70733          	add	a4,a4,s10
    5a5c:	401887bb          	subw	a5,a7,ra
    5a60:	40f7073b          	subw	a4,a4,a5
    5a64:	400007b7          	lui	a5,0x40000
    5a68:	00001537          	lui	a0,0x1
    5a6c:	40a40533          	sub	a0,s0,a0
    5a70:	42e53423          	sd	a4,1064(a0) # 1428 <.LBB69_5+0xc>
    5a74:	f9043503          	ld	a0,-112(s0)
    5a78:	00075463          	bgez	a4,5a80 <.LBB69_352>
    5a7c:	c00007b7          	lui	a5,0xc0000

0000000000005a80 <.LBB69_352>:
    5a80:	f8a43823          	sd	a0,-112(s0)
    5a84:	00001537          	lui	a0,0x1
    5a88:	40a40533          	sub	a0,s0,a0
    5a8c:	40f53023          	sd	a5,1024(a0) # 1400 <.LBB69_4+0x588>
    5a90:	bf043703          	ld	a4,-1040(s0)
    5a94:	ed043783          	ld	a5,-304(s0)
    5a98:	00f70733          	add	a4,a4,a5
    5a9c:	01970733          	add	a4,a4,s9
    5aa0:	401887bb          	subw	a5,a7,ra
    5aa4:	40f7073b          	subw	a4,a4,a5
    5aa8:	400007b7          	lui	a5,0x40000
    5aac:	00001537          	lui	a0,0x1
    5ab0:	40a40533          	sub	a0,s0,a0
    5ab4:	3ce53823          	sd	a4,976(a0) # 13d0 <.LBB69_4+0x558>
    5ab8:	f9043503          	ld	a0,-112(s0)
    5abc:	00075463          	bgez	a4,5ac4 <.LBB69_354>
    5ac0:	c00007b7          	lui	a5,0xc0000

0000000000005ac4 <.LBB69_354>:
    5ac4:	f8a43823          	sd	a0,-112(s0)
    5ac8:	00001537          	lui	a0,0x1
    5acc:	40a40533          	sub	a0,s0,a0
    5ad0:	3af53023          	sd	a5,928(a0) # 13a0 <.LBB69_4+0x528>
    5ad4:	bf843703          	ld	a4,-1032(s0)
    5ad8:	ed843783          	ld	a5,-296(s0)
    5adc:	00f70733          	add	a4,a4,a5
    5ae0:	01870733          	add	a4,a4,s8
    5ae4:	401887bb          	subw	a5,a7,ra
    5ae8:	40f7073b          	subw	a4,a4,a5
    5aec:	400007b7          	lui	a5,0x40000
    5af0:	00001537          	lui	a0,0x1
    5af4:	40a40533          	sub	a0,s0,a0
    5af8:	36e53423          	sd	a4,872(a0) # 1368 <.LBB69_4+0x4f0>
    5afc:	f9043503          	ld	a0,-112(s0)
    5b00:	00075463          	bgez	a4,5b08 <.LBB69_356>
    5b04:	c00007b7          	lui	a5,0xc0000

0000000000005b08 <.LBB69_356>:
    5b08:	f8a43823          	sd	a0,-112(s0)
    5b0c:	00001537          	lui	a0,0x1
    5b10:	40a40533          	sub	a0,s0,a0
    5b14:	32f53c23          	sd	a5,824(a0) # 1338 <.LBB69_4+0x4c0>
    5b18:	c0043703          	ld	a4,-1024(s0)
    5b1c:	ee043783          	ld	a5,-288(s0)
    5b20:	00f70733          	add	a4,a4,a5
    5b24:	01770733          	add	a4,a4,s7
    5b28:	401887bb          	subw	a5,a7,ra
    5b2c:	40f7073b          	subw	a4,a4,a5
    5b30:	400007b7          	lui	a5,0x40000
    5b34:	00001537          	lui	a0,0x1
    5b38:	40a40533          	sub	a0,s0,a0
    5b3c:	30e53023          	sd	a4,768(a0) # 1300 <.LBB69_4+0x488>
    5b40:	f9043503          	ld	a0,-112(s0)
    5b44:	00075463          	bgez	a4,5b4c <.LBB69_358>
    5b48:	c00007b7          	lui	a5,0xc0000

0000000000005b4c <.LBB69_358>:
    5b4c:	f8a43823          	sd	a0,-112(s0)
    5b50:	00001537          	lui	a0,0x1
    5b54:	40a40533          	sub	a0,s0,a0
    5b58:	2cf53823          	sd	a5,720(a0) # 12d0 <.LBB69_4+0x458>
    5b5c:	c0843703          	ld	a4,-1016(s0)
    5b60:	ee843783          	ld	a5,-280(s0)
    5b64:	00f70733          	add	a4,a4,a5
    5b68:	01670733          	add	a4,a4,s6
    5b6c:	401887bb          	subw	a5,a7,ra
    5b70:	40f7073b          	subw	a4,a4,a5
    5b74:	400007b7          	lui	a5,0x40000
    5b78:	00001537          	lui	a0,0x1
    5b7c:	40a40533          	sub	a0,s0,a0
    5b80:	28e53823          	sd	a4,656(a0) # 1290 <.LBB69_4+0x418>
    5b84:	f9043503          	ld	a0,-112(s0)
    5b88:	00075463          	bgez	a4,5b90 <.LBB69_360>
    5b8c:	c00007b7          	lui	a5,0xc0000

0000000000005b90 <.LBB69_360>:
    5b90:	f8a43823          	sd	a0,-112(s0)
    5b94:	00001537          	lui	a0,0x1
    5b98:	40a40533          	sub	a0,s0,a0
    5b9c:	24f53c23          	sd	a5,600(a0) # 1258 <.LBB69_4+0x3e0>
    5ba0:	c1043703          	ld	a4,-1008(s0)
    5ba4:	ef043783          	ld	a5,-272(s0)
    5ba8:	00f70733          	add	a4,a4,a5
    5bac:	01570733          	add	a4,a4,s5
    5bb0:	401887bb          	subw	a5,a7,ra
    5bb4:	40f7073b          	subw	a4,a4,a5
    5bb8:	400007b7          	lui	a5,0x40000
    5bbc:	00001537          	lui	a0,0x1
    5bc0:	40a40533          	sub	a0,s0,a0
    5bc4:	20e53c23          	sd	a4,536(a0) # 1218 <.LBB69_4+0x3a0>
    5bc8:	f9043503          	ld	a0,-112(s0)
    5bcc:	00075463          	bgez	a4,5bd4 <.LBB69_362>
    5bd0:	c00007b7          	lui	a5,0xc0000

0000000000005bd4 <.LBB69_362>:
    5bd4:	f8a43823          	sd	a0,-112(s0)
    5bd8:	00001537          	lui	a0,0x1
    5bdc:	40a40533          	sub	a0,s0,a0
    5be0:	1ef53023          	sd	a5,480(a0) # 11e0 <.LBB69_4+0x368>
    5be4:	c1843703          	ld	a4,-1000(s0)
    5be8:	ef843783          	ld	a5,-264(s0)
    5bec:	00f70733          	add	a4,a4,a5
    5bf0:	00001537          	lui	a0,0x1
    5bf4:	40a40533          	sub	a0,s0,a0
    5bf8:	71853783          	ld	a5,1816(a0) # 1718 <.LBB69_5+0x2fc>
    5bfc:	00f70733          	add	a4,a4,a5
    5c00:	401887bb          	subw	a5,a7,ra
    5c04:	40f7073b          	subw	a4,a4,a5
    5c08:	400007b7          	lui	a5,0x40000
    5c0c:	00001537          	lui	a0,0x1
    5c10:	40a40533          	sub	a0,s0,a0
    5c14:	1ae53023          	sd	a4,416(a0) # 11a0 <.LBB69_4+0x328>
    5c18:	f9043503          	ld	a0,-112(s0)
    5c1c:	00075463          	bgez	a4,5c24 <.LBB69_364>
    5c20:	c00007b7          	lui	a5,0xc0000

0000000000005c24 <.LBB69_364>:
    5c24:	f8a43823          	sd	a0,-112(s0)
    5c28:	00001537          	lui	a0,0x1
    5c2c:	40a40533          	sub	a0,s0,a0
    5c30:	16f53823          	sd	a5,368(a0) # 1170 <.LBB69_4+0x2f8>
    5c34:	c2043703          	ld	a4,-992(s0)
    5c38:	f0043783          	ld	a5,-256(s0)
    5c3c:	00f70733          	add	a4,a4,a5
    5c40:	01370733          	add	a4,a4,s3
    5c44:	401887bb          	subw	a5,a7,ra
    5c48:	40f7073b          	subw	a4,a4,a5
    5c4c:	400007b7          	lui	a5,0x40000
    5c50:	00001537          	lui	a0,0x1
    5c54:	40a40533          	sub	a0,s0,a0
    5c58:	12e53423          	sd	a4,296(a0) # 1128 <.LBB69_4+0x2b0>
    5c5c:	f9043503          	ld	a0,-112(s0)
    5c60:	00075463          	bgez	a4,5c68 <.LBB69_366>
    5c64:	c00007b7          	lui	a5,0xc0000

0000000000005c68 <.LBB69_366>:
    5c68:	f8a43823          	sd	a0,-112(s0)
    5c6c:	00001537          	lui	a0,0x1
    5c70:	40a40533          	sub	a0,s0,a0
    5c74:	0ef53823          	sd	a5,240(a0) # 10f0 <.LBB69_4+0x278>
    5c78:	c2843703          	ld	a4,-984(s0)
    5c7c:	f0843783          	ld	a5,-248(s0)
    5c80:	00f70733          	add	a4,a4,a5
    5c84:	01270733          	add	a4,a4,s2
    5c88:	401887bb          	subw	a5,a7,ra
    5c8c:	40f7073b          	subw	a4,a4,a5
    5c90:	400007b7          	lui	a5,0x40000
    5c94:	00001537          	lui	a0,0x1
    5c98:	40a40533          	sub	a0,s0,a0
    5c9c:	0ae53823          	sd	a4,176(a0) # 10b0 <.LBB69_4+0x238>
    5ca0:	f9043503          	ld	a0,-112(s0)
    5ca4:	00075463          	bgez	a4,5cac <.LBB69_368>
    5ca8:	c00007b7          	lui	a5,0xc0000

0000000000005cac <.LBB69_368>:
    5cac:	f8a43823          	sd	a0,-112(s0)
    5cb0:	00001537          	lui	a0,0x1
    5cb4:	40a40533          	sub	a0,s0,a0
    5cb8:	06f53c23          	sd	a5,120(a0) # 1078 <.LBB69_4+0x200>
    5cbc:	c3043703          	ld	a4,-976(s0)
    5cc0:	f3843783          	ld	a5,-200(s0)
    5cc4:	00f70733          	add	a4,a4,a5
    5cc8:	00001537          	lui	a0,0x1
    5ccc:	40a40533          	sub	a0,s0,a0
    5cd0:	73053783          	ld	a5,1840(a0) # 1730 <.LBB69_5+0x314>
    5cd4:	00f70733          	add	a4,a4,a5
    5cd8:	401887bb          	subw	a5,a7,ra
    5cdc:	40f7073b          	subw	a4,a4,a5
    5ce0:	400007b7          	lui	a5,0x40000
    5ce4:	00001537          	lui	a0,0x1
    5ce8:	40a40533          	sub	a0,s0,a0
    5cec:	02e53c23          	sd	a4,56(a0) # 1038 <.LBB69_4+0x1c0>
    5cf0:	f9043503          	ld	a0,-112(s0)
    5cf4:	00075463          	bgez	a4,5cfc <.LBB69_370>
    5cf8:	c00007b7          	lui	a5,0xc0000

0000000000005cfc <.LBB69_370>:
    5cfc:	f8a43823          	sd	a0,-112(s0)
    5d00:	00001537          	lui	a0,0x1
    5d04:	40a40533          	sub	a0,s0,a0
    5d08:	00f53423          	sd	a5,8(a0) # 1008 <.LBB69_4+0x190>
    5d0c:	c3843703          	ld	a4,-968(s0)
    5d10:	f4043783          	ld	a5,-192(s0)
    5d14:	00f70733          	add	a4,a4,a5
    5d18:	00001537          	lui	a0,0x1
    5d1c:	40a40533          	sub	a0,s0,a0
    5d20:	73853783          	ld	a5,1848(a0) # 1738 <.LBB69_5+0x31c>
    5d24:	00f70733          	add	a4,a4,a5
    5d28:	401887bb          	subw	a5,a7,ra
    5d2c:	40f7073b          	subw	a4,a4,a5
    5d30:	400007b7          	lui	a5,0x40000
    5d34:	00001537          	lui	a0,0x1
    5d38:	40a40533          	sub	a0,s0,a0
    5d3c:	fce53023          	sd	a4,-64(a0) # fc0 <.LBB69_4+0x148>
    5d40:	f9043503          	ld	a0,-112(s0)
    5d44:	00075463          	bgez	a4,5d4c <.LBB69_372>
    5d48:	c00007b7          	lui	a5,0xc0000

0000000000005d4c <.LBB69_372>:
    5d4c:	f8a43823          	sd	a0,-112(s0)
    5d50:	00001537          	lui	a0,0x1
    5d54:	40a40533          	sub	a0,s0,a0
    5d58:	f8f53823          	sd	a5,-112(a0) # f90 <.LBB69_4+0x118>
    5d5c:	c4043703          	ld	a4,-960(s0)
    5d60:	f4843783          	ld	a5,-184(s0)
    5d64:	00f70733          	add	a4,a4,a5
    5d68:	00001537          	lui	a0,0x1
    5d6c:	40a40533          	sub	a0,s0,a0
    5d70:	74053783          	ld	a5,1856(a0) # 1740 <.LBB69_5+0x324>
    5d74:	00f70733          	add	a4,a4,a5
    5d78:	401887bb          	subw	a5,a7,ra
    5d7c:	40f7073b          	subw	a4,a4,a5
    5d80:	400007b7          	lui	a5,0x40000
    5d84:	00001537          	lui	a0,0x1
    5d88:	40a40533          	sub	a0,s0,a0
    5d8c:	f4e53823          	sd	a4,-176(a0) # f50 <.LBB69_4+0xd8>
    5d90:	f9043503          	ld	a0,-112(s0)
    5d94:	00075463          	bgez	a4,5d9c <.LBB69_374>
    5d98:	c00007b7          	lui	a5,0xc0000

0000000000005d9c <.LBB69_374>:
    5d9c:	f8a43823          	sd	a0,-112(s0)
    5da0:	00001537          	lui	a0,0x1
    5da4:	40a40533          	sub	a0,s0,a0
    5da8:	f2f53023          	sd	a5,-224(a0) # f20 <.LBB69_4+0xa8>
    5dac:	c4843703          	ld	a4,-952(s0)
    5db0:	f5043783          	ld	a5,-176(s0)
    5db4:	00f70733          	add	a4,a4,a5
    5db8:	01e70733          	add	a4,a4,t5
    5dbc:	401887bb          	subw	a5,a7,ra
    5dc0:	40f7073b          	subw	a4,a4,a5
    5dc4:	400007b7          	lui	a5,0x40000
    5dc8:	00001537          	lui	a0,0x1
    5dcc:	40a40533          	sub	a0,s0,a0
    5dd0:	ece53c23          	sd	a4,-296(a0) # ed8 <.LBB69_4+0x60>
    5dd4:	f9043503          	ld	a0,-112(s0)
    5dd8:	00075463          	bgez	a4,5de0 <.LBB69_376>
    5ddc:	c00007b7          	lui	a5,0xc0000

0000000000005de0 <.LBB69_376>:
    5de0:	f8a43823          	sd	a0,-112(s0)
    5de4:	00001537          	lui	a0,0x1
    5de8:	40a40533          	sub	a0,s0,a0
    5dec:	eaf53023          	sd	a5,-352(a0) # ea0 <.LBB69_4+0x28>
    5df0:	c5043703          	ld	a4,-944(s0)
    5df4:	f5843783          	ld	a5,-168(s0)
    5df8:	00f70733          	add	a4,a4,a5
    5dfc:	01c70733          	add	a4,a4,t3
    5e00:	401887bb          	subw	a5,a7,ra
    5e04:	40f7073b          	subw	a4,a4,a5
    5e08:	400007b7          	lui	a5,0x40000
    5e0c:	00001537          	lui	a0,0x1
    5e10:	40a40533          	sub	a0,s0,a0
    5e14:	e6e53023          	sd	a4,-416(a0) # e60 <.LBB69_3+0xc3c>
    5e18:	f9043503          	ld	a0,-112(s0)
    5e1c:	00075463          	bgez	a4,5e24 <.LBB69_378>
    5e20:	c00007b7          	lui	a5,0xc0000

0000000000005e24 <.LBB69_378>:
    5e24:	f8a43823          	sd	a0,-112(s0)
    5e28:	00001537          	lui	a0,0x1
    5e2c:	40a40533          	sub	a0,s0,a0
    5e30:	e2f53423          	sd	a5,-472(a0) # e28 <.LBB69_3+0xc04>
    5e34:	c5843703          	ld	a4,-936(s0)
    5e38:	f6043783          	ld	a5,-160(s0)
    5e3c:	00f70733          	add	a4,a4,a5
    5e40:	00770733          	add	a4,a4,t2
    5e44:	401887bb          	subw	a5,a7,ra
    5e48:	40f7073b          	subw	a4,a4,a5
    5e4c:	400007b7          	lui	a5,0x40000
    5e50:	00001537          	lui	a0,0x1
    5e54:	40a40533          	sub	a0,s0,a0
    5e58:	dee53023          	sd	a4,-544(a0) # de0 <.LBB69_3+0xbbc>
    5e5c:	f9043503          	ld	a0,-112(s0)
    5e60:	00075463          	bgez	a4,5e68 <.LBB69_380>
    5e64:	c00007b7          	lui	a5,0xc0000

0000000000005e68 <.LBB69_380>:
    5e68:	f8a43823          	sd	a0,-112(s0)
    5e6c:	00001537          	lui	a0,0x1
    5e70:	40a40533          	sub	a0,s0,a0
    5e74:	daf53423          	sd	a5,-600(a0) # da8 <.LBB69_3+0xb84>
    5e78:	c6043703          	ld	a4,-928(s0)
    5e7c:	f6843783          	ld	a5,-152(s0)
    5e80:	00f70733          	add	a4,a4,a5
    5e84:	00670733          	add	a4,a4,t1
    5e88:	401887bb          	subw	a5,a7,ra
    5e8c:	40f7073b          	subw	a4,a4,a5
    5e90:	400007b7          	lui	a5,0x40000
    5e94:	00001537          	lui	a0,0x1
    5e98:	40a40533          	sub	a0,s0,a0
    5e9c:	d6e53423          	sd	a4,-664(a0) # d68 <.LBB69_3+0xb44>
    5ea0:	f9043503          	ld	a0,-112(s0)
    5ea4:	00075463          	bgez	a4,5eac <.LBB69_382>
    5ea8:	c00007b7          	lui	a5,0xc0000

0000000000005eac <.LBB69_382>:
    5eac:	f8a43823          	sd	a0,-112(s0)
    5eb0:	00001537          	lui	a0,0x1
    5eb4:	40a40533          	sub	a0,s0,a0
    5eb8:	d2f53823          	sd	a5,-720(a0) # d30 <.LBB69_3+0xb0c>
    5ebc:	f7043703          	ld	a4,-144(s0)
    5ec0:	c6843783          	ld	a5,-920(s0)
    5ec4:	00e78733          	add	a4,a5,a4
    5ec8:	01f70733          	add	a4,a4,t6
    5ecc:	401887bb          	subw	a5,a7,ra
    5ed0:	40f707bb          	subw	a5,a4,a5
    5ed4:	40000737          	lui	a4,0x40000
    5ed8:	00001537          	lui	a0,0x1
    5edc:	40a40533          	sub	a0,s0,a0
    5ee0:	c0f53423          	sd	a5,-1016(a0) # c08 <.LBB69_3+0x9e4>
    5ee4:	f9043503          	ld	a0,-112(s0)
    5ee8:	0007d463          	bgez	a5,5ef0 <.LBB69_384>
    5eec:	c0000737          	lui	a4,0xc0000

0000000000005ef0 <.LBB69_384>:
    5ef0:	f8a43823          	sd	a0,-112(s0)
    5ef4:	00001537          	lui	a0,0x1
    5ef8:	40a40533          	sub	a0,s0,a0
    5efc:	cce53023          	sd	a4,-832(a0) # cc0 <.LBB69_3+0xa9c>
    5f00:	f7843703          	ld	a4,-136(s0)
    5f04:	c7043783          	ld	a5,-912(s0)
    5f08:	00e78733          	add	a4,a5,a4
    5f0c:	01470733          	add	a4,a4,s4
    5f10:	401887bb          	subw	a5,a7,ra
    5f14:	40f707bb          	subw	a5,a4,a5
    5f18:	40000737          	lui	a4,0x40000
    5f1c:	00001537          	lui	a0,0x1
    5f20:	40a40533          	sub	a0,s0,a0
    5f24:	bef53023          	sd	a5,-1056(a0) # be0 <.LBB69_3+0x9bc>
    5f28:	f9043503          	ld	a0,-112(s0)
    5f2c:	0007d463          	bgez	a5,5f34 <.LBB69_386>
    5f30:	c0000737          	lui	a4,0xc0000

0000000000005f34 <.LBB69_386>:
    5f34:	f8a43823          	sd	a0,-112(s0)
    5f38:	00001537          	lui	a0,0x1
    5f3c:	40a40533          	sub	a0,s0,a0
    5f40:	c6e53c23          	sd	a4,-904(a0) # c78 <.LBB69_3+0xa54>
    5f44:	f8043703          	ld	a4,-128(s0)
    5f48:	c7843783          	ld	a5,-904(s0)
    5f4c:	00e78733          	add	a4,a5,a4
    5f50:	00970733          	add	a4,a4,s1
    5f54:	401887bb          	subw	a5,a7,ra
    5f58:	40f7073b          	subw	a4,a4,a5
    5f5c:	400007b7          	lui	a5,0x40000
    5f60:	00001537          	lui	a0,0x1
    5f64:	40a40533          	sub	a0,s0,a0
    5f68:	b6e53c23          	sd	a4,-1160(a0) # b78 <.LBB69_3+0x954>
    5f6c:	f9043503          	ld	a0,-112(s0)
    5f70:	00075463          	bgez	a4,5f78 <.LBB69_388>
    5f74:	c00007b7          	lui	a5,0xc0000

0000000000005f78 <.LBB69_388>:
    5f78:	00001737          	lui	a4,0x1
    5f7c:	40e40733          	sub	a4,s0,a4
    5f80:	c2f73023          	sd	a5,-992(a4) # c20 <.LBB69_3+0x9fc>
    5f84:	f8843783          	ld	a5,-120(s0)
    5f88:	00f807b3          	add	a5,a6,a5
    5f8c:	01d787b3          	add	a5,a5,t4
    5f90:	4018883b          	subw	a6,a7,ra
    5f94:	4107873b          	subw	a4,a5,a6
    5f98:	400007b7          	lui	a5,0x40000
    5f9c:	00075463          	bgez	a4,5fa4 <.LBB69_390>
    5fa0:	c00007b7          	lui	a5,0xc0000

0000000000005fa4 <.LBB69_390>:
    5fa4:	00001837          	lui	a6,0x1
    5fa8:	41040833          	sub	a6,s0,a6
    5fac:	b8f83423          	sd	a5,-1144(a6) # b88 <.LBB69_3+0x964>
    5fb0:	c8843783          	ld	a5,-888(s0)
    5fb4:	eb043803          	ld	a6,-336(s0)
    5fb8:	010787b3          	add	a5,a5,a6
    5fbc:	ea843803          	ld	a6,-344(s0)
    5fc0:	010787b3          	add	a5,a5,a6
    5fc4:	4012883b          	subw	a6,t0,ra
    5fc8:	410787bb          	subw	a5,a5,a6
    5fcc:	40000837          	lui	a6,0x40000
    5fd0:	96f43023          	sd	a5,-1696(s0)
    5fd4:	0007d463          	bgez	a5,5fdc <.LBB69_392>
    5fd8:	c0000837          	lui	a6,0xc0000

0000000000005fdc <.LBB69_392>:
    5fdc:	95043823          	sd	a6,-1712(s0)
    5fe0:	c9043783          	ld	a5,-880(s0)
    5fe4:	ea043803          	ld	a6,-352(s0)
    5fe8:	010787b3          	add	a5,a5,a6
    5fec:	e9843803          	ld	a6,-360(s0)
    5ff0:	010787b3          	add	a5,a5,a6
    5ff4:	4012883b          	subw	a6,t0,ra
    5ff8:	410787bb          	subw	a5,a5,a6
    5ffc:	40000837          	lui	a6,0x40000
    6000:	94f43023          	sd	a5,-1728(s0)
    6004:	0007d463          	bgez	a5,600c <.LBB69_394>
    6008:	c0000837          	lui	a6,0xc0000

000000000000600c <.LBB69_394>:
    600c:	93043823          	sd	a6,-1744(s0)
    6010:	c9843783          	ld	a5,-872(s0)
    6014:	e9043803          	ld	a6,-368(s0)
    6018:	010787b3          	add	a5,a5,a6
    601c:	e8843803          	ld	a6,-376(s0)
    6020:	010787b3          	add	a5,a5,a6
    6024:	4012883b          	subw	a6,t0,ra
    6028:	410787bb          	subw	a5,a5,a6
    602c:	40000837          	lui	a6,0x40000
    6030:	92f43023          	sd	a5,-1760(s0)
    6034:	0007d463          	bgez	a5,603c <.LBB69_396>
    6038:	c0000837          	lui	a6,0xc0000

000000000000603c <.LBB69_396>:
    603c:	91043823          	sd	a6,-1776(s0)
    6040:	ca043783          	ld	a5,-864(s0)
    6044:	e8043803          	ld	a6,-384(s0)
    6048:	010787b3          	add	a5,a5,a6
    604c:	e7843803          	ld	a6,-392(s0)
    6050:	010787b3          	add	a5,a5,a6
    6054:	4012883b          	subw	a6,t0,ra
    6058:	410787bb          	subw	a5,a5,a6
    605c:	40000837          	lui	a6,0x40000
    6060:	90f43023          	sd	a5,-1792(s0)
    6064:	0007d463          	bgez	a5,606c <.LBB69_398>
    6068:	c0000837          	lui	a6,0xc0000

000000000000606c <.LBB69_398>:
    606c:	8f043c23          	sd	a6,-1800(s0)
    6070:	ca843783          	ld	a5,-856(s0)
    6074:	e7043803          	ld	a6,-400(s0)
    6078:	010787b3          	add	a5,a5,a6
    607c:	e6843803          	ld	a6,-408(s0)
    6080:	010787b3          	add	a5,a5,a6
    6084:	4012883b          	subw	a6,t0,ra
    6088:	410787bb          	subw	a5,a5,a6
    608c:	40000837          	lui	a6,0x40000
    6090:	90f43423          	sd	a5,-1784(s0)
    6094:	0007d463          	bgez	a5,609c <.LBB69_400>
    6098:	c0000837          	lui	a6,0xc0000

000000000000609c <.LBB69_400>:
    609c:	8f043423          	sd	a6,-1816(s0)
    60a0:	cb043783          	ld	a5,-848(s0)
    60a4:	00001837          	lui	a6,0x1
    60a8:	41040833          	sub	a6,s0,a6
    60ac:	6c883803          	ld	a6,1736(a6) # 16c8 <.LBB69_5+0x2ac>
    60b0:	010787b3          	add	a5,a5,a6
    60b4:	00001837          	lui	a6,0x1
    60b8:	41040833          	sub	a6,s0,a6
    60bc:	6c083803          	ld	a6,1728(a6) # 16c0 <.LBB69_5+0x2a4>
    60c0:	010787b3          	add	a5,a5,a6
    60c4:	4012883b          	subw	a6,t0,ra
    60c8:	410787bb          	subw	a5,a5,a6
    60cc:	40000837          	lui	a6,0x40000
    60d0:	8cf43823          	sd	a5,-1840(s0)
    60d4:	0007d463          	bgez	a5,60dc <.LBB69_402>
    60d8:	c0000837          	lui	a6,0xc0000

00000000000060dc <.LBB69_402>:
    60dc:	8b043c23          	sd	a6,-1864(s0)
    60e0:	cb843783          	ld	a5,-840(s0)
    60e4:	00001837          	lui	a6,0x1
    60e8:	41040833          	sub	a6,s0,a6
    60ec:	6b883803          	ld	a6,1720(a6) # 16b8 <.LBB69_5+0x29c>
    60f0:	010787b3          	add	a5,a5,a6
    60f4:	00001837          	lui	a6,0x1
    60f8:	41040833          	sub	a6,s0,a6
    60fc:	6b083803          	ld	a6,1712(a6) # 16b0 <.LBB69_5+0x294>
    6100:	010787b3          	add	a5,a5,a6
    6104:	4012883b          	subw	a6,t0,ra
    6108:	410787bb          	subw	a5,a5,a6
    610c:	40000837          	lui	a6,0x40000
    6110:	000018b7          	lui	a7,0x1
    6114:	411408b3          	sub	a7,s0,a7
    6118:	7cf8b823          	sd	a5,2000(a7) # 17d0 <.LBB69_5+0x3b4>
    611c:	0007d463          	bgez	a5,6124 <.LBB69_404>
    6120:	c0000837          	lui	a6,0xc0000

0000000000006124 <.LBB69_404>:
    6124:	000017b7          	lui	a5,0x1
    6128:	40f407b3          	sub	a5,s0,a5
    612c:	7307b023          	sd	a6,1824(a5) # 1720 <.LBB69_5+0x304>
    6130:	cc043783          	ld	a5,-832(s0)
    6134:	00001837          	lui	a6,0x1
    6138:	41040833          	sub	a6,s0,a6
    613c:	6a883803          	ld	a6,1704(a6) # 16a8 <.LBB69_5+0x28c>
    6140:	010787b3          	add	a5,a5,a6
    6144:	00001837          	lui	a6,0x1
    6148:	41040833          	sub	a6,s0,a6
    614c:	6a083803          	ld	a6,1696(a6) # 16a0 <.LBB69_5+0x284>
    6150:	010787b3          	add	a5,a5,a6
    6154:	4012883b          	subw	a6,t0,ra
    6158:	410787bb          	subw	a5,a5,a6
    615c:	40000837          	lui	a6,0x40000
    6160:	000018b7          	lui	a7,0x1
    6164:	411408b3          	sub	a7,s0,a7
    6168:	6ef8b423          	sd	a5,1768(a7) # 16e8 <.LBB69_5+0x2cc>
    616c:	0007d463          	bgez	a5,6174 <.LBB69_406>
    6170:	c0000837          	lui	a6,0xc0000

0000000000006174 <.LBB69_406>:
    6174:	000017b7          	lui	a5,0x1
    6178:	40f407b3          	sub	a5,s0,a5
    617c:	5b07b423          	sd	a6,1448(a5) # 15a8 <.LBB69_5+0x18c>
    6180:	cc843783          	ld	a5,-824(s0)
    6184:	00001837          	lui	a6,0x1
    6188:	41040833          	sub	a6,s0,a6
    618c:	69883803          	ld	a6,1688(a6) # 1698 <.LBB69_5+0x27c>
    6190:	010787b3          	add	a5,a5,a6
    6194:	00001837          	lui	a6,0x1
    6198:	41040833          	sub	a6,s0,a6
    619c:	69083803          	ld	a6,1680(a6) # 1690 <.LBB69_5+0x274>
    61a0:	010787b3          	add	a5,a5,a6
    61a4:	4012883b          	subw	a6,t0,ra
    61a8:	410787bb          	subw	a5,a5,a6
    61ac:	40000837          	lui	a6,0x40000
    61b0:	000018b7          	lui	a7,0x1
    61b4:	411408b3          	sub	a7,s0,a7
    61b8:	56f8bc23          	sd	a5,1400(a7) # 1578 <.LBB69_5+0x15c>
    61bc:	0007d463          	bgez	a5,61c4 <.LBB69_408>
    61c0:	c0000837          	lui	a6,0xc0000

00000000000061c4 <.LBB69_408>:
    61c4:	000017b7          	lui	a5,0x1
    61c8:	40f407b3          	sub	a5,s0,a5
    61cc:	5507b823          	sd	a6,1360(a5) # 1550 <.LBB69_5+0x134>
    61d0:	cd043783          	ld	a5,-816(s0)
    61d4:	00001837          	lui	a6,0x1
    61d8:	41040833          	sub	a6,s0,a6
    61dc:	68883803          	ld	a6,1672(a6) # 1688 <.LBB69_5+0x26c>
    61e0:	010787b3          	add	a5,a5,a6
    61e4:	00001837          	lui	a6,0x1
    61e8:	41040833          	sub	a6,s0,a6
    61ec:	6d083803          	ld	a6,1744(a6) # 16d0 <.LBB69_5+0x2b4>
    61f0:	010787b3          	add	a5,a5,a6
    61f4:	4012883b          	subw	a6,t0,ra
    61f8:	410787bb          	subw	a5,a5,a6
    61fc:	40000837          	lui	a6,0x40000
    6200:	000018b7          	lui	a7,0x1
    6204:	411408b3          	sub	a7,s0,a7
    6208:	52f8b023          	sd	a5,1312(a7) # 1520 <.LBB69_5+0x104>
    620c:	0007d463          	bgez	a5,6214 <.LBB69_410>
    6210:	c0000837          	lui	a6,0xc0000

0000000000006214 <.LBB69_410>:
    6214:	000017b7          	lui	a5,0x1
    6218:	40f407b3          	sub	a5,s0,a5
    621c:	4f07b823          	sd	a6,1264(a5) # 14f0 <.LBB69_5+0xd4>
    6220:	cd843783          	ld	a5,-808(s0)
    6224:	eb843803          	ld	a6,-328(s0)
    6228:	010787b3          	add	a5,a5,a6
    622c:	00001837          	lui	a6,0x1
    6230:	41040833          	sub	a6,s0,a6
    6234:	6d883803          	ld	a6,1752(a6) # 16d8 <.LBB69_5+0x2bc>
    6238:	010787b3          	add	a5,a5,a6
    623c:	4012883b          	subw	a6,t0,ra
    6240:	410787bb          	subw	a5,a5,a6
    6244:	40000837          	lui	a6,0x40000
    6248:	000018b7          	lui	a7,0x1
    624c:	411408b3          	sub	a7,s0,a7
    6250:	4cf8b423          	sd	a5,1224(a7) # 14c8 <.LBB69_5+0xac>
    6254:	0007d463          	bgez	a5,625c <.LBB69_412>
    6258:	c0000837          	lui	a6,0xc0000

000000000000625c <.LBB69_412>:
    625c:	000017b7          	lui	a5,0x1
    6260:	40f407b3          	sub	a5,s0,a5
    6264:	4907bc23          	sd	a6,1176(a5) # 1498 <.LBB69_5+0x7c>
    6268:	ce043783          	ld	a5,-800(s0)
    626c:	ec043803          	ld	a6,-320(s0)
    6270:	010787b3          	add	a5,a5,a6
    6274:	01b787b3          	add	a5,a5,s11
    6278:	4012883b          	subw	a6,t0,ra
    627c:	410787bb          	subw	a5,a5,a6
    6280:	40000837          	lui	a6,0x40000
    6284:	000018b7          	lui	a7,0x1
    6288:	411408b3          	sub	a7,s0,a7
    628c:	46f8bc23          	sd	a5,1144(a7) # 1478 <.LBB69_5+0x5c>
    6290:	0007d463          	bgez	a5,6298 <.LBB69_414>
    6294:	c0000837          	lui	a6,0xc0000

0000000000006298 <.LBB69_414>:
    6298:	000017b7          	lui	a5,0x1
    629c:	40f407b3          	sub	a5,s0,a5
    62a0:	4507b423          	sd	a6,1096(a5) # 1448 <.LBB69_5+0x2c>
    62a4:	ce843783          	ld	a5,-792(s0)
    62a8:	ec843803          	ld	a6,-312(s0)
    62ac:	010787b3          	add	a5,a5,a6
    62b0:	01a787b3          	add	a5,a5,s10
    62b4:	4012883b          	subw	a6,t0,ra
    62b8:	410787bb          	subw	a5,a5,a6
    62bc:	40000837          	lui	a6,0x40000
    62c0:	000018b7          	lui	a7,0x1
    62c4:	411408b3          	sub	a7,s0,a7
    62c8:	42f8b023          	sd	a5,1056(a7) # 1420 <.LBB69_5+0x4>
    62cc:	0007d463          	bgez	a5,62d4 <.LBB69_416>
    62d0:	c0000837          	lui	a6,0xc0000

00000000000062d4 <.LBB69_416>:
    62d4:	000017b7          	lui	a5,0x1
    62d8:	40f407b3          	sub	a5,s0,a5
    62dc:	3f07bc23          	sd	a6,1016(a5) # 13f8 <.LBB69_4+0x580>
    62e0:	cf043783          	ld	a5,-784(s0)
    62e4:	ed043803          	ld	a6,-304(s0)
    62e8:	010787b3          	add	a5,a5,a6
    62ec:	019787b3          	add	a5,a5,s9
    62f0:	4012883b          	subw	a6,t0,ra
    62f4:	410787bb          	subw	a5,a5,a6
    62f8:	40000837          	lui	a6,0x40000
    62fc:	000018b7          	lui	a7,0x1
    6300:	411408b3          	sub	a7,s0,a7
    6304:	3cf8b423          	sd	a5,968(a7) # 13c8 <.LBB69_4+0x550>
    6308:	0007d463          	bgez	a5,6310 <.LBB69_418>
    630c:	c0000837          	lui	a6,0xc0000

0000000000006310 <.LBB69_418>:
    6310:	000017b7          	lui	a5,0x1
    6314:	40f407b3          	sub	a5,s0,a5
    6318:	3907bc23          	sd	a6,920(a5) # 1398 <.LBB69_4+0x520>
    631c:	cf843783          	ld	a5,-776(s0)
    6320:	ed843803          	ld	a6,-296(s0)
    6324:	010787b3          	add	a5,a5,a6
    6328:	018787b3          	add	a5,a5,s8
    632c:	4012883b          	subw	a6,t0,ra
    6330:	410787bb          	subw	a5,a5,a6
    6334:	40000837          	lui	a6,0x40000
    6338:	000018b7          	lui	a7,0x1
    633c:	411408b3          	sub	a7,s0,a7
    6340:	36f8b023          	sd	a5,864(a7) # 1360 <.LBB69_4+0x4e8>
    6344:	0007d463          	bgez	a5,634c <.LBB69_420>
    6348:	c0000837          	lui	a6,0xc0000

000000000000634c <.LBB69_420>:
    634c:	000017b7          	lui	a5,0x1
    6350:	40f407b3          	sub	a5,s0,a5
    6354:	3307b823          	sd	a6,816(a5) # 1330 <.LBB69_4+0x4b8>
    6358:	d0043783          	ld	a5,-768(s0)
    635c:	ee043803          	ld	a6,-288(s0)
    6360:	010787b3          	add	a5,a5,a6
    6364:	017787b3          	add	a5,a5,s7
    6368:	4012883b          	subw	a6,t0,ra
    636c:	410787bb          	subw	a5,a5,a6
    6370:	40000837          	lui	a6,0x40000
    6374:	000018b7          	lui	a7,0x1
    6378:	411408b3          	sub	a7,s0,a7
    637c:	2ef8bc23          	sd	a5,760(a7) # 12f8 <.LBB69_4+0x480>
    6380:	0007d463          	bgez	a5,6388 <.LBB69_422>
    6384:	c0000837          	lui	a6,0xc0000

0000000000006388 <.LBB69_422>:
    6388:	000017b7          	lui	a5,0x1
    638c:	40f407b3          	sub	a5,s0,a5
    6390:	2d07b423          	sd	a6,712(a5) # 12c8 <.LBB69_4+0x450>
    6394:	d0843783          	ld	a5,-760(s0)
    6398:	ee843803          	ld	a6,-280(s0)
    639c:	010787b3          	add	a5,a5,a6
    63a0:	016787b3          	add	a5,a5,s6
    63a4:	4012883b          	subw	a6,t0,ra
    63a8:	410787bb          	subw	a5,a5,a6
    63ac:	40000837          	lui	a6,0x40000
    63b0:	000018b7          	lui	a7,0x1
    63b4:	411408b3          	sub	a7,s0,a7
    63b8:	28f8b423          	sd	a5,648(a7) # 1288 <.LBB69_4+0x410>
    63bc:	0007d463          	bgez	a5,63c4 <.LBB69_424>
    63c0:	c0000837          	lui	a6,0xc0000

00000000000063c4 <.LBB69_424>:
    63c4:	000017b7          	lui	a5,0x1
    63c8:	40f407b3          	sub	a5,s0,a5
    63cc:	2507b823          	sd	a6,592(a5) # 1250 <.LBB69_4+0x3d8>
    63d0:	d1043783          	ld	a5,-752(s0)
    63d4:	ef043803          	ld	a6,-272(s0)
    63d8:	010787b3          	add	a5,a5,a6
    63dc:	015787b3          	add	a5,a5,s5
    63e0:	4012883b          	subw	a6,t0,ra
    63e4:	410787bb          	subw	a5,a5,a6
    63e8:	40000837          	lui	a6,0x40000
    63ec:	000018b7          	lui	a7,0x1
    63f0:	411408b3          	sub	a7,s0,a7
    63f4:	20f8b823          	sd	a5,528(a7) # 1210 <.LBB69_4+0x398>
    63f8:	0007d463          	bgez	a5,6400 <.LBB69_426>
    63fc:	c0000837          	lui	a6,0xc0000

0000000000006400 <.LBB69_426>:
    6400:	000017b7          	lui	a5,0x1
    6404:	40f407b3          	sub	a5,s0,a5
    6408:	1d07bc23          	sd	a6,472(a5) # 11d8 <.LBB69_4+0x360>
    640c:	d1843783          	ld	a5,-744(s0)
    6410:	ef843803          	ld	a6,-264(s0)
    6414:	010787b3          	add	a5,a5,a6
    6418:	00001837          	lui	a6,0x1
    641c:	41040833          	sub	a6,s0,a6
    6420:	71883803          	ld	a6,1816(a6) # 1718 <.LBB69_5+0x2fc>
    6424:	010787b3          	add	a5,a5,a6
    6428:	4012883b          	subw	a6,t0,ra
    642c:	410787bb          	subw	a5,a5,a6
    6430:	40000837          	lui	a6,0x40000
    6434:	000018b7          	lui	a7,0x1
    6438:	411408b3          	sub	a7,s0,a7
    643c:	18f8bc23          	sd	a5,408(a7) # 1198 <.LBB69_4+0x320>
    6440:	0007d463          	bgez	a5,6448 <.LBB69_428>
    6444:	c0000837          	lui	a6,0xc0000

0000000000006448 <.LBB69_428>:
    6448:	000017b7          	lui	a5,0x1
    644c:	40f407b3          	sub	a5,s0,a5
    6450:	1707b423          	sd	a6,360(a5) # 1168 <.LBB69_4+0x2f0>
    6454:	d2043783          	ld	a5,-736(s0)
    6458:	f0043803          	ld	a6,-256(s0)
    645c:	010787b3          	add	a5,a5,a6
    6460:	013787b3          	add	a5,a5,s3
    6464:	4012883b          	subw	a6,t0,ra
    6468:	410787bb          	subw	a5,a5,a6
    646c:	40000837          	lui	a6,0x40000
    6470:	000018b7          	lui	a7,0x1
    6474:	411408b3          	sub	a7,s0,a7
    6478:	12f8b023          	sd	a5,288(a7) # 1120 <.LBB69_4+0x2a8>
    647c:	0007d463          	bgez	a5,6484 <.LBB69_430>
    6480:	c0000837          	lui	a6,0xc0000

0000000000006484 <.LBB69_430>:
    6484:	000017b7          	lui	a5,0x1
    6488:	40f407b3          	sub	a5,s0,a5
    648c:	0f07b423          	sd	a6,232(a5) # 10e8 <.LBB69_4+0x270>
    6490:	d2843783          	ld	a5,-728(s0)
    6494:	f0843803          	ld	a6,-248(s0)
    6498:	010787b3          	add	a5,a5,a6
    649c:	012787b3          	add	a5,a5,s2
    64a0:	4012883b          	subw	a6,t0,ra
    64a4:	410787bb          	subw	a5,a5,a6
    64a8:	40000837          	lui	a6,0x40000
    64ac:	000018b7          	lui	a7,0x1
    64b0:	411408b3          	sub	a7,s0,a7
    64b4:	0af8b423          	sd	a5,168(a7) # 10a8 <.LBB69_4+0x230>
    64b8:	0007d463          	bgez	a5,64c0 <.LBB69_432>
    64bc:	c0000837          	lui	a6,0xc0000

00000000000064c0 <.LBB69_432>:
    64c0:	000017b7          	lui	a5,0x1
    64c4:	40f407b3          	sub	a5,s0,a5
    64c8:	0707b823          	sd	a6,112(a5) # 1070 <.LBB69_4+0x1f8>
    64cc:	d3043783          	ld	a5,-720(s0)
    64d0:	f3843803          	ld	a6,-200(s0)
    64d4:	010787b3          	add	a5,a5,a6
    64d8:	00001837          	lui	a6,0x1
    64dc:	41040833          	sub	a6,s0,a6
    64e0:	73083803          	ld	a6,1840(a6) # 1730 <.LBB69_5+0x314>
    64e4:	010787b3          	add	a5,a5,a6
    64e8:	4012883b          	subw	a6,t0,ra
    64ec:	410787bb          	subw	a5,a5,a6
    64f0:	40000837          	lui	a6,0x40000
    64f4:	000018b7          	lui	a7,0x1
    64f8:	411408b3          	sub	a7,s0,a7
    64fc:	02f8b823          	sd	a5,48(a7) # 1030 <.LBB69_4+0x1b8>
    6500:	0007d463          	bgez	a5,6508 <.LBB69_434>
    6504:	c0000837          	lui	a6,0xc0000

0000000000006508 <.LBB69_434>:
    6508:	000017b7          	lui	a5,0x1
    650c:	40f407b3          	sub	a5,s0,a5
    6510:	0107b023          	sd	a6,0(a5) # 1000 <.LBB69_4+0x188>
    6514:	d3843783          	ld	a5,-712(s0)
    6518:	f4043803          	ld	a6,-192(s0)
    651c:	010787b3          	add	a5,a5,a6
    6520:	00001837          	lui	a6,0x1
    6524:	41040833          	sub	a6,s0,a6
    6528:	73883803          	ld	a6,1848(a6) # 1738 <.LBB69_5+0x31c>
    652c:	010787b3          	add	a5,a5,a6
    6530:	4012883b          	subw	a6,t0,ra
    6534:	410787bb          	subw	a5,a5,a6
    6538:	40000837          	lui	a6,0x40000
    653c:	000018b7          	lui	a7,0x1
    6540:	411408b3          	sub	a7,s0,a7
    6544:	faf8bc23          	sd	a5,-72(a7) # fb8 <.LBB69_4+0x140>
    6548:	0007d463          	bgez	a5,6550 <.LBB69_436>
    654c:	c0000837          	lui	a6,0xc0000

0000000000006550 <.LBB69_436>:
    6550:	000017b7          	lui	a5,0x1
    6554:	40f407b3          	sub	a5,s0,a5
    6558:	f907b423          	sd	a6,-120(a5) # f88 <.LBB69_4+0x110>
    655c:	d4043783          	ld	a5,-704(s0)
    6560:	f4843803          	ld	a6,-184(s0)
    6564:	010787b3          	add	a5,a5,a6
    6568:	00001837          	lui	a6,0x1
    656c:	41040833          	sub	a6,s0,a6
    6570:	74083803          	ld	a6,1856(a6) # 1740 <.LBB69_5+0x324>
    6574:	010787b3          	add	a5,a5,a6
    6578:	4012883b          	subw	a6,t0,ra
    657c:	410787bb          	subw	a5,a5,a6
    6580:	40000837          	lui	a6,0x40000
    6584:	000018b7          	lui	a7,0x1
    6588:	411408b3          	sub	a7,s0,a7
    658c:	f4f8b423          	sd	a5,-184(a7) # f48 <.LBB69_4+0xd0>
    6590:	0007d463          	bgez	a5,6598 <.LBB69_438>
    6594:	c0000837          	lui	a6,0xc0000

0000000000006598 <.LBB69_438>:
    6598:	000017b7          	lui	a5,0x1
    659c:	40f407b3          	sub	a5,s0,a5
    65a0:	f107bc23          	sd	a6,-232(a5) # f18 <.LBB69_4+0xa0>
    65a4:	d4843783          	ld	a5,-696(s0)
    65a8:	f5043803          	ld	a6,-176(s0)
    65ac:	010787b3          	add	a5,a5,a6
    65b0:	01e787b3          	add	a5,a5,t5
    65b4:	4012883b          	subw	a6,t0,ra
    65b8:	410787bb          	subw	a5,a5,a6
    65bc:	40000837          	lui	a6,0x40000
    65c0:	000018b7          	lui	a7,0x1
    65c4:	411408b3          	sub	a7,s0,a7
    65c8:	ecf8b823          	sd	a5,-304(a7) # ed0 <.LBB69_4+0x58>
    65cc:	0007d463          	bgez	a5,65d4 <.LBB69_440>
    65d0:	c0000837          	lui	a6,0xc0000

00000000000065d4 <.LBB69_440>:
    65d4:	000017b7          	lui	a5,0x1
    65d8:	40f407b3          	sub	a5,s0,a5
    65dc:	e907bc23          	sd	a6,-360(a5) # e98 <.LBB69_4+0x20>
    65e0:	d5043783          	ld	a5,-688(s0)
    65e4:	f5843803          	ld	a6,-168(s0)
    65e8:	010787b3          	add	a5,a5,a6
    65ec:	01c787b3          	add	a5,a5,t3
    65f0:	4012883b          	subw	a6,t0,ra
    65f4:	410787bb          	subw	a5,a5,a6
    65f8:	40000837          	lui	a6,0x40000
    65fc:	000018b7          	lui	a7,0x1
    6600:	411408b3          	sub	a7,s0,a7
    6604:	e4f8bc23          	sd	a5,-424(a7) # e58 <.LBB69_3+0xc34>
    6608:	0007d463          	bgez	a5,6610 <.LBB69_442>
    660c:	c0000837          	lui	a6,0xc0000

0000000000006610 <.LBB69_442>:
    6610:	000017b7          	lui	a5,0x1
    6614:	40f407b3          	sub	a5,s0,a5
    6618:	e307b023          	sd	a6,-480(a5) # e20 <.LBB69_3+0xbfc>
    661c:	d5843783          	ld	a5,-680(s0)
    6620:	f6043803          	ld	a6,-160(s0)
    6624:	010787b3          	add	a5,a5,a6
    6628:	007787b3          	add	a5,a5,t2
    662c:	4012883b          	subw	a6,t0,ra
    6630:	410787bb          	subw	a5,a5,a6
    6634:	40000837          	lui	a6,0x40000
    6638:	000018b7          	lui	a7,0x1
    663c:	411408b3          	sub	a7,s0,a7
    6640:	dcf8bc23          	sd	a5,-552(a7) # dd8 <.LBB69_3+0xbb4>
    6644:	0007d463          	bgez	a5,664c <.LBB69_444>
    6648:	c0000837          	lui	a6,0xc0000

000000000000664c <.LBB69_444>:
    664c:	000017b7          	lui	a5,0x1
    6650:	40f407b3          	sub	a5,s0,a5
    6654:	db07b023          	sd	a6,-608(a5) # da0 <.LBB69_3+0xb7c>
    6658:	d6043783          	ld	a5,-672(s0)
    665c:	f6843803          	ld	a6,-152(s0)
    6660:	010787b3          	add	a5,a5,a6
    6664:	006787b3          	add	a5,a5,t1
    6668:	4012883b          	subw	a6,t0,ra
    666c:	410787bb          	subw	a5,a5,a6
    6670:	40000837          	lui	a6,0x40000
    6674:	000018b7          	lui	a7,0x1
    6678:	411408b3          	sub	a7,s0,a7
    667c:	d6f8b023          	sd	a5,-672(a7) # d60 <.LBB69_3+0xb3c>
    6680:	0007d463          	bgez	a5,6688 <.LBB69_446>
    6684:	c0000837          	lui	a6,0xc0000

0000000000006688 <.LBB69_446>:
    6688:	000017b7          	lui	a5,0x1
    668c:	40f407b3          	sub	a5,s0,a5
    6690:	d307b423          	sd	a6,-728(a5) # d28 <.LBB69_3+0xb04>
    6694:	f7043783          	ld	a5,-144(s0)
    6698:	d6843803          	ld	a6,-664(s0)
    669c:	00f807b3          	add	a5,a6,a5
    66a0:	01f787b3          	add	a5,a5,t6
    66a4:	4012883b          	subw	a6,t0,ra
    66a8:	410787bb          	subw	a5,a5,a6
    66ac:	40000837          	lui	a6,0x40000
    66b0:	000018b7          	lui	a7,0x1
    66b4:	411408b3          	sub	a7,s0,a7
    66b8:	cef8b823          	sd	a5,-784(a7) # cf0 <.LBB69_3+0xacc>
    66bc:	0007d463          	bgez	a5,66c4 <.LBB69_448>
    66c0:	c0000837          	lui	a6,0xc0000

00000000000066c4 <.LBB69_448>:
    66c4:	000017b7          	lui	a5,0x1
    66c8:	40f407b3          	sub	a5,s0,a5
    66cc:	cb07bc23          	sd	a6,-840(a5) # cb8 <.LBB69_3+0xa94>
    66d0:	f7843803          	ld	a6,-136(s0)
    66d4:	d7043783          	ld	a5,-656(s0)
    66d8:	01078833          	add	a6,a5,a6
    66dc:	01480833          	add	a6,a6,s4
    66e0:	401288bb          	subw	a7,t0,ra
    66e4:	4118083b          	subw	a6,a6,a7
    66e8:	400007b7          	lui	a5,0x40000
    66ec:	000018b7          	lui	a7,0x1
    66f0:	411408b3          	sub	a7,s0,a7
    66f4:	1488ba03          	ld	s4,328(a7) # 1148 <.LBB69_4+0x2d0>
    66f8:	000018b7          	lui	a7,0x1
    66fc:	411408b3          	sub	a7,s0,a7
    6700:	bd08bc23          	sd	a6,-1064(a7) # bd8 <.LBB69_3+0x9b4>
    6704:	00085463          	bgez	a6,670c <.LBB69_450>
    6708:	c00007b7          	lui	a5,0xc0000

000000000000670c <.LBB69_450>:
    670c:	f8043803          	ld	a6,-128(s0)
    6710:	d7843883          	ld	a7,-648(s0)
    6714:	01088833          	add	a6,a7,a6
    6718:	00980833          	add	a6,a6,s1
    671c:	401288bb          	subw	a7,t0,ra
    6720:	4118083b          	subw	a6,a6,a7
    6724:	400008b7          	lui	a7,0x40000
    6728:	f8a43823          	sd	a0,-112(s0)
    672c:	00001537          	lui	a0,0x1
    6730:	40a40533          	sub	a0,s0,a0
    6734:	bb053823          	sd	a6,-1104(a0) # bb0 <.LBB69_3+0x98c>
    6738:	f9043503          	ld	a0,-112(s0)
    673c:	00085463          	bgez	a6,6744 <.LBB69_452>
    6740:	c00008b7          	lui	a7,0xc0000

0000000000006744 <.LBB69_452>:
    6744:	00001837          	lui	a6,0x1
    6748:	41040833          	sub	a6,s0,a6
    674c:	c1183c23          	sd	a7,-1000(a6) # c18 <.LBB69_3+0x9f4>
    6750:	00001837          	lui	a6,0x1
    6754:	41040833          	sub	a6,s0,a6
    6758:	c6f83823          	sd	a5,-912(a6) # c70 <.LBB69_3+0xa4c>
    675c:	f8843883          	ld	a7,-120(s0)
    6760:	d8043783          	ld	a5,-640(s0)
    6764:	011788b3          	add	a7,a5,a7
    6768:	01d888b3          	add	a7,a7,t4
    676c:	401282bb          	subw	t0,t0,ra
    6770:	4058883b          	subw	a6,a7,t0
    6774:	400007b7          	lui	a5,0x40000
    6778:	00085463          	bgez	a6,6780 <.LBB69_454>
    677c:	c00007b7          	lui	a5,0xc0000

0000000000006780 <.LBB69_454>:
    6780:	000018b7          	lui	a7,0x1
    6784:	411408b3          	sub	a7,s0,a7
    6788:	b8f8b023          	sd	a5,-1152(a7) # b80 <.LBB69_3+0x95c>
    678c:	d8843883          	ld	a7,-632(s0)
    6790:	eb043783          	ld	a5,-336(s0)
    6794:	00f888b3          	add	a7,a7,a5
    6798:	ea843783          	ld	a5,-344(s0)
    679c:	00f888b3          	add	a7,a7,a5
    67a0:	401a02bb          	subw	t0,s4,ra
    67a4:	405887bb          	subw	a5,a7,t0
    67a8:	400008b7          	lui	a7,0x40000
    67ac:	84f43423          	sd	a5,-1976(s0)
    67b0:	0007d463          	bgez	a5,67b8 <.LBB69_456>
    67b4:	c00008b7          	lui	a7,0xc0000

00000000000067b8 <.LBB69_456>:
    67b8:	83143c23          	sd	a7,-1992(s0)
    67bc:	d9043883          	ld	a7,-624(s0)
    67c0:	ea043783          	ld	a5,-352(s0)
    67c4:	00f888b3          	add	a7,a7,a5
    67c8:	e9843783          	ld	a5,-360(s0)
    67cc:	00f888b3          	add	a7,a7,a5
    67d0:	401a02bb          	subw	t0,s4,ra
    67d4:	405887bb          	subw	a5,a7,t0
    67d8:	400008b7          	lui	a7,0x40000
    67dc:	82f43823          	sd	a5,-2000(s0)
    67e0:	0007d463          	bgez	a5,67e8 <.LBB69_458>
    67e4:	c00008b7          	lui	a7,0xc0000

00000000000067e8 <.LBB69_458>:
    67e8:	83143423          	sd	a7,-2008(s0)
    67ec:	d9843883          	ld	a7,-616(s0)
    67f0:	e9043783          	ld	a5,-368(s0)
    67f4:	00f888b3          	add	a7,a7,a5
    67f8:	e8843783          	ld	a5,-376(s0)
    67fc:	00f888b3          	add	a7,a7,a5
    6800:	401a02bb          	subw	t0,s4,ra
    6804:	405887bb          	subw	a5,a7,t0
    6808:	400008b7          	lui	a7,0x40000
    680c:	82f43023          	sd	a5,-2016(s0)
    6810:	0007d463          	bgez	a5,6818 <.LBB69_460>
    6814:	c00008b7          	lui	a7,0xc0000

0000000000006818 <.LBB69_460>:
    6818:	81143c23          	sd	a7,-2024(s0)
    681c:	da043883          	ld	a7,-608(s0)
    6820:	e8043783          	ld	a5,-384(s0)
    6824:	00f888b3          	add	a7,a7,a5
    6828:	e7843783          	ld	a5,-392(s0)
    682c:	00f888b3          	add	a7,a7,a5
    6830:	401a02bb          	subw	t0,s4,ra
    6834:	405887bb          	subw	a5,a7,t0
    6838:	400008b7          	lui	a7,0x40000
    683c:	80f43823          	sd	a5,-2032(s0)
    6840:	0007d463          	bgez	a5,6848 <.LBB69_462>
    6844:	c00008b7          	lui	a7,0xc0000

0000000000006848 <.LBB69_462>:
    6848:	81143423          	sd	a7,-2040(s0)
    684c:	da843883          	ld	a7,-600(s0)
    6850:	e7043783          	ld	a5,-400(s0)
    6854:	00f888b3          	add	a7,a7,a5
    6858:	e6843783          	ld	a5,-408(s0)
    685c:	00f888b3          	add	a7,a7,a5
    6860:	401a02bb          	subw	t0,s4,ra
    6864:	405887bb          	subw	a5,a7,t0
    6868:	400008b7          	lui	a7,0x40000
    686c:	80f43023          	sd	a5,-2048(s0)
    6870:	0007d463          	bgez	a5,6878 <.LBB69_464>
    6874:	c00008b7          	lui	a7,0xc0000

0000000000006878 <.LBB69_464>:
    6878:	000017b7          	lui	a5,0x1
    687c:	40f407b3          	sub	a5,s0,a5
    6880:	7f17bc23          	sd	a7,2040(a5) # 17f8 <.LBB69_5+0x3dc>
    6884:	db043883          	ld	a7,-592(s0)
    6888:	000017b7          	lui	a5,0x1
    688c:	40f407b3          	sub	a5,s0,a5
    6890:	6c87b783          	ld	a5,1736(a5) # 16c8 <.LBB69_5+0x2ac>
    6894:	00f888b3          	add	a7,a7,a5
    6898:	000017b7          	lui	a5,0x1
    689c:	40f407b3          	sub	a5,s0,a5
    68a0:	6c07b783          	ld	a5,1728(a5) # 16c0 <.LBB69_5+0x2a4>
    68a4:	00f888b3          	add	a7,a7,a5
    68a8:	401a02bb          	subw	t0,s4,ra
    68ac:	405887bb          	subw	a5,a7,t0
    68b0:	400008b7          	lui	a7,0x40000
    68b4:	000012b7          	lui	t0,0x1
    68b8:	405402b3          	sub	t0,s0,t0
    68bc:	7ef2b823          	sd	a5,2032(t0) # 17f0 <.LBB69_5+0x3d4>
    68c0:	0007d463          	bgez	a5,68c8 <.LBB69_466>
    68c4:	c00008b7          	lui	a7,0xc0000

00000000000068c8 <.LBB69_466>:
    68c8:	000017b7          	lui	a5,0x1
    68cc:	40f407b3          	sub	a5,s0,a5
    68d0:	7f17b423          	sd	a7,2024(a5) # 17e8 <.LBB69_5+0x3cc>
    68d4:	db843883          	ld	a7,-584(s0)
    68d8:	000017b7          	lui	a5,0x1
    68dc:	40f407b3          	sub	a5,s0,a5
    68e0:	6b87b783          	ld	a5,1720(a5) # 16b8 <.LBB69_5+0x29c>
    68e4:	00f888b3          	add	a7,a7,a5
    68e8:	000017b7          	lui	a5,0x1
    68ec:	40f407b3          	sub	a5,s0,a5
    68f0:	6b07b783          	ld	a5,1712(a5) # 16b0 <.LBB69_5+0x294>
    68f4:	00f888b3          	add	a7,a7,a5
    68f8:	401a02bb          	subw	t0,s4,ra
    68fc:	405887bb          	subw	a5,a7,t0
    6900:	400008b7          	lui	a7,0x40000
    6904:	000012b7          	lui	t0,0x1
    6908:	405402b3          	sub	t0,s0,t0
    690c:	7cf2b423          	sd	a5,1992(t0) # 17c8 <.LBB69_5+0x3ac>
    6910:	0007d463          	bgez	a5,6918 <.LBB69_468>
    6914:	c00008b7          	lui	a7,0xc0000

0000000000006918 <.LBB69_468>:
    6918:	000017b7          	lui	a5,0x1
    691c:	40f407b3          	sub	a5,s0,a5
    6920:	7117b823          	sd	a7,1808(a5) # 1710 <.LBB69_5+0x2f4>
    6924:	dc043883          	ld	a7,-576(s0)
    6928:	000017b7          	lui	a5,0x1
    692c:	40f407b3          	sub	a5,s0,a5
    6930:	6a87b783          	ld	a5,1704(a5) # 16a8 <.LBB69_5+0x28c>
    6934:	00f888b3          	add	a7,a7,a5
    6938:	000017b7          	lui	a5,0x1
    693c:	40f407b3          	sub	a5,s0,a5
    6940:	6a07b783          	ld	a5,1696(a5) # 16a0 <.LBB69_5+0x284>
    6944:	00f888b3          	add	a7,a7,a5
    6948:	401a02bb          	subw	t0,s4,ra
    694c:	405887bb          	subw	a5,a7,t0
    6950:	400008b7          	lui	a7,0x40000
    6954:	000012b7          	lui	t0,0x1
    6958:	405402b3          	sub	t0,s0,t0
    695c:	6ef2b023          	sd	a5,1760(t0) # 16e0 <.LBB69_5+0x2c4>
    6960:	0007d463          	bgez	a5,6968 <.LBB69_470>
    6964:	c00008b7          	lui	a7,0xc0000

0000000000006968 <.LBB69_470>:
    6968:	000017b7          	lui	a5,0x1
    696c:	40f407b3          	sub	a5,s0,a5
    6970:	6d17b423          	sd	a7,1736(a5) # 16c8 <.LBB69_5+0x2ac>
    6974:	dc843883          	ld	a7,-568(s0)
    6978:	000017b7          	lui	a5,0x1
    697c:	40f407b3          	sub	a5,s0,a5
    6980:	6987b783          	ld	a5,1688(a5) # 1698 <.LBB69_5+0x27c>
    6984:	00f888b3          	add	a7,a7,a5
    6988:	000017b7          	lui	a5,0x1
    698c:	40f407b3          	sub	a5,s0,a5
    6990:	6907b783          	ld	a5,1680(a5) # 1690 <.LBB69_5+0x274>
    6994:	00f888b3          	add	a7,a7,a5
    6998:	401a02bb          	subw	t0,s4,ra
    699c:	405887bb          	subw	a5,a7,t0
    69a0:	400008b7          	lui	a7,0x40000
    69a4:	000012b7          	lui	t0,0x1
    69a8:	405402b3          	sub	t0,s0,t0
    69ac:	6cf2b023          	sd	a5,1728(t0) # 16c0 <.LBB69_5+0x2a4>
    69b0:	0007d463          	bgez	a5,69b8 <.LBB69_472>
    69b4:	c00008b7          	lui	a7,0xc0000

00000000000069b8 <.LBB69_472>:
    69b8:	000017b7          	lui	a5,0x1
    69bc:	40f407b3          	sub	a5,s0,a5
    69c0:	6b17bc23          	sd	a7,1720(a5) # 16b8 <.LBB69_5+0x29c>
    69c4:	dd043883          	ld	a7,-560(s0)
    69c8:	000017b7          	lui	a5,0x1
    69cc:	40f407b3          	sub	a5,s0,a5
    69d0:	6887b783          	ld	a5,1672(a5) # 1688 <.LBB69_5+0x26c>
    69d4:	00f888b3          	add	a7,a7,a5
    69d8:	000017b7          	lui	a5,0x1
    69dc:	40f407b3          	sub	a5,s0,a5
    69e0:	6d07b783          	ld	a5,1744(a5) # 16d0 <.LBB69_5+0x2b4>
    69e4:	00f888b3          	add	a7,a7,a5
    69e8:	401a02bb          	subw	t0,s4,ra
    69ec:	405887bb          	subw	a5,a7,t0
    69f0:	400008b7          	lui	a7,0x40000
    69f4:	000012b7          	lui	t0,0x1
    69f8:	405402b3          	sub	t0,s0,t0
    69fc:	6cf2b823          	sd	a5,1744(t0) # 16d0 <.LBB69_5+0x2b4>
    6a00:	0007d463          	bgez	a5,6a08 <.LBB69_474>
    6a04:	c00008b7          	lui	a7,0xc0000

0000000000006a08 <.LBB69_474>:
    6a08:	000017b7          	lui	a5,0x1
    6a0c:	40f407b3          	sub	a5,s0,a5
    6a10:	6b17b823          	sd	a7,1712(a5) # 16b0 <.LBB69_5+0x294>
    6a14:	dd843883          	ld	a7,-552(s0)
    6a18:	eb843783          	ld	a5,-328(s0)
    6a1c:	00f888b3          	add	a7,a7,a5
    6a20:	000017b7          	lui	a5,0x1
    6a24:	40f407b3          	sub	a5,s0,a5
    6a28:	6d87b783          	ld	a5,1752(a5) # 16d8 <.LBB69_5+0x2bc>
    6a2c:	00f888b3          	add	a7,a7,a5
    6a30:	401a02bb          	subw	t0,s4,ra
    6a34:	405887bb          	subw	a5,a7,t0
    6a38:	400008b7          	lui	a7,0x40000
    6a3c:	000012b7          	lui	t0,0x1
    6a40:	405402b3          	sub	t0,s0,t0
    6a44:	6cf2bc23          	sd	a5,1752(t0) # 16d8 <.LBB69_5+0x2bc>
    6a48:	0007d463          	bgez	a5,6a50 <.LBB69_476>
    6a4c:	c00008b7          	lui	a7,0xc0000

0000000000006a50 <.LBB69_476>:
    6a50:	000017b7          	lui	a5,0x1
    6a54:	40f407b3          	sub	a5,s0,a5
    6a58:	6b17b423          	sd	a7,1704(a5) # 16a8 <.LBB69_5+0x28c>
    6a5c:	de043883          	ld	a7,-544(s0)
    6a60:	ec043783          	ld	a5,-320(s0)
    6a64:	00f888b3          	add	a7,a7,a5
    6a68:	01b888b3          	add	a7,a7,s11
    6a6c:	401a02bb          	subw	t0,s4,ra
    6a70:	405887bb          	subw	a5,a7,t0
    6a74:	400008b7          	lui	a7,0x40000
    6a78:	000012b7          	lui	t0,0x1
    6a7c:	405402b3          	sub	t0,s0,t0
    6a80:	6af2b023          	sd	a5,1696(t0) # 16a0 <.LBB69_5+0x284>
    6a84:	0007d463          	bgez	a5,6a8c <.LBB69_478>
    6a88:	c00008b7          	lui	a7,0xc0000

0000000000006a8c <.LBB69_478>:
    6a8c:	000017b7          	lui	a5,0x1
    6a90:	40f407b3          	sub	a5,s0,a5
    6a94:	6917bc23          	sd	a7,1688(a5) # 1698 <.LBB69_5+0x27c>
    6a98:	de843883          	ld	a7,-536(s0)
    6a9c:	ec843783          	ld	a5,-312(s0)
    6aa0:	00f888b3          	add	a7,a7,a5
    6aa4:	01a888b3          	add	a7,a7,s10
    6aa8:	401a02bb          	subw	t0,s4,ra
    6aac:	405887bb          	subw	a5,a7,t0
    6ab0:	400008b7          	lui	a7,0x40000
    6ab4:	000012b7          	lui	t0,0x1
    6ab8:	405402b3          	sub	t0,s0,t0
    6abc:	68f2b823          	sd	a5,1680(t0) # 1690 <.LBB69_5+0x274>
    6ac0:	0007d463          	bgez	a5,6ac8 <.LBB69_480>
    6ac4:	c00008b7          	lui	a7,0xc0000

0000000000006ac8 <.LBB69_480>:
    6ac8:	000017b7          	lui	a5,0x1
    6acc:	40f407b3          	sub	a5,s0,a5
    6ad0:	6917b423          	sd	a7,1672(a5) # 1688 <.LBB69_5+0x26c>
    6ad4:	df043883          	ld	a7,-528(s0)
    6ad8:	ed043783          	ld	a5,-304(s0)
    6adc:	00f888b3          	add	a7,a7,a5
    6ae0:	019888b3          	add	a7,a7,s9
    6ae4:	401a02bb          	subw	t0,s4,ra
    6ae8:	405887bb          	subw	a5,a7,t0
    6aec:	400008b7          	lui	a7,0x40000
    6af0:	000012b7          	lui	t0,0x1
    6af4:	405402b3          	sub	t0,s0,t0
    6af8:	3cf2b023          	sd	a5,960(t0) # 13c0 <.LBB69_4+0x548>
    6afc:	0007d463          	bgez	a5,6b04 <.LBB69_482>
    6b00:	c00008b7          	lui	a7,0xc0000

0000000000006b04 <.LBB69_482>:
    6b04:	000017b7          	lui	a5,0x1
    6b08:	40f407b3          	sub	a5,s0,a5
    6b0c:	3917b823          	sd	a7,912(a5) # 1390 <.LBB69_4+0x518>
    6b10:	df843883          	ld	a7,-520(s0)
    6b14:	ed843783          	ld	a5,-296(s0)
    6b18:	00f888b3          	add	a7,a7,a5
    6b1c:	018888b3          	add	a7,a7,s8
    6b20:	401a02bb          	subw	t0,s4,ra
    6b24:	405887bb          	subw	a5,a7,t0
    6b28:	400008b7          	lui	a7,0x40000
    6b2c:	000012b7          	lui	t0,0x1
    6b30:	405402b3          	sub	t0,s0,t0
    6b34:	34f2bc23          	sd	a5,856(t0) # 1358 <.LBB69_4+0x4e0>
    6b38:	0007d463          	bgez	a5,6b40 <.LBB69_484>
    6b3c:	c00008b7          	lui	a7,0xc0000

0000000000006b40 <.LBB69_484>:
    6b40:	000017b7          	lui	a5,0x1
    6b44:	40f407b3          	sub	a5,s0,a5
    6b48:	3317b423          	sd	a7,808(a5) # 1328 <.LBB69_4+0x4b0>
    6b4c:	e0043883          	ld	a7,-512(s0)
    6b50:	ee043783          	ld	a5,-288(s0)
    6b54:	00f888b3          	add	a7,a7,a5
    6b58:	017888b3          	add	a7,a7,s7
    6b5c:	401a02bb          	subw	t0,s4,ra
    6b60:	405887bb          	subw	a5,a7,t0
    6b64:	400008b7          	lui	a7,0x40000
    6b68:	000012b7          	lui	t0,0x1
    6b6c:	405402b3          	sub	t0,s0,t0
    6b70:	2ef2b823          	sd	a5,752(t0) # 12f0 <.LBB69_4+0x478>
    6b74:	0007d463          	bgez	a5,6b7c <.LBB69_486>
    6b78:	c00008b7          	lui	a7,0xc0000

0000000000006b7c <.LBB69_486>:
    6b7c:	000017b7          	lui	a5,0x1
    6b80:	40f407b3          	sub	a5,s0,a5
    6b84:	2d17b023          	sd	a7,704(a5) # 12c0 <.LBB69_4+0x448>
    6b88:	e0843883          	ld	a7,-504(s0)
    6b8c:	ee843783          	ld	a5,-280(s0)
    6b90:	00f888b3          	add	a7,a7,a5
    6b94:	016888b3          	add	a7,a7,s6
    6b98:	401a02bb          	subw	t0,s4,ra
    6b9c:	405887bb          	subw	a5,a7,t0
    6ba0:	400008b7          	lui	a7,0x40000
    6ba4:	000012b7          	lui	t0,0x1
    6ba8:	405402b3          	sub	t0,s0,t0
    6bac:	28f2b023          	sd	a5,640(t0) # 1280 <.LBB69_4+0x408>
    6bb0:	0007d463          	bgez	a5,6bb8 <.LBB69_488>
    6bb4:	c00008b7          	lui	a7,0xc0000

0000000000006bb8 <.LBB69_488>:
    6bb8:	000017b7          	lui	a5,0x1
    6bbc:	40f407b3          	sub	a5,s0,a5
    6bc0:	2517b423          	sd	a7,584(a5) # 1248 <.LBB69_4+0x3d0>
    6bc4:	e1043883          	ld	a7,-496(s0)
    6bc8:	ef043783          	ld	a5,-272(s0)
    6bcc:	00f888b3          	add	a7,a7,a5
    6bd0:	015888b3          	add	a7,a7,s5
    6bd4:	401a02bb          	subw	t0,s4,ra
    6bd8:	405887bb          	subw	a5,a7,t0
    6bdc:	400008b7          	lui	a7,0x40000
    6be0:	000012b7          	lui	t0,0x1
    6be4:	405402b3          	sub	t0,s0,t0
    6be8:	20f2b423          	sd	a5,520(t0) # 1208 <.LBB69_4+0x390>
    6bec:	0007d463          	bgez	a5,6bf4 <.LBB69_490>
    6bf0:	c00008b7          	lui	a7,0xc0000

0000000000006bf4 <.LBB69_490>:
    6bf4:	000017b7          	lui	a5,0x1
    6bf8:	40f407b3          	sub	a5,s0,a5
    6bfc:	1d17b823          	sd	a7,464(a5) # 11d0 <.LBB69_4+0x358>
    6c00:	ef843883          	ld	a7,-264(s0)
    6c04:	e1843783          	ld	a5,-488(s0)
    6c08:	011788b3          	add	a7,a5,a7
    6c0c:	000017b7          	lui	a5,0x1
    6c10:	40f407b3          	sub	a5,s0,a5
    6c14:	7187b783          	ld	a5,1816(a5) # 1718 <.LBB69_5+0x2fc>
    6c18:	00f888b3          	add	a7,a7,a5
    6c1c:	401a02bb          	subw	t0,s4,ra
    6c20:	405887bb          	subw	a5,a7,t0
    6c24:	400008b7          	lui	a7,0x40000
    6c28:	000012b7          	lui	t0,0x1
    6c2c:	405402b3          	sub	t0,s0,t0
    6c30:	70f2bc23          	sd	a5,1816(t0) # 1718 <.LBB69_5+0x2fc>
    6c34:	0007d463          	bgez	a5,6c3c <.LBB69_492>
    6c38:	c00008b7          	lui	a7,0xc0000

0000000000006c3c <.LBB69_492>:
    6c3c:	000017b7          	lui	a5,0x1
    6c40:	40f407b3          	sub	a5,s0,a5
    6c44:	1717b023          	sd	a7,352(a5) # 1160 <.LBB69_4+0x2e8>
    6c48:	e2043883          	ld	a7,-480(s0)
    6c4c:	f0043783          	ld	a5,-256(s0)
    6c50:	00f888b3          	add	a7,a7,a5
    6c54:	013888b3          	add	a7,a7,s3
    6c58:	401a02bb          	subw	t0,s4,ra
    6c5c:	405887bb          	subw	a5,a7,t0
    6c60:	400008b7          	lui	a7,0x40000
    6c64:	000012b7          	lui	t0,0x1
    6c68:	405402b3          	sub	t0,s0,t0
    6c6c:	10f2bc23          	sd	a5,280(t0) # 1118 <.LBB69_4+0x2a0>
    6c70:	0007d463          	bgez	a5,6c78 <.LBB69_494>
    6c74:	c00008b7          	lui	a7,0xc0000

0000000000006c78 <.LBB69_494>:
    6c78:	000017b7          	lui	a5,0x1
    6c7c:	40f407b3          	sub	a5,s0,a5
    6c80:	0f17b023          	sd	a7,224(a5) # 10e0 <.LBB69_4+0x268>
    6c84:	f1043883          	ld	a7,-240(s0)
    6c88:	f0843783          	ld	a5,-248(s0)
    6c8c:	00f888b3          	add	a7,a7,a5
    6c90:	012888b3          	add	a7,a7,s2
    6c94:	401a02bb          	subw	t0,s4,ra
    6c98:	405887bb          	subw	a5,a7,t0
    6c9c:	400008b7          	lui	a7,0x40000
    6ca0:	000012b7          	lui	t0,0x1
    6ca4:	405402b3          	sub	t0,s0,t0
    6ca8:	0af2b023          	sd	a5,160(t0) # 10a0 <.LBB69_4+0x228>
    6cac:	0007d463          	bgez	a5,6cb4 <.LBB69_496>
    6cb0:	c00008b7          	lui	a7,0xc0000

0000000000006cb4 <.LBB69_496>:
    6cb4:	000017b7          	lui	a5,0x1
    6cb8:	40f407b3          	sub	a5,s0,a5
    6cbc:	0717b423          	sd	a7,104(a5) # 1068 <.LBB69_4+0x1f0>
    6cc0:	f3843883          	ld	a7,-200(s0)
    6cc4:	f1843783          	ld	a5,-232(s0)
    6cc8:	011788b3          	add	a7,a5,a7
    6ccc:	000017b7          	lui	a5,0x1
    6cd0:	40f407b3          	sub	a5,s0,a5
    6cd4:	7307b783          	ld	a5,1840(a5) # 1730 <.LBB69_5+0x314>
    6cd8:	00f888b3          	add	a7,a7,a5
    6cdc:	401a02bb          	subw	t0,s4,ra
    6ce0:	405887bb          	subw	a5,a7,t0
    6ce4:	400008b7          	lui	a7,0x40000
    6ce8:	000012b7          	lui	t0,0x1
    6cec:	405402b3          	sub	t0,s0,t0
    6cf0:	72f2b823          	sd	a5,1840(t0) # 1730 <.LBB69_5+0x314>
    6cf4:	0007d463          	bgez	a5,6cfc <.LBB69_498>
    6cf8:	c00008b7          	lui	a7,0xc0000

0000000000006cfc <.LBB69_498>:
    6cfc:	000017b7          	lui	a5,0x1
    6d00:	40f407b3          	sub	a5,s0,a5
    6d04:	ff17bc23          	sd	a7,-8(a5) # ff8 <.LBB69_4+0x180>
    6d08:	f2043883          	ld	a7,-224(s0)
    6d0c:	f4043783          	ld	a5,-192(s0)
    6d10:	00f888b3          	add	a7,a7,a5
    6d14:	000017b7          	lui	a5,0x1
    6d18:	40f407b3          	sub	a5,s0,a5
    6d1c:	7387b783          	ld	a5,1848(a5) # 1738 <.LBB69_5+0x31c>
    6d20:	00f888b3          	add	a7,a7,a5
    6d24:	401a02bb          	subw	t0,s4,ra
    6d28:	405887bb          	subw	a5,a7,t0
    6d2c:	400008b7          	lui	a7,0x40000
    6d30:	000012b7          	lui	t0,0x1
    6d34:	405402b3          	sub	t0,s0,t0
    6d38:	72f2bc23          	sd	a5,1848(t0) # 1738 <.LBB69_5+0x31c>
    6d3c:	0007d463          	bgez	a5,6d44 <.LBB69_500>
    6d40:	c00008b7          	lui	a7,0xc0000

0000000000006d44 <.LBB69_500>:
    6d44:	000017b7          	lui	a5,0x1
    6d48:	40f407b3          	sub	a5,s0,a5
    6d4c:	f917b023          	sd	a7,-128(a5) # f80 <.LBB69_4+0x108>
    6d50:	f4843883          	ld	a7,-184(s0)
    6d54:	f2843783          	ld	a5,-216(s0)
    6d58:	011788b3          	add	a7,a5,a7
    6d5c:	000017b7          	lui	a5,0x1
    6d60:	40f407b3          	sub	a5,s0,a5
    6d64:	7407b783          	ld	a5,1856(a5) # 1740 <.LBB69_5+0x324>
    6d68:	00f888b3          	add	a7,a7,a5
    6d6c:	401a02bb          	subw	t0,s4,ra
    6d70:	405887bb          	subw	a5,a7,t0
    6d74:	400008b7          	lui	a7,0x40000
    6d78:	000012b7          	lui	t0,0x1
    6d7c:	405402b3          	sub	t0,s0,t0
    6d80:	74f2b023          	sd	a5,1856(t0) # 1740 <.LBB69_5+0x324>
    6d84:	0007d463          	bgez	a5,6d8c <.LBB69_502>
    6d88:	c00008b7          	lui	a7,0xc0000

0000000000006d8c <.LBB69_502>:
    6d8c:	000017b7          	lui	a5,0x1
    6d90:	40f407b3          	sub	a5,s0,a5
    6d94:	f117b823          	sd	a7,-240(a5) # f10 <.LBB69_4+0x98>
    6d98:	f3043883          	ld	a7,-208(s0)
    6d9c:	f5043783          	ld	a5,-176(s0)
    6da0:	00f888b3          	add	a7,a7,a5
    6da4:	01e888b3          	add	a7,a7,t5
    6da8:	401a02bb          	subw	t0,s4,ra
    6dac:	405887bb          	subw	a5,a7,t0
    6db0:	400008b7          	lui	a7,0x40000
    6db4:	000012b7          	lui	t0,0x1
    6db8:	405402b3          	sub	t0,s0,t0
    6dbc:	ecf2b423          	sd	a5,-312(t0) # ec8 <.LBB69_4+0x50>
    6dc0:	0007d463          	bgez	a5,6dc8 <.LBB69_504>
    6dc4:	c00008b7          	lui	a7,0xc0000

0000000000006dc8 <.LBB69_504>:
    6dc8:	000017b7          	lui	a5,0x1
    6dcc:	40f407b3          	sub	a5,s0,a5
    6dd0:	e917b823          	sd	a7,-368(a5) # e90 <.LBB69_4+0x18>
    6dd4:	e2843883          	ld	a7,-472(s0)
    6dd8:	f5843783          	ld	a5,-168(s0)
    6ddc:	00f888b3          	add	a7,a7,a5
    6de0:	01c888b3          	add	a7,a7,t3
    6de4:	401a02bb          	subw	t0,s4,ra
    6de8:	405887bb          	subw	a5,a7,t0
    6dec:	400008b7          	lui	a7,0x40000
    6df0:	000012b7          	lui	t0,0x1
    6df4:	405402b3          	sub	t0,s0,t0
    6df8:	e4f2b823          	sd	a5,-432(t0) # e50 <.LBB69_3+0xc2c>
    6dfc:	0007d463          	bgez	a5,6e04 <.LBB69_506>
    6e00:	c00008b7          	lui	a7,0xc0000

0000000000006e04 <.LBB69_506>:
    6e04:	000017b7          	lui	a5,0x1
    6e08:	40f407b3          	sub	a5,s0,a5
    6e0c:	e117bc23          	sd	a7,-488(a5) # e18 <.LBB69_3+0xbf4>
    6e10:	e3043883          	ld	a7,-464(s0)
    6e14:	f6043783          	ld	a5,-160(s0)
    6e18:	00f888b3          	add	a7,a7,a5
    6e1c:	007888b3          	add	a7,a7,t2
    6e20:	401a02bb          	subw	t0,s4,ra
    6e24:	405887bb          	subw	a5,a7,t0
    6e28:	400008b7          	lui	a7,0x40000
    6e2c:	000012b7          	lui	t0,0x1
    6e30:	405402b3          	sub	t0,s0,t0
    6e34:	dcf2b823          	sd	a5,-560(t0) # dd0 <.LBB69_3+0xbac>
    6e38:	0007d463          	bgez	a5,6e40 <.LBB69_508>
    6e3c:	c00008b7          	lui	a7,0xc0000

0000000000006e40 <.LBB69_508>:
    6e40:	000017b7          	lui	a5,0x1
    6e44:	40f407b3          	sub	a5,s0,a5
    6e48:	d917bc23          	sd	a7,-616(a5) # d98 <.LBB69_3+0xb74>
    6e4c:	e3843883          	ld	a7,-456(s0)
    6e50:	f6843783          	ld	a5,-152(s0)
    6e54:	00f888b3          	add	a7,a7,a5
    6e58:	006888b3          	add	a7,a7,t1
    6e5c:	401a02bb          	subw	t0,s4,ra
    6e60:	405887bb          	subw	a5,a7,t0
    6e64:	400008b7          	lui	a7,0x40000
    6e68:	000012b7          	lui	t0,0x1
    6e6c:	405402b3          	sub	t0,s0,t0
    6e70:	d4f2bc23          	sd	a5,-680(t0) # d58 <.LBB69_3+0xb34>
    6e74:	0007d463          	bgez	a5,6e7c <.LBB69_510>
    6e78:	c00008b7          	lui	a7,0xc0000

0000000000006e7c <.LBB69_510>:
    6e7c:	000017b7          	lui	a5,0x1
    6e80:	40f407b3          	sub	a5,s0,a5
    6e84:	d317b023          	sd	a7,-736(a5) # d20 <.LBB69_3+0xafc>
    6e88:	e4043883          	ld	a7,-448(s0)
    6e8c:	f7043783          	ld	a5,-144(s0)
    6e90:	00f888b3          	add	a7,a7,a5
    6e94:	01f888b3          	add	a7,a7,t6
    6e98:	401a02bb          	subw	t0,s4,ra
    6e9c:	405887bb          	subw	a5,a7,t0
    6ea0:	400008b7          	lui	a7,0x40000
    6ea4:	000012b7          	lui	t0,0x1
    6ea8:	405402b3          	sub	t0,s0,t0
    6eac:	cef2b423          	sd	a5,-792(t0) # ce8 <.LBB69_3+0xac4>
    6eb0:	0007d463          	bgez	a5,6eb8 <.LBB69_512>
    6eb4:	c00008b7          	lui	a7,0xc0000

0000000000006eb8 <.LBB69_512>:
    6eb8:	000017b7          	lui	a5,0x1
    6ebc:	40f407b3          	sub	a5,s0,a5
    6ec0:	cb17b823          	sd	a7,-848(a5) # cb0 <.LBB69_3+0xa8c>
    6ec4:	e4843883          	ld	a7,-440(s0)
    6ec8:	f7843783          	ld	a5,-136(s0)
    6ecc:	00f888b3          	add	a7,a7,a5
    6ed0:	000017b7          	lui	a5,0x1
    6ed4:	40f407b3          	sub	a5,s0,a5
    6ed8:	7707b783          	ld	a5,1904(a5) # 1770 <.LBB69_5+0x354>
    6edc:	00f888b3          	add	a7,a7,a5
    6ee0:	401a0f3b          	subw	t5,s4,ra
    6ee4:	41e887bb          	subw	a5,a7,t5
    6ee8:	400008b7          	lui	a7,0x40000
    6eec:	000012b7          	lui	t0,0x1
    6ef0:	405402b3          	sub	t0,s0,t0
    6ef4:	76f2b823          	sd	a5,1904(t0) # 1770 <.LBB69_5+0x354>
    6ef8:	0007d463          	bgez	a5,6f00 <.LBB69_514>
    6efc:	c00008b7          	lui	a7,0xc0000

0000000000006f00 <.LBB69_514>:
    6f00:	000017b7          	lui	a5,0x1
    6f04:	40f407b3          	sub	a5,s0,a5
    6f08:	c717b423          	sd	a7,-920(a5) # c68 <.LBB69_3+0xa44>
    6f0c:	f8043883          	ld	a7,-128(s0)
    6f10:	011608b3          	add	a7,a2,a7
    6f14:	009888b3          	add	a7,a7,s1
    6f18:	401a04bb          	subw	s1,s4,ra
    6f1c:	4098863b          	subw	a2,a7,s1
    6f20:	400002b7          	lui	t0,0x40000
    6f24:	000017b7          	lui	a5,0x1
    6f28:	40f407b3          	sub	a5,s0,a5
    6f2c:	c4c7b823          	sd	a2,-944(a5) # c50 <.LBB69_3+0xa2c>
    6f30:	00065463          	bgez	a2,6f38 <.LBB69_516>
    6f34:	c00002b7          	lui	t0,0xc0000

0000000000006f38 <.LBB69_516>:
    6f38:	e5843483          	ld	s1,-424(s0)
    6f3c:	f8843603          	ld	a2,-120(s0)
    6f40:	00c484b3          	add	s1,s1,a2
    6f44:	01d484b3          	add	s1,s1,t4
    6f48:	401a0a3b          	subw	s4,s4,ra
    6f4c:	414488bb          	subw	a7,s1,s4
    6f50:	0008da63          	bgez	a7,6f64 <.LBB69_518>
    6f54:	c0000637          	lui	a2,0xc0000
    6f58:	000017b7          	lui	a5,0x1
    6f5c:	40f407b3          	sub	a5,s0,a5
    6f60:	68c7b023          	sd	a2,1664(a5) # 1680 <.LBB69_5+0x264>

0000000000006f64 <.LBB69_518>:
    6f64:	00001637          	lui	a2,0x1
    6f68:	40c40633          	sub	a2,s0,a2
    6f6c:	66863603          	ld	a2,1640(a2) # 1668 <.LBB69_5+0x24c>
    6f70:	000017b7          	lui	a5,0x1
    6f74:	40f407b3          	sub	a5,s0,a5
    6f78:	ba87b783          	ld	a5,-1112(a5) # ba8 <.LBB69_3+0x984>
    6f7c:	02c784b3          	mul	s1,a5,a2
    6f80:	e6043083          	ld	ra,-416(s0)
    6f84:	00001637          	lui	a2,0x1
    6f88:	40c40633          	sub	a2,s0,a2
    6f8c:	b7063603          	ld	a2,-1168(a2) # b70 <.LBB69_3+0x94c>
    6f90:	001600b3          	add	ra,a2,ra
    6f94:	001484b3          	add	s1,s1,ra
    6f98:	4284d613          	srai	a2,s1,0x28
    6f9c:	f7f00493          	li	s1,-129
    6fa0:	f8c43423          	sd	a2,-120(s0)
    6fa4:	00c4c663          	blt	s1,a2,6fb0 <.LBB69_520>
    6fa8:	f7f00613          	li	a2,-129
    6fac:	f8c43423          	sd	a2,-120(s0)

0000000000006fb0 <.LBB69_520>:
    6fb0:	00001637          	lui	a2,0x1
    6fb4:	40c40633          	sub	a2,s0,a2
    6fb8:	66863603          	ld	a2,1640(a2) # 1668 <.LBB69_5+0x24c>
    6fbc:	000017b7          	lui	a5,0x1
    6fc0:	40f407b3          	sub	a5,s0,a5
    6fc4:	c607b783          	ld	a5,-928(a5) # c60 <.LBB69_3+0xa3c>
    6fc8:	02c780b3          	mul	ra,a5,a2
    6fcc:	e6043603          	ld	a2,-416(s0)
    6fd0:	000017b7          	lui	a5,0x1
    6fd4:	40f407b3          	sub	a5,s0,a5
    6fd8:	c487b783          	ld	a5,-952(a5) # c48 <.LBB69_3+0xa24>
    6fdc:	00c78633          	add	a2,a5,a2
    6fe0:	00c08633          	add	a2,ra,a2
    6fe4:	42865613          	srai	a2,a2,0x28
    6fe8:	f8c43023          	sd	a2,-128(s0)
    6fec:	00c4c663          	blt	s1,a2,6ff8 <.LBB69_522>
    6ff0:	f7f00613          	li	a2,-129
    6ff4:	f8c43023          	sd	a2,-128(s0)

0000000000006ff8 <.LBB69_522>:
    6ff8:	00001637          	lui	a2,0x1
    6ffc:	40c40633          	sub	a2,s0,a2
    7000:	66863603          	ld	a2,1640(a2) # 1668 <.LBB69_5+0x24c>
    7004:	000017b7          	lui	a5,0x1
    7008:	40f407b3          	sub	a5,s0,a5
    700c:	ca87b783          	ld	a5,-856(a5) # ca8 <.LBB69_3+0xa84>
    7010:	02c78633          	mul	a2,a5,a2
    7014:	e6043083          	ld	ra,-416(s0)
    7018:	000017b7          	lui	a5,0x1
    701c:	40f407b3          	sub	a5,s0,a5
    7020:	ca07b783          	ld	a5,-864(a5) # ca0 <.LBB69_3+0xa7c>
    7024:	001780b3          	add	ra,a5,ra
    7028:	00160633          	add	a2,a2,ra
    702c:	42865613          	srai	a2,a2,0x28
    7030:	f6c43c23          	sd	a2,-136(s0)
    7034:	00c4c663          	blt	s1,a2,7040 <.LBB69_524>
    7038:	f7f00613          	li	a2,-129
    703c:	f6c43c23          	sd	a2,-136(s0)

0000000000007040 <.LBB69_524>:
    7040:	00001637          	lui	a2,0x1
    7044:	40c40633          	sub	a2,s0,a2
    7048:	66863603          	ld	a2,1640(a2) # 1668 <.LBB69_5+0x24c>
    704c:	000017b7          	lui	a5,0x1
    7050:	40f407b3          	sub	a5,s0,a5
    7054:	d187b783          	ld	a5,-744(a5) # d18 <.LBB69_3+0xaf4>
    7058:	02c78633          	mul	a2,a5,a2
    705c:	e6043083          	ld	ra,-416(s0)
    7060:	000017b7          	lui	a5,0x1
    7064:	40f407b3          	sub	a5,s0,a5
    7068:	d107b783          	ld	a5,-752(a5) # d10 <.LBB69_3+0xaec>
    706c:	001780b3          	add	ra,a5,ra
    7070:	00160633          	add	a2,a2,ra
    7074:	42865613          	srai	a2,a2,0x28
    7078:	f6c43823          	sd	a2,-144(s0)
    707c:	00c4c663          	blt	s1,a2,7088 <.LBB69_526>
    7080:	f7f00613          	li	a2,-129
    7084:	f6c43823          	sd	a2,-144(s0)

0000000000007088 <.LBB69_526>:
    7088:	00001637          	lui	a2,0x1
    708c:	40c40633          	sub	a2,s0,a2
    7090:	66863603          	ld	a2,1640(a2) # 1668 <.LBB69_5+0x24c>
    7094:	000017b7          	lui	a5,0x1
    7098:	40f407b3          	sub	a5,s0,a5
    709c:	d907b783          	ld	a5,-624(a5) # d90 <.LBB69_3+0xb6c>
    70a0:	02c78633          	mul	a2,a5,a2
    70a4:	e6043083          	ld	ra,-416(s0)
    70a8:	000017b7          	lui	a5,0x1
    70ac:	40f407b3          	sub	a5,s0,a5
    70b0:	d887b783          	ld	a5,-632(a5) # d88 <.LBB69_3+0xb64>
    70b4:	001780b3          	add	ra,a5,ra
    70b8:	00160633          	add	a2,a2,ra
    70bc:	42865613          	srai	a2,a2,0x28
    70c0:	f6c43423          	sd	a2,-152(s0)
    70c4:	00c4c663          	blt	s1,a2,70d0 <.LBB69_528>
    70c8:	f7f00613          	li	a2,-129
    70cc:	f6c43423          	sd	a2,-152(s0)

00000000000070d0 <.LBB69_528>:
    70d0:	00001637          	lui	a2,0x1
    70d4:	40c40633          	sub	a2,s0,a2
    70d8:	66863603          	ld	a2,1640(a2) # 1668 <.LBB69_5+0x24c>
    70dc:	000017b7          	lui	a5,0x1
    70e0:	40f407b3          	sub	a5,s0,a5
    70e4:	e107b783          	ld	a5,-496(a5) # e10 <.LBB69_3+0xbec>
    70e8:	02c78633          	mul	a2,a5,a2
    70ec:	e6043083          	ld	ra,-416(s0)
    70f0:	000017b7          	lui	a5,0x1
    70f4:	40f407b3          	sub	a5,s0,a5
    70f8:	e087b783          	ld	a5,-504(a5) # e08 <.LBB69_3+0xbe4>
    70fc:	001780b3          	add	ra,a5,ra
    7100:	00160633          	add	a2,a2,ra
    7104:	42865613          	srai	a2,a2,0x28
    7108:	f6c43023          	sd	a2,-160(s0)
    710c:	00c4c663          	blt	s1,a2,7118 <.LBB69_530>
    7110:	f7f00613          	li	a2,-129
    7114:	f6c43023          	sd	a2,-160(s0)

0000000000007118 <.LBB69_530>:
    7118:	00001637          	lui	a2,0x1
    711c:	40c40633          	sub	a2,s0,a2
    7120:	66863603          	ld	a2,1640(a2) # 1668 <.LBB69_5+0x24c>
    7124:	000017b7          	lui	a5,0x1
    7128:	40f407b3          	sub	a5,s0,a5
    712c:	e887b783          	ld	a5,-376(a5) # e88 <.LBB69_4+0x10>
    7130:	02c78633          	mul	a2,a5,a2
    7134:	e6043083          	ld	ra,-416(s0)
    7138:	000017b7          	lui	a5,0x1
    713c:	40f407b3          	sub	a5,s0,a5
    7140:	e807b783          	ld	a5,-384(a5) # e80 <.LBB69_4+0x8>
    7144:	001780b3          	add	ra,a5,ra
    7148:	00160633          	add	a2,a2,ra
    714c:	42865613          	srai	a2,a2,0x28
    7150:	f4c43c23          	sd	a2,-168(s0)
    7154:	00c4c663          	blt	s1,a2,7160 <.LBB69_532>
    7158:	f7f00613          	li	a2,-129
    715c:	f4c43c23          	sd	a2,-168(s0)

0000000000007160 <.LBB69_532>:
    7160:	00001637          	lui	a2,0x1
    7164:	40c40633          	sub	a2,s0,a2
    7168:	66863603          	ld	a2,1640(a2) # 1668 <.LBB69_5+0x24c>
    716c:	000017b7          	lui	a5,0x1
    7170:	40f407b3          	sub	a5,s0,a5
    7174:	f087b783          	ld	a5,-248(a5) # f08 <.LBB69_4+0x90>
    7178:	02c78633          	mul	a2,a5,a2
    717c:	e6043083          	ld	ra,-416(s0)
    7180:	000017b7          	lui	a5,0x1
    7184:	40f407b3          	sub	a5,s0,a5
    7188:	f007b783          	ld	a5,-256(a5) # f00 <.LBB69_4+0x88>
    718c:	001780b3          	add	ra,a5,ra
    7190:	00160633          	add	a2,a2,ra
    7194:	42865613          	srai	a2,a2,0x28
    7198:	f4c43823          	sd	a2,-176(s0)
    719c:	00c4c663          	blt	s1,a2,71a8 <.LBB69_534>
    71a0:	f7f00613          	li	a2,-129
    71a4:	f4c43823          	sd	a2,-176(s0)

00000000000071a8 <.LBB69_534>:
    71a8:	00001637          	lui	a2,0x1
    71ac:	40c40633          	sub	a2,s0,a2
    71b0:	66863603          	ld	a2,1640(a2) # 1668 <.LBB69_5+0x24c>
    71b4:	000017b7          	lui	a5,0x1
    71b8:	40f407b3          	sub	a5,s0,a5
    71bc:	f787b783          	ld	a5,-136(a5) # f78 <.LBB69_4+0x100>
    71c0:	02c78633          	mul	a2,a5,a2
    71c4:	e6043083          	ld	ra,-416(s0)
    71c8:	000017b7          	lui	a5,0x1
    71cc:	40f407b3          	sub	a5,s0,a5
    71d0:	f707b783          	ld	a5,-144(a5) # f70 <.LBB69_4+0xf8>
    71d4:	001780b3          	add	ra,a5,ra
    71d8:	00160633          	add	a2,a2,ra
    71dc:	42865613          	srai	a2,a2,0x28
    71e0:	f4c43423          	sd	a2,-184(s0)
    71e4:	00c4c663          	blt	s1,a2,71f0 <.LBB69_536>
    71e8:	f7f00613          	li	a2,-129
    71ec:	f4c43423          	sd	a2,-184(s0)

00000000000071f0 <.LBB69_536>:
    71f0:	00001637          	lui	a2,0x1
    71f4:	40c40633          	sub	a2,s0,a2
    71f8:	66863603          	ld	a2,1640(a2) # 1668 <.LBB69_5+0x24c>
    71fc:	000017b7          	lui	a5,0x1
    7200:	40f407b3          	sub	a5,s0,a5
    7204:	ff07b783          	ld	a5,-16(a5) # ff0 <.LBB69_4+0x178>
    7208:	02c78633          	mul	a2,a5,a2
    720c:	e6043083          	ld	ra,-416(s0)
    7210:	000017b7          	lui	a5,0x1
    7214:	40f407b3          	sub	a5,s0,a5
    7218:	fe87b783          	ld	a5,-24(a5) # fe8 <.LBB69_4+0x170>
    721c:	001780b3          	add	ra,a5,ra
    7220:	00160633          	add	a2,a2,ra
    7224:	42865613          	srai	a2,a2,0x28
    7228:	f4c43023          	sd	a2,-192(s0)
    722c:	00c4c663          	blt	s1,a2,7238 <.LBB69_538>
    7230:	f7f00613          	li	a2,-129
    7234:	f4c43023          	sd	a2,-192(s0)

0000000000007238 <.LBB69_538>:
    7238:	00001637          	lui	a2,0x1
    723c:	40c40633          	sub	a2,s0,a2
    7240:	66863603          	ld	a2,1640(a2) # 1668 <.LBB69_5+0x24c>
    7244:	000017b7          	lui	a5,0x1
    7248:	40f407b3          	sub	a5,s0,a5
    724c:	0607b783          	ld	a5,96(a5) # 1060 <.LBB69_4+0x1e8>
    7250:	02c78633          	mul	a2,a5,a2
    7254:	e6043083          	ld	ra,-416(s0)
    7258:	000017b7          	lui	a5,0x1
    725c:	40f407b3          	sub	a5,s0,a5
    7260:	0587b783          	ld	a5,88(a5) # 1058 <.LBB69_4+0x1e0>
    7264:	001780b3          	add	ra,a5,ra
    7268:	00160633          	add	a2,a2,ra
    726c:	42865613          	srai	a2,a2,0x28
    7270:	f2c43c23          	sd	a2,-200(s0)
    7274:	00c4c663          	blt	s1,a2,7280 <.LBB69_540>
    7278:	f7f00613          	li	a2,-129
    727c:	f2c43c23          	sd	a2,-200(s0)

0000000000007280 <.LBB69_540>:
    7280:	00001637          	lui	a2,0x1
    7284:	40c40633          	sub	a2,s0,a2
    7288:	66863603          	ld	a2,1640(a2) # 1668 <.LBB69_5+0x24c>
    728c:	000017b7          	lui	a5,0x1
    7290:	40f407b3          	sub	a5,s0,a5
    7294:	0d87b783          	ld	a5,216(a5) # 10d8 <.LBB69_4+0x260>
    7298:	02c78633          	mul	a2,a5,a2
    729c:	e6043083          	ld	ra,-416(s0)
    72a0:	000017b7          	lui	a5,0x1
    72a4:	40f407b3          	sub	a5,s0,a5
    72a8:	0d07b783          	ld	a5,208(a5) # 10d0 <.LBB69_4+0x258>
    72ac:	001780b3          	add	ra,a5,ra
    72b0:	00160633          	add	a2,a2,ra
    72b4:	42865613          	srai	a2,a2,0x28
    72b8:	f2c43823          	sd	a2,-208(s0)
    72bc:	00c4c663          	blt	s1,a2,72c8 <.LBB69_542>
    72c0:	f7f00613          	li	a2,-129
    72c4:	f2c43823          	sd	a2,-208(s0)

00000000000072c8 <.LBB69_542>:
    72c8:	00001637          	lui	a2,0x1
    72cc:	40c40633          	sub	a2,s0,a2
    72d0:	66863603          	ld	a2,1640(a2) # 1668 <.LBB69_5+0x24c>
    72d4:	000017b7          	lui	a5,0x1
    72d8:	40f407b3          	sub	a5,s0,a5
    72dc:	1587b783          	ld	a5,344(a5) # 1158 <.LBB69_4+0x2e0>
    72e0:	02c78633          	mul	a2,a5,a2
    72e4:	e6043083          	ld	ra,-416(s0)
    72e8:	000017b7          	lui	a5,0x1
    72ec:	40f407b3          	sub	a5,s0,a5
    72f0:	1507b783          	ld	a5,336(a5) # 1150 <.LBB69_4+0x2d8>
    72f4:	001780b3          	add	ra,a5,ra
    72f8:	00160633          	add	a2,a2,ra
    72fc:	42865613          	srai	a2,a2,0x28
    7300:	f2c43423          	sd	a2,-216(s0)
    7304:	00c4c663          	blt	s1,a2,7310 <.LBB69_544>
    7308:	f7f00613          	li	a2,-129
    730c:	f2c43423          	sd	a2,-216(s0)

0000000000007310 <.LBB69_544>:
    7310:	00001637          	lui	a2,0x1
    7314:	40c40633          	sub	a2,s0,a2
    7318:	66863603          	ld	a2,1640(a2) # 1668 <.LBB69_5+0x24c>
    731c:	000017b7          	lui	a5,0x1
    7320:	40f407b3          	sub	a5,s0,a5
    7324:	1c87b783          	ld	a5,456(a5) # 11c8 <.LBB69_4+0x350>
    7328:	02c78633          	mul	a2,a5,a2
    732c:	e6043083          	ld	ra,-416(s0)
    7330:	000017b7          	lui	a5,0x1
    7334:	40f407b3          	sub	a5,s0,a5
    7338:	1c07b783          	ld	a5,448(a5) # 11c0 <.LBB69_4+0x348>
    733c:	001780b3          	add	ra,a5,ra
    7340:	00160633          	add	a2,a2,ra
    7344:	42865613          	srai	a2,a2,0x28
    7348:	f2c43023          	sd	a2,-224(s0)
    734c:	00c4c663          	blt	s1,a2,7358 <.LBB69_546>
    7350:	f7f00613          	li	a2,-129
    7354:	f2c43023          	sd	a2,-224(s0)

0000000000007358 <.LBB69_546>:
    7358:	00001637          	lui	a2,0x1
    735c:	40c40633          	sub	a2,s0,a2
    7360:	66863603          	ld	a2,1640(a2) # 1668 <.LBB69_5+0x24c>
    7364:	000017b7          	lui	a5,0x1
    7368:	40f407b3          	sub	a5,s0,a5
    736c:	2407b783          	ld	a5,576(a5) # 1240 <.LBB69_4+0x3c8>
    7370:	02c78633          	mul	a2,a5,a2
    7374:	e6043083          	ld	ra,-416(s0)
    7378:	000017b7          	lui	a5,0x1
    737c:	40f407b3          	sub	a5,s0,a5
    7380:	2387b783          	ld	a5,568(a5) # 1238 <.LBB69_4+0x3c0>
    7384:	001780b3          	add	ra,a5,ra
    7388:	00160633          	add	a2,a2,ra
    738c:	42865613          	srai	a2,a2,0x28
    7390:	f0c43c23          	sd	a2,-232(s0)
    7394:	00c4c663          	blt	s1,a2,73a0 <.LBB69_548>
    7398:	f7f00613          	li	a2,-129
    739c:	f0c43c23          	sd	a2,-232(s0)

00000000000073a0 <.LBB69_548>:
    73a0:	00001637          	lui	a2,0x1
    73a4:	40c40633          	sub	a2,s0,a2
    73a8:	66863603          	ld	a2,1640(a2) # 1668 <.LBB69_5+0x24c>
    73ac:	000017b7          	lui	a5,0x1
    73b0:	40f407b3          	sub	a5,s0,a5
    73b4:	2b87b783          	ld	a5,696(a5) # 12b8 <.LBB69_4+0x440>
    73b8:	02c78633          	mul	a2,a5,a2
    73bc:	e6043083          	ld	ra,-416(s0)
    73c0:	000017b7          	lui	a5,0x1
    73c4:	40f407b3          	sub	a5,s0,a5
    73c8:	2b07b783          	ld	a5,688(a5) # 12b0 <.LBB69_4+0x438>
    73cc:	001780b3          	add	ra,a5,ra
    73d0:	00160633          	add	a2,a2,ra
    73d4:	42865613          	srai	a2,a2,0x28
    73d8:	f0c43823          	sd	a2,-240(s0)
    73dc:	00c4c663          	blt	s1,a2,73e8 <.LBB69_550>
    73e0:	f7f00613          	li	a2,-129
    73e4:	f0c43823          	sd	a2,-240(s0)

00000000000073e8 <.LBB69_550>:
    73e8:	00001637          	lui	a2,0x1
    73ec:	40c40633          	sub	a2,s0,a2
    73f0:	66863603          	ld	a2,1640(a2) # 1668 <.LBB69_5+0x24c>
    73f4:	000017b7          	lui	a5,0x1
    73f8:	40f407b3          	sub	a5,s0,a5
    73fc:	3207b783          	ld	a5,800(a5) # 1320 <.LBB69_4+0x4a8>
    7400:	02c78633          	mul	a2,a5,a2
    7404:	e6043083          	ld	ra,-416(s0)
    7408:	000017b7          	lui	a5,0x1
    740c:	40f407b3          	sub	a5,s0,a5
    7410:	3187b783          	ld	a5,792(a5) # 1318 <.LBB69_4+0x4a0>
    7414:	001780b3          	add	ra,a5,ra
    7418:	00160633          	add	a2,a2,ra
    741c:	42865613          	srai	a2,a2,0x28
    7420:	f0c43423          	sd	a2,-248(s0)
    7424:	00c4c663          	blt	s1,a2,7430 <.LBB69_552>
    7428:	f7f00613          	li	a2,-129
    742c:	f0c43423          	sd	a2,-248(s0)

0000000000007430 <.LBB69_552>:
    7430:	00001637          	lui	a2,0x1
    7434:	40c40633          	sub	a2,s0,a2
    7438:	66863603          	ld	a2,1640(a2) # 1668 <.LBB69_5+0x24c>
    743c:	000017b7          	lui	a5,0x1
    7440:	40f407b3          	sub	a5,s0,a5
    7444:	3887b783          	ld	a5,904(a5) # 1388 <.LBB69_4+0x510>
    7448:	02c78633          	mul	a2,a5,a2
    744c:	e6043083          	ld	ra,-416(s0)
    7450:	000017b7          	lui	a5,0x1
    7454:	40f407b3          	sub	a5,s0,a5
    7458:	3807b783          	ld	a5,896(a5) # 1380 <.LBB69_4+0x508>
    745c:	001780b3          	add	ra,a5,ra
    7460:	00160633          	add	a2,a2,ra
    7464:	42865613          	srai	a2,a2,0x28
    7468:	f0c43023          	sd	a2,-256(s0)
    746c:	00c4c663          	blt	s1,a2,7478 <.LBB69_554>
    7470:	f7f00613          	li	a2,-129
    7474:	f0c43023          	sd	a2,-256(s0)

0000000000007478 <.LBB69_554>:
    7478:	00001637          	lui	a2,0x1
    747c:	40c40633          	sub	a2,s0,a2
    7480:	66863603          	ld	a2,1640(a2) # 1668 <.LBB69_5+0x24c>
    7484:	000017b7          	lui	a5,0x1
    7488:	40f407b3          	sub	a5,s0,a5
    748c:	3f07b783          	ld	a5,1008(a5) # 13f0 <.LBB69_4+0x578>
    7490:	02c78633          	mul	a2,a5,a2
    7494:	e6043083          	ld	ra,-416(s0)
    7498:	000017b7          	lui	a5,0x1
    749c:	40f407b3          	sub	a5,s0,a5
    74a0:	3e87b783          	ld	a5,1000(a5) # 13e8 <.LBB69_4+0x570>
    74a4:	001780b3          	add	ra,a5,ra
    74a8:	00160633          	add	a2,a2,ra
    74ac:	42865613          	srai	a2,a2,0x28
    74b0:	eec43c23          	sd	a2,-264(s0)
    74b4:	00c4c663          	blt	s1,a2,74c0 <.LBB69_556>
    74b8:	f7f00613          	li	a2,-129
    74bc:	eec43c23          	sd	a2,-264(s0)

00000000000074c0 <.LBB69_556>:
    74c0:	00001637          	lui	a2,0x1
    74c4:	40c40633          	sub	a2,s0,a2
    74c8:	66863603          	ld	a2,1640(a2) # 1668 <.LBB69_5+0x24c>
    74cc:	000017b7          	lui	a5,0x1
    74d0:	40f407b3          	sub	a5,s0,a5
    74d4:	4707b783          	ld	a5,1136(a5) # 1470 <.LBB69_5+0x54>
    74d8:	02c78633          	mul	a2,a5,a2
    74dc:	e6043083          	ld	ra,-416(s0)
    74e0:	000017b7          	lui	a5,0x1
    74e4:	40f407b3          	sub	a5,s0,a5
    74e8:	4407b783          	ld	a5,1088(a5) # 1440 <.LBB69_5+0x24>
    74ec:	001780b3          	add	ra,a5,ra
    74f0:	00160633          	add	a2,a2,ra
    74f4:	42865613          	srai	a2,a2,0x28
    74f8:	eec43823          	sd	a2,-272(s0)
    74fc:	00c4c663          	blt	s1,a2,7508 <.LBB69_558>
    7500:	f7f00613          	li	a2,-129
    7504:	eec43823          	sd	a2,-272(s0)

0000000000007508 <.LBB69_558>:
    7508:	00001637          	lui	a2,0x1
    750c:	40c40633          	sub	a2,s0,a2
    7510:	66863603          	ld	a2,1640(a2) # 1668 <.LBB69_5+0x24c>
    7514:	000017b7          	lui	a5,0x1
    7518:	40f407b3          	sub	a5,s0,a5
    751c:	4e87b783          	ld	a5,1256(a5) # 14e8 <.LBB69_5+0xcc>
    7520:	02c78633          	mul	a2,a5,a2
    7524:	e6043083          	ld	ra,-416(s0)
    7528:	000017b7          	lui	a5,0x1
    752c:	40f407b3          	sub	a5,s0,a5
    7530:	4c07b783          	ld	a5,1216(a5) # 14c0 <.LBB69_5+0xa4>
    7534:	001780b3          	add	ra,a5,ra
    7538:	00160633          	add	a2,a2,ra
    753c:	42865613          	srai	a2,a2,0x28
    7540:	eec43423          	sd	a2,-280(s0)
    7544:	00c4c663          	blt	s1,a2,7550 <.LBB69_560>
    7548:	f7f00613          	li	a2,-129
    754c:	eec43423          	sd	a2,-280(s0)

0000000000007550 <.LBB69_560>:
    7550:	00001637          	lui	a2,0x1
    7554:	40c40633          	sub	a2,s0,a2
    7558:	66863603          	ld	a2,1640(a2) # 1668 <.LBB69_5+0x24c>
    755c:	000017b7          	lui	a5,0x1
    7560:	40f407b3          	sub	a5,s0,a5
    7564:	5487b783          	ld	a5,1352(a5) # 1548 <.LBB69_5+0x12c>
    7568:	02c78633          	mul	a2,a5,a2
    756c:	e6043083          	ld	ra,-416(s0)
    7570:	000017b7          	lui	a5,0x1
    7574:	40f407b3          	sub	a5,s0,a5
    7578:	5187b783          	ld	a5,1304(a5) # 1518 <.LBB69_5+0xfc>
    757c:	001780b3          	add	ra,a5,ra
    7580:	00160633          	add	a2,a2,ra
    7584:	42865613          	srai	a2,a2,0x28
    7588:	eec43023          	sd	a2,-288(s0)
    758c:	00c4c663          	blt	s1,a2,7598 <.LBB69_562>
    7590:	f7f00613          	li	a2,-129
    7594:	eec43023          	sd	a2,-288(s0)

0000000000007598 <.LBB69_562>:
    7598:	00001637          	lui	a2,0x1
    759c:	40c40633          	sub	a2,s0,a2
    75a0:	66863603          	ld	a2,1640(a2) # 1668 <.LBB69_5+0x24c>
    75a4:	000017b7          	lui	a5,0x1
    75a8:	40f407b3          	sub	a5,s0,a5
    75ac:	5a07b783          	ld	a5,1440(a5) # 15a0 <.LBB69_5+0x184>
    75b0:	02c78633          	mul	a2,a5,a2
    75b4:	e6043083          	ld	ra,-416(s0)
    75b8:	000017b7          	lui	a5,0x1
    75bc:	40f407b3          	sub	a5,s0,a5
    75c0:	5987b783          	ld	a5,1432(a5) # 1598 <.LBB69_5+0x17c>
    75c4:	001780b3          	add	ra,a5,ra
    75c8:	00160633          	add	a2,a2,ra
    75cc:	42865613          	srai	a2,a2,0x28
    75d0:	ecc43823          	sd	a2,-304(s0)
    75d4:	00c4c663          	blt	s1,a2,75e0 <.LBB69_564>
    75d8:	f7f00613          	li	a2,-129
    75dc:	ecc43823          	sd	a2,-304(s0)

00000000000075e0 <.LBB69_564>:
    75e0:	00001637          	lui	a2,0x1
    75e4:	40c40633          	sub	a2,s0,a2
    75e8:	66863603          	ld	a2,1640(a2) # 1668 <.LBB69_5+0x24c>
    75ec:	000017b7          	lui	a5,0x1
    75f0:	40f407b3          	sub	a5,s0,a5
    75f4:	5d87b783          	ld	a5,1496(a5) # 15d8 <.LBB69_5+0x1bc>
    75f8:	02c78633          	mul	a2,a5,a2
    75fc:	e6043083          	ld	ra,-416(s0)
    7600:	000017b7          	lui	a5,0x1
    7604:	40f407b3          	sub	a5,s0,a5
    7608:	5d07b783          	ld	a5,1488(a5) # 15d0 <.LBB69_5+0x1b4>
    760c:	001780b3          	add	ra,a5,ra
    7610:	00160633          	add	a2,a2,ra
    7614:	42865613          	srai	a2,a2,0x28
    7618:	ecc43023          	sd	a2,-320(s0)
    761c:	00c4c663          	blt	s1,a2,7628 <.LBB69_566>
    7620:	f7f00613          	li	a2,-129
    7624:	ecc43023          	sd	a2,-320(s0)

0000000000007628 <.LBB69_566>:
    7628:	00001637          	lui	a2,0x1
    762c:	40c40633          	sub	a2,s0,a2
    7630:	66863603          	ld	a2,1640(a2) # 1668 <.LBB69_5+0x24c>
    7634:	000017b7          	lui	a5,0x1
    7638:	40f407b3          	sub	a5,s0,a5
    763c:	5e87b783          	ld	a5,1512(a5) # 15e8 <.LBB69_5+0x1cc>
    7640:	02c78633          	mul	a2,a5,a2
    7644:	e6043083          	ld	ra,-416(s0)
    7648:	000017b7          	lui	a5,0x1
    764c:	40f407b3          	sub	a5,s0,a5
    7650:	5e07b783          	ld	a5,1504(a5) # 15e0 <.LBB69_5+0x1c4>
    7654:	001780b3          	add	ra,a5,ra
    7658:	00160633          	add	a2,a2,ra
    765c:	42865613          	srai	a2,a2,0x28
    7660:	eac43823          	sd	a2,-336(s0)
    7664:	00c4c663          	blt	s1,a2,7670 <.LBB69_568>
    7668:	f7f00613          	li	a2,-129
    766c:	eac43823          	sd	a2,-336(s0)

0000000000007670 <.LBB69_568>:
    7670:	00001637          	lui	a2,0x1
    7674:	40c40633          	sub	a2,s0,a2
    7678:	66863603          	ld	a2,1640(a2) # 1668 <.LBB69_5+0x24c>
    767c:	000017b7          	lui	a5,0x1
    7680:	40f407b3          	sub	a5,s0,a5
    7684:	5f87b783          	ld	a5,1528(a5) # 15f8 <.LBB69_5+0x1dc>
    7688:	02c78633          	mul	a2,a5,a2
    768c:	e6043083          	ld	ra,-416(s0)
    7690:	000017b7          	lui	a5,0x1
    7694:	40f407b3          	sub	a5,s0,a5
    7698:	5f07b783          	ld	a5,1520(a5) # 15f0 <.LBB69_5+0x1d4>
    769c:	001780b3          	add	ra,a5,ra
    76a0:	00160633          	add	a2,a2,ra
    76a4:	42865613          	srai	a2,a2,0x28
    76a8:	eac43023          	sd	a2,-352(s0)
    76ac:	00c4c663          	blt	s1,a2,76b8 <.LBB69_570>
    76b0:	f7f00613          	li	a2,-129
    76b4:	eac43023          	sd	a2,-352(s0)

00000000000076b8 <.LBB69_570>:
    76b8:	00001637          	lui	a2,0x1
    76bc:	40c40633          	sub	a2,s0,a2
    76c0:	66863603          	ld	a2,1640(a2) # 1668 <.LBB69_5+0x24c>
    76c4:	000017b7          	lui	a5,0x1
    76c8:	40f407b3          	sub	a5,s0,a5
    76cc:	6087b783          	ld	a5,1544(a5) # 1608 <.LBB69_5+0x1ec>
    76d0:	02c78633          	mul	a2,a5,a2
    76d4:	e6043083          	ld	ra,-416(s0)
    76d8:	000017b7          	lui	a5,0x1
    76dc:	40f407b3          	sub	a5,s0,a5
    76e0:	6007b783          	ld	a5,1536(a5) # 1600 <.LBB69_5+0x1e4>
    76e4:	001780b3          	add	ra,a5,ra
    76e8:	00160633          	add	a2,a2,ra
    76ec:	42865613          	srai	a2,a2,0x28
    76f0:	e8c43823          	sd	a2,-368(s0)
    76f4:	00c4c663          	blt	s1,a2,7700 <.LBB69_572>
    76f8:	f7f00613          	li	a2,-129
    76fc:	e8c43823          	sd	a2,-368(s0)

0000000000007700 <.LBB69_572>:
    7700:	00001637          	lui	a2,0x1
    7704:	40c40633          	sub	a2,s0,a2
    7708:	66863603          	ld	a2,1640(a2) # 1668 <.LBB69_5+0x24c>
    770c:	000017b7          	lui	a5,0x1
    7710:	40f407b3          	sub	a5,s0,a5
    7714:	6187b783          	ld	a5,1560(a5) # 1618 <.LBB69_5+0x1fc>
    7718:	02c78633          	mul	a2,a5,a2
    771c:	e6043083          	ld	ra,-416(s0)
    7720:	000017b7          	lui	a5,0x1
    7724:	40f407b3          	sub	a5,s0,a5
    7728:	6107b783          	ld	a5,1552(a5) # 1610 <.LBB69_5+0x1f4>
    772c:	001780b3          	add	ra,a5,ra
    7730:	00160633          	add	a2,a2,ra
    7734:	42865613          	srai	a2,a2,0x28
    7738:	e8c43023          	sd	a2,-384(s0)
    773c:	00c4c663          	blt	s1,a2,7748 <.LBB69_574>
    7740:	f7f00613          	li	a2,-129
    7744:	e8c43023          	sd	a2,-384(s0)

0000000000007748 <.LBB69_574>:
    7748:	00001637          	lui	a2,0x1
    774c:	40c40633          	sub	a2,s0,a2
    7750:	66863603          	ld	a2,1640(a2) # 1668 <.LBB69_5+0x24c>
    7754:	000017b7          	lui	a5,0x1
    7758:	40f407b3          	sub	a5,s0,a5
    775c:	6287b783          	ld	a5,1576(a5) # 1628 <.LBB69_5+0x20c>
    7760:	02c78633          	mul	a2,a5,a2
    7764:	e6043083          	ld	ra,-416(s0)
    7768:	000017b7          	lui	a5,0x1
    776c:	40f407b3          	sub	a5,s0,a5
    7770:	6207b783          	ld	a5,1568(a5) # 1620 <.LBB69_5+0x204>
    7774:	001780b3          	add	ra,a5,ra
    7778:	00160633          	add	a2,a2,ra
    777c:	42865613          	srai	a2,a2,0x28
    7780:	e6c43823          	sd	a2,-400(s0)
    7784:	00c4c663          	blt	s1,a2,7790 <.LBB69_576>
    7788:	f7f00613          	li	a2,-129
    778c:	e6c43823          	sd	a2,-400(s0)

0000000000007790 <.LBB69_576>:
    7790:	00001637          	lui	a2,0x1
    7794:	40c40633          	sub	a2,s0,a2
    7798:	66863603          	ld	a2,1640(a2) # 1668 <.LBB69_5+0x24c>
    779c:	000017b7          	lui	a5,0x1
    77a0:	40f407b3          	sub	a5,s0,a5
    77a4:	6387b783          	ld	a5,1592(a5) # 1638 <.LBB69_5+0x21c>
    77a8:	02c78633          	mul	a2,a5,a2
    77ac:	e6043083          	ld	ra,-416(s0)
    77b0:	000017b7          	lui	a5,0x1
    77b4:	40f407b3          	sub	a5,s0,a5
    77b8:	6307b783          	ld	a5,1584(a5) # 1630 <.LBB69_5+0x214>
    77bc:	001780b3          	add	ra,a5,ra
    77c0:	00160633          	add	a2,a2,ra
    77c4:	42865613          	srai	a2,a2,0x28
    77c8:	e4c43c23          	sd	a2,-424(s0)
    77cc:	00c4c663          	blt	s1,a2,77d8 <.LBB69_578>
    77d0:	f7f00613          	li	a2,-129
    77d4:	e4c43c23          	sd	a2,-424(s0)

00000000000077d8 <.LBB69_578>:
    77d8:	00001637          	lui	a2,0x1
    77dc:	40c40633          	sub	a2,s0,a2
    77e0:	66863603          	ld	a2,1640(a2) # 1668 <.LBB69_5+0x24c>
    77e4:	000017b7          	lui	a5,0x1
    77e8:	40f407b3          	sub	a5,s0,a5
    77ec:	6487b783          	ld	a5,1608(a5) # 1648 <.LBB69_5+0x22c>
    77f0:	02c78633          	mul	a2,a5,a2
    77f4:	e6043083          	ld	ra,-416(s0)
    77f8:	000017b7          	lui	a5,0x1
    77fc:	40f407b3          	sub	a5,s0,a5
    7800:	6407b783          	ld	a5,1600(a5) # 1640 <.LBB69_5+0x224>
    7804:	001780b3          	add	ra,a5,ra
    7808:	00160633          	add	a2,a2,ra
    780c:	42865613          	srai	a2,a2,0x28
    7810:	e4c43423          	sd	a2,-440(s0)
    7814:	00c4c663          	blt	s1,a2,7820 <.LBB69_580>
    7818:	f7f00613          	li	a2,-129
    781c:	e4c43423          	sd	a2,-440(s0)

0000000000007820 <.LBB69_580>:
    7820:	00001637          	lui	a2,0x1
    7824:	40c40633          	sub	a2,s0,a2
    7828:	66863603          	ld	a2,1640(a2) # 1668 <.LBB69_5+0x24c>
    782c:	000017b7          	lui	a5,0x1
    7830:	40f407b3          	sub	a5,s0,a5
    7834:	6787b083          	ld	ra,1656(a5) # 1678 <.LBB69_5+0x25c>
    7838:	02c08633          	mul	a2,ra,a2
    783c:	e6043083          	ld	ra,-416(s0)
    7840:	000017b7          	lui	a5,0x1
    7844:	40f407b3          	sub	a5,s0,a5
    7848:	6707b783          	ld	a5,1648(a5) # 1670 <.LBB69_5+0x254>
    784c:	001780b3          	add	ra,a5,ra
    7850:	00160633          	add	a2,a2,ra
    7854:	42865613          	srai	a2,a2,0x28
    7858:	d6c43023          	sd	a2,-672(s0)
    785c:	00c4c663          	blt	s1,a2,7868 <.LBB69_582>
    7860:	f7f00613          	li	a2,-129
    7864:	d6c43023          	sd	a2,-672(s0)

0000000000007868 <.LBB69_582>:
    7868:	00001637          	lui	a2,0x1
    786c:	40c40633          	sub	a2,s0,a2
    7870:	66863083          	ld	ra,1640(a2) # 1668 <.LBB69_5+0x24c>
    7874:	02168633          	mul	a2,a3,ra
    7878:	e6043683          	ld	a3,-416(s0)
    787c:	000017b7          	lui	a5,0x1
    7880:	40f407b3          	sub	a5,s0,a5
    7884:	ba07b783          	ld	a5,-1120(a5) # ba0 <.LBB69_3+0x97c>
    7888:	00d786b3          	add	a3,a5,a3
    788c:	00d60633          	add	a2,a2,a3
    7890:	42865613          	srai	a2,a2,0x28
    7894:	ecc43c23          	sd	a2,-296(s0)
    7898:	00c4c663          	blt	s1,a2,78a4 <.LBB69_584>
    789c:	f7f00613          	li	a2,-129
    78a0:	ecc43c23          	sd	a2,-296(s0)

00000000000078a4 <.LBB69_584>:
    78a4:	00001637          	lui	a2,0x1
    78a8:	40c40633          	sub	a2,s0,a2
    78ac:	c5863603          	ld	a2,-936(a2) # c58 <.LBB69_3+0xa34>
    78b0:	02160633          	mul	a2,a2,ra
    78b4:	e6043683          	ld	a3,-416(s0)
    78b8:	000017b7          	lui	a5,0x1
    78bc:	40f407b3          	sub	a5,s0,a5
    78c0:	c407b783          	ld	a5,-960(a5) # c40 <.LBB69_3+0xa1c>
    78c4:	00d786b3          	add	a3,a5,a3
    78c8:	00d60633          	add	a2,a2,a3
    78cc:	42865613          	srai	a2,a2,0x28
    78d0:	ecc43423          	sd	a2,-312(s0)
    78d4:	00c4c663          	blt	s1,a2,78e0 <.LBB69_586>
    78d8:	f7f00613          	li	a2,-129
    78dc:	ecc43423          	sd	a2,-312(s0)

00000000000078e0 <.LBB69_586>:
    78e0:	00001637          	lui	a2,0x1
    78e4:	40c40633          	sub	a2,s0,a2
    78e8:	c9863603          	ld	a2,-872(a2) # c98 <.LBB69_3+0xa74>
    78ec:	02160633          	mul	a2,a2,ra
    78f0:	e6043683          	ld	a3,-416(s0)
    78f4:	000017b7          	lui	a5,0x1
    78f8:	40f407b3          	sub	a5,s0,a5
    78fc:	c907b783          	ld	a5,-880(a5) # c90 <.LBB69_3+0xa6c>
    7900:	00d786b3          	add	a3,a5,a3
    7904:	00d60633          	add	a2,a2,a3
    7908:	42865613          	srai	a2,a2,0x28
    790c:	eac43c23          	sd	a2,-328(s0)
    7910:	00c4c663          	blt	s1,a2,791c <.LBB69_588>
    7914:	f7f00613          	li	a2,-129
    7918:	eac43c23          	sd	a2,-328(s0)

000000000000791c <.LBB69_588>:
    791c:	00001637          	lui	a2,0x1
    7920:	40c40633          	sub	a2,s0,a2
    7924:	d0863603          	ld	a2,-760(a2) # d08 <.LBB69_3+0xae4>
    7928:	02160633          	mul	a2,a2,ra
    792c:	e6043683          	ld	a3,-416(s0)
    7930:	000017b7          	lui	a5,0x1
    7934:	40f407b3          	sub	a5,s0,a5
    7938:	ce07b783          	ld	a5,-800(a5) # ce0 <.LBB69_3+0xabc>
    793c:	00d786b3          	add	a3,a5,a3
    7940:	00d60633          	add	a2,a2,a3
    7944:	42865613          	srai	a2,a2,0x28
    7948:	eac43423          	sd	a2,-344(s0)
    794c:	00c4c663          	blt	s1,a2,7958 <.LBB69_590>
    7950:	f7f00613          	li	a2,-129
    7954:	eac43423          	sd	a2,-344(s0)

0000000000007958 <.LBB69_590>:
    7958:	00001637          	lui	a2,0x1
    795c:	40c40633          	sub	a2,s0,a2
    7960:	d8063603          	ld	a2,-640(a2) # d80 <.LBB69_3+0xb5c>
    7964:	02160633          	mul	a2,a2,ra
    7968:	e6043683          	ld	a3,-416(s0)
    796c:	000017b7          	lui	a5,0x1
    7970:	40f407b3          	sub	a5,s0,a5
    7974:	d507b783          	ld	a5,-688(a5) # d50 <.LBB69_3+0xb2c>
    7978:	00d786b3          	add	a3,a5,a3
    797c:	00d60633          	add	a2,a2,a3
    7980:	42865613          	srai	a2,a2,0x28
    7984:	e8c43c23          	sd	a2,-360(s0)
    7988:	00c4c663          	blt	s1,a2,7994 <.LBB69_592>
    798c:	f7f00613          	li	a2,-129
    7990:	e8c43c23          	sd	a2,-360(s0)

0000000000007994 <.LBB69_592>:
    7994:	00001637          	lui	a2,0x1
    7998:	40c40633          	sub	a2,s0,a2
    799c:	e0063603          	ld	a2,-512(a2) # e00 <.LBB69_3+0xbdc>
    79a0:	02160633          	mul	a2,a2,ra
    79a4:	e6043683          	ld	a3,-416(s0)
    79a8:	000017b7          	lui	a5,0x1
    79ac:	40f407b3          	sub	a5,s0,a5
    79b0:	dc87b783          	ld	a5,-568(a5) # dc8 <.LBB69_3+0xba4>
    79b4:	00d786b3          	add	a3,a5,a3
    79b8:	00d60633          	add	a2,a2,a3
    79bc:	42865613          	srai	a2,a2,0x28
    79c0:	e8c43423          	sd	a2,-376(s0)
    79c4:	00c4c663          	blt	s1,a2,79d0 <.LBB69_594>
    79c8:	f7f00613          	li	a2,-129
    79cc:	e8c43423          	sd	a2,-376(s0)

00000000000079d0 <.LBB69_594>:
    79d0:	00001637          	lui	a2,0x1
    79d4:	40c40633          	sub	a2,s0,a2
    79d8:	e7863603          	ld	a2,-392(a2) # e78 <.LBB69_4>
    79dc:	02160633          	mul	a2,a2,ra
    79e0:	e6043683          	ld	a3,-416(s0)
    79e4:	000017b7          	lui	a5,0x1
    79e8:	40f407b3          	sub	a5,s0,a5
    79ec:	e487b783          	ld	a5,-440(a5) # e48 <.LBB69_3+0xc24>
    79f0:	00d786b3          	add	a3,a5,a3
    79f4:	00d60633          	add	a2,a2,a3
    79f8:	42865613          	srai	a2,a2,0x28
    79fc:	e6c43c23          	sd	a2,-392(s0)
    7a00:	00c4c663          	blt	s1,a2,7a0c <.LBB69_596>
    7a04:	f7f00613          	li	a2,-129
    7a08:	e6c43c23          	sd	a2,-392(s0)

0000000000007a0c <.LBB69_596>:
    7a0c:	00001637          	lui	a2,0x1
    7a10:	40c40633          	sub	a2,s0,a2
    7a14:	ef863603          	ld	a2,-264(a2) # ef8 <.LBB69_4+0x80>
    7a18:	02160633          	mul	a2,a2,ra
    7a1c:	e6043683          	ld	a3,-416(s0)
    7a20:	000017b7          	lui	a5,0x1
    7a24:	40f407b3          	sub	a5,s0,a5
    7a28:	ec07b783          	ld	a5,-320(a5) # ec0 <.LBB69_4+0x48>
    7a2c:	00d786b3          	add	a3,a5,a3
    7a30:	00d60633          	add	a2,a2,a3
    7a34:	42865613          	srai	a2,a2,0x28
    7a38:	e6c43423          	sd	a2,-408(s0)
    7a3c:	00c4c663          	blt	s1,a2,7a48 <.LBB69_598>
    7a40:	f7f00613          	li	a2,-129
    7a44:	e6c43423          	sd	a2,-408(s0)

0000000000007a48 <.LBB69_598>:
    7a48:	00001637          	lui	a2,0x1
    7a4c:	40c40633          	sub	a2,s0,a2
    7a50:	f6863603          	ld	a2,-152(a2) # f68 <.LBB69_4+0xf0>
    7a54:	02160633          	mul	a2,a2,ra
    7a58:	e6043683          	ld	a3,-416(s0)
    7a5c:	000017b7          	lui	a5,0x1
    7a60:	40f407b3          	sub	a5,s0,a5
    7a64:	f407b783          	ld	a5,-192(a5) # f40 <.LBB69_4+0xc8>
    7a68:	00d786b3          	add	a3,a5,a3
    7a6c:	00d60633          	add	a2,a2,a3
    7a70:	42865613          	srai	a2,a2,0x28
    7a74:	e4c43823          	sd	a2,-432(s0)
    7a78:	00c4c663          	blt	s1,a2,7a84 <.LBB69_600>
    7a7c:	f7f00613          	li	a2,-129
    7a80:	e4c43823          	sd	a2,-432(s0)

0000000000007a84 <.LBB69_600>:
    7a84:	00001637          	lui	a2,0x1
    7a88:	40c40633          	sub	a2,s0,a2
    7a8c:	fe063603          	ld	a2,-32(a2) # fe0 <.LBB69_4+0x168>
    7a90:	02160633          	mul	a2,a2,ra
    7a94:	e6043683          	ld	a3,-416(s0)
    7a98:	000017b7          	lui	a5,0x1
    7a9c:	40f407b3          	sub	a5,s0,a5
    7aa0:	fb07b783          	ld	a5,-80(a5) # fb0 <.LBB69_4+0x138>
    7aa4:	00d786b3          	add	a3,a5,a3
    7aa8:	00d60633          	add	a2,a2,a3
    7aac:	42865613          	srai	a2,a2,0x28
    7ab0:	e4c43023          	sd	a2,-448(s0)
    7ab4:	00c4c663          	blt	s1,a2,7ac0 <.LBB69_602>
    7ab8:	f7f00613          	li	a2,-129
    7abc:	e4c43023          	sd	a2,-448(s0)

0000000000007ac0 <.LBB69_602>:
    7ac0:	00001637          	lui	a2,0x1
    7ac4:	40c40633          	sub	a2,s0,a2
    7ac8:	05063603          	ld	a2,80(a2) # 1050 <.LBB69_4+0x1d8>
    7acc:	02160633          	mul	a2,a2,ra
    7ad0:	e6043683          	ld	a3,-416(s0)
    7ad4:	000017b7          	lui	a5,0x1
    7ad8:	40f407b3          	sub	a5,s0,a5
    7adc:	0287b783          	ld	a5,40(a5) # 1028 <.LBB69_4+0x1b0>
    7ae0:	00d786b3          	add	a3,a5,a3
    7ae4:	00d60633          	add	a2,a2,a3
    7ae8:	42865613          	srai	a2,a2,0x28
    7aec:	e2c43c23          	sd	a2,-456(s0)
    7af0:	00c4c663          	blt	s1,a2,7afc <.LBB69_604>
    7af4:	f7f00613          	li	a2,-129
    7af8:	e2c43c23          	sd	a2,-456(s0)

0000000000007afc <.LBB69_604>:
    7afc:	00001637          	lui	a2,0x1
    7b00:	40c40633          	sub	a2,s0,a2
    7b04:	0c863603          	ld	a2,200(a2) # 10c8 <.LBB69_4+0x250>
    7b08:	02160633          	mul	a2,a2,ra
    7b0c:	e6043683          	ld	a3,-416(s0)
    7b10:	000017b7          	lui	a5,0x1
    7b14:	40f407b3          	sub	a5,s0,a5
    7b18:	0987b783          	ld	a5,152(a5) # 1098 <.LBB69_4+0x220>
    7b1c:	00d786b3          	add	a3,a5,a3
    7b20:	00d60633          	add	a2,a2,a3
    7b24:	42865613          	srai	a2,a2,0x28
    7b28:	e2c43823          	sd	a2,-464(s0)
    7b2c:	00c4c663          	blt	s1,a2,7b38 <.LBB69_606>
    7b30:	f7f00613          	li	a2,-129
    7b34:	e2c43823          	sd	a2,-464(s0)

0000000000007b38 <.LBB69_606>:
    7b38:	00001637          	lui	a2,0x1
    7b3c:	40c40633          	sub	a2,s0,a2
    7b40:	14063603          	ld	a2,320(a2) # 1140 <.LBB69_4+0x2c8>
    7b44:	02160633          	mul	a2,a2,ra
    7b48:	e6043683          	ld	a3,-416(s0)
    7b4c:	000017b7          	lui	a5,0x1
    7b50:	40f407b3          	sub	a5,s0,a5
    7b54:	1107b783          	ld	a5,272(a5) # 1110 <.LBB69_4+0x298>
    7b58:	00d786b3          	add	a3,a5,a3
    7b5c:	00d60633          	add	a2,a2,a3
    7b60:	42865613          	srai	a2,a2,0x28
    7b64:	e2c43423          	sd	a2,-472(s0)
    7b68:	00c4c663          	blt	s1,a2,7b74 <.LBB69_608>
    7b6c:	f7f00613          	li	a2,-129
    7b70:	e2c43423          	sd	a2,-472(s0)

0000000000007b74 <.LBB69_608>:
    7b74:	00001637          	lui	a2,0x1
    7b78:	40c40633          	sub	a2,s0,a2
    7b7c:	1b863603          	ld	a2,440(a2) # 11b8 <.LBB69_4+0x340>
    7b80:	02160633          	mul	a2,a2,ra
    7b84:	e6043683          	ld	a3,-416(s0)
    7b88:	000017b7          	lui	a5,0x1
    7b8c:	40f407b3          	sub	a5,s0,a5
    7b90:	1907b783          	ld	a5,400(a5) # 1190 <.LBB69_4+0x318>
    7b94:	00d786b3          	add	a3,a5,a3
    7b98:	00d60633          	add	a2,a2,a3
    7b9c:	42865613          	srai	a2,a2,0x28
    7ba0:	e2c43023          	sd	a2,-480(s0)
    7ba4:	00c4c663          	blt	s1,a2,7bb0 <.LBB69_610>
    7ba8:	f7f00613          	li	a2,-129
    7bac:	e2c43023          	sd	a2,-480(s0)

0000000000007bb0 <.LBB69_610>:
    7bb0:	00001637          	lui	a2,0x1
    7bb4:	40c40633          	sub	a2,s0,a2
    7bb8:	23063603          	ld	a2,560(a2) # 1230 <.LBB69_4+0x3b8>
    7bbc:	02160633          	mul	a2,a2,ra
    7bc0:	e6043683          	ld	a3,-416(s0)
    7bc4:	000017b7          	lui	a5,0x1
    7bc8:	40f407b3          	sub	a5,s0,a5
    7bcc:	2007b783          	ld	a5,512(a5) # 1200 <.LBB69_4+0x388>
    7bd0:	00d786b3          	add	a3,a5,a3
    7bd4:	00d60633          	add	a2,a2,a3
    7bd8:	42865613          	srai	a2,a2,0x28
    7bdc:	e0c43c23          	sd	a2,-488(s0)
    7be0:	00c4c663          	blt	s1,a2,7bec <.LBB69_612>
    7be4:	f7f00613          	li	a2,-129
    7be8:	e0c43c23          	sd	a2,-488(s0)

0000000000007bec <.LBB69_612>:
    7bec:	00001637          	lui	a2,0x1
    7bf0:	40c40633          	sub	a2,s0,a2
    7bf4:	2a863603          	ld	a2,680(a2) # 12a8 <.LBB69_4+0x430>
    7bf8:	02160633          	mul	a2,a2,ra
    7bfc:	e6043683          	ld	a3,-416(s0)
    7c00:	000017b7          	lui	a5,0x1
    7c04:	40f407b3          	sub	a5,s0,a5
    7c08:	2787b783          	ld	a5,632(a5) # 1278 <.LBB69_4+0x400>
    7c0c:	00d786b3          	add	a3,a5,a3
    7c10:	00d60633          	add	a2,a2,a3
    7c14:	42865613          	srai	a2,a2,0x28
    7c18:	e0c43823          	sd	a2,-496(s0)
    7c1c:	00c4c663          	blt	s1,a2,7c28 <.LBB69_614>
    7c20:	f7f00613          	li	a2,-129
    7c24:	e0c43823          	sd	a2,-496(s0)

0000000000007c28 <.LBB69_614>:
    7c28:	00001637          	lui	a2,0x1
    7c2c:	40c40633          	sub	a2,s0,a2
    7c30:	31063603          	ld	a2,784(a2) # 1310 <.LBB69_4+0x498>
    7c34:	02160633          	mul	a2,a2,ra
    7c38:	e6043683          	ld	a3,-416(s0)
    7c3c:	000017b7          	lui	a5,0x1
    7c40:	40f407b3          	sub	a5,s0,a5
    7c44:	2e87b783          	ld	a5,744(a5) # 12e8 <.LBB69_4+0x470>
    7c48:	00d786b3          	add	a3,a5,a3
    7c4c:	00d60633          	add	a2,a2,a3
    7c50:	42865613          	srai	a2,a2,0x28
    7c54:	e0c43423          	sd	a2,-504(s0)
    7c58:	00c4c663          	blt	s1,a2,7c64 <.LBB69_616>
    7c5c:	f7f00613          	li	a2,-129
    7c60:	e0c43423          	sd	a2,-504(s0)

0000000000007c64 <.LBB69_616>:
    7c64:	00001637          	lui	a2,0x1
    7c68:	40c40633          	sub	a2,s0,a2
    7c6c:	37863603          	ld	a2,888(a2) # 1378 <.LBB69_4+0x500>
    7c70:	02160633          	mul	a2,a2,ra
    7c74:	e6043683          	ld	a3,-416(s0)
    7c78:	000017b7          	lui	a5,0x1
    7c7c:	40f407b3          	sub	a5,s0,a5
    7c80:	3507b783          	ld	a5,848(a5) # 1350 <.LBB69_4+0x4d8>
    7c84:	00d786b3          	add	a3,a5,a3
    7c88:	00d60633          	add	a2,a2,a3
    7c8c:	42865613          	srai	a2,a2,0x28
    7c90:	e0c43023          	sd	a2,-512(s0)
    7c94:	00c4c663          	blt	s1,a2,7ca0 <.LBB69_618>
    7c98:	f7f00613          	li	a2,-129
    7c9c:	e0c43023          	sd	a2,-512(s0)

0000000000007ca0 <.LBB69_618>:
    7ca0:	00001637          	lui	a2,0x1
    7ca4:	40c40633          	sub	a2,s0,a2
    7ca8:	3e063603          	ld	a2,992(a2) # 13e0 <.LBB69_4+0x568>
    7cac:	02160633          	mul	a2,a2,ra
    7cb0:	e6043683          	ld	a3,-416(s0)
    7cb4:	000017b7          	lui	a5,0x1
    7cb8:	40f407b3          	sub	a5,s0,a5
    7cbc:	3b87b783          	ld	a5,952(a5) # 13b8 <.LBB69_4+0x540>
    7cc0:	00d786b3          	add	a3,a5,a3
    7cc4:	00d60633          	add	a2,a2,a3
    7cc8:	42865613          	srai	a2,a2,0x28
    7ccc:	dec43c23          	sd	a2,-520(s0)
    7cd0:	00c4c663          	blt	s1,a2,7cdc <.LBB69_620>
    7cd4:	f7f00613          	li	a2,-129
    7cd8:	dec43c23          	sd	a2,-520(s0)

0000000000007cdc <.LBB69_620>:
    7cdc:	00001637          	lui	a2,0x1
    7ce0:	40c40633          	sub	a2,s0,a2
    7ce4:	43863603          	ld	a2,1080(a2) # 1438 <.LBB69_5+0x1c>
    7ce8:	02160633          	mul	a2,a2,ra
    7cec:	e6043683          	ld	a3,-416(s0)
    7cf0:	000017b7          	lui	a5,0x1
    7cf4:	40f407b3          	sub	a5,s0,a5
    7cf8:	4187b783          	ld	a5,1048(a5) # 1418 <.LBB69_4+0x5a0>
    7cfc:	00d786b3          	add	a3,a5,a3
    7d00:	00d60633          	add	a2,a2,a3
    7d04:	42865613          	srai	a2,a2,0x28
    7d08:	dec43823          	sd	a2,-528(s0)
    7d0c:	00c4c663          	blt	s1,a2,7d18 <.LBB69_622>
    7d10:	f7f00613          	li	a2,-129
    7d14:	dec43823          	sd	a2,-528(s0)

0000000000007d18 <.LBB69_622>:
    7d18:	00001637          	lui	a2,0x1
    7d1c:	40c40633          	sub	a2,s0,a2
    7d20:	49063603          	ld	a2,1168(a2) # 1490 <.LBB69_5+0x74>
    7d24:	02160633          	mul	a2,a2,ra
    7d28:	e6043683          	ld	a3,-416(s0)
    7d2c:	000017b7          	lui	a5,0x1
    7d30:	40f407b3          	sub	a5,s0,a5
    7d34:	4687b783          	ld	a5,1128(a5) # 1468 <.LBB69_5+0x4c>
    7d38:	00d786b3          	add	a3,a5,a3
    7d3c:	00d60633          	add	a2,a2,a3
    7d40:	42865613          	srai	a2,a2,0x28
    7d44:	dec43423          	sd	a2,-536(s0)
    7d48:	00c4c663          	blt	s1,a2,7d54 <.LBB69_624>
    7d4c:	f7f00613          	li	a2,-129
    7d50:	dec43423          	sd	a2,-536(s0)

0000000000007d54 <.LBB69_624>:
    7d54:	00001637          	lui	a2,0x1
    7d58:	40c40633          	sub	a2,s0,a2
    7d5c:	4e063603          	ld	a2,1248(a2) # 14e0 <.LBB69_5+0xc4>
    7d60:	02160633          	mul	a2,a2,ra
    7d64:	e6043683          	ld	a3,-416(s0)
    7d68:	000017b7          	lui	a5,0x1
    7d6c:	40f407b3          	sub	a5,s0,a5
    7d70:	4b87b783          	ld	a5,1208(a5) # 14b8 <.LBB69_5+0x9c>
    7d74:	00d786b3          	add	a3,a5,a3
    7d78:	00d60633          	add	a2,a2,a3
    7d7c:	42865613          	srai	a2,a2,0x28
    7d80:	dec43023          	sd	a2,-544(s0)
    7d84:	00c4c663          	blt	s1,a2,7d90 <.LBB69_626>
    7d88:	f7f00613          	li	a2,-129
    7d8c:	dec43023          	sd	a2,-544(s0)

0000000000007d90 <.LBB69_626>:
    7d90:	00001637          	lui	a2,0x1
    7d94:	40c40633          	sub	a2,s0,a2
    7d98:	54063603          	ld	a2,1344(a2) # 1540 <.LBB69_5+0x124>
    7d9c:	02160633          	mul	a2,a2,ra
    7da0:	e6043683          	ld	a3,-416(s0)
    7da4:	000017b7          	lui	a5,0x1
    7da8:	40f407b3          	sub	a5,s0,a5
    7dac:	5107b783          	ld	a5,1296(a5) # 1510 <.LBB69_5+0xf4>
    7db0:	00d786b3          	add	a3,a5,a3
    7db4:	00d60633          	add	a2,a2,a3
    7db8:	42865613          	srai	a2,a2,0x28
    7dbc:	dcc43823          	sd	a2,-560(s0)
    7dc0:	00c4c663          	blt	s1,a2,7dcc <.LBB69_628>
    7dc4:	f7f00613          	li	a2,-129
    7dc8:	dcc43823          	sd	a2,-560(s0)

0000000000007dcc <.LBB69_628>:
    7dcc:	00001637          	lui	a2,0x1
    7dd0:	40c40633          	sub	a2,s0,a2
    7dd4:	59063603          	ld	a2,1424(a2) # 1590 <.LBB69_5+0x174>
    7dd8:	02160633          	mul	a2,a2,ra
    7ddc:	e6043683          	ld	a3,-416(s0)
    7de0:	000017b7          	lui	a5,0x1
    7de4:	40f407b3          	sub	a5,s0,a5
    7de8:	5707b783          	ld	a5,1392(a5) # 1570 <.LBB69_5+0x154>
    7dec:	00d786b3          	add	a3,a5,a3
    7df0:	00d60633          	add	a2,a2,a3
    7df4:	42865613          	srai	a2,a2,0x28
    7df8:	dcc43023          	sd	a2,-576(s0)
    7dfc:	00c4c663          	blt	s1,a2,7e08 <.LBB69_630>
    7e00:	f7f00613          	li	a2,-129
    7e04:	dcc43023          	sd	a2,-576(s0)

0000000000007e08 <.LBB69_630>:
    7e08:	00001637          	lui	a2,0x1
    7e0c:	40c40633          	sub	a2,s0,a2
    7e10:	70863603          	ld	a2,1800(a2) # 1708 <.LBB69_5+0x2ec>
    7e14:	02160633          	mul	a2,a2,ra
    7e18:	e6043683          	ld	a3,-416(s0)
    7e1c:	000017b7          	lui	a5,0x1
    7e20:	40f407b3          	sub	a5,s0,a5
    7e24:	5c87b783          	ld	a5,1480(a5) # 15c8 <.LBB69_5+0x1ac>
    7e28:	00d786b3          	add	a3,a5,a3
    7e2c:	00d60633          	add	a2,a2,a3
    7e30:	42865613          	srai	a2,a2,0x28
    7e34:	dac43823          	sd	a2,-592(s0)
    7e38:	00c4c663          	blt	s1,a2,7e44 <.LBB69_632>
    7e3c:	f7f00613          	li	a2,-129
    7e40:	dac43823          	sd	a2,-592(s0)

0000000000007e44 <.LBB69_632>:
    7e44:	00001637          	lui	a2,0x1
    7e48:	40c40633          	sub	a2,s0,a2
    7e4c:	7b863603          	ld	a2,1976(a2) # 17b8 <.LBB69_5+0x39c>
    7e50:	02160633          	mul	a2,a2,ra
    7e54:	e6043683          	ld	a3,-416(s0)
    7e58:	000017b7          	lui	a5,0x1
    7e5c:	40f407b3          	sub	a5,s0,a5
    7e60:	7507b783          	ld	a5,1872(a5) # 1750 <.LBB69_5+0x334>
    7e64:	00d786b3          	add	a3,a5,a3
    7e68:	00d60633          	add	a2,a2,a3
    7e6c:	42865613          	srai	a2,a2,0x28
    7e70:	dac43023          	sd	a2,-608(s0)
    7e74:	00c4c663          	blt	s1,a2,7e80 <.LBB69_634>
    7e78:	f7f00613          	li	a2,-129
    7e7c:	dac43023          	sd	a2,-608(s0)

0000000000007e80 <.LBB69_634>:
    7e80:	00001637          	lui	a2,0x1
    7e84:	40c40633          	sub	a2,s0,a2
    7e88:	7b063603          	ld	a2,1968(a2) # 17b0 <.LBB69_5+0x394>
    7e8c:	02160633          	mul	a2,a2,ra
    7e90:	e6043683          	ld	a3,-416(s0)
    7e94:	000017b7          	lui	a5,0x1
    7e98:	40f407b3          	sub	a5,s0,a5
    7e9c:	7587b783          	ld	a5,1880(a5) # 1758 <.LBB69_5+0x33c>
    7ea0:	00d786b3          	add	a3,a5,a3
    7ea4:	00d60633          	add	a2,a2,a3
    7ea8:	42865613          	srai	a2,a2,0x28
    7eac:	d8c43823          	sd	a2,-624(s0)
    7eb0:	00c4c663          	blt	s1,a2,7ebc <.LBB69_636>
    7eb4:	f7f00613          	li	a2,-129
    7eb8:	d8c43823          	sd	a2,-624(s0)

0000000000007ebc <.LBB69_636>:
    7ebc:	00001637          	lui	a2,0x1
    7ec0:	40c40633          	sub	a2,s0,a2
    7ec4:	7a863603          	ld	a2,1960(a2) # 17a8 <.LBB69_5+0x38c>
    7ec8:	02160633          	mul	a2,a2,ra
    7ecc:	e6043683          	ld	a3,-416(s0)
    7ed0:	000017b7          	lui	a5,0x1
    7ed4:	40f407b3          	sub	a5,s0,a5
    7ed8:	7607b783          	ld	a5,1888(a5) # 1760 <.LBB69_5+0x344>
    7edc:	00d786b3          	add	a3,a5,a3
    7ee0:	00d60633          	add	a2,a2,a3
    7ee4:	42865613          	srai	a2,a2,0x28
    7ee8:	d8c43023          	sd	a2,-640(s0)
    7eec:	00c4c663          	blt	s1,a2,7ef8 <.LBB69_638>
    7ef0:	f7f00613          	li	a2,-129
    7ef4:	d8c43023          	sd	a2,-640(s0)

0000000000007ef8 <.LBB69_638>:
    7ef8:	00001637          	lui	a2,0x1
    7efc:	40c40633          	sub	a2,s0,a2
    7f00:	7a063603          	ld	a2,1952(a2) # 17a0 <.LBB69_5+0x384>
    7f04:	02160633          	mul	a2,a2,ra
    7f08:	e6043683          	ld	a3,-416(s0)
    7f0c:	000017b7          	lui	a5,0x1
    7f10:	40f407b3          	sub	a5,s0,a5
    7f14:	7687b783          	ld	a5,1896(a5) # 1768 <.LBB69_5+0x34c>
    7f18:	00d786b3          	add	a3,a5,a3
    7f1c:	00d60633          	add	a2,a2,a3
    7f20:	42865613          	srai	a2,a2,0x28
    7f24:	d6c43823          	sd	a2,-656(s0)
    7f28:	00c4c663          	blt	s1,a2,7f34 <.LBB69_640>
    7f2c:	f7f00613          	li	a2,-129
    7f30:	d6c43823          	sd	a2,-656(s0)

0000000000007f34 <.LBB69_640>:
    7f34:	00001637          	lui	a2,0x1
    7f38:	40c40633          	sub	a2,s0,a2
    7f3c:	79863603          	ld	a2,1944(a2) # 1798 <.LBB69_5+0x37c>
    7f40:	02160633          	mul	a2,a2,ra
    7f44:	e6043683          	ld	a3,-416(s0)
    7f48:	000017b7          	lui	a5,0x1
    7f4c:	40f407b3          	sub	a5,s0,a5
    7f50:	7787b783          	ld	a5,1912(a5) # 1778 <.LBB69_5+0x35c>
    7f54:	00d786b3          	add	a3,a5,a3
    7f58:	00d60633          	add	a2,a2,a3
    7f5c:	42865613          	srai	a2,a2,0x28
    7f60:	d4c43c23          	sd	a2,-680(s0)
    7f64:	00c4c663          	blt	s1,a2,7f70 <.LBB69_642>
    7f68:	f7f00613          	li	a2,-129
    7f6c:	d4c43c23          	sd	a2,-680(s0)

0000000000007f70 <.LBB69_642>:
    7f70:	00001637          	lui	a2,0x1
    7f74:	40c40633          	sub	a2,s0,a2
    7f78:	79063603          	ld	a2,1936(a2) # 1790 <.LBB69_5+0x374>
    7f7c:	02160633          	mul	a2,a2,ra
    7f80:	e6043683          	ld	a3,-416(s0)
    7f84:	000017b7          	lui	a5,0x1
    7f88:	40f407b3          	sub	a5,s0,a5
    7f8c:	7807b783          	ld	a5,1920(a5) # 1780 <.LBB69_5+0x364>
    7f90:	00d786b3          	add	a3,a5,a3
    7f94:	00d60633          	add	a2,a2,a3
    7f98:	42865613          	srai	a2,a2,0x28
    7f9c:	d4c43423          	sd	a2,-696(s0)
    7fa0:	00c4c663          	blt	s1,a2,7fac <.LBB69_644>
    7fa4:	f7f00613          	li	a2,-129
    7fa8:	d4c43423          	sd	a2,-696(s0)

0000000000007fac <.LBB69_644>:
    7fac:	00001637          	lui	a2,0x1
    7fb0:	40c40633          	sub	a2,s0,a2
    7fb4:	78863603          	ld	a2,1928(a2) # 1788 <.LBB69_5+0x36c>
    7fb8:	02160633          	mul	a2,a2,ra
    7fbc:	e6043683          	ld	a3,-416(s0)
    7fc0:	87043783          	ld	a5,-1936(s0)
    7fc4:	00d786b3          	add	a3,a5,a3
    7fc8:	00d60633          	add	a2,a2,a3
    7fcc:	42865613          	srai	a2,a2,0x28
    7fd0:	d2c43c23          	sd	a2,-712(s0)
    7fd4:	00c4c663          	blt	s1,a2,7fe0 <.LBB69_646>
    7fd8:	f7f00613          	li	a2,-129
    7fdc:	d2c43c23          	sd	a2,-712(s0)

0000000000007fe0 <.LBB69_646>:
    7fe0:	00001637          	lui	a2,0x1
    7fe4:	40c40633          	sub	a2,s0,a2
    7fe8:	bb863603          	ld	a2,-1096(a2) # bb8 <.LBB69_3+0x994>
    7fec:	02160633          	mul	a2,a2,ra
    7ff0:	e6043c03          	ld	s8,-416(s0)
    7ff4:	000016b7          	lui	a3,0x1
    7ff8:	40d406b3          	sub	a3,s0,a3
    7ffc:	b986b683          	ld	a3,-1128(a3) # b98 <.LBB69_3+0x974>
    8000:	018686b3          	add	a3,a3,s8
    8004:	00d60633          	add	a2,a2,a3
    8008:	42865613          	srai	a2,a2,0x28
    800c:	dcc43c23          	sd	a2,-552(s0)
    8010:	9c043783          	ld	a5,-1600(s0)
    8014:	00c4c663          	blt	s1,a2,8020 <.LBB69_648>
    8018:	f7f00613          	li	a2,-129
    801c:	dcc43c23          	sd	a2,-552(s0)

0000000000008020 <.LBB69_648>:
    8020:	00001637          	lui	a2,0x1
    8024:	40c40633          	sub	a2,s0,a2
    8028:	bf063603          	ld	a2,-1040(a2) # bf0 <.LBB69_3+0x9cc>
    802c:	02160633          	mul	a2,a2,ra
    8030:	000016b7          	lui	a3,0x1
    8034:	40d406b3          	sub	a3,s0,a3
    8038:	c386b683          	ld	a3,-968(a3) # c38 <.LBB69_3+0xa14>
    803c:	018686b3          	add	a3,a3,s8
    8040:	00d60633          	add	a2,a2,a3
    8044:	42865613          	srai	a2,a2,0x28
    8048:	dcc43423          	sd	a2,-568(s0)
    804c:	00c4c663          	blt	s1,a2,8058 <.LBB69_650>
    8050:	f7f00613          	li	a2,-129
    8054:	dcc43423          	sd	a2,-568(s0)

0000000000008058 <.LBB69_650>:
    8058:	00001637          	lui	a2,0x1
    805c:	40c40633          	sub	a2,s0,a2
    8060:	bf863603          	ld	a2,-1032(a2) # bf8 <.LBB69_3+0x9d4>
    8064:	02160633          	mul	a2,a2,ra
    8068:	000016b7          	lui	a3,0x1
    806c:	40d406b3          	sub	a3,s0,a3
    8070:	c886b683          	ld	a3,-888(a3) # c88 <.LBB69_3+0xa64>
    8074:	018686b3          	add	a3,a3,s8
    8078:	00d60633          	add	a2,a2,a3
    807c:	42865613          	srai	a2,a2,0x28
    8080:	dac43c23          	sd	a2,-584(s0)
    8084:	00c4c663          	blt	s1,a2,8090 <.LBB69_652>
    8088:	f7f00613          	li	a2,-129
    808c:	dac43c23          	sd	a2,-584(s0)

0000000000008090 <.LBB69_652>:
    8090:	00001637          	lui	a2,0x1
    8094:	40c40633          	sub	a2,s0,a2
    8098:	d0063603          	ld	a2,-768(a2) # d00 <.LBB69_3+0xadc>
    809c:	02160633          	mul	a2,a2,ra
    80a0:	000016b7          	lui	a3,0x1
    80a4:	40d406b3          	sub	a3,s0,a3
    80a8:	cd86b683          	ld	a3,-808(a3) # cd8 <.LBB69_3+0xab4>
    80ac:	018686b3          	add	a3,a3,s8
    80b0:	00d60633          	add	a2,a2,a3
    80b4:	42865613          	srai	a2,a2,0x28
    80b8:	dac43423          	sd	a2,-600(s0)
    80bc:	00c4c663          	blt	s1,a2,80c8 <.LBB69_654>
    80c0:	f7f00613          	li	a2,-129
    80c4:	dac43423          	sd	a2,-600(s0)

00000000000080c8 <.LBB69_654>:
    80c8:	00001637          	lui	a2,0x1
    80cc:	40c40633          	sub	a2,s0,a2
    80d0:	d7863603          	ld	a2,-648(a2) # d78 <.LBB69_3+0xb54>
    80d4:	02160633          	mul	a2,a2,ra
    80d8:	000016b7          	lui	a3,0x1
    80dc:	40d406b3          	sub	a3,s0,a3
    80e0:	d486b683          	ld	a3,-696(a3) # d48 <.LBB69_3+0xb24>
    80e4:	018686b3          	add	a3,a3,s8
    80e8:	00d60633          	add	a2,a2,a3
    80ec:	42865613          	srai	a2,a2,0x28
    80f0:	d8c43c23          	sd	a2,-616(s0)
    80f4:	00c4c663          	blt	s1,a2,8100 <.LBB69_656>
    80f8:	f7f00613          	li	a2,-129
    80fc:	d8c43c23          	sd	a2,-616(s0)

0000000000008100 <.LBB69_656>:
    8100:	00001637          	lui	a2,0x1
    8104:	40c40633          	sub	a2,s0,a2
    8108:	df863603          	ld	a2,-520(a2) # df8 <.LBB69_3+0xbd4>
    810c:	02160633          	mul	a2,a2,ra
    8110:	000016b7          	lui	a3,0x1
    8114:	40d406b3          	sub	a3,s0,a3
    8118:	dc06b683          	ld	a3,-576(a3) # dc0 <.LBB69_3+0xb9c>
    811c:	018686b3          	add	a3,a3,s8
    8120:	00d60633          	add	a2,a2,a3
    8124:	42865613          	srai	a2,a2,0x28
    8128:	d8c43423          	sd	a2,-632(s0)
    812c:	00c4c663          	blt	s1,a2,8138 <.LBB69_658>
    8130:	f7f00613          	li	a2,-129
    8134:	d8c43423          	sd	a2,-632(s0)

0000000000008138 <.LBB69_658>:
    8138:	00001637          	lui	a2,0x1
    813c:	40c40633          	sub	a2,s0,a2
    8140:	e7063603          	ld	a2,-400(a2) # e70 <.LBB69_3+0xc4c>
    8144:	02160633          	mul	a2,a2,ra
    8148:	000016b7          	lui	a3,0x1
    814c:	40d406b3          	sub	a3,s0,a3
    8150:	e406b683          	ld	a3,-448(a3) # e40 <.LBB69_3+0xc1c>
    8154:	018686b3          	add	a3,a3,s8
    8158:	00d60633          	add	a2,a2,a3
    815c:	42865613          	srai	a2,a2,0x28
    8160:	d6c43c23          	sd	a2,-648(s0)
    8164:	00c4c663          	blt	s1,a2,8170 <.LBB69_660>
    8168:	f7f00613          	li	a2,-129
    816c:	d6c43c23          	sd	a2,-648(s0)

0000000000008170 <.LBB69_660>:
    8170:	00001637          	lui	a2,0x1
    8174:	40c40633          	sub	a2,s0,a2
    8178:	ef063603          	ld	a2,-272(a2) # ef0 <.LBB69_4+0x78>
    817c:	02160633          	mul	a2,a2,ra
    8180:	000016b7          	lui	a3,0x1
    8184:	40d406b3          	sub	a3,s0,a3
    8188:	eb86b683          	ld	a3,-328(a3) # eb8 <.LBB69_4+0x40>
    818c:	018686b3          	add	a3,a3,s8
    8190:	00d60633          	add	a2,a2,a3
    8194:	42865613          	srai	a2,a2,0x28
    8198:	d6c43423          	sd	a2,-664(s0)
    819c:	00c4c663          	blt	s1,a2,81a8 <.LBB69_662>
    81a0:	f7f00613          	li	a2,-129
    81a4:	d6c43423          	sd	a2,-664(s0)

00000000000081a8 <.LBB69_662>:
    81a8:	00001637          	lui	a2,0x1
    81ac:	40c40633          	sub	a2,s0,a2
    81b0:	f6063603          	ld	a2,-160(a2) # f60 <.LBB69_4+0xe8>
    81b4:	02160633          	mul	a2,a2,ra
    81b8:	000016b7          	lui	a3,0x1
    81bc:	40d406b3          	sub	a3,s0,a3
    81c0:	f386b683          	ld	a3,-200(a3) # f38 <.LBB69_4+0xc0>
    81c4:	018686b3          	add	a3,a3,s8
    81c8:	00d60633          	add	a2,a2,a3
    81cc:	42865613          	srai	a2,a2,0x28
    81d0:	d4c43823          	sd	a2,-688(s0)
    81d4:	00c4c663          	blt	s1,a2,81e0 <.LBB69_664>
    81d8:	f7f00613          	li	a2,-129
    81dc:	d4c43823          	sd	a2,-688(s0)

00000000000081e0 <.LBB69_664>:
    81e0:	00001637          	lui	a2,0x1
    81e4:	40c40633          	sub	a2,s0,a2
    81e8:	fd863603          	ld	a2,-40(a2) # fd8 <.LBB69_4+0x160>
    81ec:	02160633          	mul	a2,a2,ra
    81f0:	000016b7          	lui	a3,0x1
    81f4:	40d406b3          	sub	a3,s0,a3
    81f8:	fa86b683          	ld	a3,-88(a3) # fa8 <.LBB69_4+0x130>
    81fc:	018686b3          	add	a3,a3,s8
    8200:	00d60633          	add	a2,a2,a3
    8204:	42865613          	srai	a2,a2,0x28
    8208:	d4c43023          	sd	a2,-704(s0)
    820c:	00c4c663          	blt	s1,a2,8218 <.LBB69_666>
    8210:	f7f00613          	li	a2,-129
    8214:	d4c43023          	sd	a2,-704(s0)

0000000000008218 <.LBB69_666>:
    8218:	00001637          	lui	a2,0x1
    821c:	40c40633          	sub	a2,s0,a2
    8220:	04863603          	ld	a2,72(a2) # 1048 <.LBB69_4+0x1d0>
    8224:	02160633          	mul	a2,a2,ra
    8228:	000016b7          	lui	a3,0x1
    822c:	40d406b3          	sub	a3,s0,a3
    8230:	0206b683          	ld	a3,32(a3) # 1020 <.LBB69_4+0x1a8>
    8234:	018686b3          	add	a3,a3,s8
    8238:	00d60633          	add	a2,a2,a3
    823c:	42865613          	srai	a2,a2,0x28
    8240:	d2c43823          	sd	a2,-720(s0)
    8244:	00c4c663          	blt	s1,a2,8250 <.LBB69_668>
    8248:	f7f00613          	li	a2,-129
    824c:	d2c43823          	sd	a2,-720(s0)

0000000000008250 <.LBB69_668>:
    8250:	00001637          	lui	a2,0x1
    8254:	40c40633          	sub	a2,s0,a2
    8258:	0c063603          	ld	a2,192(a2) # 10c0 <.LBB69_4+0x248>
    825c:	02160633          	mul	a2,a2,ra
    8260:	000016b7          	lui	a3,0x1
    8264:	40d406b3          	sub	a3,s0,a3
    8268:	0906b683          	ld	a3,144(a3) # 1090 <.LBB69_4+0x218>
    826c:	018686b3          	add	a3,a3,s8
    8270:	00d60633          	add	a2,a2,a3
    8274:	42865613          	srai	a2,a2,0x28
    8278:	d2c43423          	sd	a2,-728(s0)
    827c:	00c4c663          	blt	s1,a2,8288 <.LBB69_670>
    8280:	f7f00613          	li	a2,-129
    8284:	d2c43423          	sd	a2,-728(s0)

0000000000008288 <.LBB69_670>:
    8288:	00001637          	lui	a2,0x1
    828c:	40c40633          	sub	a2,s0,a2
    8290:	13863603          	ld	a2,312(a2) # 1138 <.LBB69_4+0x2c0>
    8294:	02160633          	mul	a2,a2,ra
    8298:	000016b7          	lui	a3,0x1
    829c:	40d406b3          	sub	a3,s0,a3
    82a0:	1086b683          	ld	a3,264(a3) # 1108 <.LBB69_4+0x290>
    82a4:	018686b3          	add	a3,a3,s8
    82a8:	00d60633          	add	a2,a2,a3
    82ac:	42865613          	srai	a2,a2,0x28
    82b0:	d2c43023          	sd	a2,-736(s0)
    82b4:	00c4c663          	blt	s1,a2,82c0 <.LBB69_672>
    82b8:	f7f00613          	li	a2,-129
    82bc:	d2c43023          	sd	a2,-736(s0)

00000000000082c0 <.LBB69_672>:
    82c0:	00001637          	lui	a2,0x1
    82c4:	40c40633          	sub	a2,s0,a2
    82c8:	1b063603          	ld	a2,432(a2) # 11b0 <.LBB69_4+0x338>
    82cc:	02160633          	mul	a2,a2,ra
    82d0:	000016b7          	lui	a3,0x1
    82d4:	40d406b3          	sub	a3,s0,a3
    82d8:	1886b683          	ld	a3,392(a3) # 1188 <.LBB69_4+0x310>
    82dc:	018686b3          	add	a3,a3,s8
    82e0:	00d60633          	add	a2,a2,a3
    82e4:	42865613          	srai	a2,a2,0x28
    82e8:	d0c43c23          	sd	a2,-744(s0)
    82ec:	00c4c663          	blt	s1,a2,82f8 <.LBB69_674>
    82f0:	f7f00613          	li	a2,-129
    82f4:	d0c43c23          	sd	a2,-744(s0)

00000000000082f8 <.LBB69_674>:
    82f8:	00001637          	lui	a2,0x1
    82fc:	40c40633          	sub	a2,s0,a2
    8300:	22863603          	ld	a2,552(a2) # 1228 <.LBB69_4+0x3b0>
    8304:	02160633          	mul	a2,a2,ra
    8308:	000016b7          	lui	a3,0x1
    830c:	40d406b3          	sub	a3,s0,a3
    8310:	1f86b683          	ld	a3,504(a3) # 11f8 <.LBB69_4+0x380>
    8314:	018686b3          	add	a3,a3,s8
    8318:	00d60633          	add	a2,a2,a3
    831c:	42865613          	srai	a2,a2,0x28
    8320:	d0c43823          	sd	a2,-752(s0)
    8324:	00c4c663          	blt	s1,a2,8330 <.LBB69_676>
    8328:	f7f00613          	li	a2,-129
    832c:	d0c43823          	sd	a2,-752(s0)

0000000000008330 <.LBB69_676>:
    8330:	00001637          	lui	a2,0x1
    8334:	40c40633          	sub	a2,s0,a2
    8338:	2a063603          	ld	a2,672(a2) # 12a0 <.LBB69_4+0x428>
    833c:	02160633          	mul	a2,a2,ra
    8340:	000016b7          	lui	a3,0x1
    8344:	40d406b3          	sub	a3,s0,a3
    8348:	2706b683          	ld	a3,624(a3) # 1270 <.LBB69_4+0x3f8>
    834c:	018686b3          	add	a3,a3,s8
    8350:	00d60633          	add	a2,a2,a3
    8354:	42865613          	srai	a2,a2,0x28
    8358:	d0c43423          	sd	a2,-760(s0)
    835c:	00c4c663          	blt	s1,a2,8368 <.LBB69_678>
    8360:	f7f00613          	li	a2,-129
    8364:	d0c43423          	sd	a2,-760(s0)

0000000000008368 <.LBB69_678>:
    8368:	00001637          	lui	a2,0x1
    836c:	40c40633          	sub	a2,s0,a2
    8370:	30863603          	ld	a2,776(a2) # 1308 <.LBB69_4+0x490>
    8374:	02160633          	mul	a2,a2,ra
    8378:	000016b7          	lui	a3,0x1
    837c:	40d406b3          	sub	a3,s0,a3
    8380:	2e06b683          	ld	a3,736(a3) # 12e0 <.LBB69_4+0x468>
    8384:	018686b3          	add	a3,a3,s8
    8388:	00d60633          	add	a2,a2,a3
    838c:	42865613          	srai	a2,a2,0x28
    8390:	d0c43023          	sd	a2,-768(s0)
    8394:	00c4c663          	blt	s1,a2,83a0 <.LBB69_680>
    8398:	f7f00613          	li	a2,-129
    839c:	d0c43023          	sd	a2,-768(s0)

00000000000083a0 <.LBB69_680>:
    83a0:	00001637          	lui	a2,0x1
    83a4:	40c40633          	sub	a2,s0,a2
    83a8:	37063603          	ld	a2,880(a2) # 1370 <.LBB69_4+0x4f8>
    83ac:	02160633          	mul	a2,a2,ra
    83b0:	000016b7          	lui	a3,0x1
    83b4:	40d406b3          	sub	a3,s0,a3
    83b8:	3486b683          	ld	a3,840(a3) # 1348 <.LBB69_4+0x4d0>
    83bc:	018686b3          	add	a3,a3,s8
    83c0:	00d60633          	add	a2,a2,a3
    83c4:	42865613          	srai	a2,a2,0x28
    83c8:	cec43c23          	sd	a2,-776(s0)
    83cc:	00c4c663          	blt	s1,a2,83d8 <.LBB69_682>
    83d0:	f7f00613          	li	a2,-129
    83d4:	cec43c23          	sd	a2,-776(s0)

00000000000083d8 <.LBB69_682>:
    83d8:	00001637          	lui	a2,0x1
    83dc:	40c40633          	sub	a2,s0,a2
    83e0:	3d863603          	ld	a2,984(a2) # 13d8 <.LBB69_4+0x560>
    83e4:	02160633          	mul	a2,a2,ra
    83e8:	000016b7          	lui	a3,0x1
    83ec:	40d406b3          	sub	a3,s0,a3
    83f0:	3b06b683          	ld	a3,944(a3) # 13b0 <.LBB69_4+0x538>
    83f4:	018686b3          	add	a3,a3,s8
    83f8:	00d60633          	add	a2,a2,a3
    83fc:	42865613          	srai	a2,a2,0x28
    8400:	cec43823          	sd	a2,-784(s0)
    8404:	00c4c663          	blt	s1,a2,8410 <.LBB69_684>
    8408:	f7f00613          	li	a2,-129
    840c:	cec43823          	sd	a2,-784(s0)

0000000000008410 <.LBB69_684>:
    8410:	00001637          	lui	a2,0x1
    8414:	40c40633          	sub	a2,s0,a2
    8418:	43063603          	ld	a2,1072(a2) # 1430 <.LBB69_5+0x14>
    841c:	02160633          	mul	a2,a2,ra
    8420:	000016b7          	lui	a3,0x1
    8424:	40d406b3          	sub	a3,s0,a3
    8428:	4106b683          	ld	a3,1040(a3) # 1410 <.LBB69_4+0x598>
    842c:	018686b3          	add	a3,a3,s8
    8430:	00d60633          	add	a2,a2,a3
    8434:	42865613          	srai	a2,a2,0x28
    8438:	cec43423          	sd	a2,-792(s0)
    843c:	00c4c663          	blt	s1,a2,8448 <.LBB69_686>
    8440:	f7f00613          	li	a2,-129
    8444:	cec43423          	sd	a2,-792(s0)

0000000000008448 <.LBB69_686>:
    8448:	00001637          	lui	a2,0x1
    844c:	40c40633          	sub	a2,s0,a2
    8450:	48863603          	ld	a2,1160(a2) # 1488 <.LBB69_5+0x6c>
    8454:	02160633          	mul	a2,a2,ra
    8458:	000016b7          	lui	a3,0x1
    845c:	40d406b3          	sub	a3,s0,a3
    8460:	4606b683          	ld	a3,1120(a3) # 1460 <.LBB69_5+0x44>
    8464:	018686b3          	add	a3,a3,s8
    8468:	00d60633          	add	a2,a2,a3
    846c:	42865613          	srai	a2,a2,0x28
    8470:	cec43023          	sd	a2,-800(s0)
    8474:	00c4c663          	blt	s1,a2,8480 <.LBB69_688>
    8478:	f7f00613          	li	a2,-129
    847c:	cec43023          	sd	a2,-800(s0)

0000000000008480 <.LBB69_688>:
    8480:	00001637          	lui	a2,0x1
    8484:	40c40633          	sub	a2,s0,a2
    8488:	4d863603          	ld	a2,1240(a2) # 14d8 <.LBB69_5+0xbc>
    848c:	02160633          	mul	a2,a2,ra
    8490:	000016b7          	lui	a3,0x1
    8494:	40d406b3          	sub	a3,s0,a3
    8498:	4b06b683          	ld	a3,1200(a3) # 14b0 <.LBB69_5+0x94>
    849c:	018686b3          	add	a3,a3,s8
    84a0:	00d60633          	add	a2,a2,a3
    84a4:	42865613          	srai	a2,a2,0x28
    84a8:	ccc43c23          	sd	a2,-808(s0)
    84ac:	00c4c663          	blt	s1,a2,84b8 <.LBB69_690>
    84b0:	f7f00613          	li	a2,-129
    84b4:	ccc43c23          	sd	a2,-808(s0)

00000000000084b8 <.LBB69_690>:
    84b8:	00001637          	lui	a2,0x1
    84bc:	40c40633          	sub	a2,s0,a2
    84c0:	53863603          	ld	a2,1336(a2) # 1538 <.LBB69_5+0x11c>
    84c4:	02160633          	mul	a2,a2,ra
    84c8:	000016b7          	lui	a3,0x1
    84cc:	40d406b3          	sub	a3,s0,a3
    84d0:	5086b683          	ld	a3,1288(a3) # 1508 <.LBB69_5+0xec>
    84d4:	018686b3          	add	a3,a3,s8
    84d8:	00d60633          	add	a2,a2,a3
    84dc:	42865613          	srai	a2,a2,0x28
    84e0:	ccc43423          	sd	a2,-824(s0)
    84e4:	00c4c663          	blt	s1,a2,84f0 <.LBB69_692>
    84e8:	f7f00613          	li	a2,-129
    84ec:	ccc43423          	sd	a2,-824(s0)

00000000000084f0 <.LBB69_692>:
    84f0:	00001637          	lui	a2,0x1
    84f4:	40c40633          	sub	a2,s0,a2
    84f8:	58863603          	ld	a2,1416(a2) # 1588 <.LBB69_5+0x16c>
    84fc:	02160633          	mul	a2,a2,ra
    8500:	000016b7          	lui	a3,0x1
    8504:	40d406b3          	sub	a3,s0,a3
    8508:	5686b683          	ld	a3,1384(a3) # 1568 <.LBB69_5+0x14c>
    850c:	018686b3          	add	a3,a3,s8
    8510:	00d60633          	add	a2,a2,a3
    8514:	42865613          	srai	a2,a2,0x28
    8518:	cac43c23          	sd	a2,-840(s0)
    851c:	00c4c663          	blt	s1,a2,8528 <.LBB69_694>
    8520:	f7f00613          	li	a2,-129
    8524:	cac43c23          	sd	a2,-840(s0)

0000000000008528 <.LBB69_694>:
    8528:	00001637          	lui	a2,0x1
    852c:	40c40633          	sub	a2,s0,a2
    8530:	70063603          	ld	a2,1792(a2) # 1700 <.LBB69_5+0x2e4>
    8534:	02160633          	mul	a2,a2,ra
    8538:	000016b7          	lui	a3,0x1
    853c:	40d406b3          	sub	a3,s0,a3
    8540:	5c06b683          	ld	a3,1472(a3) # 15c0 <.LBB69_5+0x1a4>
    8544:	018686b3          	add	a3,a3,s8
    8548:	00d60633          	add	a2,a2,a3
    854c:	42865613          	srai	a2,a2,0x28
    8550:	cac43423          	sd	a2,-856(s0)
    8554:	00c4c663          	blt	s1,a2,8560 <.LBB69_696>
    8558:	f7f00613          	li	a2,-129
    855c:	cac43423          	sd	a2,-856(s0)

0000000000008560 <.LBB69_696>:
    8560:	84043603          	ld	a2,-1984(s0)
    8564:	02160633          	mul	a2,a2,ra
    8568:	000016b7          	lui	a3,0x1
    856c:	40d406b3          	sub	a3,s0,a3
    8570:	7c06b683          	ld	a3,1984(a3) # 17c0 <.LBB69_5+0x3a4>
    8574:	018686b3          	add	a3,a3,s8
    8578:	00d60633          	add	a2,a2,a3
    857c:	42865613          	srai	a2,a2,0x28
    8580:	c8c43c23          	sd	a2,-872(s0)
    8584:	00c4c663          	blt	s1,a2,8590 <.LBB69_698>
    8588:	f7f00613          	li	a2,-129
    858c:	c8c43c23          	sd	a2,-872(s0)

0000000000008590 <.LBB69_698>:
    8590:	8b043603          	ld	a2,-1872(s0)
    8594:	02160633          	mul	a2,a2,ra
    8598:	85043683          	ld	a3,-1968(s0)
    859c:	018686b3          	add	a3,a3,s8
    85a0:	00d60633          	add	a2,a2,a3
    85a4:	42865613          	srai	a2,a2,0x28
    85a8:	c8c43423          	sd	a2,-888(s0)
    85ac:	00c4c663          	blt	s1,a2,85b8 <.LBB69_700>
    85b0:	f7f00613          	li	a2,-129
    85b4:	c8c43423          	sd	a2,-888(s0)

00000000000085b8 <.LBB69_700>:
    85b8:	8a843603          	ld	a2,-1880(s0)
    85bc:	02160633          	mul	a2,a2,ra
    85c0:	85843683          	ld	a3,-1960(s0)
    85c4:	018686b3          	add	a3,a3,s8
    85c8:	00d60633          	add	a2,a2,a3
    85cc:	42865613          	srai	a2,a2,0x28
    85d0:	c6c43c23          	sd	a2,-904(s0)
    85d4:	00c4c663          	blt	s1,a2,85e0 <.LBB69_702>
    85d8:	f7f00613          	li	a2,-129
    85dc:	c6c43c23          	sd	a2,-904(s0)

00000000000085e0 <.LBB69_702>:
    85e0:	8a043603          	ld	a2,-1888(s0)
    85e4:	02160633          	mul	a2,a2,ra
    85e8:	86043683          	ld	a3,-1952(s0)
    85ec:	018686b3          	add	a3,a3,s8
    85f0:	00d60633          	add	a2,a2,a3
    85f4:	42865613          	srai	a2,a2,0x28
    85f8:	c6c43423          	sd	a2,-920(s0)
    85fc:	00c4c663          	blt	s1,a2,8608 <.LBB69_704>
    8600:	f7f00613          	li	a2,-129
    8604:	c6c43423          	sd	a2,-920(s0)

0000000000008608 <.LBB69_704>:
    8608:	89843603          	ld	a2,-1896(s0)
    860c:	02160633          	mul	a2,a2,ra
    8610:	86843683          	ld	a3,-1944(s0)
    8614:	018686b3          	add	a3,a3,s8
    8618:	00d60633          	add	a2,a2,a3
    861c:	42865613          	srai	a2,a2,0x28
    8620:	c4c43c23          	sd	a2,-936(s0)
    8624:	00c4c663          	blt	s1,a2,8630 <.LBB69_706>
    8628:	f7f00613          	li	a2,-129
    862c:	c4c43c23          	sd	a2,-936(s0)

0000000000008630 <.LBB69_706>:
    8630:	89043603          	ld	a2,-1904(s0)
    8634:	02160633          	mul	a2,a2,ra
    8638:	87843683          	ld	a3,-1928(s0)
    863c:	018686b3          	add	a3,a3,s8
    8640:	00d60633          	add	a2,a2,a3
    8644:	42865613          	srai	a2,a2,0x28
    8648:	c4c43423          	sd	a2,-952(s0)
    864c:	00c4c663          	blt	s1,a2,8658 <.LBB69_708>
    8650:	f7f00613          	li	a2,-129
    8654:	c4c43423          	sd	a2,-952(s0)

0000000000008658 <.LBB69_708>:
    8658:	88843603          	ld	a2,-1912(s0)
    865c:	02160633          	mul	a2,a2,ra
    8660:	88043683          	ld	a3,-1920(s0)
    8664:	018686b3          	add	a3,a3,s8
    8668:	00d60633          	add	a2,a2,a3
    866c:	42865613          	srai	a2,a2,0x28
    8670:	c2c43c23          	sd	a2,-968(s0)
    8674:	00c4c663          	blt	s1,a2,8680 <.LBB69_710>
    8678:	f7f00613          	li	a2,-129
    867c:	c2c43c23          	sd	a2,-968(s0)

0000000000008680 <.LBB69_710>:
    8680:	02150533          	mul	a0,a0,ra
    8684:	00001637          	lui	a2,0x1
    8688:	40c40633          	sub	a2,s0,a2
    868c:	b9063603          	ld	a2,-1136(a2) # b90 <.LBB69_3+0x96c>
    8690:	01860633          	add	a2,a2,s8
    8694:	00c50533          	add	a0,a0,a2
    8698:	42855513          	srai	a0,a0,0x28
    869c:	cca43823          	sd	a0,-816(s0)
    86a0:	00a4c663          	blt	s1,a0,86ac <.LBB69_712>
    86a4:	f7f00513          	li	a0,-129
    86a8:	cca43823          	sd	a0,-816(s0)

00000000000086ac <.LBB69_712>:
    86ac:	00001537          	lui	a0,0x1
    86b0:	40a40533          	sub	a0,s0,a0
    86b4:	bc053503          	ld	a0,-1088(a0) # bc0 <.LBB69_3+0x99c>
    86b8:	02150533          	mul	a0,a0,ra
    86bc:	00001637          	lui	a2,0x1
    86c0:	40c40633          	sub	a2,s0,a2
    86c4:	c3063603          	ld	a2,-976(a2) # c30 <.LBB69_3+0xa0c>
    86c8:	01860633          	add	a2,a2,s8
    86cc:	00c50533          	add	a0,a0,a2
    86d0:	42855513          	srai	a0,a0,0x28
    86d4:	cca43023          	sd	a0,-832(s0)
    86d8:	00a4c663          	blt	s1,a0,86e4 <.LBB69_714>
    86dc:	f7f00513          	li	a0,-129
    86e0:	cca43023          	sd	a0,-832(s0)

00000000000086e4 <.LBB69_714>:
    86e4:	00001537          	lui	a0,0x1
    86e8:	40a40533          	sub	a0,s0,a0
    86ec:	be853503          	ld	a0,-1048(a0) # be8 <.LBB69_3+0x9c4>
    86f0:	02150533          	mul	a0,a0,ra
    86f4:	00001637          	lui	a2,0x1
    86f8:	40c40633          	sub	a2,s0,a2
    86fc:	c8063603          	ld	a2,-896(a2) # c80 <.LBB69_3+0xa5c>
    8700:	01860633          	add	a2,a2,s8
    8704:	00c50533          	add	a0,a0,a2
    8708:	42855513          	srai	a0,a0,0x28
    870c:	caa43823          	sd	a0,-848(s0)
    8710:	00a4c663          	blt	s1,a0,871c <.LBB69_716>
    8714:	f7f00513          	li	a0,-129
    8718:	caa43823          	sd	a0,-848(s0)

000000000000871c <.LBB69_716>:
    871c:	00001537          	lui	a0,0x1
    8720:	40a40533          	sub	a0,s0,a0
    8724:	c0053503          	ld	a0,-1024(a0) # c00 <.LBB69_3+0x9dc>
    8728:	02150533          	mul	a0,a0,ra
    872c:	00001637          	lui	a2,0x1
    8730:	40c40633          	sub	a2,s0,a2
    8734:	cd063603          	ld	a2,-816(a2) # cd0 <.LBB69_3+0xaac>
    8738:	01860633          	add	a2,a2,s8
    873c:	00c50533          	add	a0,a0,a2
    8740:	42855513          	srai	a0,a0,0x28
    8744:	caa43023          	sd	a0,-864(s0)
    8748:	00a4c663          	blt	s1,a0,8754 <.LBB69_718>
    874c:	f7f00513          	li	a0,-129
    8750:	caa43023          	sd	a0,-864(s0)

0000000000008754 <.LBB69_718>:
    8754:	00001537          	lui	a0,0x1
    8758:	40a40533          	sub	a0,s0,a0
    875c:	d7053503          	ld	a0,-656(a0) # d70 <.LBB69_3+0xb4c>
    8760:	02150533          	mul	a0,a0,ra
    8764:	00001637          	lui	a2,0x1
    8768:	40c40633          	sub	a2,s0,a2
    876c:	d4063603          	ld	a2,-704(a2) # d40 <.LBB69_3+0xb1c>
    8770:	01860633          	add	a2,a2,s8
    8774:	00c50533          	add	a0,a0,a2
    8778:	42855513          	srai	a0,a0,0x28
    877c:	c8a43823          	sd	a0,-880(s0)
    8780:	00a4c663          	blt	s1,a0,878c <.LBB69_720>
    8784:	f7f00513          	li	a0,-129
    8788:	c8a43823          	sd	a0,-880(s0)

000000000000878c <.LBB69_720>:
    878c:	00001537          	lui	a0,0x1
    8790:	40a40533          	sub	a0,s0,a0
    8794:	df053503          	ld	a0,-528(a0) # df0 <.LBB69_3+0xbcc>
    8798:	02150533          	mul	a0,a0,ra
    879c:	00001637          	lui	a2,0x1
    87a0:	40c40633          	sub	a2,s0,a2
    87a4:	db863603          	ld	a2,-584(a2) # db8 <.LBB69_3+0xb94>
    87a8:	01860633          	add	a2,a2,s8
    87ac:	00c50533          	add	a0,a0,a2
    87b0:	42855513          	srai	a0,a0,0x28
    87b4:	c8a43023          	sd	a0,-896(s0)
    87b8:	00a4c663          	blt	s1,a0,87c4 <.LBB69_722>
    87bc:	f7f00513          	li	a0,-129
    87c0:	c8a43023          	sd	a0,-896(s0)

00000000000087c4 <.LBB69_722>:
    87c4:	00001537          	lui	a0,0x1
    87c8:	40a40533          	sub	a0,s0,a0
    87cc:	e6853503          	ld	a0,-408(a0) # e68 <.LBB69_3+0xc44>
    87d0:	02150533          	mul	a0,a0,ra
    87d4:	00001637          	lui	a2,0x1
    87d8:	40c40633          	sub	a2,s0,a2
    87dc:	e3863603          	ld	a2,-456(a2) # e38 <.LBB69_3+0xc14>
    87e0:	01860633          	add	a2,a2,s8
    87e4:	00c50533          	add	a0,a0,a2
    87e8:	42855513          	srai	a0,a0,0x28
    87ec:	c6a43823          	sd	a0,-912(s0)
    87f0:	00a4c663          	blt	s1,a0,87fc <.LBB69_724>
    87f4:	f7f00513          	li	a0,-129
    87f8:	c6a43823          	sd	a0,-912(s0)

00000000000087fc <.LBB69_724>:
    87fc:	00001537          	lui	a0,0x1
    8800:	40a40533          	sub	a0,s0,a0
    8804:	ee853503          	ld	a0,-280(a0) # ee8 <.LBB69_4+0x70>
    8808:	02150533          	mul	a0,a0,ra
    880c:	00001637          	lui	a2,0x1
    8810:	40c40633          	sub	a2,s0,a2
    8814:	eb063603          	ld	a2,-336(a2) # eb0 <.LBB69_4+0x38>
    8818:	01860633          	add	a2,a2,s8
    881c:	00c50533          	add	a0,a0,a2
    8820:	42855513          	srai	a0,a0,0x28
    8824:	c6a43023          	sd	a0,-928(s0)
    8828:	00a4c663          	blt	s1,a0,8834 <.LBB69_726>
    882c:	f7f00513          	li	a0,-129
    8830:	c6a43023          	sd	a0,-928(s0)

0000000000008834 <.LBB69_726>:
    8834:	00001537          	lui	a0,0x1
    8838:	40a40533          	sub	a0,s0,a0
    883c:	f5853503          	ld	a0,-168(a0) # f58 <.LBB69_4+0xe0>
    8840:	02150533          	mul	a0,a0,ra
    8844:	00001637          	lui	a2,0x1
    8848:	40c40633          	sub	a2,s0,a2
    884c:	f3063603          	ld	a2,-208(a2) # f30 <.LBB69_4+0xb8>
    8850:	01860633          	add	a2,a2,s8
    8854:	00c50533          	add	a0,a0,a2
    8858:	42855513          	srai	a0,a0,0x28
    885c:	c4a43823          	sd	a0,-944(s0)
    8860:	00a4c663          	blt	s1,a0,886c <.LBB69_728>
    8864:	f7f00513          	li	a0,-129
    8868:	c4a43823          	sd	a0,-944(s0)

000000000000886c <.LBB69_728>:
    886c:	00001537          	lui	a0,0x1
    8870:	40a40533          	sub	a0,s0,a0
    8874:	fd053503          	ld	a0,-48(a0) # fd0 <.LBB69_4+0x158>
    8878:	02150533          	mul	a0,a0,ra
    887c:	00001637          	lui	a2,0x1
    8880:	40c40633          	sub	a2,s0,a2
    8884:	fa063603          	ld	a2,-96(a2) # fa0 <.LBB69_4+0x128>
    8888:	01860633          	add	a2,a2,s8
    888c:	00c50533          	add	a0,a0,a2
    8890:	42855513          	srai	a0,a0,0x28
    8894:	c4a43023          	sd	a0,-960(s0)
    8898:	00a4c663          	blt	s1,a0,88a4 <.LBB69_730>
    889c:	f7f00513          	li	a0,-129
    88a0:	c4a43023          	sd	a0,-960(s0)

00000000000088a4 <.LBB69_730>:
    88a4:	00001537          	lui	a0,0x1
    88a8:	40a40533          	sub	a0,s0,a0
    88ac:	04053503          	ld	a0,64(a0) # 1040 <.LBB69_4+0x1c8>
    88b0:	02150533          	mul	a0,a0,ra
    88b4:	00001637          	lui	a2,0x1
    88b8:	40c40633          	sub	a2,s0,a2
    88bc:	01863603          	ld	a2,24(a2) # 1018 <.LBB69_4+0x1a0>
    88c0:	01860633          	add	a2,a2,s8
    88c4:	00c50533          	add	a0,a0,a2
    88c8:	42855513          	srai	a0,a0,0x28
    88cc:	c2a43823          	sd	a0,-976(s0)
    88d0:	00a4c663          	blt	s1,a0,88dc <.LBB69_732>
    88d4:	f7f00513          	li	a0,-129
    88d8:	c2a43823          	sd	a0,-976(s0)

00000000000088dc <.LBB69_732>:
    88dc:	00001537          	lui	a0,0x1
    88e0:	40a40533          	sub	a0,s0,a0
    88e4:	0b853503          	ld	a0,184(a0) # 10b8 <.LBB69_4+0x240>
    88e8:	02150533          	mul	a0,a0,ra
    88ec:	00001637          	lui	a2,0x1
    88f0:	40c40633          	sub	a2,s0,a2
    88f4:	08863603          	ld	a2,136(a2) # 1088 <.LBB69_4+0x210>
    88f8:	01860633          	add	a2,a2,s8
    88fc:	00c50533          	add	a0,a0,a2
    8900:	42855513          	srai	a0,a0,0x28
    8904:	c2a43423          	sd	a0,-984(s0)
    8908:	00a4c663          	blt	s1,a0,8914 <.LBB69_734>
    890c:	f7f00513          	li	a0,-129
    8910:	c2a43423          	sd	a0,-984(s0)

0000000000008914 <.LBB69_734>:
    8914:	00001537          	lui	a0,0x1
    8918:	40a40533          	sub	a0,s0,a0
    891c:	13053503          	ld	a0,304(a0) # 1130 <.LBB69_4+0x2b8>
    8920:	02150533          	mul	a0,a0,ra
    8924:	00001637          	lui	a2,0x1
    8928:	40c40633          	sub	a2,s0,a2
    892c:	10063603          	ld	a2,256(a2) # 1100 <.LBB69_4+0x288>
    8930:	01860633          	add	a2,a2,s8
    8934:	00c50533          	add	a0,a0,a2
    8938:	42855513          	srai	a0,a0,0x28
    893c:	c2a43023          	sd	a0,-992(s0)
    8940:	00a4c663          	blt	s1,a0,894c <.LBB69_736>
    8944:	f7f00513          	li	a0,-129
    8948:	c2a43023          	sd	a0,-992(s0)

000000000000894c <.LBB69_736>:
    894c:	00001537          	lui	a0,0x1
    8950:	40a40533          	sub	a0,s0,a0
    8954:	1a853503          	ld	a0,424(a0) # 11a8 <.LBB69_4+0x330>
    8958:	02150533          	mul	a0,a0,ra
    895c:	00001637          	lui	a2,0x1
    8960:	40c40633          	sub	a2,s0,a2
    8964:	18063603          	ld	a2,384(a2) # 1180 <.LBB69_4+0x308>
    8968:	01860633          	add	a2,a2,s8
    896c:	00c50533          	add	a0,a0,a2
    8970:	42855513          	srai	a0,a0,0x28
    8974:	c0a43c23          	sd	a0,-1000(s0)
    8978:	00a4c663          	blt	s1,a0,8984 <.LBB69_738>
    897c:	f7f00513          	li	a0,-129
    8980:	c0a43c23          	sd	a0,-1000(s0)

0000000000008984 <.LBB69_738>:
    8984:	00001537          	lui	a0,0x1
    8988:	40a40533          	sub	a0,s0,a0
    898c:	22053503          	ld	a0,544(a0) # 1220 <.LBB69_4+0x3a8>
    8990:	02150533          	mul	a0,a0,ra
    8994:	00001637          	lui	a2,0x1
    8998:	40c40633          	sub	a2,s0,a2
    899c:	1f063603          	ld	a2,496(a2) # 11f0 <.LBB69_4+0x378>
    89a0:	01860633          	add	a2,a2,s8
    89a4:	00c50533          	add	a0,a0,a2
    89a8:	42855513          	srai	a0,a0,0x28
    89ac:	c0a43823          	sd	a0,-1008(s0)
    89b0:	00a4c663          	blt	s1,a0,89bc <.LBB69_740>
    89b4:	f7f00513          	li	a0,-129
    89b8:	c0a43823          	sd	a0,-1008(s0)

00000000000089bc <.LBB69_740>:
    89bc:	00001537          	lui	a0,0x1
    89c0:	40a40533          	sub	a0,s0,a0
    89c4:	29853503          	ld	a0,664(a0) # 1298 <.LBB69_4+0x420>
    89c8:	02150533          	mul	a0,a0,ra
    89cc:	00001637          	lui	a2,0x1
    89d0:	40c40633          	sub	a2,s0,a2
    89d4:	26863603          	ld	a2,616(a2) # 1268 <.LBB69_4+0x3f0>
    89d8:	01860633          	add	a2,a2,s8
    89dc:	00c50533          	add	a0,a0,a2
    89e0:	42855513          	srai	a0,a0,0x28
    89e4:	c0a43423          	sd	a0,-1016(s0)
    89e8:	00a4c663          	blt	s1,a0,89f4 <.LBB69_742>
    89ec:	f7f00513          	li	a0,-129
    89f0:	c0a43423          	sd	a0,-1016(s0)

00000000000089f4 <.LBB69_742>:
    89f4:	a0043503          	ld	a0,-1536(s0)
    89f8:	02150533          	mul	a0,a0,ra
    89fc:	00001637          	lui	a2,0x1
    8a00:	40c40633          	sub	a2,s0,a2
    8a04:	2d863603          	ld	a2,728(a2) # 12d8 <.LBB69_4+0x460>
    8a08:	01860633          	add	a2,a2,s8
    8a0c:	00c50533          	add	a0,a0,a2
    8a10:	42855513          	srai	a0,a0,0x28
    8a14:	c0a43023          	sd	a0,-1024(s0)
    8a18:	00a4c663          	blt	s1,a0,8a24 <.LBB69_744>
    8a1c:	f7f00513          	li	a0,-129
    8a20:	c0a43023          	sd	a0,-1024(s0)

0000000000008a24 <.LBB69_744>:
    8a24:	9f843503          	ld	a0,-1544(s0)
    8a28:	02150533          	mul	a0,a0,ra
    8a2c:	00001637          	lui	a2,0x1
    8a30:	40c40633          	sub	a2,s0,a2
    8a34:	34063603          	ld	a2,832(a2) # 1340 <.LBB69_4+0x4c8>
    8a38:	01860633          	add	a2,a2,s8
    8a3c:	00c50533          	add	a0,a0,a2
    8a40:	42855513          	srai	a0,a0,0x28
    8a44:	bea43c23          	sd	a0,-1032(s0)
    8a48:	00a4c663          	blt	s1,a0,8a54 <.LBB69_746>
    8a4c:	f7f00513          	li	a0,-129
    8a50:	bea43c23          	sd	a0,-1032(s0)

0000000000008a54 <.LBB69_746>:
    8a54:	9f043503          	ld	a0,-1552(s0)
    8a58:	02150533          	mul	a0,a0,ra
    8a5c:	00001637          	lui	a2,0x1
    8a60:	40c40633          	sub	a2,s0,a2
    8a64:	3a863603          	ld	a2,936(a2) # 13a8 <.LBB69_4+0x530>
    8a68:	01860633          	add	a2,a2,s8
    8a6c:	00c50533          	add	a0,a0,a2
    8a70:	42855513          	srai	a0,a0,0x28
    8a74:	bea43823          	sd	a0,-1040(s0)
    8a78:	00a4c663          	blt	s1,a0,8a84 <.LBB69_748>
    8a7c:	f7f00513          	li	a0,-129
    8a80:	bea43823          	sd	a0,-1040(s0)

0000000000008a84 <.LBB69_748>:
    8a84:	9e843503          	ld	a0,-1560(s0)
    8a88:	02150533          	mul	a0,a0,ra
    8a8c:	00001637          	lui	a2,0x1
    8a90:	40c40633          	sub	a2,s0,a2
    8a94:	40863603          	ld	a2,1032(a2) # 1408 <.LBB69_4+0x590>
    8a98:	01860633          	add	a2,a2,s8
    8a9c:	00c50533          	add	a0,a0,a2
    8aa0:	42855513          	srai	a0,a0,0x28
    8aa4:	bea43423          	sd	a0,-1048(s0)
    8aa8:	00a4c663          	blt	s1,a0,8ab4 <.LBB69_750>
    8aac:	f7f00513          	li	a0,-129
    8ab0:	bea43423          	sd	a0,-1048(s0)

0000000000008ab4 <.LBB69_750>:
    8ab4:	9e043503          	ld	a0,-1568(s0)
    8ab8:	02150533          	mul	a0,a0,ra
    8abc:	00001637          	lui	a2,0x1
    8ac0:	40c40633          	sub	a2,s0,a2
    8ac4:	45863603          	ld	a2,1112(a2) # 1458 <.LBB69_5+0x3c>
    8ac8:	01860633          	add	a2,a2,s8
    8acc:	00c50533          	add	a0,a0,a2
    8ad0:	42855513          	srai	a0,a0,0x28
    8ad4:	bea43023          	sd	a0,-1056(s0)
    8ad8:	00a4c663          	blt	s1,a0,8ae4 <.LBB69_752>
    8adc:	f7f00513          	li	a0,-129
    8ae0:	bea43023          	sd	a0,-1056(s0)

0000000000008ae4 <.LBB69_752>:
    8ae4:	9d843503          	ld	a0,-1576(s0)
    8ae8:	02150533          	mul	a0,a0,ra
    8aec:	00001637          	lui	a2,0x1
    8af0:	40c40633          	sub	a2,s0,a2
    8af4:	4a863603          	ld	a2,1192(a2) # 14a8 <.LBB69_5+0x8c>
    8af8:	01860633          	add	a2,a2,s8
    8afc:	00c50533          	add	a0,a0,a2
    8b00:	42855513          	srai	a0,a0,0x28
    8b04:	bca43c23          	sd	a0,-1064(s0)
    8b08:	00a4c663          	blt	s1,a0,8b14 <.LBB69_754>
    8b0c:	f7f00513          	li	a0,-129
    8b10:	bca43c23          	sd	a0,-1064(s0)

0000000000008b14 <.LBB69_754>:
    8b14:	00001537          	lui	a0,0x1
    8b18:	40a40533          	sub	a0,s0,a0
    8b1c:	53053503          	ld	a0,1328(a0) # 1530 <.LBB69_5+0x114>
    8b20:	02150533          	mul	a0,a0,ra
    8b24:	00001637          	lui	a2,0x1
    8b28:	40c40633          	sub	a2,s0,a2
    8b2c:	50063603          	ld	a2,1280(a2) # 1500 <.LBB69_5+0xe4>
    8b30:	01860633          	add	a2,a2,s8
    8b34:	00c50533          	add	a0,a0,a2
    8b38:	42855513          	srai	a0,a0,0x28
    8b3c:	bca43423          	sd	a0,-1080(s0)
    8b40:	00a4c663          	blt	s1,a0,8b4c <.LBB69_756>
    8b44:	f7f00513          	li	a0,-129
    8b48:	bca43423          	sd	a0,-1080(s0)

0000000000008b4c <.LBB69_756>:
    8b4c:	9c843503          	ld	a0,-1592(s0)
    8b50:	02150533          	mul	a0,a0,ra
    8b54:	00001637          	lui	a2,0x1
    8b58:	40c40633          	sub	a2,s0,a2
    8b5c:	56063603          	ld	a2,1376(a2) # 1560 <.LBB69_5+0x144>
    8b60:	01860633          	add	a2,a2,s8
    8b64:	00c50533          	add	a0,a0,a2
    8b68:	42855513          	srai	a0,a0,0x28
    8b6c:	baa43c23          	sd	a0,-1096(s0)
    8b70:	00a4c663          	blt	s1,a0,8b7c <.LBB69_758>
    8b74:	f7f00513          	li	a0,-129
    8b78:	baa43c23          	sd	a0,-1096(s0)

0000000000008b7c <.LBB69_758>:
    8b7c:	00001537          	lui	a0,0x1
    8b80:	40a40533          	sub	a0,s0,a0
    8b84:	6f853503          	ld	a0,1784(a0) # 16f8 <.LBB69_5+0x2dc>
    8b88:	02150533          	mul	a0,a0,ra
    8b8c:	00001637          	lui	a2,0x1
    8b90:	40c40633          	sub	a2,s0,a2
    8b94:	5b863603          	ld	a2,1464(a2) # 15b8 <.LBB69_5+0x19c>
    8b98:	01860633          	add	a2,a2,s8
    8b9c:	00c50533          	add	a0,a0,a2
    8ba0:	42855513          	srai	a0,a0,0x28
    8ba4:	baa43423          	sd	a0,-1112(s0)
    8ba8:	00a4c663          	blt	s1,a0,8bb4 <.LBB69_760>
    8bac:	f7f00513          	li	a0,-129
    8bb0:	baa43423          	sd	a0,-1112(s0)

0000000000008bb4 <.LBB69_760>:
    8bb4:	00001537          	lui	a0,0x1
    8bb8:	40a40533          	sub	a0,s0,a0
    8bbc:	7e053503          	ld	a0,2016(a0) # 17e0 <.LBB69_5+0x3c4>
    8bc0:	02150533          	mul	a0,a0,ra
    8bc4:	00001637          	lui	a2,0x1
    8bc8:	40c40633          	sub	a2,s0,a2
    8bcc:	74863603          	ld	a2,1864(a2) # 1748 <.LBB69_5+0x32c>
    8bd0:	01860633          	add	a2,a2,s8
    8bd4:	00c50533          	add	a0,a0,a2
    8bd8:	42855513          	srai	a0,a0,0x28
    8bdc:	b8a43c23          	sd	a0,-1128(s0)
    8be0:	00a4c663          	blt	s1,a0,8bec <.LBB69_762>
    8be4:	f7f00513          	li	a0,-129
    8be8:	b8a43c23          	sd	a0,-1128(s0)

0000000000008bec <.LBB69_762>:
    8bec:	8e043503          	ld	a0,-1824(s0)
    8bf0:	02150533          	mul	a0,a0,ra
    8bf4:	8c843603          	ld	a2,-1848(s0)
    8bf8:	01860633          	add	a2,a2,s8
    8bfc:	00c50533          	add	a0,a0,a2
    8c00:	42855513          	srai	a0,a0,0x28
    8c04:	b8a43423          	sd	a0,-1144(s0)
    8c08:	00a4c663          	blt	s1,a0,8c14 <.LBB69_764>
    8c0c:	f7f00513          	li	a0,-129
    8c10:	b8a43423          	sd	a0,-1144(s0)

0000000000008c14 <.LBB69_764>:
    8c14:	93843503          	ld	a0,-1736(s0)
    8c18:	02150533          	mul	a0,a0,ra
    8c1c:	91843603          	ld	a2,-1768(s0)
    8c20:	01860633          	add	a2,a2,s8
    8c24:	00c50533          	add	a0,a0,a2
    8c28:	42855513          	srai	a0,a0,0x28
    8c2c:	b6a43c23          	sd	a0,-1160(s0)
    8c30:	00a4c663          	blt	s1,a0,8c3c <.LBB69_766>
    8c34:	f7f00513          	li	a0,-129
    8c38:	b6a43c23          	sd	a0,-1160(s0)

0000000000008c3c <.LBB69_766>:
    8c3c:	97043503          	ld	a0,-1680(s0)
    8c40:	02150533          	mul	a0,a0,ra
    8c44:	95843603          	ld	a2,-1704(s0)
    8c48:	01860633          	add	a2,a2,s8
    8c4c:	00c50533          	add	a0,a0,a2
    8c50:	42855513          	srai	a0,a0,0x28
    8c54:	b6a43423          	sd	a0,-1176(s0)
    8c58:	00a4c663          	blt	s1,a0,8c64 <.LBB69_768>
    8c5c:	f7f00513          	li	a0,-129
    8c60:	b6a43423          	sd	a0,-1176(s0)

0000000000008c64 <.LBB69_768>:
    8c64:	99843503          	ld	a0,-1640(s0)
    8c68:	02150533          	mul	a0,a0,ra
    8c6c:	97843603          	ld	a2,-1672(s0)
    8c70:	01860633          	add	a2,a2,s8
    8c74:	00c50533          	add	a0,a0,a2
    8c78:	42855513          	srai	a0,a0,0x28
    8c7c:	b4a43c23          	sd	a0,-1192(s0)
    8c80:	00a4c663          	blt	s1,a0,8c8c <.LBB69_770>
    8c84:	f7f00513          	li	a0,-129
    8c88:	b4a43c23          	sd	a0,-1192(s0)

0000000000008c8c <.LBB69_770>:
    8c8c:	99043503          	ld	a0,-1648(s0)
    8c90:	02150533          	mul	a0,a0,ra
    8c94:	98043603          	ld	a2,-1664(s0)
    8c98:	01860633          	add	a2,a2,s8
    8c9c:	00c50533          	add	a0,a0,a2
    8ca0:	42855513          	srai	a0,a0,0x28
    8ca4:	b4a43423          	sd	a0,-1208(s0)
    8ca8:	00a4c663          	blt	s1,a0,8cb4 <.LBB69_772>
    8cac:	f7f00513          	li	a0,-129
    8cb0:	b4a43423          	sd	a0,-1208(s0)

0000000000008cb4 <.LBB69_772>:
    8cb4:	98843503          	ld	a0,-1656(s0)
    8cb8:	02150533          	mul	a0,a0,ra
    8cbc:	a7843603          	ld	a2,-1416(s0)
    8cc0:	01860633          	add	a2,a2,s8
    8cc4:	00c50533          	add	a0,a0,a2
    8cc8:	42855513          	srai	a0,a0,0x28
    8ccc:	b2a43c23          	sd	a0,-1224(s0)
    8cd0:	00a4c663          	blt	s1,a0,8cdc <.LBB69_774>
    8cd4:	f7f00513          	li	a0,-129
    8cd8:	b2a43c23          	sd	a0,-1224(s0)

0000000000008cdc <.LBB69_774>:
    8cdc:	02158533          	mul	a0,a1,ra
    8ce0:	b8043603          	ld	a2,-1152(s0)
    8ce4:	01860633          	add	a2,a2,s8
    8ce8:	00c50533          	add	a0,a0,a2
    8cec:	42855513          	srai	a0,a0,0x28
    8cf0:	bca43823          	sd	a0,-1072(s0)
    8cf4:	00a4c663          	blt	s1,a0,8d00 <.LBB69_776>
    8cf8:	f7f00513          	li	a0,-129
    8cfc:	bca43823          	sd	a0,-1072(s0)

0000000000008d00 <.LBB69_776>:
    8d00:	00001537          	lui	a0,0x1
    8d04:	40a40533          	sub	a0,s0,a0
    8d08:	bc853503          	ld	a0,-1080(a0) # bc8 <.LBB69_3+0x9a4>
    8d0c:	02150533          	mul	a0,a0,ra
    8d10:	000015b7          	lui	a1,0x1
    8d14:	40b405b3          	sub	a1,s0,a1
    8d18:	c285b583          	ld	a1,-984(a1) # c28 <.LBB69_3+0xa04>
    8d1c:	018585b3          	add	a1,a1,s8
    8d20:	00b50533          	add	a0,a0,a1
    8d24:	42855513          	srai	a0,a0,0x28
    8d28:	bca43023          	sd	a0,-1088(s0)
    8d2c:	a7043603          	ld	a2,-1424(s0)
    8d30:	00a4c663          	blt	s1,a0,8d3c <.LBB69_778>
    8d34:	f7f00513          	li	a0,-129
    8d38:	bca43023          	sd	a0,-1088(s0)

0000000000008d3c <.LBB69_778>:
    8d3c:	00001537          	lui	a0,0x1
    8d40:	40a40533          	sub	a0,s0,a0
    8d44:	bd053503          	ld	a0,-1072(a0) # bd0 <.LBB69_3+0x9ac>
    8d48:	02150533          	mul	a0,a0,ra
    8d4c:	b7043583          	ld	a1,-1168(s0)
    8d50:	018585b3          	add	a1,a1,s8
    8d54:	00b50533          	add	a0,a0,a1
    8d58:	42855513          	srai	a0,a0,0x28
    8d5c:	baa43823          	sd	a0,-1104(s0)
    8d60:	00a4c663          	blt	s1,a0,8d6c <.LBB69_780>
    8d64:	f7f00513          	li	a0,-129
    8d68:	baa43823          	sd	a0,-1104(s0)

0000000000008d6c <.LBB69_780>:
    8d6c:	00001537          	lui	a0,0x1
    8d70:	40a40533          	sub	a0,s0,a0
    8d74:	cf853503          	ld	a0,-776(a0) # cf8 <.LBB69_3+0xad4>
    8d78:	02150533          	mul	a0,a0,ra
    8d7c:	000015b7          	lui	a1,0x1
    8d80:	40b405b3          	sub	a1,s0,a1
    8d84:	cc85b583          	ld	a1,-824(a1) # cc8 <.LBB69_3+0xaa4>
    8d88:	018585b3          	add	a1,a1,s8
    8d8c:	00b50533          	add	a0,a0,a1
    8d90:	42855513          	srai	a0,a0,0x28
    8d94:	baa43023          	sd	a0,-1120(s0)
    8d98:	00a4c663          	blt	s1,a0,8da4 <.LBB69_782>
    8d9c:	f7f00513          	li	a0,-129
    8da0:	baa43023          	sd	a0,-1120(s0)

0000000000008da4 <.LBB69_782>:
    8da4:	b6043503          	ld	a0,-1184(s0)
    8da8:	02150533          	mul	a0,a0,ra
    8dac:	000015b7          	lui	a1,0x1
    8db0:	40b405b3          	sub	a1,s0,a1
    8db4:	d385b583          	ld	a1,-712(a1) # d38 <.LBB69_3+0xb14>
    8db8:	018585b3          	add	a1,a1,s8
    8dbc:	00b50533          	add	a0,a0,a1
    8dc0:	42855513          	srai	a0,a0,0x28
    8dc4:	b8a43823          	sd	a0,-1136(s0)
    8dc8:	00a4c663          	blt	s1,a0,8dd4 <.LBB69_784>
    8dcc:	f7f00513          	li	a0,-129
    8dd0:	b8a43823          	sd	a0,-1136(s0)

0000000000008dd4 <.LBB69_784>:
    8dd4:	00001537          	lui	a0,0x1
    8dd8:	40a40533          	sub	a0,s0,a0
    8ddc:	de853503          	ld	a0,-536(a0) # de8 <.LBB69_3+0xbc4>
    8de0:	02150533          	mul	a0,a0,ra
    8de4:	000015b7          	lui	a1,0x1
    8de8:	40b405b3          	sub	a1,s0,a1
    8dec:	db05b583          	ld	a1,-592(a1) # db0 <.LBB69_3+0xb8c>
    8df0:	018585b3          	add	a1,a1,s8
    8df4:	00b50533          	add	a0,a0,a1
    8df8:	42855513          	srai	a0,a0,0x28
    8dfc:	b8a43023          	sd	a0,-1152(s0)
    8e00:	00a4c663          	blt	s1,a0,8e0c <.LBB69_786>
    8e04:	f7f00513          	li	a0,-129
    8e08:	b8a43023          	sd	a0,-1152(s0)

0000000000008e0c <.LBB69_786>:
    8e0c:	b5043503          	ld	a0,-1200(s0)
    8e10:	02150533          	mul	a0,a0,ra
    8e14:	000015b7          	lui	a1,0x1
    8e18:	40b405b3          	sub	a1,s0,a1
    8e1c:	e305b583          	ld	a1,-464(a1) # e30 <.LBB69_3+0xc0c>
    8e20:	018585b3          	add	a1,a1,s8
    8e24:	00b50533          	add	a0,a0,a1
    8e28:	42855513          	srai	a0,a0,0x28
    8e2c:	b6a43823          	sd	a0,-1168(s0)
    8e30:	00a4c663          	blt	s1,a0,8e3c <.LBB69_788>
    8e34:	f7f00513          	li	a0,-129
    8e38:	b6a43823          	sd	a0,-1168(s0)

0000000000008e3c <.LBB69_788>:
    8e3c:	00001537          	lui	a0,0x1
    8e40:	40a40533          	sub	a0,s0,a0
    8e44:	ee053503          	ld	a0,-288(a0) # ee0 <.LBB69_4+0x68>
    8e48:	02150533          	mul	a0,a0,ra
    8e4c:	000015b7          	lui	a1,0x1
    8e50:	40b405b3          	sub	a1,s0,a1
    8e54:	ea85b583          	ld	a1,-344(a1) # ea8 <.LBB69_4+0x30>
    8e58:	018585b3          	add	a1,a1,s8
    8e5c:	00b50533          	add	a0,a0,a1
    8e60:	42855513          	srai	a0,a0,0x28
    8e64:	b6a43023          	sd	a0,-1184(s0)
    8e68:	00a4c663          	blt	s1,a0,8e74 <.LBB69_790>
    8e6c:	f7f00513          	li	a0,-129
    8e70:	b6a43023          	sd	a0,-1184(s0)

0000000000008e74 <.LBB69_790>:
    8e74:	b4043503          	ld	a0,-1216(s0)
    8e78:	02150533          	mul	a0,a0,ra
    8e7c:	000015b7          	lui	a1,0x1
    8e80:	40b405b3          	sub	a1,s0,a1
    8e84:	f285b583          	ld	a1,-216(a1) # f28 <.LBB69_4+0xb0>
    8e88:	018585b3          	add	a1,a1,s8
    8e8c:	00b50533          	add	a0,a0,a1
    8e90:	42855513          	srai	a0,a0,0x28
    8e94:	b4a43823          	sd	a0,-1200(s0)
    8e98:	00a4c663          	blt	s1,a0,8ea4 <.LBB69_792>
    8e9c:	f7f00513          	li	a0,-129
    8ea0:	b4a43823          	sd	a0,-1200(s0)

0000000000008ea4 <.LBB69_792>:
    8ea4:	00001537          	lui	a0,0x1
    8ea8:	40a40533          	sub	a0,s0,a0
    8eac:	fc853503          	ld	a0,-56(a0) # fc8 <.LBB69_4+0x150>
    8eb0:	02150533          	mul	a0,a0,ra
    8eb4:	000015b7          	lui	a1,0x1
    8eb8:	40b405b3          	sub	a1,s0,a1
    8ebc:	f985b583          	ld	a1,-104(a1) # f98 <.LBB69_4+0x120>
    8ec0:	018585b3          	add	a1,a1,s8
    8ec4:	00b50533          	add	a0,a0,a1
    8ec8:	42855513          	srai	a0,a0,0x28
    8ecc:	b4a43023          	sd	a0,-1216(s0)
    8ed0:	00a4c663          	blt	s1,a0,8edc <.LBB69_794>
    8ed4:	f7f00513          	li	a0,-129
    8ed8:	b4a43023          	sd	a0,-1216(s0)

0000000000008edc <.LBB69_794>:
    8edc:	b3043503          	ld	a0,-1232(s0)
    8ee0:	02150533          	mul	a0,a0,ra
    8ee4:	000015b7          	lui	a1,0x1
    8ee8:	40b405b3          	sub	a1,s0,a1
    8eec:	0105b583          	ld	a1,16(a1) # 1010 <.LBB69_4+0x198>
    8ef0:	018585b3          	add	a1,a1,s8
    8ef4:	00b50533          	add	a0,a0,a1
    8ef8:	42855513          	srai	a0,a0,0x28
    8efc:	b2a43823          	sd	a0,-1232(s0)
    8f00:	00a4c663          	blt	s1,a0,8f0c <.LBB69_796>
    8f04:	f7f00513          	li	a0,-129
    8f08:	b2a43823          	sd	a0,-1232(s0)

0000000000008f0c <.LBB69_796>:
    8f0c:	b2843503          	ld	a0,-1240(s0)
    8f10:	02150533          	mul	a0,a0,ra
    8f14:	000015b7          	lui	a1,0x1
    8f18:	40b405b3          	sub	a1,s0,a1
    8f1c:	0805b583          	ld	a1,128(a1) # 1080 <.LBB69_4+0x208>
    8f20:	018585b3          	add	a1,a1,s8
    8f24:	00b50533          	add	a0,a0,a1
    8f28:	42855513          	srai	a0,a0,0x28
    8f2c:	b2a43423          	sd	a0,-1240(s0)
    8f30:	00a4c663          	blt	s1,a0,8f3c <.LBB69_798>
    8f34:	f7f00513          	li	a0,-129
    8f38:	b2a43423          	sd	a0,-1240(s0)

0000000000008f3c <.LBB69_798>:
    8f3c:	b2043503          	ld	a0,-1248(s0)
    8f40:	02150533          	mul	a0,a0,ra
    8f44:	000015b7          	lui	a1,0x1
    8f48:	40b405b3          	sub	a1,s0,a1
    8f4c:	0f85b583          	ld	a1,248(a1) # 10f8 <.LBB69_4+0x280>
    8f50:	018585b3          	add	a1,a1,s8
    8f54:	00b50533          	add	a0,a0,a1
    8f58:	42855513          	srai	a0,a0,0x28
    8f5c:	b2a43023          	sd	a0,-1248(s0)
    8f60:	00a4c663          	blt	s1,a0,8f6c <.LBB69_800>
    8f64:	f7f00513          	li	a0,-129
    8f68:	b2a43023          	sd	a0,-1248(s0)

0000000000008f6c <.LBB69_800>:
    8f6c:	b1843503          	ld	a0,-1256(s0)
    8f70:	02150533          	mul	a0,a0,ra
    8f74:	000015b7          	lui	a1,0x1
    8f78:	40b405b3          	sub	a1,s0,a1
    8f7c:	1785b583          	ld	a1,376(a1) # 1178 <.LBB69_4+0x300>
    8f80:	018585b3          	add	a1,a1,s8
    8f84:	00b50533          	add	a0,a0,a1
    8f88:	42855513          	srai	a0,a0,0x28
    8f8c:	b0a43c23          	sd	a0,-1256(s0)
    8f90:	00a4c663          	blt	s1,a0,8f9c <.LBB69_802>
    8f94:	f7f00513          	li	a0,-129
    8f98:	b0a43c23          	sd	a0,-1256(s0)

0000000000008f9c <.LBB69_802>:
    8f9c:	b1043503          	ld	a0,-1264(s0)
    8fa0:	02150533          	mul	a0,a0,ra
    8fa4:	000015b7          	lui	a1,0x1
    8fa8:	40b405b3          	sub	a1,s0,a1
    8fac:	1e85b583          	ld	a1,488(a1) # 11e8 <.LBB69_4+0x370>
    8fb0:	018585b3          	add	a1,a1,s8
    8fb4:	00b50533          	add	a0,a0,a1
    8fb8:	42855513          	srai	a0,a0,0x28
    8fbc:	b0a43823          	sd	a0,-1264(s0)
    8fc0:	00a4c663          	blt	s1,a0,8fcc <.LBB69_804>
    8fc4:	f7f00513          	li	a0,-129
    8fc8:	b0a43823          	sd	a0,-1264(s0)

0000000000008fcc <.LBB69_804>:
    8fcc:	b0843503          	ld	a0,-1272(s0)
    8fd0:	02150533          	mul	a0,a0,ra
    8fd4:	000015b7          	lui	a1,0x1
    8fd8:	40b405b3          	sub	a1,s0,a1
    8fdc:	2605b583          	ld	a1,608(a1) # 1260 <.LBB69_4+0x3e8>
    8fe0:	018585b3          	add	a1,a1,s8
    8fe4:	00b50533          	add	a0,a0,a1
    8fe8:	42855513          	srai	a0,a0,0x28
    8fec:	b0a43423          	sd	a0,-1272(s0)
    8ff0:	00a4c663          	blt	s1,a0,8ffc <.LBB69_806>
    8ff4:	f7f00513          	li	a0,-129
    8ff8:	b0a43423          	sd	a0,-1272(s0)

0000000000008ffc <.LBB69_806>:
    8ffc:	b0043503          	ld	a0,-1280(s0)
    9000:	02150533          	mul	a0,a0,ra
    9004:	a0843583          	ld	a1,-1528(s0)
    9008:	018585b3          	add	a1,a1,s8
    900c:	00b50533          	add	a0,a0,a1
    9010:	42855513          	srai	a0,a0,0x28
    9014:	b0a43023          	sd	a0,-1280(s0)
    9018:	00a4c663          	blt	s1,a0,9024 <.LBB69_808>
    901c:	f7f00513          	li	a0,-129
    9020:	b0a43023          	sd	a0,-1280(s0)

0000000000009024 <.LBB69_808>:
    9024:	af843503          	ld	a0,-1288(s0)
    9028:	02150533          	mul	a0,a0,ra
    902c:	a1043583          	ld	a1,-1520(s0)
    9030:	018585b3          	add	a1,a1,s8
    9034:	00b50533          	add	a0,a0,a1
    9038:	42855513          	srai	a0,a0,0x28
    903c:	aea43c23          	sd	a0,-1288(s0)
    9040:	00a4c663          	blt	s1,a0,904c <.LBB69_810>
    9044:	f7f00513          	li	a0,-129
    9048:	aea43c23          	sd	a0,-1288(s0)

000000000000904c <.LBB69_810>:
    904c:	af043503          	ld	a0,-1296(s0)
    9050:	02150533          	mul	a0,a0,ra
    9054:	a1843583          	ld	a1,-1512(s0)
    9058:	018585b3          	add	a1,a1,s8
    905c:	00b50533          	add	a0,a0,a1
    9060:	42855513          	srai	a0,a0,0x28
    9064:	aea43823          	sd	a0,-1296(s0)
    9068:	00a4c663          	blt	s1,a0,9074 <.LBB69_812>
    906c:	f7f00513          	li	a0,-129
    9070:	aea43823          	sd	a0,-1296(s0)

0000000000009074 <.LBB69_812>:
    9074:	ae843503          	ld	a0,-1304(s0)
    9078:	02150533          	mul	a0,a0,ra
    907c:	a2043583          	ld	a1,-1504(s0)
    9080:	018585b3          	add	a1,a1,s8
    9084:	00b50533          	add	a0,a0,a1
    9088:	42855513          	srai	a0,a0,0x28
    908c:	aea43423          	sd	a0,-1304(s0)
    9090:	00a4c663          	blt	s1,a0,909c <.LBB69_814>
    9094:	f7f00513          	li	a0,-129
    9098:	aea43423          	sd	a0,-1304(s0)

000000000000909c <.LBB69_814>:
    909c:	ae043503          	ld	a0,-1312(s0)
    90a0:	02150533          	mul	a0,a0,ra
    90a4:	a2843583          	ld	a1,-1496(s0)
    90a8:	018585b3          	add	a1,a1,s8
    90ac:	00b50533          	add	a0,a0,a1
    90b0:	42855513          	srai	a0,a0,0x28
    90b4:	aea43023          	sd	a0,-1312(s0)
    90b8:	00a4c663          	blt	s1,a0,90c4 <.LBB69_816>
    90bc:	f7f00513          	li	a0,-129
    90c0:	aea43023          	sd	a0,-1312(s0)

00000000000090c4 <.LBB69_816>:
    90c4:	ad843503          	ld	a0,-1320(s0)
    90c8:	02150533          	mul	a0,a0,ra
    90cc:	a3043583          	ld	a1,-1488(s0)
    90d0:	018585b3          	add	a1,a1,s8
    90d4:	00b50533          	add	a0,a0,a1
    90d8:	42855513          	srai	a0,a0,0x28
    90dc:	aca43c23          	sd	a0,-1320(s0)
    90e0:	00a4c663          	blt	s1,a0,90ec <.LBB69_818>
    90e4:	f7f00513          	li	a0,-129
    90e8:	aca43c23          	sd	a0,-1320(s0)

00000000000090ec <.LBB69_818>:
    90ec:	ad043503          	ld	a0,-1328(s0)
    90f0:	02150533          	mul	a0,a0,ra
    90f4:	ac843583          	ld	a1,-1336(s0)
    90f8:	018585b3          	add	a1,a1,s8
    90fc:	00b50533          	add	a0,a0,a1
    9100:	42855513          	srai	a0,a0,0x28
    9104:	aca43423          	sd	a0,-1336(s0)
    9108:	00a4c663          	blt	s1,a0,9114 <.LBB69_820>
    910c:	f7f00513          	li	a0,-129
    9110:	aca43423          	sd	a0,-1336(s0)

0000000000009114 <.LBB69_820>:
    9114:	ab843503          	ld	a0,-1352(s0)
    9118:	02150533          	mul	a0,a0,ra
    911c:	a3843583          	ld	a1,-1480(s0)
    9120:	018585b3          	add	a1,a1,s8
    9124:	00b50533          	add	a0,a0,a1
    9128:	42855513          	srai	a0,a0,0x28
    912c:	aaa43c23          	sd	a0,-1352(s0)
    9130:	00a4c663          	blt	s1,a0,913c <.LBB69_822>
    9134:	f7f00513          	li	a0,-129
    9138:	aaa43c23          	sd	a0,-1352(s0)

000000000000913c <.LBB69_822>:
    913c:	ac043503          	ld	a0,-1344(s0)
    9140:	02150533          	mul	a0,a0,ra
    9144:	aa843583          	ld	a1,-1368(s0)
    9148:	018585b3          	add	a1,a1,s8
    914c:	00b50533          	add	a0,a0,a1
    9150:	42855513          	srai	a0,a0,0x28
    9154:	aaa43423          	sd	a0,-1368(s0)
    9158:	00a4c663          	blt	s1,a0,9164 <.LBB69_824>
    915c:	f7f00513          	li	a0,-129
    9160:	aaa43423          	sd	a0,-1368(s0)

0000000000009164 <.LBB69_824>:
    9164:	00001537          	lui	a0,0x1
    9168:	40a40533          	sub	a0,s0,a0
    916c:	c1053503          	ld	a0,-1008(a0) # c10 <.LBB69_3+0x9ec>
    9170:	02150533          	mul	a0,a0,ra
    9174:	a9843583          	ld	a1,-1384(s0)
    9178:	018585b3          	add	a1,a1,s8
    917c:	00b50533          	add	a0,a0,a1
    9180:	42855513          	srai	a0,a0,0x28
    9184:	a8a43c23          	sd	a0,-1384(s0)
    9188:	00a4c663          	blt	s1,a0,9194 <.LBB69_826>
    918c:	f7f00513          	li	a0,-129
    9190:	a8a43c23          	sd	a0,-1384(s0)

0000000000009194 <.LBB69_826>:
    9194:	ab043503          	ld	a0,-1360(s0)
    9198:	02150533          	mul	a0,a0,ra
    919c:	a8843583          	ld	a1,-1400(s0)
    91a0:	018585b3          	add	a1,a1,s8
    91a4:	00b50533          	add	a0,a0,a1
    91a8:	42855513          	srai	a0,a0,0x28
    91ac:	a8a43423          	sd	a0,-1400(s0)
    91b0:	00a4c663          	blt	s1,a0,91bc <.LBB69_828>
    91b4:	f7f00513          	li	a0,-129
    91b8:	a8a43423          	sd	a0,-1400(s0)

00000000000091bc <.LBB69_828>:
    91bc:	a4843503          	ld	a0,-1464(s0)
    91c0:	02150533          	mul	a0,a0,ra
    91c4:	a4043583          	ld	a1,-1472(s0)
    91c8:	018585b3          	add	a1,a1,s8
    91cc:	00b50533          	add	a0,a0,a1
    91d0:	42855513          	srai	a0,a0,0x28
    91d4:	a6a43c23          	sd	a0,-1416(s0)
    91d8:	00a4c663          	blt	s1,a0,91e4 <.LBB69_830>
    91dc:	f7f00513          	li	a0,-129
    91e0:	a6a43c23          	sd	a0,-1416(s0)

00000000000091e4 <.LBB69_830>:
    91e4:	aa043503          	ld	a0,-1376(s0)
    91e8:	02150533          	mul	a0,a0,ra
    91ec:	a6843583          	ld	a1,-1432(s0)
    91f0:	018585b3          	add	a1,a1,s8
    91f4:	00b50533          	add	a0,a0,a1
    91f8:	42855513          	srai	a0,a0,0x28
    91fc:	a6a43423          	sd	a0,-1432(s0)
    9200:	00a4c663          	blt	s1,a0,920c <.LBB69_832>
    9204:	f7f00513          	li	a0,-129
    9208:	a6a43423          	sd	a0,-1432(s0)

000000000000920c <.LBB69_832>:
    920c:	a5843503          	ld	a0,-1448(s0)
    9210:	02150533          	mul	a0,a0,ra
    9214:	a5043583          	ld	a1,-1456(s0)
    9218:	018585b3          	add	a1,a1,s8
    921c:	00b50533          	add	a0,a0,a1
    9220:	42855513          	srai	a0,a0,0x28
    9224:	a4a43c23          	sd	a0,-1448(s0)
    9228:	00a4c663          	blt	s1,a0,9234 <.LBB69_834>
    922c:	f7f00513          	li	a0,-129
    9230:	a4a43c23          	sd	a0,-1448(s0)

0000000000009234 <.LBB69_834>:
    9234:	a9043503          	ld	a0,-1392(s0)
    9238:	02150533          	mul	a0,a0,ra
    923c:	a6043583          	ld	a1,-1440(s0)
    9240:	018585b3          	add	a1,a1,s8
    9244:	00b50533          	add	a0,a0,a1
    9248:	42855513          	srai	a0,a0,0x28
    924c:	a4a43423          	sd	a0,-1464(s0)
    9250:	00a4c663          	blt	s1,a0,925c <.LBB69_836>
    9254:	f7f00513          	li	a0,-129
    9258:	a4a43423          	sd	a0,-1464(s0)

000000000000925c <.LBB69_836>:
    925c:	a8043503          	ld	a0,-1408(s0)
    9260:	02150533          	mul	a0,a0,ra
    9264:	018605b3          	add	a1,a2,s8
    9268:	00b50533          	add	a0,a0,a1
    926c:	42855513          	srai	a0,a0,0x28
    9270:	a2a43c23          	sd	a0,-1480(s0)
    9274:	00a4c663          	blt	s1,a0,9280 <.LBB69_838>
    9278:	f7f00513          	li	a0,-129
    927c:	a2a43c23          	sd	a0,-1480(s0)

0000000000009280 <.LBB69_838>:
    9280:	02170533          	mul	a0,a4,ra
    9284:	000015b7          	lui	a1,0x1
    9288:	40b405b3          	sub	a1,s0,a1
    928c:	b885b583          	ld	a1,-1144(a1) # b88 <.LBB69_3+0x964>
    9290:	018585b3          	add	a1,a1,s8
    9294:	00b50533          	add	a0,a0,a1
    9298:	42855513          	srai	a0,a0,0x28
    929c:	aca43823          	sd	a0,-1328(s0)
    92a0:	00a4c663          	blt	s1,a0,92ac <.LBB69_840>
    92a4:	f7f00513          	li	a0,-129
    92a8:	aca43823          	sd	a0,-1328(s0)

00000000000092ac <.LBB69_840>:
    92ac:	00001537          	lui	a0,0x1
    92b0:	40a40533          	sub	a0,s0,a0
    92b4:	b7853503          	ld	a0,-1160(a0) # b78 <.LBB69_3+0x954>
    92b8:	02150533          	mul	a0,a0,ra
    92bc:	000015b7          	lui	a1,0x1
    92c0:	40b405b3          	sub	a1,s0,a1
    92c4:	c205b583          	ld	a1,-992(a1) # c20 <.LBB69_3+0x9fc>
    92c8:	018585b3          	add	a1,a1,s8
    92cc:	00b50533          	add	a0,a0,a1
    92d0:	42855513          	srai	a0,a0,0x28
    92d4:	aca43023          	sd	a0,-1344(s0)
    92d8:	00a4c663          	blt	s1,a0,92e4 <.LBB69_842>
    92dc:	f7f00513          	li	a0,-129
    92e0:	aca43023          	sd	a0,-1344(s0)

00000000000092e4 <.LBB69_842>:
    92e4:	00001537          	lui	a0,0x1
    92e8:	40a40533          	sub	a0,s0,a0
    92ec:	be053503          	ld	a0,-1056(a0) # be0 <.LBB69_3+0x9bc>
    92f0:	02150533          	mul	a0,a0,ra
    92f4:	000015b7          	lui	a1,0x1
    92f8:	40b405b3          	sub	a1,s0,a1
    92fc:	c785b583          	ld	a1,-904(a1) # c78 <.LBB69_3+0xa54>
    9300:	018585b3          	add	a1,a1,s8
    9304:	00b50533          	add	a0,a0,a1
    9308:	42855513          	srai	a0,a0,0x28
    930c:	aaa43823          	sd	a0,-1360(s0)
    9310:	000015b7          	lui	a1,0x1
    9314:	40b405b3          	sub	a1,s0,a1
    9318:	cc05b583          	ld	a1,-832(a1) # cc0 <.LBB69_3+0xa9c>
    931c:	00a4c663          	blt	s1,a0,9328 <.LBB69_844>
    9320:	f7f00513          	li	a0,-129
    9324:	aaa43823          	sd	a0,-1360(s0)

0000000000009328 <.LBB69_844>:
    9328:	00001537          	lui	a0,0x1
    932c:	40a40533          	sub	a0,s0,a0
    9330:	c0853503          	ld	a0,-1016(a0) # c08 <.LBB69_3+0x9e4>
    9334:	02150533          	mul	a0,a0,ra
    9338:	018585b3          	add	a1,a1,s8
    933c:	00b50533          	add	a0,a0,a1
    9340:	42855513          	srai	a0,a0,0x28
    9344:	aaa43023          	sd	a0,-1376(s0)
    9348:	00a4c663          	blt	s1,a0,9354 <.LBB69_846>
    934c:	f7f00513          	li	a0,-129
    9350:	aaa43023          	sd	a0,-1376(s0)

0000000000009354 <.LBB69_846>:
    9354:	00001537          	lui	a0,0x1
    9358:	40a40533          	sub	a0,s0,a0
    935c:	d6853503          	ld	a0,-664(a0) # d68 <.LBB69_3+0xb44>
    9360:	02150533          	mul	a0,a0,ra
    9364:	000015b7          	lui	a1,0x1
    9368:	40b405b3          	sub	a1,s0,a1
    936c:	d305b583          	ld	a1,-720(a1) # d30 <.LBB69_3+0xb0c>
    9370:	018585b3          	add	a1,a1,s8
    9374:	00b50533          	add	a0,a0,a1
    9378:	42855513          	srai	a0,a0,0x28
    937c:	a8a43823          	sd	a0,-1392(s0)
    9380:	00a4c663          	blt	s1,a0,938c <.LBB69_848>
    9384:	f7f00513          	li	a0,-129
    9388:	a8a43823          	sd	a0,-1392(s0)

000000000000938c <.LBB69_848>:
    938c:	00001537          	lui	a0,0x1
    9390:	40a40533          	sub	a0,s0,a0
    9394:	de053503          	ld	a0,-544(a0) # de0 <.LBB69_3+0xbbc>
    9398:	02150533          	mul	a0,a0,ra
    939c:	000015b7          	lui	a1,0x1
    93a0:	40b405b3          	sub	a1,s0,a1
    93a4:	da85b583          	ld	a1,-600(a1) # da8 <.LBB69_3+0xb84>
    93a8:	018585b3          	add	a1,a1,s8
    93ac:	00b50533          	add	a0,a0,a1
    93b0:	42855513          	srai	a0,a0,0x28
    93b4:	a8a43023          	sd	a0,-1408(s0)
    93b8:	00a4c663          	blt	s1,a0,93c4 <.LBB69_850>
    93bc:	f7f00513          	li	a0,-129
    93c0:	a8a43023          	sd	a0,-1408(s0)

00000000000093c4 <.LBB69_850>:
    93c4:	00001537          	lui	a0,0x1
    93c8:	40a40533          	sub	a0,s0,a0
    93cc:	e6053503          	ld	a0,-416(a0) # e60 <.LBB69_3+0xc3c>
    93d0:	02150533          	mul	a0,a0,ra
    93d4:	000015b7          	lui	a1,0x1
    93d8:	40b405b3          	sub	a1,s0,a1
    93dc:	e285b583          	ld	a1,-472(a1) # e28 <.LBB69_3+0xc04>
    93e0:	018585b3          	add	a1,a1,s8
    93e4:	00b50533          	add	a0,a0,a1
    93e8:	42855513          	srai	a0,a0,0x28
    93ec:	a6a43823          	sd	a0,-1424(s0)
    93f0:	00a4c663          	blt	s1,a0,93fc <.LBB69_852>
    93f4:	f7f00513          	li	a0,-129
    93f8:	a6a43823          	sd	a0,-1424(s0)

00000000000093fc <.LBB69_852>:
    93fc:	00001537          	lui	a0,0x1
    9400:	40a40533          	sub	a0,s0,a0
    9404:	ed853503          	ld	a0,-296(a0) # ed8 <.LBB69_4+0x60>
    9408:	02150533          	mul	a0,a0,ra
    940c:	000015b7          	lui	a1,0x1
    9410:	40b405b3          	sub	a1,s0,a1
    9414:	ea05b583          	ld	a1,-352(a1) # ea0 <.LBB69_4+0x28>
    9418:	018585b3          	add	a1,a1,s8
    941c:	00b50533          	add	a0,a0,a1
    9420:	42855513          	srai	a0,a0,0x28
    9424:	a6a43023          	sd	a0,-1440(s0)
    9428:	00a4c663          	blt	s1,a0,9434 <.LBB69_854>
    942c:	f7f00513          	li	a0,-129
    9430:	a6a43023          	sd	a0,-1440(s0)

0000000000009434 <.LBB69_854>:
    9434:	00001537          	lui	a0,0x1
    9438:	40a40533          	sub	a0,s0,a0
    943c:	f5053503          	ld	a0,-176(a0) # f50 <.LBB69_4+0xd8>
    9440:	02150533          	mul	a0,a0,ra
    9444:	000015b7          	lui	a1,0x1
    9448:	40b405b3          	sub	a1,s0,a1
    944c:	f205b583          	ld	a1,-224(a1) # f20 <.LBB69_4+0xa8>
    9450:	018585b3          	add	a1,a1,s8
    9454:	00b50533          	add	a0,a0,a1
    9458:	42855513          	srai	a0,a0,0x28
    945c:	a4a43823          	sd	a0,-1456(s0)
    9460:	00a4c663          	blt	s1,a0,946c <.LBB69_856>
    9464:	f7f00513          	li	a0,-129
    9468:	a4a43823          	sd	a0,-1456(s0)

000000000000946c <.LBB69_856>:
    946c:	00001537          	lui	a0,0x1
    9470:	40a40533          	sub	a0,s0,a0
    9474:	fc053503          	ld	a0,-64(a0) # fc0 <.LBB69_4+0x148>
    9478:	02150533          	mul	a0,a0,ra
    947c:	000015b7          	lui	a1,0x1
    9480:	40b405b3          	sub	a1,s0,a1
    9484:	f905b583          	ld	a1,-112(a1) # f90 <.LBB69_4+0x118>
    9488:	018585b3          	add	a1,a1,s8
    948c:	00b50533          	add	a0,a0,a1
    9490:	42855513          	srai	a0,a0,0x28
    9494:	a4a43023          	sd	a0,-1472(s0)
    9498:	00a4c663          	blt	s1,a0,94a4 <.LBB69_858>
    949c:	f7f00513          	li	a0,-129
    94a0:	a4a43023          	sd	a0,-1472(s0)

00000000000094a4 <.LBB69_858>:
    94a4:	00001537          	lui	a0,0x1
    94a8:	40a40533          	sub	a0,s0,a0
    94ac:	03853503          	ld	a0,56(a0) # 1038 <.LBB69_4+0x1c0>
    94b0:	02150533          	mul	a0,a0,ra
    94b4:	000015b7          	lui	a1,0x1
    94b8:	40b405b3          	sub	a1,s0,a1
    94bc:	0085b583          	ld	a1,8(a1) # 1008 <.LBB69_4+0x190>
    94c0:	018585b3          	add	a1,a1,s8
    94c4:	00b50533          	add	a0,a0,a1
    94c8:	42855513          	srai	a0,a0,0x28
    94cc:	a2a43823          	sd	a0,-1488(s0)
    94d0:	00a4c663          	blt	s1,a0,94dc <.LBB69_860>
    94d4:	f7f00513          	li	a0,-129
    94d8:	a2a43823          	sd	a0,-1488(s0)

00000000000094dc <.LBB69_860>:
    94dc:	00001537          	lui	a0,0x1
    94e0:	40a40533          	sub	a0,s0,a0
    94e4:	0b053503          	ld	a0,176(a0) # 10b0 <.LBB69_4+0x238>
    94e8:	02150533          	mul	a0,a0,ra
    94ec:	000015b7          	lui	a1,0x1
    94f0:	40b405b3          	sub	a1,s0,a1
    94f4:	0785b583          	ld	a1,120(a1) # 1078 <.LBB69_4+0x200>
    94f8:	018585b3          	add	a1,a1,s8
    94fc:	00b50533          	add	a0,a0,a1
    9500:	42855513          	srai	a0,a0,0x28
    9504:	a2a43423          	sd	a0,-1496(s0)
    9508:	00a4c663          	blt	s1,a0,9514 <.LBB69_862>
    950c:	f7f00513          	li	a0,-129
    9510:	a2a43423          	sd	a0,-1496(s0)

0000000000009514 <.LBB69_862>:
    9514:	00001537          	lui	a0,0x1
    9518:	40a40533          	sub	a0,s0,a0
    951c:	12853503          	ld	a0,296(a0) # 1128 <.LBB69_4+0x2b0>
    9520:	02150533          	mul	a0,a0,ra
    9524:	000015b7          	lui	a1,0x1
    9528:	40b405b3          	sub	a1,s0,a1
    952c:	0f05b583          	ld	a1,240(a1) # 10f0 <.LBB69_4+0x278>
    9530:	018585b3          	add	a1,a1,s8
    9534:	00b50533          	add	a0,a0,a1
    9538:	42855513          	srai	a0,a0,0x28
    953c:	a2a43023          	sd	a0,-1504(s0)
    9540:	00a4c663          	blt	s1,a0,954c <.LBB69_864>
    9544:	f7f00513          	li	a0,-129
    9548:	a2a43023          	sd	a0,-1504(s0)

000000000000954c <.LBB69_864>:
    954c:	00001537          	lui	a0,0x1
    9550:	40a40533          	sub	a0,s0,a0
    9554:	1a053503          	ld	a0,416(a0) # 11a0 <.LBB69_4+0x328>
    9558:	02150533          	mul	a0,a0,ra
    955c:	000015b7          	lui	a1,0x1
    9560:	40b405b3          	sub	a1,s0,a1
    9564:	1705b583          	ld	a1,368(a1) # 1170 <.LBB69_4+0x2f8>
    9568:	018585b3          	add	a1,a1,s8
    956c:	00b50533          	add	a0,a0,a1
    9570:	42855513          	srai	a0,a0,0x28
    9574:	a0a43c23          	sd	a0,-1512(s0)
    9578:	00a4c663          	blt	s1,a0,9584 <.LBB69_866>
    957c:	f7f00513          	li	a0,-129
    9580:	a0a43c23          	sd	a0,-1512(s0)

0000000000009584 <.LBB69_866>:
    9584:	00001537          	lui	a0,0x1
    9588:	40a40533          	sub	a0,s0,a0
    958c:	21853503          	ld	a0,536(a0) # 1218 <.LBB69_4+0x3a0>
    9590:	02150533          	mul	a0,a0,ra
    9594:	000015b7          	lui	a1,0x1
    9598:	40b405b3          	sub	a1,s0,a1
    959c:	1e05b583          	ld	a1,480(a1) # 11e0 <.LBB69_4+0x368>
    95a0:	018585b3          	add	a1,a1,s8
    95a4:	00b50533          	add	a0,a0,a1
    95a8:	42855513          	srai	a0,a0,0x28
    95ac:	a0a43823          	sd	a0,-1520(s0)
    95b0:	00a4c663          	blt	s1,a0,95bc <.LBB69_868>
    95b4:	f7f00513          	li	a0,-129
    95b8:	a0a43823          	sd	a0,-1520(s0)

00000000000095bc <.LBB69_868>:
    95bc:	00001537          	lui	a0,0x1
    95c0:	40a40533          	sub	a0,s0,a0
    95c4:	29053503          	ld	a0,656(a0) # 1290 <.LBB69_4+0x418>
    95c8:	02150533          	mul	a0,a0,ra
    95cc:	000015b7          	lui	a1,0x1
    95d0:	40b405b3          	sub	a1,s0,a1
    95d4:	2585b583          	ld	a1,600(a1) # 1258 <.LBB69_4+0x3e0>
    95d8:	018585b3          	add	a1,a1,s8
    95dc:	00b50533          	add	a0,a0,a1
    95e0:	42855513          	srai	a0,a0,0x28
    95e4:	a0a43423          	sd	a0,-1528(s0)
    95e8:	00a4c663          	blt	s1,a0,95f4 <.LBB69_870>
    95ec:	f7f00513          	li	a0,-129
    95f0:	a0a43423          	sd	a0,-1528(s0)

00000000000095f4 <.LBB69_870>:
    95f4:	00001537          	lui	a0,0x1
    95f8:	40a40533          	sub	a0,s0,a0
    95fc:	30053503          	ld	a0,768(a0) # 1300 <.LBB69_4+0x488>
    9600:	02150533          	mul	a0,a0,ra
    9604:	000015b7          	lui	a1,0x1
    9608:	40b405b3          	sub	a1,s0,a1
    960c:	2d05b583          	ld	a1,720(a1) # 12d0 <.LBB69_4+0x458>
    9610:	018585b3          	add	a1,a1,s8
    9614:	00b50533          	add	a0,a0,a1
    9618:	42855513          	srai	a0,a0,0x28
    961c:	a0a43023          	sd	a0,-1536(s0)
    9620:	00a4c663          	blt	s1,a0,962c <.LBB69_872>
    9624:	f7f00513          	li	a0,-129
    9628:	a0a43023          	sd	a0,-1536(s0)

000000000000962c <.LBB69_872>:
    962c:	00001537          	lui	a0,0x1
    9630:	40a40533          	sub	a0,s0,a0
    9634:	36853503          	ld	a0,872(a0) # 1368 <.LBB69_4+0x4f0>
    9638:	02150533          	mul	a0,a0,ra
    963c:	000015b7          	lui	a1,0x1
    9640:	40b405b3          	sub	a1,s0,a1
    9644:	3385b583          	ld	a1,824(a1) # 1338 <.LBB69_4+0x4c0>
    9648:	018585b3          	add	a1,a1,s8
    964c:	00b50533          	add	a0,a0,a1
    9650:	42855513          	srai	a0,a0,0x28
    9654:	9ea43c23          	sd	a0,-1544(s0)
    9658:	00a4c663          	blt	s1,a0,9664 <.LBB69_874>
    965c:	f7f00513          	li	a0,-129
    9660:	9ea43c23          	sd	a0,-1544(s0)

0000000000009664 <.LBB69_874>:
    9664:	00001537          	lui	a0,0x1
    9668:	40a40533          	sub	a0,s0,a0
    966c:	3d053503          	ld	a0,976(a0) # 13d0 <.LBB69_4+0x558>
    9670:	02150533          	mul	a0,a0,ra
    9674:	000015b7          	lui	a1,0x1
    9678:	40b405b3          	sub	a1,s0,a1
    967c:	3a05b583          	ld	a1,928(a1) # 13a0 <.LBB69_4+0x528>
    9680:	018585b3          	add	a1,a1,s8
    9684:	00b50533          	add	a0,a0,a1
    9688:	42855513          	srai	a0,a0,0x28
    968c:	9ea43823          	sd	a0,-1552(s0)
    9690:	00a4c663          	blt	s1,a0,969c <.LBB69_876>
    9694:	f7f00513          	li	a0,-129
    9698:	9ea43823          	sd	a0,-1552(s0)

000000000000969c <.LBB69_876>:
    969c:	00001537          	lui	a0,0x1
    96a0:	40a40533          	sub	a0,s0,a0
    96a4:	42853503          	ld	a0,1064(a0) # 1428 <.LBB69_5+0xc>
    96a8:	02150533          	mul	a0,a0,ra
    96ac:	000015b7          	lui	a1,0x1
    96b0:	40b405b3          	sub	a1,s0,a1
    96b4:	4005b583          	ld	a1,1024(a1) # 1400 <.LBB69_4+0x588>
    96b8:	018585b3          	add	a1,a1,s8
    96bc:	00b50533          	add	a0,a0,a1
    96c0:	42855513          	srai	a0,a0,0x28
    96c4:	9ea43423          	sd	a0,-1560(s0)
    96c8:	00a4c663          	blt	s1,a0,96d4 <.LBB69_878>
    96cc:	f7f00513          	li	a0,-129
    96d0:	9ea43423          	sd	a0,-1560(s0)

00000000000096d4 <.LBB69_878>:
    96d4:	00001537          	lui	a0,0x1
    96d8:	40a40533          	sub	a0,s0,a0
    96dc:	48053503          	ld	a0,1152(a0) # 1480 <.LBB69_5+0x64>
    96e0:	02150533          	mul	a0,a0,ra
    96e4:	000015b7          	lui	a1,0x1
    96e8:	40b405b3          	sub	a1,s0,a1
    96ec:	4505b583          	ld	a1,1104(a1) # 1450 <.LBB69_5+0x34>
    96f0:	018585b3          	add	a1,a1,s8
    96f4:	00b50533          	add	a0,a0,a1
    96f8:	42855513          	srai	a0,a0,0x28
    96fc:	9ea43023          	sd	a0,-1568(s0)
    9700:	00a4c663          	blt	s1,a0,970c <.LBB69_880>
    9704:	f7f00513          	li	a0,-129
    9708:	9ea43023          	sd	a0,-1568(s0)

000000000000970c <.LBB69_880>:
    970c:	00001537          	lui	a0,0x1
    9710:	40a40533          	sub	a0,s0,a0
    9714:	4d053503          	ld	a0,1232(a0) # 14d0 <.LBB69_5+0xb4>
    9718:	02150533          	mul	a0,a0,ra
    971c:	000015b7          	lui	a1,0x1
    9720:	40b405b3          	sub	a1,s0,a1
    9724:	4a05b583          	ld	a1,1184(a1) # 14a0 <.LBB69_5+0x84>
    9728:	018585b3          	add	a1,a1,s8
    972c:	00b50533          	add	a0,a0,a1
    9730:	42855513          	srai	a0,a0,0x28
    9734:	9ca43c23          	sd	a0,-1576(s0)
    9738:	00a4c663          	blt	s1,a0,9744 <.LBB69_882>
    973c:	f7f00513          	li	a0,-129
    9740:	9ca43c23          	sd	a0,-1576(s0)

0000000000009744 <.LBB69_882>:
    9744:	00001537          	lui	a0,0x1
    9748:	40a40533          	sub	a0,s0,a0
    974c:	52853503          	ld	a0,1320(a0) # 1528 <.LBB69_5+0x10c>
    9750:	02150533          	mul	a0,a0,ra
    9754:	000015b7          	lui	a1,0x1
    9758:	40b405b3          	sub	a1,s0,a1
    975c:	4f85b583          	ld	a1,1272(a1) # 14f8 <.LBB69_5+0xdc>
    9760:	018585b3          	add	a1,a1,s8
    9764:	00b50533          	add	a0,a0,a1
    9768:	42855513          	srai	a0,a0,0x28
    976c:	9ca43423          	sd	a0,-1592(s0)
    9770:	00a4c663          	blt	s1,a0,977c <.LBB69_884>
    9774:	f7f00513          	li	a0,-129
    9778:	9ca43423          	sd	a0,-1592(s0)

000000000000977c <.LBB69_884>:
    977c:	00001537          	lui	a0,0x1
    9780:	40a40533          	sub	a0,s0,a0
    9784:	58053503          	ld	a0,1408(a0) # 1580 <.LBB69_5+0x164>
    9788:	02150533          	mul	a0,a0,ra
    978c:	000015b7          	lui	a1,0x1
    9790:	40b405b3          	sub	a1,s0,a1
    9794:	5585b583          	ld	a1,1368(a1) # 1558 <.LBB69_5+0x13c>
    9798:	018585b3          	add	a1,a1,s8
    979c:	00b50533          	add	a0,a0,a1
    97a0:	42855713          	srai	a4,a0,0x28
    97a4:	00e4c463          	blt	s1,a4,97ac <.LBB69_886>
    97a8:	f7f00713          	li	a4,-129

00000000000097ac <.LBB69_886>:
    97ac:	00001537          	lui	a0,0x1
    97b0:	40a40533          	sub	a0,s0,a0
    97b4:	6f053503          	ld	a0,1776(a0) # 16f0 <.LBB69_5+0x2d4>
    97b8:	02150533          	mul	a0,a0,ra
    97bc:	000015b7          	lui	a1,0x1
    97c0:	40b405b3          	sub	a1,s0,a1
    97c4:	5b05b583          	ld	a1,1456(a1) # 15b0 <.LBB69_5+0x194>
    97c8:	018585b3          	add	a1,a1,s8
    97cc:	00b50533          	add	a0,a0,a1
    97d0:	42855d13          	srai	s10,a0,0x28
    97d4:	01a4c463          	blt	s1,s10,97dc <.LBB69_888>
    97d8:	f7f00d13          	li	s10,-129

00000000000097dc <.LBB69_888>:
    97dc:	00001537          	lui	a0,0x1
    97e0:	40a40533          	sub	a0,s0,a0
    97e4:	7d853503          	ld	a0,2008(a0) # 17d8 <.LBB69_5+0x3bc>
    97e8:	02150533          	mul	a0,a0,ra
    97ec:	000015b7          	lui	a1,0x1
    97f0:	40b405b3          	sub	a1,s0,a1
    97f4:	7285b583          	ld	a1,1832(a1) # 1728 <.LBB69_5+0x30c>
    97f8:	018585b3          	add	a1,a1,s8
    97fc:	00b50533          	add	a0,a0,a1
    9800:	42855513          	srai	a0,a0,0x28
    9804:	84a43023          	sd	a0,-1984(s0)
    9808:	00a4c663          	blt	s1,a0,9814 <.LBB69_890>
    980c:	f7f00513          	li	a0,-129
    9810:	84a43023          	sd	a0,-1984(s0)

0000000000009814 <.LBB69_890>:
    9814:	8d843503          	ld	a0,-1832(s0)
    9818:	02150533          	mul	a0,a0,ra
    981c:	8c043583          	ld	a1,-1856(s0)
    9820:	018585b3          	add	a1,a1,s8
    9824:	00b50533          	add	a0,a0,a1
    9828:	42855513          	srai	a0,a0,0x28
    982c:	00050313          	mv	t1,a0
    9830:	00a4c463          	blt	s1,a0,9838 <.LBB69_892>
    9834:	f7f00313          	li	t1,-129

0000000000009838 <.LBB69_892>:
    9838:	92843503          	ld	a0,-1752(s0)
    983c:	02150533          	mul	a0,a0,ra
    9840:	8f043583          	ld	a1,-1808(s0)
    9844:	018585b3          	add	a1,a1,s8
    9848:	00b50533          	add	a0,a0,a1
    984c:	42855513          	srai	a0,a0,0x28
    9850:	00050693          	mv	a3,a0
    9854:	00a4c463          	blt	s1,a0,985c <.LBB69_894>
    9858:	f7f00693          	li	a3,-129

000000000000985c <.LBB69_894>:
    985c:	96843503          	ld	a0,-1688(s0)
    9860:	02150533          	mul	a0,a0,ra
    9864:	94843583          	ld	a1,-1720(s0)
    9868:	018585b3          	add	a1,a1,s8
    986c:	00b50533          	add	a0,a0,a1
    9870:	42855513          	srai	a0,a0,0x28
    9874:	00050e13          	mv	t3,a0
    9878:	00a4c463          	blt	s1,a0,9880 <.LBB69_896>
    987c:	f7f00e13          	li	t3,-129

0000000000009880 <.LBB69_896>:
    9880:	9a843503          	ld	a0,-1624(s0)
    9884:	02150533          	mul	a0,a0,ra
    9888:	9a043583          	ld	a1,-1632(s0)
    988c:	018585b3          	add	a1,a1,s8
    9890:	00b50533          	add	a0,a0,a1
    9894:	42855513          	srai	a0,a0,0x28
    9898:	00050993          	mv	s3,a0
    989c:	00a4c463          	blt	s1,a0,98a4 <.LBB69_898>
    98a0:	f7f00993          	li	s3,-129

00000000000098a4 <.LBB69_898>:
    98a4:	9b843503          	ld	a0,-1608(s0)
    98a8:	02150533          	mul	a0,a0,ra
    98ac:	9b043583          	ld	a1,-1616(s0)
    98b0:	018585b3          	add	a1,a1,s8
    98b4:	00b50533          	add	a0,a0,a1
    98b8:	42855513          	srai	a0,a0,0x28
    98bc:	00050a93          	mv	s5,a0
    98c0:	00a4c463          	blt	s1,a0,98c8 <.LBB69_900>
    98c4:	f7f00a93          	li	s5,-129

00000000000098c8 <.LBB69_900>:
    98c8:	9d043503          	ld	a0,-1584(s0)
    98cc:	02150533          	mul	a0,a0,ra
    98d0:	018785b3          	add	a1,a5,s8
    98d4:	00b50533          	add	a0,a0,a1
    98d8:	42855513          	srai	a0,a0,0x28
    98dc:	00050b93          	mv	s7,a0
    98e0:	00a4c463          	blt	s1,a0,98e8 <.LBB69_902>
    98e4:	f7f00b93          	li	s7,-129

00000000000098e8 <.LBB69_902>:
    98e8:	02180533          	mul	a0,a6,ra
    98ec:	000015b7          	lui	a1,0x1
    98f0:	40b405b3          	sub	a1,s0,a1
    98f4:	b805b583          	ld	a1,-1152(a1) # b80 <.LBB69_3+0x95c>
    98f8:	018585b3          	add	a1,a1,s8
    98fc:	00b50533          	add	a0,a0,a1
    9900:	42855513          	srai	a0,a0,0x28
    9904:	9ca43823          	sd	a0,-1584(s0)
    9908:	000015b7          	lui	a1,0x1
    990c:	40b405b3          	sub	a1,s0,a1
    9910:	c705b603          	ld	a2,-912(a1) # c70 <.LBB69_3+0xa4c>
    9914:	00028793          	mv	a5,t0
    9918:	00a4c663          	blt	s1,a0,9924 <.LBB69_904>
    991c:	f7f00513          	li	a0,-129
    9920:	9ca43823          	sd	a0,-1584(s0)

0000000000009924 <.LBB69_904>:
    9924:	00001537          	lui	a0,0x1
    9928:	40a40533          	sub	a0,s0,a0
    992c:	bb053503          	ld	a0,-1104(a0) # bb0 <.LBB69_3+0x98c>
    9930:	02150533          	mul	a0,a0,ra
    9934:	000015b7          	lui	a1,0x1
    9938:	40b405b3          	sub	a1,s0,a1
    993c:	c185b583          	ld	a1,-1000(a1) # c18 <.LBB69_3+0x9f4>
    9940:	018585b3          	add	a1,a1,s8
    9944:	00b50533          	add	a0,a0,a1
    9948:	42855513          	srai	a0,a0,0x28
    994c:	9ca43023          	sd	a0,-1600(s0)
    9950:	00a4c663          	blt	s1,a0,995c <.LBB69_906>
    9954:	f7f00513          	li	a0,-129
    9958:	9ca43023          	sd	a0,-1600(s0)

000000000000995c <.LBB69_906>:
    995c:	00001537          	lui	a0,0x1
    9960:	40a40533          	sub	a0,s0,a0
    9964:	bd853503          	ld	a0,-1064(a0) # bd8 <.LBB69_3+0x9b4>
    9968:	02150533          	mul	a0,a0,ra
    996c:	018605b3          	add	a1,a2,s8
    9970:	00b50533          	add	a0,a0,a1
    9974:	42855813          	srai	a6,a0,0x28
    9978:	95043603          	ld	a2,-1712(s0)
    997c:	0104c463          	blt	s1,a6,9984 <.LBB69_908>
    9980:	f7f00813          	li	a6,-129

0000000000009984 <.LBB69_908>:
    9984:	00001537          	lui	a0,0x1
    9988:	40a40533          	sub	a0,s0,a0
    998c:	cf053503          	ld	a0,-784(a0) # cf0 <.LBB69_3+0xacc>
    9990:	02150533          	mul	a0,a0,ra
    9994:	000015b7          	lui	a1,0x1
    9998:	40b405b3          	sub	a1,s0,a1
    999c:	cb85b583          	ld	a1,-840(a1) # cb8 <.LBB69_3+0xa94>
    99a0:	018585b3          	add	a1,a1,s8
    99a4:	00b50533          	add	a0,a0,a1
    99a8:	42855c93          	srai	s9,a0,0x28
    99ac:	0194c463          	blt	s1,s9,99b4 <.LBB69_910>
    99b0:	f7f00c93          	li	s9,-129

00000000000099b4 <.LBB69_910>:
    99b4:	00001537          	lui	a0,0x1
    99b8:	40a40533          	sub	a0,s0,a0
    99bc:	d6053503          	ld	a0,-672(a0) # d60 <.LBB69_3+0xb3c>
    99c0:	02150533          	mul	a0,a0,ra
    99c4:	000015b7          	lui	a1,0x1
    99c8:	40b405b3          	sub	a1,s0,a1
    99cc:	d285b583          	ld	a1,-728(a1) # d28 <.LBB69_3+0xb04>
    99d0:	018585b3          	add	a1,a1,s8
    99d4:	00b50533          	add	a0,a0,a1
    99d8:	42855513          	srai	a0,a0,0x28
    99dc:	00050293          	mv	t0,a0
    99e0:	00a4c463          	blt	s1,a0,99e8 <.LBB69_912>
    99e4:	f7f00293          	li	t0,-129

00000000000099e8 <.LBB69_912>:
    99e8:	00001537          	lui	a0,0x1
    99ec:	40a40533          	sub	a0,s0,a0
    99f0:	dd853503          	ld	a0,-552(a0) # dd8 <.LBB69_3+0xbb4>
    99f4:	02150533          	mul	a0,a0,ra
    99f8:	000015b7          	lui	a1,0x1
    99fc:	40b405b3          	sub	a1,s0,a1
    9a00:	da05b583          	ld	a1,-608(a1) # da0 <.LBB69_3+0xb7c>
    9a04:	018585b3          	add	a1,a1,s8
    9a08:	00b50533          	add	a0,a0,a1
    9a0c:	42855513          	srai	a0,a0,0x28
    9a10:	00050393          	mv	t2,a0
    9a14:	00a4c463          	blt	s1,a0,9a1c <.LBB69_914>
    9a18:	f7f00393          	li	t2,-129

0000000000009a1c <.LBB69_914>:
    9a1c:	00001537          	lui	a0,0x1
    9a20:	40a40533          	sub	a0,s0,a0
    9a24:	e5853503          	ld	a0,-424(a0) # e58 <.LBB69_3+0xc34>
    9a28:	02150533          	mul	a0,a0,ra
    9a2c:	000015b7          	lui	a1,0x1
    9a30:	40b405b3          	sub	a1,s0,a1
    9a34:	e205b583          	ld	a1,-480(a1) # e20 <.LBB69_3+0xbfc>
    9a38:	018585b3          	add	a1,a1,s8
    9a3c:	00b50533          	add	a0,a0,a1
    9a40:	42855513          	srai	a0,a0,0x28
    9a44:	00050f13          	mv	t5,a0
    9a48:	00a4c463          	blt	s1,a0,9a50 <.LBB69_916>
    9a4c:	f7f00f13          	li	t5,-129

0000000000009a50 <.LBB69_916>:
    9a50:	00001537          	lui	a0,0x1
    9a54:	40a40533          	sub	a0,s0,a0
    9a58:	ed053503          	ld	a0,-304(a0) # ed0 <.LBB69_4+0x58>
    9a5c:	02150533          	mul	a0,a0,ra
    9a60:	000015b7          	lui	a1,0x1
    9a64:	40b405b3          	sub	a1,s0,a1
    9a68:	e985b583          	ld	a1,-360(a1) # e98 <.LBB69_4+0x20>
    9a6c:	018585b3          	add	a1,a1,s8
    9a70:	00b50533          	add	a0,a0,a1
    9a74:	42855513          	srai	a0,a0,0x28
    9a78:	00050913          	mv	s2,a0
    9a7c:	00a4c463          	blt	s1,a0,9a84 <.LBB69_918>
    9a80:	f7f00913          	li	s2,-129

0000000000009a84 <.LBB69_918>:
    9a84:	00001537          	lui	a0,0x1
    9a88:	40a40533          	sub	a0,s0,a0
    9a8c:	f4853503          	ld	a0,-184(a0) # f48 <.LBB69_4+0xd0>
    9a90:	02150533          	mul	a0,a0,ra
    9a94:	000015b7          	lui	a1,0x1
    9a98:	40b405b3          	sub	a1,s0,a1
    9a9c:	f185b583          	ld	a1,-232(a1) # f18 <.LBB69_4+0xa0>
    9aa0:	018585b3          	add	a1,a1,s8
    9aa4:	00b50533          	add	a0,a0,a1
    9aa8:	42855513          	srai	a0,a0,0x28
    9aac:	00050a13          	mv	s4,a0
    9ab0:	00a4c463          	blt	s1,a0,9ab8 <.LBB69_920>
    9ab4:	f7f00a13          	li	s4,-129

0000000000009ab8 <.LBB69_920>:
    9ab8:	00001537          	lui	a0,0x1
    9abc:	40a40533          	sub	a0,s0,a0
    9ac0:	fb853503          	ld	a0,-72(a0) # fb8 <.LBB69_4+0x140>
    9ac4:	02150533          	mul	a0,a0,ra
    9ac8:	000015b7          	lui	a1,0x1
    9acc:	40b405b3          	sub	a1,s0,a1
    9ad0:	f885b583          	ld	a1,-120(a1) # f88 <.LBB69_4+0x110>
    9ad4:	018585b3          	add	a1,a1,s8
    9ad8:	00b50533          	add	a0,a0,a1
    9adc:	42855513          	srai	a0,a0,0x28
    9ae0:	00050b13          	mv	s6,a0
    9ae4:	00a4c463          	blt	s1,a0,9aec <.LBB69_922>
    9ae8:	f7f00b13          	li	s6,-129

0000000000009aec <.LBB69_922>:
    9aec:	00001537          	lui	a0,0x1
    9af0:	40a40533          	sub	a0,s0,a0
    9af4:	03053503          	ld	a0,48(a0) # 1030 <.LBB69_4+0x1b8>
    9af8:	02150533          	mul	a0,a0,ra
    9afc:	000015b7          	lui	a1,0x1
    9b00:	40b405b3          	sub	a1,s0,a1
    9b04:	0005b583          	ld	a1,0(a1) # 1000 <.LBB69_4+0x188>
    9b08:	018585b3          	add	a1,a1,s8
    9b0c:	00b50533          	add	a0,a0,a1
    9b10:	42855513          	srai	a0,a0,0x28
    9b14:	00050d93          	mv	s11,a0
    9b18:	00a4c463          	blt	s1,a0,9b20 <.LBB69_924>
    9b1c:	f7f00d93          	li	s11,-129

0000000000009b20 <.LBB69_924>:
    9b20:	00001537          	lui	a0,0x1
    9b24:	40a40533          	sub	a0,s0,a0
    9b28:	0a853503          	ld	a0,168(a0) # 10a8 <.LBB69_4+0x230>
    9b2c:	02150533          	mul	a0,a0,ra
    9b30:	000015b7          	lui	a1,0x1
    9b34:	40b405b3          	sub	a1,s0,a1
    9b38:	0705b583          	ld	a1,112(a1) # 1070 <.LBB69_4+0x1f8>
    9b3c:	018585b3          	add	a1,a1,s8
    9b40:	00b50533          	add	a0,a0,a1
    9b44:	42855513          	srai	a0,a0,0x28
    9b48:	9aa43c23          	sd	a0,-1608(s0)
    9b4c:	00a4c663          	blt	s1,a0,9b58 <.LBB69_926>
    9b50:	f7f00513          	li	a0,-129
    9b54:	9aa43c23          	sd	a0,-1608(s0)

0000000000009b58 <.LBB69_926>:
    9b58:	00001537          	lui	a0,0x1
    9b5c:	40a40533          	sub	a0,s0,a0
    9b60:	12053503          	ld	a0,288(a0) # 1120 <.LBB69_4+0x2a8>
    9b64:	02150533          	mul	a0,a0,ra
    9b68:	000015b7          	lui	a1,0x1
    9b6c:	40b405b3          	sub	a1,s0,a1
    9b70:	0e85b583          	ld	a1,232(a1) # 10e8 <.LBB69_4+0x270>
    9b74:	018585b3          	add	a1,a1,s8
    9b78:	00b50533          	add	a0,a0,a1
    9b7c:	42855513          	srai	a0,a0,0x28
    9b80:	9aa43823          	sd	a0,-1616(s0)
    9b84:	00a4c663          	blt	s1,a0,9b90 <.LBB69_928>
    9b88:	f7f00513          	li	a0,-129
    9b8c:	9aa43823          	sd	a0,-1616(s0)

0000000000009b90 <.LBB69_928>:
    9b90:	00001537          	lui	a0,0x1
    9b94:	40a40533          	sub	a0,s0,a0
    9b98:	19853503          	ld	a0,408(a0) # 1198 <.LBB69_4+0x320>
    9b9c:	02150533          	mul	a0,a0,ra
    9ba0:	000015b7          	lui	a1,0x1
    9ba4:	40b405b3          	sub	a1,s0,a1
    9ba8:	1685b583          	ld	a1,360(a1) # 1168 <.LBB69_4+0x2f0>
    9bac:	018585b3          	add	a1,a1,s8
    9bb0:	00b50533          	add	a0,a0,a1
    9bb4:	42855513          	srai	a0,a0,0x28
    9bb8:	9aa43423          	sd	a0,-1624(s0)
    9bbc:	00a4c663          	blt	s1,a0,9bc8 <.LBB69_930>
    9bc0:	f7f00513          	li	a0,-129
    9bc4:	9aa43423          	sd	a0,-1624(s0)

0000000000009bc8 <.LBB69_930>:
    9bc8:	00001537          	lui	a0,0x1
    9bcc:	40a40533          	sub	a0,s0,a0
    9bd0:	21053503          	ld	a0,528(a0) # 1210 <.LBB69_4+0x398>
    9bd4:	02150533          	mul	a0,a0,ra
    9bd8:	000015b7          	lui	a1,0x1
    9bdc:	40b405b3          	sub	a1,s0,a1
    9be0:	1d85b583          	ld	a1,472(a1) # 11d8 <.LBB69_4+0x360>
    9be4:	018585b3          	add	a1,a1,s8
    9be8:	00b50533          	add	a0,a0,a1
    9bec:	42855513          	srai	a0,a0,0x28
    9bf0:	9aa43023          	sd	a0,-1632(s0)
    9bf4:	00a4c663          	blt	s1,a0,9c00 <.LBB69_932>
    9bf8:	f7f00513          	li	a0,-129
    9bfc:	9aa43023          	sd	a0,-1632(s0)

0000000000009c00 <.LBB69_932>:
    9c00:	00001537          	lui	a0,0x1
    9c04:	40a40533          	sub	a0,s0,a0
    9c08:	28853503          	ld	a0,648(a0) # 1288 <.LBB69_4+0x410>
    9c0c:	02150533          	mul	a0,a0,ra
    9c10:	000015b7          	lui	a1,0x1
    9c14:	40b405b3          	sub	a1,s0,a1
    9c18:	2505b583          	ld	a1,592(a1) # 1250 <.LBB69_4+0x3d8>
    9c1c:	018585b3          	add	a1,a1,s8
    9c20:	00b50533          	add	a0,a0,a1
    9c24:	42855513          	srai	a0,a0,0x28
    9c28:	98a43c23          	sd	a0,-1640(s0)
    9c2c:	00a4c663          	blt	s1,a0,9c38 <.LBB69_934>
    9c30:	f7f00513          	li	a0,-129
    9c34:	98a43c23          	sd	a0,-1640(s0)

0000000000009c38 <.LBB69_934>:
    9c38:	00001537          	lui	a0,0x1
    9c3c:	40a40533          	sub	a0,s0,a0
    9c40:	2f853503          	ld	a0,760(a0) # 12f8 <.LBB69_4+0x480>
    9c44:	02150533          	mul	a0,a0,ra
    9c48:	000015b7          	lui	a1,0x1
    9c4c:	40b405b3          	sub	a1,s0,a1
    9c50:	2c85b583          	ld	a1,712(a1) # 12c8 <.LBB69_4+0x450>
    9c54:	018585b3          	add	a1,a1,s8
    9c58:	00b50533          	add	a0,a0,a1
    9c5c:	42855513          	srai	a0,a0,0x28
    9c60:	98a43823          	sd	a0,-1648(s0)
    9c64:	00a4c663          	blt	s1,a0,9c70 <.LBB69_936>
    9c68:	f7f00513          	li	a0,-129
    9c6c:	98a43823          	sd	a0,-1648(s0)

0000000000009c70 <.LBB69_936>:
    9c70:	00001537          	lui	a0,0x1
    9c74:	40a40533          	sub	a0,s0,a0
    9c78:	36053503          	ld	a0,864(a0) # 1360 <.LBB69_4+0x4e8>
    9c7c:	02150533          	mul	a0,a0,ra
    9c80:	000015b7          	lui	a1,0x1
    9c84:	40b405b3          	sub	a1,s0,a1
    9c88:	3305b583          	ld	a1,816(a1) # 1330 <.LBB69_4+0x4b8>
    9c8c:	018585b3          	add	a1,a1,s8
    9c90:	00b50533          	add	a0,a0,a1
    9c94:	42855513          	srai	a0,a0,0x28
    9c98:	98a43423          	sd	a0,-1656(s0)
    9c9c:	00a4c663          	blt	s1,a0,9ca8 <.LBB69_938>
    9ca0:	f7f00513          	li	a0,-129
    9ca4:	98a43423          	sd	a0,-1656(s0)

0000000000009ca8 <.LBB69_938>:
    9ca8:	00001537          	lui	a0,0x1
    9cac:	40a40533          	sub	a0,s0,a0
    9cb0:	3c853503          	ld	a0,968(a0) # 13c8 <.LBB69_4+0x550>
    9cb4:	02150533          	mul	a0,a0,ra
    9cb8:	000015b7          	lui	a1,0x1
    9cbc:	40b405b3          	sub	a1,s0,a1
    9cc0:	3985b583          	ld	a1,920(a1) # 1398 <.LBB69_4+0x520>
    9cc4:	018585b3          	add	a1,a1,s8
    9cc8:	00b50533          	add	a0,a0,a1
    9ccc:	42855513          	srai	a0,a0,0x28
    9cd0:	98a43023          	sd	a0,-1664(s0)
    9cd4:	00a4c663          	blt	s1,a0,9ce0 <.LBB69_940>
    9cd8:	f7f00513          	li	a0,-129
    9cdc:	98a43023          	sd	a0,-1664(s0)

0000000000009ce0 <.LBB69_940>:
    9ce0:	00001537          	lui	a0,0x1
    9ce4:	40a40533          	sub	a0,s0,a0
    9ce8:	42053503          	ld	a0,1056(a0) # 1420 <.LBB69_5+0x4>
    9cec:	02150533          	mul	a0,a0,ra
    9cf0:	000015b7          	lui	a1,0x1
    9cf4:	40b405b3          	sub	a1,s0,a1
    9cf8:	3f85b583          	ld	a1,1016(a1) # 13f8 <.LBB69_4+0x580>
    9cfc:	018585b3          	add	a1,a1,s8
    9d00:	00b50533          	add	a0,a0,a1
    9d04:	42855513          	srai	a0,a0,0x28
    9d08:	96a43c23          	sd	a0,-1672(s0)
    9d0c:	00a4c663          	blt	s1,a0,9d18 <.LBB69_942>
    9d10:	f7f00513          	li	a0,-129
    9d14:	96a43c23          	sd	a0,-1672(s0)

0000000000009d18 <.LBB69_942>:
    9d18:	00001537          	lui	a0,0x1
    9d1c:	40a40533          	sub	a0,s0,a0
    9d20:	47853503          	ld	a0,1144(a0) # 1478 <.LBB69_5+0x5c>
    9d24:	02150533          	mul	a0,a0,ra
    9d28:	000015b7          	lui	a1,0x1
    9d2c:	40b405b3          	sub	a1,s0,a1
    9d30:	4485b583          	ld	a1,1096(a1) # 1448 <.LBB69_5+0x2c>
    9d34:	018585b3          	add	a1,a1,s8
    9d38:	00b50533          	add	a0,a0,a1
    9d3c:	42855513          	srai	a0,a0,0x28
    9d40:	96a43823          	sd	a0,-1680(s0)
    9d44:	00a4c663          	blt	s1,a0,9d50 <.LBB69_944>
    9d48:	f7f00513          	li	a0,-129
    9d4c:	96a43823          	sd	a0,-1680(s0)

0000000000009d50 <.LBB69_944>:
    9d50:	00001537          	lui	a0,0x1
    9d54:	40a40533          	sub	a0,s0,a0
    9d58:	4c853503          	ld	a0,1224(a0) # 14c8 <.LBB69_5+0xac>
    9d5c:	02150533          	mul	a0,a0,ra
    9d60:	000015b7          	lui	a1,0x1
    9d64:	40b405b3          	sub	a1,s0,a1
    9d68:	4985b583          	ld	a1,1176(a1) # 1498 <.LBB69_5+0x7c>
    9d6c:	018585b3          	add	a1,a1,s8
    9d70:	00b50533          	add	a0,a0,a1
    9d74:	42855513          	srai	a0,a0,0x28
    9d78:	96a43423          	sd	a0,-1688(s0)
    9d7c:	00a4c663          	blt	s1,a0,9d88 <.LBB69_946>
    9d80:	f7f00513          	li	a0,-129
    9d84:	96a43423          	sd	a0,-1688(s0)

0000000000009d88 <.LBB69_946>:
    9d88:	00001537          	lui	a0,0x1
    9d8c:	40a40533          	sub	a0,s0,a0
    9d90:	52053503          	ld	a0,1312(a0) # 1520 <.LBB69_5+0x104>
    9d94:	02150533          	mul	a0,a0,ra
    9d98:	000015b7          	lui	a1,0x1
    9d9c:	40b405b3          	sub	a1,s0,a1
    9da0:	4f05b583          	ld	a1,1264(a1) # 14f0 <.LBB69_5+0xd4>
    9da4:	018585b3          	add	a1,a1,s8
    9da8:	00b50533          	add	a0,a0,a1
    9dac:	42855513          	srai	a0,a0,0x28
    9db0:	94a43c23          	sd	a0,-1704(s0)
    9db4:	00a4c663          	blt	s1,a0,9dc0 <.LBB69_948>
    9db8:	f7f00513          	li	a0,-129
    9dbc:	94a43c23          	sd	a0,-1704(s0)

0000000000009dc0 <.LBB69_948>:
    9dc0:	00001537          	lui	a0,0x1
    9dc4:	40a40533          	sub	a0,s0,a0
    9dc8:	57853503          	ld	a0,1400(a0) # 1578 <.LBB69_5+0x15c>
    9dcc:	02150533          	mul	a0,a0,ra
    9dd0:	000015b7          	lui	a1,0x1
    9dd4:	40b405b3          	sub	a1,s0,a1
    9dd8:	5505b583          	ld	a1,1360(a1) # 1550 <.LBB69_5+0x134>
    9ddc:	018585b3          	add	a1,a1,s8
    9de0:	00b50533          	add	a0,a0,a1
    9de4:	42855513          	srai	a0,a0,0x28
    9de8:	94a43423          	sd	a0,-1720(s0)
    9dec:	00a4c663          	blt	s1,a0,9df8 <.LBB69_950>
    9df0:	f7f00513          	li	a0,-129
    9df4:	94a43423          	sd	a0,-1720(s0)

0000000000009df8 <.LBB69_950>:
    9df8:	00001537          	lui	a0,0x1
    9dfc:	40a40533          	sub	a0,s0,a0
    9e00:	6e853503          	ld	a0,1768(a0) # 16e8 <.LBB69_5+0x2cc>
    9e04:	02150533          	mul	a0,a0,ra
    9e08:	000015b7          	lui	a1,0x1
    9e0c:	40b405b3          	sub	a1,s0,a1
    9e10:	5a85b583          	ld	a1,1448(a1) # 15a8 <.LBB69_5+0x18c>
    9e14:	018585b3          	add	a1,a1,s8
    9e18:	00b50533          	add	a0,a0,a1
    9e1c:	42855513          	srai	a0,a0,0x28
    9e20:	92a43c23          	sd	a0,-1736(s0)
    9e24:	00a4c663          	blt	s1,a0,9e30 <.LBB69_952>
    9e28:	f7f00513          	li	a0,-129
    9e2c:	92a43c23          	sd	a0,-1736(s0)

0000000000009e30 <.LBB69_952>:
    9e30:	00001537          	lui	a0,0x1
    9e34:	40a40533          	sub	a0,s0,a0
    9e38:	7d053503          	ld	a0,2000(a0) # 17d0 <.LBB69_5+0x3b4>
    9e3c:	02150533          	mul	a0,a0,ra
    9e40:	000015b7          	lui	a1,0x1
    9e44:	40b405b3          	sub	a1,s0,a1
    9e48:	7205b583          	ld	a1,1824(a1) # 1720 <.LBB69_5+0x304>
    9e4c:	018585b3          	add	a1,a1,s8
    9e50:	00b50533          	add	a0,a0,a1
    9e54:	42855513          	srai	a0,a0,0x28
    9e58:	92a43423          	sd	a0,-1752(s0)
    9e5c:	00a4c663          	blt	s1,a0,9e68 <.LBB69_954>
    9e60:	f7f00513          	li	a0,-129
    9e64:	92a43423          	sd	a0,-1752(s0)

0000000000009e68 <.LBB69_954>:
    9e68:	8d043503          	ld	a0,-1840(s0)
    9e6c:	02150533          	mul	a0,a0,ra
    9e70:	8b843583          	ld	a1,-1864(s0)
    9e74:	018585b3          	add	a1,a1,s8
    9e78:	00b50533          	add	a0,a0,a1
    9e7c:	42855513          	srai	a0,a0,0x28
    9e80:	90a43c23          	sd	a0,-1768(s0)
    9e84:	00a4c663          	blt	s1,a0,9e90 <.LBB69_956>
    9e88:	f7f00513          	li	a0,-129
    9e8c:	90a43c23          	sd	a0,-1768(s0)

0000000000009e90 <.LBB69_956>:
    9e90:	90843503          	ld	a0,-1784(s0)
    9e94:	02150533          	mul	a0,a0,ra
    9e98:	8e843583          	ld	a1,-1816(s0)
    9e9c:	018585b3          	add	a1,a1,s8
    9ea0:	00b50533          	add	a0,a0,a1
    9ea4:	42855513          	srai	a0,a0,0x28
    9ea8:	90a43423          	sd	a0,-1784(s0)
    9eac:	00a4c663          	blt	s1,a0,9eb8 <.LBB69_958>
    9eb0:	f7f00513          	li	a0,-129
    9eb4:	90a43423          	sd	a0,-1784(s0)

0000000000009eb8 <.LBB69_958>:
    9eb8:	90043503          	ld	a0,-1792(s0)
    9ebc:	02150533          	mul	a0,a0,ra
    9ec0:	8f843583          	ld	a1,-1800(s0)
    9ec4:	018585b3          	add	a1,a1,s8
    9ec8:	00b50533          	add	a0,a0,a1
    9ecc:	42855513          	srai	a0,a0,0x28
    9ed0:	8ea43c23          	sd	a0,-1800(s0)
    9ed4:	00a4c663          	blt	s1,a0,9ee0 <.LBB69_960>
    9ed8:	f7f00513          	li	a0,-129
    9edc:	8ea43c23          	sd	a0,-1800(s0)

0000000000009ee0 <.LBB69_960>:
    9ee0:	92043503          	ld	a0,-1760(s0)
    9ee4:	02150533          	mul	a0,a0,ra
    9ee8:	91043583          	ld	a1,-1776(s0)
    9eec:	018585b3          	add	a1,a1,s8
    9ef0:	00b50533          	add	a0,a0,a1
    9ef4:	42855513          	srai	a0,a0,0x28
    9ef8:	8ea43423          	sd	a0,-1816(s0)
    9efc:	00a4c663          	blt	s1,a0,9f08 <.LBB69_962>
    9f00:	f7f00513          	li	a0,-129
    9f04:	8ea43423          	sd	a0,-1816(s0)

0000000000009f08 <.LBB69_962>:
    9f08:	94043503          	ld	a0,-1728(s0)
    9f0c:	02150533          	mul	a0,a0,ra
    9f10:	93043583          	ld	a1,-1744(s0)
    9f14:	018585b3          	add	a1,a1,s8
    9f18:	00b50533          	add	a0,a0,a1
    9f1c:	42855513          	srai	a0,a0,0x28
    9f20:	8ca43c23          	sd	a0,-1832(s0)
    9f24:	00a4c663          	blt	s1,a0,9f30 <.LBB69_964>
    9f28:	f7f00513          	li	a0,-129
    9f2c:	8ca43c23          	sd	a0,-1832(s0)

0000000000009f30 <.LBB69_964>:
    9f30:	96043503          	ld	a0,-1696(s0)
    9f34:	02150533          	mul	a0,a0,ra
    9f38:	018605b3          	add	a1,a2,s8
    9f3c:	00b50533          	add	a0,a0,a1
    9f40:	42855513          	srai	a0,a0,0x28
    9f44:	8ca43423          	sd	a0,-1848(s0)
    9f48:	00a4c663          	blt	s1,a0,9f54 <.LBB69_966>
    9f4c:	f7f00513          	li	a0,-129
    9f50:	8ca43423          	sd	a0,-1848(s0)

0000000000009f54 <.LBB69_966>:
    9f54:	02188533          	mul	a0,a7,ra
    9f58:	000015b7          	lui	a1,0x1
    9f5c:	40b405b3          	sub	a1,s0,a1
    9f60:	6805b583          	ld	a1,1664(a1) # 1680 <.LBB69_5+0x264>
    9f64:	018585b3          	add	a1,a1,s8
    9f68:	00b50533          	add	a0,a0,a1
    9f6c:	42855513          	srai	a0,a0,0x28
    9f70:	00a4c463          	blt	s1,a0,9f78 <.LBB69_968>
    9f74:	f7f00513          	li	a0,-129

0000000000009f78 <.LBB69_968>:
    9f78:	96a43023          	sd	a0,-1696(s0)
    9f7c:	00001537          	lui	a0,0x1
    9f80:	40a40533          	sub	a0,s0,a0
    9f84:	c5053503          	ld	a0,-944(a0) # c50 <.LBB69_3+0xa2c>
    9f88:	02150533          	mul	a0,a0,ra
    9f8c:	018785b3          	add	a1,a5,s8
    9f90:	00b50533          	add	a0,a0,a1
    9f94:	42855513          	srai	a0,a0,0x28
    9f98:	000015b7          	lui	a1,0x1
    9f9c:	40b405b3          	sub	a1,s0,a1
    9fa0:	6985b883          	ld	a7,1688(a1) # 1698 <.LBB69_5+0x27c>
    9fa4:	94a43823          	sd	a0,-1712(s0)
    9fa8:	00a4c663          	blt	s1,a0,9fb4 <.LBB69_970>
    9fac:	f7f00513          	li	a0,-129
    9fb0:	94a43823          	sd	a0,-1712(s0)

0000000000009fb4 <.LBB69_970>:
    9fb4:	00001537          	lui	a0,0x1
    9fb8:	40a40533          	sub	a0,s0,a0
    9fbc:	77053503          	ld	a0,1904(a0) # 1770 <.LBB69_5+0x354>
    9fc0:	02150533          	mul	a0,a0,ra
    9fc4:	000015b7          	lui	a1,0x1
    9fc8:	40b405b3          	sub	a1,s0,a1
    9fcc:	c685b583          	ld	a1,-920(a1) # c68 <.LBB69_3+0xa44>
    9fd0:	018585b3          	add	a1,a1,s8
    9fd4:	00b50533          	add	a0,a0,a1
    9fd8:	42855513          	srai	a0,a0,0x28
    9fdc:	94a43023          	sd	a0,-1728(s0)
    9fe0:	00a4c663          	blt	s1,a0,9fec <.LBB69_972>
    9fe4:	f7f00513          	li	a0,-129
    9fe8:	94a43023          	sd	a0,-1728(s0)

0000000000009fec <.LBB69_972>:
    9fec:	00001537          	lui	a0,0x1
    9ff0:	40a40533          	sub	a0,s0,a0
    9ff4:	ce853503          	ld	a0,-792(a0) # ce8 <.LBB69_3+0xac4>
    9ff8:	02150533          	mul	a0,a0,ra
    9ffc:	000015b7          	lui	a1,0x1
    a000:	40b405b3          	sub	a1,s0,a1
    a004:	cb05b583          	ld	a1,-848(a1) # cb0 <.LBB69_3+0xa8c>
    a008:	018585b3          	add	a1,a1,s8
    a00c:	00b50533          	add	a0,a0,a1
    a010:	42855513          	srai	a0,a0,0x28
    a014:	92a43823          	sd	a0,-1744(s0)
    a018:	00a4c663          	blt	s1,a0,a024 <.LBB69_974>
    a01c:	f7f00513          	li	a0,-129
    a020:	92a43823          	sd	a0,-1744(s0)

000000000000a024 <.LBB69_974>:
    a024:	00001537          	lui	a0,0x1
    a028:	40a40533          	sub	a0,s0,a0
    a02c:	d5853503          	ld	a0,-680(a0) # d58 <.LBB69_3+0xb34>
    a030:	02150533          	mul	a0,a0,ra
    a034:	000015b7          	lui	a1,0x1
    a038:	40b405b3          	sub	a1,s0,a1
    a03c:	d205b583          	ld	a1,-736(a1) # d20 <.LBB69_3+0xafc>
    a040:	018585b3          	add	a1,a1,s8
    a044:	00b50533          	add	a0,a0,a1
    a048:	42855513          	srai	a0,a0,0x28
    a04c:	92a43023          	sd	a0,-1760(s0)
    a050:	00a4c663          	blt	s1,a0,a05c <.LBB69_976>
    a054:	f7f00513          	li	a0,-129
    a058:	92a43023          	sd	a0,-1760(s0)

000000000000a05c <.LBB69_976>:
    a05c:	00001537          	lui	a0,0x1
    a060:	40a40533          	sub	a0,s0,a0
    a064:	dd053503          	ld	a0,-560(a0) # dd0 <.LBB69_3+0xbac>
    a068:	02150533          	mul	a0,a0,ra
    a06c:	000015b7          	lui	a1,0x1
    a070:	40b405b3          	sub	a1,s0,a1
    a074:	d985b583          	ld	a1,-616(a1) # d98 <.LBB69_3+0xb74>
    a078:	018585b3          	add	a1,a1,s8
    a07c:	00b50533          	add	a0,a0,a1
    a080:	42855513          	srai	a0,a0,0x28
    a084:	90a43823          	sd	a0,-1776(s0)
    a088:	00a4c663          	blt	s1,a0,a094 <.LBB69_978>
    a08c:	f7f00513          	li	a0,-129
    a090:	90a43823          	sd	a0,-1776(s0)

000000000000a094 <.LBB69_978>:
    a094:	00001537          	lui	a0,0x1
    a098:	40a40533          	sub	a0,s0,a0
    a09c:	e5053503          	ld	a0,-432(a0) # e50 <.LBB69_3+0xc2c>
    a0a0:	02150533          	mul	a0,a0,ra
    a0a4:	000015b7          	lui	a1,0x1
    a0a8:	40b405b3          	sub	a1,s0,a1
    a0ac:	e185b583          	ld	a1,-488(a1) # e18 <.LBB69_3+0xbf4>
    a0b0:	018585b3          	add	a1,a1,s8
    a0b4:	00b50533          	add	a0,a0,a1
    a0b8:	42855513          	srai	a0,a0,0x28
    a0bc:	90a43023          	sd	a0,-1792(s0)
    a0c0:	00a4c663          	blt	s1,a0,a0cc <.LBB69_980>
    a0c4:	f7f00513          	li	a0,-129
    a0c8:	90a43023          	sd	a0,-1792(s0)

000000000000a0cc <.LBB69_980>:
    a0cc:	00001537          	lui	a0,0x1
    a0d0:	40a40533          	sub	a0,s0,a0
    a0d4:	ec853503          	ld	a0,-312(a0) # ec8 <.LBB69_4+0x50>
    a0d8:	02150533          	mul	a0,a0,ra
    a0dc:	000015b7          	lui	a1,0x1
    a0e0:	40b405b3          	sub	a1,s0,a1
    a0e4:	e905b583          	ld	a1,-368(a1) # e90 <.LBB69_4+0x18>
    a0e8:	018585b3          	add	a1,a1,s8
    a0ec:	00b50533          	add	a0,a0,a1
    a0f0:	42855513          	srai	a0,a0,0x28
    a0f4:	8ea43823          	sd	a0,-1808(s0)
    a0f8:	00a4c663          	blt	s1,a0,a104 <.LBB69_982>
    a0fc:	f7f00513          	li	a0,-129
    a100:	8ea43823          	sd	a0,-1808(s0)

000000000000a104 <.LBB69_982>:
    a104:	00001537          	lui	a0,0x1
    a108:	40a40533          	sub	a0,s0,a0
    a10c:	74053503          	ld	a0,1856(a0) # 1740 <.LBB69_5+0x324>
    a110:	02150533          	mul	a0,a0,ra
    a114:	000015b7          	lui	a1,0x1
    a118:	40b405b3          	sub	a1,s0,a1
    a11c:	f105b583          	ld	a1,-240(a1) # f10 <.LBB69_4+0x98>
    a120:	018585b3          	add	a1,a1,s8
    a124:	00b50533          	add	a0,a0,a1
    a128:	42855513          	srai	a0,a0,0x28
    a12c:	8ea43023          	sd	a0,-1824(s0)
    a130:	00a4c663          	blt	s1,a0,a13c <.LBB69_984>
    a134:	f7f00513          	li	a0,-129
    a138:	8ea43023          	sd	a0,-1824(s0)

000000000000a13c <.LBB69_984>:
    a13c:	00001537          	lui	a0,0x1
    a140:	40a40533          	sub	a0,s0,a0
    a144:	73853503          	ld	a0,1848(a0) # 1738 <.LBB69_5+0x31c>
    a148:	02150533          	mul	a0,a0,ra
    a14c:	000015b7          	lui	a1,0x1
    a150:	40b405b3          	sub	a1,s0,a1
    a154:	f805b583          	ld	a1,-128(a1) # f80 <.LBB69_4+0x108>
    a158:	018585b3          	add	a1,a1,s8
    a15c:	00b50533          	add	a0,a0,a1
    a160:	42855513          	srai	a0,a0,0x28
    a164:	8ca43823          	sd	a0,-1840(s0)
    a168:	00a4c663          	blt	s1,a0,a174 <.LBB69_986>
    a16c:	f7f00513          	li	a0,-129
    a170:	8ca43823          	sd	a0,-1840(s0)

000000000000a174 <.LBB69_986>:
    a174:	00001537          	lui	a0,0x1
    a178:	40a40533          	sub	a0,s0,a0
    a17c:	73053503          	ld	a0,1840(a0) # 1730 <.LBB69_5+0x314>
    a180:	02150533          	mul	a0,a0,ra
    a184:	000015b7          	lui	a1,0x1
    a188:	40b405b3          	sub	a1,s0,a1
    a18c:	ff85b583          	ld	a1,-8(a1) # ff8 <.LBB69_4+0x180>
    a190:	018585b3          	add	a1,a1,s8
    a194:	00b50533          	add	a0,a0,a1
    a198:	42855513          	srai	a0,a0,0x28
    a19c:	8ca43023          	sd	a0,-1856(s0)
    a1a0:	00a4c663          	blt	s1,a0,a1ac <.LBB69_988>
    a1a4:	f7f00513          	li	a0,-129
    a1a8:	8ca43023          	sd	a0,-1856(s0)

000000000000a1ac <.LBB69_988>:
    a1ac:	00001537          	lui	a0,0x1
    a1b0:	40a40533          	sub	a0,s0,a0
    a1b4:	0a053503          	ld	a0,160(a0) # 10a0 <.LBB69_4+0x228>
    a1b8:	02150533          	mul	a0,a0,ra
    a1bc:	000015b7          	lui	a1,0x1
    a1c0:	40b405b3          	sub	a1,s0,a1
    a1c4:	0685b583          	ld	a1,104(a1) # 1068 <.LBB69_4+0x1f0>
    a1c8:	018585b3          	add	a1,a1,s8
    a1cc:	00b50533          	add	a0,a0,a1
    a1d0:	42855513          	srai	a0,a0,0x28
    a1d4:	8aa43c23          	sd	a0,-1864(s0)
    a1d8:	00a4c663          	blt	s1,a0,a1e4 <.LBB69_990>
    a1dc:	f7f00513          	li	a0,-129
    a1e0:	8aa43c23          	sd	a0,-1864(s0)

000000000000a1e4 <.LBB69_990>:
    a1e4:	00001537          	lui	a0,0x1
    a1e8:	40a40533          	sub	a0,s0,a0
    a1ec:	11853503          	ld	a0,280(a0) # 1118 <.LBB69_4+0x2a0>
    a1f0:	02150533          	mul	a0,a0,ra
    a1f4:	000015b7          	lui	a1,0x1
    a1f8:	40b405b3          	sub	a1,s0,a1
    a1fc:	0e05b583          	ld	a1,224(a1) # 10e0 <.LBB69_4+0x268>
    a200:	018585b3          	add	a1,a1,s8
    a204:	00b50533          	add	a0,a0,a1
    a208:	42855513          	srai	a0,a0,0x28
    a20c:	8aa43823          	sd	a0,-1872(s0)
    a210:	00a4c663          	blt	s1,a0,a21c <.LBB69_992>
    a214:	f7f00513          	li	a0,-129
    a218:	8aa43823          	sd	a0,-1872(s0)

000000000000a21c <.LBB69_992>:
    a21c:	00001537          	lui	a0,0x1
    a220:	40a40533          	sub	a0,s0,a0
    a224:	71853503          	ld	a0,1816(a0) # 1718 <.LBB69_5+0x2fc>
    a228:	02150533          	mul	a0,a0,ra
    a22c:	000015b7          	lui	a1,0x1
    a230:	40b405b3          	sub	a1,s0,a1
    a234:	1605b583          	ld	a1,352(a1) # 1160 <.LBB69_4+0x2e8>
    a238:	018585b3          	add	a1,a1,s8
    a23c:	00b50533          	add	a0,a0,a1
    a240:	42855513          	srai	a0,a0,0x28
    a244:	8aa43423          	sd	a0,-1880(s0)
    a248:	00a4c663          	blt	s1,a0,a254 <.LBB69_994>
    a24c:	f7f00513          	li	a0,-129
    a250:	8aa43423          	sd	a0,-1880(s0)

000000000000a254 <.LBB69_994>:
    a254:	00001537          	lui	a0,0x1
    a258:	40a40533          	sub	a0,s0,a0
    a25c:	20853503          	ld	a0,520(a0) # 1208 <.LBB69_4+0x390>
    a260:	02150533          	mul	a0,a0,ra
    a264:	000015b7          	lui	a1,0x1
    a268:	40b405b3          	sub	a1,s0,a1
    a26c:	1d05b583          	ld	a1,464(a1) # 11d0 <.LBB69_4+0x358>
    a270:	018585b3          	add	a1,a1,s8
    a274:	00b50533          	add	a0,a0,a1
    a278:	42855513          	srai	a0,a0,0x28
    a27c:	8aa43023          	sd	a0,-1888(s0)
    a280:	00a4c663          	blt	s1,a0,a28c <.LBB69_996>
    a284:	f7f00513          	li	a0,-129
    a288:	8aa43023          	sd	a0,-1888(s0)

000000000000a28c <.LBB69_996>:
    a28c:	00001537          	lui	a0,0x1
    a290:	40a40533          	sub	a0,s0,a0
    a294:	28053503          	ld	a0,640(a0) # 1280 <.LBB69_4+0x408>
    a298:	02150533          	mul	a0,a0,ra
    a29c:	000015b7          	lui	a1,0x1
    a2a0:	40b405b3          	sub	a1,s0,a1
    a2a4:	2485b583          	ld	a1,584(a1) # 1248 <.LBB69_4+0x3d0>
    a2a8:	018585b3          	add	a1,a1,s8
    a2ac:	00b50533          	add	a0,a0,a1
    a2b0:	42855513          	srai	a0,a0,0x28
    a2b4:	88a43c23          	sd	a0,-1896(s0)
    a2b8:	00a4c663          	blt	s1,a0,a2c4 <.LBB69_998>
    a2bc:	f7f00513          	li	a0,-129
    a2c0:	88a43c23          	sd	a0,-1896(s0)

000000000000a2c4 <.LBB69_998>:
    a2c4:	00001537          	lui	a0,0x1
    a2c8:	40a40533          	sub	a0,s0,a0
    a2cc:	2f053503          	ld	a0,752(a0) # 12f0 <.LBB69_4+0x478>
    a2d0:	02150533          	mul	a0,a0,ra
    a2d4:	000015b7          	lui	a1,0x1
    a2d8:	40b405b3          	sub	a1,s0,a1
    a2dc:	2c05b583          	ld	a1,704(a1) # 12c0 <.LBB69_4+0x448>
    a2e0:	018585b3          	add	a1,a1,s8
    a2e4:	00b50533          	add	a0,a0,a1
    a2e8:	42855513          	srai	a0,a0,0x28
    a2ec:	88a43823          	sd	a0,-1904(s0)
    a2f0:	00a4c663          	blt	s1,a0,a2fc <.LBB69_1000>
    a2f4:	f7f00513          	li	a0,-129
    a2f8:	88a43823          	sd	a0,-1904(s0)

000000000000a2fc <.LBB69_1000>:
    a2fc:	00001537          	lui	a0,0x1
    a300:	40a40533          	sub	a0,s0,a0
    a304:	35853503          	ld	a0,856(a0) # 1358 <.LBB69_4+0x4e0>
    a308:	02150533          	mul	a0,a0,ra
    a30c:	000015b7          	lui	a1,0x1
    a310:	40b405b3          	sub	a1,s0,a1
    a314:	3285b583          	ld	a1,808(a1) # 1328 <.LBB69_4+0x4b0>
    a318:	018585b3          	add	a1,a1,s8
    a31c:	00b50533          	add	a0,a0,a1
    a320:	42855513          	srai	a0,a0,0x28
    a324:	88a43423          	sd	a0,-1912(s0)
    a328:	00a4c663          	blt	s1,a0,a334 <.LBB69_1002>
    a32c:	f7f00513          	li	a0,-129
    a330:	88a43423          	sd	a0,-1912(s0)

000000000000a334 <.LBB69_1002>:
    a334:	00001537          	lui	a0,0x1
    a338:	40a40533          	sub	a0,s0,a0
    a33c:	3c053503          	ld	a0,960(a0) # 13c0 <.LBB69_4+0x548>
    a340:	021505b3          	mul	a1,a0,ra
    a344:	00001537          	lui	a0,0x1
    a348:	40a40533          	sub	a0,s0,a0
    a34c:	39053603          	ld	a2,912(a0) # 1390 <.LBB69_4+0x518>
    a350:	01860633          	add	a2,a2,s8
    a354:	00c585b3          	add	a1,a1,a2
    a358:	4285d593          	srai	a1,a1,0x28
    a35c:	88b43023          	sd	a1,-1920(s0)
    a360:	00b4c663          	blt	s1,a1,a36c <.LBB69_1004>
    a364:	f7f00513          	li	a0,-129
    a368:	88a43023          	sd	a0,-1920(s0)

000000000000a36c <.LBB69_1004>:
    a36c:	00001537          	lui	a0,0x1
    a370:	40a40533          	sub	a0,s0,a0
    a374:	69053503          	ld	a0,1680(a0) # 1690 <.LBB69_5+0x274>
    a378:	021505b3          	mul	a1,a0,ra
    a37c:	00001537          	lui	a0,0x1
    a380:	40a40533          	sub	a0,s0,a0
    a384:	68853603          	ld	a2,1672(a0) # 1688 <.LBB69_5+0x26c>
    a388:	01860633          	add	a2,a2,s8
    a38c:	00c585b3          	add	a1,a1,a2
    a390:	4285d593          	srai	a1,a1,0x28
    a394:	86b43c23          	sd	a1,-1928(s0)
    a398:	00b4c663          	blt	s1,a1,a3a4 <.LBB69_1006>
    a39c:	f7f00513          	li	a0,-129
    a3a0:	86a43c23          	sd	a0,-1928(s0)

000000000000a3a4 <.LBB69_1006>:
    a3a4:	00001537          	lui	a0,0x1
    a3a8:	40a40533          	sub	a0,s0,a0
    a3ac:	6a053503          	ld	a0,1696(a0) # 16a0 <.LBB69_5+0x284>
    a3b0:	02150633          	mul	a2,a0,ra
    a3b4:	018888b3          	add	a7,a7,s8
    a3b8:	01160633          	add	a2,a2,a7
    a3bc:	42865613          	srai	a2,a2,0x28
    a3c0:	86c43823          	sd	a2,-1936(s0)
    a3c4:	00c4c663          	blt	s1,a2,a3d0 <.LBB69_1008>
    a3c8:	f7f00513          	li	a0,-129
    a3cc:	86a43823          	sd	a0,-1936(s0)

000000000000a3d0 <.LBB69_1008>:
    a3d0:	00001537          	lui	a0,0x1
    a3d4:	40a40533          	sub	a0,s0,a0
    a3d8:	6d853503          	ld	a0,1752(a0) # 16d8 <.LBB69_5+0x2bc>
    a3dc:	021508b3          	mul	a7,a0,ra
    a3e0:	00001537          	lui	a0,0x1
    a3e4:	40a40533          	sub	a0,s0,a0
    a3e8:	6a853f83          	ld	t6,1704(a0) # 16a8 <.LBB69_5+0x28c>
    a3ec:	018f8fb3          	add	t6,t6,s8
    a3f0:	01f888b3          	add	a7,a7,t6
    a3f4:	4288d513          	srai	a0,a7,0x28
    a3f8:	86a43423          	sd	a0,-1944(s0)
    a3fc:	00a4c663          	blt	s1,a0,a408 <.LBB69_1010>
    a400:	f7f00513          	li	a0,-129
    a404:	86a43423          	sd	a0,-1944(s0)

000000000000a408 <.LBB69_1010>:
    a408:	00001537          	lui	a0,0x1
    a40c:	40a40533          	sub	a0,s0,a0
    a410:	6d053503          	ld	a0,1744(a0) # 16d0 <.LBB69_5+0x2b4>
    a414:	021508b3          	mul	a7,a0,ra
    a418:	00001537          	lui	a0,0x1
    a41c:	40a40533          	sub	a0,s0,a0
    a420:	6b053f83          	ld	t6,1712(a0) # 16b0 <.LBB69_5+0x294>
    a424:	018f8fb3          	add	t6,t6,s8
    a428:	01f888b3          	add	a7,a7,t6
    a42c:	4288d513          	srai	a0,a7,0x28
    a430:	86a43023          	sd	a0,-1952(s0)
    a434:	00a4c663          	blt	s1,a0,a440 <.LBB69_1012>
    a438:	f7f00513          	li	a0,-129
    a43c:	86a43023          	sd	a0,-1952(s0)

000000000000a440 <.LBB69_1012>:
    a440:	00001537          	lui	a0,0x1
    a444:	40a40533          	sub	a0,s0,a0
    a448:	6c053503          	ld	a0,1728(a0) # 16c0 <.LBB69_5+0x2a4>
    a44c:	021508b3          	mul	a7,a0,ra
    a450:	00001537          	lui	a0,0x1
    a454:	40a40533          	sub	a0,s0,a0
    a458:	6b853f83          	ld	t6,1720(a0) # 16b8 <.LBB69_5+0x29c>
    a45c:	018f8fb3          	add	t6,t6,s8
    a460:	01f888b3          	add	a7,a7,t6
    a464:	4288d513          	srai	a0,a7,0x28
    a468:	84a43c23          	sd	a0,-1960(s0)
    a46c:	00a4c663          	blt	s1,a0,a478 <.LBB69_1014>
    a470:	f7f00513          	li	a0,-129
    a474:	84a43c23          	sd	a0,-1960(s0)

000000000000a478 <.LBB69_1014>:
    a478:	00001537          	lui	a0,0x1
    a47c:	40a40533          	sub	a0,s0,a0
    a480:	6e053503          	ld	a0,1760(a0) # 16e0 <.LBB69_5+0x2c4>
    a484:	021508b3          	mul	a7,a0,ra
    a488:	00001537          	lui	a0,0x1
    a48c:	40a40533          	sub	a0,s0,a0
    a490:	6c853f83          	ld	t6,1736(a0) # 16c8 <.LBB69_5+0x2ac>
    a494:	018f8fb3          	add	t6,t6,s8
    a498:	01f888b3          	add	a7,a7,t6
    a49c:	4288d513          	srai	a0,a7,0x28
    a4a0:	84a43823          	sd	a0,-1968(s0)
    a4a4:	00a4c663          	blt	s1,a0,a4b0 <.LBB69_1016>
    a4a8:	f7f00513          	li	a0,-129
    a4ac:	84a43823          	sd	a0,-1968(s0)

000000000000a4b0 <.LBB69_1016>:
    a4b0:	00001537          	lui	a0,0x1
    a4b4:	40a40533          	sub	a0,s0,a0
    a4b8:	7c853503          	ld	a0,1992(a0) # 17c8 <.LBB69_5+0x3ac>
    a4bc:	021508b3          	mul	a7,a0,ra
    a4c0:	00001537          	lui	a0,0x1
    a4c4:	40a40533          	sub	a0,s0,a0
    a4c8:	71053f83          	ld	t6,1808(a0) # 1710 <.LBB69_5+0x2f4>
    a4cc:	018f8fb3          	add	t6,t6,s8
    a4d0:	01f888b3          	add	a7,a7,t6
    a4d4:	4288d593          	srai	a1,a7,0x28
    a4d8:	00b4c463          	blt	s1,a1,a4e0 <.LBB69_1018>
    a4dc:	f7f00593          	li	a1,-129

000000000000a4e0 <.LBB69_1018>:
    a4e0:	00001537          	lui	a0,0x1
    a4e4:	40a40533          	sub	a0,s0,a0
    a4e8:	7f053603          	ld	a2,2032(a0) # 17f0 <.LBB69_5+0x3d4>
    a4ec:	021608b3          	mul	a7,a2,ra
    a4f0:	00001537          	lui	a0,0x1
    a4f4:	40a40533          	sub	a0,s0,a0
    a4f8:	7e853f83          	ld	t6,2024(a0) # 17e8 <.LBB69_5+0x3cc>
    a4fc:	018f8fb3          	add	t6,t6,s8
    a500:	01f888b3          	add	a7,a7,t6
    a504:	4288d613          	srai	a2,a7,0x28
    a508:	00c4c463          	blt	s1,a2,a510 <.LBB69_1020>
    a50c:	f7f00613          	li	a2,-129

000000000000a510 <.LBB69_1020>:
    a510:	000c8793          	mv	a5,s9
    a514:	80043883          	ld	a7,-2048(s0)
    a518:	021888b3          	mul	a7,a7,ra
    a51c:	00001537          	lui	a0,0x1
    a520:	40a40533          	sub	a0,s0,a0
    a524:	7f853f83          	ld	t6,2040(a0) # 17f8 <.LBB69_5+0x3dc>
    a528:	018f8fb3          	add	t6,t6,s8
    a52c:	01f888b3          	add	a7,a7,t6
    a530:	4288dc13          	srai	s8,a7,0x28
    a534:	0184c463          	blt	s1,s8,a53c <.LBB69_1022>
    a538:	f7f00c13          	li	s8,-129

000000000000a53c <.LBB69_1022>:
    a53c:	81043883          	ld	a7,-2032(s0)
    a540:	021888b3          	mul	a7,a7,ra
    a544:	e6043f83          	ld	t6,-416(s0)
    a548:	80843e83          	ld	t4,-2040(s0)
    a54c:	01fe8fb3          	add	t6,t4,t6
    a550:	01f888b3          	add	a7,a7,t6
    a554:	4288d893          	srai	a7,a7,0x28
    a558:	0114c463          	blt	s1,a7,a560 <.LBB69_1024>
    a55c:	f7f00893          	li	a7,-129

000000000000a560 <.LBB69_1024>:
    a560:	00080e93          	mv	t4,a6
    a564:	82043803          	ld	a6,-2016(s0)
    a568:	02180fb3          	mul	t6,a6,ra
    a56c:	e6043c83          	ld	s9,-416(s0)
    a570:	81843803          	ld	a6,-2024(s0)
    a574:	01980cb3          	add	s9,a6,s9
    a578:	019f8fb3          	add	t6,t6,s9
    a57c:	428fd513          	srai	a0,t6,0x28
    a580:	00a4c463          	blt	s1,a0,a588 <.LBB69_1026>
    a584:	f7f00513          	li	a0,-129

000000000000a588 <.LBB69_1026>:
    a588:	00070813          	mv	a6,a4
    a58c:	83043703          	ld	a4,-2000(s0)
    a590:	02170fb3          	mul	t6,a4,ra
    a594:	e6043c83          	ld	s9,-416(s0)
    a598:	82843703          	ld	a4,-2008(s0)
    a59c:	01970cb3          	add	s9,a4,s9
    a5a0:	019f8fb3          	add	t6,t6,s9
    a5a4:	428fdc93          	srai	s9,t6,0x28
    a5a8:	0194c463          	blt	s1,s9,a5b0 <.LBB69_1028>
    a5ac:	f7f00c93          	li	s9,-129

000000000000a5b0 <.LBB69_1028>:
    a5b0:	84843f83          	ld	t6,-1976(s0)
    a5b4:	021f8fb3          	mul	t6,t6,ra
    a5b8:	e6043083          	ld	ra,-416(s0)
    a5bc:	83843703          	ld	a4,-1992(s0)
    a5c0:	001700b3          	add	ra,a4,ra
    a5c4:	001f8fb3          	add	t6,t6,ra
    a5c8:	428fdf93          	srai	t6,t6,0x28
    a5cc:	7df4d463          	bge	s1,t6,ad94 <.LBB69_1285>
    a5d0:	07e00493          	li	s1,126
    a5d4:	d6043083          	ld	ra,-672(s0)
    a5d8:	7c90d663          	bge	ra,s1,ada4 <.LBB69_1286>

000000000000a5dc <.LBB69_1030>:
    a5dc:	e4843083          	ld	ra,-440(s0)
    a5e0:	85043423          	sd	a6,-1976(s0)
    a5e4:	7c90da63          	bge	ra,s1,adb8 <.LBB69_1287>

000000000000a5e8 <.LBB69_1031>:
    a5e8:	e5843083          	ld	ra,-424(s0)
    a5ec:	000e8813          	mv	a6,t4
    a5f0:	7c90de63          	bge	ra,s1,adcc <.LBB69_1288>

000000000000a5f4 <.LBB69_1032>:
    a5f4:	e7043083          	ld	ra,-400(s0)
    a5f8:	000d0e93          	mv	t4,s10
    a5fc:	7e90d263          	bge	ra,s1,ade0 <.LBB69_1289>

000000000000a600 <.LBB69_1033>:
    a600:	e8043083          	ld	ra,-384(s0)
    a604:	00078d13          	mv	s10,a5
    a608:	7e90d663          	bge	ra,s1,adf4 <.LBB69_1290>

000000000000a60c <.LBB69_1034>:
    a60c:	e9043083          	ld	ra,-368(s0)
    a610:	84043703          	ld	a4,-1984(s0)
    a614:	7e90da63          	bge	ra,s1,ae08 <.LBB69_1291>

000000000000a618 <.LBB69_1035>:
    a618:	ea043083          	ld	ra,-352(s0)
    a61c:	7e90de63          	bge	ra,s1,ae18 <.LBB69_1292>

000000000000a620 <.LBB69_1036>:
    a620:	eb043083          	ld	ra,-336(s0)
    a624:	0090d2e3          	bge	ra,s1,ae28 <.LBB69_1293>

000000000000a628 <.LBB69_1037>:
    a628:	ec043083          	ld	ra,-320(s0)
    a62c:	0090d6e3          	bge	ra,s1,ae38 <.LBB69_1294>

000000000000a630 <.LBB69_1038>:
    a630:	ed043083          	ld	ra,-304(s0)
    a634:	0090dae3          	bge	ra,s1,ae48 <.LBB69_1295>

000000000000a638 <.LBB69_1039>:
    a638:	ee043083          	ld	ra,-288(s0)
    a63c:	0090dee3          	bge	ra,s1,ae58 <.LBB69_1296>

000000000000a640 <.LBB69_1040>:
    a640:	ee843083          	ld	ra,-280(s0)
    a644:	0290d2e3          	bge	ra,s1,ae68 <.LBB69_1297>

000000000000a648 <.LBB69_1041>:
    a648:	ef043083          	ld	ra,-272(s0)
    a64c:	0290d6e3          	bge	ra,s1,ae78 <.LBB69_1298>

000000000000a650 <.LBB69_1042>:
    a650:	ef843083          	ld	ra,-264(s0)
    a654:	0290dae3          	bge	ra,s1,ae88 <.LBB69_1299>

000000000000a658 <.LBB69_1043>:
    a658:	f0043083          	ld	ra,-256(s0)
    a65c:	0290dee3          	bge	ra,s1,ae98 <.LBB69_1300>

000000000000a660 <.LBB69_1044>:
    a660:	f0843083          	ld	ra,-248(s0)
    a664:	0490d2e3          	bge	ra,s1,aea8 <.LBB69_1301>

000000000000a668 <.LBB69_1045>:
    a668:	f1043083          	ld	ra,-240(s0)
    a66c:	0490d6e3          	bge	ra,s1,aeb8 <.LBB69_1302>

000000000000a670 <.LBB69_1046>:
    a670:	f1843083          	ld	ra,-232(s0)
    a674:	0490dae3          	bge	ra,s1,aec8 <.LBB69_1303>

000000000000a678 <.LBB69_1047>:
    a678:	f2043083          	ld	ra,-224(s0)
    a67c:	0490dee3          	bge	ra,s1,aed8 <.LBB69_1304>

000000000000a680 <.LBB69_1048>:
    a680:	f2843083          	ld	ra,-216(s0)
    a684:	0690d2e3          	bge	ra,s1,aee8 <.LBB69_1305>

000000000000a688 <.LBB69_1049>:
    a688:	f3043083          	ld	ra,-208(s0)
    a68c:	0690d6e3          	bge	ra,s1,aef8 <.LBB69_1306>

000000000000a690 <.LBB69_1050>:
    a690:	f3843083          	ld	ra,-200(s0)
    a694:	0690dae3          	bge	ra,s1,af08 <.LBB69_1307>

000000000000a698 <.LBB69_1051>:
    a698:	f4043083          	ld	ra,-192(s0)
    a69c:	0690dee3          	bge	ra,s1,af18 <.LBB69_1308>

000000000000a6a0 <.LBB69_1052>:
    a6a0:	f4843083          	ld	ra,-184(s0)
    a6a4:	0890d2e3          	bge	ra,s1,af28 <.LBB69_1309>

000000000000a6a8 <.LBB69_1053>:
    a6a8:	f5043083          	ld	ra,-176(s0)
    a6ac:	0890d6e3          	bge	ra,s1,af38 <.LBB69_1310>

000000000000a6b0 <.LBB69_1054>:
    a6b0:	f5843083          	ld	ra,-168(s0)
    a6b4:	0890dae3          	bge	ra,s1,af48 <.LBB69_1311>

000000000000a6b8 <.LBB69_1055>:
    a6b8:	f6043083          	ld	ra,-160(s0)
    a6bc:	0890dee3          	bge	ra,s1,af58 <.LBB69_1312>

000000000000a6c0 <.LBB69_1056>:
    a6c0:	f6843083          	ld	ra,-152(s0)
    a6c4:	0a90d2e3          	bge	ra,s1,af68 <.LBB69_1313>

000000000000a6c8 <.LBB69_1057>:
    a6c8:	f7043083          	ld	ra,-144(s0)
    a6cc:	0a90d6e3          	bge	ra,s1,af78 <.LBB69_1314>

000000000000a6d0 <.LBB69_1058>:
    a6d0:	f7843083          	ld	ra,-136(s0)
    a6d4:	0a90dae3          	bge	ra,s1,af88 <.LBB69_1315>

000000000000a6d8 <.LBB69_1059>:
    a6d8:	f8043083          	ld	ra,-128(s0)
    a6dc:	0a90dee3          	bge	ra,s1,af98 <.LBB69_1316>

000000000000a6e0 <.LBB69_1060>:
    a6e0:	f8843083          	ld	ra,-120(s0)
    a6e4:	0c90d2e3          	bge	ra,s1,afa8 <.LBB69_1317>

000000000000a6e8 <.LBB69_1061>:
    a6e8:	d3843083          	ld	ra,-712(s0)
    a6ec:	0c90d6e3          	bge	ra,s1,afb8 <.LBB69_1318>

000000000000a6f0 <.LBB69_1062>:
    a6f0:	d4843083          	ld	ra,-696(s0)
    a6f4:	0c90dae3          	bge	ra,s1,afc8 <.LBB69_1319>

000000000000a6f8 <.LBB69_1063>:
    a6f8:	d5843083          	ld	ra,-680(s0)
    a6fc:	0c90dee3          	bge	ra,s1,afd8 <.LBB69_1320>

000000000000a700 <.LBB69_1064>:
    a700:	d7043083          	ld	ra,-656(s0)
    a704:	0e90d2e3          	bge	ra,s1,afe8 <.LBB69_1321>

000000000000a708 <.LBB69_1065>:
    a708:	d8043083          	ld	ra,-640(s0)
    a70c:	0e90d6e3          	bge	ra,s1,aff8 <.LBB69_1322>

000000000000a710 <.LBB69_1066>:
    a710:	d9043083          	ld	ra,-624(s0)
    a714:	0e90dae3          	bge	ra,s1,b008 <.LBB69_1323>

000000000000a718 <.LBB69_1067>:
    a718:	da043083          	ld	ra,-608(s0)
    a71c:	0e90dee3          	bge	ra,s1,b018 <.LBB69_1324>

000000000000a720 <.LBB69_1068>:
    a720:	db043083          	ld	ra,-592(s0)
    a724:	1090d2e3          	bge	ra,s1,b028 <.LBB69_1325>

000000000000a728 <.LBB69_1069>:
    a728:	dc043083          	ld	ra,-576(s0)
    a72c:	1090d6e3          	bge	ra,s1,b038 <.LBB69_1326>

000000000000a730 <.LBB69_1070>:
    a730:	dd043083          	ld	ra,-560(s0)
    a734:	1090dae3          	bge	ra,s1,b048 <.LBB69_1327>

000000000000a738 <.LBB69_1071>:
    a738:	de043083          	ld	ra,-544(s0)
    a73c:	1090dee3          	bge	ra,s1,b058 <.LBB69_1328>

000000000000a740 <.LBB69_1072>:
    a740:	de843083          	ld	ra,-536(s0)
    a744:	1290d2e3          	bge	ra,s1,b068 <.LBB69_1329>

000000000000a748 <.LBB69_1073>:
    a748:	df043083          	ld	ra,-528(s0)
    a74c:	1290d6e3          	bge	ra,s1,b078 <.LBB69_1330>

000000000000a750 <.LBB69_1074>:
    a750:	df843083          	ld	ra,-520(s0)
    a754:	1290dae3          	bge	ra,s1,b088 <.LBB69_1331>

000000000000a758 <.LBB69_1075>:
    a758:	e0043083          	ld	ra,-512(s0)
    a75c:	1290dee3          	bge	ra,s1,b098 <.LBB69_1332>

000000000000a760 <.LBB69_1076>:
    a760:	e0843083          	ld	ra,-504(s0)
    a764:	1490d2e3          	bge	ra,s1,b0a8 <.LBB69_1333>

000000000000a768 <.LBB69_1077>:
    a768:	e1043083          	ld	ra,-496(s0)
    a76c:	1490d6e3          	bge	ra,s1,b0b8 <.LBB69_1334>

000000000000a770 <.LBB69_1078>:
    a770:	e1843083          	ld	ra,-488(s0)
    a774:	1490dae3          	bge	ra,s1,b0c8 <.LBB69_1335>

000000000000a778 <.LBB69_1079>:
    a778:	e2043083          	ld	ra,-480(s0)
    a77c:	1490dee3          	bge	ra,s1,b0d8 <.LBB69_1336>

000000000000a780 <.LBB69_1080>:
    a780:	e2843083          	ld	ra,-472(s0)
    a784:	1690d2e3          	bge	ra,s1,b0e8 <.LBB69_1337>

000000000000a788 <.LBB69_1081>:
    a788:	e3043083          	ld	ra,-464(s0)
    a78c:	1690d6e3          	bge	ra,s1,b0f8 <.LBB69_1338>

000000000000a790 <.LBB69_1082>:
    a790:	e3843083          	ld	ra,-456(s0)
    a794:	1690dae3          	bge	ra,s1,b108 <.LBB69_1339>

000000000000a798 <.LBB69_1083>:
    a798:	e4043083          	ld	ra,-448(s0)
    a79c:	1690dee3          	bge	ra,s1,b118 <.LBB69_1340>

000000000000a7a0 <.LBB69_1084>:
    a7a0:	e5043083          	ld	ra,-432(s0)
    a7a4:	1890d2e3          	bge	ra,s1,b128 <.LBB69_1341>

000000000000a7a8 <.LBB69_1085>:
    a7a8:	e6843083          	ld	ra,-408(s0)
    a7ac:	1890d6e3          	bge	ra,s1,b138 <.LBB69_1342>

000000000000a7b0 <.LBB69_1086>:
    a7b0:	e7843083          	ld	ra,-392(s0)
    a7b4:	1890dae3          	bge	ra,s1,b148 <.LBB69_1343>

000000000000a7b8 <.LBB69_1087>:
    a7b8:	e8843083          	ld	ra,-376(s0)
    a7bc:	1890dee3          	bge	ra,s1,b158 <.LBB69_1344>

000000000000a7c0 <.LBB69_1088>:
    a7c0:	e9843083          	ld	ra,-360(s0)
    a7c4:	1a90d2e3          	bge	ra,s1,b168 <.LBB69_1345>

000000000000a7c8 <.LBB69_1089>:
    a7c8:	ea843083          	ld	ra,-344(s0)
    a7cc:	1a90d6e3          	bge	ra,s1,b178 <.LBB69_1346>

000000000000a7d0 <.LBB69_1090>:
    a7d0:	eb843083          	ld	ra,-328(s0)
    a7d4:	1a90dae3          	bge	ra,s1,b188 <.LBB69_1347>

000000000000a7d8 <.LBB69_1091>:
    a7d8:	ec843083          	ld	ra,-312(s0)
    a7dc:	1a90dee3          	bge	ra,s1,b198 <.LBB69_1348>

000000000000a7e0 <.LBB69_1092>:
    a7e0:	ed843083          	ld	ra,-296(s0)
    a7e4:	1c90d2e3          	bge	ra,s1,b1a8 <.LBB69_1349>

000000000000a7e8 <.LBB69_1093>:
    a7e8:	c3843083          	ld	ra,-968(s0)
    a7ec:	1c90d6e3          	bge	ra,s1,b1b8 <.LBB69_1350>

000000000000a7f0 <.LBB69_1094>:
    a7f0:	c4843083          	ld	ra,-952(s0)
    a7f4:	1c90dae3          	bge	ra,s1,b1c8 <.LBB69_1351>

000000000000a7f8 <.LBB69_1095>:
    a7f8:	c5843083          	ld	ra,-936(s0)
    a7fc:	1c90dee3          	bge	ra,s1,b1d8 <.LBB69_1352>

000000000000a800 <.LBB69_1096>:
    a800:	c6843083          	ld	ra,-920(s0)
    a804:	1e90d2e3          	bge	ra,s1,b1e8 <.LBB69_1353>

000000000000a808 <.LBB69_1097>:
    a808:	c7843083          	ld	ra,-904(s0)
    a80c:	1e90d6e3          	bge	ra,s1,b1f8 <.LBB69_1354>

000000000000a810 <.LBB69_1098>:
    a810:	c8843083          	ld	ra,-888(s0)
    a814:	1e90dae3          	bge	ra,s1,b208 <.LBB69_1355>

000000000000a818 <.LBB69_1099>:
    a818:	c9843083          	ld	ra,-872(s0)
    a81c:	1e90dee3          	bge	ra,s1,b218 <.LBB69_1356>

000000000000a820 <.LBB69_1100>:
    a820:	ca843083          	ld	ra,-856(s0)
    a824:	2090d2e3          	bge	ra,s1,b228 <.LBB69_1357>

000000000000a828 <.LBB69_1101>:
    a828:	cb843083          	ld	ra,-840(s0)
    a82c:	2090d6e3          	bge	ra,s1,b238 <.LBB69_1358>

000000000000a830 <.LBB69_1102>:
    a830:	cc843083          	ld	ra,-824(s0)
    a834:	2090dae3          	bge	ra,s1,b248 <.LBB69_1359>

000000000000a838 <.LBB69_1103>:
    a838:	cd843083          	ld	ra,-808(s0)
    a83c:	2090dee3          	bge	ra,s1,b258 <.LBB69_1360>

000000000000a840 <.LBB69_1104>:
    a840:	ce043083          	ld	ra,-800(s0)
    a844:	2290d2e3          	bge	ra,s1,b268 <.LBB69_1361>

000000000000a848 <.LBB69_1105>:
    a848:	ce843083          	ld	ra,-792(s0)
    a84c:	2290d6e3          	bge	ra,s1,b278 <.LBB69_1362>

000000000000a850 <.LBB69_1106>:
    a850:	cf043083          	ld	ra,-784(s0)
    a854:	2290dae3          	bge	ra,s1,b288 <.LBB69_1363>

000000000000a858 <.LBB69_1107>:
    a858:	cf843083          	ld	ra,-776(s0)
    a85c:	2290dee3          	bge	ra,s1,b298 <.LBB69_1364>

000000000000a860 <.LBB69_1108>:
    a860:	d0043083          	ld	ra,-768(s0)
    a864:	2490d2e3          	bge	ra,s1,b2a8 <.LBB69_1365>

000000000000a868 <.LBB69_1109>:
    a868:	d0843083          	ld	ra,-760(s0)
    a86c:	2490d6e3          	bge	ra,s1,b2b8 <.LBB69_1366>

000000000000a870 <.LBB69_1110>:
    a870:	d1043083          	ld	ra,-752(s0)
    a874:	2490dae3          	bge	ra,s1,b2c8 <.LBB69_1367>

000000000000a878 <.LBB69_1111>:
    a878:	d1843083          	ld	ra,-744(s0)
    a87c:	2490dee3          	bge	ra,s1,b2d8 <.LBB69_1368>

000000000000a880 <.LBB69_1112>:
    a880:	d2043083          	ld	ra,-736(s0)
    a884:	2690d2e3          	bge	ra,s1,b2e8 <.LBB69_1369>

000000000000a888 <.LBB69_1113>:
    a888:	d2843083          	ld	ra,-728(s0)
    a88c:	2690d6e3          	bge	ra,s1,b2f8 <.LBB69_1370>

000000000000a890 <.LBB69_1114>:
    a890:	d3043083          	ld	ra,-720(s0)
    a894:	2690dae3          	bge	ra,s1,b308 <.LBB69_1371>

000000000000a898 <.LBB69_1115>:
    a898:	d4043083          	ld	ra,-704(s0)
    a89c:	2690dee3          	bge	ra,s1,b318 <.LBB69_1372>

000000000000a8a0 <.LBB69_1116>:
    a8a0:	d5043083          	ld	ra,-688(s0)
    a8a4:	2890d2e3          	bge	ra,s1,b328 <.LBB69_1373>

000000000000a8a8 <.LBB69_1117>:
    a8a8:	d6843083          	ld	ra,-664(s0)
    a8ac:	2890d6e3          	bge	ra,s1,b338 <.LBB69_1374>

000000000000a8b0 <.LBB69_1118>:
    a8b0:	d7843083          	ld	ra,-648(s0)
    a8b4:	2890dae3          	bge	ra,s1,b348 <.LBB69_1375>

000000000000a8b8 <.LBB69_1119>:
    a8b8:	d8843083          	ld	ra,-632(s0)
    a8bc:	2890dee3          	bge	ra,s1,b358 <.LBB69_1376>

000000000000a8c0 <.LBB69_1120>:
    a8c0:	d9843083          	ld	ra,-616(s0)
    a8c4:	2a90d2e3          	bge	ra,s1,b368 <.LBB69_1377>

000000000000a8c8 <.LBB69_1121>:
    a8c8:	da843083          	ld	ra,-600(s0)
    a8cc:	2a90d6e3          	bge	ra,s1,b378 <.LBB69_1378>

000000000000a8d0 <.LBB69_1122>:
    a8d0:	db843083          	ld	ra,-584(s0)
    a8d4:	2a90dae3          	bge	ra,s1,b388 <.LBB69_1379>

000000000000a8d8 <.LBB69_1123>:
    a8d8:	dc843083          	ld	ra,-568(s0)
    a8dc:	2a90dee3          	bge	ra,s1,b398 <.LBB69_1380>

000000000000a8e0 <.LBB69_1124>:
    a8e0:	dd843083          	ld	ra,-552(s0)
    a8e4:	2c90d2e3          	bge	ra,s1,b3a8 <.LBB69_1381>

000000000000a8e8 <.LBB69_1125>:
    a8e8:	b3843083          	ld	ra,-1224(s0)
    a8ec:	2c90d6e3          	bge	ra,s1,b3b8 <.LBB69_1382>

000000000000a8f0 <.LBB69_1126>:
    a8f0:	b4843083          	ld	ra,-1208(s0)
    a8f4:	2c90dae3          	bge	ra,s1,b3c8 <.LBB69_1383>

000000000000a8f8 <.LBB69_1127>:
    a8f8:	b5843083          	ld	ra,-1192(s0)
    a8fc:	2c90dee3          	bge	ra,s1,b3d8 <.LBB69_1384>

000000000000a900 <.LBB69_1128>:
    a900:	b6843083          	ld	ra,-1176(s0)
    a904:	2e90d2e3          	bge	ra,s1,b3e8 <.LBB69_1385>

000000000000a908 <.LBB69_1129>:
    a908:	b7843083          	ld	ra,-1160(s0)
    a90c:	2e90d6e3          	bge	ra,s1,b3f8 <.LBB69_1386>

000000000000a910 <.LBB69_1130>:
    a910:	b8843083          	ld	ra,-1144(s0)
    a914:	2e90dae3          	bge	ra,s1,b408 <.LBB69_1387>

000000000000a918 <.LBB69_1131>:
    a918:	b9843083          	ld	ra,-1128(s0)
    a91c:	2e90dee3          	bge	ra,s1,b418 <.LBB69_1388>

000000000000a920 <.LBB69_1132>:
    a920:	ba843083          	ld	ra,-1112(s0)
    a924:	3090d2e3          	bge	ra,s1,b428 <.LBB69_1389>

000000000000a928 <.LBB69_1133>:
    a928:	bb843083          	ld	ra,-1096(s0)
    a92c:	3090d6e3          	bge	ra,s1,b438 <.LBB69_1390>

000000000000a930 <.LBB69_1134>:
    a930:	bc843083          	ld	ra,-1080(s0)
    a934:	3090dae3          	bge	ra,s1,b448 <.LBB69_1391>

000000000000a938 <.LBB69_1135>:
    a938:	bd843083          	ld	ra,-1064(s0)
    a93c:	3090dee3          	bge	ra,s1,b458 <.LBB69_1392>

000000000000a940 <.LBB69_1136>:
    a940:	be043083          	ld	ra,-1056(s0)
    a944:	3290d2e3          	bge	ra,s1,b468 <.LBB69_1393>

000000000000a948 <.LBB69_1137>:
    a948:	be843083          	ld	ra,-1048(s0)
    a94c:	3290d6e3          	bge	ra,s1,b478 <.LBB69_1394>

000000000000a950 <.LBB69_1138>:
    a950:	bf043083          	ld	ra,-1040(s0)
    a954:	3290dae3          	bge	ra,s1,b488 <.LBB69_1395>

000000000000a958 <.LBB69_1139>:
    a958:	bf843083          	ld	ra,-1032(s0)
    a95c:	3290dee3          	bge	ra,s1,b498 <.LBB69_1396>

000000000000a960 <.LBB69_1140>:
    a960:	c0043083          	ld	ra,-1024(s0)
    a964:	3490d2e3          	bge	ra,s1,b4a8 <.LBB69_1397>

000000000000a968 <.LBB69_1141>:
    a968:	c0843083          	ld	ra,-1016(s0)
    a96c:	3490d6e3          	bge	ra,s1,b4b8 <.LBB69_1398>

000000000000a970 <.LBB69_1142>:
    a970:	c1043083          	ld	ra,-1008(s0)
    a974:	3490dae3          	bge	ra,s1,b4c8 <.LBB69_1399>

000000000000a978 <.LBB69_1143>:
    a978:	c1843083          	ld	ra,-1000(s0)
    a97c:	3490dee3          	bge	ra,s1,b4d8 <.LBB69_1400>

000000000000a980 <.LBB69_1144>:
    a980:	c2043083          	ld	ra,-992(s0)
    a984:	3690d2e3          	bge	ra,s1,b4e8 <.LBB69_1401>

000000000000a988 <.LBB69_1145>:
    a988:	c2843083          	ld	ra,-984(s0)
    a98c:	3690d6e3          	bge	ra,s1,b4f8 <.LBB69_1402>

000000000000a990 <.LBB69_1146>:
    a990:	c3043083          	ld	ra,-976(s0)
    a994:	3690dae3          	bge	ra,s1,b508 <.LBB69_1403>

000000000000a998 <.LBB69_1147>:
    a998:	c4043083          	ld	ra,-960(s0)
    a99c:	3690dee3          	bge	ra,s1,b518 <.LBB69_1404>

000000000000a9a0 <.LBB69_1148>:
    a9a0:	c5043083          	ld	ra,-944(s0)
    a9a4:	3890d2e3          	bge	ra,s1,b528 <.LBB69_1405>

000000000000a9a8 <.LBB69_1149>:
    a9a8:	c6043083          	ld	ra,-928(s0)
    a9ac:	3890d6e3          	bge	ra,s1,b538 <.LBB69_1406>

000000000000a9b0 <.LBB69_1150>:
    a9b0:	c7043083          	ld	ra,-912(s0)
    a9b4:	3890dae3          	bge	ra,s1,b548 <.LBB69_1407>

000000000000a9b8 <.LBB69_1151>:
    a9b8:	c8043083          	ld	ra,-896(s0)
    a9bc:	3890dee3          	bge	ra,s1,b558 <.LBB69_1408>

000000000000a9c0 <.LBB69_1152>:
    a9c0:	c9043083          	ld	ra,-880(s0)
    a9c4:	3a90d2e3          	bge	ra,s1,b568 <.LBB69_1409>

000000000000a9c8 <.LBB69_1153>:
    a9c8:	ca043083          	ld	ra,-864(s0)
    a9cc:	3a90d6e3          	bge	ra,s1,b578 <.LBB69_1410>

000000000000a9d0 <.LBB69_1154>:
    a9d0:	cb043083          	ld	ra,-848(s0)
    a9d4:	3a90dae3          	bge	ra,s1,b588 <.LBB69_1411>

000000000000a9d8 <.LBB69_1155>:
    a9d8:	cc043083          	ld	ra,-832(s0)
    a9dc:	3a90dee3          	bge	ra,s1,b598 <.LBB69_1412>

000000000000a9e0 <.LBB69_1156>:
    a9e0:	cd043083          	ld	ra,-816(s0)
    a9e4:	3c90d2e3          	bge	ra,s1,b5a8 <.LBB69_1413>

000000000000a9e8 <.LBB69_1157>:
    a9e8:	a3843083          	ld	ra,-1480(s0)
    a9ec:	3c90d6e3          	bge	ra,s1,b5b8 <.LBB69_1414>

000000000000a9f0 <.LBB69_1158>:
    a9f0:	a4843083          	ld	ra,-1464(s0)
    a9f4:	3c90dae3          	bge	ra,s1,b5c8 <.LBB69_1415>

000000000000a9f8 <.LBB69_1159>:
    a9f8:	a5843083          	ld	ra,-1448(s0)
    a9fc:	3c90dee3          	bge	ra,s1,b5d8 <.LBB69_1416>

000000000000aa00 <.LBB69_1160>:
    aa00:	a6843083          	ld	ra,-1432(s0)
    aa04:	3e90d2e3          	bge	ra,s1,b5e8 <.LBB69_1417>

000000000000aa08 <.LBB69_1161>:
    aa08:	a7843083          	ld	ra,-1416(s0)
    aa0c:	3e90d6e3          	bge	ra,s1,b5f8 <.LBB69_1418>

000000000000aa10 <.LBB69_1162>:
    aa10:	a8843083          	ld	ra,-1400(s0)
    aa14:	3e90dae3          	bge	ra,s1,b608 <.LBB69_1419>

000000000000aa18 <.LBB69_1163>:
    aa18:	a9843083          	ld	ra,-1384(s0)
    aa1c:	3e90dee3          	bge	ra,s1,b618 <.LBB69_1420>

000000000000aa20 <.LBB69_1164>:
    aa20:	aa843083          	ld	ra,-1368(s0)
    aa24:	4090d2e3          	bge	ra,s1,b628 <.LBB69_1421>

000000000000aa28 <.LBB69_1165>:
    aa28:	ab843083          	ld	ra,-1352(s0)
    aa2c:	4090d6e3          	bge	ra,s1,b638 <.LBB69_1422>

000000000000aa30 <.LBB69_1166>:
    aa30:	ac843083          	ld	ra,-1336(s0)
    aa34:	4090dae3          	bge	ra,s1,b648 <.LBB69_1423>

000000000000aa38 <.LBB69_1167>:
    aa38:	ad843083          	ld	ra,-1320(s0)
    aa3c:	4090dee3          	bge	ra,s1,b658 <.LBB69_1424>

000000000000aa40 <.LBB69_1168>:
    aa40:	ae043083          	ld	ra,-1312(s0)
    aa44:	4290d2e3          	bge	ra,s1,b668 <.LBB69_1425>

000000000000aa48 <.LBB69_1169>:
    aa48:	ae843083          	ld	ra,-1304(s0)
    aa4c:	4290d6e3          	bge	ra,s1,b678 <.LBB69_1426>

000000000000aa50 <.LBB69_1170>:
    aa50:	af043083          	ld	ra,-1296(s0)
    aa54:	4290dae3          	bge	ra,s1,b688 <.LBB69_1427>

000000000000aa58 <.LBB69_1171>:
    aa58:	af843083          	ld	ra,-1288(s0)
    aa5c:	4290dee3          	bge	ra,s1,b698 <.LBB69_1428>

000000000000aa60 <.LBB69_1172>:
    aa60:	b0043083          	ld	ra,-1280(s0)
    aa64:	4490d2e3          	bge	ra,s1,b6a8 <.LBB69_1429>

000000000000aa68 <.LBB69_1173>:
    aa68:	b0843083          	ld	ra,-1272(s0)
    aa6c:	4490d6e3          	bge	ra,s1,b6b8 <.LBB69_1430>

000000000000aa70 <.LBB69_1174>:
    aa70:	b1043083          	ld	ra,-1264(s0)
    aa74:	4490dae3          	bge	ra,s1,b6c8 <.LBB69_1431>

000000000000aa78 <.LBB69_1175>:
    aa78:	b1843083          	ld	ra,-1256(s0)
    aa7c:	4490dee3          	bge	ra,s1,b6d8 <.LBB69_1432>

000000000000aa80 <.LBB69_1176>:
    aa80:	b2043083          	ld	ra,-1248(s0)
    aa84:	4690d2e3          	bge	ra,s1,b6e8 <.LBB69_1433>

000000000000aa88 <.LBB69_1177>:
    aa88:	b2843083          	ld	ra,-1240(s0)
    aa8c:	4690d6e3          	bge	ra,s1,b6f8 <.LBB69_1434>

000000000000aa90 <.LBB69_1178>:
    aa90:	b3043083          	ld	ra,-1232(s0)
    aa94:	4690dae3          	bge	ra,s1,b708 <.LBB69_1435>

000000000000aa98 <.LBB69_1179>:
    aa98:	b4043083          	ld	ra,-1216(s0)
    aa9c:	4690dee3          	bge	ra,s1,b718 <.LBB69_1436>

000000000000aaa0 <.LBB69_1180>:
    aaa0:	b5043083          	ld	ra,-1200(s0)
    aaa4:	4890d2e3          	bge	ra,s1,b728 <.LBB69_1437>

000000000000aaa8 <.LBB69_1181>:
    aaa8:	b6043083          	ld	ra,-1184(s0)
    aaac:	4890d6e3          	bge	ra,s1,b738 <.LBB69_1438>

000000000000aab0 <.LBB69_1182>:
    aab0:	b7043083          	ld	ra,-1168(s0)
    aab4:	4890dae3          	bge	ra,s1,b748 <.LBB69_1439>

000000000000aab8 <.LBB69_1183>:
    aab8:	b8043083          	ld	ra,-1152(s0)
    aabc:	4890dee3          	bge	ra,s1,b758 <.LBB69_1440>

000000000000aac0 <.LBB69_1184>:
    aac0:	b9043083          	ld	ra,-1136(s0)
    aac4:	4a90d2e3          	bge	ra,s1,b768 <.LBB69_1441>

000000000000aac8 <.LBB69_1185>:
    aac8:	ba043083          	ld	ra,-1120(s0)
    aacc:	4a90d6e3          	bge	ra,s1,b778 <.LBB69_1442>

000000000000aad0 <.LBB69_1186>:
    aad0:	bb043083          	ld	ra,-1104(s0)
    aad4:	4a90dae3          	bge	ra,s1,b788 <.LBB69_1443>

000000000000aad8 <.LBB69_1187>:
    aad8:	bc043083          	ld	ra,-1088(s0)
    aadc:	4a90dee3          	bge	ra,s1,b798 <.LBB69_1444>

000000000000aae0 <.LBB69_1188>:
    aae0:	bd043083          	ld	ra,-1072(s0)
    aae4:	4c90d2e3          	bge	ra,s1,b7a8 <.LBB69_1445>

000000000000aae8 <.LBB69_1189>:
    aae8:	4c9bd6e3          	bge	s7,s1,b7b4 <.LBB69_1446>

000000000000aaec <.LBB69_1190>:
    aaec:	4c9ad8e3          	bge	s5,s1,b7bc <.LBB69_1447>

000000000000aaf0 <.LBB69_1191>:
    aaf0:	4c99dae3          	bge	s3,s1,b7c4 <.LBB69_1448>

000000000000aaf4 <.LBB69_1192>:
    aaf4:	4c9e5ce3          	bge	t3,s1,b7cc <.LBB69_1449>

000000000000aaf8 <.LBB69_1193>:
    aaf8:	4c96dee3          	bge	a3,s1,b7d4 <.LBB69_1450>

000000000000aafc <.LBB69_1194>:
    aafc:	4e9350e3          	bge	t1,s1,b7dc <.LBB69_1451>

000000000000ab00 <.LBB69_1195>:
    ab00:	4e9752e3          	bge	a4,s1,b7e4 <.LBB69_1452>

000000000000ab04 <.LBB69_1196>:
    ab04:	4e9ed4e3          	bge	t4,s1,b7ec <.LBB69_1453>

000000000000ab08 <.LBB69_1197>:
    ab08:	84843783          	ld	a5,-1976(s0)
    ab0c:	4e97d6e3          	bge	a5,s1,b7f8 <.LBB69_1454>

000000000000ab10 <.LBB69_1198>:
    ab10:	9c843083          	ld	ra,-1592(s0)
    ab14:	4e90dae3          	bge	ra,s1,b808 <.LBB69_1455>

000000000000ab18 <.LBB69_1199>:
    ab18:	9d843083          	ld	ra,-1576(s0)
    ab1c:	4e90dee3          	bge	ra,s1,b818 <.LBB69_1456>

000000000000ab20 <.LBB69_1200>:
    ab20:	9e043083          	ld	ra,-1568(s0)
    ab24:	5090d2e3          	bge	ra,s1,b828 <.LBB69_1457>

000000000000ab28 <.LBB69_1201>:
    ab28:	9e843083          	ld	ra,-1560(s0)
    ab2c:	5090d6e3          	bge	ra,s1,b838 <.LBB69_1458>

000000000000ab30 <.LBB69_1202>:
    ab30:	9f043083          	ld	ra,-1552(s0)
    ab34:	5090dae3          	bge	ra,s1,b848 <.LBB69_1459>

000000000000ab38 <.LBB69_1203>:
    ab38:	9f843083          	ld	ra,-1544(s0)
    ab3c:	5090dee3          	bge	ra,s1,b858 <.LBB69_1460>

000000000000ab40 <.LBB69_1204>:
    ab40:	a0043083          	ld	ra,-1536(s0)
    ab44:	5290d2e3          	bge	ra,s1,b868 <.LBB69_1461>

000000000000ab48 <.LBB69_1205>:
    ab48:	a0843083          	ld	ra,-1528(s0)
    ab4c:	5290d6e3          	bge	ra,s1,b878 <.LBB69_1462>

000000000000ab50 <.LBB69_1206>:
    ab50:	a1043083          	ld	ra,-1520(s0)
    ab54:	5290dae3          	bge	ra,s1,b888 <.LBB69_1463>

000000000000ab58 <.LBB69_1207>:
    ab58:	a1843083          	ld	ra,-1512(s0)
    ab5c:	5290dee3          	bge	ra,s1,b898 <.LBB69_1464>

000000000000ab60 <.LBB69_1208>:
    ab60:	a2043083          	ld	ra,-1504(s0)
    ab64:	5490d2e3          	bge	ra,s1,b8a8 <.LBB69_1465>

000000000000ab68 <.LBB69_1209>:
    ab68:	a2843083          	ld	ra,-1496(s0)
    ab6c:	5490d6e3          	bge	ra,s1,b8b8 <.LBB69_1466>

000000000000ab70 <.LBB69_1210>:
    ab70:	a3043083          	ld	ra,-1488(s0)
    ab74:	5490dae3          	bge	ra,s1,b8c8 <.LBB69_1467>

000000000000ab78 <.LBB69_1211>:
    ab78:	a4043083          	ld	ra,-1472(s0)
    ab7c:	5490dee3          	bge	ra,s1,b8d8 <.LBB69_1468>

000000000000ab80 <.LBB69_1212>:
    ab80:	a5043083          	ld	ra,-1456(s0)
    ab84:	5690d2e3          	bge	ra,s1,b8e8 <.LBB69_1469>

000000000000ab88 <.LBB69_1213>:
    ab88:	a6043083          	ld	ra,-1440(s0)
    ab8c:	5690d6e3          	bge	ra,s1,b8f8 <.LBB69_1470>

000000000000ab90 <.LBB69_1214>:
    ab90:	a7043083          	ld	ra,-1424(s0)
    ab94:	5690dae3          	bge	ra,s1,b908 <.LBB69_1471>

000000000000ab98 <.LBB69_1215>:
    ab98:	a8043083          	ld	ra,-1408(s0)
    ab9c:	5690dee3          	bge	ra,s1,b918 <.LBB69_1472>

000000000000aba0 <.LBB69_1216>:
    aba0:	a9043083          	ld	ra,-1392(s0)
    aba4:	5890d2e3          	bge	ra,s1,b928 <.LBB69_1473>

000000000000aba8 <.LBB69_1217>:
    aba8:	aa043083          	ld	ra,-1376(s0)
    abac:	5890d6e3          	bge	ra,s1,b938 <.LBB69_1474>

000000000000abb0 <.LBB69_1218>:
    abb0:	ab043083          	ld	ra,-1360(s0)
    abb4:	5890dae3          	bge	ra,s1,b948 <.LBB69_1475>

000000000000abb8 <.LBB69_1219>:
    abb8:	ac043083          	ld	ra,-1344(s0)
    abbc:	5890dee3          	bge	ra,s1,b958 <.LBB69_1476>

000000000000abc0 <.LBB69_1220>:
    abc0:	ad043083          	ld	ra,-1328(s0)
    abc4:	5a90d2e3          	bge	ra,s1,b968 <.LBB69_1477>

000000000000abc8 <.LBB69_1221>:
    abc8:	8c843083          	ld	ra,-1848(s0)
    abcc:	5a90d6e3          	bge	ra,s1,b978 <.LBB69_1478>

000000000000abd0 <.LBB69_1222>:
    abd0:	8d843083          	ld	ra,-1832(s0)
    abd4:	5a90dae3          	bge	ra,s1,b988 <.LBB69_1479>

000000000000abd8 <.LBB69_1223>:
    abd8:	8e843083          	ld	ra,-1816(s0)
    abdc:	5a90dee3          	bge	ra,s1,b998 <.LBB69_1480>

000000000000abe0 <.LBB69_1224>:
    abe0:	8f843083          	ld	ra,-1800(s0)
    abe4:	5c90d2e3          	bge	ra,s1,b9a8 <.LBB69_1481>

000000000000abe8 <.LBB69_1225>:
    abe8:	90843083          	ld	ra,-1784(s0)
    abec:	5c90d6e3          	bge	ra,s1,b9b8 <.LBB69_1482>

000000000000abf0 <.LBB69_1226>:
    abf0:	91843083          	ld	ra,-1768(s0)
    abf4:	5c90dae3          	bge	ra,s1,b9c8 <.LBB69_1483>

000000000000abf8 <.LBB69_1227>:
    abf8:	92843083          	ld	ra,-1752(s0)
    abfc:	5c90dee3          	bge	ra,s1,b9d8 <.LBB69_1484>

000000000000ac00 <.LBB69_1228>:
    ac00:	93843083          	ld	ra,-1736(s0)
    ac04:	5e90d2e3          	bge	ra,s1,b9e8 <.LBB69_1485>

000000000000ac08 <.LBB69_1229>:
    ac08:	94843083          	ld	ra,-1720(s0)
    ac0c:	5e90d6e3          	bge	ra,s1,b9f8 <.LBB69_1486>

000000000000ac10 <.LBB69_1230>:
    ac10:	95843083          	ld	ra,-1704(s0)
    ac14:	5e90dae3          	bge	ra,s1,ba08 <.LBB69_1487>

000000000000ac18 <.LBB69_1231>:
    ac18:	96843083          	ld	ra,-1688(s0)
    ac1c:	5e90dee3          	bge	ra,s1,ba18 <.LBB69_1488>

000000000000ac20 <.LBB69_1232>:
    ac20:	97043083          	ld	ra,-1680(s0)
    ac24:	6090d2e3          	bge	ra,s1,ba28 <.LBB69_1489>

000000000000ac28 <.LBB69_1233>:
    ac28:	97843083          	ld	ra,-1672(s0)
    ac2c:	6090d6e3          	bge	ra,s1,ba38 <.LBB69_1490>

000000000000ac30 <.LBB69_1234>:
    ac30:	98043083          	ld	ra,-1664(s0)
    ac34:	6090dae3          	bge	ra,s1,ba48 <.LBB69_1491>

000000000000ac38 <.LBB69_1235>:
    ac38:	98843083          	ld	ra,-1656(s0)
    ac3c:	6090dee3          	bge	ra,s1,ba58 <.LBB69_1492>

000000000000ac40 <.LBB69_1236>:
    ac40:	99043083          	ld	ra,-1648(s0)
    ac44:	6290d2e3          	bge	ra,s1,ba68 <.LBB69_1493>

000000000000ac48 <.LBB69_1237>:
    ac48:	99843083          	ld	ra,-1640(s0)
    ac4c:	6290d6e3          	bge	ra,s1,ba78 <.LBB69_1494>

000000000000ac50 <.LBB69_1238>:
    ac50:	9a043083          	ld	ra,-1632(s0)
    ac54:	6290dae3          	bge	ra,s1,ba88 <.LBB69_1495>

000000000000ac58 <.LBB69_1239>:
    ac58:	9a843083          	ld	ra,-1624(s0)
    ac5c:	6290dee3          	bge	ra,s1,ba98 <.LBB69_1496>

000000000000ac60 <.LBB69_1240>:
    ac60:	9b043083          	ld	ra,-1616(s0)
    ac64:	6490d2e3          	bge	ra,s1,baa8 <.LBB69_1497>

000000000000ac68 <.LBB69_1241>:
    ac68:	9b843083          	ld	ra,-1608(s0)
    ac6c:	6490d6e3          	bge	ra,s1,bab8 <.LBB69_1498>

000000000000ac70 <.LBB69_1242>:
    ac70:	649ddae3          	bge	s11,s1,bac4 <.LBB69_1499>

000000000000ac74 <.LBB69_1243>:
    ac74:	649b5ce3          	bge	s6,s1,bacc <.LBB69_1500>

000000000000ac78 <.LBB69_1244>:
    ac78:	649a5ee3          	bge	s4,s1,bad4 <.LBB69_1501>

000000000000ac7c <.LBB69_1245>:
    ac7c:	669950e3          	bge	s2,s1,badc <.LBB69_1502>

000000000000ac80 <.LBB69_1246>:
    ac80:	669f52e3          	bge	t5,s1,bae4 <.LBB69_1503>

000000000000ac84 <.LBB69_1247>:
    ac84:	6693d4e3          	bge	t2,s1,baec <.LBB69_1504>

000000000000ac88 <.LBB69_1248>:
    ac88:	6692d6e3          	bge	t0,s1,baf4 <.LBB69_1505>

000000000000ac8c <.LBB69_1249>:
    ac8c:	669d58e3          	bge	s10,s1,bafc <.LBB69_1506>

000000000000ac90 <.LBB69_1250>:
    ac90:	66985ae3          	bge	a6,s1,bb04 <.LBB69_1507>

000000000000ac94 <.LBB69_1251>:
    ac94:	9c043083          	ld	ra,-1600(s0)
    ac98:	6690dce3          	bge	ra,s1,bb10 <.LBB69_1508>

000000000000ac9c <.LBB69_1252>:
    ac9c:	9d043083          	ld	ra,-1584(s0)
    aca0:	6890d0e3          	bge	ra,s1,bb20 <.LBB69_1509>

000000000000aca4 <.LBB69_1253>:
    aca4:	689fd4e3          	bge	t6,s1,bb2c <.LBB69_1510>

000000000000aca8 <.LBB69_1254>:
    aca8:	689cd6e3          	bge	s9,s1,bb34 <.LBB69_1511>

000000000000acac <.LBB69_1255>:
    acac:	689558e3          	bge	a0,s1,bb3c <.LBB69_1512>

000000000000acb0 <.LBB69_1256>:
    acb0:	6898dae3          	bge	a7,s1,bb44 <.LBB69_1513>

000000000000acb4 <.LBB69_1257>:
    acb4:	689c5ce3          	bge	s8,s1,bb4c <.LBB69_1514>

000000000000acb8 <.LBB69_1258>:
    acb8:	68965ee3          	bge	a2,s1,bb54 <.LBB69_1515>

000000000000acbc <.LBB69_1259>:
    acbc:	6a95d0e3          	bge	a1,s1,bb5c <.LBB69_1516>

000000000000acc0 <.LBB69_1260>:
    acc0:	85043083          	ld	ra,-1968(s0)
    acc4:	6a90d2e3          	bge	ra,s1,bb68 <.LBB69_1517>

000000000000acc8 <.LBB69_1261>:
    acc8:	85843083          	ld	ra,-1960(s0)
    accc:	6a90d6e3          	bge	ra,s1,bb78 <.LBB69_1518>

000000000000acd0 <.LBB69_1262>:
    acd0:	86043083          	ld	ra,-1952(s0)
    acd4:	6a90dae3          	bge	ra,s1,bb88 <.LBB69_1519>

000000000000acd8 <.LBB69_1263>:
    acd8:	86843083          	ld	ra,-1944(s0)
    acdc:	6a90dee3          	bge	ra,s1,bb98 <.LBB69_1520>

000000000000ace0 <.LBB69_1264>:
    ace0:	87043083          	ld	ra,-1936(s0)
    ace4:	6c90d2e3          	bge	ra,s1,bba8 <.LBB69_1521>

000000000000ace8 <.LBB69_1265>:
    ace8:	87843083          	ld	ra,-1928(s0)
    acec:	6c90d6e3          	bge	ra,s1,bbb8 <.LBB69_1522>

000000000000acf0 <.LBB69_1266>:
    acf0:	88043083          	ld	ra,-1920(s0)
    acf4:	6c90dae3          	bge	ra,s1,bbc8 <.LBB69_1523>

000000000000acf8 <.LBB69_1267>:
    acf8:	88843083          	ld	ra,-1912(s0)
    acfc:	6c90dee3          	bge	ra,s1,bbd8 <.LBB69_1524>

000000000000ad00 <.LBB69_1268>:
    ad00:	89043083          	ld	ra,-1904(s0)
    ad04:	6e90d2e3          	bge	ra,s1,bbe8 <.LBB69_1525>

000000000000ad08 <.LBB69_1269>:
    ad08:	89843083          	ld	ra,-1896(s0)
    ad0c:	6e90d6e3          	bge	ra,s1,bbf8 <.LBB69_1526>

000000000000ad10 <.LBB69_1270>:
    ad10:	8a043083          	ld	ra,-1888(s0)
    ad14:	6e90dae3          	bge	ra,s1,bc08 <.LBB69_1527>

000000000000ad18 <.LBB69_1271>:
    ad18:	8a843083          	ld	ra,-1880(s0)
    ad1c:	6e90dee3          	bge	ra,s1,bc18 <.LBB69_1528>

000000000000ad20 <.LBB69_1272>:
    ad20:	8b043083          	ld	ra,-1872(s0)
    ad24:	7090d2e3          	bge	ra,s1,bc28 <.LBB69_1529>

000000000000ad28 <.LBB69_1273>:
    ad28:	8b843083          	ld	ra,-1864(s0)
    ad2c:	7090d6e3          	bge	ra,s1,bc38 <.LBB69_1530>

000000000000ad30 <.LBB69_1274>:
    ad30:	8c043083          	ld	ra,-1856(s0)
    ad34:	7090dae3          	bge	ra,s1,bc48 <.LBB69_1531>

000000000000ad38 <.LBB69_1275>:
    ad38:	8d043083          	ld	ra,-1840(s0)
    ad3c:	7090dee3          	bge	ra,s1,bc58 <.LBB69_1532>

000000000000ad40 <.LBB69_1276>:
    ad40:	8e043083          	ld	ra,-1824(s0)
    ad44:	7290d2e3          	bge	ra,s1,bc68 <.LBB69_1533>

000000000000ad48 <.LBB69_1277>:
    ad48:	8f043083          	ld	ra,-1808(s0)
    ad4c:	7290d6e3          	bge	ra,s1,bc78 <.LBB69_1534>

000000000000ad50 <.LBB69_1278>:
    ad50:	90043083          	ld	ra,-1792(s0)
    ad54:	7290dae3          	bge	ra,s1,bc88 <.LBB69_1535>

000000000000ad58 <.LBB69_1279>:
    ad58:	91043083          	ld	ra,-1776(s0)
    ad5c:	7290dee3          	bge	ra,s1,bc98 <.LBB69_1536>

000000000000ad60 <.LBB69_1280>:
    ad60:	92043083          	ld	ra,-1760(s0)
    ad64:	7490d2e3          	bge	ra,s1,bca8 <.LBB69_1537>

000000000000ad68 <.LBB69_1281>:
    ad68:	93043083          	ld	ra,-1744(s0)
    ad6c:	7490d6e3          	bge	ra,s1,bcb8 <.LBB69_1538>

000000000000ad70 <.LBB69_1282>:
    ad70:	94043083          	ld	ra,-1728(s0)
    ad74:	7490dae3          	bge	ra,s1,bcc8 <.LBB69_1539>

000000000000ad78 <.LBB69_1283>:
    ad78:	000d0793          	mv	a5,s10
    ad7c:	95043083          	ld	ra,-1712(s0)
    ad80:	7490dee3          	bge	ra,s1,bcdc <.LBB69_1540>

000000000000ad84 <.LBB69_1284>:
    ad84:	00080d13          	mv	s10,a6
    ad88:	96043083          	ld	ra,-1696(s0)
    ad8c:	7690d4e3          	bge	ra,s1,bcf4 <.LBB69_1541>
    ad90:	c94f506f          	j	224 <.LBB69_3>

000000000000ad94 <.LBB69_1285>:
    ad94:	f7f00f93          	li	t6,-129
    ad98:	07e00493          	li	s1,126
    ad9c:	d6043083          	ld	ra,-672(s0)
    ada0:	8290cee3          	blt	ra,s1,a5dc <.LBB69_1030>

000000000000ada4 <.LBB69_1286>:
    ada4:	07e00093          	li	ra,126
    ada8:	d6143023          	sd	ra,-672(s0)
    adac:	e4843083          	ld	ra,-440(s0)
    adb0:	85043423          	sd	a6,-1976(s0)
    adb4:	8290cae3          	blt	ra,s1,a5e8 <.LBB69_1031>

000000000000adb8 <.LBB69_1287>:
    adb8:	07e00093          	li	ra,126
    adbc:	e4143423          	sd	ra,-440(s0)
    adc0:	e5843083          	ld	ra,-424(s0)
    adc4:	000e8813          	mv	a6,t4
    adc8:	8290c6e3          	blt	ra,s1,a5f4 <.LBB69_1032>

000000000000adcc <.LBB69_1288>:
    adcc:	07e00093          	li	ra,126
    add0:	e4143c23          	sd	ra,-424(s0)
    add4:	e7043083          	ld	ra,-400(s0)
    add8:	000d0e93          	mv	t4,s10
    addc:	8290c2e3          	blt	ra,s1,a600 <.LBB69_1033>

000000000000ade0 <.LBB69_1289>:
    ade0:	07e00093          	li	ra,126
    ade4:	e6143823          	sd	ra,-400(s0)
    ade8:	e8043083          	ld	ra,-384(s0)
    adec:	00078d13          	mv	s10,a5
    adf0:	8090cee3          	blt	ra,s1,a60c <.LBB69_1034>

000000000000adf4 <.LBB69_1290>:
    adf4:	07e00093          	li	ra,126
    adf8:	e8143023          	sd	ra,-384(s0)
    adfc:	e9043083          	ld	ra,-368(s0)
    ae00:	84043703          	ld	a4,-1984(s0)
    ae04:	8090cae3          	blt	ra,s1,a618 <.LBB69_1035>

000000000000ae08 <.LBB69_1291>:
    ae08:	07e00093          	li	ra,126
    ae0c:	e8143823          	sd	ra,-368(s0)
    ae10:	ea043083          	ld	ra,-352(s0)
    ae14:	8090c6e3          	blt	ra,s1,a620 <.LBB69_1036>

000000000000ae18 <.LBB69_1292>:
    ae18:	07e00093          	li	ra,126
    ae1c:	ea143023          	sd	ra,-352(s0)
    ae20:	eb043083          	ld	ra,-336(s0)
    ae24:	8090c2e3          	blt	ra,s1,a628 <.LBB69_1037>

000000000000ae28 <.LBB69_1293>:
    ae28:	07e00093          	li	ra,126
    ae2c:	ea143823          	sd	ra,-336(s0)
    ae30:	ec043083          	ld	ra,-320(s0)
    ae34:	fe90ce63          	blt	ra,s1,a630 <.LBB69_1038>

000000000000ae38 <.LBB69_1294>:
    ae38:	07e00093          	li	ra,126
    ae3c:	ec143023          	sd	ra,-320(s0)
    ae40:	ed043083          	ld	ra,-304(s0)
    ae44:	fe90ca63          	blt	ra,s1,a638 <.LBB69_1039>

000000000000ae48 <.LBB69_1295>:
    ae48:	07e00093          	li	ra,126
    ae4c:	ec143823          	sd	ra,-304(s0)
    ae50:	ee043083          	ld	ra,-288(s0)
    ae54:	fe90c663          	blt	ra,s1,a640 <.LBB69_1040>

000000000000ae58 <.LBB69_1296>:
    ae58:	07e00093          	li	ra,126
    ae5c:	ee143023          	sd	ra,-288(s0)
    ae60:	ee843083          	ld	ra,-280(s0)
    ae64:	fe90c263          	blt	ra,s1,a648 <.LBB69_1041>

000000000000ae68 <.LBB69_1297>:
    ae68:	07e00093          	li	ra,126
    ae6c:	ee143423          	sd	ra,-280(s0)
    ae70:	ef043083          	ld	ra,-272(s0)
    ae74:	fc90ce63          	blt	ra,s1,a650 <.LBB69_1042>

000000000000ae78 <.LBB69_1298>:
    ae78:	07e00093          	li	ra,126
    ae7c:	ee143823          	sd	ra,-272(s0)
    ae80:	ef843083          	ld	ra,-264(s0)
    ae84:	fc90ca63          	blt	ra,s1,a658 <.LBB69_1043>

000000000000ae88 <.LBB69_1299>:
    ae88:	07e00093          	li	ra,126
    ae8c:	ee143c23          	sd	ra,-264(s0)
    ae90:	f0043083          	ld	ra,-256(s0)
    ae94:	fc90c663          	blt	ra,s1,a660 <.LBB69_1044>

000000000000ae98 <.LBB69_1300>:
    ae98:	07e00093          	li	ra,126
    ae9c:	f0143023          	sd	ra,-256(s0)
    aea0:	f0843083          	ld	ra,-248(s0)
    aea4:	fc90c263          	blt	ra,s1,a668 <.LBB69_1045>

000000000000aea8 <.LBB69_1301>:
    aea8:	07e00093          	li	ra,126
    aeac:	f0143423          	sd	ra,-248(s0)
    aeb0:	f1043083          	ld	ra,-240(s0)
    aeb4:	fa90ce63          	blt	ra,s1,a670 <.LBB69_1046>

000000000000aeb8 <.LBB69_1302>:
    aeb8:	07e00093          	li	ra,126
    aebc:	f0143823          	sd	ra,-240(s0)
    aec0:	f1843083          	ld	ra,-232(s0)
    aec4:	fa90ca63          	blt	ra,s1,a678 <.LBB69_1047>

000000000000aec8 <.LBB69_1303>:
    aec8:	07e00093          	li	ra,126
    aecc:	f0143c23          	sd	ra,-232(s0)
    aed0:	f2043083          	ld	ra,-224(s0)
    aed4:	fa90c663          	blt	ra,s1,a680 <.LBB69_1048>

000000000000aed8 <.LBB69_1304>:
    aed8:	07e00093          	li	ra,126
    aedc:	f2143023          	sd	ra,-224(s0)
    aee0:	f2843083          	ld	ra,-216(s0)
    aee4:	fa90c263          	blt	ra,s1,a688 <.LBB69_1049>

000000000000aee8 <.LBB69_1305>:
    aee8:	07e00093          	li	ra,126
    aeec:	f2143423          	sd	ra,-216(s0)
    aef0:	f3043083          	ld	ra,-208(s0)
    aef4:	f890ce63          	blt	ra,s1,a690 <.LBB69_1050>

000000000000aef8 <.LBB69_1306>:
    aef8:	07e00093          	li	ra,126
    aefc:	f2143823          	sd	ra,-208(s0)
    af00:	f3843083          	ld	ra,-200(s0)
    af04:	f890ca63          	blt	ra,s1,a698 <.LBB69_1051>

000000000000af08 <.LBB69_1307>:
    af08:	07e00093          	li	ra,126
    af0c:	f2143c23          	sd	ra,-200(s0)
    af10:	f4043083          	ld	ra,-192(s0)
    af14:	f890c663          	blt	ra,s1,a6a0 <.LBB69_1052>

000000000000af18 <.LBB69_1308>:
    af18:	07e00093          	li	ra,126
    af1c:	f4143023          	sd	ra,-192(s0)
    af20:	f4843083          	ld	ra,-184(s0)
    af24:	f890c263          	blt	ra,s1,a6a8 <.LBB69_1053>

000000000000af28 <.LBB69_1309>:
    af28:	07e00093          	li	ra,126
    af2c:	f4143423          	sd	ra,-184(s0)
    af30:	f5043083          	ld	ra,-176(s0)
    af34:	f690ce63          	blt	ra,s1,a6b0 <.LBB69_1054>

000000000000af38 <.LBB69_1310>:
    af38:	07e00093          	li	ra,126
    af3c:	f4143823          	sd	ra,-176(s0)
    af40:	f5843083          	ld	ra,-168(s0)
    af44:	f690ca63          	blt	ra,s1,a6b8 <.LBB69_1055>

000000000000af48 <.LBB69_1311>:
    af48:	07e00093          	li	ra,126
    af4c:	f4143c23          	sd	ra,-168(s0)
    af50:	f6043083          	ld	ra,-160(s0)
    af54:	f690c663          	blt	ra,s1,a6c0 <.LBB69_1056>

000000000000af58 <.LBB69_1312>:
    af58:	07e00093          	li	ra,126
    af5c:	f6143023          	sd	ra,-160(s0)
    af60:	f6843083          	ld	ra,-152(s0)
    af64:	f690c263          	blt	ra,s1,a6c8 <.LBB69_1057>

000000000000af68 <.LBB69_1313>:
    af68:	07e00093          	li	ra,126
    af6c:	f6143423          	sd	ra,-152(s0)
    af70:	f7043083          	ld	ra,-144(s0)
    af74:	f490ce63          	blt	ra,s1,a6d0 <.LBB69_1058>

000000000000af78 <.LBB69_1314>:
    af78:	07e00093          	li	ra,126
    af7c:	f6143823          	sd	ra,-144(s0)
    af80:	f7843083          	ld	ra,-136(s0)
    af84:	f490ca63          	blt	ra,s1,a6d8 <.LBB69_1059>

000000000000af88 <.LBB69_1315>:
    af88:	07e00093          	li	ra,126
    af8c:	f6143c23          	sd	ra,-136(s0)
    af90:	f8043083          	ld	ra,-128(s0)
    af94:	f490c663          	blt	ra,s1,a6e0 <.LBB69_1060>

000000000000af98 <.LBB69_1316>:
    af98:	07e00093          	li	ra,126
    af9c:	f8143023          	sd	ra,-128(s0)
    afa0:	f8843083          	ld	ra,-120(s0)
    afa4:	f490c263          	blt	ra,s1,a6e8 <.LBB69_1061>

000000000000afa8 <.LBB69_1317>:
    afa8:	07e00093          	li	ra,126
    afac:	f8143423          	sd	ra,-120(s0)
    afb0:	d3843083          	ld	ra,-712(s0)
    afb4:	f290ce63          	blt	ra,s1,a6f0 <.LBB69_1062>

000000000000afb8 <.LBB69_1318>:
    afb8:	07e00093          	li	ra,126
    afbc:	d2143c23          	sd	ra,-712(s0)
    afc0:	d4843083          	ld	ra,-696(s0)
    afc4:	f290ca63          	blt	ra,s1,a6f8 <.LBB69_1063>

000000000000afc8 <.LBB69_1319>:
    afc8:	07e00093          	li	ra,126
    afcc:	d4143423          	sd	ra,-696(s0)
    afd0:	d5843083          	ld	ra,-680(s0)
    afd4:	f290c663          	blt	ra,s1,a700 <.LBB69_1064>

000000000000afd8 <.LBB69_1320>:
    afd8:	07e00093          	li	ra,126
    afdc:	d4143c23          	sd	ra,-680(s0)
    afe0:	d7043083          	ld	ra,-656(s0)
    afe4:	f290c263          	blt	ra,s1,a708 <.LBB69_1065>

000000000000afe8 <.LBB69_1321>:
    afe8:	07e00093          	li	ra,126
    afec:	d6143823          	sd	ra,-656(s0)
    aff0:	d8043083          	ld	ra,-640(s0)
    aff4:	f090ce63          	blt	ra,s1,a710 <.LBB69_1066>

000000000000aff8 <.LBB69_1322>:
    aff8:	07e00093          	li	ra,126
    affc:	d8143023          	sd	ra,-640(s0)
    b000:	d9043083          	ld	ra,-624(s0)
    b004:	f090ca63          	blt	ra,s1,a718 <.LBB69_1067>

000000000000b008 <.LBB69_1323>:
    b008:	07e00093          	li	ra,126
    b00c:	d8143823          	sd	ra,-624(s0)
    b010:	da043083          	ld	ra,-608(s0)
    b014:	f090c663          	blt	ra,s1,a720 <.LBB69_1068>

000000000000b018 <.LBB69_1324>:
    b018:	07e00093          	li	ra,126
    b01c:	da143023          	sd	ra,-608(s0)
    b020:	db043083          	ld	ra,-592(s0)
    b024:	f090c263          	blt	ra,s1,a728 <.LBB69_1069>

000000000000b028 <.LBB69_1325>:
    b028:	07e00093          	li	ra,126
    b02c:	da143823          	sd	ra,-592(s0)
    b030:	dc043083          	ld	ra,-576(s0)
    b034:	ee90ce63          	blt	ra,s1,a730 <.LBB69_1070>

000000000000b038 <.LBB69_1326>:
    b038:	07e00093          	li	ra,126
    b03c:	dc143023          	sd	ra,-576(s0)
    b040:	dd043083          	ld	ra,-560(s0)
    b044:	ee90ca63          	blt	ra,s1,a738 <.LBB69_1071>

000000000000b048 <.LBB69_1327>:
    b048:	07e00093          	li	ra,126
    b04c:	dc143823          	sd	ra,-560(s0)
    b050:	de043083          	ld	ra,-544(s0)
    b054:	ee90c663          	blt	ra,s1,a740 <.LBB69_1072>

000000000000b058 <.LBB69_1328>:
    b058:	07e00093          	li	ra,126
    b05c:	de143023          	sd	ra,-544(s0)
    b060:	de843083          	ld	ra,-536(s0)
    b064:	ee90c263          	blt	ra,s1,a748 <.LBB69_1073>

000000000000b068 <.LBB69_1329>:
    b068:	07e00093          	li	ra,126
    b06c:	de143423          	sd	ra,-536(s0)
    b070:	df043083          	ld	ra,-528(s0)
    b074:	ec90ce63          	blt	ra,s1,a750 <.LBB69_1074>

000000000000b078 <.LBB69_1330>:
    b078:	07e00093          	li	ra,126
    b07c:	de143823          	sd	ra,-528(s0)
    b080:	df843083          	ld	ra,-520(s0)
    b084:	ec90ca63          	blt	ra,s1,a758 <.LBB69_1075>

000000000000b088 <.LBB69_1331>:
    b088:	07e00093          	li	ra,126
    b08c:	de143c23          	sd	ra,-520(s0)
    b090:	e0043083          	ld	ra,-512(s0)
    b094:	ec90c663          	blt	ra,s1,a760 <.LBB69_1076>

000000000000b098 <.LBB69_1332>:
    b098:	07e00093          	li	ra,126
    b09c:	e0143023          	sd	ra,-512(s0)
    b0a0:	e0843083          	ld	ra,-504(s0)
    b0a4:	ec90c263          	blt	ra,s1,a768 <.LBB69_1077>

000000000000b0a8 <.LBB69_1333>:
    b0a8:	07e00093          	li	ra,126
    b0ac:	e0143423          	sd	ra,-504(s0)
    b0b0:	e1043083          	ld	ra,-496(s0)
    b0b4:	ea90ce63          	blt	ra,s1,a770 <.LBB69_1078>

000000000000b0b8 <.LBB69_1334>:
    b0b8:	07e00093          	li	ra,126
    b0bc:	e0143823          	sd	ra,-496(s0)
    b0c0:	e1843083          	ld	ra,-488(s0)
    b0c4:	ea90ca63          	blt	ra,s1,a778 <.LBB69_1079>

000000000000b0c8 <.LBB69_1335>:
    b0c8:	07e00093          	li	ra,126
    b0cc:	e0143c23          	sd	ra,-488(s0)
    b0d0:	e2043083          	ld	ra,-480(s0)
    b0d4:	ea90c663          	blt	ra,s1,a780 <.LBB69_1080>

000000000000b0d8 <.LBB69_1336>:
    b0d8:	07e00093          	li	ra,126
    b0dc:	e2143023          	sd	ra,-480(s0)
    b0e0:	e2843083          	ld	ra,-472(s0)
    b0e4:	ea90c263          	blt	ra,s1,a788 <.LBB69_1081>

000000000000b0e8 <.LBB69_1337>:
    b0e8:	07e00093          	li	ra,126
    b0ec:	e2143423          	sd	ra,-472(s0)
    b0f0:	e3043083          	ld	ra,-464(s0)
    b0f4:	e890ce63          	blt	ra,s1,a790 <.LBB69_1082>

000000000000b0f8 <.LBB69_1338>:
    b0f8:	07e00093          	li	ra,126
    b0fc:	e2143823          	sd	ra,-464(s0)
    b100:	e3843083          	ld	ra,-456(s0)
    b104:	e890ca63          	blt	ra,s1,a798 <.LBB69_1083>

000000000000b108 <.LBB69_1339>:
    b108:	07e00093          	li	ra,126
    b10c:	e2143c23          	sd	ra,-456(s0)
    b110:	e4043083          	ld	ra,-448(s0)
    b114:	e890c663          	blt	ra,s1,a7a0 <.LBB69_1084>

000000000000b118 <.LBB69_1340>:
    b118:	07e00093          	li	ra,126
    b11c:	e4143023          	sd	ra,-448(s0)
    b120:	e5043083          	ld	ra,-432(s0)
    b124:	e890c263          	blt	ra,s1,a7a8 <.LBB69_1085>

000000000000b128 <.LBB69_1341>:
    b128:	07e00093          	li	ra,126
    b12c:	e4143823          	sd	ra,-432(s0)
    b130:	e6843083          	ld	ra,-408(s0)
    b134:	e690ce63          	blt	ra,s1,a7b0 <.LBB69_1086>

000000000000b138 <.LBB69_1342>:
    b138:	07e00093          	li	ra,126
    b13c:	e6143423          	sd	ra,-408(s0)
    b140:	e7843083          	ld	ra,-392(s0)
    b144:	e690ca63          	blt	ra,s1,a7b8 <.LBB69_1087>

000000000000b148 <.LBB69_1343>:
    b148:	07e00093          	li	ra,126
    b14c:	e6143c23          	sd	ra,-392(s0)
    b150:	e8843083          	ld	ra,-376(s0)
    b154:	e690c663          	blt	ra,s1,a7c0 <.LBB69_1088>

000000000000b158 <.LBB69_1344>:
    b158:	07e00093          	li	ra,126
    b15c:	e8143423          	sd	ra,-376(s0)
    b160:	e9843083          	ld	ra,-360(s0)
    b164:	e690c263          	blt	ra,s1,a7c8 <.LBB69_1089>

000000000000b168 <.LBB69_1345>:
    b168:	07e00093          	li	ra,126
    b16c:	e8143c23          	sd	ra,-360(s0)
    b170:	ea843083          	ld	ra,-344(s0)
    b174:	e490ce63          	blt	ra,s1,a7d0 <.LBB69_1090>

000000000000b178 <.LBB69_1346>:
    b178:	07e00093          	li	ra,126
    b17c:	ea143423          	sd	ra,-344(s0)
    b180:	eb843083          	ld	ra,-328(s0)
    b184:	e490ca63          	blt	ra,s1,a7d8 <.LBB69_1091>

000000000000b188 <.LBB69_1347>:
    b188:	07e00093          	li	ra,126
    b18c:	ea143c23          	sd	ra,-328(s0)
    b190:	ec843083          	ld	ra,-312(s0)
    b194:	e490c663          	blt	ra,s1,a7e0 <.LBB69_1092>

000000000000b198 <.LBB69_1348>:
    b198:	07e00093          	li	ra,126
    b19c:	ec143423          	sd	ra,-312(s0)
    b1a0:	ed843083          	ld	ra,-296(s0)
    b1a4:	e490c263          	blt	ra,s1,a7e8 <.LBB69_1093>

000000000000b1a8 <.LBB69_1349>:
    b1a8:	07e00093          	li	ra,126
    b1ac:	ec143c23          	sd	ra,-296(s0)
    b1b0:	c3843083          	ld	ra,-968(s0)
    b1b4:	e290ce63          	blt	ra,s1,a7f0 <.LBB69_1094>

000000000000b1b8 <.LBB69_1350>:
    b1b8:	07e00093          	li	ra,126
    b1bc:	c2143c23          	sd	ra,-968(s0)
    b1c0:	c4843083          	ld	ra,-952(s0)
    b1c4:	e290ca63          	blt	ra,s1,a7f8 <.LBB69_1095>

000000000000b1c8 <.LBB69_1351>:
    b1c8:	07e00093          	li	ra,126
    b1cc:	c4143423          	sd	ra,-952(s0)
    b1d0:	c5843083          	ld	ra,-936(s0)
    b1d4:	e290c663          	blt	ra,s1,a800 <.LBB69_1096>

000000000000b1d8 <.LBB69_1352>:
    b1d8:	07e00093          	li	ra,126
    b1dc:	c4143c23          	sd	ra,-936(s0)
    b1e0:	c6843083          	ld	ra,-920(s0)
    b1e4:	e290c263          	blt	ra,s1,a808 <.LBB69_1097>

000000000000b1e8 <.LBB69_1353>:
    b1e8:	07e00093          	li	ra,126
    b1ec:	c6143423          	sd	ra,-920(s0)
    b1f0:	c7843083          	ld	ra,-904(s0)
    b1f4:	e090ce63          	blt	ra,s1,a810 <.LBB69_1098>

000000000000b1f8 <.LBB69_1354>:
    b1f8:	07e00093          	li	ra,126
    b1fc:	c6143c23          	sd	ra,-904(s0)
    b200:	c8843083          	ld	ra,-888(s0)
    b204:	e090ca63          	blt	ra,s1,a818 <.LBB69_1099>

000000000000b208 <.LBB69_1355>:
    b208:	07e00093          	li	ra,126
    b20c:	c8143423          	sd	ra,-888(s0)
    b210:	c9843083          	ld	ra,-872(s0)
    b214:	e090c663          	blt	ra,s1,a820 <.LBB69_1100>

000000000000b218 <.LBB69_1356>:
    b218:	07e00093          	li	ra,126
    b21c:	c8143c23          	sd	ra,-872(s0)
    b220:	ca843083          	ld	ra,-856(s0)
    b224:	e090c263          	blt	ra,s1,a828 <.LBB69_1101>

000000000000b228 <.LBB69_1357>:
    b228:	07e00093          	li	ra,126
    b22c:	ca143423          	sd	ra,-856(s0)
    b230:	cb843083          	ld	ra,-840(s0)
    b234:	de90ce63          	blt	ra,s1,a830 <.LBB69_1102>

000000000000b238 <.LBB69_1358>:
    b238:	07e00093          	li	ra,126
    b23c:	ca143c23          	sd	ra,-840(s0)
    b240:	cc843083          	ld	ra,-824(s0)
    b244:	de90ca63          	blt	ra,s1,a838 <.LBB69_1103>

000000000000b248 <.LBB69_1359>:
    b248:	07e00093          	li	ra,126
    b24c:	cc143423          	sd	ra,-824(s0)
    b250:	cd843083          	ld	ra,-808(s0)
    b254:	de90c663          	blt	ra,s1,a840 <.LBB69_1104>

000000000000b258 <.LBB69_1360>:
    b258:	07e00093          	li	ra,126
    b25c:	cc143c23          	sd	ra,-808(s0)
    b260:	ce043083          	ld	ra,-800(s0)
    b264:	de90c263          	blt	ra,s1,a848 <.LBB69_1105>

000000000000b268 <.LBB69_1361>:
    b268:	07e00093          	li	ra,126
    b26c:	ce143023          	sd	ra,-800(s0)
    b270:	ce843083          	ld	ra,-792(s0)
    b274:	dc90ce63          	blt	ra,s1,a850 <.LBB69_1106>

000000000000b278 <.LBB69_1362>:
    b278:	07e00093          	li	ra,126
    b27c:	ce143423          	sd	ra,-792(s0)
    b280:	cf043083          	ld	ra,-784(s0)
    b284:	dc90ca63          	blt	ra,s1,a858 <.LBB69_1107>

000000000000b288 <.LBB69_1363>:
    b288:	07e00093          	li	ra,126
    b28c:	ce143823          	sd	ra,-784(s0)
    b290:	cf843083          	ld	ra,-776(s0)
    b294:	dc90c663          	blt	ra,s1,a860 <.LBB69_1108>

000000000000b298 <.LBB69_1364>:
    b298:	07e00093          	li	ra,126
    b29c:	ce143c23          	sd	ra,-776(s0)
    b2a0:	d0043083          	ld	ra,-768(s0)
    b2a4:	dc90c263          	blt	ra,s1,a868 <.LBB69_1109>

000000000000b2a8 <.LBB69_1365>:
    b2a8:	07e00093          	li	ra,126
    b2ac:	d0143023          	sd	ra,-768(s0)
    b2b0:	d0843083          	ld	ra,-760(s0)
    b2b4:	da90ce63          	blt	ra,s1,a870 <.LBB69_1110>

000000000000b2b8 <.LBB69_1366>:
    b2b8:	07e00093          	li	ra,126
    b2bc:	d0143423          	sd	ra,-760(s0)
    b2c0:	d1043083          	ld	ra,-752(s0)
    b2c4:	da90ca63          	blt	ra,s1,a878 <.LBB69_1111>

000000000000b2c8 <.LBB69_1367>:
    b2c8:	07e00093          	li	ra,126
    b2cc:	d0143823          	sd	ra,-752(s0)
    b2d0:	d1843083          	ld	ra,-744(s0)
    b2d4:	da90c663          	blt	ra,s1,a880 <.LBB69_1112>

000000000000b2d8 <.LBB69_1368>:
    b2d8:	07e00093          	li	ra,126
    b2dc:	d0143c23          	sd	ra,-744(s0)
    b2e0:	d2043083          	ld	ra,-736(s0)
    b2e4:	da90c263          	blt	ra,s1,a888 <.LBB69_1113>

000000000000b2e8 <.LBB69_1369>:
    b2e8:	07e00093          	li	ra,126
    b2ec:	d2143023          	sd	ra,-736(s0)
    b2f0:	d2843083          	ld	ra,-728(s0)
    b2f4:	d890ce63          	blt	ra,s1,a890 <.LBB69_1114>

000000000000b2f8 <.LBB69_1370>:
    b2f8:	07e00093          	li	ra,126
    b2fc:	d2143423          	sd	ra,-728(s0)
    b300:	d3043083          	ld	ra,-720(s0)
    b304:	d890ca63          	blt	ra,s1,a898 <.LBB69_1115>

000000000000b308 <.LBB69_1371>:
    b308:	07e00093          	li	ra,126
    b30c:	d2143823          	sd	ra,-720(s0)
    b310:	d4043083          	ld	ra,-704(s0)
    b314:	d890c663          	blt	ra,s1,a8a0 <.LBB69_1116>

000000000000b318 <.LBB69_1372>:
    b318:	07e00093          	li	ra,126
    b31c:	d4143023          	sd	ra,-704(s0)
    b320:	d5043083          	ld	ra,-688(s0)
    b324:	d890c263          	blt	ra,s1,a8a8 <.LBB69_1117>

000000000000b328 <.LBB69_1373>:
    b328:	07e00093          	li	ra,126
    b32c:	d4143823          	sd	ra,-688(s0)
    b330:	d6843083          	ld	ra,-664(s0)
    b334:	d690ce63          	blt	ra,s1,a8b0 <.LBB69_1118>

000000000000b338 <.LBB69_1374>:
    b338:	07e00093          	li	ra,126
    b33c:	d6143423          	sd	ra,-664(s0)
    b340:	d7843083          	ld	ra,-648(s0)
    b344:	d690ca63          	blt	ra,s1,a8b8 <.LBB69_1119>

000000000000b348 <.LBB69_1375>:
    b348:	07e00093          	li	ra,126
    b34c:	d6143c23          	sd	ra,-648(s0)
    b350:	d8843083          	ld	ra,-632(s0)
    b354:	d690c663          	blt	ra,s1,a8c0 <.LBB69_1120>

000000000000b358 <.LBB69_1376>:
    b358:	07e00093          	li	ra,126
    b35c:	d8143423          	sd	ra,-632(s0)
    b360:	d9843083          	ld	ra,-616(s0)
    b364:	d690c263          	blt	ra,s1,a8c8 <.LBB69_1121>

000000000000b368 <.LBB69_1377>:
    b368:	07e00093          	li	ra,126
    b36c:	d8143c23          	sd	ra,-616(s0)
    b370:	da843083          	ld	ra,-600(s0)
    b374:	d490ce63          	blt	ra,s1,a8d0 <.LBB69_1122>

000000000000b378 <.LBB69_1378>:
    b378:	07e00093          	li	ra,126
    b37c:	da143423          	sd	ra,-600(s0)
    b380:	db843083          	ld	ra,-584(s0)
    b384:	d490ca63          	blt	ra,s1,a8d8 <.LBB69_1123>

000000000000b388 <.LBB69_1379>:
    b388:	07e00093          	li	ra,126
    b38c:	da143c23          	sd	ra,-584(s0)
    b390:	dc843083          	ld	ra,-568(s0)
    b394:	d490c663          	blt	ra,s1,a8e0 <.LBB69_1124>

000000000000b398 <.LBB69_1380>:
    b398:	07e00093          	li	ra,126
    b39c:	dc143423          	sd	ra,-568(s0)
    b3a0:	dd843083          	ld	ra,-552(s0)
    b3a4:	d490c263          	blt	ra,s1,a8e8 <.LBB69_1125>

000000000000b3a8 <.LBB69_1381>:
    b3a8:	07e00093          	li	ra,126
    b3ac:	dc143c23          	sd	ra,-552(s0)
    b3b0:	b3843083          	ld	ra,-1224(s0)
    b3b4:	d290ce63          	blt	ra,s1,a8f0 <.LBB69_1126>

000000000000b3b8 <.LBB69_1382>:
    b3b8:	07e00093          	li	ra,126
    b3bc:	b2143c23          	sd	ra,-1224(s0)
    b3c0:	b4843083          	ld	ra,-1208(s0)
    b3c4:	d290ca63          	blt	ra,s1,a8f8 <.LBB69_1127>

000000000000b3c8 <.LBB69_1383>:
    b3c8:	07e00093          	li	ra,126
    b3cc:	b4143423          	sd	ra,-1208(s0)
    b3d0:	b5843083          	ld	ra,-1192(s0)
    b3d4:	d290c663          	blt	ra,s1,a900 <.LBB69_1128>

000000000000b3d8 <.LBB69_1384>:
    b3d8:	07e00093          	li	ra,126
    b3dc:	b4143c23          	sd	ra,-1192(s0)
    b3e0:	b6843083          	ld	ra,-1176(s0)
    b3e4:	d290c263          	blt	ra,s1,a908 <.LBB69_1129>

000000000000b3e8 <.LBB69_1385>:
    b3e8:	07e00093          	li	ra,126
    b3ec:	b6143423          	sd	ra,-1176(s0)
    b3f0:	b7843083          	ld	ra,-1160(s0)
    b3f4:	d090ce63          	blt	ra,s1,a910 <.LBB69_1130>

000000000000b3f8 <.LBB69_1386>:
    b3f8:	07e00093          	li	ra,126
    b3fc:	b6143c23          	sd	ra,-1160(s0)
    b400:	b8843083          	ld	ra,-1144(s0)
    b404:	d090ca63          	blt	ra,s1,a918 <.LBB69_1131>

000000000000b408 <.LBB69_1387>:
    b408:	07e00093          	li	ra,126
    b40c:	b8143423          	sd	ra,-1144(s0)
    b410:	b9843083          	ld	ra,-1128(s0)
    b414:	d090c663          	blt	ra,s1,a920 <.LBB69_1132>

000000000000b418 <.LBB69_1388>:
    b418:	07e00093          	li	ra,126
    b41c:	b8143c23          	sd	ra,-1128(s0)
    b420:	ba843083          	ld	ra,-1112(s0)
    b424:	d090c263          	blt	ra,s1,a928 <.LBB69_1133>

000000000000b428 <.LBB69_1389>:
    b428:	07e00093          	li	ra,126
    b42c:	ba143423          	sd	ra,-1112(s0)
    b430:	bb843083          	ld	ra,-1096(s0)
    b434:	ce90ce63          	blt	ra,s1,a930 <.LBB69_1134>

000000000000b438 <.LBB69_1390>:
    b438:	07e00093          	li	ra,126
    b43c:	ba143c23          	sd	ra,-1096(s0)
    b440:	bc843083          	ld	ra,-1080(s0)
    b444:	ce90ca63          	blt	ra,s1,a938 <.LBB69_1135>

000000000000b448 <.LBB69_1391>:
    b448:	07e00093          	li	ra,126
    b44c:	bc143423          	sd	ra,-1080(s0)
    b450:	bd843083          	ld	ra,-1064(s0)
    b454:	ce90c663          	blt	ra,s1,a940 <.LBB69_1136>

000000000000b458 <.LBB69_1392>:
    b458:	07e00093          	li	ra,126
    b45c:	bc143c23          	sd	ra,-1064(s0)
    b460:	be043083          	ld	ra,-1056(s0)
    b464:	ce90c263          	blt	ra,s1,a948 <.LBB69_1137>

000000000000b468 <.LBB69_1393>:
    b468:	07e00093          	li	ra,126
    b46c:	be143023          	sd	ra,-1056(s0)
    b470:	be843083          	ld	ra,-1048(s0)
    b474:	cc90ce63          	blt	ra,s1,a950 <.LBB69_1138>

000000000000b478 <.LBB69_1394>:
    b478:	07e00093          	li	ra,126
    b47c:	be143423          	sd	ra,-1048(s0)
    b480:	bf043083          	ld	ra,-1040(s0)
    b484:	cc90ca63          	blt	ra,s1,a958 <.LBB69_1139>

000000000000b488 <.LBB69_1395>:
    b488:	07e00093          	li	ra,126
    b48c:	be143823          	sd	ra,-1040(s0)
    b490:	bf843083          	ld	ra,-1032(s0)
    b494:	cc90c663          	blt	ra,s1,a960 <.LBB69_1140>

000000000000b498 <.LBB69_1396>:
    b498:	07e00093          	li	ra,126
    b49c:	be143c23          	sd	ra,-1032(s0)
    b4a0:	c0043083          	ld	ra,-1024(s0)
    b4a4:	cc90c263          	blt	ra,s1,a968 <.LBB69_1141>

000000000000b4a8 <.LBB69_1397>:
    b4a8:	07e00093          	li	ra,126
    b4ac:	c0143023          	sd	ra,-1024(s0)
    b4b0:	c0843083          	ld	ra,-1016(s0)
    b4b4:	ca90ce63          	blt	ra,s1,a970 <.LBB69_1142>

000000000000b4b8 <.LBB69_1398>:
    b4b8:	07e00093          	li	ra,126
    b4bc:	c0143423          	sd	ra,-1016(s0)
    b4c0:	c1043083          	ld	ra,-1008(s0)
    b4c4:	ca90ca63          	blt	ra,s1,a978 <.LBB69_1143>

000000000000b4c8 <.LBB69_1399>:
    b4c8:	07e00093          	li	ra,126
    b4cc:	c0143823          	sd	ra,-1008(s0)
    b4d0:	c1843083          	ld	ra,-1000(s0)
    b4d4:	ca90c663          	blt	ra,s1,a980 <.LBB69_1144>

000000000000b4d8 <.LBB69_1400>:
    b4d8:	07e00093          	li	ra,126
    b4dc:	c0143c23          	sd	ra,-1000(s0)
    b4e0:	c2043083          	ld	ra,-992(s0)
    b4e4:	ca90c263          	blt	ra,s1,a988 <.LBB69_1145>

000000000000b4e8 <.LBB69_1401>:
    b4e8:	07e00093          	li	ra,126
    b4ec:	c2143023          	sd	ra,-992(s0)
    b4f0:	c2843083          	ld	ra,-984(s0)
    b4f4:	c890ce63          	blt	ra,s1,a990 <.LBB69_1146>

000000000000b4f8 <.LBB69_1402>:
    b4f8:	07e00093          	li	ra,126
    b4fc:	c2143423          	sd	ra,-984(s0)
    b500:	c3043083          	ld	ra,-976(s0)
    b504:	c890ca63          	blt	ra,s1,a998 <.LBB69_1147>

000000000000b508 <.LBB69_1403>:
    b508:	07e00093          	li	ra,126
    b50c:	c2143823          	sd	ra,-976(s0)
    b510:	c4043083          	ld	ra,-960(s0)
    b514:	c890c663          	blt	ra,s1,a9a0 <.LBB69_1148>

000000000000b518 <.LBB69_1404>:
    b518:	07e00093          	li	ra,126
    b51c:	c4143023          	sd	ra,-960(s0)
    b520:	c5043083          	ld	ra,-944(s0)
    b524:	c890c263          	blt	ra,s1,a9a8 <.LBB69_1149>

000000000000b528 <.LBB69_1405>:
    b528:	07e00093          	li	ra,126
    b52c:	c4143823          	sd	ra,-944(s0)
    b530:	c6043083          	ld	ra,-928(s0)
    b534:	c690ce63          	blt	ra,s1,a9b0 <.LBB69_1150>

000000000000b538 <.LBB69_1406>:
    b538:	07e00093          	li	ra,126
    b53c:	c6143023          	sd	ra,-928(s0)
    b540:	c7043083          	ld	ra,-912(s0)
    b544:	c690ca63          	blt	ra,s1,a9b8 <.LBB69_1151>

000000000000b548 <.LBB69_1407>:
    b548:	07e00093          	li	ra,126
    b54c:	c6143823          	sd	ra,-912(s0)
    b550:	c8043083          	ld	ra,-896(s0)
    b554:	c690c663          	blt	ra,s1,a9c0 <.LBB69_1152>

000000000000b558 <.LBB69_1408>:
    b558:	07e00093          	li	ra,126
    b55c:	c8143023          	sd	ra,-896(s0)
    b560:	c9043083          	ld	ra,-880(s0)
    b564:	c690c263          	blt	ra,s1,a9c8 <.LBB69_1153>

000000000000b568 <.LBB69_1409>:
    b568:	07e00093          	li	ra,126
    b56c:	c8143823          	sd	ra,-880(s0)
    b570:	ca043083          	ld	ra,-864(s0)
    b574:	c490ce63          	blt	ra,s1,a9d0 <.LBB69_1154>

000000000000b578 <.LBB69_1410>:
    b578:	07e00093          	li	ra,126
    b57c:	ca143023          	sd	ra,-864(s0)
    b580:	cb043083          	ld	ra,-848(s0)
    b584:	c490ca63          	blt	ra,s1,a9d8 <.LBB69_1155>

000000000000b588 <.LBB69_1411>:
    b588:	07e00093          	li	ra,126
    b58c:	ca143823          	sd	ra,-848(s0)
    b590:	cc043083          	ld	ra,-832(s0)
    b594:	c490c663          	blt	ra,s1,a9e0 <.LBB69_1156>

000000000000b598 <.LBB69_1412>:
    b598:	07e00093          	li	ra,126
    b59c:	cc143023          	sd	ra,-832(s0)
    b5a0:	cd043083          	ld	ra,-816(s0)
    b5a4:	c490c263          	blt	ra,s1,a9e8 <.LBB69_1157>

000000000000b5a8 <.LBB69_1413>:
    b5a8:	07e00093          	li	ra,126
    b5ac:	cc143823          	sd	ra,-816(s0)
    b5b0:	a3843083          	ld	ra,-1480(s0)
    b5b4:	c290ce63          	blt	ra,s1,a9f0 <.LBB69_1158>

000000000000b5b8 <.LBB69_1414>:
    b5b8:	07e00093          	li	ra,126
    b5bc:	a2143c23          	sd	ra,-1480(s0)
    b5c0:	a4843083          	ld	ra,-1464(s0)
    b5c4:	c290ca63          	blt	ra,s1,a9f8 <.LBB69_1159>

000000000000b5c8 <.LBB69_1415>:
    b5c8:	07e00093          	li	ra,126
    b5cc:	a4143423          	sd	ra,-1464(s0)
    b5d0:	a5843083          	ld	ra,-1448(s0)
    b5d4:	c290c663          	blt	ra,s1,aa00 <.LBB69_1160>

000000000000b5d8 <.LBB69_1416>:
    b5d8:	07e00093          	li	ra,126
    b5dc:	a4143c23          	sd	ra,-1448(s0)
    b5e0:	a6843083          	ld	ra,-1432(s0)
    b5e4:	c290c263          	blt	ra,s1,aa08 <.LBB69_1161>

000000000000b5e8 <.LBB69_1417>:
    b5e8:	07e00093          	li	ra,126
    b5ec:	a6143423          	sd	ra,-1432(s0)
    b5f0:	a7843083          	ld	ra,-1416(s0)
    b5f4:	c090ce63          	blt	ra,s1,aa10 <.LBB69_1162>

000000000000b5f8 <.LBB69_1418>:
    b5f8:	07e00093          	li	ra,126
    b5fc:	a6143c23          	sd	ra,-1416(s0)
    b600:	a8843083          	ld	ra,-1400(s0)
    b604:	c090ca63          	blt	ra,s1,aa18 <.LBB69_1163>

000000000000b608 <.LBB69_1419>:
    b608:	07e00093          	li	ra,126
    b60c:	a8143423          	sd	ra,-1400(s0)
    b610:	a9843083          	ld	ra,-1384(s0)
    b614:	c090c663          	blt	ra,s1,aa20 <.LBB69_1164>

000000000000b618 <.LBB69_1420>:
    b618:	07e00093          	li	ra,126
    b61c:	a8143c23          	sd	ra,-1384(s0)
    b620:	aa843083          	ld	ra,-1368(s0)
    b624:	c090c263          	blt	ra,s1,aa28 <.LBB69_1165>

000000000000b628 <.LBB69_1421>:
    b628:	07e00093          	li	ra,126
    b62c:	aa143423          	sd	ra,-1368(s0)
    b630:	ab843083          	ld	ra,-1352(s0)
    b634:	be90ce63          	blt	ra,s1,aa30 <.LBB69_1166>

000000000000b638 <.LBB69_1422>:
    b638:	07e00093          	li	ra,126
    b63c:	aa143c23          	sd	ra,-1352(s0)
    b640:	ac843083          	ld	ra,-1336(s0)
    b644:	be90ca63          	blt	ra,s1,aa38 <.LBB69_1167>

000000000000b648 <.LBB69_1423>:
    b648:	07e00093          	li	ra,126
    b64c:	ac143423          	sd	ra,-1336(s0)
    b650:	ad843083          	ld	ra,-1320(s0)
    b654:	be90c663          	blt	ra,s1,aa40 <.LBB69_1168>

000000000000b658 <.LBB69_1424>:
    b658:	07e00093          	li	ra,126
    b65c:	ac143c23          	sd	ra,-1320(s0)
    b660:	ae043083          	ld	ra,-1312(s0)
    b664:	be90c263          	blt	ra,s1,aa48 <.LBB69_1169>

000000000000b668 <.LBB69_1425>:
    b668:	07e00093          	li	ra,126
    b66c:	ae143023          	sd	ra,-1312(s0)
    b670:	ae843083          	ld	ra,-1304(s0)
    b674:	bc90ce63          	blt	ra,s1,aa50 <.LBB69_1170>

000000000000b678 <.LBB69_1426>:
    b678:	07e00093          	li	ra,126
    b67c:	ae143423          	sd	ra,-1304(s0)
    b680:	af043083          	ld	ra,-1296(s0)
    b684:	bc90ca63          	blt	ra,s1,aa58 <.LBB69_1171>

000000000000b688 <.LBB69_1427>:
    b688:	07e00093          	li	ra,126
    b68c:	ae143823          	sd	ra,-1296(s0)
    b690:	af843083          	ld	ra,-1288(s0)
    b694:	bc90c663          	blt	ra,s1,aa60 <.LBB69_1172>

000000000000b698 <.LBB69_1428>:
    b698:	07e00093          	li	ra,126
    b69c:	ae143c23          	sd	ra,-1288(s0)
    b6a0:	b0043083          	ld	ra,-1280(s0)
    b6a4:	bc90c263          	blt	ra,s1,aa68 <.LBB69_1173>

000000000000b6a8 <.LBB69_1429>:
    b6a8:	07e00093          	li	ra,126
    b6ac:	b0143023          	sd	ra,-1280(s0)
    b6b0:	b0843083          	ld	ra,-1272(s0)
    b6b4:	ba90ce63          	blt	ra,s1,aa70 <.LBB69_1174>

000000000000b6b8 <.LBB69_1430>:
    b6b8:	07e00093          	li	ra,126
    b6bc:	b0143423          	sd	ra,-1272(s0)
    b6c0:	b1043083          	ld	ra,-1264(s0)
    b6c4:	ba90ca63          	blt	ra,s1,aa78 <.LBB69_1175>

000000000000b6c8 <.LBB69_1431>:
    b6c8:	07e00093          	li	ra,126
    b6cc:	b0143823          	sd	ra,-1264(s0)
    b6d0:	b1843083          	ld	ra,-1256(s0)
    b6d4:	ba90c663          	blt	ra,s1,aa80 <.LBB69_1176>

000000000000b6d8 <.LBB69_1432>:
    b6d8:	07e00093          	li	ra,126
    b6dc:	b0143c23          	sd	ra,-1256(s0)
    b6e0:	b2043083          	ld	ra,-1248(s0)
    b6e4:	ba90c263          	blt	ra,s1,aa88 <.LBB69_1177>

000000000000b6e8 <.LBB69_1433>:
    b6e8:	07e00093          	li	ra,126
    b6ec:	b2143023          	sd	ra,-1248(s0)
    b6f0:	b2843083          	ld	ra,-1240(s0)
    b6f4:	b890ce63          	blt	ra,s1,aa90 <.LBB69_1178>

000000000000b6f8 <.LBB69_1434>:
    b6f8:	07e00093          	li	ra,126
    b6fc:	b2143423          	sd	ra,-1240(s0)
    b700:	b3043083          	ld	ra,-1232(s0)
    b704:	b890ca63          	blt	ra,s1,aa98 <.LBB69_1179>

000000000000b708 <.LBB69_1435>:
    b708:	07e00093          	li	ra,126
    b70c:	b2143823          	sd	ra,-1232(s0)
    b710:	b4043083          	ld	ra,-1216(s0)
    b714:	b890c663          	blt	ra,s1,aaa0 <.LBB69_1180>

000000000000b718 <.LBB69_1436>:
    b718:	07e00093          	li	ra,126
    b71c:	b4143023          	sd	ra,-1216(s0)
    b720:	b5043083          	ld	ra,-1200(s0)
    b724:	b890c263          	blt	ra,s1,aaa8 <.LBB69_1181>

000000000000b728 <.LBB69_1437>:
    b728:	07e00093          	li	ra,126
    b72c:	b4143823          	sd	ra,-1200(s0)
    b730:	b6043083          	ld	ra,-1184(s0)
    b734:	b690ce63          	blt	ra,s1,aab0 <.LBB69_1182>

000000000000b738 <.LBB69_1438>:
    b738:	07e00093          	li	ra,126
    b73c:	b6143023          	sd	ra,-1184(s0)
    b740:	b7043083          	ld	ra,-1168(s0)
    b744:	b690ca63          	blt	ra,s1,aab8 <.LBB69_1183>

000000000000b748 <.LBB69_1439>:
    b748:	07e00093          	li	ra,126
    b74c:	b6143823          	sd	ra,-1168(s0)
    b750:	b8043083          	ld	ra,-1152(s0)
    b754:	b690c663          	blt	ra,s1,aac0 <.LBB69_1184>

000000000000b758 <.LBB69_1440>:
    b758:	07e00093          	li	ra,126
    b75c:	b8143023          	sd	ra,-1152(s0)
    b760:	b9043083          	ld	ra,-1136(s0)
    b764:	b690c263          	blt	ra,s1,aac8 <.LBB69_1185>

000000000000b768 <.LBB69_1441>:
    b768:	07e00093          	li	ra,126
    b76c:	b8143823          	sd	ra,-1136(s0)
    b770:	ba043083          	ld	ra,-1120(s0)
    b774:	b490ce63          	blt	ra,s1,aad0 <.LBB69_1186>

000000000000b778 <.LBB69_1442>:
    b778:	07e00093          	li	ra,126
    b77c:	ba143023          	sd	ra,-1120(s0)
    b780:	bb043083          	ld	ra,-1104(s0)
    b784:	b490ca63          	blt	ra,s1,aad8 <.LBB69_1187>

000000000000b788 <.LBB69_1443>:
    b788:	07e00093          	li	ra,126
    b78c:	ba143823          	sd	ra,-1104(s0)
    b790:	bc043083          	ld	ra,-1088(s0)
    b794:	b490c663          	blt	ra,s1,aae0 <.LBB69_1188>

000000000000b798 <.LBB69_1444>:
    b798:	07e00093          	li	ra,126
    b79c:	bc143023          	sd	ra,-1088(s0)
    b7a0:	bd043083          	ld	ra,-1072(s0)
    b7a4:	b490c263          	blt	ra,s1,aae8 <.LBB69_1189>

000000000000b7a8 <.LBB69_1445>:
    b7a8:	07e00093          	li	ra,126
    b7ac:	bc143823          	sd	ra,-1072(s0)
    b7b0:	b29bce63          	blt	s7,s1,aaec <.LBB69_1190>

000000000000b7b4 <.LBB69_1446>:
    b7b4:	07e00b93          	li	s7,126
    b7b8:	b29acc63          	blt	s5,s1,aaf0 <.LBB69_1191>

000000000000b7bc <.LBB69_1447>:
    b7bc:	07e00a93          	li	s5,126
    b7c0:	b299ca63          	blt	s3,s1,aaf4 <.LBB69_1192>

000000000000b7c4 <.LBB69_1448>:
    b7c4:	07e00993          	li	s3,126
    b7c8:	b29e4863          	blt	t3,s1,aaf8 <.LBB69_1193>

000000000000b7cc <.LBB69_1449>:
    b7cc:	07e00e13          	li	t3,126
    b7d0:	b296c663          	blt	a3,s1,aafc <.LBB69_1194>

000000000000b7d4 <.LBB69_1450>:
    b7d4:	07e00693          	li	a3,126
    b7d8:	b2934463          	blt	t1,s1,ab00 <.LBB69_1195>

000000000000b7dc <.LBB69_1451>:
    b7dc:	07e00313          	li	t1,126
    b7e0:	b2974263          	blt	a4,s1,ab04 <.LBB69_1196>

000000000000b7e4 <.LBB69_1452>:
    b7e4:	07e00713          	li	a4,126
    b7e8:	b29ec063          	blt	t4,s1,ab08 <.LBB69_1197>

000000000000b7ec <.LBB69_1453>:
    b7ec:	07e00e93          	li	t4,126
    b7f0:	84843783          	ld	a5,-1976(s0)
    b7f4:	b097ce63          	blt	a5,s1,ab10 <.LBB69_1198>

000000000000b7f8 <.LBB69_1454>:
    b7f8:	07e00793          	li	a5,126
    b7fc:	84f43423          	sd	a5,-1976(s0)
    b800:	9c843083          	ld	ra,-1592(s0)
    b804:	b090ca63          	blt	ra,s1,ab18 <.LBB69_1199>

000000000000b808 <.LBB69_1455>:
    b808:	07e00093          	li	ra,126
    b80c:	9c143423          	sd	ra,-1592(s0)
    b810:	9d843083          	ld	ra,-1576(s0)
    b814:	b090c663          	blt	ra,s1,ab20 <.LBB69_1200>

000000000000b818 <.LBB69_1456>:
    b818:	07e00093          	li	ra,126
    b81c:	9c143c23          	sd	ra,-1576(s0)
    b820:	9e043083          	ld	ra,-1568(s0)
    b824:	b090c263          	blt	ra,s1,ab28 <.LBB69_1201>

000000000000b828 <.LBB69_1457>:
    b828:	07e00093          	li	ra,126
    b82c:	9e143023          	sd	ra,-1568(s0)
    b830:	9e843083          	ld	ra,-1560(s0)
    b834:	ae90ce63          	blt	ra,s1,ab30 <.LBB69_1202>

000000000000b838 <.LBB69_1458>:
    b838:	07e00093          	li	ra,126
    b83c:	9e143423          	sd	ra,-1560(s0)
    b840:	9f043083          	ld	ra,-1552(s0)
    b844:	ae90ca63          	blt	ra,s1,ab38 <.LBB69_1203>

000000000000b848 <.LBB69_1459>:
    b848:	07e00093          	li	ra,126
    b84c:	9e143823          	sd	ra,-1552(s0)
    b850:	9f843083          	ld	ra,-1544(s0)
    b854:	ae90c663          	blt	ra,s1,ab40 <.LBB69_1204>

000000000000b858 <.LBB69_1460>:
    b858:	07e00093          	li	ra,126
    b85c:	9e143c23          	sd	ra,-1544(s0)
    b860:	a0043083          	ld	ra,-1536(s0)
    b864:	ae90c263          	blt	ra,s1,ab48 <.LBB69_1205>

000000000000b868 <.LBB69_1461>:
    b868:	07e00093          	li	ra,126
    b86c:	a0143023          	sd	ra,-1536(s0)
    b870:	a0843083          	ld	ra,-1528(s0)
    b874:	ac90ce63          	blt	ra,s1,ab50 <.LBB69_1206>

000000000000b878 <.LBB69_1462>:
    b878:	07e00093          	li	ra,126
    b87c:	a0143423          	sd	ra,-1528(s0)
    b880:	a1043083          	ld	ra,-1520(s0)
    b884:	ac90ca63          	blt	ra,s1,ab58 <.LBB69_1207>

000000000000b888 <.LBB69_1463>:
    b888:	07e00093          	li	ra,126
    b88c:	a0143823          	sd	ra,-1520(s0)
    b890:	a1843083          	ld	ra,-1512(s0)
    b894:	ac90c663          	blt	ra,s1,ab60 <.LBB69_1208>

000000000000b898 <.LBB69_1464>:
    b898:	07e00093          	li	ra,126
    b89c:	a0143c23          	sd	ra,-1512(s0)
    b8a0:	a2043083          	ld	ra,-1504(s0)
    b8a4:	ac90c263          	blt	ra,s1,ab68 <.LBB69_1209>

000000000000b8a8 <.LBB69_1465>:
    b8a8:	07e00093          	li	ra,126
    b8ac:	a2143023          	sd	ra,-1504(s0)
    b8b0:	a2843083          	ld	ra,-1496(s0)
    b8b4:	aa90ce63          	blt	ra,s1,ab70 <.LBB69_1210>

000000000000b8b8 <.LBB69_1466>:
    b8b8:	07e00093          	li	ra,126
    b8bc:	a2143423          	sd	ra,-1496(s0)
    b8c0:	a3043083          	ld	ra,-1488(s0)
    b8c4:	aa90ca63          	blt	ra,s1,ab78 <.LBB69_1211>

000000000000b8c8 <.LBB69_1467>:
    b8c8:	07e00093          	li	ra,126
    b8cc:	a2143823          	sd	ra,-1488(s0)
    b8d0:	a4043083          	ld	ra,-1472(s0)
    b8d4:	aa90c663          	blt	ra,s1,ab80 <.LBB69_1212>

000000000000b8d8 <.LBB69_1468>:
    b8d8:	07e00093          	li	ra,126
    b8dc:	a4143023          	sd	ra,-1472(s0)
    b8e0:	a5043083          	ld	ra,-1456(s0)
    b8e4:	aa90c263          	blt	ra,s1,ab88 <.LBB69_1213>

000000000000b8e8 <.LBB69_1469>:
    b8e8:	07e00093          	li	ra,126
    b8ec:	a4143823          	sd	ra,-1456(s0)
    b8f0:	a6043083          	ld	ra,-1440(s0)
    b8f4:	a890ce63          	blt	ra,s1,ab90 <.LBB69_1214>

000000000000b8f8 <.LBB69_1470>:
    b8f8:	07e00093          	li	ra,126
    b8fc:	a6143023          	sd	ra,-1440(s0)
    b900:	a7043083          	ld	ra,-1424(s0)
    b904:	a890ca63          	blt	ra,s1,ab98 <.LBB69_1215>

000000000000b908 <.LBB69_1471>:
    b908:	07e00093          	li	ra,126
    b90c:	a6143823          	sd	ra,-1424(s0)
    b910:	a8043083          	ld	ra,-1408(s0)
    b914:	a890c663          	blt	ra,s1,aba0 <.LBB69_1216>

000000000000b918 <.LBB69_1472>:
    b918:	07e00093          	li	ra,126
    b91c:	a8143023          	sd	ra,-1408(s0)
    b920:	a9043083          	ld	ra,-1392(s0)
    b924:	a890c263          	blt	ra,s1,aba8 <.LBB69_1217>

000000000000b928 <.LBB69_1473>:
    b928:	07e00093          	li	ra,126
    b92c:	a8143823          	sd	ra,-1392(s0)
    b930:	aa043083          	ld	ra,-1376(s0)
    b934:	a690ce63          	blt	ra,s1,abb0 <.LBB69_1218>

000000000000b938 <.LBB69_1474>:
    b938:	07e00093          	li	ra,126
    b93c:	aa143023          	sd	ra,-1376(s0)
    b940:	ab043083          	ld	ra,-1360(s0)
    b944:	a690ca63          	blt	ra,s1,abb8 <.LBB69_1219>

000000000000b948 <.LBB69_1475>:
    b948:	07e00093          	li	ra,126
    b94c:	aa143823          	sd	ra,-1360(s0)
    b950:	ac043083          	ld	ra,-1344(s0)
    b954:	a690c663          	blt	ra,s1,abc0 <.LBB69_1220>

000000000000b958 <.LBB69_1476>:
    b958:	07e00093          	li	ra,126
    b95c:	ac143023          	sd	ra,-1344(s0)
    b960:	ad043083          	ld	ra,-1328(s0)
    b964:	a690c263          	blt	ra,s1,abc8 <.LBB69_1221>

000000000000b968 <.LBB69_1477>:
    b968:	07e00093          	li	ra,126
    b96c:	ac143823          	sd	ra,-1328(s0)
    b970:	8c843083          	ld	ra,-1848(s0)
    b974:	a490ce63          	blt	ra,s1,abd0 <.LBB69_1222>

000000000000b978 <.LBB69_1478>:
    b978:	07e00093          	li	ra,126
    b97c:	8c143423          	sd	ra,-1848(s0)
    b980:	8d843083          	ld	ra,-1832(s0)
    b984:	a490ca63          	blt	ra,s1,abd8 <.LBB69_1223>

000000000000b988 <.LBB69_1479>:
    b988:	07e00093          	li	ra,126
    b98c:	8c143c23          	sd	ra,-1832(s0)
    b990:	8e843083          	ld	ra,-1816(s0)
    b994:	a490c663          	blt	ra,s1,abe0 <.LBB69_1224>

000000000000b998 <.LBB69_1480>:
    b998:	07e00093          	li	ra,126
    b99c:	8e143423          	sd	ra,-1816(s0)
    b9a0:	8f843083          	ld	ra,-1800(s0)
    b9a4:	a490c263          	blt	ra,s1,abe8 <.LBB69_1225>

000000000000b9a8 <.LBB69_1481>:
    b9a8:	07e00093          	li	ra,126
    b9ac:	8e143c23          	sd	ra,-1800(s0)
    b9b0:	90843083          	ld	ra,-1784(s0)
    b9b4:	a290ce63          	blt	ra,s1,abf0 <.LBB69_1226>

000000000000b9b8 <.LBB69_1482>:
    b9b8:	07e00093          	li	ra,126
    b9bc:	90143423          	sd	ra,-1784(s0)
    b9c0:	91843083          	ld	ra,-1768(s0)
    b9c4:	a290ca63          	blt	ra,s1,abf8 <.LBB69_1227>

000000000000b9c8 <.LBB69_1483>:
    b9c8:	07e00093          	li	ra,126
    b9cc:	90143c23          	sd	ra,-1768(s0)
    b9d0:	92843083          	ld	ra,-1752(s0)
    b9d4:	a290c663          	blt	ra,s1,ac00 <.LBB69_1228>

000000000000b9d8 <.LBB69_1484>:
    b9d8:	07e00093          	li	ra,126
    b9dc:	92143423          	sd	ra,-1752(s0)
    b9e0:	93843083          	ld	ra,-1736(s0)
    b9e4:	a290c263          	blt	ra,s1,ac08 <.LBB69_1229>

000000000000b9e8 <.LBB69_1485>:
    b9e8:	07e00093          	li	ra,126
    b9ec:	92143c23          	sd	ra,-1736(s0)
    b9f0:	94843083          	ld	ra,-1720(s0)
    b9f4:	a090ce63          	blt	ra,s1,ac10 <.LBB69_1230>

000000000000b9f8 <.LBB69_1486>:
    b9f8:	07e00093          	li	ra,126
    b9fc:	94143423          	sd	ra,-1720(s0)
    ba00:	95843083          	ld	ra,-1704(s0)
    ba04:	a090ca63          	blt	ra,s1,ac18 <.LBB69_1231>

000000000000ba08 <.LBB69_1487>:
    ba08:	07e00093          	li	ra,126
    ba0c:	94143c23          	sd	ra,-1704(s0)
    ba10:	96843083          	ld	ra,-1688(s0)
    ba14:	a090c663          	blt	ra,s1,ac20 <.LBB69_1232>

000000000000ba18 <.LBB69_1488>:
    ba18:	07e00093          	li	ra,126
    ba1c:	96143423          	sd	ra,-1688(s0)
    ba20:	97043083          	ld	ra,-1680(s0)
    ba24:	a090c263          	blt	ra,s1,ac28 <.LBB69_1233>

000000000000ba28 <.LBB69_1489>:
    ba28:	07e00093          	li	ra,126
    ba2c:	96143823          	sd	ra,-1680(s0)
    ba30:	97843083          	ld	ra,-1672(s0)
    ba34:	9e90ce63          	blt	ra,s1,ac30 <.LBB69_1234>

000000000000ba38 <.LBB69_1490>:
    ba38:	07e00093          	li	ra,126
    ba3c:	96143c23          	sd	ra,-1672(s0)
    ba40:	98043083          	ld	ra,-1664(s0)
    ba44:	9e90ca63          	blt	ra,s1,ac38 <.LBB69_1235>

000000000000ba48 <.LBB69_1491>:
    ba48:	07e00093          	li	ra,126
    ba4c:	98143023          	sd	ra,-1664(s0)
    ba50:	98843083          	ld	ra,-1656(s0)
    ba54:	9e90c663          	blt	ra,s1,ac40 <.LBB69_1236>

000000000000ba58 <.LBB69_1492>:
    ba58:	07e00093          	li	ra,126
    ba5c:	98143423          	sd	ra,-1656(s0)
    ba60:	99043083          	ld	ra,-1648(s0)
    ba64:	9e90c263          	blt	ra,s1,ac48 <.LBB69_1237>

000000000000ba68 <.LBB69_1493>:
    ba68:	07e00093          	li	ra,126
    ba6c:	98143823          	sd	ra,-1648(s0)
    ba70:	99843083          	ld	ra,-1640(s0)
    ba74:	9c90ce63          	blt	ra,s1,ac50 <.LBB69_1238>

000000000000ba78 <.LBB69_1494>:
    ba78:	07e00093          	li	ra,126
    ba7c:	98143c23          	sd	ra,-1640(s0)
    ba80:	9a043083          	ld	ra,-1632(s0)
    ba84:	9c90ca63          	blt	ra,s1,ac58 <.LBB69_1239>

000000000000ba88 <.LBB69_1495>:
    ba88:	07e00093          	li	ra,126
    ba8c:	9a143023          	sd	ra,-1632(s0)
    ba90:	9a843083          	ld	ra,-1624(s0)
    ba94:	9c90c663          	blt	ra,s1,ac60 <.LBB69_1240>

000000000000ba98 <.LBB69_1496>:
    ba98:	07e00093          	li	ra,126
    ba9c:	9a143423          	sd	ra,-1624(s0)
    baa0:	9b043083          	ld	ra,-1616(s0)
    baa4:	9c90c263          	blt	ra,s1,ac68 <.LBB69_1241>

000000000000baa8 <.LBB69_1497>:
    baa8:	07e00093          	li	ra,126
    baac:	9a143823          	sd	ra,-1616(s0)
    bab0:	9b843083          	ld	ra,-1608(s0)
    bab4:	9a90ce63          	blt	ra,s1,ac70 <.LBB69_1242>

000000000000bab8 <.LBB69_1498>:
    bab8:	07e00093          	li	ra,126
    babc:	9a143c23          	sd	ra,-1608(s0)
    bac0:	9a9dca63          	blt	s11,s1,ac74 <.LBB69_1243>

000000000000bac4 <.LBB69_1499>:
    bac4:	07e00d93          	li	s11,126
    bac8:	9a9b4863          	blt	s6,s1,ac78 <.LBB69_1244>

000000000000bacc <.LBB69_1500>:
    bacc:	07e00b13          	li	s6,126
    bad0:	9a9a4663          	blt	s4,s1,ac7c <.LBB69_1245>

000000000000bad4 <.LBB69_1501>:
    bad4:	07e00a13          	li	s4,126
    bad8:	9a994463          	blt	s2,s1,ac80 <.LBB69_1246>

000000000000badc <.LBB69_1502>:
    badc:	07e00913          	li	s2,126
    bae0:	9a9f4263          	blt	t5,s1,ac84 <.LBB69_1247>

000000000000bae4 <.LBB69_1503>:
    bae4:	07e00f13          	li	t5,126
    bae8:	9a93c063          	blt	t2,s1,ac88 <.LBB69_1248>

000000000000baec <.LBB69_1504>:
    baec:	07e00393          	li	t2,126
    baf0:	9892ce63          	blt	t0,s1,ac8c <.LBB69_1249>

000000000000baf4 <.LBB69_1505>:
    baf4:	07e00293          	li	t0,126
    baf8:	989d4c63          	blt	s10,s1,ac90 <.LBB69_1250>

000000000000bafc <.LBB69_1506>:
    bafc:	07e00d13          	li	s10,126
    bb00:	98984a63          	blt	a6,s1,ac94 <.LBB69_1251>

000000000000bb04 <.LBB69_1507>:
    bb04:	07e00813          	li	a6,126
    bb08:	9c043083          	ld	ra,-1600(s0)
    bb0c:	9890c863          	blt	ra,s1,ac9c <.LBB69_1252>

000000000000bb10 <.LBB69_1508>:
    bb10:	07e00093          	li	ra,126
    bb14:	9c143023          	sd	ra,-1600(s0)
    bb18:	9d043083          	ld	ra,-1584(s0)
    bb1c:	9890c463          	blt	ra,s1,aca4 <.LBB69_1253>

000000000000bb20 <.LBB69_1509>:
    bb20:	07e00093          	li	ra,126
    bb24:	9c143823          	sd	ra,-1584(s0)
    bb28:	989fc063          	blt	t6,s1,aca8 <.LBB69_1254>

000000000000bb2c <.LBB69_1510>:
    bb2c:	07e00f93          	li	t6,126
    bb30:	969cce63          	blt	s9,s1,acac <.LBB69_1255>

000000000000bb34 <.LBB69_1511>:
    bb34:	07e00c93          	li	s9,126
    bb38:	96954c63          	blt	a0,s1,acb0 <.LBB69_1256>

000000000000bb3c <.LBB69_1512>:
    bb3c:	07e00513          	li	a0,126
    bb40:	9698ca63          	blt	a7,s1,acb4 <.LBB69_1257>

000000000000bb44 <.LBB69_1513>:
    bb44:	07e00893          	li	a7,126
    bb48:	969c4863          	blt	s8,s1,acb8 <.LBB69_1258>

000000000000bb4c <.LBB69_1514>:
    bb4c:	07e00c13          	li	s8,126
    bb50:	96964663          	blt	a2,s1,acbc <.LBB69_1259>

000000000000bb54 <.LBB69_1515>:
    bb54:	07e00613          	li	a2,126
    bb58:	9695c463          	blt	a1,s1,acc0 <.LBB69_1260>

000000000000bb5c <.LBB69_1516>:
    bb5c:	07e00593          	li	a1,126
    bb60:	85043083          	ld	ra,-1968(s0)
    bb64:	9690c263          	blt	ra,s1,acc8 <.LBB69_1261>

000000000000bb68 <.LBB69_1517>:
    bb68:	07e00093          	li	ra,126
    bb6c:	84143823          	sd	ra,-1968(s0)
    bb70:	85843083          	ld	ra,-1960(s0)
    bb74:	9490ce63          	blt	ra,s1,acd0 <.LBB69_1262>

000000000000bb78 <.LBB69_1518>:
    bb78:	07e00093          	li	ra,126
    bb7c:	84143c23          	sd	ra,-1960(s0)
    bb80:	86043083          	ld	ra,-1952(s0)
    bb84:	9490ca63          	blt	ra,s1,acd8 <.LBB69_1263>

000000000000bb88 <.LBB69_1519>:
    bb88:	07e00093          	li	ra,126
    bb8c:	86143023          	sd	ra,-1952(s0)
    bb90:	86843083          	ld	ra,-1944(s0)
    bb94:	9490c663          	blt	ra,s1,ace0 <.LBB69_1264>

000000000000bb98 <.LBB69_1520>:
    bb98:	07e00093          	li	ra,126
    bb9c:	86143423          	sd	ra,-1944(s0)
    bba0:	87043083          	ld	ra,-1936(s0)
    bba4:	9490c263          	blt	ra,s1,ace8 <.LBB69_1265>

000000000000bba8 <.LBB69_1521>:
    bba8:	07e00093          	li	ra,126
    bbac:	86143823          	sd	ra,-1936(s0)
    bbb0:	87843083          	ld	ra,-1928(s0)
    bbb4:	9290ce63          	blt	ra,s1,acf0 <.LBB69_1266>

000000000000bbb8 <.LBB69_1522>:
    bbb8:	07e00093          	li	ra,126
    bbbc:	86143c23          	sd	ra,-1928(s0)
    bbc0:	88043083          	ld	ra,-1920(s0)
    bbc4:	9290ca63          	blt	ra,s1,acf8 <.LBB69_1267>

000000000000bbc8 <.LBB69_1523>:
    bbc8:	07e00093          	li	ra,126
    bbcc:	88143023          	sd	ra,-1920(s0)
    bbd0:	88843083          	ld	ra,-1912(s0)
    bbd4:	9290c663          	blt	ra,s1,ad00 <.LBB69_1268>

000000000000bbd8 <.LBB69_1524>:
    bbd8:	07e00093          	li	ra,126
    bbdc:	88143423          	sd	ra,-1912(s0)
    bbe0:	89043083          	ld	ra,-1904(s0)
    bbe4:	9290c263          	blt	ra,s1,ad08 <.LBB69_1269>

000000000000bbe8 <.LBB69_1525>:
    bbe8:	07e00093          	li	ra,126
    bbec:	88143823          	sd	ra,-1904(s0)
    bbf0:	89843083          	ld	ra,-1896(s0)
    bbf4:	9090ce63          	blt	ra,s1,ad10 <.LBB69_1270>

000000000000bbf8 <.LBB69_1526>:
    bbf8:	07e00093          	li	ra,126
    bbfc:	88143c23          	sd	ra,-1896(s0)
    bc00:	8a043083          	ld	ra,-1888(s0)
    bc04:	9090ca63          	blt	ra,s1,ad18 <.LBB69_1271>

000000000000bc08 <.LBB69_1527>:
    bc08:	07e00093          	li	ra,126
    bc0c:	8a143023          	sd	ra,-1888(s0)
    bc10:	8a843083          	ld	ra,-1880(s0)
    bc14:	9090c663          	blt	ra,s1,ad20 <.LBB69_1272>

000000000000bc18 <.LBB69_1528>:
    bc18:	07e00093          	li	ra,126
    bc1c:	8a143423          	sd	ra,-1880(s0)
    bc20:	8b043083          	ld	ra,-1872(s0)
    bc24:	9090c263          	blt	ra,s1,ad28 <.LBB69_1273>

000000000000bc28 <.LBB69_1529>:
    bc28:	07e00093          	li	ra,126
    bc2c:	8a143823          	sd	ra,-1872(s0)
    bc30:	8b843083          	ld	ra,-1864(s0)
    bc34:	8e90ce63          	blt	ra,s1,ad30 <.LBB69_1274>

000000000000bc38 <.LBB69_1530>:
    bc38:	07e00093          	li	ra,126
    bc3c:	8a143c23          	sd	ra,-1864(s0)
    bc40:	8c043083          	ld	ra,-1856(s0)
    bc44:	8e90ca63          	blt	ra,s1,ad38 <.LBB69_1275>

000000000000bc48 <.LBB69_1531>:
    bc48:	07e00093          	li	ra,126
    bc4c:	8c143023          	sd	ra,-1856(s0)
    bc50:	8d043083          	ld	ra,-1840(s0)
    bc54:	8e90c663          	blt	ra,s1,ad40 <.LBB69_1276>

000000000000bc58 <.LBB69_1532>:
    bc58:	07e00093          	li	ra,126
    bc5c:	8c143823          	sd	ra,-1840(s0)
    bc60:	8e043083          	ld	ra,-1824(s0)
    bc64:	8e90c263          	blt	ra,s1,ad48 <.LBB69_1277>

000000000000bc68 <.LBB69_1533>:
    bc68:	07e00093          	li	ra,126
    bc6c:	8e143023          	sd	ra,-1824(s0)
    bc70:	8f043083          	ld	ra,-1808(s0)
    bc74:	8c90ce63          	blt	ra,s1,ad50 <.LBB69_1278>

000000000000bc78 <.LBB69_1534>:
    bc78:	07e00093          	li	ra,126
    bc7c:	8e143823          	sd	ra,-1808(s0)
    bc80:	90043083          	ld	ra,-1792(s0)
    bc84:	8c90ca63          	blt	ra,s1,ad58 <.LBB69_1279>

000000000000bc88 <.LBB69_1535>:
    bc88:	07e00093          	li	ra,126
    bc8c:	90143023          	sd	ra,-1792(s0)
    bc90:	91043083          	ld	ra,-1776(s0)
    bc94:	8c90c663          	blt	ra,s1,ad60 <.LBB69_1280>

000000000000bc98 <.LBB69_1536>:
    bc98:	07e00093          	li	ra,126
    bc9c:	90143823          	sd	ra,-1776(s0)
    bca0:	92043083          	ld	ra,-1760(s0)
    bca4:	8c90c263          	blt	ra,s1,ad68 <.LBB69_1281>

000000000000bca8 <.LBB69_1537>:
    bca8:	07e00093          	li	ra,126
    bcac:	92143023          	sd	ra,-1760(s0)
    bcb0:	93043083          	ld	ra,-1744(s0)
    bcb4:	8a90ce63          	blt	ra,s1,ad70 <.LBB69_1282>

000000000000bcb8 <.LBB69_1538>:
    bcb8:	07e00093          	li	ra,126
    bcbc:	92143823          	sd	ra,-1744(s0)
    bcc0:	94043083          	ld	ra,-1728(s0)
    bcc4:	8a90ca63          	blt	ra,s1,ad78 <.LBB69_1283>

000000000000bcc8 <.LBB69_1539>:
    bcc8:	07e00093          	li	ra,126
    bccc:	94143023          	sd	ra,-1728(s0)
    bcd0:	000d0793          	mv	a5,s10
    bcd4:	95043083          	ld	ra,-1712(s0)
    bcd8:	8a90c663          	blt	ra,s1,ad84 <.LBB69_1284>

000000000000bcdc <.LBB69_1540>:
    bcdc:	07e00093          	li	ra,126
    bce0:	94143823          	sd	ra,-1712(s0)
    bce4:	00080d13          	mv	s10,a6
    bce8:	96043083          	ld	ra,-1696(s0)
    bcec:	0090d463          	bge	ra,s1,bcf4 <.LBB69_1541>
    bcf0:	d34f406f          	j	224 <.LBB69_3>

000000000000bcf4 <.LBB69_1541>:
    bcf4:	07e00093          	li	ra,126
    bcf8:	d2cf406f          	j	224 <.LBB69_3>

000000000000bcfc <.LBB69_1542>:
    bcfc:	00000513          	li	a0,0
    bd00:	000135b7          	lui	a1,0x13
    bd04:	9005859b          	addiw	a1,a1,-1792 # 12900 <.LBB28_1104+0x8>
    bd08:	00001637          	lui	a2,0x1
    bd0c:	40c40633          	sub	a2,s0,a2
    bd10:	af063603          	ld	a2,-1296(a2) # af0 <.LBB69_3+0x8cc>
    bd14:	00b605b3          	add	a1,a2,a1
    bd18:	a6b43823          	sd	a1,-1424(s0)
    bd1c:	000125b7          	lui	a1,0x12
    bd20:	00b605b3          	add	a1,a2,a1
    bd24:	00001637          	lui	a2,0x1
    bd28:	40c40633          	sub	a2,s0,a2
    bd2c:	5eb63c23          	sd	a1,1528(a2) # 15f8 <.LBB69_5+0x1dc>
    bd30:	433575b7          	lui	a1,0x43357
    bd34:	d2d5859b          	addiw	a1,a1,-723 # 43356d2d <.Lfunc_end80+0x4332e365>
    bd38:	00001637          	lui	a2,0x1
    bd3c:	40c40633          	sub	a2,s0,a2
    bd40:	5eb63823          	sd	a1,1520(a2) # 15f0 <.LBB69_5+0x1d4>
    bd44:	00100593          	li	a1,1
    bd48:	02759593          	slli	a1,a1,0x27
    bd4c:	a6b43c23          	sd	a1,-1416(s0)
    bd50:	00900593          	li	a1,9
    bd54:	00b59593          	slli	a1,a1,0xb
    bd58:	00001637          	lui	a2,0x1
    bd5c:	40c40633          	sub	a2,s0,a2
    bd60:	5eb63423          	sd	a1,1512(a2) # 15e8 <.LBB69_5+0x1cc>
    bd64:	6140006f          	j	c378 <.LBB69_1544>

000000000000bd68 <.LBB69_1543>:
    bd68:	cea43423          	sd	a0,-792(s0)
    bd6c:	00178793          	addi	a5,a5,1
    bd70:	00001537          	lui	a0,0x1
    bd74:	40a40533          	sub	a0,s0,a0
    bd78:	b0853503          	ld	a0,-1272(a0) # b08 <.LBB69_3+0x8e4>
    bd7c:	a8843583          	ld	a1,-1400(s0)
    bd80:	00b50533          	add	a0,a0,a1
    bd84:	000015b7          	lui	a1,0x1
    bd88:	40b405b3          	sub	a1,s0,a1
    bd8c:	5e85b283          	ld	t0,1512(a1) # 15e8 <.LBB69_5+0x1cc>
    bd90:	005502b3          	add	t0,a0,t0
    bd94:	00f281a3          	sb	a5,3(t0) # ffffffffc0000003 <.Lfunc_end80+0xffffffffbffd763b>
    bd98:	e5843783          	ld	a5,-424(s0)
    bd9c:	00178793          	addi	a5,a5,1
    bda0:	00f28123          	sb	a5,2(t0)
    bda4:	e6843783          	ld	a5,-408(s0)
    bda8:	00178793          	addi	a5,a5,1
    bdac:	00f280a3          	sb	a5,1(t0)
    bdb0:	e7843783          	ld	a5,-392(s0)
    bdb4:	00178793          	addi	a5,a5,1
    bdb8:	00f28023          	sb	a5,0(t0)
    bdbc:	e8843783          	ld	a5,-376(s0)
    bdc0:	00178793          	addi	a5,a5,1
    bdc4:	00f28223          	sb	a5,4(t0)
    bdc8:	e9843783          	ld	a5,-360(s0)
    bdcc:	00178793          	addi	a5,a5,1
    bdd0:	00f282a3          	sb	a5,5(t0)
    bdd4:	ea843783          	ld	a5,-344(s0)
    bdd8:	00178793          	addi	a5,a5,1
    bddc:	00f28323          	sb	a5,6(t0)
    bde0:	eb843783          	ld	a5,-328(s0)
    bde4:	00178793          	addi	a5,a5,1
    bde8:	00f283a3          	sb	a5,7(t0)
    bdec:	ec843783          	ld	a5,-312(s0)
    bdf0:	00178793          	addi	a5,a5,1
    bdf4:	00f28423          	sb	a5,8(t0)
    bdf8:	ed843783          	ld	a5,-296(s0)
    bdfc:	00178793          	addi	a5,a5,1
    be00:	00f284a3          	sb	a5,9(t0)
    be04:	ee843783          	ld	a5,-280(s0)
    be08:	00178793          	addi	a5,a5,1
    be0c:	00f28523          	sb	a5,10(t0)
    be10:	ef043783          	ld	a5,-272(s0)
    be14:	00178793          	addi	a5,a5,1
    be18:	00f285a3          	sb	a5,11(t0)
    be1c:	ef843783          	ld	a5,-264(s0)
    be20:	00178793          	addi	a5,a5,1
    be24:	00f28623          	sb	a5,12(t0)
    be28:	f0043783          	ld	a5,-256(s0)
    be2c:	00178793          	addi	a5,a5,1
    be30:	00f286a3          	sb	a5,13(t0)
    be34:	f0843783          	ld	a5,-248(s0)
    be38:	00178793          	addi	a5,a5,1
    be3c:	00f28723          	sb	a5,14(t0)
    be40:	f1043783          	ld	a5,-240(s0)
    be44:	00178793          	addi	a5,a5,1
    be48:	00f287a3          	sb	a5,15(t0)
    be4c:	f1843783          	ld	a5,-232(s0)
    be50:	00178793          	addi	a5,a5,1
    be54:	00f28823          	sb	a5,16(t0)
    be58:	f2043783          	ld	a5,-224(s0)
    be5c:	00178793          	addi	a5,a5,1
    be60:	00f288a3          	sb	a5,17(t0)
    be64:	f2843783          	ld	a5,-216(s0)
    be68:	00178793          	addi	a5,a5,1
    be6c:	00f28923          	sb	a5,18(t0)
    be70:	f3043783          	ld	a5,-208(s0)
    be74:	00178793          	addi	a5,a5,1
    be78:	00f289a3          	sb	a5,19(t0)
    be7c:	f3843783          	ld	a5,-200(s0)
    be80:	00178793          	addi	a5,a5,1
    be84:	00f28a23          	sb	a5,20(t0)
    be88:	f4043783          	ld	a5,-192(s0)
    be8c:	00178793          	addi	a5,a5,1
    be90:	00f28aa3          	sb	a5,21(t0)
    be94:	f4843783          	ld	a5,-184(s0)
    be98:	00178793          	addi	a5,a5,1
    be9c:	00f28b23          	sb	a5,22(t0)
    bea0:	f5043783          	ld	a5,-176(s0)
    bea4:	00178793          	addi	a5,a5,1
    bea8:	00f28ba3          	sb	a5,23(t0)
    beac:	f5843783          	ld	a5,-168(s0)
    beb0:	00178793          	addi	a5,a5,1
    beb4:	00f28c23          	sb	a5,24(t0)
    beb8:	f6043783          	ld	a5,-160(s0)
    bebc:	00178793          	addi	a5,a5,1
    bec0:	00f28ca3          	sb	a5,25(t0)
    bec4:	f6843783          	ld	a5,-152(s0)
    bec8:	00178793          	addi	a5,a5,1
    becc:	00f28d23          	sb	a5,26(t0)
    bed0:	f7043783          	ld	a5,-144(s0)
    bed4:	00178793          	addi	a5,a5,1
    bed8:	00f28da3          	sb	a5,27(t0)
    bedc:	f7843783          	ld	a5,-136(s0)
    bee0:	00178793          	addi	a5,a5,1
    bee4:	00f28e23          	sb	a5,28(t0)
    bee8:	f8043783          	ld	a5,-128(s0)
    beec:	00178793          	addi	a5,a5,1
    bef0:	00f28ea3          	sb	a5,29(t0)
    bef4:	f8843783          	ld	a5,-120(s0)
    bef8:	00178793          	addi	a5,a5,1
    befc:	00f28f23          	sb	a5,30(t0)
    bf00:	c5043783          	ld	a5,-944(s0)
    bf04:	00178793          	addi	a5,a5,1
    bf08:	00f28fa3          	sb	a5,31(t0)
    bf0c:	d5043283          	ld	t0,-688(s0)
    bf10:	00128293          	addi	t0,t0,1
    bf14:	00005eb7          	lui	t4,0x5
    bf18:	860e879b          	addiw	a5,t4,-1952 # 4860 <.LBB69_196+0x10>
    bf1c:	00f507b3          	add	a5,a0,a5
    bf20:	005781a3          	sb	t0,3(a5)
    bf24:	d6043283          	ld	t0,-672(s0)
    bf28:	00128293          	addi	t0,t0,1
    bf2c:	00578123          	sb	t0,2(a5)
    bf30:	d7043283          	ld	t0,-656(s0)
    bf34:	00128293          	addi	t0,t0,1
    bf38:	005780a3          	sb	t0,1(a5)
    bf3c:	d8043283          	ld	t0,-640(s0)
    bf40:	00128293          	addi	t0,t0,1
    bf44:	00578023          	sb	t0,0(a5)
    bf48:	d9043283          	ld	t0,-624(s0)
    bf4c:	00128293          	addi	t0,t0,1
    bf50:	00578223          	sb	t0,4(a5)
    bf54:	da043283          	ld	t0,-608(s0)
    bf58:	00128293          	addi	t0,t0,1
    bf5c:	005782a3          	sb	t0,5(a5)
    bf60:	db043283          	ld	t0,-592(s0)
    bf64:	00128293          	addi	t0,t0,1
    bf68:	00578323          	sb	t0,6(a5)
    bf6c:	dc043283          	ld	t0,-576(s0)
    bf70:	00128293          	addi	t0,t0,1
    bf74:	005783a3          	sb	t0,7(a5)
    bf78:	dd043283          	ld	t0,-560(s0)
    bf7c:	00128293          	addi	t0,t0,1
    bf80:	00578423          	sb	t0,8(a5)
    bf84:	de043283          	ld	t0,-544(s0)
    bf88:	00128293          	addi	t0,t0,1
    bf8c:	005784a3          	sb	t0,9(a5)
    bf90:	df043283          	ld	t0,-528(s0)
    bf94:	00128293          	addi	t0,t0,1
    bf98:	00578523          	sb	t0,10(a5)
    bf9c:	df843283          	ld	t0,-520(s0)
    bfa0:	00128293          	addi	t0,t0,1
    bfa4:	005785a3          	sb	t0,11(a5)
    bfa8:	e0043283          	ld	t0,-512(s0)
    bfac:	00128293          	addi	t0,t0,1
    bfb0:	00578623          	sb	t0,12(a5)
    bfb4:	e0843283          	ld	t0,-504(s0)
    bfb8:	00128293          	addi	t0,t0,1
    bfbc:	005786a3          	sb	t0,13(a5)
    bfc0:	e1043283          	ld	t0,-496(s0)
    bfc4:	00128293          	addi	t0,t0,1
    bfc8:	00578723          	sb	t0,14(a5)
    bfcc:	e1843283          	ld	t0,-488(s0)
    bfd0:	00128293          	addi	t0,t0,1
    bfd4:	005787a3          	sb	t0,15(a5)
    bfd8:	e2043283          	ld	t0,-480(s0)
    bfdc:	00128293          	addi	t0,t0,1
    bfe0:	00578823          	sb	t0,16(a5)
    bfe4:	e2843283          	ld	t0,-472(s0)
    bfe8:	00128293          	addi	t0,t0,1
    bfec:	005788a3          	sb	t0,17(a5)
    bff0:	e3043283          	ld	t0,-464(s0)
    bff4:	00128293          	addi	t0,t0,1
    bff8:	00578923          	sb	t0,18(a5)
    bffc:	e3843283          	ld	t0,-456(s0)
    c000:	00128293          	addi	t0,t0,1
    c004:	005789a3          	sb	t0,19(a5)
    c008:	e4043283          	ld	t0,-448(s0)
    c00c:	00128293          	addi	t0,t0,1
    c010:	00578a23          	sb	t0,20(a5)
    c014:	e4843283          	ld	t0,-440(s0)
    c018:	00128293          	addi	t0,t0,1
    c01c:	00578aa3          	sb	t0,21(a5)
    c020:	e5043283          	ld	t0,-432(s0)
    c024:	00128293          	addi	t0,t0,1
    c028:	00578b23          	sb	t0,22(a5)
    c02c:	e6043283          	ld	t0,-416(s0)
    c030:	00128293          	addi	t0,t0,1
    c034:	00578ba3          	sb	t0,23(a5)
    c038:	e7043283          	ld	t0,-400(s0)
    c03c:	00128293          	addi	t0,t0,1
    c040:	00578c23          	sb	t0,24(a5)
    c044:	e8043283          	ld	t0,-384(s0)
    c048:	00128293          	addi	t0,t0,1
    c04c:	00578ca3          	sb	t0,25(a5)
    c050:	e9043283          	ld	t0,-368(s0)
    c054:	00128293          	addi	t0,t0,1
    c058:	00578d23          	sb	t0,26(a5)
    c05c:	ea043283          	ld	t0,-352(s0)
    c060:	00128293          	addi	t0,t0,1
    c064:	00578da3          	sb	t0,27(a5)
    c068:	eb043283          	ld	t0,-336(s0)
    c06c:	00128293          	addi	t0,t0,1
    c070:	00578e23          	sb	t0,28(a5)
    c074:	ec043283          	ld	t0,-320(s0)
    c078:	00128293          	addi	t0,t0,1
    c07c:	00578ea3          	sb	t0,29(a5)
    c080:	ed043283          	ld	t0,-304(s0)
    c084:	00128293          	addi	t0,t0,1
    c088:	00578f23          	sb	t0,30(a5)
    c08c:	ee043283          	ld	t0,-288(s0)
    c090:	00128293          	addi	t0,t0,1
    c094:	00578fa3          	sb	t0,31(a5)
    c098:	c6043783          	ld	a5,-928(s0)
    c09c:	00178793          	addi	a5,a5,1
    c0a0:	8c0e859b          	addiw	a1,t4,-1856
    c0a4:	00b505b3          	add	a1,a0,a1
    c0a8:	00f581a3          	sb	a5,3(a1)
    c0ac:	c7043783          	ld	a5,-912(s0)
    c0b0:	00178793          	addi	a5,a5,1
    c0b4:	00f58123          	sb	a5,2(a1)
    c0b8:	c8043783          	ld	a5,-896(s0)
    c0bc:	00178793          	addi	a5,a5,1
    c0c0:	00f580a3          	sb	a5,1(a1)
    c0c4:	c9043783          	ld	a5,-880(s0)
    c0c8:	00178793          	addi	a5,a5,1
    c0cc:	00f58023          	sb	a5,0(a1)
    c0d0:	ca043783          	ld	a5,-864(s0)
    c0d4:	00178793          	addi	a5,a5,1
    c0d8:	00f58223          	sb	a5,4(a1)
    c0dc:	cb043783          	ld	a5,-848(s0)
    c0e0:	00178793          	addi	a5,a5,1
    c0e4:	00f582a3          	sb	a5,5(a1)
    c0e8:	cb843783          	ld	a5,-840(s0)
    c0ec:	00178793          	addi	a5,a5,1
    c0f0:	00f58323          	sb	a5,6(a1)
    c0f4:	cc843783          	ld	a5,-824(s0)
    c0f8:	00178793          	addi	a5,a5,1
    c0fc:	00f583a3          	sb	a5,7(a1)
    c100:	cd043783          	ld	a5,-816(s0)
    c104:	00178793          	addi	a5,a5,1
    c108:	00f58423          	sb	a5,8(a1)
    c10c:	ce043783          	ld	a5,-800(s0)
    c110:	00178793          	addi	a5,a5,1
    c114:	00f584a3          	sb	a5,9(a1)
    c118:	cf043783          	ld	a5,-784(s0)
    c11c:	00178793          	addi	a5,a5,1
    c120:	00f58523          	sb	a5,10(a1)
    c124:	cf843783          	ld	a5,-776(s0)
    c128:	00178793          	addi	a5,a5,1
    c12c:	00f585a3          	sb	a5,11(a1)
    c130:	d0043783          	ld	a5,-768(s0)
    c134:	00178793          	addi	a5,a5,1
    c138:	00f58623          	sb	a5,12(a1)
    c13c:	d0843783          	ld	a5,-760(s0)
    c140:	00178793          	addi	a5,a5,1
    c144:	00f586a3          	sb	a5,13(a1)
    c148:	d1043783          	ld	a5,-752(s0)
    c14c:	00178793          	addi	a5,a5,1
    c150:	00f58723          	sb	a5,14(a1)
    c154:	d1843783          	ld	a5,-744(s0)
    c158:	00178793          	addi	a5,a5,1
    c15c:	00f587a3          	sb	a5,15(a1)
    c160:	d2043783          	ld	a5,-736(s0)
    c164:	00178793          	addi	a5,a5,1
    c168:	00f58823          	sb	a5,16(a1)
    c16c:	d2843783          	ld	a5,-728(s0)
    c170:	00178793          	addi	a5,a5,1
    c174:	00f588a3          	sb	a5,17(a1)
    c178:	d3043783          	ld	a5,-720(s0)
    c17c:	00178793          	addi	a5,a5,1
    c180:	00f58923          	sb	a5,18(a1)
    c184:	d3843783          	ld	a5,-712(s0)
    c188:	00178793          	addi	a5,a5,1
    c18c:	00f589a3          	sb	a5,19(a1)
    c190:	d4043783          	ld	a5,-704(s0)
    c194:	00178793          	addi	a5,a5,1
    c198:	00f58a23          	sb	a5,20(a1)
    c19c:	d4843783          	ld	a5,-696(s0)
    c1a0:	00178793          	addi	a5,a5,1
    c1a4:	00f58aa3          	sb	a5,21(a1)
    c1a8:	d5843783          	ld	a5,-680(s0)
    c1ac:	00178793          	addi	a5,a5,1
    c1b0:	00f58b23          	sb	a5,22(a1)
    c1b4:	d6843783          	ld	a5,-664(s0)
    c1b8:	00178793          	addi	a5,a5,1
    c1bc:	00f58ba3          	sb	a5,23(a1)
    c1c0:	d7843783          	ld	a5,-648(s0)
    c1c4:	00178793          	addi	a5,a5,1
    c1c8:	00f58c23          	sb	a5,24(a1)
    c1cc:	d8843783          	ld	a5,-632(s0)
    c1d0:	00178793          	addi	a5,a5,1
    c1d4:	00f58ca3          	sb	a5,25(a1)
    c1d8:	d9843783          	ld	a5,-616(s0)
    c1dc:	00178793          	addi	a5,a5,1
    c1e0:	00f58d23          	sb	a5,26(a1)
    c1e4:	da843783          	ld	a5,-600(s0)
    c1e8:	00178793          	addi	a5,a5,1
    c1ec:	00f58da3          	sb	a5,27(a1)
    c1f0:	db843783          	ld	a5,-584(s0)
    c1f4:	00178793          	addi	a5,a5,1
    c1f8:	00f58e23          	sb	a5,28(a1)
    c1fc:	dc843783          	ld	a5,-568(s0)
    c200:	00178793          	addi	a5,a5,1
    c204:	00f58ea3          	sb	a5,29(a1)
    c208:	dd843783          	ld	a5,-552(s0)
    c20c:	00178793          	addi	a5,a5,1
    c210:	00f58f23          	sb	a5,30(a1)
    c214:	de843783          	ld	a5,-536(s0)
    c218:	00178793          	addi	a5,a5,1
    c21c:	00f58fa3          	sb	a5,31(a1)
    c220:	920e829b          	addiw	t0,t4,-1760
    c224:	005502b3          	add	t0,a0,t0
    c228:	00138393          	addi	t2,t2,1
    c22c:	007281a3          	sb	t2,3(t0)
    c230:	00170713          	addi	a4,a4,1
    c234:	00e28123          	sb	a4,2(t0)
    c238:	00130313          	addi	t1,t1,1
    c23c:	006280a3          	sb	t1,1(t0)
    c240:	001e0e13          	addi	t3,t3,1
    c244:	01c28023          	sb	t3,0(t0)
    c248:	00108093          	addi	ra,ra,1 # ffffffffffff4001 <.Lfunc_end80+0xfffffffffffcb639>
    c24c:	00128223          	sb	ra,4(t0)
    c250:	001d8d93          	addi	s11,s11,1
    c254:	01b282a3          	sb	s11,5(t0)
    c258:	001d0d13          	addi	s10,s10,1
    c25c:	01a28323          	sb	s10,6(t0)
    c260:	001c8c93          	addi	s9,s9,1
    c264:	019283a3          	sb	s9,7(t0)
    c268:	001c0c13          	addi	s8,s8,1
    c26c:	01828423          	sb	s8,8(t0)
    c270:	001b8b93          	addi	s7,s7,1
    c274:	017284a3          	sb	s7,9(t0)
    c278:	001b0b13          	addi	s6,s6,1
    c27c:	01628523          	sb	s6,10(t0)
    c280:	001a8a93          	addi	s5,s5,1
    c284:	015285a3          	sb	s5,11(t0)
    c288:	001a0a13          	addi	s4,s4,1
    c28c:	01428623          	sb	s4,12(t0)
    c290:	00198993          	addi	s3,s3,1
    c294:	013286a3          	sb	s3,13(t0)
    c298:	00190913          	addi	s2,s2,1
    c29c:	01228723          	sb	s2,14(t0)
    c2a0:	00188893          	addi	a7,a7,1 # ffffffffc0000001 <.Lfunc_end80+0xffffffffbffd7639>
    c2a4:	011287a3          	sb	a7,15(t0)
    c2a8:	00148493          	addi	s1,s1,1
    c2ac:	00928823          	sb	s1,16(t0)
    c2b0:	00180813          	addi	a6,a6,1
    c2b4:	010288a3          	sb	a6,17(t0)
    c2b8:	c5843f83          	ld	t6,-936(s0)
    c2bc:	001f8f93          	addi	t6,t6,1
    c2c0:	01f28923          	sb	t6,18(t0)
    c2c4:	001f0f13          	addi	t5,t5,1
    c2c8:	01e289a3          	sb	t5,19(t0)
    c2cc:	00168693          	addi	a3,a3,1
    c2d0:	00d28a23          	sb	a3,20(t0)
    c2d4:	00160613          	addi	a2,a2,1
    c2d8:	00c28aa3          	sb	a2,21(t0)
    c2dc:	c6843e83          	ld	t4,-920(s0)
    c2e0:	001e8e93          	addi	t4,t4,1
    c2e4:	01d28b23          	sb	t4,22(t0)
    c2e8:	c7843503          	ld	a0,-904(s0)
    c2ec:	00150513          	addi	a0,a0,1
    c2f0:	00a28ba3          	sb	a0,23(t0)
    c2f4:	c8843503          	ld	a0,-888(s0)
    c2f8:	00150513          	addi	a0,a0,1
    c2fc:	00a28c23          	sb	a0,24(t0)
    c300:	c9843503          	ld	a0,-872(s0)
    c304:	00150513          	addi	a0,a0,1
    c308:	00a28ca3          	sb	a0,25(t0)
    c30c:	ca843503          	ld	a0,-856(s0)
    c310:	00150513          	addi	a0,a0,1
    c314:	00a28d23          	sb	a0,26(t0)
    c318:	c4043503          	ld	a0,-960(s0)
    c31c:	00150513          	addi	a0,a0,1
    c320:	00a28da3          	sb	a0,27(t0)
    c324:	cc043503          	ld	a0,-832(s0)
    c328:	00150513          	addi	a0,a0,1
    c32c:	00a28e23          	sb	a0,28(t0)
    c330:	c4843503          	ld	a0,-952(s0)
    c334:	00150513          	addi	a0,a0,1
    c338:	00a28ea3          	sb	a0,29(t0)
    c33c:	cd843503          	ld	a0,-808(s0)
    c340:	00150513          	addi	a0,a0,1
    c344:	00a28f23          	sb	a0,30(t0)
    c348:	ce843503          	ld	a0,-792(s0)
    c34c:	00150513          	addi	a0,a0,1
    c350:	00a28fa3          	sb	a0,31(t0)
    c354:	a8843603          	ld	a2,-1400(s0)
    c358:	02060513          	addi	a0,a2,32
    c35c:	000015b7          	lui	a1,0x1
    c360:	40b405b3          	sub	a1,s0,a1
    c364:	b105b983          	ld	s3,-1264(a1) # b10 <.LBB69_3+0x8ec>
    c368:	02098993          	addi	s3,s3,32
    c36c:	04000593          	li	a1,64
    c370:	00b66463          	bltu	a2,a1,c378 <.LBB69_1544>
    c374:	1110406f          	j	10c84 <.LBB69_2314>

000000000000c378 <.LBB69_1544>:
    c378:	e0043c23          	sd	zero,-488(s0)
    c37c:	e0043823          	sd	zero,-496(s0)
    c380:	e0043423          	sd	zero,-504(s0)
    c384:	e0043023          	sd	zero,-512(s0)
    c388:	e2043023          	sd	zero,-480(s0)
    c38c:	e2043423          	sd	zero,-472(s0)
    c390:	e2043823          	sd	zero,-464(s0)
    c394:	e2043c23          	sd	zero,-456(s0)
    c398:	e4043023          	sd	zero,-448(s0)
    c39c:	e4043423          	sd	zero,-440(s0)
    c3a0:	e4043823          	sd	zero,-432(s0)
    c3a4:	00000093          	li	ra,0
    c3a8:	00000d93          	li	s11,0
    c3ac:	00000a93          	li	s5,0
    c3b0:	00000c13          	li	s8,0
    c3b4:	00000a13          	li	s4,0
    c3b8:	00000913          	li	s2,0
    c3bc:	00000e93          	li	t4,0
    c3c0:	00000693          	li	a3,0
    c3c4:	e6043423          	sd	zero,-408(s0)
    c3c8:	00000f13          	li	t5,0
    c3cc:	00000e13          	li	t3,0
    c3d0:	00000793          	li	a5,0
    c3d4:	00000593          	li	a1,0
    c3d8:	00000b13          	li	s6,0
    c3dc:	00000713          	li	a4,0
    c3e0:	00000b93          	li	s7,0
    c3e4:	00000893          	li	a7,0
    c3e8:	00000813          	li	a6,0
    c3ec:	00000613          	li	a2,0
    c3f0:	00000f93          	li	t6,0
    c3f4:	00000d13          	li	s10,0
    c3f8:	d0043c23          	sd	zero,-744(s0)
    c3fc:	d0043823          	sd	zero,-752(s0)
    c400:	d0043423          	sd	zero,-760(s0)
    c404:	d0043023          	sd	zero,-768(s0)
    c408:	d2043023          	sd	zero,-736(s0)
    c40c:	d2043423          	sd	zero,-728(s0)
    c410:	d2043823          	sd	zero,-720(s0)
    c414:	d2043c23          	sd	zero,-712(s0)
    c418:	d4043023          	sd	zero,-704(s0)
    c41c:	d4043423          	sd	zero,-696(s0)
    c420:	d4043823          	sd	zero,-688(s0)
    c424:	d4043c23          	sd	zero,-680(s0)
    c428:	d6043023          	sd	zero,-672(s0)
    c42c:	d6043423          	sd	zero,-664(s0)
    c430:	d6043823          	sd	zero,-656(s0)
    c434:	d6043c23          	sd	zero,-648(s0)
    c438:	d8043023          	sd	zero,-640(s0)
    c43c:	d8043423          	sd	zero,-632(s0)
    c440:	d8043823          	sd	zero,-624(s0)
    c444:	d8043c23          	sd	zero,-616(s0)
    c448:	da043023          	sd	zero,-608(s0)
    c44c:	da043423          	sd	zero,-600(s0)
    c450:	da043823          	sd	zero,-592(s0)
    c454:	da043c23          	sd	zero,-584(s0)
    c458:	dc043023          	sd	zero,-576(s0)
    c45c:	dc043423          	sd	zero,-568(s0)
    c460:	dc043823          	sd	zero,-560(s0)
    c464:	dc043c23          	sd	zero,-552(s0)
    c468:	de043023          	sd	zero,-544(s0)
    c46c:	de043423          	sd	zero,-536(s0)
    c470:	de043823          	sd	zero,-528(s0)
    c474:	de043c23          	sd	zero,-520(s0)
    c478:	c0043c23          	sd	zero,-1000(s0)
    c47c:	c0043823          	sd	zero,-1008(s0)
    c480:	c0043423          	sd	zero,-1016(s0)
    c484:	c0043023          	sd	zero,-1024(s0)
    c488:	c2043023          	sd	zero,-992(s0)
    c48c:	c2043423          	sd	zero,-984(s0)
    c490:	c2043823          	sd	zero,-976(s0)
    c494:	c2043c23          	sd	zero,-968(s0)
    c498:	c4043023          	sd	zero,-960(s0)
    c49c:	c4043423          	sd	zero,-952(s0)
    c4a0:	c4043823          	sd	zero,-944(s0)
    c4a4:	c4043c23          	sd	zero,-936(s0)
    c4a8:	c6043023          	sd	zero,-928(s0)
    c4ac:	c6043423          	sd	zero,-920(s0)
    c4b0:	c6043823          	sd	zero,-912(s0)
    c4b4:	c6043c23          	sd	zero,-904(s0)
    c4b8:	c8043023          	sd	zero,-896(s0)
    c4bc:	c8043423          	sd	zero,-888(s0)
    c4c0:	c8043823          	sd	zero,-880(s0)
    c4c4:	c8043c23          	sd	zero,-872(s0)
    c4c8:	ca043023          	sd	zero,-864(s0)
    c4cc:	ca043423          	sd	zero,-856(s0)
    c4d0:	ca043823          	sd	zero,-848(s0)
    c4d4:	ca043c23          	sd	zero,-840(s0)
    c4d8:	cc043023          	sd	zero,-832(s0)
    c4dc:	cc043423          	sd	zero,-824(s0)
    c4e0:	cc043823          	sd	zero,-816(s0)
    c4e4:	cc043c23          	sd	zero,-808(s0)
    c4e8:	ce043023          	sd	zero,-800(s0)
    c4ec:	ce043423          	sd	zero,-792(s0)
    c4f0:	ce043823          	sd	zero,-784(s0)
    c4f4:	ce043c23          	sd	zero,-776(s0)
    c4f8:	b4043023          	sd	zero,-1216(s0)
    c4fc:	b2043c23          	sd	zero,-1224(s0)
    c500:	b2043823          	sd	zero,-1232(s0)
    c504:	b4043423          	sd	zero,-1208(s0)
    c508:	b2043423          	sd	zero,-1240(s0)
    c50c:	b2043023          	sd	zero,-1248(s0)
    c510:	b0043c23          	sd	zero,-1256(s0)
    c514:	b0043823          	sd	zero,-1264(s0)
    c518:	b0043423          	sd	zero,-1272(s0)
    c51c:	b4043823          	sd	zero,-1200(s0)
    c520:	b4043c23          	sd	zero,-1192(s0)
    c524:	b6043023          	sd	zero,-1184(s0)
    c528:	b6043423          	sd	zero,-1176(s0)
    c52c:	b6043823          	sd	zero,-1168(s0)
    c530:	b6043c23          	sd	zero,-1160(s0)
    c534:	b8043023          	sd	zero,-1152(s0)
    c538:	b8043423          	sd	zero,-1144(s0)
    c53c:	b8043823          	sd	zero,-1136(s0)
    c540:	b8043c23          	sd	zero,-1128(s0)
    c544:	ba043023          	sd	zero,-1120(s0)
    c548:	ba043423          	sd	zero,-1112(s0)
    c54c:	ba043823          	sd	zero,-1104(s0)
    c550:	ba043c23          	sd	zero,-1096(s0)
    c554:	bc043023          	sd	zero,-1088(s0)
    c558:	bc043423          	sd	zero,-1080(s0)
    c55c:	bc043823          	sd	zero,-1072(s0)
    c560:	bc043c23          	sd	zero,-1064(s0)
    c564:	be043023          	sd	zero,-1056(s0)
    c568:	be043423          	sd	zero,-1048(s0)
    c56c:	00000313          	li	t1,0
    c570:	be043823          	sd	zero,-1040(s0)
    c574:	be043c23          	sd	zero,-1032(s0)
    c578:	a8a43423          	sd	a0,-1400(s0)
    c57c:	00009537          	lui	a0,0x9
    c580:	000012b7          	lui	t0,0x1
    c584:	405402b3          	sub	t0,s0,t0
    c588:	5f82b383          	ld	t2,1528(t0) # 15f8 <.LBB69_5+0x1dc>
    c58c:	000012b7          	lui	t0,0x1
    c590:	405402b3          	sub	t0,s0,t0
    c594:	b132b823          	sd	s3,-1264(t0) # b10 <.LBB69_3+0x8ec>

000000000000c598 <.LBB69_1545>:
    c598:	f8743423          	sd	t2,-120(s0)
    c59c:	aea43c23          	sd	a0,-1288(s0)
    c5a0:	ebf43823          	sd	t6,-336(s0)
    c5a4:	eac43423          	sd	a2,-344(s0)
    c5a8:	e9743823          	sd	s7,-368(s0)
    c5ac:	e8e43423          	sd	a4,-376(s0)
    c5b0:	e4143c23          	sd	ra,-424(s0)
    c5b4:	e7b43023          	sd	s11,-416(s0)
    c5b8:	f5543423          	sd	s5,-184(s0)
    c5bc:	f5843823          	sd	s8,-176(s0)
    c5c0:	f5443c23          	sd	s4,-168(s0)
    c5c4:	f7243023          	sd	s2,-160(s0)
    c5c8:	f7d43423          	sd	t4,-152(s0)
    c5cc:	f6d43823          	sd	a3,-144(s0)
    c5d0:	e7e43823          	sd	t5,-400(s0)
    c5d4:	e7c43c23          	sd	t3,-392(s0)
    c5d8:	f6f43c23          	sd	a5,-136(s0)
    c5dc:	f8b43023          	sd	a1,-128(s0)
    c5e0:	e9643023          	sd	s6,-384(s0)
    c5e4:	e9143c23          	sd	a7,-360(s0)
    c5e8:	eb043023          	sd	a6,-352(s0)
    c5ec:	eba43c23          	sd	s10,-328(s0)
    c5f0:	00038683          	lb	a3,0(t2)
    c5f4:	00298503          	lb	a0,2(s3)
    c5f8:	f0a43023          	sd	a0,-256(s0)
    c5fc:	00198603          	lb	a2,1(s3)
    c600:	eec43c23          	sd	a2,-264(s0)
    c604:	00098803          	lb	a6,0(s3)
    c608:	00398883          	lb	a7,3(s3)
    c60c:	ef143823          	sd	a7,-272(s0)
    c610:	00498283          	lb	t0,4(s3)
    c614:	00598e83          	lb	t4,5(s3)
    c618:	efd43423          	sd	t4,-280(s0)
    c61c:	00698f03          	lb	t5,6(s3)
    c620:	efe43023          	sd	t5,-288(s0)
    c624:	00798083          	lb	ra,7(s3)
    c628:	ec143c23          	sd	ra,-296(s0)
    c62c:	00898f83          	lb	t6,8(s3)
    c630:	f1f43c23          	sd	t6,-232(s0)
    c634:	00998d83          	lb	s11,9(s3)
    c638:	00a98903          	lb	s2,10(s3)
    c63c:	00b98d03          	lb	s10,11(s3)
    c640:	00c98703          	lb	a4,12(s3)
    c644:	ece43423          	sd	a4,-312(s0)
    c648:	00d98c83          	lb	s9,13(s3)
    c64c:	ed943823          	sd	s9,-304(s0)
    c650:	00030793          	mv	a5,t1
    c654:	00e98303          	lb	t1,14(s3)
    c658:	ac643423          	sd	t1,-1336(s0)
    c65c:	00f98b03          	lb	s6,15(s3)
    c660:	ad643823          	sd	s6,-1328(s0)
    c664:	01098a83          	lb	s5,16(s3)
    c668:	01198483          	lb	s1,17(s3)
    c66c:	ae943423          	sd	s1,-1304(s0)
    c670:	01298b83          	lb	s7,18(s3)
    c674:	ad743c23          	sd	s7,-1320(s0)
    c678:	01398383          	lb	t2,19(s3)
    c67c:	f0743823          	sd	t2,-240(s0)
    c680:	01498e03          	lb	t3,20(s3)
    c684:	afc43823          	sd	t3,-1296(s0)
    c688:	01598583          	lb	a1,21(s3)
    c68c:	ecb43023          	sd	a1,-320(s0)
    c690:	01698a03          	lb	s4,22(s3)
    c694:	af443023          	sd	s4,-1312(s0)
    c698:	01798c03          	lb	s8,23(s3)
    c69c:	f1843423          	sd	s8,-248(s0)
    c6a0:	01898583          	lb	a1,24(s3)
    c6a4:	aab43023          	sd	a1,-1376(s0)
    c6a8:	02a685b3          	mul	a1,a3,a0
    c6ac:	b3043503          	ld	a0,-1232(s0)
    c6b0:	00a58533          	add	a0,a1,a0
    c6b4:	b2a43823          	sd	a0,-1232(s0)
    c6b8:	02c685b3          	mul	a1,a3,a2
    c6bc:	b3843503          	ld	a0,-1224(s0)
    c6c0:	00a58533          	add	a0,a1,a0
    c6c4:	b2a43c23          	sd	a0,-1224(s0)
    c6c8:	030685b3          	mul	a1,a3,a6
    c6cc:	b4043503          	ld	a0,-1216(s0)
    c6d0:	00a58533          	add	a0,a1,a0
    c6d4:	b4a43023          	sd	a0,-1216(s0)
    c6d8:	031685b3          	mul	a1,a3,a7
    c6dc:	b4843503          	ld	a0,-1208(s0)
    c6e0:	00a58533          	add	a0,a1,a0
    c6e4:	b4a43423          	sd	a0,-1208(s0)
    c6e8:	025685b3          	mul	a1,a3,t0
    c6ec:	00028893          	mv	a7,t0
    c6f0:	b2843503          	ld	a0,-1240(s0)
    c6f4:	00a58533          	add	a0,a1,a0
    c6f8:	b2a43423          	sd	a0,-1240(s0)
    c6fc:	03d685b3          	mul	a1,a3,t4
    c700:	b2043503          	ld	a0,-1248(s0)
    c704:	00a58533          	add	a0,a1,a0
    c708:	b2a43023          	sd	a0,-1248(s0)
    c70c:	03e685b3          	mul	a1,a3,t5
    c710:	b1843503          	ld	a0,-1256(s0)
    c714:	00a58533          	add	a0,a1,a0
    c718:	b0a43c23          	sd	a0,-1256(s0)
    c71c:	021685b3          	mul	a1,a3,ra
    c720:	b1043503          	ld	a0,-1264(s0)
    c724:	00a58533          	add	a0,a1,a0
    c728:	b0a43823          	sd	a0,-1264(s0)
    c72c:	03f685b3          	mul	a1,a3,t6
    c730:	b0843503          	ld	a0,-1272(s0)
    c734:	00a58533          	add	a0,a1,a0
    c738:	b0a43423          	sd	a0,-1272(s0)
    c73c:	03b685b3          	mul	a1,a3,s11
    c740:	b5043503          	ld	a0,-1200(s0)
    c744:	00a58533          	add	a0,a1,a0
    c748:	b4a43823          	sd	a0,-1200(s0)
    c74c:	032685b3          	mul	a1,a3,s2
    c750:	b5843503          	ld	a0,-1192(s0)
    c754:	00a58533          	add	a0,a1,a0
    c758:	b4a43c23          	sd	a0,-1192(s0)
    c75c:	000d0f93          	mv	t6,s10
    c760:	aba43823          	sd	s10,-1360(s0)
    c764:	03a685b3          	mul	a1,a3,s10
    c768:	b6043503          	ld	a0,-1184(s0)
    c76c:	00a58533          	add	a0,a1,a0
    c770:	b6a43023          	sd	a0,-1184(s0)
    c774:	02e685b3          	mul	a1,a3,a4
    c778:	b6843503          	ld	a0,-1176(s0)
    c77c:	00a58533          	add	a0,a1,a0
    c780:	b6a43423          	sd	a0,-1176(s0)
    c784:	039685b3          	mul	a1,a3,s9
    c788:	b7043503          	ld	a0,-1168(s0)
    c78c:	00a58533          	add	a0,a1,a0
    c790:	b6a43823          	sd	a0,-1168(s0)
    c794:	026685b3          	mul	a1,a3,t1
    c798:	b7843503          	ld	a0,-1160(s0)
    c79c:	00a58533          	add	a0,a1,a0
    c7a0:	b6a43c23          	sd	a0,-1160(s0)
    c7a4:	036685b3          	mul	a1,a3,s6
    c7a8:	b8043503          	ld	a0,-1152(s0)
    c7ac:	00a58533          	add	a0,a1,a0
    c7b0:	b8a43023          	sd	a0,-1152(s0)
    c7b4:	035685b3          	mul	a1,a3,s5
    c7b8:	000a8c93          	mv	s9,s5
    c7bc:	b8843503          	ld	a0,-1144(s0)
    c7c0:	00a58533          	add	a0,a1,a0
    c7c4:	b8a43423          	sd	a0,-1144(s0)
    c7c8:	029685b3          	mul	a1,a3,s1
    c7cc:	b9043503          	ld	a0,-1136(s0)
    c7d0:	00a58533          	add	a0,a1,a0
    c7d4:	b8a43823          	sd	a0,-1136(s0)
    c7d8:	037685b3          	mul	a1,a3,s7
    c7dc:	b9843503          	ld	a0,-1128(s0)
    c7e0:	00a58533          	add	a0,a1,a0
    c7e4:	b8a43c23          	sd	a0,-1128(s0)
    c7e8:	027685b3          	mul	a1,a3,t2
    c7ec:	ba043503          	ld	a0,-1120(s0)
    c7f0:	00a58533          	add	a0,a1,a0
    c7f4:	baa43023          	sd	a0,-1120(s0)
    c7f8:	03c685b3          	mul	a1,a3,t3
    c7fc:	ba843503          	ld	a0,-1112(s0)
    c800:	00a58533          	add	a0,a1,a0
    c804:	baa43423          	sd	a0,-1112(s0)
    c808:	ec043e83          	ld	t4,-320(s0)
    c80c:	03d685b3          	mul	a1,a3,t4
    c810:	bb043503          	ld	a0,-1104(s0)
    c814:	00a58533          	add	a0,a1,a0
    c818:	baa43823          	sd	a0,-1104(s0)
    c81c:	034685b3          	mul	a1,a3,s4
    c820:	bb843503          	ld	a0,-1096(s0)
    c824:	00a58533          	add	a0,a1,a0
    c828:	baa43c23          	sd	a0,-1096(s0)
    c82c:	038685b3          	mul	a1,a3,s8
    c830:	bc043503          	ld	a0,-1088(s0)
    c834:	00a58533          	add	a0,a1,a0
    c838:	bca43023          	sd	a0,-1088(s0)
    c83c:	01998083          	lb	ra,25(s3)
    c840:	aa043d03          	ld	s10,-1376(s0)
    c844:	03a685b3          	mul	a1,a3,s10
    c848:	bc843503          	ld	a0,-1080(s0)
    c84c:	00a58533          	add	a0,a1,a0
    c850:	bca43423          	sd	a0,-1080(s0)
    c854:	01a98703          	lb	a4,26(s3)
    c858:	ace43023          	sd	a4,-1344(s0)
    c85c:	021685b3          	mul	a1,a3,ra
    c860:	aa143c23          	sd	ra,-1352(s0)
    c864:	bd043503          	ld	a0,-1072(s0)
    c868:	00a58533          	add	a0,a1,a0
    c86c:	bca43823          	sd	a0,-1072(s0)
    c870:	01b98603          	lb	a2,27(s3)
    c874:	f4c43023          	sd	a2,-192(s0)
    c878:	02e685b3          	mul	a1,a3,a4
    c87c:	bd843503          	ld	a0,-1064(s0)
    c880:	00a58533          	add	a0,a1,a0
    c884:	bca43c23          	sd	a0,-1064(s0)
    c888:	01c98703          	lb	a4,28(s3)
    c88c:	f2e43c23          	sd	a4,-200(s0)
    c890:	02c685b3          	mul	a1,a3,a2
    c894:	be043503          	ld	a0,-1056(s0)
    c898:	00a58533          	add	a0,a1,a0
    c89c:	bea43023          	sd	a0,-1056(s0)
    c8a0:	01d98603          	lb	a2,29(s3)
    c8a4:	f2c43823          	sd	a2,-208(s0)
    c8a8:	02e685b3          	mul	a1,a3,a4
    c8ac:	be843503          	ld	a0,-1048(s0)
    c8b0:	00a58533          	add	a0,a1,a0
    c8b4:	bea43423          	sd	a0,-1048(s0)
    c8b8:	01e98583          	lb	a1,30(s3)
    c8bc:	f2b43023          	sd	a1,-224(s0)
    c8c0:	02c68633          	mul	a2,a3,a2
    c8c4:	00f607b3          	add	a5,a2,a5
    c8c8:	b0f43023          	sd	a5,-1280(s0)
    c8cc:	01f98603          	lb	a2,31(s3)
    c8d0:	f2c43423          	sd	a2,-216(s0)
    c8d4:	f8843503          	ld	a0,-120(s0)
    c8d8:	18050f03          	lb	t5,384(a0) # 9180 <.LBB69_824+0x1c>
    c8dc:	02b684b3          	mul	s1,a3,a1
    c8e0:	bf043503          	ld	a0,-1040(s0)
    c8e4:	00a48533          	add	a0,s1,a0
    c8e8:	bea43823          	sd	a0,-1040(s0)
    c8ec:	02c686b3          	mul	a3,a3,a2
    c8f0:	bf843503          	ld	a0,-1032(s0)
    c8f4:	00a68533          	add	a0,a3,a0
    c8f8:	bea43c23          	sd	a0,-1032(s0)
    c8fc:	f0043383          	ld	t2,-256(s0)
    c900:	027f06b3          	mul	a3,t5,t2
    c904:	c0843503          	ld	a0,-1016(s0)
    c908:	00a68533          	add	a0,a3,a0
    c90c:	c0a43423          	sd	a0,-1016(s0)
    c910:	ef843603          	ld	a2,-264(s0)
    c914:	02cf06b3          	mul	a3,t5,a2
    c918:	c1043503          	ld	a0,-1008(s0)
    c91c:	00a68533          	add	a0,a3,a0
    c920:	c0a43823          	sd	a0,-1008(s0)
    c924:	00080293          	mv	t0,a6
    c928:	ab043423          	sd	a6,-1368(s0)
    c92c:	030f06b3          	mul	a3,t5,a6
    c930:	c1843503          	ld	a0,-1000(s0)
    c934:	00a68533          	add	a0,a3,a0
    c938:	c0a43c23          	sd	a0,-1000(s0)
    c93c:	ef043b03          	ld	s6,-272(s0)
    c940:	036f06b3          	mul	a3,t5,s6
    c944:	c0043503          	ld	a0,-1024(s0)
    c948:	00a68533          	add	a0,a3,a0
    c94c:	c0a43023          	sd	a0,-1024(s0)
    c950:	00088593          	mv	a1,a7
    c954:	a9143c23          	sd	a7,-1384(s0)
    c958:	031f06b3          	mul	a3,t5,a7
    c95c:	c2043503          	ld	a0,-992(s0)
    c960:	00a68533          	add	a0,a3,a0
    c964:	c2a43023          	sd	a0,-992(s0)
    c968:	ee843703          	ld	a4,-280(s0)
    c96c:	02ef06b3          	mul	a3,t5,a4
    c970:	c2843503          	ld	a0,-984(s0)
    c974:	00a68533          	add	a0,a3,a0
    c978:	c2a43423          	sd	a0,-984(s0)
    c97c:	ee043803          	ld	a6,-288(s0)
    c980:	030f06b3          	mul	a3,t5,a6
    c984:	c3043503          	ld	a0,-976(s0)
    c988:	00a68533          	add	a0,a3,a0
    c98c:	c2a43823          	sd	a0,-976(s0)
    c990:	ed843883          	ld	a7,-296(s0)
    c994:	031f06b3          	mul	a3,t5,a7
    c998:	c3843503          	ld	a0,-968(s0)
    c99c:	00a68533          	add	a0,a3,a0
    c9a0:	c2a43c23          	sd	a0,-968(s0)
    c9a4:	f1843503          	ld	a0,-232(s0)
    c9a8:	02af06b3          	mul	a3,t5,a0
    c9ac:	c4043503          	ld	a0,-960(s0)
    c9b0:	00a68533          	add	a0,a3,a0
    c9b4:	c4a43023          	sd	a0,-960(s0)
    c9b8:	03bf06b3          	mul	a3,t5,s11
    c9bc:	c4843503          	ld	a0,-952(s0)
    c9c0:	00a68533          	add	a0,a3,a0
    c9c4:	c4a43423          	sd	a0,-952(s0)
    c9c8:	032f06b3          	mul	a3,t5,s2
    c9cc:	c5043503          	ld	a0,-944(s0)
    c9d0:	00a68533          	add	a0,a3,a0
    c9d4:	c4a43823          	sd	a0,-944(s0)
    c9d8:	03ff06b3          	mul	a3,t5,t6
    c9dc:	c5843503          	ld	a0,-936(s0)
    c9e0:	00a68533          	add	a0,a3,a0
    c9e4:	c4a43c23          	sd	a0,-936(s0)
    c9e8:	ec843303          	ld	t1,-312(s0)
    c9ec:	026f06b3          	mul	a3,t5,t1
    c9f0:	c6043503          	ld	a0,-928(s0)
    c9f4:	00a68533          	add	a0,a3,a0
    c9f8:	c6a43023          	sd	a0,-928(s0)
    c9fc:	ed043e03          	ld	t3,-304(s0)
    ca00:	03cf06b3          	mul	a3,t5,t3
    ca04:	c6843503          	ld	a0,-920(s0)
    ca08:	00a68533          	add	a0,a3,a0
    ca0c:	c6a43423          	sd	a0,-920(s0)
    ca10:	ac843a83          	ld	s5,-1336(s0)
    ca14:	035f06b3          	mul	a3,t5,s5
    ca18:	c7043503          	ld	a0,-912(s0)
    ca1c:	00a68533          	add	a0,a3,a0
    ca20:	c6a43823          	sd	a0,-912(s0)
    ca24:	ad043b83          	ld	s7,-1328(s0)
    ca28:	037f06b3          	mul	a3,t5,s7
    ca2c:	c7843503          	ld	a0,-904(s0)
    ca30:	00a68533          	add	a0,a3,a0
    ca34:	c6a43c23          	sd	a0,-904(s0)
    ca38:	039f06b3          	mul	a3,t5,s9
    ca3c:	c8043503          	ld	a0,-896(s0)
    ca40:	00a68533          	add	a0,a3,a0
    ca44:	c8a43023          	sd	a0,-896(s0)
    ca48:	ae843a03          	ld	s4,-1304(s0)
    ca4c:	034f06b3          	mul	a3,t5,s4
    ca50:	c8843503          	ld	a0,-888(s0)
    ca54:	00a68533          	add	a0,a3,a0
    ca58:	c8a43423          	sd	a0,-888(s0)
    ca5c:	ad843f83          	ld	t6,-1320(s0)
    ca60:	03ff06b3          	mul	a3,t5,t6
    ca64:	c9043503          	ld	a0,-880(s0)
    ca68:	00a68533          	add	a0,a3,a0
    ca6c:	c8a43823          	sd	a0,-880(s0)
    ca70:	f1043503          	ld	a0,-240(s0)
    ca74:	02af06b3          	mul	a3,t5,a0
    ca78:	c9843503          	ld	a0,-872(s0)
    ca7c:	00a68533          	add	a0,a3,a0
    ca80:	c8a43c23          	sd	a0,-872(s0)
    ca84:	af043783          	ld	a5,-1296(s0)
    ca88:	02ff06b3          	mul	a3,t5,a5
    ca8c:	ca043503          	ld	a0,-864(s0)
    ca90:	00a68533          	add	a0,a3,a0
    ca94:	caa43023          	sd	a0,-864(s0)
    ca98:	03df06b3          	mul	a3,t5,t4
    ca9c:	ca843503          	ld	a0,-856(s0)
    caa0:	00a68533          	add	a0,a3,a0
    caa4:	caa43423          	sd	a0,-856(s0)
    caa8:	ae043c03          	ld	s8,-1312(s0)
    caac:	038f06b3          	mul	a3,t5,s8
    cab0:	cb043503          	ld	a0,-848(s0)
    cab4:	00a68533          	add	a0,a3,a0
    cab8:	caa43823          	sd	a0,-848(s0)
    cabc:	f0843503          	ld	a0,-248(s0)
    cac0:	02af06b3          	mul	a3,t5,a0
    cac4:	cb843503          	ld	a0,-840(s0)
    cac8:	00a68533          	add	a0,a3,a0
    cacc:	caa43c23          	sd	a0,-840(s0)
    cad0:	03af06b3          	mul	a3,t5,s10
    cad4:	cc043503          	ld	a0,-832(s0)
    cad8:	00a68533          	add	a0,a3,a0
    cadc:	cca43023          	sd	a0,-832(s0)
    cae0:	021f06b3          	mul	a3,t5,ra
    cae4:	cc843503          	ld	a0,-824(s0)
    cae8:	00a68533          	add	a0,a3,a0
    caec:	cca43423          	sd	a0,-824(s0)
    caf0:	ac043083          	ld	ra,-1344(s0)
    caf4:	021f06b3          	mul	a3,t5,ra
    caf8:	cd043503          	ld	a0,-816(s0)
    cafc:	00a68533          	add	a0,a3,a0
    cb00:	cca43823          	sd	a0,-816(s0)
    cb04:	f4043503          	ld	a0,-192(s0)
    cb08:	02af06b3          	mul	a3,t5,a0
    cb0c:	cd843503          	ld	a0,-808(s0)
    cb10:	00a68533          	add	a0,a3,a0
    cb14:	cca43c23          	sd	a0,-808(s0)
    cb18:	f3843503          	ld	a0,-200(s0)
    cb1c:	02af06b3          	mul	a3,t5,a0
    cb20:	ce043503          	ld	a0,-800(s0)
    cb24:	00a68533          	add	a0,a3,a0
    cb28:	cea43023          	sd	a0,-800(s0)
    cb2c:	f3043503          	ld	a0,-208(s0)
    cb30:	02af06b3          	mul	a3,t5,a0
    cb34:	ce843503          	ld	a0,-792(s0)
    cb38:	00a68533          	add	a0,a3,a0
    cb3c:	cea43423          	sd	a0,-792(s0)
    cb40:	f8843503          	ld	a0,-120(s0)
    cb44:	30050683          	lb	a3,768(a0)
    cb48:	f2043503          	ld	a0,-224(s0)
    cb4c:	02af04b3          	mul	s1,t5,a0
    cb50:	cf043503          	ld	a0,-784(s0)
    cb54:	00a48533          	add	a0,s1,a0
    cb58:	cea43823          	sd	a0,-784(s0)
    cb5c:	f2843503          	ld	a0,-216(s0)
    cb60:	02af0f33          	mul	t5,t5,a0
    cb64:	cf843503          	ld	a0,-776(s0)
    cb68:	00af0533          	add	a0,t5,a0
    cb6c:	cea43c23          	sd	a0,-776(s0)
    cb70:	02768f33          	mul	t5,a3,t2
    cb74:	d0843483          	ld	s1,-760(s0)
    cb78:	009f04b3          	add	s1,t5,s1
    cb7c:	d0943423          	sd	s1,-760(s0)
    cb80:	02c68f33          	mul	t5,a3,a2
    cb84:	d1043483          	ld	s1,-752(s0)
    cb88:	009f04b3          	add	s1,t5,s1
    cb8c:	d0943823          	sd	s1,-752(s0)
    cb90:	02568f33          	mul	t5,a3,t0
    cb94:	d1843483          	ld	s1,-744(s0)
    cb98:	009f04b3          	add	s1,t5,s1
    cb9c:	d0943c23          	sd	s1,-744(s0)
    cba0:	03668f33          	mul	t5,a3,s6
    cba4:	d0043483          	ld	s1,-768(s0)
    cba8:	009f04b3          	add	s1,t5,s1
    cbac:	d0943023          	sd	s1,-768(s0)
    cbb0:	02b68f33          	mul	t5,a3,a1
    cbb4:	d2043483          	ld	s1,-736(s0)
    cbb8:	009f04b3          	add	s1,t5,s1
    cbbc:	d2943023          	sd	s1,-736(s0)
    cbc0:	02e68f33          	mul	t5,a3,a4
    cbc4:	d2843483          	ld	s1,-728(s0)
    cbc8:	009f04b3          	add	s1,t5,s1
    cbcc:	d2943423          	sd	s1,-728(s0)
    cbd0:	03068f33          	mul	t5,a3,a6
    cbd4:	d3043483          	ld	s1,-720(s0)
    cbd8:	009f04b3          	add	s1,t5,s1
    cbdc:	d2943823          	sd	s1,-720(s0)
    cbe0:	03168f33          	mul	t5,a3,a7
    cbe4:	d3843483          	ld	s1,-712(s0)
    cbe8:	009f04b3          	add	s1,t5,s1
    cbec:	d2943c23          	sd	s1,-712(s0)
    cbf0:	f1843e83          	ld	t4,-232(s0)
    cbf4:	03d68f33          	mul	t5,a3,t4
    cbf8:	d4043483          	ld	s1,-704(s0)
    cbfc:	009f04b3          	add	s1,t5,s1
    cc00:	d4943023          	sd	s1,-704(s0)
    cc04:	000d8293          	mv	t0,s11
    cc08:	03b68f33          	mul	t5,a3,s11
    cc0c:	d4843483          	ld	s1,-696(s0)
    cc10:	009f04b3          	add	s1,t5,s1
    cc14:	d4943423          	sd	s1,-696(s0)
    cc18:	00090893          	mv	a7,s2
    cc1c:	03268f33          	mul	t5,a3,s2
    cc20:	d5043483          	ld	s1,-688(s0)
    cc24:	009f04b3          	add	s1,t5,s1
    cc28:	d4943823          	sd	s1,-688(s0)
    cc2c:	ab043803          	ld	a6,-1360(s0)
    cc30:	03068f33          	mul	t5,a3,a6
    cc34:	d5843483          	ld	s1,-680(s0)
    cc38:	009f04b3          	add	s1,t5,s1
    cc3c:	d4943c23          	sd	s1,-680(s0)
    cc40:	02668f33          	mul	t5,a3,t1
    cc44:	d6043483          	ld	s1,-672(s0)
    cc48:	009f04b3          	add	s1,t5,s1
    cc4c:	d6943023          	sd	s1,-672(s0)
    cc50:	03c68f33          	mul	t5,a3,t3
    cc54:	d6843483          	ld	s1,-664(s0)
    cc58:	009f04b3          	add	s1,t5,s1
    cc5c:	d6943423          	sd	s1,-664(s0)
    cc60:	03568f33          	mul	t5,a3,s5
    cc64:	000a8d93          	mv	s11,s5
    cc68:	d7043483          	ld	s1,-656(s0)
    cc6c:	009f04b3          	add	s1,t5,s1
    cc70:	d6943823          	sd	s1,-656(s0)
    cc74:	03768f33          	mul	t5,a3,s7
    cc78:	d7843483          	ld	s1,-648(s0)
    cc7c:	009f04b3          	add	s1,t5,s1
    cc80:	d6943c23          	sd	s1,-648(s0)
    cc84:	03968f33          	mul	t5,a3,s9
    cc88:	000c8a93          	mv	s5,s9
    cc8c:	d8043483          	ld	s1,-640(s0)
    cc90:	009f04b3          	add	s1,t5,s1
    cc94:	d8943023          	sd	s1,-640(s0)
    cc98:	000a0c93          	mv	s9,s4
    cc9c:	03468f33          	mul	t5,a3,s4
    cca0:	d8843483          	ld	s1,-632(s0)
    cca4:	009f04b3          	add	s1,t5,s1
    cca8:	d8943423          	sd	s1,-632(s0)
    ccac:	03f68f33          	mul	t5,a3,t6
    ccb0:	000f8913          	mv	s2,t6
    ccb4:	d9043483          	ld	s1,-624(s0)
    ccb8:	009f04b3          	add	s1,t5,s1
    ccbc:	d8943823          	sd	s1,-624(s0)
    ccc0:	f1043e03          	ld	t3,-240(s0)
    ccc4:	03c68f33          	mul	t5,a3,t3
    ccc8:	d9843483          	ld	s1,-616(s0)
    cccc:	009f04b3          	add	s1,t5,s1
    ccd0:	d8943c23          	sd	s1,-616(s0)
    ccd4:	00078313          	mv	t1,a5
    ccd8:	02f68f33          	mul	t5,a3,a5
    ccdc:	da043483          	ld	s1,-608(s0)
    cce0:	009f04b3          	add	s1,t5,s1
    cce4:	da943023          	sd	s1,-608(s0)
    cce8:	ec043603          	ld	a2,-320(s0)
    ccec:	02c68f33          	mul	t5,a3,a2
    ccf0:	da843483          	ld	s1,-600(s0)
    ccf4:	009f04b3          	add	s1,t5,s1
    ccf8:	da943423          	sd	s1,-600(s0)
    ccfc:	000c0b13          	mv	s6,s8
    cd00:	03868f33          	mul	t5,a3,s8
    cd04:	db043483          	ld	s1,-592(s0)
    cd08:	009f04b3          	add	s1,t5,s1
    cd0c:	da943823          	sd	s1,-592(s0)
    cd10:	f0843703          	ld	a4,-248(s0)
    cd14:	02e68f33          	mul	t5,a3,a4
    cd18:	db843483          	ld	s1,-584(s0)
    cd1c:	009f04b3          	add	s1,t5,s1
    cd20:	da943c23          	sd	s1,-584(s0)
    cd24:	03a68f33          	mul	t5,a3,s10
    cd28:	dc043483          	ld	s1,-576(s0)
    cd2c:	009f04b3          	add	s1,t5,s1
    cd30:	dc943023          	sd	s1,-576(s0)
    cd34:	ab843383          	ld	t2,-1352(s0)
    cd38:	02768f33          	mul	t5,a3,t2
    cd3c:	dc843483          	ld	s1,-568(s0)
    cd40:	009f04b3          	add	s1,t5,s1
    cd44:	dc943423          	sd	s1,-568(s0)
    cd48:	02168f33          	mul	t5,a3,ra
    cd4c:	dd043483          	ld	s1,-560(s0)
    cd50:	009f04b3          	add	s1,t5,s1
    cd54:	dc943823          	sd	s1,-560(s0)
    cd58:	f4043783          	ld	a5,-192(s0)
    cd5c:	02f68f33          	mul	t5,a3,a5
    cd60:	dd843483          	ld	s1,-552(s0)
    cd64:	009f04b3          	add	s1,t5,s1
    cd68:	dc943c23          	sd	s1,-552(s0)
    cd6c:	f3843c03          	ld	s8,-200(s0)
    cd70:	03868f33          	mul	t5,a3,s8
    cd74:	de043483          	ld	s1,-544(s0)
    cd78:	009f04b3          	add	s1,t5,s1
    cd7c:	de943023          	sd	s1,-544(s0)
    cd80:	f3043a03          	ld	s4,-208(s0)
    cd84:	03468f33          	mul	t5,a3,s4
    cd88:	de843483          	ld	s1,-536(s0)
    cd8c:	009f04b3          	add	s1,t5,s1
    cd90:	de943423          	sd	s1,-536(s0)
    cd94:	f8843503          	ld	a0,-120(s0)
    cd98:	48050f03          	lb	t5,1152(a0)
    cd9c:	f2043503          	ld	a0,-224(s0)
    cda0:	02a684b3          	mul	s1,a3,a0
    cda4:	df043f83          	ld	t6,-528(s0)
    cda8:	01f48fb3          	add	t6,s1,t6
    cdac:	dff43823          	sd	t6,-528(s0)
    cdb0:	f2843483          	ld	s1,-216(s0)
    cdb4:	029686b3          	mul	a3,a3,s1
    cdb8:	df843f83          	ld	t6,-520(s0)
    cdbc:	01f68fb3          	add	t6,a3,t6
    cdc0:	dff43c23          	sd	t6,-520(s0)
    cdc4:	029f06b3          	mul	a3,t5,s1
    cdc8:	f2d43423          	sd	a3,-216(s0)
    cdcc:	02af0533          	mul	a0,t5,a0
    cdd0:	f2a43023          	sd	a0,-224(s0)
    cdd4:	034f0533          	mul	a0,t5,s4
    cdd8:	f2a43823          	sd	a0,-208(s0)
    cddc:	038f0533          	mul	a0,t5,s8
    cde0:	f2a43c23          	sd	a0,-200(s0)
    cde4:	02ff0533          	mul	a0,t5,a5
    cde8:	a8a43823          	sd	a0,-1392(s0)
    cdec:	021f0533          	mul	a0,t5,ra
    cdf0:	aca43023          	sd	a0,-1344(s0)
    cdf4:	027f0533          	mul	a0,t5,t2
    cdf8:	aaa43c23          	sd	a0,-1352(s0)
    cdfc:	03af0533          	mul	a0,t5,s10
    ce00:	f4a43023          	sd	a0,-192(s0)
    ce04:	02ef03b3          	mul	t2,t5,a4
    ce08:	036f04b3          	mul	s1,t5,s6
    ce0c:	02cf0733          	mul	a4,t5,a2
    ce10:	026f0333          	mul	t1,t5,t1
    ce14:	03cf0e33          	mul	t3,t5,t3
    ce18:	032f0d33          	mul	s10,t5,s2
    ce1c:	039f0cb3          	mul	s9,t5,s9
    ce20:	035f07b3          	mul	a5,t5,s5
    ce24:	037f0bb3          	mul	s7,t5,s7
    ce28:	03bf0b33          	mul	s6,t5,s11
    ce2c:	ed043503          	ld	a0,-304(s0)
    ce30:	02af0ab3          	mul	s5,t5,a0
    ce34:	ec843503          	ld	a0,-312(s0)
    ce38:	02af0c33          	mul	s8,t5,a0
    ce3c:	030f0a33          	mul	s4,t5,a6
    ce40:	031f0933          	mul	s2,t5,a7
    ce44:	025f0db3          	mul	s11,t5,t0
    ce48:	03df00b3          	mul	ra,t5,t4
    ce4c:	e6843683          	ld	a3,-408(s0)
    ce50:	ed843503          	ld	a0,-296(s0)
    ce54:	02af0fb3          	mul	t6,t5,a0
    ce58:	ee043503          	ld	a0,-288(s0)
    ce5c:	02af0633          	mul	a2,t5,a0
    ce60:	ee843503          	ld	a0,-280(s0)
    ce64:	02af05b3          	mul	a1,t5,a0
    ce68:	a9843503          	ld	a0,-1384(s0)
    ce6c:	02af0533          	mul	a0,t5,a0
    ce70:	ef043803          	ld	a6,-272(s0)
    ce74:	030f0eb3          	mul	t4,t5,a6
    ce78:	aa843803          	ld	a6,-1368(s0)
    ce7c:	030f02b3          	mul	t0,t5,a6
    ce80:	ef843803          	ld	a6,-264(s0)
    ce84:	030f0833          	mul	a6,t5,a6
    ce88:	f0043883          	ld	a7,-256(s0)
    ce8c:	031f0f33          	mul	t5,t5,a7
    ce90:	e0843883          	ld	a7,-504(s0)
    ce94:	011f08b3          	add	a7,t5,a7
    ce98:	e1143423          	sd	a7,-504(s0)
    ce9c:	e7043f03          	ld	t5,-400(s0)
    cea0:	e1043883          	ld	a7,-496(s0)
    cea4:	011808b3          	add	a7,a6,a7
    cea8:	e1143823          	sd	a7,-496(s0)
    ceac:	ea043803          	ld	a6,-352(s0)
    ceb0:	e1843883          	ld	a7,-488(s0)
    ceb4:	011288b3          	add	a7,t0,a7
    ceb8:	e1143c23          	sd	a7,-488(s0)
    cebc:	e9843883          	ld	a7,-360(s0)
    cec0:	e0043283          	ld	t0,-512(s0)
    cec4:	005e82b3          	add	t0,t4,t0
    cec8:	e0543023          	sd	t0,-512(s0)
    cecc:	e2043283          	ld	t0,-480(s0)
    ced0:	005502b3          	add	t0,a0,t0
    ced4:	e2543023          	sd	t0,-480(s0)
    ced8:	e2843503          	ld	a0,-472(s0)
    cedc:	00a58533          	add	a0,a1,a0
    cee0:	e2a43423          	sd	a0,-472(s0)
    cee4:	e3043503          	ld	a0,-464(s0)
    cee8:	00a60533          	add	a0,a2,a0
    ceec:	e2a43823          	sd	a0,-464(s0)
    cef0:	e3843503          	ld	a0,-456(s0)
    cef4:	00af8533          	add	a0,t6,a0
    cef8:	e2a43c23          	sd	a0,-456(s0)
    cefc:	00068593          	mv	a1,a3
    cf00:	e4043503          	ld	a0,-448(s0)
    cf04:	00a08533          	add	a0,ra,a0
    cf08:	e4a43023          	sd	a0,-448(s0)
    cf0c:	e5843083          	ld	ra,-424(s0)
    cf10:	e4843503          	ld	a0,-440(s0)
    cf14:	00ad8533          	add	a0,s11,a0
    cf18:	e4a43423          	sd	a0,-440(s0)
    cf1c:	e6043d83          	ld	s11,-416(s0)
    cf20:	e5043503          	ld	a0,-432(s0)
    cf24:	00a90533          	add	a0,s2,a0
    cf28:	e4a43823          	sd	a0,-432(s0)
    cf2c:	001a00b3          	add	ra,s4,ra
    cf30:	01bc0db3          	add	s11,s8,s11
    cf34:	f4843503          	ld	a0,-184(s0)
    cf38:	00aa8533          	add	a0,s5,a0
    cf3c:	f4a43423          	sd	a0,-184(s0)
    cf40:	f4843a83          	ld	s5,-184(s0)
    cf44:	f5043503          	ld	a0,-176(s0)
    cf48:	00ab0533          	add	a0,s6,a0
    cf4c:	f4a43823          	sd	a0,-176(s0)
    cf50:	f5043c03          	ld	s8,-176(s0)
    cf54:	f5843503          	ld	a0,-168(s0)
    cf58:	00ab8533          	add	a0,s7,a0
    cf5c:	e9043b83          	ld	s7,-368(s0)
    cf60:	f4a43c23          	sd	a0,-168(s0)
    cf64:	f5843a03          	ld	s4,-168(s0)
    cf68:	f6043503          	ld	a0,-160(s0)
    cf6c:	00a78533          	add	a0,a5,a0
    cf70:	ea843603          	ld	a2,-344(s0)
    cf74:	f6a43023          	sd	a0,-160(s0)
    cf78:	f6043903          	ld	s2,-160(s0)
    cf7c:	f6843503          	ld	a0,-152(s0)
    cf80:	00ac8533          	add	a0,s9,a0
    cf84:	eb043f83          	ld	t6,-336(s0)
    cf88:	f6a43423          	sd	a0,-152(s0)
    cf8c:	f6843e83          	ld	t4,-152(s0)
    cf90:	f7043503          	ld	a0,-144(s0)
    cf94:	00ad0533          	add	a0,s10,a0
    cf98:	f6a43823          	sd	a0,-144(s0)
    cf9c:	f7043683          	ld	a3,-144(s0)
    cfa0:	00be05b3          	add	a1,t3,a1
    cfa4:	e6b43423          	sd	a1,-408(s0)
    cfa8:	e7843e03          	ld	t3,-392(s0)
    cfac:	01e30f33          	add	t5,t1,t5
    cfb0:	e8043b03          	ld	s6,-384(s0)
    cfb4:	01c70e33          	add	t3,a4,t3
    cfb8:	e8843703          	ld	a4,-376(s0)
    cfbc:	f7843503          	ld	a0,-136(s0)
    cfc0:	00a48533          	add	a0,s1,a0
    cfc4:	b0043303          	ld	t1,-1280(s0)
    cfc8:	f6a43c23          	sd	a0,-136(s0)
    cfcc:	f7843783          	ld	a5,-136(s0)
    cfd0:	f8043503          	ld	a0,-128(s0)
    cfd4:	00a38533          	add	a0,t2,a0
    cfd8:	f8843383          	ld	t2,-120(s0)
    cfdc:	f8a43023          	sd	a0,-128(s0)
    cfe0:	af843503          	ld	a0,-1288(s0)
    cfe4:	f8043583          	ld	a1,-128(s0)
    cfe8:	f4043283          	ld	t0,-192(s0)
    cfec:	01628b33          	add	s6,t0,s6
    cff0:	ab843283          	ld	t0,-1352(s0)
    cff4:	00e28733          	add	a4,t0,a4
    cff8:	eb843d03          	ld	s10,-328(s0)
    cffc:	ac043283          	ld	t0,-1344(s0)
    d000:	01728bb3          	add	s7,t0,s7
    d004:	a9043283          	ld	t0,-1392(s0)
    d008:	011288b3          	add	a7,t0,a7
    d00c:	f3843283          	ld	t0,-200(s0)
    d010:	01028833          	add	a6,t0,a6
    d014:	f3043283          	ld	t0,-208(s0)
    d018:	00c28633          	add	a2,t0,a2
    d01c:	f2043283          	ld	t0,-224(s0)
    d020:	01f28fb3          	add	t6,t0,t6
    d024:	f2843283          	ld	t0,-216(s0)
    d028:	01a28d33          	add	s10,t0,s10
    d02c:	06098993          	addi	s3,s3,96
    d030:	fa050513          	addi	a0,a0,-96
    d034:	00138393          	addi	t2,t2,1
    d038:	d6051063          	bnez	a0,c598 <.LBB69_1545>
    d03c:	b3043303          	ld	t1,-1232(s0)
    d040:	b3843a83          	ld	s5,-1224(s0)
    d044:	b4043a03          	ld	s4,-1216(s0)
    d048:	b2843983          	ld	s3,-1240(s0)
    d04c:	b2043903          	ld	s2,-1248(s0)
    d050:	b1843783          	ld	a5,-1256(s0)
    d054:	b1043483          	ld	s1,-1264(s0)
    d058:	b0843383          	ld	t2,-1272(s0)
    d05c:	e8e43423          	sd	a4,-376(s0)
    d060:	e9743823          	sd	s7,-368(s0)
    d064:	eac43423          	sd	a2,-344(s0)
    d068:	ebf43823          	sd	t6,-336(s0)
    d06c:	a8843583          	ld	a1,-1400(s0)
    d070:	00259593          	slli	a1,a1,0x2
    d074:	00001537          	lui	a0,0x1
    d078:	40a40533          	sub	a0,s0,a0
    d07c:	b6053503          	ld	a0,-1184(a0) # b60 <.LBB69_3+0x93c>
    d080:	00b50533          	add	a0,a0,a1
    d084:	00001637          	lui	a2,0x1
    d088:	40c40633          	sub	a2,s0,a2
    d08c:	b5863603          	ld	a2,-1192(a2) # b58 <.LBB69_3+0x934>
    d090:	00b605b3          	add	a1,a2,a1
    d094:	00c5a603          	lw	a2,12(a1)
    d098:	00c52703          	lw	a4,12(a0)
    d09c:	a7043683          	ld	a3,-1424(s0)
    d0a0:	0006ae83          	lw	t4,0(a3)
    d0a4:	00761693          	slli	a3,a2,0x7
    d0a8:	aee43c23          	sd	a4,-1288(s0)
    d0ac:	b4843603          	ld	a2,-1208(s0)
    d0b0:	00e60633          	add	a2,a2,a4
    d0b4:	aed43823          	sd	a3,-1296(s0)
    d0b8:	00d60633          	add	a2,a2,a3
    d0bc:	ffff4737          	lui	a4,0xffff4
    d0c0:	40ee86bb          	subw	a3,t4,a4
    d0c4:	40d6063b          	subw	a2,a2,a3
    d0c8:	400006b7          	lui	a3,0x40000
    d0cc:	a6c43423          	sd	a2,-1432(s0)
    d0d0:	00065463          	bgez	a2,d0d8 <.LBB69_1548>
    d0d4:	c00006b7          	lui	a3,0xc0000

000000000000d0d8 <.LBB69_1548>:
    d0d8:	a6d43023          	sd	a3,-1440(s0)
    d0dc:	0085a603          	lw	a2,8(a1)
    d0e0:	00852683          	lw	a3,8(a0)
    d0e4:	00761293          	slli	t0,a2,0x7
    d0e8:	aed43423          	sd	a3,-1304(s0)
    d0ec:	00d30633          	add	a2,t1,a3
    d0f0:	ae543023          	sd	t0,-1312(s0)
    d0f4:	00560633          	add	a2,a2,t0
    d0f8:	40ee86bb          	subw	a3,t4,a4
    d0fc:	40d6063b          	subw	a2,a2,a3
    d100:	400006b7          	lui	a3,0x40000
    d104:	a4c43c23          	sd	a2,-1448(s0)
    d108:	00065463          	bgez	a2,d110 <.LBB69_1550>
    d10c:	c00006b7          	lui	a3,0xc0000

000000000000d110 <.LBB69_1550>:
    d110:	a4d43823          	sd	a3,-1456(s0)
    d114:	0045a603          	lw	a2,4(a1)
    d118:	00452683          	lw	a3,4(a0)
    d11c:	00761293          	slli	t0,a2,0x7
    d120:	acd43c23          	sd	a3,-1320(s0)
    d124:	00da8633          	add	a2,s5,a3
    d128:	ac543823          	sd	t0,-1328(s0)
    d12c:	00560633          	add	a2,a2,t0
    d130:	40ee86bb          	subw	a3,t4,a4
    d134:	40d6063b          	subw	a2,a2,a3
    d138:	400006b7          	lui	a3,0x40000
    d13c:	a4c43423          	sd	a2,-1464(s0)
    d140:	00065463          	bgez	a2,d148 <.LBB69_1552>
    d144:	c00006b7          	lui	a3,0xc0000

000000000000d148 <.LBB69_1552>:
    d148:	a4d43023          	sd	a3,-1472(s0)
    d14c:	0005a603          	lw	a2,0(a1)
    d150:	00052683          	lw	a3,0(a0)
    d154:	00761293          	slli	t0,a2,0x7
    d158:	acd43423          	sd	a3,-1336(s0)
    d15c:	00da0633          	add	a2,s4,a3
    d160:	ac543023          	sd	t0,-1344(s0)
    d164:	00560633          	add	a2,a2,t0
    d168:	40ee86bb          	subw	a3,t4,a4
    d16c:	40d6063b          	subw	a2,a2,a3
    d170:	400006b7          	lui	a3,0x40000
    d174:	a2c43c23          	sd	a2,-1480(s0)
    d178:	00065463          	bgez	a2,d180 <.LBB69_1554>
    d17c:	c00006b7          	lui	a3,0xc0000

000000000000d180 <.LBB69_1554>:
    d180:	a2d43823          	sd	a3,-1488(s0)
    d184:	0105a603          	lw	a2,16(a1)
    d188:	01052683          	lw	a3,16(a0)
    d18c:	00761293          	slli	t0,a2,0x7
    d190:	aad43c23          	sd	a3,-1352(s0)
    d194:	00d98633          	add	a2,s3,a3
    d198:	aa543823          	sd	t0,-1360(s0)
    d19c:	00560633          	add	a2,a2,t0
    d1a0:	40ee86bb          	subw	a3,t4,a4
    d1a4:	40d6063b          	subw	a2,a2,a3
    d1a8:	400006b7          	lui	a3,0x40000
    d1ac:	a2c43423          	sd	a2,-1496(s0)
    d1b0:	00065463          	bgez	a2,d1b8 <.LBB69_1556>
    d1b4:	c00006b7          	lui	a3,0xc0000

000000000000d1b8 <.LBB69_1556>:
    d1b8:	a2d43023          	sd	a3,-1504(s0)
    d1bc:	0145a603          	lw	a2,20(a1)
    d1c0:	01452683          	lw	a3,20(a0)
    d1c4:	00761293          	slli	t0,a2,0x7
    d1c8:	aad43423          	sd	a3,-1368(s0)
    d1cc:	00d90633          	add	a2,s2,a3
    d1d0:	b2543023          	sd	t0,-1248(s0)
    d1d4:	00560633          	add	a2,a2,t0
    d1d8:	40ee86bb          	subw	a3,t4,a4
    d1dc:	40d6063b          	subw	a2,a2,a3
    d1e0:	400006b7          	lui	a3,0x40000
    d1e4:	a0c43c23          	sd	a2,-1512(s0)
    d1e8:	00065463          	bgez	a2,d1f0 <.LBB69_1558>
    d1ec:	c00006b7          	lui	a3,0xc0000

000000000000d1f0 <.LBB69_1558>:
    d1f0:	a0d43823          	sd	a3,-1520(s0)
    d1f4:	0185a603          	lw	a2,24(a1)
    d1f8:	01852683          	lw	a3,24(a0)
    d1fc:	00761293          	slli	t0,a2,0x7
    d200:	aad43023          	sd	a3,-1376(s0)
    d204:	00d78633          	add	a2,a5,a3
    d208:	b0543c23          	sd	t0,-1256(s0)
    d20c:	00560633          	add	a2,a2,t0
    d210:	40ee86bb          	subw	a3,t4,a4
    d214:	40d6063b          	subw	a2,a2,a3
    d218:	400006b7          	lui	a3,0x40000
    d21c:	a0c43423          	sd	a2,-1528(s0)
    d220:	00065463          	bgez	a2,d228 <.LBB69_1560>
    d224:	c00006b7          	lui	a3,0xc0000

000000000000d228 <.LBB69_1560>:
    d228:	a0d43023          	sd	a3,-1536(s0)
    d22c:	01c5a603          	lw	a2,28(a1)
    d230:	01c52683          	lw	a3,28(a0)
    d234:	00761293          	slli	t0,a2,0x7
    d238:	a8d43c23          	sd	a3,-1384(s0)
    d23c:	00d48633          	add	a2,s1,a3
    d240:	b0543823          	sd	t0,-1264(s0)
    d244:	00560633          	add	a2,a2,t0
    d248:	40ee86bb          	subw	a3,t4,a4
    d24c:	40d6063b          	subw	a2,a2,a3
    d250:	400006b7          	lui	a3,0x40000
    d254:	9ec43c23          	sd	a2,-1544(s0)
    d258:	00065463          	bgez	a2,d260 <.LBB69_1562>
    d25c:	c00006b7          	lui	a3,0xc0000

000000000000d260 <.LBB69_1562>:
    d260:	9ed43823          	sd	a3,-1552(s0)
    d264:	e4143c23          	sd	ra,-424(s0)
    d268:	e7b43023          	sd	s11,-416(s0)
    d26c:	e7e43823          	sd	t5,-400(s0)
    d270:	e7c43c23          	sd	t3,-392(s0)
    d274:	e9643023          	sd	s6,-384(s0)
    d278:	e9143c23          	sd	a7,-360(s0)
    d27c:	eb043023          	sd	a6,-352(s0)
    d280:	eba43c23          	sd	s10,-328(s0)
    d284:	0205a603          	lw	a2,32(a1)
    d288:	02052683          	lw	a3,32(a0)
    d28c:	00761793          	slli	a5,a2,0x7
    d290:	a8d43823          	sd	a3,-1392(s0)
    d294:	00d38633          	add	a2,t2,a3
    d298:	b0f43423          	sd	a5,-1272(s0)
    d29c:	00f60633          	add	a2,a2,a5
    d2a0:	ffff4d37          	lui	s10,0xffff4
    d2a4:	40ee86bb          	subw	a3,t4,a4
    d2a8:	40d6063b          	subw	a2,a2,a3
    d2ac:	400006b7          	lui	a3,0x40000
    d2b0:	9ec43423          	sd	a2,-1560(s0)
    d2b4:	00065463          	bgez	a2,d2bc <.LBB69_1564>
    d2b8:	c00006b7          	lui	a3,0xc0000

000000000000d2bc <.LBB69_1564>:
    d2bc:	9ed43023          	sd	a3,-1568(s0)
    d2c0:	07c52603          	lw	a2,124(a0)
    d2c4:	f4c43023          	sd	a2,-192(s0)
    d2c8:	07852603          	lw	a2,120(a0)
    d2cc:	f2c43c23          	sd	a2,-200(s0)
    d2d0:	07452603          	lw	a2,116(a0)
    d2d4:	f2c43823          	sd	a2,-208(s0)
    d2d8:	07052603          	lw	a2,112(a0)
    d2dc:	f2c43423          	sd	a2,-216(s0)
    d2e0:	06c52603          	lw	a2,108(a0)
    d2e4:	f2c43023          	sd	a2,-224(s0)
    d2e8:	06852603          	lw	a2,104(a0)
    d2ec:	f0c43c23          	sd	a2,-232(s0)
    d2f0:	06452603          	lw	a2,100(a0)
    d2f4:	f0c43823          	sd	a2,-240(s0)
    d2f8:	06052603          	lw	a2,96(a0)
    d2fc:	f0c43423          	sd	a2,-248(s0)
    d300:	05c52603          	lw	a2,92(a0)
    d304:	f0c43023          	sd	a2,-256(s0)
    d308:	05852603          	lw	a2,88(a0)
    d30c:	eec43c23          	sd	a2,-264(s0)
    d310:	05452603          	lw	a2,84(a0)
    d314:	eec43823          	sd	a2,-272(s0)
    d318:	05052603          	lw	a2,80(a0)
    d31c:	eec43423          	sd	a2,-280(s0)
    d320:	04c52603          	lw	a2,76(a0)
    d324:	eec43023          	sd	a2,-288(s0)
    d328:	04852603          	lw	a2,72(a0)
    d32c:	ecc43c23          	sd	a2,-296(s0)
    d330:	04452603          	lw	a2,68(a0)
    d334:	ecc43823          	sd	a2,-304(s0)
    d338:	04052603          	lw	a2,64(a0)
    d33c:	ecc43423          	sd	a2,-312(s0)
    d340:	03c52603          	lw	a2,60(a0)
    d344:	ecc43023          	sd	a2,-320(s0)
    d348:	03852603          	lw	a2,56(a0)
    d34c:	b4c43423          	sd	a2,-1208(s0)
    d350:	03452603          	lw	a2,52(a0)
    d354:	b4c43023          	sd	a2,-1216(s0)
    d358:	03052603          	lw	a2,48(a0)
    d35c:	b2c43c23          	sd	a2,-1224(s0)
    d360:	02c52603          	lw	a2,44(a0)
    d364:	b2c43823          	sd	a2,-1232(s0)
    d368:	02852603          	lw	a2,40(a0)
    d36c:	b2c43423          	sd	a2,-1240(s0)
    d370:	02452c03          	lw	s8,36(a0)
    d374:	07c5a503          	lw	a0,124(a1)
    d378:	9ca43c23          	sd	a0,-1576(s0)
    d37c:	0785a703          	lw	a4,120(a1)
    d380:	0745ad83          	lw	s11,116(a1)
    d384:	0705a503          	lw	a0,112(a1)
    d388:	06c5a803          	lw	a6,108(a1)
    d38c:	0685a783          	lw	a5,104(a1)
    d390:	0645af03          	lw	t5,100(a1)
    d394:	0605a083          	lw	ra,96(a1)
    d398:	05c5a603          	lw	a2,92(a1)
    d39c:	0585a883          	lw	a7,88(a1)
    d3a0:	0545a283          	lw	t0,84(a1)
    d3a4:	0505a683          	lw	a3,80(a1)
    d3a8:	04c5a383          	lw	t2,76(a1)
    d3ac:	0485af83          	lw	t6,72(a1)
    d3b0:	0445a483          	lw	s1,68(a1)
    d3b4:	0405a903          	lw	s2,64(a1)
    d3b8:	03c5a983          	lw	s3,60(a1)
    d3bc:	0385aa03          	lw	s4,56(a1)
    d3c0:	0345aa83          	lw	s5,52(a1)
    d3c4:	0245ae03          	lw	t3,36(a1)
    d3c8:	0305ab03          	lw	s6,48(a1)
    d3cc:	02c5ab83          	lw	s7,44(a1)
    d3d0:	0285a583          	lw	a1,40(a1)
    d3d4:	007e1c93          	slli	s9,t3,0x7
    d3d8:	a9843023          	sd	s8,-1408(s0)
    d3dc:	b5043e03          	ld	t3,-1200(s0)
    d3e0:	018e0e33          	add	t3,t3,s8
    d3e4:	b5943823          	sd	s9,-1200(s0)
    d3e8:	019e0c33          	add	s8,t3,s9
    d3ec:	a7043c83          	ld	s9,-1424(s0)
    d3f0:	004cae03          	lw	t3,4(s9)
    d3f4:	008ca303          	lw	t1,8(s9)
    d3f8:	f8a43823          	sd	a0,-112(s0)
    d3fc:	00001537          	lui	a0,0x1
    d400:	40a40533          	sub	a0,s0,a0
    d404:	7a653c23          	sd	t1,1976(a0) # 17b8 <.LBB69_5+0x39c>
    d408:	f9043503          	ld	a0,-112(s0)
    d40c:	00ccac83          	lw	s9,12(s9)
    d410:	f9943423          	sd	s9,-120(s0)
    d414:	41ae8cbb          	subw	s9,t4,s10
    d418:	419c0c3b          	subw	s8,s8,s9
    d41c:	40000cb7          	lui	s9,0x40000
    d420:	9d843423          	sd	s8,-1592(s0)
    d424:	000c5463          	bgez	s8,d42c <.LBB69_1566>
    d428:	c0000cb7          	lui	s9,0xc0000

000000000000d42c <.LBB69_1566>:
    d42c:	9d943023          	sd	s9,-1600(s0)
    d430:	00759c13          	slli	s8,a1,0x7
    d434:	b2843583          	ld	a1,-1240(s0)
    d438:	b5843c83          	ld	s9,-1192(s0)
    d43c:	00bc85b3          	add	a1,s9,a1
    d440:	b5843c23          	sd	s8,-1192(s0)
    d444:	018585b3          	add	a1,a1,s8
    d448:	41ae8c3b          	subw	s8,t4,s10
    d44c:	418585bb          	subw	a1,a1,s8
    d450:	40000c37          	lui	s8,0x40000
    d454:	9ab43423          	sd	a1,-1624(s0)
    d458:	0005d463          	bgez	a1,d460 <.LBB69_1568>
    d45c:	c0000c37          	lui	s8,0xc0000

000000000000d460 <.LBB69_1568>:
    d460:	99843c23          	sd	s8,-1640(s0)
    d464:	007b9b93          	slli	s7,s7,0x7
    d468:	b3043583          	ld	a1,-1232(s0)
    d46c:	b6043c03          	ld	s8,-1184(s0)
    d470:	00bc05b3          	add	a1,s8,a1
    d474:	b7743023          	sd	s7,-1184(s0)
    d478:	017585b3          	add	a1,a1,s7
    d47c:	41ae8bbb          	subw	s7,t4,s10
    d480:	417585bb          	subw	a1,a1,s7
    d484:	40000bb7          	lui	s7,0x40000
    d488:	98b43423          	sd	a1,-1656(s0)
    d48c:	b7843c83          	ld	s9,-1160(s0)
    d490:	0005d463          	bgez	a1,d498 <.LBB69_1570>
    d494:	c0000bb7          	lui	s7,0xc0000

000000000000d498 <.LBB69_1570>:
    d498:	97743c23          	sd	s7,-1672(s0)
    d49c:	007b1b13          	slli	s6,s6,0x7
    d4a0:	b3843583          	ld	a1,-1224(s0)
    d4a4:	b6843b83          	ld	s7,-1176(s0)
    d4a8:	00bb85b3          	add	a1,s7,a1
    d4ac:	b7643423          	sd	s6,-1176(s0)
    d4b0:	016585b3          	add	a1,a1,s6
    d4b4:	41ae8b3b          	subw	s6,t4,s10
    d4b8:	416585bb          	subw	a1,a1,s6
    d4bc:	40000b37          	lui	s6,0x40000
    d4c0:	94b43c23          	sd	a1,-1704(s0)
    d4c4:	b8043c03          	ld	s8,-1152(s0)
    d4c8:	0005d463          	bgez	a1,d4d0 <.LBB69_1572>
    d4cc:	c0000b37          	lui	s6,0xc0000

000000000000d4d0 <.LBB69_1572>:
    d4d0:	95643023          	sd	s6,-1728(s0)
    d4d4:	007a9a93          	slli	s5,s5,0x7
    d4d8:	b4043583          	ld	a1,-1216(s0)
    d4dc:	b7043b03          	ld	s6,-1168(s0)
    d4e0:	00bb05b3          	add	a1,s6,a1
    d4e4:	b7543823          	sd	s5,-1168(s0)
    d4e8:	015585b3          	add	a1,a1,s5
    d4ec:	ffff4b37          	lui	s6,0xffff4
    d4f0:	416e8abb          	subw	s5,t4,s6
    d4f4:	415585bb          	subw	a1,a1,s5
    d4f8:	40000ab7          	lui	s5,0x40000
    d4fc:	92b43023          	sd	a1,-1760(s0)
    d500:	b9843d03          	ld	s10,-1128(s0)
    d504:	b8843b83          	ld	s7,-1144(s0)
    d508:	0005d463          	bgez	a1,d510 <.LBB69_1574>
    d50c:	c0000ab7          	lui	s5,0xc0000

000000000000d510 <.LBB69_1574>:
    d510:	91543c23          	sd	s5,-1768(s0)
    d514:	007a1a13          	slli	s4,s4,0x7
    d518:	b4843583          	ld	a1,-1208(s0)
    d51c:	00bc85b3          	add	a1,s9,a1
    d520:	000a0c93          	mv	s9,s4
    d524:	014585b3          	add	a1,a1,s4
    d528:	416e8a3b          	subw	s4,t4,s6
    d52c:	414585bb          	subw	a1,a1,s4
    d530:	40000a37          	lui	s4,0x40000
    d534:	8eb43c23          	sd	a1,-1800(s0)
    d538:	0005d463          	bgez	a1,d540 <.LBB69_1576>
    d53c:	c0000a37          	lui	s4,0xc0000

000000000000d540 <.LBB69_1576>:
    d540:	8f443823          	sd	s4,-1808(s0)
    d544:	00799993          	slli	s3,s3,0x7
    d548:	ec043583          	ld	a1,-320(s0)
    d54c:	00bc05b3          	add	a1,s8,a1
    d550:	00098c13          	mv	s8,s3
    d554:	013585b3          	add	a1,a1,s3
    d558:	416e89bb          	subw	s3,t4,s6
    d55c:	413585bb          	subw	a1,a1,s3
    d560:	400009b7          	lui	s3,0x40000
    d564:	dd843a83          	ld	s5,-552(s0)
    d568:	8cb43823          	sd	a1,-1840(s0)
    d56c:	0005d463          	bgez	a1,d574 <.LBB69_1578>
    d570:	c00009b7          	lui	s3,0xc0000

000000000000d574 <.LBB69_1578>:
    d574:	8d343423          	sd	s3,-1848(s0)
    d578:	00791913          	slli	s2,s2,0x7
    d57c:	ec843583          	ld	a1,-312(s0)
    d580:	00bb85b3          	add	a1,s7,a1
    d584:	00090b93          	mv	s7,s2
    d588:	012585b3          	add	a1,a1,s2
    d58c:	416e893b          	subw	s2,t4,s6
    d590:	412585bb          	subw	a1,a1,s2
    d594:	40000937          	lui	s2,0x40000
    d598:	ce043983          	ld	s3,-800(s0)
    d59c:	8ab43423          	sd	a1,-1880(s0)
    d5a0:	ba043a03          	ld	s4,-1120(s0)
    d5a4:	0005d463          	bgez	a1,d5ac <.LBB69_1580>
    d5a8:	c0000937          	lui	s2,0xc0000

000000000000d5ac <.LBB69_1580>:
    d5ac:	8b243023          	sd	s2,-1888(s0)
    d5b0:	00749493          	slli	s1,s1,0x7
    d5b4:	ed043583          	ld	a1,-304(s0)
    d5b8:	b9043903          	ld	s2,-1136(s0)
    d5bc:	00b905b3          	add	a1,s2,a1
    d5c0:	00048913          	mv	s2,s1
    d5c4:	009585b3          	add	a1,a1,s1
    d5c8:	416e84bb          	subw	s1,t4,s6
    d5cc:	409585bb          	subw	a1,a1,s1
    d5d0:	400004b7          	lui	s1,0x40000
    d5d4:	88b43023          	sd	a1,-1920(s0)
    d5d8:	0005d463          	bgez	a1,d5e0 <.LBB69_1582>
    d5dc:	c00004b7          	lui	s1,0xc0000

000000000000d5e0 <.LBB69_1582>:
    d5e0:	86943c23          	sd	s1,-1928(s0)
    d5e4:	007f9f93          	slli	t6,t6,0x7
    d5e8:	ed843583          	ld	a1,-296(s0)
    d5ec:	00bd05b3          	add	a1,s10,a1
    d5f0:	000f8d13          	mv	s10,t6
    d5f4:	01f585b3          	add	a1,a1,t6
    d5f8:	416e8fbb          	subw	t6,t4,s6
    d5fc:	41f585bb          	subw	a1,a1,t6
    d600:	40000fb7          	lui	t6,0x40000
    d604:	cf843483          	ld	s1,-776(s0)
    d608:	84b43c23          	sd	a1,-1960(s0)
    d60c:	0005d463          	bgez	a1,d614 <.LBB69_1584>
    d610:	c0000fb7          	lui	t6,0xc0000

000000000000d614 <.LBB69_1584>:
    d614:	85f43823          	sd	t6,-1968(s0)
    d618:	00739393          	slli	t2,t2,0x7
    d61c:	ee043583          	ld	a1,-288(s0)
    d620:	00ba05b3          	add	a1,s4,a1
    d624:	00038a13          	mv	s4,t2
    d628:	007585b3          	add	a1,a1,t2
    d62c:	416e83bb          	subw	t2,t4,s6
    d630:	407585bb          	subw	a1,a1,t2
    d634:	400003b7          	lui	t2,0x40000
    d638:	cd043f83          	ld	t6,-816(s0)
    d63c:	82b43823          	sd	a1,-2000(s0)
    d640:	0005d463          	bgez	a1,d648 <.LBB69_1586>
    d644:	c00003b7          	lui	t2,0xc0000

000000000000d648 <.LBB69_1586>:
    d648:	82743423          	sd	t2,-2008(s0)
    d64c:	00769593          	slli	a1,a3,0x7
    d650:	ee843683          	ld	a3,-280(s0)
    d654:	ba843383          	ld	t2,-1112(s0)
    d658:	00d386b3          	add	a3,t2,a3
    d65c:	00b686b3          	add	a3,a3,a1
    d660:	416e83bb          	subw	t2,t4,s6
    d664:	407686bb          	subw	a3,a3,t2
    d668:	400003b7          	lui	t2,0x40000
    d66c:	80d43423          	sd	a3,-2040(s0)
    d670:	0006d463          	bgez	a3,d678 <.LBB69_1588>
    d674:	c00003b7          	lui	t2,0xc0000

000000000000d678 <.LBB69_1588>:
    d678:	80743023          	sd	t2,-2048(s0)
    d67c:	00729293          	slli	t0,t0,0x7
    d680:	ef043683          	ld	a3,-272(s0)
    d684:	bb043383          	ld	t2,-1104(s0)
    d688:	00d386b3          	add	a3,t2,a3
    d68c:	005686b3          	add	a3,a3,t0
    d690:	416e83bb          	subw	t2,t4,s6
    d694:	407686bb          	subw	a3,a3,t2
    d698:	400003b7          	lui	t2,0x40000
    d69c:	00001337          	lui	t1,0x1
    d6a0:	40640333          	sub	t1,s0,t1
    d6a4:	7ed33023          	sd	a3,2016(t1) # 17e0 <.LBB69_5+0x3c4>
    d6a8:	0006d463          	bgez	a3,d6b0 <.LBB69_1590>
    d6ac:	c00003b7          	lui	t2,0xc0000

000000000000d6b0 <.LBB69_1590>:
    d6b0:	000016b7          	lui	a3,0x1
    d6b4:	40d406b3          	sub	a3,s0,a3
    d6b8:	7c76bc23          	sd	t2,2008(a3) # 17d8 <.LBB69_5+0x3bc>
    d6bc:	00789893          	slli	a7,a7,0x7
    d6c0:	ef843683          	ld	a3,-264(s0)
    d6c4:	bb843383          	ld	t2,-1096(s0)
    d6c8:	00d386b3          	add	a3,t2,a3
    d6cc:	011686b3          	add	a3,a3,a7
    d6d0:	416e83bb          	subw	t2,t4,s6
    d6d4:	407686bb          	subw	a3,a3,t2
    d6d8:	400003b7          	lui	t2,0x40000
    d6dc:	00001337          	lui	t1,0x1
    d6e0:	40640333          	sub	t1,s0,t1
    d6e4:	7ad33823          	sd	a3,1968(t1) # 17b0 <.LBB69_5+0x394>
    d6e8:	0006d463          	bgez	a3,d6f0 <.LBB69_1592>
    d6ec:	c00003b7          	lui	t2,0xc0000

000000000000d6f0 <.LBB69_1592>:
    d6f0:	000016b7          	lui	a3,0x1
    d6f4:	40d406b3          	sub	a3,s0,a3
    d6f8:	7a76b423          	sd	t2,1960(a3) # 17a8 <.LBB69_5+0x38c>
    d6fc:	00761613          	slli	a2,a2,0x7
    d700:	f0043683          	ld	a3,-256(s0)
    d704:	bc043383          	ld	t2,-1088(s0)
    d708:	00d386b3          	add	a3,t2,a3
    d70c:	00c686b3          	add	a3,a3,a2
    d710:	416e83bb          	subw	t2,t4,s6
    d714:	407686bb          	subw	a3,a3,t2
    d718:	400003b7          	lui	t2,0x40000
    d71c:	00001337          	lui	t1,0x1
    d720:	40640333          	sub	t1,s0,t1
    d724:	76d33c23          	sd	a3,1912(t1) # 1778 <.LBB69_5+0x35c>
    d728:	0006d463          	bgez	a3,d730 <.LBB69_1594>
    d72c:	c00003b7          	lui	t2,0xc0000

000000000000d730 <.LBB69_1594>:
    d730:	000016b7          	lui	a3,0x1
    d734:	40d406b3          	sub	a3,s0,a3
    d738:	7676b823          	sd	t2,1904(a3) # 1770 <.LBB69_5+0x354>
    d73c:	00709093          	slli	ra,ra,0x7
    d740:	f0843683          	ld	a3,-248(s0)
    d744:	bc843383          	ld	t2,-1080(s0)
    d748:	00d386b3          	add	a3,t2,a3
    d74c:	001686b3          	add	a3,a3,ra
    d750:	416e83bb          	subw	t2,t4,s6
    d754:	407686bb          	subw	a3,a3,t2
    d758:	400003b7          	lui	t2,0x40000
    d75c:	00001337          	lui	t1,0x1
    d760:	40640333          	sub	t1,s0,t1
    d764:	74d33023          	sd	a3,1856(t1) # 1740 <.LBB69_5+0x324>
    d768:	0006d463          	bgez	a3,d770 <.LBB69_1596>
    d76c:	c00003b7          	lui	t2,0xc0000

000000000000d770 <.LBB69_1596>:
    d770:	000016b7          	lui	a3,0x1
    d774:	40d406b3          	sub	a3,s0,a3
    d778:	7276bc23          	sd	t2,1848(a3) # 1738 <.LBB69_5+0x31c>
    d77c:	007f1f13          	slli	t5,t5,0x7
    d780:	f1043683          	ld	a3,-240(s0)
    d784:	bd043383          	ld	t2,-1072(s0)
    d788:	00d386b3          	add	a3,t2,a3
    d78c:	01e686b3          	add	a3,a3,t5
    d790:	416e83bb          	subw	t2,t4,s6
    d794:	407686bb          	subw	a3,a3,t2
    d798:	400003b7          	lui	t2,0x40000
    d79c:	00001337          	lui	t1,0x1
    d7a0:	40640333          	sub	t1,s0,t1
    d7a4:	70d33823          	sd	a3,1808(t1) # 1710 <.LBB69_5+0x2f4>
    d7a8:	0006d463          	bgez	a3,d7b0 <.LBB69_1598>
    d7ac:	c00003b7          	lui	t2,0xc0000

000000000000d7b0 <.LBB69_1598>:
    d7b0:	000016b7          	lui	a3,0x1
    d7b4:	40d406b3          	sub	a3,s0,a3
    d7b8:	7076b423          	sd	t2,1800(a3) # 1708 <.LBB69_5+0x2ec>
    d7bc:	00779793          	slli	a5,a5,0x7
    d7c0:	f1843683          	ld	a3,-232(s0)
    d7c4:	bd843383          	ld	t2,-1064(s0)
    d7c8:	00d386b3          	add	a3,t2,a3
    d7cc:	00f686b3          	add	a3,a3,a5
    d7d0:	416e83bb          	subw	t2,t4,s6
    d7d4:	407686bb          	subw	a3,a3,t2
    d7d8:	400003b7          	lui	t2,0x40000
    d7dc:	00001337          	lui	t1,0x1
    d7e0:	40640333          	sub	t1,s0,t1
    d7e4:	6ed33023          	sd	a3,1760(t1) # 16e0 <.LBB69_5+0x2c4>
    d7e8:	0006d463          	bgez	a3,d7f0 <.LBB69_1600>
    d7ec:	c00003b7          	lui	t2,0xc0000

000000000000d7f0 <.LBB69_1600>:
    d7f0:	000016b7          	lui	a3,0x1
    d7f4:	40d406b3          	sub	a3,s0,a3
    d7f8:	6c76bc23          	sd	t2,1752(a3) # 16d8 <.LBB69_5+0x2bc>
    d7fc:	00781813          	slli	a6,a6,0x7
    d800:	f2043683          	ld	a3,-224(s0)
    d804:	be043383          	ld	t2,-1056(s0)
    d808:	00d386b3          	add	a3,t2,a3
    d80c:	010686b3          	add	a3,a3,a6
    d810:	416e83bb          	subw	t2,t4,s6
    d814:	407686bb          	subw	a3,a3,t2
    d818:	400003b7          	lui	t2,0x40000
    d81c:	00001337          	lui	t1,0x1
    d820:	40640333          	sub	t1,s0,t1
    d824:	6ad33823          	sd	a3,1712(t1) # 16b0 <.LBB69_5+0x294>
    d828:	0006d463          	bgez	a3,d830 <.LBB69_1602>
    d82c:	c00003b7          	lui	t2,0xc0000

000000000000d830 <.LBB69_1602>:
    d830:	000016b7          	lui	a3,0x1
    d834:	40d406b3          	sub	a3,s0,a3
    d838:	6a76b423          	sd	t2,1704(a3) # 16a8 <.LBB69_5+0x28c>
    d83c:	00751513          	slli	a0,a0,0x7
    d840:	f2843683          	ld	a3,-216(s0)
    d844:	be843383          	ld	t2,-1048(s0)
    d848:	00d386b3          	add	a3,t2,a3
    d84c:	00a686b3          	add	a3,a3,a0
    d850:	416e83bb          	subw	t2,t4,s6
    d854:	407686bb          	subw	a3,a3,t2
    d858:	400003b7          	lui	t2,0x40000
    d85c:	00001337          	lui	t1,0x1
    d860:	40640333          	sub	t1,s0,t1
    d864:	68d33c23          	sd	a3,1688(t1) # 1698 <.LBB69_5+0x27c>
    d868:	0006d463          	bgez	a3,d870 <.LBB69_1604>
    d86c:	c00003b7          	lui	t2,0xc0000

000000000000d870 <.LBB69_1604>:
    d870:	000016b7          	lui	a3,0x1
    d874:	40d406b3          	sub	a3,s0,a3
    d878:	6876b823          	sd	t2,1680(a3) # 1690 <.LBB69_5+0x274>
    d87c:	007d9d93          	slli	s11,s11,0x7
    d880:	f3043683          	ld	a3,-208(s0)
    d884:	b0043383          	ld	t2,-1280(s0)
    d888:	00d386b3          	add	a3,t2,a3
    d88c:	01b686b3          	add	a3,a3,s11
    d890:	416e83bb          	subw	t2,t4,s6
    d894:	407686bb          	subw	a3,a3,t2
    d898:	400003b7          	lui	t2,0x40000
    d89c:	00001337          	lui	t1,0x1
    d8a0:	40640333          	sub	t1,s0,t1
    d8a4:	66d33c23          	sd	a3,1656(t1) # 1678 <.LBB69_5+0x25c>
    d8a8:	0006d463          	bgez	a3,d8b0 <.LBB69_1606>
    d8ac:	c00003b7          	lui	t2,0xc0000

000000000000d8b0 <.LBB69_1606>:
    d8b0:	000016b7          	lui	a3,0x1
    d8b4:	40d406b3          	sub	a3,s0,a3
    d8b8:	6676b823          	sd	t2,1648(a3) # 1670 <.LBB69_5+0x254>
    d8bc:	00771713          	slli	a4,a4,0x7
    d8c0:	f3843683          	ld	a3,-200(s0)
    d8c4:	bf043383          	ld	t2,-1040(s0)
    d8c8:	00d386b3          	add	a3,t2,a3
    d8cc:	00e686b3          	add	a3,a3,a4
    d8d0:	416e83bb          	subw	t2,t4,s6
    d8d4:	407686bb          	subw	a3,a3,t2
    d8d8:	400003b7          	lui	t2,0x40000
    d8dc:	00001337          	lui	t1,0x1
    d8e0:	40640333          	sub	t1,s0,t1
    d8e4:	64d33c23          	sd	a3,1624(t1) # 1658 <.LBB69_5+0x23c>
    d8e8:	0006d463          	bgez	a3,d8f0 <.LBB69_1608>
    d8ec:	c00003b7          	lui	t2,0xc0000

000000000000d8f0 <.LBB69_1608>:
    d8f0:	000016b7          	lui	a3,0x1
    d8f4:	40d406b3          	sub	a3,s0,a3
    d8f8:	6476b823          	sd	t2,1616(a3) # 1650 <.LBB69_5+0x234>
    d8fc:	9d843303          	ld	t1,-1576(s0)
    d900:	00731313          	slli	t1,t1,0x7
    d904:	f4043683          	ld	a3,-192(s0)
    d908:	bf843383          	ld	t2,-1032(s0)
    d90c:	00d386b3          	add	a3,t2,a3
    d910:	006686b3          	add	a3,a3,t1
    d914:	416e83bb          	subw	t2,t4,s6
    d918:	407683bb          	subw	t2,a3,t2
    d91c:	400006b7          	lui	a3,0x40000
    d920:	0003d463          	bgez	t2,d928 <.LBB69_1610>
    d924:	c00006b7          	lui	a3,0xc0000

000000000000d928 <.LBB69_1610>:
    d928:	00001eb7          	lui	t4,0x1
    d92c:	41d40eb3          	sub	t4,s0,t4
    d930:	60deb023          	sd	a3,1536(t4) # 1600 <.LBB69_5+0x1e4>
    d934:	c0043683          	ld	a3,-1024(s0)
    d938:	af843e83          	ld	t4,-1288(s0)
    d93c:	01d686b3          	add	a3,a3,t4
    d940:	af043e83          	ld	t4,-1296(s0)
    d944:	01d686b3          	add	a3,a3,t4
    d948:	416e0ebb          	subw	t4,t3,s6
    d94c:	41d686bb          	subw	a3,a3,t4
    d950:	40000eb7          	lui	t4,0x40000
    d954:	c0d43023          	sd	a3,-1024(s0)
    d958:	0006d463          	bgez	a3,d960 <.LBB69_1612>
    d95c:	c0000eb7          	lui	t4,0xc0000

000000000000d960 <.LBB69_1612>:
    d960:	bfd43c23          	sd	t4,-1032(s0)
    d964:	c0843683          	ld	a3,-1016(s0)
    d968:	ae843e83          	ld	t4,-1304(s0)
    d96c:	01d686b3          	add	a3,a3,t4
    d970:	ae043e83          	ld	t4,-1312(s0)
    d974:	01d686b3          	add	a3,a3,t4
    d978:	416e0ebb          	subw	t4,t3,s6
    d97c:	41d686bb          	subw	a3,a3,t4
    d980:	40000eb7          	lui	t4,0x40000
    d984:	c0d43423          	sd	a3,-1016(s0)
    d988:	0006d463          	bgez	a3,d990 <.LBB69_1614>
    d98c:	c0000eb7          	lui	t4,0xc0000

000000000000d990 <.LBB69_1614>:
    d990:	bfd43823          	sd	t4,-1040(s0)
    d994:	c1043683          	ld	a3,-1008(s0)
    d998:	ad843e83          	ld	t4,-1320(s0)
    d99c:	01d686b3          	add	a3,a3,t4
    d9a0:	ad043e83          	ld	t4,-1328(s0)
    d9a4:	01d686b3          	add	a3,a3,t4
    d9a8:	416e0ebb          	subw	t4,t3,s6
    d9ac:	41d686bb          	subw	a3,a3,t4
    d9b0:	40000eb7          	lui	t4,0x40000
    d9b4:	c0d43823          	sd	a3,-1008(s0)
    d9b8:	0006d463          	bgez	a3,d9c0 <.LBB69_1616>
    d9bc:	c0000eb7          	lui	t4,0xc0000

000000000000d9c0 <.LBB69_1616>:
    d9c0:	bfd43423          	sd	t4,-1048(s0)
    d9c4:	c1843683          	ld	a3,-1000(s0)
    d9c8:	ac843e83          	ld	t4,-1336(s0)
    d9cc:	01d686b3          	add	a3,a3,t4
    d9d0:	ac043e83          	ld	t4,-1344(s0)
    d9d4:	01d686b3          	add	a3,a3,t4
    d9d8:	416e0ebb          	subw	t4,t3,s6
    d9dc:	41d686bb          	subw	a3,a3,t4
    d9e0:	40000eb7          	lui	t4,0x40000
    d9e4:	bed43023          	sd	a3,-1056(s0)
    d9e8:	0006d463          	bgez	a3,d9f0 <.LBB69_1618>
    d9ec:	c0000eb7          	lui	t4,0xc0000

000000000000d9f0 <.LBB69_1618>:
    d9f0:	bdd43823          	sd	t4,-1072(s0)
    d9f4:	c2043683          	ld	a3,-992(s0)
    d9f8:	ab843e83          	ld	t4,-1352(s0)
    d9fc:	01d686b3          	add	a3,a3,t4
    da00:	ab043e83          	ld	t4,-1360(s0)
    da04:	01d686b3          	add	a3,a3,t4
    da08:	416e0ebb          	subw	t4,t3,s6
    da0c:	41d686bb          	subw	a3,a3,t4
    da10:	40000eb7          	lui	t4,0x40000
    da14:	bcd43023          	sd	a3,-1088(s0)
    da18:	0006d463          	bgez	a3,da20 <.LBB69_1620>
    da1c:	c0000eb7          	lui	t4,0xc0000

000000000000da20 <.LBB69_1620>:
    da20:	bbd43823          	sd	t4,-1104(s0)
    da24:	c2843683          	ld	a3,-984(s0)
    da28:	aa843e83          	ld	t4,-1368(s0)
    da2c:	01d686b3          	add	a3,a3,t4
    da30:	b2043e83          	ld	t4,-1248(s0)
    da34:	01d686b3          	add	a3,a3,t4
    da38:	416e0ebb          	subw	t4,t3,s6
    da3c:	41d686bb          	subw	a3,a3,t4
    da40:	40000eb7          	lui	t4,0x40000
    da44:	bad43023          	sd	a3,-1120(s0)
    da48:	0006d463          	bgez	a3,da50 <.LBB69_1622>
    da4c:	c0000eb7          	lui	t4,0xc0000

000000000000da50 <.LBB69_1622>:
    da50:	b9d43823          	sd	t4,-1136(s0)
    da54:	c3043683          	ld	a3,-976(s0)
    da58:	aa043e83          	ld	t4,-1376(s0)
    da5c:	01d686b3          	add	a3,a3,t4
    da60:	b1843e83          	ld	t4,-1256(s0)
    da64:	01d686b3          	add	a3,a3,t4
    da68:	416e0ebb          	subw	t4,t3,s6
    da6c:	41d686bb          	subw	a3,a3,t4
    da70:	40000eb7          	lui	t4,0x40000
    da74:	b8d43023          	sd	a3,-1152(s0)
    da78:	0006d463          	bgez	a3,da80 <.LBB69_1624>
    da7c:	c0000eb7          	lui	t4,0xc0000

000000000000da80 <.LBB69_1624>:
    da80:	b1d43023          	sd	t4,-1280(s0)
    da84:	c3843683          	ld	a3,-968(s0)
    da88:	a9843e83          	ld	t4,-1384(s0)
    da8c:	01d686b3          	add	a3,a3,t4
    da90:	b1043e83          	ld	t4,-1264(s0)
    da94:	01d686b3          	add	a3,a3,t4
    da98:	416e0ebb          	subw	t4,t3,s6
    da9c:	41d686bb          	subw	a3,a3,t4
    daa0:	40000eb7          	lui	t4,0x40000
    daa4:	9cd43c23          	sd	a3,-1576(s0)
    daa8:	0006d463          	bgez	a3,dab0 <.LBB69_1626>
    daac:	c0000eb7          	lui	t4,0xc0000

000000000000dab0 <.LBB69_1626>:
    dab0:	9dd43823          	sd	t4,-1584(s0)
    dab4:	c4043683          	ld	a3,-960(s0)
    dab8:	a9043e83          	ld	t4,-1392(s0)
    dabc:	01d686b3          	add	a3,a3,t4
    dac0:	b0843e83          	ld	t4,-1272(s0)
    dac4:	01d686b3          	add	a3,a3,t4
    dac8:	416e0ebb          	subw	t4,t3,s6
    dacc:	41d686bb          	subw	a3,a3,t4
    dad0:	40000eb7          	lui	t4,0x40000
    dad4:	9ad43c23          	sd	a3,-1608(s0)
    dad8:	0006d463          	bgez	a3,dae0 <.LBB69_1628>
    dadc:	c0000eb7          	lui	t4,0xc0000

000000000000dae0 <.LBB69_1628>:
    dae0:	9bd43823          	sd	t4,-1616(s0)
    dae4:	c4843683          	ld	a3,-952(s0)
    dae8:	a8043e83          	ld	t4,-1408(s0)
    daec:	01d686b3          	add	a3,a3,t4
    daf0:	b5043e83          	ld	t4,-1200(s0)
    daf4:	01d686b3          	add	a3,a3,t4
    daf8:	416e0ebb          	subw	t4,t3,s6
    dafc:	41d686bb          	subw	a3,a3,t4
    db00:	40000eb7          	lui	t4,0x40000
    db04:	9ad43023          	sd	a3,-1632(s0)
    db08:	0006d463          	bgez	a3,db10 <.LBB69_1630>
    db0c:	c0000eb7          	lui	t4,0xc0000

000000000000db10 <.LBB69_1630>:
    db10:	99d43823          	sd	t4,-1648(s0)
    db14:	c5043683          	ld	a3,-944(s0)
    db18:	b2843e83          	ld	t4,-1240(s0)
    db1c:	01d686b3          	add	a3,a3,t4
    db20:	b5843e83          	ld	t4,-1192(s0)
    db24:	01d686b3          	add	a3,a3,t4
    db28:	416e0ebb          	subw	t4,t3,s6
    db2c:	41d686bb          	subw	a3,a3,t4
    db30:	40000eb7          	lui	t4,0x40000
    db34:	98d43023          	sd	a3,-1664(s0)
    db38:	0006d463          	bgez	a3,db40 <.LBB69_1632>
    db3c:	c0000eb7          	lui	t4,0xc0000

000000000000db40 <.LBB69_1632>:
    db40:	97d43823          	sd	t4,-1680(s0)
    db44:	c5843683          	ld	a3,-936(s0)
    db48:	b3043e83          	ld	t4,-1232(s0)
    db4c:	01d686b3          	add	a3,a3,t4
    db50:	b6043e83          	ld	t4,-1184(s0)
    db54:	01d686b3          	add	a3,a3,t4
    db58:	416e0ebb          	subw	t4,t3,s6
    db5c:	41d686bb          	subw	a3,a3,t4
    db60:	40000eb7          	lui	t4,0x40000
    db64:	96d43023          	sd	a3,-1696(s0)
    db68:	0006d463          	bgez	a3,db70 <.LBB69_1634>
    db6c:	c0000eb7          	lui	t4,0xc0000

000000000000db70 <.LBB69_1634>:
    db70:	95d43823          	sd	t4,-1712(s0)
    db74:	c6043683          	ld	a3,-928(s0)
    db78:	b3843e83          	ld	t4,-1224(s0)
    db7c:	01d686b3          	add	a3,a3,t4
    db80:	b6843e83          	ld	t4,-1176(s0)
    db84:	01d686b3          	add	a3,a3,t4
    db88:	416e0ebb          	subw	t4,t3,s6
    db8c:	41d686bb          	subw	a3,a3,t4
    db90:	40000eb7          	lui	t4,0x40000
    db94:	92d43c23          	sd	a3,-1736(s0)
    db98:	0006d463          	bgez	a3,dba0 <.LBB69_1636>
    db9c:	c0000eb7          	lui	t4,0xc0000

000000000000dba0 <.LBB69_1636>:
    dba0:	93d43823          	sd	t4,-1744(s0)
    dba4:	c6843683          	ld	a3,-920(s0)
    dba8:	b4043e83          	ld	t4,-1216(s0)
    dbac:	01d686b3          	add	a3,a3,t4
    dbb0:	b7043e83          	ld	t4,-1168(s0)
    dbb4:	01d686b3          	add	a3,a3,t4
    dbb8:	416e0ebb          	subw	t4,t3,s6
    dbbc:	41d686bb          	subw	a3,a3,t4
    dbc0:	40000eb7          	lui	t4,0x40000
    dbc4:	90d43823          	sd	a3,-1776(s0)
    dbc8:	0006d463          	bgez	a3,dbd0 <.LBB69_1638>
    dbcc:	c0000eb7          	lui	t4,0xc0000

000000000000dbd0 <.LBB69_1638>:
    dbd0:	91d43423          	sd	t4,-1784(s0)
    dbd4:	c7043683          	ld	a3,-912(s0)
    dbd8:	b4843e83          	ld	t4,-1208(s0)
    dbdc:	01d686b3          	add	a3,a3,t4
    dbe0:	019686b3          	add	a3,a3,s9
    dbe4:	416e0ebb          	subw	t4,t3,s6
    dbe8:	41d686bb          	subw	a3,a3,t4
    dbec:	40000eb7          	lui	t4,0x40000
    dbf0:	8ed43423          	sd	a3,-1816(s0)
    dbf4:	0006d463          	bgez	a3,dbfc <.LBB69_1640>
    dbf8:	c0000eb7          	lui	t4,0xc0000

000000000000dbfc <.LBB69_1640>:
    dbfc:	8fd43023          	sd	t4,-1824(s0)
    dc00:	c7843683          	ld	a3,-904(s0)
    dc04:	ec043e83          	ld	t4,-320(s0)
    dc08:	01d686b3          	add	a3,a3,t4
    dc0c:	018686b3          	add	a3,a3,s8
    dc10:	416e0ebb          	subw	t4,t3,s6
    dc14:	41d686bb          	subw	a3,a3,t4
    dc18:	40000eb7          	lui	t4,0x40000
    dc1c:	8cd43023          	sd	a3,-1856(s0)
    dc20:	0006d463          	bgez	a3,dc28 <.LBB69_1642>
    dc24:	c0000eb7          	lui	t4,0xc0000

000000000000dc28 <.LBB69_1642>:
    dc28:	8bd43c23          	sd	t4,-1864(s0)
    dc2c:	c8043683          	ld	a3,-896(s0)
    dc30:	ec843e83          	ld	t4,-312(s0)
    dc34:	01d686b3          	add	a3,a3,t4
    dc38:	017686b3          	add	a3,a3,s7
    dc3c:	416e0ebb          	subw	t4,t3,s6
    dc40:	41d686bb          	subw	a3,a3,t4
    dc44:	40000eb7          	lui	t4,0x40000
    dc48:	88d43c23          	sd	a3,-1896(s0)
    dc4c:	0006d463          	bgez	a3,dc54 <.LBB69_1644>
    dc50:	c0000eb7          	lui	t4,0xc0000

000000000000dc54 <.LBB69_1644>:
    dc54:	89d43823          	sd	t4,-1904(s0)
    dc58:	c8843683          	ld	a3,-888(s0)
    dc5c:	ed043e83          	ld	t4,-304(s0)
    dc60:	01d686b3          	add	a3,a3,t4
    dc64:	012686b3          	add	a3,a3,s2
    dc68:	416e0ebb          	subw	t4,t3,s6
    dc6c:	41d686bb          	subw	a3,a3,t4
    dc70:	40000eb7          	lui	t4,0x40000
    dc74:	86d43823          	sd	a3,-1936(s0)
    dc78:	0006d463          	bgez	a3,dc80 <.LBB69_1646>
    dc7c:	c0000eb7          	lui	t4,0xc0000

000000000000dc80 <.LBB69_1646>:
    dc80:	87d43423          	sd	t4,-1944(s0)
    dc84:	c9043683          	ld	a3,-880(s0)
    dc88:	ed843e83          	ld	t4,-296(s0)
    dc8c:	01d686b3          	add	a3,a3,t4
    dc90:	01a686b3          	add	a3,a3,s10
    dc94:	416e0ebb          	subw	t4,t3,s6
    dc98:	41d686bb          	subw	a3,a3,t4
    dc9c:	40000eb7          	lui	t4,0x40000
    dca0:	84d43423          	sd	a3,-1976(s0)
    dca4:	0006d463          	bgez	a3,dcac <.LBB69_1648>
    dca8:	c0000eb7          	lui	t4,0xc0000

000000000000dcac <.LBB69_1648>:
    dcac:	85d43023          	sd	t4,-1984(s0)
    dcb0:	c9843683          	ld	a3,-872(s0)
    dcb4:	ee043e83          	ld	t4,-288(s0)
    dcb8:	01d686b3          	add	a3,a3,t4
    dcbc:	014686b3          	add	a3,a3,s4
    dcc0:	416e0ebb          	subw	t4,t3,s6
    dcc4:	41d686bb          	subw	a3,a3,t4
    dcc8:	40000eb7          	lui	t4,0x40000
    dccc:	82d43023          	sd	a3,-2016(s0)
    dcd0:	0006d463          	bgez	a3,dcd8 <.LBB69_1650>
    dcd4:	c0000eb7          	lui	t4,0xc0000

000000000000dcd8 <.LBB69_1650>:
    dcd8:	81d43c23          	sd	t4,-2024(s0)
    dcdc:	ca043683          	ld	a3,-864(s0)
    dce0:	ee843e83          	ld	t4,-280(s0)
    dce4:	01d686b3          	add	a3,a3,t4
    dce8:	00b686b3          	add	a3,a3,a1
    dcec:	416e0ebb          	subw	t4,t3,s6
    dcf0:	41d686bb          	subw	a3,a3,t4
    dcf4:	40000eb7          	lui	t4,0x40000
    dcf8:	f8a43823          	sd	a0,-112(s0)
    dcfc:	00001537          	lui	a0,0x1
    dd00:	40a40533          	sub	a0,s0,a0
    dd04:	7ed53c23          	sd	a3,2040(a0) # 17f8 <.LBB69_5+0x3dc>
    dd08:	f9043503          	ld	a0,-112(s0)
    dd0c:	0006d463          	bgez	a3,dd14 <.LBB69_1652>
    dd10:	c0000eb7          	lui	t4,0xc0000

000000000000dd14 <.LBB69_1652>:
    dd14:	f8a43823          	sd	a0,-112(s0)
    dd18:	00001537          	lui	a0,0x1
    dd1c:	40a40533          	sub	a0,s0,a0
    dd20:	7fd53823          	sd	t4,2032(a0) # 17f0 <.LBB69_5+0x3d4>
    dd24:	ca843683          	ld	a3,-856(s0)
    dd28:	ef043e83          	ld	t4,-272(s0)
    dd2c:	01d686b3          	add	a3,a3,t4
    dd30:	005686b3          	add	a3,a3,t0
    dd34:	416e0ebb          	subw	t4,t3,s6
    dd38:	41d686bb          	subw	a3,a3,t4
    dd3c:	40000eb7          	lui	t4,0x40000
    dd40:	00001537          	lui	a0,0x1
    dd44:	40a40533          	sub	a0,s0,a0
    dd48:	7cd53823          	sd	a3,2000(a0) # 17d0 <.LBB69_5+0x3b4>
    dd4c:	f9043503          	ld	a0,-112(s0)
    dd50:	0006d463          	bgez	a3,dd58 <.LBB69_1654>
    dd54:	c0000eb7          	lui	t4,0xc0000

000000000000dd58 <.LBB69_1654>:
    dd58:	f8a43823          	sd	a0,-112(s0)
    dd5c:	00001537          	lui	a0,0x1
    dd60:	40a40533          	sub	a0,s0,a0
    dd64:	7dd53423          	sd	t4,1992(a0) # 17c8 <.LBB69_5+0x3ac>
    dd68:	cb043683          	ld	a3,-848(s0)
    dd6c:	ef843e83          	ld	t4,-264(s0)
    dd70:	01d686b3          	add	a3,a3,t4
    dd74:	011686b3          	add	a3,a3,a7
    dd78:	416e0ebb          	subw	t4,t3,s6
    dd7c:	41d686bb          	subw	a3,a3,t4
    dd80:	40000eb7          	lui	t4,0x40000
    dd84:	00001537          	lui	a0,0x1
    dd88:	40a40533          	sub	a0,s0,a0
    dd8c:	7ad53023          	sd	a3,1952(a0) # 17a0 <.LBB69_5+0x384>
    dd90:	f9043503          	ld	a0,-112(s0)
    dd94:	0006d463          	bgez	a3,dd9c <.LBB69_1656>
    dd98:	c0000eb7          	lui	t4,0xc0000

000000000000dd9c <.LBB69_1656>:
    dd9c:	f8a43823          	sd	a0,-112(s0)
    dda0:	00001537          	lui	a0,0x1
    dda4:	40a40533          	sub	a0,s0,a0
    dda8:	79d53823          	sd	t4,1936(a0) # 1790 <.LBB69_5+0x374>
    ddac:	cb843683          	ld	a3,-840(s0)
    ddb0:	f0043e83          	ld	t4,-256(s0)
    ddb4:	01d686b3          	add	a3,a3,t4
    ddb8:	00c686b3          	add	a3,a3,a2
    ddbc:	416e0ebb          	subw	t4,t3,s6
    ddc0:	41d686bb          	subw	a3,a3,t4
    ddc4:	40000eb7          	lui	t4,0x40000
    ddc8:	00001537          	lui	a0,0x1
    ddcc:	40a40533          	sub	a0,s0,a0
    ddd0:	76d53423          	sd	a3,1896(a0) # 1768 <.LBB69_5+0x34c>
    ddd4:	f9043503          	ld	a0,-112(s0)
    ddd8:	0006d463          	bgez	a3,dde0 <.LBB69_1658>
    dddc:	c0000eb7          	lui	t4,0xc0000

000000000000dde0 <.LBB69_1658>:
    dde0:	f8a43823          	sd	a0,-112(s0)
    dde4:	00001537          	lui	a0,0x1
    dde8:	40a40533          	sub	a0,s0,a0
    ddec:	75d53c23          	sd	t4,1880(a0) # 1758 <.LBB69_5+0x33c>
    ddf0:	cc043683          	ld	a3,-832(s0)
    ddf4:	f0843e83          	ld	t4,-248(s0)
    ddf8:	01d686b3          	add	a3,a3,t4
    ddfc:	001686b3          	add	a3,a3,ra
    de00:	416e0ebb          	subw	t4,t3,s6
    de04:	41d686bb          	subw	a3,a3,t4
    de08:	40000eb7          	lui	t4,0x40000
    de0c:	00001537          	lui	a0,0x1
    de10:	40a40533          	sub	a0,s0,a0
    de14:	72d53823          	sd	a3,1840(a0) # 1730 <.LBB69_5+0x314>
    de18:	f9043503          	ld	a0,-112(s0)
    de1c:	0006d463          	bgez	a3,de24 <.LBB69_1660>
    de20:	c0000eb7          	lui	t4,0xc0000

000000000000de24 <.LBB69_1660>:
    de24:	f8a43823          	sd	a0,-112(s0)
    de28:	00001537          	lui	a0,0x1
    de2c:	40a40533          	sub	a0,s0,a0
    de30:	73d53423          	sd	t4,1832(a0) # 1728 <.LBB69_5+0x30c>
    de34:	cc843683          	ld	a3,-824(s0)
    de38:	f1043e83          	ld	t4,-240(s0)
    de3c:	01d686b3          	add	a3,a3,t4
    de40:	01e686b3          	add	a3,a3,t5
    de44:	416e0ebb          	subw	t4,t3,s6
    de48:	41d686bb          	subw	a3,a3,t4
    de4c:	40000eb7          	lui	t4,0x40000
    de50:	00001537          	lui	a0,0x1
    de54:	40a40533          	sub	a0,s0,a0
    de58:	70d53023          	sd	a3,1792(a0) # 1700 <.LBB69_5+0x2e4>
    de5c:	f9043503          	ld	a0,-112(s0)
    de60:	0006d463          	bgez	a3,de68 <.LBB69_1662>
    de64:	c0000eb7          	lui	t4,0xc0000

000000000000de68 <.LBB69_1662>:
    de68:	000016b7          	lui	a3,0x1
    de6c:	40d406b3          	sub	a3,s0,a3
    de70:	6fd6bc23          	sd	t4,1784(a3) # 16f8 <.LBB69_5+0x2dc>
    de74:	f1843683          	ld	a3,-232(s0)
    de78:	00df86b3          	add	a3,t6,a3
    de7c:	00f686b3          	add	a3,a3,a5
    de80:	416e0ebb          	subw	t4,t3,s6
    de84:	41d686bb          	subw	a3,a3,t4
    de88:	40000eb7          	lui	t4,0x40000
    de8c:	00001fb7          	lui	t6,0x1
    de90:	41f40fb3          	sub	t6,s0,t6
    de94:	6cdfb823          	sd	a3,1744(t6) # 16d0 <.LBB69_5+0x2b4>
    de98:	0006d463          	bgez	a3,dea0 <.LBB69_1664>
    de9c:	c0000eb7          	lui	t4,0xc0000

000000000000dea0 <.LBB69_1664>:
    dea0:	000016b7          	lui	a3,0x1
    dea4:	40d406b3          	sub	a3,s0,a3
    dea8:	6dd6b423          	sd	t4,1736(a3) # 16c8 <.LBB69_5+0x2ac>
    deac:	f2043683          	ld	a3,-224(s0)
    deb0:	cd843e83          	ld	t4,-808(s0)
    deb4:	00de86b3          	add	a3,t4,a3
    deb8:	010686b3          	add	a3,a3,a6
    debc:	416e0ebb          	subw	t4,t3,s6
    dec0:	41d68ebb          	subw	t4,a3,t4
    dec4:	400006b7          	lui	a3,0x40000
    dec8:	00001fb7          	lui	t6,0x1
    decc:	41f40fb3          	sub	t6,s0,t6
    ded0:	63dfbc23          	sd	t4,1592(t6) # 1638 <.LBB69_5+0x21c>
    ded4:	00001fb7          	lui	t6,0x1
    ded8:	41f40fb3          	sub	t6,s0,t6
    dedc:	7b8fbf83          	ld	t6,1976(t6) # 17b8 <.LBB69_5+0x39c>
    dee0:	000ed463          	bgez	t4,dee8 <.LBB69_1666>
    dee4:	c00006b7          	lui	a3,0xc0000

000000000000dee8 <.LBB69_1666>:
    dee8:	00001eb7          	lui	t4,0x1
    deec:	41d40eb3          	sub	t4,s0,t4
    def0:	6adeb023          	sd	a3,1696(t4) # 16a0 <.LBB69_5+0x284>
    def4:	f2843683          	ld	a3,-216(s0)
    def8:	00d986b3          	add	a3,s3,a3
    defc:	00a686b3          	add	a3,a3,a0
    df00:	416e0ebb          	subw	t4,t3,s6
    df04:	41d68ebb          	subw	t4,a3,t4
    df08:	400006b7          	lui	a3,0x40000
    df0c:	000019b7          	lui	s3,0x1
    df10:	413409b3          	sub	s3,s0,s3
    df14:	63d9b823          	sd	t4,1584(s3) # 1630 <.LBB69_5+0x214>
    df18:	000ed463          	bgez	t4,df20 <.LBB69_1668>
    df1c:	c00006b7          	lui	a3,0xc0000

000000000000df20 <.LBB69_1668>:
    df20:	00001eb7          	lui	t4,0x1
    df24:	41d40eb3          	sub	t4,s0,t4
    df28:	68deb423          	sd	a3,1672(t4) # 1688 <.LBB69_5+0x26c>
    df2c:	f3043683          	ld	a3,-208(s0)
    df30:	ce843e83          	ld	t4,-792(s0)
    df34:	00de86b3          	add	a3,t4,a3
    df38:	01b686b3          	add	a3,a3,s11
    df3c:	416e0ebb          	subw	t4,t3,s6
    df40:	41d68ebb          	subw	t4,a3,t4
    df44:	400006b7          	lui	a3,0x40000
    df48:	000019b7          	lui	s3,0x1
    df4c:	413409b3          	sub	s3,s0,s3
    df50:	61d9b823          	sd	t4,1552(s3) # 1610 <.LBB69_5+0x1f4>
    df54:	000ed463          	bgez	t4,df5c <.LBB69_1670>
    df58:	c00006b7          	lui	a3,0xc0000

000000000000df5c <.LBB69_1670>:
    df5c:	00001eb7          	lui	t4,0x1
    df60:	41d40eb3          	sub	t4,s0,t4
    df64:	66deb423          	sd	a3,1640(t4) # 1668 <.LBB69_5+0x24c>
    df68:	f3843683          	ld	a3,-200(s0)
    df6c:	cf043e83          	ld	t4,-784(s0)
    df70:	00de86b3          	add	a3,t4,a3
    df74:	00e686b3          	add	a3,a3,a4
    df78:	416e0ebb          	subw	t4,t3,s6
    df7c:	41d689bb          	subw	s3,a3,t4
    df80:	400006b7          	lui	a3,0x40000
    df84:	0009d463          	bgez	s3,df8c <.LBB69_1672>
    df88:	c00006b7          	lui	a3,0xc0000

000000000000df8c <.LBB69_1672>:
    df8c:	00001eb7          	lui	t4,0x1
    df90:	41d40eb3          	sub	t4,s0,t4
    df94:	64deb423          	sd	a3,1608(t4) # 1648 <.LBB69_5+0x22c>
    df98:	f4043683          	ld	a3,-192(s0)
    df9c:	00d486b3          	add	a3,s1,a3
    dfa0:	006686b3          	add	a3,a3,t1
    dfa4:	416e0e3b          	subw	t3,t3,s6
    dfa8:	41c684bb          	subw	s1,a3,t3
    dfac:	400006b7          	lui	a3,0x40000
    dfb0:	de043e83          	ld	t4,-544(s0)
    dfb4:	0004d463          	bgez	s1,dfbc <.LBB69_1674>
    dfb8:	c00006b7          	lui	a3,0xc0000

000000000000dfbc <.LBB69_1674>:
    dfbc:	00001e37          	lui	t3,0x1
    dfc0:	41c40e33          	sub	t3,s0,t3
    dfc4:	60de3423          	sd	a3,1544(t3) # 1608 <.LBB69_5+0x1ec>
    dfc8:	d0043683          	ld	a3,-768(s0)
    dfcc:	af843e03          	ld	t3,-1288(s0)
    dfd0:	01c686b3          	add	a3,a3,t3
    dfd4:	af043e03          	ld	t3,-1296(s0)
    dfd8:	01c686b3          	add	a3,a3,t3
    dfdc:	416f8e3b          	subw	t3,t6,s6
    dfe0:	41c686bb          	subw	a3,a3,t3
    dfe4:	40000e37          	lui	t3,0x40000
    dfe8:	ced43423          	sd	a3,-792(s0)
    dfec:	0006d463          	bgez	a3,dff4 <.LBB69_1676>
    dff0:	c0000e37          	lui	t3,0xc0000

000000000000dff4 <.LBB69_1676>:
    dff4:	cdc43c23          	sd	t3,-808(s0)
    dff8:	d0843683          	ld	a3,-760(s0)
    dffc:	ae843e03          	ld	t3,-1304(s0)
    e000:	01c686b3          	add	a3,a3,t3
    e004:	ae043e03          	ld	t3,-1312(s0)
    e008:	01c686b3          	add	a3,a3,t3
    e00c:	416f8e3b          	subw	t3,t6,s6
    e010:	41c686bb          	subw	a3,a3,t3
    e014:	40000e37          	lui	t3,0x40000
    e018:	ccd43023          	sd	a3,-832(s0)
    e01c:	0006d463          	bgez	a3,e024 <.LBB69_1678>
    e020:	c0000e37          	lui	t3,0xc0000

000000000000e024 <.LBB69_1678>:
    e024:	cbc43423          	sd	t3,-856(s0)
    e028:	d1043683          	ld	a3,-752(s0)
    e02c:	ad843e03          	ld	t3,-1320(s0)
    e030:	01c686b3          	add	a3,a3,t3
    e034:	ad043e03          	ld	t3,-1328(s0)
    e038:	01c686b3          	add	a3,a3,t3
    e03c:	416f8e3b          	subw	t3,t6,s6
    e040:	41c686bb          	subw	a3,a3,t3
    e044:	40000e37          	lui	t3,0x40000
    e048:	c8d43c23          	sd	a3,-872(s0)
    e04c:	0006d463          	bgez	a3,e054 <.LBB69_1680>
    e050:	c0000e37          	lui	t3,0xc0000

000000000000e054 <.LBB69_1680>:
    e054:	c9c43423          	sd	t3,-888(s0)
    e058:	d1843683          	ld	a3,-744(s0)
    e05c:	ac843e03          	ld	t3,-1336(s0)
    e060:	01c686b3          	add	a3,a3,t3
    e064:	ac043e03          	ld	t3,-1344(s0)
    e068:	01c686b3          	add	a3,a3,t3
    e06c:	416f8e3b          	subw	t3,t6,s6
    e070:	41c686bb          	subw	a3,a3,t3
    e074:	40000e37          	lui	t3,0x40000
    e078:	c8d43823          	sd	a3,-880(s0)
    e07c:	0006d463          	bgez	a3,e084 <.LBB69_1682>
    e080:	c0000e37          	lui	t3,0xc0000

000000000000e084 <.LBB69_1682>:
    e084:	c9c43023          	sd	t3,-896(s0)
    e088:	d2043683          	ld	a3,-736(s0)
    e08c:	ab843e03          	ld	t3,-1352(s0)
    e090:	01c686b3          	add	a3,a3,t3
    e094:	ab043e03          	ld	t3,-1360(s0)
    e098:	01c686b3          	add	a3,a3,t3
    e09c:	416f8e3b          	subw	t3,t6,s6
    e0a0:	41c686bb          	subw	a3,a3,t3
    e0a4:	40000e37          	lui	t3,0x40000
    e0a8:	cad43023          	sd	a3,-864(s0)
    e0ac:	0006d463          	bgez	a3,e0b4 <.LBB69_1684>
    e0b0:	c0000e37          	lui	t3,0xc0000

000000000000e0b4 <.LBB69_1684>:
    e0b4:	c7c43c23          	sd	t3,-904(s0)
    e0b8:	d2843683          	ld	a3,-728(s0)
    e0bc:	aa843e03          	ld	t3,-1368(s0)
    e0c0:	01c686b3          	add	a3,a3,t3
    e0c4:	b2043e03          	ld	t3,-1248(s0)
    e0c8:	01c686b3          	add	a3,a3,t3
    e0cc:	416f8e3b          	subw	t3,t6,s6
    e0d0:	41c686bb          	subw	a3,a3,t3
    e0d4:	40000e37          	lui	t3,0x40000
    e0d8:	cad43823          	sd	a3,-848(s0)
    e0dc:	0006d463          	bgez	a3,e0e4 <.LBB69_1686>
    e0e0:	c0000e37          	lui	t3,0xc0000

000000000000e0e4 <.LBB69_1686>:
    e0e4:	c7c43823          	sd	t3,-912(s0)
    e0e8:	d3043683          	ld	a3,-720(s0)
    e0ec:	aa043e03          	ld	t3,-1376(s0)
    e0f0:	01c686b3          	add	a3,a3,t3
    e0f4:	b1843e03          	ld	t3,-1256(s0)
    e0f8:	01c686b3          	add	a3,a3,t3
    e0fc:	416f8e3b          	subw	t3,t6,s6
    e100:	41c686bb          	subw	a3,a3,t3
    e104:	40000e37          	lui	t3,0x40000
    e108:	cad43c23          	sd	a3,-840(s0)
    e10c:	0006d463          	bgez	a3,e114 <.LBB69_1688>
    e110:	c0000e37          	lui	t3,0xc0000

000000000000e114 <.LBB69_1688>:
    e114:	c7c43423          	sd	t3,-920(s0)
    e118:	d3843683          	ld	a3,-712(s0)
    e11c:	a9843e03          	ld	t3,-1384(s0)
    e120:	01c686b3          	add	a3,a3,t3
    e124:	b1043e03          	ld	t3,-1264(s0)
    e128:	01c686b3          	add	a3,a3,t3
    e12c:	416f8e3b          	subw	t3,t6,s6
    e130:	41c686bb          	subw	a3,a3,t3
    e134:	40000e37          	lui	t3,0x40000
    e138:	ccd43423          	sd	a3,-824(s0)
    e13c:	0006d463          	bgez	a3,e144 <.LBB69_1690>
    e140:	c0000e37          	lui	t3,0xc0000

000000000000e144 <.LBB69_1690>:
    e144:	c7c43023          	sd	t3,-928(s0)
    e148:	d4043683          	ld	a3,-704(s0)
    e14c:	a9043e03          	ld	t3,-1392(s0)
    e150:	01c686b3          	add	a3,a3,t3
    e154:	b0843e03          	ld	t3,-1272(s0)
    e158:	01c686b3          	add	a3,a3,t3
    e15c:	416f8e3b          	subw	t3,t6,s6
    e160:	41c686bb          	subw	a3,a3,t3
    e164:	40000e37          	lui	t3,0x40000
    e168:	ccd43823          	sd	a3,-816(s0)
    e16c:	0006d463          	bgez	a3,e174 <.LBB69_1692>
    e170:	c0000e37          	lui	t3,0xc0000

000000000000e174 <.LBB69_1692>:
    e174:	c5c43c23          	sd	t3,-936(s0)
    e178:	d4843683          	ld	a3,-696(s0)
    e17c:	a8043e03          	ld	t3,-1408(s0)
    e180:	01c686b3          	add	a3,a3,t3
    e184:	b5043e03          	ld	t3,-1200(s0)
    e188:	01c686b3          	add	a3,a3,t3
    e18c:	416f8e3b          	subw	t3,t6,s6
    e190:	41c686bb          	subw	a3,a3,t3
    e194:	40000e37          	lui	t3,0x40000
    e198:	ced43023          	sd	a3,-800(s0)
    e19c:	0006d463          	bgez	a3,e1a4 <.LBB69_1694>
    e1a0:	c0000e37          	lui	t3,0xc0000

000000000000e1a4 <.LBB69_1694>:
    e1a4:	c5c43823          	sd	t3,-944(s0)
    e1a8:	d5043683          	ld	a3,-688(s0)
    e1ac:	b2843e03          	ld	t3,-1240(s0)
    e1b0:	01c686b3          	add	a3,a3,t3
    e1b4:	b5843e03          	ld	t3,-1192(s0)
    e1b8:	01c686b3          	add	a3,a3,t3
    e1bc:	416f8e3b          	subw	t3,t6,s6
    e1c0:	41c686bb          	subw	a3,a3,t3
    e1c4:	40000e37          	lui	t3,0x40000
    e1c8:	ced43823          	sd	a3,-784(s0)
    e1cc:	0006d463          	bgez	a3,e1d4 <.LBB69_1696>
    e1d0:	c0000e37          	lui	t3,0xc0000

000000000000e1d4 <.LBB69_1696>:
    e1d4:	97c43423          	sd	t3,-1688(s0)
    e1d8:	d5843683          	ld	a3,-680(s0)
    e1dc:	b3043e03          	ld	t3,-1232(s0)
    e1e0:	01c686b3          	add	a3,a3,t3
    e1e4:	b6043e03          	ld	t3,-1184(s0)
    e1e8:	01c686b3          	add	a3,a3,t3
    e1ec:	416f8e3b          	subw	t3,t6,s6
    e1f0:	41c686bb          	subw	a3,a3,t3
    e1f4:	40000e37          	lui	t3,0x40000
    e1f8:	ced43c23          	sd	a3,-776(s0)
    e1fc:	0006d463          	bgez	a3,e204 <.LBB69_1698>
    e200:	c0000e37          	lui	t3,0xc0000

000000000000e204 <.LBB69_1698>:
    e204:	95c43423          	sd	t3,-1720(s0)
    e208:	d6043683          	ld	a3,-672(s0)
    e20c:	b3843e03          	ld	t3,-1224(s0)
    e210:	01c686b3          	add	a3,a3,t3
    e214:	b6843e03          	ld	t3,-1176(s0)
    e218:	01c686b3          	add	a3,a3,t3
    e21c:	416f8e3b          	subw	t3,t6,s6
    e220:	41c686bb          	subw	a3,a3,t3
    e224:	40000e37          	lui	t3,0x40000
    e228:	d0d43023          	sd	a3,-768(s0)
    e22c:	0006d463          	bgez	a3,e234 <.LBB69_1700>
    e230:	c0000e37          	lui	t3,0xc0000

000000000000e234 <.LBB69_1700>:
    e234:	93c43423          	sd	t3,-1752(s0)
    e238:	d6843683          	ld	a3,-664(s0)
    e23c:	b4043e03          	ld	t3,-1216(s0)
    e240:	01c686b3          	add	a3,a3,t3
    e244:	b7043e03          	ld	t3,-1168(s0)
    e248:	01c686b3          	add	a3,a3,t3
    e24c:	416f8e3b          	subw	t3,t6,s6
    e250:	41c686bb          	subw	a3,a3,t3
    e254:	40000e37          	lui	t3,0x40000
    e258:	d0d43423          	sd	a3,-760(s0)
    e25c:	0006d463          	bgez	a3,e264 <.LBB69_1702>
    e260:	c0000e37          	lui	t3,0xc0000

000000000000e264 <.LBB69_1702>:
    e264:	91c43023          	sd	t3,-1792(s0)
    e268:	d7043683          	ld	a3,-656(s0)
    e26c:	b4843e03          	ld	t3,-1208(s0)
    e270:	01c686b3          	add	a3,a3,t3
    e274:	019686b3          	add	a3,a3,s9
    e278:	416f8e3b          	subw	t3,t6,s6
    e27c:	41c686bb          	subw	a3,a3,t3
    e280:	40000e37          	lui	t3,0x40000
    e284:	d0d43823          	sd	a3,-752(s0)
    e288:	0006d463          	bgez	a3,e290 <.LBB69_1704>
    e28c:	c0000e37          	lui	t3,0xc0000

000000000000e290 <.LBB69_1704>:
    e290:	8dc43c23          	sd	t3,-1832(s0)
    e294:	d7843683          	ld	a3,-648(s0)
    e298:	ec043e03          	ld	t3,-320(s0)
    e29c:	01c686b3          	add	a3,a3,t3
    e2a0:	018686b3          	add	a3,a3,s8
    e2a4:	416f8e3b          	subw	t3,t6,s6
    e2a8:	41c686bb          	subw	a3,a3,t3
    e2ac:	40000e37          	lui	t3,0x40000
    e2b0:	d0d43c23          	sd	a3,-744(s0)
    e2b4:	0006d463          	bgez	a3,e2bc <.LBB69_1706>
    e2b8:	c0000e37          	lui	t3,0xc0000

000000000000e2bc <.LBB69_1706>:
    e2bc:	8bc43823          	sd	t3,-1872(s0)
    e2c0:	d8043683          	ld	a3,-640(s0)
    e2c4:	ec843e03          	ld	t3,-312(s0)
    e2c8:	01c686b3          	add	a3,a3,t3
    e2cc:	017686b3          	add	a3,a3,s7
    e2d0:	416f8e3b          	subw	t3,t6,s6
    e2d4:	41c686bb          	subw	a3,a3,t3
    e2d8:	40000e37          	lui	t3,0x40000
    e2dc:	d2d43023          	sd	a3,-736(s0)
    e2e0:	0006d463          	bgez	a3,e2e8 <.LBB69_1708>
    e2e4:	c0000e37          	lui	t3,0xc0000

000000000000e2e8 <.LBB69_1708>:
    e2e8:	89c43423          	sd	t3,-1912(s0)
    e2ec:	d8843683          	ld	a3,-632(s0)
    e2f0:	ed043e03          	ld	t3,-304(s0)
    e2f4:	01c686b3          	add	a3,a3,t3
    e2f8:	012686b3          	add	a3,a3,s2
    e2fc:	416f8e3b          	subw	t3,t6,s6
    e300:	41c686bb          	subw	a3,a3,t3
    e304:	40000e37          	lui	t3,0x40000
    e308:	d2d43423          	sd	a3,-728(s0)
    e30c:	0006d463          	bgez	a3,e314 <.LBB69_1710>
    e310:	c0000e37          	lui	t3,0xc0000

000000000000e314 <.LBB69_1710>:
    e314:	87c43023          	sd	t3,-1952(s0)
    e318:	d9043683          	ld	a3,-624(s0)
    e31c:	ed843e03          	ld	t3,-296(s0)
    e320:	01c686b3          	add	a3,a3,t3
    e324:	01a686b3          	add	a3,a3,s10
    e328:	416f8e3b          	subw	t3,t6,s6
    e32c:	41c686bb          	subw	a3,a3,t3
    e330:	40000e37          	lui	t3,0x40000
    e334:	d2d43823          	sd	a3,-720(s0)
    e338:	0006d463          	bgez	a3,e340 <.LBB69_1712>
    e33c:	c0000e37          	lui	t3,0xc0000

000000000000e340 <.LBB69_1712>:
    e340:	83c43c23          	sd	t3,-1992(s0)
    e344:	d9843683          	ld	a3,-616(s0)
    e348:	ee043e03          	ld	t3,-288(s0)
    e34c:	01c686b3          	add	a3,a3,t3
    e350:	014686b3          	add	a3,a3,s4
    e354:	416f8e3b          	subw	t3,t6,s6
    e358:	41c686bb          	subw	a3,a3,t3
    e35c:	40000e37          	lui	t3,0x40000
    e360:	d2d43c23          	sd	a3,-712(s0)
    e364:	0006d463          	bgez	a3,e36c <.LBB69_1714>
    e368:	c0000e37          	lui	t3,0xc0000

000000000000e36c <.LBB69_1714>:
    e36c:	81c43823          	sd	t3,-2032(s0)
    e370:	da043683          	ld	a3,-608(s0)
    e374:	ee843e03          	ld	t3,-280(s0)
    e378:	01c686b3          	add	a3,a3,t3
    e37c:	00b686b3          	add	a3,a3,a1
    e380:	416f8e3b          	subw	t3,t6,s6
    e384:	41c686bb          	subw	a3,a3,t3
    e388:	40000e37          	lui	t3,0x40000
    e38c:	d4d43023          	sd	a3,-704(s0)
    e390:	0006d463          	bgez	a3,e398 <.LBB69_1716>
    e394:	c0000e37          	lui	t3,0xc0000

000000000000e398 <.LBB69_1716>:
    e398:	000016b7          	lui	a3,0x1
    e39c:	40d406b3          	sub	a3,s0,a3
    e3a0:	7fc6b423          	sd	t3,2024(a3) # 17e8 <.LBB69_5+0x3cc>
    e3a4:	da843683          	ld	a3,-600(s0)
    e3a8:	ef043e03          	ld	t3,-272(s0)
    e3ac:	01c686b3          	add	a3,a3,t3
    e3b0:	005686b3          	add	a3,a3,t0
    e3b4:	416f8e3b          	subw	t3,t6,s6
    e3b8:	41c686bb          	subw	a3,a3,t3
    e3bc:	40000e37          	lui	t3,0x40000
    e3c0:	d4d43423          	sd	a3,-696(s0)
    e3c4:	0006d463          	bgez	a3,e3cc <.LBB69_1718>
    e3c8:	c0000e37          	lui	t3,0xc0000

000000000000e3cc <.LBB69_1718>:
    e3cc:	000016b7          	lui	a3,0x1
    e3d0:	40d406b3          	sub	a3,s0,a3
    e3d4:	7dc6b023          	sd	t3,1984(a3) # 17c0 <.LBB69_5+0x3a4>
    e3d8:	db043683          	ld	a3,-592(s0)
    e3dc:	ef843e03          	ld	t3,-264(s0)
    e3e0:	01c686b3          	add	a3,a3,t3
    e3e4:	011686b3          	add	a3,a3,a7
    e3e8:	416f8e3b          	subw	t3,t6,s6
    e3ec:	41c686bb          	subw	a3,a3,t3
    e3f0:	40000e37          	lui	t3,0x40000
    e3f4:	d4d43c23          	sd	a3,-680(s0)
    e3f8:	0006d463          	bgez	a3,e400 <.LBB69_1720>
    e3fc:	c0000e37          	lui	t3,0xc0000

000000000000e400 <.LBB69_1720>:
    e400:	000016b7          	lui	a3,0x1
    e404:	40d406b3          	sub	a3,s0,a3
    e408:	79c6b423          	sd	t3,1928(a3) # 1788 <.LBB69_5+0x36c>
    e40c:	db843683          	ld	a3,-584(s0)
    e410:	f0043e03          	ld	t3,-256(s0)
    e414:	01c686b3          	add	a3,a3,t3
    e418:	00c686b3          	add	a3,a3,a2
    e41c:	416f8e3b          	subw	t3,t6,s6
    e420:	41c686bb          	subw	a3,a3,t3
    e424:	40000e37          	lui	t3,0x40000
    e428:	d6d43423          	sd	a3,-664(s0)
    e42c:	0006d463          	bgez	a3,e434 <.LBB69_1722>
    e430:	c0000e37          	lui	t3,0xc0000

000000000000e434 <.LBB69_1722>:
    e434:	000016b7          	lui	a3,0x1
    e438:	40d406b3          	sub	a3,s0,a3
    e43c:	75c6b823          	sd	t3,1872(a3) # 1750 <.LBB69_5+0x334>
    e440:	dc043683          	ld	a3,-576(s0)
    e444:	f0843e03          	ld	t3,-248(s0)
    e448:	01c686b3          	add	a3,a3,t3
    e44c:	001686b3          	add	a3,a3,ra
    e450:	416f8e3b          	subw	t3,t6,s6
    e454:	41c686bb          	subw	a3,a3,t3
    e458:	40000e37          	lui	t3,0x40000
    e45c:	d6d43c23          	sd	a3,-648(s0)
    e460:	0006d463          	bgez	a3,e468 <.LBB69_1724>
    e464:	c0000e37          	lui	t3,0xc0000

000000000000e468 <.LBB69_1724>:
    e468:	000016b7          	lui	a3,0x1
    e46c:	40d406b3          	sub	a3,s0,a3
    e470:	73c6b023          	sd	t3,1824(a3) # 1720 <.LBB69_5+0x304>
    e474:	dc843683          	ld	a3,-568(s0)
    e478:	f1043e03          	ld	t3,-240(s0)
    e47c:	01c686b3          	add	a3,a3,t3
    e480:	01e686b3          	add	a3,a3,t5
    e484:	416f8e3b          	subw	t3,t6,s6
    e488:	41c686bb          	subw	a3,a3,t3
    e48c:	40000e37          	lui	t3,0x40000
    e490:	d8d43423          	sd	a3,-632(s0)
    e494:	0006d463          	bgez	a3,e49c <.LBB69_1726>
    e498:	c0000e37          	lui	t3,0xc0000

000000000000e49c <.LBB69_1726>:
    e49c:	000016b7          	lui	a3,0x1
    e4a0:	40d406b3          	sub	a3,s0,a3
    e4a4:	6fc6b823          	sd	t3,1776(a3) # 16f0 <.LBB69_5+0x2d4>
    e4a8:	dd043683          	ld	a3,-560(s0)
    e4ac:	f1843e03          	ld	t3,-232(s0)
    e4b0:	01c686b3          	add	a3,a3,t3
    e4b4:	00f686b3          	add	a3,a3,a5
    e4b8:	416f8e3b          	subw	t3,t6,s6
    e4bc:	41c686bb          	subw	a3,a3,t3
    e4c0:	40000e37          	lui	t3,0x40000
    e4c4:	d8d43c23          	sd	a3,-616(s0)
    e4c8:	0006d463          	bgez	a3,e4d0 <.LBB69_1728>
    e4cc:	c0000e37          	lui	t3,0xc0000

000000000000e4d0 <.LBB69_1728>:
    e4d0:	000016b7          	lui	a3,0x1
    e4d4:	40d406b3          	sub	a3,s0,a3
    e4d8:	6dc6b023          	sd	t3,1728(a3) # 16c0 <.LBB69_5+0x2a4>
    e4dc:	f2043683          	ld	a3,-224(s0)
    e4e0:	00da86b3          	add	a3,s5,a3
    e4e4:	010686b3          	add	a3,a3,a6
    e4e8:	416f8e3b          	subw	t3,t6,s6
    e4ec:	41c68e3b          	subw	t3,a3,t3
    e4f0:	400006b7          	lui	a3,0x40000
    e4f4:	00001ab7          	lui	s5,0x1
    e4f8:	41540ab3          	sub	s5,s0,s5
    e4fc:	63cab423          	sd	t3,1576(s5) # 1628 <.LBB69_5+0x20c>
    e500:	000e5463          	bgez	t3,e508 <.LBB69_1730>
    e504:	c00006b7          	lui	a3,0xc0000

000000000000e508 <.LBB69_1730>:
    e508:	dad43423          	sd	a3,-600(s0)
    e50c:	f2843683          	ld	a3,-216(s0)
    e510:	00de86b3          	add	a3,t4,a3
    e514:	00a686b3          	add	a3,a3,a0
    e518:	416f8ebb          	subw	t4,t6,s6
    e51c:	41d68e3b          	subw	t3,a3,t4
    e520:	400006b7          	lui	a3,0x40000
    e524:	00001eb7          	lui	t4,0x1
    e528:	41d40eb3          	sub	t4,s0,t4
    e52c:	63ceb023          	sd	t3,1568(t4) # 1620 <.LBB69_5+0x204>
    e530:	000e5463          	bgez	t3,e538 <.LBB69_1732>
    e534:	c00006b7          	lui	a3,0xc0000

000000000000e538 <.LBB69_1732>:
    e538:	dad43c23          	sd	a3,-584(s0)
    e53c:	f3043683          	ld	a3,-208(s0)
    e540:	de843e03          	ld	t3,-536(s0)
    e544:	00de06b3          	add	a3,t3,a3
    e548:	01b686b3          	add	a3,a3,s11
    e54c:	416f8ebb          	subw	t4,t6,s6
    e550:	41d68e3b          	subw	t3,a3,t4
    e554:	400006b7          	lui	a3,0x40000
    e558:	00001eb7          	lui	t4,0x1
    e55c:	41d40eb3          	sub	t4,s0,t4
    e560:	61cebc23          	sd	t3,1560(t4) # 1618 <.LBB69_5+0x1fc>
    e564:	000e5463          	bgez	t3,e56c <.LBB69_1734>
    e568:	c00006b7          	lui	a3,0xc0000

000000000000e56c <.LBB69_1734>:
    e56c:	dcd43423          	sd	a3,-568(s0)
    e570:	f3843683          	ld	a3,-200(s0)
    e574:	df043e03          	ld	t3,-528(s0)
    e578:	00de06b3          	add	a3,t3,a3
    e57c:	00e686b3          	add	a3,a3,a4
    e580:	416f8ebb          	subw	t4,t6,s6
    e584:	41d68e3b          	subw	t3,a3,t4
    e588:	400006b7          	lui	a3,0x40000
    e58c:	000e5463          	bgez	t3,e594 <.LBB69_1736>
    e590:	c00006b7          	lui	a3,0xc0000

000000000000e594 <.LBB69_1736>:
    e594:	dcd43c23          	sd	a3,-552(s0)
    e598:	df843683          	ld	a3,-520(s0)
    e59c:	f4043e83          	ld	t4,-192(s0)
    e5a0:	01d686b3          	add	a3,a3,t4
    e5a4:	006686b3          	add	a3,a3,t1
    e5a8:	416f8ebb          	subw	t4,t6,s6
    e5ac:	41d686bb          	subw	a3,a3,t4
    e5b0:	40000eb7          	lui	t4,0x40000
    e5b4:	0006d463          	bgez	a3,e5bc <.LBB69_1738>
    e5b8:	c0000eb7          	lui	t4,0xc0000

000000000000e5bc <.LBB69_1738>:
    e5bc:	dfd43423          	sd	t4,-536(s0)
    e5c0:	af843e83          	ld	t4,-1288(s0)
    e5c4:	e0043f83          	ld	t6,-512(s0)
    e5c8:	01df8eb3          	add	t4,t6,t4
    e5cc:	af043f83          	ld	t6,-1296(s0)
    e5d0:	01fe8eb3          	add	t4,t4,t6
    e5d4:	f8843a83          	ld	s5,-120(s0)
    e5d8:	416a8abb          	subw	s5,s5,s6
    e5dc:	415e8ebb          	subw	t4,t4,s5
    e5e0:	40000ab7          	lui	s5,0x40000
    e5e4:	c5d43023          	sd	t4,-960(s0)
    e5e8:	000ed463          	bgez	t4,e5f0 <.LBB69_1740>
    e5ec:	c0000ab7          	lui	s5,0xc0000

000000000000e5f0 <.LBB69_1740>:
    e5f0:	c3543c23          	sd	s5,-968(s0)
    e5f4:	e0843e83          	ld	t4,-504(s0)
    e5f8:	ae843f83          	ld	t6,-1304(s0)
    e5fc:	01fe8eb3          	add	t4,t4,t6
    e600:	ae043f83          	ld	t6,-1312(s0)
    e604:	01fe8eb3          	add	t4,t4,t6
    e608:	f8843a83          	ld	s5,-120(s0)
    e60c:	416a8abb          	subw	s5,s5,s6
    e610:	415e8ebb          	subw	t4,t4,s5
    e614:	40000ab7          	lui	s5,0x40000
    e618:	c3d43823          	sd	t4,-976(s0)
    e61c:	000ed463          	bgez	t4,e624 <.LBB69_1742>
    e620:	c0000ab7          	lui	s5,0xc0000

000000000000e624 <.LBB69_1742>:
    e624:	c3543423          	sd	s5,-984(s0)
    e628:	e1043e83          	ld	t4,-496(s0)
    e62c:	ad843f83          	ld	t6,-1320(s0)
    e630:	01fe8eb3          	add	t4,t4,t6
    e634:	ad043f83          	ld	t6,-1328(s0)
    e638:	01fe8eb3          	add	t4,t4,t6
    e63c:	f8843a83          	ld	s5,-120(s0)
    e640:	416a8abb          	subw	s5,s5,s6
    e644:	415e8ebb          	subw	t4,t4,s5
    e648:	40000ab7          	lui	s5,0x40000
    e64c:	c3d43023          	sd	t4,-992(s0)
    e650:	000ed463          	bgez	t4,e658 <.LBB69_1744>
    e654:	c0000ab7          	lui	s5,0xc0000

000000000000e658 <.LBB69_1744>:
    e658:	c1543c23          	sd	s5,-1000(s0)
    e65c:	e1843e83          	ld	t4,-488(s0)
    e660:	ac843f83          	ld	t6,-1336(s0)
    e664:	01fe8eb3          	add	t4,t4,t6
    e668:	ac043f83          	ld	t6,-1344(s0)
    e66c:	01fe8eb3          	add	t4,t4,t6
    e670:	f8843a83          	ld	s5,-120(s0)
    e674:	416a8abb          	subw	s5,s5,s6
    e678:	415e8ebb          	subw	t4,t4,s5
    e67c:	40000ab7          	lui	s5,0x40000
    e680:	bdd43c23          	sd	t4,-1064(s0)
    e684:	000ed463          	bgez	t4,e68c <.LBB69_1746>
    e688:	c0000ab7          	lui	s5,0xc0000

000000000000e68c <.LBB69_1746>:
    e68c:	bd543423          	sd	s5,-1080(s0)
    e690:	e2043e83          	ld	t4,-480(s0)
    e694:	ab843f83          	ld	t6,-1352(s0)
    e698:	01fe8eb3          	add	t4,t4,t6
    e69c:	ab043f83          	ld	t6,-1360(s0)
    e6a0:	01fe8eb3          	add	t4,t4,t6
    e6a4:	f8843a83          	ld	s5,-120(s0)
    e6a8:	416a8abb          	subw	s5,s5,s6
    e6ac:	415e8ebb          	subw	t4,t4,s5
    e6b0:	40000ab7          	lui	s5,0x40000
    e6b4:	bbd43c23          	sd	t4,-1096(s0)
    e6b8:	000ed463          	bgez	t4,e6c0 <.LBB69_1748>
    e6bc:	c0000ab7          	lui	s5,0xc0000

000000000000e6c0 <.LBB69_1748>:
    e6c0:	bb543423          	sd	s5,-1112(s0)
    e6c4:	e2843e83          	ld	t4,-472(s0)
    e6c8:	aa843f83          	ld	t6,-1368(s0)
    e6cc:	01fe8eb3          	add	t4,t4,t6
    e6d0:	b2043f83          	ld	t6,-1248(s0)
    e6d4:	01fe8eb3          	add	t4,t4,t6
    e6d8:	f8843a83          	ld	s5,-120(s0)
    e6dc:	416a8abb          	subw	s5,s5,s6
    e6e0:	415e8ebb          	subw	t4,t4,s5
    e6e4:	40000ab7          	lui	s5,0x40000
    e6e8:	b9d43c23          	sd	t4,-1128(s0)
    e6ec:	000ed463          	bgez	t4,e6f4 <.LBB69_1750>
    e6f0:	c0000ab7          	lui	s5,0xc0000

000000000000e6f4 <.LBB69_1750>:
    e6f4:	b9543423          	sd	s5,-1144(s0)
    e6f8:	e3043e83          	ld	t4,-464(s0)
    e6fc:	aa043f83          	ld	t6,-1376(s0)
    e700:	01fe8eb3          	add	t4,t4,t6
    e704:	b1843f83          	ld	t6,-1256(s0)
    e708:	01fe8eb3          	add	t4,t4,t6
    e70c:	f8843a83          	ld	s5,-120(s0)
    e710:	416a8abb          	subw	s5,s5,s6
    e714:	415e8ebb          	subw	t4,t4,s5
    e718:	40000ab7          	lui	s5,0x40000
    e71c:	b7d43c23          	sd	t4,-1160(s0)
    e720:	000ed463          	bgez	t4,e728 <.LBB69_1752>
    e724:	c0000ab7          	lui	s5,0xc0000

000000000000e728 <.LBB69_1752>:
    e728:	b3543023          	sd	s5,-1248(s0)
    e72c:	e3843e83          	ld	t4,-456(s0)
    e730:	a9843f83          	ld	t6,-1384(s0)
    e734:	01fe8eb3          	add	t4,t4,t6
    e738:	b1043f83          	ld	t6,-1264(s0)
    e73c:	01fe8eb3          	add	t4,t4,t6
    e740:	f8843a83          	ld	s5,-120(s0)
    e744:	416a8abb          	subw	s5,s5,s6
    e748:	415e8ebb          	subw	t4,t4,s5
    e74c:	40000ab7          	lui	s5,0x40000
    e750:	b1d43c23          	sd	t4,-1256(s0)
    e754:	000ed463          	bgez	t4,e75c <.LBB69_1754>
    e758:	c0000ab7          	lui	s5,0xc0000

000000000000e75c <.LBB69_1754>:
    e75c:	b1543823          	sd	s5,-1264(s0)
    e760:	e4043e83          	ld	t4,-448(s0)
    e764:	a9043f83          	ld	t6,-1392(s0)
    e768:	01fe8eb3          	add	t4,t4,t6
    e76c:	b0843f83          	ld	t6,-1272(s0)
    e770:	01fe8eb3          	add	t4,t4,t6
    e774:	f8843a83          	ld	s5,-120(s0)
    e778:	416a8abb          	subw	s5,s5,s6
    e77c:	415e8ebb          	subw	t4,t4,s5
    e780:	40000ab7          	lui	s5,0x40000
    e784:	b1d43423          	sd	t4,-1272(s0)
    e788:	000ed463          	bgez	t4,e790 <.LBB69_1756>
    e78c:	c0000ab7          	lui	s5,0xc0000

000000000000e790 <.LBB69_1756>:
    e790:	af543c23          	sd	s5,-1288(s0)
    e794:	e4843e83          	ld	t4,-440(s0)
    e798:	a8043f83          	ld	t6,-1408(s0)
    e79c:	01fe8eb3          	add	t4,t4,t6
    e7a0:	b5043f83          	ld	t6,-1200(s0)
    e7a4:	01fe8eb3          	add	t4,t4,t6
    e7a8:	f8843a83          	ld	s5,-120(s0)
    e7ac:	416a8abb          	subw	s5,s5,s6
    e7b0:	415e8ebb          	subw	t4,t4,s5
    e7b4:	40000ab7          	lui	s5,0x40000
    e7b8:	b5d43823          	sd	t4,-1200(s0)
    e7bc:	000ed463          	bgez	t4,e7c4 <.LBB69_1758>
    e7c0:	c0000ab7          	lui	s5,0xc0000

000000000000e7c4 <.LBB69_1758>:
    e7c4:	af543823          	sd	s5,-1296(s0)
    e7c8:	e5043e83          	ld	t4,-432(s0)
    e7cc:	b2843f83          	ld	t6,-1240(s0)
    e7d0:	01fe8eb3          	add	t4,t4,t6
    e7d4:	b5843f83          	ld	t6,-1192(s0)
    e7d8:	01fe8eb3          	add	t4,t4,t6
    e7dc:	f8843a83          	ld	s5,-120(s0)
    e7e0:	416a8abb          	subw	s5,s5,s6
    e7e4:	415e8ebb          	subw	t4,t4,s5
    e7e8:	40000ab7          	lui	s5,0x40000
    e7ec:	b5d43c23          	sd	t4,-1192(s0)
    e7f0:	000ed463          	bgez	t4,e7f8 <.LBB69_1760>
    e7f4:	c0000ab7          	lui	s5,0xc0000

000000000000e7f8 <.LBB69_1760>:
    e7f8:	b3543423          	sd	s5,-1240(s0)
    e7fc:	e5843e83          	ld	t4,-424(s0)
    e800:	b3043f83          	ld	t6,-1232(s0)
    e804:	01fe8eb3          	add	t4,t4,t6
    e808:	b6043f83          	ld	t6,-1184(s0)
    e80c:	01fe8eb3          	add	t4,t4,t6
    e810:	f8843a83          	ld	s5,-120(s0)
    e814:	416a8abb          	subw	s5,s5,s6
    e818:	415e8ebb          	subw	t4,t4,s5
    e81c:	40000ab7          	lui	s5,0x40000
    e820:	b7d43023          	sd	t4,-1184(s0)
    e824:	000ed463          	bgez	t4,e82c <.LBB69_1762>
    e828:	c0000ab7          	lui	s5,0xc0000

000000000000e82c <.LBB69_1762>:
    e82c:	b3543823          	sd	s5,-1232(s0)
    e830:	e6043e83          	ld	t4,-416(s0)
    e834:	b3843f83          	ld	t6,-1224(s0)
    e838:	01fe8eb3          	add	t4,t4,t6
    e83c:	b6843f83          	ld	t6,-1176(s0)
    e840:	01fe8eb3          	add	t4,t4,t6
    e844:	f8843a83          	ld	s5,-120(s0)
    e848:	416a8abb          	subw	s5,s5,s6
    e84c:	415e8ebb          	subw	t4,t4,s5
    e850:	40000ab7          	lui	s5,0x40000
    e854:	b7d43423          	sd	t4,-1176(s0)
    e858:	000ed463          	bgez	t4,e860 <.LBB69_1764>
    e85c:	c0000ab7          	lui	s5,0xc0000

000000000000e860 <.LBB69_1764>:
    e860:	b3543c23          	sd	s5,-1224(s0)
    e864:	f4843e83          	ld	t4,-184(s0)
    e868:	b4043f83          	ld	t6,-1216(s0)
    e86c:	01fe8eb3          	add	t4,t4,t6
    e870:	b7043f83          	ld	t6,-1168(s0)
    e874:	01fe8eb3          	add	t4,t4,t6
    e878:	f8843a83          	ld	s5,-120(s0)
    e87c:	416a8abb          	subw	s5,s5,s6
    e880:	415e8ebb          	subw	t4,t4,s5
    e884:	40000ab7          	lui	s5,0x40000
    e888:	b7d43823          	sd	t4,-1168(s0)
    e88c:	000ed463          	bgez	t4,e894 <.LBB69_1766>
    e890:	c0000ab7          	lui	s5,0xc0000

000000000000e894 <.LBB69_1766>:
    e894:	b5543023          	sd	s5,-1216(s0)
    e898:	f5043e83          	ld	t4,-176(s0)
    e89c:	b4843f83          	ld	t6,-1208(s0)
    e8a0:	01fe8eb3          	add	t4,t4,t6
    e8a4:	019e8eb3          	add	t4,t4,s9
    e8a8:	f8843a83          	ld	s5,-120(s0)
    e8ac:	416a8abb          	subw	s5,s5,s6
    e8b0:	415e8ebb          	subw	t4,t4,s5
    e8b4:	40000ab7          	lui	s5,0x40000
    e8b8:	b5d43423          	sd	t4,-1208(s0)
    e8bc:	000ed463          	bgez	t4,e8c4 <.LBB69_1768>
    e8c0:	c0000ab7          	lui	s5,0xc0000

000000000000e8c4 <.LBB69_1768>:
    e8c4:	af543423          	sd	s5,-1304(s0)
    e8c8:	f5843e83          	ld	t4,-168(s0)
    e8cc:	ec043f83          	ld	t6,-320(s0)
    e8d0:	01fe8eb3          	add	t4,t4,t6
    e8d4:	018e8eb3          	add	t4,t4,s8
    e8d8:	f8843a83          	ld	s5,-120(s0)
    e8dc:	416a8abb          	subw	s5,s5,s6
    e8e0:	415e8ebb          	subw	t4,t4,s5
    e8e4:	40000ab7          	lui	s5,0x40000
    e8e8:	afd43023          	sd	t4,-1312(s0)
    e8ec:	000ed463          	bgez	t4,e8f4 <.LBB69_1770>
    e8f0:	c0000ab7          	lui	s5,0xc0000

000000000000e8f4 <.LBB69_1770>:
    e8f4:	ad543c23          	sd	s5,-1320(s0)
    e8f8:	f6043e83          	ld	t4,-160(s0)
    e8fc:	ec843f83          	ld	t6,-312(s0)
    e900:	01fe8eb3          	add	t4,t4,t6
    e904:	017e8eb3          	add	t4,t4,s7
    e908:	f8843a83          	ld	s5,-120(s0)
    e90c:	416a8abb          	subw	s5,s5,s6
    e910:	415e8ebb          	subw	t4,t4,s5
    e914:	40000ab7          	lui	s5,0x40000
    e918:	add43823          	sd	t4,-1328(s0)
    e91c:	000ed463          	bgez	t4,e924 <.LBB69_1772>
    e920:	c0000ab7          	lui	s5,0xc0000

000000000000e924 <.LBB69_1772>:
    e924:	ad543423          	sd	s5,-1336(s0)
    e928:	f6843e83          	ld	t4,-152(s0)
    e92c:	ed043f83          	ld	t6,-304(s0)
    e930:	01fe8eb3          	add	t4,t4,t6
    e934:	012e8eb3          	add	t4,t4,s2
    e938:	f8843a83          	ld	s5,-120(s0)
    e93c:	416a8abb          	subw	s5,s5,s6
    e940:	415e8ebb          	subw	t4,t4,s5
    e944:	40000ab7          	lui	s5,0x40000
    e948:	add43023          	sd	t4,-1344(s0)
    e94c:	000ed463          	bgez	t4,e954 <.LBB69_1774>
    e950:	c0000ab7          	lui	s5,0xc0000

000000000000e954 <.LBB69_1774>:
    e954:	ab543c23          	sd	s5,-1352(s0)
    e958:	f7043e83          	ld	t4,-144(s0)
    e95c:	ed843f83          	ld	t6,-296(s0)
    e960:	01fe8eb3          	add	t4,t4,t6
    e964:	01ae8eb3          	add	t4,t4,s10
    e968:	f8843a83          	ld	s5,-120(s0)
    e96c:	416a8abb          	subw	s5,s5,s6
    e970:	415e8ebb          	subw	t4,t4,s5
    e974:	40000ab7          	lui	s5,0x40000
    e978:	abd43823          	sd	t4,-1360(s0)
    e97c:	000ed463          	bgez	t4,e984 <.LBB69_1776>
    e980:	c0000ab7          	lui	s5,0xc0000

000000000000e984 <.LBB69_1776>:
    e984:	ab543423          	sd	s5,-1368(s0)
    e988:	e6843e83          	ld	t4,-408(s0)
    e98c:	ee043f83          	ld	t6,-288(s0)
    e990:	01fe8eb3          	add	t4,t4,t6
    e994:	014e8eb3          	add	t4,t4,s4
    e998:	f8843a83          	ld	s5,-120(s0)
    e99c:	416a8abb          	subw	s5,s5,s6
    e9a0:	415e8ebb          	subw	t4,t4,s5
    e9a4:	40000ab7          	lui	s5,0x40000
    e9a8:	abd43023          	sd	t4,-1376(s0)
    e9ac:	000ed463          	bgez	t4,e9b4 <.LBB69_1778>
    e9b0:	c0000ab7          	lui	s5,0xc0000

000000000000e9b4 <.LBB69_1778>:
    e9b4:	e7043e83          	ld	t4,-400(s0)
    e9b8:	ee843f83          	ld	t6,-280(s0)
    e9bc:	01fe8eb3          	add	t4,t4,t6
    e9c0:	00be85b3          	add	a1,t4,a1
    e9c4:	f8843e83          	ld	t4,-120(s0)
    e9c8:	416e8ebb          	subw	t4,t4,s6
    e9cc:	41d585bb          	subw	a1,a1,t4
    e9d0:	40000eb7          	lui	t4,0x40000
    e9d4:	a8b43823          	sd	a1,-1392(s0)
    e9d8:	0005d463          	bgez	a1,e9e0 <.LBB69_1780>
    e9dc:	c0000eb7          	lui	t4,0xc0000

000000000000e9e0 <.LBB69_1780>:
    e9e0:	e7843583          	ld	a1,-392(s0)
    e9e4:	ef043f83          	ld	t6,-272(s0)
    e9e8:	01f585b3          	add	a1,a1,t6
    e9ec:	005585b3          	add	a1,a1,t0
    e9f0:	f8843283          	ld	t0,-120(s0)
    e9f4:	416282bb          	subw	t0,t0,s6
    e9f8:	405585bb          	subw	a1,a1,t0
    e9fc:	400002b7          	lui	t0,0x40000
    ea00:	a8b43023          	sd	a1,-1408(s0)
    ea04:	0005d463          	bgez	a1,ea0c <.LBB69_1782>
    ea08:	c00002b7          	lui	t0,0xc0000

000000000000ea0c <.LBB69_1782>:
    ea0c:	000015b7          	lui	a1,0x1
    ea10:	40b405b3          	sub	a1,s0,a1
    ea14:	7a55bc23          	sd	t0,1976(a1) # 17b8 <.LBB69_5+0x39c>
    ea18:	f7843583          	ld	a1,-136(s0)
    ea1c:	ef843283          	ld	t0,-264(s0)
    ea20:	005585b3          	add	a1,a1,t0
    ea24:	011585b3          	add	a1,a1,a7
    ea28:	f8843883          	ld	a7,-120(s0)
    ea2c:	416888bb          	subw	a7,a7,s6
    ea30:	411585bb          	subw	a1,a1,a7
    ea34:	400008b7          	lui	a7,0x40000
    ea38:	e9043283          	ld	t0,-368(s0)
    ea3c:	00001fb7          	lui	t6,0x1
    ea40:	41f40fb3          	sub	t6,s0,t6
    ea44:	78bfbc23          	sd	a1,1944(t6) # 1798 <.LBB69_5+0x37c>
    ea48:	0005d463          	bgez	a1,ea50 <.LBB69_1784>
    ea4c:	c00008b7          	lui	a7,0xc0000

000000000000ea50 <.LBB69_1784>:
    ea50:	000015b7          	lui	a1,0x1
    ea54:	40b405b3          	sub	a1,s0,a1
    ea58:	7915b023          	sd	a7,1920(a1) # 1780 <.LBB69_5+0x364>
    ea5c:	f8043583          	ld	a1,-128(s0)
    ea60:	f0043883          	ld	a7,-256(s0)
    ea64:	011585b3          	add	a1,a1,a7
    ea68:	00c585b3          	add	a1,a1,a2
    ea6c:	f8843603          	ld	a2,-120(s0)
    ea70:	4166063b          	subw	a2,a2,s6
    ea74:	40c585bb          	subw	a1,a1,a2
    ea78:	40000637          	lui	a2,0x40000
    ea7c:	e8843883          	ld	a7,-376(s0)
    ea80:	00001fb7          	lui	t6,0x1
    ea84:	41f40fb3          	sub	t6,s0,t6
    ea88:	76bfb023          	sd	a1,1888(t6) # 1760 <.LBB69_5+0x344>
    ea8c:	0005d463          	bgez	a1,ea94 <.LBB69_1786>
    ea90:	c0000637          	lui	a2,0xc0000

000000000000ea94 <.LBB69_1786>:
    ea94:	000015b7          	lui	a1,0x1
    ea98:	40b405b3          	sub	a1,s0,a1
    ea9c:	74c5b423          	sd	a2,1864(a1) # 1748 <.LBB69_5+0x32c>
    eaa0:	e8043583          	ld	a1,-384(s0)
    eaa4:	f0843603          	ld	a2,-248(s0)
    eaa8:	00c585b3          	add	a1,a1,a2
    eaac:	001585b3          	add	a1,a1,ra
    eab0:	f8843603          	ld	a2,-120(s0)
    eab4:	4166063b          	subw	a2,a2,s6
    eab8:	40c580bb          	subw	ra,a1,a2
    eabc:	400005b7          	lui	a1,0x40000
    eac0:	0000d463          	bgez	ra,eac8 <.LBB69_1788>
    eac4:	c00005b7          	lui	a1,0xc0000

000000000000eac8 <.LBB69_1788>:
    eac8:	00001637          	lui	a2,0x1
    eacc:	40c40633          	sub	a2,s0,a2
    ead0:	70b63c23          	sd	a1,1816(a2) # 1718 <.LBB69_5+0x2fc>
    ead4:	f1043583          	ld	a1,-240(s0)
    ead8:	00b885b3          	add	a1,a7,a1
    eadc:	01e585b3          	add	a1,a1,t5
    eae0:	f8843603          	ld	a2,-120(s0)
    eae4:	4166063b          	subw	a2,a2,s6
    eae8:	40c588bb          	subw	a7,a1,a2
    eaec:	400005b7          	lui	a1,0x40000
    eaf0:	0008d463          	bgez	a7,eaf8 <.LBB69_1790>
    eaf4:	c00005b7          	lui	a1,0xc0000

000000000000eaf8 <.LBB69_1790>:
    eaf8:	00001637          	lui	a2,0x1
    eafc:	40c40633          	sub	a2,s0,a2
    eb00:	6eb63423          	sd	a1,1768(a2) # 16e8 <.LBB69_5+0x2cc>
    eb04:	f1843583          	ld	a1,-232(s0)
    eb08:	00b285b3          	add	a1,t0,a1
    eb0c:	00f585b3          	add	a1,a1,a5
    eb10:	f8843603          	ld	a2,-120(s0)
    eb14:	4166063b          	subw	a2,a2,s6
    eb18:	40c58f3b          	subw	t5,a1,a2
    eb1c:	400005b7          	lui	a1,0x40000
    eb20:	000f5463          	bgez	t5,eb28 <.LBB69_1792>
    eb24:	c00005b7          	lui	a1,0xc0000

000000000000eb28 <.LBB69_1792>:
    eb28:	00001637          	lui	a2,0x1
    eb2c:	40c40633          	sub	a2,s0,a2
    eb30:	6ab63c23          	sd	a1,1720(a2) # 16b8 <.LBB69_5+0x29c>
    eb34:	a9543c23          	sd	s5,-1384(s0)
    eb38:	e9843583          	ld	a1,-360(s0)
    eb3c:	f2043603          	ld	a2,-224(s0)
    eb40:	00c585b3          	add	a1,a1,a2
    eb44:	010585b3          	add	a1,a1,a6
    eb48:	ffff4837          	lui	a6,0xffff4
    eb4c:	f8843603          	ld	a2,-120(s0)
    eb50:	4166063b          	subw	a2,a2,s6
    eb54:	40c58b3b          	subw	s6,a1,a2
    eb58:	40000fb7          	lui	t6,0x40000
    eb5c:	eb043783          	ld	a5,-336(s0)
    eb60:	000b5463          	bgez	s6,eb68 <.LBB69_1794>
    eb64:	c0000fb7          	lui	t6,0xc0000

000000000000eb68 <.LBB69_1794>:
    eb68:	ea043583          	ld	a1,-352(s0)
    eb6c:	f2843603          	ld	a2,-216(s0)
    eb70:	00c585b3          	add	a1,a1,a2
    eb74:	00a58533          	add	a0,a1,a0
    eb78:	f8843583          	ld	a1,-120(s0)
    eb7c:	410585bb          	subw	a1,a1,a6
    eb80:	40b50abb          	subw	s5,a0,a1
    eb84:	400005b7          	lui	a1,0x40000
    eb88:	ea843503          	ld	a0,-344(s0)
    eb8c:	000ad463          	bgez	s5,eb94 <.LBB69_1796>
    eb90:	c00005b7          	lui	a1,0xc0000

000000000000eb94 <.LBB69_1796>:
    eb94:	00001637          	lui	a2,0x1
    eb98:	40c40633          	sub	a2,s0,a2
    eb9c:	68b63023          	sd	a1,1664(a2) # 1680 <.LBB69_5+0x264>
    eba0:	f3043583          	ld	a1,-208(s0)
    eba4:	00b50533          	add	a0,a0,a1
    eba8:	01b50533          	add	a0,a0,s11
    ebac:	f8843583          	ld	a1,-120(s0)
    ebb0:	410585bb          	subw	a1,a1,a6
    ebb4:	40b5063b          	subw	a2,a0,a1
    ebb8:	40000537          	lui	a0,0x40000
    ebbc:	00065463          	bgez	a2,ebc4 <.LBB69_1798>
    ebc0:	c0000537          	lui	a0,0xc0000

000000000000ebc4 <.LBB69_1798>:
    ebc4:	000015b7          	lui	a1,0x1
    ebc8:	40b405b3          	sub	a1,s0,a1
    ebcc:	64a5b023          	sd	a0,1600(a1) # 1640 <.LBB69_5+0x224>
    ebd0:	00001537          	lui	a0,0x1
    ebd4:	40a40533          	sub	a0,s0,a0
    ebd8:	67d53023          	sd	t4,1632(a0) # 1660 <.LBB69_5+0x244>
    ebdc:	f3843503          	ld	a0,-200(s0)
    ebe0:	00a78533          	add	a0,a5,a0
    ebe4:	00e50533          	add	a0,a0,a4
    ebe8:	f8843583          	ld	a1,-120(s0)
    ebec:	410585bb          	subw	a1,a1,a6
    ebf0:	40b507bb          	subw	a5,a0,a1
    ebf4:	40000db7          	lui	s11,0x40000
    ebf8:	0007d463          	bgez	a5,ec00 <.LBB69_1800>
    ebfc:	c0000db7          	lui	s11,0xc0000

000000000000ec00 <.LBB69_1800>:
    ec00:	eb843503          	ld	a0,-328(s0)
    ec04:	f4043583          	ld	a1,-192(s0)
    ec08:	00b50533          	add	a0,a0,a1
    ec0c:	00650533          	add	a0,a0,t1
    ec10:	f8843583          	ld	a1,-120(s0)
    ec14:	410585bb          	subw	a1,a1,a6
    ec18:	40b50ebb          	subw	t4,a0,a1
    ec1c:	40000737          	lui	a4,0x40000
    ec20:	000ed463          	bgez	t4,ec28 <.LBB69_1802>
    ec24:	c0000737          	lui	a4,0xc0000

000000000000ec28 <.LBB69_1802>:
    ec28:	00001537          	lui	a0,0x1
    ec2c:	40a40533          	sub	a0,s0,a0
    ec30:	5f053583          	ld	a1,1520(a0) # 15f0 <.LBB69_5+0x1d4>
    ec34:	02b38533          	mul	a0,t2,a1
    ec38:	00058393          	mv	t2,a1
    ec3c:	a7843303          	ld	t1,-1416(s0)
    ec40:	000015b7          	lui	a1,0x1
    ec44:	40b405b3          	sub	a1,s0,a1
    ec48:	6005b583          	ld	a1,1536(a1) # 1600 <.LBB69_5+0x1e4>
    ec4c:	006585b3          	add	a1,a1,t1
    ec50:	00b50533          	add	a0,a0,a1
    ec54:	42855513          	srai	a0,a0,0x28
    ec58:	f7f00293          	li	t0,-129
    ec5c:	00050813          	mv	a6,a0
    ec60:	00a2c463          	blt	t0,a0,ec68 <.LBB69_1804>
    ec64:	f7f00813          	li	a6,-129

000000000000ec68 <.LBB69_1804>:
    ec68:	00001537          	lui	a0,0x1
    ec6c:	40a40533          	sub	a0,s0,a0
    ec70:	65853503          	ld	a0,1624(a0) # 1658 <.LBB69_5+0x23c>
    ec74:	02750533          	mul	a0,a0,t2
    ec78:	000015b7          	lui	a1,0x1
    ec7c:	40b405b3          	sub	a1,s0,a1
    ec80:	6505b583          	ld	a1,1616(a1) # 1650 <.LBB69_5+0x234>
    ec84:	006585b3          	add	a1,a1,t1
    ec88:	00b50533          	add	a0,a0,a1
    ec8c:	42855513          	srai	a0,a0,0x28
    ec90:	f8a43423          	sd	a0,-120(s0)
    ec94:	00a2c663          	blt	t0,a0,eca0 <.LBB69_1806>
    ec98:	f7f00513          	li	a0,-129
    ec9c:	f8a43423          	sd	a0,-120(s0)

000000000000eca0 <.LBB69_1806>:
    eca0:	00001537          	lui	a0,0x1
    eca4:	40a40533          	sub	a0,s0,a0
    eca8:	67853503          	ld	a0,1656(a0) # 1678 <.LBB69_5+0x25c>
    ecac:	02750533          	mul	a0,a0,t2
    ecb0:	000015b7          	lui	a1,0x1
    ecb4:	40b405b3          	sub	a1,s0,a1
    ecb8:	6705b583          	ld	a1,1648(a1) # 1670 <.LBB69_5+0x254>
    ecbc:	006585b3          	add	a1,a1,t1
    ecc0:	00b50533          	add	a0,a0,a1
    ecc4:	42855513          	srai	a0,a0,0x28
    ecc8:	f8a43023          	sd	a0,-128(s0)
    eccc:	00a2c663          	blt	t0,a0,ecd8 <.LBB69_1808>
    ecd0:	f7f00513          	li	a0,-129
    ecd4:	f8a43023          	sd	a0,-128(s0)

000000000000ecd8 <.LBB69_1808>:
    ecd8:	00001537          	lui	a0,0x1
    ecdc:	40a40533          	sub	a0,s0,a0
    ece0:	69853503          	ld	a0,1688(a0) # 1698 <.LBB69_5+0x27c>
    ece4:	02750533          	mul	a0,a0,t2
    ece8:	000015b7          	lui	a1,0x1
    ecec:	40b405b3          	sub	a1,s0,a1
    ecf0:	6905b583          	ld	a1,1680(a1) # 1690 <.LBB69_5+0x274>
    ecf4:	006585b3          	add	a1,a1,t1
    ecf8:	00b50533          	add	a0,a0,a1
    ecfc:	42855513          	srai	a0,a0,0x28
    ed00:	f6a43c23          	sd	a0,-136(s0)
    ed04:	00a2c663          	blt	t0,a0,ed10 <.LBB69_1810>
    ed08:	f7f00513          	li	a0,-129
    ed0c:	f6a43c23          	sd	a0,-136(s0)

000000000000ed10 <.LBB69_1810>:
    ed10:	00001537          	lui	a0,0x1
    ed14:	40a40533          	sub	a0,s0,a0
    ed18:	6b053503          	ld	a0,1712(a0) # 16b0 <.LBB69_5+0x294>
    ed1c:	02750533          	mul	a0,a0,t2
    ed20:	000015b7          	lui	a1,0x1
    ed24:	40b405b3          	sub	a1,s0,a1
    ed28:	6a85b583          	ld	a1,1704(a1) # 16a8 <.LBB69_5+0x28c>
    ed2c:	006585b3          	add	a1,a1,t1
    ed30:	00b50533          	add	a0,a0,a1
    ed34:	42855513          	srai	a0,a0,0x28
    ed38:	f6a43823          	sd	a0,-144(s0)
    ed3c:	00a2c663          	blt	t0,a0,ed48 <.LBB69_1812>
    ed40:	f7f00513          	li	a0,-129
    ed44:	f6a43823          	sd	a0,-144(s0)

000000000000ed48 <.LBB69_1812>:
    ed48:	00001537          	lui	a0,0x1
    ed4c:	40a40533          	sub	a0,s0,a0
    ed50:	6e053503          	ld	a0,1760(a0) # 16e0 <.LBB69_5+0x2c4>
    ed54:	02750533          	mul	a0,a0,t2
    ed58:	000015b7          	lui	a1,0x1
    ed5c:	40b405b3          	sub	a1,s0,a1
    ed60:	6d85b583          	ld	a1,1752(a1) # 16d8 <.LBB69_5+0x2bc>
    ed64:	006585b3          	add	a1,a1,t1
    ed68:	00b50533          	add	a0,a0,a1
    ed6c:	42855513          	srai	a0,a0,0x28
    ed70:	f6a43423          	sd	a0,-152(s0)
    ed74:	00a2c663          	blt	t0,a0,ed80 <.LBB69_1814>
    ed78:	f7f00513          	li	a0,-129
    ed7c:	f6a43423          	sd	a0,-152(s0)

000000000000ed80 <.LBB69_1814>:
    ed80:	00001537          	lui	a0,0x1
    ed84:	40a40533          	sub	a0,s0,a0
    ed88:	71053503          	ld	a0,1808(a0) # 1710 <.LBB69_5+0x2f4>
    ed8c:	02750533          	mul	a0,a0,t2
    ed90:	000015b7          	lui	a1,0x1
    ed94:	40b405b3          	sub	a1,s0,a1
    ed98:	7085b583          	ld	a1,1800(a1) # 1708 <.LBB69_5+0x2ec>
    ed9c:	006585b3          	add	a1,a1,t1
    eda0:	00b50533          	add	a0,a0,a1
    eda4:	42855513          	srai	a0,a0,0x28
    eda8:	f6a43023          	sd	a0,-160(s0)
    edac:	00a2c663          	blt	t0,a0,edb8 <.LBB69_1816>
    edb0:	f7f00513          	li	a0,-129
    edb4:	f6a43023          	sd	a0,-160(s0)

000000000000edb8 <.LBB69_1816>:
    edb8:	00001537          	lui	a0,0x1
    edbc:	40a40533          	sub	a0,s0,a0
    edc0:	74053503          	ld	a0,1856(a0) # 1740 <.LBB69_5+0x324>
    edc4:	02750533          	mul	a0,a0,t2
    edc8:	000015b7          	lui	a1,0x1
    edcc:	40b405b3          	sub	a1,s0,a1
    edd0:	7385b583          	ld	a1,1848(a1) # 1738 <.LBB69_5+0x31c>
    edd4:	006585b3          	add	a1,a1,t1
    edd8:	00b50533          	add	a0,a0,a1
    eddc:	42855513          	srai	a0,a0,0x28
    ede0:	f4a43c23          	sd	a0,-168(s0)
    ede4:	00a2c663          	blt	t0,a0,edf0 <.LBB69_1818>
    ede8:	f7f00513          	li	a0,-129
    edec:	f4a43c23          	sd	a0,-168(s0)

000000000000edf0 <.LBB69_1818>:
    edf0:	00001537          	lui	a0,0x1
    edf4:	40a40533          	sub	a0,s0,a0
    edf8:	77853503          	ld	a0,1912(a0) # 1778 <.LBB69_5+0x35c>
    edfc:	02750533          	mul	a0,a0,t2
    ee00:	000015b7          	lui	a1,0x1
    ee04:	40b405b3          	sub	a1,s0,a1
    ee08:	7705b583          	ld	a1,1904(a1) # 1770 <.LBB69_5+0x354>
    ee0c:	006585b3          	add	a1,a1,t1
    ee10:	00b50533          	add	a0,a0,a1
    ee14:	42855513          	srai	a0,a0,0x28
    ee18:	f4a43823          	sd	a0,-176(s0)
    ee1c:	00a2c663          	blt	t0,a0,ee28 <.LBB69_1820>
    ee20:	f7f00513          	li	a0,-129
    ee24:	f4a43823          	sd	a0,-176(s0)

000000000000ee28 <.LBB69_1820>:
    ee28:	00001537          	lui	a0,0x1
    ee2c:	40a40533          	sub	a0,s0,a0
    ee30:	7b053503          	ld	a0,1968(a0) # 17b0 <.LBB69_5+0x394>
    ee34:	02750533          	mul	a0,a0,t2
    ee38:	000015b7          	lui	a1,0x1
    ee3c:	40b405b3          	sub	a1,s0,a1
    ee40:	7a85b583          	ld	a1,1960(a1) # 17a8 <.LBB69_5+0x38c>
    ee44:	006585b3          	add	a1,a1,t1
    ee48:	00b50533          	add	a0,a0,a1
    ee4c:	42855513          	srai	a0,a0,0x28
    ee50:	f4a43423          	sd	a0,-184(s0)
    ee54:	00a2c663          	blt	t0,a0,ee60 <.LBB69_1822>
    ee58:	f7f00513          	li	a0,-129
    ee5c:	f4a43423          	sd	a0,-184(s0)

000000000000ee60 <.LBB69_1822>:
    ee60:	00001537          	lui	a0,0x1
    ee64:	40a40533          	sub	a0,s0,a0
    ee68:	7e053503          	ld	a0,2016(a0) # 17e0 <.LBB69_5+0x3c4>
    ee6c:	02750533          	mul	a0,a0,t2
    ee70:	000015b7          	lui	a1,0x1
    ee74:	40b405b3          	sub	a1,s0,a1
    ee78:	7d85b583          	ld	a1,2008(a1) # 17d8 <.LBB69_5+0x3bc>
    ee7c:	006585b3          	add	a1,a1,t1
    ee80:	00b50533          	add	a0,a0,a1
    ee84:	42855513          	srai	a0,a0,0x28
    ee88:	f4a43023          	sd	a0,-192(s0)
    ee8c:	00a2c663          	blt	t0,a0,ee98 <.LBB69_1824>
    ee90:	f7f00513          	li	a0,-129
    ee94:	f4a43023          	sd	a0,-192(s0)

000000000000ee98 <.LBB69_1824>:
    ee98:	80843503          	ld	a0,-2040(s0)
    ee9c:	02750533          	mul	a0,a0,t2
    eea0:	80043583          	ld	a1,-2048(s0)
    eea4:	006585b3          	add	a1,a1,t1
    eea8:	00b50533          	add	a0,a0,a1
    eeac:	42855513          	srai	a0,a0,0x28
    eeb0:	f2a43c23          	sd	a0,-200(s0)
    eeb4:	00a2c663          	blt	t0,a0,eec0 <.LBB69_1826>
    eeb8:	f7f00513          	li	a0,-129
    eebc:	f2a43c23          	sd	a0,-200(s0)

000000000000eec0 <.LBB69_1826>:
    eec0:	83043503          	ld	a0,-2000(s0)
    eec4:	02750533          	mul	a0,a0,t2
    eec8:	82843583          	ld	a1,-2008(s0)
    eecc:	006585b3          	add	a1,a1,t1
    eed0:	00b50533          	add	a0,a0,a1
    eed4:	42855513          	srai	a0,a0,0x28
    eed8:	f2a43823          	sd	a0,-208(s0)
    eedc:	00a2c663          	blt	t0,a0,eee8 <.LBB69_1828>
    eee0:	f7f00513          	li	a0,-129
    eee4:	f2a43823          	sd	a0,-208(s0)

000000000000eee8 <.LBB69_1828>:
    eee8:	85843503          	ld	a0,-1960(s0)
    eeec:	02750533          	mul	a0,a0,t2
    eef0:	85043583          	ld	a1,-1968(s0)
    eef4:	006585b3          	add	a1,a1,t1
    eef8:	00b50533          	add	a0,a0,a1
    eefc:	42855513          	srai	a0,a0,0x28
    ef00:	f2a43423          	sd	a0,-216(s0)
    ef04:	00a2c663          	blt	t0,a0,ef10 <.LBB69_1830>
    ef08:	f7f00513          	li	a0,-129
    ef0c:	f2a43423          	sd	a0,-216(s0)

000000000000ef10 <.LBB69_1830>:
    ef10:	88043503          	ld	a0,-1920(s0)
    ef14:	02750533          	mul	a0,a0,t2
    ef18:	87843583          	ld	a1,-1928(s0)
    ef1c:	006585b3          	add	a1,a1,t1
    ef20:	00b50533          	add	a0,a0,a1
    ef24:	42855513          	srai	a0,a0,0x28
    ef28:	f2a43023          	sd	a0,-224(s0)
    ef2c:	00a2c663          	blt	t0,a0,ef38 <.LBB69_1832>
    ef30:	f7f00513          	li	a0,-129
    ef34:	f2a43023          	sd	a0,-224(s0)

000000000000ef38 <.LBB69_1832>:
    ef38:	8a843503          	ld	a0,-1880(s0)
    ef3c:	02750533          	mul	a0,a0,t2
    ef40:	8a043583          	ld	a1,-1888(s0)
    ef44:	006585b3          	add	a1,a1,t1
    ef48:	00b50533          	add	a0,a0,a1
    ef4c:	42855513          	srai	a0,a0,0x28
    ef50:	f0a43c23          	sd	a0,-232(s0)
    ef54:	00a2c663          	blt	t0,a0,ef60 <.LBB69_1834>
    ef58:	f7f00513          	li	a0,-129
    ef5c:	f0a43c23          	sd	a0,-232(s0)

000000000000ef60 <.LBB69_1834>:
    ef60:	8d043503          	ld	a0,-1840(s0)
    ef64:	02750533          	mul	a0,a0,t2
    ef68:	8c843583          	ld	a1,-1848(s0)
    ef6c:	006585b3          	add	a1,a1,t1
    ef70:	00b50533          	add	a0,a0,a1
    ef74:	42855513          	srai	a0,a0,0x28
    ef78:	f0a43823          	sd	a0,-240(s0)
    ef7c:	00a2c663          	blt	t0,a0,ef88 <.LBB69_1836>
    ef80:	f7f00513          	li	a0,-129
    ef84:	f0a43823          	sd	a0,-240(s0)

000000000000ef88 <.LBB69_1836>:
    ef88:	8f843503          	ld	a0,-1800(s0)
    ef8c:	02750533          	mul	a0,a0,t2
    ef90:	8f043583          	ld	a1,-1808(s0)
    ef94:	006585b3          	add	a1,a1,t1
    ef98:	00b50533          	add	a0,a0,a1
    ef9c:	42855513          	srai	a0,a0,0x28
    efa0:	f0a43423          	sd	a0,-248(s0)
    efa4:	00a2c663          	blt	t0,a0,efb0 <.LBB69_1838>
    efa8:	f7f00513          	li	a0,-129
    efac:	f0a43423          	sd	a0,-248(s0)

000000000000efb0 <.LBB69_1838>:
    efb0:	92043503          	ld	a0,-1760(s0)
    efb4:	02750533          	mul	a0,a0,t2
    efb8:	91843583          	ld	a1,-1768(s0)
    efbc:	006585b3          	add	a1,a1,t1
    efc0:	00b50533          	add	a0,a0,a1
    efc4:	42855513          	srai	a0,a0,0x28
    efc8:	f0a43023          	sd	a0,-256(s0)
    efcc:	00a2c663          	blt	t0,a0,efd8 <.LBB69_1840>
    efd0:	f7f00513          	li	a0,-129
    efd4:	f0a43023          	sd	a0,-256(s0)

000000000000efd8 <.LBB69_1840>:
    efd8:	95843503          	ld	a0,-1704(s0)
    efdc:	02750533          	mul	a0,a0,t2
    efe0:	94043583          	ld	a1,-1728(s0)
    efe4:	006585b3          	add	a1,a1,t1
    efe8:	00b50533          	add	a0,a0,a1
    efec:	42855513          	srai	a0,a0,0x28
    eff0:	eea43c23          	sd	a0,-264(s0)
    eff4:	00a2c663          	blt	t0,a0,f000 <.LBB69_1842>
    eff8:	f7f00513          	li	a0,-129
    effc:	eea43c23          	sd	a0,-264(s0)

000000000000f000 <.LBB69_1842>:
    f000:	98843503          	ld	a0,-1656(s0)
    f004:	02750533          	mul	a0,a0,t2
    f008:	97843583          	ld	a1,-1672(s0)
    f00c:	006585b3          	add	a1,a1,t1
    f010:	00b50533          	add	a0,a0,a1
    f014:	42855513          	srai	a0,a0,0x28
    f018:	eea43823          	sd	a0,-272(s0)
    f01c:	00a2c663          	blt	t0,a0,f028 <.LBB69_1844>
    f020:	f7f00513          	li	a0,-129
    f024:	eea43823          	sd	a0,-272(s0)

000000000000f028 <.LBB69_1844>:
    f028:	9a843503          	ld	a0,-1624(s0)
    f02c:	02750533          	mul	a0,a0,t2
    f030:	99843583          	ld	a1,-1640(s0)
    f034:	006585b3          	add	a1,a1,t1
    f038:	00b50533          	add	a0,a0,a1
    f03c:	42855513          	srai	a0,a0,0x28
    f040:	eea43423          	sd	a0,-280(s0)
    f044:	00a2c663          	blt	t0,a0,f050 <.LBB69_1846>
    f048:	f7f00513          	li	a0,-129
    f04c:	eea43423          	sd	a0,-280(s0)

000000000000f050 <.LBB69_1846>:
    f050:	9c843503          	ld	a0,-1592(s0)
    f054:	02750533          	mul	a0,a0,t2
    f058:	9c043583          	ld	a1,-1600(s0)
    f05c:	006585b3          	add	a1,a1,t1
    f060:	00b50533          	add	a0,a0,a1
    f064:	42855513          	srai	a0,a0,0x28
    f068:	eca43c23          	sd	a0,-296(s0)
    f06c:	00a2c663          	blt	t0,a0,f078 <.LBB69_1848>
    f070:	f7f00513          	li	a0,-129
    f074:	eca43c23          	sd	a0,-296(s0)

000000000000f078 <.LBB69_1848>:
    f078:	9e843503          	ld	a0,-1560(s0)
    f07c:	02750533          	mul	a0,a0,t2
    f080:	9e043583          	ld	a1,-1568(s0)
    f084:	006585b3          	add	a1,a1,t1
    f088:	00b50533          	add	a0,a0,a1
    f08c:	42855513          	srai	a0,a0,0x28
    f090:	eca43423          	sd	a0,-312(s0)
    f094:	00a2c663          	blt	t0,a0,f0a0 <.LBB69_1850>
    f098:	f7f00513          	li	a0,-129
    f09c:	eca43423          	sd	a0,-312(s0)

000000000000f0a0 <.LBB69_1850>:
    f0a0:	9f843503          	ld	a0,-1544(s0)
    f0a4:	02750533          	mul	a0,a0,t2
    f0a8:	9f043583          	ld	a1,-1552(s0)
    f0ac:	006585b3          	add	a1,a1,t1
    f0b0:	00b50533          	add	a0,a0,a1
    f0b4:	42855513          	srai	a0,a0,0x28
    f0b8:	eaa43c23          	sd	a0,-328(s0)
    f0bc:	00a2c663          	blt	t0,a0,f0c8 <.LBB69_1852>
    f0c0:	f7f00513          	li	a0,-129
    f0c4:	eaa43c23          	sd	a0,-328(s0)

000000000000f0c8 <.LBB69_1852>:
    f0c8:	a0843503          	ld	a0,-1528(s0)
    f0cc:	02750533          	mul	a0,a0,t2
    f0d0:	a0043583          	ld	a1,-1536(s0)
    f0d4:	006585b3          	add	a1,a1,t1
    f0d8:	00b50533          	add	a0,a0,a1
    f0dc:	42855513          	srai	a0,a0,0x28
    f0e0:	eaa43423          	sd	a0,-344(s0)
    f0e4:	00a2c663          	blt	t0,a0,f0f0 <.LBB69_1854>
    f0e8:	f7f00513          	li	a0,-129
    f0ec:	eaa43423          	sd	a0,-344(s0)

000000000000f0f0 <.LBB69_1854>:
    f0f0:	a1843503          	ld	a0,-1512(s0)
    f0f4:	02750533          	mul	a0,a0,t2
    f0f8:	a1043583          	ld	a1,-1520(s0)
    f0fc:	006585b3          	add	a1,a1,t1
    f100:	00b50533          	add	a0,a0,a1
    f104:	42855513          	srai	a0,a0,0x28
    f108:	e8a43c23          	sd	a0,-360(s0)
    f10c:	00a2c663          	blt	t0,a0,f118 <.LBB69_1856>
    f110:	f7f00513          	li	a0,-129
    f114:	e8a43c23          	sd	a0,-360(s0)

000000000000f118 <.LBB69_1856>:
    f118:	a2843503          	ld	a0,-1496(s0)
    f11c:	02750533          	mul	a0,a0,t2
    f120:	a2043583          	ld	a1,-1504(s0)
    f124:	006585b3          	add	a1,a1,t1
    f128:	00b50533          	add	a0,a0,a1
    f12c:	42855513          	srai	a0,a0,0x28
    f130:	e8a43423          	sd	a0,-376(s0)
    f134:	00a2c663          	blt	t0,a0,f140 <.LBB69_1858>
    f138:	f7f00513          	li	a0,-129
    f13c:	e8a43423          	sd	a0,-376(s0)

000000000000f140 <.LBB69_1858>:
    f140:	a3843503          	ld	a0,-1480(s0)
    f144:	02750533          	mul	a0,a0,t2
    f148:	a3043583          	ld	a1,-1488(s0)
    f14c:	006585b3          	add	a1,a1,t1
    f150:	00b50533          	add	a0,a0,a1
    f154:	42855513          	srai	a0,a0,0x28
    f158:	e6a43c23          	sd	a0,-392(s0)
    f15c:	00a2c663          	blt	t0,a0,f168 <.LBB69_1860>
    f160:	f7f00513          	li	a0,-129
    f164:	e6a43c23          	sd	a0,-392(s0)

000000000000f168 <.LBB69_1860>:
    f168:	a4843503          	ld	a0,-1464(s0)
    f16c:	02750533          	mul	a0,a0,t2
    f170:	a4043583          	ld	a1,-1472(s0)
    f174:	006585b3          	add	a1,a1,t1
    f178:	00b50533          	add	a0,a0,a1
    f17c:	42855513          	srai	a0,a0,0x28
    f180:	e6a43423          	sd	a0,-408(s0)
    f184:	00a2c663          	blt	t0,a0,f190 <.LBB69_1862>
    f188:	f7f00513          	li	a0,-129
    f18c:	e6a43423          	sd	a0,-408(s0)

000000000000f190 <.LBB69_1862>:
    f190:	a5843503          	ld	a0,-1448(s0)
    f194:	02750533          	mul	a0,a0,t2
    f198:	a5043583          	ld	a1,-1456(s0)
    f19c:	006585b3          	add	a1,a1,t1
    f1a0:	00b50533          	add	a0,a0,a1
    f1a4:	42855513          	srai	a0,a0,0x28
    f1a8:	e4a43c23          	sd	a0,-424(s0)
    f1ac:	00a2c663          	blt	t0,a0,f1b8 <.LBB69_1864>
    f1b0:	f7f00513          	li	a0,-129
    f1b4:	e4a43c23          	sd	a0,-424(s0)

000000000000f1b8 <.LBB69_1864>:
    f1b8:	a6843503          	ld	a0,-1432(s0)
    f1bc:	02750533          	mul	a0,a0,t2
    f1c0:	a6043583          	ld	a1,-1440(s0)
    f1c4:	006585b3          	add	a1,a1,t1
    f1c8:	00b50533          	add	a0,a0,a1
    f1cc:	42855513          	srai	a0,a0,0x28
    f1d0:	c4a43423          	sd	a0,-952(s0)
    f1d4:	00a2c663          	blt	t0,a0,f1e0 <.LBB69_1866>
    f1d8:	f7f00513          	li	a0,-129
    f1dc:	c4a43423          	sd	a0,-952(s0)

000000000000f1e0 <.LBB69_1866>:
    f1e0:	02748533          	mul	a0,s1,t2
    f1e4:	000015b7          	lui	a1,0x1
    f1e8:	40b405b3          	sub	a1,s0,a1
    f1ec:	6085b583          	ld	a1,1544(a1) # 1608 <.LBB69_5+0x1ec>
    f1f0:	006585b3          	add	a1,a1,t1
    f1f4:	00b50533          	add	a0,a0,a1
    f1f8:	42855513          	srai	a0,a0,0x28
    f1fc:	eea43023          	sd	a0,-288(s0)
    f200:	00a2c663          	blt	t0,a0,f20c <.LBB69_1868>
    f204:	f7f00513          	li	a0,-129
    f208:	eea43023          	sd	a0,-288(s0)

000000000000f20c <.LBB69_1868>:
    f20c:	02798533          	mul	a0,s3,t2
    f210:	000015b7          	lui	a1,0x1
    f214:	40b405b3          	sub	a1,s0,a1
    f218:	6485b583          	ld	a1,1608(a1) # 1648 <.LBB69_5+0x22c>
    f21c:	006585b3          	add	a1,a1,t1
    f220:	00b50533          	add	a0,a0,a1
    f224:	42855513          	srai	a0,a0,0x28
    f228:	eca43823          	sd	a0,-304(s0)
    f22c:	00a2c663          	blt	t0,a0,f238 <.LBB69_1870>
    f230:	f7f00513          	li	a0,-129
    f234:	eca43823          	sd	a0,-304(s0)

000000000000f238 <.LBB69_1870>:
    f238:	00001537          	lui	a0,0x1
    f23c:	40a40533          	sub	a0,s0,a0
    f240:	61053503          	ld	a0,1552(a0) # 1610 <.LBB69_5+0x1f4>
    f244:	02750533          	mul	a0,a0,t2
    f248:	000015b7          	lui	a1,0x1
    f24c:	40b405b3          	sub	a1,s0,a1
    f250:	6685b583          	ld	a1,1640(a1) # 1668 <.LBB69_5+0x24c>
    f254:	006585b3          	add	a1,a1,t1
    f258:	00b50533          	add	a0,a0,a1
    f25c:	42855513          	srai	a0,a0,0x28
    f260:	eca43023          	sd	a0,-320(s0)
    f264:	00a2c663          	blt	t0,a0,f270 <.LBB69_1872>
    f268:	f7f00513          	li	a0,-129
    f26c:	eca43023          	sd	a0,-320(s0)

000000000000f270 <.LBB69_1872>:
    f270:	00001537          	lui	a0,0x1
    f274:	40a40533          	sub	a0,s0,a0
    f278:	63053503          	ld	a0,1584(a0) # 1630 <.LBB69_5+0x214>
    f27c:	02750533          	mul	a0,a0,t2
    f280:	000015b7          	lui	a1,0x1
    f284:	40b405b3          	sub	a1,s0,a1
    f288:	6885b583          	ld	a1,1672(a1) # 1688 <.LBB69_5+0x26c>
    f28c:	006585b3          	add	a1,a1,t1
    f290:	00b50533          	add	a0,a0,a1
    f294:	42855513          	srai	a0,a0,0x28
    f298:	eaa43823          	sd	a0,-336(s0)
    f29c:	00a2c663          	blt	t0,a0,f2a8 <.LBB69_1874>
    f2a0:	f7f00513          	li	a0,-129
    f2a4:	eaa43823          	sd	a0,-336(s0)

000000000000f2a8 <.LBB69_1874>:
    f2a8:	00001537          	lui	a0,0x1
    f2ac:	40a40533          	sub	a0,s0,a0
    f2b0:	63853503          	ld	a0,1592(a0) # 1638 <.LBB69_5+0x21c>
    f2b4:	02750533          	mul	a0,a0,t2
    f2b8:	000015b7          	lui	a1,0x1
    f2bc:	40b405b3          	sub	a1,s0,a1
    f2c0:	6a05b583          	ld	a1,1696(a1) # 16a0 <.LBB69_5+0x284>
    f2c4:	006585b3          	add	a1,a1,t1
    f2c8:	00b50533          	add	a0,a0,a1
    f2cc:	42855513          	srai	a0,a0,0x28
    f2d0:	eaa43023          	sd	a0,-352(s0)
    f2d4:	00a2c663          	blt	t0,a0,f2e0 <.LBB69_1876>
    f2d8:	f7f00513          	li	a0,-129
    f2dc:	eaa43023          	sd	a0,-352(s0)

000000000000f2e0 <.LBB69_1876>:
    f2e0:	00001537          	lui	a0,0x1
    f2e4:	40a40533          	sub	a0,s0,a0
    f2e8:	6d053503          	ld	a0,1744(a0) # 16d0 <.LBB69_5+0x2b4>
    f2ec:	02750533          	mul	a0,a0,t2
    f2f0:	000015b7          	lui	a1,0x1
    f2f4:	40b405b3          	sub	a1,s0,a1
    f2f8:	6c85b583          	ld	a1,1736(a1) # 16c8 <.LBB69_5+0x2ac>
    f2fc:	006585b3          	add	a1,a1,t1
    f300:	00b50533          	add	a0,a0,a1
    f304:	42855513          	srai	a0,a0,0x28
    f308:	e8a43823          	sd	a0,-368(s0)
    f30c:	00a2c663          	blt	t0,a0,f318 <.LBB69_1878>
    f310:	f7f00513          	li	a0,-129
    f314:	e8a43823          	sd	a0,-368(s0)

000000000000f318 <.LBB69_1878>:
    f318:	00001537          	lui	a0,0x1
    f31c:	40a40533          	sub	a0,s0,a0
    f320:	70053503          	ld	a0,1792(a0) # 1700 <.LBB69_5+0x2e4>
    f324:	02750533          	mul	a0,a0,t2
    f328:	000015b7          	lui	a1,0x1
    f32c:	40b405b3          	sub	a1,s0,a1
    f330:	6f85b583          	ld	a1,1784(a1) # 16f8 <.LBB69_5+0x2dc>
    f334:	006585b3          	add	a1,a1,t1
    f338:	00b50533          	add	a0,a0,a1
    f33c:	42855513          	srai	a0,a0,0x28
    f340:	e8a43023          	sd	a0,-384(s0)
    f344:	00a2c663          	blt	t0,a0,f350 <.LBB69_1880>
    f348:	f7f00513          	li	a0,-129
    f34c:	e8a43023          	sd	a0,-384(s0)

000000000000f350 <.LBB69_1880>:
    f350:	00001537          	lui	a0,0x1
    f354:	40a40533          	sub	a0,s0,a0
    f358:	73053503          	ld	a0,1840(a0) # 1730 <.LBB69_5+0x314>
    f35c:	02750533          	mul	a0,a0,t2
    f360:	000015b7          	lui	a1,0x1
    f364:	40b405b3          	sub	a1,s0,a1
    f368:	7285b583          	ld	a1,1832(a1) # 1728 <.LBB69_5+0x30c>
    f36c:	006585b3          	add	a1,a1,t1
    f370:	00b50533          	add	a0,a0,a1
    f374:	42855513          	srai	a0,a0,0x28
    f378:	e6a43823          	sd	a0,-400(s0)
    f37c:	00a2c663          	blt	t0,a0,f388 <.LBB69_1882>
    f380:	f7f00513          	li	a0,-129
    f384:	e6a43823          	sd	a0,-400(s0)

000000000000f388 <.LBB69_1882>:
    f388:	00001537          	lui	a0,0x1
    f38c:	40a40533          	sub	a0,s0,a0
    f390:	76853503          	ld	a0,1896(a0) # 1768 <.LBB69_5+0x34c>
    f394:	02750533          	mul	a0,a0,t2
    f398:	000015b7          	lui	a1,0x1
    f39c:	40b405b3          	sub	a1,s0,a1
    f3a0:	7585b583          	ld	a1,1880(a1) # 1758 <.LBB69_5+0x33c>
    f3a4:	006585b3          	add	a1,a1,t1
    f3a8:	00b50533          	add	a0,a0,a1
    f3ac:	42855513          	srai	a0,a0,0x28
    f3b0:	e6a43023          	sd	a0,-416(s0)
    f3b4:	00a2c663          	blt	t0,a0,f3c0 <.LBB69_1884>
    f3b8:	f7f00513          	li	a0,-129
    f3bc:	e6a43023          	sd	a0,-416(s0)

000000000000f3c0 <.LBB69_1884>:
    f3c0:	00001537          	lui	a0,0x1
    f3c4:	40a40533          	sub	a0,s0,a0
    f3c8:	7a053503          	ld	a0,1952(a0) # 17a0 <.LBB69_5+0x384>
    f3cc:	02750533          	mul	a0,a0,t2
    f3d0:	000015b7          	lui	a1,0x1
    f3d4:	40b405b3          	sub	a1,s0,a1
    f3d8:	7905b583          	ld	a1,1936(a1) # 1790 <.LBB69_5+0x374>
    f3dc:	006585b3          	add	a1,a1,t1
    f3e0:	00b50533          	add	a0,a0,a1
    f3e4:	42855513          	srai	a0,a0,0x28
    f3e8:	e4a43823          	sd	a0,-432(s0)
    f3ec:	00a2c663          	blt	t0,a0,f3f8 <.LBB69_1886>
    f3f0:	f7f00513          	li	a0,-129
    f3f4:	e4a43823          	sd	a0,-432(s0)

000000000000f3f8 <.LBB69_1886>:
    f3f8:	00001537          	lui	a0,0x1
    f3fc:	40a40533          	sub	a0,s0,a0
    f400:	7d053503          	ld	a0,2000(a0) # 17d0 <.LBB69_5+0x3b4>
    f404:	02750533          	mul	a0,a0,t2
    f408:	000015b7          	lui	a1,0x1
    f40c:	40b405b3          	sub	a1,s0,a1
    f410:	7c85b583          	ld	a1,1992(a1) # 17c8 <.LBB69_5+0x3ac>
    f414:	006585b3          	add	a1,a1,t1
    f418:	00b50533          	add	a0,a0,a1
    f41c:	42855513          	srai	a0,a0,0x28
    f420:	e4a43423          	sd	a0,-440(s0)
    f424:	00a2c663          	blt	t0,a0,f430 <.LBB69_1888>
    f428:	f7f00513          	li	a0,-129
    f42c:	e4a43423          	sd	a0,-440(s0)

000000000000f430 <.LBB69_1888>:
    f430:	00001537          	lui	a0,0x1
    f434:	40a40533          	sub	a0,s0,a0
    f438:	7f853503          	ld	a0,2040(a0) # 17f8 <.LBB69_5+0x3dc>
    f43c:	02750533          	mul	a0,a0,t2
    f440:	000015b7          	lui	a1,0x1
    f444:	40b405b3          	sub	a1,s0,a1
    f448:	7f05b583          	ld	a1,2032(a1) # 17f0 <.LBB69_5+0x3d4>
    f44c:	006585b3          	add	a1,a1,t1
    f450:	00b50533          	add	a0,a0,a1
    f454:	42855513          	srai	a0,a0,0x28
    f458:	e4a43023          	sd	a0,-448(s0)
    f45c:	00a2c663          	blt	t0,a0,f468 <.LBB69_1890>
    f460:	f7f00513          	li	a0,-129
    f464:	e4a43023          	sd	a0,-448(s0)

000000000000f468 <.LBB69_1890>:
    f468:	82043503          	ld	a0,-2016(s0)
    f46c:	02750533          	mul	a0,a0,t2
    f470:	81843583          	ld	a1,-2024(s0)
    f474:	006585b3          	add	a1,a1,t1
    f478:	00b50533          	add	a0,a0,a1
    f47c:	42855513          	srai	a0,a0,0x28
    f480:	e2a43c23          	sd	a0,-456(s0)
    f484:	00a2c663          	blt	t0,a0,f490 <.LBB69_1892>
    f488:	f7f00513          	li	a0,-129
    f48c:	e2a43c23          	sd	a0,-456(s0)

000000000000f490 <.LBB69_1892>:
    f490:	84843503          	ld	a0,-1976(s0)
    f494:	02750533          	mul	a0,a0,t2
    f498:	84043583          	ld	a1,-1984(s0)
    f49c:	006585b3          	add	a1,a1,t1
    f4a0:	00b50533          	add	a0,a0,a1
    f4a4:	42855513          	srai	a0,a0,0x28
    f4a8:	e2a43823          	sd	a0,-464(s0)
    f4ac:	00a2c663          	blt	t0,a0,f4b8 <.LBB69_1894>
    f4b0:	f7f00513          	li	a0,-129
    f4b4:	e2a43823          	sd	a0,-464(s0)

000000000000f4b8 <.LBB69_1894>:
    f4b8:	87043503          	ld	a0,-1936(s0)
    f4bc:	02750533          	mul	a0,a0,t2
    f4c0:	86843583          	ld	a1,-1944(s0)
    f4c4:	006585b3          	add	a1,a1,t1
    f4c8:	00b50533          	add	a0,a0,a1
    f4cc:	42855513          	srai	a0,a0,0x28
    f4d0:	e2a43423          	sd	a0,-472(s0)
    f4d4:	00a2c663          	blt	t0,a0,f4e0 <.LBB69_1896>
    f4d8:	f7f00513          	li	a0,-129
    f4dc:	e2a43423          	sd	a0,-472(s0)

000000000000f4e0 <.LBB69_1896>:
    f4e0:	89843503          	ld	a0,-1896(s0)
    f4e4:	02750533          	mul	a0,a0,t2
    f4e8:	89043583          	ld	a1,-1904(s0)
    f4ec:	006585b3          	add	a1,a1,t1
    f4f0:	00b50533          	add	a0,a0,a1
    f4f4:	42855513          	srai	a0,a0,0x28
    f4f8:	e2a43023          	sd	a0,-480(s0)
    f4fc:	00a2c663          	blt	t0,a0,f508 <.LBB69_1898>
    f500:	f7f00513          	li	a0,-129
    f504:	e2a43023          	sd	a0,-480(s0)

000000000000f508 <.LBB69_1898>:
    f508:	8c043503          	ld	a0,-1856(s0)
    f50c:	02750533          	mul	a0,a0,t2
    f510:	8b843583          	ld	a1,-1864(s0)
    f514:	006585b3          	add	a1,a1,t1
    f518:	00b50533          	add	a0,a0,a1
    f51c:	42855513          	srai	a0,a0,0x28
    f520:	e0a43c23          	sd	a0,-488(s0)
    f524:	00a2c663          	blt	t0,a0,f530 <.LBB69_1900>
    f528:	f7f00513          	li	a0,-129
    f52c:	e0a43c23          	sd	a0,-488(s0)

000000000000f530 <.LBB69_1900>:
    f530:	8e843503          	ld	a0,-1816(s0)
    f534:	02750533          	mul	a0,a0,t2
    f538:	8e043583          	ld	a1,-1824(s0)
    f53c:	006585b3          	add	a1,a1,t1
    f540:	00b50533          	add	a0,a0,a1
    f544:	42855513          	srai	a0,a0,0x28
    f548:	e0a43823          	sd	a0,-496(s0)
    f54c:	00a2c663          	blt	t0,a0,f558 <.LBB69_1902>
    f550:	f7f00513          	li	a0,-129
    f554:	e0a43823          	sd	a0,-496(s0)

000000000000f558 <.LBB69_1902>:
    f558:	91043503          	ld	a0,-1776(s0)
    f55c:	02750533          	mul	a0,a0,t2
    f560:	90843583          	ld	a1,-1784(s0)
    f564:	006585b3          	add	a1,a1,t1
    f568:	00b50533          	add	a0,a0,a1
    f56c:	42855513          	srai	a0,a0,0x28
    f570:	e0a43423          	sd	a0,-504(s0)
    f574:	00a2c663          	blt	t0,a0,f580 <.LBB69_1904>
    f578:	f7f00513          	li	a0,-129
    f57c:	e0a43423          	sd	a0,-504(s0)

000000000000f580 <.LBB69_1904>:
    f580:	93843503          	ld	a0,-1736(s0)
    f584:	02750533          	mul	a0,a0,t2
    f588:	93043583          	ld	a1,-1744(s0)
    f58c:	006585b3          	add	a1,a1,t1
    f590:	00b50533          	add	a0,a0,a1
    f594:	42855513          	srai	a0,a0,0x28
    f598:	e0a43023          	sd	a0,-512(s0)
    f59c:	00a2c663          	blt	t0,a0,f5a8 <.LBB69_1906>
    f5a0:	f7f00513          	li	a0,-129
    f5a4:	e0a43023          	sd	a0,-512(s0)

000000000000f5a8 <.LBB69_1906>:
    f5a8:	96043503          	ld	a0,-1696(s0)
    f5ac:	02750533          	mul	a0,a0,t2
    f5b0:	95043583          	ld	a1,-1712(s0)
    f5b4:	006585b3          	add	a1,a1,t1
    f5b8:	00b50533          	add	a0,a0,a1
    f5bc:	42855513          	srai	a0,a0,0x28
    f5c0:	dea43c23          	sd	a0,-520(s0)
    f5c4:	00a2c663          	blt	t0,a0,f5d0 <.LBB69_1908>
    f5c8:	f7f00513          	li	a0,-129
    f5cc:	dea43c23          	sd	a0,-520(s0)

000000000000f5d0 <.LBB69_1908>:
    f5d0:	98043503          	ld	a0,-1664(s0)
    f5d4:	02750533          	mul	a0,a0,t2
    f5d8:	97043583          	ld	a1,-1680(s0)
    f5dc:	006585b3          	add	a1,a1,t1
    f5e0:	00b50533          	add	a0,a0,a1
    f5e4:	42855513          	srai	a0,a0,0x28
    f5e8:	dea43823          	sd	a0,-528(s0)
    f5ec:	00a2c663          	blt	t0,a0,f5f8 <.LBB69_1910>
    f5f0:	f7f00513          	li	a0,-129
    f5f4:	dea43823          	sd	a0,-528(s0)

000000000000f5f8 <.LBB69_1910>:
    f5f8:	9a043503          	ld	a0,-1632(s0)
    f5fc:	02750533          	mul	a0,a0,t2
    f600:	99043583          	ld	a1,-1648(s0)
    f604:	006585b3          	add	a1,a1,t1
    f608:	00b50533          	add	a0,a0,a1
    f60c:	42855513          	srai	a0,a0,0x28
    f610:	dea43023          	sd	a0,-544(s0)
    f614:	00a2c663          	blt	t0,a0,f620 <.LBB69_1912>
    f618:	f7f00513          	li	a0,-129
    f61c:	dea43023          	sd	a0,-544(s0)

000000000000f620 <.LBB69_1912>:
    f620:	9b843503          	ld	a0,-1608(s0)
    f624:	02750533          	mul	a0,a0,t2
    f628:	9b043583          	ld	a1,-1616(s0)
    f62c:	006585b3          	add	a1,a1,t1
    f630:	00b50533          	add	a0,a0,a1
    f634:	42855513          	srai	a0,a0,0x28
    f638:	dca43823          	sd	a0,-560(s0)
    f63c:	00a2c663          	blt	t0,a0,f648 <.LBB69_1914>
    f640:	f7f00513          	li	a0,-129
    f644:	dca43823          	sd	a0,-560(s0)

000000000000f648 <.LBB69_1914>:
    f648:	9d843503          	ld	a0,-1576(s0)
    f64c:	02750533          	mul	a0,a0,t2
    f650:	9d043583          	ld	a1,-1584(s0)
    f654:	006585b3          	add	a1,a1,t1
    f658:	00b50533          	add	a0,a0,a1
    f65c:	42855513          	srai	a0,a0,0x28
    f660:	dca43023          	sd	a0,-576(s0)
    f664:	00a2c663          	blt	t0,a0,f670 <.LBB69_1916>
    f668:	f7f00513          	li	a0,-129
    f66c:	dca43023          	sd	a0,-576(s0)

000000000000f670 <.LBB69_1916>:
    f670:	b8043503          	ld	a0,-1152(s0)
    f674:	02750533          	mul	a0,a0,t2
    f678:	b0043583          	ld	a1,-1280(s0)
    f67c:	006585b3          	add	a1,a1,t1
    f680:	00b50533          	add	a0,a0,a1
    f684:	42855513          	srai	a0,a0,0x28
    f688:	daa43823          	sd	a0,-592(s0)
    f68c:	00a2c663          	blt	t0,a0,f698 <.LBB69_1918>
    f690:	f7f00513          	li	a0,-129
    f694:	daa43823          	sd	a0,-592(s0)

000000000000f698 <.LBB69_1918>:
    f698:	ba043503          	ld	a0,-1120(s0)
    f69c:	02750533          	mul	a0,a0,t2
    f6a0:	b9043583          	ld	a1,-1136(s0)
    f6a4:	006585b3          	add	a1,a1,t1
    f6a8:	00b50533          	add	a0,a0,a1
    f6ac:	42855513          	srai	a0,a0,0x28
    f6b0:	daa43023          	sd	a0,-608(s0)
    f6b4:	00a2c663          	blt	t0,a0,f6c0 <.LBB69_1920>
    f6b8:	f7f00513          	li	a0,-129
    f6bc:	daa43023          	sd	a0,-608(s0)

000000000000f6c0 <.LBB69_1920>:
    f6c0:	bc043503          	ld	a0,-1088(s0)
    f6c4:	02750533          	mul	a0,a0,t2
    f6c8:	bb043583          	ld	a1,-1104(s0)
    f6cc:	006585b3          	add	a1,a1,t1
    f6d0:	00b50533          	add	a0,a0,a1
    f6d4:	42855513          	srai	a0,a0,0x28
    f6d8:	d8a43823          	sd	a0,-624(s0)
    f6dc:	00a2c663          	blt	t0,a0,f6e8 <.LBB69_1922>
    f6e0:	f7f00513          	li	a0,-129
    f6e4:	d8a43823          	sd	a0,-624(s0)

000000000000f6e8 <.LBB69_1922>:
    f6e8:	be043503          	ld	a0,-1056(s0)
    f6ec:	02750533          	mul	a0,a0,t2
    f6f0:	bd043583          	ld	a1,-1072(s0)
    f6f4:	006585b3          	add	a1,a1,t1
    f6f8:	00b50533          	add	a0,a0,a1
    f6fc:	42855513          	srai	a0,a0,0x28
    f700:	d8a43023          	sd	a0,-640(s0)
    f704:	00a2c663          	blt	t0,a0,f710 <.LBB69_1924>
    f708:	f7f00513          	li	a0,-129
    f70c:	d8a43023          	sd	a0,-640(s0)

000000000000f710 <.LBB69_1924>:
    f710:	c1043503          	ld	a0,-1008(s0)
    f714:	02750533          	mul	a0,a0,t2
    f718:	be843583          	ld	a1,-1048(s0)
    f71c:	006585b3          	add	a1,a1,t1
    f720:	00b50533          	add	a0,a0,a1
    f724:	42855513          	srai	a0,a0,0x28
    f728:	d6a43823          	sd	a0,-656(s0)
    f72c:	00a2c663          	blt	t0,a0,f738 <.LBB69_1926>
    f730:	f7f00513          	li	a0,-129
    f734:	d6a43823          	sd	a0,-656(s0)

000000000000f738 <.LBB69_1926>:
    f738:	c0843503          	ld	a0,-1016(s0)
    f73c:	02750533          	mul	a0,a0,t2
    f740:	bf043583          	ld	a1,-1040(s0)
    f744:	006585b3          	add	a1,a1,t1
    f748:	00b50533          	add	a0,a0,a1
    f74c:	42855513          	srai	a0,a0,0x28
    f750:	d6a43023          	sd	a0,-672(s0)
    f754:	00a2c663          	blt	t0,a0,f760 <.LBB69_1928>
    f758:	f7f00513          	li	a0,-129
    f75c:	d6a43023          	sd	a0,-672(s0)

000000000000f760 <.LBB69_1928>:
    f760:	c0043503          	ld	a0,-1024(s0)
    f764:	02750533          	mul	a0,a0,t2
    f768:	bf843583          	ld	a1,-1032(s0)
    f76c:	006585b3          	add	a1,a1,t1
    f770:	00b50533          	add	a0,a0,a1
    f774:	42855513          	srai	a0,a0,0x28
    f778:	d4a43823          	sd	a0,-688(s0)
    f77c:	00a2c663          	blt	t0,a0,f788 <.LBB69_1930>
    f780:	f7f00513          	li	a0,-129
    f784:	d4a43823          	sd	a0,-688(s0)

000000000000f788 <.LBB69_1930>:
    f788:	02768533          	mul	a0,a3,t2
    f78c:	de843583          	ld	a1,-536(s0)
    f790:	006585b3          	add	a1,a1,t1
    f794:	00b50533          	add	a0,a0,a1
    f798:	42855513          	srai	a0,a0,0x28
    f79c:	dea43423          	sd	a0,-536(s0)
    f7a0:	00a2c663          	blt	t0,a0,f7ac <.LBB69_1932>
    f7a4:	f7f00513          	li	a0,-129
    f7a8:	dea43423          	sd	a0,-536(s0)

000000000000f7ac <.LBB69_1932>:
    f7ac:	027e0533          	mul	a0,t3,t2
    f7b0:	dd843583          	ld	a1,-552(s0)
    f7b4:	006585b3          	add	a1,a1,t1
    f7b8:	00b50533          	add	a0,a0,a1
    f7bc:	42855513          	srai	a0,a0,0x28
    f7c0:	dca43c23          	sd	a0,-552(s0)
    f7c4:	da843683          	ld	a3,-600(s0)
    f7c8:	00a2c663          	blt	t0,a0,f7d4 <.LBB69_1934>
    f7cc:	f7f00513          	li	a0,-129
    f7d0:	dca43c23          	sd	a0,-552(s0)

000000000000f7d4 <.LBB69_1934>:
    f7d4:	00001537          	lui	a0,0x1
    f7d8:	40a40533          	sub	a0,s0,a0
    f7dc:	61853503          	ld	a0,1560(a0) # 1618 <.LBB69_5+0x1fc>
    f7e0:	02750533          	mul	a0,a0,t2
    f7e4:	dc843583          	ld	a1,-568(s0)
    f7e8:	006585b3          	add	a1,a1,t1
    f7ec:	00b50533          	add	a0,a0,a1
    f7f0:	42855513          	srai	a0,a0,0x28
    f7f4:	dca43423          	sd	a0,-568(s0)
    f7f8:	00a2c663          	blt	t0,a0,f804 <.LBB69_1936>
    f7fc:	f7f00513          	li	a0,-129
    f800:	dca43423          	sd	a0,-568(s0)

000000000000f804 <.LBB69_1936>:
    f804:	00001537          	lui	a0,0x1
    f808:	40a40533          	sub	a0,s0,a0
    f80c:	62053503          	ld	a0,1568(a0) # 1620 <.LBB69_5+0x204>
    f810:	02750533          	mul	a0,a0,t2
    f814:	db843583          	ld	a1,-584(s0)
    f818:	006585b3          	add	a1,a1,t1
    f81c:	00b50533          	add	a0,a0,a1
    f820:	42855513          	srai	a0,a0,0x28
    f824:	daa43c23          	sd	a0,-584(s0)
    f828:	00a2c663          	blt	t0,a0,f834 <.LBB69_1938>
    f82c:	f7f00513          	li	a0,-129
    f830:	daa43c23          	sd	a0,-584(s0)

000000000000f834 <.LBB69_1938>:
    f834:	00001537          	lui	a0,0x1
    f838:	40a40533          	sub	a0,s0,a0
    f83c:	62853503          	ld	a0,1576(a0) # 1628 <.LBB69_5+0x20c>
    f840:	02750533          	mul	a0,a0,t2
    f844:	006685b3          	add	a1,a3,t1
    f848:	00b50533          	add	a0,a0,a1
    f84c:	42855513          	srai	a0,a0,0x28
    f850:	daa43423          	sd	a0,-600(s0)
    f854:	00a2c663          	blt	t0,a0,f860 <.LBB69_1940>
    f858:	f7f00513          	li	a0,-129
    f85c:	daa43423          	sd	a0,-600(s0)

000000000000f860 <.LBB69_1940>:
    f860:	d9843503          	ld	a0,-616(s0)
    f864:	02750533          	mul	a0,a0,t2
    f868:	000015b7          	lui	a1,0x1
    f86c:	40b405b3          	sub	a1,s0,a1
    f870:	6c05b583          	ld	a1,1728(a1) # 16c0 <.LBB69_5+0x2a4>
    f874:	006585b3          	add	a1,a1,t1
    f878:	00b50533          	add	a0,a0,a1
    f87c:	42855513          	srai	a0,a0,0x28
    f880:	d8a43c23          	sd	a0,-616(s0)
    f884:	cd843683          	ld	a3,-808(s0)
    f888:	ca843e03          	ld	t3,-856(s0)
    f88c:	00a2c663          	blt	t0,a0,f898 <.LBB69_1942>
    f890:	f7f00513          	li	a0,-129
    f894:	d8a43c23          	sd	a0,-616(s0)

000000000000f898 <.LBB69_1942>:
    f898:	d8843503          	ld	a0,-632(s0)
    f89c:	02750533          	mul	a0,a0,t2
    f8a0:	000015b7          	lui	a1,0x1
    f8a4:	40b405b3          	sub	a1,s0,a1
    f8a8:	6f05b583          	ld	a1,1776(a1) # 16f0 <.LBB69_5+0x2d4>
    f8ac:	006585b3          	add	a1,a1,t1
    f8b0:	00b50533          	add	a0,a0,a1
    f8b4:	42855513          	srai	a0,a0,0x28
    f8b8:	d8a43423          	sd	a0,-632(s0)
    f8bc:	00a2c663          	blt	t0,a0,f8c8 <.LBB69_1944>
    f8c0:	f7f00513          	li	a0,-129
    f8c4:	d8a43423          	sd	a0,-632(s0)

000000000000f8c8 <.LBB69_1944>:
    f8c8:	d7843503          	ld	a0,-648(s0)
    f8cc:	02750533          	mul	a0,a0,t2
    f8d0:	000015b7          	lui	a1,0x1
    f8d4:	40b405b3          	sub	a1,s0,a1
    f8d8:	7205b583          	ld	a1,1824(a1) # 1720 <.LBB69_5+0x304>
    f8dc:	006585b3          	add	a1,a1,t1
    f8e0:	00b50533          	add	a0,a0,a1
    f8e4:	42855513          	srai	a0,a0,0x28
    f8e8:	d6a43c23          	sd	a0,-648(s0)
    f8ec:	00a2c663          	blt	t0,a0,f8f8 <.LBB69_1946>
    f8f0:	f7f00513          	li	a0,-129
    f8f4:	d6a43c23          	sd	a0,-648(s0)

000000000000f8f8 <.LBB69_1946>:
    f8f8:	d6843503          	ld	a0,-664(s0)
    f8fc:	02750533          	mul	a0,a0,t2
    f900:	000015b7          	lui	a1,0x1
    f904:	40b405b3          	sub	a1,s0,a1
    f908:	7505b583          	ld	a1,1872(a1) # 1750 <.LBB69_5+0x334>
    f90c:	006585b3          	add	a1,a1,t1
    f910:	00b50533          	add	a0,a0,a1
    f914:	42855513          	srai	a0,a0,0x28
    f918:	d6a43423          	sd	a0,-664(s0)
    f91c:	00a2c663          	blt	t0,a0,f928 <.LBB69_1948>
    f920:	f7f00513          	li	a0,-129
    f924:	d6a43423          	sd	a0,-664(s0)

000000000000f928 <.LBB69_1948>:
    f928:	d5843503          	ld	a0,-680(s0)
    f92c:	02750533          	mul	a0,a0,t2
    f930:	000015b7          	lui	a1,0x1
    f934:	40b405b3          	sub	a1,s0,a1
    f938:	7885b583          	ld	a1,1928(a1) # 1788 <.LBB69_5+0x36c>
    f93c:	006585b3          	add	a1,a1,t1
    f940:	00b50533          	add	a0,a0,a1
    f944:	42855513          	srai	a0,a0,0x28
    f948:	d4a43c23          	sd	a0,-680(s0)
    f94c:	00a2c663          	blt	t0,a0,f958 <.LBB69_1950>
    f950:	f7f00513          	li	a0,-129
    f954:	d4a43c23          	sd	a0,-680(s0)

000000000000f958 <.LBB69_1950>:
    f958:	d4843503          	ld	a0,-696(s0)
    f95c:	02750533          	mul	a0,a0,t2
    f960:	000015b7          	lui	a1,0x1
    f964:	40b405b3          	sub	a1,s0,a1
    f968:	7c05b583          	ld	a1,1984(a1) # 17c0 <.LBB69_5+0x3a4>
    f96c:	006585b3          	add	a1,a1,t1
    f970:	00b50533          	add	a0,a0,a1
    f974:	42855513          	srai	a0,a0,0x28
    f978:	d4a43423          	sd	a0,-696(s0)
    f97c:	00a2c663          	blt	t0,a0,f988 <.LBB69_1952>
    f980:	f7f00513          	li	a0,-129
    f984:	d4a43423          	sd	a0,-696(s0)

000000000000f988 <.LBB69_1952>:
    f988:	d4043503          	ld	a0,-704(s0)
    f98c:	02750533          	mul	a0,a0,t2
    f990:	000015b7          	lui	a1,0x1
    f994:	40b405b3          	sub	a1,s0,a1
    f998:	7e85b583          	ld	a1,2024(a1) # 17e8 <.LBB69_5+0x3cc>
    f99c:	006585b3          	add	a1,a1,t1
    f9a0:	00b50533          	add	a0,a0,a1
    f9a4:	42855513          	srai	a0,a0,0x28
    f9a8:	d4a43023          	sd	a0,-704(s0)
    f9ac:	00a2c663          	blt	t0,a0,f9b8 <.LBB69_1954>
    f9b0:	f7f00513          	li	a0,-129
    f9b4:	d4a43023          	sd	a0,-704(s0)

000000000000f9b8 <.LBB69_1954>:
    f9b8:	d3843503          	ld	a0,-712(s0)
    f9bc:	02750533          	mul	a0,a0,t2
    f9c0:	81043583          	ld	a1,-2032(s0)
    f9c4:	006585b3          	add	a1,a1,t1
    f9c8:	00b50533          	add	a0,a0,a1
    f9cc:	42855513          	srai	a0,a0,0x28
    f9d0:	d2a43c23          	sd	a0,-712(s0)
    f9d4:	00a2c663          	blt	t0,a0,f9e0 <.LBB69_1956>
    f9d8:	f7f00513          	li	a0,-129
    f9dc:	d2a43c23          	sd	a0,-712(s0)

000000000000f9e0 <.LBB69_1956>:
    f9e0:	d3043503          	ld	a0,-720(s0)
    f9e4:	02750533          	mul	a0,a0,t2
    f9e8:	83843583          	ld	a1,-1992(s0)
    f9ec:	006585b3          	add	a1,a1,t1
    f9f0:	00b50533          	add	a0,a0,a1
    f9f4:	42855513          	srai	a0,a0,0x28
    f9f8:	d2a43823          	sd	a0,-720(s0)
    f9fc:	00a2c663          	blt	t0,a0,fa08 <.LBB69_1958>
    fa00:	f7f00513          	li	a0,-129
    fa04:	d2a43823          	sd	a0,-720(s0)

000000000000fa08 <.LBB69_1958>:
    fa08:	d2843503          	ld	a0,-728(s0)
    fa0c:	02750533          	mul	a0,a0,t2
    fa10:	86043583          	ld	a1,-1952(s0)
    fa14:	006585b3          	add	a1,a1,t1
    fa18:	00b50533          	add	a0,a0,a1
    fa1c:	42855513          	srai	a0,a0,0x28
    fa20:	d2a43423          	sd	a0,-728(s0)
    fa24:	00a2c663          	blt	t0,a0,fa30 <.LBB69_1960>
    fa28:	f7f00513          	li	a0,-129
    fa2c:	d2a43423          	sd	a0,-728(s0)

000000000000fa30 <.LBB69_1960>:
    fa30:	d2043503          	ld	a0,-736(s0)
    fa34:	02750533          	mul	a0,a0,t2
    fa38:	88843583          	ld	a1,-1912(s0)
    fa3c:	006585b3          	add	a1,a1,t1
    fa40:	00b50533          	add	a0,a0,a1
    fa44:	42855513          	srai	a0,a0,0x28
    fa48:	d2a43023          	sd	a0,-736(s0)
    fa4c:	00a2c663          	blt	t0,a0,fa58 <.LBB69_1962>
    fa50:	f7f00513          	li	a0,-129
    fa54:	d2a43023          	sd	a0,-736(s0)

000000000000fa58 <.LBB69_1962>:
    fa58:	d1843503          	ld	a0,-744(s0)
    fa5c:	02750533          	mul	a0,a0,t2
    fa60:	8b043583          	ld	a1,-1872(s0)
    fa64:	006585b3          	add	a1,a1,t1
    fa68:	00b50533          	add	a0,a0,a1
    fa6c:	42855513          	srai	a0,a0,0x28
    fa70:	d0a43c23          	sd	a0,-744(s0)
    fa74:	00a2c663          	blt	t0,a0,fa80 <.LBB69_1964>
    fa78:	f7f00513          	li	a0,-129
    fa7c:	d0a43c23          	sd	a0,-744(s0)

000000000000fa80 <.LBB69_1964>:
    fa80:	d1043503          	ld	a0,-752(s0)
    fa84:	02750533          	mul	a0,a0,t2
    fa88:	8d843583          	ld	a1,-1832(s0)
    fa8c:	006585b3          	add	a1,a1,t1
    fa90:	00b50533          	add	a0,a0,a1
    fa94:	42855513          	srai	a0,a0,0x28
    fa98:	d0a43823          	sd	a0,-752(s0)
    fa9c:	00a2c663          	blt	t0,a0,faa8 <.LBB69_1966>
    faa0:	f7f00513          	li	a0,-129
    faa4:	d0a43823          	sd	a0,-752(s0)

000000000000faa8 <.LBB69_1966>:
    faa8:	d0843503          	ld	a0,-760(s0)
    faac:	02750533          	mul	a0,a0,t2
    fab0:	90043583          	ld	a1,-1792(s0)
    fab4:	006585b3          	add	a1,a1,t1
    fab8:	00b50533          	add	a0,a0,a1
    fabc:	42855513          	srai	a0,a0,0x28
    fac0:	d0a43423          	sd	a0,-760(s0)
    fac4:	00a2c663          	blt	t0,a0,fad0 <.LBB69_1968>
    fac8:	f7f00513          	li	a0,-129
    facc:	d0a43423          	sd	a0,-760(s0)

000000000000fad0 <.LBB69_1968>:
    fad0:	d0043503          	ld	a0,-768(s0)
    fad4:	02750533          	mul	a0,a0,t2
    fad8:	92843583          	ld	a1,-1752(s0)
    fadc:	006585b3          	add	a1,a1,t1
    fae0:	00b50533          	add	a0,a0,a1
    fae4:	42855513          	srai	a0,a0,0x28
    fae8:	d0a43023          	sd	a0,-768(s0)
    faec:	00a2c663          	blt	t0,a0,faf8 <.LBB69_1970>
    faf0:	f7f00513          	li	a0,-129
    faf4:	d0a43023          	sd	a0,-768(s0)

000000000000faf8 <.LBB69_1970>:
    faf8:	cf843503          	ld	a0,-776(s0)
    fafc:	02750533          	mul	a0,a0,t2
    fb00:	94843583          	ld	a1,-1720(s0)
    fb04:	006585b3          	add	a1,a1,t1
    fb08:	00b50533          	add	a0,a0,a1
    fb0c:	42855513          	srai	a0,a0,0x28
    fb10:	cea43c23          	sd	a0,-776(s0)
    fb14:	00a2c663          	blt	t0,a0,fb20 <.LBB69_1972>
    fb18:	f7f00513          	li	a0,-129
    fb1c:	cea43c23          	sd	a0,-776(s0)

000000000000fb20 <.LBB69_1972>:
    fb20:	cf043503          	ld	a0,-784(s0)
    fb24:	02750533          	mul	a0,a0,t2
    fb28:	96843583          	ld	a1,-1688(s0)
    fb2c:	006585b3          	add	a1,a1,t1
    fb30:	00b50533          	add	a0,a0,a1
    fb34:	42855513          	srai	a0,a0,0x28
    fb38:	cea43823          	sd	a0,-784(s0)
    fb3c:	00a2c663          	blt	t0,a0,fb48 <.LBB69_1974>
    fb40:	f7f00513          	li	a0,-129
    fb44:	cea43823          	sd	a0,-784(s0)

000000000000fb48 <.LBB69_1974>:
    fb48:	ce043503          	ld	a0,-800(s0)
    fb4c:	02750533          	mul	a0,a0,t2
    fb50:	c5043583          	ld	a1,-944(s0)
    fb54:	006585b3          	add	a1,a1,t1
    fb58:	00b50533          	add	a0,a0,a1
    fb5c:	42855513          	srai	a0,a0,0x28
    fb60:	cea43023          	sd	a0,-800(s0)
    fb64:	00a2c663          	blt	t0,a0,fb70 <.LBB69_1976>
    fb68:	f7f00513          	li	a0,-129
    fb6c:	cea43023          	sd	a0,-800(s0)

000000000000fb70 <.LBB69_1976>:
    fb70:	cd043503          	ld	a0,-816(s0)
    fb74:	02750533          	mul	a0,a0,t2
    fb78:	c5843583          	ld	a1,-936(s0)
    fb7c:	006585b3          	add	a1,a1,t1
    fb80:	00b50533          	add	a0,a0,a1
    fb84:	42855513          	srai	a0,a0,0x28
    fb88:	cca43823          	sd	a0,-816(s0)
    fb8c:	00a2c663          	blt	t0,a0,fb98 <.LBB69_1978>
    fb90:	f7f00513          	li	a0,-129
    fb94:	cca43823          	sd	a0,-816(s0)

000000000000fb98 <.LBB69_1978>:
    fb98:	cc843503          	ld	a0,-824(s0)
    fb9c:	02750533          	mul	a0,a0,t2
    fba0:	c6043583          	ld	a1,-928(s0)
    fba4:	006585b3          	add	a1,a1,t1
    fba8:	00b50533          	add	a0,a0,a1
    fbac:	42855513          	srai	a0,a0,0x28
    fbb0:	cca43423          	sd	a0,-824(s0)
    fbb4:	00a2c663          	blt	t0,a0,fbc0 <.LBB69_1980>
    fbb8:	f7f00513          	li	a0,-129
    fbbc:	cca43423          	sd	a0,-824(s0)

000000000000fbc0 <.LBB69_1980>:
    fbc0:	cb843503          	ld	a0,-840(s0)
    fbc4:	02750533          	mul	a0,a0,t2
    fbc8:	c6843583          	ld	a1,-920(s0)
    fbcc:	006585b3          	add	a1,a1,t1
    fbd0:	00b50533          	add	a0,a0,a1
    fbd4:	42855513          	srai	a0,a0,0x28
    fbd8:	caa43c23          	sd	a0,-840(s0)
    fbdc:	00a2c663          	blt	t0,a0,fbe8 <.LBB69_1982>
    fbe0:	f7f00513          	li	a0,-129
    fbe4:	caa43c23          	sd	a0,-840(s0)

000000000000fbe8 <.LBB69_1982>:
    fbe8:	cb043503          	ld	a0,-848(s0)
    fbec:	02750533          	mul	a0,a0,t2
    fbf0:	c7043583          	ld	a1,-912(s0)
    fbf4:	006585b3          	add	a1,a1,t1
    fbf8:	00b50533          	add	a0,a0,a1
    fbfc:	42855513          	srai	a0,a0,0x28
    fc00:	caa43823          	sd	a0,-848(s0)
    fc04:	00a2c663          	blt	t0,a0,fc10 <.LBB69_1984>
    fc08:	f7f00513          	li	a0,-129
    fc0c:	caa43823          	sd	a0,-848(s0)

000000000000fc10 <.LBB69_1984>:
    fc10:	ca043503          	ld	a0,-864(s0)
    fc14:	02750533          	mul	a0,a0,t2
    fc18:	c7843583          	ld	a1,-904(s0)
    fc1c:	006585b3          	add	a1,a1,t1
    fc20:	00b50533          	add	a0,a0,a1
    fc24:	42855513          	srai	a0,a0,0x28
    fc28:	caa43023          	sd	a0,-864(s0)
    fc2c:	00a2c663          	blt	t0,a0,fc38 <.LBB69_1986>
    fc30:	f7f00513          	li	a0,-129
    fc34:	caa43023          	sd	a0,-864(s0)

000000000000fc38 <.LBB69_1986>:
    fc38:	c9043503          	ld	a0,-880(s0)
    fc3c:	02750533          	mul	a0,a0,t2
    fc40:	c8043583          	ld	a1,-896(s0)
    fc44:	006585b3          	add	a1,a1,t1
    fc48:	00b50533          	add	a0,a0,a1
    fc4c:	42855513          	srai	a0,a0,0x28
    fc50:	c8a43823          	sd	a0,-880(s0)
    fc54:	00a2c663          	blt	t0,a0,fc60 <.LBB69_1988>
    fc58:	f7f00513          	li	a0,-129
    fc5c:	c8a43823          	sd	a0,-880(s0)

000000000000fc60 <.LBB69_1988>:
    fc60:	c9843503          	ld	a0,-872(s0)
    fc64:	02750533          	mul	a0,a0,t2
    fc68:	c8843583          	ld	a1,-888(s0)
    fc6c:	006585b3          	add	a1,a1,t1
    fc70:	00b50533          	add	a0,a0,a1
    fc74:	42855513          	srai	a0,a0,0x28
    fc78:	c8a43023          	sd	a0,-896(s0)
    fc7c:	00a2c663          	blt	t0,a0,fc88 <.LBB69_1990>
    fc80:	f7f00513          	li	a0,-129
    fc84:	c8a43023          	sd	a0,-896(s0)

000000000000fc88 <.LBB69_1990>:
    fc88:	cc043503          	ld	a0,-832(s0)
    fc8c:	02750533          	mul	a0,a0,t2
    fc90:	006e05b3          	add	a1,t3,t1
    fc94:	00b50533          	add	a0,a0,a1
    fc98:	42855513          	srai	a0,a0,0x28
    fc9c:	c6a43823          	sd	a0,-912(s0)
    fca0:	00a2c663          	blt	t0,a0,fcac <.LBB69_1992>
    fca4:	f7f00513          	li	a0,-129
    fca8:	c6a43823          	sd	a0,-912(s0)

000000000000fcac <.LBB69_1992>:
    fcac:	ce843503          	ld	a0,-792(s0)
    fcb0:	02750533          	mul	a0,a0,t2
    fcb4:	006685b3          	add	a1,a3,t1
    fcb8:	00b50533          	add	a0,a0,a1
    fcbc:	42855513          	srai	a0,a0,0x28
    fcc0:	c6a43023          	sd	a0,-928(s0)
    fcc4:	00a2c663          	blt	t0,a0,fcd0 <.LBB69_1994>
    fcc8:	f7f00513          	li	a0,-129
    fccc:	c6a43023          	sd	a0,-928(s0)

000000000000fcd0 <.LBB69_1994>:
    fcd0:	027e8533          	mul	a0,t4,t2
    fcd4:	006706b3          	add	a3,a4,t1
    fcd8:	00d50533          	add	a0,a0,a3
    fcdc:	42855513          	srai	a0,a0,0x28
    fce0:	00a2c463          	blt	t0,a0,fce8 <.LBB69_1996>
    fce4:	f7f00513          	li	a0,-129

000000000000fce8 <.LBB69_1996>:
    fce8:	cea43423          	sd	a0,-792(s0)
    fcec:	02778533          	mul	a0,a5,t2
    fcf0:	006d86b3          	add	a3,s11,t1
    fcf4:	00d50533          	add	a0,a0,a3
    fcf8:	42855513          	srai	a0,a0,0x28
    fcfc:	c5043823          	sd	a6,-944(s0)
    fd00:	cca43c23          	sd	a0,-808(s0)
    fd04:	00a2c663          	blt	t0,a0,fd10 <.LBB69_1998>
    fd08:	f7f00513          	li	a0,-129
    fd0c:	cca43c23          	sd	a0,-808(s0)

000000000000fd10 <.LBB69_1998>:
    fd10:	02760533          	mul	a0,a2,t2
    fd14:	000015b7          	lui	a1,0x1
    fd18:	40b405b3          	sub	a1,s0,a1
    fd1c:	6405b603          	ld	a2,1600(a1) # 1640 <.LBB69_5+0x224>
    fd20:	00660633          	add	a2,a2,t1
    fd24:	00c50533          	add	a0,a0,a2
    fd28:	42855e93          	srai	t4,a0,0x28
    fd2c:	01d2c463          	blt	t0,t4,fd34 <.LBB69_2000>
    fd30:	f7f00e93          	li	t4,-129

000000000000fd34 <.LBB69_2000>:
    fd34:	027a8533          	mul	a0,s5,t2
    fd38:	000015b7          	lui	a1,0x1
    fd3c:	40b405b3          	sub	a1,s0,a1
    fd40:	6805b603          	ld	a2,1664(a1) # 1680 <.LBB69_5+0x264>
    fd44:	00660633          	add	a2,a2,t1
    fd48:	00c50533          	add	a0,a0,a2
    fd4c:	42855513          	srai	a0,a0,0x28
    fd50:	cca43023          	sd	a0,-832(s0)
    fd54:	00a2c663          	blt	t0,a0,fd60 <.LBB69_2002>
    fd58:	f7f00513          	li	a0,-129
    fd5c:	cca43023          	sd	a0,-832(s0)

000000000000fd60 <.LBB69_2002>:
    fd60:	027b0533          	mul	a0,s6,t2
    fd64:	006f8633          	add	a2,t6,t1
    fd68:	00c50533          	add	a0,a0,a2
    fd6c:	42855593          	srai	a1,a0,0x28
    fd70:	b3043783          	ld	a5,-1232(s0)
    fd74:	b3843e03          	ld	t3,-1224(s0)
    fd78:	b4043f83          	ld	t6,-1216(s0)
    fd7c:	ae843903          	ld	s2,-1304(s0)
    fd80:	ad843983          	ld	s3,-1320(s0)
    fd84:	ac843483          	ld	s1,-1336(s0)
    fd88:	ab843803          	ld	a6,-1352(s0)
    fd8c:	aa843a03          	ld	s4,-1368(s0)
    fd90:	a9843703          	ld	a4,-1384(s0)
    fd94:	00b2c463          	blt	t0,a1,fd9c <.LBB69_2004>
    fd98:	f7f00593          	li	a1,-129

000000000000fd9c <.LBB69_2004>:
    fd9c:	027f0533          	mul	a0,t5,t2
    fda0:	00001637          	lui	a2,0x1
    fda4:	40c40633          	sub	a2,s0,a2
    fda8:	6b863603          	ld	a2,1720(a2) # 16b8 <.LBB69_5+0x29c>
    fdac:	00660633          	add	a2,a2,t1
    fdb0:	00c50533          	add	a0,a0,a2
    fdb4:	42855513          	srai	a0,a0,0x28
    fdb8:	caa43423          	sd	a0,-856(s0)
    fdbc:	00a2c663          	blt	t0,a0,fdc8 <.LBB69_2006>
    fdc0:	f7f00513          	li	a0,-129
    fdc4:	caa43423          	sd	a0,-856(s0)

000000000000fdc8 <.LBB69_2006>:
    fdc8:	02788533          	mul	a0,a7,t2
    fdcc:	00001637          	lui	a2,0x1
    fdd0:	40c40633          	sub	a2,s0,a2
    fdd4:	6e863603          	ld	a2,1768(a2) # 16e8 <.LBB69_5+0x2cc>
    fdd8:	00660633          	add	a2,a2,t1
    fddc:	00c50533          	add	a0,a0,a2
    fde0:	42855513          	srai	a0,a0,0x28
    fde4:	c8a43c23          	sd	a0,-872(s0)
    fde8:	00a2c663          	blt	t0,a0,fdf4 <.LBB69_2008>
    fdec:	f7f00513          	li	a0,-129
    fdf0:	c8a43c23          	sd	a0,-872(s0)

000000000000fdf4 <.LBB69_2008>:
    fdf4:	02708533          	mul	a0,ra,t2
    fdf8:	00001637          	lui	a2,0x1
    fdfc:	40c40633          	sub	a2,s0,a2
    fe00:	71863603          	ld	a2,1816(a2) # 1718 <.LBB69_5+0x2fc>
    fe04:	00660633          	add	a2,a2,t1
    fe08:	00c50533          	add	a0,a0,a2
    fe0c:	42855513          	srai	a0,a0,0x28
    fe10:	c8a43423          	sd	a0,-888(s0)
    fe14:	00001637          	lui	a2,0x1
    fe18:	40c40633          	sub	a2,s0,a2
    fe1c:	78063683          	ld	a3,1920(a2) # 1780 <.LBB69_5+0x364>
    fe20:	00a2c663          	blt	t0,a0,fe2c <.LBB69_2010>
    fe24:	f7f00513          	li	a0,-129
    fe28:	c8a43423          	sd	a0,-888(s0)

000000000000fe2c <.LBB69_2010>:
    fe2c:	00001537          	lui	a0,0x1
    fe30:	40a40533          	sub	a0,s0,a0
    fe34:	76053503          	ld	a0,1888(a0) # 1760 <.LBB69_5+0x344>
    fe38:	02750533          	mul	a0,a0,t2
    fe3c:	00001637          	lui	a2,0x1
    fe40:	40c40633          	sub	a2,s0,a2
    fe44:	74863603          	ld	a2,1864(a2) # 1748 <.LBB69_5+0x32c>
    fe48:	00660633          	add	a2,a2,t1
    fe4c:	00c50533          	add	a0,a0,a2
    fe50:	42855513          	srai	a0,a0,0x28
    fe54:	c6a43c23          	sd	a0,-904(s0)
    fe58:	00a2c663          	blt	t0,a0,fe64 <.LBB69_2012>
    fe5c:	f7f00513          	li	a0,-129
    fe60:	c6a43c23          	sd	a0,-904(s0)

000000000000fe64 <.LBB69_2012>:
    fe64:	00001537          	lui	a0,0x1
    fe68:	40a40533          	sub	a0,s0,a0
    fe6c:	79853503          	ld	a0,1944(a0) # 1798 <.LBB69_5+0x37c>
    fe70:	02750533          	mul	a0,a0,t2
    fe74:	00668633          	add	a2,a3,t1
    fe78:	00c50533          	add	a0,a0,a2
    fe7c:	42855513          	srai	a0,a0,0x28
    fe80:	c6a43423          	sd	a0,-920(s0)
    fe84:	00a2c663          	blt	t0,a0,fe90 <.LBB69_2014>
    fe88:	f7f00513          	li	a0,-129
    fe8c:	c6a43423          	sd	a0,-920(s0)

000000000000fe90 <.LBB69_2014>:
    fe90:	a8043503          	ld	a0,-1408(s0)
    fe94:	02750533          	mul	a0,a0,t2
    fe98:	00001637          	lui	a2,0x1
    fe9c:	40c40633          	sub	a2,s0,a2
    fea0:	7b863603          	ld	a2,1976(a2) # 17b8 <.LBB69_5+0x39c>
    fea4:	00660633          	add	a2,a2,t1
    fea8:	00c50533          	add	a0,a0,a2
    feac:	42855613          	srai	a2,a0,0x28
    feb0:	00c2c463          	blt	t0,a2,feb8 <.LBB69_2016>
    feb4:	f7f00613          	li	a2,-129

000000000000feb8 <.LBB69_2016>:
    feb8:	a9043503          	ld	a0,-1392(s0)
    febc:	02750533          	mul	a0,a0,t2
    fec0:	000016b7          	lui	a3,0x1
    fec4:	40d406b3          	sub	a3,s0,a3
    fec8:	6606b683          	ld	a3,1632(a3) # 1660 <.LBB69_5+0x244>
    fecc:	006686b3          	add	a3,a3,t1
    fed0:	00d50533          	add	a0,a0,a3
    fed4:	42855693          	srai	a3,a0,0x28
    fed8:	00d2c463          	blt	t0,a3,fee0 <.LBB69_2018>
    fedc:	f7f00693          	li	a3,-129

000000000000fee0 <.LBB69_2018>:
    fee0:	aa043503          	ld	a0,-1376(s0)
    fee4:	02750533          	mul	a0,a0,t2
    fee8:	00670733          	add	a4,a4,t1
    feec:	00e50533          	add	a0,a0,a4
    fef0:	42855f13          	srai	t5,a0,0x28
    fef4:	01e2c463          	blt	t0,t5,fefc <.LBB69_2020>
    fef8:	f7f00f13          	li	t5,-129

000000000000fefc <.LBB69_2020>:
    fefc:	ab043503          	ld	a0,-1360(s0)
    ff00:	02750533          	mul	a0,a0,t2
    ff04:	006a0733          	add	a4,s4,t1
    ff08:	00e50533          	add	a0,a0,a4
    ff0c:	42855513          	srai	a0,a0,0x28
    ff10:	c4a43c23          	sd	a0,-936(s0)
    ff14:	00a2c663          	blt	t0,a0,ff20 <.LBB69_2022>
    ff18:	f7f00513          	li	a0,-129
    ff1c:	c4a43c23          	sd	a0,-936(s0)

000000000000ff20 <.LBB69_2022>:
    ff20:	ac043503          	ld	a0,-1344(s0)
    ff24:	02750533          	mul	a0,a0,t2
    ff28:	00680733          	add	a4,a6,t1
    ff2c:	00e50533          	add	a0,a0,a4
    ff30:	42855813          	srai	a6,a0,0x28
    ff34:	0102c463          	blt	t0,a6,ff3c <.LBB69_2024>
    ff38:	f7f00813          	li	a6,-129

000000000000ff3c <.LBB69_2024>:
    ff3c:	ad043503          	ld	a0,-1328(s0)
    ff40:	02750533          	mul	a0,a0,t2
    ff44:	00648733          	add	a4,s1,t1
    ff48:	00e50533          	add	a0,a0,a4
    ff4c:	42855493          	srai	s1,a0,0x28
    ff50:	0092c463          	blt	t0,s1,ff58 <.LBB69_2026>
    ff54:	f7f00493          	li	s1,-129

000000000000ff58 <.LBB69_2026>:
    ff58:	ae043503          	ld	a0,-1312(s0)
    ff5c:	02750533          	mul	a0,a0,t2
    ff60:	00698733          	add	a4,s3,t1
    ff64:	00e50533          	add	a0,a0,a4
    ff68:	42855893          	srai	a7,a0,0x28
    ff6c:	0112c463          	blt	t0,a7,ff74 <.LBB69_2028>
    ff70:	f7f00893          	li	a7,-129

000000000000ff74 <.LBB69_2028>:
    ff74:	b4843503          	ld	a0,-1208(s0)
    ff78:	02750533          	mul	a0,a0,t2
    ff7c:	00690733          	add	a4,s2,t1
    ff80:	00e50533          	add	a0,a0,a4
    ff84:	42855913          	srai	s2,a0,0x28
    ff88:	0122c463          	blt	t0,s2,ff90 <.LBB69_2030>
    ff8c:	f7f00913          	li	s2,-129

000000000000ff90 <.LBB69_2030>:
    ff90:	b7043503          	ld	a0,-1168(s0)
    ff94:	02750533          	mul	a0,a0,t2
    ff98:	006f8733          	add	a4,t6,t1
    ff9c:	00e50533          	add	a0,a0,a4
    ffa0:	42855993          	srai	s3,a0,0x28
    ffa4:	0132c463          	blt	t0,s3,ffac <.LBB69_2032>
    ffa8:	f7f00993          	li	s3,-129

000000000000ffac <.LBB69_2032>:
    ffac:	b6843503          	ld	a0,-1176(s0)
    ffb0:	02750533          	mul	a0,a0,t2
    ffb4:	006e0733          	add	a4,t3,t1
    ffb8:	00e50533          	add	a0,a0,a4
    ffbc:	42855a13          	srai	s4,a0,0x28
    ffc0:	0142c463          	blt	t0,s4,ffc8 <.LBB69_2034>
    ffc4:	f7f00a13          	li	s4,-129

000000000000ffc8 <.LBB69_2034>:
    ffc8:	b6043503          	ld	a0,-1184(s0)
    ffcc:	02750533          	mul	a0,a0,t2
    ffd0:	00678733          	add	a4,a5,t1
    ffd4:	00e50533          	add	a0,a0,a4
    ffd8:	42855a93          	srai	s5,a0,0x28
    ffdc:	0152c463          	blt	t0,s5,ffe4 <.LBB69_2036>
    ffe0:	f7f00a93          	li	s5,-129

000000000000ffe4 <.LBB69_2036>:
    ffe4:	b5843503          	ld	a0,-1192(s0)
    ffe8:	02750533          	mul	a0,a0,t2
    ffec:	b2843703          	ld	a4,-1240(s0)
    fff0:	00670733          	add	a4,a4,t1
    fff4:	00e50533          	add	a0,a0,a4
    fff8:	42855b13          	srai	s6,a0,0x28
    fffc:	0162c463          	blt	t0,s6,10004 <.LBB69_2038>
   10000:	f7f00b13          	li	s6,-129

0000000000010004 <.LBB69_2038>:
   10004:	b5043503          	ld	a0,-1200(s0)
   10008:	02750533          	mul	a0,a0,t2
   1000c:	af043703          	ld	a4,-1296(s0)
   10010:	00670733          	add	a4,a4,t1
   10014:	00e50533          	add	a0,a0,a4
   10018:	42855b93          	srai	s7,a0,0x28
   1001c:	0172c463          	blt	t0,s7,10024 <.LBB69_2040>
   10020:	f7f00b93          	li	s7,-129

0000000000010024 <.LBB69_2040>:
   10024:	b0843503          	ld	a0,-1272(s0)
   10028:	02750533          	mul	a0,a0,t2
   1002c:	af843703          	ld	a4,-1288(s0)
   10030:	00670733          	add	a4,a4,t1
   10034:	00e50533          	add	a0,a0,a4
   10038:	42855c13          	srai	s8,a0,0x28
   1003c:	0182c463          	blt	t0,s8,10044 <.LBB69_2042>
   10040:	f7f00c13          	li	s8,-129

0000000000010044 <.LBB69_2042>:
   10044:	b1843503          	ld	a0,-1256(s0)
   10048:	02750533          	mul	a0,a0,t2
   1004c:	b1043703          	ld	a4,-1264(s0)
   10050:	00670733          	add	a4,a4,t1
   10054:	00e50533          	add	a0,a0,a4
   10058:	42855c93          	srai	s9,a0,0x28
   1005c:	0192c463          	blt	t0,s9,10064 <.LBB69_2044>
   10060:	f7f00c93          	li	s9,-129

0000000000010064 <.LBB69_2044>:
   10064:	b7843503          	ld	a0,-1160(s0)
   10068:	02750533          	mul	a0,a0,t2
   1006c:	b2043703          	ld	a4,-1248(s0)
   10070:	00670733          	add	a4,a4,t1
   10074:	00e50533          	add	a0,a0,a4
   10078:	42855d13          	srai	s10,a0,0x28
   1007c:	01a2c463          	blt	t0,s10,10084 <.LBB69_2046>
   10080:	f7f00d13          	li	s10,-129

0000000000010084 <.LBB69_2046>:
   10084:	b9843503          	ld	a0,-1128(s0)
   10088:	02750533          	mul	a0,a0,t2
   1008c:	b8843703          	ld	a4,-1144(s0)
   10090:	00670733          	add	a4,a4,t1
   10094:	00e50533          	add	a0,a0,a4
   10098:	42855d93          	srai	s11,a0,0x28
   1009c:	01b2c463          	blt	t0,s11,100a4 <.LBB69_2048>
   100a0:	f7f00d93          	li	s11,-129

00000000000100a4 <.LBB69_2048>:
   100a4:	bb843503          	ld	a0,-1096(s0)
   100a8:	02750533          	mul	a0,a0,t2
   100ac:	ba843703          	ld	a4,-1112(s0)
   100b0:	00670733          	add	a4,a4,t1
   100b4:	00e50533          	add	a0,a0,a4
   100b8:	42855093          	srai	ra,a0,0x28
   100bc:	0012c463          	blt	t0,ra,100c4 <.LBB69_2050>
   100c0:	f7f00093          	li	ra,-129

00000000000100c4 <.LBB69_2050>:
   100c4:	bd843503          	ld	a0,-1064(s0)
   100c8:	02750533          	mul	a0,a0,t2
   100cc:	bc843703          	ld	a4,-1080(s0)
   100d0:	00670733          	add	a4,a4,t1
   100d4:	00e50533          	add	a0,a0,a4
   100d8:	42855e13          	srai	t3,a0,0x28
   100dc:	01c2c463          	blt	t0,t3,100e4 <.LBB69_2052>
   100e0:	f7f00e13          	li	t3,-129

00000000000100e4 <.LBB69_2052>:
   100e4:	c2043503          	ld	a0,-992(s0)
   100e8:	02750533          	mul	a0,a0,t2
   100ec:	c1843703          	ld	a4,-1000(s0)
   100f0:	00670733          	add	a4,a4,t1
   100f4:	00e50533          	add	a0,a0,a4
   100f8:	42855313          	srai	t1,a0,0x28
   100fc:	0062c463          	blt	t0,t1,10104 <.LBB69_2054>
   10100:	f7f00313          	li	t1,-129

0000000000010104 <.LBB69_2054>:
   10104:	c3043503          	ld	a0,-976(s0)
   10108:	02750533          	mul	a0,a0,t2
   1010c:	a7843703          	ld	a4,-1416(s0)
   10110:	c2843783          	ld	a5,-984(s0)
   10114:	00e78733          	add	a4,a5,a4
   10118:	00e50533          	add	a0,a0,a4
   1011c:	42855713          	srai	a4,a0,0x28
   10120:	00e2c463          	blt	t0,a4,10128 <.LBB69_2056>
   10124:	f7f00713          	li	a4,-129

0000000000010128 <.LBB69_2056>:
   10128:	c4043503          	ld	a0,-960(s0)
   1012c:	02750533          	mul	a0,a0,t2
   10130:	a7843783          	ld	a5,-1416(s0)
   10134:	c3843383          	ld	t2,-968(s0)
   10138:	00f387b3          	add	a5,t2,a5
   1013c:	00f50533          	add	a0,a0,a5
   10140:	42855393          	srai	t2,a0,0x28
   10144:	3c72d863          	bge	t0,t2,10514 <.LBB69_2185>
   10148:	07e00293          	li	t0,126
   1014c:	c4843783          	ld	a5,-952(s0)
   10150:	3c57da63          	bge	a5,t0,10524 <.LBB69_2186>

0000000000010154 <.LBB69_2058>:
   10154:	e5843503          	ld	a0,-424(s0)
   10158:	3c555c63          	bge	a0,t0,10530 <.LBB69_2187>

000000000001015c <.LBB69_2059>:
   1015c:	e6843503          	ld	a0,-408(s0)
   10160:	3e555063          	bge	a0,t0,10540 <.LBB69_2188>

0000000000010164 <.LBB69_2060>:
   10164:	e7843503          	ld	a0,-392(s0)
   10168:	3e555463          	bge	a0,t0,10550 <.LBB69_2189>

000000000001016c <.LBB69_2061>:
   1016c:	e8843503          	ld	a0,-376(s0)
   10170:	3e555863          	bge	a0,t0,10560 <.LBB69_2190>

0000000000010174 <.LBB69_2062>:
   10174:	e9843503          	ld	a0,-360(s0)
   10178:	3e555c63          	bge	a0,t0,10570 <.LBB69_2191>

000000000001017c <.LBB69_2063>:
   1017c:	ea843503          	ld	a0,-344(s0)
   10180:	40555063          	bge	a0,t0,10580 <.LBB69_2192>

0000000000010184 <.LBB69_2064>:
   10184:	eb843503          	ld	a0,-328(s0)
   10188:	40555463          	bge	a0,t0,10590 <.LBB69_2193>

000000000001018c <.LBB69_2065>:
   1018c:	ec843503          	ld	a0,-312(s0)
   10190:	40555863          	bge	a0,t0,105a0 <.LBB69_2194>

0000000000010194 <.LBB69_2066>:
   10194:	ed843503          	ld	a0,-296(s0)
   10198:	40555c63          	bge	a0,t0,105b0 <.LBB69_2195>

000000000001019c <.LBB69_2067>:
   1019c:	ee843503          	ld	a0,-280(s0)
   101a0:	42555063          	bge	a0,t0,105c0 <.LBB69_2196>

00000000000101a4 <.LBB69_2068>:
   101a4:	ef043503          	ld	a0,-272(s0)
   101a8:	42555463          	bge	a0,t0,105d0 <.LBB69_2197>

00000000000101ac <.LBB69_2069>:
   101ac:	ef843503          	ld	a0,-264(s0)
   101b0:	42555863          	bge	a0,t0,105e0 <.LBB69_2198>

00000000000101b4 <.LBB69_2070>:
   101b4:	f0043503          	ld	a0,-256(s0)
   101b8:	42555c63          	bge	a0,t0,105f0 <.LBB69_2199>

00000000000101bc <.LBB69_2071>:
   101bc:	f0843503          	ld	a0,-248(s0)
   101c0:	44555063          	bge	a0,t0,10600 <.LBB69_2200>

00000000000101c4 <.LBB69_2072>:
   101c4:	f1043503          	ld	a0,-240(s0)
   101c8:	44555463          	bge	a0,t0,10610 <.LBB69_2201>

00000000000101cc <.LBB69_2073>:
   101cc:	f1843503          	ld	a0,-232(s0)
   101d0:	44555863          	bge	a0,t0,10620 <.LBB69_2202>

00000000000101d4 <.LBB69_2074>:
   101d4:	f2043503          	ld	a0,-224(s0)
   101d8:	44555c63          	bge	a0,t0,10630 <.LBB69_2203>

00000000000101dc <.LBB69_2075>:
   101dc:	f2843503          	ld	a0,-216(s0)
   101e0:	46555063          	bge	a0,t0,10640 <.LBB69_2204>

00000000000101e4 <.LBB69_2076>:
   101e4:	f3043503          	ld	a0,-208(s0)
   101e8:	46555463          	bge	a0,t0,10650 <.LBB69_2205>

00000000000101ec <.LBB69_2077>:
   101ec:	f3843503          	ld	a0,-200(s0)
   101f0:	46555863          	bge	a0,t0,10660 <.LBB69_2206>

00000000000101f4 <.LBB69_2078>:
   101f4:	f4043503          	ld	a0,-192(s0)
   101f8:	46555c63          	bge	a0,t0,10670 <.LBB69_2207>

00000000000101fc <.LBB69_2079>:
   101fc:	f4843503          	ld	a0,-184(s0)
   10200:	48555063          	bge	a0,t0,10680 <.LBB69_2208>

0000000000010204 <.LBB69_2080>:
   10204:	f5043503          	ld	a0,-176(s0)
   10208:	48555463          	bge	a0,t0,10690 <.LBB69_2209>

000000000001020c <.LBB69_2081>:
   1020c:	f5843503          	ld	a0,-168(s0)
   10210:	48555863          	bge	a0,t0,106a0 <.LBB69_2210>

0000000000010214 <.LBB69_2082>:
   10214:	f6043503          	ld	a0,-160(s0)
   10218:	48555c63          	bge	a0,t0,106b0 <.LBB69_2211>

000000000001021c <.LBB69_2083>:
   1021c:	f6843503          	ld	a0,-152(s0)
   10220:	4a555063          	bge	a0,t0,106c0 <.LBB69_2212>

0000000000010224 <.LBB69_2084>:
   10224:	f7043503          	ld	a0,-144(s0)
   10228:	4a555463          	bge	a0,t0,106d0 <.LBB69_2213>

000000000001022c <.LBB69_2085>:
   1022c:	f7843503          	ld	a0,-136(s0)
   10230:	4a555863          	bge	a0,t0,106e0 <.LBB69_2214>

0000000000010234 <.LBB69_2086>:
   10234:	f8043503          	ld	a0,-128(s0)
   10238:	4a555c63          	bge	a0,t0,106f0 <.LBB69_2215>

000000000001023c <.LBB69_2087>:
   1023c:	f8843503          	ld	a0,-120(s0)
   10240:	4c555063          	bge	a0,t0,10700 <.LBB69_2216>

0000000000010244 <.LBB69_2088>:
   10244:	c5043503          	ld	a0,-944(s0)
   10248:	4c555463          	bge	a0,t0,10710 <.LBB69_2217>

000000000001024c <.LBB69_2089>:
   1024c:	d5043503          	ld	a0,-688(s0)
   10250:	4c555863          	bge	a0,t0,10720 <.LBB69_2218>

0000000000010254 <.LBB69_2090>:
   10254:	d6043503          	ld	a0,-672(s0)
   10258:	4c555c63          	bge	a0,t0,10730 <.LBB69_2219>

000000000001025c <.LBB69_2091>:
   1025c:	d7043503          	ld	a0,-656(s0)
   10260:	4e555063          	bge	a0,t0,10740 <.LBB69_2220>

0000000000010264 <.LBB69_2092>:
   10264:	d8043503          	ld	a0,-640(s0)
   10268:	4e555463          	bge	a0,t0,10750 <.LBB69_2221>

000000000001026c <.LBB69_2093>:
   1026c:	d9043503          	ld	a0,-624(s0)
   10270:	4e555863          	bge	a0,t0,10760 <.LBB69_2222>

0000000000010274 <.LBB69_2094>:
   10274:	da043503          	ld	a0,-608(s0)
   10278:	4e555c63          	bge	a0,t0,10770 <.LBB69_2223>

000000000001027c <.LBB69_2095>:
   1027c:	db043503          	ld	a0,-592(s0)
   10280:	50555063          	bge	a0,t0,10780 <.LBB69_2224>

0000000000010284 <.LBB69_2096>:
   10284:	dc043503          	ld	a0,-576(s0)
   10288:	50555463          	bge	a0,t0,10790 <.LBB69_2225>

000000000001028c <.LBB69_2097>:
   1028c:	dd043503          	ld	a0,-560(s0)
   10290:	50555863          	bge	a0,t0,107a0 <.LBB69_2226>

0000000000010294 <.LBB69_2098>:
   10294:	de043503          	ld	a0,-544(s0)
   10298:	50555c63          	bge	a0,t0,107b0 <.LBB69_2227>

000000000001029c <.LBB69_2099>:
   1029c:	df043503          	ld	a0,-528(s0)
   102a0:	52555063          	bge	a0,t0,107c0 <.LBB69_2228>

00000000000102a4 <.LBB69_2100>:
   102a4:	df843503          	ld	a0,-520(s0)
   102a8:	52555463          	bge	a0,t0,107d0 <.LBB69_2229>

00000000000102ac <.LBB69_2101>:
   102ac:	e0043503          	ld	a0,-512(s0)
   102b0:	52555863          	bge	a0,t0,107e0 <.LBB69_2230>

00000000000102b4 <.LBB69_2102>:
   102b4:	e0843503          	ld	a0,-504(s0)
   102b8:	52555c63          	bge	a0,t0,107f0 <.LBB69_2231>

00000000000102bc <.LBB69_2103>:
   102bc:	e1043503          	ld	a0,-496(s0)
   102c0:	54555063          	bge	a0,t0,10800 <.LBB69_2232>

00000000000102c4 <.LBB69_2104>:
   102c4:	e1843503          	ld	a0,-488(s0)
   102c8:	54555463          	bge	a0,t0,10810 <.LBB69_2233>

00000000000102cc <.LBB69_2105>:
   102cc:	e2043503          	ld	a0,-480(s0)
   102d0:	54555863          	bge	a0,t0,10820 <.LBB69_2234>

00000000000102d4 <.LBB69_2106>:
   102d4:	e2843503          	ld	a0,-472(s0)
   102d8:	54555c63          	bge	a0,t0,10830 <.LBB69_2235>

00000000000102dc <.LBB69_2107>:
   102dc:	e3043503          	ld	a0,-464(s0)
   102e0:	56555063          	bge	a0,t0,10840 <.LBB69_2236>

00000000000102e4 <.LBB69_2108>:
   102e4:	e3843503          	ld	a0,-456(s0)
   102e8:	56555463          	bge	a0,t0,10850 <.LBB69_2237>

00000000000102ec <.LBB69_2109>:
   102ec:	e4043503          	ld	a0,-448(s0)
   102f0:	56555863          	bge	a0,t0,10860 <.LBB69_2238>

00000000000102f4 <.LBB69_2110>:
   102f4:	e4843503          	ld	a0,-440(s0)
   102f8:	56555c63          	bge	a0,t0,10870 <.LBB69_2239>

00000000000102fc <.LBB69_2111>:
   102fc:	e5043503          	ld	a0,-432(s0)
   10300:	58555063          	bge	a0,t0,10880 <.LBB69_2240>

0000000000010304 <.LBB69_2112>:
   10304:	e6043503          	ld	a0,-416(s0)
   10308:	58555463          	bge	a0,t0,10890 <.LBB69_2241>

000000000001030c <.LBB69_2113>:
   1030c:	e7043503          	ld	a0,-400(s0)
   10310:	58555863          	bge	a0,t0,108a0 <.LBB69_2242>

0000000000010314 <.LBB69_2114>:
   10314:	e8043503          	ld	a0,-384(s0)
   10318:	58555c63          	bge	a0,t0,108b0 <.LBB69_2243>

000000000001031c <.LBB69_2115>:
   1031c:	e9043503          	ld	a0,-368(s0)
   10320:	5a555063          	bge	a0,t0,108c0 <.LBB69_2244>

0000000000010324 <.LBB69_2116>:
   10324:	ea043503          	ld	a0,-352(s0)
   10328:	5a555463          	bge	a0,t0,108d0 <.LBB69_2245>

000000000001032c <.LBB69_2117>:
   1032c:	eb043503          	ld	a0,-336(s0)
   10330:	5a555863          	bge	a0,t0,108e0 <.LBB69_2246>

0000000000010334 <.LBB69_2118>:
   10334:	ec043503          	ld	a0,-320(s0)
   10338:	5a555c63          	bge	a0,t0,108f0 <.LBB69_2247>

000000000001033c <.LBB69_2119>:
   1033c:	ed043503          	ld	a0,-304(s0)
   10340:	5c555063          	bge	a0,t0,10900 <.LBB69_2248>

0000000000010344 <.LBB69_2120>:
   10344:	ee043503          	ld	a0,-288(s0)
   10348:	5c555463          	bge	a0,t0,10910 <.LBB69_2249>

000000000001034c <.LBB69_2121>:
   1034c:	c6043503          	ld	a0,-928(s0)
   10350:	5c555863          	bge	a0,t0,10920 <.LBB69_2250>

0000000000010354 <.LBB69_2122>:
   10354:	c7043503          	ld	a0,-912(s0)
   10358:	5c555c63          	bge	a0,t0,10930 <.LBB69_2251>

000000000001035c <.LBB69_2123>:
   1035c:	c8043503          	ld	a0,-896(s0)
   10360:	5e555063          	bge	a0,t0,10940 <.LBB69_2252>

0000000000010364 <.LBB69_2124>:
   10364:	c9043503          	ld	a0,-880(s0)
   10368:	5e555463          	bge	a0,t0,10950 <.LBB69_2253>

000000000001036c <.LBB69_2125>:
   1036c:	ca043503          	ld	a0,-864(s0)
   10370:	5e555863          	bge	a0,t0,10960 <.LBB69_2254>

0000000000010374 <.LBB69_2126>:
   10374:	cb043503          	ld	a0,-848(s0)
   10378:	5e555c63          	bge	a0,t0,10970 <.LBB69_2255>

000000000001037c <.LBB69_2127>:
   1037c:	cb843503          	ld	a0,-840(s0)
   10380:	60555063          	bge	a0,t0,10980 <.LBB69_2256>

0000000000010384 <.LBB69_2128>:
   10384:	cc843503          	ld	a0,-824(s0)
   10388:	60555463          	bge	a0,t0,10990 <.LBB69_2257>

000000000001038c <.LBB69_2129>:
   1038c:	cd043503          	ld	a0,-816(s0)
   10390:	60555863          	bge	a0,t0,109a0 <.LBB69_2258>

0000000000010394 <.LBB69_2130>:
   10394:	ce043503          	ld	a0,-800(s0)
   10398:	60555c63          	bge	a0,t0,109b0 <.LBB69_2259>

000000000001039c <.LBB69_2131>:
   1039c:	cf043503          	ld	a0,-784(s0)
   103a0:	62555063          	bge	a0,t0,109c0 <.LBB69_2260>

00000000000103a4 <.LBB69_2132>:
   103a4:	cf843503          	ld	a0,-776(s0)
   103a8:	62555463          	bge	a0,t0,109d0 <.LBB69_2261>

00000000000103ac <.LBB69_2133>:
   103ac:	d0043503          	ld	a0,-768(s0)
   103b0:	62555863          	bge	a0,t0,109e0 <.LBB69_2262>

00000000000103b4 <.LBB69_2134>:
   103b4:	d0843503          	ld	a0,-760(s0)
   103b8:	62555c63          	bge	a0,t0,109f0 <.LBB69_2263>

00000000000103bc <.LBB69_2135>:
   103bc:	d1043503          	ld	a0,-752(s0)
   103c0:	64555063          	bge	a0,t0,10a00 <.LBB69_2264>

00000000000103c4 <.LBB69_2136>:
   103c4:	d1843503          	ld	a0,-744(s0)
   103c8:	64555463          	bge	a0,t0,10a10 <.LBB69_2265>

00000000000103cc <.LBB69_2137>:
   103cc:	d2043503          	ld	a0,-736(s0)
   103d0:	64555863          	bge	a0,t0,10a20 <.LBB69_2266>

00000000000103d4 <.LBB69_2138>:
   103d4:	d2843503          	ld	a0,-728(s0)
   103d8:	64555c63          	bge	a0,t0,10a30 <.LBB69_2267>

00000000000103dc <.LBB69_2139>:
   103dc:	d3043503          	ld	a0,-720(s0)
   103e0:	66555063          	bge	a0,t0,10a40 <.LBB69_2268>

00000000000103e4 <.LBB69_2140>:
   103e4:	d3843503          	ld	a0,-712(s0)
   103e8:	66555463          	bge	a0,t0,10a50 <.LBB69_2269>

00000000000103ec <.LBB69_2141>:
   103ec:	d4043503          	ld	a0,-704(s0)
   103f0:	66555863          	bge	a0,t0,10a60 <.LBB69_2270>

00000000000103f4 <.LBB69_2142>:
   103f4:	d4843503          	ld	a0,-696(s0)
   103f8:	66555c63          	bge	a0,t0,10a70 <.LBB69_2271>

00000000000103fc <.LBB69_2143>:
   103fc:	d5843503          	ld	a0,-680(s0)
   10400:	68555063          	bge	a0,t0,10a80 <.LBB69_2272>

0000000000010404 <.LBB69_2144>:
   10404:	d6843503          	ld	a0,-664(s0)
   10408:	68555463          	bge	a0,t0,10a90 <.LBB69_2273>

000000000001040c <.LBB69_2145>:
   1040c:	d7843503          	ld	a0,-648(s0)
   10410:	68555863          	bge	a0,t0,10aa0 <.LBB69_2274>

0000000000010414 <.LBB69_2146>:
   10414:	d8843503          	ld	a0,-632(s0)
   10418:	68555c63          	bge	a0,t0,10ab0 <.LBB69_2275>

000000000001041c <.LBB69_2147>:
   1041c:	d9843503          	ld	a0,-616(s0)
   10420:	6a555063          	bge	a0,t0,10ac0 <.LBB69_2276>

0000000000010424 <.LBB69_2148>:
   10424:	da843503          	ld	a0,-600(s0)
   10428:	6a555463          	bge	a0,t0,10ad0 <.LBB69_2277>

000000000001042c <.LBB69_2149>:
   1042c:	db843503          	ld	a0,-584(s0)
   10430:	6a555863          	bge	a0,t0,10ae0 <.LBB69_2278>

0000000000010434 <.LBB69_2150>:
   10434:	dc843503          	ld	a0,-568(s0)
   10438:	6a555c63          	bge	a0,t0,10af0 <.LBB69_2279>

000000000001043c <.LBB69_2151>:
   1043c:	dd843503          	ld	a0,-552(s0)
   10440:	6c555063          	bge	a0,t0,10b00 <.LBB69_2280>

0000000000010444 <.LBB69_2152>:
   10444:	de843503          	ld	a0,-536(s0)
   10448:	6c555463          	bge	a0,t0,10b10 <.LBB69_2281>

000000000001044c <.LBB69_2153>:
   1044c:	6c53d863          	bge	t2,t0,10b1c <.LBB69_2282>

0000000000010450 <.LBB69_2154>:
   10450:	ce843503          	ld	a0,-792(s0)
   10454:	6c575a63          	bge	a4,t0,10b28 <.LBB69_2283>

0000000000010458 <.LBB69_2155>:
   10458:	6c535c63          	bge	t1,t0,10b30 <.LBB69_2284>

000000000001045c <.LBB69_2156>:
   1045c:	6c5e5e63          	bge	t3,t0,10b38 <.LBB69_2285>

0000000000010460 <.LBB69_2157>:
   10460:	6e50d063          	bge	ra,t0,10b40 <.LBB69_2286>

0000000000010464 <.LBB69_2158>:
   10464:	6e5dd263          	bge	s11,t0,10b48 <.LBB69_2287>

0000000000010468 <.LBB69_2159>:
   10468:	6e5d5463          	bge	s10,t0,10b50 <.LBB69_2288>

000000000001046c <.LBB69_2160>:
   1046c:	6e5cd663          	bge	s9,t0,10b58 <.LBB69_2289>

0000000000010470 <.LBB69_2161>:
   10470:	6e5c5863          	bge	s8,t0,10b60 <.LBB69_2290>

0000000000010474 <.LBB69_2162>:
   10474:	6e5bda63          	bge	s7,t0,10b68 <.LBB69_2291>

0000000000010478 <.LBB69_2163>:
   10478:	6e5b5c63          	bge	s6,t0,10b70 <.LBB69_2292>

000000000001047c <.LBB69_2164>:
   1047c:	6e5ade63          	bge	s5,t0,10b78 <.LBB69_2293>

0000000000010480 <.LBB69_2165>:
   10480:	705a5063          	bge	s4,t0,10b80 <.LBB69_2294>

0000000000010484 <.LBB69_2166>:
   10484:	7059d263          	bge	s3,t0,10b88 <.LBB69_2295>

0000000000010488 <.LBB69_2167>:
   10488:	70595463          	bge	s2,t0,10b90 <.LBB69_2296>

000000000001048c <.LBB69_2168>:
   1048c:	7058d663          	bge	a7,t0,10b98 <.LBB69_2297>

0000000000010490 <.LBB69_2169>:
   10490:	7054d863          	bge	s1,t0,10ba0 <.LBB69_2298>

0000000000010494 <.LBB69_2170>:
   10494:	70585a63          	bge	a6,t0,10ba8 <.LBB69_2299>

0000000000010498 <.LBB69_2171>:
   10498:	c5843f83          	ld	t6,-936(s0)
   1049c:	705fdc63          	bge	t6,t0,10bb4 <.LBB69_2300>

00000000000104a0 <.LBB69_2172>:
   104a0:	725f5063          	bge	t5,t0,10bc0 <.LBB69_2301>

00000000000104a4 <.LBB69_2173>:
   104a4:	000f0f93          	mv	t6,t5
   104a8:	7256d263          	bge	a3,t0,10bcc <.LBB69_2302>

00000000000104ac <.LBB69_2174>:
   104ac:	00068f13          	mv	t5,a3
   104b0:	72565463          	bge	a2,t0,10bd8 <.LBB69_2303>

00000000000104b4 <.LBB69_2175>:
   104b4:	00060693          	mv	a3,a2
   104b8:	c6843603          	ld	a2,-920(s0)
   104bc:	72565663          	bge	a2,t0,10be8 <.LBB69_2304>

00000000000104c0 <.LBB69_2176>:
   104c0:	c7843603          	ld	a2,-904(s0)
   104c4:	72565a63          	bge	a2,t0,10bf8 <.LBB69_2305>

00000000000104c8 <.LBB69_2177>:
   104c8:	c8843603          	ld	a2,-888(s0)
   104cc:	72565e63          	bge	a2,t0,10c08 <.LBB69_2306>

00000000000104d0 <.LBB69_2178>:
   104d0:	c9843603          	ld	a2,-872(s0)
   104d4:	74565263          	bge	a2,t0,10c18 <.LBB69_2307>

00000000000104d8 <.LBB69_2179>:
   104d8:	ca843603          	ld	a2,-856(s0)
   104dc:	74565663          	bge	a2,t0,10c28 <.LBB69_2308>

00000000000104e0 <.LBB69_2180>:
   104e0:	7455da63          	bge	a1,t0,10c34 <.LBB69_2309>

00000000000104e4 <.LBB69_2181>:
   104e4:	c4b43023          	sd	a1,-960(s0)
   104e8:	cc043583          	ld	a1,-832(s0)
   104ec:	00068613          	mv	a2,a3
   104f0:	7455dc63          	bge	a1,t0,10c48 <.LBB69_2310>

00000000000104f4 <.LBB69_2182>:
   104f4:	000f0693          	mv	a3,t5
   104f8:	765ed063          	bge	t4,t0,10c58 <.LBB69_2311>

00000000000104fc <.LBB69_2183>:
   104fc:	c5d43423          	sd	t4,-952(s0)
   10500:	cd843e83          	ld	t4,-808(s0)
   10504:	000f8f13          	mv	t5,t6
   10508:	765ed263          	bge	t4,t0,10c6c <.LBB69_2312>

000000000001050c <.LBB69_2184>:
   1050c:	76555863          	bge	a0,t0,10c7c <.LBB69_2313>
   10510:	859fb06f          	j	bd68 <.LBB69_1543>

0000000000010514 <.LBB69_2185>:
   10514:	f7f00393          	li	t2,-129
   10518:	07e00293          	li	t0,126
   1051c:	c4843783          	ld	a5,-952(s0)
   10520:	c257cae3          	blt	a5,t0,10154 <.LBB69_2058>

0000000000010524 <.LBB69_2186>:
   10524:	07e00793          	li	a5,126
   10528:	e5843503          	ld	a0,-424(s0)
   1052c:	c25548e3          	blt	a0,t0,1015c <.LBB69_2059>

0000000000010530 <.LBB69_2187>:
   10530:	07e00513          	li	a0,126
   10534:	e4a43c23          	sd	a0,-424(s0)
   10538:	e6843503          	ld	a0,-408(s0)
   1053c:	c25544e3          	blt	a0,t0,10164 <.LBB69_2060>

0000000000010540 <.LBB69_2188>:
   10540:	07e00513          	li	a0,126
   10544:	e6a43423          	sd	a0,-408(s0)
   10548:	e7843503          	ld	a0,-392(s0)
   1054c:	c25540e3          	blt	a0,t0,1016c <.LBB69_2061>

0000000000010550 <.LBB69_2189>:
   10550:	07e00513          	li	a0,126
   10554:	e6a43c23          	sd	a0,-392(s0)
   10558:	e8843503          	ld	a0,-376(s0)
   1055c:	c0554ce3          	blt	a0,t0,10174 <.LBB69_2062>

0000000000010560 <.LBB69_2190>:
   10560:	07e00513          	li	a0,126
   10564:	e8a43423          	sd	a0,-376(s0)
   10568:	e9843503          	ld	a0,-360(s0)
   1056c:	c05548e3          	blt	a0,t0,1017c <.LBB69_2063>

0000000000010570 <.LBB69_2191>:
   10570:	07e00513          	li	a0,126
   10574:	e8a43c23          	sd	a0,-360(s0)
   10578:	ea843503          	ld	a0,-344(s0)
   1057c:	c05544e3          	blt	a0,t0,10184 <.LBB69_2064>

0000000000010580 <.LBB69_2192>:
   10580:	07e00513          	li	a0,126
   10584:	eaa43423          	sd	a0,-344(s0)
   10588:	eb843503          	ld	a0,-328(s0)
   1058c:	c05540e3          	blt	a0,t0,1018c <.LBB69_2065>

0000000000010590 <.LBB69_2193>:
   10590:	07e00513          	li	a0,126
   10594:	eaa43c23          	sd	a0,-328(s0)
   10598:	ec843503          	ld	a0,-312(s0)
   1059c:	be554ce3          	blt	a0,t0,10194 <.LBB69_2066>

00000000000105a0 <.LBB69_2194>:
   105a0:	07e00513          	li	a0,126
   105a4:	eca43423          	sd	a0,-312(s0)
   105a8:	ed843503          	ld	a0,-296(s0)
   105ac:	be5548e3          	blt	a0,t0,1019c <.LBB69_2067>

00000000000105b0 <.LBB69_2195>:
   105b0:	07e00513          	li	a0,126
   105b4:	eca43c23          	sd	a0,-296(s0)
   105b8:	ee843503          	ld	a0,-280(s0)
   105bc:	be5544e3          	blt	a0,t0,101a4 <.LBB69_2068>

00000000000105c0 <.LBB69_2196>:
   105c0:	07e00513          	li	a0,126
   105c4:	eea43423          	sd	a0,-280(s0)
   105c8:	ef043503          	ld	a0,-272(s0)
   105cc:	be5540e3          	blt	a0,t0,101ac <.LBB69_2069>

00000000000105d0 <.LBB69_2197>:
   105d0:	07e00513          	li	a0,126
   105d4:	eea43823          	sd	a0,-272(s0)
   105d8:	ef843503          	ld	a0,-264(s0)
   105dc:	bc554ce3          	blt	a0,t0,101b4 <.LBB69_2070>

00000000000105e0 <.LBB69_2198>:
   105e0:	07e00513          	li	a0,126
   105e4:	eea43c23          	sd	a0,-264(s0)
   105e8:	f0043503          	ld	a0,-256(s0)
   105ec:	bc5548e3          	blt	a0,t0,101bc <.LBB69_2071>

00000000000105f0 <.LBB69_2199>:
   105f0:	07e00513          	li	a0,126
   105f4:	f0a43023          	sd	a0,-256(s0)
   105f8:	f0843503          	ld	a0,-248(s0)
   105fc:	bc5544e3          	blt	a0,t0,101c4 <.LBB69_2072>

0000000000010600 <.LBB69_2200>:
   10600:	07e00513          	li	a0,126
   10604:	f0a43423          	sd	a0,-248(s0)
   10608:	f1043503          	ld	a0,-240(s0)
   1060c:	bc5540e3          	blt	a0,t0,101cc <.LBB69_2073>

0000000000010610 <.LBB69_2201>:
   10610:	07e00513          	li	a0,126
   10614:	f0a43823          	sd	a0,-240(s0)
   10618:	f1843503          	ld	a0,-232(s0)
   1061c:	ba554ce3          	blt	a0,t0,101d4 <.LBB69_2074>

0000000000010620 <.LBB69_2202>:
   10620:	07e00513          	li	a0,126
   10624:	f0a43c23          	sd	a0,-232(s0)
   10628:	f2043503          	ld	a0,-224(s0)
   1062c:	ba5548e3          	blt	a0,t0,101dc <.LBB69_2075>

0000000000010630 <.LBB69_2203>:
   10630:	07e00513          	li	a0,126
   10634:	f2a43023          	sd	a0,-224(s0)
   10638:	f2843503          	ld	a0,-216(s0)
   1063c:	ba5544e3          	blt	a0,t0,101e4 <.LBB69_2076>

0000000000010640 <.LBB69_2204>:
   10640:	07e00513          	li	a0,126
   10644:	f2a43423          	sd	a0,-216(s0)
   10648:	f3043503          	ld	a0,-208(s0)
   1064c:	ba5540e3          	blt	a0,t0,101ec <.LBB69_2077>

0000000000010650 <.LBB69_2205>:
   10650:	07e00513          	li	a0,126
   10654:	f2a43823          	sd	a0,-208(s0)
   10658:	f3843503          	ld	a0,-200(s0)
   1065c:	b8554ce3          	blt	a0,t0,101f4 <.LBB69_2078>

0000000000010660 <.LBB69_2206>:
   10660:	07e00513          	li	a0,126
   10664:	f2a43c23          	sd	a0,-200(s0)
   10668:	f4043503          	ld	a0,-192(s0)
   1066c:	b85548e3          	blt	a0,t0,101fc <.LBB69_2079>

0000000000010670 <.LBB69_2207>:
   10670:	07e00513          	li	a0,126
   10674:	f4a43023          	sd	a0,-192(s0)
   10678:	f4843503          	ld	a0,-184(s0)
   1067c:	b85544e3          	blt	a0,t0,10204 <.LBB69_2080>

0000000000010680 <.LBB69_2208>:
   10680:	07e00513          	li	a0,126
   10684:	f4a43423          	sd	a0,-184(s0)
   10688:	f5043503          	ld	a0,-176(s0)
   1068c:	b85540e3          	blt	a0,t0,1020c <.LBB69_2081>

0000000000010690 <.LBB69_2209>:
   10690:	07e00513          	li	a0,126
   10694:	f4a43823          	sd	a0,-176(s0)
   10698:	f5843503          	ld	a0,-168(s0)
   1069c:	b6554ce3          	blt	a0,t0,10214 <.LBB69_2082>

00000000000106a0 <.LBB69_2210>:
   106a0:	07e00513          	li	a0,126
   106a4:	f4a43c23          	sd	a0,-168(s0)
   106a8:	f6043503          	ld	a0,-160(s0)
   106ac:	b65548e3          	blt	a0,t0,1021c <.LBB69_2083>

00000000000106b0 <.LBB69_2211>:
   106b0:	07e00513          	li	a0,126
   106b4:	f6a43023          	sd	a0,-160(s0)
   106b8:	f6843503          	ld	a0,-152(s0)
   106bc:	b65544e3          	blt	a0,t0,10224 <.LBB69_2084>

00000000000106c0 <.LBB69_2212>:
   106c0:	07e00513          	li	a0,126
   106c4:	f6a43423          	sd	a0,-152(s0)
   106c8:	f7043503          	ld	a0,-144(s0)
   106cc:	b65540e3          	blt	a0,t0,1022c <.LBB69_2085>

00000000000106d0 <.LBB69_2213>:
   106d0:	07e00513          	li	a0,126
   106d4:	f6a43823          	sd	a0,-144(s0)
   106d8:	f7843503          	ld	a0,-136(s0)
   106dc:	b4554ce3          	blt	a0,t0,10234 <.LBB69_2086>

00000000000106e0 <.LBB69_2214>:
   106e0:	07e00513          	li	a0,126
   106e4:	f6a43c23          	sd	a0,-136(s0)
   106e8:	f8043503          	ld	a0,-128(s0)
   106ec:	b45548e3          	blt	a0,t0,1023c <.LBB69_2087>

00000000000106f0 <.LBB69_2215>:
   106f0:	07e00513          	li	a0,126
   106f4:	f8a43023          	sd	a0,-128(s0)
   106f8:	f8843503          	ld	a0,-120(s0)
   106fc:	b45544e3          	blt	a0,t0,10244 <.LBB69_2088>

0000000000010700 <.LBB69_2216>:
   10700:	07e00513          	li	a0,126
   10704:	f8a43423          	sd	a0,-120(s0)
   10708:	c5043503          	ld	a0,-944(s0)
   1070c:	b45540e3          	blt	a0,t0,1024c <.LBB69_2089>

0000000000010710 <.LBB69_2217>:
   10710:	07e00513          	li	a0,126
   10714:	c4a43823          	sd	a0,-944(s0)
   10718:	d5043503          	ld	a0,-688(s0)
   1071c:	b2554ce3          	blt	a0,t0,10254 <.LBB69_2090>

0000000000010720 <.LBB69_2218>:
   10720:	07e00513          	li	a0,126
   10724:	d4a43823          	sd	a0,-688(s0)
   10728:	d6043503          	ld	a0,-672(s0)
   1072c:	b25548e3          	blt	a0,t0,1025c <.LBB69_2091>

0000000000010730 <.LBB69_2219>:
   10730:	07e00513          	li	a0,126
   10734:	d6a43023          	sd	a0,-672(s0)
   10738:	d7043503          	ld	a0,-656(s0)
   1073c:	b25544e3          	blt	a0,t0,10264 <.LBB69_2092>

0000000000010740 <.LBB69_2220>:
   10740:	07e00513          	li	a0,126
   10744:	d6a43823          	sd	a0,-656(s0)
   10748:	d8043503          	ld	a0,-640(s0)
   1074c:	b25540e3          	blt	a0,t0,1026c <.LBB69_2093>

0000000000010750 <.LBB69_2221>:
   10750:	07e00513          	li	a0,126
   10754:	d8a43023          	sd	a0,-640(s0)
   10758:	d9043503          	ld	a0,-624(s0)
   1075c:	b0554ce3          	blt	a0,t0,10274 <.LBB69_2094>

0000000000010760 <.LBB69_2222>:
   10760:	07e00513          	li	a0,126
   10764:	d8a43823          	sd	a0,-624(s0)
   10768:	da043503          	ld	a0,-608(s0)
   1076c:	b05548e3          	blt	a0,t0,1027c <.LBB69_2095>

0000000000010770 <.LBB69_2223>:
   10770:	07e00513          	li	a0,126
   10774:	daa43023          	sd	a0,-608(s0)
   10778:	db043503          	ld	a0,-592(s0)
   1077c:	b05544e3          	blt	a0,t0,10284 <.LBB69_2096>

0000000000010780 <.LBB69_2224>:
   10780:	07e00513          	li	a0,126
   10784:	daa43823          	sd	a0,-592(s0)
   10788:	dc043503          	ld	a0,-576(s0)
   1078c:	b05540e3          	blt	a0,t0,1028c <.LBB69_2097>

0000000000010790 <.LBB69_2225>:
   10790:	07e00513          	li	a0,126
   10794:	dca43023          	sd	a0,-576(s0)
   10798:	dd043503          	ld	a0,-560(s0)
   1079c:	ae554ce3          	blt	a0,t0,10294 <.LBB69_2098>

00000000000107a0 <.LBB69_2226>:
   107a0:	07e00513          	li	a0,126
   107a4:	dca43823          	sd	a0,-560(s0)
   107a8:	de043503          	ld	a0,-544(s0)
   107ac:	ae5548e3          	blt	a0,t0,1029c <.LBB69_2099>

00000000000107b0 <.LBB69_2227>:
   107b0:	07e00513          	li	a0,126
   107b4:	dea43023          	sd	a0,-544(s0)
   107b8:	df043503          	ld	a0,-528(s0)
   107bc:	ae5544e3          	blt	a0,t0,102a4 <.LBB69_2100>

00000000000107c0 <.LBB69_2228>:
   107c0:	07e00513          	li	a0,126
   107c4:	dea43823          	sd	a0,-528(s0)
   107c8:	df843503          	ld	a0,-520(s0)
   107cc:	ae5540e3          	blt	a0,t0,102ac <.LBB69_2101>

00000000000107d0 <.LBB69_2229>:
   107d0:	07e00513          	li	a0,126
   107d4:	dea43c23          	sd	a0,-520(s0)
   107d8:	e0043503          	ld	a0,-512(s0)
   107dc:	ac554ce3          	blt	a0,t0,102b4 <.LBB69_2102>

00000000000107e0 <.LBB69_2230>:
   107e0:	07e00513          	li	a0,126
   107e4:	e0a43023          	sd	a0,-512(s0)
   107e8:	e0843503          	ld	a0,-504(s0)
   107ec:	ac5548e3          	blt	a0,t0,102bc <.LBB69_2103>

00000000000107f0 <.LBB69_2231>:
   107f0:	07e00513          	li	a0,126
   107f4:	e0a43423          	sd	a0,-504(s0)
   107f8:	e1043503          	ld	a0,-496(s0)
   107fc:	ac5544e3          	blt	a0,t0,102c4 <.LBB69_2104>

0000000000010800 <.LBB69_2232>:
   10800:	07e00513          	li	a0,126
   10804:	e0a43823          	sd	a0,-496(s0)
   10808:	e1843503          	ld	a0,-488(s0)
   1080c:	ac5540e3          	blt	a0,t0,102cc <.LBB69_2105>

0000000000010810 <.LBB69_2233>:
   10810:	07e00513          	li	a0,126
   10814:	e0a43c23          	sd	a0,-488(s0)
   10818:	e2043503          	ld	a0,-480(s0)
   1081c:	aa554ce3          	blt	a0,t0,102d4 <.LBB69_2106>

0000000000010820 <.LBB69_2234>:
   10820:	07e00513          	li	a0,126
   10824:	e2a43023          	sd	a0,-480(s0)
   10828:	e2843503          	ld	a0,-472(s0)
   1082c:	aa5548e3          	blt	a0,t0,102dc <.LBB69_2107>

0000000000010830 <.LBB69_2235>:
   10830:	07e00513          	li	a0,126
   10834:	e2a43423          	sd	a0,-472(s0)
   10838:	e3043503          	ld	a0,-464(s0)
   1083c:	aa5544e3          	blt	a0,t0,102e4 <.LBB69_2108>

0000000000010840 <.LBB69_2236>:
   10840:	07e00513          	li	a0,126
   10844:	e2a43823          	sd	a0,-464(s0)
   10848:	e3843503          	ld	a0,-456(s0)
   1084c:	aa5540e3          	blt	a0,t0,102ec <.LBB69_2109>

0000000000010850 <.LBB69_2237>:
   10850:	07e00513          	li	a0,126
   10854:	e2a43c23          	sd	a0,-456(s0)
   10858:	e4043503          	ld	a0,-448(s0)
   1085c:	a8554ce3          	blt	a0,t0,102f4 <.LBB69_2110>

0000000000010860 <.LBB69_2238>:
   10860:	07e00513          	li	a0,126
   10864:	e4a43023          	sd	a0,-448(s0)
   10868:	e4843503          	ld	a0,-440(s0)
   1086c:	a85548e3          	blt	a0,t0,102fc <.LBB69_2111>

0000000000010870 <.LBB69_2239>:
   10870:	07e00513          	li	a0,126
   10874:	e4a43423          	sd	a0,-440(s0)
   10878:	e5043503          	ld	a0,-432(s0)
   1087c:	a85544e3          	blt	a0,t0,10304 <.LBB69_2112>

0000000000010880 <.LBB69_2240>:
   10880:	07e00513          	li	a0,126
   10884:	e4a43823          	sd	a0,-432(s0)
   10888:	e6043503          	ld	a0,-416(s0)
   1088c:	a85540e3          	blt	a0,t0,1030c <.LBB69_2113>

0000000000010890 <.LBB69_2241>:
   10890:	07e00513          	li	a0,126
   10894:	e6a43023          	sd	a0,-416(s0)
   10898:	e7043503          	ld	a0,-400(s0)
   1089c:	a6554ce3          	blt	a0,t0,10314 <.LBB69_2114>

00000000000108a0 <.LBB69_2242>:
   108a0:	07e00513          	li	a0,126
   108a4:	e6a43823          	sd	a0,-400(s0)
   108a8:	e8043503          	ld	a0,-384(s0)
   108ac:	a65548e3          	blt	a0,t0,1031c <.LBB69_2115>

00000000000108b0 <.LBB69_2243>:
   108b0:	07e00513          	li	a0,126
   108b4:	e8a43023          	sd	a0,-384(s0)
   108b8:	e9043503          	ld	a0,-368(s0)
   108bc:	a65544e3          	blt	a0,t0,10324 <.LBB69_2116>

00000000000108c0 <.LBB69_2244>:
   108c0:	07e00513          	li	a0,126
   108c4:	e8a43823          	sd	a0,-368(s0)
   108c8:	ea043503          	ld	a0,-352(s0)
   108cc:	a65540e3          	blt	a0,t0,1032c <.LBB69_2117>

00000000000108d0 <.LBB69_2245>:
   108d0:	07e00513          	li	a0,126
   108d4:	eaa43023          	sd	a0,-352(s0)
   108d8:	eb043503          	ld	a0,-336(s0)
   108dc:	a4554ce3          	blt	a0,t0,10334 <.LBB69_2118>

00000000000108e0 <.LBB69_2246>:
   108e0:	07e00513          	li	a0,126
   108e4:	eaa43823          	sd	a0,-336(s0)
   108e8:	ec043503          	ld	a0,-320(s0)
   108ec:	a45548e3          	blt	a0,t0,1033c <.LBB69_2119>

00000000000108f0 <.LBB69_2247>:
   108f0:	07e00513          	li	a0,126
   108f4:	eca43023          	sd	a0,-320(s0)
   108f8:	ed043503          	ld	a0,-304(s0)
   108fc:	a45544e3          	blt	a0,t0,10344 <.LBB69_2120>

0000000000010900 <.LBB69_2248>:
   10900:	07e00513          	li	a0,126
   10904:	eca43823          	sd	a0,-304(s0)
   10908:	ee043503          	ld	a0,-288(s0)
   1090c:	a45540e3          	blt	a0,t0,1034c <.LBB69_2121>

0000000000010910 <.LBB69_2249>:
   10910:	07e00513          	li	a0,126
   10914:	eea43023          	sd	a0,-288(s0)
   10918:	c6043503          	ld	a0,-928(s0)
   1091c:	a2554ce3          	blt	a0,t0,10354 <.LBB69_2122>

0000000000010920 <.LBB69_2250>:
   10920:	07e00513          	li	a0,126
   10924:	c6a43023          	sd	a0,-928(s0)
   10928:	c7043503          	ld	a0,-912(s0)
   1092c:	a25548e3          	blt	a0,t0,1035c <.LBB69_2123>

0000000000010930 <.LBB69_2251>:
   10930:	07e00513          	li	a0,126
   10934:	c6a43823          	sd	a0,-912(s0)
   10938:	c8043503          	ld	a0,-896(s0)
   1093c:	a25544e3          	blt	a0,t0,10364 <.LBB69_2124>

0000000000010940 <.LBB69_2252>:
   10940:	07e00513          	li	a0,126
   10944:	c8a43023          	sd	a0,-896(s0)
   10948:	c9043503          	ld	a0,-880(s0)
   1094c:	a25540e3          	blt	a0,t0,1036c <.LBB69_2125>

0000000000010950 <.LBB69_2253>:
   10950:	07e00513          	li	a0,126
   10954:	c8a43823          	sd	a0,-880(s0)
   10958:	ca043503          	ld	a0,-864(s0)
   1095c:	a0554ce3          	blt	a0,t0,10374 <.LBB69_2126>

0000000000010960 <.LBB69_2254>:
   10960:	07e00513          	li	a0,126
   10964:	caa43023          	sd	a0,-864(s0)
   10968:	cb043503          	ld	a0,-848(s0)
   1096c:	a05548e3          	blt	a0,t0,1037c <.LBB69_2127>

0000000000010970 <.LBB69_2255>:
   10970:	07e00513          	li	a0,126
   10974:	caa43823          	sd	a0,-848(s0)
   10978:	cb843503          	ld	a0,-840(s0)
   1097c:	a05544e3          	blt	a0,t0,10384 <.LBB69_2128>

0000000000010980 <.LBB69_2256>:
   10980:	07e00513          	li	a0,126
   10984:	caa43c23          	sd	a0,-840(s0)
   10988:	cc843503          	ld	a0,-824(s0)
   1098c:	a05540e3          	blt	a0,t0,1038c <.LBB69_2129>

0000000000010990 <.LBB69_2257>:
   10990:	07e00513          	li	a0,126
   10994:	cca43423          	sd	a0,-824(s0)
   10998:	cd043503          	ld	a0,-816(s0)
   1099c:	9e554ce3          	blt	a0,t0,10394 <.LBB69_2130>

00000000000109a0 <.LBB69_2258>:
   109a0:	07e00513          	li	a0,126
   109a4:	cca43823          	sd	a0,-816(s0)
   109a8:	ce043503          	ld	a0,-800(s0)
   109ac:	9e5548e3          	blt	a0,t0,1039c <.LBB69_2131>

00000000000109b0 <.LBB69_2259>:
   109b0:	07e00513          	li	a0,126
   109b4:	cea43023          	sd	a0,-800(s0)
   109b8:	cf043503          	ld	a0,-784(s0)
   109bc:	9e5544e3          	blt	a0,t0,103a4 <.LBB69_2132>

00000000000109c0 <.LBB69_2260>:
   109c0:	07e00513          	li	a0,126
   109c4:	cea43823          	sd	a0,-784(s0)
   109c8:	cf843503          	ld	a0,-776(s0)
   109cc:	9e5540e3          	blt	a0,t0,103ac <.LBB69_2133>

00000000000109d0 <.LBB69_2261>:
   109d0:	07e00513          	li	a0,126
   109d4:	cea43c23          	sd	a0,-776(s0)
   109d8:	d0043503          	ld	a0,-768(s0)
   109dc:	9c554ce3          	blt	a0,t0,103b4 <.LBB69_2134>

00000000000109e0 <.LBB69_2262>:
   109e0:	07e00513          	li	a0,126
   109e4:	d0a43023          	sd	a0,-768(s0)
   109e8:	d0843503          	ld	a0,-760(s0)
   109ec:	9c5548e3          	blt	a0,t0,103bc <.LBB69_2135>

00000000000109f0 <.LBB69_2263>:
   109f0:	07e00513          	li	a0,126
   109f4:	d0a43423          	sd	a0,-760(s0)
   109f8:	d1043503          	ld	a0,-752(s0)
   109fc:	9c5544e3          	blt	a0,t0,103c4 <.LBB69_2136>

0000000000010a00 <.LBB69_2264>:
   10a00:	07e00513          	li	a0,126
   10a04:	d0a43823          	sd	a0,-752(s0)
   10a08:	d1843503          	ld	a0,-744(s0)
   10a0c:	9c5540e3          	blt	a0,t0,103cc <.LBB69_2137>

0000000000010a10 <.LBB69_2265>:
   10a10:	07e00513          	li	a0,126
   10a14:	d0a43c23          	sd	a0,-744(s0)
   10a18:	d2043503          	ld	a0,-736(s0)
   10a1c:	9a554ce3          	blt	a0,t0,103d4 <.LBB69_2138>

0000000000010a20 <.LBB69_2266>:
   10a20:	07e00513          	li	a0,126
   10a24:	d2a43023          	sd	a0,-736(s0)
   10a28:	d2843503          	ld	a0,-728(s0)
   10a2c:	9a5548e3          	blt	a0,t0,103dc <.LBB69_2139>

0000000000010a30 <.LBB69_2267>:
   10a30:	07e00513          	li	a0,126
   10a34:	d2a43423          	sd	a0,-728(s0)
   10a38:	d3043503          	ld	a0,-720(s0)
   10a3c:	9a5544e3          	blt	a0,t0,103e4 <.LBB69_2140>

0000000000010a40 <.LBB69_2268>:
   10a40:	07e00513          	li	a0,126
   10a44:	d2a43823          	sd	a0,-720(s0)
   10a48:	d3843503          	ld	a0,-712(s0)
   10a4c:	9a5540e3          	blt	a0,t0,103ec <.LBB69_2141>

0000000000010a50 <.LBB69_2269>:
   10a50:	07e00513          	li	a0,126
   10a54:	d2a43c23          	sd	a0,-712(s0)
   10a58:	d4043503          	ld	a0,-704(s0)
   10a5c:	98554ce3          	blt	a0,t0,103f4 <.LBB69_2142>

0000000000010a60 <.LBB69_2270>:
   10a60:	07e00513          	li	a0,126
   10a64:	d4a43023          	sd	a0,-704(s0)
   10a68:	d4843503          	ld	a0,-696(s0)
   10a6c:	985548e3          	blt	a0,t0,103fc <.LBB69_2143>

0000000000010a70 <.LBB69_2271>:
   10a70:	07e00513          	li	a0,126
   10a74:	d4a43423          	sd	a0,-696(s0)
   10a78:	d5843503          	ld	a0,-680(s0)
   10a7c:	985544e3          	blt	a0,t0,10404 <.LBB69_2144>

0000000000010a80 <.LBB69_2272>:
   10a80:	07e00513          	li	a0,126
   10a84:	d4a43c23          	sd	a0,-680(s0)
   10a88:	d6843503          	ld	a0,-664(s0)
   10a8c:	985540e3          	blt	a0,t0,1040c <.LBB69_2145>

0000000000010a90 <.LBB69_2273>:
   10a90:	07e00513          	li	a0,126
   10a94:	d6a43423          	sd	a0,-664(s0)
   10a98:	d7843503          	ld	a0,-648(s0)
   10a9c:	96554ce3          	blt	a0,t0,10414 <.LBB69_2146>

0000000000010aa0 <.LBB69_2274>:
   10aa0:	07e00513          	li	a0,126
   10aa4:	d6a43c23          	sd	a0,-648(s0)
   10aa8:	d8843503          	ld	a0,-632(s0)
   10aac:	965548e3          	blt	a0,t0,1041c <.LBB69_2147>

0000000000010ab0 <.LBB69_2275>:
   10ab0:	07e00513          	li	a0,126
   10ab4:	d8a43423          	sd	a0,-632(s0)
   10ab8:	d9843503          	ld	a0,-616(s0)
   10abc:	965544e3          	blt	a0,t0,10424 <.LBB69_2148>

0000000000010ac0 <.LBB69_2276>:
   10ac0:	07e00513          	li	a0,126
   10ac4:	d8a43c23          	sd	a0,-616(s0)
   10ac8:	da843503          	ld	a0,-600(s0)
   10acc:	965540e3          	blt	a0,t0,1042c <.LBB69_2149>

0000000000010ad0 <.LBB69_2277>:
   10ad0:	07e00513          	li	a0,126
   10ad4:	daa43423          	sd	a0,-600(s0)
   10ad8:	db843503          	ld	a0,-584(s0)
   10adc:	94554ce3          	blt	a0,t0,10434 <.LBB69_2150>

0000000000010ae0 <.LBB69_2278>:
   10ae0:	07e00513          	li	a0,126
   10ae4:	daa43c23          	sd	a0,-584(s0)
   10ae8:	dc843503          	ld	a0,-568(s0)
   10aec:	945548e3          	blt	a0,t0,1043c <.LBB69_2151>

0000000000010af0 <.LBB69_2279>:
   10af0:	07e00513          	li	a0,126
   10af4:	dca43423          	sd	a0,-568(s0)
   10af8:	dd843503          	ld	a0,-552(s0)
   10afc:	945544e3          	blt	a0,t0,10444 <.LBB69_2152>

0000000000010b00 <.LBB69_2280>:
   10b00:	07e00513          	li	a0,126
   10b04:	dca43c23          	sd	a0,-552(s0)
   10b08:	de843503          	ld	a0,-536(s0)
   10b0c:	945540e3          	blt	a0,t0,1044c <.LBB69_2153>

0000000000010b10 <.LBB69_2281>:
   10b10:	07e00513          	li	a0,126
   10b14:	dea43423          	sd	a0,-536(s0)
   10b18:	9253cce3          	blt	t2,t0,10450 <.LBB69_2154>

0000000000010b1c <.LBB69_2282>:
   10b1c:	07e00393          	li	t2,126
   10b20:	ce843503          	ld	a0,-792(s0)
   10b24:	92574ae3          	blt	a4,t0,10458 <.LBB69_2155>

0000000000010b28 <.LBB69_2283>:
   10b28:	07e00713          	li	a4,126
   10b2c:	925348e3          	blt	t1,t0,1045c <.LBB69_2156>

0000000000010b30 <.LBB69_2284>:
   10b30:	07e00313          	li	t1,126
   10b34:	925e46e3          	blt	t3,t0,10460 <.LBB69_2157>

0000000000010b38 <.LBB69_2285>:
   10b38:	07e00e13          	li	t3,126
   10b3c:	9250c4e3          	blt	ra,t0,10464 <.LBB69_2158>

0000000000010b40 <.LBB69_2286>:
   10b40:	07e00093          	li	ra,126
   10b44:	925dc2e3          	blt	s11,t0,10468 <.LBB69_2159>

0000000000010b48 <.LBB69_2287>:
   10b48:	07e00d93          	li	s11,126
   10b4c:	925d40e3          	blt	s10,t0,1046c <.LBB69_2160>

0000000000010b50 <.LBB69_2288>:
   10b50:	07e00d13          	li	s10,126
   10b54:	905ccee3          	blt	s9,t0,10470 <.LBB69_2161>

0000000000010b58 <.LBB69_2289>:
   10b58:	07e00c93          	li	s9,126
   10b5c:	905c4ce3          	blt	s8,t0,10474 <.LBB69_2162>

0000000000010b60 <.LBB69_2290>:
   10b60:	07e00c13          	li	s8,126
   10b64:	905bcae3          	blt	s7,t0,10478 <.LBB69_2163>

0000000000010b68 <.LBB69_2291>:
   10b68:	07e00b93          	li	s7,126
   10b6c:	905b48e3          	blt	s6,t0,1047c <.LBB69_2164>

0000000000010b70 <.LBB69_2292>:
   10b70:	07e00b13          	li	s6,126
   10b74:	905ac6e3          	blt	s5,t0,10480 <.LBB69_2165>

0000000000010b78 <.LBB69_2293>:
   10b78:	07e00a93          	li	s5,126
   10b7c:	905a44e3          	blt	s4,t0,10484 <.LBB69_2166>

0000000000010b80 <.LBB69_2294>:
   10b80:	07e00a13          	li	s4,126
   10b84:	9059c2e3          	blt	s3,t0,10488 <.LBB69_2167>

0000000000010b88 <.LBB69_2295>:
   10b88:	07e00993          	li	s3,126
   10b8c:	905940e3          	blt	s2,t0,1048c <.LBB69_2168>

0000000000010b90 <.LBB69_2296>:
   10b90:	07e00913          	li	s2,126
   10b94:	8e58cee3          	blt	a7,t0,10490 <.LBB69_2169>

0000000000010b98 <.LBB69_2297>:
   10b98:	07e00893          	li	a7,126
   10b9c:	8e54cce3          	blt	s1,t0,10494 <.LBB69_2170>

0000000000010ba0 <.LBB69_2298>:
   10ba0:	07e00493          	li	s1,126
   10ba4:	8e584ae3          	blt	a6,t0,10498 <.LBB69_2171>

0000000000010ba8 <.LBB69_2299>:
   10ba8:	07e00813          	li	a6,126
   10bac:	c5843f83          	ld	t6,-936(s0)
   10bb0:	8e5fc8e3          	blt	t6,t0,104a0 <.LBB69_2172>

0000000000010bb4 <.LBB69_2300>:
   10bb4:	07e00f93          	li	t6,126
   10bb8:	c5f43c23          	sd	t6,-936(s0)
   10bbc:	8e5f44e3          	blt	t5,t0,104a4 <.LBB69_2173>

0000000000010bc0 <.LBB69_2301>:
   10bc0:	07e00f13          	li	t5,126
   10bc4:	000f0f93          	mv	t6,t5
   10bc8:	8e56c2e3          	blt	a3,t0,104ac <.LBB69_2174>

0000000000010bcc <.LBB69_2302>:
   10bcc:	07e00693          	li	a3,126
   10bd0:	00068f13          	mv	t5,a3
   10bd4:	8e5640e3          	blt	a2,t0,104b4 <.LBB69_2175>

0000000000010bd8 <.LBB69_2303>:
   10bd8:	07e00613          	li	a2,126
   10bdc:	00060693          	mv	a3,a2
   10be0:	c6843603          	ld	a2,-920(s0)
   10be4:	8c564ee3          	blt	a2,t0,104c0 <.LBB69_2176>

0000000000010be8 <.LBB69_2304>:
   10be8:	07e00613          	li	a2,126
   10bec:	c6c43423          	sd	a2,-920(s0)
   10bf0:	c7843603          	ld	a2,-904(s0)
   10bf4:	8c564ae3          	blt	a2,t0,104c8 <.LBB69_2177>

0000000000010bf8 <.LBB69_2305>:
   10bf8:	07e00613          	li	a2,126
   10bfc:	c6c43c23          	sd	a2,-904(s0)
   10c00:	c8843603          	ld	a2,-888(s0)
   10c04:	8c5646e3          	blt	a2,t0,104d0 <.LBB69_2178>

0000000000010c08 <.LBB69_2306>:
   10c08:	07e00613          	li	a2,126
   10c0c:	c8c43423          	sd	a2,-888(s0)
   10c10:	c9843603          	ld	a2,-872(s0)
   10c14:	8c5642e3          	blt	a2,t0,104d8 <.LBB69_2179>

0000000000010c18 <.LBB69_2307>:
   10c18:	07e00613          	li	a2,126
   10c1c:	c8c43c23          	sd	a2,-872(s0)
   10c20:	ca843603          	ld	a2,-856(s0)
   10c24:	8a564ee3          	blt	a2,t0,104e0 <.LBB69_2180>

0000000000010c28 <.LBB69_2308>:
   10c28:	07e00613          	li	a2,126
   10c2c:	cac43423          	sd	a2,-856(s0)
   10c30:	8a55cae3          	blt	a1,t0,104e4 <.LBB69_2181>

0000000000010c34 <.LBB69_2309>:
   10c34:	07e00593          	li	a1,126
   10c38:	c4b43023          	sd	a1,-960(s0)
   10c3c:	cc043583          	ld	a1,-832(s0)
   10c40:	00068613          	mv	a2,a3
   10c44:	8a55c8e3          	blt	a1,t0,104f4 <.LBB69_2182>

0000000000010c48 <.LBB69_2310>:
   10c48:	07e00593          	li	a1,126
   10c4c:	ccb43023          	sd	a1,-832(s0)
   10c50:	000f0693          	mv	a3,t5
   10c54:	8a5ec4e3          	blt	t4,t0,104fc <.LBB69_2183>

0000000000010c58 <.LBB69_2311>:
   10c58:	07e00e93          	li	t4,126
   10c5c:	c5d43423          	sd	t4,-952(s0)
   10c60:	cd843e83          	ld	t4,-808(s0)
   10c64:	000f8f13          	mv	t5,t6
   10c68:	8a5ec2e3          	blt	t4,t0,1050c <.LBB69_2184>

0000000000010c6c <.LBB69_2312>:
   10c6c:	07e00e93          	li	t4,126
   10c70:	cdd43c23          	sd	t4,-808(s0)
   10c74:	00555463          	bge	a0,t0,10c7c <.LBB69_2313>
   10c78:	8f0fb06f          	j	bd68 <.LBB69_1543>

0000000000010c7c <.LBB69_2313>:
   10c7c:	07e00513          	li	a0,126
   10c80:	8e8fb06f          	j	bd68 <.LBB69_1543>

0000000000010c84 <.LBB69_2314>:
   10c84:	00000513          	li	a0,0
   10c88:	7f010113          	addi	sp,sp,2032
   10c8c:	53010113          	addi	sp,sp,1328
   10c90:	7e813083          	ld	ra,2024(sp)
   10c94:	7e013403          	ld	s0,2016(sp)
   10c98:	7d813483          	ld	s1,2008(sp)
   10c9c:	7d013903          	ld	s2,2000(sp)
   10ca0:	7c813983          	ld	s3,1992(sp)
   10ca4:	7c013a03          	ld	s4,1984(sp)
   10ca8:	7b813a83          	ld	s5,1976(sp)
   10cac:	7b013b03          	ld	s6,1968(sp)
   10cb0:	7a813b83          	ld	s7,1960(sp)
   10cb4:	7a013c03          	ld	s8,1952(sp)
   10cb8:	79813c83          	ld	s9,1944(sp)
   10cbc:	79013d03          	ld	s10,1936(sp)
   10cc0:	78813d83          	ld	s11,1928(sp)
   10cc4:	7f010113          	addi	sp,sp,2032
   10cc8:	00008067          	ret
