
code.o:     file format elf64-littleriscv


Disassembly of section .text.main_dispatch_143_matmul_1x1001x1280_i8xi8xi32:

0000000000000000 <main_dispatch_143_matmul_1x1001x1280_i8xi8xi32>:
       0:	c8010113          	addi	sp,sp,-896
       4:	36113c23          	sd	ra,888(sp)
       8:	36813823          	sd	s0,880(sp)
       c:	36913423          	sd	s1,872(sp)
      10:	37213023          	sd	s2,864(sp)
      14:	35313c23          	sd	s3,856(sp)
      18:	35413823          	sd	s4,848(sp)
      1c:	35513423          	sd	s5,840(sp)
      20:	35613023          	sd	s6,832(sp)
      24:	33713c23          	sd	s7,824(sp)
      28:	33813823          	sd	s8,816(sp)
      2c:	33913423          	sd	s9,808(sp)
      30:	33a13023          	sd	s10,800(sp)
      34:	31b13c23          	sd	s11,792(sp)
      38:	38010413          	addi	s0,sp,896
      3c:	fc017113          	andi	sp,sp,-64
      40:	0205b503          	ld	a0,32(a1)
      44:	00000f13          	li	t5,0
      48:	00053583          	ld	a1,0(a0)
      4c:	00500613          	li	a2,5
      50:	00a61613          	slli	a2,a2,0xa
      54:	00853683          	ld	a3,8(a0)
      58:	00c58c33          	add	s8,a1,a2
      5c:	00238637          	lui	a2,0x238
      60:	7806061b          	addiw	a2,a2,1920 # 238780 <.Lfunc_end80+0x20fdb8>
      64:	00c689b3          	add	s3,a3,a2
      68:	00020637          	lui	a2,0x20
      6c:	e806061b          	addiw	a2,a2,-384 # 1fe80 <.LBB77_3964+0x8>
      70:	00c68633          	add	a2,a3,a2
      74:	02c13c23          	sd	a2,56(sp)
      78:	00371637          	lui	a2,0x371
      7c:	0005a583          	lw	a1,0(a1)
      80:	4806061b          	addiw	a2,a2,1152 # 371480 <.Lfunc_end80+0x348ab8>
      84:	02d13023          	sd	a3,32(sp)
      88:	00c68633          	add	a2,a3,a2
      8c:	02c13823          	sd	a2,48(sp)
      90:	01053503          	ld	a0,16(a0)
      94:	04a13423          	sd	a0,72(sp)
      98:	00459513          	slli	a0,a1,0x4
      9c:	00258637          	lui	a2,0x258
      a0:	40c585bb          	subw	a1,a1,a2
      a4:	40b5053b          	subw	a0,a0,a1
      a8:	12a13c23          	sd	a0,312(sp)
      ac:	00139537          	lui	a0,0x139
      b0:	d005051b          	addiw	a0,a0,-768 # 138d00 <.Lfunc_end80+0x110338>
      b4:	02a13423          	sd	a0,40(sp)
      b8:	6978b537          	lui	a0,0x6978b
      bc:	0ea5051b          	addiw	a0,a0,234 # 6978b0ea <.Lfunc_end80+0x69762722>
      c0:	14a13423          	sd	a0,328(sp)
      c4:	00100513          	li	a0,1
      c8:	02951513          	slli	a0,a0,0x29
      cc:	14a13823          	sd	a0,336(sp)
      d0:	05813023          	sd	s8,64(sp)
      d4:	1480006f          	j	21c <.LBB107_2>

00000000000000d8 <.LBB107_1>:
      d8:	03af0493          	addi	s1,t5,58
      dc:	04813f03          	ld	t5,72(sp)
      e0:	14013d03          	ld	s10,320(sp)
      e4:	01af0f33          	add	t5,t5,s10
      e8:	009f0123          	sb	s1,2(t5)
      ec:	03a78793          	addi	a5,a5,58
      f0:	00ff00a3          	sb	a5,1(t5)
      f4:	03a50513          	addi	a0,a0,58
      f8:	00af0023          	sb	a0,0(t5)
      fc:	03a08513          	addi	a0,ra,58
     100:	00af01a3          	sb	a0,3(t5)
     104:	03ad8513          	addi	a0,s11,58
     108:	00af0223          	sb	a0,4(t5)
     10c:	03a30513          	addi	a0,t1,58
     110:	00af02a3          	sb	a0,5(t5)
     114:	03a28513          	addi	a0,t0,58
     118:	00af0323          	sb	a0,6(t5)
     11c:	03a58513          	addi	a0,a1,58
     120:	00af03a3          	sb	a0,7(t5)
     124:	03ac8513          	addi	a0,s9,58
     128:	00af0423          	sb	a0,8(t5)
     12c:	03ac0513          	addi	a0,s8,58
     130:	00af04a3          	sb	a0,9(t5)
     134:	03aa8513          	addi	a0,s5,58
     138:	00af0523          	sb	a0,10(t5)
     13c:	03a68513          	addi	a0,a3,58
     140:	00af05a3          	sb	a0,11(t5)
     144:	03ab0513          	addi	a0,s6,58
     148:	00af0623          	sb	a0,12(t5)
     14c:	03ab8513          	addi	a0,s7,58
     150:	00af06a3          	sb	a0,13(t5)
     154:	03aa0513          	addi	a0,s4,58
     158:	00af0723          	sb	a0,14(t5)
     15c:	03a70513          	addi	a0,a4,58
     160:	00af07a3          	sb	a0,15(t5)
     164:	03a60513          	addi	a0,a2,58 # 25803a <.Lfunc_end80+0x22f672>
     168:	00af0823          	sb	a0,16(t5)
     16c:	03a80513          	addi	a0,a6,58
     170:	00af08a3          	sb	a0,17(t5)
     174:	03a98513          	addi	a0,s3,58
     178:	00af0923          	sb	a0,18(t5)
     17c:	03a90513          	addi	a0,s2,58
     180:	00af09a3          	sb	a0,19(t5)
     184:	03af8513          	addi	a0,t6,58
     188:	00af0a23          	sb	a0,20(t5)
     18c:	03a88513          	addi	a0,a7,58
     190:	00af0aa3          	sb	a0,21(t5)
     194:	03a38513          	addi	a0,t2,58
     198:	00af0b23          	sb	a0,22(t5)
     19c:	03ae0513          	addi	a0,t3,58
     1a0:	00af0ba3          	sb	a0,23(t5)
     1a4:	28813503          	ld	a0,648(sp)
     1a8:	03a50513          	addi	a0,a0,58
     1ac:	00af0c23          	sb	a0,24(t5)
     1b0:	29013503          	ld	a0,656(sp)
     1b4:	03a50513          	addi	a0,a0,58
     1b8:	00af0ca3          	sb	a0,25(t5)
     1bc:	29813503          	ld	a0,664(sp)
     1c0:	03a50513          	addi	a0,a0,58
     1c4:	00af0d23          	sb	a0,26(t5)
     1c8:	2a013503          	ld	a0,672(sp)
     1cc:	03a50513          	addi	a0,a0,58
     1d0:	00af0da3          	sb	a0,27(t5)
     1d4:	2a813503          	ld	a0,680(sp)
     1d8:	03a50513          	addi	a0,a0,58
     1dc:	00af0e23          	sb	a0,28(t5)
     1e0:	2b013503          	ld	a0,688(sp)
     1e4:	03a50513          	addi	a0,a0,58
     1e8:	00af0ea3          	sb	a0,29(t5)
     1ec:	2b813503          	ld	a0,696(sp)
     1f0:	03a50513          	addi	a0,a0,58
     1f4:	00af0f23          	sb	a0,30(t5)
     1f8:	03ae8513          	addi	a0,t4,58
     1fc:	00af0fa3          	sb	a0,31(t5)
     200:	020d0f13          	addi	t5,s10,32
     204:	13013983          	ld	s3,304(sp)
     208:	02098993          	addi	s3,s3,32
     20c:	04013c03          	ld	s8,64(sp)
     210:	3c000513          	li	a0,960
     214:	00ad6463          	bltu	s10,a0,21c <.LBB107_2>
     218:	0600106f          	j	1278 <.LBB107_196>

000000000000021c <.LBB107_2>:
     21c:	22013c23          	sd	zero,568(sp)
     220:	22013423          	sd	zero,552(sp)
     224:	24013023          	sd	zero,576(sp)
     228:	22013023          	sd	zero,544(sp)
     22c:	20013c23          	sd	zero,536(sp)
     230:	20013823          	sd	zero,528(sp)
     234:	20013423          	sd	zero,520(sp)
     238:	20013023          	sd	zero,512(sp)
     23c:	00000093          	li	ra,0
     240:	00000d93          	li	s11,0
     244:	00000d13          	li	s10,0
     248:	00000b93          	li	s7,0
     24c:	00000a93          	li	s5,0
     250:	24013423          	sd	zero,584(sp)
     254:	22013823          	sd	zero,560(sp)
     258:	00000493          	li	s1,0
     25c:	00000f93          	li	t6,0
     260:	00000313          	li	t1,0
     264:	00000693          	li	a3,0
     268:	00000613          	li	a2,0
     26c:	00000893          	li	a7,0
     270:	00000513          	li	a0,0
     274:	00000913          	li	s2,0
     278:	00000a13          	li	s4,0
     27c:	26013423          	sd	zero,616(sp)
     280:	24013823          	sd	zero,592(sp)
     284:	1e013c23          	sd	zero,504(sp)
     288:	00000793          	li	a5,0
     28c:	00000c93          	li	s9,0
     290:	00000713          	li	a4,0
     294:	00000813          	li	a6,0
     298:	00000293          	li	t0,0
     29c:	15e13023          	sd	t5,320(sp)
     2a0:	02813583          	ld	a1,40(sp)
     2a4:	13313823          	sd	s3,304(sp)

00000000000002a8 <.LBB107_3>:
     2a8:	1b813c23          	sd	s8,440(sp)
     2ac:	1cb13023          	sd	a1,448(sp)
     2b0:	27413823          	sd	s4,624(sp)
     2b4:	25213c23          	sd	s2,600(sp)
     2b8:	1c113423          	sd	ra,456(sp)
     2bc:	1db13823          	sd	s11,464(sp)
     2c0:	1da13c23          	sd	s10,472(sp)
     2c4:	1f713023          	sd	s7,480(sp)
     2c8:	29513823          	sd	s5,656(sp)
     2cc:	29f13c23          	sd	t6,664(sp)
     2d0:	26613023          	sd	t1,608(sp)
     2d4:	2ad13023          	sd	a3,672(sp)
     2d8:	2ac13423          	sd	a2,680(sp)
     2dc:	2b113823          	sd	a7,688(sp)
     2e0:	2aa13c23          	sd	a0,696(sp)
     2e4:	26f13c23          	sd	a5,632(sp)
     2e8:	1f913423          	sd	s9,488(sp)
     2ec:	28e13023          	sd	a4,640(sp)
     2f0:	1f013823          	sd	a6,496(sp)
     2f4:	28513423          	sd	t0,648(sp)
     2f8:	000c0c83          	lb	s9,0(s8)
     2fc:	00698503          	lb	a0,6(s3)
     300:	16a13823          	sd	a0,368(sp)
     304:	00798503          	lb	a0,7(s3)
     308:	16a13023          	sd	a0,352(sp)
     30c:	00898503          	lb	a0,8(s3)
     310:	14a13c23          	sd	a0,344(sp)
     314:	00998703          	lb	a4,9(s3)
     318:	00a98a83          	lb	s5,10(s3)
     31c:	00b98683          	lb	a3,11(s3)
     320:	00c98b03          	lb	s6,12(s3)
     324:	00d98583          	lb	a1,13(s3)
     328:	00e98303          	lb	t1,14(s3)
     32c:	00f98603          	lb	a2,15(s3)
     330:	01098d03          	lb	s10,16(s3)
     334:	01198d83          	lb	s11,17(s3)
     338:	01298083          	lb	ra,18(s3)
     33c:	01398e83          	lb	t4,19(s3)
     340:	01498503          	lb	a0,20(s3)
     344:	01598e03          	lb	t3,21(s3)
     348:	01698383          	lb	t2,22(s3)
     34c:	01798783          	lb	a5,23(s3)
     350:	01898c03          	lb	s8,24(s3)
     354:	01998a03          	lb	s4,25(s3)
     358:	01a98903          	lb	s2,26(s3)
     35c:	01b98883          	lb	a7,27(s3)
     360:	01f98f83          	lb	t6,31(s3)
     364:	01e98f03          	lb	t5,30(s3)
     368:	01d98b83          	lb	s7,29(s3)
     36c:	01c98803          	lb	a6,28(s3)
     370:	03fc82b3          	mul	t0,s9,t6
     374:	1a513823          	sd	t0,432(sp)
     378:	03ec82b3          	mul	t0,s9,t5
     37c:	1a513423          	sd	t0,424(sp)
     380:	037c82b3          	mul	t0,s9,s7
     384:	1a513023          	sd	t0,416(sp)
     388:	030c8833          	mul	a6,s9,a6
     38c:	19013c23          	sd	a6,408(sp)
     390:	031c8833          	mul	a6,s9,a7
     394:	19013823          	sd	a6,400(sp)
     398:	032c8833          	mul	a6,s9,s2
     39c:	19013423          	sd	a6,392(sp)
     3a0:	034c8833          	mul	a6,s9,s4
     3a4:	17013c23          	sd	a6,376(sp)
     3a8:	038c8833          	mul	a6,s9,s8
     3ac:	19013023          	sd	a6,384(sp)
     3b0:	02fc87b3          	mul	a5,s9,a5
     3b4:	16f13423          	sd	a5,360(sp)
     3b8:	027c8c33          	mul	s8,s9,t2
     3bc:	03cc8a33          	mul	s4,s9,t3
     3c0:	02ac8933          	mul	s2,s9,a0
     3c4:	03dc8e33          	mul	t3,s9,t4
     3c8:	021c8eb3          	mul	t4,s9,ra
     3cc:	03bc8f33          	mul	t5,s9,s11
     3d0:	03ac8fb3          	mul	t6,s9,s10
     3d4:	02cc83b3          	mul	t2,s9,a2
     3d8:	026c88b3          	mul	a7,s9,t1
     3dc:	02bc8833          	mul	a6,s9,a1
     3e0:	036c8b33          	mul	s6,s9,s6
     3e4:	02dc87b3          	mul	a5,s9,a3
     3e8:	035c8ab3          	mul	s5,s9,s5
     3ec:	02ec8733          	mul	a4,s9,a4
     3f0:	15813503          	ld	a0,344(sp)
     3f4:	02ac8bb3          	mul	s7,s9,a0
     3f8:	00598d03          	lb	s10,5(s3)
     3fc:	00498d83          	lb	s11,4(s3)
     400:	16013503          	ld	a0,352(sp)
     404:	02ac80b3          	mul	ra,s9,a0
     408:	17013503          	ld	a0,368(sp)
     40c:	02ac86b3          	mul	a3,s9,a0
     410:	03ac8d33          	mul	s10,s9,s10
     414:	03bc8db3          	mul	s11,s9,s11
     418:	00398603          	lb	a2,3(s3)
     41c:	00098303          	lb	t1,0(s3)
     420:	00198283          	lb	t0,1(s3)
     424:	00048513          	mv	a0,s1
     428:	00298483          	lb	s1,2(s3)
     42c:	02cc8633          	mul	a2,s9,a2
     430:	026c8333          	mul	t1,s9,t1
     434:	025c82b3          	mul	t0,s9,t0
     438:	029c84b3          	mul	s1,s9,s1
     43c:	1e813583          	ld	a1,488(sp)
     440:	24013c83          	ld	s9,576(sp)
     444:	01948cb3          	add	s9,s1,s9
     448:	25913023          	sd	s9,576(sp)
     44c:	00050493          	mv	s1,a0
     450:	22813503          	ld	a0,552(sp)
     454:	00a28533          	add	a0,t0,a0
     458:	22a13423          	sd	a0,552(sp)
     45c:	23813503          	ld	a0,568(sp)
     460:	00a30533          	add	a0,t1,a0
     464:	22a13c23          	sd	a0,568(sp)
     468:	26013303          	ld	t1,608(sp)
     46c:	28813283          	ld	t0,648(sp)
     470:	22013503          	ld	a0,544(sp)
     474:	00a60533          	add	a0,a2,a0
     478:	22a13023          	sd	a0,544(sp)
     47c:	21813503          	ld	a0,536(sp)
     480:	00ad8533          	add	a0,s11,a0
     484:	20a13c23          	sd	a0,536(sp)
     488:	1d013d83          	ld	s11,464(sp)
     48c:	21013503          	ld	a0,528(sp)
     490:	00ad0533          	add	a0,s10,a0
     494:	20a13823          	sd	a0,528(sp)
     498:	1d813d03          	ld	s10,472(sp)
     49c:	20813503          	ld	a0,520(sp)
     4a0:	00a68533          	add	a0,a3,a0
     4a4:	20a13423          	sd	a0,520(sp)
     4a8:	20013503          	ld	a0,512(sp)
     4ac:	00a08533          	add	a0,ra,a0
     4b0:	20a13023          	sd	a0,512(sp)
     4b4:	1c813083          	ld	ra,456(sp)
     4b8:	001b80b3          	add	ra,s7,ra
     4bc:	1e013b83          	ld	s7,480(sp)
     4c0:	01b70db3          	add	s11,a4,s11
     4c4:	28013703          	ld	a4,640(sp)
     4c8:	01aa8d33          	add	s10,s5,s10
     4cc:	01778bb3          	add	s7,a5,s7
     4d0:	29013503          	ld	a0,656(sp)
     4d4:	00ab0533          	add	a0,s6,a0
     4d8:	28a13823          	sd	a0,656(sp)
     4dc:	29013a83          	ld	s5,656(sp)
     4e0:	24813503          	ld	a0,584(sp)
     4e4:	00a80533          	add	a0,a6,a0
     4e8:	24a13423          	sd	a0,584(sp)
     4ec:	23013503          	ld	a0,560(sp)
     4f0:	00a88533          	add	a0,a7,a0
     4f4:	22a13823          	sd	a0,560(sp)
     4f8:	27813783          	ld	a5,632(sp)
     4fc:	009384b3          	add	s1,t2,s1
     500:	1f013803          	ld	a6,496(sp)
     504:	29813503          	ld	a0,664(sp)
     508:	00af8533          	add	a0,t6,a0
     50c:	28a13c23          	sd	a0,664(sp)
     510:	29813f83          	ld	t6,664(sp)
     514:	006f0333          	add	t1,t5,t1
     518:	2a013503          	ld	a0,672(sp)
     51c:	00ae8533          	add	a0,t4,a0
     520:	2aa13023          	sd	a0,672(sp)
     524:	2a013683          	ld	a3,672(sp)
     528:	2a813503          	ld	a0,680(sp)
     52c:	00ae0533          	add	a0,t3,a0
     530:	2aa13423          	sd	a0,680(sp)
     534:	2a813603          	ld	a2,680(sp)
     538:	2b013503          	ld	a0,688(sp)
     53c:	00a90533          	add	a0,s2,a0
     540:	25813903          	ld	s2,600(sp)
     544:	2aa13823          	sd	a0,688(sp)
     548:	2b013883          	ld	a7,688(sp)
     54c:	2b813503          	ld	a0,696(sp)
     550:	00aa0533          	add	a0,s4,a0
     554:	27013a03          	ld	s4,624(sp)
     558:	2aa13c23          	sd	a0,696(sp)
     55c:	2b813503          	ld	a0,696(sp)
     560:	012c0933          	add	s2,s8,s2
     564:	16813383          	ld	t2,360(sp)
     568:	01438a33          	add	s4,t2,s4
     56c:	26813383          	ld	t2,616(sp)
     570:	18013e03          	ld	t3,384(sp)
     574:	007e03b3          	add	t2,t3,t2
     578:	26713423          	sd	t2,616(sp)
     57c:	25013383          	ld	t2,592(sp)
     580:	17813e03          	ld	t3,376(sp)
     584:	007e03b3          	add	t2,t3,t2
     588:	24713823          	sd	t2,592(sp)
     58c:	1f813383          	ld	t2,504(sp)
     590:	18813e03          	ld	t3,392(sp)
     594:	007e03b3          	add	t2,t3,t2
     598:	1e713c23          	sd	t2,504(sp)
     59c:	1b813c03          	ld	s8,440(sp)
     5a0:	19013383          	ld	t2,400(sp)
     5a4:	00f387b3          	add	a5,t2,a5
     5a8:	19813383          	ld	t2,408(sp)
     5ac:	00b38cb3          	add	s9,t2,a1
     5b0:	1c013583          	ld	a1,448(sp)
     5b4:	1a013383          	ld	t2,416(sp)
     5b8:	00e38733          	add	a4,t2,a4
     5bc:	1a813383          	ld	t2,424(sp)
     5c0:	01038833          	add	a6,t2,a6
     5c4:	1b013383          	ld	t2,432(sp)
     5c8:	005382b3          	add	t0,t2,t0
     5cc:	3e998993          	addi	s3,s3,1001
     5d0:	c1758593          	addi	a1,a1,-1001
     5d4:	001c0c13          	addi	s8,s8,1
     5d8:	cc0598e3          	bnez	a1,2a8 <.LBB107_3>
     5dc:	22813b03          	ld	s6,552(sp)
     5e0:	23813983          	ld	s3,568(sp)
     5e4:	22013f83          	ld	t6,544(sp)
     5e8:	21813e83          	ld	t4,536(sp)
     5ec:	21013e03          	ld	t3,528(sp)
     5f0:	20813383          	ld	t2,520(sp)
     5f4:	20013883          	ld	a7,512(sp)
     5f8:	25213c23          	sd	s2,600(sp)
     5fc:	27413823          	sd	s4,624(sp)
     600:	14013f03          	ld	t5,320(sp)
     604:	002f1f13          	slli	t5,t5,0x2
     608:	03013503          	ld	a0,48(sp)
     60c:	01e50933          	add	s2,a0,t5
     610:	00892503          	lw	a0,8(s2)
     614:	03813583          	ld	a1,56(sp)
     618:	01e58f33          	add	t5,a1,t5
     61c:	008f2583          	lw	a1,8(t5)
     620:	00751513          	slli	a0,a0,0x7
     624:	13813a83          	ld	s5,312(sp)
     628:	24013603          	ld	a2,576(sp)
     62c:	00ca8633          	add	a2,s5,a2
     630:	00b605b3          	add	a1,a2,a1
     634:	00a5853b          	addw	a0,a1,a0
     638:	400006b7          	lui	a3,0x40000
     63c:	24a13023          	sd	a0,576(sp)
     640:	00055463          	bgez	a0,648 <.LBB107_6>
     644:	c00006b7          	lui	a3,0xc0000

0000000000000648 <.LBB107_6>:
     648:	28e13023          	sd	a4,640(sp)
     64c:	00492503          	lw	a0,4(s2)
     650:	004f2583          	lw	a1,4(t5)
     654:	00751513          	slli	a0,a0,0x7
     658:	016a8633          	add	a2,s5,s6
     65c:	00b605b3          	add	a1,a2,a1
     660:	00a5853b          	addw	a0,a1,a0
     664:	400005b7          	lui	a1,0x40000
     668:	22a13423          	sd	a0,552(sp)
     66c:	00055463          	bgez	a0,674 <.LBB107_8>
     670:	c00005b7          	lui	a1,0xc0000

0000000000000674 <.LBB107_8>:
     674:	26f13c23          	sd	a5,632(sp)
     678:	1eb13823          	sd	a1,496(sp)
     67c:	00092503          	lw	a0,0(s2)
     680:	000f2583          	lw	a1,0(t5)
     684:	00751513          	slli	a0,a0,0x7
     688:	013a8633          	add	a2,s5,s3
     68c:	00b605b3          	add	a1,a2,a1
     690:	00a5853b          	addw	a0,a1,a0
     694:	40000737          	lui	a4,0x40000
     698:	1ea13423          	sd	a0,488(sp)
     69c:	00055463          	bgez	a0,6a4 <.LBB107_10>
     6a0:	c0000737          	lui	a4,0xc0000

00000000000006a4 <.LBB107_10>:
     6a4:	00c92503          	lw	a0,12(s2)
     6a8:	00cf2583          	lw	a1,12(t5)
     6ac:	00751513          	slli	a0,a0,0x7
     6b0:	01fa8633          	add	a2,s5,t6
     6b4:	00b605b3          	add	a1,a2,a1
     6b8:	00a5853b          	addw	a0,a1,a0
     6bc:	400007b7          	lui	a5,0x40000
     6c0:	1ea13023          	sd	a0,480(sp)
     6c4:	00055463          	bgez	a0,6cc <.LBB107_12>
     6c8:	c00007b7          	lui	a5,0xc0000

00000000000006cc <.LBB107_12>:
     6cc:	01092503          	lw	a0,16(s2)
     6d0:	010f2583          	lw	a1,16(t5)
     6d4:	00751513          	slli	a0,a0,0x7
     6d8:	01da8633          	add	a2,s5,t4
     6dc:	00b605b3          	add	a1,a2,a1
     6e0:	00a5853b          	addw	a0,a1,a0
     6e4:	400005b7          	lui	a1,0x40000
     6e8:	1ca13c23          	sd	a0,472(sp)
     6ec:	00055463          	bgez	a0,6f4 <.LBB107_14>
     6f0:	c00005b7          	lui	a1,0xc0000

00000000000006f4 <.LBB107_14>:
     6f4:	1cb13823          	sd	a1,464(sp)
     6f8:	01492503          	lw	a0,20(s2)
     6fc:	014f2583          	lw	a1,20(t5)
     700:	00751513          	slli	a0,a0,0x7
     704:	01ca8633          	add	a2,s5,t3
     708:	00b605b3          	add	a1,a2,a1
     70c:	00a5853b          	addw	a0,a1,a0
     710:	400005b7          	lui	a1,0x40000
     714:	20a13823          	sd	a0,528(sp)
     718:	00055463          	bgez	a0,720 <.LBB107_16>
     71c:	c00005b7          	lui	a1,0xc0000

0000000000000720 <.LBB107_16>:
     720:	1cb13423          	sd	a1,456(sp)
     724:	01892503          	lw	a0,24(s2)
     728:	018f2583          	lw	a1,24(t5)
     72c:	00751513          	slli	a0,a0,0x7
     730:	007a8633          	add	a2,s5,t2
     734:	00b605b3          	add	a1,a2,a1
     738:	00a5853b          	addw	a0,a1,a0
     73c:	400005b7          	lui	a1,0x40000
     740:	20a13423          	sd	a0,520(sp)
     744:	00055463          	bgez	a0,74c <.LBB107_18>
     748:	c00005b7          	lui	a1,0xc0000

000000000000074c <.LBB107_18>:
     74c:	1cb13023          	sd	a1,448(sp)
     750:	01c92503          	lw	a0,28(s2)
     754:	01cf2583          	lw	a1,28(t5)
     758:	00751513          	slli	a0,a0,0x7
     75c:	011a8633          	add	a2,s5,a7
     760:	00b605b3          	add	a1,a2,a1
     764:	00a5853b          	addw	a0,a1,a0
     768:	400005b7          	lui	a1,0x40000
     76c:	20a13023          	sd	a0,512(sp)
     770:	00055463          	bgez	a0,778 <.LBB107_20>
     774:	c00005b7          	lui	a1,0xc0000

0000000000000778 <.LBB107_20>:
     778:	18913023          	sd	s1,384(sp)
     77c:	26613023          	sd	t1,608(sp)
     780:	1ab13c23          	sd	a1,440(sp)
     784:	28513423          	sd	t0,648(sp)
     788:	20f13c23          	sd	a5,536(sp)
     78c:	22e13023          	sd	a4,544(sp)
     790:	22d13c23          	sd	a3,568(sp)
     794:	02092503          	lw	a0,32(s2)
     798:	020f2583          	lw	a1,32(t5)
     79c:	00751513          	slli	a0,a0,0x7
     7a0:	001a8633          	add	a2,s5,ra
     7a4:	00b605b3          	add	a1,a2,a1
     7a8:	00a5853b          	addw	a0,a1,a0
     7ac:	400005b7          	lui	a1,0x40000
     7b0:	1aa13823          	sd	a0,432(sp)
     7b4:	00055463          	bgez	a0,7bc <.LBB107_22>
     7b8:	c00005b7          	lui	a1,0xc0000

00000000000007bc <.LBB107_22>:
     7bc:	1ab13423          	sd	a1,424(sp)
     7c0:	024f2603          	lw	a2,36(t5)
     7c4:	028f2b03          	lw	s6,40(t5)
     7c8:	02cf2583          	lw	a1,44(t5)
     7cc:	030f2c03          	lw	s8,48(t5)
     7d0:	034f2503          	lw	a0,52(t5)
     7d4:	038f2983          	lw	s3,56(t5)
     7d8:	03cf2483          	lw	s1,60(t5)
     7dc:	040f2683          	lw	a3,64(t5)
     7e0:	10d13c23          	sd	a3,280(sp)
     7e4:	044f2683          	lw	a3,68(t5)
     7e8:	10d13823          	sd	a3,272(sp)
     7ec:	048f2683          	lw	a3,72(t5)
     7f0:	10d13023          	sd	a3,256(sp)
     7f4:	04cf2683          	lw	a3,76(t5)
     7f8:	0ed13423          	sd	a3,232(sp)
     7fc:	050f2683          	lw	a3,80(t5)
     800:	06d13823          	sd	a3,112(sp)
     804:	054f2683          	lw	a3,84(t5)
     808:	0cd13823          	sd	a3,208(sp)
     80c:	058f2683          	lw	a3,88(t5)
     810:	08d13423          	sd	a3,136(sp)
     814:	05cf2683          	lw	a3,92(t5)
     818:	08d13c23          	sd	a3,152(sp)
     81c:	060f2683          	lw	a3,96(t5)
     820:	0ad13423          	sd	a3,168(sp)
     824:	064f2683          	lw	a3,100(t5)
     828:	0ad13c23          	sd	a3,184(sp)
     82c:	068f2683          	lw	a3,104(t5)
     830:	0cd13423          	sd	a3,200(sp)
     834:	06cf2683          	lw	a3,108(t5)
     838:	0cd13c23          	sd	a3,216(sp)
     83c:	070f2683          	lw	a3,112(t5)
     840:	0ed13023          	sd	a3,224(sp)
     844:	074f2683          	lw	a3,116(t5)
     848:	0ed13823          	sd	a3,240(sp)
     84c:	078f2683          	lw	a3,120(t5)
     850:	0ed13c23          	sd	a3,248(sp)
     854:	07cf2683          	lw	a3,124(t5)
     858:	10d13423          	sd	a3,264(sp)
     85c:	02492703          	lw	a4,36(s2)
     860:	02892383          	lw	t2,40(s2)
     864:	01ba86b3          	add	a3,s5,s11
     868:	00c68633          	add	a2,a3,a2
     86c:	02c92f83          	lw	t6,44(s2)
     870:	03092e83          	lw	t4,48(s2)
     874:	03492883          	lw	a7,52(s2)
     878:	03892e03          	lw	t3,56(s2)
     87c:	03c92683          	lw	a3,60(s2)
     880:	04092783          	lw	a5,64(s2)
     884:	04492283          	lw	t0,68(s2)
     888:	04892303          	lw	t1,72(s2)
     88c:	04c92d83          	lw	s11,76(s2)
     890:	05092f03          	lw	t5,80(s2)
     894:	05492083          	lw	ra,84(s2)
     898:	05892a03          	lw	s4,88(s2)
     89c:	05413823          	sd	s4,80(sp)
     8a0:	05c92a03          	lw	s4,92(s2)
     8a4:	05413c23          	sd	s4,88(sp)
     8a8:	06092a03          	lw	s4,96(s2)
     8ac:	07413023          	sd	s4,96(sp)
     8b0:	06492a03          	lw	s4,100(s2)
     8b4:	07413423          	sd	s4,104(sp)
     8b8:	06892a03          	lw	s4,104(s2)
     8bc:	07413c23          	sd	s4,120(sp)
     8c0:	06c92a03          	lw	s4,108(s2)
     8c4:	09413023          	sd	s4,128(sp)
     8c8:	00090a13          	mv	s4,s2
     8cc:	07092903          	lw	s2,112(s2)
     8d0:	09213823          	sd	s2,144(sp)
     8d4:	074a2903          	lw	s2,116(s4)
     8d8:	0b213023          	sd	s2,160(sp)
     8dc:	078a2903          	lw	s2,120(s4)
     8e0:	0b213823          	sd	s2,176(sp)
     8e4:	07ca2903          	lw	s2,124(s4)
     8e8:	0d213023          	sd	s2,192(sp)
     8ec:	00771713          	slli	a4,a4,0x7
     8f0:	00e6063b          	addw	a2,a2,a4
     8f4:	40000737          	lui	a4,0x40000
     8f8:	1ac13023          	sd	a2,416(sp)
     8fc:	00065463          	bgez	a2,904 <.LBB107_24>
     900:	c0000737          	lui	a4,0xc0000

0000000000000904 <.LBB107_24>:
     904:	18e13c23          	sd	a4,408(sp)
     908:	00739393          	slli	t2,t2,0x7
     90c:	01aa8633          	add	a2,s5,s10
     910:	01660633          	add	a2,a2,s6
     914:	0076063b          	addw	a2,a2,t2
     918:	400003b7          	lui	t2,0x40000
     91c:	1f813703          	ld	a4,504(sp)
     920:	18c13823          	sd	a2,400(sp)
     924:	00065463          	bgez	a2,92c <.LBB107_26>
     928:	c00003b7          	lui	t2,0xc0000

000000000000092c <.LBB107_26>:
     92c:	18713423          	sd	t2,392(sp)
     930:	007f9f93          	slli	t6,t6,0x7
     934:	017a8633          	add	a2,s5,s7
     938:	00b605b3          	add	a1,a2,a1
     93c:	01f5863b          	addw	a2,a1,t6
     940:	40000fb7          	lui	t6,0x40000
     944:	2b813383          	ld	t2,696(sp)
     948:	23013a03          	ld	s4,560(sp)
     94c:	24813903          	ld	s2,584(sp)
     950:	29013583          	ld	a1,656(sp)
     954:	16c13c23          	sd	a2,376(sp)
     958:	00065463          	bgez	a2,960 <.LBB107_28>
     95c:	c0000fb7          	lui	t6,0xc0000

0000000000000960 <.LBB107_28>:
     960:	17f13823          	sd	t6,368(sp)
     964:	007e9e93          	slli	t4,t4,0x7
     968:	00ba85b3          	add	a1,s5,a1
     96c:	018585b3          	add	a1,a1,s8
     970:	01d585bb          	addw	a1,a1,t4
     974:	40000eb7          	lui	t4,0x40000
     978:	25013603          	ld	a2,592(sp)
     97c:	29813f83          	ld	t6,664(sp)
     980:	16b13423          	sd	a1,360(sp)
     984:	0005d463          	bgez	a1,98c <.LBB107_30>
     988:	c0000eb7          	lui	t4,0xc0000

000000000000098c <.LBB107_30>:
     98c:	17d13023          	sd	t4,352(sp)
     990:	00789893          	slli	a7,a7,0x7
     994:	012a85b3          	add	a1,s5,s2
     998:	00a58533          	add	a0,a1,a0
     99c:	0115053b          	addw	a0,a0,a7
     9a0:	400005b7          	lui	a1,0x40000
     9a4:	2a013e83          	ld	t4,672(sp)
     9a8:	24a13423          	sd	a0,584(sp)
     9ac:	00055463          	bgez	a0,9b4 <.LBB107_32>
     9b0:	c00005b7          	lui	a1,0xc0000

00000000000009b4 <.LBB107_32>:
     9b4:	14b13c23          	sd	a1,344(sp)
     9b8:	007e1e13          	slli	t3,t3,0x7
     9bc:	014a8533          	add	a0,s5,s4
     9c0:	01350533          	add	a0,a0,s3
     9c4:	01c5053b          	addw	a0,a0,t3
     9c8:	40000e37          	lui	t3,0x40000
     9cc:	25813583          	ld	a1,600(sp)
     9d0:	2b013883          	ld	a7,688(sp)
     9d4:	22a13823          	sd	a0,560(sp)
     9d8:	00055463          	bgez	a0,9e0 <.LBB107_34>
     9dc:	c0000e37          	lui	t3,0xc0000

00000000000009e0 <.LBB107_34>:
     9e0:	13c13423          	sd	t3,296(sp)
     9e4:	00769693          	slli	a3,a3,0x7
     9e8:	18013503          	ld	a0,384(sp)
     9ec:	00aa8533          	add	a0,s5,a0
     9f0:	00950533          	add	a0,a0,s1
     9f4:	00d5053b          	addw	a0,a0,a3
     9f8:	400006b7          	lui	a3,0x40000
     9fc:	2a813e03          	ld	t3,680(sp)
     a00:	18a13023          	sd	a0,384(sp)
     a04:	00055463          	bgez	a0,a0c <.LBB107_36>
     a08:	c00006b7          	lui	a3,0xc0000

0000000000000a0c <.LBB107_36>:
     a0c:	12d13023          	sd	a3,288(sp)
     a10:	00779793          	slli	a5,a5,0x7
     a14:	01fa8533          	add	a0,s5,t6
     a18:	11813683          	ld	a3,280(sp)
     a1c:	00d50533          	add	a0,a0,a3
     a20:	00f5053b          	addw	a0,a0,a5
     a24:	400007b7          	lui	a5,0x40000
     a28:	26813683          	ld	a3,616(sp)
     a2c:	10a13c23          	sd	a0,280(sp)
     a30:	00055463          	bgez	a0,a38 <.LBB107_38>
     a34:	c00007b7          	lui	a5,0xc0000

0000000000000a38 <.LBB107_38>:
     a38:	00729293          	slli	t0,t0,0x7
     a3c:	26013503          	ld	a0,608(sp)
     a40:	00aa8533          	add	a0,s5,a0
     a44:	11013f83          	ld	t6,272(sp)
     a48:	01f50533          	add	a0,a0,t6
     a4c:	0055053b          	addw	a0,a0,t0
     a50:	400002b7          	lui	t0,0x40000
     a54:	27013c03          	ld	s8,624(sp)
     a58:	10a13823          	sd	a0,272(sp)
     a5c:	00055463          	bgez	a0,a64 <.LBB107_40>
     a60:	c00002b7          	lui	t0,0xc0000

0000000000000a64 <.LBB107_40>:
     a64:	00731313          	slli	t1,t1,0x7
     a68:	01da8533          	add	a0,s5,t4
     a6c:	10013e83          	ld	t4,256(sp)
     a70:	01d50533          	add	a0,a0,t4
     a74:	00650a3b          	addw	s4,a0,t1
     a78:	40000537          	lui	a0,0x40000
     a7c:	000a5463          	bgez	s4,a84 <.LBB107_42>
     a80:	c0000537          	lui	a0,0xc0000

0000000000000a84 <.LBB107_42>:
     a84:	10a13023          	sd	a0,256(sp)
     a88:	007d9d93          	slli	s11,s11,0x7
     a8c:	01ca8533          	add	a0,s5,t3
     a90:	0e813303          	ld	t1,232(sp)
     a94:	00650533          	add	a0,a0,t1
     a98:	01b5093b          	addw	s2,a0,s11
     a9c:	40000537          	lui	a0,0x40000
     aa0:	00095463          	bgez	s2,aa8 <.LBB107_44>
     aa4:	c0000537          	lui	a0,0xc0000

0000000000000aa8 <.LBB107_44>:
     aa8:	0ea13423          	sd	a0,232(sp)
     aac:	007f1f13          	slli	t5,t5,0x7
     ab0:	011a8533          	add	a0,s5,a7
     ab4:	07013883          	ld	a7,112(sp)
     ab8:	01150533          	add	a0,a0,a7
     abc:	01e50fbb          	addw	t6,a0,t5
     ac0:	40000337          	lui	t1,0x40000
     ac4:	000fd463          	bgez	t6,acc <.LBB107_46>
     ac8:	c0000337          	lui	t1,0xc0000

0000000000000acc <.LBB107_46>:
     acc:	00709093          	slli	ra,ra,0x7
     ad0:	007a8533          	add	a0,s5,t2
     ad4:	0d013883          	ld	a7,208(sp)
     ad8:	01150533          	add	a0,a0,a7
     adc:	001508bb          	addw	a7,a0,ra
     ae0:	40000bb7          	lui	s7,0x40000
     ae4:	0008d463          	bgez	a7,aec <.LBB107_48>
     ae8:	c0000bb7          	lui	s7,0xc0000

0000000000000aec <.LBB107_48>:
     aec:	0c613823          	sd	t1,208(sp)
     af0:	26f13023          	sd	a5,608(sp)
     af4:	05013503          	ld	a0,80(sp)
     af8:	00751513          	slli	a0,a0,0x7
     afc:	00ba85b3          	add	a1,s5,a1
     b00:	08813783          	ld	a5,136(sp)
     b04:	00f585b3          	add	a1,a1,a5
     b08:	00a583bb          	addw	t2,a1,a0
     b0c:	400000b7          	lui	ra,0x40000
     b10:	0003d463          	bgez	t2,b18 <.LBB107_50>
     b14:	c00000b7          	lui	ra,0xc0000

0000000000000b18 <.LBB107_50>:
     b18:	00028d93          	mv	s11,t0
     b1c:	05813503          	ld	a0,88(sp)
     b20:	00751513          	slli	a0,a0,0x7
     b24:	018a85b3          	add	a1,s5,s8
     b28:	09813783          	ld	a5,152(sp)
     b2c:	00f585b3          	add	a1,a1,a5
     b30:	00a587bb          	addw	a5,a1,a0
     b34:	40000e37          	lui	t3,0x40000
     b38:	0007d463          	bgez	a5,b40 <.LBB107_52>
     b3c:	c0000e37          	lui	t3,0xc0000

0000000000000b40 <.LBB107_52>:
     b40:	06013503          	ld	a0,96(sp)
     b44:	00751513          	slli	a0,a0,0x7
     b48:	00da85b3          	add	a1,s5,a3
     b4c:	0a813683          	ld	a3,168(sp)
     b50:	00d585b3          	add	a1,a1,a3
     b54:	00a582bb          	addw	t0,a1,a0
     b58:	400005b7          	lui	a1,0x40000
     b5c:	0002d463          	bgez	t0,b64 <.LBB107_54>
     b60:	c00005b7          	lui	a1,0xc0000

0000000000000b64 <.LBB107_54>:
     b64:	06813503          	ld	a0,104(sp)
     b68:	00751513          	slli	a0,a0,0x7
     b6c:	00ca8633          	add	a2,s5,a2
     b70:	0b813683          	ld	a3,184(sp)
     b74:	00d60633          	add	a2,a2,a3
     b78:	00a6053b          	addw	a0,a2,a0
     b7c:	400006b7          	lui	a3,0x40000
     b80:	00055463          	bgez	a0,b88 <.LBB107_56>
     b84:	c00006b7          	lui	a3,0xc0000

0000000000000b88 <.LBB107_56>:
     b88:	07813603          	ld	a2,120(sp)
     b8c:	00761613          	slli	a2,a2,0x7
     b90:	00ea8733          	add	a4,s5,a4
     b94:	0c813303          	ld	t1,200(sp)
     b98:	00670733          	add	a4,a4,t1
     b9c:	00c70ebb          	addw	t4,a4,a2
     ba0:	40000f37          	lui	t5,0x40000
     ba4:	000ed463          	bgez	t4,bac <.LBB107_58>
     ba8:	c0000f37          	lui	t5,0xc0000

0000000000000bac <.LBB107_58>:
     bac:	08013603          	ld	a2,128(sp)
     bb0:	00761613          	slli	a2,a2,0x7
     bb4:	27813703          	ld	a4,632(sp)
     bb8:	00ea8733          	add	a4,s5,a4
     bbc:	0d813303          	ld	t1,216(sp)
     bc0:	00670733          	add	a4,a4,t1
     bc4:	00c704bb          	addw	s1,a4,a2
     bc8:	400009b7          	lui	s3,0x40000
     bcc:	0004d463          	bgez	s1,bd4 <.LBB107_60>
     bd0:	c00009b7          	lui	s3,0xc0000

0000000000000bd4 <.LBB107_60>:
     bd4:	09013603          	ld	a2,144(sp)
     bd8:	00761613          	slli	a2,a2,0x7
     bdc:	019a8733          	add	a4,s5,s9
     be0:	0e013303          	ld	t1,224(sp)
     be4:	00670733          	add	a4,a4,t1
     be8:	00c70b3b          	addw	s6,a4,a2
     bec:	40000cb7          	lui	s9,0x40000
     bf0:	000b5463          	bgez	s6,bf8 <.LBB107_62>
     bf4:	c0000cb7          	lui	s9,0xc0000

0000000000000bf8 <.LBB107_62>:
     bf8:	0a013603          	ld	a2,160(sp)
     bfc:	00761613          	slli	a2,a2,0x7
     c00:	28013703          	ld	a4,640(sp)
     c04:	00ea8733          	add	a4,s5,a4
     c08:	0f013303          	ld	t1,240(sp)
     c0c:	00670733          	add	a4,a4,t1
     c10:	00c70c3b          	addw	s8,a4,a2
     c14:	40000737          	lui	a4,0x40000
     c18:	000c5463          	bgez	s8,c20 <.LBB107_64>
     c1c:	c0000737          	lui	a4,0xc0000

0000000000000c20 <.LBB107_64>:
     c20:	0b013603          	ld	a2,176(sp)
     c24:	00761613          	slli	a2,a2,0x7
     c28:	010a8ab3          	add	s5,s5,a6
     c2c:	0f813803          	ld	a6,248(sp)
     c30:	010a8ab3          	add	s5,s5,a6
     c34:	00ca8abb          	addw	s5,s5,a2
     c38:	40000637          	lui	a2,0x40000
     c3c:	000ad463          	bgez	s5,c44 <.LBB107_66>
     c40:	c0000637          	lui	a2,0xc0000

0000000000000c44 <.LBB107_66>:
     c44:	0c013d03          	ld	s10,192(sp)
     c48:	007d1d13          	slli	s10,s10,0x7
     c4c:	13813303          	ld	t1,312(sp)
     c50:	28813803          	ld	a6,648(sp)
     c54:	01030333          	add	t1,t1,a6
     c58:	10813803          	ld	a6,264(sp)
     c5c:	01030333          	add	t1,t1,a6
     c60:	01a30d3b          	addw	s10,t1,s10
     c64:	40000837          	lui	a6,0x40000
     c68:	000d5463          	bgez	s10,c70 <.LBB107_68>
     c6c:	c0000837          	lui	a6,0xc0000

0000000000000c70 <.LBB107_68>:
     c70:	14813303          	ld	t1,328(sp)
     c74:	026d0333          	mul	t1,s10,t1
     c78:	15013d03          	ld	s10,336(sp)
     c7c:	01a80d33          	add	s10,a6,s10
     c80:	01a30333          	add	t1,t1,s10
     c84:	42a35313          	srai	t1,t1,0x2a
     c88:	fc600d13          	li	s10,-58
     c8c:	28613023          	sd	t1,640(sp)
     c90:	006d4663          	blt	s10,t1,c9c <.LBB107_70>
     c94:	fc600313          	li	t1,-58
     c98:	28613023          	sd	t1,640(sp)

0000000000000c9c <.LBB107_70>:
     c9c:	14813303          	ld	t1,328(sp)
     ca0:	026a8333          	mul	t1,s5,t1
     ca4:	15013a83          	ld	s5,336(sp)
     ca8:	01560633          	add	a2,a2,s5
     cac:	00c30633          	add	a2,t1,a2
     cb0:	42a65613          	srai	a2,a2,0x2a
     cb4:	2ac13c23          	sd	a2,696(sp)
     cb8:	00cd4663          	blt	s10,a2,cc4 <.LBB107_72>
     cbc:	fc600613          	li	a2,-58
     cc0:	2ac13c23          	sd	a2,696(sp)

0000000000000cc4 <.LBB107_72>:
     cc4:	14813603          	ld	a2,328(sp)
     cc8:	02cc0633          	mul	a2,s8,a2
     ccc:	15013303          	ld	t1,336(sp)
     cd0:	00670733          	add	a4,a4,t1
     cd4:	00e60633          	add	a2,a2,a4
     cd8:	42a65613          	srai	a2,a2,0x2a
     cdc:	2ac13823          	sd	a2,688(sp)
     ce0:	00cd4663          	blt	s10,a2,cec <.LBB107_74>
     ce4:	fc600613          	li	a2,-58
     ce8:	2ac13823          	sd	a2,688(sp)

0000000000000cec <.LBB107_74>:
     cec:	14813603          	ld	a2,328(sp)
     cf0:	02cb0633          	mul	a2,s6,a2
     cf4:	15013703          	ld	a4,336(sp)
     cf8:	00ec8cb3          	add	s9,s9,a4
     cfc:	01960633          	add	a2,a2,s9
     d00:	42a65613          	srai	a2,a2,0x2a
     d04:	2ac13423          	sd	a2,680(sp)
     d08:	00cd4663          	blt	s10,a2,d14 <.LBB107_76>
     d0c:	fc600613          	li	a2,-58
     d10:	2ac13423          	sd	a2,680(sp)

0000000000000d14 <.LBB107_76>:
     d14:	14813703          	ld	a4,328(sp)
     d18:	02e48633          	mul	a2,s1,a4
     d1c:	00070493          	mv	s1,a4
     d20:	15013703          	ld	a4,336(sp)
     d24:	00e989b3          	add	s3,s3,a4
     d28:	01360633          	add	a2,a2,s3
     d2c:	42a65613          	srai	a2,a2,0x2a
     d30:	2ac13023          	sd	a2,672(sp)
     d34:	00cd4663          	blt	s10,a2,d40 <.LBB107_78>
     d38:	fc600613          	li	a2,-58
     d3c:	2ac13023          	sd	a2,672(sp)

0000000000000d40 <.LBB107_78>:
     d40:	029e8633          	mul	a2,t4,s1
     d44:	15013703          	ld	a4,336(sp)
     d48:	00ef0f33          	add	t5,t5,a4
     d4c:	01e60633          	add	a2,a2,t5
     d50:	42a65613          	srai	a2,a2,0x2a
     d54:	28c13c23          	sd	a2,664(sp)
     d58:	00cd4663          	blt	s10,a2,d64 <.LBB107_80>
     d5c:	fc600613          	li	a2,-58
     d60:	28c13c23          	sd	a2,664(sp)

0000000000000d64 <.LBB107_80>:
     d64:	02950533          	mul	a0,a0,s1
     d68:	15013f03          	ld	t5,336(sp)
     d6c:	01e686b3          	add	a3,a3,t5
     d70:	00d50533          	add	a0,a0,a3
     d74:	42a55513          	srai	a0,a0,0x2a
     d78:	28a13823          	sd	a0,656(sp)
     d7c:	16013683          	ld	a3,352(sp)
     d80:	00ad4663          	blt	s10,a0,d8c <.LBB107_82>
     d84:	fc600513          	li	a0,-58
     d88:	28a13823          	sd	a0,656(sp)

0000000000000d8c <.LBB107_82>:
     d8c:	02928533          	mul	a0,t0,s1
     d90:	01e585b3          	add	a1,a1,t5
     d94:	00b50533          	add	a0,a0,a1
     d98:	42a55513          	srai	a0,a0,0x2a
     d9c:	28a13423          	sd	a0,648(sp)
     da0:	00ad4663          	blt	s10,a0,dac <.LBB107_84>
     da4:	fc600513          	li	a0,-58
     da8:	28a13423          	sd	a0,648(sp)

0000000000000dac <.LBB107_84>:
     dac:	02978533          	mul	a0,a5,s1
     db0:	01ee0e33          	add	t3,t3,t5
     db4:	01c50533          	add	a0,a0,t3
     db8:	42a55e13          	srai	t3,a0,0x2a
     dbc:	000d8713          	mv	a4,s11
     dc0:	01cd4463          	blt	s10,t3,dc8 <.LBB107_86>
     dc4:	fc600e13          	li	t3,-58

0000000000000dc8 <.LBB107_86>:
     dc8:	02938533          	mul	a0,t2,s1
     dcc:	01e080b3          	add	ra,ra,t5
     dd0:	00150533          	add	a0,a0,ra
     dd4:	42a55393          	srai	t2,a0,0x2a
     dd8:	26013603          	ld	a2,608(sp)
     ddc:	0d013d83          	ld	s11,208(sp)
     de0:	007d4463          	blt	s10,t2,de8 <.LBB107_88>
     de4:	fc600393          	li	t2,-58

0000000000000de8 <.LBB107_88>:
     de8:	02988533          	mul	a0,a7,s1
     dec:	01eb8bb3          	add	s7,s7,t5
     df0:	01750533          	add	a0,a0,s7
     df4:	42a55893          	srai	a7,a0,0x2a
     df8:	011d4463          	blt	s10,a7,e00 <.LBB107_90>
     dfc:	fc600893          	li	a7,-58

0000000000000e00 <.LBB107_90>:
     e00:	029f8533          	mul	a0,t6,s1
     e04:	01ed8db3          	add	s11,s11,t5
     e08:	01b50533          	add	a0,a0,s11
     e0c:	42a55f93          	srai	t6,a0,0x2a
     e10:	01fd4463          	blt	s10,t6,e18 <.LBB107_92>
     e14:	fc600f93          	li	t6,-58

0000000000000e18 <.LBB107_92>:
     e18:	02990533          	mul	a0,s2,s1
     e1c:	0e813583          	ld	a1,232(sp)
     e20:	01e585b3          	add	a1,a1,t5
     e24:	00b50533          	add	a0,a0,a1
     e28:	42a55913          	srai	s2,a0,0x2a
     e2c:	012d4463          	blt	s10,s2,e34 <.LBB107_94>
     e30:	fc600913          	li	s2,-58

0000000000000e34 <.LBB107_94>:
     e34:	029a0533          	mul	a0,s4,s1
     e38:	10013583          	ld	a1,256(sp)
     e3c:	01e585b3          	add	a1,a1,t5
     e40:	00b50533          	add	a0,a0,a1
     e44:	42a55993          	srai	s3,a0,0x2a
     e48:	013d4463          	blt	s10,s3,e50 <.LBB107_96>
     e4c:	fc600993          	li	s3,-58

0000000000000e50 <.LBB107_96>:
     e50:	11013503          	ld	a0,272(sp)
     e54:	02950533          	mul	a0,a0,s1
     e58:	01e705b3          	add	a1,a4,t5
     e5c:	00b50533          	add	a0,a0,a1
     e60:	42a55813          	srai	a6,a0,0x2a
     e64:	010d4463          	blt	s10,a6,e6c <.LBB107_98>
     e68:	fc600813          	li	a6,-58

0000000000000e6c <.LBB107_98>:
     e6c:	11813503          	ld	a0,280(sp)
     e70:	02950533          	mul	a0,a0,s1
     e74:	01e605b3          	add	a1,a2,t5
     e78:	00b50533          	add	a0,a0,a1
     e7c:	42a55613          	srai	a2,a0,0x2a
     e80:	00cd4463          	blt	s10,a2,e88 <.LBB107_100>
     e84:	fc600613          	li	a2,-58

0000000000000e88 <.LBB107_100>:
     e88:	18013503          	ld	a0,384(sp)
     e8c:	02950533          	mul	a0,a0,s1
     e90:	12013583          	ld	a1,288(sp)
     e94:	01e585b3          	add	a1,a1,t5
     e98:	00b50533          	add	a0,a0,a1
     e9c:	42a55713          	srai	a4,a0,0x2a
     ea0:	00ed4463          	blt	s10,a4,ea8 <.LBB107_102>
     ea4:	fc600713          	li	a4,-58

0000000000000ea8 <.LBB107_102>:
     ea8:	23013503          	ld	a0,560(sp)
     eac:	02950533          	mul	a0,a0,s1
     eb0:	12813583          	ld	a1,296(sp)
     eb4:	01e585b3          	add	a1,a1,t5
     eb8:	00b50533          	add	a0,a0,a1
     ebc:	42a55a13          	srai	s4,a0,0x2a
     ec0:	014d4463          	blt	s10,s4,ec8 <.LBB107_104>
     ec4:	fc600a13          	li	s4,-58

0000000000000ec8 <.LBB107_104>:
     ec8:	24813503          	ld	a0,584(sp)
     ecc:	02950533          	mul	a0,a0,s1
     ed0:	15813583          	ld	a1,344(sp)
     ed4:	01e585b3          	add	a1,a1,t5
     ed8:	00b50533          	add	a0,a0,a1
     edc:	42a55b93          	srai	s7,a0,0x2a
     ee0:	017d4463          	blt	s10,s7,ee8 <.LBB107_106>
     ee4:	fc600b93          	li	s7,-58

0000000000000ee8 <.LBB107_106>:
     ee8:	16813503          	ld	a0,360(sp)
     eec:	02950533          	mul	a0,a0,s1
     ef0:	01e685b3          	add	a1,a3,t5
     ef4:	00b50533          	add	a0,a0,a1
     ef8:	42a55b13          	srai	s6,a0,0x2a
     efc:	016d4463          	blt	s10,s6,f04 <.LBB107_108>
     f00:	fc600b13          	li	s6,-58

0000000000000f04 <.LBB107_108>:
     f04:	17813503          	ld	a0,376(sp)
     f08:	02950533          	mul	a0,a0,s1
     f0c:	17013583          	ld	a1,368(sp)
     f10:	01e585b3          	add	a1,a1,t5
     f14:	00b50533          	add	a0,a0,a1
     f18:	42a55693          	srai	a3,a0,0x2a
     f1c:	00dd4463          	blt	s10,a3,f24 <.LBB107_110>
     f20:	fc600693          	li	a3,-58

0000000000000f24 <.LBB107_110>:
     f24:	19013503          	ld	a0,400(sp)
     f28:	02950533          	mul	a0,a0,s1
     f2c:	18813583          	ld	a1,392(sp)
     f30:	01e585b3          	add	a1,a1,t5
     f34:	00b50533          	add	a0,a0,a1
     f38:	42a55a93          	srai	s5,a0,0x2a
     f3c:	015d4463          	blt	s10,s5,f44 <.LBB107_112>
     f40:	fc600a93          	li	s5,-58

0000000000000f44 <.LBB107_112>:
     f44:	1a013503          	ld	a0,416(sp)
     f48:	02950533          	mul	a0,a0,s1
     f4c:	19813583          	ld	a1,408(sp)
     f50:	01e585b3          	add	a1,a1,t5
     f54:	00b50533          	add	a0,a0,a1
     f58:	42a55c13          	srai	s8,a0,0x2a
     f5c:	018d4463          	blt	s10,s8,f64 <.LBB107_114>
     f60:	fc600c13          	li	s8,-58

0000000000000f64 <.LBB107_114>:
     f64:	1b013503          	ld	a0,432(sp)
     f68:	02950533          	mul	a0,a0,s1
     f6c:	1a813583          	ld	a1,424(sp)
     f70:	01e585b3          	add	a1,a1,t5
     f74:	00b50533          	add	a0,a0,a1
     f78:	42a55c93          	srai	s9,a0,0x2a
     f7c:	019d4463          	blt	s10,s9,f84 <.LBB107_116>
     f80:	fc600c93          	li	s9,-58

0000000000000f84 <.LBB107_116>:
     f84:	20013503          	ld	a0,512(sp)
     f88:	02950533          	mul	a0,a0,s1
     f8c:	1b813583          	ld	a1,440(sp)
     f90:	01e585b3          	add	a1,a1,t5
     f94:	00b50533          	add	a0,a0,a1
     f98:	42a55593          	srai	a1,a0,0x2a
     f9c:	00bd4463          	blt	s10,a1,fa4 <.LBB107_118>
     fa0:	fc600593          	li	a1,-58

0000000000000fa4 <.LBB107_118>:
     fa4:	20813503          	ld	a0,520(sp)
     fa8:	02950533          	mul	a0,a0,s1
     fac:	1c013783          	ld	a5,448(sp)
     fb0:	01e787b3          	add	a5,a5,t5
     fb4:	00f50533          	add	a0,a0,a5
     fb8:	42a55293          	srai	t0,a0,0x2a
     fbc:	005d4463          	blt	s10,t0,fc4 <.LBB107_120>
     fc0:	fc600293          	li	t0,-58

0000000000000fc4 <.LBB107_120>:
     fc4:	21013503          	ld	a0,528(sp)
     fc8:	02950533          	mul	a0,a0,s1
     fcc:	1c813783          	ld	a5,456(sp)
     fd0:	01e787b3          	add	a5,a5,t5
     fd4:	00f50533          	add	a0,a0,a5
     fd8:	42a55313          	srai	t1,a0,0x2a
     fdc:	006d4463          	blt	s10,t1,fe4 <.LBB107_122>
     fe0:	fc600313          	li	t1,-58

0000000000000fe4 <.LBB107_122>:
     fe4:	1d813503          	ld	a0,472(sp)
     fe8:	02950533          	mul	a0,a0,s1
     fec:	1d013783          	ld	a5,464(sp)
     ff0:	01e787b3          	add	a5,a5,t5
     ff4:	00f50533          	add	a0,a0,a5
     ff8:	42a55d93          	srai	s11,a0,0x2a
     ffc:	01bd4463          	blt	s10,s11,1004 <.LBB107_124>
    1000:	fc600d93          	li	s11,-58

0000000000001004 <.LBB107_124>:
    1004:	1e013503          	ld	a0,480(sp)
    1008:	02950533          	mul	a0,a0,s1
    100c:	21813783          	ld	a5,536(sp)
    1010:	01e787b3          	add	a5,a5,t5
    1014:	00f50533          	add	a0,a0,a5
    1018:	42a55093          	srai	ra,a0,0x2a
    101c:	001d4463          	blt	s10,ra,1024 <.LBB107_126>
    1020:	fc600093          	li	ra,-58

0000000000001024 <.LBB107_126>:
    1024:	1e813503          	ld	a0,488(sp)
    1028:	02950533          	mul	a0,a0,s1
    102c:	22013783          	ld	a5,544(sp)
    1030:	01e787b3          	add	a5,a5,t5
    1034:	00f50533          	add	a0,a0,a5
    1038:	42a55513          	srai	a0,a0,0x2a
    103c:	00ad4463          	blt	s10,a0,1044 <.LBB107_128>
    1040:	fc600513          	li	a0,-58

0000000000001044 <.LBB107_128>:
    1044:	22813783          	ld	a5,552(sp)
    1048:	029787b3          	mul	a5,a5,s1
    104c:	1f013e83          	ld	t4,496(sp)
    1050:	01ee8f33          	add	t5,t4,t5
    1054:	01e787b3          	add	a5,a5,t5
    1058:	42a7d793          	srai	a5,a5,0x2a
    105c:	00fd4463          	blt	s10,a5,1064 <.LBB107_130>
    1060:	fc600793          	li	a5,-58

0000000000001064 <.LBB107_130>:
    1064:	24013f03          	ld	t5,576(sp)
    1068:	029f0f33          	mul	t5,t5,s1
    106c:	15013483          	ld	s1,336(sp)
    1070:	23813e83          	ld	t4,568(sp)
    1074:	009e84b3          	add	s1,t4,s1
    1078:	009f0f33          	add	t5,t5,s1
    107c:	42af5f13          	srai	t5,t5,0x2a
    1080:	0bed5663          	bge	s10,t5,112c <.LBB107_163>
    1084:	0c500d13          	li	s10,197
    1088:	28013e83          	ld	t4,640(sp)
    108c:	0baf5863          	bge	t5,s10,113c <.LBB107_164>

0000000000001090 <.LBB107_132>:
    1090:	0ba7da63          	bge	a5,s10,1144 <.LBB107_165>

0000000000001094 <.LBB107_133>:
    1094:	0ba55c63          	bge	a0,s10,114c <.LBB107_166>

0000000000001098 <.LBB107_134>:
    1098:	0ba0de63          	bge	ra,s10,1154 <.LBB107_167>

000000000000109c <.LBB107_135>:
    109c:	0dadd063          	bge	s11,s10,115c <.LBB107_168>

00000000000010a0 <.LBB107_136>:
    10a0:	0da35263          	bge	t1,s10,1164 <.LBB107_169>

00000000000010a4 <.LBB107_137>:
    10a4:	0da2d463          	bge	t0,s10,116c <.LBB107_170>

00000000000010a8 <.LBB107_138>:
    10a8:	0da5d663          	bge	a1,s10,1174 <.LBB107_171>

00000000000010ac <.LBB107_139>:
    10ac:	0dacd863          	bge	s9,s10,117c <.LBB107_172>

00000000000010b0 <.LBB107_140>:
    10b0:	0dac5a63          	bge	s8,s10,1184 <.LBB107_173>

00000000000010b4 <.LBB107_141>:
    10b4:	0daadc63          	bge	s5,s10,118c <.LBB107_174>

00000000000010b8 <.LBB107_142>:
    10b8:	0da6de63          	bge	a3,s10,1194 <.LBB107_175>

00000000000010bc <.LBB107_143>:
    10bc:	0fab5063          	bge	s6,s10,119c <.LBB107_176>

00000000000010c0 <.LBB107_144>:
    10c0:	0fabd263          	bge	s7,s10,11a4 <.LBB107_177>

00000000000010c4 <.LBB107_145>:
    10c4:	0faa5463          	bge	s4,s10,11ac <.LBB107_178>

00000000000010c8 <.LBB107_146>:
    10c8:	0fa75663          	bge	a4,s10,11b4 <.LBB107_179>

00000000000010cc <.LBB107_147>:
    10cc:	0fa65863          	bge	a2,s10,11bc <.LBB107_180>

00000000000010d0 <.LBB107_148>:
    10d0:	0fa85a63          	bge	a6,s10,11c4 <.LBB107_181>

00000000000010d4 <.LBB107_149>:
    10d4:	0fa9dc63          	bge	s3,s10,11cc <.LBB107_182>

00000000000010d8 <.LBB107_150>:
    10d8:	0fa95e63          	bge	s2,s10,11d4 <.LBB107_183>

00000000000010dc <.LBB107_151>:
    10dc:	11afd063          	bge	t6,s10,11dc <.LBB107_184>

00000000000010e0 <.LBB107_152>:
    10e0:	11a8d263          	bge	a7,s10,11e4 <.LBB107_185>

00000000000010e4 <.LBB107_153>:
    10e4:	11a3d463          	bge	t2,s10,11ec <.LBB107_186>

00000000000010e8 <.LBB107_154>:
    10e8:	11ae5663          	bge	t3,s10,11f4 <.LBB107_187>

00000000000010ec <.LBB107_155>:
    10ec:	28813483          	ld	s1,648(sp)
    10f0:	11a4d863          	bge	s1,s10,1200 <.LBB107_188>

00000000000010f4 <.LBB107_156>:
    10f4:	29013483          	ld	s1,656(sp)
    10f8:	11a4dc63          	bge	s1,s10,1210 <.LBB107_189>

00000000000010fc <.LBB107_157>:
    10fc:	29813483          	ld	s1,664(sp)
    1100:	13a4d063          	bge	s1,s10,1220 <.LBB107_190>

0000000000001104 <.LBB107_158>:
    1104:	2a013483          	ld	s1,672(sp)
    1108:	13a4d463          	bge	s1,s10,1230 <.LBB107_191>

000000000000110c <.LBB107_159>:
    110c:	2a813483          	ld	s1,680(sp)
    1110:	13a4d863          	bge	s1,s10,1240 <.LBB107_192>

0000000000001114 <.LBB107_160>:
    1114:	2b013483          	ld	s1,688(sp)
    1118:	13a4dc63          	bge	s1,s10,1250 <.LBB107_193>

000000000000111c <.LBB107_161>:
    111c:	2b813483          	ld	s1,696(sp)
    1120:	15a4d063          	bge	s1,s10,1260 <.LBB107_194>

0000000000001124 <.LBB107_162>:
    1124:	15aed663          	bge	t4,s10,1270 <.LBB107_195>
    1128:	fb1fe06f          	j	d8 <.LBB107_1>

000000000000112c <.LBB107_163>:
    112c:	fc600f13          	li	t5,-58
    1130:	0c500d13          	li	s10,197
    1134:	28013e83          	ld	t4,640(sp)
    1138:	f5af4ce3          	blt	t5,s10,1090 <.LBB107_132>

000000000000113c <.LBB107_164>:
    113c:	0c500f13          	li	t5,197
    1140:	f5a7cae3          	blt	a5,s10,1094 <.LBB107_133>

0000000000001144 <.LBB107_165>:
    1144:	0c500793          	li	a5,197
    1148:	f5a548e3          	blt	a0,s10,1098 <.LBB107_134>

000000000000114c <.LBB107_166>:
    114c:	0c500513          	li	a0,197
    1150:	f5a0c6e3          	blt	ra,s10,109c <.LBB107_135>

0000000000001154 <.LBB107_167>:
    1154:	0c500093          	li	ra,197
    1158:	f5adc4e3          	blt	s11,s10,10a0 <.LBB107_136>

000000000000115c <.LBB107_168>:
    115c:	0c500d93          	li	s11,197
    1160:	f5a342e3          	blt	t1,s10,10a4 <.LBB107_137>

0000000000001164 <.LBB107_169>:
    1164:	0c500313          	li	t1,197
    1168:	f5a2c0e3          	blt	t0,s10,10a8 <.LBB107_138>

000000000000116c <.LBB107_170>:
    116c:	0c500293          	li	t0,197
    1170:	f3a5cee3          	blt	a1,s10,10ac <.LBB107_139>

0000000000001174 <.LBB107_171>:
    1174:	0c500593          	li	a1,197
    1178:	f3accce3          	blt	s9,s10,10b0 <.LBB107_140>

000000000000117c <.LBB107_172>:
    117c:	0c500c93          	li	s9,197
    1180:	f3ac4ae3          	blt	s8,s10,10b4 <.LBB107_141>

0000000000001184 <.LBB107_173>:
    1184:	0c500c13          	li	s8,197
    1188:	f3aac8e3          	blt	s5,s10,10b8 <.LBB107_142>

000000000000118c <.LBB107_174>:
    118c:	0c500a93          	li	s5,197
    1190:	f3a6c6e3          	blt	a3,s10,10bc <.LBB107_143>

0000000000001194 <.LBB107_175>:
    1194:	0c500693          	li	a3,197
    1198:	f3ab44e3          	blt	s6,s10,10c0 <.LBB107_144>

000000000000119c <.LBB107_176>:
    119c:	0c500b13          	li	s6,197
    11a0:	f3abc2e3          	blt	s7,s10,10c4 <.LBB107_145>

00000000000011a4 <.LBB107_177>:
    11a4:	0c500b93          	li	s7,197
    11a8:	f3aa40e3          	blt	s4,s10,10c8 <.LBB107_146>

00000000000011ac <.LBB107_178>:
    11ac:	0c500a13          	li	s4,197
    11b0:	f1a74ee3          	blt	a4,s10,10cc <.LBB107_147>

00000000000011b4 <.LBB107_179>:
    11b4:	0c500713          	li	a4,197
    11b8:	f1a64ce3          	blt	a2,s10,10d0 <.LBB107_148>

00000000000011bc <.LBB107_180>:
    11bc:	0c500613          	li	a2,197
    11c0:	f1a84ae3          	blt	a6,s10,10d4 <.LBB107_149>

00000000000011c4 <.LBB107_181>:
    11c4:	0c500813          	li	a6,197
    11c8:	f1a9c8e3          	blt	s3,s10,10d8 <.LBB107_150>

00000000000011cc <.LBB107_182>:
    11cc:	0c500993          	li	s3,197
    11d0:	f1a946e3          	blt	s2,s10,10dc <.LBB107_151>

00000000000011d4 <.LBB107_183>:
    11d4:	0c500913          	li	s2,197
    11d8:	f1afc4e3          	blt	t6,s10,10e0 <.LBB107_152>

00000000000011dc <.LBB107_184>:
    11dc:	0c500f93          	li	t6,197
    11e0:	f1a8c2e3          	blt	a7,s10,10e4 <.LBB107_153>

00000000000011e4 <.LBB107_185>:
    11e4:	0c500893          	li	a7,197
    11e8:	f1a3c0e3          	blt	t2,s10,10e8 <.LBB107_154>

00000000000011ec <.LBB107_186>:
    11ec:	0c500393          	li	t2,197
    11f0:	efae4ee3          	blt	t3,s10,10ec <.LBB107_155>

00000000000011f4 <.LBB107_187>:
    11f4:	0c500e13          	li	t3,197
    11f8:	28813483          	ld	s1,648(sp)
    11fc:	efa4cce3          	blt	s1,s10,10f4 <.LBB107_156>

0000000000001200 <.LBB107_188>:
    1200:	0c500493          	li	s1,197
    1204:	28913423          	sd	s1,648(sp)
    1208:	29013483          	ld	s1,656(sp)
    120c:	efa4c8e3          	blt	s1,s10,10fc <.LBB107_157>

0000000000001210 <.LBB107_189>:
    1210:	0c500493          	li	s1,197
    1214:	28913823          	sd	s1,656(sp)
    1218:	29813483          	ld	s1,664(sp)
    121c:	efa4c4e3          	blt	s1,s10,1104 <.LBB107_158>

0000000000001220 <.LBB107_190>:
    1220:	0c500493          	li	s1,197
    1224:	28913c23          	sd	s1,664(sp)
    1228:	2a013483          	ld	s1,672(sp)
    122c:	efa4c0e3          	blt	s1,s10,110c <.LBB107_159>

0000000000001230 <.LBB107_191>:
    1230:	0c500493          	li	s1,197
    1234:	2a913023          	sd	s1,672(sp)
    1238:	2a813483          	ld	s1,680(sp)
    123c:	eda4cce3          	blt	s1,s10,1114 <.LBB107_160>

0000000000001240 <.LBB107_192>:
    1240:	0c500493          	li	s1,197
    1244:	2a913423          	sd	s1,680(sp)
    1248:	2b013483          	ld	s1,688(sp)
    124c:	eda4c8e3          	blt	s1,s10,111c <.LBB107_161>

0000000000001250 <.LBB107_193>:
    1250:	0c500493          	li	s1,197
    1254:	2a913823          	sd	s1,688(sp)
    1258:	2b813483          	ld	s1,696(sp)
    125c:	eda4c4e3          	blt	s1,s10,1124 <.LBB107_162>

0000000000001260 <.LBB107_194>:
    1260:	0c500493          	li	s1,197
    1264:	2a913c23          	sd	s1,696(sp)
    1268:	01aed463          	bge	t4,s10,1270 <.LBB107_195>
    126c:	e6dfe06f          	j	d8 <.LBB107_1>

0000000000001270 <.LBB107_195>:
    1270:	0c500e93          	li	t4,197
    1274:	e65fe06f          	j	d8 <.LBB107_1>

0000000000001278 <.LBB107_196>:
    1278:	00000613          	li	a2,0
    127c:	00000693          	li	a3,0
    1280:	00000793          	li	a5,0
    1284:	00000293          	li	t0,0
    1288:	00000893          	li	a7,0
    128c:	00000813          	li	a6,0
    1290:	00000713          	li	a4,0
    1294:	00000593          	li	a1,0
    1298:	00000513          	li	a0,0
    129c:	2c013023          	sd	zero,704(sp)
    12a0:	2c013423          	sd	zero,712(sp)
    12a4:	2c013823          	sd	zero,720(sp)
    12a8:	2c013c23          	sd	zero,728(sp)
    12ac:	2e012023          	sw	zero,736(sp)
    12b0:	00239337          	lui	t1,0x239
    12b4:	b603031b          	addiw	t1,t1,-1184 # 238b60 <.Lfunc_end80+0x210198>
    12b8:	02013b83          	ld	s7,32(sp)
    12bc:	006b8333          	add	t1,s7,t1
    12c0:	50000393          	li	t2,1280

00000000000012c4 <.LBB107_197>:
    12c4:	000c0e03          	lb	t3,0(s8)
    12c8:	00030e83          	lb	t4,0(t1)
    12cc:	00130f03          	lb	t5,1(t1)
    12d0:	00230f83          	lb	t6,2(t1)
    12d4:	00330483          	lb	s1,3(t1)
    12d8:	00430903          	lb	s2,4(t1)
    12dc:	00830983          	lb	s3,8(t1)
    12e0:	00730a03          	lb	s4,7(t1)
    12e4:	00630a83          	lb	s5,6(t1)
    12e8:	00530b03          	lb	s6,5(t1)
    12ec:	033e09b3          	mul	s3,t3,s3
    12f0:	034e0a33          	mul	s4,t3,s4
    12f4:	035e0ab3          	mul	s5,t3,s5
    12f8:	036e0b33          	mul	s6,t3,s6
    12fc:	032e0933          	mul	s2,t3,s2
    1300:	029e04b3          	mul	s1,t3,s1
    1304:	03de0eb3          	mul	t4,t3,t4
    1308:	03ee0f33          	mul	t5,t3,t5
    130c:	03fe0e33          	mul	t3,t3,t6
    1310:	00fe07b3          	add	a5,t3,a5
    1314:	00df06b3          	add	a3,t5,a3
    1318:	00ce8633          	add	a2,t4,a2
    131c:	005482b3          	add	t0,s1,t0
    1320:	011908b3          	add	a7,s2,a7
    1324:	010b0833          	add	a6,s6,a6
    1328:	00ea8733          	add	a4,s5,a4
    132c:	00ba05b3          	add	a1,s4,a1
    1330:	00a98533          	add	a0,s3,a0
    1334:	3e930313          	addi	t1,t1,1001
    1338:	fff38393          	addi	t2,t2,-1 # ffffffffbfffffff <.Lfunc_end80+0xffffffffbffd7637>
    133c:	001c0c13          	addi	s8,s8,1
    1340:	f80392e3          	bnez	t2,12c4 <.LBB107_197>
    1344:	2cc12023          	sw	a2,704(sp)
    1348:	2cd12223          	sw	a3,708(sp)
    134c:	2cf12423          	sw	a5,712(sp)
    1350:	2c512623          	sw	t0,716(sp)
    1354:	2d112823          	sw	a7,720(sp)
    1358:	2d012a23          	sw	a6,724(sp)
    135c:	2ce12c23          	sw	a4,728(sp)
    1360:	2cb12e23          	sw	a1,732(sp)
    1364:	2ea12023          	sw	a0,736(sp)
    1368:	00021337          	lui	t1,0x21
    136c:	e0030e9b          	addiw	t4,t1,-512 # 20e00 <.LBB77_4183>
    1370:	01db8eb3          	add	t4,s7,t4
    1374:	000ea383          	lw	t2,0(t4) # ffffffffc0000000 <.Lfunc_end80+0xffffffffbffd7638>
    1378:	004ea903          	lw	s2,4(t4)
    137c:	008ea483          	lw	s1,8(t4)
    1380:	00cea303          	lw	t1,12(t4)
    1384:	00372e37          	lui	t3,0x372
    1388:	400e0f1b          	addiw	t5,t3,1024 # 372400 <.Lfunc_end80+0x349a38>
    138c:	01eb8f33          	add	t5,s7,t5
    1390:	008f2e03          	lw	t3,8(t5) # ffffffffc0000008 <.Lfunc_end80+0xffffffffbffd7640>
    1394:	004f2983          	lw	s3,4(t5)
    1398:	000f2a03          	lw	s4,0(t5)
    139c:	00cf2f83          	lw	t6,12(t5)
    13a0:	007e1e13          	slli	t3,t3,0x7
    13a4:	00799993          	slli	s3,s3,0x7
    13a8:	007a1a13          	slli	s4,s4,0x7
    13ac:	13813a83          	ld	s5,312(sp)
    13b0:	00ca8633          	add	a2,s5,a2
    13b4:	00da86b3          	add	a3,s5,a3
    13b8:	00fa87b3          	add	a5,s5,a5
    13bc:	005a82b3          	add	t0,s5,t0
    13c0:	009784b3          	add	s1,a5,s1
    13c4:	01268933          	add	s2,a3,s2
    13c8:	00760633          	add	a2,a2,t2
    13cc:	014606bb          	addw	a3,a2,s4
    13d0:	013907bb          	addw	a5,s2,s3
    13d4:	400003b7          	lui	t2,0x40000
    13d8:	40000637          	lui	a2,0x40000
    13dc:	0006d463          	bgez	a3,13e4 <.LBB107_200>
    13e0:	c0000637          	lui	a2,0xc0000

00000000000013e4 <.LBB107_200>:
    13e4:	010ea903          	lw	s2,16(t4)
    13e8:	010f2983          	lw	s3,16(t5)
    13ec:	011a8ab3          	add	s5,s5,a7
    13f0:	007f9a13          	slli	s4,t6,0x7
    13f4:	00628333          	add	t1,t0,t1
    13f8:	01c482bb          	addw	t0,s1,t3
    13fc:	400008b7          	lui	a7,0x40000
    1400:	0007d463          	bgez	a5,1408 <.LBB107_202>
    1404:	c00008b7          	lui	a7,0xc0000

0000000000001408 <.LBB107_202>:
    1408:	014eae03          	lw	t3,20(t4)
    140c:	014f2f83          	lw	t6,20(t5)
    1410:	13813483          	ld	s1,312(sp)
    1414:	010484b3          	add	s1,s1,a6
    1418:	00799993          	slli	s3,s3,0x7
    141c:	012a8ab3          	add	s5,s5,s2
    1420:	0143083b          	addw	a6,t1,s4
    1424:	40000337          	lui	t1,0x40000
    1428:	0002d463          	bgez	t0,1430 <.LBB107_204>
    142c:	c0000337          	lui	t1,0xc0000

0000000000001430 <.LBB107_204>:
    1430:	018ea903          	lw	s2,24(t4)
    1434:	018f2a03          	lw	s4,24(t5)
    1438:	13813b03          	ld	s6,312(sp)
    143c:	00eb0b33          	add	s6,s6,a4
    1440:	007f9713          	slli	a4,t6,0x7
    1444:	01c48bb3          	add	s7,s1,t3
    1448:	013a8fbb          	addw	t6,s5,s3
    144c:	40000e37          	lui	t3,0x40000
    1450:	00085463          	bgez	a6,1458 <.LBB107_206>
    1454:	c0000e37          	lui	t3,0xc0000

0000000000001458 <.LBB107_206>:
    1458:	01cea483          	lw	s1,28(t4)
    145c:	01cf2983          	lw	s3,28(t5)
    1460:	13813a83          	ld	s5,312(sp)
    1464:	00ba8ab3          	add	s5,s5,a1
    1468:	007a1a13          	slli	s4,s4,0x7
    146c:	012b0933          	add	s2,s6,s2
    1470:	00eb85bb          	addw	a1,s7,a4
    1474:	40000737          	lui	a4,0x40000
    1478:	000fd463          	bgez	t6,1480 <.LBB107_208>
    147c:	c0000737          	lui	a4,0xc0000

0000000000001480 <.LBB107_208>:
    1480:	020eae83          	lw	t4,32(t4)
    1484:	020f2b03          	lw	s6,32(t5)
    1488:	13813b83          	ld	s7,312(sp)
    148c:	00ab8bb3          	add	s7,s7,a0
    1490:	6978bc37          	lui	s8,0x6978b
    1494:	00799993          	slli	s3,s3,0x7
    1498:	009a84b3          	add	s1,s5,s1
    149c:	01490f3b          	addw	t5,s2,s4
    14a0:	40000537          	lui	a0,0x40000
    14a4:	0005d463          	bgez	a1,14ac <.LBB107_210>
    14a8:	c0000537          	lui	a0,0xc0000

00000000000014ac <.LBB107_210>:
    14ac:	007b1b13          	slli	s6,s6,0x7
    14b0:	01db8bb3          	add	s7,s7,t4
    14b4:	0eac0e9b          	addiw	t4,s8,234 # 6978b0ea <.Lfunc_end80+0x69762722>
    14b8:	013489bb          	addw	s3,s1,s3
    14bc:	400004b7          	lui	s1,0x40000
    14c0:	000f5463          	bgez	t5,14c8 <.LBB107_212>
    14c4:	c00004b7          	lui	s1,0xc0000

00000000000014c8 <.LBB107_212>:
    14c8:	016b893b          	addw	s2,s7,s6
    14cc:	03df0ab3          	mul	s5,t5,t4
    14d0:	03d98a33          	mul	s4,s3,t4
    14d4:	40000b37          	lui	s6,0x40000
    14d8:	0009d463          	bgez	s3,14e0 <.LBB107_214>
    14dc:	c0000b37          	lui	s6,0xc0000

00000000000014e0 <.LBB107_214>:
    14e0:	03d58f33          	mul	t5,a1,t4
    14e4:	03d909b3          	mul	s3,s2,t4
    14e8:	009a85b3          	add	a1,s5,s1
    14ec:	016a0a33          	add	s4,s4,s6
    14f0:	00095463          	bgez	s2,14f8 <.LBB107_216>
    14f4:	c00003b7          	lui	t2,0xc0000

00000000000014f8 <.LBB107_216>:
    14f8:	03df8fb3          	mul	t6,t6,t4
    14fc:	00af04b3          	add	s1,t5,a0
    1500:	00100f13          	li	t5,1
    1504:	029f1f13          	slli	t5,t5,0x29
    1508:	01e383b3          	add	t2,t2,t5
    150c:	00798533          	add	a0,s3,t2
    1510:	01ea0a33          	add	s4,s4,t5
    1514:	01e58933          	add	s2,a1,t5
    1518:	42a55513          	srai	a0,a0,0x2a
    151c:	fc600393          	li	t2,-58
    1520:	42aa5593          	srai	a1,s4,0x2a
    1524:	00a3c463          	blt	t2,a0,152c <.LBB107_218>
    1528:	fc600513          	li	a0,-58

000000000000152c <.LBB107_218>:
    152c:	03d80833          	mul	a6,a6,t4
    1530:	00ef89b3          	add	s3,t6,a4
    1534:	01e484b3          	add	s1,s1,t5
    1538:	42a95713          	srai	a4,s2,0x2a
    153c:	00b3c463          	blt	t2,a1,1544 <.LBB107_220>
    1540:	fc600593          	li	a1,-58

0000000000001544 <.LBB107_220>:
    1544:	03d282b3          	mul	t0,t0,t4
    1548:	01c80fb3          	add	t6,a6,t3
    154c:	01e989b3          	add	s3,s3,t5
    1550:	42a4d813          	srai	a6,s1,0x2a
    1554:	00e3c463          	blt	t2,a4,155c <.LBB107_222>
    1558:	fc600713          	li	a4,-58

000000000000155c <.LBB107_222>:
    155c:	03d78e33          	mul	t3,a5,t4
    1560:	006282b3          	add	t0,t0,t1
    1564:	01ef8fb3          	add	t6,t6,t5
    1568:	42a9d793          	srai	a5,s3,0x2a
    156c:	0103c463          	blt	t2,a6,1574 <.LBB107_224>
    1570:	fc600813          	li	a6,-58

0000000000001574 <.LBB107_224>:
    1574:	03d68333          	mul	t1,a3,t4
    1578:	011e08b3          	add	a7,t3,a7
    157c:	01e282b3          	add	t0,t0,t5
    1580:	42afd693          	srai	a3,t6,0x2a
    1584:	0ef3d463          	bge	t2,a5,166c <.LBB107_240>
    1588:	00c30333          	add	t1,t1,a2
    158c:	01e888b3          	add	a7,a7,t5
    1590:	42a2d613          	srai	a2,t0,0x2a
    1594:	0ed3d663          	bge	t2,a3,1680 <.LBB107_241>

0000000000001598 <.LBB107_226>:
    1598:	01e30333          	add	t1,t1,t5
    159c:	42a8d893          	srai	a7,a7,0x2a
    15a0:	0ec3d863          	bge	t2,a2,1690 <.LBB107_242>

00000000000015a4 <.LBB107_227>:
    15a4:	42a35293          	srai	t0,t1,0x2a
    15a8:	0f13da63          	bge	t2,a7,169c <.LBB107_243>

00000000000015ac <.LBB107_228>:
    15ac:	0e53dc63          	bge	t2,t0,16a4 <.LBB107_244>

00000000000015b0 <.LBB107_229>:
    15b0:	0c500313          	li	t1,197
    15b4:	0e62de63          	bge	t0,t1,16b0 <.LBB107_245>

00000000000015b8 <.LBB107_230>:
    15b8:	1068d063          	bge	a7,t1,16b8 <.LBB107_246>

00000000000015bc <.LBB107_231>:
    15bc:	10665263          	bge	a2,t1,16c0 <.LBB107_247>

00000000000015c0 <.LBB107_232>:
    15c0:	1066d463          	bge	a3,t1,16c8 <.LBB107_248>

00000000000015c4 <.LBB107_233>:
    15c4:	1067d663          	bge	a5,t1,16d0 <.LBB107_249>

00000000000015c8 <.LBB107_234>:
    15c8:	10685863          	bge	a6,t1,16d8 <.LBB107_250>

00000000000015cc <.LBB107_235>:
    15cc:	10675a63          	bge	a4,t1,16e0 <.LBB107_251>

00000000000015d0 <.LBB107_236>:
    15d0:	1065dc63          	bge	a1,t1,16e8 <.LBB107_252>

00000000000015d4 <.LBB107_237>:
    15d4:	00654463          	blt	a0,t1,15dc <.LBB107_239>

00000000000015d8 <.LBB107_238>:
    15d8:	0c500513          	li	a0,197

00000000000015dc <.LBB107_239>:
    15dc:	03a50513          	addi	a0,a0,58 # ffffffffc000003a <.Lfunc_end80+0xffffffffbffd7672>
    15e0:	03a58593          	addi	a1,a1,58 # ffffffffc000003a <.Lfunc_end80+0xffffffffbffd7672>
    15e4:	03a70713          	addi	a4,a4,58 # ffffffffc000003a <.Lfunc_end80+0xffffffffbffd7672>
    15e8:	03a80813          	addi	a6,a6,58 # ffffffffc000003a <.Lfunc_end80+0xffffffffbffd7672>
    15ec:	03a78793          	addi	a5,a5,58 # ffffffffc000003a <.Lfunc_end80+0xffffffffbffd7672>
    15f0:	03a68693          	addi	a3,a3,58 # ffffffffc000003a <.Lfunc_end80+0xffffffffbffd7672>
    15f4:	03a60613          	addi	a2,a2,58 # ffffffffc000003a <.Lfunc_end80+0xffffffffbffd7672>
    15f8:	03a88893          	addi	a7,a7,58 # ffffffffc000003a <.Lfunc_end80+0xffffffffbffd7672>
    15fc:	03a28293          	addi	t0,t0,58 # ffffffffc000003a <.Lfunc_end80+0xffffffffbffd7672>
    1600:	04813303          	ld	t1,72(sp)
    1604:	3e530023          	sb	t0,992(t1) # ffffffffc00003e0 <.Lfunc_end80+0xffffffffbffd7a18>
    1608:	3f1300a3          	sb	a7,993(t1)
    160c:	3ec30123          	sb	a2,994(t1)
    1610:	3ed301a3          	sb	a3,995(t1)
    1614:	3ef30223          	sb	a5,996(t1)
    1618:	3f0302a3          	sb	a6,997(t1)
    161c:	3ee30323          	sb	a4,998(t1)
    1620:	3eb303a3          	sb	a1,999(t1)
    1624:	3ea30423          	sb	a0,1000(t1)
    1628:	00000513          	li	a0,0
    162c:	c8040113          	addi	sp,s0,-896
    1630:	37813083          	ld	ra,888(sp)
    1634:	37013403          	ld	s0,880(sp)
    1638:	36813483          	ld	s1,872(sp)
    163c:	36013903          	ld	s2,864(sp)
    1640:	35813983          	ld	s3,856(sp)
    1644:	35013a03          	ld	s4,848(sp)
    1648:	34813a83          	ld	s5,840(sp)
    164c:	34013b03          	ld	s6,832(sp)
    1650:	33813b83          	ld	s7,824(sp)
    1654:	33013c03          	ld	s8,816(sp)
    1658:	32813c83          	ld	s9,808(sp)
    165c:	32013d03          	ld	s10,800(sp)
    1660:	31813d83          	ld	s11,792(sp)
    1664:	38010113          	addi	sp,sp,896
    1668:	00008067          	ret

000000000000166c <.LBB107_240>:
    166c:	fc600793          	li	a5,-58
    1670:	00c30333          	add	t1,t1,a2
    1674:	01e888b3          	add	a7,a7,t5
    1678:	42a2d613          	srai	a2,t0,0x2a
    167c:	f0d3cee3          	blt	t2,a3,1598 <.LBB107_226>

0000000000001680 <.LBB107_241>:
    1680:	fc600693          	li	a3,-58
    1684:	01e30333          	add	t1,t1,t5
    1688:	42a8d893          	srai	a7,a7,0x2a
    168c:	f0c3cce3          	blt	t2,a2,15a4 <.LBB107_227>

0000000000001690 <.LBB107_242>:
    1690:	fc600613          	li	a2,-58
    1694:	42a35293          	srai	t0,t1,0x2a
    1698:	f113cae3          	blt	t2,a7,15ac <.LBB107_228>

000000000000169c <.LBB107_243>:
    169c:	fc600893          	li	a7,-58
    16a0:	f053c8e3          	blt	t2,t0,15b0 <.LBB107_229>

00000000000016a4 <.LBB107_244>:
    16a4:	fc600293          	li	t0,-58
    16a8:	0c500313          	li	t1,197
    16ac:	f062c6e3          	blt	t0,t1,15b8 <.LBB107_230>

00000000000016b0 <.LBB107_245>:
    16b0:	0c500293          	li	t0,197
    16b4:	f068c4e3          	blt	a7,t1,15bc <.LBB107_231>

00000000000016b8 <.LBB107_246>:
    16b8:	0c500893          	li	a7,197
    16bc:	f06642e3          	blt	a2,t1,15c0 <.LBB107_232>

00000000000016c0 <.LBB107_247>:
    16c0:	0c500613          	li	a2,197
    16c4:	f066c0e3          	blt	a3,t1,15c4 <.LBB107_233>

00000000000016c8 <.LBB107_248>:
    16c8:	0c500693          	li	a3,197
    16cc:	ee67cee3          	blt	a5,t1,15c8 <.LBB107_234>

00000000000016d0 <.LBB107_249>:
    16d0:	0c500793          	li	a5,197
    16d4:	ee684ce3          	blt	a6,t1,15cc <.LBB107_235>

00000000000016d8 <.LBB107_250>:
    16d8:	0c500813          	li	a6,197
    16dc:	ee674ae3          	blt	a4,t1,15d0 <.LBB107_236>

00000000000016e0 <.LBB107_251>:
    16e0:	0c500713          	li	a4,197
    16e4:	ee65c8e3          	blt	a1,t1,15d4 <.LBB107_237>

00000000000016e8 <.LBB107_252>:
    16e8:	0c500593          	li	a1,197
    16ec:	ee6556e3          	bge	a0,t1,15d8 <.LBB107_238>
    16f0:	eedff06f          	j	15dc <.LBB107_239>
