
code.o:     file format elf64-littleriscv


Disassembly of section .text.main_dispatch_123_matmul_49x960x160_i8xi8xi32:

0000000000000000 <main_dispatch_123_matmul_49x960x160_i8xi8xi32>:
       0:	f1501173          	csrrw	sp,0xf15,zero

0000000000000004 <.Lfunc_begin96>:
       4:	81010113          	addi	sp,sp,-2032
       8:	7e113423          	sd	ra,2024(sp)
       c:	7e813023          	sd	s0,2016(sp)
      10:	7c913c23          	sd	s1,2008(sp)
      14:	7d213823          	sd	s2,2000(sp)
      18:	7d313423          	sd	s3,1992(sp)
      1c:	7d413023          	sd	s4,1984(sp)
      20:	7b513c23          	sd	s5,1976(sp)
      24:	7b613823          	sd	s6,1968(sp)
      28:	7b713423          	sd	s7,1960(sp)
      2c:	7b813023          	sd	s8,1952(sp)
      30:	79913c23          	sd	s9,1944(sp)
      34:	79a13823          	sd	s10,1936(sp)
      38:	79b13423          	sd	s11,1928(sp)
      3c:	7f010413          	addi	s0,sp,2032
      40:	80010113          	addi	sp,sp,-2048
      44:	cc010113          	addi	sp,sp,-832
      48:	0205b583          	ld	a1,32(a1)
      4c:	00000513          	li	a0,0
      50:	0085b603          	ld	a2,8(a1)
      54:	0005b703          	ld	a4,0(a1)
      58:	001146b7          	lui	a3,0x114
      5c:	8006869b          	addiw	a3,a3,-2048 # 113800 <.Lfunc_end80+0xeae34>
      60:	00d60933          	add	s2,a2,a3
      64:	000146b7          	lui	a3,0x14
      68:	4006869b          	addiw	a3,a3,1024 # 14400 <.LBB41_2175>
      6c:	0105b583          	ld	a1,16(a1)
      70:	00d606b3          	add	a3,a2,a3
      74:	000017b7          	lui	a5,0x1
      78:	40f407b3          	sub	a5,s0,a5
      7c:	d6d7b423          	sd	a3,-664(a5) # d68 <.LBB96_3+0xae4>
      80:	001396b7          	lui	a3,0x139
      84:	00d60633          	add	a2,a2,a3
      88:	000016b7          	lui	a3,0x1
      8c:	40d406b3          	sub	a3,s0,a3
      90:	d6c6b023          	sd	a2,-672(a3) # d60 <.LBB96_3+0xadc>
      94:	10058593          	addi	a1,a1,256
      98:	00001637          	lui	a2,0x1
      9c:	40c40633          	sub	a2,s0,a2
      a0:	ceb63c23          	sd	a1,-776(a2) # cf8 <.LBB96_3+0xa74>
      a4:	0000d5b7          	lui	a1,0xd
      a8:	7805859b          	addiw	a1,a1,1920 # d780 <.LBB95_1435>
      ac:	00001637          	lui	a2,0x1
      b0:	40c40633          	sub	a2,s0,a2
      b4:	d0e63023          	sd	a4,-768(a2) # d00 <.LBB96_3+0xa7c>
      b8:	00b705b3          	add	a1,a4,a1
      bc:	00001637          	lui	a2,0x1
      c0:	40c40633          	sub	a2,s0,a2
      c4:	d6b63823          	sd	a1,-656(a2) # d70 <.LBB96_3+0xaec>
      c8:	000015b7          	lui	a1,0x1
      cc:	2c05861b          	addiw	a2,a1,704 # 12c0 <.LBB96_4+0xe0>
      d0:	000016b7          	lui	a3,0x1
      d4:	40d406b3          	sub	a3,s0,a3
      d8:	cec6b423          	sd	a2,-792(a3) # ce8 <.LBB96_3+0xa64>
      dc:	6805859b          	addiw	a1,a1,1664
      e0:	00001637          	lui	a2,0x1
      e4:	40c40633          	sub	a2,s0,a2
      e8:	ceb63023          	sd	a1,-800(a2) # ce0 <.LBB96_3+0xa5c>
      ec:	000025b7          	lui	a1,0x2
      f0:	a405859b          	addiw	a1,a1,-1472 # 1a40 <.LBB96_5+0x2b8>
      f4:	00001637          	lui	a2,0x1
      f8:	40c40633          	sub	a2,s0,a2
      fc:	ccb63c23          	sd	a1,-808(a2) # cd8 <.LBB96_3+0xa54>
     100:	000265b7          	lui	a1,0x26
     104:	8005859b          	addiw	a1,a1,-2048 # 25800 <.LBB63_4855>
     108:	00001637          	lui	a2,0x1
     10c:	40c40633          	sub	a2,s0,a2
     110:	d0b63c23          	sd	a1,-744(a2) # d18 <.LBB96_3+0xa94>
     114:	53aa55b7          	lui	a1,0x53aa5
     118:	66d5859b          	addiw	a1,a1,1645 # 53aa566d <.Lfunc_end80+0x53a7cca1>
     11c:	00001637          	lui	a2,0x1
     120:	40c40633          	sub	a2,s0,a2
     124:	d0b63823          	sd	a1,-752(a2) # d10 <.LBB96_3+0xa8c>
     128:	00100593          	li	a1,1
     12c:	02459593          	slli	a1,a1,0x24
     130:	00001637          	lui	a2,0x1
     134:	40c40633          	sub	a2,s0,a2
     138:	64b63823          	sd	a1,1616(a2) # 1650 <.LBB96_4+0x470>
     13c:	000015b7          	lui	a1,0x1
     140:	40b405b3          	sub	a1,s0,a1
     144:	d125b423          	sd	s2,-760(a1) # d08 <.LBB96_3+0xa84>
     148:	0480006f          	j	190 <.LBB96_2>

000000000000014c <.LBB96_1>:
     14c:	00001537          	lui	a0,0x1
     150:	40a40533          	sub	a0,s0,a0
     154:	cf053603          	ld	a2,-784(a0) # cf0 <.LBB96_3+0xa6c>
     158:	00860513          	addi	a0,a2,8
     15c:	000015b7          	lui	a1,0x1
     160:	40b405b3          	sub	a1,s0,a1
     164:	d705b583          	ld	a1,-656(a1) # d70 <.LBB96_3+0xaec>
     168:	50058593          	addi	a1,a1,1280
     16c:	000016b7          	lui	a3,0x1
     170:	40d406b3          	sub	a3,s0,a3
     174:	d6b6b823          	sd	a1,-656(a3) # d70 <.LBB96_3+0xaec>
     178:	000015b7          	lui	a1,0x1
     17c:	40b405b3          	sub	a1,s0,a1
     180:	d085b903          	ld	s2,-760(a1) # d08 <.LBB96_3+0xa84>
     184:	02800593          	li	a1,40
     188:	00b66463          	bltu	a2,a1,190 <.LBB96_2>
     18c:	2340b06f          	j	b3c0 <.LBB96_1030>

0000000000000190 <.LBB96_2>:
     190:	00000593          	li	a1,0
     194:	00050693          	mv	a3,a0
     198:	00251513          	slli	a0,a0,0x2
     19c:	00001637          	lui	a2,0x1
     1a0:	40c40633          	sub	a2,s0,a2
     1a4:	d0063603          	ld	a2,-768(a2) # d00 <.LBB96_3+0xa7c>
     1a8:	00a60533          	add	a0,a2,a0
     1ac:	00001637          	lui	a2,0x1
     1b0:	40c40633          	sub	a2,s0,a2
     1b4:	64a63c23          	sd	a0,1624(a2) # 1658 <.LBB96_4+0x478>
     1b8:	3c000513          	li	a0,960
     1bc:	00001637          	lui	a2,0x1
     1c0:	40c40633          	sub	a2,s0,a2
     1c4:	ced63823          	sd	a3,-784(a2) # cf0 <.LBB96_3+0xa6c>
     1c8:	02a68533          	mul	a0,a3,a0
     1cc:	00001637          	lui	a2,0x1
     1d0:	40c40633          	sub	a2,s0,a2
     1d4:	cf863603          	ld	a2,-776(a2) # cf8 <.LBB96_3+0xa74>
     1d8:	00a60633          	add	a2,a2,a0
     1dc:	3c060513          	addi	a0,a2,960
     1e0:	000016b7          	lui	a3,0x1
     1e4:	40d406b3          	sub	a3,s0,a3
     1e8:	d4a6b823          	sd	a0,-688(a3) # d50 <.LBB96_3+0xacc>
     1ec:	78060513          	addi	a0,a2,1920
     1f0:	000016b7          	lui	a3,0x1
     1f4:	40d406b3          	sub	a3,s0,a3
     1f8:	d4a6b423          	sd	a0,-696(a3) # d48 <.LBB96_3+0xac4>
     1fc:	7ff60513          	addi	a0,a2,2047
     200:	34150693          	addi	a3,a0,833
     204:	00001737          	lui	a4,0x1
     208:	40e40733          	sub	a4,s0,a4
     20c:	d4d73023          	sd	a3,-704(a4) # d40 <.LBB96_3+0xabc>
     210:	70150513          	addi	a0,a0,1793
     214:	000016b7          	lui	a3,0x1
     218:	40d406b3          	sub	a3,s0,a3
     21c:	d2a6bc23          	sd	a0,-712(a3) # d38 <.LBB96_3+0xab4>
     220:	00001537          	lui	a0,0x1
     224:	40a40533          	sub	a0,s0,a0
     228:	ce853503          	ld	a0,-792(a0) # ce8 <.LBB96_3+0xa64>
     22c:	00a60533          	add	a0,a2,a0
     230:	000016b7          	lui	a3,0x1
     234:	40d406b3          	sub	a3,s0,a3
     238:	d2a6b823          	sd	a0,-720(a3) # d30 <.LBB96_3+0xaac>
     23c:	00001537          	lui	a0,0x1
     240:	40a40533          	sub	a0,s0,a0
     244:	ce053503          	ld	a0,-800(a0) # ce0 <.LBB96_3+0xa5c>
     248:	00a60533          	add	a0,a2,a0
     24c:	000016b7          	lui	a3,0x1
     250:	40d406b3          	sub	a3,s0,a3
     254:	d2a6b423          	sd	a0,-728(a3) # d28 <.LBB96_3+0xaa4>
     258:	00001537          	lui	a0,0x1
     25c:	40a40533          	sub	a0,s0,a0
     260:	cd853503          	ld	a0,-808(a0) # cd8 <.LBB96_3+0xa54>
     264:	000016b7          	lui	a3,0x1
     268:	40d406b3          	sub	a3,s0,a3
     26c:	d4c6bc23          	sd	a2,-680(a3) # d58 <.LBB96_3+0xad4>
     270:	00a60533          	add	a0,a2,a0
     274:	00001637          	lui	a2,0x1
     278:	40c40633          	sub	a2,s0,a2
     27c:	d2a63023          	sd	a0,-736(a2) # d20 <.LBB96_3+0xa9c>
     280:	7610006f          	j	11e0 <.LBB96_4>

0000000000000284 <.LBB96_3>:
     284:	080d4c93          	xori	s9,s10,128
     288:	00001c37          	lui	s8,0x1
     28c:	41840c33          	sub	s8,s0,s8
     290:	d58c3c03          	ld	s8,-680(s8) # d58 <.LBB96_3+0xad4>
     294:	00001d37          	lui	s10,0x1
     298:	41a40d33          	sub	s10,s0,s10
     29c:	660d3d03          	ld	s10,1632(s10) # 1660 <.LBB96_4+0x480>
     2a0:	01ac0c33          	add	s8,s8,s10
     2a4:	019c01a3          	sb	s9,3(s8)
     2a8:	f8043c83          	ld	s9,-128(s0)
     2ac:	080ccc93          	xori	s9,s9,128
     2b0:	019c0123          	sb	s9,2(s8)
     2b4:	f7843c83          	ld	s9,-136(s0)
     2b8:	080ccc93          	xori	s9,s9,128
     2bc:	019c00a3          	sb	s9,1(s8)
     2c0:	f7043c83          	ld	s9,-144(s0)
     2c4:	080ccc93          	xori	s9,s9,128
     2c8:	019c0023          	sb	s9,0(s8)
     2cc:	f6843c83          	ld	s9,-152(s0)
     2d0:	080ccc93          	xori	s9,s9,128
     2d4:	019c0223          	sb	s9,4(s8)
     2d8:	f6043c83          	ld	s9,-160(s0)
     2dc:	080ccc93          	xori	s9,s9,128
     2e0:	019c02a3          	sb	s9,5(s8)
     2e4:	f5843c83          	ld	s9,-168(s0)
     2e8:	080ccc93          	xori	s9,s9,128
     2ec:	019c0323          	sb	s9,6(s8)
     2f0:	f5043c83          	ld	s9,-176(s0)
     2f4:	080ccc93          	xori	s9,s9,128
     2f8:	019c03a3          	sb	s9,7(s8)
     2fc:	f4843c83          	ld	s9,-184(s0)
     300:	080ccc93          	xori	s9,s9,128
     304:	019c0423          	sb	s9,8(s8)
     308:	f4043c83          	ld	s9,-192(s0)
     30c:	080ccc93          	xori	s9,s9,128
     310:	019c04a3          	sb	s9,9(s8)
     314:	f3843c83          	ld	s9,-200(s0)
     318:	080ccc93          	xori	s9,s9,128
     31c:	019c0523          	sb	s9,10(s8)
     320:	f3043c83          	ld	s9,-208(s0)
     324:	080ccc93          	xori	s9,s9,128
     328:	019c05a3          	sb	s9,11(s8)
     32c:	f2843c83          	ld	s9,-216(s0)
     330:	080ccc93          	xori	s9,s9,128
     334:	019c0623          	sb	s9,12(s8)
     338:	f2043c83          	ld	s9,-224(s0)
     33c:	080ccc93          	xori	s9,s9,128
     340:	019c06a3          	sb	s9,13(s8)
     344:	f1843c83          	ld	s9,-232(s0)
     348:	080ccc93          	xori	s9,s9,128
     34c:	019c0723          	sb	s9,14(s8)
     350:	f1043c83          	ld	s9,-240(s0)
     354:	080ccc93          	xori	s9,s9,128
     358:	019c07a3          	sb	s9,15(s8)
     35c:	f0843c83          	ld	s9,-248(s0)
     360:	080ccc93          	xori	s9,s9,128
     364:	019c0823          	sb	s9,16(s8)
     368:	f0043c83          	ld	s9,-256(s0)
     36c:	080ccc93          	xori	s9,s9,128
     370:	019c08a3          	sb	s9,17(s8)
     374:	ef843c83          	ld	s9,-264(s0)
     378:	080ccc93          	xori	s9,s9,128
     37c:	019c0923          	sb	s9,18(s8)
     380:	ef043c83          	ld	s9,-272(s0)
     384:	080ccc93          	xori	s9,s9,128
     388:	019c09a3          	sb	s9,19(s8)
     38c:	ee843c83          	ld	s9,-280(s0)
     390:	080ccc93          	xori	s9,s9,128
     394:	019c0a23          	sb	s9,20(s8)
     398:	ed843c83          	ld	s9,-296(s0)
     39c:	080ccc93          	xori	s9,s9,128
     3a0:	019c0aa3          	sb	s9,21(s8)
     3a4:	ed043c83          	ld	s9,-304(s0)
     3a8:	080ccc93          	xori	s9,s9,128
     3ac:	019c0b23          	sb	s9,22(s8)
     3b0:	ec843c83          	ld	s9,-312(s0)
     3b4:	080ccc93          	xori	s9,s9,128
     3b8:	019c0ba3          	sb	s9,23(s8)
     3bc:	ea043c83          	ld	s9,-352(s0)
     3c0:	080ccc93          	xori	s9,s9,128
     3c4:	019c0c23          	sb	s9,24(s8)
     3c8:	e7843c83          	ld	s9,-392(s0)
     3cc:	080ccc93          	xori	s9,s9,128
     3d0:	019c0ca3          	sb	s9,25(s8)
     3d4:	e5843c83          	ld	s9,-424(s0)
     3d8:	080ccc93          	xori	s9,s9,128
     3dc:	019c0d23          	sb	s9,26(s8)
     3e0:	e2043c83          	ld	s9,-480(s0)
     3e4:	080ccc93          	xori	s9,s9,128
     3e8:	019c0da3          	sb	s9,27(s8)
     3ec:	e0843c83          	ld	s9,-504(s0)
     3f0:	080ccc93          	xori	s9,s9,128
     3f4:	019c0e23          	sb	s9,28(s8)
     3f8:	e0043c83          	ld	s9,-512(s0)
     3fc:	080ccc93          	xori	s9,s9,128
     400:	019c0ea3          	sb	s9,29(s8)
     404:	df843c83          	ld	s9,-520(s0)
     408:	080ccc93          	xori	s9,s9,128
     40c:	019c0f23          	sb	s9,30(s8)
     410:	df043c83          	ld	s9,-528(s0)
     414:	080ccc93          	xori	s9,s9,128
     418:	019c0fa3          	sb	s9,31(s8)
     41c:	de843c03          	ld	s8,-536(s0)
     420:	080c4c93          	xori	s9,s8,128
     424:	00001c37          	lui	s8,0x1
     428:	41840c33          	sub	s8,s0,s8
     42c:	d50c3c03          	ld	s8,-688(s8) # d50 <.LBB96_3+0xacc>
     430:	01ac0c33          	add	s8,s8,s10
     434:	019c01a3          	sb	s9,3(s8)
     438:	de043c83          	ld	s9,-544(s0)
     43c:	080ccc93          	xori	s9,s9,128
     440:	019c0123          	sb	s9,2(s8)
     444:	dd843c83          	ld	s9,-552(s0)
     448:	080ccc93          	xori	s9,s9,128
     44c:	019c00a3          	sb	s9,1(s8)
     450:	dd043c83          	ld	s9,-560(s0)
     454:	080ccc93          	xori	s9,s9,128
     458:	019c0023          	sb	s9,0(s8)
     45c:	dc043c83          	ld	s9,-576(s0)
     460:	080ccc93          	xori	s9,s9,128
     464:	019c0223          	sb	s9,4(s8)
     468:	bb843c83          	ld	s9,-1096(s0)
     46c:	080ccc93          	xori	s9,s9,128
     470:	019c02a3          	sb	s9,5(s8)
     474:	b7843c83          	ld	s9,-1160(s0)
     478:	080ccc93          	xori	s9,s9,128
     47c:	019c0323          	sb	s9,6(s8)
     480:	b2843c83          	ld	s9,-1240(s0)
     484:	080ccc93          	xori	s9,s9,128
     488:	019c03a3          	sb	s9,7(s8)
     48c:	ae043c83          	ld	s9,-1312(s0)
     490:	080ccc93          	xori	s9,s9,128
     494:	019c0423          	sb	s9,8(s8)
     498:	aa043c83          	ld	s9,-1376(s0)
     49c:	080ccc93          	xori	s9,s9,128
     4a0:	019c04a3          	sb	s9,9(s8)
     4a4:	a5843c83          	ld	s9,-1448(s0)
     4a8:	080ccc93          	xori	s9,s9,128
     4ac:	019c0523          	sb	s9,10(s8)
     4b0:	a1843c83          	ld	s9,-1512(s0)
     4b4:	080ccc93          	xori	s9,s9,128
     4b8:	019c05a3          	sb	s9,11(s8)
     4bc:	9d843c83          	ld	s9,-1576(s0)
     4c0:	080ccc93          	xori	s9,s9,128
     4c4:	019c0623          	sb	s9,12(s8)
     4c8:	99043c83          	ld	s9,-1648(s0)
     4cc:	080ccc93          	xori	s9,s9,128
     4d0:	019c06a3          	sb	s9,13(s8)
     4d4:	95043c83          	ld	s9,-1712(s0)
     4d8:	080ccc93          	xori	s9,s9,128
     4dc:	019c0723          	sb	s9,14(s8)
     4e0:	91843c83          	ld	s9,-1768(s0)
     4e4:	080ccc93          	xori	s9,s9,128
     4e8:	019c07a3          	sb	s9,15(s8)
     4ec:	8d043c83          	ld	s9,-1840(s0)
     4f0:	080ccc93          	xori	s9,s9,128
     4f4:	019c0823          	sb	s9,16(s8)
     4f8:	89043c83          	ld	s9,-1904(s0)
     4fc:	080ccc93          	xori	s9,s9,128
     500:	019c08a3          	sb	s9,17(s8)
     504:	85043c83          	ld	s9,-1968(s0)
     508:	080ccc93          	xori	s9,s9,128
     50c:	019c0923          	sb	s9,18(s8)
     510:	80843c83          	ld	s9,-2040(s0)
     514:	080ccc93          	xori	s9,s9,128
     518:	019c09a3          	sb	s9,19(s8)
     51c:	00001cb7          	lui	s9,0x1
     520:	41940cb3          	sub	s9,s0,s9
     524:	7d8cbc83          	ld	s9,2008(s9) # 17d8 <.LBB96_5+0x50>
     528:	080ccc93          	xori	s9,s9,128
     52c:	019c0a23          	sb	s9,20(s8)
     530:	00001cb7          	lui	s9,0x1
     534:	41940cb3          	sub	s9,s0,s9
     538:	798cbc83          	ld	s9,1944(s9) # 1798 <.LBB96_5+0x10>
     53c:	080ccc93          	xori	s9,s9,128
     540:	019c0aa3          	sb	s9,21(s8)
     544:	00001cb7          	lui	s9,0x1
     548:	41940cb3          	sub	s9,s0,s9
     54c:	770cbc83          	ld	s9,1904(s9) # 1770 <.LBB96_4+0x590>
     550:	080ccc93          	xori	s9,s9,128
     554:	019c0b23          	sb	s9,22(s8)
     558:	00001cb7          	lui	s9,0x1
     55c:	41940cb3          	sub	s9,s0,s9
     560:	768cbc83          	ld	s9,1896(s9) # 1768 <.LBB96_4+0x588>
     564:	080ccc93          	xori	s9,s9,128
     568:	019c0ba3          	sb	s9,23(s8)
     56c:	00001cb7          	lui	s9,0x1
     570:	41940cb3          	sub	s9,s0,s9
     574:	760cbc83          	ld	s9,1888(s9) # 1760 <.LBB96_4+0x580>
     578:	080ccc93          	xori	s9,s9,128
     57c:	019c0c23          	sb	s9,24(s8)
     580:	00001cb7          	lui	s9,0x1
     584:	41940cb3          	sub	s9,s0,s9
     588:	758cbc83          	ld	s9,1880(s9) # 1758 <.LBB96_4+0x578>
     58c:	080ccc93          	xori	s9,s9,128
     590:	019c0ca3          	sb	s9,25(s8)
     594:	00001cb7          	lui	s9,0x1
     598:	41940cb3          	sub	s9,s0,s9
     59c:	750cbc83          	ld	s9,1872(s9) # 1750 <.LBB96_4+0x570>
     5a0:	080ccc93          	xori	s9,s9,128
     5a4:	019c0d23          	sb	s9,26(s8)
     5a8:	00001cb7          	lui	s9,0x1
     5ac:	41940cb3          	sub	s9,s0,s9
     5b0:	748cbc83          	ld	s9,1864(s9) # 1748 <.LBB96_4+0x568>
     5b4:	080ccc93          	xori	s9,s9,128
     5b8:	019c0da3          	sb	s9,27(s8)
     5bc:	00001cb7          	lui	s9,0x1
     5c0:	41940cb3          	sub	s9,s0,s9
     5c4:	740cbc83          	ld	s9,1856(s9) # 1740 <.LBB96_4+0x560>
     5c8:	080ccc93          	xori	s9,s9,128
     5cc:	019c0e23          	sb	s9,28(s8)
     5d0:	00001cb7          	lui	s9,0x1
     5d4:	41940cb3          	sub	s9,s0,s9
     5d8:	738cbc83          	ld	s9,1848(s9) # 1738 <.LBB96_4+0x558>
     5dc:	080ccc93          	xori	s9,s9,128
     5e0:	019c0ea3          	sb	s9,29(s8)
     5e4:	00001cb7          	lui	s9,0x1
     5e8:	41940cb3          	sub	s9,s0,s9
     5ec:	730cbc83          	ld	s9,1840(s9) # 1730 <.LBB96_4+0x550>
     5f0:	080ccc93          	xori	s9,s9,128
     5f4:	019c0f23          	sb	s9,30(s8)
     5f8:	00001cb7          	lui	s9,0x1
     5fc:	41940cb3          	sub	s9,s0,s9
     600:	728cbc83          	ld	s9,1832(s9) # 1728 <.LBB96_4+0x548>
     604:	080ccc93          	xori	s9,s9,128
     608:	019c0fa3          	sb	s9,31(s8)
     60c:	00001c37          	lui	s8,0x1
     610:	41840c33          	sub	s8,s0,s8
     614:	720c3c03          	ld	s8,1824(s8) # 1720 <.LBB96_4+0x540>
     618:	080c4c93          	xori	s9,s8,128
     61c:	00001c37          	lui	s8,0x1
     620:	41840c33          	sub	s8,s0,s8
     624:	d48c3c03          	ld	s8,-696(s8) # d48 <.LBB96_3+0xac4>
     628:	01ac0c33          	add	s8,s8,s10
     62c:	019c01a3          	sb	s9,3(s8)
     630:	00001cb7          	lui	s9,0x1
     634:	41940cb3          	sub	s9,s0,s9
     638:	718cbc83          	ld	s9,1816(s9) # 1718 <.LBB96_4+0x538>
     63c:	080ccc93          	xori	s9,s9,128
     640:	019c0123          	sb	s9,2(s8)
     644:	00001cb7          	lui	s9,0x1
     648:	41940cb3          	sub	s9,s0,s9
     64c:	710cbc83          	ld	s9,1808(s9) # 1710 <.LBB96_4+0x530>
     650:	080ccc93          	xori	s9,s9,128
     654:	019c00a3          	sb	s9,1(s8)
     658:	00001cb7          	lui	s9,0x1
     65c:	41940cb3          	sub	s9,s0,s9
     660:	708cbc83          	ld	s9,1800(s9) # 1708 <.LBB96_4+0x528>
     664:	080ccc93          	xori	s9,s9,128
     668:	019c0023          	sb	s9,0(s8)
     66c:	00001cb7          	lui	s9,0x1
     670:	41940cb3          	sub	s9,s0,s9
     674:	700cbc83          	ld	s9,1792(s9) # 1700 <.LBB96_4+0x520>
     678:	080ccc93          	xori	s9,s9,128
     67c:	019c0223          	sb	s9,4(s8)
     680:	00001cb7          	lui	s9,0x1
     684:	41940cb3          	sub	s9,s0,s9
     688:	6f8cbc83          	ld	s9,1784(s9) # 16f8 <.LBB96_4+0x518>
     68c:	080ccc93          	xori	s9,s9,128
     690:	019c02a3          	sb	s9,5(s8)
     694:	00001cb7          	lui	s9,0x1
     698:	41940cb3          	sub	s9,s0,s9
     69c:	6e8cbc83          	ld	s9,1768(s9) # 16e8 <.LBB96_4+0x508>
     6a0:	080ccc93          	xori	s9,s9,128
     6a4:	019c0323          	sb	s9,6(s8)
     6a8:	00001cb7          	lui	s9,0x1
     6ac:	41940cb3          	sub	s9,s0,s9
     6b0:	6e0cbc83          	ld	s9,1760(s9) # 16e0 <.LBB96_4+0x500>
     6b4:	080ccc93          	xori	s9,s9,128
     6b8:	019c03a3          	sb	s9,7(s8)
     6bc:	00001cb7          	lui	s9,0x1
     6c0:	41940cb3          	sub	s9,s0,s9
     6c4:	6d8cbc83          	ld	s9,1752(s9) # 16d8 <.LBB96_4+0x4f8>
     6c8:	080ccc93          	xori	s9,s9,128
     6cc:	019c0423          	sb	s9,8(s8)
     6d0:	00001cb7          	lui	s9,0x1
     6d4:	41940cb3          	sub	s9,s0,s9
     6d8:	6d0cbc83          	ld	s9,1744(s9) # 16d0 <.LBB96_4+0x4f0>
     6dc:	080ccc93          	xori	s9,s9,128
     6e0:	019c04a3          	sb	s9,9(s8)
     6e4:	00001cb7          	lui	s9,0x1
     6e8:	41940cb3          	sub	s9,s0,s9
     6ec:	6c8cbc83          	ld	s9,1736(s9) # 16c8 <.LBB96_4+0x4e8>
     6f0:	080ccc93          	xori	s9,s9,128
     6f4:	019c0523          	sb	s9,10(s8)
     6f8:	00001cb7          	lui	s9,0x1
     6fc:	41940cb3          	sub	s9,s0,s9
     700:	6c0cbc83          	ld	s9,1728(s9) # 16c0 <.LBB96_4+0x4e0>
     704:	080ccc93          	xori	s9,s9,128
     708:	019c05a3          	sb	s9,11(s8)
     70c:	00001cb7          	lui	s9,0x1
     710:	41940cb3          	sub	s9,s0,s9
     714:	6b8cbc83          	ld	s9,1720(s9) # 16b8 <.LBB96_4+0x4d8>
     718:	080ccc93          	xori	s9,s9,128
     71c:	019c0623          	sb	s9,12(s8)
     720:	00001cb7          	lui	s9,0x1
     724:	41940cb3          	sub	s9,s0,s9
     728:	6b0cbc83          	ld	s9,1712(s9) # 16b0 <.LBB96_4+0x4d0>
     72c:	080ccc93          	xori	s9,s9,128
     730:	019c06a3          	sb	s9,13(s8)
     734:	00001cb7          	lui	s9,0x1
     738:	41940cb3          	sub	s9,s0,s9
     73c:	6a8cbc83          	ld	s9,1704(s9) # 16a8 <.LBB96_4+0x4c8>
     740:	080ccc93          	xori	s9,s9,128
     744:	019c0723          	sb	s9,14(s8)
     748:	00001cb7          	lui	s9,0x1
     74c:	41940cb3          	sub	s9,s0,s9
     750:	6a0cbc83          	ld	s9,1696(s9) # 16a0 <.LBB96_4+0x4c0>
     754:	080ccc93          	xori	s9,s9,128
     758:	019c07a3          	sb	s9,15(s8)
     75c:	00001cb7          	lui	s9,0x1
     760:	41940cb3          	sub	s9,s0,s9
     764:	698cbc83          	ld	s9,1688(s9) # 1698 <.LBB96_4+0x4b8>
     768:	080ccc93          	xori	s9,s9,128
     76c:	019c0823          	sb	s9,16(s8)
     770:	00001cb7          	lui	s9,0x1
     774:	41940cb3          	sub	s9,s0,s9
     778:	690cbc83          	ld	s9,1680(s9) # 1690 <.LBB96_4+0x4b0>
     77c:	080ccc93          	xori	s9,s9,128
     780:	019c08a3          	sb	s9,17(s8)
     784:	00001cb7          	lui	s9,0x1
     788:	41940cb3          	sub	s9,s0,s9
     78c:	688cbc83          	ld	s9,1672(s9) # 1688 <.LBB96_4+0x4a8>
     790:	080ccc93          	xori	s9,s9,128
     794:	019c0923          	sb	s9,18(s8)
     798:	00001cb7          	lui	s9,0x1
     79c:	41940cb3          	sub	s9,s0,s9
     7a0:	680cbc83          	ld	s9,1664(s9) # 1680 <.LBB96_4+0x4a0>
     7a4:	080ccc93          	xori	s9,s9,128
     7a8:	019c09a3          	sb	s9,19(s8)
     7ac:	00001cb7          	lui	s9,0x1
     7b0:	41940cb3          	sub	s9,s0,s9
     7b4:	678cbc83          	ld	s9,1656(s9) # 1678 <.LBB96_4+0x498>
     7b8:	080ccc93          	xori	s9,s9,128
     7bc:	019c0a23          	sb	s9,20(s8)
     7c0:	00001cb7          	lui	s9,0x1
     7c4:	41940cb3          	sub	s9,s0,s9
     7c8:	2c0cbc83          	ld	s9,704(s9) # 12c0 <.LBB96_4+0xe0>
     7cc:	080ccc93          	xori	s9,s9,128
     7d0:	019c0aa3          	sb	s9,21(s8)
     7d4:	00001cb7          	lui	s9,0x1
     7d8:	41940cb3          	sub	s9,s0,s9
     7dc:	2d0cbc83          	ld	s9,720(s9) # 12d0 <.LBB96_4+0xf0>
     7e0:	080ccc93          	xori	s9,s9,128
     7e4:	019c0b23          	sb	s9,22(s8)
     7e8:	00001cb7          	lui	s9,0x1
     7ec:	41940cb3          	sub	s9,s0,s9
     7f0:	2e0cbc83          	ld	s9,736(s9) # 12e0 <.LBB96_4+0x100>
     7f4:	080ccc93          	xori	s9,s9,128
     7f8:	019c0ba3          	sb	s9,23(s8)
     7fc:	00001cb7          	lui	s9,0x1
     800:	41940cb3          	sub	s9,s0,s9
     804:	2f0cbc83          	ld	s9,752(s9) # 12f0 <.LBB96_4+0x110>
     808:	080ccc93          	xori	s9,s9,128
     80c:	019c0c23          	sb	s9,24(s8)
     810:	00001cb7          	lui	s9,0x1
     814:	41940cb3          	sub	s9,s0,s9
     818:	300cbc83          	ld	s9,768(s9) # 1300 <.LBB96_4+0x120>
     81c:	080ccc93          	xori	s9,s9,128
     820:	019c0ca3          	sb	s9,25(s8)
     824:	00001cb7          	lui	s9,0x1
     828:	41940cb3          	sub	s9,s0,s9
     82c:	310cbc83          	ld	s9,784(s9) # 1310 <.LBB96_4+0x130>
     830:	080ccc93          	xori	s9,s9,128
     834:	019c0d23          	sb	s9,26(s8)
     838:	00001cb7          	lui	s9,0x1
     83c:	41940cb3          	sub	s9,s0,s9
     840:	320cbc83          	ld	s9,800(s9) # 1320 <.LBB96_4+0x140>
     844:	080ccc93          	xori	s9,s9,128
     848:	019c0da3          	sb	s9,27(s8)
     84c:	00001cb7          	lui	s9,0x1
     850:	41940cb3          	sub	s9,s0,s9
     854:	330cbc83          	ld	s9,816(s9) # 1330 <.LBB96_4+0x150>
     858:	080ccc93          	xori	s9,s9,128
     85c:	019c0e23          	sb	s9,28(s8)
     860:	00001cb7          	lui	s9,0x1
     864:	41940cb3          	sub	s9,s0,s9
     868:	340cbc83          	ld	s9,832(s9) # 1340 <.LBB96_4+0x160>
     86c:	080ccc93          	xori	s9,s9,128
     870:	019c0ea3          	sb	s9,29(s8)
     874:	00001cb7          	lui	s9,0x1
     878:	41940cb3          	sub	s9,s0,s9
     87c:	350cbc83          	ld	s9,848(s9) # 1350 <.LBB96_4+0x170>
     880:	080ccc93          	xori	s9,s9,128
     884:	019c0f23          	sb	s9,30(s8)
     888:	00001cb7          	lui	s9,0x1
     88c:	41940cb3          	sub	s9,s0,s9
     890:	360cbc83          	ld	s9,864(s9) # 1360 <.LBB96_4+0x180>
     894:	080ccc93          	xori	s9,s9,128
     898:	019c0fa3          	sb	s9,31(s8)
     89c:	00001c37          	lui	s8,0x1
     8a0:	41840c33          	sub	s8,s0,s8
     8a4:	370c3c03          	ld	s8,880(s8) # 1370 <.LBB96_4+0x190>
     8a8:	080c4c93          	xori	s9,s8,128
     8ac:	00001c37          	lui	s8,0x1
     8b0:	41840c33          	sub	s8,s0,s8
     8b4:	d40c3c03          	ld	s8,-704(s8) # d40 <.LBB96_3+0xabc>
     8b8:	01ac0c33          	add	s8,s8,s10
     8bc:	019c01a3          	sb	s9,3(s8)
     8c0:	00001cb7          	lui	s9,0x1
     8c4:	41940cb3          	sub	s9,s0,s9
     8c8:	380cbc83          	ld	s9,896(s9) # 1380 <.LBB96_4+0x1a0>
     8cc:	080ccc93          	xori	s9,s9,128
     8d0:	019c0123          	sb	s9,2(s8)
     8d4:	00001cb7          	lui	s9,0x1
     8d8:	41940cb3          	sub	s9,s0,s9
     8dc:	390cbc83          	ld	s9,912(s9) # 1390 <.LBB96_4+0x1b0>
     8e0:	080ccc93          	xori	s9,s9,128
     8e4:	019c00a3          	sb	s9,1(s8)
     8e8:	00001cb7          	lui	s9,0x1
     8ec:	41940cb3          	sub	s9,s0,s9
     8f0:	3a0cbc83          	ld	s9,928(s9) # 13a0 <.LBB96_4+0x1c0>
     8f4:	080ccc93          	xori	s9,s9,128
     8f8:	019c0023          	sb	s9,0(s8)
     8fc:	00001cb7          	lui	s9,0x1
     900:	41940cb3          	sub	s9,s0,s9
     904:	3b0cbc83          	ld	s9,944(s9) # 13b0 <.LBB96_4+0x1d0>
     908:	080ccc93          	xori	s9,s9,128
     90c:	019c0223          	sb	s9,4(s8)
     910:	00001cb7          	lui	s9,0x1
     914:	41940cb3          	sub	s9,s0,s9
     918:	3c0cbc83          	ld	s9,960(s9) # 13c0 <.LBB96_4+0x1e0>
     91c:	080ccc93          	xori	s9,s9,128
     920:	019c02a3          	sb	s9,5(s8)
     924:	00001cb7          	lui	s9,0x1
     928:	41940cb3          	sub	s9,s0,s9
     92c:	3d0cbc83          	ld	s9,976(s9) # 13d0 <.LBB96_4+0x1f0>
     930:	080ccc93          	xori	s9,s9,128
     934:	019c0323          	sb	s9,6(s8)
     938:	00001cb7          	lui	s9,0x1
     93c:	41940cb3          	sub	s9,s0,s9
     940:	3e0cbc83          	ld	s9,992(s9) # 13e0 <.LBB96_4+0x200>
     944:	080ccc93          	xori	s9,s9,128
     948:	019c03a3          	sb	s9,7(s8)
     94c:	00001cb7          	lui	s9,0x1
     950:	41940cb3          	sub	s9,s0,s9
     954:	3f0cbc83          	ld	s9,1008(s9) # 13f0 <.LBB96_4+0x210>
     958:	080ccc93          	xori	s9,s9,128
     95c:	019c0423          	sb	s9,8(s8)
     960:	00001cb7          	lui	s9,0x1
     964:	41940cb3          	sub	s9,s0,s9
     968:	400cbc83          	ld	s9,1024(s9) # 1400 <.LBB96_4+0x220>
     96c:	080ccc93          	xori	s9,s9,128
     970:	019c04a3          	sb	s9,9(s8)
     974:	00001cb7          	lui	s9,0x1
     978:	41940cb3          	sub	s9,s0,s9
     97c:	410cbc83          	ld	s9,1040(s9) # 1410 <.LBB96_4+0x230>
     980:	080ccc93          	xori	s9,s9,128
     984:	019c0523          	sb	s9,10(s8)
     988:	00001cb7          	lui	s9,0x1
     98c:	41940cb3          	sub	s9,s0,s9
     990:	420cbc83          	ld	s9,1056(s9) # 1420 <.LBB96_4+0x240>
     994:	080ccc93          	xori	s9,s9,128
     998:	019c05a3          	sb	s9,11(s8)
     99c:	00001cb7          	lui	s9,0x1
     9a0:	41940cb3          	sub	s9,s0,s9
     9a4:	430cbc83          	ld	s9,1072(s9) # 1430 <.LBB96_4+0x250>
     9a8:	080ccc93          	xori	s9,s9,128
     9ac:	019c0623          	sb	s9,12(s8)
     9b0:	00001cb7          	lui	s9,0x1
     9b4:	41940cb3          	sub	s9,s0,s9
     9b8:	440cbc83          	ld	s9,1088(s9) # 1440 <.LBB96_4+0x260>
     9bc:	080ccc93          	xori	s9,s9,128
     9c0:	019c06a3          	sb	s9,13(s8)
     9c4:	00001cb7          	lui	s9,0x1
     9c8:	41940cb3          	sub	s9,s0,s9
     9cc:	450cbc83          	ld	s9,1104(s9) # 1450 <.LBB96_4+0x270>
     9d0:	080ccc93          	xori	s9,s9,128
     9d4:	019c0723          	sb	s9,14(s8)
     9d8:	00001cb7          	lui	s9,0x1
     9dc:	41940cb3          	sub	s9,s0,s9
     9e0:	460cbc83          	ld	s9,1120(s9) # 1460 <.LBB96_4+0x280>
     9e4:	080ccc93          	xori	s9,s9,128
     9e8:	019c07a3          	sb	s9,15(s8)
     9ec:	00001cb7          	lui	s9,0x1
     9f0:	41940cb3          	sub	s9,s0,s9
     9f4:	470cbc83          	ld	s9,1136(s9) # 1470 <.LBB96_4+0x290>
     9f8:	080ccc93          	xori	s9,s9,128
     9fc:	019c0823          	sb	s9,16(s8)
     a00:	00001cb7          	lui	s9,0x1
     a04:	41940cb3          	sub	s9,s0,s9
     a08:	480cbc83          	ld	s9,1152(s9) # 1480 <.LBB96_4+0x2a0>
     a0c:	080ccc93          	xori	s9,s9,128
     a10:	019c08a3          	sb	s9,17(s8)
     a14:	00001cb7          	lui	s9,0x1
     a18:	41940cb3          	sub	s9,s0,s9
     a1c:	490cbc83          	ld	s9,1168(s9) # 1490 <.LBB96_4+0x2b0>
     a20:	080ccc93          	xori	s9,s9,128
     a24:	019c0923          	sb	s9,18(s8)
     a28:	00001cb7          	lui	s9,0x1
     a2c:	41940cb3          	sub	s9,s0,s9
     a30:	4a0cbc83          	ld	s9,1184(s9) # 14a0 <.LBB96_4+0x2c0>
     a34:	080ccc93          	xori	s9,s9,128
     a38:	019c09a3          	sb	s9,19(s8)
     a3c:	00001cb7          	lui	s9,0x1
     a40:	41940cb3          	sub	s9,s0,s9
     a44:	4b0cbc83          	ld	s9,1200(s9) # 14b0 <.LBB96_4+0x2d0>
     a48:	080ccc93          	xori	s9,s9,128
     a4c:	019c0a23          	sb	s9,20(s8)
     a50:	00001cb7          	lui	s9,0x1
     a54:	41940cb3          	sub	s9,s0,s9
     a58:	4c0cbc83          	ld	s9,1216(s9) # 14c0 <.LBB96_4+0x2e0>
     a5c:	080ccc93          	xori	s9,s9,128
     a60:	019c0aa3          	sb	s9,21(s8)
     a64:	00001cb7          	lui	s9,0x1
     a68:	41940cb3          	sub	s9,s0,s9
     a6c:	4d0cbc83          	ld	s9,1232(s9) # 14d0 <.LBB96_4+0x2f0>
     a70:	080ccc93          	xori	s9,s9,128
     a74:	019c0b23          	sb	s9,22(s8)
     a78:	00001cb7          	lui	s9,0x1
     a7c:	41940cb3          	sub	s9,s0,s9
     a80:	4e0cbc83          	ld	s9,1248(s9) # 14e0 <.LBB96_4+0x300>
     a84:	080ccc93          	xori	s9,s9,128
     a88:	019c0ba3          	sb	s9,23(s8)
     a8c:	00001cb7          	lui	s9,0x1
     a90:	41940cb3          	sub	s9,s0,s9
     a94:	4f0cbc83          	ld	s9,1264(s9) # 14f0 <.LBB96_4+0x310>
     a98:	080ccc93          	xori	s9,s9,128
     a9c:	019c0c23          	sb	s9,24(s8)
     aa0:	00001cb7          	lui	s9,0x1
     aa4:	41940cb3          	sub	s9,s0,s9
     aa8:	500cbc83          	ld	s9,1280(s9) # 1500 <.LBB96_4+0x320>
     aac:	080ccc93          	xori	s9,s9,128
     ab0:	019c0ca3          	sb	s9,25(s8)
     ab4:	00001cb7          	lui	s9,0x1
     ab8:	41940cb3          	sub	s9,s0,s9
     abc:	510cbc83          	ld	s9,1296(s9) # 1510 <.LBB96_4+0x330>
     ac0:	080ccc93          	xori	s9,s9,128
     ac4:	019c0d23          	sb	s9,26(s8)
     ac8:	00001cb7          	lui	s9,0x1
     acc:	41940cb3          	sub	s9,s0,s9
     ad0:	520cbc83          	ld	s9,1312(s9) # 1520 <.LBB96_4+0x340>
     ad4:	080ccc93          	xori	s9,s9,128
     ad8:	019c0da3          	sb	s9,27(s8)
     adc:	00001cb7          	lui	s9,0x1
     ae0:	41940cb3          	sub	s9,s0,s9
     ae4:	530cbc83          	ld	s9,1328(s9) # 1530 <.LBB96_4+0x350>
     ae8:	080ccc93          	xori	s9,s9,128
     aec:	019c0e23          	sb	s9,28(s8)
     af0:	00001cb7          	lui	s9,0x1
     af4:	41940cb3          	sub	s9,s0,s9
     af8:	540cbc83          	ld	s9,1344(s9) # 1540 <.LBB96_4+0x360>
     afc:	080ccc93          	xori	s9,s9,128
     b00:	019c0ea3          	sb	s9,29(s8)
     b04:	00001cb7          	lui	s9,0x1
     b08:	41940cb3          	sub	s9,s0,s9
     b0c:	550cbc83          	ld	s9,1360(s9) # 1550 <.LBB96_4+0x370>
     b10:	080ccc93          	xori	s9,s9,128
     b14:	019c0f23          	sb	s9,30(s8)
     b18:	00001cb7          	lui	s9,0x1
     b1c:	41940cb3          	sub	s9,s0,s9
     b20:	560cbc83          	ld	s9,1376(s9) # 1560 <.LBB96_4+0x380>
     b24:	080ccc93          	xori	s9,s9,128
     b28:	019c0fa3          	sb	s9,31(s8)
     b2c:	00001c37          	lui	s8,0x1
     b30:	41840c33          	sub	s8,s0,s8
     b34:	570c3c03          	ld	s8,1392(s8) # 1570 <.LBB96_4+0x390>
     b38:	080c4c93          	xori	s9,s8,128
     b3c:	00001c37          	lui	s8,0x1
     b40:	41840c33          	sub	s8,s0,s8
     b44:	d38c3c03          	ld	s8,-712(s8) # d38 <.LBB96_3+0xab4>
     b48:	01ac0c33          	add	s8,s8,s10
     b4c:	019c01a3          	sb	s9,3(s8)
     b50:	00001cb7          	lui	s9,0x1
     b54:	41940cb3          	sub	s9,s0,s9
     b58:	580cbc83          	ld	s9,1408(s9) # 1580 <.LBB96_4+0x3a0>
     b5c:	080ccc93          	xori	s9,s9,128
     b60:	019c0123          	sb	s9,2(s8)
     b64:	00001cb7          	lui	s9,0x1
     b68:	41940cb3          	sub	s9,s0,s9
     b6c:	590cbc83          	ld	s9,1424(s9) # 1590 <.LBB96_4+0x3b0>
     b70:	080ccc93          	xori	s9,s9,128
     b74:	019c00a3          	sb	s9,1(s8)
     b78:	00001cb7          	lui	s9,0x1
     b7c:	41940cb3          	sub	s9,s0,s9
     b80:	5a0cbc83          	ld	s9,1440(s9) # 15a0 <.LBB96_4+0x3c0>
     b84:	080ccc93          	xori	s9,s9,128
     b88:	019c0023          	sb	s9,0(s8)
     b8c:	00001cb7          	lui	s9,0x1
     b90:	41940cb3          	sub	s9,s0,s9
     b94:	5b0cbc83          	ld	s9,1456(s9) # 15b0 <.LBB96_4+0x3d0>
     b98:	080ccc93          	xori	s9,s9,128
     b9c:	019c0223          	sb	s9,4(s8)
     ba0:	00001cb7          	lui	s9,0x1
     ba4:	41940cb3          	sub	s9,s0,s9
     ba8:	5c0cbc83          	ld	s9,1472(s9) # 15c0 <.LBB96_4+0x3e0>
     bac:	080ccc93          	xori	s9,s9,128
     bb0:	019c02a3          	sb	s9,5(s8)
     bb4:	00001cb7          	lui	s9,0x1
     bb8:	41940cb3          	sub	s9,s0,s9
     bbc:	5d0cbc83          	ld	s9,1488(s9) # 15d0 <.LBB96_4+0x3f0>
     bc0:	080ccc93          	xori	s9,s9,128
     bc4:	019c0323          	sb	s9,6(s8)
     bc8:	00001cb7          	lui	s9,0x1
     bcc:	41940cb3          	sub	s9,s0,s9
     bd0:	5e0cbc83          	ld	s9,1504(s9) # 15e0 <.LBB96_4+0x400>
     bd4:	080ccc93          	xori	s9,s9,128
     bd8:	019c03a3          	sb	s9,7(s8)
     bdc:	00001cb7          	lui	s9,0x1
     be0:	41940cb3          	sub	s9,s0,s9
     be4:	5f0cbc83          	ld	s9,1520(s9) # 15f0 <.LBB96_4+0x410>
     be8:	080ccc93          	xori	s9,s9,128
     bec:	019c0423          	sb	s9,8(s8)
     bf0:	00001cb7          	lui	s9,0x1
     bf4:	41940cb3          	sub	s9,s0,s9
     bf8:	600cbc83          	ld	s9,1536(s9) # 1600 <.LBB96_4+0x420>
     bfc:	080ccc93          	xori	s9,s9,128
     c00:	019c04a3          	sb	s9,9(s8)
     c04:	00001cb7          	lui	s9,0x1
     c08:	41940cb3          	sub	s9,s0,s9
     c0c:	610cbc83          	ld	s9,1552(s9) # 1610 <.LBB96_4+0x430>
     c10:	080ccc93          	xori	s9,s9,128
     c14:	019c0523          	sb	s9,10(s8)
     c18:	00001cb7          	lui	s9,0x1
     c1c:	41940cb3          	sub	s9,s0,s9
     c20:	620cbc83          	ld	s9,1568(s9) # 1620 <.LBB96_4+0x440>
     c24:	080ccc93          	xori	s9,s9,128
     c28:	019c05a3          	sb	s9,11(s8)
     c2c:	00001cb7          	lui	s9,0x1
     c30:	41940cb3          	sub	s9,s0,s9
     c34:	630cbc83          	ld	s9,1584(s9) # 1630 <.LBB96_4+0x450>
     c38:	080ccc93          	xori	s9,s9,128
     c3c:	019c0623          	sb	s9,12(s8)
     c40:	00001cb7          	lui	s9,0x1
     c44:	41940cb3          	sub	s9,s0,s9
     c48:	640cbc83          	ld	s9,1600(s9) # 1640 <.LBB96_4+0x460>
     c4c:	080ccc93          	xori	s9,s9,128
     c50:	019c06a3          	sb	s9,13(s8)
     c54:	00001cb7          	lui	s9,0x1
     c58:	41940cb3          	sub	s9,s0,s9
     c5c:	670cbc83          	ld	s9,1648(s9) # 1670 <.LBB96_4+0x490>
     c60:	080ccc93          	xori	s9,s9,128
     c64:	019c0723          	sb	s9,14(s8)
     c68:	00001cb7          	lui	s9,0x1
     c6c:	41940cb3          	sub	s9,s0,s9
     c70:	778cbc83          	ld	s9,1912(s9) # 1778 <.LBB96_4+0x598>
     c74:	080ccc93          	xori	s9,s9,128
     c78:	019c07a3          	sb	s9,15(s8)
     c7c:	b0843c83          	ld	s9,-1272(s0)
     c80:	080ccc93          	xori	s9,s9,128
     c84:	019c0823          	sb	s9,16(s8)
     c88:	00001cb7          	lui	s9,0x1
     c8c:	41940cb3          	sub	s9,s0,s9
     c90:	790cbc83          	ld	s9,1936(s9) # 1790 <.LBB96_5+0x8>
     c94:	080ccc93          	xori	s9,s9,128
     c98:	019c08a3          	sb	s9,17(s8)
     c9c:	00001cb7          	lui	s9,0x1
     ca0:	41940cb3          	sub	s9,s0,s9
     ca4:	7a8cbc83          	ld	s9,1960(s9) # 17a8 <.LBB96_5+0x20>
     ca8:	080ccc93          	xori	s9,s9,128
     cac:	019c0923          	sb	s9,18(s8)
     cb0:	00001cb7          	lui	s9,0x1
     cb4:	41940cb3          	sub	s9,s0,s9
     cb8:	7b8cbc83          	ld	s9,1976(s9) # 17b8 <.LBB96_5+0x30>
     cbc:	080ccc93          	xori	s9,s9,128
     cc0:	019c09a3          	sb	s9,19(s8)
     cc4:	00001cb7          	lui	s9,0x1
     cc8:	41940cb3          	sub	s9,s0,s9
     ccc:	7c8cbc83          	ld	s9,1992(s9) # 17c8 <.LBB96_5+0x40>
     cd0:	080ccc93          	xori	s9,s9,128
     cd4:	019c0a23          	sb	s9,20(s8)
     cd8:	00001cb7          	lui	s9,0x1
     cdc:	41940cb3          	sub	s9,s0,s9
     ce0:	7e0cbc83          	ld	s9,2016(s9) # 17e0 <.LBB96_5+0x58>
     ce4:	080ccc93          	xori	s9,s9,128
     ce8:	019c0aa3          	sb	s9,21(s8)
     cec:	00001cb7          	lui	s9,0x1
     cf0:	41940cb3          	sub	s9,s0,s9
     cf4:	7e8cbc83          	ld	s9,2024(s9) # 17e8 <.LBB96_5+0x60>
     cf8:	080ccc93          	xori	s9,s9,128
     cfc:	019c0b23          	sb	s9,22(s8)
     d00:	b4043c83          	ld	s9,-1216(s0)
     d04:	080ccc93          	xori	s9,s9,128
     d08:	019c0ba3          	sb	s9,23(s8)
     d0c:	80043c83          	ld	s9,-2048(s0)
     d10:	080ccc93          	xori	s9,s9,128
     d14:	019c0c23          	sb	s9,24(s8)
     d18:	81843c83          	ld	s9,-2024(s0)
     d1c:	080ccc93          	xori	s9,s9,128
     d20:	019c0ca3          	sb	s9,25(s8)
     d24:	82843c83          	ld	s9,-2008(s0)
     d28:	080ccc93          	xori	s9,s9,128
     d2c:	019c0d23          	sb	s9,26(s8)
     d30:	83843c83          	ld	s9,-1992(s0)
     d34:	080ccc93          	xori	s9,s9,128
     d38:	019c0da3          	sb	s9,27(s8)
     d3c:	84843c83          	ld	s9,-1976(s0)
     d40:	080ccc93          	xori	s9,s9,128
     d44:	019c0e23          	sb	s9,28(s8)
     d48:	86043c83          	ld	s9,-1952(s0)
     d4c:	080ccc93          	xori	s9,s9,128
     d50:	019c0ea3          	sb	s9,29(s8)
     d54:	87043c83          	ld	s9,-1936(s0)
     d58:	080ccc93          	xori	s9,s9,128
     d5c:	019c0f23          	sb	s9,30(s8)
     d60:	88043c83          	ld	s9,-1920(s0)
     d64:	080ccc93          	xori	s9,s9,128
     d68:	019c0fa3          	sb	s9,31(s8)
     d6c:	89843c03          	ld	s8,-1896(s0)
     d70:	080c4c93          	xori	s9,s8,128
     d74:	00001c37          	lui	s8,0x1
     d78:	41840c33          	sub	s8,s0,s8
     d7c:	d30c3c03          	ld	s8,-720(s8) # d30 <.LBB96_3+0xaac>
     d80:	01ac0c33          	add	s8,s8,s10
     d84:	019c01a3          	sb	s9,3(s8)
     d88:	8a843c83          	ld	s9,-1880(s0)
     d8c:	080ccc93          	xori	s9,s9,128
     d90:	019c0123          	sb	s9,2(s8)
     d94:	8b843c83          	ld	s9,-1864(s0)
     d98:	080ccc93          	xori	s9,s9,128
     d9c:	019c00a3          	sb	s9,1(s8)
     da0:	8c843c83          	ld	s9,-1848(s0)
     da4:	080ccc93          	xori	s9,s9,128
     da8:	019c0023          	sb	s9,0(s8)
     dac:	8e043c83          	ld	s9,-1824(s0)
     db0:	080ccc93          	xori	s9,s9,128
     db4:	019c0223          	sb	s9,4(s8)
     db8:	8f043c83          	ld	s9,-1808(s0)
     dbc:	080ccc93          	xori	s9,s9,128
     dc0:	019c02a3          	sb	s9,5(s8)
     dc4:	90043c83          	ld	s9,-1792(s0)
     dc8:	080ccc93          	xori	s9,s9,128
     dcc:	019c0323          	sb	s9,6(s8)
     dd0:	91043c83          	ld	s9,-1776(s0)
     dd4:	080ccc93          	xori	s9,s9,128
     dd8:	019c03a3          	sb	s9,7(s8)
     ddc:	92843c83          	ld	s9,-1752(s0)
     de0:	080ccc93          	xori	s9,s9,128
     de4:	019c0423          	sb	s9,8(s8)
     de8:	bd043c83          	ld	s9,-1072(s0)
     dec:	080ccc93          	xori	s9,s9,128
     df0:	019c04a3          	sb	s9,9(s8)
     df4:	94043c83          	ld	s9,-1728(s0)
     df8:	080ccc93          	xori	s9,s9,128
     dfc:	019c0523          	sb	s9,10(s8)
     e00:	95843c83          	ld	s9,-1704(s0)
     e04:	080ccc93          	xori	s9,s9,128
     e08:	019c05a3          	sb	s9,11(s8)
     e0c:	96843c83          	ld	s9,-1688(s0)
     e10:	080ccc93          	xori	s9,s9,128
     e14:	019c0623          	sb	s9,12(s8)
     e18:	97843c83          	ld	s9,-1672(s0)
     e1c:	080ccc93          	xori	s9,s9,128
     e20:	019c06a3          	sb	s9,13(s8)
     e24:	98843c83          	ld	s9,-1656(s0)
     e28:	080ccc93          	xori	s9,s9,128
     e2c:	019c0723          	sb	s9,14(s8)
     e30:	9a043c83          	ld	s9,-1632(s0)
     e34:	080ccc93          	xori	s9,s9,128
     e38:	019c07a3          	sb	s9,15(s8)
     e3c:	9b043c83          	ld	s9,-1616(s0)
     e40:	080ccc93          	xori	s9,s9,128
     e44:	019c0823          	sb	s9,16(s8)
     e48:	9c043c83          	ld	s9,-1600(s0)
     e4c:	080ccc93          	xori	s9,s9,128
     e50:	019c08a3          	sb	s9,17(s8)
     e54:	9d043c83          	ld	s9,-1584(s0)
     e58:	080ccc93          	xori	s9,s9,128
     e5c:	019c0923          	sb	s9,18(s8)
     e60:	9e843c83          	ld	s9,-1560(s0)
     e64:	080ccc93          	xori	s9,s9,128
     e68:	019c09a3          	sb	s9,19(s8)
     e6c:	9f843c83          	ld	s9,-1544(s0)
     e70:	080ccc93          	xori	s9,s9,128
     e74:	019c0a23          	sb	s9,20(s8)
     e78:	a0843c83          	ld	s9,-1528(s0)
     e7c:	080ccc93          	xori	s9,s9,128
     e80:	019c0aa3          	sb	s9,21(s8)
     e84:	a2043c83          	ld	s9,-1504(s0)
     e88:	080ccc93          	xori	s9,s9,128
     e8c:	019c0b23          	sb	s9,22(s8)
     e90:	a3043c83          	ld	s9,-1488(s0)
     e94:	080ccc93          	xori	s9,s9,128
     e98:	019c0ba3          	sb	s9,23(s8)
     e9c:	a4043c83          	ld	s9,-1472(s0)
     ea0:	080ccc93          	xori	s9,s9,128
     ea4:	019c0c23          	sb	s9,24(s8)
     ea8:	a5043c83          	ld	s9,-1456(s0)
     eac:	080ccc93          	xori	s9,s9,128
     eb0:	019c0ca3          	sb	s9,25(s8)
     eb4:	a6843c83          	ld	s9,-1432(s0)
     eb8:	080ccc93          	xori	s9,s9,128
     ebc:	019c0d23          	sb	s9,26(s8)
     ec0:	a7843c83          	ld	s9,-1416(s0)
     ec4:	080ccc93          	xori	s9,s9,128
     ec8:	019c0da3          	sb	s9,27(s8)
     ecc:	a8843c83          	ld	s9,-1400(s0)
     ed0:	080ccc93          	xori	s9,s9,128
     ed4:	019c0e23          	sb	s9,28(s8)
     ed8:	a9843c83          	ld	s9,-1384(s0)
     edc:	080ccc93          	xori	s9,s9,128
     ee0:	019c0ea3          	sb	s9,29(s8)
     ee4:	ab043c83          	ld	s9,-1360(s0)
     ee8:	080ccc93          	xori	s9,s9,128
     eec:	019c0f23          	sb	s9,30(s8)
     ef0:	ac043c83          	ld	s9,-1344(s0)
     ef4:	080ccc93          	xori	s9,s9,128
     ef8:	019c0fa3          	sb	s9,31(s8)
     efc:	ad043c03          	ld	s8,-1328(s0)
     f00:	080c4c93          	xori	s9,s8,128
     f04:	00001c37          	lui	s8,0x1
     f08:	41840c33          	sub	s8,s0,s8
     f0c:	d28c3c03          	ld	s8,-728(s8) # d28 <.LBB96_3+0xaa4>
     f10:	01ac0c33          	add	s8,s8,s10
     f14:	019c01a3          	sb	s9,3(s8)
     f18:	ae843c83          	ld	s9,-1304(s0)
     f1c:	080ccc93          	xori	s9,s9,128
     f20:	019c0123          	sb	s9,2(s8)
     f24:	af843c83          	ld	s9,-1288(s0)
     f28:	080ccc93          	xori	s9,s9,128
     f2c:	019c00a3          	sb	s9,1(s8)
     f30:	b1043c83          	ld	s9,-1264(s0)
     f34:	080ccc93          	xori	s9,s9,128
     f38:	019c0023          	sb	s9,0(s8)
     f3c:	b2043c83          	ld	s9,-1248(s0)
     f40:	080ccc93          	xori	s9,s9,128
     f44:	019c0223          	sb	s9,4(s8)
     f48:	b3843c83          	ld	s9,-1224(s0)
     f4c:	080ccc93          	xori	s9,s9,128
     f50:	019c02a3          	sb	s9,5(s8)
     f54:	b5043c83          	ld	s9,-1200(s0)
     f58:	080ccc93          	xori	s9,s9,128
     f5c:	019c0323          	sb	s9,6(s8)
     f60:	b6043c83          	ld	s9,-1184(s0)
     f64:	080ccc93          	xori	s9,s9,128
     f68:	019c03a3          	sb	s9,7(s8)
     f6c:	b7043c83          	ld	s9,-1168(s0)
     f70:	080ccc93          	xori	s9,s9,128
     f74:	019c0423          	sb	s9,8(s8)
     f78:	b8843c83          	ld	s9,-1144(s0)
     f7c:	080ccc93          	xori	s9,s9,128
     f80:	019c04a3          	sb	s9,9(s8)
     f84:	b9843c83          	ld	s9,-1128(s0)
     f88:	080ccc93          	xori	s9,s9,128
     f8c:	019c0523          	sb	s9,10(s8)
     f90:	ba843c83          	ld	s9,-1112(s0)
     f94:	080ccc93          	xori	s9,s9,128
     f98:	019c05a3          	sb	s9,11(s8)
     f9c:	bc043c83          	ld	s9,-1088(s0)
     fa0:	080ccc93          	xori	s9,s9,128
     fa4:	019c0623          	sb	s9,12(s8)
     fa8:	bd843c83          	ld	s9,-1064(s0)
     fac:	080ccc93          	xori	s9,s9,128
     fb0:	019c06a3          	sb	s9,13(s8)
     fb4:	be843c83          	ld	s9,-1048(s0)
     fb8:	080ccc93          	xori	s9,s9,128
     fbc:	019c0723          	sb	s9,14(s8)
     fc0:	bf843c83          	ld	s9,-1032(s0)
     fc4:	080ccc93          	xori	s9,s9,128
     fc8:	019c07a3          	sb	s9,15(s8)
     fcc:	c0843c83          	ld	s9,-1016(s0)
     fd0:	080ccc93          	xori	s9,s9,128
     fd4:	019c0823          	sb	s9,16(s8)
     fd8:	c1843c83          	ld	s9,-1000(s0)
     fdc:	080ccc93          	xori	s9,s9,128
     fe0:	019c08a3          	sb	s9,17(s8)
     fe4:	c2843c83          	ld	s9,-984(s0)
     fe8:	080ccc93          	xori	s9,s9,128
     fec:	019c0923          	sb	s9,18(s8)
     ff0:	c3843c83          	ld	s9,-968(s0)
     ff4:	080ccc93          	xori	s9,s9,128
     ff8:	019c09a3          	sb	s9,19(s8)
     ffc:	c4843c83          	ld	s9,-952(s0)
    1000:	080ccc93          	xori	s9,s9,128
    1004:	019c0a23          	sb	s9,20(s8)
    1008:	c5843c83          	ld	s9,-936(s0)
    100c:	080ccc93          	xori	s9,s9,128
    1010:	019c0aa3          	sb	s9,21(s8)
    1014:	c6843c83          	ld	s9,-920(s0)
    1018:	080ccc93          	xori	s9,s9,128
    101c:	019c0b23          	sb	s9,22(s8)
    1020:	c7843c83          	ld	s9,-904(s0)
    1024:	080ccc93          	xori	s9,s9,128
    1028:	019c0ba3          	sb	s9,23(s8)
    102c:	c8843c83          	ld	s9,-888(s0)
    1030:	080ccc93          	xori	s9,s9,128
    1034:	019c0c23          	sb	s9,24(s8)
    1038:	c9843c83          	ld	s9,-872(s0)
    103c:	080ccc93          	xori	s9,s9,128
    1040:	019c0ca3          	sb	s9,25(s8)
    1044:	ca843c83          	ld	s9,-856(s0)
    1048:	080ccc93          	xori	s9,s9,128
    104c:	019c0d23          	sb	s9,26(s8)
    1050:	cb843c83          	ld	s9,-840(s0)
    1054:	080ccc93          	xori	s9,s9,128
    1058:	019c0da3          	sb	s9,27(s8)
    105c:	cc843c83          	ld	s9,-824(s0)
    1060:	080ccc93          	xori	s9,s9,128
    1064:	019c0e23          	sb	s9,28(s8)
    1068:	cd843c83          	ld	s9,-808(s0)
    106c:	080ccc93          	xori	s9,s9,128
    1070:	019c0ea3          	sb	s9,29(s8)
    1074:	ce843c83          	ld	s9,-792(s0)
    1078:	080ccc93          	xori	s9,s9,128
    107c:	019c0f23          	sb	s9,30(s8)
    1080:	cf843c83          	ld	s9,-776(s0)
    1084:	080ccc93          	xori	s9,s9,128
    1088:	019c0fa3          	sb	s9,31(s8)
    108c:	d0843c03          	ld	s8,-760(s0)
    1090:	080c4c93          	xori	s9,s8,128
    1094:	00001c37          	lui	s8,0x1
    1098:	41840c33          	sub	s8,s0,s8
    109c:	d20c3c03          	ld	s8,-736(s8) # d20 <.LBB96_3+0xa9c>
    10a0:	01ac0c33          	add	s8,s8,s10
    10a4:	019c01a3          	sb	s9,3(s8)
    10a8:	f8843c83          	ld	s9,-120(s0)
    10ac:	080ccc93          	xori	s9,s9,128
    10b0:	019c0123          	sb	s9,2(s8)
    10b4:	d2043c83          	ld	s9,-736(s0)
    10b8:	080ccc93          	xori	s9,s9,128
    10bc:	019c00a3          	sb	s9,1(s8)
    10c0:	d2843c83          	ld	s9,-728(s0)
    10c4:	080ccc93          	xori	s9,s9,128
    10c8:	019c0023          	sb	s9,0(s8)
    10cc:	d3043c83          	ld	s9,-720(s0)
    10d0:	080ccc93          	xori	s9,s9,128
    10d4:	019c0223          	sb	s9,4(s8)
    10d8:	d3843c83          	ld	s9,-712(s0)
    10dc:	080ccc93          	xori	s9,s9,128
    10e0:	019c02a3          	sb	s9,5(s8)
    10e4:	d4843c83          	ld	s9,-696(s0)
    10e8:	080ccc93          	xori	s9,s9,128
    10ec:	019c0323          	sb	s9,6(s8)
    10f0:	d5843c83          	ld	s9,-680(s0)
    10f4:	080ccc93          	xori	s9,s9,128
    10f8:	019c03a3          	sb	s9,7(s8)
    10fc:	d6843c83          	ld	s9,-664(s0)
    1100:	080ccc93          	xori	s9,s9,128
    1104:	019c0423          	sb	s9,8(s8)
    1108:	080dcc93          	xori	s9,s11,128
    110c:	019c04a3          	sb	s9,9(s8)
    1110:	08054513          	xori	a0,a0,128
    1114:	00ac0523          	sb	a0,10(s8)
    1118:	0805c513          	xori	a0,a1,128
    111c:	00ac05a3          	sb	a0,11(s8)
    1120:	08064513          	xori	a0,a2,128
    1124:	00ac0623          	sb	a0,12(s8)
    1128:	0806c513          	xori	a0,a3,128
    112c:	00ac06a3          	sb	a0,13(s8)
    1130:	08074513          	xori	a0,a4,128
    1134:	00ac0723          	sb	a0,14(s8)
    1138:	0807c513          	xori	a0,a5,128
    113c:	00ac07a3          	sb	a0,15(s8)
    1140:	08084513          	xori	a0,a6,128
    1144:	00ac0823          	sb	a0,16(s8)
    1148:	0808c513          	xori	a0,a7,128
    114c:	00ac08a3          	sb	a0,17(s8)
    1150:	0802c513          	xori	a0,t0,128
    1154:	00ac0923          	sb	a0,18(s8)
    1158:	08034513          	xori	a0,t1,128
    115c:	00ac09a3          	sb	a0,19(s8)
    1160:	0803c513          	xori	a0,t2,128
    1164:	00ac0a23          	sb	a0,20(s8)
    1168:	080e4513          	xori	a0,t3,128
    116c:	00ac0aa3          	sb	a0,21(s8)
    1170:	080ec513          	xori	a0,t4,128
    1174:	00ac0b23          	sb	a0,22(s8)
    1178:	080f4513          	xori	a0,t5,128
    117c:	00ac0ba3          	sb	a0,23(s8)
    1180:	080fc513          	xori	a0,t6,128
    1184:	00ac0c23          	sb	a0,24(s8)
    1188:	0804c513          	xori	a0,s1,128
    118c:	00ac0ca3          	sb	a0,25(s8)
    1190:	08094513          	xori	a0,s2,128
    1194:	00ac0d23          	sb	a0,26(s8)
    1198:	0809c513          	xori	a0,s3,128
    119c:	00ac0da3          	sb	a0,27(s8)
    11a0:	080a4513          	xori	a0,s4,128
    11a4:	00ac0e23          	sb	a0,28(s8)
    11a8:	080ac513          	xori	a0,s5,128
    11ac:	00ac0ea3          	sb	a0,29(s8)
    11b0:	080b4513          	xori	a0,s6,128
    11b4:	00ac0f23          	sb	a0,30(s8)
    11b8:	080bc513          	xori	a0,s7,128
    11bc:	00ac0fa3          	sb	a0,31(s8)
    11c0:	020d0593          	addi	a1,s10,32
    11c4:	00001537          	lui	a0,0x1
    11c8:	40a40533          	sub	a0,s0,a0
    11cc:	64853903          	ld	s2,1608(a0) # 1648 <.LBB96_4+0x468>
    11d0:	02090913          	addi	s2,s2,32
    11d4:	3a000513          	li	a0,928
    11d8:	00ad6463          	bltu	s10,a0,11e0 <.LBB96_4>
    11dc:	f71fe06f          	j	14c <.LBB96_1>

00000000000011e0 <.LBB96_4>:
    11e0:	00001537          	lui	a0,0x1
    11e4:	40a40533          	sub	a0,s0,a0
    11e8:	66b53023          	sd	a1,1632(a0) # 1660 <.LBB96_4+0x480>
    11ec:	00001537          	lui	a0,0x1
    11f0:	40a40533          	sub	a0,s0,a0
    11f4:	d7053383          	ld	t2,-656(a0) # d70 <.LBB96_3+0xaec>
    11f8:	00001537          	lui	a0,0x1
    11fc:	40a40533          	sub	a0,s0,a0
    1200:	d1853f83          	ld	t6,-744(a0) # d18 <.LBB96_3+0xa94>
    1204:	00001537          	lui	a0,0x1
    1208:	40a40533          	sub	a0,s0,a0
    120c:	65253423          	sd	s2,1608(a0) # 1648 <.LBB96_4+0x468>
    1210:	00001537          	lui	a0,0x1
    1214:	40a40533          	sub	a0,s0,a0
    1218:	6c053023          	sd	zero,1728(a0) # 16c0 <.LBB96_4+0x4e0>
    121c:	00001537          	lui	a0,0x1
    1220:	40a40533          	sub	a0,s0,a0
    1224:	6a053c23          	sd	zero,1720(a0) # 16b8 <.LBB96_4+0x4d8>
    1228:	00001537          	lui	a0,0x1
    122c:	40a40533          	sub	a0,s0,a0
    1230:	6a053823          	sd	zero,1712(a0) # 16b0 <.LBB96_4+0x4d0>
    1234:	00001537          	lui	a0,0x1
    1238:	40a40533          	sub	a0,s0,a0
    123c:	6c053423          	sd	zero,1736(a0) # 16c8 <.LBB96_4+0x4e8>
    1240:	00001537          	lui	a0,0x1
    1244:	40a40533          	sub	a0,s0,a0
    1248:	6a053423          	sd	zero,1704(a0) # 16a8 <.LBB96_4+0x4c8>
    124c:	00001537          	lui	a0,0x1
    1250:	40a40533          	sub	a0,s0,a0
    1254:	6a053023          	sd	zero,1696(a0) # 16a0 <.LBB96_4+0x4c0>
    1258:	00001537          	lui	a0,0x1
    125c:	40a40533          	sub	a0,s0,a0
    1260:	68053c23          	sd	zero,1688(a0) # 1698 <.LBB96_4+0x4b8>
    1264:	00001537          	lui	a0,0x1
    1268:	40a40533          	sub	a0,s0,a0
    126c:	68053823          	sd	zero,1680(a0) # 1690 <.LBB96_4+0x4b0>
    1270:	00001537          	lui	a0,0x1
    1274:	40a40533          	sub	a0,s0,a0
    1278:	68053423          	sd	zero,1672(a0) # 1688 <.LBB96_4+0x4a8>
    127c:	00001537          	lui	a0,0x1
    1280:	40a40533          	sub	a0,s0,a0
    1284:	6c053823          	sd	zero,1744(a0) # 16d0 <.LBB96_4+0x4f0>
    1288:	00001537          	lui	a0,0x1
    128c:	40a40533          	sub	a0,s0,a0
    1290:	6c053c23          	sd	zero,1752(a0) # 16d8 <.LBB96_4+0x4f8>
    1294:	00001537          	lui	a0,0x1
    1298:	40a40533          	sub	a0,s0,a0
    129c:	6e053023          	sd	zero,1760(a0) # 16e0 <.LBB96_4+0x500>
    12a0:	00001537          	lui	a0,0x1
    12a4:	40a40533          	sub	a0,s0,a0
    12a8:	6e053423          	sd	zero,1768(a0) # 16e8 <.LBB96_4+0x508>
    12ac:	00001537          	lui	a0,0x1
    12b0:	40a40533          	sub	a0,s0,a0
    12b4:	6e053823          	sd	zero,1776(a0) # 16f0 <.LBB96_4+0x510>
    12b8:	00001537          	lui	a0,0x1
    12bc:	40a40533          	sub	a0,s0,a0
    12c0:	6e053c23          	sd	zero,1784(a0) # 16f8 <.LBB96_4+0x518>
    12c4:	00001537          	lui	a0,0x1
    12c8:	40a40533          	sub	a0,s0,a0
    12cc:	70053023          	sd	zero,1792(a0) # 1700 <.LBB96_4+0x520>
    12d0:	00001537          	lui	a0,0x1
    12d4:	40a40533          	sub	a0,s0,a0
    12d8:	70053423          	sd	zero,1800(a0) # 1708 <.LBB96_4+0x528>
    12dc:	00001537          	lui	a0,0x1
    12e0:	40a40533          	sub	a0,s0,a0
    12e4:	70053823          	sd	zero,1808(a0) # 1710 <.LBB96_4+0x530>
    12e8:	00001537          	lui	a0,0x1
    12ec:	40a40533          	sub	a0,s0,a0
    12f0:	70053c23          	sd	zero,1816(a0) # 1718 <.LBB96_4+0x538>
    12f4:	00001537          	lui	a0,0x1
    12f8:	40a40533          	sub	a0,s0,a0
    12fc:	72053023          	sd	zero,1824(a0) # 1720 <.LBB96_4+0x540>
    1300:	00001537          	lui	a0,0x1
    1304:	40a40533          	sub	a0,s0,a0
    1308:	72053423          	sd	zero,1832(a0) # 1728 <.LBB96_4+0x548>
    130c:	00001537          	lui	a0,0x1
    1310:	40a40533          	sub	a0,s0,a0
    1314:	72053823          	sd	zero,1840(a0) # 1730 <.LBB96_4+0x550>
    1318:	00001537          	lui	a0,0x1
    131c:	40a40533          	sub	a0,s0,a0
    1320:	72053c23          	sd	zero,1848(a0) # 1738 <.LBB96_4+0x558>
    1324:	00001537          	lui	a0,0x1
    1328:	40a40533          	sub	a0,s0,a0
    132c:	74053023          	sd	zero,1856(a0) # 1740 <.LBB96_4+0x560>
    1330:	00001537          	lui	a0,0x1
    1334:	40a40533          	sub	a0,s0,a0
    1338:	74053423          	sd	zero,1864(a0) # 1748 <.LBB96_4+0x568>
    133c:	00001537          	lui	a0,0x1
    1340:	40a40533          	sub	a0,s0,a0
    1344:	74053823          	sd	zero,1872(a0) # 1750 <.LBB96_4+0x570>
    1348:	00001537          	lui	a0,0x1
    134c:	40a40533          	sub	a0,s0,a0
    1350:	74053c23          	sd	zero,1880(a0) # 1758 <.LBB96_4+0x578>
    1354:	00001537          	lui	a0,0x1
    1358:	40a40533          	sub	a0,s0,a0
    135c:	76053023          	sd	zero,1888(a0) # 1760 <.LBB96_4+0x580>
    1360:	00001537          	lui	a0,0x1
    1364:	40a40533          	sub	a0,s0,a0
    1368:	76053423          	sd	zero,1896(a0) # 1768 <.LBB96_4+0x588>
    136c:	00001537          	lui	a0,0x1
    1370:	40a40533          	sub	a0,s0,a0
    1374:	76053823          	sd	zero,1904(a0) # 1770 <.LBB96_4+0x590>
    1378:	00001537          	lui	a0,0x1
    137c:	40a40533          	sub	a0,s0,a0
    1380:	76053c23          	sd	zero,1912(a0) # 1778 <.LBB96_4+0x598>
    1384:	00001537          	lui	a0,0x1
    1388:	40a40533          	sub	a0,s0,a0
    138c:	78053023          	sd	zero,1920(a0) # 1780 <.LBB96_4+0x5a0>
    1390:	00001537          	lui	a0,0x1
    1394:	40a40533          	sub	a0,s0,a0
    1398:	7a053023          	sd	zero,1952(a0) # 17a0 <.LBB96_5+0x18>
    139c:	00001537          	lui	a0,0x1
    13a0:	40a40533          	sub	a0,s0,a0
    13a4:	78053c23          	sd	zero,1944(a0) # 1798 <.LBB96_5+0x10>
    13a8:	00001537          	lui	a0,0x1
    13ac:	40a40533          	sub	a0,s0,a0
    13b0:	78053823          	sd	zero,1936(a0) # 1790 <.LBB96_5+0x8>
    13b4:	00001537          	lui	a0,0x1
    13b8:	40a40533          	sub	a0,s0,a0
    13bc:	78053423          	sd	zero,1928(a0) # 1788 <.LBB96_5>
    13c0:	00001537          	lui	a0,0x1
    13c4:	40a40533          	sub	a0,s0,a0
    13c8:	7a053423          	sd	zero,1960(a0) # 17a8 <.LBB96_5+0x20>
    13cc:	00001537          	lui	a0,0x1
    13d0:	40a40533          	sub	a0,s0,a0
    13d4:	7a053823          	sd	zero,1968(a0) # 17b0 <.LBB96_5+0x28>
    13d8:	00001537          	lui	a0,0x1
    13dc:	40a40533          	sub	a0,s0,a0
    13e0:	7a053c23          	sd	zero,1976(a0) # 17b8 <.LBB96_5+0x30>
    13e4:	00001537          	lui	a0,0x1
    13e8:	40a40533          	sub	a0,s0,a0
    13ec:	7c053023          	sd	zero,1984(a0) # 17c0 <.LBB96_5+0x38>
    13f0:	00001537          	lui	a0,0x1
    13f4:	40a40533          	sub	a0,s0,a0
    13f8:	7c053423          	sd	zero,1992(a0) # 17c8 <.LBB96_5+0x40>
    13fc:	00001537          	lui	a0,0x1
    1400:	40a40533          	sub	a0,s0,a0
    1404:	7c053823          	sd	zero,2000(a0) # 17d0 <.LBB96_5+0x48>
    1408:	00001537          	lui	a0,0x1
    140c:	40a40533          	sub	a0,s0,a0
    1410:	7c053c23          	sd	zero,2008(a0) # 17d8 <.LBB96_5+0x50>
    1414:	00001537          	lui	a0,0x1
    1418:	40a40533          	sub	a0,s0,a0
    141c:	7e053023          	sd	zero,2016(a0) # 17e0 <.LBB96_5+0x58>
    1420:	00001537          	lui	a0,0x1
    1424:	40a40533          	sub	a0,s0,a0
    1428:	7e053423          	sd	zero,2024(a0) # 17e8 <.LBB96_5+0x60>
    142c:	00001537          	lui	a0,0x1
    1430:	40a40533          	sub	a0,s0,a0
    1434:	7e053823          	sd	zero,2032(a0) # 17f0 <.LBB96_5+0x68>
    1438:	00001537          	lui	a0,0x1
    143c:	40a40533          	sub	a0,s0,a0
    1440:	7e053c23          	sd	zero,2040(a0) # 17f8 <.LBB96_5+0x70>
    1444:	80043023          	sd	zero,-2048(s0)
    1448:	80043423          	sd	zero,-2040(s0)
    144c:	80043823          	sd	zero,-2032(s0)
    1450:	80043c23          	sd	zero,-2024(s0)
    1454:	82043023          	sd	zero,-2016(s0)
    1458:	82043423          	sd	zero,-2008(s0)
    145c:	82043823          	sd	zero,-2000(s0)
    1460:	82043c23          	sd	zero,-1992(s0)
    1464:	84043023          	sd	zero,-1984(s0)
    1468:	84043423          	sd	zero,-1976(s0)
    146c:	84043823          	sd	zero,-1968(s0)
    1470:	84043c23          	sd	zero,-1960(s0)
    1474:	86043023          	sd	zero,-1952(s0)
    1478:	86043423          	sd	zero,-1944(s0)
    147c:	86043823          	sd	zero,-1936(s0)
    1480:	86043c23          	sd	zero,-1928(s0)
    1484:	88043023          	sd	zero,-1920(s0)
    1488:	8a043023          	sd	zero,-1888(s0)
    148c:	88043c23          	sd	zero,-1896(s0)
    1490:	88043823          	sd	zero,-1904(s0)
    1494:	88043423          	sd	zero,-1912(s0)
    1498:	8a043423          	sd	zero,-1880(s0)
    149c:	8a043823          	sd	zero,-1872(s0)
    14a0:	8a043c23          	sd	zero,-1864(s0)
    14a4:	8c043023          	sd	zero,-1856(s0)
    14a8:	8c043423          	sd	zero,-1848(s0)
    14ac:	8c043823          	sd	zero,-1840(s0)
    14b0:	8c043c23          	sd	zero,-1832(s0)
    14b4:	8e043023          	sd	zero,-1824(s0)
    14b8:	8e043423          	sd	zero,-1816(s0)
    14bc:	8e043823          	sd	zero,-1808(s0)
    14c0:	8e043c23          	sd	zero,-1800(s0)
    14c4:	90043023          	sd	zero,-1792(s0)
    14c8:	90043423          	sd	zero,-1784(s0)
    14cc:	90043823          	sd	zero,-1776(s0)
    14d0:	90043c23          	sd	zero,-1768(s0)
    14d4:	92043023          	sd	zero,-1760(s0)
    14d8:	92043423          	sd	zero,-1752(s0)
    14dc:	92043823          	sd	zero,-1744(s0)
    14e0:	92043c23          	sd	zero,-1736(s0)
    14e4:	94043023          	sd	zero,-1728(s0)
    14e8:	94043423          	sd	zero,-1720(s0)
    14ec:	94043823          	sd	zero,-1712(s0)
    14f0:	94043c23          	sd	zero,-1704(s0)
    14f4:	96043023          	sd	zero,-1696(s0)
    14f8:	96043423          	sd	zero,-1688(s0)
    14fc:	96043823          	sd	zero,-1680(s0)
    1500:	96043c23          	sd	zero,-1672(s0)
    1504:	98043023          	sd	zero,-1664(s0)
    1508:	9a043023          	sd	zero,-1632(s0)
    150c:	98043c23          	sd	zero,-1640(s0)
    1510:	98043823          	sd	zero,-1648(s0)
    1514:	98043423          	sd	zero,-1656(s0)
    1518:	9a043423          	sd	zero,-1624(s0)
    151c:	9a043823          	sd	zero,-1616(s0)
    1520:	9a043c23          	sd	zero,-1608(s0)
    1524:	9c043023          	sd	zero,-1600(s0)
    1528:	9c043423          	sd	zero,-1592(s0)
    152c:	9c043823          	sd	zero,-1584(s0)
    1530:	9c043c23          	sd	zero,-1576(s0)
    1534:	9e043023          	sd	zero,-1568(s0)
    1538:	9e043423          	sd	zero,-1560(s0)
    153c:	9e043823          	sd	zero,-1552(s0)
    1540:	9e043c23          	sd	zero,-1544(s0)
    1544:	a0043023          	sd	zero,-1536(s0)
    1548:	a0043423          	sd	zero,-1528(s0)
    154c:	a0043823          	sd	zero,-1520(s0)
    1550:	a0043c23          	sd	zero,-1512(s0)
    1554:	a2043023          	sd	zero,-1504(s0)
    1558:	a2043423          	sd	zero,-1496(s0)
    155c:	a2043823          	sd	zero,-1488(s0)
    1560:	a2043c23          	sd	zero,-1480(s0)
    1564:	a4043023          	sd	zero,-1472(s0)
    1568:	a4043423          	sd	zero,-1464(s0)
    156c:	a4043823          	sd	zero,-1456(s0)
    1570:	a4043c23          	sd	zero,-1448(s0)
    1574:	a6043023          	sd	zero,-1440(s0)
    1578:	a6043423          	sd	zero,-1432(s0)
    157c:	a6043823          	sd	zero,-1424(s0)
    1580:	a6043c23          	sd	zero,-1416(s0)
    1584:	a8043023          	sd	zero,-1408(s0)
    1588:	aa043023          	sd	zero,-1376(s0)
    158c:	a8043c23          	sd	zero,-1384(s0)
    1590:	a8043823          	sd	zero,-1392(s0)
    1594:	a8043423          	sd	zero,-1400(s0)
    1598:	aa043423          	sd	zero,-1368(s0)
    159c:	aa043823          	sd	zero,-1360(s0)
    15a0:	aa043c23          	sd	zero,-1352(s0)
    15a4:	ac043023          	sd	zero,-1344(s0)
    15a8:	ac043423          	sd	zero,-1336(s0)
    15ac:	ac043823          	sd	zero,-1328(s0)
    15b0:	ac043c23          	sd	zero,-1320(s0)
    15b4:	ae043023          	sd	zero,-1312(s0)
    15b8:	ae043423          	sd	zero,-1304(s0)
    15bc:	ae043823          	sd	zero,-1296(s0)
    15c0:	ae043c23          	sd	zero,-1288(s0)
    15c4:	b0043023          	sd	zero,-1280(s0)
    15c8:	b0043423          	sd	zero,-1272(s0)
    15cc:	b0043823          	sd	zero,-1264(s0)
    15d0:	b0043c23          	sd	zero,-1256(s0)
    15d4:	b2043023          	sd	zero,-1248(s0)
    15d8:	b2043423          	sd	zero,-1240(s0)
    15dc:	b2043823          	sd	zero,-1232(s0)
    15e0:	b2043c23          	sd	zero,-1224(s0)
    15e4:	b4043023          	sd	zero,-1216(s0)
    15e8:	b4043423          	sd	zero,-1208(s0)
    15ec:	b4043823          	sd	zero,-1200(s0)
    15f0:	b4043c23          	sd	zero,-1192(s0)
    15f4:	b6043023          	sd	zero,-1184(s0)
    15f8:	b6043423          	sd	zero,-1176(s0)
    15fc:	b6043823          	sd	zero,-1168(s0)
    1600:	b6043c23          	sd	zero,-1160(s0)
    1604:	b8043023          	sd	zero,-1152(s0)
    1608:	ba043023          	sd	zero,-1120(s0)
    160c:	b8043c23          	sd	zero,-1128(s0)
    1610:	b8043823          	sd	zero,-1136(s0)
    1614:	b8043423          	sd	zero,-1144(s0)
    1618:	ba043423          	sd	zero,-1112(s0)
    161c:	ba043823          	sd	zero,-1104(s0)
    1620:	ba043c23          	sd	zero,-1096(s0)
    1624:	bc043023          	sd	zero,-1088(s0)
    1628:	bc043423          	sd	zero,-1080(s0)
    162c:	bc043823          	sd	zero,-1072(s0)
    1630:	bc043c23          	sd	zero,-1064(s0)
    1634:	be043023          	sd	zero,-1056(s0)
    1638:	be043423          	sd	zero,-1048(s0)
    163c:	be043823          	sd	zero,-1040(s0)
    1640:	be043c23          	sd	zero,-1032(s0)
    1644:	c0043023          	sd	zero,-1024(s0)
    1648:	c0043423          	sd	zero,-1016(s0)
    164c:	c0043823          	sd	zero,-1008(s0)
    1650:	c0043c23          	sd	zero,-1000(s0)
    1654:	c2043023          	sd	zero,-992(s0)
    1658:	c2043423          	sd	zero,-984(s0)
    165c:	c2043823          	sd	zero,-976(s0)
    1660:	c2043c23          	sd	zero,-968(s0)
    1664:	c4043023          	sd	zero,-960(s0)
    1668:	c4043423          	sd	zero,-952(s0)
    166c:	c4043823          	sd	zero,-944(s0)
    1670:	c4043c23          	sd	zero,-936(s0)
    1674:	c6043023          	sd	zero,-928(s0)
    1678:	c6043423          	sd	zero,-920(s0)
    167c:	c6043823          	sd	zero,-912(s0)
    1680:	c6043c23          	sd	zero,-904(s0)
    1684:	c8043023          	sd	zero,-896(s0)
    1688:	ca043023          	sd	zero,-864(s0)
    168c:	c8043c23          	sd	zero,-872(s0)
    1690:	c8043823          	sd	zero,-880(s0)
    1694:	c8043423          	sd	zero,-888(s0)
    1698:	ca043423          	sd	zero,-856(s0)
    169c:	ca043823          	sd	zero,-848(s0)
    16a0:	ca043c23          	sd	zero,-840(s0)
    16a4:	cc043023          	sd	zero,-832(s0)
    16a8:	cc043423          	sd	zero,-824(s0)
    16ac:	cc043823          	sd	zero,-816(s0)
    16b0:	cc043c23          	sd	zero,-808(s0)
    16b4:	ce043023          	sd	zero,-800(s0)
    16b8:	ce043423          	sd	zero,-792(s0)
    16bc:	ce043823          	sd	zero,-784(s0)
    16c0:	ce043c23          	sd	zero,-776(s0)
    16c4:	d0043023          	sd	zero,-768(s0)
    16c8:	d0043423          	sd	zero,-760(s0)
    16cc:	d0043823          	sd	zero,-752(s0)
    16d0:	d0043c23          	sd	zero,-744(s0)
    16d4:	d2043023          	sd	zero,-736(s0)
    16d8:	d2043423          	sd	zero,-728(s0)
    16dc:	d2043823          	sd	zero,-720(s0)
    16e0:	d2043c23          	sd	zero,-712(s0)
    16e4:	d4043023          	sd	zero,-704(s0)
    16e8:	d4043423          	sd	zero,-696(s0)
    16ec:	d4043823          	sd	zero,-688(s0)
    16f0:	d4043c23          	sd	zero,-680(s0)
    16f4:	d6043023          	sd	zero,-672(s0)
    16f8:	d6043423          	sd	zero,-664(s0)
    16fc:	d6043823          	sd	zero,-656(s0)
    1700:	d6043c23          	sd	zero,-648(s0)
    1704:	d8043023          	sd	zero,-640(s0)
    1708:	da043023          	sd	zero,-608(s0)
    170c:	d8043c23          	sd	zero,-616(s0)
    1710:	d8043823          	sd	zero,-624(s0)
    1714:	d8043423          	sd	zero,-632(s0)
    1718:	da043423          	sd	zero,-600(s0)
    171c:	00000093          	li	ra,0
    1720:	da043823          	sd	zero,-592(s0)
    1724:	00000b93          	li	s7,0
    1728:	00000c93          	li	s9,0
    172c:	00000c13          	li	s8,0
    1730:	00000a13          	li	s4,0
    1734:	00000993          	li	s3,0
    1738:	00000493          	li	s1,0
    173c:	00000f13          	li	t5,0
    1740:	00000e93          	li	t4,0
    1744:	00000d13          	li	s10,0
    1748:	00000e13          	li	t3,0
    174c:	dc043023          	sd	zero,-576(s0)
    1750:	00000713          	li	a4,0
    1754:	00000313          	li	t1,0
    1758:	00000293          	li	t0,0
    175c:	00000693          	li	a3,0
    1760:	00000613          	li	a2,0
    1764:	00000593          	li	a1,0
    1768:	00000513          	li	a0,0
    176c:	00000893          	li	a7,0
    1770:	00000813          	li	a6,0
    1774:	00000793          	li	a5,0
    1778:	00000a93          	li	s5,0
    177c:	de043c23          	sd	zero,-520(s0)
    1780:	e0043023          	sd	zero,-512(s0)
    1784:	e0043423          	sd	zero,-504(s0)

0000000000001788 <.LBB96_5>:
    1788:	df543823          	sd	s5,-528(s0)
    178c:	dba43c23          	sd	s10,-584(s0)
    1790:	f9243423          	sd	s2,-120(s0)
    1794:	00001ab7          	lui	s5,0x1
    1798:	41540ab3          	sub	s5,s0,s5
    179c:	69fab023          	sd	t6,1664(s5) # 1680 <.LBB96_4+0x4a0>
    17a0:	f8743023          	sd	t2,-128(s0)
    17a4:	ec143023          	sd	ra,-320(s0)
    17a8:	ed743423          	sd	s7,-312(s0)
    17ac:	ed943823          	sd	s9,-304(s0)
    17b0:	ed843c23          	sd	s8,-296(s0)
    17b4:	ef443023          	sd	s4,-288(s0)
    17b8:	ef343423          	sd	s3,-280(s0)
    17bc:	ee943823          	sd	s1,-272(s0)
    17c0:	efe43c23          	sd	t5,-264(s0)
    17c4:	f1d43023          	sd	t4,-256(s0)
    17c8:	f1c43423          	sd	t3,-248(s0)
    17cc:	f0e43823          	sd	a4,-240(s0)
    17d0:	dc643423          	sd	t1,-568(s0)
    17d4:	dc543823          	sd	t0,-560(s0)
    17d8:	f0d43c23          	sd	a3,-232(s0)
    17dc:	f2c43023          	sd	a2,-224(s0)
    17e0:	f2b43423          	sd	a1,-216(s0)
    17e4:	f2a43823          	sd	a0,-208(s0)
    17e8:	dd143c23          	sd	a7,-552(s0)
    17ec:	df043023          	sd	a6,-544(s0)
    17f0:	def43423          	sd	a5,-536(s0)
    17f4:	00038503          	lb	a0,0(t2)
    17f8:	00290603          	lb	a2,2(s2)
    17fc:	eac43423          	sd	a2,-344(s0)
    1800:	00190683          	lb	a3,1(s2)
    1804:	e8d43423          	sd	a3,-376(s0)
    1808:	00090c03          	lb	s8,0(s2)
    180c:	00390783          	lb	a5,3(s2)
    1810:	e8f43023          	sd	a5,-384(s0)
    1814:	00490803          	lb	a6,4(s2)
    1818:	f5043423          	sd	a6,-184(s0)
    181c:	00590c83          	lb	s9,5(s2)
    1820:	f7943823          	sd	s9,-144(s0)
    1824:	00690d83          	lb	s11,6(s2)
    1828:	e3b43c23          	sd	s11,-456(s0)
    182c:	00790083          	lb	ra,7(s2)
    1830:	e6143c23          	sd	ra,-392(s0)
    1834:	00890883          	lb	a7,8(s2)
    1838:	e3143823          	sd	a7,-464(s0)
    183c:	00990d03          	lb	s10,9(s2)
    1840:	00a90a03          	lb	s4,10(s2)
    1844:	00b90983          	lb	s3,11(s2)
    1848:	00c90483          	lb	s1,12(s2)
    184c:	00d90f03          	lb	t5,13(s2)
    1850:	00e90e83          	lb	t4,14(s2)
    1854:	00f90583          	lb	a1,15(s2)
    1858:	f6b43023          	sd	a1,-160(s0)
    185c:	f8843583          	ld	a1,-120(s0)
    1860:	01058583          	lb	a1,16(a1)
    1864:	f6b43c23          	sd	a1,-136(s0)
    1868:	f8843583          	ld	a1,-120(s0)
    186c:	01158283          	lb	t0,17(a1)
    1870:	f2543c23          	sd	t0,-200(s0)
    1874:	f8843583          	ld	a1,-120(s0)
    1878:	01258303          	lb	t1,18(a1)
    187c:	f4643c23          	sd	t1,-168(s0)
    1880:	f8843583          	ld	a1,-120(s0)
    1884:	01358f83          	lb	t6,19(a1)
    1888:	f7f43423          	sd	t6,-152(s0)
    188c:	f8843583          	ld	a1,-120(s0)
    1890:	01458383          	lb	t2,20(a1)
    1894:	f4743023          	sd	t2,-192(s0)
    1898:	f8843583          	ld	a1,-120(s0)
    189c:	01558903          	lb	s2,21(a1)
    18a0:	e9243823          	sd	s2,-368(s0)
    18a4:	f8843583          	ld	a1,-120(s0)
    18a8:	01658e03          	lb	t3,22(a1)
    18ac:	e9c43c23          	sd	t3,-360(s0)
    18b0:	f8843583          	ld	a1,-120(s0)
    18b4:	01758b03          	lb	s6,23(a1)
    18b8:	eb643023          	sd	s6,-352(s0)
    18bc:	f8843583          	ld	a1,-120(s0)
    18c0:	01858a83          	lb	s5,24(a1)
    18c4:	02c505b3          	mul	a1,a0,a2
    18c8:	00001637          	lui	a2,0x1
    18cc:	40c40633          	sub	a2,s0,a2
    18d0:	6b063603          	ld	a2,1712(a2) # 16b0 <.LBB96_4+0x4d0>
    18d4:	00c58633          	add	a2,a1,a2
    18d8:	000015b7          	lui	a1,0x1
    18dc:	40b405b3          	sub	a1,s0,a1
    18e0:	6ac5b823          	sd	a2,1712(a1) # 16b0 <.LBB96_4+0x4d0>
    18e4:	02d505b3          	mul	a1,a0,a3
    18e8:	00001637          	lui	a2,0x1
    18ec:	40c40633          	sub	a2,s0,a2
    18f0:	6b863603          	ld	a2,1720(a2) # 16b8 <.LBB96_4+0x4d8>
    18f4:	00c58633          	add	a2,a1,a2
    18f8:	000015b7          	lui	a1,0x1
    18fc:	40b405b3          	sub	a1,s0,a1
    1900:	6ac5bc23          	sd	a2,1720(a1) # 16b8 <.LBB96_4+0x4d8>
    1904:	038505b3          	mul	a1,a0,s8
    1908:	eb843c23          	sd	s8,-328(s0)
    190c:	00001637          	lui	a2,0x1
    1910:	40c40633          	sub	a2,s0,a2
    1914:	6c063603          	ld	a2,1728(a2) # 16c0 <.LBB96_4+0x4e0>
    1918:	00c58633          	add	a2,a1,a2
    191c:	000015b7          	lui	a1,0x1
    1920:	40b405b3          	sub	a1,s0,a1
    1924:	6cc5b023          	sd	a2,1728(a1) # 16c0 <.LBB96_4+0x4e0>
    1928:	02f505b3          	mul	a1,a0,a5
    192c:	00001637          	lui	a2,0x1
    1930:	40c40633          	sub	a2,s0,a2
    1934:	6c863603          	ld	a2,1736(a2) # 16c8 <.LBB96_4+0x4e8>
    1938:	00c58633          	add	a2,a1,a2
    193c:	000015b7          	lui	a1,0x1
    1940:	40b405b3          	sub	a1,s0,a1
    1944:	6cc5b423          	sd	a2,1736(a1) # 16c8 <.LBB96_4+0x4e8>
    1948:	030505b3          	mul	a1,a0,a6
    194c:	00001637          	lui	a2,0x1
    1950:	40c40633          	sub	a2,s0,a2
    1954:	6a863603          	ld	a2,1704(a2) # 16a8 <.LBB96_4+0x4c8>
    1958:	00c58633          	add	a2,a1,a2
    195c:	000015b7          	lui	a1,0x1
    1960:	40b405b3          	sub	a1,s0,a1
    1964:	6ac5b423          	sd	a2,1704(a1) # 16a8 <.LBB96_4+0x4c8>
    1968:	039505b3          	mul	a1,a0,s9
    196c:	00001637          	lui	a2,0x1
    1970:	40c40633          	sub	a2,s0,a2
    1974:	6a063603          	ld	a2,1696(a2) # 16a0 <.LBB96_4+0x4c0>
    1978:	00c58633          	add	a2,a1,a2
    197c:	000015b7          	lui	a1,0x1
    1980:	40b405b3          	sub	a1,s0,a1
    1984:	6ac5b023          	sd	a2,1696(a1) # 16a0 <.LBB96_4+0x4c0>
    1988:	03b505b3          	mul	a1,a0,s11
    198c:	00001637          	lui	a2,0x1
    1990:	40c40633          	sub	a2,s0,a2
    1994:	69863603          	ld	a2,1688(a2) # 1698 <.LBB96_4+0x4b8>
    1998:	00c58633          	add	a2,a1,a2
    199c:	000015b7          	lui	a1,0x1
    19a0:	40b405b3          	sub	a1,s0,a1
    19a4:	68c5bc23          	sd	a2,1688(a1) # 1698 <.LBB96_4+0x4b8>
    19a8:	021505b3          	mul	a1,a0,ra
    19ac:	00001637          	lui	a2,0x1
    19b0:	40c40633          	sub	a2,s0,a2
    19b4:	69063603          	ld	a2,1680(a2) # 1690 <.LBB96_4+0x4b0>
    19b8:	00c58633          	add	a2,a1,a2
    19bc:	000015b7          	lui	a1,0x1
    19c0:	40b405b3          	sub	a1,s0,a1
    19c4:	68c5b823          	sd	a2,1680(a1) # 1690 <.LBB96_4+0x4b0>
    19c8:	031505b3          	mul	a1,a0,a7
    19cc:	00001637          	lui	a2,0x1
    19d0:	40c40633          	sub	a2,s0,a2
    19d4:	68863603          	ld	a2,1672(a2) # 1688 <.LBB96_4+0x4a8>
    19d8:	00c58633          	add	a2,a1,a2
    19dc:	000015b7          	lui	a1,0x1
    19e0:	40b405b3          	sub	a1,s0,a1
    19e4:	68c5b423          	sd	a2,1672(a1) # 1688 <.LBB96_4+0x4a8>
    19e8:	000d0813          	mv	a6,s10
    19ec:	03a505b3          	mul	a1,a0,s10
    19f0:	00001637          	lui	a2,0x1
    19f4:	40c40633          	sub	a2,s0,a2
    19f8:	6d063603          	ld	a2,1744(a2) # 16d0 <.LBB96_4+0x4f0>
    19fc:	00c58633          	add	a2,a1,a2
    1a00:	000015b7          	lui	a1,0x1
    1a04:	40b405b3          	sub	a1,s0,a1
    1a08:	6cc5b823          	sd	a2,1744(a1) # 16d0 <.LBB96_4+0x4f0>
    1a0c:	e3443023          	sd	s4,-480(s0)
    1a10:	034505b3          	mul	a1,a0,s4
    1a14:	00001637          	lui	a2,0x1
    1a18:	40c40633          	sub	a2,s0,a2
    1a1c:	6d863603          	ld	a2,1752(a2) # 16d8 <.LBB96_4+0x4f8>
    1a20:	00c58633          	add	a2,a1,a2
    1a24:	000015b7          	lui	a1,0x1
    1a28:	40b405b3          	sub	a1,s0,a1
    1a2c:	6cc5bc23          	sd	a2,1752(a1) # 16d8 <.LBB96_4+0x4f8>
    1a30:	e5343423          	sd	s3,-440(s0)
    1a34:	033505b3          	mul	a1,a0,s3
    1a38:	00001637          	lui	a2,0x1
    1a3c:	40c40633          	sub	a2,s0,a2
    1a40:	6e063603          	ld	a2,1760(a2) # 16e0 <.LBB96_4+0x500>
    1a44:	00c58633          	add	a2,a1,a2
    1a48:	000015b7          	lui	a1,0x1
    1a4c:	40b405b3          	sub	a1,s0,a1
    1a50:	6ec5b023          	sd	a2,1760(a1) # 16e0 <.LBB96_4+0x500>
    1a54:	e6943023          	sd	s1,-416(s0)
    1a58:	029505b3          	mul	a1,a0,s1
    1a5c:	00001637          	lui	a2,0x1
    1a60:	40c40633          	sub	a2,s0,a2
    1a64:	6e863603          	ld	a2,1768(a2) # 16e8 <.LBB96_4+0x508>
    1a68:	00c58633          	add	a2,a1,a2
    1a6c:	000015b7          	lui	a1,0x1
    1a70:	40b405b3          	sub	a1,s0,a1
    1a74:	6ec5b423          	sd	a2,1768(a1) # 16e8 <.LBB96_4+0x508>
    1a78:	e5e43023          	sd	t5,-448(s0)
    1a7c:	03e505b3          	mul	a1,a0,t5
    1a80:	00001637          	lui	a2,0x1
    1a84:	40c40633          	sub	a2,s0,a2
    1a88:	6f063603          	ld	a2,1776(a2) # 16f0 <.LBB96_4+0x510>
    1a8c:	00c58633          	add	a2,a1,a2
    1a90:	000015b7          	lui	a1,0x1
    1a94:	40b405b3          	sub	a1,s0,a1
    1a98:	6ec5b823          	sd	a2,1776(a1) # 16f0 <.LBB96_4+0x510>
    1a9c:	03d505b3          	mul	a1,a0,t4
    1aa0:	00001637          	lui	a2,0x1
    1aa4:	40c40633          	sub	a2,s0,a2
    1aa8:	6f863603          	ld	a2,1784(a2) # 16f8 <.LBB96_4+0x518>
    1aac:	00c58633          	add	a2,a1,a2
    1ab0:	000015b7          	lui	a1,0x1
    1ab4:	40b405b3          	sub	a1,s0,a1
    1ab8:	6ec5bc23          	sd	a2,1784(a1) # 16f8 <.LBB96_4+0x518>
    1abc:	f6043783          	ld	a5,-160(s0)
    1ac0:	02f505b3          	mul	a1,a0,a5
    1ac4:	00001637          	lui	a2,0x1
    1ac8:	40c40633          	sub	a2,s0,a2
    1acc:	70063603          	ld	a2,1792(a2) # 1700 <.LBB96_4+0x520>
    1ad0:	00c58633          	add	a2,a1,a2
    1ad4:	000015b7          	lui	a1,0x1
    1ad8:	40b405b3          	sub	a1,s0,a1
    1adc:	70c5b023          	sd	a2,1792(a1) # 1700 <.LBB96_4+0x520>
    1ae0:	f7843883          	ld	a7,-136(s0)
    1ae4:	031505b3          	mul	a1,a0,a7
    1ae8:	00001637          	lui	a2,0x1
    1aec:	40c40633          	sub	a2,s0,a2
    1af0:	70863603          	ld	a2,1800(a2) # 1708 <.LBB96_4+0x528>
    1af4:	00c58633          	add	a2,a1,a2
    1af8:	000015b7          	lui	a1,0x1
    1afc:	40b405b3          	sub	a1,s0,a1
    1b00:	70c5b423          	sd	a2,1800(a1) # 1708 <.LBB96_4+0x528>
    1b04:	025505b3          	mul	a1,a0,t0
    1b08:	00001637          	lui	a2,0x1
    1b0c:	40c40633          	sub	a2,s0,a2
    1b10:	71063603          	ld	a2,1808(a2) # 1710 <.LBB96_4+0x530>
    1b14:	00c58633          	add	a2,a1,a2
    1b18:	000015b7          	lui	a1,0x1
    1b1c:	40b405b3          	sub	a1,s0,a1
    1b20:	70c5b823          	sd	a2,1808(a1) # 1710 <.LBB96_4+0x530>
    1b24:	026505b3          	mul	a1,a0,t1
    1b28:	00001637          	lui	a2,0x1
    1b2c:	40c40633          	sub	a2,s0,a2
    1b30:	71863603          	ld	a2,1816(a2) # 1718 <.LBB96_4+0x538>
    1b34:	00c58633          	add	a2,a1,a2
    1b38:	000015b7          	lui	a1,0x1
    1b3c:	40b405b3          	sub	a1,s0,a1
    1b40:	70c5bc23          	sd	a2,1816(a1) # 1718 <.LBB96_4+0x538>
    1b44:	03f505b3          	mul	a1,a0,t6
    1b48:	00001637          	lui	a2,0x1
    1b4c:	40c40633          	sub	a2,s0,a2
    1b50:	72063603          	ld	a2,1824(a2) # 1720 <.LBB96_4+0x540>
    1b54:	00c58633          	add	a2,a1,a2
    1b58:	000015b7          	lui	a1,0x1
    1b5c:	40b405b3          	sub	a1,s0,a1
    1b60:	72c5b023          	sd	a2,1824(a1) # 1720 <.LBB96_4+0x540>
    1b64:	027505b3          	mul	a1,a0,t2
    1b68:	00001637          	lui	a2,0x1
    1b6c:	40c40633          	sub	a2,s0,a2
    1b70:	72863603          	ld	a2,1832(a2) # 1728 <.LBB96_4+0x548>
    1b74:	00c58633          	add	a2,a1,a2
    1b78:	000015b7          	lui	a1,0x1
    1b7c:	40b405b3          	sub	a1,s0,a1
    1b80:	72c5b423          	sd	a2,1832(a1) # 1728 <.LBB96_4+0x548>
    1b84:	032505b3          	mul	a1,a0,s2
    1b88:	00001637          	lui	a2,0x1
    1b8c:	40c40633          	sub	a2,s0,a2
    1b90:	73063603          	ld	a2,1840(a2) # 1730 <.LBB96_4+0x550>
    1b94:	00c58633          	add	a2,a1,a2
    1b98:	000015b7          	lui	a1,0x1
    1b9c:	40b405b3          	sub	a1,s0,a1
    1ba0:	72c5b823          	sd	a2,1840(a1) # 1730 <.LBB96_4+0x550>
    1ba4:	03c505b3          	mul	a1,a0,t3
    1ba8:	00001637          	lui	a2,0x1
    1bac:	40c40633          	sub	a2,s0,a2
    1bb0:	73863603          	ld	a2,1848(a2) # 1738 <.LBB96_4+0x558>
    1bb4:	00c58633          	add	a2,a1,a2
    1bb8:	000015b7          	lui	a1,0x1
    1bbc:	40b405b3          	sub	a1,s0,a1
    1bc0:	72c5bc23          	sd	a2,1848(a1) # 1738 <.LBB96_4+0x558>
    1bc4:	036505b3          	mul	a1,a0,s6
    1bc8:	00001637          	lui	a2,0x1
    1bcc:	40c40633          	sub	a2,s0,a2
    1bd0:	74063603          	ld	a2,1856(a2) # 1740 <.LBB96_4+0x560>
    1bd4:	00c58633          	add	a2,a1,a2
    1bd8:	000015b7          	lui	a1,0x1
    1bdc:	40b405b3          	sub	a1,s0,a1
    1be0:	74c5b023          	sd	a2,1856(a1) # 1740 <.LBB96_4+0x560>
    1be4:	f8843583          	ld	a1,-120(s0)
    1be8:	01958683          	lb	a3,25(a1)
    1bec:	e6d43823          	sd	a3,-400(s0)
    1bf0:	035505b3          	mul	a1,a0,s5
    1bf4:	00001637          	lui	a2,0x1
    1bf8:	40c40633          	sub	a2,s0,a2
    1bfc:	74863603          	ld	a2,1864(a2) # 1748 <.LBB96_4+0x568>
    1c00:	00c58633          	add	a2,a1,a2
    1c04:	000015b7          	lui	a1,0x1
    1c08:	40b405b3          	sub	a1,s0,a1
    1c0c:	74c5b423          	sd	a2,1864(a1) # 1748 <.LBB96_4+0x568>
    1c10:	f8843583          	ld	a1,-120(s0)
    1c14:	01a58703          	lb	a4,26(a1)
    1c18:	e6e43423          	sd	a4,-408(s0)
    1c1c:	02d505b3          	mul	a1,a0,a3
    1c20:	00001637          	lui	a2,0x1
    1c24:	40c40633          	sub	a2,s0,a2
    1c28:	75063603          	ld	a2,1872(a2) # 1750 <.LBB96_4+0x570>
    1c2c:	00c58633          	add	a2,a1,a2
    1c30:	000015b7          	lui	a1,0x1
    1c34:	40b405b3          	sub	a1,s0,a1
    1c38:	74c5b823          	sd	a2,1872(a1) # 1750 <.LBB96_4+0x570>
    1c3c:	f8843583          	ld	a1,-120(s0)
    1c40:	01b58683          	lb	a3,27(a1)
    1c44:	02e505b3          	mul	a1,a0,a4
    1c48:	00001637          	lui	a2,0x1
    1c4c:	40c40633          	sub	a2,s0,a2
    1c50:	75863603          	ld	a2,1880(a2) # 1758 <.LBB96_4+0x578>
    1c54:	00c58633          	add	a2,a1,a2
    1c58:	000015b7          	lui	a1,0x1
    1c5c:	40b405b3          	sub	a1,s0,a1
    1c60:	74c5bc23          	sd	a2,1880(a1) # 1758 <.LBB96_4+0x578>
    1c64:	f8843583          	ld	a1,-120(s0)
    1c68:	01c58b83          	lb	s7,28(a1)
    1c6c:	02d505b3          	mul	a1,a0,a3
    1c70:	00068093          	mv	ra,a3
    1c74:	00001637          	lui	a2,0x1
    1c78:	40c40633          	sub	a2,s0,a2
    1c7c:	76063603          	ld	a2,1888(a2) # 1760 <.LBB96_4+0x580>
    1c80:	00c58633          	add	a2,a1,a2
    1c84:	000015b7          	lui	a1,0x1
    1c88:	40b405b3          	sub	a1,s0,a1
    1c8c:	76c5b023          	sd	a2,1888(a1) # 1760 <.LBB96_4+0x580>
    1c90:	f8843583          	ld	a1,-120(s0)
    1c94:	01d58683          	lb	a3,29(a1)
    1c98:	ead43823          	sd	a3,-336(s0)
    1c9c:	037505b3          	mul	a1,a0,s7
    1ca0:	e1743c23          	sd	s7,-488(s0)
    1ca4:	00001637          	lui	a2,0x1
    1ca8:	40c40633          	sub	a2,s0,a2
    1cac:	76863603          	ld	a2,1896(a2) # 1768 <.LBB96_4+0x588>
    1cb0:	00c58633          	add	a2,a1,a2
    1cb4:	000015b7          	lui	a1,0x1
    1cb8:	40b405b3          	sub	a1,s0,a1
    1cbc:	76c5b423          	sd	a2,1896(a1) # 1768 <.LBB96_4+0x588>
    1cc0:	f8843583          	ld	a1,-120(s0)
    1cc4:	01e58703          	lb	a4,30(a1)
    1cc8:	f4e43823          	sd	a4,-176(s0)
    1ccc:	02d505b3          	mul	a1,a0,a3
    1cd0:	00001637          	lui	a2,0x1
    1cd4:	40c40633          	sub	a2,s0,a2
    1cd8:	77063603          	ld	a2,1904(a2) # 1770 <.LBB96_4+0x590>
    1cdc:	00c58633          	add	a2,a1,a2
    1ce0:	000015b7          	lui	a1,0x1
    1ce4:	40b405b3          	sub	a1,s0,a1
    1ce8:	76c5b823          	sd	a2,1904(a1) # 1770 <.LBB96_4+0x590>
    1cec:	f8843583          	ld	a1,-120(s0)
    1cf0:	01f58583          	lb	a1,31(a1)
    1cf4:	e0b43823          	sd	a1,-496(s0)
    1cf8:	f8043603          	ld	a2,-128(s0)
    1cfc:	0a060c83          	lb	s9,160(a2)
    1d00:	02e50db3          	mul	s11,a0,a4
    1d04:	00001637          	lui	a2,0x1
    1d08:	40c40633          	sub	a2,s0,a2
    1d0c:	77863603          	ld	a2,1912(a2) # 1778 <.LBB96_4+0x598>
    1d10:	00cd8633          	add	a2,s11,a2
    1d14:	000016b7          	lui	a3,0x1
    1d18:	40d406b3          	sub	a3,s0,a3
    1d1c:	76c6bc23          	sd	a2,1912(a3) # 1778 <.LBB96_4+0x598>
    1d20:	02b50533          	mul	a0,a0,a1
    1d24:	000015b7          	lui	a1,0x1
    1d28:	40b405b3          	sub	a1,s0,a1
    1d2c:	7805b603          	ld	a2,1920(a1) # 1780 <.LBB96_4+0x5a0>
    1d30:	00c50633          	add	a2,a0,a2
    1d34:	00001537          	lui	a0,0x1
    1d38:	40a40533          	sub	a0,s0,a0
    1d3c:	78c53023          	sd	a2,1920(a0) # 1780 <.LBB96_4+0x5a0>
    1d40:	038c8533          	mul	a0,s9,s8
    1d44:	000015b7          	lui	a1,0x1
    1d48:	40b405b3          	sub	a1,s0,a1
    1d4c:	7a05b603          	ld	a2,1952(a1) # 17a0 <.LBB96_5+0x18>
    1d50:	00c50633          	add	a2,a0,a2
    1d54:	00001537          	lui	a0,0x1
    1d58:	40a40533          	sub	a0,s0,a0
    1d5c:	7ac53023          	sd	a2,1952(a0) # 17a0 <.LBB96_5+0x18>
    1d60:	e8843e03          	ld	t3,-376(s0)
    1d64:	03cc8533          	mul	a0,s9,t3
    1d68:	000015b7          	lui	a1,0x1
    1d6c:	40b405b3          	sub	a1,s0,a1
    1d70:	7985b603          	ld	a2,1944(a1) # 1798 <.LBB96_5+0x10>
    1d74:	00c50633          	add	a2,a0,a2
    1d78:	00001537          	lui	a0,0x1
    1d7c:	40a40533          	sub	a0,s0,a0
    1d80:	78c53c23          	sd	a2,1944(a0) # 1798 <.LBB96_5+0x10>
    1d84:	ea843c03          	ld	s8,-344(s0)
    1d88:	038c8533          	mul	a0,s9,s8
    1d8c:	000015b7          	lui	a1,0x1
    1d90:	40b405b3          	sub	a1,s0,a1
    1d94:	7905b603          	ld	a2,1936(a1) # 1790 <.LBB96_5+0x8>
    1d98:	00c50633          	add	a2,a0,a2
    1d9c:	00001537          	lui	a0,0x1
    1da0:	40a40533          	sub	a0,s0,a0
    1da4:	78c53823          	sd	a2,1936(a0) # 1790 <.LBB96_5+0x8>
    1da8:	e8043d03          	ld	s10,-384(s0)
    1dac:	03ac8533          	mul	a0,s9,s10
    1db0:	000015b7          	lui	a1,0x1
    1db4:	40b405b3          	sub	a1,s0,a1
    1db8:	7885b603          	ld	a2,1928(a1) # 1788 <.LBB96_5>
    1dbc:	00c50633          	add	a2,a0,a2
    1dc0:	00001537          	lui	a0,0x1
    1dc4:	40a40533          	sub	a0,s0,a0
    1dc8:	78c53423          	sd	a2,1928(a0) # 1788 <.LBB96_5>
    1dcc:	f4843503          	ld	a0,-184(s0)
    1dd0:	02ac8533          	mul	a0,s9,a0
    1dd4:	000015b7          	lui	a1,0x1
    1dd8:	40b405b3          	sub	a1,s0,a1
    1ddc:	7a85b603          	ld	a2,1960(a1) # 17a8 <.LBB96_5+0x20>
    1de0:	00c50633          	add	a2,a0,a2
    1de4:	00001537          	lui	a0,0x1
    1de8:	40a40533          	sub	a0,s0,a0
    1dec:	7ac53423          	sd	a2,1960(a0) # 17a8 <.LBB96_5+0x20>
    1df0:	f7043503          	ld	a0,-144(s0)
    1df4:	02ac8533          	mul	a0,s9,a0
    1df8:	000015b7          	lui	a1,0x1
    1dfc:	40b405b3          	sub	a1,s0,a1
    1e00:	7b05b603          	ld	a2,1968(a1) # 17b0 <.LBB96_5+0x28>
    1e04:	00c50633          	add	a2,a0,a2
    1e08:	00001537          	lui	a0,0x1
    1e0c:	40a40533          	sub	a0,s0,a0
    1e10:	7ac53823          	sd	a2,1968(a0) # 17b0 <.LBB96_5+0x28>
    1e14:	e3843903          	ld	s2,-456(s0)
    1e18:	032c8533          	mul	a0,s9,s2
    1e1c:	000015b7          	lui	a1,0x1
    1e20:	40b405b3          	sub	a1,s0,a1
    1e24:	7b85b603          	ld	a2,1976(a1) # 17b8 <.LBB96_5+0x30>
    1e28:	00c50633          	add	a2,a0,a2
    1e2c:	00001537          	lui	a0,0x1
    1e30:	40a40533          	sub	a0,s0,a0
    1e34:	7ac53c23          	sd	a2,1976(a0) # 17b8 <.LBB96_5+0x30>
    1e38:	e7843b03          	ld	s6,-392(s0)
    1e3c:	036c8533          	mul	a0,s9,s6
    1e40:	000015b7          	lui	a1,0x1
    1e44:	40b405b3          	sub	a1,s0,a1
    1e48:	7c05b603          	ld	a2,1984(a1) # 17c0 <.LBB96_5+0x38>
    1e4c:	00c50633          	add	a2,a0,a2
    1e50:	00001537          	lui	a0,0x1
    1e54:	40a40533          	sub	a0,s0,a0
    1e58:	7cc53023          	sd	a2,1984(a0) # 17c0 <.LBB96_5+0x38>
    1e5c:	e3043f83          	ld	t6,-464(s0)
    1e60:	03fc8533          	mul	a0,s9,t6
    1e64:	000015b7          	lui	a1,0x1
    1e68:	40b405b3          	sub	a1,s0,a1
    1e6c:	7c85b603          	ld	a2,1992(a1) # 17c8 <.LBB96_5+0x40>
    1e70:	00c50633          	add	a2,a0,a2
    1e74:	00001537          	lui	a0,0x1
    1e78:	40a40533          	sub	a0,s0,a0
    1e7c:	7cc53423          	sd	a2,1992(a0) # 17c8 <.LBB96_5+0x40>
    1e80:	030c8533          	mul	a0,s9,a6
    1e84:	e5043c23          	sd	a6,-424(s0)
    1e88:	000015b7          	lui	a1,0x1
    1e8c:	40b405b3          	sub	a1,s0,a1
    1e90:	7d05b603          	ld	a2,2000(a1) # 17d0 <.LBB96_5+0x48>
    1e94:	00c50633          	add	a2,a0,a2
    1e98:	00001537          	lui	a0,0x1
    1e9c:	40a40533          	sub	a0,s0,a0
    1ea0:	7cc53823          	sd	a2,2000(a0) # 17d0 <.LBB96_5+0x48>
    1ea4:	034c8533          	mul	a0,s9,s4
    1ea8:	000015b7          	lui	a1,0x1
    1eac:	40b405b3          	sub	a1,s0,a1
    1eb0:	7d85b603          	ld	a2,2008(a1) # 17d8 <.LBB96_5+0x50>
    1eb4:	00c50633          	add	a2,a0,a2
    1eb8:	00001537          	lui	a0,0x1
    1ebc:	40a40533          	sub	a0,s0,a0
    1ec0:	7cc53c23          	sd	a2,2008(a0) # 17d8 <.LBB96_5+0x50>
    1ec4:	033c8533          	mul	a0,s9,s3
    1ec8:	000015b7          	lui	a1,0x1
    1ecc:	40b405b3          	sub	a1,s0,a1
    1ed0:	7e05b603          	ld	a2,2016(a1) # 17e0 <.LBB96_5+0x58>
    1ed4:	00c50633          	add	a2,a0,a2
    1ed8:	00001537          	lui	a0,0x1
    1edc:	40a40533          	sub	a0,s0,a0
    1ee0:	7ec53023          	sd	a2,2016(a0) # 17e0 <.LBB96_5+0x58>
    1ee4:	029c8533          	mul	a0,s9,s1
    1ee8:	000015b7          	lui	a1,0x1
    1eec:	40b405b3          	sub	a1,s0,a1
    1ef0:	7e85b603          	ld	a2,2024(a1) # 17e8 <.LBB96_5+0x60>
    1ef4:	00c50633          	add	a2,a0,a2
    1ef8:	00001537          	lui	a0,0x1
    1efc:	40a40533          	sub	a0,s0,a0
    1f00:	7ec53423          	sd	a2,2024(a0) # 17e8 <.LBB96_5+0x60>
    1f04:	03ec8533          	mul	a0,s9,t5
    1f08:	000015b7          	lui	a1,0x1
    1f0c:	40b405b3          	sub	a1,s0,a1
    1f10:	7f05b603          	ld	a2,2032(a1) # 17f0 <.LBB96_5+0x68>
    1f14:	00c50633          	add	a2,a0,a2
    1f18:	00001537          	lui	a0,0x1
    1f1c:	40a40533          	sub	a0,s0,a0
    1f20:	7ec53823          	sd	a2,2032(a0) # 17f0 <.LBB96_5+0x68>
    1f24:	03dc8533          	mul	a0,s9,t4
    1f28:	000015b7          	lui	a1,0x1
    1f2c:	40b405b3          	sub	a1,s0,a1
    1f30:	7f85b603          	ld	a2,2040(a1) # 17f8 <.LBB96_5+0x70>
    1f34:	00c50633          	add	a2,a0,a2
    1f38:	00001537          	lui	a0,0x1
    1f3c:	40a40533          	sub	a0,s0,a0
    1f40:	7ec53c23          	sd	a2,2040(a0) # 17f8 <.LBB96_5+0x70>
    1f44:	02fc8533          	mul	a0,s9,a5
    1f48:	80043603          	ld	a2,-2048(s0)
    1f4c:	00c50633          	add	a2,a0,a2
    1f50:	80c43023          	sd	a2,-2048(s0)
    1f54:	031c8533          	mul	a0,s9,a7
    1f58:	80843603          	ld	a2,-2040(s0)
    1f5c:	00c50633          	add	a2,a0,a2
    1f60:	80c43423          	sd	a2,-2040(s0)
    1f64:	f3843303          	ld	t1,-200(s0)
    1f68:	026c8533          	mul	a0,s9,t1
    1f6c:	81043603          	ld	a2,-2032(s0)
    1f70:	00c50633          	add	a2,a0,a2
    1f74:	80c43823          	sd	a2,-2032(s0)
    1f78:	f5843383          	ld	t2,-168(s0)
    1f7c:	027c8533          	mul	a0,s9,t2
    1f80:	81843603          	ld	a2,-2024(s0)
    1f84:	00c50633          	add	a2,a0,a2
    1f88:	80c43c23          	sd	a2,-2024(s0)
    1f8c:	f6843503          	ld	a0,-152(s0)
    1f90:	02ac8533          	mul	a0,s9,a0
    1f94:	82043603          	ld	a2,-2016(s0)
    1f98:	00c50633          	add	a2,a0,a2
    1f9c:	82c43023          	sd	a2,-2016(s0)
    1fa0:	f4043983          	ld	s3,-192(s0)
    1fa4:	033c8533          	mul	a0,s9,s3
    1fa8:	82843603          	ld	a2,-2008(s0)
    1fac:	00c50633          	add	a2,a0,a2
    1fb0:	82c43423          	sd	a2,-2008(s0)
    1fb4:	e9043683          	ld	a3,-368(s0)
    1fb8:	02dc8533          	mul	a0,s9,a3
    1fbc:	83043603          	ld	a2,-2000(s0)
    1fc0:	00c50633          	add	a2,a0,a2
    1fc4:	82c43823          	sd	a2,-2000(s0)
    1fc8:	e9843583          	ld	a1,-360(s0)
    1fcc:	02bc8533          	mul	a0,s9,a1
    1fd0:	83843603          	ld	a2,-1992(s0)
    1fd4:	00c50633          	add	a2,a0,a2
    1fd8:	82c43c23          	sd	a2,-1992(s0)
    1fdc:	ea043283          	ld	t0,-352(s0)
    1fe0:	025c8533          	mul	a0,s9,t0
    1fe4:	84043603          	ld	a2,-1984(s0)
    1fe8:	00c50633          	add	a2,a0,a2
    1fec:	84c43023          	sd	a2,-1984(s0)
    1ff0:	035c8533          	mul	a0,s9,s5
    1ff4:	84843603          	ld	a2,-1976(s0)
    1ff8:	00c50633          	add	a2,a0,a2
    1ffc:	84c43423          	sd	a2,-1976(s0)
    2000:	e7043703          	ld	a4,-400(s0)
    2004:	02ec8533          	mul	a0,s9,a4
    2008:	85043603          	ld	a2,-1968(s0)
    200c:	00c50633          	add	a2,a0,a2
    2010:	84c43823          	sd	a2,-1968(s0)
    2014:	e6843783          	ld	a5,-408(s0)
    2018:	02fc8533          	mul	a0,s9,a5
    201c:	85843603          	ld	a2,-1960(s0)
    2020:	00c50633          	add	a2,a0,a2
    2024:	84c43c23          	sd	a2,-1960(s0)
    2028:	021c8533          	mul	a0,s9,ra
    202c:	e4143823          	sd	ra,-432(s0)
    2030:	86043603          	ld	a2,-1952(s0)
    2034:	00c50633          	add	a2,a0,a2
    2038:	86c43023          	sd	a2,-1952(s0)
    203c:	037c8533          	mul	a0,s9,s7
    2040:	86843603          	ld	a2,-1944(s0)
    2044:	00c50633          	add	a2,a0,a2
    2048:	86c43423          	sd	a2,-1944(s0)
    204c:	eb043503          	ld	a0,-336(s0)
    2050:	02ac8533          	mul	a0,s9,a0
    2054:	87043603          	ld	a2,-1936(s0)
    2058:	00c50633          	add	a2,a0,a2
    205c:	86c43823          	sd	a2,-1936(s0)
    2060:	f8043503          	ld	a0,-128(s0)
    2064:	14050503          	lb	a0,320(a0)
    2068:	f5043483          	ld	s1,-176(s0)
    206c:	029c8db3          	mul	s11,s9,s1
    2070:	87843603          	ld	a2,-1928(s0)
    2074:	00cd8633          	add	a2,s11,a2
    2078:	86c43c23          	sd	a2,-1928(s0)
    207c:	e1043b83          	ld	s7,-496(s0)
    2080:	037c8cb3          	mul	s9,s9,s7
    2084:	88043603          	ld	a2,-1920(s0)
    2088:	00cc8633          	add	a2,s9,a2
    208c:	88c43023          	sd	a2,-1920(s0)
    2090:	eb843603          	ld	a2,-328(s0)
    2094:	02c50cb3          	mul	s9,a0,a2
    2098:	8a043603          	ld	a2,-1888(s0)
    209c:	00cc8633          	add	a2,s9,a2
    20a0:	8ac43023          	sd	a2,-1888(s0)
    20a4:	03c50cb3          	mul	s9,a0,t3
    20a8:	89843603          	ld	a2,-1896(s0)
    20ac:	00cc8633          	add	a2,s9,a2
    20b0:	88c43c23          	sd	a2,-1896(s0)
    20b4:	000c0f13          	mv	t5,s8
    20b8:	03850cb3          	mul	s9,a0,s8
    20bc:	89043603          	ld	a2,-1904(s0)
    20c0:	00cc8633          	add	a2,s9,a2
    20c4:	88c43823          	sd	a2,-1904(s0)
    20c8:	03a50cb3          	mul	s9,a0,s10
    20cc:	88843603          	ld	a2,-1912(s0)
    20d0:	00cc8633          	add	a2,s9,a2
    20d4:	88c43423          	sd	a2,-1912(s0)
    20d8:	f4843a03          	ld	s4,-184(s0)
    20dc:	03450cb3          	mul	s9,a0,s4
    20e0:	8a843603          	ld	a2,-1880(s0)
    20e4:	00cc8633          	add	a2,s9,a2
    20e8:	8ac43423          	sd	a2,-1880(s0)
    20ec:	f7043883          	ld	a7,-144(s0)
    20f0:	03150cb3          	mul	s9,a0,a7
    20f4:	8b043603          	ld	a2,-1872(s0)
    20f8:	00cc8633          	add	a2,s9,a2
    20fc:	8ac43823          	sd	a2,-1872(s0)
    2100:	03250cb3          	mul	s9,a0,s2
    2104:	8b843603          	ld	a2,-1864(s0)
    2108:	00cc8633          	add	a2,s9,a2
    210c:	8ac43c23          	sd	a2,-1864(s0)
    2110:	03650cb3          	mul	s9,a0,s6
    2114:	8c043603          	ld	a2,-1856(s0)
    2118:	00cc8633          	add	a2,s9,a2
    211c:	8cc43023          	sd	a2,-1856(s0)
    2120:	000f8c13          	mv	s8,t6
    2124:	03f50cb3          	mul	s9,a0,t6
    2128:	8c843603          	ld	a2,-1848(s0)
    212c:	00cc8633          	add	a2,s9,a2
    2130:	8cc43423          	sd	a2,-1848(s0)
    2134:	03050cb3          	mul	s9,a0,a6
    2138:	8d043603          	ld	a2,-1840(s0)
    213c:	00cc8633          	add	a2,s9,a2
    2140:	8cc43823          	sd	a2,-1840(s0)
    2144:	e2043803          	ld	a6,-480(s0)
    2148:	03050cb3          	mul	s9,a0,a6
    214c:	8d843603          	ld	a2,-1832(s0)
    2150:	00cc8633          	add	a2,s9,a2
    2154:	8cc43c23          	sd	a2,-1832(s0)
    2158:	e4843603          	ld	a2,-440(s0)
    215c:	02c50cb3          	mul	s9,a0,a2
    2160:	8e043603          	ld	a2,-1824(s0)
    2164:	00cc8633          	add	a2,s9,a2
    2168:	8ec43023          	sd	a2,-1824(s0)
    216c:	e6043e03          	ld	t3,-416(s0)
    2170:	03c50cb3          	mul	s9,a0,t3
    2174:	8e843603          	ld	a2,-1816(s0)
    2178:	00cc8633          	add	a2,s9,a2
    217c:	8ec43423          	sd	a2,-1816(s0)
    2180:	e4043603          	ld	a2,-448(s0)
    2184:	02c50cb3          	mul	s9,a0,a2
    2188:	8f043603          	ld	a2,-1808(s0)
    218c:	00cc8633          	add	a2,s9,a2
    2190:	8ec43823          	sd	a2,-1808(s0)
    2194:	00001637          	lui	a2,0x1
    2198:	40c40633          	sub	a2,s0,a2
    219c:	67d63c23          	sd	t4,1656(a2) # 1678 <.LBB96_4+0x498>
    21a0:	03d50cb3          	mul	s9,a0,t4
    21a4:	8f843603          	ld	a2,-1800(s0)
    21a8:	00cc8633          	add	a2,s9,a2
    21ac:	8ec43c23          	sd	a2,-1800(s0)
    21b0:	f6043603          	ld	a2,-160(s0)
    21b4:	02c50cb3          	mul	s9,a0,a2
    21b8:	90043603          	ld	a2,-1792(s0)
    21bc:	00cc8633          	add	a2,s9,a2
    21c0:	90c43023          	sd	a2,-1792(s0)
    21c4:	f7843603          	ld	a2,-136(s0)
    21c8:	02c50cb3          	mul	s9,a0,a2
    21cc:	90843603          	ld	a2,-1784(s0)
    21d0:	00cc8633          	add	a2,s9,a2
    21d4:	90c43423          	sd	a2,-1784(s0)
    21d8:	02650cb3          	mul	s9,a0,t1
    21dc:	91043603          	ld	a2,-1776(s0)
    21e0:	00cc8633          	add	a2,s9,a2
    21e4:	90c43823          	sd	a2,-1776(s0)
    21e8:	02750cb3          	mul	s9,a0,t2
    21ec:	91843603          	ld	a2,-1768(s0)
    21f0:	00cc8633          	add	a2,s9,a2
    21f4:	90c43c23          	sd	a2,-1768(s0)
    21f8:	f6843f83          	ld	t6,-152(s0)
    21fc:	03f50cb3          	mul	s9,a0,t6
    2200:	92043603          	ld	a2,-1760(s0)
    2204:	00cc8633          	add	a2,s9,a2
    2208:	92c43023          	sd	a2,-1760(s0)
    220c:	03350cb3          	mul	s9,a0,s3
    2210:	92843603          	ld	a2,-1752(s0)
    2214:	00cc8633          	add	a2,s9,a2
    2218:	92c43423          	sd	a2,-1752(s0)
    221c:	02d50cb3          	mul	s9,a0,a3
    2220:	00068313          	mv	t1,a3
    2224:	93043603          	ld	a2,-1744(s0)
    2228:	00cc8633          	add	a2,s9,a2
    222c:	92c43823          	sd	a2,-1744(s0)
    2230:	02b50cb3          	mul	s9,a0,a1
    2234:	93843603          	ld	a2,-1736(s0)
    2238:	00cc8633          	add	a2,s9,a2
    223c:	92c43c23          	sd	a2,-1736(s0)
    2240:	02550cb3          	mul	s9,a0,t0
    2244:	94043603          	ld	a2,-1728(s0)
    2248:	00cc8633          	add	a2,s9,a2
    224c:	94c43023          	sd	a2,-1728(s0)
    2250:	03550cb3          	mul	s9,a0,s5
    2254:	000a8993          	mv	s3,s5
    2258:	e3543423          	sd	s5,-472(s0)
    225c:	94843603          	ld	a2,-1720(s0)
    2260:	00cc8633          	add	a2,s9,a2
    2264:	94c43423          	sd	a2,-1720(s0)
    2268:	02e50cb3          	mul	s9,a0,a4
    226c:	95043603          	ld	a2,-1712(s0)
    2270:	00cc8633          	add	a2,s9,a2
    2274:	94c43823          	sd	a2,-1712(s0)
    2278:	02f50cb3          	mul	s9,a0,a5
    227c:	95843603          	ld	a2,-1704(s0)
    2280:	00cc8633          	add	a2,s9,a2
    2284:	94c43c23          	sd	a2,-1704(s0)
    2288:	02150cb3          	mul	s9,a0,ra
    228c:	96043603          	ld	a2,-1696(s0)
    2290:	00cc8633          	add	a2,s9,a2
    2294:	96c43023          	sd	a2,-1696(s0)
    2298:	e1843703          	ld	a4,-488(s0)
    229c:	02e50cb3          	mul	s9,a0,a4
    22a0:	96843603          	ld	a2,-1688(s0)
    22a4:	00cc8633          	add	a2,s9,a2
    22a8:	96c43423          	sd	a2,-1688(s0)
    22ac:	eb043a83          	ld	s5,-336(s0)
    22b0:	03550cb3          	mul	s9,a0,s5
    22b4:	97043603          	ld	a2,-1680(s0)
    22b8:	00cc8633          	add	a2,s9,a2
    22bc:	96c43823          	sd	a2,-1680(s0)
    22c0:	f8043603          	ld	a2,-128(s0)
    22c4:	1e060c83          	lb	s9,480(a2)
    22c8:	02950db3          	mul	s11,a0,s1
    22cc:	97843603          	ld	a2,-1672(s0)
    22d0:	00cd8633          	add	a2,s11,a2
    22d4:	96c43c23          	sd	a2,-1672(s0)
    22d8:	03750533          	mul	a0,a0,s7
    22dc:	98043603          	ld	a2,-1664(s0)
    22e0:	00c50633          	add	a2,a0,a2
    22e4:	98c43023          	sd	a2,-1664(s0)
    22e8:	eb843083          	ld	ra,-328(s0)
    22ec:	021c8533          	mul	a0,s9,ra
    22f0:	9a043603          	ld	a2,-1632(s0)
    22f4:	00c50633          	add	a2,a0,a2
    22f8:	9ac43023          	sd	a2,-1632(s0)
    22fc:	e8843583          	ld	a1,-376(s0)
    2300:	02bc8533          	mul	a0,s9,a1
    2304:	99843603          	ld	a2,-1640(s0)
    2308:	00c50633          	add	a2,a0,a2
    230c:	98c43c23          	sd	a2,-1640(s0)
    2310:	03ec8533          	mul	a0,s9,t5
    2314:	99043603          	ld	a2,-1648(s0)
    2318:	00c50633          	add	a2,a0,a2
    231c:	98c43823          	sd	a2,-1648(s0)
    2320:	000d0393          	mv	t2,s10
    2324:	03ac8533          	mul	a0,s9,s10
    2328:	98843603          	ld	a2,-1656(s0)
    232c:	00c50633          	add	a2,a0,a2
    2330:	98c43423          	sd	a2,-1656(s0)
    2334:	000a0793          	mv	a5,s4
    2338:	034c8533          	mul	a0,s9,s4
    233c:	9a843603          	ld	a2,-1624(s0)
    2340:	00c50633          	add	a2,a0,a2
    2344:	9ac43423          	sd	a2,-1624(s0)
    2348:	031c8533          	mul	a0,s9,a7
    234c:	9b043603          	ld	a2,-1616(s0)
    2350:	00c50633          	add	a2,a0,a2
    2354:	9ac43823          	sd	a2,-1616(s0)
    2358:	032c8533          	mul	a0,s9,s2
    235c:	00090b93          	mv	s7,s2
    2360:	9b843603          	ld	a2,-1608(s0)
    2364:	00c50633          	add	a2,a0,a2
    2368:	9ac43c23          	sd	a2,-1608(s0)
    236c:	036c8533          	mul	a0,s9,s6
    2370:	000b0a13          	mv	s4,s6
    2374:	9c043603          	ld	a2,-1600(s0)
    2378:	00c50633          	add	a2,a0,a2
    237c:	9cc43023          	sd	a2,-1600(s0)
    2380:	038c8533          	mul	a0,s9,s8
    2384:	9c843603          	ld	a2,-1592(s0)
    2388:	00c50633          	add	a2,a0,a2
    238c:	9cc43423          	sd	a2,-1592(s0)
    2390:	e5843d03          	ld	s10,-424(s0)
    2394:	03ac8533          	mul	a0,s9,s10
    2398:	9d043603          	ld	a2,-1584(s0)
    239c:	00c50633          	add	a2,a0,a2
    23a0:	9cc43823          	sd	a2,-1584(s0)
    23a4:	030c8533          	mul	a0,s9,a6
    23a8:	9d843603          	ld	a2,-1576(s0)
    23ac:	00c50633          	add	a2,a0,a2
    23b0:	9cc43c23          	sd	a2,-1576(s0)
    23b4:	e4843483          	ld	s1,-440(s0)
    23b8:	029c8533          	mul	a0,s9,s1
    23bc:	9e043603          	ld	a2,-1568(s0)
    23c0:	00c50633          	add	a2,a0,a2
    23c4:	9ec43023          	sd	a2,-1568(s0)
    23c8:	03cc8533          	mul	a0,s9,t3
    23cc:	9e843603          	ld	a2,-1560(s0)
    23d0:	00c50633          	add	a2,a0,a2
    23d4:	9ec43423          	sd	a2,-1560(s0)
    23d8:	e4043283          	ld	t0,-448(s0)
    23dc:	025c8533          	mul	a0,s9,t0
    23e0:	9f043603          	ld	a2,-1552(s0)
    23e4:	00c50633          	add	a2,a0,a2
    23e8:	9ec43823          	sd	a2,-1552(s0)
    23ec:	03dc8533          	mul	a0,s9,t4
    23f0:	9f843603          	ld	a2,-1544(s0)
    23f4:	00c50633          	add	a2,a0,a2
    23f8:	9ec43c23          	sd	a2,-1544(s0)
    23fc:	f6043e03          	ld	t3,-160(s0)
    2400:	03cc8533          	mul	a0,s9,t3
    2404:	a0043603          	ld	a2,-1536(s0)
    2408:	00c50633          	add	a2,a0,a2
    240c:	a0c43023          	sd	a2,-1536(s0)
    2410:	f7843683          	ld	a3,-136(s0)
    2414:	02dc8533          	mul	a0,s9,a3
    2418:	a0843603          	ld	a2,-1528(s0)
    241c:	00c50633          	add	a2,a0,a2
    2420:	a0c43423          	sd	a2,-1528(s0)
    2424:	f3843883          	ld	a7,-200(s0)
    2428:	031c8533          	mul	a0,s9,a7
    242c:	a1043603          	ld	a2,-1520(s0)
    2430:	00c50633          	add	a2,a0,a2
    2434:	a0c43823          	sd	a2,-1520(s0)
    2438:	f5843503          	ld	a0,-168(s0)
    243c:	02ac8533          	mul	a0,s9,a0
    2440:	a1843603          	ld	a2,-1512(s0)
    2444:	00c50633          	add	a2,a0,a2
    2448:	a0c43c23          	sd	a2,-1512(s0)
    244c:	03fc8533          	mul	a0,s9,t6
    2450:	a2043603          	ld	a2,-1504(s0)
    2454:	00c50633          	add	a2,a0,a2
    2458:	a2c43023          	sd	a2,-1504(s0)
    245c:	f4043903          	ld	s2,-192(s0)
    2460:	032c8533          	mul	a0,s9,s2
    2464:	a2843603          	ld	a2,-1496(s0)
    2468:	00c50633          	add	a2,a0,a2
    246c:	a2c43423          	sd	a2,-1496(s0)
    2470:	026c8533          	mul	a0,s9,t1
    2474:	a3043603          	ld	a2,-1488(s0)
    2478:	00c50633          	add	a2,a0,a2
    247c:	a2c43823          	sd	a2,-1488(s0)
    2480:	e9843803          	ld	a6,-360(s0)
    2484:	030c8533          	mul	a0,s9,a6
    2488:	a3843603          	ld	a2,-1480(s0)
    248c:	00c50633          	add	a2,a0,a2
    2490:	a2c43c23          	sd	a2,-1480(s0)
    2494:	ea043b03          	ld	s6,-352(s0)
    2498:	036c8533          	mul	a0,s9,s6
    249c:	a4043603          	ld	a2,-1472(s0)
    24a0:	00c50633          	add	a2,a0,a2
    24a4:	a4c43023          	sd	a2,-1472(s0)
    24a8:	033c8533          	mul	a0,s9,s3
    24ac:	a4843603          	ld	a2,-1464(s0)
    24b0:	00c50633          	add	a2,a0,a2
    24b4:	a4c43423          	sd	a2,-1464(s0)
    24b8:	e7043e83          	ld	t4,-400(s0)
    24bc:	03dc8533          	mul	a0,s9,t4
    24c0:	a5043603          	ld	a2,-1456(s0)
    24c4:	00c50633          	add	a2,a0,a2
    24c8:	a4c43823          	sd	a2,-1456(s0)
    24cc:	e6843f03          	ld	t5,-408(s0)
    24d0:	03ec8533          	mul	a0,s9,t5
    24d4:	a5843603          	ld	a2,-1448(s0)
    24d8:	00c50633          	add	a2,a0,a2
    24dc:	a4c43c23          	sd	a2,-1448(s0)
    24e0:	e5043503          	ld	a0,-432(s0)
    24e4:	02ac8533          	mul	a0,s9,a0
    24e8:	a6043603          	ld	a2,-1440(s0)
    24ec:	00c50633          	add	a2,a0,a2
    24f0:	a6c43023          	sd	a2,-1440(s0)
    24f4:	02ec8533          	mul	a0,s9,a4
    24f8:	a6843603          	ld	a2,-1432(s0)
    24fc:	00c50633          	add	a2,a0,a2
    2500:	a6c43423          	sd	a2,-1432(s0)
    2504:	035c8533          	mul	a0,s9,s5
    2508:	a7043603          	ld	a2,-1424(s0)
    250c:	00c50633          	add	a2,a0,a2
    2510:	a6c43823          	sd	a2,-1424(s0)
    2514:	f8043503          	ld	a0,-128(s0)
    2518:	28050503          	lb	a0,640(a0)
    251c:	f5043603          	ld	a2,-176(s0)
    2520:	02cc8db3          	mul	s11,s9,a2
    2524:	a7843603          	ld	a2,-1416(s0)
    2528:	00cd8633          	add	a2,s11,a2
    252c:	a6c43c23          	sd	a2,-1416(s0)
    2530:	e1043303          	ld	t1,-496(s0)
    2534:	026c8cb3          	mul	s9,s9,t1
    2538:	a8043603          	ld	a2,-1408(s0)
    253c:	00cc8633          	add	a2,s9,a2
    2540:	a8c43023          	sd	a2,-1408(s0)
    2544:	00008f93          	mv	t6,ra
    2548:	02150cb3          	mul	s9,a0,ra
    254c:	aa043603          	ld	a2,-1376(s0)
    2550:	00cc8633          	add	a2,s9,a2
    2554:	aac43023          	sd	a2,-1376(s0)
    2558:	02b50cb3          	mul	s9,a0,a1
    255c:	a9843603          	ld	a2,-1384(s0)
    2560:	00cc8633          	add	a2,s9,a2
    2564:	a8c43c23          	sd	a2,-1384(s0)
    2568:	ea843083          	ld	ra,-344(s0)
    256c:	02150cb3          	mul	s9,a0,ra
    2570:	a9043603          	ld	a2,-1392(s0)
    2574:	00cc8633          	add	a2,s9,a2
    2578:	a8c43823          	sd	a2,-1392(s0)
    257c:	02750cb3          	mul	s9,a0,t2
    2580:	a8843603          	ld	a2,-1400(s0)
    2584:	00cc8633          	add	a2,s9,a2
    2588:	a8c43423          	sd	a2,-1400(s0)
    258c:	02f50cb3          	mul	s9,a0,a5
    2590:	aa843603          	ld	a2,-1368(s0)
    2594:	00cc8633          	add	a2,s9,a2
    2598:	aac43423          	sd	a2,-1368(s0)
    259c:	f7043703          	ld	a4,-144(s0)
    25a0:	02e50cb3          	mul	s9,a0,a4
    25a4:	ab043603          	ld	a2,-1360(s0)
    25a8:	00cc8633          	add	a2,s9,a2
    25ac:	aac43823          	sd	a2,-1360(s0)
    25b0:	03750cb3          	mul	s9,a0,s7
    25b4:	ab843603          	ld	a2,-1352(s0)
    25b8:	00cc8633          	add	a2,s9,a2
    25bc:	aac43c23          	sd	a2,-1352(s0)
    25c0:	03450cb3          	mul	s9,a0,s4
    25c4:	ac043603          	ld	a2,-1344(s0)
    25c8:	00cc8633          	add	a2,s9,a2
    25cc:	acc43023          	sd	a2,-1344(s0)
    25d0:	03850cb3          	mul	s9,a0,s8
    25d4:	ac843603          	ld	a2,-1336(s0)
    25d8:	00cc8633          	add	a2,s9,a2
    25dc:	acc43423          	sd	a2,-1336(s0)
    25e0:	03a50cb3          	mul	s9,a0,s10
    25e4:	ad043603          	ld	a2,-1328(s0)
    25e8:	00cc8633          	add	a2,s9,a2
    25ec:	acc43823          	sd	a2,-1328(s0)
    25f0:	e2043a03          	ld	s4,-480(s0)
    25f4:	03450cb3          	mul	s9,a0,s4
    25f8:	ad843603          	ld	a2,-1320(s0)
    25fc:	00cc8633          	add	a2,s9,a2
    2600:	acc43c23          	sd	a2,-1320(s0)
    2604:	00048993          	mv	s3,s1
    2608:	02950cb3          	mul	s9,a0,s1
    260c:	ae043603          	ld	a2,-1312(s0)
    2610:	00cc8633          	add	a2,s9,a2
    2614:	aec43023          	sd	a2,-1312(s0)
    2618:	e6043483          	ld	s1,-416(s0)
    261c:	02950cb3          	mul	s9,a0,s1
    2620:	ae843603          	ld	a2,-1304(s0)
    2624:	00cc8633          	add	a2,s9,a2
    2628:	aec43423          	sd	a2,-1304(s0)
    262c:	00028d13          	mv	s10,t0
    2630:	02550cb3          	mul	s9,a0,t0
    2634:	af043603          	ld	a2,-1296(s0)
    2638:	00cc8633          	add	a2,s9,a2
    263c:	aec43823          	sd	a2,-1296(s0)
    2640:	00001637          	lui	a2,0x1
    2644:	40c40633          	sub	a2,s0,a2
    2648:	67863783          	ld	a5,1656(a2) # 1678 <.LBB96_4+0x498>
    264c:	02f50cb3          	mul	s9,a0,a5
    2650:	af843603          	ld	a2,-1288(s0)
    2654:	00cc8633          	add	a2,s9,a2
    2658:	aec43c23          	sd	a2,-1288(s0)
    265c:	03c50cb3          	mul	s9,a0,t3
    2660:	b0043603          	ld	a2,-1280(s0)
    2664:	00cc8633          	add	a2,s9,a2
    2668:	b0c43023          	sd	a2,-1280(s0)
    266c:	02d50cb3          	mul	s9,a0,a3
    2670:	b0843603          	ld	a2,-1272(s0)
    2674:	00cc8633          	add	a2,s9,a2
    2678:	b0c43423          	sd	a2,-1272(s0)
    267c:	03150cb3          	mul	s9,a0,a7
    2680:	b1043603          	ld	a2,-1264(s0)
    2684:	00cc8633          	add	a2,s9,a2
    2688:	b0c43823          	sd	a2,-1264(s0)
    268c:	f5843683          	ld	a3,-168(s0)
    2690:	02d50cb3          	mul	s9,a0,a3
    2694:	b1843603          	ld	a2,-1256(s0)
    2698:	00cc8633          	add	a2,s9,a2
    269c:	b0c43c23          	sd	a2,-1256(s0)
    26a0:	f6843e03          	ld	t3,-152(s0)
    26a4:	03c50cb3          	mul	s9,a0,t3
    26a8:	b2043603          	ld	a2,-1248(s0)
    26ac:	00cc8633          	add	a2,s9,a2
    26b0:	b2c43023          	sd	a2,-1248(s0)
    26b4:	03250cb3          	mul	s9,a0,s2
    26b8:	b2843603          	ld	a2,-1240(s0)
    26bc:	00cc8633          	add	a2,s9,a2
    26c0:	b2c43423          	sd	a2,-1240(s0)
    26c4:	e9043383          	ld	t2,-368(s0)
    26c8:	02750cb3          	mul	s9,a0,t2
    26cc:	b3043603          	ld	a2,-1232(s0)
    26d0:	00cc8633          	add	a2,s9,a2
    26d4:	b2c43823          	sd	a2,-1232(s0)
    26d8:	03050cb3          	mul	s9,a0,a6
    26dc:	b3843603          	ld	a2,-1224(s0)
    26e0:	00cc8633          	add	a2,s9,a2
    26e4:	b2c43c23          	sd	a2,-1224(s0)
    26e8:	03650cb3          	mul	s9,a0,s6
    26ec:	b4043603          	ld	a2,-1216(s0)
    26f0:	00cc8633          	add	a2,s9,a2
    26f4:	b4c43023          	sd	a2,-1216(s0)
    26f8:	e2843b03          	ld	s6,-472(s0)
    26fc:	03650cb3          	mul	s9,a0,s6
    2700:	b4843603          	ld	a2,-1208(s0)
    2704:	00cc8633          	add	a2,s9,a2
    2708:	b4c43423          	sd	a2,-1208(s0)
    270c:	03d50cb3          	mul	s9,a0,t4
    2710:	b5043603          	ld	a2,-1200(s0)
    2714:	00cc8633          	add	a2,s9,a2
    2718:	b4c43823          	sd	a2,-1200(s0)
    271c:	03e50cb3          	mul	s9,a0,t5
    2720:	b5843603          	ld	a2,-1192(s0)
    2724:	00cc8633          	add	a2,s9,a2
    2728:	b4c43c23          	sd	a2,-1192(s0)
    272c:	e5043803          	ld	a6,-432(s0)
    2730:	03050cb3          	mul	s9,a0,a6
    2734:	b6043603          	ld	a2,-1184(s0)
    2738:	00cc8633          	add	a2,s9,a2
    273c:	b6c43023          	sd	a2,-1184(s0)
    2740:	e1843283          	ld	t0,-488(s0)
    2744:	02550cb3          	mul	s9,a0,t0
    2748:	b6843603          	ld	a2,-1176(s0)
    274c:	00cc8633          	add	a2,s9,a2
    2750:	b6c43423          	sd	a2,-1176(s0)
    2754:	03550cb3          	mul	s9,a0,s5
    2758:	b7043603          	ld	a2,-1168(s0)
    275c:	00cc8633          	add	a2,s9,a2
    2760:	b6c43823          	sd	a2,-1168(s0)
    2764:	f8043603          	ld	a2,-128(s0)
    2768:	32060c83          	lb	s9,800(a2)
    276c:	f5043603          	ld	a2,-176(s0)
    2770:	02c50db3          	mul	s11,a0,a2
    2774:	b7843603          	ld	a2,-1160(s0)
    2778:	00cd8633          	add	a2,s11,a2
    277c:	b6c43c23          	sd	a2,-1160(s0)
    2780:	02650533          	mul	a0,a0,t1
    2784:	b8043603          	ld	a2,-1152(s0)
    2788:	00c50633          	add	a2,a0,a2
    278c:	b8c43023          	sd	a2,-1152(s0)
    2790:	000f8893          	mv	a7,t6
    2794:	03fc8533          	mul	a0,s9,t6
    2798:	ba043603          	ld	a2,-1120(s0)
    279c:	00c50633          	add	a2,a0,a2
    27a0:	bac43023          	sd	a2,-1120(s0)
    27a4:	02bc8533          	mul	a0,s9,a1
    27a8:	b9843603          	ld	a2,-1128(s0)
    27ac:	00c50633          	add	a2,a0,a2
    27b0:	b8c43c23          	sd	a2,-1128(s0)
    27b4:	00008f93          	mv	t6,ra
    27b8:	021c8533          	mul	a0,s9,ra
    27bc:	b9043603          	ld	a2,-1136(s0)
    27c0:	00c50633          	add	a2,a0,a2
    27c4:	b8c43823          	sd	a2,-1136(s0)
    27c8:	e8043903          	ld	s2,-384(s0)
    27cc:	032c8533          	mul	a0,s9,s2
    27d0:	b8843603          	ld	a2,-1144(s0)
    27d4:	00c50633          	add	a2,a0,a2
    27d8:	b8c43423          	sd	a2,-1144(s0)
    27dc:	f4843083          	ld	ra,-184(s0)
    27e0:	021c8533          	mul	a0,s9,ra
    27e4:	ba843603          	ld	a2,-1112(s0)
    27e8:	00c50633          	add	a2,a0,a2
    27ec:	bac43423          	sd	a2,-1112(s0)
    27f0:	02ec8533          	mul	a0,s9,a4
    27f4:	bb043603          	ld	a2,-1104(s0)
    27f8:	00c50633          	add	a2,a0,a2
    27fc:	bac43823          	sd	a2,-1104(s0)
    2800:	037c8533          	mul	a0,s9,s7
    2804:	bb843603          	ld	a2,-1096(s0)
    2808:	00c50633          	add	a2,a0,a2
    280c:	bac43c23          	sd	a2,-1096(s0)
    2810:	e7843b83          	ld	s7,-392(s0)
    2814:	037c8533          	mul	a0,s9,s7
    2818:	bc043603          	ld	a2,-1088(s0)
    281c:	00c50633          	add	a2,a0,a2
    2820:	bcc43023          	sd	a2,-1088(s0)
    2824:	038c8533          	mul	a0,s9,s8
    2828:	bc843603          	ld	a2,-1080(s0)
    282c:	00c50633          	add	a2,a0,a2
    2830:	bcc43423          	sd	a2,-1080(s0)
    2834:	e5843703          	ld	a4,-424(s0)
    2838:	02ec8533          	mul	a0,s9,a4
    283c:	bd043603          	ld	a2,-1072(s0)
    2840:	00c50633          	add	a2,a0,a2
    2844:	bcc43823          	sd	a2,-1072(s0)
    2848:	034c8533          	mul	a0,s9,s4
    284c:	bd843603          	ld	a2,-1064(s0)
    2850:	00c50633          	add	a2,a0,a2
    2854:	bcc43c23          	sd	a2,-1064(s0)
    2858:	033c8533          	mul	a0,s9,s3
    285c:	be043603          	ld	a2,-1056(s0)
    2860:	00c50633          	add	a2,a0,a2
    2864:	bec43023          	sd	a2,-1056(s0)
    2868:	029c8533          	mul	a0,s9,s1
    286c:	be843603          	ld	a2,-1048(s0)
    2870:	00c50633          	add	a2,a0,a2
    2874:	bec43423          	sd	a2,-1048(s0)
    2878:	03ac8533          	mul	a0,s9,s10
    287c:	bf043603          	ld	a2,-1040(s0)
    2880:	00c50633          	add	a2,a0,a2
    2884:	bec43823          	sd	a2,-1040(s0)
    2888:	02fc8533          	mul	a0,s9,a5
    288c:	00078c13          	mv	s8,a5
    2890:	bf843603          	ld	a2,-1032(s0)
    2894:	00c50633          	add	a2,a0,a2
    2898:	bec43c23          	sd	a2,-1032(s0)
    289c:	f6043783          	ld	a5,-160(s0)
    28a0:	02fc8533          	mul	a0,s9,a5
    28a4:	c0043603          	ld	a2,-1024(s0)
    28a8:	00c50633          	add	a2,a0,a2
    28ac:	c0c43023          	sd	a2,-1024(s0)
    28b0:	f7843503          	ld	a0,-136(s0)
    28b4:	02ac8533          	mul	a0,s9,a0
    28b8:	c0843603          	ld	a2,-1016(s0)
    28bc:	00c50633          	add	a2,a0,a2
    28c0:	c0c43423          	sd	a2,-1016(s0)
    28c4:	f3843503          	ld	a0,-200(s0)
    28c8:	02ac8533          	mul	a0,s9,a0
    28cc:	c1043603          	ld	a2,-1008(s0)
    28d0:	00c50633          	add	a2,a0,a2
    28d4:	c0c43823          	sd	a2,-1008(s0)
    28d8:	02dc8533          	mul	a0,s9,a3
    28dc:	c1843603          	ld	a2,-1000(s0)
    28e0:	00c50633          	add	a2,a0,a2
    28e4:	c0c43c23          	sd	a2,-1000(s0)
    28e8:	03cc8533          	mul	a0,s9,t3
    28ec:	c2043603          	ld	a2,-992(s0)
    28f0:	00c50633          	add	a2,a0,a2
    28f4:	c2c43023          	sd	a2,-992(s0)
    28f8:	f4043503          	ld	a0,-192(s0)
    28fc:	02ac8533          	mul	a0,s9,a0
    2900:	c2843603          	ld	a2,-984(s0)
    2904:	00c50633          	add	a2,a0,a2
    2908:	c2c43423          	sd	a2,-984(s0)
    290c:	027c8533          	mul	a0,s9,t2
    2910:	c3043603          	ld	a2,-976(s0)
    2914:	00c50633          	add	a2,a0,a2
    2918:	c2c43823          	sd	a2,-976(s0)
    291c:	e9843e83          	ld	t4,-360(s0)
    2920:	03dc8533          	mul	a0,s9,t4
    2924:	c3843603          	ld	a2,-968(s0)
    2928:	00c50633          	add	a2,a0,a2
    292c:	c2c43c23          	sd	a2,-968(s0)
    2930:	ea043e03          	ld	t3,-352(s0)
    2934:	03cc8533          	mul	a0,s9,t3
    2938:	c4043603          	ld	a2,-960(s0)
    293c:	00c50633          	add	a2,a0,a2
    2940:	c4c43023          	sd	a2,-960(s0)
    2944:	036c8533          	mul	a0,s9,s6
    2948:	c4843603          	ld	a2,-952(s0)
    294c:	00c50633          	add	a2,a0,a2
    2950:	c4c43423          	sd	a2,-952(s0)
    2954:	e7043b03          	ld	s6,-400(s0)
    2958:	036c8533          	mul	a0,s9,s6
    295c:	c5043603          	ld	a2,-944(s0)
    2960:	00c50633          	add	a2,a0,a2
    2964:	c4c43823          	sd	a2,-944(s0)
    2968:	03ec8533          	mul	a0,s9,t5
    296c:	c5843603          	ld	a2,-936(s0)
    2970:	00c50633          	add	a2,a0,a2
    2974:	c4c43c23          	sd	a2,-936(s0)
    2978:	030c8533          	mul	a0,s9,a6
    297c:	00080f13          	mv	t5,a6
    2980:	c6043603          	ld	a2,-928(s0)
    2984:	00c50633          	add	a2,a0,a2
    2988:	c6c43023          	sd	a2,-928(s0)
    298c:	025c8533          	mul	a0,s9,t0
    2990:	00028813          	mv	a6,t0
    2994:	c6843603          	ld	a2,-920(s0)
    2998:	00c50633          	add	a2,a0,a2
    299c:	c6c43423          	sd	a2,-920(s0)
    29a0:	035c8533          	mul	a0,s9,s5
    29a4:	c7043603          	ld	a2,-912(s0)
    29a8:	00c50633          	add	a2,a0,a2
    29ac:	c6c43823          	sd	a2,-912(s0)
    29b0:	f8043503          	ld	a0,-128(s0)
    29b4:	3c050503          	lb	a0,960(a0)
    29b8:	f5043683          	ld	a3,-176(s0)
    29bc:	02dc8db3          	mul	s11,s9,a3
    29c0:	c7843603          	ld	a2,-904(s0)
    29c4:	00cd8633          	add	a2,s11,a2
    29c8:	c6c43c23          	sd	a2,-904(s0)
    29cc:	00030293          	mv	t0,t1
    29d0:	026c8cb3          	mul	s9,s9,t1
    29d4:	c8043603          	ld	a2,-896(s0)
    29d8:	00cc8633          	add	a2,s9,a2
    29dc:	c8c43023          	sd	a2,-896(s0)
    29e0:	03150cb3          	mul	s9,a0,a7
    29e4:	ca043603          	ld	a2,-864(s0)
    29e8:	00cc8633          	add	a2,s9,a2
    29ec:	cac43023          	sd	a2,-864(s0)
    29f0:	02b50cb3          	mul	s9,a0,a1
    29f4:	c9843603          	ld	a2,-872(s0)
    29f8:	00cc8633          	add	a2,s9,a2
    29fc:	c8c43c23          	sd	a2,-872(s0)
    2a00:	03f50cb3          	mul	s9,a0,t6
    2a04:	c9043603          	ld	a2,-880(s0)
    2a08:	00cc8633          	add	a2,s9,a2
    2a0c:	c8c43823          	sd	a2,-880(s0)
    2a10:	03250cb3          	mul	s9,a0,s2
    2a14:	c8843603          	ld	a2,-888(s0)
    2a18:	00cc8633          	add	a2,s9,a2
    2a1c:	c8c43423          	sd	a2,-888(s0)
    2a20:	02150cb3          	mul	s9,a0,ra
    2a24:	ca843603          	ld	a2,-856(s0)
    2a28:	00cc8633          	add	a2,s9,a2
    2a2c:	cac43423          	sd	a2,-856(s0)
    2a30:	f7043583          	ld	a1,-144(s0)
    2a34:	02b50cb3          	mul	s9,a0,a1
    2a38:	cb043603          	ld	a2,-848(s0)
    2a3c:	00cc8633          	add	a2,s9,a2
    2a40:	cac43823          	sd	a2,-848(s0)
    2a44:	e3843083          	ld	ra,-456(s0)
    2a48:	02150cb3          	mul	s9,a0,ra
    2a4c:	cb843603          	ld	a2,-840(s0)
    2a50:	00cc8633          	add	a2,s9,a2
    2a54:	cac43c23          	sd	a2,-840(s0)
    2a58:	03750cb3          	mul	s9,a0,s7
    2a5c:	cc043603          	ld	a2,-832(s0)
    2a60:	00cc8633          	add	a2,s9,a2
    2a64:	ccc43023          	sd	a2,-832(s0)
    2a68:	e3043b83          	ld	s7,-464(s0)
    2a6c:	03750cb3          	mul	s9,a0,s7
    2a70:	cc843603          	ld	a2,-824(s0)
    2a74:	00cc8633          	add	a2,s9,a2
    2a78:	ccc43423          	sd	a2,-824(s0)
    2a7c:	02e50cb3          	mul	s9,a0,a4
    2a80:	cd043603          	ld	a2,-816(s0)
    2a84:	00cc8633          	add	a2,s9,a2
    2a88:	ccc43823          	sd	a2,-816(s0)
    2a8c:	000a0a93          	mv	s5,s4
    2a90:	03450cb3          	mul	s9,a0,s4
    2a94:	cd843603          	ld	a2,-808(s0)
    2a98:	00cc8633          	add	a2,s9,a2
    2a9c:	ccc43c23          	sd	a2,-808(s0)
    2aa0:	00098a13          	mv	s4,s3
    2aa4:	03350cb3          	mul	s9,a0,s3
    2aa8:	ce043603          	ld	a2,-800(s0)
    2aac:	00cc8633          	add	a2,s9,a2
    2ab0:	cec43023          	sd	a2,-800(s0)
    2ab4:	02950cb3          	mul	s9,a0,s1
    2ab8:	ce843603          	ld	a2,-792(s0)
    2abc:	00cc8633          	add	a2,s9,a2
    2ac0:	cec43423          	sd	a2,-792(s0)
    2ac4:	000d0993          	mv	s3,s10
    2ac8:	03a50cb3          	mul	s9,a0,s10
    2acc:	cf043603          	ld	a2,-784(s0)
    2ad0:	00cc8633          	add	a2,s9,a2
    2ad4:	cec43823          	sd	a2,-784(s0)
    2ad8:	03850cb3          	mul	s9,a0,s8
    2adc:	000c0d13          	mv	s10,s8
    2ae0:	cf843603          	ld	a2,-776(s0)
    2ae4:	00cc8633          	add	a2,s9,a2
    2ae8:	cec43c23          	sd	a2,-776(s0)
    2aec:	02f50cb3          	mul	s9,a0,a5
    2af0:	00078c13          	mv	s8,a5
    2af4:	d0043603          	ld	a2,-768(s0)
    2af8:	00cc8633          	add	a2,s9,a2
    2afc:	d0c43023          	sd	a2,-768(s0)
    2b00:	f7843483          	ld	s1,-136(s0)
    2b04:	02950cb3          	mul	s9,a0,s1
    2b08:	d0843603          	ld	a2,-760(s0)
    2b0c:	00cc8633          	add	a2,s9,a2
    2b10:	d0c43423          	sd	a2,-760(s0)
    2b14:	f3843383          	ld	t2,-200(s0)
    2b18:	02750cb3          	mul	s9,a0,t2
    2b1c:	d1043603          	ld	a2,-752(s0)
    2b20:	00cc8633          	add	a2,s9,a2
    2b24:	d0c43823          	sd	a2,-752(s0)
    2b28:	f5843303          	ld	t1,-168(s0)
    2b2c:	02650cb3          	mul	s9,a0,t1
    2b30:	d1843603          	ld	a2,-744(s0)
    2b34:	00cc8633          	add	a2,s9,a2
    2b38:	d0c43c23          	sd	a2,-744(s0)
    2b3c:	f6843883          	ld	a7,-152(s0)
    2b40:	03150cb3          	mul	s9,a0,a7
    2b44:	d2043603          	ld	a2,-736(s0)
    2b48:	00cc8633          	add	a2,s9,a2
    2b4c:	d2c43023          	sd	a2,-736(s0)
    2b50:	f4043783          	ld	a5,-192(s0)
    2b54:	02f50cb3          	mul	s9,a0,a5
    2b58:	d2843603          	ld	a2,-728(s0)
    2b5c:	00cc8633          	add	a2,s9,a2
    2b60:	d2c43423          	sd	a2,-728(s0)
    2b64:	e9043583          	ld	a1,-368(s0)
    2b68:	02b50cb3          	mul	s9,a0,a1
    2b6c:	d3043603          	ld	a2,-720(s0)
    2b70:	00cc8633          	add	a2,s9,a2
    2b74:	d2c43823          	sd	a2,-720(s0)
    2b78:	000e8f93          	mv	t6,t4
    2b7c:	03d50cb3          	mul	s9,a0,t4
    2b80:	d3843603          	ld	a2,-712(s0)
    2b84:	00cc8633          	add	a2,s9,a2
    2b88:	d2c43c23          	sd	a2,-712(s0)
    2b8c:	000e0913          	mv	s2,t3
    2b90:	03c50cb3          	mul	s9,a0,t3
    2b94:	d4043603          	ld	a2,-704(s0)
    2b98:	00cc8633          	add	a2,s9,a2
    2b9c:	d4c43023          	sd	a2,-704(s0)
    2ba0:	e2843e03          	ld	t3,-472(s0)
    2ba4:	03c50cb3          	mul	s9,a0,t3
    2ba8:	d4843603          	ld	a2,-696(s0)
    2bac:	00cc8633          	add	a2,s9,a2
    2bb0:	d4c43423          	sd	a2,-696(s0)
    2bb4:	03650cb3          	mul	s9,a0,s6
    2bb8:	d5043603          	ld	a2,-688(s0)
    2bbc:	00cc8633          	add	a2,s9,a2
    2bc0:	d4c43823          	sd	a2,-688(s0)
    2bc4:	e6843e83          	ld	t4,-408(s0)
    2bc8:	03d50cb3          	mul	s9,a0,t4
    2bcc:	d5843603          	ld	a2,-680(s0)
    2bd0:	00cc8633          	add	a2,s9,a2
    2bd4:	d4c43c23          	sd	a2,-680(s0)
    2bd8:	000f0713          	mv	a4,t5
    2bdc:	03e50cb3          	mul	s9,a0,t5
    2be0:	d6043603          	ld	a2,-672(s0)
    2be4:	00cc8633          	add	a2,s9,a2
    2be8:	d6c43023          	sd	a2,-672(s0)
    2bec:	00080f13          	mv	t5,a6
    2bf0:	03050cb3          	mul	s9,a0,a6
    2bf4:	d6843603          	ld	a2,-664(s0)
    2bf8:	00cc8633          	add	a2,s9,a2
    2bfc:	d6c43423          	sd	a2,-664(s0)
    2c00:	eb043803          	ld	a6,-336(s0)
    2c04:	03050cb3          	mul	s9,a0,a6
    2c08:	d7043603          	ld	a2,-656(s0)
    2c0c:	00cc8633          	add	a2,s9,a2
    2c10:	d6c43823          	sd	a2,-656(s0)
    2c14:	f8043603          	ld	a2,-128(s0)
    2c18:	46060c83          	lb	s9,1120(a2)
    2c1c:	02d50db3          	mul	s11,a0,a3
    2c20:	d7843603          	ld	a2,-648(s0)
    2c24:	00cd8633          	add	a2,s11,a2
    2c28:	d6c43c23          	sd	a2,-648(s0)
    2c2c:	02550533          	mul	a0,a0,t0
    2c30:	d8043603          	ld	a2,-640(s0)
    2c34:	00c50633          	add	a2,a0,a2
    2c38:	d8c43023          	sd	a2,-640(s0)
    2c3c:	025c8533          	mul	a0,s9,t0
    2c40:	e0a43823          	sd	a0,-496(s0)
    2c44:	02dc8533          	mul	a0,s9,a3
    2c48:	00001637          	lui	a2,0x1
    2c4c:	40c40633          	sub	a2,s0,a2
    2c50:	66a63823          	sd	a0,1648(a2) # 1670 <.LBB96_4+0x490>
    2c54:	030c8533          	mul	a0,s9,a6
    2c58:	00001637          	lui	a2,0x1
    2c5c:	40c40633          	sub	a2,s0,a2
    2c60:	66a63423          	sd	a0,1640(a2) # 1668 <.LBB96_4+0x488>
    2c64:	03ec8533          	mul	a0,s9,t5
    2c68:	e0a43c23          	sd	a0,-488(s0)
    2c6c:	02ec8533          	mul	a0,s9,a4
    2c70:	e4a43823          	sd	a0,-432(s0)
    2c74:	03dc8533          	mul	a0,s9,t4
    2c78:	f4a43823          	sd	a0,-176(s0)
    2c7c:	036c8533          	mul	a0,s9,s6
    2c80:	eaa43823          	sd	a0,-336(s0)
    2c84:	03cc8533          	mul	a0,s9,t3
    2c88:	e6a43823          	sd	a0,-400(s0)
    2c8c:	032c8533          	mul	a0,s9,s2
    2c90:	e6a43423          	sd	a0,-408(s0)
    2c94:	03fc8533          	mul	a0,s9,t6
    2c98:	eaa43023          	sd	a0,-352(s0)
    2c9c:	02bc8b33          	mul	s6,s9,a1
    2ca0:	02fc8833          	mul	a6,s9,a5
    2ca4:	031c82b3          	mul	t0,s9,a7
    2ca8:	026c8fb3          	mul	t6,s9,t1
    2cac:	027c88b3          	mul	a7,s9,t2
    2cb0:	029c8933          	mul	s2,s9,s1
    2cb4:	038c8e33          	mul	t3,s9,s8
    2cb8:	03ac8eb3          	mul	t4,s9,s10
    2cbc:	033c8f33          	mul	t5,s9,s3
    2cc0:	e6043503          	ld	a0,-416(s0)
    2cc4:	02ac84b3          	mul	s1,s9,a0
    2cc8:	034c89b3          	mul	s3,s9,s4
    2ccc:	035c8a33          	mul	s4,s9,s5
    2cd0:	e5843503          	ld	a0,-424(s0)
    2cd4:	02ac8c33          	mul	s8,s9,a0
    2cd8:	037c8d33          	mul	s10,s9,s7
    2cdc:	e7843503          	ld	a0,-392(s0)
    2ce0:	02ac8db3          	mul	s11,s9,a0
    2ce4:	021c8733          	mul	a4,s9,ra
    2ce8:	f7043503          	ld	a0,-144(s0)
    2cec:	02ac80b3          	mul	ra,s9,a0
    2cf0:	f4843503          	ld	a0,-184(s0)
    2cf4:	02ac86b3          	mul	a3,s9,a0
    2cf8:	e8043503          	ld	a0,-384(s0)
    2cfc:	02ac8633          	mul	a2,s9,a0
    2d00:	ea843503          	ld	a0,-344(s0)
    2d04:	02ac85b3          	mul	a1,s9,a0
    2d08:	e8843503          	ld	a0,-376(s0)
    2d0c:	02ac8533          	mul	a0,s9,a0
    2d10:	eb843783          	ld	a5,-328(s0)
    2d14:	02fc8cb3          	mul	s9,s9,a5
    2d18:	da043783          	ld	a5,-608(s0)
    2d1c:	00fc87b3          	add	a5,s9,a5
    2d20:	daf43023          	sd	a5,-608(s0)
    2d24:	d9843783          	ld	a5,-616(s0)
    2d28:	00f507b3          	add	a5,a0,a5
    2d2c:	d8f43c23          	sd	a5,-616(s0)
    2d30:	d9043503          	ld	a0,-624(s0)
    2d34:	00a58533          	add	a0,a1,a0
    2d38:	d8a43823          	sd	a0,-624(s0)
    2d3c:	d8843503          	ld	a0,-632(s0)
    2d40:	00a60533          	add	a0,a2,a0
    2d44:	d8a43423          	sd	a0,-632(s0)
    2d48:	da843503          	ld	a0,-600(s0)
    2d4c:	00a68533          	add	a0,a3,a0
    2d50:	daa43423          	sd	a0,-600(s0)
    2d54:	ec043503          	ld	a0,-320(s0)
    2d58:	00a08533          	add	a0,ra,a0
    2d5c:	eca43023          	sd	a0,-320(s0)
    2d60:	ec043083          	ld	ra,-320(s0)
    2d64:	db043503          	ld	a0,-592(s0)
    2d68:	00a70533          	add	a0,a4,a0
    2d6c:	daa43823          	sd	a0,-592(s0)
    2d70:	ec843503          	ld	a0,-312(s0)
    2d74:	00ad8533          	add	a0,s11,a0
    2d78:	eca43423          	sd	a0,-312(s0)
    2d7c:	ec843b83          	ld	s7,-312(s0)
    2d80:	ed043503          	ld	a0,-304(s0)
    2d84:	00ad0533          	add	a0,s10,a0
    2d88:	db843d03          	ld	s10,-584(s0)
    2d8c:	eca43823          	sd	a0,-304(s0)
    2d90:	ed043c83          	ld	s9,-304(s0)
    2d94:	ed843503          	ld	a0,-296(s0)
    2d98:	00ac0533          	add	a0,s8,a0
    2d9c:	eca43c23          	sd	a0,-296(s0)
    2da0:	ed843c03          	ld	s8,-296(s0)
    2da4:	ee043503          	ld	a0,-288(s0)
    2da8:	00aa0533          	add	a0,s4,a0
    2dac:	eea43023          	sd	a0,-288(s0)
    2db0:	ee043a03          	ld	s4,-288(s0)
    2db4:	ee843503          	ld	a0,-280(s0)
    2db8:	00a98533          	add	a0,s3,a0
    2dbc:	eea43423          	sd	a0,-280(s0)
    2dc0:	ee843983          	ld	s3,-280(s0)
    2dc4:	ef043503          	ld	a0,-272(s0)
    2dc8:	00a48533          	add	a0,s1,a0
    2dcc:	eea43823          	sd	a0,-272(s0)
    2dd0:	ef043483          	ld	s1,-272(s0)
    2dd4:	ef843503          	ld	a0,-264(s0)
    2dd8:	00af0533          	add	a0,t5,a0
    2ddc:	eea43c23          	sd	a0,-264(s0)
    2de0:	ef843f03          	ld	t5,-264(s0)
    2de4:	f0043503          	ld	a0,-256(s0)
    2de8:	00ae8533          	add	a0,t4,a0
    2dec:	f0a43023          	sd	a0,-256(s0)
    2df0:	f0043e83          	ld	t4,-256(s0)
    2df4:	01ae0d33          	add	s10,t3,s10
    2df8:	f0843503          	ld	a0,-248(s0)
    2dfc:	00a90533          	add	a0,s2,a0
    2e00:	f8843903          	ld	s2,-120(s0)
    2e04:	f0a43423          	sd	a0,-248(s0)
    2e08:	f0843e03          	ld	t3,-248(s0)
    2e0c:	dc043503          	ld	a0,-576(s0)
    2e10:	00a88533          	add	a0,a7,a0
    2e14:	dca43023          	sd	a0,-576(s0)
    2e18:	dc843303          	ld	t1,-568(s0)
    2e1c:	f1043503          	ld	a0,-240(s0)
    2e20:	00af8533          	add	a0,t6,a0
    2e24:	000015b7          	lui	a1,0x1
    2e28:	40b405b3          	sub	a1,s0,a1
    2e2c:	6805bf83          	ld	t6,1664(a1) # 1680 <.LBB96_4+0x4a0>
    2e30:	f0a43823          	sd	a0,-240(s0)
    2e34:	f1043703          	ld	a4,-240(s0)
    2e38:	00628333          	add	t1,t0,t1
    2e3c:	dd043283          	ld	t0,-560(s0)
    2e40:	005802b3          	add	t0,a6,t0
    2e44:	dd843883          	ld	a7,-552(s0)
    2e48:	f1843503          	ld	a0,-232(s0)
    2e4c:	00ab0533          	add	a0,s6,a0
    2e50:	f8043383          	ld	t2,-128(s0)
    2e54:	f0a43c23          	sd	a0,-232(s0)
    2e58:	f1843683          	ld	a3,-232(s0)
    2e5c:	f2043503          	ld	a0,-224(s0)
    2e60:	ea043583          	ld	a1,-352(s0)
    2e64:	00a58533          	add	a0,a1,a0
    2e68:	df043a83          	ld	s5,-528(s0)
    2e6c:	f2a43023          	sd	a0,-224(s0)
    2e70:	f2043603          	ld	a2,-224(s0)
    2e74:	f2843503          	ld	a0,-216(s0)
    2e78:	e6843583          	ld	a1,-408(s0)
    2e7c:	00a58533          	add	a0,a1,a0
    2e80:	f2a43423          	sd	a0,-216(s0)
    2e84:	f2843583          	ld	a1,-216(s0)
    2e88:	f3043503          	ld	a0,-208(s0)
    2e8c:	e7043783          	ld	a5,-400(s0)
    2e90:	00a78533          	add	a0,a5,a0
    2e94:	f2a43823          	sd	a0,-208(s0)
    2e98:	f3043503          	ld	a0,-208(s0)
    2e9c:	eb043783          	ld	a5,-336(s0)
    2ea0:	011788b3          	add	a7,a5,a7
    2ea4:	de043803          	ld	a6,-544(s0)
    2ea8:	f5043783          	ld	a5,-176(s0)
    2eac:	01078833          	add	a6,a5,a6
    2eb0:	de843783          	ld	a5,-536(s0)
    2eb4:	e5043b03          	ld	s6,-432(s0)
    2eb8:	00fb07b3          	add	a5,s6,a5
    2ebc:	e1843b03          	ld	s6,-488(s0)
    2ec0:	015b0ab3          	add	s5,s6,s5
    2ec4:	df843b03          	ld	s6,-520(s0)
    2ec8:	00001db7          	lui	s11,0x1
    2ecc:	41b40db3          	sub	s11,s0,s11
    2ed0:	668dbd83          	ld	s11,1640(s11) # 1668 <.LBB96_4+0x488>
    2ed4:	016d8b33          	add	s6,s11,s6
    2ed8:	df643c23          	sd	s6,-520(s0)
    2edc:	e0043b03          	ld	s6,-512(s0)
    2ee0:	00001db7          	lui	s11,0x1
    2ee4:	41b40db3          	sub	s11,s0,s11
    2ee8:	670dbd83          	ld	s11,1648(s11) # 1670 <.LBB96_4+0x490>
    2eec:	016d8b33          	add	s6,s11,s6
    2ef0:	e1643023          	sd	s6,-512(s0)
    2ef4:	e0843b03          	ld	s6,-504(s0)
    2ef8:	e1043d83          	ld	s11,-496(s0)
    2efc:	016d8b33          	add	s6,s11,s6
    2f00:	e1643423          	sd	s6,-504(s0)
    2f04:	c40f8f93          	addi	t6,t6,-960
    2f08:	3c090913          	addi	s2,s2,960
    2f0c:	00138393          	addi	t2,t2,1
    2f10:	000f8463          	beqz	t6,2f18 <.LBB96_6>
    2f14:	875fe06f          	j	1788 <.LBB96_5>

0000000000002f18 <.LBB96_6>:
    2f18:	00001537          	lui	a0,0x1
    2f1c:	40a40533          	sub	a0,s0,a0
    2f20:	6b053903          	ld	s2,1712(a0) # 16b0 <.LBB96_4+0x4d0>
    2f24:	00001537          	lui	a0,0x1
    2f28:	40a40533          	sub	a0,s0,a0
    2f2c:	6b853c03          	ld	s8,1720(a0) # 16b8 <.LBB96_4+0x4d8>
    2f30:	00001537          	lui	a0,0x1
    2f34:	40a40533          	sub	a0,s0,a0
    2f38:	6c053b83          	ld	s7,1728(a0) # 16c0 <.LBB96_4+0x4e0>
    2f3c:	00001537          	lui	a0,0x1
    2f40:	40a40533          	sub	a0,s0,a0
    2f44:	6a853b03          	ld	s6,1704(a0) # 16a8 <.LBB96_4+0x4c8>
    2f48:	00001537          	lui	a0,0x1
    2f4c:	40a40533          	sub	a0,s0,a0
    2f50:	6a053483          	ld	s1,1696(a0) # 16a0 <.LBB96_4+0x4c0>
    2f54:	00001537          	lui	a0,0x1
    2f58:	40a40533          	sub	a0,s0,a0
    2f5c:	69853f83          	ld	t6,1688(a0) # 1698 <.LBB96_4+0x4b8>
    2f60:	00001537          	lui	a0,0x1
    2f64:	40a40533          	sub	a0,s0,a0
    2f68:	69053f03          	ld	t5,1680(a0) # 1690 <.LBB96_4+0x4b0>
    2f6c:	00001537          	lui	a0,0x1
    2f70:	40a40533          	sub	a0,s0,a0
    2f74:	68853e83          	ld	t4,1672(a0) # 1688 <.LBB96_4+0x4a8>
    2f78:	dba43c23          	sd	s10,-584(s0)
    2f7c:	df543823          	sd	s5,-528(s0)
    2f80:	00001537          	lui	a0,0x1
    2f84:	40a40533          	sub	a0,s0,a0
    2f88:	66053503          	ld	a0,1632(a0) # 1660 <.LBB96_4+0x480>
    2f8c:	00251513          	slli	a0,a0,0x2
    2f90:	000015b7          	lui	a1,0x1
    2f94:	40b405b3          	sub	a1,s0,a1
    2f98:	d685b583          	ld	a1,-664(a1) # d68 <.LBB96_3+0xae4>
    2f9c:	00a585b3          	add	a1,a1,a0
    2fa0:	00001637          	lui	a2,0x1
    2fa4:	40c40633          	sub	a2,s0,a2
    2fa8:	d6063603          	ld	a2,-672(a2) # d60 <.LBB96_3+0xadc>
    2fac:	00a60533          	add	a0,a2,a0
    2fb0:	00c52603          	lw	a2,12(a0)
    2fb4:	00c5a383          	lw	t2,12(a1)
    2fb8:	000016b7          	lui	a3,0x1
    2fbc:	40d406b3          	sub	a3,s0,a3
    2fc0:	6586b683          	ld	a3,1624(a3) # 1658 <.LBB96_4+0x478>
    2fc4:	0006a703          	lw	a4,0(a3)
    2fc8:	ffa00693          	li	a3,-6
    2fcc:	02d60e33          	mul	t3,a2,a3
    2fd0:	e4743c23          	sd	t2,-424(s0)
    2fd4:	00001637          	lui	a2,0x1
    2fd8:	40c40633          	sub	a2,s0,a2
    2fdc:	6c863603          	ld	a2,1736(a2) # 16c8 <.LBB96_4+0x4e8>
    2fe0:	00760633          	add	a2,a2,t2
    2fe4:	e5c43823          	sd	t3,-432(s0)
    2fe8:	01c60633          	add	a2,a2,t3
    2fec:	00e60633          	add	a2,a2,a4
    2ff0:	c406061b          	addiw	a2,a2,-960
    2ff4:	400003b7          	lui	t2,0x40000
    2ff8:	00001e37          	lui	t3,0x1
    2ffc:	41c40e33          	sub	t3,s0,t3
    3000:	fece3c23          	sd	a2,-8(t3) # ff8 <.LBB96_3+0xd74>
    3004:	00065463          	bgez	a2,300c <.LBB96_8>
    3008:	c00003b7          	lui	t2,0xc0000

000000000000300c <.LBB96_8>:
    300c:	00001637          	lui	a2,0x1
    3010:	40c40633          	sub	a2,s0,a2
    3014:	fc763023          	sd	t2,-64(a2) # fc0 <.LBB96_3+0xd3c>
    3018:	00852603          	lw	a2,8(a0)
    301c:	0085a383          	lw	t2,8(a1)
    3020:	02d60e33          	mul	t3,a2,a3
    3024:	e4743423          	sd	t2,-440(s0)
    3028:	00790633          	add	a2,s2,t2
    302c:	e5c43023          	sd	t3,-448(s0)
    3030:	01c60633          	add	a2,a2,t3
    3034:	00e60633          	add	a2,a2,a4
    3038:	c406061b          	addiw	a2,a2,-960
    303c:	400003b7          	lui	t2,0x40000
    3040:	00001e37          	lui	t3,0x1
    3044:	41c40e33          	sub	t3,s0,t3
    3048:	fece3823          	sd	a2,-16(t3) # ff0 <.LBB96_3+0xd6c>
    304c:	000e8993          	mv	s3,t4
    3050:	000f0a13          	mv	s4,t5
    3054:	000f8a93          	mv	s5,t6
    3058:	00048913          	mv	s2,s1
    305c:	00065463          	bgez	a2,3064 <.LBB96_10>
    3060:	c00003b7          	lui	t2,0xc0000

0000000000003064 <.LBB96_10>:
    3064:	00452603          	lw	a2,4(a0)
    3068:	0045ae03          	lw	t3,4(a1)
    306c:	02d60eb3          	mul	t4,a2,a3
    3070:	e3c43c23          	sd	t3,-456(s0)
    3074:	01cc0633          	add	a2,s8,t3
    3078:	e3d43823          	sd	t4,-464(s0)
    307c:	01d60633          	add	a2,a2,t4
    3080:	00e60633          	add	a2,a2,a4
    3084:	c406061b          	addiw	a2,a2,-960
    3088:	40000e37          	lui	t3,0x40000
    308c:	00001eb7          	lui	t4,0x1
    3090:	41d40eb3          	sub	t4,s0,t4
    3094:	feceb023          	sd	a2,-32(t4) # fe0 <.LBB96_3+0xd5c>
    3098:	00065463          	bgez	a2,30a0 <.LBB96_12>
    309c:	c0000e37          	lui	t3,0xc0000

00000000000030a0 <.LBB96_12>:
    30a0:	00052603          	lw	a2,0(a0)
    30a4:	0005ae83          	lw	t4,0(a1)
    30a8:	02d60f33          	mul	t5,a2,a3
    30ac:	e3d43423          	sd	t4,-472(s0)
    30b0:	01db8633          	add	a2,s7,t4
    30b4:	e3e43023          	sd	t5,-480(s0)
    30b8:	01e60633          	add	a2,a2,t5
    30bc:	00e60633          	add	a2,a2,a4
    30c0:	c406061b          	addiw	a2,a2,-960
    30c4:	40000eb7          	lui	t4,0x40000
    30c8:	00001f37          	lui	t5,0x1
    30cc:	41e40f33          	sub	t5,s0,t5
    30d0:	fccf3423          	sd	a2,-56(t5) # fc8 <.LBB96_3+0xd44>
    30d4:	00065463          	bgez	a2,30dc <.LBB96_14>
    30d8:	c0000eb7          	lui	t4,0xc0000

00000000000030dc <.LBB96_14>:
    30dc:	01052603          	lw	a2,16(a0)
    30e0:	0105af03          	lw	t5,16(a1)
    30e4:	02d60fb3          	mul	t6,a2,a3
    30e8:	e1e43c23          	sd	t5,-488(s0)
    30ec:	01eb0633          	add	a2,s6,t5
    30f0:	e1f43823          	sd	t6,-496(s0)
    30f4:	01f60633          	add	a2,a2,t6
    30f8:	00e60633          	add	a2,a2,a4
    30fc:	c406061b          	addiw	a2,a2,-960
    3100:	40000f37          	lui	t5,0x40000
    3104:	00001fb7          	lui	t6,0x1
    3108:	41f40fb3          	sub	t6,s0,t6
    310c:	facfb823          	sd	a2,-80(t6) # fb0 <.LBB96_3+0xd2c>
    3110:	00065463          	bgez	a2,3118 <.LBB96_16>
    3114:	c0000f37          	lui	t5,0xc0000

0000000000003118 <.LBB96_16>:
    3118:	01452603          	lw	a2,20(a0)
    311c:	0145af83          	lw	t6,20(a1)
    3120:	02d604b3          	mul	s1,a2,a3
    3124:	00001637          	lui	a2,0x1
    3128:	40c40633          	sub	a2,s0,a2
    312c:	6df63423          	sd	t6,1736(a2) # 16c8 <.LBB96_4+0x4e8>
    3130:	01f90633          	add	a2,s2,t6
    3134:	00001fb7          	lui	t6,0x1
    3138:	41f40fb3          	sub	t6,s0,t6
    313c:	6c9fb023          	sd	s1,1728(t6) # 16c0 <.LBB96_4+0x4e0>
    3140:	00960633          	add	a2,a2,s1
    3144:	00e60633          	add	a2,a2,a4
    3148:	c406061b          	addiw	a2,a2,-960
    314c:	40000fb7          	lui	t6,0x40000
    3150:	000014b7          	lui	s1,0x1
    3154:	409404b3          	sub	s1,s0,s1
    3158:	f8c4bc23          	sd	a2,-104(s1) # f98 <.LBB96_3+0xd14>
    315c:	00065463          	bgez	a2,3164 <.LBB96_18>
    3160:	c0000fb7          	lui	t6,0xc0000

0000000000003164 <.LBB96_18>:
    3164:	01852603          	lw	a2,24(a0)
    3168:	0185a483          	lw	s1,24(a1)
    316c:	02d60933          	mul	s2,a2,a3
    3170:	00001637          	lui	a2,0x1
    3174:	40c40633          	sub	a2,s0,a2
    3178:	6a963c23          	sd	s1,1720(a2) # 16b8 <.LBB96_4+0x4d8>
    317c:	009a8633          	add	a2,s5,s1
    3180:	000014b7          	lui	s1,0x1
    3184:	409404b3          	sub	s1,s0,s1
    3188:	6b24b823          	sd	s2,1712(s1) # 16b0 <.LBB96_4+0x4d0>
    318c:	01260633          	add	a2,a2,s2
    3190:	00e60633          	add	a2,a2,a4
    3194:	c406061b          	addiw	a2,a2,-960
    3198:	400004b7          	lui	s1,0x40000
    319c:	00001937          	lui	s2,0x1
    31a0:	41240933          	sub	s2,s0,s2
    31a4:	f8c93023          	sd	a2,-128(s2) # f80 <.LBB96_3+0xcfc>
    31a8:	00065463          	bgez	a2,31b0 <.LBB96_20>
    31ac:	c00004b7          	lui	s1,0xc0000

00000000000031b0 <.LBB96_20>:
    31b0:	def43423          	sd	a5,-536(s0)
    31b4:	01c52603          	lw	a2,28(a0)
    31b8:	01c5a783          	lw	a5,28(a1)
    31bc:	02d60933          	mul	s2,a2,a3
    31c0:	00001637          	lui	a2,0x1
    31c4:	40c40633          	sub	a2,s0,a2
    31c8:	6af63423          	sd	a5,1704(a2) # 16a8 <.LBB96_4+0x4c8>
    31cc:	00fa0633          	add	a2,s4,a5
    31d0:	000017b7          	lui	a5,0x1
    31d4:	40f407b3          	sub	a5,s0,a5
    31d8:	6b27b023          	sd	s2,1696(a5) # 16a0 <.LBB96_4+0x4c0>
    31dc:	01260633          	add	a2,a2,s2
    31e0:	00e60633          	add	a2,a2,a4
    31e4:	c406061b          	addiw	a2,a2,-960
    31e8:	400007b7          	lui	a5,0x40000
    31ec:	00001937          	lui	s2,0x1
    31f0:	41240933          	sub	s2,s0,s2
    31f4:	f6c93823          	sd	a2,-144(s2) # f70 <.LBB96_3+0xcec>
    31f8:	00065463          	bgez	a2,3200 <.LBB96_22>
    31fc:	c00007b7          	lui	a5,0xc0000

0000000000003200 <.LBB96_22>:
    3200:	00001637          	lui	a2,0x1
    3204:	40c40633          	sub	a2,s0,a2
    3208:	f4f63823          	sd	a5,-176(a2) # f50 <.LBB96_3+0xccc>
    320c:	00001637          	lui	a2,0x1
    3210:	40c40633          	sub	a2,s0,a2
    3214:	f6963023          	sd	s1,-160(a2) # f60 <.LBB96_3+0xcdc>
    3218:	00001637          	lui	a2,0x1
    321c:	40c40633          	sub	a2,s0,a2
    3220:	f7f63c23          	sd	t6,-136(a2) # f78 <.LBB96_3+0xcf4>
    3224:	00001637          	lui	a2,0x1
    3228:	40c40633          	sub	a2,s0,a2
    322c:	f9e63823          	sd	t5,-112(a2) # f90 <.LBB96_3+0xd0c>
    3230:	00001637          	lui	a2,0x1
    3234:	40c40633          	sub	a2,s0,a2
    3238:	fbd63023          	sd	t4,-96(a2) # fa0 <.LBB96_3+0xd1c>
    323c:	00001637          	lui	a2,0x1
    3240:	40c40633          	sub	a2,s0,a2
    3244:	fbc63c23          	sd	t3,-72(a2) # fb8 <.LBB96_3+0xd34>
    3248:	00001637          	lui	a2,0x1
    324c:	40c40633          	sub	a2,s0,a2
    3250:	fc763c23          	sd	t2,-40(a2) # fd8 <.LBB96_3+0xd54>
    3254:	dc643423          	sd	t1,-568(s0)
    3258:	dc543823          	sd	t0,-560(s0)
    325c:	dd143c23          	sd	a7,-552(s0)
    3260:	df043023          	sd	a6,-544(s0)
    3264:	02052603          	lw	a2,32(a0)
    3268:	0205a803          	lw	a6,32(a1)
    326c:	ffa00793          	li	a5,-6
    3270:	02d606b3          	mul	a3,a2,a3
    3274:	00001637          	lui	a2,0x1
    3278:	40c40633          	sub	a2,s0,a2
    327c:	69063c23          	sd	a6,1688(a2) # 1698 <.LBB96_4+0x4b8>
    3280:	01098633          	add	a2,s3,a6
    3284:	00001837          	lui	a6,0x1
    3288:	41040833          	sub	a6,s0,a6
    328c:	68d83823          	sd	a3,1680(a6) # 1690 <.LBB96_4+0x4b0>
    3290:	00d60633          	add	a2,a2,a3
    3294:	00e60633          	add	a2,a2,a4
    3298:	c406061b          	addiw	a2,a2,-960
    329c:	400006b7          	lui	a3,0x40000
    32a0:	00001837          	lui	a6,0x1
    32a4:	41040833          	sub	a6,s0,a6
    32a8:	f4c83c23          	sd	a2,-168(a6) # f58 <.LBB96_3+0xcd4>
    32ac:	00065463          	bgez	a2,32b4 <.LBB96_24>
    32b0:	c00006b7          	lui	a3,0xc0000

00000000000032b4 <.LBB96_24>:
    32b4:	00001637          	lui	a2,0x1
    32b8:	40c40633          	sub	a2,s0,a2
    32bc:	f4d63023          	sd	a3,-192(a2) # f40 <.LBB96_3+0xcbc>
    32c0:	07c5a603          	lw	a2,124(a1)
    32c4:	f8c43023          	sd	a2,-128(s0)
    32c8:	0785a603          	lw	a2,120(a1)
    32cc:	f6c43c23          	sd	a2,-136(s0)
    32d0:	0745a603          	lw	a2,116(a1)
    32d4:	f6c43823          	sd	a2,-144(s0)
    32d8:	0705a603          	lw	a2,112(a1)
    32dc:	f6c43423          	sd	a2,-152(s0)
    32e0:	06c5a603          	lw	a2,108(a1)
    32e4:	f6c43023          	sd	a2,-160(s0)
    32e8:	0685a603          	lw	a2,104(a1)
    32ec:	f4c43c23          	sd	a2,-168(s0)
    32f0:	0645a603          	lw	a2,100(a1)
    32f4:	f4c43823          	sd	a2,-176(s0)
    32f8:	0605a603          	lw	a2,96(a1)
    32fc:	f4c43423          	sd	a2,-184(s0)
    3300:	05c5a603          	lw	a2,92(a1)
    3304:	f4c43023          	sd	a2,-192(s0)
    3308:	0585a603          	lw	a2,88(a1)
    330c:	f2c43c23          	sd	a2,-200(s0)
    3310:	0545a603          	lw	a2,84(a1)
    3314:	eac43c23          	sd	a2,-328(s0)
    3318:	0505a603          	lw	a2,80(a1)
    331c:	eac43823          	sd	a2,-336(s0)
    3320:	04c5a603          	lw	a2,76(a1)
    3324:	eac43423          	sd	a2,-344(s0)
    3328:	0485a603          	lw	a2,72(a1)
    332c:	eac43023          	sd	a2,-352(s0)
    3330:	0445a603          	lw	a2,68(a1)
    3334:	e8c43c23          	sd	a2,-360(s0)
    3338:	0405a603          	lw	a2,64(a1)
    333c:	e8c43823          	sd	a2,-368(s0)
    3340:	03c5a603          	lw	a2,60(a1)
    3344:	e8c43423          	sd	a2,-376(s0)
    3348:	0385a603          	lw	a2,56(a1)
    334c:	e8c43023          	sd	a2,-384(s0)
    3350:	0345a603          	lw	a2,52(a1)
    3354:	e6c43c23          	sd	a2,-392(s0)
    3358:	0305a603          	lw	a2,48(a1)
    335c:	e6c43823          	sd	a2,-400(s0)
    3360:	02c5a603          	lw	a2,44(a1)
    3364:	e6c43423          	sd	a2,-408(s0)
    3368:	0285a603          	lw	a2,40(a1)
    336c:	e6c43023          	sd	a2,-416(s0)
    3370:	0245a603          	lw	a2,36(a1)
    3374:	07c52583          	lw	a1,124(a0)
    3378:	000016b7          	lui	a3,0x1
    337c:	40d406b3          	sub	a3,s0,a3
    3380:	66b6b823          	sd	a1,1648(a3) # 1670 <.LBB96_4+0x490>
    3384:	07852583          	lw	a1,120(a0)
    3388:	000016b7          	lui	a3,0x1
    338c:	40d406b3          	sub	a3,s0,a3
    3390:	66b6b423          	sd	a1,1640(a3) # 1668 <.LBB96_4+0x488>
    3394:	07452583          	lw	a1,116(a0)
    3398:	000016b7          	lui	a3,0x1
    339c:	40d406b3          	sub	a3,s0,a3
    33a0:	64b6b023          	sd	a1,1600(a3) # 1640 <.LBB96_4+0x460>
    33a4:	07052283          	lw	t0,112(a0)
    33a8:	06c52303          	lw	t1,108(a0)
    33ac:	06852383          	lw	t2,104(a0)
    33b0:	06452e03          	lw	t3,100(a0)
    33b4:	06052e83          	lw	t4,96(a0)
    33b8:	05c52f03          	lw	t5,92(a0)
    33bc:	05852f83          	lw	t6,88(a0)
    33c0:	05452483          	lw	s1,84(a0)
    33c4:	05052903          	lw	s2,80(a0)
    33c8:	04c52983          	lw	s3,76(a0)
    33cc:	04852a03          	lw	s4,72(a0)
    33d0:	04452a83          	lw	s5,68(a0)
    33d4:	04052b03          	lw	s6,64(a0)
    33d8:	03c52b83          	lw	s7,60(a0)
    33dc:	03852c03          	lw	s8,56(a0)
    33e0:	03452c83          	lw	s9,52(a0)
    33e4:	02452583          	lw	a1,36(a0)
    33e8:	03052d03          	lw	s10,48(a0)
    33ec:	02c52d83          	lw	s11,44(a0)
    33f0:	02852083          	lw	ra,40(a0)
    33f4:	02f585b3          	mul	a1,a1,a5
    33f8:	00001537          	lui	a0,0x1
    33fc:	40a40533          	sub	a0,s0,a0
    3400:	68c53423          	sd	a2,1672(a0) # 1688 <.LBB96_4+0x4a8>
    3404:	00001537          	lui	a0,0x1
    3408:	40a40533          	sub	a0,s0,a0
    340c:	6d053503          	ld	a0,1744(a0) # 16d0 <.LBB96_4+0x4f0>
    3410:	00c50533          	add	a0,a0,a2
    3414:	00001637          	lui	a2,0x1
    3418:	40c40633          	sub	a2,s0,a2
    341c:	6cb63823          	sd	a1,1744(a2) # 16d0 <.LBB96_4+0x4f0>
    3420:	00b50533          	add	a0,a0,a1
    3424:	000015b7          	lui	a1,0x1
    3428:	40b405b3          	sub	a1,s0,a1
    342c:	6585b683          	ld	a3,1624(a1) # 1658 <.LBB96_4+0x478>
    3430:	01c6a583          	lw	a1,28(a3)
    3434:	00001637          	lui	a2,0x1
    3438:	40c40633          	sub	a2,s0,a2
    343c:	68b63023          	sd	a1,1664(a2) # 1680 <.LBB96_4+0x4a0>
    3440:	0186a583          	lw	a1,24(a3)
    3444:	00001637          	lui	a2,0x1
    3448:	40c40633          	sub	a2,s0,a2
    344c:	d8b63023          	sd	a1,-640(a2) # d80 <.LBB96_3+0xafc>
    3450:	0146a583          	lw	a1,20(a3)
    3454:	f8b43423          	sd	a1,-120(s0)
    3458:	0106a783          	lw	a5,16(a3)
    345c:	00c6a583          	lw	a1,12(a3)
    3460:	0086a603          	lw	a2,8(a3)
    3464:	0046a683          	lw	a3,4(a3)
    3468:	00e50533          	add	a0,a0,a4
    346c:	c405051b          	addiw	a0,a0,-960
    3470:	40000837          	lui	a6,0x40000
    3474:	000018b7          	lui	a7,0x1
    3478:	411408b3          	sub	a7,s0,a7
    347c:	d8a8b823          	sd	a0,-624(a7) # d90 <.LBB96_3+0xb0c>
    3480:	00055463          	bgez	a0,3488 <.LBB96_26>
    3484:	c0000837          	lui	a6,0xc0000

0000000000003488 <.LBB96_26>:
    3488:	00001537          	lui	a0,0x1
    348c:	40a40533          	sub	a0,s0,a0
    3490:	d9053423          	sd	a6,-632(a0) # d88 <.LBB96_3+0xb04>
    3494:	ffa00513          	li	a0,-6
    3498:	02a08833          	mul	a6,ra,a0
    349c:	ffa00093          	li	ra,-6
    34a0:	e6043503          	ld	a0,-416(s0)
    34a4:	000018b7          	lui	a7,0x1
    34a8:	411408b3          	sub	a7,s0,a7
    34ac:	6d88b883          	ld	a7,1752(a7) # 16d8 <.LBB96_4+0x4f8>
    34b0:	00a88533          	add	a0,a7,a0
    34b4:	000018b7          	lui	a7,0x1
    34b8:	411408b3          	sub	a7,s0,a7
    34bc:	6d08bc23          	sd	a6,1752(a7) # 16d8 <.LBB96_4+0x4f8>
    34c0:	01050533          	add	a0,a0,a6
    34c4:	00e50533          	add	a0,a0,a4
    34c8:	c405051b          	addiw	a0,a0,-960
    34cc:	40000837          	lui	a6,0x40000
    34d0:	000018b7          	lui	a7,0x1
    34d4:	411408b3          	sub	a7,s0,a7
    34d8:	6708bc23          	sd	a6,1656(a7) # 1678 <.LBB96_4+0x498>
    34dc:	00001837          	lui	a6,0x1
    34e0:	41040833          	sub	a6,s0,a6
    34e4:	d8a83c23          	sd	a0,-616(a6) # d98 <.LBB96_3+0xb14>
    34e8:	00055a63          	bgez	a0,34fc <.LBB96_28>
    34ec:	c0000537          	lui	a0,0xc0000
    34f0:	00001837          	lui	a6,0x1
    34f4:	41040833          	sub	a6,s0,a6
    34f8:	66a83c23          	sd	a0,1656(a6) # 1678 <.LBB96_4+0x498>

00000000000034fc <.LBB96_28>:
    34fc:	021d8833          	mul	a6,s11,ra
    3500:	e6843503          	ld	a0,-408(s0)
    3504:	000018b7          	lui	a7,0x1
    3508:	411408b3          	sub	a7,s0,a7
    350c:	6e08bd83          	ld	s11,1760(a7) # 16e0 <.LBB96_4+0x500>
    3510:	00ad8533          	add	a0,s11,a0
    3514:	000018b7          	lui	a7,0x1
    3518:	411408b3          	sub	a7,s0,a7
    351c:	6f08b023          	sd	a6,1760(a7) # 16e0 <.LBB96_4+0x500>
    3520:	01050533          	add	a0,a0,a6
    3524:	00e50533          	add	a0,a0,a4
    3528:	c405051b          	addiw	a0,a0,-960 # ffffffffbffffc40 <.Lfunc_end80+0xffffffffbffd7274>
    352c:	40000db7          	lui	s11,0x40000
    3530:	00001837          	lui	a6,0x1
    3534:	41040833          	sub	a6,s0,a6
    3538:	daa83423          	sd	a0,-600(a6) # da8 <.LBB96_3+0xb24>
    353c:	00055463          	bgez	a0,3544 <.LBB96_30>
    3540:	c0000db7          	lui	s11,0xc0000

0000000000003544 <.LBB96_30>:
    3544:	00001537          	lui	a0,0x1
    3548:	40a40533          	sub	a0,s0,a0
    354c:	dbb53023          	sd	s11,-608(a0) # da0 <.LBB96_3+0xb1c>
    3550:	021d0833          	mul	a6,s10,ra
    3554:	e7043503          	ld	a0,-400(s0)
    3558:	000018b7          	lui	a7,0x1
    355c:	411408b3          	sub	a7,s0,a7
    3560:	6e88bd03          	ld	s10,1768(a7) # 16e8 <.LBB96_4+0x508>
    3564:	00ad0533          	add	a0,s10,a0
    3568:	000018b7          	lui	a7,0x1
    356c:	411408b3          	sub	a7,s0,a7
    3570:	6f08b423          	sd	a6,1768(a7) # 16e8 <.LBB96_4+0x508>
    3574:	01050533          	add	a0,a0,a6
    3578:	00e50533          	add	a0,a0,a4
    357c:	c405051b          	addiw	a0,a0,-960
    3580:	40000d37          	lui	s10,0x40000
    3584:	b4843d83          	ld	s11,-1208(s0)
    3588:	00001837          	lui	a6,0x1
    358c:	41040833          	sub	a6,s0,a6
    3590:	daa83c23          	sd	a0,-584(a6) # db8 <.LBB96_3+0xb34>
    3594:	00055463          	bgez	a0,359c <.LBB96_32>
    3598:	c0000d37          	lui	s10,0xc0000

000000000000359c <.LBB96_32>:
    359c:	00001537          	lui	a0,0x1
    35a0:	40a40533          	sub	a0,s0,a0
    35a4:	dba53823          	sd	s10,-592(a0) # db0 <.LBB96_3+0xb2c>
    35a8:	021c8833          	mul	a6,s9,ra
    35ac:	e7843503          	ld	a0,-392(s0)
    35b0:	000018b7          	lui	a7,0x1
    35b4:	411408b3          	sub	a7,s0,a7
    35b8:	6f08bc83          	ld	s9,1776(a7) # 16f0 <.LBB96_4+0x510>
    35bc:	00ac8533          	add	a0,s9,a0
    35c0:	00080d13          	mv	s10,a6
    35c4:	01050533          	add	a0,a0,a6
    35c8:	00e50533          	add	a0,a0,a4
    35cc:	c405051b          	addiw	a0,a0,-960
    35d0:	40000cb7          	lui	s9,0x40000
    35d4:	00001837          	lui	a6,0x1
    35d8:	41040833          	sub	a6,s0,a6
    35dc:	dca83423          	sd	a0,-568(a6) # dc8 <.LBB96_3+0xb44>
    35e0:	00055463          	bgez	a0,35e8 <.LBB96_34>
    35e4:	c0000cb7          	lui	s9,0xc0000

00000000000035e8 <.LBB96_34>:
    35e8:	00001537          	lui	a0,0x1
    35ec:	40a40533          	sub	a0,s0,a0
    35f0:	dd953023          	sd	s9,-576(a0) # dc0 <.LBB96_3+0xb3c>
    35f4:	021c0833          	mul	a6,s8,ra
    35f8:	e8043503          	ld	a0,-384(s0)
    35fc:	000018b7          	lui	a7,0x1
    3600:	411408b3          	sub	a7,s0,a7
    3604:	6f88bc03          	ld	s8,1784(a7) # 16f8 <.LBB96_4+0x518>
    3608:	00ac0533          	add	a0,s8,a0
    360c:	000018b7          	lui	a7,0x1
    3610:	411408b3          	sub	a7,s0,a7
    3614:	6f08bc23          	sd	a6,1784(a7) # 16f8 <.LBB96_4+0x518>
    3618:	01050533          	add	a0,a0,a6
    361c:	00e50533          	add	a0,a0,a4
    3620:	c405051b          	addiw	a0,a0,-960
    3624:	40000c37          	lui	s8,0x40000
    3628:	da043c83          	ld	s9,-608(s0)
    362c:	00001837          	lui	a6,0x1
    3630:	41040833          	sub	a6,s0,a6
    3634:	dca83c23          	sd	a0,-552(a6) # dd8 <.LBB96_3+0xb54>
    3638:	00055463          	bgez	a0,3640 <.LBB96_36>
    363c:	c0000c37          	lui	s8,0xc0000

0000000000003640 <.LBB96_36>:
    3640:	00001537          	lui	a0,0x1
    3644:	40a40533          	sub	a0,s0,a0
    3648:	dd853823          	sd	s8,-560(a0) # dd0 <.LBB96_3+0xb4c>
    364c:	021b8833          	mul	a6,s7,ra
    3650:	e8843503          	ld	a0,-376(s0)
    3654:	000018b7          	lui	a7,0x1
    3658:	411408b3          	sub	a7,s0,a7
    365c:	7008bb83          	ld	s7,1792(a7) # 1700 <.LBB96_4+0x520>
    3660:	00ab8533          	add	a0,s7,a0
    3664:	000018b7          	lui	a7,0x1
    3668:	411408b3          	sub	a7,s0,a7
    366c:	7108b023          	sd	a6,1792(a7) # 1700 <.LBB96_4+0x520>
    3670:	01050533          	add	a0,a0,a6
    3674:	00e50533          	add	a0,a0,a4
    3678:	c405051b          	addiw	a0,a0,-960
    367c:	40000bb7          	lui	s7,0x40000
    3680:	00001837          	lui	a6,0x1
    3684:	41040833          	sub	a6,s0,a6
    3688:	d1083c03          	ld	s8,-752(a6) # d10 <.LBB96_3+0xa8c>
    368c:	00001837          	lui	a6,0x1
    3690:	41040833          	sub	a6,s0,a6
    3694:	dea83423          	sd	a0,-536(a6) # de8 <.LBB96_3+0xb64>
    3698:	00055463          	bgez	a0,36a0 <.LBB96_38>
    369c:	c0000bb7          	lui	s7,0xc0000

00000000000036a0 <.LBB96_38>:
    36a0:	00001537          	lui	a0,0x1
    36a4:	40a40533          	sub	a0,s0,a0
    36a8:	df753023          	sd	s7,-544(a0) # de0 <.LBB96_3+0xb5c>
    36ac:	021b0833          	mul	a6,s6,ra
    36b0:	e9043503          	ld	a0,-368(s0)
    36b4:	000018b7          	lui	a7,0x1
    36b8:	411408b3          	sub	a7,s0,a7
    36bc:	7088bb03          	ld	s6,1800(a7) # 1708 <.LBB96_4+0x528>
    36c0:	00ab0533          	add	a0,s6,a0
    36c4:	000018b7          	lui	a7,0x1
    36c8:	411408b3          	sub	a7,s0,a7
    36cc:	7108b423          	sd	a6,1800(a7) # 1708 <.LBB96_4+0x528>
    36d0:	01050533          	add	a0,a0,a6
    36d4:	00e50533          	add	a0,a0,a4
    36d8:	c405051b          	addiw	a0,a0,-960
    36dc:	40000b37          	lui	s6,0x40000
    36e0:	00001837          	lui	a6,0x1
    36e4:	41040833          	sub	a6,s0,a6
    36e8:	65083b83          	ld	s7,1616(a6) # 1650 <.LBB96_4+0x470>
    36ec:	00001837          	lui	a6,0x1
    36f0:	41040833          	sub	a6,s0,a6
    36f4:	dea83c23          	sd	a0,-520(a6) # df8 <.LBB96_3+0xb74>
    36f8:	00055463          	bgez	a0,3700 <.LBB96_40>
    36fc:	c0000b37          	lui	s6,0xc0000

0000000000003700 <.LBB96_40>:
    3700:	00001537          	lui	a0,0x1
    3704:	40a40533          	sub	a0,s0,a0
    3708:	df653823          	sd	s6,-528(a0) # df0 <.LBB96_3+0xb6c>
    370c:	021a8833          	mul	a6,s5,ra
    3710:	e9843503          	ld	a0,-360(s0)
    3714:	000018b7          	lui	a7,0x1
    3718:	411408b3          	sub	a7,s0,a7
    371c:	7108ba83          	ld	s5,1808(a7) # 1710 <.LBB96_4+0x530>
    3720:	00aa8533          	add	a0,s5,a0
    3724:	000018b7          	lui	a7,0x1
    3728:	411408b3          	sub	a7,s0,a7
    372c:	7108b823          	sd	a6,1808(a7) # 1710 <.LBB96_4+0x530>
    3730:	01050533          	add	a0,a0,a6
    3734:	00e50533          	add	a0,a0,a4
    3738:	c405051b          	addiw	a0,a0,-960
    373c:	40000ab7          	lui	s5,0x40000
    3740:	da843b03          	ld	s6,-600(s0)
    3744:	00001837          	lui	a6,0x1
    3748:	41040833          	sub	a6,s0,a6
    374c:	e0a83423          	sd	a0,-504(a6) # e08 <.LBB96_3+0xb84>
    3750:	00055463          	bgez	a0,3758 <.LBB96_42>
    3754:	c0000ab7          	lui	s5,0xc0000

0000000000003758 <.LBB96_42>:
    3758:	00001537          	lui	a0,0x1
    375c:	40a40533          	sub	a0,s0,a0
    3760:	e1553023          	sd	s5,-512(a0) # e00 <.LBB96_3+0xb7c>
    3764:	021a0833          	mul	a6,s4,ra
    3768:	ea043503          	ld	a0,-352(s0)
    376c:	000018b7          	lui	a7,0x1
    3770:	411408b3          	sub	a7,s0,a7
    3774:	7188ba03          	ld	s4,1816(a7) # 1718 <.LBB96_4+0x538>
    3778:	00aa0533          	add	a0,s4,a0
    377c:	000018b7          	lui	a7,0x1
    3780:	411408b3          	sub	a7,s0,a7
    3784:	7108bc23          	sd	a6,1816(a7) # 1718 <.LBB96_4+0x538>
    3788:	01050533          	add	a0,a0,a6
    378c:	00e50533          	add	a0,a0,a4
    3790:	c405051b          	addiw	a0,a0,-960
    3794:	40000a37          	lui	s4,0x40000
    3798:	bd843a83          	ld	s5,-1064(s0)
    379c:	00001837          	lui	a6,0x1
    37a0:	41040833          	sub	a6,s0,a6
    37a4:	e0a83c23          	sd	a0,-488(a6) # e18 <.LBB96_3+0xb94>
    37a8:	00055463          	bgez	a0,37b0 <.LBB96_44>
    37ac:	c0000a37          	lui	s4,0xc0000

00000000000037b0 <.LBB96_44>:
    37b0:	00001537          	lui	a0,0x1
    37b4:	40a40533          	sub	a0,s0,a0
    37b8:	e1453823          	sd	s4,-496(a0) # e10 <.LBB96_3+0xb8c>
    37bc:	02198833          	mul	a6,s3,ra
    37c0:	ea843503          	ld	a0,-344(s0)
    37c4:	000018b7          	lui	a7,0x1
    37c8:	411408b3          	sub	a7,s0,a7
    37cc:	7208b983          	ld	s3,1824(a7) # 1720 <.LBB96_4+0x540>
    37d0:	00a98533          	add	a0,s3,a0
    37d4:	000018b7          	lui	a7,0x1
    37d8:	411408b3          	sub	a7,s0,a7
    37dc:	7308b023          	sd	a6,1824(a7) # 1720 <.LBB96_4+0x540>
    37e0:	01050533          	add	a0,a0,a6
    37e4:	00e50533          	add	a0,a0,a4
    37e8:	c405051b          	addiw	a0,a0,-960
    37ec:	40000a37          	lui	s4,0x40000
    37f0:	00001837          	lui	a6,0x1
    37f4:	41040833          	sub	a6,s0,a6
    37f8:	e2a83423          	sd	a0,-472(a6) # e28 <.LBB96_3+0xba4>
    37fc:	00055463          	bgez	a0,3804 <.LBB96_46>
    3800:	c0000a37          	lui	s4,0xc0000

0000000000003804 <.LBB96_46>:
    3804:	00001537          	lui	a0,0x1
    3808:	40a40533          	sub	a0,s0,a0
    380c:	e3453023          	sd	s4,-480(a0) # e20 <.LBB96_3+0xb9c>
    3810:	02190833          	mul	a6,s2,ra
    3814:	eb043503          	ld	a0,-336(s0)
    3818:	000018b7          	lui	a7,0x1
    381c:	411408b3          	sub	a7,s0,a7
    3820:	7288b903          	ld	s2,1832(a7) # 1728 <.LBB96_4+0x548>
    3824:	00a90533          	add	a0,s2,a0
    3828:	000018b7          	lui	a7,0x1
    382c:	411408b3          	sub	a7,s0,a7
    3830:	7308b423          	sd	a6,1832(a7) # 1728 <.LBB96_4+0x548>
    3834:	01050533          	add	a0,a0,a6
    3838:	00e50533          	add	a0,a0,a4
    383c:	c405051b          	addiw	a0,a0,-960
    3840:	40000a37          	lui	s4,0x40000
    3844:	00001837          	lui	a6,0x1
    3848:	41040833          	sub	a6,s0,a6
    384c:	e2a83c23          	sd	a0,-456(a6) # e38 <.LBB96_3+0xbb4>
    3850:	00001837          	lui	a6,0x1
    3854:	41040833          	sub	a6,s0,a6
    3858:	77883983          	ld	s3,1912(a6) # 1778 <.LBB96_4+0x598>
    385c:	00055463          	bgez	a0,3864 <.LBB96_48>
    3860:	c0000a37          	lui	s4,0xc0000

0000000000003864 <.LBB96_48>:
    3864:	02148833          	mul	a6,s1,ra
    3868:	eb843503          	ld	a0,-328(s0)
    386c:	000018b7          	lui	a7,0x1
    3870:	411408b3          	sub	a7,s0,a7
    3874:	7308b483          	ld	s1,1840(a7) # 1730 <.LBB96_4+0x550>
    3878:	00a48533          	add	a0,s1,a0
    387c:	000018b7          	lui	a7,0x1
    3880:	411408b3          	sub	a7,s0,a7
    3884:	7308b823          	sd	a6,1840(a7) # 1730 <.LBB96_4+0x550>
    3888:	01050533          	add	a0,a0,a6
    388c:	00e50533          	add	a0,a0,a4
    3890:	c405051b          	addiw	a0,a0,-960
    3894:	400004b7          	lui	s1,0x40000
    3898:	00001837          	lui	a6,0x1
    389c:	41040833          	sub	a6,s0,a6
    38a0:	e4a83423          	sd	a0,-440(a6) # e48 <.LBB96_3+0xbc4>
    38a4:	00001837          	lui	a6,0x1
    38a8:	41040833          	sub	a6,s0,a6
    38ac:	78083903          	ld	s2,1920(a6) # 1780 <.LBB96_4+0x5a0>
    38b0:	00055463          	bgez	a0,38b8 <.LBB96_50>
    38b4:	c00004b7          	lui	s1,0xc0000

00000000000038b8 <.LBB96_50>:
    38b8:	00001537          	lui	a0,0x1
    38bc:	40a40533          	sub	a0,s0,a0
    38c0:	e4953023          	sd	s1,-448(a0) # e40 <.LBB96_3+0xbbc>
    38c4:	021f8833          	mul	a6,t6,ra
    38c8:	f3843503          	ld	a0,-200(s0)
    38cc:	000018b7          	lui	a7,0x1
    38d0:	411408b3          	sub	a7,s0,a7
    38d4:	7388bf83          	ld	t6,1848(a7) # 1738 <.LBB96_4+0x558>
    38d8:	00af8533          	add	a0,t6,a0
    38dc:	000018b7          	lui	a7,0x1
    38e0:	411408b3          	sub	a7,s0,a7
    38e4:	7308bc23          	sd	a6,1848(a7) # 1738 <.LBB96_4+0x558>
    38e8:	01050533          	add	a0,a0,a6
    38ec:	00e50533          	add	a0,a0,a4
    38f0:	c405051b          	addiw	a0,a0,-960
    38f4:	40000fb7          	lui	t6,0x40000
    38f8:	b1043483          	ld	s1,-1264(s0)
    38fc:	00001837          	lui	a6,0x1
    3900:	41040833          	sub	a6,s0,a6
    3904:	e4a83c23          	sd	a0,-424(a6) # e58 <.LBB96_3+0xbd4>
    3908:	00055463          	bgez	a0,3910 <.LBB96_52>
    390c:	c0000fb7          	lui	t6,0xc0000

0000000000003910 <.LBB96_52>:
    3910:	00001537          	lui	a0,0x1
    3914:	40a40533          	sub	a0,s0,a0
    3918:	e5f53823          	sd	t6,-432(a0) # e50 <.LBB96_3+0xbcc>
    391c:	021f0833          	mul	a6,t5,ra
    3920:	f4043503          	ld	a0,-192(s0)
    3924:	000018b7          	lui	a7,0x1
    3928:	411408b3          	sub	a7,s0,a7
    392c:	7408bf03          	ld	t5,1856(a7) # 1740 <.LBB96_4+0x560>
    3930:	00af0533          	add	a0,t5,a0
    3934:	000018b7          	lui	a7,0x1
    3938:	411408b3          	sub	a7,s0,a7
    393c:	7508b023          	sd	a6,1856(a7) # 1740 <.LBB96_4+0x560>
    3940:	01050533          	add	a0,a0,a6
    3944:	00e50533          	add	a0,a0,a4
    3948:	c405051b          	addiw	a0,a0,-960
    394c:	40000f37          	lui	t5,0x40000
    3950:	db043f83          	ld	t6,-592(s0)
    3954:	00001837          	lui	a6,0x1
    3958:	41040833          	sub	a6,s0,a6
    395c:	e6a83423          	sd	a0,-408(a6) # e68 <.LBB96_3+0xbe4>
    3960:	00055463          	bgez	a0,3968 <.LBB96_54>
    3964:	c0000f37          	lui	t5,0xc0000

0000000000003968 <.LBB96_54>:
    3968:	021e8833          	mul	a6,t4,ra
    396c:	f4843503          	ld	a0,-184(s0)
    3970:	000018b7          	lui	a7,0x1
    3974:	411408b3          	sub	a7,s0,a7
    3978:	7488be83          	ld	t4,1864(a7) # 1748 <.LBB96_4+0x568>
    397c:	00ae8533          	add	a0,t4,a0
    3980:	000018b7          	lui	a7,0x1
    3984:	411408b3          	sub	a7,s0,a7
    3988:	7508b423          	sd	a6,1864(a7) # 1748 <.LBB96_4+0x568>
    398c:	01050533          	add	a0,a0,a6
    3990:	00e50533          	add	a0,a0,a4
    3994:	c405051b          	addiw	a0,a0,-960
    3998:	40000eb7          	lui	t4,0x40000
    399c:	00001837          	lui	a6,0x1
    39a0:	41040833          	sub	a6,s0,a6
    39a4:	e6a83c23          	sd	a0,-392(a6) # e78 <.LBB96_3+0xbf4>
    39a8:	00055463          	bgez	a0,39b0 <.LBB96_56>
    39ac:	c0000eb7          	lui	t4,0xc0000

00000000000039b0 <.LBB96_56>:
    39b0:	00001537          	lui	a0,0x1
    39b4:	40a40533          	sub	a0,s0,a0
    39b8:	e7d53823          	sd	t4,-400(a0) # e70 <.LBB96_3+0xbec>
    39bc:	021e0833          	mul	a6,t3,ra
    39c0:	f5043503          	ld	a0,-176(s0)
    39c4:	000018b7          	lui	a7,0x1
    39c8:	411408b3          	sub	a7,s0,a7
    39cc:	7508be03          	ld	t3,1872(a7) # 1750 <.LBB96_4+0x570>
    39d0:	00ae0533          	add	a0,t3,a0
    39d4:	000018b7          	lui	a7,0x1
    39d8:	411408b3          	sub	a7,s0,a7
    39dc:	7508b823          	sd	a6,1872(a7) # 1750 <.LBB96_4+0x570>
    39e0:	01050533          	add	a0,a0,a6
    39e4:	00e50533          	add	a0,a0,a4
    39e8:	c405051b          	addiw	a0,a0,-960
    39ec:	40000e37          	lui	t3,0x40000
    39f0:	f0043e83          	ld	t4,-256(s0)
    39f4:	00001837          	lui	a6,0x1
    39f8:	41040833          	sub	a6,s0,a6
    39fc:	e8a83423          	sd	a0,-376(a6) # e88 <.LBB96_3+0xc04>
    3a00:	00055463          	bgez	a0,3a08 <.LBB96_58>
    3a04:	c0000e37          	lui	t3,0xc0000

0000000000003a08 <.LBB96_58>:
    3a08:	00001537          	lui	a0,0x1
    3a0c:	40a40533          	sub	a0,s0,a0
    3a10:	e7e53023          	sd	t5,-416(a0) # e60 <.LBB96_3+0xbdc>
    3a14:	00001537          	lui	a0,0x1
    3a18:	40a40533          	sub	a0,s0,a0
    3a1c:	e9c53023          	sd	t3,-384(a0) # e80 <.LBB96_3+0xbfc>
    3a20:	02138833          	mul	a6,t2,ra
    3a24:	f5843503          	ld	a0,-168(s0)
    3a28:	000018b7          	lui	a7,0x1
    3a2c:	411408b3          	sub	a7,s0,a7
    3a30:	7588b383          	ld	t2,1880(a7) # 1758 <.LBB96_4+0x578>
    3a34:	00a38533          	add	a0,t2,a0
    3a38:	000018b7          	lui	a7,0x1
    3a3c:	411408b3          	sub	a7,s0,a7
    3a40:	7508bc23          	sd	a6,1880(a7) # 1758 <.LBB96_4+0x578>
    3a44:	01050533          	add	a0,a0,a6
    3a48:	00e50533          	add	a0,a0,a4
    3a4c:	c405051b          	addiw	a0,a0,-960
    3a50:	400003b7          	lui	t2,0x40000
    3a54:	db843e03          	ld	t3,-584(s0)
    3a58:	00001837          	lui	a6,0x1
    3a5c:	41040833          	sub	a6,s0,a6
    3a60:	e8a83c23          	sd	a0,-360(a6) # e98 <.LBB96_3+0xc14>
    3a64:	00055463          	bgez	a0,3a6c <.LBB96_60>
    3a68:	c00003b7          	lui	t2,0xc0000

0000000000003a6c <.LBB96_60>:
    3a6c:	00001537          	lui	a0,0x1
    3a70:	40a40533          	sub	a0,s0,a0
    3a74:	e8753823          	sd	t2,-368(a0) # e90 <.LBB96_3+0xc0c>
    3a78:	02130833          	mul	a6,t1,ra
    3a7c:	f6043503          	ld	a0,-160(s0)
    3a80:	000018b7          	lui	a7,0x1
    3a84:	411408b3          	sub	a7,s0,a7
    3a88:	7608b303          	ld	t1,1888(a7) # 1760 <.LBB96_4+0x580>
    3a8c:	00a30533          	add	a0,t1,a0
    3a90:	000018b7          	lui	a7,0x1
    3a94:	411408b3          	sub	a7,s0,a7
    3a98:	7708b023          	sd	a6,1888(a7) # 1760 <.LBB96_4+0x580>
    3a9c:	01050533          	add	a0,a0,a6
    3aa0:	00e50533          	add	a0,a0,a4
    3aa4:	c405051b          	addiw	a0,a0,-960
    3aa8:	40000f37          	lui	t5,0x40000
    3aac:	f1843303          	ld	t1,-232(s0)
    3ab0:	dc043383          	ld	t2,-576(s0)
    3ab4:	00001837          	lui	a6,0x1
    3ab8:	41040833          	sub	a6,s0,a6
    3abc:	eaa83423          	sd	a0,-344(a6) # ea8 <.LBB96_3+0xc24>
    3ac0:	00055463          	bgez	a0,3ac8 <.LBB96_62>
    3ac4:	c0000f37          	lui	t5,0xc0000

0000000000003ac8 <.LBB96_62>:
    3ac8:	02128833          	mul	a6,t0,ra
    3acc:	f6843503          	ld	a0,-152(s0)
    3ad0:	000018b7          	lui	a7,0x1
    3ad4:	411408b3          	sub	a7,s0,a7
    3ad8:	7688b283          	ld	t0,1896(a7) # 1768 <.LBB96_4+0x588>
    3adc:	00a28533          	add	a0,t0,a0
    3ae0:	000018b7          	lui	a7,0x1
    3ae4:	411408b3          	sub	a7,s0,a7
    3ae8:	7708b423          	sd	a6,1896(a7) # 1768 <.LBB96_4+0x588>
    3aec:	01050533          	add	a0,a0,a6
    3af0:	00e50533          	add	a0,a0,a4
    3af4:	c405051b          	addiw	a0,a0,-960
    3af8:	400002b7          	lui	t0,0x40000
    3afc:	00001837          	lui	a6,0x1
    3b00:	41040833          	sub	a6,s0,a6
    3b04:	eaa83c23          	sd	a0,-328(a6) # eb8 <.LBB96_3+0xc34>
    3b08:	00055463          	bgez	a0,3b10 <.LBB96_64>
    3b0c:	c00002b7          	lui	t0,0xc0000

0000000000003b10 <.LBB96_64>:
    3b10:	00001537          	lui	a0,0x1
    3b14:	40a40533          	sub	a0,s0,a0
    3b18:	ea553823          	sd	t0,-336(a0) # eb0 <.LBB96_3+0xc2c>
    3b1c:	00001537          	lui	a0,0x1
    3b20:	40a40533          	sub	a0,s0,a0
    3b24:	64053503          	ld	a0,1600(a0) # 1640 <.LBB96_4+0x460>
    3b28:	02150833          	mul	a6,a0,ra
    3b2c:	f7043503          	ld	a0,-144(s0)
    3b30:	000018b7          	lui	a7,0x1
    3b34:	411408b3          	sub	a7,s0,a7
    3b38:	7708b883          	ld	a7,1904(a7) # 1770 <.LBB96_4+0x590>
    3b3c:	00a88533          	add	a0,a7,a0
    3b40:	000018b7          	lui	a7,0x1
    3b44:	411408b3          	sub	a7,s0,a7
    3b48:	7708b823          	sd	a6,1904(a7) # 1770 <.LBB96_4+0x590>
    3b4c:	01050533          	add	a0,a0,a6
    3b50:	00e50533          	add	a0,a0,a4
    3b54:	c405051b          	addiw	a0,a0,-960
    3b58:	400008b7          	lui	a7,0x40000
    3b5c:	dd043283          	ld	t0,-560(s0)
    3b60:	00001837          	lui	a6,0x1
    3b64:	41040833          	sub	a6,s0,a6
    3b68:	eca83423          	sd	a0,-312(a6) # ec8 <.LBB96_3+0xc44>
    3b6c:	00055463          	bgez	a0,3b74 <.LBB96_66>
    3b70:	c00008b7          	lui	a7,0xc0000

0000000000003b74 <.LBB96_66>:
    3b74:	f8b43823          	sd	a1,-112(s0)
    3b78:	00001537          	lui	a0,0x1
    3b7c:	40a40533          	sub	a0,s0,a0
    3b80:	ed153023          	sd	a7,-320(a0) # ec0 <.LBB96_3+0xc3c>
    3b84:	00001537          	lui	a0,0x1
    3b88:	40a40533          	sub	a0,s0,a0
    3b8c:	66853503          	ld	a0,1640(a0) # 1668 <.LBB96_4+0x488>
    3b90:	02150833          	mul	a6,a0,ra
    3b94:	f7843503          	ld	a0,-136(s0)
    3b98:	00a98533          	add	a0,s3,a0
    3b9c:	00080993          	mv	s3,a6
    3ba0:	01050533          	add	a0,a0,a6
    3ba4:	00e50533          	add	a0,a0,a4
    3ba8:	c405051b          	addiw	a0,a0,-960
    3bac:	40000837          	lui	a6,0x40000
    3bb0:	dd843883          	ld	a7,-552(s0)
    3bb4:	000015b7          	lui	a1,0x1
    3bb8:	40b405b3          	sub	a1,s0,a1
    3bbc:	eca5bc23          	sd	a0,-296(a1) # ed8 <.LBB96_3+0xc54>
    3bc0:	f9043583          	ld	a1,-112(s0)
    3bc4:	00055463          	bgez	a0,3bcc <.LBB96_68>
    3bc8:	c0000837          	lui	a6,0xc0000

0000000000003bcc <.LBB96_68>:
    3bcc:	00001537          	lui	a0,0x1
    3bd0:	40a40533          	sub	a0,s0,a0
    3bd4:	e3453823          	sd	s4,-464(a0) # e30 <.LBB96_3+0xbac>
    3bd8:	00001537          	lui	a0,0x1
    3bdc:	40a40533          	sub	a0,s0,a0
    3be0:	ebe53023          	sd	t5,-352(a0) # ea0 <.LBB96_3+0xc1c>
    3be4:	00001537          	lui	a0,0x1
    3be8:	40a40533          	sub	a0,s0,a0
    3bec:	ed053823          	sd	a6,-304(a0) # ed0 <.LBB96_3+0xc4c>
    3bf0:	00001537          	lui	a0,0x1
    3bf4:	40a40533          	sub	a0,s0,a0
    3bf8:	67053503          	ld	a0,1648(a0) # 1670 <.LBB96_4+0x490>
    3bfc:	02150833          	mul	a6,a0,ra
    3c00:	f8043503          	ld	a0,-128(s0)
    3c04:	00a90533          	add	a0,s2,a0
    3c08:	00080913          	mv	s2,a6
    3c0c:	01050533          	add	a0,a0,a6
    3c10:	00e50533          	add	a0,a0,a4
    3c14:	c405051b          	addiw	a0,a0,-960
    3c18:	40000737          	lui	a4,0x40000
    3c1c:	de043803          	ld	a6,-544(s0)
    3c20:	00001f37          	lui	t5,0x1
    3c24:	41e40f33          	sub	t5,s0,t5
    3c28:	eeaf3423          	sd	a0,-280(t5) # ee8 <.LBB96_3+0xc64>
    3c2c:	00055463          	bgez	a0,3c34 <.LBB96_70>
    3c30:	c0000737          	lui	a4,0xc0000

0000000000003c34 <.LBB96_70>:
    3c34:	f8b43823          	sd	a1,-112(s0)
    3c38:	00001537          	lui	a0,0x1
    3c3c:	40a40533          	sub	a0,s0,a0
    3c40:	eee53023          	sd	a4,-288(a0) # ee0 <.LBB96_3+0xc5c>
    3c44:	e5843503          	ld	a0,-424(s0)
    3c48:	000015b7          	lui	a1,0x1
    3c4c:	40b405b3          	sub	a1,s0,a1
    3c50:	7885b703          	ld	a4,1928(a1) # 1788 <.LBB96_5>
    3c54:	00a70533          	add	a0,a4,a0
    3c58:	e5043703          	ld	a4,-432(s0)
    3c5c:	00e50533          	add	a0,a0,a4
    3c60:	00d50533          	add	a0,a0,a3
    3c64:	c405051b          	addiw	a0,a0,-960
    3c68:	40000f37          	lui	t5,0x40000
    3c6c:	ec043a03          	ld	s4,-320(s0)
    3c70:	d9843083          	ld	ra,-616(s0)
    3c74:	b1843703          	ld	a4,-1256(s0)
    3c78:	000015b7          	lui	a1,0x1
    3c7c:	40b405b3          	sub	a1,s0,a1
    3c80:	eea5bc23          	sd	a0,-264(a1) # ef8 <.LBB96_3+0xc74>
    3c84:	f9043583          	ld	a1,-112(s0)
    3c88:	00055463          	bgez	a0,3c90 <.LBB96_72>
    3c8c:	c0000f37          	lui	t5,0xc0000

0000000000003c90 <.LBB96_72>:
    3c90:	f8b43823          	sd	a1,-112(s0)
    3c94:	00001537          	lui	a0,0x1
    3c98:	40a40533          	sub	a0,s0,a0
    3c9c:	efe53823          	sd	t5,-272(a0) # ef0 <.LBB96_3+0xc6c>
    3ca0:	e4843503          	ld	a0,-440(s0)
    3ca4:	000015b7          	lui	a1,0x1
    3ca8:	40b405b3          	sub	a1,s0,a1
    3cac:	7905bf03          	ld	t5,1936(a1) # 1790 <.LBB96_5+0x8>
    3cb0:	00af0533          	add	a0,t5,a0
    3cb4:	e4043f03          	ld	t5,-448(s0)
    3cb8:	01e50533          	add	a0,a0,t5
    3cbc:	00d50533          	add	a0,a0,a3
    3cc0:	c405051b          	addiw	a0,a0,-960
    3cc4:	40000f37          	lui	t5,0x40000
    3cc8:	000015b7          	lui	a1,0x1
    3ccc:	40b405b3          	sub	a1,s0,a1
    3cd0:	f0a5b423          	sd	a0,-248(a1) # f08 <.LBB96_3+0xc84>
    3cd4:	f9043583          	ld	a1,-112(s0)
    3cd8:	00055463          	bgez	a0,3ce0 <.LBB96_74>
    3cdc:	c0000f37          	lui	t5,0xc0000

0000000000003ce0 <.LBB96_74>:
    3ce0:	f8b43823          	sd	a1,-112(s0)
    3ce4:	00001537          	lui	a0,0x1
    3ce8:	40a40533          	sub	a0,s0,a0
    3cec:	f1e53023          	sd	t5,-256(a0) # f00 <.LBB96_3+0xc7c>
    3cf0:	e3843503          	ld	a0,-456(s0)
    3cf4:	000015b7          	lui	a1,0x1
    3cf8:	40b405b3          	sub	a1,s0,a1
    3cfc:	7985bf03          	ld	t5,1944(a1) # 1798 <.LBB96_5+0x10>
    3d00:	00af0533          	add	a0,t5,a0
    3d04:	e3043f03          	ld	t5,-464(s0)
    3d08:	01e50533          	add	a0,a0,t5
    3d0c:	00d50533          	add	a0,a0,a3
    3d10:	c405051b          	addiw	a0,a0,-960
    3d14:	40000f37          	lui	t5,0x40000
    3d18:	000015b7          	lui	a1,0x1
    3d1c:	40b405b3          	sub	a1,s0,a1
    3d20:	f0a5bc23          	sd	a0,-232(a1) # f18 <.LBB96_3+0xc94>
    3d24:	f9043583          	ld	a1,-112(s0)
    3d28:	00055463          	bgez	a0,3d30 <.LBB96_76>
    3d2c:	c0000f37          	lui	t5,0xc0000

0000000000003d30 <.LBB96_76>:
    3d30:	f8b43823          	sd	a1,-112(s0)
    3d34:	00001537          	lui	a0,0x1
    3d38:	40a40533          	sub	a0,s0,a0
    3d3c:	f1e53823          	sd	t5,-240(a0) # f10 <.LBB96_3+0xc8c>
    3d40:	e2843503          	ld	a0,-472(s0)
    3d44:	000015b7          	lui	a1,0x1
    3d48:	40b405b3          	sub	a1,s0,a1
    3d4c:	7a05bf03          	ld	t5,1952(a1) # 17a0 <.LBB96_5+0x18>
    3d50:	00af0533          	add	a0,t5,a0
    3d54:	e2043f03          	ld	t5,-480(s0)
    3d58:	01e50533          	add	a0,a0,t5
    3d5c:	00d50533          	add	a0,a0,a3
    3d60:	c405051b          	addiw	a0,a0,-960
    3d64:	40000f37          	lui	t5,0x40000
    3d68:	000015b7          	lui	a1,0x1
    3d6c:	40b405b3          	sub	a1,s0,a1
    3d70:	f2a5b423          	sd	a0,-216(a1) # f28 <.LBB96_3+0xca4>
    3d74:	f9043583          	ld	a1,-112(s0)
    3d78:	00055463          	bgez	a0,3d80 <.LBB96_78>
    3d7c:	c0000f37          	lui	t5,0xc0000

0000000000003d80 <.LBB96_78>:
    3d80:	f8b43823          	sd	a1,-112(s0)
    3d84:	00001537          	lui	a0,0x1
    3d88:	40a40533          	sub	a0,s0,a0
    3d8c:	f3e53023          	sd	t5,-224(a0) # f20 <.LBB96_3+0xc9c>
    3d90:	e1843503          	ld	a0,-488(s0)
    3d94:	000015b7          	lui	a1,0x1
    3d98:	40b405b3          	sub	a1,s0,a1
    3d9c:	7a85bf03          	ld	t5,1960(a1) # 17a8 <.LBB96_5+0x20>
    3da0:	00af0533          	add	a0,t5,a0
    3da4:	e1043f03          	ld	t5,-496(s0)
    3da8:	01e50533          	add	a0,a0,t5
    3dac:	00d50533          	add	a0,a0,a3
    3db0:	c405051b          	addiw	a0,a0,-960
    3db4:	40000f37          	lui	t5,0x40000
    3db8:	000015b7          	lui	a1,0x1
    3dbc:	40b405b3          	sub	a1,s0,a1
    3dc0:	f2a5bc23          	sd	a0,-200(a1) # f38 <.LBB96_3+0xcb4>
    3dc4:	f9043583          	ld	a1,-112(s0)
    3dc8:	00055463          	bgez	a0,3dd0 <.LBB96_80>
    3dcc:	c0000f37          	lui	t5,0xc0000

0000000000003dd0 <.LBB96_80>:
    3dd0:	f8b43823          	sd	a1,-112(s0)
    3dd4:	00001537          	lui	a0,0x1
    3dd8:	40a40533          	sub	a0,s0,a0
    3ddc:	f3e53823          	sd	t5,-208(a0) # f30 <.LBB96_3+0xcac>
    3de0:	00001537          	lui	a0,0x1
    3de4:	40a40533          	sub	a0,s0,a0
    3de8:	6c853503          	ld	a0,1736(a0) # 16c8 <.LBB96_4+0x4e8>
    3dec:	000015b7          	lui	a1,0x1
    3df0:	40b405b3          	sub	a1,s0,a1
    3df4:	7b05bf03          	ld	t5,1968(a1) # 17b0 <.LBB96_5+0x28>
    3df8:	00af0533          	add	a0,t5,a0
    3dfc:	000015b7          	lui	a1,0x1
    3e00:	40b405b3          	sub	a1,s0,a1
    3e04:	6c05bf03          	ld	t5,1728(a1) # 16c0 <.LBB96_4+0x4e0>
    3e08:	01e50533          	add	a0,a0,t5
    3e0c:	00d50533          	add	a0,a0,a3
    3e10:	c405051b          	addiw	a0,a0,-960
    3e14:	40000f37          	lui	t5,0x40000
    3e18:	000015b7          	lui	a1,0x1
    3e1c:	40b405b3          	sub	a1,s0,a1
    3e20:	f6a5b423          	sd	a0,-152(a1) # f68 <.LBB96_3+0xce4>
    3e24:	f9043583          	ld	a1,-112(s0)
    3e28:	00055463          	bgez	a0,3e30 <.LBB96_82>
    3e2c:	c0000f37          	lui	t5,0xc0000

0000000000003e30 <.LBB96_82>:
    3e30:	f8b43823          	sd	a1,-112(s0)
    3e34:	00001537          	lui	a0,0x1
    3e38:	40a40533          	sub	a0,s0,a0
    3e3c:	f5e53423          	sd	t5,-184(a0) # f48 <.LBB96_3+0xcc4>
    3e40:	00001537          	lui	a0,0x1
    3e44:	40a40533          	sub	a0,s0,a0
    3e48:	6b853503          	ld	a0,1720(a0) # 16b8 <.LBB96_4+0x4d8>
    3e4c:	000015b7          	lui	a1,0x1
    3e50:	40b405b3          	sub	a1,s0,a1
    3e54:	7b85bf03          	ld	t5,1976(a1) # 17b8 <.LBB96_5+0x30>
    3e58:	00af0533          	add	a0,t5,a0
    3e5c:	000015b7          	lui	a1,0x1
    3e60:	40b405b3          	sub	a1,s0,a1
    3e64:	6b05bf03          	ld	t5,1712(a1) # 16b0 <.LBB96_4+0x4d0>
    3e68:	01e50533          	add	a0,a0,t5
    3e6c:	00d50533          	add	a0,a0,a3
    3e70:	c405051b          	addiw	a0,a0,-960
    3e74:	40000f37          	lui	t5,0x40000
    3e78:	000015b7          	lui	a1,0x1
    3e7c:	40b405b3          	sub	a1,s0,a1
    3e80:	faa5b423          	sd	a0,-88(a1) # fa8 <.LBB96_3+0xd24>
    3e84:	f9043583          	ld	a1,-112(s0)
    3e88:	00055463          	bgez	a0,3e90 <.LBB96_84>
    3e8c:	c0000f37          	lui	t5,0xc0000

0000000000003e90 <.LBB96_84>:
    3e90:	f8b43823          	sd	a1,-112(s0)
    3e94:	00001537          	lui	a0,0x1
    3e98:	40a40533          	sub	a0,s0,a0
    3e9c:	f9e53423          	sd	t5,-120(a0) # f88 <.LBB96_3+0xd04>
    3ea0:	00001537          	lui	a0,0x1
    3ea4:	40a40533          	sub	a0,s0,a0
    3ea8:	6a853503          	ld	a0,1704(a0) # 16a8 <.LBB96_4+0x4c8>
    3eac:	000015b7          	lui	a1,0x1
    3eb0:	40b405b3          	sub	a1,s0,a1
    3eb4:	7c05bf03          	ld	t5,1984(a1) # 17c0 <.LBB96_5+0x38>
    3eb8:	00af0533          	add	a0,t5,a0
    3ebc:	000015b7          	lui	a1,0x1
    3ec0:	40b405b3          	sub	a1,s0,a1
    3ec4:	6a05bf03          	ld	t5,1696(a1) # 16a0 <.LBB96_4+0x4c0>
    3ec8:	01e50533          	add	a0,a0,t5
    3ecc:	00d50533          	add	a0,a0,a3
    3ed0:	c405051b          	addiw	a0,a0,-960
    3ed4:	40000f37          	lui	t5,0x40000
    3ed8:	000015b7          	lui	a1,0x1
    3edc:	40b405b3          	sub	a1,s0,a1
    3ee0:	fea5b423          	sd	a0,-24(a1) # fe8 <.LBB96_3+0xd64>
    3ee4:	f9043583          	ld	a1,-112(s0)
    3ee8:	00055463          	bgez	a0,3ef0 <.LBB96_86>
    3eec:	c0000f37          	lui	t5,0xc0000

0000000000003ef0 <.LBB96_86>:
    3ef0:	f8b43823          	sd	a1,-112(s0)
    3ef4:	00001537          	lui	a0,0x1
    3ef8:	40a40533          	sub	a0,s0,a0
    3efc:	fde53823          	sd	t5,-48(a0) # fd0 <.LBB96_3+0xd4c>
    3f00:	00001537          	lui	a0,0x1
    3f04:	40a40533          	sub	a0,s0,a0
    3f08:	69853503          	ld	a0,1688(a0) # 1698 <.LBB96_4+0x4b8>
    3f0c:	000015b7          	lui	a1,0x1
    3f10:	40b405b3          	sub	a1,s0,a1
    3f14:	7c85bf03          	ld	t5,1992(a1) # 17c8 <.LBB96_5+0x40>
    3f18:	00af0533          	add	a0,t5,a0
    3f1c:	000015b7          	lui	a1,0x1
    3f20:	40b405b3          	sub	a1,s0,a1
    3f24:	6905bf03          	ld	t5,1680(a1) # 1690 <.LBB96_4+0x4b0>
    3f28:	01e50533          	add	a0,a0,t5
    3f2c:	00d50533          	add	a0,a0,a3
    3f30:	c405051b          	addiw	a0,a0,-960
    3f34:	40000f37          	lui	t5,0x40000
    3f38:	000015b7          	lui	a1,0x1
    3f3c:	40b405b3          	sub	a1,s0,a1
    3f40:	00a5b423          	sd	a0,8(a1) # 1008 <.LBB96_3+0xd84>
    3f44:	f9043583          	ld	a1,-112(s0)
    3f48:	00055463          	bgez	a0,3f50 <.LBB96_88>
    3f4c:	c0000f37          	lui	t5,0xc0000

0000000000003f50 <.LBB96_88>:
    3f50:	f8b43823          	sd	a1,-112(s0)
    3f54:	00001537          	lui	a0,0x1
    3f58:	40a40533          	sub	a0,s0,a0
    3f5c:	01e53023          	sd	t5,0(a0) # 1000 <.LBB96_3+0xd7c>
    3f60:	00001537          	lui	a0,0x1
    3f64:	40a40533          	sub	a0,s0,a0
    3f68:	68853503          	ld	a0,1672(a0) # 1688 <.LBB96_4+0x4a8>
    3f6c:	000015b7          	lui	a1,0x1
    3f70:	40b405b3          	sub	a1,s0,a1
    3f74:	7d05bf03          	ld	t5,2000(a1) # 17d0 <.LBB96_5+0x48>
    3f78:	00af0533          	add	a0,t5,a0
    3f7c:	000015b7          	lui	a1,0x1
    3f80:	40b405b3          	sub	a1,s0,a1
    3f84:	6d05bf03          	ld	t5,1744(a1) # 16d0 <.LBB96_4+0x4f0>
    3f88:	01e50533          	add	a0,a0,t5
    3f8c:	00d50533          	add	a0,a0,a3
    3f90:	c405051b          	addiw	a0,a0,-960
    3f94:	40000f37          	lui	t5,0x40000
    3f98:	000015b7          	lui	a1,0x1
    3f9c:	40b405b3          	sub	a1,s0,a1
    3fa0:	00a5bc23          	sd	a0,24(a1) # 1018 <.LBB96_3+0xd94>
    3fa4:	f9043583          	ld	a1,-112(s0)
    3fa8:	00055463          	bgez	a0,3fb0 <.LBB96_90>
    3fac:	c0000f37          	lui	t5,0xc0000

0000000000003fb0 <.LBB96_90>:
    3fb0:	f8b43823          	sd	a1,-112(s0)
    3fb4:	00001537          	lui	a0,0x1
    3fb8:	40a40533          	sub	a0,s0,a0
    3fbc:	01e53823          	sd	t5,16(a0) # 1010 <.LBB96_3+0xd8c>
    3fc0:	e6043503          	ld	a0,-416(s0)
    3fc4:	000015b7          	lui	a1,0x1
    3fc8:	40b405b3          	sub	a1,s0,a1
    3fcc:	7d85bf03          	ld	t5,2008(a1) # 17d8 <.LBB96_5+0x50>
    3fd0:	00af0533          	add	a0,t5,a0
    3fd4:	000015b7          	lui	a1,0x1
    3fd8:	40b405b3          	sub	a1,s0,a1
    3fdc:	6d85bf03          	ld	t5,1752(a1) # 16d8 <.LBB96_4+0x4f8>
    3fe0:	01e50533          	add	a0,a0,t5
    3fe4:	00d50533          	add	a0,a0,a3
    3fe8:	c405051b          	addiw	a0,a0,-960
    3fec:	40000f37          	lui	t5,0x40000
    3ff0:	000015b7          	lui	a1,0x1
    3ff4:	40b405b3          	sub	a1,s0,a1
    3ff8:	02a5b423          	sd	a0,40(a1) # 1028 <.LBB96_3+0xda4>
    3ffc:	f9043583          	ld	a1,-112(s0)
    4000:	00055463          	bgez	a0,4008 <.LBB96_92>
    4004:	c0000f37          	lui	t5,0xc0000

0000000000004008 <.LBB96_92>:
    4008:	f8b43823          	sd	a1,-112(s0)
    400c:	00001537          	lui	a0,0x1
    4010:	40a40533          	sub	a0,s0,a0
    4014:	03e53023          	sd	t5,32(a0) # 1020 <.LBB96_3+0xd9c>
    4018:	e6843503          	ld	a0,-408(s0)
    401c:	000015b7          	lui	a1,0x1
    4020:	40b405b3          	sub	a1,s0,a1
    4024:	7e05bf03          	ld	t5,2016(a1) # 17e0 <.LBB96_5+0x58>
    4028:	00af0533          	add	a0,t5,a0
    402c:	000015b7          	lui	a1,0x1
    4030:	40b405b3          	sub	a1,s0,a1
    4034:	6e05bf03          	ld	t5,1760(a1) # 16e0 <.LBB96_4+0x500>
    4038:	01e50533          	add	a0,a0,t5
    403c:	00d50533          	add	a0,a0,a3
    4040:	c405051b          	addiw	a0,a0,-960
    4044:	40000f37          	lui	t5,0x40000
    4048:	000015b7          	lui	a1,0x1
    404c:	40b405b3          	sub	a1,s0,a1
    4050:	02a5bc23          	sd	a0,56(a1) # 1038 <.LBB96_3+0xdb4>
    4054:	f9043583          	ld	a1,-112(s0)
    4058:	00055463          	bgez	a0,4060 <.LBB96_94>
    405c:	c0000f37          	lui	t5,0xc0000

0000000000004060 <.LBB96_94>:
    4060:	f8b43823          	sd	a1,-112(s0)
    4064:	00001537          	lui	a0,0x1
    4068:	40a40533          	sub	a0,s0,a0
    406c:	03e53823          	sd	t5,48(a0) # 1030 <.LBB96_3+0xdac>
    4070:	e7043503          	ld	a0,-400(s0)
    4074:	000015b7          	lui	a1,0x1
    4078:	40b405b3          	sub	a1,s0,a1
    407c:	7e85bf03          	ld	t5,2024(a1) # 17e8 <.LBB96_5+0x60>
    4080:	00af0533          	add	a0,t5,a0
    4084:	000015b7          	lui	a1,0x1
    4088:	40b405b3          	sub	a1,s0,a1
    408c:	6e85bf03          	ld	t5,1768(a1) # 16e8 <.LBB96_4+0x508>
    4090:	01e50533          	add	a0,a0,t5
    4094:	00d50533          	add	a0,a0,a3
    4098:	c405051b          	addiw	a0,a0,-960
    409c:	40000f37          	lui	t5,0x40000
    40a0:	000015b7          	lui	a1,0x1
    40a4:	40b405b3          	sub	a1,s0,a1
    40a8:	04a5b423          	sd	a0,72(a1) # 1048 <.LBB96_3+0xdc4>
    40ac:	f9043583          	ld	a1,-112(s0)
    40b0:	00055463          	bgez	a0,40b8 <.LBB96_96>
    40b4:	c0000f37          	lui	t5,0xc0000

00000000000040b8 <.LBB96_96>:
    40b8:	f8b43823          	sd	a1,-112(s0)
    40bc:	00001537          	lui	a0,0x1
    40c0:	40a40533          	sub	a0,s0,a0
    40c4:	05e53023          	sd	t5,64(a0) # 1040 <.LBB96_3+0xdbc>
    40c8:	e7843503          	ld	a0,-392(s0)
    40cc:	000015b7          	lui	a1,0x1
    40d0:	40b405b3          	sub	a1,s0,a1
    40d4:	7f05bf03          	ld	t5,2032(a1) # 17f0 <.LBB96_5+0x68>
    40d8:	00af0533          	add	a0,t5,a0
    40dc:	01a50533          	add	a0,a0,s10
    40e0:	00d50533          	add	a0,a0,a3
    40e4:	c405051b          	addiw	a0,a0,-960
    40e8:	40000f37          	lui	t5,0x40000
    40ec:	000015b7          	lui	a1,0x1
    40f0:	40b405b3          	sub	a1,s0,a1
    40f4:	04a5bc23          	sd	a0,88(a1) # 1058 <.LBB96_3+0xdd4>
    40f8:	f9043583          	ld	a1,-112(s0)
    40fc:	00055463          	bgez	a0,4104 <.LBB96_98>
    4100:	c0000f37          	lui	t5,0xc0000

0000000000004104 <.LBB96_98>:
    4104:	f8b43823          	sd	a1,-112(s0)
    4108:	00001537          	lui	a0,0x1
    410c:	40a40533          	sub	a0,s0,a0
    4110:	05e53823          	sd	t5,80(a0) # 1050 <.LBB96_3+0xdcc>
    4114:	e8043503          	ld	a0,-384(s0)
    4118:	000015b7          	lui	a1,0x1
    411c:	40b405b3          	sub	a1,s0,a1
    4120:	7f85bf03          	ld	t5,2040(a1) # 17f8 <.LBB96_5+0x70>
    4124:	00af0533          	add	a0,t5,a0
    4128:	000015b7          	lui	a1,0x1
    412c:	40b405b3          	sub	a1,s0,a1
    4130:	6f85bf03          	ld	t5,1784(a1) # 16f8 <.LBB96_4+0x518>
    4134:	01e50533          	add	a0,a0,t5
    4138:	00d50533          	add	a0,a0,a3
    413c:	c405051b          	addiw	a0,a0,-960
    4140:	40000f37          	lui	t5,0x40000
    4144:	000015b7          	lui	a1,0x1
    4148:	40b405b3          	sub	a1,s0,a1
    414c:	06a5b423          	sd	a0,104(a1) # 1068 <.LBB96_3+0xde4>
    4150:	f9043583          	ld	a1,-112(s0)
    4154:	00055463          	bgez	a0,415c <.LBB96_100>
    4158:	c0000f37          	lui	t5,0xc0000

000000000000415c <.LBB96_100>:
    415c:	f8b43823          	sd	a1,-112(s0)
    4160:	00001537          	lui	a0,0x1
    4164:	40a40533          	sub	a0,s0,a0
    4168:	07e53023          	sd	t5,96(a0) # 1060 <.LBB96_3+0xddc>
    416c:	e8843503          	ld	a0,-376(s0)
    4170:	80043f03          	ld	t5,-2048(s0)
    4174:	00af0533          	add	a0,t5,a0
    4178:	000015b7          	lui	a1,0x1
    417c:	40b405b3          	sub	a1,s0,a1
    4180:	7005bf03          	ld	t5,1792(a1) # 1700 <.LBB96_4+0x520>
    4184:	01e50533          	add	a0,a0,t5
    4188:	00d50533          	add	a0,a0,a3
    418c:	c405051b          	addiw	a0,a0,-960
    4190:	40000f37          	lui	t5,0x40000
    4194:	000015b7          	lui	a1,0x1
    4198:	40b405b3          	sub	a1,s0,a1
    419c:	06a5bc23          	sd	a0,120(a1) # 1078 <.LBB96_3+0xdf4>
    41a0:	f9043583          	ld	a1,-112(s0)
    41a4:	00055463          	bgez	a0,41ac <.LBB96_102>
    41a8:	c0000f37          	lui	t5,0xc0000

00000000000041ac <.LBB96_102>:
    41ac:	f8b43823          	sd	a1,-112(s0)
    41b0:	00001537          	lui	a0,0x1
    41b4:	40a40533          	sub	a0,s0,a0
    41b8:	07e53823          	sd	t5,112(a0) # 1070 <.LBB96_3+0xdec>
    41bc:	e9043503          	ld	a0,-368(s0)
    41c0:	80843f03          	ld	t5,-2040(s0)
    41c4:	00af0533          	add	a0,t5,a0
    41c8:	000015b7          	lui	a1,0x1
    41cc:	40b405b3          	sub	a1,s0,a1
    41d0:	7085bf03          	ld	t5,1800(a1) # 1708 <.LBB96_4+0x528>
    41d4:	01e50533          	add	a0,a0,t5
    41d8:	00d50533          	add	a0,a0,a3
    41dc:	c405051b          	addiw	a0,a0,-960
    41e0:	40000f37          	lui	t5,0x40000
    41e4:	000015b7          	lui	a1,0x1
    41e8:	40b405b3          	sub	a1,s0,a1
    41ec:	08a5b423          	sd	a0,136(a1) # 1088 <.LBB96_3+0xe04>
    41f0:	f9043583          	ld	a1,-112(s0)
    41f4:	00055463          	bgez	a0,41fc <.LBB96_104>
    41f8:	c0000f37          	lui	t5,0xc0000

00000000000041fc <.LBB96_104>:
    41fc:	f8b43823          	sd	a1,-112(s0)
    4200:	00001537          	lui	a0,0x1
    4204:	40a40533          	sub	a0,s0,a0
    4208:	09e53023          	sd	t5,128(a0) # 1080 <.LBB96_3+0xdfc>
    420c:	e9843503          	ld	a0,-360(s0)
    4210:	81043f03          	ld	t5,-2032(s0)
    4214:	00af0533          	add	a0,t5,a0
    4218:	000015b7          	lui	a1,0x1
    421c:	40b405b3          	sub	a1,s0,a1
    4220:	7105bf03          	ld	t5,1808(a1) # 1710 <.LBB96_4+0x530>
    4224:	01e50533          	add	a0,a0,t5
    4228:	00d50533          	add	a0,a0,a3
    422c:	c405051b          	addiw	a0,a0,-960
    4230:	40000f37          	lui	t5,0x40000
    4234:	000015b7          	lui	a1,0x1
    4238:	40b405b3          	sub	a1,s0,a1
    423c:	08a5bc23          	sd	a0,152(a1) # 1098 <.LBB96_3+0xe14>
    4240:	f9043583          	ld	a1,-112(s0)
    4244:	00055463          	bgez	a0,424c <.LBB96_106>
    4248:	c0000f37          	lui	t5,0xc0000

000000000000424c <.LBB96_106>:
    424c:	f8b43823          	sd	a1,-112(s0)
    4250:	00001537          	lui	a0,0x1
    4254:	40a40533          	sub	a0,s0,a0
    4258:	09e53823          	sd	t5,144(a0) # 1090 <.LBB96_3+0xe0c>
    425c:	ea043503          	ld	a0,-352(s0)
    4260:	81843f03          	ld	t5,-2024(s0)
    4264:	00af0533          	add	a0,t5,a0
    4268:	000015b7          	lui	a1,0x1
    426c:	40b405b3          	sub	a1,s0,a1
    4270:	7185bf03          	ld	t5,1816(a1) # 1718 <.LBB96_4+0x538>
    4274:	01e50533          	add	a0,a0,t5
    4278:	00d50533          	add	a0,a0,a3
    427c:	c405051b          	addiw	a0,a0,-960
    4280:	40000f37          	lui	t5,0x40000
    4284:	000015b7          	lui	a1,0x1
    4288:	40b405b3          	sub	a1,s0,a1
    428c:	0aa5b423          	sd	a0,168(a1) # 10a8 <.LBB96_3+0xe24>
    4290:	f9043583          	ld	a1,-112(s0)
    4294:	00055463          	bgez	a0,429c <.LBB96_108>
    4298:	c0000f37          	lui	t5,0xc0000

000000000000429c <.LBB96_108>:
    429c:	00001537          	lui	a0,0x1
    42a0:	40a40533          	sub	a0,s0,a0
    42a4:	0be53023          	sd	t5,160(a0) # 10a0 <.LBB96_3+0xe1c>
    42a8:	ea843503          	ld	a0,-344(s0)
    42ac:	82043f03          	ld	t5,-2016(s0)
    42b0:	00af0533          	add	a0,t5,a0
    42b4:	00001f37          	lui	t5,0x1
    42b8:	41e40f33          	sub	t5,s0,t5
    42bc:	720f3f03          	ld	t5,1824(t5) # 1720 <.LBB96_4+0x540>
    42c0:	01e50533          	add	a0,a0,t5
    42c4:	00d50533          	add	a0,a0,a3
    42c8:	c405051b          	addiw	a0,a0,-960
    42cc:	40000f37          	lui	t5,0x40000
    42d0:	80a43423          	sd	a0,-2040(s0)
    42d4:	00055463          	bgez	a0,42dc <.LBB96_110>
    42d8:	c0000f37          	lui	t5,0xc0000

00000000000042dc <.LBB96_110>:
    42dc:	f8b43823          	sd	a1,-112(s0)
    42e0:	00001537          	lui	a0,0x1
    42e4:	40a40533          	sub	a0,s0,a0
    42e8:	0be53823          	sd	t5,176(a0) # 10b0 <.LBB96_3+0xe2c>
    42ec:	eb043503          	ld	a0,-336(s0)
    42f0:	82843f03          	ld	t5,-2008(s0)
    42f4:	00af0533          	add	a0,t5,a0
    42f8:	000015b7          	lui	a1,0x1
    42fc:	40b405b3          	sub	a1,s0,a1
    4300:	7285bf03          	ld	t5,1832(a1) # 1728 <.LBB96_4+0x548>
    4304:	01e50533          	add	a0,a0,t5
    4308:	00d50533          	add	a0,a0,a3
    430c:	c405051b          	addiw	a0,a0,-960
    4310:	40000f37          	lui	t5,0x40000
    4314:	000015b7          	lui	a1,0x1
    4318:	40b405b3          	sub	a1,s0,a1
    431c:	7ca5bc23          	sd	a0,2008(a1) # 17d8 <.LBB96_5+0x50>
    4320:	f9043583          	ld	a1,-112(s0)
    4324:	00055463          	bgez	a0,432c <.LBB96_112>
    4328:	c0000f37          	lui	t5,0xc0000

000000000000432c <.LBB96_112>:
    432c:	f8b43823          	sd	a1,-112(s0)
    4330:	00001537          	lui	a0,0x1
    4334:	40a40533          	sub	a0,s0,a0
    4338:	0be53c23          	sd	t5,184(a0) # 10b8 <.LBB96_3+0xe34>
    433c:	eb843503          	ld	a0,-328(s0)
    4340:	83043f03          	ld	t5,-2000(s0)
    4344:	00af0533          	add	a0,t5,a0
    4348:	000015b7          	lui	a1,0x1
    434c:	40b405b3          	sub	a1,s0,a1
    4350:	7305bf03          	ld	t5,1840(a1) # 1730 <.LBB96_4+0x550>
    4354:	01e50533          	add	a0,a0,t5
    4358:	00d50533          	add	a0,a0,a3
    435c:	c405051b          	addiw	a0,a0,-960
    4360:	40000f37          	lui	t5,0x40000
    4364:	000015b7          	lui	a1,0x1
    4368:	40b405b3          	sub	a1,s0,a1
    436c:	78a5bc23          	sd	a0,1944(a1) # 1798 <.LBB96_5+0x10>
    4370:	f9043583          	ld	a1,-112(s0)
    4374:	00055463          	bgez	a0,437c <.LBB96_114>
    4378:	c0000f37          	lui	t5,0xc0000

000000000000437c <.LBB96_114>:
    437c:	f8b43823          	sd	a1,-112(s0)
    4380:	00001537          	lui	a0,0x1
    4384:	40a40533          	sub	a0,s0,a0
    4388:	0de53023          	sd	t5,192(a0) # 10c0 <.LBB96_3+0xe3c>
    438c:	f3843503          	ld	a0,-200(s0)
    4390:	83843f03          	ld	t5,-1992(s0)
    4394:	00af0533          	add	a0,t5,a0
    4398:	000015b7          	lui	a1,0x1
    439c:	40b405b3          	sub	a1,s0,a1
    43a0:	7385bf03          	ld	t5,1848(a1) # 1738 <.LBB96_4+0x558>
    43a4:	01e50533          	add	a0,a0,t5
    43a8:	00d50533          	add	a0,a0,a3
    43ac:	c405051b          	addiw	a0,a0,-960
    43b0:	40000f37          	lui	t5,0x40000
    43b4:	000015b7          	lui	a1,0x1
    43b8:	40b405b3          	sub	a1,s0,a1
    43bc:	0ca5b823          	sd	a0,208(a1) # 10d0 <.LBB96_3+0xe4c>
    43c0:	f9043583          	ld	a1,-112(s0)
    43c4:	00055463          	bgez	a0,43cc <.LBB96_116>
    43c8:	c0000f37          	lui	t5,0xc0000

00000000000043cc <.LBB96_116>:
    43cc:	f8b43823          	sd	a1,-112(s0)
    43d0:	00001537          	lui	a0,0x1
    43d4:	40a40533          	sub	a0,s0,a0
    43d8:	0de53423          	sd	t5,200(a0) # 10c8 <.LBB96_3+0xe44>
    43dc:	f4043503          	ld	a0,-192(s0)
    43e0:	84043f03          	ld	t5,-1984(s0)
    43e4:	00af0533          	add	a0,t5,a0
    43e8:	000015b7          	lui	a1,0x1
    43ec:	40b405b3          	sub	a1,s0,a1
    43f0:	7405bf03          	ld	t5,1856(a1) # 1740 <.LBB96_4+0x560>
    43f4:	01e50533          	add	a0,a0,t5
    43f8:	00d50533          	add	a0,a0,a3
    43fc:	c405051b          	addiw	a0,a0,-960
    4400:	40000f37          	lui	t5,0x40000
    4404:	000015b7          	lui	a1,0x1
    4408:	40b405b3          	sub	a1,s0,a1
    440c:	0ea5b023          	sd	a0,224(a1) # 10e0 <.LBB96_3+0xe5c>
    4410:	f9043583          	ld	a1,-112(s0)
    4414:	00055463          	bgez	a0,441c <.LBB96_118>
    4418:	c0000f37          	lui	t5,0xc0000

000000000000441c <.LBB96_118>:
    441c:	f8b43823          	sd	a1,-112(s0)
    4420:	00001537          	lui	a0,0x1
    4424:	40a40533          	sub	a0,s0,a0
    4428:	0de53c23          	sd	t5,216(a0) # 10d8 <.LBB96_3+0xe54>
    442c:	f4843503          	ld	a0,-184(s0)
    4430:	84843f03          	ld	t5,-1976(s0)
    4434:	00af0533          	add	a0,t5,a0
    4438:	000015b7          	lui	a1,0x1
    443c:	40b405b3          	sub	a1,s0,a1
    4440:	7485bf03          	ld	t5,1864(a1) # 1748 <.LBB96_4+0x568>
    4444:	01e50533          	add	a0,a0,t5
    4448:	00d50533          	add	a0,a0,a3
    444c:	c405051b          	addiw	a0,a0,-960
    4450:	40000f37          	lui	t5,0x40000
    4454:	000015b7          	lui	a1,0x1
    4458:	40b405b3          	sub	a1,s0,a1
    445c:	0ea5b823          	sd	a0,240(a1) # 10f0 <.LBB96_3+0xe6c>
    4460:	f9043583          	ld	a1,-112(s0)
    4464:	00055463          	bgez	a0,446c <.LBB96_120>
    4468:	c0000f37          	lui	t5,0xc0000

000000000000446c <.LBB96_120>:
    446c:	f8b43823          	sd	a1,-112(s0)
    4470:	00001537          	lui	a0,0x1
    4474:	40a40533          	sub	a0,s0,a0
    4478:	0fe53423          	sd	t5,232(a0) # 10e8 <.LBB96_3+0xe64>
    447c:	f5043503          	ld	a0,-176(s0)
    4480:	85043f03          	ld	t5,-1968(s0)
    4484:	00af0533          	add	a0,t5,a0
    4488:	000015b7          	lui	a1,0x1
    448c:	40b405b3          	sub	a1,s0,a1
    4490:	7505bf03          	ld	t5,1872(a1) # 1750 <.LBB96_4+0x570>
    4494:	01e50533          	add	a0,a0,t5
    4498:	00d50533          	add	a0,a0,a3
    449c:	c405051b          	addiw	a0,a0,-960
    44a0:	40000f37          	lui	t5,0x40000
    44a4:	000015b7          	lui	a1,0x1
    44a8:	40b405b3          	sub	a1,s0,a1
    44ac:	10a5b023          	sd	a0,256(a1) # 1100 <.LBB96_3+0xe7c>
    44b0:	f9043583          	ld	a1,-112(s0)
    44b4:	00055463          	bgez	a0,44bc <.LBB96_122>
    44b8:	c0000f37          	lui	t5,0xc0000

00000000000044bc <.LBB96_122>:
    44bc:	f8b43823          	sd	a1,-112(s0)
    44c0:	00001537          	lui	a0,0x1
    44c4:	40a40533          	sub	a0,s0,a0
    44c8:	0fe53c23          	sd	t5,248(a0) # 10f8 <.LBB96_3+0xe74>
    44cc:	f5843503          	ld	a0,-168(s0)
    44d0:	85843f03          	ld	t5,-1960(s0)
    44d4:	00af0533          	add	a0,t5,a0
    44d8:	000015b7          	lui	a1,0x1
    44dc:	40b405b3          	sub	a1,s0,a1
    44e0:	7585bf03          	ld	t5,1880(a1) # 1758 <.LBB96_4+0x578>
    44e4:	01e50533          	add	a0,a0,t5
    44e8:	00d50533          	add	a0,a0,a3
    44ec:	c405051b          	addiw	a0,a0,-960
    44f0:	40000f37          	lui	t5,0x40000
    44f4:	000015b7          	lui	a1,0x1
    44f8:	40b405b3          	sub	a1,s0,a1
    44fc:	10a5b823          	sd	a0,272(a1) # 1110 <.LBB96_3+0xe8c>
    4500:	f9043583          	ld	a1,-112(s0)
    4504:	00055463          	bgez	a0,450c <.LBB96_124>
    4508:	c0000f37          	lui	t5,0xc0000

000000000000450c <.LBB96_124>:
    450c:	f8b43823          	sd	a1,-112(s0)
    4510:	00001537          	lui	a0,0x1
    4514:	40a40533          	sub	a0,s0,a0
    4518:	11e53423          	sd	t5,264(a0) # 1108 <.LBB96_3+0xe84>
    451c:	f6043503          	ld	a0,-160(s0)
    4520:	86043f03          	ld	t5,-1952(s0)
    4524:	00af0533          	add	a0,t5,a0
    4528:	000015b7          	lui	a1,0x1
    452c:	40b405b3          	sub	a1,s0,a1
    4530:	7605bf03          	ld	t5,1888(a1) # 1760 <.LBB96_4+0x580>
    4534:	01e50533          	add	a0,a0,t5
    4538:	00d50533          	add	a0,a0,a3
    453c:	c405051b          	addiw	a0,a0,-960
    4540:	40000f37          	lui	t5,0x40000
    4544:	000015b7          	lui	a1,0x1
    4548:	40b405b3          	sub	a1,s0,a1
    454c:	12a5b023          	sd	a0,288(a1) # 1120 <.LBB96_3+0xe9c>
    4550:	f9043583          	ld	a1,-112(s0)
    4554:	00055463          	bgez	a0,455c <.LBB96_126>
    4558:	c0000f37          	lui	t5,0xc0000

000000000000455c <.LBB96_126>:
    455c:	f8b43823          	sd	a1,-112(s0)
    4560:	00001537          	lui	a0,0x1
    4564:	40a40533          	sub	a0,s0,a0
    4568:	11e53c23          	sd	t5,280(a0) # 1118 <.LBB96_3+0xe94>
    456c:	f6843503          	ld	a0,-152(s0)
    4570:	86843f03          	ld	t5,-1944(s0)
    4574:	00af0533          	add	a0,t5,a0
    4578:	000015b7          	lui	a1,0x1
    457c:	40b405b3          	sub	a1,s0,a1
    4580:	7685bf03          	ld	t5,1896(a1) # 1768 <.LBB96_4+0x588>
    4584:	01e50533          	add	a0,a0,t5
    4588:	00d50533          	add	a0,a0,a3
    458c:	c405051b          	addiw	a0,a0,-960
    4590:	40000f37          	lui	t5,0x40000
    4594:	000015b7          	lui	a1,0x1
    4598:	40b405b3          	sub	a1,s0,a1
    459c:	12a5b823          	sd	a0,304(a1) # 1130 <.LBB96_3+0xeac>
    45a0:	f9043583          	ld	a1,-112(s0)
    45a4:	00055463          	bgez	a0,45ac <.LBB96_128>
    45a8:	c0000f37          	lui	t5,0xc0000

00000000000045ac <.LBB96_128>:
    45ac:	f8b43823          	sd	a1,-112(s0)
    45b0:	00001537          	lui	a0,0x1
    45b4:	40a40533          	sub	a0,s0,a0
    45b8:	13e53423          	sd	t5,296(a0) # 1128 <.LBB96_3+0xea4>
    45bc:	f7043503          	ld	a0,-144(s0)
    45c0:	87043f03          	ld	t5,-1936(s0)
    45c4:	00af0533          	add	a0,t5,a0
    45c8:	000015b7          	lui	a1,0x1
    45cc:	40b405b3          	sub	a1,s0,a1
    45d0:	7705bf03          	ld	t5,1904(a1) # 1770 <.LBB96_4+0x590>
    45d4:	01e50533          	add	a0,a0,t5
    45d8:	00d50533          	add	a0,a0,a3
    45dc:	c405051b          	addiw	a0,a0,-960
    45e0:	40000f37          	lui	t5,0x40000
    45e4:	000015b7          	lui	a1,0x1
    45e8:	40b405b3          	sub	a1,s0,a1
    45ec:	14a5b023          	sd	a0,320(a1) # 1140 <.LBB96_3+0xebc>
    45f0:	f9043583          	ld	a1,-112(s0)
    45f4:	00055463          	bgez	a0,45fc <.LBB96_130>
    45f8:	c0000f37          	lui	t5,0xc0000

00000000000045fc <.LBB96_130>:
    45fc:	f8b43823          	sd	a1,-112(s0)
    4600:	00001537          	lui	a0,0x1
    4604:	40a40533          	sub	a0,s0,a0
    4608:	13e53c23          	sd	t5,312(a0) # 1138 <.LBB96_3+0xeb4>
    460c:	f7843503          	ld	a0,-136(s0)
    4610:	87843f03          	ld	t5,-1928(s0)
    4614:	00af0533          	add	a0,t5,a0
    4618:	01350533          	add	a0,a0,s3
    461c:	00d50533          	add	a0,a0,a3
    4620:	c405051b          	addiw	a0,a0,-960
    4624:	40000f37          	lui	t5,0x40000
    4628:	000015b7          	lui	a1,0x1
    462c:	40b405b3          	sub	a1,s0,a1
    4630:	14a5b823          	sd	a0,336(a1) # 1150 <.LBB96_3+0xecc>
    4634:	f9043583          	ld	a1,-112(s0)
    4638:	00055463          	bgez	a0,4640 <.LBB96_132>
    463c:	c0000f37          	lui	t5,0xc0000

0000000000004640 <.LBB96_132>:
    4640:	00001537          	lui	a0,0x1
    4644:	40a40533          	sub	a0,s0,a0
    4648:	15e53423          	sd	t5,328(a0) # 1148 <.LBB96_3+0xec4>
    464c:	f8043503          	ld	a0,-128(s0)
    4650:	88043f03          	ld	t5,-1920(s0)
    4654:	00af0533          	add	a0,t5,a0
    4658:	01250533          	add	a0,a0,s2
    465c:	00d50533          	add	a0,a0,a3
    4660:	c405051b          	addiw	a0,a0,-960
    4664:	400006b7          	lui	a3,0x40000
    4668:	00001f37          	lui	t5,0x1
    466c:	41e40f33          	sub	t5,s0,t5
    4670:	16af3023          	sd	a0,352(t5) # 1160 <.LBB96_3+0xedc>
    4674:	00055463          	bgez	a0,467c <.LBB96_134>
    4678:	c00006b7          	lui	a3,0xc0000

000000000000467c <.LBB96_134>:
    467c:	f8b43823          	sd	a1,-112(s0)
    4680:	00001537          	lui	a0,0x1
    4684:	40a40533          	sub	a0,s0,a0
    4688:	14d53c23          	sd	a3,344(a0) # 1158 <.LBB96_3+0xed4>
    468c:	e5843503          	ld	a0,-424(s0)
    4690:	88843683          	ld	a3,-1912(s0)
    4694:	00a68533          	add	a0,a3,a0
    4698:	e5043683          	ld	a3,-432(s0)
    469c:	00d50533          	add	a0,a0,a3
    46a0:	00c50533          	add	a0,a0,a2
    46a4:	c405051b          	addiw	a0,a0,-960
    46a8:	40000f37          	lui	t5,0x40000
    46ac:	df843683          	ld	a3,-520(s0)
    46b0:	000015b7          	lui	a1,0x1
    46b4:	40b405b3          	sub	a1,s0,a1
    46b8:	16a5b823          	sd	a0,368(a1) # 1170 <.LBB96_3+0xeec>
    46bc:	f9043583          	ld	a1,-112(s0)
    46c0:	00055463          	bgez	a0,46c8 <.LBB96_136>
    46c4:	c0000f37          	lui	t5,0xc0000

00000000000046c8 <.LBB96_136>:
    46c8:	f8b43823          	sd	a1,-112(s0)
    46cc:	00001537          	lui	a0,0x1
    46d0:	40a40533          	sub	a0,s0,a0
    46d4:	17e53423          	sd	t5,360(a0) # 1168 <.LBB96_3+0xee4>
    46d8:	e4843503          	ld	a0,-440(s0)
    46dc:	89043f03          	ld	t5,-1904(s0)
    46e0:	00af0533          	add	a0,t5,a0
    46e4:	e4043f03          	ld	t5,-448(s0)
    46e8:	01e50533          	add	a0,a0,t5
    46ec:	00c50533          	add	a0,a0,a2
    46f0:	c405051b          	addiw	a0,a0,-960
    46f4:	40000f37          	lui	t5,0x40000
    46f8:	000015b7          	lui	a1,0x1
    46fc:	40b405b3          	sub	a1,s0,a1
    4700:	18a5b023          	sd	a0,384(a1) # 1180 <.LBB96_3+0xefc>
    4704:	f9043583          	ld	a1,-112(s0)
    4708:	00055463          	bgez	a0,4710 <.LBB96_138>
    470c:	c0000f37          	lui	t5,0xc0000

0000000000004710 <.LBB96_138>:
    4710:	f8b43823          	sd	a1,-112(s0)
    4714:	00001537          	lui	a0,0x1
    4718:	40a40533          	sub	a0,s0,a0
    471c:	17e53c23          	sd	t5,376(a0) # 1178 <.LBB96_3+0xef4>
    4720:	e3843503          	ld	a0,-456(s0)
    4724:	89843f03          	ld	t5,-1896(s0)
    4728:	00af0533          	add	a0,t5,a0
    472c:	e3043f03          	ld	t5,-464(s0)
    4730:	01e50533          	add	a0,a0,t5
    4734:	00c50533          	add	a0,a0,a2
    4738:	c405051b          	addiw	a0,a0,-960
    473c:	40000f37          	lui	t5,0x40000
    4740:	000015b7          	lui	a1,0x1
    4744:	40b405b3          	sub	a1,s0,a1
    4748:	18a5b823          	sd	a0,400(a1) # 1190 <.LBB96_3+0xf0c>
    474c:	f9043583          	ld	a1,-112(s0)
    4750:	00055463          	bgez	a0,4758 <.LBB96_140>
    4754:	c0000f37          	lui	t5,0xc0000

0000000000004758 <.LBB96_140>:
    4758:	f8b43823          	sd	a1,-112(s0)
    475c:	00001537          	lui	a0,0x1
    4760:	40a40533          	sub	a0,s0,a0
    4764:	19e53423          	sd	t5,392(a0) # 1188 <.LBB96_3+0xf04>
    4768:	e2843503          	ld	a0,-472(s0)
    476c:	8a043f03          	ld	t5,-1888(s0)
    4770:	00af0533          	add	a0,t5,a0
    4774:	e2043f03          	ld	t5,-480(s0)
    4778:	01e50533          	add	a0,a0,t5
    477c:	00c50533          	add	a0,a0,a2
    4780:	c405051b          	addiw	a0,a0,-960
    4784:	40000f37          	lui	t5,0x40000
    4788:	000015b7          	lui	a1,0x1
    478c:	40b405b3          	sub	a1,s0,a1
    4790:	1aa5b023          	sd	a0,416(a1) # 11a0 <.LBB96_3+0xf1c>
    4794:	f9043583          	ld	a1,-112(s0)
    4798:	00055463          	bgez	a0,47a0 <.LBB96_142>
    479c:	c0000f37          	lui	t5,0xc0000

00000000000047a0 <.LBB96_142>:
    47a0:	f8b43823          	sd	a1,-112(s0)
    47a4:	00001537          	lui	a0,0x1
    47a8:	40a40533          	sub	a0,s0,a0
    47ac:	19e53c23          	sd	t5,408(a0) # 1198 <.LBB96_3+0xf14>
    47b0:	e1843503          	ld	a0,-488(s0)
    47b4:	8a843f03          	ld	t5,-1880(s0)
    47b8:	00af0533          	add	a0,t5,a0
    47bc:	e1043f03          	ld	t5,-496(s0)
    47c0:	01e50533          	add	a0,a0,t5
    47c4:	00c50533          	add	a0,a0,a2
    47c8:	c405051b          	addiw	a0,a0,-960
    47cc:	40000f37          	lui	t5,0x40000
    47d0:	000015b7          	lui	a1,0x1
    47d4:	40b405b3          	sub	a1,s0,a1
    47d8:	1aa5b823          	sd	a0,432(a1) # 11b0 <.LBB96_3+0xf2c>
    47dc:	f9043583          	ld	a1,-112(s0)
    47e0:	00055463          	bgez	a0,47e8 <.LBB96_144>
    47e4:	c0000f37          	lui	t5,0xc0000

00000000000047e8 <.LBB96_144>:
    47e8:	f8b43823          	sd	a1,-112(s0)
    47ec:	00001537          	lui	a0,0x1
    47f0:	40a40533          	sub	a0,s0,a0
    47f4:	1be53423          	sd	t5,424(a0) # 11a8 <.LBB96_3+0xf24>
    47f8:	00001537          	lui	a0,0x1
    47fc:	40a40533          	sub	a0,s0,a0
    4800:	6c853503          	ld	a0,1736(a0) # 16c8 <.LBB96_4+0x4e8>
    4804:	8b043f03          	ld	t5,-1872(s0)
    4808:	00af0533          	add	a0,t5,a0
    480c:	000015b7          	lui	a1,0x1
    4810:	40b405b3          	sub	a1,s0,a1
    4814:	6c05bf03          	ld	t5,1728(a1) # 16c0 <.LBB96_4+0x4e0>
    4818:	01e50533          	add	a0,a0,t5
    481c:	00c50533          	add	a0,a0,a2
    4820:	c405051b          	addiw	a0,a0,-960
    4824:	40000f37          	lui	t5,0x40000
    4828:	000015b7          	lui	a1,0x1
    482c:	40b405b3          	sub	a1,s0,a1
    4830:	1ca5b023          	sd	a0,448(a1) # 11c0 <.LBB96_3+0xf3c>
    4834:	f9043583          	ld	a1,-112(s0)
    4838:	00055463          	bgez	a0,4840 <.LBB96_146>
    483c:	c0000f37          	lui	t5,0xc0000

0000000000004840 <.LBB96_146>:
    4840:	f8b43823          	sd	a1,-112(s0)
    4844:	00001537          	lui	a0,0x1
    4848:	40a40533          	sub	a0,s0,a0
    484c:	1be53c23          	sd	t5,440(a0) # 11b8 <.LBB96_3+0xf34>
    4850:	00001537          	lui	a0,0x1
    4854:	40a40533          	sub	a0,s0,a0
    4858:	6b853503          	ld	a0,1720(a0) # 16b8 <.LBB96_4+0x4d8>
    485c:	8b843f03          	ld	t5,-1864(s0)
    4860:	00af0533          	add	a0,t5,a0
    4864:	000015b7          	lui	a1,0x1
    4868:	40b405b3          	sub	a1,s0,a1
    486c:	6b05bf03          	ld	t5,1712(a1) # 16b0 <.LBB96_4+0x4d0>
    4870:	01e50533          	add	a0,a0,t5
    4874:	00c50533          	add	a0,a0,a2
    4878:	c405051b          	addiw	a0,a0,-960
    487c:	40000f37          	lui	t5,0x40000
    4880:	000015b7          	lui	a1,0x1
    4884:	40b405b3          	sub	a1,s0,a1
    4888:	1ca5b823          	sd	a0,464(a1) # 11d0 <.LBB96_3+0xf4c>
    488c:	f9043583          	ld	a1,-112(s0)
    4890:	00055463          	bgez	a0,4898 <.LBB96_148>
    4894:	c0000f37          	lui	t5,0xc0000

0000000000004898 <.LBB96_148>:
    4898:	f8b43823          	sd	a1,-112(s0)
    489c:	00001537          	lui	a0,0x1
    48a0:	40a40533          	sub	a0,s0,a0
    48a4:	1de53423          	sd	t5,456(a0) # 11c8 <.LBB96_3+0xf44>
    48a8:	8c043503          	ld	a0,-1856(s0)
    48ac:	000015b7          	lui	a1,0x1
    48b0:	40b405b3          	sub	a1,s0,a1
    48b4:	6a85bf03          	ld	t5,1704(a1) # 16a8 <.LBB96_4+0x4c8>
    48b8:	01e50533          	add	a0,a0,t5
    48bc:	000015b7          	lui	a1,0x1
    48c0:	40b405b3          	sub	a1,s0,a1
    48c4:	6a05bf03          	ld	t5,1696(a1) # 16a0 <.LBB96_4+0x4c0>
    48c8:	01e50533          	add	a0,a0,t5
    48cc:	00c50533          	add	a0,a0,a2
    48d0:	c405051b          	addiw	a0,a0,-960
    48d4:	40000f37          	lui	t5,0x40000
    48d8:	000015b7          	lui	a1,0x1
    48dc:	40b405b3          	sub	a1,s0,a1
    48e0:	1ea5b023          	sd	a0,480(a1) # 11e0 <.LBB96_4>
    48e4:	f9043583          	ld	a1,-112(s0)
    48e8:	00055463          	bgez	a0,48f0 <.LBB96_150>
    48ec:	c0000f37          	lui	t5,0xc0000

00000000000048f0 <.LBB96_150>:
    48f0:	f8b43823          	sd	a1,-112(s0)
    48f4:	00001537          	lui	a0,0x1
    48f8:	40a40533          	sub	a0,s0,a0
    48fc:	1de53c23          	sd	t5,472(a0) # 11d8 <.LBB96_3+0xf54>
    4900:	8c843503          	ld	a0,-1848(s0)
    4904:	000015b7          	lui	a1,0x1
    4908:	40b405b3          	sub	a1,s0,a1
    490c:	6985bf03          	ld	t5,1688(a1) # 1698 <.LBB96_4+0x4b8>
    4910:	01e50533          	add	a0,a0,t5
    4914:	000015b7          	lui	a1,0x1
    4918:	40b405b3          	sub	a1,s0,a1
    491c:	6905bf03          	ld	t5,1680(a1) # 1690 <.LBB96_4+0x4b0>
    4920:	01e50533          	add	a0,a0,t5
    4924:	00c50533          	add	a0,a0,a2
    4928:	c405051b          	addiw	a0,a0,-960
    492c:	40000f37          	lui	t5,0x40000
    4930:	000015b7          	lui	a1,0x1
    4934:	40b405b3          	sub	a1,s0,a1
    4938:	1ea5b823          	sd	a0,496(a1) # 11f0 <.LBB96_4+0x10>
    493c:	f9043583          	ld	a1,-112(s0)
    4940:	00055463          	bgez	a0,4948 <.LBB96_152>
    4944:	c0000f37          	lui	t5,0xc0000

0000000000004948 <.LBB96_152>:
    4948:	f8b43823          	sd	a1,-112(s0)
    494c:	00001537          	lui	a0,0x1
    4950:	40a40533          	sub	a0,s0,a0
    4954:	1fe53423          	sd	t5,488(a0) # 11e8 <.LBB96_4+0x8>
    4958:	8d043503          	ld	a0,-1840(s0)
    495c:	000015b7          	lui	a1,0x1
    4960:	40b405b3          	sub	a1,s0,a1
    4964:	6885bf03          	ld	t5,1672(a1) # 1688 <.LBB96_4+0x4a8>
    4968:	01e50533          	add	a0,a0,t5
    496c:	000015b7          	lui	a1,0x1
    4970:	40b405b3          	sub	a1,s0,a1
    4974:	6d05bf03          	ld	t5,1744(a1) # 16d0 <.LBB96_4+0x4f0>
    4978:	01e50533          	add	a0,a0,t5
    497c:	00c50533          	add	a0,a0,a2
    4980:	c405051b          	addiw	a0,a0,-960
    4984:	40000f37          	lui	t5,0x40000
    4988:	000015b7          	lui	a1,0x1
    498c:	40b405b3          	sub	a1,s0,a1
    4990:	20a5b023          	sd	a0,512(a1) # 1200 <.LBB96_4+0x20>
    4994:	f9043583          	ld	a1,-112(s0)
    4998:	00055463          	bgez	a0,49a0 <.LBB96_154>
    499c:	c0000f37          	lui	t5,0xc0000

00000000000049a0 <.LBB96_154>:
    49a0:	f8b43823          	sd	a1,-112(s0)
    49a4:	00001537          	lui	a0,0x1
    49a8:	40a40533          	sub	a0,s0,a0
    49ac:	1fe53c23          	sd	t5,504(a0) # 11f8 <.LBB96_4+0x18>
    49b0:	8d843503          	ld	a0,-1832(s0)
    49b4:	e6043f03          	ld	t5,-416(s0)
    49b8:	01e50533          	add	a0,a0,t5
    49bc:	000015b7          	lui	a1,0x1
    49c0:	40b405b3          	sub	a1,s0,a1
    49c4:	6d85bf03          	ld	t5,1752(a1) # 16d8 <.LBB96_4+0x4f8>
    49c8:	01e50533          	add	a0,a0,t5
    49cc:	00c50533          	add	a0,a0,a2
    49d0:	c405051b          	addiw	a0,a0,-960
    49d4:	40000f37          	lui	t5,0x40000
    49d8:	000015b7          	lui	a1,0x1
    49dc:	40b405b3          	sub	a1,s0,a1
    49e0:	20a5b823          	sd	a0,528(a1) # 1210 <.LBB96_4+0x30>
    49e4:	f9043583          	ld	a1,-112(s0)
    49e8:	00055463          	bgez	a0,49f0 <.LBB96_156>
    49ec:	c0000f37          	lui	t5,0xc0000

00000000000049f0 <.LBB96_156>:
    49f0:	f8b43823          	sd	a1,-112(s0)
    49f4:	00001537          	lui	a0,0x1
    49f8:	40a40533          	sub	a0,s0,a0
    49fc:	21e53423          	sd	t5,520(a0) # 1208 <.LBB96_4+0x28>
    4a00:	8e043503          	ld	a0,-1824(s0)
    4a04:	e6843f03          	ld	t5,-408(s0)
    4a08:	01e50533          	add	a0,a0,t5
    4a0c:	000015b7          	lui	a1,0x1
    4a10:	40b405b3          	sub	a1,s0,a1
    4a14:	6e05bf03          	ld	t5,1760(a1) # 16e0 <.LBB96_4+0x500>
    4a18:	01e50533          	add	a0,a0,t5
    4a1c:	00c50533          	add	a0,a0,a2
    4a20:	c405051b          	addiw	a0,a0,-960
    4a24:	40000f37          	lui	t5,0x40000
    4a28:	000015b7          	lui	a1,0x1
    4a2c:	40b405b3          	sub	a1,s0,a1
    4a30:	22a5b023          	sd	a0,544(a1) # 1220 <.LBB96_4+0x40>
    4a34:	f9043583          	ld	a1,-112(s0)
    4a38:	00055463          	bgez	a0,4a40 <.LBB96_158>
    4a3c:	c0000f37          	lui	t5,0xc0000

0000000000004a40 <.LBB96_158>:
    4a40:	f8b43823          	sd	a1,-112(s0)
    4a44:	00001537          	lui	a0,0x1
    4a48:	40a40533          	sub	a0,s0,a0
    4a4c:	21e53c23          	sd	t5,536(a0) # 1218 <.LBB96_4+0x38>
    4a50:	8e843503          	ld	a0,-1816(s0)
    4a54:	e7043f03          	ld	t5,-400(s0)
    4a58:	01e50533          	add	a0,a0,t5
    4a5c:	000015b7          	lui	a1,0x1
    4a60:	40b405b3          	sub	a1,s0,a1
    4a64:	6e85bf03          	ld	t5,1768(a1) # 16e8 <.LBB96_4+0x508>
    4a68:	01e50533          	add	a0,a0,t5
    4a6c:	00c50533          	add	a0,a0,a2
    4a70:	c405051b          	addiw	a0,a0,-960
    4a74:	40000f37          	lui	t5,0x40000
    4a78:	000015b7          	lui	a1,0x1
    4a7c:	40b405b3          	sub	a1,s0,a1
    4a80:	22a5b823          	sd	a0,560(a1) # 1230 <.LBB96_4+0x50>
    4a84:	f9043583          	ld	a1,-112(s0)
    4a88:	00055463          	bgez	a0,4a90 <.LBB96_160>
    4a8c:	c0000f37          	lui	t5,0xc0000

0000000000004a90 <.LBB96_160>:
    4a90:	f8b43823          	sd	a1,-112(s0)
    4a94:	00001537          	lui	a0,0x1
    4a98:	40a40533          	sub	a0,s0,a0
    4a9c:	23e53423          	sd	t5,552(a0) # 1228 <.LBB96_4+0x48>
    4aa0:	8f043503          	ld	a0,-1808(s0)
    4aa4:	e7843f03          	ld	t5,-392(s0)
    4aa8:	01e50533          	add	a0,a0,t5
    4aac:	01a50533          	add	a0,a0,s10
    4ab0:	00c50533          	add	a0,a0,a2
    4ab4:	c405051b          	addiw	a0,a0,-960
    4ab8:	40000f37          	lui	t5,0x40000
    4abc:	000015b7          	lui	a1,0x1
    4ac0:	40b405b3          	sub	a1,s0,a1
    4ac4:	24a5b023          	sd	a0,576(a1) # 1240 <.LBB96_4+0x60>
    4ac8:	f9043583          	ld	a1,-112(s0)
    4acc:	00055463          	bgez	a0,4ad4 <.LBB96_162>
    4ad0:	c0000f37          	lui	t5,0xc0000

0000000000004ad4 <.LBB96_162>:
    4ad4:	f8b43823          	sd	a1,-112(s0)
    4ad8:	00001537          	lui	a0,0x1
    4adc:	40a40533          	sub	a0,s0,a0
    4ae0:	23e53c23          	sd	t5,568(a0) # 1238 <.LBB96_4+0x58>
    4ae4:	8f843503          	ld	a0,-1800(s0)
    4ae8:	e8043f03          	ld	t5,-384(s0)
    4aec:	01e50533          	add	a0,a0,t5
    4af0:	000015b7          	lui	a1,0x1
    4af4:	40b405b3          	sub	a1,s0,a1
    4af8:	6f85bf03          	ld	t5,1784(a1) # 16f8 <.LBB96_4+0x518>
    4afc:	01e50533          	add	a0,a0,t5
    4b00:	00c50533          	add	a0,a0,a2
    4b04:	c405051b          	addiw	a0,a0,-960
    4b08:	40000f37          	lui	t5,0x40000
    4b0c:	000015b7          	lui	a1,0x1
    4b10:	40b405b3          	sub	a1,s0,a1
    4b14:	24a5b823          	sd	a0,592(a1) # 1250 <.LBB96_4+0x70>
    4b18:	f9043583          	ld	a1,-112(s0)
    4b1c:	00055463          	bgez	a0,4b24 <.LBB96_164>
    4b20:	c0000f37          	lui	t5,0xc0000

0000000000004b24 <.LBB96_164>:
    4b24:	f8b43823          	sd	a1,-112(s0)
    4b28:	00001537          	lui	a0,0x1
    4b2c:	40a40533          	sub	a0,s0,a0
    4b30:	25e53423          	sd	t5,584(a0) # 1248 <.LBB96_4+0x68>
    4b34:	90043503          	ld	a0,-1792(s0)
    4b38:	e8843f03          	ld	t5,-376(s0)
    4b3c:	01e50533          	add	a0,a0,t5
    4b40:	000015b7          	lui	a1,0x1
    4b44:	40b405b3          	sub	a1,s0,a1
    4b48:	7005bf03          	ld	t5,1792(a1) # 1700 <.LBB96_4+0x520>
    4b4c:	01e50533          	add	a0,a0,t5
    4b50:	00c50533          	add	a0,a0,a2
    4b54:	c405051b          	addiw	a0,a0,-960
    4b58:	40000f37          	lui	t5,0x40000
    4b5c:	000015b7          	lui	a1,0x1
    4b60:	40b405b3          	sub	a1,s0,a1
    4b64:	26a5b023          	sd	a0,608(a1) # 1260 <.LBB96_4+0x80>
    4b68:	f9043583          	ld	a1,-112(s0)
    4b6c:	00055463          	bgez	a0,4b74 <.LBB96_166>
    4b70:	c0000f37          	lui	t5,0xc0000

0000000000004b74 <.LBB96_166>:
    4b74:	f8b43823          	sd	a1,-112(s0)
    4b78:	00001537          	lui	a0,0x1
    4b7c:	40a40533          	sub	a0,s0,a0
    4b80:	25e53c23          	sd	t5,600(a0) # 1258 <.LBB96_4+0x78>
    4b84:	90843503          	ld	a0,-1784(s0)
    4b88:	e9043f03          	ld	t5,-368(s0)
    4b8c:	01e50533          	add	a0,a0,t5
    4b90:	000015b7          	lui	a1,0x1
    4b94:	40b405b3          	sub	a1,s0,a1
    4b98:	7085bf03          	ld	t5,1800(a1) # 1708 <.LBB96_4+0x528>
    4b9c:	01e50533          	add	a0,a0,t5
    4ba0:	00c50533          	add	a0,a0,a2
    4ba4:	c405051b          	addiw	a0,a0,-960
    4ba8:	40000f37          	lui	t5,0x40000
    4bac:	000015b7          	lui	a1,0x1
    4bb0:	40b405b3          	sub	a1,s0,a1
    4bb4:	26a5b823          	sd	a0,624(a1) # 1270 <.LBB96_4+0x90>
    4bb8:	f9043583          	ld	a1,-112(s0)
    4bbc:	00055463          	bgez	a0,4bc4 <.LBB96_168>
    4bc0:	c0000f37          	lui	t5,0xc0000

0000000000004bc4 <.LBB96_168>:
    4bc4:	f8b43823          	sd	a1,-112(s0)
    4bc8:	00001537          	lui	a0,0x1
    4bcc:	40a40533          	sub	a0,s0,a0
    4bd0:	27e53423          	sd	t5,616(a0) # 1268 <.LBB96_4+0x88>
    4bd4:	91043503          	ld	a0,-1776(s0)
    4bd8:	e9843f03          	ld	t5,-360(s0)
    4bdc:	01e50533          	add	a0,a0,t5
    4be0:	000015b7          	lui	a1,0x1
    4be4:	40b405b3          	sub	a1,s0,a1
    4be8:	7105bf03          	ld	t5,1808(a1) # 1710 <.LBB96_4+0x530>
    4bec:	01e50533          	add	a0,a0,t5
    4bf0:	00c50533          	add	a0,a0,a2
    4bf4:	c405051b          	addiw	a0,a0,-960
    4bf8:	40000f37          	lui	t5,0x40000
    4bfc:	000015b7          	lui	a1,0x1
    4c00:	40b405b3          	sub	a1,s0,a1
    4c04:	28a5b023          	sd	a0,640(a1) # 1280 <.LBB96_4+0xa0>
    4c08:	f9043583          	ld	a1,-112(s0)
    4c0c:	00055463          	bgez	a0,4c14 <.LBB96_170>
    4c10:	c0000f37          	lui	t5,0xc0000

0000000000004c14 <.LBB96_170>:
    4c14:	f8b43823          	sd	a1,-112(s0)
    4c18:	00001537          	lui	a0,0x1
    4c1c:	40a40533          	sub	a0,s0,a0
    4c20:	27e53c23          	sd	t5,632(a0) # 1278 <.LBB96_4+0x98>
    4c24:	91843503          	ld	a0,-1768(s0)
    4c28:	ea043f03          	ld	t5,-352(s0)
    4c2c:	01e50533          	add	a0,a0,t5
    4c30:	000015b7          	lui	a1,0x1
    4c34:	40b405b3          	sub	a1,s0,a1
    4c38:	7185bf03          	ld	t5,1816(a1) # 1718 <.LBB96_4+0x538>
    4c3c:	01e50533          	add	a0,a0,t5
    4c40:	00c50533          	add	a0,a0,a2
    4c44:	c405051b          	addiw	a0,a0,-960
    4c48:	40000f37          	lui	t5,0x40000
    4c4c:	000015b7          	lui	a1,0x1
    4c50:	40b405b3          	sub	a1,s0,a1
    4c54:	28a5b823          	sd	a0,656(a1) # 1290 <.LBB96_4+0xb0>
    4c58:	f9043583          	ld	a1,-112(s0)
    4c5c:	00055463          	bgez	a0,4c64 <.LBB96_172>
    4c60:	c0000f37          	lui	t5,0xc0000

0000000000004c64 <.LBB96_172>:
    4c64:	f8b43823          	sd	a1,-112(s0)
    4c68:	00001537          	lui	a0,0x1
    4c6c:	40a40533          	sub	a0,s0,a0
    4c70:	29e53423          	sd	t5,648(a0) # 1288 <.LBB96_4+0xa8>
    4c74:	92043503          	ld	a0,-1760(s0)
    4c78:	ea843f03          	ld	t5,-344(s0)
    4c7c:	01e50533          	add	a0,a0,t5
    4c80:	000015b7          	lui	a1,0x1
    4c84:	40b405b3          	sub	a1,s0,a1
    4c88:	7205bf03          	ld	t5,1824(a1) # 1720 <.LBB96_4+0x540>
    4c8c:	01e50533          	add	a0,a0,t5
    4c90:	00c50533          	add	a0,a0,a2
    4c94:	c405051b          	addiw	a0,a0,-960
    4c98:	40000f37          	lui	t5,0x40000
    4c9c:	000015b7          	lui	a1,0x1
    4ca0:	40b405b3          	sub	a1,s0,a1
    4ca4:	2aa5b023          	sd	a0,672(a1) # 12a0 <.LBB96_4+0xc0>
    4ca8:	f9043583          	ld	a1,-112(s0)
    4cac:	00055463          	bgez	a0,4cb4 <.LBB96_174>
    4cb0:	c0000f37          	lui	t5,0xc0000

0000000000004cb4 <.LBB96_174>:
    4cb4:	f8b43823          	sd	a1,-112(s0)
    4cb8:	00001537          	lui	a0,0x1
    4cbc:	40a40533          	sub	a0,s0,a0
    4cc0:	29e53c23          	sd	t5,664(a0) # 1298 <.LBB96_4+0xb8>
    4cc4:	92843503          	ld	a0,-1752(s0)
    4cc8:	eb043f03          	ld	t5,-336(s0)
    4ccc:	01e50533          	add	a0,a0,t5
    4cd0:	000015b7          	lui	a1,0x1
    4cd4:	40b405b3          	sub	a1,s0,a1
    4cd8:	7285bf03          	ld	t5,1832(a1) # 1728 <.LBB96_4+0x548>
    4cdc:	01e50533          	add	a0,a0,t5
    4ce0:	00c50533          	add	a0,a0,a2
    4ce4:	c405051b          	addiw	a0,a0,-960
    4ce8:	40000f37          	lui	t5,0x40000
    4cec:	000015b7          	lui	a1,0x1
    4cf0:	40b405b3          	sub	a1,s0,a1
    4cf4:	2aa5b823          	sd	a0,688(a1) # 12b0 <.LBB96_4+0xd0>
    4cf8:	f9043583          	ld	a1,-112(s0)
    4cfc:	00055463          	bgez	a0,4d04 <.LBB96_176>
    4d00:	c0000f37          	lui	t5,0xc0000

0000000000004d04 <.LBB96_176>:
    4d04:	f8b43823          	sd	a1,-112(s0)
    4d08:	00001537          	lui	a0,0x1
    4d0c:	40a40533          	sub	a0,s0,a0
    4d10:	2be53423          	sd	t5,680(a0) # 12a8 <.LBB96_4+0xc8>
    4d14:	93043503          	ld	a0,-1744(s0)
    4d18:	eb843f03          	ld	t5,-328(s0)
    4d1c:	01e50533          	add	a0,a0,t5
    4d20:	000015b7          	lui	a1,0x1
    4d24:	40b405b3          	sub	a1,s0,a1
    4d28:	7305bf03          	ld	t5,1840(a1) # 1730 <.LBB96_4+0x550>
    4d2c:	01e50533          	add	a0,a0,t5
    4d30:	00c50533          	add	a0,a0,a2
    4d34:	c405051b          	addiw	a0,a0,-960
    4d38:	40000f37          	lui	t5,0x40000
    4d3c:	000015b7          	lui	a1,0x1
    4d40:	40b405b3          	sub	a1,s0,a1
    4d44:	2ca5b023          	sd	a0,704(a1) # 12c0 <.LBB96_4+0xe0>
    4d48:	f9043583          	ld	a1,-112(s0)
    4d4c:	00055463          	bgez	a0,4d54 <.LBB96_178>
    4d50:	c0000f37          	lui	t5,0xc0000

0000000000004d54 <.LBB96_178>:
    4d54:	f8b43823          	sd	a1,-112(s0)
    4d58:	00001537          	lui	a0,0x1
    4d5c:	40a40533          	sub	a0,s0,a0
    4d60:	2be53c23          	sd	t5,696(a0) # 12b8 <.LBB96_4+0xd8>
    4d64:	93843503          	ld	a0,-1736(s0)
    4d68:	f3843f03          	ld	t5,-200(s0)
    4d6c:	01e50533          	add	a0,a0,t5
    4d70:	000015b7          	lui	a1,0x1
    4d74:	40b405b3          	sub	a1,s0,a1
    4d78:	7385bf03          	ld	t5,1848(a1) # 1738 <.LBB96_4+0x558>
    4d7c:	01e50533          	add	a0,a0,t5
    4d80:	00c50533          	add	a0,a0,a2
    4d84:	c405051b          	addiw	a0,a0,-960
    4d88:	40000f37          	lui	t5,0x40000
    4d8c:	000015b7          	lui	a1,0x1
    4d90:	40b405b3          	sub	a1,s0,a1
    4d94:	2ca5b823          	sd	a0,720(a1) # 12d0 <.LBB96_4+0xf0>
    4d98:	f9043583          	ld	a1,-112(s0)
    4d9c:	00055463          	bgez	a0,4da4 <.LBB96_180>
    4da0:	c0000f37          	lui	t5,0xc0000

0000000000004da4 <.LBB96_180>:
    4da4:	f8b43823          	sd	a1,-112(s0)
    4da8:	00001537          	lui	a0,0x1
    4dac:	40a40533          	sub	a0,s0,a0
    4db0:	2de53423          	sd	t5,712(a0) # 12c8 <.LBB96_4+0xe8>
    4db4:	94043503          	ld	a0,-1728(s0)
    4db8:	f4043f03          	ld	t5,-192(s0)
    4dbc:	01e50533          	add	a0,a0,t5
    4dc0:	000015b7          	lui	a1,0x1
    4dc4:	40b405b3          	sub	a1,s0,a1
    4dc8:	7405bf03          	ld	t5,1856(a1) # 1740 <.LBB96_4+0x560>
    4dcc:	01e50533          	add	a0,a0,t5
    4dd0:	00c50533          	add	a0,a0,a2
    4dd4:	c405051b          	addiw	a0,a0,-960
    4dd8:	40000f37          	lui	t5,0x40000
    4ddc:	000015b7          	lui	a1,0x1
    4de0:	40b405b3          	sub	a1,s0,a1
    4de4:	2ea5b023          	sd	a0,736(a1) # 12e0 <.LBB96_4+0x100>
    4de8:	f9043583          	ld	a1,-112(s0)
    4dec:	00055463          	bgez	a0,4df4 <.LBB96_182>
    4df0:	c0000f37          	lui	t5,0xc0000

0000000000004df4 <.LBB96_182>:
    4df4:	f8b43823          	sd	a1,-112(s0)
    4df8:	00001537          	lui	a0,0x1
    4dfc:	40a40533          	sub	a0,s0,a0
    4e00:	2de53c23          	sd	t5,728(a0) # 12d8 <.LBB96_4+0xf8>
    4e04:	94843503          	ld	a0,-1720(s0)
    4e08:	f4843f03          	ld	t5,-184(s0)
    4e0c:	01e50533          	add	a0,a0,t5
    4e10:	000015b7          	lui	a1,0x1
    4e14:	40b405b3          	sub	a1,s0,a1
    4e18:	7485bf03          	ld	t5,1864(a1) # 1748 <.LBB96_4+0x568>
    4e1c:	01e50533          	add	a0,a0,t5
    4e20:	00c50533          	add	a0,a0,a2
    4e24:	c405051b          	addiw	a0,a0,-960
    4e28:	40000f37          	lui	t5,0x40000
    4e2c:	000015b7          	lui	a1,0x1
    4e30:	40b405b3          	sub	a1,s0,a1
    4e34:	2ea5b823          	sd	a0,752(a1) # 12f0 <.LBB96_4+0x110>
    4e38:	f9043583          	ld	a1,-112(s0)
    4e3c:	00055463          	bgez	a0,4e44 <.LBB96_184>
    4e40:	c0000f37          	lui	t5,0xc0000

0000000000004e44 <.LBB96_184>:
    4e44:	f8b43823          	sd	a1,-112(s0)
    4e48:	00001537          	lui	a0,0x1
    4e4c:	40a40533          	sub	a0,s0,a0
    4e50:	2fe53423          	sd	t5,744(a0) # 12e8 <.LBB96_4+0x108>
    4e54:	95043503          	ld	a0,-1712(s0)
    4e58:	f5043f03          	ld	t5,-176(s0)
    4e5c:	01e50533          	add	a0,a0,t5
    4e60:	000015b7          	lui	a1,0x1
    4e64:	40b405b3          	sub	a1,s0,a1
    4e68:	7505bf03          	ld	t5,1872(a1) # 1750 <.LBB96_4+0x570>
    4e6c:	01e50533          	add	a0,a0,t5
    4e70:	00c50533          	add	a0,a0,a2
    4e74:	c405051b          	addiw	a0,a0,-960
    4e78:	40000f37          	lui	t5,0x40000
    4e7c:	000015b7          	lui	a1,0x1
    4e80:	40b405b3          	sub	a1,s0,a1
    4e84:	30a5b023          	sd	a0,768(a1) # 1300 <.LBB96_4+0x120>
    4e88:	f9043583          	ld	a1,-112(s0)
    4e8c:	00055463          	bgez	a0,4e94 <.LBB96_186>
    4e90:	c0000f37          	lui	t5,0xc0000

0000000000004e94 <.LBB96_186>:
    4e94:	f8b43823          	sd	a1,-112(s0)
    4e98:	00001537          	lui	a0,0x1
    4e9c:	40a40533          	sub	a0,s0,a0
    4ea0:	2fe53c23          	sd	t5,760(a0) # 12f8 <.LBB96_4+0x118>
    4ea4:	95843503          	ld	a0,-1704(s0)
    4ea8:	f5843f03          	ld	t5,-168(s0)
    4eac:	01e50533          	add	a0,a0,t5
    4eb0:	000015b7          	lui	a1,0x1
    4eb4:	40b405b3          	sub	a1,s0,a1
    4eb8:	7585bf03          	ld	t5,1880(a1) # 1758 <.LBB96_4+0x578>
    4ebc:	01e50533          	add	a0,a0,t5
    4ec0:	00c50533          	add	a0,a0,a2
    4ec4:	c405051b          	addiw	a0,a0,-960
    4ec8:	40000f37          	lui	t5,0x40000
    4ecc:	000015b7          	lui	a1,0x1
    4ed0:	40b405b3          	sub	a1,s0,a1
    4ed4:	30a5b823          	sd	a0,784(a1) # 1310 <.LBB96_4+0x130>
    4ed8:	f9043583          	ld	a1,-112(s0)
    4edc:	00055463          	bgez	a0,4ee4 <.LBB96_188>
    4ee0:	c0000f37          	lui	t5,0xc0000

0000000000004ee4 <.LBB96_188>:
    4ee4:	f8b43823          	sd	a1,-112(s0)
    4ee8:	00001537          	lui	a0,0x1
    4eec:	40a40533          	sub	a0,s0,a0
    4ef0:	31e53423          	sd	t5,776(a0) # 1308 <.LBB96_4+0x128>
    4ef4:	96043503          	ld	a0,-1696(s0)
    4ef8:	f6043f03          	ld	t5,-160(s0)
    4efc:	01e50533          	add	a0,a0,t5
    4f00:	000015b7          	lui	a1,0x1
    4f04:	40b405b3          	sub	a1,s0,a1
    4f08:	7605bf03          	ld	t5,1888(a1) # 1760 <.LBB96_4+0x580>
    4f0c:	01e50533          	add	a0,a0,t5
    4f10:	00c50533          	add	a0,a0,a2
    4f14:	c405051b          	addiw	a0,a0,-960
    4f18:	40000f37          	lui	t5,0x40000
    4f1c:	000015b7          	lui	a1,0x1
    4f20:	40b405b3          	sub	a1,s0,a1
    4f24:	32a5b023          	sd	a0,800(a1) # 1320 <.LBB96_4+0x140>
    4f28:	f9043583          	ld	a1,-112(s0)
    4f2c:	00055463          	bgez	a0,4f34 <.LBB96_190>
    4f30:	c0000f37          	lui	t5,0xc0000

0000000000004f34 <.LBB96_190>:
    4f34:	f8b43823          	sd	a1,-112(s0)
    4f38:	00001537          	lui	a0,0x1
    4f3c:	40a40533          	sub	a0,s0,a0
    4f40:	31e53c23          	sd	t5,792(a0) # 1318 <.LBB96_4+0x138>
    4f44:	96843503          	ld	a0,-1688(s0)
    4f48:	f6843f03          	ld	t5,-152(s0)
    4f4c:	01e50533          	add	a0,a0,t5
    4f50:	000015b7          	lui	a1,0x1
    4f54:	40b405b3          	sub	a1,s0,a1
    4f58:	7685bf03          	ld	t5,1896(a1) # 1768 <.LBB96_4+0x588>
    4f5c:	01e50533          	add	a0,a0,t5
    4f60:	00c50533          	add	a0,a0,a2
    4f64:	c405051b          	addiw	a0,a0,-960
    4f68:	40000f37          	lui	t5,0x40000
    4f6c:	000015b7          	lui	a1,0x1
    4f70:	40b405b3          	sub	a1,s0,a1
    4f74:	32a5b823          	sd	a0,816(a1) # 1330 <.LBB96_4+0x150>
    4f78:	f9043583          	ld	a1,-112(s0)
    4f7c:	00055463          	bgez	a0,4f84 <.LBB96_192>
    4f80:	c0000f37          	lui	t5,0xc0000

0000000000004f84 <.LBB96_192>:
    4f84:	f8b43823          	sd	a1,-112(s0)
    4f88:	00001537          	lui	a0,0x1
    4f8c:	40a40533          	sub	a0,s0,a0
    4f90:	33e53423          	sd	t5,808(a0) # 1328 <.LBB96_4+0x148>
    4f94:	97043503          	ld	a0,-1680(s0)
    4f98:	f7043f03          	ld	t5,-144(s0)
    4f9c:	01e50533          	add	a0,a0,t5
    4fa0:	000015b7          	lui	a1,0x1
    4fa4:	40b405b3          	sub	a1,s0,a1
    4fa8:	7705bf03          	ld	t5,1904(a1) # 1770 <.LBB96_4+0x590>
    4fac:	01e50533          	add	a0,a0,t5
    4fb0:	00c50533          	add	a0,a0,a2
    4fb4:	c405051b          	addiw	a0,a0,-960
    4fb8:	40000f37          	lui	t5,0x40000
    4fbc:	000015b7          	lui	a1,0x1
    4fc0:	40b405b3          	sub	a1,s0,a1
    4fc4:	34a5b023          	sd	a0,832(a1) # 1340 <.LBB96_4+0x160>
    4fc8:	f9043583          	ld	a1,-112(s0)
    4fcc:	00055463          	bgez	a0,4fd4 <.LBB96_194>
    4fd0:	c0000f37          	lui	t5,0xc0000

0000000000004fd4 <.LBB96_194>:
    4fd4:	f8b43823          	sd	a1,-112(s0)
    4fd8:	00001537          	lui	a0,0x1
    4fdc:	40a40533          	sub	a0,s0,a0
    4fe0:	33e53c23          	sd	t5,824(a0) # 1338 <.LBB96_4+0x158>
    4fe4:	97843503          	ld	a0,-1672(s0)
    4fe8:	f7843f03          	ld	t5,-136(s0)
    4fec:	01e50533          	add	a0,a0,t5
    4ff0:	01350533          	add	a0,a0,s3
    4ff4:	00c50533          	add	a0,a0,a2
    4ff8:	c405051b          	addiw	a0,a0,-960
    4ffc:	40000f37          	lui	t5,0x40000
    5000:	000015b7          	lui	a1,0x1
    5004:	40b405b3          	sub	a1,s0,a1
    5008:	34a5b823          	sd	a0,848(a1) # 1350 <.LBB96_4+0x170>
    500c:	f9043583          	ld	a1,-112(s0)
    5010:	00055463          	bgez	a0,5018 <.LBB96_196>
    5014:	c0000f37          	lui	t5,0xc0000

0000000000005018 <.LBB96_196>:
    5018:	00001537          	lui	a0,0x1
    501c:	40a40533          	sub	a0,s0,a0
    5020:	35e53423          	sd	t5,840(a0) # 1348 <.LBB96_4+0x168>
    5024:	98043503          	ld	a0,-1664(s0)
    5028:	f8043f03          	ld	t5,-128(s0)
    502c:	01e50533          	add	a0,a0,t5
    5030:	01250533          	add	a0,a0,s2
    5034:	00c50533          	add	a0,a0,a2
    5038:	c405051b          	addiw	a0,a0,-960
    503c:	40000637          	lui	a2,0x40000
    5040:	00001f37          	lui	t5,0x1
    5044:	41e40f33          	sub	t5,s0,t5
    5048:	36af3023          	sd	a0,864(t5) # 1360 <.LBB96_4+0x180>
    504c:	00055463          	bgez	a0,5054 <.LBB96_198>
    5050:	c0000637          	lui	a2,0xc0000

0000000000005054 <.LBB96_198>:
    5054:	f8d43823          	sd	a3,-112(s0)
    5058:	00001537          	lui	a0,0x1
    505c:	40a40533          	sub	a0,s0,a0
    5060:	34c53c23          	sd	a2,856(a0) # 1358 <.LBB96_4+0x178>
    5064:	98843503          	ld	a0,-1656(s0)
    5068:	e5843603          	ld	a2,-424(s0)
    506c:	00c50533          	add	a0,a0,a2
    5070:	e5043603          	ld	a2,-432(s0)
    5074:	00c50533          	add	a0,a0,a2
    5078:	00b50533          	add	a0,a0,a1
    507c:	c405051b          	addiw	a0,a0,-960
    5080:	40000f37          	lui	t5,0x40000
    5084:	e0043603          	ld	a2,-512(s0)
    5088:	000016b7          	lui	a3,0x1
    508c:	40d406b3          	sub	a3,s0,a3
    5090:	36a6b823          	sd	a0,880(a3) # 1370 <.LBB96_4+0x190>
    5094:	f9043683          	ld	a3,-112(s0)
    5098:	00055463          	bgez	a0,50a0 <.LBB96_200>
    509c:	c0000f37          	lui	t5,0xc0000

00000000000050a0 <.LBB96_200>:
    50a0:	f8c43823          	sd	a2,-112(s0)
    50a4:	00001537          	lui	a0,0x1
    50a8:	40a40533          	sub	a0,s0,a0
    50ac:	37e53423          	sd	t5,872(a0) # 1368 <.LBB96_4+0x188>
    50b0:	99043503          	ld	a0,-1648(s0)
    50b4:	e4843f03          	ld	t5,-440(s0)
    50b8:	01e50533          	add	a0,a0,t5
    50bc:	e4043f03          	ld	t5,-448(s0)
    50c0:	01e50533          	add	a0,a0,t5
    50c4:	00b50533          	add	a0,a0,a1
    50c8:	c405051b          	addiw	a0,a0,-960
    50cc:	40000f37          	lui	t5,0x40000
    50d0:	00001637          	lui	a2,0x1
    50d4:	40c40633          	sub	a2,s0,a2
    50d8:	38a63023          	sd	a0,896(a2) # 1380 <.LBB96_4+0x1a0>
    50dc:	f9043603          	ld	a2,-112(s0)
    50e0:	00055463          	bgez	a0,50e8 <.LBB96_202>
    50e4:	c0000f37          	lui	t5,0xc0000

00000000000050e8 <.LBB96_202>:
    50e8:	f8c43823          	sd	a2,-112(s0)
    50ec:	00001537          	lui	a0,0x1
    50f0:	40a40533          	sub	a0,s0,a0
    50f4:	37e53c23          	sd	t5,888(a0) # 1378 <.LBB96_4+0x198>
    50f8:	99843503          	ld	a0,-1640(s0)
    50fc:	e3843f03          	ld	t5,-456(s0)
    5100:	01e50533          	add	a0,a0,t5
    5104:	e3043f03          	ld	t5,-464(s0)
    5108:	01e50533          	add	a0,a0,t5
    510c:	00b50533          	add	a0,a0,a1
    5110:	c405051b          	addiw	a0,a0,-960
    5114:	40000f37          	lui	t5,0x40000
    5118:	00001637          	lui	a2,0x1
    511c:	40c40633          	sub	a2,s0,a2
    5120:	38a63823          	sd	a0,912(a2) # 1390 <.LBB96_4+0x1b0>
    5124:	f9043603          	ld	a2,-112(s0)
    5128:	00055463          	bgez	a0,5130 <.LBB96_204>
    512c:	c0000f37          	lui	t5,0xc0000

0000000000005130 <.LBB96_204>:
    5130:	f8c43823          	sd	a2,-112(s0)
    5134:	00001537          	lui	a0,0x1
    5138:	40a40533          	sub	a0,s0,a0
    513c:	39e53423          	sd	t5,904(a0) # 1388 <.LBB96_4+0x1a8>
    5140:	9a043503          	ld	a0,-1632(s0)
    5144:	e2843f03          	ld	t5,-472(s0)
    5148:	01e50533          	add	a0,a0,t5
    514c:	e2043f03          	ld	t5,-480(s0)
    5150:	01e50533          	add	a0,a0,t5
    5154:	00b50533          	add	a0,a0,a1
    5158:	c405051b          	addiw	a0,a0,-960
    515c:	40000f37          	lui	t5,0x40000
    5160:	00001637          	lui	a2,0x1
    5164:	40c40633          	sub	a2,s0,a2
    5168:	3aa63023          	sd	a0,928(a2) # 13a0 <.LBB96_4+0x1c0>
    516c:	f9043603          	ld	a2,-112(s0)
    5170:	00055463          	bgez	a0,5178 <.LBB96_206>
    5174:	c0000f37          	lui	t5,0xc0000

0000000000005178 <.LBB96_206>:
    5178:	f8c43823          	sd	a2,-112(s0)
    517c:	00001537          	lui	a0,0x1
    5180:	40a40533          	sub	a0,s0,a0
    5184:	39e53c23          	sd	t5,920(a0) # 1398 <.LBB96_4+0x1b8>
    5188:	9a843503          	ld	a0,-1624(s0)
    518c:	e1843f03          	ld	t5,-488(s0)
    5190:	01e50533          	add	a0,a0,t5
    5194:	e1043f03          	ld	t5,-496(s0)
    5198:	01e50533          	add	a0,a0,t5
    519c:	00b50533          	add	a0,a0,a1
    51a0:	c405051b          	addiw	a0,a0,-960
    51a4:	40000f37          	lui	t5,0x40000
    51a8:	00001637          	lui	a2,0x1
    51ac:	40c40633          	sub	a2,s0,a2
    51b0:	3aa63823          	sd	a0,944(a2) # 13b0 <.LBB96_4+0x1d0>
    51b4:	f9043603          	ld	a2,-112(s0)
    51b8:	00055463          	bgez	a0,51c0 <.LBB96_208>
    51bc:	c0000f37          	lui	t5,0xc0000

00000000000051c0 <.LBB96_208>:
    51c0:	f8c43823          	sd	a2,-112(s0)
    51c4:	00001537          	lui	a0,0x1
    51c8:	40a40533          	sub	a0,s0,a0
    51cc:	3be53423          	sd	t5,936(a0) # 13a8 <.LBB96_4+0x1c8>
    51d0:	9b043503          	ld	a0,-1616(s0)
    51d4:	00001637          	lui	a2,0x1
    51d8:	40c40633          	sub	a2,s0,a2
    51dc:	6c863f03          	ld	t5,1736(a2) # 16c8 <.LBB96_4+0x4e8>
    51e0:	01e50533          	add	a0,a0,t5
    51e4:	00001637          	lui	a2,0x1
    51e8:	40c40633          	sub	a2,s0,a2
    51ec:	6c063f03          	ld	t5,1728(a2) # 16c0 <.LBB96_4+0x4e0>
    51f0:	01e50533          	add	a0,a0,t5
    51f4:	00b50533          	add	a0,a0,a1
    51f8:	c405051b          	addiw	a0,a0,-960
    51fc:	40000f37          	lui	t5,0x40000
    5200:	00001637          	lui	a2,0x1
    5204:	40c40633          	sub	a2,s0,a2
    5208:	3ca63023          	sd	a0,960(a2) # 13c0 <.LBB96_4+0x1e0>
    520c:	f9043603          	ld	a2,-112(s0)
    5210:	00055463          	bgez	a0,5218 <.LBB96_210>
    5214:	c0000f37          	lui	t5,0xc0000

0000000000005218 <.LBB96_210>:
    5218:	f8c43823          	sd	a2,-112(s0)
    521c:	00001537          	lui	a0,0x1
    5220:	40a40533          	sub	a0,s0,a0
    5224:	3be53c23          	sd	t5,952(a0) # 13b8 <.LBB96_4+0x1d8>
    5228:	9b843503          	ld	a0,-1608(s0)
    522c:	00001637          	lui	a2,0x1
    5230:	40c40633          	sub	a2,s0,a2
    5234:	6b863f03          	ld	t5,1720(a2) # 16b8 <.LBB96_4+0x4d8>
    5238:	01e50533          	add	a0,a0,t5
    523c:	00001637          	lui	a2,0x1
    5240:	40c40633          	sub	a2,s0,a2
    5244:	6b063f03          	ld	t5,1712(a2) # 16b0 <.LBB96_4+0x4d0>
    5248:	01e50533          	add	a0,a0,t5
    524c:	00b50533          	add	a0,a0,a1
    5250:	c405051b          	addiw	a0,a0,-960
    5254:	40000f37          	lui	t5,0x40000
    5258:	00001637          	lui	a2,0x1
    525c:	40c40633          	sub	a2,s0,a2
    5260:	3ca63823          	sd	a0,976(a2) # 13d0 <.LBB96_4+0x1f0>
    5264:	f9043603          	ld	a2,-112(s0)
    5268:	00055463          	bgez	a0,5270 <.LBB96_212>
    526c:	c0000f37          	lui	t5,0xc0000

0000000000005270 <.LBB96_212>:
    5270:	f8c43823          	sd	a2,-112(s0)
    5274:	00001537          	lui	a0,0x1
    5278:	40a40533          	sub	a0,s0,a0
    527c:	3de53423          	sd	t5,968(a0) # 13c8 <.LBB96_4+0x1e8>
    5280:	9c043503          	ld	a0,-1600(s0)
    5284:	00001637          	lui	a2,0x1
    5288:	40c40633          	sub	a2,s0,a2
    528c:	6a863f03          	ld	t5,1704(a2) # 16a8 <.LBB96_4+0x4c8>
    5290:	01e50533          	add	a0,a0,t5
    5294:	00001637          	lui	a2,0x1
    5298:	40c40633          	sub	a2,s0,a2
    529c:	6a063f03          	ld	t5,1696(a2) # 16a0 <.LBB96_4+0x4c0>
    52a0:	01e50533          	add	a0,a0,t5
    52a4:	00b50533          	add	a0,a0,a1
    52a8:	c405051b          	addiw	a0,a0,-960
    52ac:	40000f37          	lui	t5,0x40000
    52b0:	00001637          	lui	a2,0x1
    52b4:	40c40633          	sub	a2,s0,a2
    52b8:	3ea63023          	sd	a0,992(a2) # 13e0 <.LBB96_4+0x200>
    52bc:	f9043603          	ld	a2,-112(s0)
    52c0:	00055463          	bgez	a0,52c8 <.LBB96_214>
    52c4:	c0000f37          	lui	t5,0xc0000

00000000000052c8 <.LBB96_214>:
    52c8:	f8c43823          	sd	a2,-112(s0)
    52cc:	00001537          	lui	a0,0x1
    52d0:	40a40533          	sub	a0,s0,a0
    52d4:	3de53c23          	sd	t5,984(a0) # 13d8 <.LBB96_4+0x1f8>
    52d8:	9c843503          	ld	a0,-1592(s0)
    52dc:	00001637          	lui	a2,0x1
    52e0:	40c40633          	sub	a2,s0,a2
    52e4:	69863f03          	ld	t5,1688(a2) # 1698 <.LBB96_4+0x4b8>
    52e8:	01e50533          	add	a0,a0,t5
    52ec:	00001637          	lui	a2,0x1
    52f0:	40c40633          	sub	a2,s0,a2
    52f4:	69063f03          	ld	t5,1680(a2) # 1690 <.LBB96_4+0x4b0>
    52f8:	01e50533          	add	a0,a0,t5
    52fc:	00b50533          	add	a0,a0,a1
    5300:	c405051b          	addiw	a0,a0,-960
    5304:	40000f37          	lui	t5,0x40000
    5308:	00001637          	lui	a2,0x1
    530c:	40c40633          	sub	a2,s0,a2
    5310:	3ea63823          	sd	a0,1008(a2) # 13f0 <.LBB96_4+0x210>
    5314:	f9043603          	ld	a2,-112(s0)
    5318:	00055463          	bgez	a0,5320 <.LBB96_216>
    531c:	c0000f37          	lui	t5,0xc0000

0000000000005320 <.LBB96_216>:
    5320:	f8c43823          	sd	a2,-112(s0)
    5324:	00001537          	lui	a0,0x1
    5328:	40a40533          	sub	a0,s0,a0
    532c:	3fe53423          	sd	t5,1000(a0) # 13e8 <.LBB96_4+0x208>
    5330:	9d043503          	ld	a0,-1584(s0)
    5334:	00001637          	lui	a2,0x1
    5338:	40c40633          	sub	a2,s0,a2
    533c:	68863f03          	ld	t5,1672(a2) # 1688 <.LBB96_4+0x4a8>
    5340:	01e50533          	add	a0,a0,t5
    5344:	00001637          	lui	a2,0x1
    5348:	40c40633          	sub	a2,s0,a2
    534c:	6d063f03          	ld	t5,1744(a2) # 16d0 <.LBB96_4+0x4f0>
    5350:	01e50533          	add	a0,a0,t5
    5354:	00b50533          	add	a0,a0,a1
    5358:	c405051b          	addiw	a0,a0,-960
    535c:	40000f37          	lui	t5,0x40000
    5360:	00001637          	lui	a2,0x1
    5364:	40c40633          	sub	a2,s0,a2
    5368:	40a63023          	sd	a0,1024(a2) # 1400 <.LBB96_4+0x220>
    536c:	f9043603          	ld	a2,-112(s0)
    5370:	00055463          	bgez	a0,5378 <.LBB96_218>
    5374:	c0000f37          	lui	t5,0xc0000

0000000000005378 <.LBB96_218>:
