
code.o:     file format elf64-littleriscv


Disassembly of section .text.main_dispatch_16_pooling_nhwc_sum_1x56x56x96x3x3_i8xi32xi32:

0000000000000000 <main_dispatch_16_pooling_nhwc_sum_1x56x56x96x3x3_i8xi32xi32>:
   0:	f1501173          	csrrw	sp,0xf15,zero

0000000000000004 <.Lfunc_begin16>:
   4:	da010113          	addi	sp,sp,-608
   8:	24113c23          	sd	ra,600(sp)
   c:	24813823          	sd	s0,592(sp)
  10:	24913423          	sd	s1,584(sp)
  14:	25213023          	sd	s2,576(sp)
  18:	23313c23          	sd	s3,568(sp)
  1c:	23413823          	sd	s4,560(sp)
  20:	23513423          	sd	s5,552(sp)
  24:	23613023          	sd	s6,544(sp)
  28:	21713c23          	sd	s7,536(sp)
  2c:	21813823          	sd	s8,528(sp)
  30:	21913423          	sd	s9,520(sp)
  34:	21a13023          	sd	s10,512(sp)
  38:	1fb13c23          	sd	s11,504(sp)
  3c:	26010413          	addi	s0,sp,608
  40:	0205b503          	ld	a0,32(a1)
  44:	00000693          	li	a3,0
  48:	00853583          	ld	a1,8(a0)
  4c:	00053503          	ld	a0,0(a0)
  50:	0028f637          	lui	a2,0x28f
  54:	8806061b          	addiw	a2,a2,-1920 # 28e880 <.Lfunc_end80+0x265eb4>
  58:	00c585b3          	add	a1,a1,a2
  5c:	dab43c23          	sd	a1,-584(s0)
  60:	001635b7          	lui	a1,0x163
  64:	6a05859b          	addiw	a1,a1,1696 # 1636a0 <.Lfunc_end80+0x13acd4>
  68:	00b50db3          	add	s11,a0,a1
  6c:	01500513          	li	a0,21
  70:	00a51513          	slli	a0,a0,0xa
  74:	daa43823          	sd	a0,-592(s0)
  78:	00003537          	lui	a0,0x3
  7c:	a605079b          	addiw	a5,a0,-1440 # 2a60 <.LBB28_5+0x1c4>
  80:	00005537          	lui	a0,0x5
  84:	4c05051b          	addiw	a0,a0,1216 # 54c0 <.LBB21_12>
  88:	daa43423          	sd	a0,-600(s0)
  8c:	e2f43823          	sd	a5,-464(s0)

0000000000000090 <.LBB16_1>:
  90:	00000593          	li	a1,0
  94:	dcd43423          	sd	a3,-568(s0)
  98:	db043503          	ld	a0,-592(s0)
  9c:	02a68533          	mul	a0,a3,a0
  a0:	db843603          	ld	a2,-584(s0)
  a4:	00a60533          	add	a0,a2,a0
  a8:	dca43823          	sd	a0,-560(s0)
  ac:	ddb43023          	sd	s11,-576(s0)

00000000000000b0 <.LBB16_2>:
  b0:	00000513          	li	a0,0
  b4:	00058613          	mv	a2,a1
  b8:	18000593          	li	a1,384
  bc:	dcc43c23          	sd	a2,-552(s0)
  c0:	02b605b3          	mul	a1,a2,a1
  c4:	dd043603          	ld	a2,-560(s0)
  c8:	00b605b3          	add	a1,a2,a1
  cc:	18058613          	addi	a2,a1,384
  d0:	e0c43823          	sd	a2,-496(s0)
  d4:	30058613          	addi	a2,a1,768
  d8:	e0c43423          	sd	a2,-504(s0)
  dc:	48058613          	addi	a2,a1,1152
  e0:	e0c43023          	sd	a2,-512(s0)
  e4:	60058613          	addi	a2,a1,1536
  e8:	dec43c23          	sd	a2,-520(s0)
  ec:	78058613          	addi	a2,a1,1920
  f0:	dec43823          	sd	a2,-528(s0)
  f4:	e0b43c23          	sd	a1,-488(s0)
  f8:	7ff58593          	addi	a1,a1,2047
  fc:	10158593          	addi	a1,a1,257
 100:	deb43423          	sd	a1,-536(s0)
 104:	dfb43023          	sd	s11,-544(s0)

0000000000000108 <.LBB16_3>:
 108:	00000b93          	li	s7,0
 10c:	00000593          	li	a1,0
 110:	00000c13          	li	s8,0
 114:	e8043c23          	sd	zero,-360(s0)
 118:	e8043823          	sd	zero,-368(s0)
 11c:	e8043423          	sd	zero,-376(s0)
 120:	e8043023          	sd	zero,-384(s0)
 124:	e6043c23          	sd	zero,-392(s0)
 128:	00000813          	li	a6,0
 12c:	00000c93          	li	s9,0
 130:	ea043023          	sd	zero,-352(s0)
 134:	00000893          	li	a7,0
 138:	ec043423          	sd	zero,-312(s0)
 13c:	ec043023          	sd	zero,-320(s0)
 140:	ea043c23          	sd	zero,-328(s0)
 144:	ea043823          	sd	zero,-336(s0)
 148:	f6043c23          	sd	zero,-136(s0)
 14c:	f0043023          	sd	zero,-256(s0)
 150:	00000f93          	li	t6,0
 154:	ee043c23          	sd	zero,-264(s0)
 158:	ee043823          	sd	zero,-272(s0)
 15c:	ee043423          	sd	zero,-280(s0)
 160:	ee043023          	sd	zero,-288(s0)
 164:	ec043c23          	sd	zero,-296(s0)
 168:	f8043423          	sd	zero,-120(s0)
 16c:	f4043023          	sd	zero,-192(s0)
 170:	ea043423          	sd	zero,-344(s0)
 174:	f2043c23          	sd	zero,-200(s0)
 178:	f2043823          	sd	zero,-208(s0)
 17c:	f2043423          	sd	zero,-216(s0)
 180:	f2043023          	sd	zero,-224(s0)
 184:	f0043c23          	sd	zero,-232(s0)
 188:	f8043823          	sd	zero,-112(s0)
 18c:	f6043823          	sd	zero,-144(s0)
 190:	ec043823          	sd	zero,-304(s0)
 194:	f6043423          	sd	zero,-152(s0)
 198:	f6043023          	sd	zero,-160(s0)
 19c:	f4043c23          	sd	zero,-168(s0)
 1a0:	f4043823          	sd	zero,-176(s0)
 1a4:	f4043423          	sd	zero,-184(s0)
 1a8:	00000a93          	li	s5,0
 1ac:	00000913          	li	s2,0
 1b0:	f0043823          	sd	zero,-240(s0)
 1b4:	00000b13          	li	s6,0
 1b8:	f8043023          	sd	zero,-128(s0)
 1bc:	00000993          	li	s3,0
 1c0:	00000a13          	li	s4,0
 1c4:	f0043423          	sd	zero,-248(s0)
 1c8:	00000e93          	li	t4,0
 1cc:	00000493          	li	s1,0
 1d0:	00000f13          	li	t5,0
 1d4:	00000e13          	li	t3,0
 1d8:	00000313          	li	t1,0
 1dc:	00000293          	li	t0,0
 1e0:	00000393          	li	t2,0
 1e4:	00000713          	li	a4,0
 1e8:	e2a43023          	sd	a0,-480(s0)
 1ec:	ffd00d13          	li	s10,-3
 1f0:	e3b43423          	sd	s11,-472(s0)

00000000000001f4 <.LBB16_4>:
 1f4:	e3543c23          	sd	s5,-456(s0)
 1f8:	e5243423          	sd	s2,-440(s0)
 1fc:	e5643823          	sd	s6,-432(s0)
 200:	e5343c23          	sd	s3,-424(s0)
 204:	e7443423          	sd	s4,-408(s0)
 208:	d61d8503          	lb	a0,-671(s11)
 20c:	d60d8083          	lb	ra,-672(s11)
 210:	00a58533          	add	a0,a1,a0
 214:	d62d8903          	lb	s2,-670(s11)
 218:	001b89b3          	add	s3,s7,ra
 21c:	d63d8083          	lb	ra,-669(s11)
 220:	d64d8783          	lb	a5,-668(s11)
 224:	012c0a33          	add	s4,s8,s2
 228:	d65d8903          	lb	s2,-667(s11)
 22c:	e9843a83          	ld	s5,-360(s0)
 230:	001a8ab3          	add	s5,s5,ra
 234:	e9043583          	ld	a1,-368(s0)
 238:	00f587b3          	add	a5,a1,a5
 23c:	d66d8583          	lb	a1,-666(s11)
 240:	e8843b03          	ld	s6,-376(s0)
 244:	012b0b33          	add	s6,s6,s2
 248:	d67d8903          	lb	s2,-665(s11)
 24c:	e21d8083          	lb	ra,-479(s11)
 250:	e8043b83          	ld	s7,-384(s0)
 254:	00bb8bb3          	add	s7,s7,a1
 258:	dc1d8583          	lb	a1,-575(s11)
 25c:	e7843c03          	ld	s8,-392(s0)
 260:	012c0c33          	add	s8,s8,s2
 264:	001c8cb3          	add	s9,s9,ra
 268:	e20d8603          	lb	a2,-480(s11)
 26c:	001585b3          	add	a1,a1,ra
 270:	dc0d8083          	lb	ra,-576(s11)
 274:	00b50533          	add	a0,a0,a1
 278:	e4a43023          	sd	a0,-448(s0)
 27c:	00c80533          	add	a0,a6,a2
 280:	e22d8583          	lb	a1,-478(s11)
 284:	00c08633          	add	a2,ra,a2
 288:	dc2d8083          	lb	ra,-574(s11)
 28c:	00c98633          	add	a2,s3,a2
 290:	e6c43823          	sd	a2,-400(s0)
 294:	00048913          	mv	s2,s1
 298:	ea043483          	ld	s1,-352(s0)
 29c:	00b484b3          	add	s1,s1,a1
 2a0:	e23d8603          	lb	a2,-477(s11)
 2a4:	00b085b3          	add	a1,ra,a1
 2a8:	dc3d8083          	lb	ra,-573(s11)
 2ac:	00ba05b3          	add	a1,s4,a1
 2b0:	e6b43023          	sd	a1,-416(s0)
 2b4:	00c88833          	add	a6,a7,a2
 2b8:	e24d8583          	lb	a1,-476(s11)
 2bc:	00c08633          	add	a2,ra,a2
 2c0:	dc4d8083          	lb	ra,-572(s11)
 2c4:	00ca8633          	add	a2,s5,a2
 2c8:	e8c43c23          	sd	a2,-360(s0)
 2cc:	ec843883          	ld	a7,-312(s0)
 2d0:	00b888b3          	add	a7,a7,a1
 2d4:	e25d8603          	lb	a2,-475(s11)
 2d8:	00b085b3          	add	a1,ra,a1
 2dc:	dc5d8083          	lb	ra,-571(s11)
 2e0:	00b785b3          	add	a1,a5,a1
 2e4:	e8b43823          	sd	a1,-368(s0)
 2e8:	00038593          	mv	a1,t2
 2ec:	ec043383          	ld	t2,-320(s0)
 2f0:	00c383b3          	add	t2,t2,a2
 2f4:	e26d8783          	lb	a5,-474(s11)
 2f8:	00c08633          	add	a2,ra,a2
 2fc:	dc6d8083          	lb	ra,-570(s11)
 300:	00cb0633          	add	a2,s6,a2
 304:	e8c43423          	sd	a2,-376(s0)
 308:	000e0b13          	mv	s6,t3
 30c:	eb843e03          	ld	t3,-328(s0)
 310:	00fe0e33          	add	t3,t3,a5
 314:	e27d8603          	lb	a2,-473(s11)
 318:	00f087b3          	add	a5,ra,a5
 31c:	dc7d8083          	lb	ra,-569(s11)
 320:	00fb87b3          	add	a5,s7,a5
 324:	e8f43023          	sd	a5,-384(s0)
 328:	000e8a93          	mv	s5,t4
 32c:	eb043e83          	ld	t4,-336(s0)
 330:	00ce8eb3          	add	t4,t4,a2
 334:	ee0d8783          	lb	a5,-288(s11)
 338:	00c08633          	add	a2,ra,a2
 33c:	e80d8083          	lb	ra,-384(s11)
 340:	00cc0633          	add	a2,s8,a2
 344:	e6c43c23          	sd	a2,-392(s0)
 348:	f7843603          	ld	a2,-136(s0)
 34c:	00f60633          	add	a2,a2,a5
 350:	ee1d8683          	lb	a3,-287(s11)
 354:	00f087b3          	add	a5,ra,a5
 358:	e81d8083          	lb	ra,-383(s11)
 35c:	00f50bb3          	add	s7,a0,a5
 360:	f0043503          	ld	a0,-256(s0)
 364:	00d50533          	add	a0,a0,a3
 368:	ee2d8783          	lb	a5,-286(s11)
 36c:	00d086b3          	add	a3,ra,a3
 370:	e82d8083          	lb	ra,-382(s11)
 374:	00dc8cb3          	add	s9,s9,a3
 378:	00ff8fb3          	add	t6,t6,a5
 37c:	ee3d8683          	lb	a3,-285(s11)
 380:	00f087b3          	add	a5,ra,a5
 384:	e83d8083          	lb	ra,-381(s11)
 388:	00f487b3          	add	a5,s1,a5
 38c:	eaf43023          	sd	a5,-352(s0)
 390:	00030993          	mv	s3,t1
 394:	ef843303          	ld	t1,-264(s0)
 398:	00d30333          	add	t1,t1,a3
 39c:	ee4d8783          	lb	a5,-284(s11)
 3a0:	00d086b3          	add	a3,ra,a3
 3a4:	e84d8083          	lb	ra,-380(s11)
 3a8:	00d80c33          	add	s8,a6,a3
 3ac:	ef043683          	ld	a3,-272(s0)
 3b0:	00f686b3          	add	a3,a3,a5
 3b4:	00070493          	mv	s1,a4
 3b8:	ee5d8703          	lb	a4,-283(s11)
 3bc:	00f087b3          	add	a5,ra,a5
 3c0:	e85d8083          	lb	ra,-379(s11)
 3c4:	00f887b3          	add	a5,a7,a5
 3c8:	ecf43423          	sd	a5,-312(s0)
 3cc:	00028a13          	mv	s4,t0
 3d0:	ee843283          	ld	t0,-280(s0)
 3d4:	00e282b3          	add	t0,t0,a4
 3d8:	ee6d8783          	lb	a5,-282(s11)
 3dc:	00e08733          	add	a4,ra,a4
 3e0:	e86d8083          	lb	ra,-378(s11)
 3e4:	00e38733          	add	a4,t2,a4
 3e8:	ece43023          	sd	a4,-320(s0)
 3ec:	ee043703          	ld	a4,-288(s0)
 3f0:	00f70733          	add	a4,a4,a5
 3f4:	ee7d8803          	lb	a6,-281(s11)
 3f8:	00f087b3          	add	a5,ra,a5
 3fc:	e87d8083          	lb	ra,-377(s11)
 400:	00fe07b3          	add	a5,t3,a5
 404:	eaf43c23          	sd	a5,-328(s0)
 408:	ed843783          	ld	a5,-296(s0)
 40c:	010787b3          	add	a5,a5,a6
 410:	fa0d8883          	lb	a7,-96(s11)
 414:	01008833          	add	a6,ra,a6
 418:	f40d8083          	lb	ra,-192(s11)
 41c:	010e8833          	add	a6,t4,a6
 420:	eb043823          	sd	a6,-336(s0)
 424:	f8843803          	ld	a6,-120(s0)
 428:	01180833          	add	a6,a6,a7
 42c:	fa1d8383          	lb	t2,-95(s11)
 430:	011088b3          	add	a7,ra,a7
 434:	f41d8083          	lb	ra,-191(s11)
 438:	01160633          	add	a2,a2,a7
 43c:	f6c43c23          	sd	a2,-136(s0)
 440:	f4043603          	ld	a2,-192(s0)
 444:	00760633          	add	a2,a2,t2
 448:	fa2d8883          	lb	a7,-94(s11)
 44c:	007083b3          	add	t2,ra,t2
 450:	f42d8083          	lb	ra,-190(s11)
 454:	00750533          	add	a0,a0,t2
 458:	f0a43023          	sd	a0,-256(s0)
 45c:	000f0e93          	mv	t4,t5
 460:	ea843f03          	ld	t5,-344(s0)
 464:	011f0f33          	add	t5,t5,a7
 468:	fa3d8503          	lb	a0,-93(s11)
 46c:	011088b3          	add	a7,ra,a7
 470:	f43d8383          	lb	t2,-189(s11)
 474:	011f8fb3          	add	t6,t6,a7
 478:	f3843883          	ld	a7,-200(s0)
 47c:	00a888b3          	add	a7,a7,a0
 480:	fa4d8083          	lb	ra,-92(s11)
 484:	00a38533          	add	a0,t2,a0
 488:	f44d8383          	lb	t2,-188(s11)
 48c:	00a30533          	add	a0,t1,a0
 490:	eea43c23          	sd	a0,-264(s0)
 494:	f3043503          	ld	a0,-208(s0)
 498:	00150533          	add	a0,a0,ra
 49c:	fa5d8303          	lb	t1,-91(s11)
 4a0:	001383b3          	add	t2,t2,ra
 4a4:	f45d8083          	lb	ra,-187(s11)
 4a8:	007686b3          	add	a3,a3,t2
 4ac:	eed43823          	sd	a3,-272(s0)
 4b0:	f2843683          	ld	a3,-216(s0)
 4b4:	006686b3          	add	a3,a3,t1
 4b8:	fa6d8383          	lb	t2,-90(s11)
 4bc:	00608333          	add	t1,ra,t1
 4c0:	f46d8083          	lb	ra,-186(s11)
 4c4:	006282b3          	add	t0,t0,t1
 4c8:	ee543423          	sd	t0,-280(s0)
 4cc:	f2043303          	ld	t1,-224(s0)
 4d0:	00730333          	add	t1,t1,t2
 4d4:	fa7d8283          	lb	t0,-89(s11)
 4d8:	007083b3          	add	t2,ra,t2
 4dc:	f47d8083          	lb	ra,-185(s11)
 4e0:	00770733          	add	a4,a4,t2
 4e4:	eee43023          	sd	a4,-288(s0)
 4e8:	f1843703          	ld	a4,-232(s0)
 4ec:	00570733          	add	a4,a4,t0
 4f0:	060d8383          	lb	t2,96(s11)
 4f4:	005082b3          	add	t0,ra,t0
 4f8:	000d8083          	lb	ra,0(s11)
 4fc:	005787b3          	add	a5,a5,t0
 500:	ecf43c23          	sd	a5,-296(s0)
 504:	f9043783          	ld	a5,-112(s0)
 508:	007787b3          	add	a5,a5,t2
 50c:	061d8283          	lb	t0,97(s11)
 510:	007083b3          	add	t2,ra,t2
 514:	001d8083          	lb	ra,1(s11)
 518:	00780833          	add	a6,a6,t2
 51c:	f9043423          	sd	a6,-120(s0)
 520:	f7043803          	ld	a6,-144(s0)
 524:	00580833          	add	a6,a6,t0
 528:	062d8383          	lb	t2,98(s11)
 52c:	005082b3          	add	t0,ra,t0
 530:	002d8083          	lb	ra,2(s11)
 534:	00560633          	add	a2,a2,t0
 538:	f4c43023          	sd	a2,-192(s0)
 53c:	ed043603          	ld	a2,-304(s0)
 540:	00760633          	add	a2,a2,t2
 544:	063d8283          	lb	t0,99(s11)
 548:	007083b3          	add	t2,ra,t2
 54c:	003d8083          	lb	ra,3(s11)
 550:	007f03b3          	add	t2,t5,t2
 554:	ea743423          	sd	t2,-344(s0)
 558:	f6843383          	ld	t2,-152(s0)
 55c:	005383b3          	add	t2,t2,t0
 560:	064d8e03          	lb	t3,100(s11)
 564:	005082b3          	add	t0,ra,t0
 568:	004d8083          	lb	ra,4(s11)
 56c:	005888b3          	add	a7,a7,t0
 570:	f3143c23          	sd	a7,-200(s0)
 574:	f6043883          	ld	a7,-160(s0)
 578:	01c888b3          	add	a7,a7,t3
 57c:	065d8283          	lb	t0,101(s11)
 580:	01c08e33          	add	t3,ra,t3
 584:	005d8083          	lb	ra,5(s11)
 588:	01c50533          	add	a0,a0,t3
 58c:	f2a43823          	sd	a0,-208(s0)
 590:	f5843503          	ld	a0,-168(s0)
 594:	00550533          	add	a0,a0,t0
 598:	066d8e03          	lb	t3,102(s11)
 59c:	005082b3          	add	t0,ra,t0
 5a0:	006d8083          	lb	ra,6(s11)
 5a4:	005686b3          	add	a3,a3,t0
 5a8:	f2d43423          	sd	a3,-216(s0)
 5ac:	f5043683          	ld	a3,-176(s0)
 5b0:	01c686b3          	add	a3,a3,t3
 5b4:	067d8283          	lb	t0,103(s11)
 5b8:	01c08e33          	add	t3,ra,t3
 5bc:	007d8083          	lb	ra,7(s11)
 5c0:	01c30333          	add	t1,t1,t3
 5c4:	f2643023          	sd	t1,-224(s0)
 5c8:	f4843303          	ld	t1,-184(s0)
 5cc:	00530333          	add	t1,t1,t0
 5d0:	120d8e03          	lb	t3,288(s11)
 5d4:	005082b3          	add	t0,ra,t0
 5d8:	0c0d8083          	lb	ra,192(s11)
 5dc:	00570733          	add	a4,a4,t0
 5e0:	f0e43c23          	sd	a4,-232(s0)
 5e4:	e3843703          	ld	a4,-456(s0)
 5e8:	01c70733          	add	a4,a4,t3
 5ec:	121d8283          	lb	t0,289(s11)
 5f0:	01c08e33          	add	t3,ra,t3
 5f4:	0c1d8083          	lb	ra,193(s11)
 5f8:	01c787b3          	add	a5,a5,t3
 5fc:	f8f43823          	sd	a5,-112(s0)
 600:	e4843783          	ld	a5,-440(s0)
 604:	005787b3          	add	a5,a5,t0
 608:	122d8e03          	lb	t3,290(s11)
 60c:	005082b3          	add	t0,ra,t0
 610:	0c2d8083          	lb	ra,194(s11)
 614:	00580833          	add	a6,a6,t0
 618:	f7043823          	sd	a6,-144(s0)
 61c:	f1043803          	ld	a6,-240(s0)
 620:	01c80833          	add	a6,a6,t3
 624:	123d8283          	lb	t0,291(s11)
 628:	01c08e33          	add	t3,ra,t3
 62c:	0c3d8083          	lb	ra,195(s11)
 630:	01c60633          	add	a2,a2,t3
 634:	ecc43823          	sd	a2,-304(s0)
 638:	e5043603          	ld	a2,-432(s0)
 63c:	00560633          	add	a2,a2,t0
 640:	124d8e03          	lb	t3,292(s11)
 644:	005082b3          	add	t0,ra,t0
 648:	0c4d8083          	lb	ra,196(s11)
 64c:	005382b3          	add	t0,t2,t0
 650:	f6543423          	sd	t0,-152(s0)
 654:	f8043283          	ld	t0,-128(s0)
 658:	01c282b3          	add	t0,t0,t3
 65c:	125d8383          	lb	t2,293(s11)
 660:	01c08e33          	add	t3,ra,t3
 664:	0c5d8083          	lb	ra,197(s11)
 668:	01c888b3          	add	a7,a7,t3
 66c:	f7143023          	sd	a7,-160(s0)
 670:	e5843883          	ld	a7,-424(s0)
 674:	007888b3          	add	a7,a7,t2
 678:	126d8e03          	lb	t3,294(s11)
 67c:	007083b3          	add	t2,ra,t2
 680:	0c6d8083          	lb	ra,198(s11)
 684:	00750533          	add	a0,a0,t2
 688:	f4a43c23          	sd	a0,-168(s0)
 68c:	e6843503          	ld	a0,-408(s0)
 690:	01c50533          	add	a0,a0,t3
 694:	127d8383          	lb	t2,295(s11)
 698:	01c08e33          	add	t3,ra,t3
 69c:	0c7d8083          	lb	ra,199(s11)
 6a0:	01c686b3          	add	a3,a3,t3
 6a4:	f4d43823          	sd	a3,-176(s0)
 6a8:	f0843683          	ld	a3,-248(s0)
 6ac:	007686b3          	add	a3,a3,t2
 6b0:	1e0d8e03          	lb	t3,480(s11)
 6b4:	007083b3          	add	t2,ra,t2
 6b8:	180d8083          	lb	ra,384(s11)
 6bc:	00730333          	add	t1,t1,t2
 6c0:	f4643423          	sd	t1,-184(s0)
 6c4:	01ca8333          	add	t1,s5,t3
 6c8:	1e1d8383          	lb	t2,481(s11)
 6cc:	01c08e33          	add	t3,ra,t3
 6d0:	181d8083          	lb	ra,385(s11)
 6d4:	01c70ab3          	add	s5,a4,t3
 6d8:	00790733          	add	a4,s2,t2
 6dc:	1e2d8e03          	lb	t3,482(s11)
 6e0:	007083b3          	add	t2,ra,t2
 6e4:	182d8083          	lb	ra,386(s11)
 6e8:	00778933          	add	s2,a5,t2
 6ec:	01ce87b3          	add	a5,t4,t3
 6f0:	1e3d8383          	lb	t2,483(s11)
 6f4:	01c08e33          	add	t3,ra,t3
 6f8:	183d8083          	lb	ra,387(s11)
 6fc:	01c80833          	add	a6,a6,t3
 700:	f1043823          	sd	a6,-240(s0)
 704:	007b0833          	add	a6,s6,t2
 708:	1e4d8e03          	lb	t3,484(s11)
 70c:	007083b3          	add	t2,ra,t2
 710:	184d8083          	lb	ra,388(s11)
 714:	00760b33          	add	s6,a2,t2
 718:	01c98633          	add	a2,s3,t3
 71c:	1e5d8383          	lb	t2,485(s11)
 720:	01c08e33          	add	t3,ra,t3
 724:	185d8083          	lb	ra,389(s11)
 728:	01c282b3          	add	t0,t0,t3
 72c:	f8543023          	sd	t0,-128(s0)
 730:	007a02b3          	add	t0,s4,t2
 734:	1e6d8e03          	lb	t3,486(s11)
 738:	007083b3          	add	t2,ra,t2
 73c:	007889b3          	add	s3,a7,t2
 740:	186d8883          	lb	a7,390(s11)
 744:	01c583b3          	add	t2,a1,t3
 748:	e4043583          	ld	a1,-448(s0)
 74c:	1e7d8083          	lb	ra,487(s11)
 750:	187d8e83          	lb	t4,391(s11)
 754:	01c888b3          	add	a7,a7,t3
 758:	01150a33          	add	s4,a0,a7
 75c:	00148533          	add	a0,s1,ra
 760:	001e8eb3          	add	t4,t4,ra
 764:	240d8883          	lb	a7,576(s11)
 768:	2a0d8e03          	lb	t3,672(s11)
 76c:	241d8083          	lb	ra,577(s11)
 770:	2a1d8f03          	lb	t5,673(s11)
 774:	01d686b3          	add	a3,a3,t4
 778:	f0d43423          	sd	a3,-248(s0)
 77c:	01c888b3          	add	a7,a7,t3
 780:	01130eb3          	add	t4,t1,a7
 784:	01e08f33          	add	t5,ra,t5
 788:	242d8683          	lb	a3,578(s11)
 78c:	2a2d8883          	lb	a7,674(s11)
 790:	243d8303          	lb	t1,579(s11)
 794:	2a3d8e03          	lb	t3,675(s11)
 798:	01e704b3          	add	s1,a4,t5
 79c:	011686b3          	add	a3,a3,a7
 7a0:	00d78f33          	add	t5,a5,a3
 7a4:	01c30333          	add	t1,t1,t3
 7a8:	244d8683          	lb	a3,580(s11)
 7ac:	2a4d8703          	lb	a4,676(s11)
 7b0:	245d8783          	lb	a5,581(s11)
 7b4:	2a5d8883          	lb	a7,677(s11)
 7b8:	00680e33          	add	t3,a6,t1
 7bc:	00e686b3          	add	a3,a3,a4
 7c0:	00d60333          	add	t1,a2,a3
 7c4:	011787b3          	add	a5,a5,a7
 7c8:	000c0893          	mv	a7,s8
 7cc:	e6043c03          	ld	s8,-416(s0)
 7d0:	246d8603          	lb	a2,582(s11)
 7d4:	2a6d8683          	lb	a3,678(s11)
 7d8:	247d8703          	lb	a4,583(s11)
 7dc:	2a7d8803          	lb	a6,679(s11)
 7e0:	00f282b3          	add	t0,t0,a5
 7e4:	e3043783          	ld	a5,-464(s0)
 7e8:	00d60633          	add	a2,a2,a3
 7ec:	00c383b3          	add	t2,t2,a2
 7f0:	01070733          	add	a4,a4,a6
 7f4:	000b8813          	mv	a6,s7
 7f8:	e7043b83          	ld	s7,-400(s0)
 7fc:	00e50733          	add	a4,a0,a4
 800:	001d0d13          	addi	s10,s10,1
 804:	00fd8db3          	add	s11,s11,a5
 808:	9e0d16e3          	bnez	s10,1f4 <.LBB16_4>
 80c:	e2043683          	ld	a3,-480(s0)
 810:	00269513          	slli	a0,a3,0x2
 814:	e1843603          	ld	a2,-488(s0)
 818:	00a60633          	add	a2,a2,a0
 81c:	01862423          	sw	s8,8(a2)
 820:	00b62223          	sw	a1,4(a2)
 824:	01762023          	sw	s7,0(a2)
 828:	e9843583          	ld	a1,-360(s0)
 82c:	00b62623          	sw	a1,12(a2)
 830:	e9043583          	ld	a1,-368(s0)
 834:	00b62823          	sw	a1,16(a2)
 838:	e8843583          	ld	a1,-376(s0)
 83c:	00b62a23          	sw	a1,20(a2)
 840:	e8043583          	ld	a1,-384(s0)
 844:	00b62c23          	sw	a1,24(a2)
 848:	e7843583          	ld	a1,-392(s0)
 84c:	00b62e23          	sw	a1,28(a2)
 850:	e1043583          	ld	a1,-496(s0)
 854:	00a585b3          	add	a1,a1,a0
 858:	ea043603          	ld	a2,-352(s0)
 85c:	00c5a423          	sw	a2,8(a1)
 860:	0195a223          	sw	s9,4(a1)
 864:	0105a023          	sw	a6,0(a1)
 868:	0115a623          	sw	a7,12(a1)
 86c:	ec843603          	ld	a2,-312(s0)
 870:	00c5a823          	sw	a2,16(a1)
 874:	ec043603          	ld	a2,-320(s0)
 878:	00c5aa23          	sw	a2,20(a1)
 87c:	eb843603          	ld	a2,-328(s0)
 880:	00c5ac23          	sw	a2,24(a1)
 884:	eb043603          	ld	a2,-336(s0)
 888:	00c5ae23          	sw	a2,28(a1)
 88c:	e0843583          	ld	a1,-504(s0)
 890:	00a585b3          	add	a1,a1,a0
 894:	01f5a423          	sw	t6,8(a1)
 898:	f0043603          	ld	a2,-256(s0)
 89c:	00c5a223          	sw	a2,4(a1)
 8a0:	f7843603          	ld	a2,-136(s0)
 8a4:	00c5a023          	sw	a2,0(a1)
 8a8:	ef843603          	ld	a2,-264(s0)
 8ac:	00c5a623          	sw	a2,12(a1)
 8b0:	ef043603          	ld	a2,-272(s0)
 8b4:	00c5a823          	sw	a2,16(a1)
 8b8:	ee843603          	ld	a2,-280(s0)
 8bc:	00c5aa23          	sw	a2,20(a1)
 8c0:	ee043603          	ld	a2,-288(s0)
 8c4:	00c5ac23          	sw	a2,24(a1)
 8c8:	ed843603          	ld	a2,-296(s0)
 8cc:	00c5ae23          	sw	a2,28(a1)
 8d0:	e0043583          	ld	a1,-512(s0)
 8d4:	00a585b3          	add	a1,a1,a0
 8d8:	ea843603          	ld	a2,-344(s0)
 8dc:	00c5a423          	sw	a2,8(a1)
 8e0:	f4043603          	ld	a2,-192(s0)
 8e4:	00c5a223          	sw	a2,4(a1)
 8e8:	f8843603          	ld	a2,-120(s0)
 8ec:	00c5a023          	sw	a2,0(a1)
 8f0:	f3843603          	ld	a2,-200(s0)
 8f4:	00c5a623          	sw	a2,12(a1)
 8f8:	f3043603          	ld	a2,-208(s0)
 8fc:	00c5a823          	sw	a2,16(a1)
 900:	f2843603          	ld	a2,-216(s0)
 904:	00c5aa23          	sw	a2,20(a1)
 908:	f2043603          	ld	a2,-224(s0)
 90c:	00c5ac23          	sw	a2,24(a1)
 910:	f1843603          	ld	a2,-232(s0)
 914:	00c5ae23          	sw	a2,28(a1)
 918:	df843583          	ld	a1,-520(s0)
 91c:	00a585b3          	add	a1,a1,a0
 920:	ed043603          	ld	a2,-304(s0)
 924:	00c5a423          	sw	a2,8(a1)
 928:	f7043603          	ld	a2,-144(s0)
 92c:	00c5a223          	sw	a2,4(a1)
 930:	f9043603          	ld	a2,-112(s0)
 934:	00c5a023          	sw	a2,0(a1)
 938:	f6843603          	ld	a2,-152(s0)
 93c:	00c5a623          	sw	a2,12(a1)
 940:	f6043603          	ld	a2,-160(s0)
 944:	00c5a823          	sw	a2,16(a1)
 948:	f5843603          	ld	a2,-168(s0)
 94c:	00c5aa23          	sw	a2,20(a1)
 950:	f5043603          	ld	a2,-176(s0)
 954:	00c5ac23          	sw	a2,24(a1)
 958:	f4843603          	ld	a2,-184(s0)
 95c:	00c5ae23          	sw	a2,28(a1)
 960:	df043583          	ld	a1,-528(s0)
 964:	00a585b3          	add	a1,a1,a0
 968:	f1043603          	ld	a2,-240(s0)
 96c:	00c5a423          	sw	a2,8(a1)
 970:	0125a223          	sw	s2,4(a1)
 974:	0155a023          	sw	s5,0(a1)
 978:	0165a623          	sw	s6,12(a1)
 97c:	f8043603          	ld	a2,-128(s0)
 980:	00c5a823          	sw	a2,16(a1)
 984:	0135aa23          	sw	s3,20(a1)
 988:	0145ac23          	sw	s4,24(a1)
 98c:	f0843603          	ld	a2,-248(s0)
 990:	00c5ae23          	sw	a2,28(a1)
 994:	de843583          	ld	a1,-536(s0)
 998:	00a58533          	add	a0,a1,a0
 99c:	01e52423          	sw	t5,8(a0)
 9a0:	00952223          	sw	s1,4(a0)
 9a4:	01d52023          	sw	t4,0(a0)
 9a8:	01c52623          	sw	t3,12(a0)
 9ac:	00652823          	sw	t1,16(a0)
 9b0:	00552a23          	sw	t0,20(a0)
 9b4:	00752c23          	sw	t2,24(a0)
 9b8:	00e52e23          	sw	a4,28(a0)
 9bc:	00868513          	addi	a0,a3,8
 9c0:	e2843d83          	ld	s11,-472(s0)
 9c4:	008d8d93          	addi	s11,s11,8
 9c8:	05800593          	li	a1,88
 9cc:	f2b6ee63          	bltu	a3,a1,108 <.LBB16_3>
 9d0:	dd843603          	ld	a2,-552(s0)
 9d4:	00760593          	addi	a1,a2,7
 9d8:	de043d83          	ld	s11,-544(s0)
 9dc:	540d8d93          	addi	s11,s11,1344
 9e0:	03100513          	li	a0,49
 9e4:	eca66663          	bltu	a2,a0,b0 <.LBB16_2>
 9e8:	dc843683          	ld	a3,-568(s0)
 9ec:	00168693          	addi	a3,a3,1
 9f0:	dc043d83          	ld	s11,-576(s0)
 9f4:	da843503          	ld	a0,-600(s0)
 9f8:	00ad8db3          	add	s11,s11,a0
 9fc:	03800513          	li	a0,56
 a00:	e8a69863          	bne	a3,a0,90 <.LBB16_1>
 a04:	00000513          	li	a0,0
 a08:	25813083          	ld	ra,600(sp)
 a0c:	25013403          	ld	s0,592(sp)
 a10:	24813483          	ld	s1,584(sp)
 a14:	24013903          	ld	s2,576(sp)
 a18:	23813983          	ld	s3,568(sp)
 a1c:	23013a03          	ld	s4,560(sp)
 a20:	22813a83          	ld	s5,552(sp)
 a24:	22013b03          	ld	s6,544(sp)
 a28:	21813b83          	ld	s7,536(sp)
 a2c:	21013c03          	ld	s8,528(sp)
 a30:	20813c83          	ld	s9,520(sp)
 a34:	20013d03          	ld	s10,512(sp)
 a38:	1f813d83          	ld	s11,504(sp)
 a3c:	26010113          	addi	sp,sp,608
 a40:	00008067          	ret
