
code.o:     file format elf64-littleriscv


Disassembly of section .text.main_dispatch_121_matmul_49x160x960_i8xi8xi32:

0000000000000000 <main_dispatch_121_matmul_49x160x960_i8xi8xi32>:
       0:	81010113          	addi	sp,sp,-2032
       4:	7e113423          	sd	ra,2024(sp)
       8:	7e813023          	sd	s0,2016(sp)
       c:	7c913c23          	sd	s1,2008(sp)
      10:	7d213823          	sd	s2,2000(sp)
      14:	7d313423          	sd	s3,1992(sp)
      18:	7d413023          	sd	s4,1984(sp)
      1c:	7b513c23          	sd	s5,1976(sp)
      20:	7b613823          	sd	s6,1968(sp)
      24:	7b713423          	sd	s7,1960(sp)
      28:	7b813023          	sd	s8,1952(sp)
      2c:	79913c23          	sd	s9,1944(sp)
      30:	79a13823          	sd	s10,1936(sp)
      34:	79b13423          	sd	s11,1928(sp)
      38:	7f010413          	addi	s0,sp,2032
      3c:	00002537          	lui	a0,0x2
      40:	8505051b          	addiw	a0,a0,-1968 # 1850 <.LBB95_5+0x2f0>
      44:	40a10133          	sub	sp,sp,a0
      48:	0205b583          	ld	a1,32(a1)
      4c:	00000513          	li	a0,0
      50:	0005b703          	ld	a4,0(a1)
      54:	00002637          	lui	a2,0x2
      58:	fc06061b          	addiw	a2,a2,-64 # 1fc0 <.LBB95_5+0xa60>
      5c:	0085b683          	ld	a3,8(a1)
      60:	00c70633          	add	a2,a4,a2
      64:	000027b7          	lui	a5,0x2
      68:	40f407b3          	sub	a5,s0,a5
      6c:	06c7b423          	sd	a2,104(a5) # 2068 <.LBB95_5+0xb08>
      70:	000ee637          	lui	a2,0xee
      74:	d806061b          	addiw	a2,a2,-640 # edd80 <.Lfunc_end80+0xc53b8>
      78:	00c68e33          	add	t3,a3,a2
      7c:	00015637          	lui	a2,0x15
      80:	3006061b          	addiw	a2,a2,768 # 15300 <.LBB95_2285+0x50>
      84:	00c68633          	add	a2,a3,a2
      88:	000027b7          	lui	a5,0x2
      8c:	40f407b3          	sub	a5,s0,a5
      90:	04c7b423          	sd	a2,72(a5) # 2048 <.LBB95_5+0xae8>
      94:	00113637          	lui	a2,0x113
      98:	5806061b          	addiw	a2,a2,1408 # 113580 <.Lfunc_end80+0xeabb8>
      9c:	00c68633          	add	a2,a3,a2
      a0:	000026b7          	lui	a3,0x2
      a4:	40d406b3          	sub	a3,s0,a3
      a8:	04c6b023          	sd	a2,64(a3) # 2040 <.LBB95_5+0xae0>
      ac:	0105b583          	ld	a1,16(a1)
      b0:	10070613          	addi	a2,a4,256
      b4:	000026b7          	lui	a3,0x2
      b8:	40d406b3          	sub	a3,s0,a3
      bc:	02c6bc23          	sd	a2,56(a3) # 2038 <.LBB95_5+0xad8>
      c0:	0000d637          	lui	a2,0xd
      c4:	7806061b          	addiw	a2,a2,1920 # d780 <.LBB95_1435+0x4>
      c8:	00c585b3          	add	a1,a1,a2
      cc:	00002637          	lui	a2,0x2
      d0:	40c40633          	sub	a2,s0,a2
      d4:	02b63823          	sd	a1,48(a2) # 2030 <.LBB95_5+0xad0>
      d8:	01d00593          	li	a1,29
      dc:	00959593          	slli	a1,a1,0x9
      e0:	00b705b3          	add	a1,a4,a1
      e4:	00002637          	lui	a2,0x2
      e8:	40c40633          	sub	a2,s0,a2
      ec:	06b63023          	sd	a1,96(a2) # 2060 <.LBB95_5+0xb00>
      f0:	000035b7          	lui	a1,0x3
      f4:	ec05861b          	addiw	a2,a1,-320 # 2ec0 <.LBB95_14+0x20>
      f8:	00c70633          	add	a2,a4,a2
      fc:	000026b7          	lui	a3,0x2
     100:	40d406b3          	sub	a3,s0,a3
     104:	04c6bc23          	sd	a2,88(a3) # 2058 <.LBB95_5+0xaf8>
     108:	b005859b          	addiw	a1,a1,-1280
     10c:	00002637          	lui	a2,0x2
     110:	40c40633          	sub	a2,s0,a2
     114:	fce63823          	sd	a4,-48(a2) # 1fd0 <.LBB95_5+0xa70>
     118:	00b705b3          	add	a1,a4,a1
     11c:	00002637          	lui	a2,0x2
     120:	40c40633          	sub	a2,s0,a2
     124:	04b63823          	sd	a1,80(a2) # 2050 <.LBB95_5+0xaf0>
     128:	000265b7          	lui	a1,0x26
     12c:	8005859b          	addiw	a1,a1,-2048 # 25800 <.LBB80_4718>
     130:	00002637          	lui	a2,0x2
     134:	40c40633          	sub	a2,s0,a2
     138:	feb63423          	sd	a1,-24(a2) # 1fe8 <.LBB95_5+0xa88>
     13c:	793db5b7          	lui	a1,0x793db
     140:	3e35859b          	addiw	a1,a1,995 # 793db3e3 <.Lfunc_end80+0x793b2a1b>
     144:	00002637          	lui	a2,0x2
     148:	40c40633          	sub	a2,s0,a2
     14c:	feb63023          	sd	a1,-32(a2) # 1fe0 <.LBB95_5+0xa80>
     150:	309145b7          	lui	a1,0x30914
     154:	dcb5859b          	addiw	a1,a1,-565 # 30913dcb <.Lfunc_end80+0x308eb403>
     158:	01559593          	slli	a1,a1,0x15
     15c:	00001637          	lui	a2,0x1
     160:	40c40633          	sub	a2,s0,a2
     164:	64b63023          	sd	a1,1600(a2) # 1640 <.LBB95_5+0xe0>
     168:	00300593          	li	a1,3
     16c:	01e59593          	slli	a1,a1,0x1e
     170:	00001637          	lui	a2,0x1
     174:	40c40633          	sub	a2,s0,a2
     178:	64b63423          	sd	a1,1608(a2) # 1648 <.LBB95_5+0xe8>
     17c:	cf6ec5b7          	lui	a1,0xcf6ec
     180:	2355859b          	addiw	a1,a1,565 # ffffffffcf6ec235 <.Lfunc_end80+0xffffffffcf6c386d>
     184:	01559593          	slli	a1,a1,0x15
     188:	00001637          	lui	a2,0x1
     18c:	40c40633          	sub	a2,s0,a2
     190:	62b63c23          	sd	a1,1592(a2) # 1638 <.LBB95_5+0xd8>
     194:	706e35b7          	lui	a1,0x706e3
     198:	7e25859b          	addiw	a1,a1,2018 # 706e37e2 <.Lfunc_end80+0x706bae1a>
     19c:	f8b43023          	sd	a1,-128(s0)
     1a0:	00f00593          	li	a1,15
     1a4:	00959593          	slli	a1,a1,0x9
     1a8:	00002637          	lui	a2,0x2
     1ac:	40c40633          	sub	a2,s0,a2
     1b0:	fcb63023          	sd	a1,-64(a2) # 1fc0 <.LBB95_5+0xa60>
     1b4:	000025b7          	lui	a1,0x2
     1b8:	40b405b3          	sub	a1,s0,a1
     1bc:	fdc5bc23          	sd	t3,-40(a1) # 1fd8 <.LBB95_5+0xa78>
     1c0:	0a80006f          	j	268 <.LBB95_2>

00000000000001c4 <.LBB95_1>:
     1c4:	00002537          	lui	a0,0x2
     1c8:	40a40533          	sub	a0,s0,a0
     1cc:	fc853683          	ld	a3,-56(a0) # 1fc8 <.LBB95_5+0xa68>
     1d0:	00868513          	addi	a0,a3,8
     1d4:	000025b7          	lui	a1,0x2
     1d8:	40b405b3          	sub	a1,s0,a1
     1dc:	0685b583          	ld	a1,104(a1) # 2068 <.LBB95_5+0xb08>
     1e0:	00002637          	lui	a2,0x2
     1e4:	40c40633          	sub	a2,s0,a2
     1e8:	fc063603          	ld	a2,-64(a2) # 1fc0 <.LBB95_5+0xa60>
     1ec:	00c585b3          	add	a1,a1,a2
     1f0:	00002737          	lui	a4,0x2
     1f4:	40e40733          	sub	a4,s0,a4
     1f8:	06b73423          	sd	a1,104(a4) # 2068 <.LBB95_5+0xb08>
     1fc:	000025b7          	lui	a1,0x2
     200:	40b405b3          	sub	a1,s0,a1
     204:	0605b583          	ld	a1,96(a1) # 2060 <.LBB95_5+0xb00>
     208:	00c585b3          	add	a1,a1,a2
     20c:	00002737          	lui	a4,0x2
     210:	40e40733          	sub	a4,s0,a4
     214:	06b73023          	sd	a1,96(a4) # 2060 <.LBB95_5+0xb00>
     218:	000025b7          	lui	a1,0x2
     21c:	40b405b3          	sub	a1,s0,a1
     220:	0585b583          	ld	a1,88(a1) # 2058 <.LBB95_5+0xaf8>
     224:	00c585b3          	add	a1,a1,a2
     228:	00002737          	lui	a4,0x2
     22c:	40e40733          	sub	a4,s0,a4
     230:	04b73c23          	sd	a1,88(a4) # 2058 <.LBB95_5+0xaf8>
     234:	000025b7          	lui	a1,0x2
     238:	40b405b3          	sub	a1,s0,a1
     23c:	0505b583          	ld	a1,80(a1) # 2050 <.LBB95_5+0xaf0>
     240:	00c585b3          	add	a1,a1,a2
     244:	00002637          	lui	a2,0x2
     248:	40c40633          	sub	a2,s0,a2
     24c:	04b63823          	sd	a1,80(a2) # 2050 <.LBB95_5+0xaf0>
     250:	000025b7          	lui	a1,0x2
     254:	40b405b3          	sub	a1,s0,a1
     258:	fd85be03          	ld	t3,-40(a1) # 1fd8 <.LBB95_5+0xa78>
     25c:	02800593          	li	a1,40
     260:	00b6e463          	bltu	a3,a1,268 <.LBB95_2>
     264:	5811b06f          	j	1bfe4 <.LBB95_3590>

0000000000000268 <.LBB95_2>:
     268:	00000593          	li	a1,0
     26c:	00050693          	mv	a3,a0
     270:	00251513          	slli	a0,a0,0x2
     274:	00002637          	lui	a2,0x2
     278:	40c40633          	sub	a2,s0,a2
     27c:	fd063603          	ld	a2,-48(a2) # 1fd0 <.LBB95_5+0xa70>
     280:	00a60533          	add	a0,a2,a0
     284:	00001637          	lui	a2,0x1
     288:	40c40633          	sub	a2,s0,a2
     28c:	04a63c23          	sd	a0,88(a2) # 1058 <.LBB95_4+0xdc>
     290:	0a000513          	li	a0,160
     294:	00002637          	lui	a2,0x2
     298:	40c40633          	sub	a2,s0,a2
     29c:	fcd63423          	sd	a3,-56(a2) # 1fc8 <.LBB95_5+0xa68>
     2a0:	02a68533          	mul	a0,a3,a0
     2a4:	0a050613          	addi	a2,a0,160
     2a8:	000026b7          	lui	a3,0x2
     2ac:	40d406b3          	sub	a3,s0,a3
     2b0:	02c6b023          	sd	a2,32(a3) # 2020 <.LBB95_5+0xac0>
     2b4:	14050613          	addi	a2,a0,320
     2b8:	000026b7          	lui	a3,0x2
     2bc:	40d406b3          	sub	a3,s0,a3
     2c0:	00c6bc23          	sd	a2,24(a3) # 2018 <.LBB95_5+0xab8>
     2c4:	1e050613          	addi	a2,a0,480
     2c8:	000026b7          	lui	a3,0x2
     2cc:	40d406b3          	sub	a3,s0,a3
     2d0:	00c6b823          	sd	a2,16(a3) # 2010 <.LBB95_5+0xab0>
     2d4:	28050613          	addi	a2,a0,640
     2d8:	000026b7          	lui	a3,0x2
     2dc:	40d406b3          	sub	a3,s0,a3
     2e0:	00c6b423          	sd	a2,8(a3) # 2008 <.LBB95_5+0xaa8>
     2e4:	32050613          	addi	a2,a0,800
     2e8:	000026b7          	lui	a3,0x2
     2ec:	40d406b3          	sub	a3,s0,a3
     2f0:	00c6b023          	sd	a2,0(a3) # 2000 <.LBB95_5+0xaa0>
     2f4:	3c050613          	addi	a2,a0,960
     2f8:	000026b7          	lui	a3,0x2
     2fc:	40d406b3          	sub	a3,s0,a3
     300:	fec6bc23          	sd	a2,-8(a3) # 1ff8 <.LBB95_5+0xa98>
     304:	00002637          	lui	a2,0x2
     308:	40c40633          	sub	a2,s0,a2
     30c:	02a63423          	sd	a0,40(a2) # 2028 <.LBB95_5+0xac8>
     310:	46050513          	addi	a0,a0,1120
     314:	00002637          	lui	a2,0x2
     318:	40c40633          	sub	a2,s0,a2
     31c:	fea63823          	sd	a0,-16(a2) # 1ff0 <.LBB95_5+0xa90>
     320:	45d0006f          	j	f7c <.LBB95_4>

0000000000000324 <.LBB95_3>:
     324:	8da43c23          	sd	s10,-1832(s0)
     328:	006d8493          	addi	s1,s11,6
     32c:	00002cb7          	lui	s9,0x2
     330:	41940cb3          	sub	s9,s0,s9
     334:	030cbd83          	ld	s11,48(s9) # 2030 <.LBB95_5+0xad0>
     338:	00001cb7          	lui	s9,0x1
     33c:	41940cb3          	sub	s9,s0,s9
     340:	010cbd03          	ld	s10,16(s9) # 1010 <.LBB95_4+0x94>
     344:	01ad8d33          	add	s10,s11,s10
     348:	009d01a3          	sb	s1,3(s10)
     34c:	e4843483          	ld	s1,-440(s0)
     350:	00648493          	addi	s1,s1,6
     354:	009d0123          	sb	s1,2(s10)
     358:	e5843483          	ld	s1,-424(s0)
     35c:	00648493          	addi	s1,s1,6
     360:	009d00a3          	sb	s1,1(s10)
     364:	e6843483          	ld	s1,-408(s0)
     368:	00648493          	addi	s1,s1,6
     36c:	009d0023          	sb	s1,0(s10)
     370:	e7843483          	ld	s1,-392(s0)
     374:	00648493          	addi	s1,s1,6
     378:	009d0223          	sb	s1,4(s10)
     37c:	e8843483          	ld	s1,-376(s0)
     380:	00648493          	addi	s1,s1,6
     384:	009d02a3          	sb	s1,5(s10)
     388:	e9843483          	ld	s1,-360(s0)
     38c:	00648493          	addi	s1,s1,6
     390:	009d0323          	sb	s1,6(s10)
     394:	ea843483          	ld	s1,-344(s0)
     398:	00648493          	addi	s1,s1,6
     39c:	009d03a3          	sb	s1,7(s10)
     3a0:	eb843483          	ld	s1,-328(s0)
     3a4:	00648493          	addi	s1,s1,6
     3a8:	009d0423          	sb	s1,8(s10)
     3ac:	ec843483          	ld	s1,-312(s0)
     3b0:	00648493          	addi	s1,s1,6
     3b4:	009d04a3          	sb	s1,9(s10)
     3b8:	ed843483          	ld	s1,-296(s0)
     3bc:	00648493          	addi	s1,s1,6
     3c0:	009d0523          	sb	s1,10(s10)
     3c4:	ee043483          	ld	s1,-288(s0)
     3c8:	00648493          	addi	s1,s1,6
     3cc:	009d05a3          	sb	s1,11(s10)
     3d0:	ee843483          	ld	s1,-280(s0)
     3d4:	00648493          	addi	s1,s1,6
     3d8:	009d0623          	sb	s1,12(s10)
     3dc:	ef043483          	ld	s1,-272(s0)
     3e0:	00648493          	addi	s1,s1,6
     3e4:	009d06a3          	sb	s1,13(s10)
     3e8:	ef843483          	ld	s1,-264(s0)
     3ec:	00648493          	addi	s1,s1,6
     3f0:	009d0723          	sb	s1,14(s10)
     3f4:	f0043483          	ld	s1,-256(s0)
     3f8:	00648493          	addi	s1,s1,6
     3fc:	009d07a3          	sb	s1,15(s10)
     400:	f0843483          	ld	s1,-248(s0)
     404:	00648493          	addi	s1,s1,6
     408:	009d0823          	sb	s1,16(s10)
     40c:	f1043483          	ld	s1,-240(s0)
     410:	00648493          	addi	s1,s1,6
     414:	009d08a3          	sb	s1,17(s10)
     418:	f1843483          	ld	s1,-232(s0)
     41c:	00648493          	addi	s1,s1,6
     420:	009d0923          	sb	s1,18(s10)
     424:	f2043483          	ld	s1,-224(s0)
     428:	00648493          	addi	s1,s1,6
     42c:	009d09a3          	sb	s1,19(s10)
     430:	f2843483          	ld	s1,-216(s0)
     434:	00648493          	addi	s1,s1,6
     438:	009d0a23          	sb	s1,20(s10)
     43c:	f3043483          	ld	s1,-208(s0)
     440:	00648493          	addi	s1,s1,6
     444:	009d0aa3          	sb	s1,21(s10)
     448:	f3843483          	ld	s1,-200(s0)
     44c:	00648493          	addi	s1,s1,6
     450:	009d0b23          	sb	s1,22(s10)
     454:	f4043483          	ld	s1,-192(s0)
     458:	00648493          	addi	s1,s1,6
     45c:	009d0ba3          	sb	s1,23(s10)
     460:	f4843483          	ld	s1,-184(s0)
     464:	00648493          	addi	s1,s1,6
     468:	009d0c23          	sb	s1,24(s10)
     46c:	f5043483          	ld	s1,-176(s0)
     470:	00648493          	addi	s1,s1,6
     474:	009d0ca3          	sb	s1,25(s10)
     478:	f5843483          	ld	s1,-168(s0)
     47c:	00648493          	addi	s1,s1,6
     480:	009d0d23          	sb	s1,26(s10)
     484:	f6043483          	ld	s1,-160(s0)
     488:	00648493          	addi	s1,s1,6
     48c:	009d0da3          	sb	s1,27(s10)
     490:	f6843483          	ld	s1,-152(s0)
     494:	00648493          	addi	s1,s1,6
     498:	009d0e23          	sb	s1,28(s10)
     49c:	f7043483          	ld	s1,-144(s0)
     4a0:	00648493          	addi	s1,s1,6
     4a4:	009d0ea3          	sb	s1,29(s10)
     4a8:	f7843483          	ld	s1,-136(s0)
     4ac:	00648493          	addi	s1,s1,6
     4b0:	009d0f23          	sb	s1,30(s10)
     4b4:	f8843483          	ld	s1,-120(s0)
     4b8:	00648493          	addi	s1,s1,6
     4bc:	009d0fa3          	sb	s1,31(s10)
     4c0:	d4043d03          	ld	s10,-704(s0)
     4c4:	006d0d13          	addi	s10,s10,6
     4c8:	000014b7          	lui	s1,0x1
     4cc:	409404b3          	sub	s1,s0,s1
     4d0:	0184b483          	ld	s1,24(s1) # 1018 <.LBB95_4+0x9c>
     4d4:	009d84b3          	add	s1,s11,s1
     4d8:	01a48fa3          	sb	s10,31(s1)
     4dc:	d5043d03          	ld	s10,-688(s0)
     4e0:	006d0d13          	addi	s10,s10,6
     4e4:	01a48f23          	sb	s10,30(s1)
     4e8:	d6043d03          	ld	s10,-672(s0)
     4ec:	006d0d13          	addi	s10,s10,6
     4f0:	01a48ea3          	sb	s10,29(s1)
     4f4:	d7043d03          	ld	s10,-656(s0)
     4f8:	006d0d13          	addi	s10,s10,6
     4fc:	01a48e23          	sb	s10,28(s1)
     500:	d8043d03          	ld	s10,-640(s0)
     504:	006d0d13          	addi	s10,s10,6
     508:	01a48da3          	sb	s10,27(s1)
     50c:	d9043d03          	ld	s10,-624(s0)
     510:	006d0d13          	addi	s10,s10,6
     514:	01a48d23          	sb	s10,26(s1)
     518:	da043d03          	ld	s10,-608(s0)
     51c:	006d0d13          	addi	s10,s10,6
     520:	01a48ca3          	sb	s10,25(s1)
     524:	db043d03          	ld	s10,-592(s0)
     528:	006d0d13          	addi	s10,s10,6
     52c:	01a48c23          	sb	s10,24(s1)
     530:	dc043d03          	ld	s10,-576(s0)
     534:	006d0d13          	addi	s10,s10,6
     538:	01a48ba3          	sb	s10,23(s1)
     53c:	dd043d03          	ld	s10,-560(s0)
     540:	006d0d13          	addi	s10,s10,6
     544:	01a48b23          	sb	s10,22(s1)
     548:	de043d03          	ld	s10,-544(s0)
     54c:	006d0d13          	addi	s10,s10,6
     550:	01a48aa3          	sb	s10,21(s1)
     554:	de843d03          	ld	s10,-536(s0)
     558:	006d0d13          	addi	s10,s10,6
     55c:	01a48a23          	sb	s10,20(s1)
     560:	df043d03          	ld	s10,-528(s0)
     564:	006d0d13          	addi	s10,s10,6
     568:	01a489a3          	sb	s10,19(s1)
     56c:	df843d03          	ld	s10,-520(s0)
     570:	006d0d13          	addi	s10,s10,6
     574:	01a48923          	sb	s10,18(s1)
     578:	e0043d03          	ld	s10,-512(s0)
     57c:	006d0d13          	addi	s10,s10,6
     580:	01a488a3          	sb	s10,17(s1)
     584:	e0843d03          	ld	s10,-504(s0)
     588:	006d0d13          	addi	s10,s10,6
     58c:	01a48823          	sb	s10,16(s1)
     590:	e1043d03          	ld	s10,-496(s0)
     594:	006d0d13          	addi	s10,s10,6
     598:	01a487a3          	sb	s10,15(s1)
     59c:	e1843d03          	ld	s10,-488(s0)
     5a0:	006d0d13          	addi	s10,s10,6
     5a4:	01a48723          	sb	s10,14(s1)
     5a8:	e2043d03          	ld	s10,-480(s0)
     5ac:	006d0d13          	addi	s10,s10,6
     5b0:	01a486a3          	sb	s10,13(s1)
     5b4:	e2843d03          	ld	s10,-472(s0)
     5b8:	006d0d13          	addi	s10,s10,6
     5bc:	01a48623          	sb	s10,12(s1)
     5c0:	e3043d03          	ld	s10,-464(s0)
     5c4:	006d0d13          	addi	s10,s10,6
     5c8:	01a485a3          	sb	s10,11(s1)
     5cc:	e3843d03          	ld	s10,-456(s0)
     5d0:	006d0d13          	addi	s10,s10,6
     5d4:	01a48523          	sb	s10,10(s1)
     5d8:	e4043d03          	ld	s10,-448(s0)
     5dc:	006d0d13          	addi	s10,s10,6
     5e0:	01a484a3          	sb	s10,9(s1)
     5e4:	e5043d03          	ld	s10,-432(s0)
     5e8:	006d0d13          	addi	s10,s10,6
     5ec:	01a48423          	sb	s10,8(s1)
     5f0:	e6043d03          	ld	s10,-416(s0)
     5f4:	006d0d13          	addi	s10,s10,6
     5f8:	01a483a3          	sb	s10,7(s1)
     5fc:	e7043d03          	ld	s10,-400(s0)
     600:	006d0d13          	addi	s10,s10,6
     604:	01a48323          	sb	s10,6(s1)
     608:	e8043d03          	ld	s10,-384(s0)
     60c:	006d0d13          	addi	s10,s10,6
     610:	01a482a3          	sb	s10,5(s1)
     614:	e9043d03          	ld	s10,-368(s0)
     618:	006d0d13          	addi	s10,s10,6
     61c:	01a48223          	sb	s10,4(s1)
     620:	ea043d03          	ld	s10,-352(s0)
     624:	006d0d13          	addi	s10,s10,6
     628:	01a481a3          	sb	s10,3(s1)
     62c:	eb043d03          	ld	s10,-336(s0)
     630:	006d0d13          	addi	s10,s10,6
     634:	01a48123          	sb	s10,2(s1)
     638:	ec043d03          	ld	s10,-320(s0)
     63c:	006d0d13          	addi	s10,s10,6
     640:	01a480a3          	sb	s10,1(s1)
     644:	ed043d03          	ld	s10,-304(s0)
     648:	006d0d13          	addi	s10,s10,6
     64c:	01a48023          	sb	s10,0(s1)
     650:	c4043d03          	ld	s10,-960(s0)
     654:	006d0d13          	addi	s10,s10,6
     658:	000014b7          	lui	s1,0x1
     65c:	409404b3          	sub	s1,s0,s1
     660:	0204b483          	ld	s1,32(s1) # 1020 <.LBB95_4+0xa4>
     664:	009d84b3          	add	s1,s11,s1
     668:	01a48fa3          	sb	s10,31(s1)
     66c:	c5043d03          	ld	s10,-944(s0)
     670:	006d0d13          	addi	s10,s10,6
     674:	01a48f23          	sb	s10,30(s1)
     678:	c6043d03          	ld	s10,-928(s0)
     67c:	006d0d13          	addi	s10,s10,6
     680:	01a48ea3          	sb	s10,29(s1)
     684:	c7043d03          	ld	s10,-912(s0)
     688:	006d0d13          	addi	s10,s10,6
     68c:	01a48e23          	sb	s10,28(s1)
     690:	c8043d03          	ld	s10,-896(s0)
     694:	006d0d13          	addi	s10,s10,6
     698:	01a48da3          	sb	s10,27(s1)
     69c:	c9043d03          	ld	s10,-880(s0)
     6a0:	006d0d13          	addi	s10,s10,6
     6a4:	01a48d23          	sb	s10,26(s1)
     6a8:	ca043d03          	ld	s10,-864(s0)
     6ac:	006d0d13          	addi	s10,s10,6
     6b0:	01a48ca3          	sb	s10,25(s1)
     6b4:	cb043d03          	ld	s10,-848(s0)
     6b8:	006d0d13          	addi	s10,s10,6
     6bc:	01a48c23          	sb	s10,24(s1)
     6c0:	cc043d03          	ld	s10,-832(s0)
     6c4:	006d0d13          	addi	s10,s10,6
     6c8:	01a48ba3          	sb	s10,23(s1)
     6cc:	cd043d03          	ld	s10,-816(s0)
     6d0:	006d0d13          	addi	s10,s10,6
     6d4:	01a48b23          	sb	s10,22(s1)
     6d8:	ce043d03          	ld	s10,-800(s0)
     6dc:	006d0d13          	addi	s10,s10,6
     6e0:	01a48aa3          	sb	s10,21(s1)
     6e4:	ce843d03          	ld	s10,-792(s0)
     6e8:	006d0d13          	addi	s10,s10,6
     6ec:	01a48a23          	sb	s10,20(s1)
     6f0:	cf043d03          	ld	s10,-784(s0)
     6f4:	006d0d13          	addi	s10,s10,6
     6f8:	01a489a3          	sb	s10,19(s1)
     6fc:	cf843d03          	ld	s10,-776(s0)
     700:	006d0d13          	addi	s10,s10,6
     704:	01a48923          	sb	s10,18(s1)
     708:	d0043d03          	ld	s10,-768(s0)
     70c:	006d0d13          	addi	s10,s10,6
     710:	01a488a3          	sb	s10,17(s1)
     714:	d0843d03          	ld	s10,-760(s0)
     718:	006d0d13          	addi	s10,s10,6
     71c:	01a48823          	sb	s10,16(s1)
     720:	d1043d03          	ld	s10,-752(s0)
     724:	006d0d13          	addi	s10,s10,6
     728:	01a487a3          	sb	s10,15(s1)
     72c:	d1843d03          	ld	s10,-744(s0)
     730:	006d0d13          	addi	s10,s10,6
     734:	01a48723          	sb	s10,14(s1)
     738:	d2043d03          	ld	s10,-736(s0)
     73c:	006d0d13          	addi	s10,s10,6
     740:	01a486a3          	sb	s10,13(s1)
     744:	d2843d03          	ld	s10,-728(s0)
     748:	006d0d13          	addi	s10,s10,6
     74c:	01a48623          	sb	s10,12(s1)
     750:	d3043d03          	ld	s10,-720(s0)
     754:	006d0d13          	addi	s10,s10,6
     758:	01a485a3          	sb	s10,11(s1)
     75c:	d3843d03          	ld	s10,-712(s0)
     760:	006d0d13          	addi	s10,s10,6
     764:	01a48523          	sb	s10,10(s1)
     768:	d4843d03          	ld	s10,-696(s0)
     76c:	006d0d13          	addi	s10,s10,6
     770:	01a484a3          	sb	s10,9(s1)
     774:	d5843d03          	ld	s10,-680(s0)
     778:	006d0d13          	addi	s10,s10,6
     77c:	01a48423          	sb	s10,8(s1)
     780:	d6843d03          	ld	s10,-664(s0)
     784:	006d0d13          	addi	s10,s10,6
     788:	01a483a3          	sb	s10,7(s1)
     78c:	d7843d03          	ld	s10,-648(s0)
     790:	006d0d13          	addi	s10,s10,6
     794:	01a48323          	sb	s10,6(s1)
     798:	d8843d03          	ld	s10,-632(s0)
     79c:	006d0d13          	addi	s10,s10,6
     7a0:	01a482a3          	sb	s10,5(s1)
     7a4:	d9843d03          	ld	s10,-616(s0)
     7a8:	006d0d13          	addi	s10,s10,6
     7ac:	01a48223          	sb	s10,4(s1)
     7b0:	da843d03          	ld	s10,-600(s0)
     7b4:	006d0d13          	addi	s10,s10,6
     7b8:	01a481a3          	sb	s10,3(s1)
     7bc:	db843d03          	ld	s10,-584(s0)
     7c0:	006d0d13          	addi	s10,s10,6
     7c4:	01a48123          	sb	s10,2(s1)
     7c8:	dc843d03          	ld	s10,-568(s0)
     7cc:	006d0d13          	addi	s10,s10,6
     7d0:	01a480a3          	sb	s10,1(s1)
     7d4:	dd843d03          	ld	s10,-552(s0)
     7d8:	006d0d13          	addi	s10,s10,6
     7dc:	01a48023          	sb	s10,0(s1)
     7e0:	b4043d03          	ld	s10,-1216(s0)
     7e4:	006d0d13          	addi	s10,s10,6
     7e8:	000014b7          	lui	s1,0x1
     7ec:	409404b3          	sub	s1,s0,s1
     7f0:	0284b483          	ld	s1,40(s1) # 1028 <.LBB95_4+0xac>
     7f4:	009d84b3          	add	s1,s11,s1
     7f8:	01a48fa3          	sb	s10,31(s1)
     7fc:	b5043d03          	ld	s10,-1200(s0)
     800:	006d0d13          	addi	s10,s10,6
     804:	01a48f23          	sb	s10,30(s1)
     808:	b6043d03          	ld	s10,-1184(s0)
     80c:	006d0d13          	addi	s10,s10,6
     810:	01a48ea3          	sb	s10,29(s1)
     814:	b7043d03          	ld	s10,-1168(s0)
     818:	006d0d13          	addi	s10,s10,6
     81c:	01a48e23          	sb	s10,28(s1)
     820:	b8043d03          	ld	s10,-1152(s0)
     824:	006d0d13          	addi	s10,s10,6
     828:	01a48da3          	sb	s10,27(s1)
     82c:	b9043d03          	ld	s10,-1136(s0)
     830:	006d0d13          	addi	s10,s10,6
     834:	01a48d23          	sb	s10,26(s1)
     838:	ba043d03          	ld	s10,-1120(s0)
     83c:	006d0d13          	addi	s10,s10,6
     840:	01a48ca3          	sb	s10,25(s1)
     844:	bb043d03          	ld	s10,-1104(s0)
     848:	006d0d13          	addi	s10,s10,6
     84c:	01a48c23          	sb	s10,24(s1)
     850:	bc043d03          	ld	s10,-1088(s0)
     854:	006d0d13          	addi	s10,s10,6
     858:	01a48ba3          	sb	s10,23(s1)
     85c:	bd043d03          	ld	s10,-1072(s0)
     860:	006d0d13          	addi	s10,s10,6
     864:	01a48b23          	sb	s10,22(s1)
     868:	be043d03          	ld	s10,-1056(s0)
     86c:	006d0d13          	addi	s10,s10,6
     870:	01a48aa3          	sb	s10,21(s1)
     874:	be843d03          	ld	s10,-1048(s0)
     878:	006d0d13          	addi	s10,s10,6
     87c:	01a48a23          	sb	s10,20(s1)
     880:	bf043d03          	ld	s10,-1040(s0)
     884:	006d0d13          	addi	s10,s10,6
     888:	01a489a3          	sb	s10,19(s1)
     88c:	bf843d03          	ld	s10,-1032(s0)
     890:	006d0d13          	addi	s10,s10,6
     894:	01a48923          	sb	s10,18(s1)
     898:	c0043d03          	ld	s10,-1024(s0)
     89c:	006d0d13          	addi	s10,s10,6
     8a0:	01a488a3          	sb	s10,17(s1)
     8a4:	c0843d03          	ld	s10,-1016(s0)
     8a8:	006d0d13          	addi	s10,s10,6
     8ac:	01a48823          	sb	s10,16(s1)
     8b0:	c1043d03          	ld	s10,-1008(s0)
     8b4:	006d0d13          	addi	s10,s10,6
     8b8:	01a487a3          	sb	s10,15(s1)
     8bc:	c1843d03          	ld	s10,-1000(s0)
     8c0:	006d0d13          	addi	s10,s10,6
     8c4:	01a48723          	sb	s10,14(s1)
     8c8:	c2043d03          	ld	s10,-992(s0)
     8cc:	006d0d13          	addi	s10,s10,6
     8d0:	01a486a3          	sb	s10,13(s1)
     8d4:	c2843d03          	ld	s10,-984(s0)
     8d8:	006d0d13          	addi	s10,s10,6
     8dc:	01a48623          	sb	s10,12(s1)
     8e0:	c3043d03          	ld	s10,-976(s0)
     8e4:	006d0d13          	addi	s10,s10,6
     8e8:	01a485a3          	sb	s10,11(s1)
     8ec:	c3843d03          	ld	s10,-968(s0)
     8f0:	006d0d13          	addi	s10,s10,6
     8f4:	01a48523          	sb	s10,10(s1)
     8f8:	c4843d03          	ld	s10,-952(s0)
     8fc:	006d0d13          	addi	s10,s10,6
     900:	01a484a3          	sb	s10,9(s1)
     904:	c5843d03          	ld	s10,-936(s0)
     908:	006d0d13          	addi	s10,s10,6
     90c:	01a48423          	sb	s10,8(s1)
     910:	c6843d03          	ld	s10,-920(s0)
     914:	006d0d13          	addi	s10,s10,6
     918:	01a483a3          	sb	s10,7(s1)
     91c:	c7843d03          	ld	s10,-904(s0)
     920:	006d0d13          	addi	s10,s10,6
     924:	01a48323          	sb	s10,6(s1)
     928:	c8843d03          	ld	s10,-888(s0)
     92c:	006d0d13          	addi	s10,s10,6
     930:	01a482a3          	sb	s10,5(s1)
     934:	c9843d03          	ld	s10,-872(s0)
     938:	006d0d13          	addi	s10,s10,6
     93c:	01a48223          	sb	s10,4(s1)
     940:	ca843d03          	ld	s10,-856(s0)
     944:	006d0d13          	addi	s10,s10,6
     948:	01a481a3          	sb	s10,3(s1)
     94c:	cb843d03          	ld	s10,-840(s0)
     950:	006d0d13          	addi	s10,s10,6
     954:	01a48123          	sb	s10,2(s1)
     958:	cc843d03          	ld	s10,-824(s0)
     95c:	006d0d13          	addi	s10,s10,6
     960:	01a480a3          	sb	s10,1(s1)
     964:	cd843d03          	ld	s10,-808(s0)
     968:	006d0d13          	addi	s10,s10,6
     96c:	01a48023          	sb	s10,0(s1)
     970:	a4043d03          	ld	s10,-1472(s0)
     974:	006d0d13          	addi	s10,s10,6
     978:	000014b7          	lui	s1,0x1
     97c:	409404b3          	sub	s1,s0,s1
     980:	0304b483          	ld	s1,48(s1) # 1030 <.LBB95_4+0xb4>
     984:	009d84b3          	add	s1,s11,s1
     988:	01a48fa3          	sb	s10,31(s1)
     98c:	a5043d03          	ld	s10,-1456(s0)
     990:	006d0d13          	addi	s10,s10,6
     994:	01a48f23          	sb	s10,30(s1)
     998:	a6043d03          	ld	s10,-1440(s0)
     99c:	006d0d13          	addi	s10,s10,6
     9a0:	01a48ea3          	sb	s10,29(s1)
     9a4:	a7043d03          	ld	s10,-1424(s0)
     9a8:	006d0d13          	addi	s10,s10,6
     9ac:	01a48e23          	sb	s10,28(s1)
     9b0:	a8043d03          	ld	s10,-1408(s0)
     9b4:	006d0d13          	addi	s10,s10,6
     9b8:	01a48da3          	sb	s10,27(s1)
     9bc:	a9043d03          	ld	s10,-1392(s0)
     9c0:	006d0d13          	addi	s10,s10,6
     9c4:	01a48d23          	sb	s10,26(s1)
     9c8:	aa043d03          	ld	s10,-1376(s0)
     9cc:	006d0d13          	addi	s10,s10,6
     9d0:	01a48ca3          	sb	s10,25(s1)
     9d4:	ab043d03          	ld	s10,-1360(s0)
     9d8:	006d0d13          	addi	s10,s10,6
     9dc:	01a48c23          	sb	s10,24(s1)
     9e0:	ac043d03          	ld	s10,-1344(s0)
     9e4:	006d0d13          	addi	s10,s10,6
     9e8:	01a48ba3          	sb	s10,23(s1)
     9ec:	ad043d03          	ld	s10,-1328(s0)
     9f0:	006d0d13          	addi	s10,s10,6
     9f4:	01a48b23          	sb	s10,22(s1)
     9f8:	ae043d03          	ld	s10,-1312(s0)
     9fc:	006d0d13          	addi	s10,s10,6
     a00:	01a48aa3          	sb	s10,21(s1)
     a04:	ae843d03          	ld	s10,-1304(s0)
     a08:	006d0d13          	addi	s10,s10,6
     a0c:	01a48a23          	sb	s10,20(s1)
     a10:	af043d03          	ld	s10,-1296(s0)
     a14:	006d0d13          	addi	s10,s10,6
     a18:	01a489a3          	sb	s10,19(s1)
     a1c:	af843d03          	ld	s10,-1288(s0)
     a20:	006d0d13          	addi	s10,s10,6
     a24:	01a48923          	sb	s10,18(s1)
     a28:	b0043d03          	ld	s10,-1280(s0)
     a2c:	006d0d13          	addi	s10,s10,6
     a30:	01a488a3          	sb	s10,17(s1)
     a34:	b0843d03          	ld	s10,-1272(s0)
     a38:	006d0d13          	addi	s10,s10,6
     a3c:	01a48823          	sb	s10,16(s1)
     a40:	b1043d03          	ld	s10,-1264(s0)
     a44:	006d0d13          	addi	s10,s10,6
     a48:	01a487a3          	sb	s10,15(s1)
     a4c:	b1843d03          	ld	s10,-1256(s0)
     a50:	006d0d13          	addi	s10,s10,6
     a54:	01a48723          	sb	s10,14(s1)
     a58:	b2043d03          	ld	s10,-1248(s0)
     a5c:	006d0d13          	addi	s10,s10,6
     a60:	01a486a3          	sb	s10,13(s1)
     a64:	b2843d03          	ld	s10,-1240(s0)
     a68:	006d0d13          	addi	s10,s10,6
     a6c:	01a48623          	sb	s10,12(s1)
     a70:	b3043d03          	ld	s10,-1232(s0)
     a74:	006d0d13          	addi	s10,s10,6
     a78:	01a485a3          	sb	s10,11(s1)
     a7c:	b3843d03          	ld	s10,-1224(s0)
     a80:	006d0d13          	addi	s10,s10,6
     a84:	01a48523          	sb	s10,10(s1)
     a88:	b4843d03          	ld	s10,-1208(s0)
     a8c:	006d0d13          	addi	s10,s10,6
     a90:	01a484a3          	sb	s10,9(s1)
     a94:	b5843d03          	ld	s10,-1192(s0)
     a98:	006d0d13          	addi	s10,s10,6
     a9c:	01a48423          	sb	s10,8(s1)
     aa0:	b6843d03          	ld	s10,-1176(s0)
     aa4:	006d0d13          	addi	s10,s10,6
     aa8:	01a483a3          	sb	s10,7(s1)
     aac:	b7843d03          	ld	s10,-1160(s0)
     ab0:	006d0d13          	addi	s10,s10,6
     ab4:	01a48323          	sb	s10,6(s1)
     ab8:	b8843d03          	ld	s10,-1144(s0)
     abc:	006d0d13          	addi	s10,s10,6
     ac0:	01a482a3          	sb	s10,5(s1)
     ac4:	b9843d03          	ld	s10,-1128(s0)
     ac8:	006d0d13          	addi	s10,s10,6
     acc:	01a48223          	sb	s10,4(s1)
     ad0:	ba843d03          	ld	s10,-1112(s0)
     ad4:	006d0d13          	addi	s10,s10,6
     ad8:	01a481a3          	sb	s10,3(s1)
     adc:	bb843d03          	ld	s10,-1096(s0)
     ae0:	006d0d13          	addi	s10,s10,6
     ae4:	01a48123          	sb	s10,2(s1)
     ae8:	bc843d03          	ld	s10,-1080(s0)
     aec:	006d0d13          	addi	s10,s10,6
     af0:	01a480a3          	sb	s10,1(s1)
     af4:	bd843d03          	ld	s10,-1064(s0)
     af8:	006d0d13          	addi	s10,s10,6
     afc:	01a48023          	sb	s10,0(s1)
     b00:	94043d03          	ld	s10,-1728(s0)
     b04:	006d0d13          	addi	s10,s10,6
     b08:	000014b7          	lui	s1,0x1
     b0c:	409404b3          	sub	s1,s0,s1
     b10:	0384b483          	ld	s1,56(s1) # 1038 <.LBB95_4+0xbc>
     b14:	009d84b3          	add	s1,s11,s1
     b18:	01a48fa3          	sb	s10,31(s1)
     b1c:	95043d03          	ld	s10,-1712(s0)
     b20:	006d0d13          	addi	s10,s10,6
     b24:	01a48f23          	sb	s10,30(s1)
     b28:	96043d03          	ld	s10,-1696(s0)
     b2c:	006d0d13          	addi	s10,s10,6
     b30:	01a48ea3          	sb	s10,29(s1)
     b34:	97043d03          	ld	s10,-1680(s0)
     b38:	006d0d13          	addi	s10,s10,6
     b3c:	01a48e23          	sb	s10,28(s1)
     b40:	98043d03          	ld	s10,-1664(s0)
     b44:	006d0d13          	addi	s10,s10,6
     b48:	01a48da3          	sb	s10,27(s1)
     b4c:	99043d03          	ld	s10,-1648(s0)
     b50:	006d0d13          	addi	s10,s10,6
     b54:	01a48d23          	sb	s10,26(s1)
     b58:	9a043d03          	ld	s10,-1632(s0)
     b5c:	006d0d13          	addi	s10,s10,6
     b60:	01a48ca3          	sb	s10,25(s1)
     b64:	9b043d03          	ld	s10,-1616(s0)
     b68:	006d0d13          	addi	s10,s10,6
     b6c:	01a48c23          	sb	s10,24(s1)
     b70:	9c043d03          	ld	s10,-1600(s0)
     b74:	006d0d13          	addi	s10,s10,6
     b78:	01a48ba3          	sb	s10,23(s1)
     b7c:	9d043d03          	ld	s10,-1584(s0)
     b80:	006d0d13          	addi	s10,s10,6
     b84:	01a48b23          	sb	s10,22(s1)
     b88:	9e043d03          	ld	s10,-1568(s0)
     b8c:	006d0d13          	addi	s10,s10,6
     b90:	01a48aa3          	sb	s10,21(s1)
     b94:	9e843d03          	ld	s10,-1560(s0)
     b98:	006d0d13          	addi	s10,s10,6
     b9c:	01a48a23          	sb	s10,20(s1)
     ba0:	9f043d03          	ld	s10,-1552(s0)
     ba4:	006d0d13          	addi	s10,s10,6
     ba8:	01a489a3          	sb	s10,19(s1)
     bac:	9f843d03          	ld	s10,-1544(s0)
     bb0:	006d0d13          	addi	s10,s10,6
     bb4:	01a48923          	sb	s10,18(s1)
     bb8:	a0043d03          	ld	s10,-1536(s0)
     bbc:	006d0d13          	addi	s10,s10,6
     bc0:	01a488a3          	sb	s10,17(s1)
     bc4:	a0843d03          	ld	s10,-1528(s0)
     bc8:	006d0d13          	addi	s10,s10,6
     bcc:	01a48823          	sb	s10,16(s1)
     bd0:	a1043d03          	ld	s10,-1520(s0)
     bd4:	006d0d13          	addi	s10,s10,6
     bd8:	01a487a3          	sb	s10,15(s1)
     bdc:	a1843d03          	ld	s10,-1512(s0)
     be0:	006d0d13          	addi	s10,s10,6
     be4:	01a48723          	sb	s10,14(s1)
     be8:	a2043d03          	ld	s10,-1504(s0)
     bec:	006d0d13          	addi	s10,s10,6
     bf0:	01a486a3          	sb	s10,13(s1)
     bf4:	a2843d03          	ld	s10,-1496(s0)
     bf8:	006d0d13          	addi	s10,s10,6
     bfc:	01a48623          	sb	s10,12(s1)
     c00:	a3043d03          	ld	s10,-1488(s0)
     c04:	006d0d13          	addi	s10,s10,6
     c08:	01a485a3          	sb	s10,11(s1)
     c0c:	a3843d03          	ld	s10,-1480(s0)
     c10:	006d0d13          	addi	s10,s10,6
     c14:	01a48523          	sb	s10,10(s1)
     c18:	a4843d03          	ld	s10,-1464(s0)
     c1c:	006d0d13          	addi	s10,s10,6
     c20:	01a484a3          	sb	s10,9(s1)
     c24:	a5843d03          	ld	s10,-1448(s0)
     c28:	006d0d13          	addi	s10,s10,6
     c2c:	01a48423          	sb	s10,8(s1)
     c30:	a6843d03          	ld	s10,-1432(s0)
     c34:	006d0d13          	addi	s10,s10,6
     c38:	01a483a3          	sb	s10,7(s1)
     c3c:	a7843d03          	ld	s10,-1416(s0)
     c40:	006d0d13          	addi	s10,s10,6
     c44:	01a48323          	sb	s10,6(s1)
     c48:	a8843d03          	ld	s10,-1400(s0)
     c4c:	006d0d13          	addi	s10,s10,6
     c50:	01a482a3          	sb	s10,5(s1)
     c54:	a9843d03          	ld	s10,-1384(s0)
     c58:	006d0d13          	addi	s10,s10,6
     c5c:	01a48223          	sb	s10,4(s1)
     c60:	aa843d03          	ld	s10,-1368(s0)
     c64:	006d0d13          	addi	s10,s10,6
     c68:	01a481a3          	sb	s10,3(s1)
     c6c:	ab843d03          	ld	s10,-1352(s0)
     c70:	006d0d13          	addi	s10,s10,6
     c74:	01a48123          	sb	s10,2(s1)
     c78:	ac843d03          	ld	s10,-1336(s0)
     c7c:	006d0d13          	addi	s10,s10,6
     c80:	01a480a3          	sb	s10,1(s1)
     c84:	ad843d03          	ld	s10,-1320(s0)
     c88:	006d0d13          	addi	s10,s10,6
     c8c:	01a48023          	sb	s10,0(s1)
     c90:	00650493          	addi	s1,a0,6
     c94:	00001537          	lui	a0,0x1
     c98:	40a40533          	sub	a0,s0,a0
     c9c:	04053503          	ld	a0,64(a0) # 1040 <.LBB95_4+0xc4>
     ca0:	00ad8533          	add	a0,s11,a0
     ca4:	00950fa3          	sb	s1,31(a0)
     ca8:	85043483          	ld	s1,-1968(s0)
     cac:	00648493          	addi	s1,s1,6
     cb0:	00950f23          	sb	s1,30(a0)
     cb4:	86043483          	ld	s1,-1952(s0)
     cb8:	00648493          	addi	s1,s1,6
     cbc:	00950ea3          	sb	s1,29(a0)
     cc0:	87043483          	ld	s1,-1936(s0)
     cc4:	00648493          	addi	s1,s1,6
     cc8:	00950e23          	sb	s1,28(a0)
     ccc:	88043483          	ld	s1,-1920(s0)
     cd0:	00648493          	addi	s1,s1,6
     cd4:	00950da3          	sb	s1,27(a0)
     cd8:	89043483          	ld	s1,-1904(s0)
     cdc:	00648493          	addi	s1,s1,6
     ce0:	00950d23          	sb	s1,26(a0)
     ce4:	8a043483          	ld	s1,-1888(s0)
     ce8:	00648493          	addi	s1,s1,6
     cec:	00950ca3          	sb	s1,25(a0)
     cf0:	8b043483          	ld	s1,-1872(s0)
     cf4:	00648493          	addi	s1,s1,6
     cf8:	00950c23          	sb	s1,24(a0)
     cfc:	8c043483          	ld	s1,-1856(s0)
     d00:	00648493          	addi	s1,s1,6
     d04:	00950ba3          	sb	s1,23(a0)
     d08:	8d043483          	ld	s1,-1840(s0)
     d0c:	00648493          	addi	s1,s1,6
     d10:	00950b23          	sb	s1,22(a0)
     d14:	8e043483          	ld	s1,-1824(s0)
     d18:	00648493          	addi	s1,s1,6
     d1c:	00950aa3          	sb	s1,21(a0)
     d20:	8e843483          	ld	s1,-1816(s0)
     d24:	00648493          	addi	s1,s1,6
     d28:	00950a23          	sb	s1,20(a0)
     d2c:	8f043483          	ld	s1,-1808(s0)
     d30:	00648493          	addi	s1,s1,6
     d34:	009509a3          	sb	s1,19(a0)
     d38:	8f843483          	ld	s1,-1800(s0)
     d3c:	00648493          	addi	s1,s1,6
     d40:	00950923          	sb	s1,18(a0)
     d44:	90043483          	ld	s1,-1792(s0)
     d48:	00648493          	addi	s1,s1,6
     d4c:	009508a3          	sb	s1,17(a0)
     d50:	90843483          	ld	s1,-1784(s0)
     d54:	00648493          	addi	s1,s1,6
     d58:	00950823          	sb	s1,16(a0)
     d5c:	91043483          	ld	s1,-1776(s0)
     d60:	00648493          	addi	s1,s1,6
     d64:	009507a3          	sb	s1,15(a0)
     d68:	91843483          	ld	s1,-1768(s0)
     d6c:	00648493          	addi	s1,s1,6
     d70:	00950723          	sb	s1,14(a0)
     d74:	92043483          	ld	s1,-1760(s0)
     d78:	00648493          	addi	s1,s1,6
     d7c:	009506a3          	sb	s1,13(a0)
     d80:	92843483          	ld	s1,-1752(s0)
     d84:	00648493          	addi	s1,s1,6
     d88:	00950623          	sb	s1,12(a0)
     d8c:	93043483          	ld	s1,-1744(s0)
     d90:	00648493          	addi	s1,s1,6
     d94:	009505a3          	sb	s1,11(a0)
     d98:	93843483          	ld	s1,-1736(s0)
     d9c:	00648493          	addi	s1,s1,6
     da0:	00950523          	sb	s1,10(a0)
     da4:	94843483          	ld	s1,-1720(s0)
     da8:	00648493          	addi	s1,s1,6
     dac:	009504a3          	sb	s1,9(a0)
     db0:	95843483          	ld	s1,-1704(s0)
     db4:	00648493          	addi	s1,s1,6
     db8:	00950423          	sb	s1,8(a0)
     dbc:	96843483          	ld	s1,-1688(s0)
     dc0:	00648493          	addi	s1,s1,6
     dc4:	009503a3          	sb	s1,7(a0)
     dc8:	97843483          	ld	s1,-1672(s0)
     dcc:	00648493          	addi	s1,s1,6
     dd0:	00950323          	sb	s1,6(a0)
     dd4:	98843483          	ld	s1,-1656(s0)
     dd8:	00648493          	addi	s1,s1,6
     ddc:	009502a3          	sb	s1,5(a0)
     de0:	99843483          	ld	s1,-1640(s0)
     de4:	00648493          	addi	s1,s1,6
     de8:	00950223          	sb	s1,4(a0)
     dec:	9a843483          	ld	s1,-1624(s0)
     df0:	00648493          	addi	s1,s1,6
     df4:	009501a3          	sb	s1,3(a0)
     df8:	9b843483          	ld	s1,-1608(s0)
     dfc:	00648493          	addi	s1,s1,6
     e00:	00950123          	sb	s1,2(a0)
     e04:	9c843483          	ld	s1,-1592(s0)
     e08:	00648493          	addi	s1,s1,6
     e0c:	009500a3          	sb	s1,1(a0)
     e10:	9d843483          	ld	s1,-1576(s0)
     e14:	00648493          	addi	s1,s1,6
     e18:	00950023          	sb	s1,0(a0)
     e1c:	006e8e93          	addi	t4,t4,6
     e20:	00001537          	lui	a0,0x1
     e24:	40a40533          	sub	a0,s0,a0
     e28:	04853503          	ld	a0,72(a0) # 1048 <.LBB95_4+0xcc>
     e2c:	00ad8533          	add	a0,s11,a0
     e30:	01d50fa3          	sb	t4,31(a0)
     e34:	006e0e13          	addi	t3,t3,6
     e38:	01c50f23          	sb	t3,30(a0)
     e3c:	00608093          	addi	ra,ra,6
     e40:	00150ea3          	sb	ra,29(a0)
     e44:	006c0c13          	addi	s8,s8,6
     e48:	01850e23          	sb	s8,28(a0)
     e4c:	00638393          	addi	t2,t2,6
     e50:	00750da3          	sb	t2,27(a0)
     e54:	00630313          	addi	t1,t1,6
     e58:	00650d23          	sb	t1,26(a0)
     e5c:	00628293          	addi	t0,t0,6
     e60:	00550ca3          	sb	t0,25(a0)
     e64:	00698993          	addi	s3,s3,6
     e68:	01350c23          	sb	s3,24(a0)
     e6c:	006b8b93          	addi	s7,s7,6
     e70:	01750ba3          	sb	s7,23(a0)
     e74:	00688893          	addi	a7,a7,6
     e78:	01150b23          	sb	a7,22(a0)
     e7c:	00690913          	addi	s2,s2,6
     e80:	01250aa3          	sb	s2,21(a0)
     e84:	00680813          	addi	a6,a6,6
     e88:	01050a23          	sb	a6,20(a0)
     e8c:	006f8f93          	addi	t6,t6,6
     e90:	01f509a3          	sb	t6,19(a0)
     e94:	006a8a93          	addi	s5,s5,6
     e98:	01550923          	sb	s5,18(a0)
     e9c:	006b0b13          	addi	s6,s6,6
     ea0:	016508a3          	sb	s6,17(a0)
     ea4:	00678793          	addi	a5,a5,6
     ea8:	00f50823          	sb	a5,16(a0)
     eac:	006a0a13          	addi	s4,s4,6
     eb0:	014507a3          	sb	s4,15(a0)
     eb4:	00670713          	addi	a4,a4,6
     eb8:	00e50723          	sb	a4,14(a0)
     ebc:	006f0f13          	addi	t5,t5,6
     ec0:	01e506a3          	sb	t5,13(a0)
     ec4:	00668693          	addi	a3,a3,6
     ec8:	00d50623          	sb	a3,12(a0)
     ecc:	00660613          	addi	a2,a2,6
     ed0:	00c505a3          	sb	a2,11(a0)
     ed4:	00658593          	addi	a1,a1,6
     ed8:	00b50523          	sb	a1,10(a0)
     edc:	84843c83          	ld	s9,-1976(s0)
     ee0:	006c8c93          	addi	s9,s9,6
     ee4:	019504a3          	sb	s9,9(a0)
     ee8:	85843583          	ld	a1,-1960(s0)
     eec:	00658593          	addi	a1,a1,6
     ef0:	00b50423          	sb	a1,8(a0)
     ef4:	86843583          	ld	a1,-1944(s0)
     ef8:	00658593          	addi	a1,a1,6
     efc:	00b503a3          	sb	a1,7(a0)
     f00:	87843583          	ld	a1,-1928(s0)
     f04:	00658593          	addi	a1,a1,6
     f08:	00b50323          	sb	a1,6(a0)
     f0c:	88843583          	ld	a1,-1912(s0)
     f10:	00658593          	addi	a1,a1,6
     f14:	00b502a3          	sb	a1,5(a0)
     f18:	89843583          	ld	a1,-1896(s0)
     f1c:	00658593          	addi	a1,a1,6
     f20:	00b50223          	sb	a1,4(a0)
     f24:	8a843583          	ld	a1,-1880(s0)
     f28:	00658593          	addi	a1,a1,6
     f2c:	00b501a3          	sb	a1,3(a0)
     f30:	8b843583          	ld	a1,-1864(s0)
     f34:	00658593          	addi	a1,a1,6
     f38:	00b50123          	sb	a1,2(a0)
     f3c:	8c843583          	ld	a1,-1848(s0)
     f40:	00658593          	addi	a1,a1,6
     f44:	00b500a3          	sb	a1,1(a0)
     f48:	8d843583          	ld	a1,-1832(s0)
     f4c:	00658593          	addi	a1,a1,6
     f50:	00b50023          	sb	a1,0(a0)
     f54:	00001537          	lui	a0,0x1
     f58:	40a40533          	sub	a0,s0,a0
     f5c:	63053603          	ld	a2,1584(a0) # 1630 <.LBB95_5+0xd0>
     f60:	02060593          	addi	a1,a2,32
     f64:	00001537          	lui	a0,0x1
     f68:	40a40533          	sub	a0,s0,a0
     f6c:	05053e03          	ld	t3,80(a0) # 1050 <.LBB95_4+0xd4>
     f70:	020e0e13          	addi	t3,t3,32
     f74:	08000513          	li	a0,128
     f78:	a4a67663          	bgeu	a2,a0,1c4 <.LBB95_1>

0000000000000f7c <.LBB95_4>:
     f7c:	00001537          	lui	a0,0x1
     f80:	40a40533          	sub	a0,s0,a0
     f84:	62b53823          	sd	a1,1584(a0) # 1630 <.LBB95_5+0xd0>
     f88:	00002537          	lui	a0,0x2
     f8c:	40a40533          	sub	a0,s0,a0
     f90:	fe853303          	ld	t1,-24(a0) # 1fe8 <.LBB95_5+0xa88>
     f94:	00002537          	lui	a0,0x2
     f98:	40a40533          	sub	a0,s0,a0
     f9c:	05053503          	ld	a0,80(a0) # 2050 <.LBB95_5+0xaf0>
     fa0:	e8a43423          	sd	a0,-376(s0)
     fa4:	00002537          	lui	a0,0x2
     fa8:	40a40533          	sub	a0,s0,a0
     fac:	05853503          	ld	a0,88(a0) # 2058 <.LBB95_5+0xaf8>
     fb0:	e8a43023          	sd	a0,-384(s0)
     fb4:	00002537          	lui	a0,0x2
     fb8:	40a40533          	sub	a0,s0,a0
     fbc:	06053503          	ld	a0,96(a0) # 2060 <.LBB95_5+0xb00>
     fc0:	f6a43023          	sd	a0,-160(s0)
     fc4:	00002537          	lui	a0,0x2
     fc8:	40a40533          	sub	a0,s0,a0
     fcc:	06853e83          	ld	t4,104(a0) # 2068 <.LBB95_5+0xb08>
     fd0:	00001537          	lui	a0,0x1
     fd4:	40a40533          	sub	a0,s0,a0
     fd8:	05c53823          	sd	t3,80(a0) # 1050 <.LBB95_4+0xd4>
     fdc:	000e0493          	mv	s1,t3
     fe0:	00001537          	lui	a0,0x1
     fe4:	40a40533          	sub	a0,s0,a0
     fe8:	76053023          	sd	zero,1888(a0) # 1760 <.LBB95_5+0x200>
     fec:	00001537          	lui	a0,0x1
     ff0:	40a40533          	sub	a0,s0,a0
     ff4:	76053423          	sd	zero,1896(a0) # 1768 <.LBB95_5+0x208>
     ff8:	00000d13          	li	s10,0
     ffc:	00000c93          	li	s9,0
    1000:	00001537          	lui	a0,0x1
    1004:	40a40533          	sub	a0,s0,a0
    1008:	74053c23          	sd	zero,1880(a0) # 1758 <.LBB95_5+0x1f8>
    100c:	00001537          	lui	a0,0x1
    1010:	40a40533          	sub	a0,s0,a0
    1014:	74053823          	sd	zero,1872(a0) # 1750 <.LBB95_5+0x1f0>
    1018:	00001537          	lui	a0,0x1
    101c:	40a40533          	sub	a0,s0,a0
    1020:	74053423          	sd	zero,1864(a0) # 1748 <.LBB95_5+0x1e8>
    1024:	00001537          	lui	a0,0x1
    1028:	40a40533          	sub	a0,s0,a0
    102c:	74053023          	sd	zero,1856(a0) # 1740 <.LBB95_5+0x1e0>
    1030:	00001537          	lui	a0,0x1
    1034:	40a40533          	sub	a0,s0,a0
    1038:	72053c23          	sd	zero,1848(a0) # 1738 <.LBB95_5+0x1d8>
    103c:	00001537          	lui	a0,0x1
    1040:	40a40533          	sub	a0,s0,a0
    1044:	72053823          	sd	zero,1840(a0) # 1730 <.LBB95_5+0x1d0>
    1048:	00001537          	lui	a0,0x1
    104c:	40a40533          	sub	a0,s0,a0
    1050:	72053423          	sd	zero,1832(a0) # 1728 <.LBB95_5+0x1c8>
    1054:	00001537          	lui	a0,0x1
    1058:	40a40533          	sub	a0,s0,a0
    105c:	72053023          	sd	zero,1824(a0) # 1720 <.LBB95_5+0x1c0>
    1060:	00001537          	lui	a0,0x1
    1064:	40a40533          	sub	a0,s0,a0
    1068:	70053c23          	sd	zero,1816(a0) # 1718 <.LBB95_5+0x1b8>
    106c:	00001537          	lui	a0,0x1
    1070:	40a40533          	sub	a0,s0,a0
    1074:	70053823          	sd	zero,1808(a0) # 1710 <.LBB95_5+0x1b0>
    1078:	00001537          	lui	a0,0x1
    107c:	40a40533          	sub	a0,s0,a0
    1080:	70053423          	sd	zero,1800(a0) # 1708 <.LBB95_5+0x1a8>
    1084:	00001537          	lui	a0,0x1
    1088:	40a40533          	sub	a0,s0,a0
    108c:	70053023          	sd	zero,1792(a0) # 1700 <.LBB95_5+0x1a0>
    1090:	00001537          	lui	a0,0x1
    1094:	40a40533          	sub	a0,s0,a0
    1098:	6e053c23          	sd	zero,1784(a0) # 16f8 <.LBB95_5+0x198>
    109c:	00001537          	lui	a0,0x1
    10a0:	40a40533          	sub	a0,s0,a0
    10a4:	6e053823          	sd	zero,1776(a0) # 16f0 <.LBB95_5+0x190>
    10a8:	00001537          	lui	a0,0x1
    10ac:	40a40533          	sub	a0,s0,a0
    10b0:	6e053423          	sd	zero,1768(a0) # 16e8 <.LBB95_5+0x188>
    10b4:	00001537          	lui	a0,0x1
    10b8:	40a40533          	sub	a0,s0,a0
    10bc:	6e053023          	sd	zero,1760(a0) # 16e0 <.LBB95_5+0x180>
    10c0:	00001537          	lui	a0,0x1
    10c4:	40a40533          	sub	a0,s0,a0
    10c8:	6c053c23          	sd	zero,1752(a0) # 16d8 <.LBB95_5+0x178>
    10cc:	00001537          	lui	a0,0x1
    10d0:	40a40533          	sub	a0,s0,a0
    10d4:	6c053823          	sd	zero,1744(a0) # 16d0 <.LBB95_5+0x170>
    10d8:	00001537          	lui	a0,0x1
    10dc:	40a40533          	sub	a0,s0,a0
    10e0:	68053c23          	sd	zero,1688(a0) # 1698 <.LBB95_5+0x138>
    10e4:	00001537          	lui	a0,0x1
    10e8:	40a40533          	sub	a0,s0,a0
    10ec:	68053823          	sd	zero,1680(a0) # 1690 <.LBB95_5+0x130>
    10f0:	00001537          	lui	a0,0x1
    10f4:	40a40533          	sub	a0,s0,a0
    10f8:	6a053423          	sd	zero,1704(a0) # 16a8 <.LBB95_5+0x148>
    10fc:	00001537          	lui	a0,0x1
    1100:	40a40533          	sub	a0,s0,a0
    1104:	6c053423          	sd	zero,1736(a0) # 16c8 <.LBB95_5+0x168>
    1108:	00001537          	lui	a0,0x1
    110c:	40a40533          	sub	a0,s0,a0
    1110:	6c053023          	sd	zero,1728(a0) # 16c0 <.LBB95_5+0x160>
    1114:	00001537          	lui	a0,0x1
    1118:	40a40533          	sub	a0,s0,a0
    111c:	6a053c23          	sd	zero,1720(a0) # 16b8 <.LBB95_5+0x158>
    1120:	00001537          	lui	a0,0x1
    1124:	40a40533          	sub	a0,s0,a0
    1128:	6a053823          	sd	zero,1712(a0) # 16b0 <.LBB95_5+0x150>
    112c:	00001537          	lui	a0,0x1
    1130:	40a40533          	sub	a0,s0,a0
    1134:	68053423          	sd	zero,1672(a0) # 1688 <.LBB95_5+0x128>
    1138:	00001537          	lui	a0,0x1
    113c:	40a40533          	sub	a0,s0,a0
    1140:	68053023          	sd	zero,1664(a0) # 1680 <.LBB95_5+0x120>
    1144:	00001537          	lui	a0,0x1
    1148:	40a40533          	sub	a0,s0,a0
    114c:	6a053023          	sd	zero,1696(a0) # 16a0 <.LBB95_5+0x140>
    1150:	00001537          	lui	a0,0x1
    1154:	40a40533          	sub	a0,s0,a0
    1158:	76053823          	sd	zero,1904(a0) # 1770 <.LBB95_5+0x210>
    115c:	00001537          	lui	a0,0x1
    1160:	40a40533          	sub	a0,s0,a0
    1164:	76053c23          	sd	zero,1912(a0) # 1778 <.LBB95_5+0x218>
    1168:	00001537          	lui	a0,0x1
    116c:	40a40533          	sub	a0,s0,a0
    1170:	78053023          	sd	zero,1920(a0) # 1780 <.LBB95_5+0x220>
    1174:	00001537          	lui	a0,0x1
    1178:	40a40533          	sub	a0,s0,a0
    117c:	78053423          	sd	zero,1928(a0) # 1788 <.LBB95_5+0x228>
    1180:	00001537          	lui	a0,0x1
    1184:	40a40533          	sub	a0,s0,a0
    1188:	78053823          	sd	zero,1936(a0) # 1790 <.LBB95_5+0x230>
    118c:	00001537          	lui	a0,0x1
    1190:	40a40533          	sub	a0,s0,a0
    1194:	78053c23          	sd	zero,1944(a0) # 1798 <.LBB95_5+0x238>
    1198:	00001537          	lui	a0,0x1
    119c:	40a40533          	sub	a0,s0,a0
    11a0:	7a053023          	sd	zero,1952(a0) # 17a0 <.LBB95_5+0x240>
    11a4:	00001537          	lui	a0,0x1
    11a8:	40a40533          	sub	a0,s0,a0
    11ac:	7a053423          	sd	zero,1960(a0) # 17a8 <.LBB95_5+0x248>
    11b0:	00001537          	lui	a0,0x1
    11b4:	40a40533          	sub	a0,s0,a0
    11b8:	7a053823          	sd	zero,1968(a0) # 17b0 <.LBB95_5+0x250>
    11bc:	00001537          	lui	a0,0x1
    11c0:	40a40533          	sub	a0,s0,a0
    11c4:	7a053c23          	sd	zero,1976(a0) # 17b8 <.LBB95_5+0x258>
    11c8:	00001537          	lui	a0,0x1
    11cc:	40a40533          	sub	a0,s0,a0
    11d0:	7c053023          	sd	zero,1984(a0) # 17c0 <.LBB95_5+0x260>
    11d4:	00001537          	lui	a0,0x1
    11d8:	40a40533          	sub	a0,s0,a0
    11dc:	7c053423          	sd	zero,1992(a0) # 17c8 <.LBB95_5+0x268>
    11e0:	00001537          	lui	a0,0x1
    11e4:	40a40533          	sub	a0,s0,a0
    11e8:	7c053823          	sd	zero,2000(a0) # 17d0 <.LBB95_5+0x270>
    11ec:	00001537          	lui	a0,0x1
    11f0:	40a40533          	sub	a0,s0,a0
    11f4:	7c053c23          	sd	zero,2008(a0) # 17d8 <.LBB95_5+0x278>
    11f8:	00001537          	lui	a0,0x1
    11fc:	40a40533          	sub	a0,s0,a0
    1200:	7e053023          	sd	zero,2016(a0) # 17e0 <.LBB95_5+0x280>
    1204:	00001537          	lui	a0,0x1
    1208:	40a40533          	sub	a0,s0,a0
    120c:	7e053423          	sd	zero,2024(a0) # 17e8 <.LBB95_5+0x288>
    1210:	00001537          	lui	a0,0x1
    1214:	40a40533          	sub	a0,s0,a0
    1218:	7e053823          	sd	zero,2032(a0) # 17f0 <.LBB95_5+0x290>
    121c:	00001537          	lui	a0,0x1
    1220:	40a40533          	sub	a0,s0,a0
    1224:	7e053c23          	sd	zero,2040(a0) # 17f8 <.LBB95_5+0x298>
    1228:	80043023          	sd	zero,-2048(s0)
    122c:	80043423          	sd	zero,-2040(s0)
    1230:	80043823          	sd	zero,-2032(s0)
    1234:	80043c23          	sd	zero,-2024(s0)
    1238:	82043023          	sd	zero,-2016(s0)
    123c:	82043423          	sd	zero,-2008(s0)
    1240:	82043823          	sd	zero,-2000(s0)
    1244:	82043c23          	sd	zero,-1992(s0)
    1248:	84043023          	sd	zero,-1984(s0)
    124c:	84043423          	sd	zero,-1976(s0)
    1250:	84043823          	sd	zero,-1968(s0)
    1254:	84043c23          	sd	zero,-1960(s0)
    1258:	86043023          	sd	zero,-1952(s0)
    125c:	86043423          	sd	zero,-1944(s0)
    1260:	86043823          	sd	zero,-1936(s0)
    1264:	86043c23          	sd	zero,-1928(s0)
    1268:	88043023          	sd	zero,-1920(s0)
    126c:	88043423          	sd	zero,-1912(s0)
    1270:	88043823          	sd	zero,-1904(s0)
    1274:	88043c23          	sd	zero,-1896(s0)
    1278:	8a043023          	sd	zero,-1888(s0)
    127c:	8a043423          	sd	zero,-1880(s0)
    1280:	8a043823          	sd	zero,-1872(s0)
    1284:	8a043c23          	sd	zero,-1864(s0)
    1288:	8c043023          	sd	zero,-1856(s0)
    128c:	8c043423          	sd	zero,-1848(s0)
    1290:	8c043823          	sd	zero,-1840(s0)
    1294:	8c043c23          	sd	zero,-1832(s0)
    1298:	8e043023          	sd	zero,-1824(s0)
    129c:	8e043423          	sd	zero,-1816(s0)
    12a0:	8e043823          	sd	zero,-1808(s0)
    12a4:	8e043c23          	sd	zero,-1800(s0)
    12a8:	90043023          	sd	zero,-1792(s0)
    12ac:	90043423          	sd	zero,-1784(s0)
    12b0:	90043823          	sd	zero,-1776(s0)
    12b4:	90043c23          	sd	zero,-1768(s0)
    12b8:	92043023          	sd	zero,-1760(s0)
    12bc:	92043423          	sd	zero,-1752(s0)
    12c0:	92043823          	sd	zero,-1744(s0)
    12c4:	92043c23          	sd	zero,-1736(s0)
    12c8:	94043023          	sd	zero,-1728(s0)
    12cc:	94043423          	sd	zero,-1720(s0)
    12d0:	94043823          	sd	zero,-1712(s0)
    12d4:	94043c23          	sd	zero,-1704(s0)
    12d8:	96043023          	sd	zero,-1696(s0)
    12dc:	96043423          	sd	zero,-1688(s0)
    12e0:	96043823          	sd	zero,-1680(s0)
    12e4:	96043c23          	sd	zero,-1672(s0)
    12e8:	98043023          	sd	zero,-1664(s0)
    12ec:	98043423          	sd	zero,-1656(s0)
    12f0:	98043823          	sd	zero,-1648(s0)
    12f4:	98043c23          	sd	zero,-1640(s0)
    12f8:	9a043023          	sd	zero,-1632(s0)
    12fc:	9a043423          	sd	zero,-1624(s0)
    1300:	9a043823          	sd	zero,-1616(s0)
    1304:	9a043c23          	sd	zero,-1608(s0)
    1308:	9c043023          	sd	zero,-1600(s0)
    130c:	9c043423          	sd	zero,-1592(s0)
    1310:	9c043823          	sd	zero,-1584(s0)
    1314:	9c043c23          	sd	zero,-1576(s0)
    1318:	9e043023          	sd	zero,-1568(s0)
    131c:	9e043423          	sd	zero,-1560(s0)
    1320:	9e043823          	sd	zero,-1552(s0)
    1324:	9e043c23          	sd	zero,-1544(s0)
    1328:	a0043023          	sd	zero,-1536(s0)
    132c:	a0043423          	sd	zero,-1528(s0)
    1330:	a0043823          	sd	zero,-1520(s0)
    1334:	a0043c23          	sd	zero,-1512(s0)
    1338:	a2043023          	sd	zero,-1504(s0)
    133c:	a2043423          	sd	zero,-1496(s0)
    1340:	a2043823          	sd	zero,-1488(s0)
    1344:	a2043c23          	sd	zero,-1480(s0)
    1348:	a4043023          	sd	zero,-1472(s0)
    134c:	a4043423          	sd	zero,-1464(s0)
    1350:	a4043823          	sd	zero,-1456(s0)
    1354:	a4043c23          	sd	zero,-1448(s0)
    1358:	a6043023          	sd	zero,-1440(s0)
    135c:	a6043423          	sd	zero,-1432(s0)
    1360:	a6043823          	sd	zero,-1424(s0)
    1364:	a6043c23          	sd	zero,-1416(s0)
    1368:	a8043023          	sd	zero,-1408(s0)
    136c:	a8043423          	sd	zero,-1400(s0)
    1370:	a8043823          	sd	zero,-1392(s0)
    1374:	a8043c23          	sd	zero,-1384(s0)
    1378:	aa043023          	sd	zero,-1376(s0)
    137c:	aa043423          	sd	zero,-1368(s0)
    1380:	aa043823          	sd	zero,-1360(s0)
    1384:	aa043c23          	sd	zero,-1352(s0)
    1388:	ac043023          	sd	zero,-1344(s0)
    138c:	ac043423          	sd	zero,-1336(s0)
    1390:	ac043823          	sd	zero,-1328(s0)
    1394:	ac043c23          	sd	zero,-1320(s0)
    1398:	ae043023          	sd	zero,-1312(s0)
    139c:	ae043423          	sd	zero,-1304(s0)
    13a0:	ae043823          	sd	zero,-1296(s0)
    13a4:	ae043c23          	sd	zero,-1288(s0)
    13a8:	b0043023          	sd	zero,-1280(s0)
    13ac:	b0043423          	sd	zero,-1272(s0)
    13b0:	b0043823          	sd	zero,-1264(s0)
    13b4:	b0043c23          	sd	zero,-1256(s0)
    13b8:	b2043023          	sd	zero,-1248(s0)
    13bc:	b2043423          	sd	zero,-1240(s0)
    13c0:	b2043823          	sd	zero,-1232(s0)
    13c4:	b2043c23          	sd	zero,-1224(s0)
    13c8:	b4043023          	sd	zero,-1216(s0)
    13cc:	b4043423          	sd	zero,-1208(s0)
    13d0:	b4043823          	sd	zero,-1200(s0)
    13d4:	b4043c23          	sd	zero,-1192(s0)
    13d8:	b6043023          	sd	zero,-1184(s0)
    13dc:	b6043423          	sd	zero,-1176(s0)
    13e0:	b6043823          	sd	zero,-1168(s0)
    13e4:	b6043c23          	sd	zero,-1160(s0)
    13e8:	b8043023          	sd	zero,-1152(s0)
    13ec:	b8043423          	sd	zero,-1144(s0)
    13f0:	b8043823          	sd	zero,-1136(s0)
    13f4:	b8043c23          	sd	zero,-1128(s0)
    13f8:	ba043023          	sd	zero,-1120(s0)
    13fc:	ba043423          	sd	zero,-1112(s0)
    1400:	ba043823          	sd	zero,-1104(s0)
    1404:	ba043c23          	sd	zero,-1096(s0)
    1408:	bc043023          	sd	zero,-1088(s0)
    140c:	bc043423          	sd	zero,-1080(s0)
    1410:	bc043823          	sd	zero,-1072(s0)
    1414:	bc043c23          	sd	zero,-1064(s0)
    1418:	be043023          	sd	zero,-1056(s0)
    141c:	be043423          	sd	zero,-1048(s0)
    1420:	be043823          	sd	zero,-1040(s0)
    1424:	be043c23          	sd	zero,-1032(s0)
    1428:	c0043023          	sd	zero,-1024(s0)
    142c:	c0043423          	sd	zero,-1016(s0)
    1430:	c0043823          	sd	zero,-1008(s0)
    1434:	c0043c23          	sd	zero,-1000(s0)
    1438:	c2043023          	sd	zero,-992(s0)
    143c:	c2043423          	sd	zero,-984(s0)
    1440:	c2043823          	sd	zero,-976(s0)
    1444:	c2043c23          	sd	zero,-968(s0)
    1448:	c4043023          	sd	zero,-960(s0)
    144c:	c4043423          	sd	zero,-952(s0)
    1450:	c4043823          	sd	zero,-944(s0)
    1454:	c4043c23          	sd	zero,-936(s0)
    1458:	c6043023          	sd	zero,-928(s0)
    145c:	c6043423          	sd	zero,-920(s0)
    1460:	c6043823          	sd	zero,-912(s0)
    1464:	c6043c23          	sd	zero,-904(s0)
    1468:	c8043023          	sd	zero,-896(s0)
    146c:	c8043423          	sd	zero,-888(s0)
    1470:	c8043823          	sd	zero,-880(s0)
    1474:	c8043c23          	sd	zero,-872(s0)
    1478:	ca043023          	sd	zero,-864(s0)
    147c:	ca043423          	sd	zero,-856(s0)
    1480:	ca043823          	sd	zero,-848(s0)
    1484:	ca043c23          	sd	zero,-840(s0)
    1488:	cc043023          	sd	zero,-832(s0)
    148c:	cc043423          	sd	zero,-824(s0)
    1490:	cc043823          	sd	zero,-816(s0)
    1494:	cc043c23          	sd	zero,-808(s0)
    1498:	ce043023          	sd	zero,-800(s0)
    149c:	ce043423          	sd	zero,-792(s0)
    14a0:	ce043823          	sd	zero,-784(s0)
    14a4:	ce043c23          	sd	zero,-776(s0)
    14a8:	d0043023          	sd	zero,-768(s0)
    14ac:	d0043423          	sd	zero,-760(s0)
    14b0:	d0043823          	sd	zero,-752(s0)
    14b4:	d0043c23          	sd	zero,-744(s0)
    14b8:	d2043023          	sd	zero,-736(s0)
    14bc:	d2043423          	sd	zero,-728(s0)
    14c0:	d2043823          	sd	zero,-720(s0)
    14c4:	d2043c23          	sd	zero,-712(s0)
    14c8:	d4043023          	sd	zero,-704(s0)
    14cc:	d4043423          	sd	zero,-696(s0)
    14d0:	d4043823          	sd	zero,-688(s0)
    14d4:	d4043c23          	sd	zero,-680(s0)
    14d8:	d6043023          	sd	zero,-672(s0)
    14dc:	d6043423          	sd	zero,-664(s0)
    14e0:	d6043823          	sd	zero,-656(s0)
    14e4:	d6043c23          	sd	zero,-648(s0)
    14e8:	d8043023          	sd	zero,-640(s0)
    14ec:	d8043423          	sd	zero,-632(s0)
    14f0:	d8043823          	sd	zero,-624(s0)
    14f4:	d8043c23          	sd	zero,-616(s0)
    14f8:	da043023          	sd	zero,-608(s0)
    14fc:	da043423          	sd	zero,-600(s0)
    1500:	00000d93          	li	s11,0
    1504:	00000093          	li	ra,0
    1508:	da043c23          	sd	zero,-584(s0)
    150c:	dc043023          	sd	zero,-576(s0)
    1510:	00000b93          	li	s7,0
    1514:	00000b13          	li	s6,0
    1518:	00000a93          	li	s5,0
    151c:	00000a13          	li	s4,0
    1520:	00000993          	li	s3,0
    1524:	00000913          	li	s2,0
    1528:	00000f93          	li	t6,0
    152c:	00000693          	li	a3,0
    1530:	00000613          	li	a2,0
    1534:	00000f13          	li	t5,0
    1538:	00000593          	li	a1,0
    153c:	00000e13          	li	t3,0
    1540:	00000513          	li	a0,0
    1544:	00000393          	li	t2,0
    1548:	e0043c23          	sd	zero,-488(s0)
    154c:	00000293          	li	t0,0
    1550:	00000893          	li	a7,0
    1554:	00000813          	li	a6,0
    1558:	00000793          	li	a5,0
    155c:	00000713          	li	a4,0

0000000000001560 <.LBB95_5>:
    1560:	efb43c23          	sd	s11,-264(s0)
    1564:	f8943423          	sd	s1,-120(s0)
    1568:	efd43823          	sd	t4,-272(s0)
    156c:	00001c37          	lui	s8,0x1
    1570:	41840c33          	sub	s8,s0,s8
    1574:	666c3423          	sd	t1,1640(s8) # 1668 <.LBB95_5+0x108>
    1578:	da143823          	sd	ra,-592(s0)
    157c:	dd743423          	sd	s7,-568(s0)
    1580:	dd643823          	sd	s6,-560(s0)
    1584:	dd543c23          	sd	s5,-552(s0)
    1588:	df443023          	sd	s4,-544(s0)
    158c:	df343423          	sd	s3,-536(s0)
    1590:	df243823          	sd	s2,-528(s0)
    1594:	dff43c23          	sd	t6,-520(s0)
    1598:	f0d43023          	sd	a3,-256(s0)
    159c:	f0c43423          	sd	a2,-248(s0)
    15a0:	e1e43023          	sd	t5,-512(s0)
    15a4:	f0b43823          	sd	a1,-240(s0)
    15a8:	e1c43423          	sd	t3,-504(s0)
    15ac:	f0a43c23          	sd	a0,-232(s0)
    15b0:	e0743823          	sd	t2,-496(s0)
    15b4:	e2543023          	sd	t0,-480(s0)
    15b8:	e3143423          	sd	a7,-472(s0)
    15bc:	e3043823          	sd	a6,-464(s0)
    15c0:	e2f43c23          	sd	a5,-456(s0)
    15c4:	e4e43023          	sd	a4,-448(s0)
    15c8:	000e8503          	lb	a0,0(t4)
    15cc:	00248603          	lb	a2,2(s1)
    15d0:	eac43823          	sd	a2,-336(s0)
    15d4:	00148683          	lb	a3,1(s1)
    15d8:	f6d43823          	sd	a3,-144(s0)
    15dc:	00048703          	lb	a4,0(s1)
    15e0:	00348783          	lb	a5,3(s1)
    15e4:	00448803          	lb	a6,4(s1)
    15e8:	f7043423          	sd	a6,-152(s0)
    15ec:	00548b03          	lb	s6,5(s1)
    15f0:	f7643c23          	sd	s6,-136(s0)
    15f4:	00648b83          	lb	s7,6(s1)
    15f8:	00748883          	lb	a7,7(s1)
    15fc:	ef143023          	sd	a7,-288(s0)
    1600:	00848f83          	lb	t6,8(s1)
    1604:	00948283          	lb	t0,9(s1)
    1608:	000015b7          	lui	a1,0x1
    160c:	40b405b3          	sub	a1,s0,a1
    1610:	6655b023          	sd	t0,1632(a1) # 1660 <.LBB95_5+0x100>
    1614:	00a48303          	lb	t1,10(s1)
    1618:	f2643423          	sd	t1,-216(s0)
    161c:	00b48383          	lb	t2,11(s1)
    1620:	e6743023          	sd	t2,-416(s0)
    1624:	00c48e03          	lb	t3,12(s1)
    1628:	ebc43c23          	sd	t3,-328(s0)
    162c:	00d48e83          	lb	t4,13(s1)
    1630:	00e48f03          	lb	t5,14(s1)
    1634:	00f48903          	lb	s2,15(s1)
    1638:	01048583          	lb	a1,16(s1)
    163c:	f2b43023          	sd	a1,-224(s0)
    1640:	01148a83          	lb	s5,17(s1)
    1644:	e7543423          	sd	s5,-408(s0)
    1648:	01248c03          	lb	s8,18(s1)
    164c:	ed843023          	sd	s8,-320(s0)
    1650:	01348983          	lb	s3,19(s1)
    1654:	eb343023          	sd	s3,-352(s0)
    1658:	01448d83          	lb	s11,20(s1)
    165c:	01548a03          	lb	s4,21(s1)
    1660:	ef443423          	sd	s4,-280(s0)
    1664:	01648483          	lb	s1,22(s1)
    1668:	f4943c23          	sd	s1,-168(s0)
    166c:	f8843583          	ld	a1,-120(s0)
    1670:	01758083          	lb	ra,23(a1)
    1674:	ea143423          	sd	ra,-344(s0)
    1678:	f8843583          	ld	a1,-120(s0)
    167c:	01858583          	lb	a1,24(a1)
    1680:	f4b43823          	sd	a1,-176(s0)
    1684:	02c505b3          	mul	a1,a0,a2
    1688:	01a58d33          	add	s10,a1,s10
    168c:	000015b7          	lui	a1,0x1
    1690:	40b405b3          	sub	a1,s0,a1
    1694:	67a5b823          	sd	s10,1648(a1) # 1670 <.LBB95_5+0x110>
    1698:	02d505b3          	mul	a1,a0,a3
    169c:	00001637          	lui	a2,0x1
    16a0:	40c40633          	sub	a2,s0,a2
    16a4:	76863603          	ld	a2,1896(a2) # 1768 <.LBB95_5+0x208>
    16a8:	00c58633          	add	a2,a1,a2
    16ac:	000015b7          	lui	a1,0x1
    16b0:	40b405b3          	sub	a1,s0,a1
    16b4:	76c5b423          	sd	a2,1896(a1) # 1768 <.LBB95_5+0x208>
    16b8:	02e505b3          	mul	a1,a0,a4
    16bc:	f2e43823          	sd	a4,-208(s0)
    16c0:	00001637          	lui	a2,0x1
    16c4:	40c40633          	sub	a2,s0,a2
    16c8:	76063603          	ld	a2,1888(a2) # 1760 <.LBB95_5+0x200>
    16cc:	00c58633          	add	a2,a1,a2
    16d0:	000015b7          	lui	a1,0x1
    16d4:	40b405b3          	sub	a1,s0,a1
    16d8:	76c5b023          	sd	a2,1888(a1) # 1760 <.LBB95_5+0x200>
    16dc:	02f505b3          	mul	a1,a0,a5
    16e0:	f4f43023          	sd	a5,-192(s0)
    16e4:	01958cb3          	add	s9,a1,s9
    16e8:	000015b7          	lui	a1,0x1
    16ec:	40b405b3          	sub	a1,s0,a1
    16f0:	6795bc23          	sd	s9,1656(a1) # 1678 <.LBB95_5+0x118>
    16f4:	030505b3          	mul	a1,a0,a6
    16f8:	00001637          	lui	a2,0x1
    16fc:	40c40633          	sub	a2,s0,a2
    1700:	75863603          	ld	a2,1880(a2) # 1758 <.LBB95_5+0x1f8>
    1704:	00c58633          	add	a2,a1,a2
    1708:	000015b7          	lui	a1,0x1
    170c:	40b405b3          	sub	a1,s0,a1
    1710:	74c5bc23          	sd	a2,1880(a1) # 1758 <.LBB95_5+0x1f8>
    1714:	036505b3          	mul	a1,a0,s6
    1718:	00001637          	lui	a2,0x1
    171c:	40c40633          	sub	a2,s0,a2
    1720:	75063603          	ld	a2,1872(a2) # 1750 <.LBB95_5+0x1f0>
    1724:	00c58633          	add	a2,a1,a2
    1728:	000015b7          	lui	a1,0x1
    172c:	40b405b3          	sub	a1,s0,a1
    1730:	74c5b823          	sd	a2,1872(a1) # 1750 <.LBB95_5+0x1f0>
    1734:	037505b3          	mul	a1,a0,s7
    1738:	00001637          	lui	a2,0x1
    173c:	40c40633          	sub	a2,s0,a2
    1740:	74863603          	ld	a2,1864(a2) # 1748 <.LBB95_5+0x1e8>
    1744:	00c58633          	add	a2,a1,a2
    1748:	000015b7          	lui	a1,0x1
    174c:	40b405b3          	sub	a1,s0,a1
    1750:	74c5b423          	sd	a2,1864(a1) # 1748 <.LBB95_5+0x1e8>
    1754:	031505b3          	mul	a1,a0,a7
    1758:	00001637          	lui	a2,0x1
    175c:	40c40633          	sub	a2,s0,a2
    1760:	74063603          	ld	a2,1856(a2) # 1740 <.LBB95_5+0x1e0>
    1764:	00c58633          	add	a2,a1,a2
    1768:	000015b7          	lui	a1,0x1
    176c:	40b405b3          	sub	a1,s0,a1
    1770:	74c5b023          	sd	a2,1856(a1) # 1740 <.LBB95_5+0x1e0>
    1774:	000f8893          	mv	a7,t6
    1778:	03f505b3          	mul	a1,a0,t6
    177c:	00001637          	lui	a2,0x1
    1780:	40c40633          	sub	a2,s0,a2
    1784:	73863603          	ld	a2,1848(a2) # 1738 <.LBB95_5+0x1d8>
    1788:	00c58633          	add	a2,a1,a2
    178c:	000015b7          	lui	a1,0x1
    1790:	40b405b3          	sub	a1,s0,a1
    1794:	72c5bc23          	sd	a2,1848(a1) # 1738 <.LBB95_5+0x1d8>
    1798:	025505b3          	mul	a1,a0,t0
    179c:	00001637          	lui	a2,0x1
    17a0:	40c40633          	sub	a2,s0,a2
    17a4:	73063603          	ld	a2,1840(a2) # 1730 <.LBB95_5+0x1d0>
    17a8:	00c58633          	add	a2,a1,a2
    17ac:	000015b7          	lui	a1,0x1
    17b0:	40b405b3          	sub	a1,s0,a1
    17b4:	72c5b823          	sd	a2,1840(a1) # 1730 <.LBB95_5+0x1d0>
    17b8:	026505b3          	mul	a1,a0,t1
    17bc:	00001637          	lui	a2,0x1
    17c0:	40c40633          	sub	a2,s0,a2
    17c4:	72863603          	ld	a2,1832(a2) # 1728 <.LBB95_5+0x1c8>
    17c8:	00c58633          	add	a2,a1,a2
    17cc:	000015b7          	lui	a1,0x1
    17d0:	40b405b3          	sub	a1,s0,a1
    17d4:	72c5b423          	sd	a2,1832(a1) # 1728 <.LBB95_5+0x1c8>
    17d8:	027505b3          	mul	a1,a0,t2
    17dc:	00001637          	lui	a2,0x1
    17e0:	40c40633          	sub	a2,s0,a2
    17e4:	72063603          	ld	a2,1824(a2) # 1720 <.LBB95_5+0x1c0>
    17e8:	00c58633          	add	a2,a1,a2
    17ec:	000015b7          	lui	a1,0x1
    17f0:	40b405b3          	sub	a1,s0,a1
    17f4:	72c5b023          	sd	a2,1824(a1) # 1720 <.LBB95_5+0x1c0>
    17f8:	03c505b3          	mul	a1,a0,t3
    17fc:	00001637          	lui	a2,0x1
    1800:	40c40633          	sub	a2,s0,a2
    1804:	71863603          	ld	a2,1816(a2) # 1718 <.LBB95_5+0x1b8>
    1808:	00c58633          	add	a2,a1,a2
    180c:	000015b7          	lui	a1,0x1
    1810:	40b405b3          	sub	a1,s0,a1
    1814:	70c5bc23          	sd	a2,1816(a1) # 1718 <.LBB95_5+0x1b8>
    1818:	03d505b3          	mul	a1,a0,t4
    181c:	000e8f93          	mv	t6,t4
    1820:	00001637          	lui	a2,0x1
    1824:	40c40633          	sub	a2,s0,a2
    1828:	71063603          	ld	a2,1808(a2) # 1710 <.LBB95_5+0x1b0>
    182c:	00c58633          	add	a2,a1,a2
    1830:	000015b7          	lui	a1,0x1
    1834:	40b405b3          	sub	a1,s0,a1
    1838:	70c5b823          	sd	a2,1808(a1) # 1710 <.LBB95_5+0x1b0>
    183c:	03e505b3          	mul	a1,a0,t5
    1840:	00001637          	lui	a2,0x1
    1844:	40c40633          	sub	a2,s0,a2
    1848:	70863603          	ld	a2,1800(a2) # 1708 <.LBB95_5+0x1a8>
    184c:	00c58633          	add	a2,a1,a2
    1850:	000015b7          	lui	a1,0x1
    1854:	40b405b3          	sub	a1,s0,a1
    1858:	70c5b423          	sd	a2,1800(a1) # 1708 <.LBB95_5+0x1a8>
    185c:	032505b3          	mul	a1,a0,s2
    1860:	00090313          	mv	t1,s2
    1864:	00001637          	lui	a2,0x1
    1868:	40c40633          	sub	a2,s0,a2
    186c:	70063603          	ld	a2,1792(a2) # 1700 <.LBB95_5+0x1a0>
    1870:	00c58633          	add	a2,a1,a2
    1874:	000015b7          	lui	a1,0x1
    1878:	40b405b3          	sub	a1,s0,a1
    187c:	70c5b023          	sd	a2,1792(a1) # 1700 <.LBB95_5+0x1a0>
    1880:	f2043e03          	ld	t3,-224(s0)
    1884:	03c505b3          	mul	a1,a0,t3
    1888:	00001637          	lui	a2,0x1
    188c:	40c40633          	sub	a2,s0,a2
    1890:	6f863603          	ld	a2,1784(a2) # 16f8 <.LBB95_5+0x198>
    1894:	00c58633          	add	a2,a1,a2
    1898:	000015b7          	lui	a1,0x1
    189c:	40b405b3          	sub	a1,s0,a1
    18a0:	6ec5bc23          	sd	a2,1784(a1) # 16f8 <.LBB95_5+0x198>
    18a4:	035505b3          	mul	a1,a0,s5
    18a8:	00001637          	lui	a2,0x1
    18ac:	40c40633          	sub	a2,s0,a2
    18b0:	6f063603          	ld	a2,1776(a2) # 16f0 <.LBB95_5+0x190>
    18b4:	00c58633          	add	a2,a1,a2
    18b8:	000015b7          	lui	a1,0x1
    18bc:	40b405b3          	sub	a1,s0,a1
    18c0:	6ec5b823          	sd	a2,1776(a1) # 16f0 <.LBB95_5+0x190>
    18c4:	038505b3          	mul	a1,a0,s8
    18c8:	00001637          	lui	a2,0x1
    18cc:	40c40633          	sub	a2,s0,a2
    18d0:	6e863603          	ld	a2,1768(a2) # 16e8 <.LBB95_5+0x188>
    18d4:	00c58633          	add	a2,a1,a2
    18d8:	000015b7          	lui	a1,0x1
    18dc:	40b405b3          	sub	a1,s0,a1
    18e0:	6ec5b423          	sd	a2,1768(a1) # 16e8 <.LBB95_5+0x188>
    18e4:	033505b3          	mul	a1,a0,s3
    18e8:	00001637          	lui	a2,0x1
    18ec:	40c40633          	sub	a2,s0,a2
    18f0:	6e063603          	ld	a2,1760(a2) # 16e0 <.LBB95_5+0x180>
    18f4:	00c58633          	add	a2,a1,a2
    18f8:	000015b7          	lui	a1,0x1
    18fc:	40b405b3          	sub	a1,s0,a1
    1900:	6ec5b023          	sd	a2,1760(a1) # 16e0 <.LBB95_5+0x180>
    1904:	03b505b3          	mul	a1,a0,s11
    1908:	00001637          	lui	a2,0x1
    190c:	40c40633          	sub	a2,s0,a2
    1910:	6d863603          	ld	a2,1752(a2) # 16d8 <.LBB95_5+0x178>
    1914:	00c58633          	add	a2,a1,a2
    1918:	000015b7          	lui	a1,0x1
    191c:	40b405b3          	sub	a1,s0,a1
    1920:	6cc5bc23          	sd	a2,1752(a1) # 16d8 <.LBB95_5+0x178>
    1924:	034505b3          	mul	a1,a0,s4
    1928:	00001637          	lui	a2,0x1
    192c:	40c40633          	sub	a2,s0,a2
    1930:	6d063603          	ld	a2,1744(a2) # 16d0 <.LBB95_5+0x170>
    1934:	00c58633          	add	a2,a1,a2
    1938:	000015b7          	lui	a1,0x1
    193c:	40b405b3          	sub	a1,s0,a1
    1940:	6cc5b823          	sd	a2,1744(a1) # 16d0 <.LBB95_5+0x170>
    1944:	029505b3          	mul	a1,a0,s1
    1948:	00001637          	lui	a2,0x1
    194c:	40c40633          	sub	a2,s0,a2
    1950:	69863603          	ld	a2,1688(a2) # 1698 <.LBB95_5+0x138>
    1954:	00c58633          	add	a2,a1,a2
    1958:	000015b7          	lui	a1,0x1
    195c:	40b405b3          	sub	a1,s0,a1
    1960:	68c5bc23          	sd	a2,1688(a1) # 1698 <.LBB95_5+0x138>
    1964:	021505b3          	mul	a1,a0,ra
    1968:	00001637          	lui	a2,0x1
    196c:	40c40633          	sub	a2,s0,a2
    1970:	69063603          	ld	a2,1680(a2) # 1690 <.LBB95_5+0x130>
    1974:	00c58633          	add	a2,a1,a2
    1978:	000015b7          	lui	a1,0x1
    197c:	40b405b3          	sub	a1,s0,a1
    1980:	68c5b823          	sd	a2,1680(a1) # 1690 <.LBB95_5+0x130>
    1984:	f8843583          	ld	a1,-120(s0)
    1988:	01958803          	lb	a6,25(a1)
    198c:	f5043583          	ld	a1,-176(s0)
    1990:	02b505b3          	mul	a1,a0,a1
    1994:	00001637          	lui	a2,0x1
    1998:	40c40633          	sub	a2,s0,a2
    199c:	6a863603          	ld	a2,1704(a2) # 16a8 <.LBB95_5+0x148>
    19a0:	00c58633          	add	a2,a1,a2
    19a4:	000015b7          	lui	a1,0x1
    19a8:	40b405b3          	sub	a1,s0,a1
    19ac:	6ac5b423          	sd	a2,1704(a1) # 16a8 <.LBB95_5+0x148>
    19b0:	f8843583          	ld	a1,-120(s0)
    19b4:	01a58283          	lb	t0,26(a1)
    19b8:	030505b3          	mul	a1,a0,a6
    19bc:	00001637          	lui	a2,0x1
    19c0:	40c40633          	sub	a2,s0,a2
    19c4:	6c863603          	ld	a2,1736(a2) # 16c8 <.LBB95_5+0x168>
    19c8:	00c58633          	add	a2,a1,a2
    19cc:	000015b7          	lui	a1,0x1
    19d0:	40b405b3          	sub	a1,s0,a1
    19d4:	6cc5b423          	sd	a2,1736(a1) # 16c8 <.LBB95_5+0x168>
    19d8:	f8843583          	ld	a1,-120(s0)
    19dc:	01b58e83          	lb	t4,27(a1)
    19e0:	025505b3          	mul	a1,a0,t0
    19e4:	00001637          	lui	a2,0x1
    19e8:	40c40633          	sub	a2,s0,a2
    19ec:	6c063603          	ld	a2,1728(a2) # 16c0 <.LBB95_5+0x160>
    19f0:	00c58633          	add	a2,a1,a2
    19f4:	000015b7          	lui	a1,0x1
    19f8:	40b405b3          	sub	a1,s0,a1
    19fc:	6cc5b023          	sd	a2,1728(a1) # 16c0 <.LBB95_5+0x160>
    1a00:	f8843583          	ld	a1,-120(s0)
    1a04:	01c58683          	lb	a3,28(a1)
    1a08:	f4d43423          	sd	a3,-184(s0)
    1a0c:	03d505b3          	mul	a1,a0,t4
    1a10:	00001637          	lui	a2,0x1
    1a14:	40c40633          	sub	a2,s0,a2
    1a18:	6b863603          	ld	a2,1720(a2) # 16b8 <.LBB95_5+0x158>
    1a1c:	00c58633          	add	a2,a1,a2
    1a20:	000015b7          	lui	a1,0x1
    1a24:	40b405b3          	sub	a1,s0,a1
    1a28:	6ac5bc23          	sd	a2,1720(a1) # 16b8 <.LBB95_5+0x158>
    1a2c:	f8843583          	ld	a1,-120(s0)
    1a30:	01d58383          	lb	t2,29(a1)
    1a34:	e4743c23          	sd	t2,-424(s0)
    1a38:	02d505b3          	mul	a1,a0,a3
    1a3c:	00001637          	lui	a2,0x1
    1a40:	40c40633          	sub	a2,s0,a2
    1a44:	6b063603          	ld	a2,1712(a2) # 16b0 <.LBB95_5+0x150>
    1a48:	00c58633          	add	a2,a1,a2
    1a4c:	000015b7          	lui	a1,0x1
    1a50:	40b405b3          	sub	a1,s0,a1
    1a54:	6ac5b823          	sd	a2,1712(a1) # 16b0 <.LBB95_5+0x150>
    1a58:	f8843583          	ld	a1,-120(s0)
    1a5c:	01e58683          	lb	a3,30(a1)
    1a60:	ecd43423          	sd	a3,-312(s0)
    1a64:	027505b3          	mul	a1,a0,t2
    1a68:	00001637          	lui	a2,0x1
    1a6c:	40c40633          	sub	a2,s0,a2
    1a70:	68863603          	ld	a2,1672(a2) # 1688 <.LBB95_5+0x128>
    1a74:	00c58633          	add	a2,a1,a2
    1a78:	000015b7          	lui	a1,0x1
    1a7c:	40b405b3          	sub	a1,s0,a1
    1a80:	68c5b423          	sd	a2,1672(a1) # 1688 <.LBB95_5+0x128>
    1a84:	f8843583          	ld	a1,-120(s0)
    1a88:	01f58583          	lb	a1,31(a1)
    1a8c:	ef043603          	ld	a2,-272(s0)
    1a90:	3c060d03          	lb	s10,960(a2)
    1a94:	02d50b33          	mul	s6,a0,a3
    1a98:	00001637          	lui	a2,0x1
    1a9c:	40c40633          	sub	a2,s0,a2
    1aa0:	68063603          	ld	a2,1664(a2) # 1680 <.LBB95_5+0x120>
    1aa4:	00cb0633          	add	a2,s6,a2
    1aa8:	000016b7          	lui	a3,0x1
    1aac:	40d406b3          	sub	a3,s0,a3
    1ab0:	68c6b023          	sd	a2,1664(a3) # 1680 <.LBB95_5+0x120>
    1ab4:	02b50533          	mul	a0,a0,a1
    1ab8:	00058c93          	mv	s9,a1
    1abc:	e8b43c23          	sd	a1,-360(s0)
    1ac0:	000015b7          	lui	a1,0x1
    1ac4:	40b405b3          	sub	a1,s0,a1
    1ac8:	6a05b603          	ld	a2,1696(a1) # 16a0 <.LBB95_5+0x140>
    1acc:	00c50633          	add	a2,a0,a2
    1ad0:	00001537          	lui	a0,0x1
    1ad4:	40a40533          	sub	a0,s0,a0
    1ad8:	6ac53023          	sd	a2,1696(a0) # 16a0 <.LBB95_5+0x140>
    1adc:	02ed0533          	mul	a0,s10,a4
    1ae0:	000015b7          	lui	a1,0x1
    1ae4:	40b405b3          	sub	a1,s0,a1
    1ae8:	7705b603          	ld	a2,1904(a1) # 1770 <.LBB95_5+0x210>
    1aec:	00c50633          	add	a2,a0,a2
    1af0:	00001537          	lui	a0,0x1
    1af4:	40a40533          	sub	a0,s0,a0
    1af8:	76c53823          	sd	a2,1904(a0) # 1770 <.LBB95_5+0x210>
    1afc:	f7043503          	ld	a0,-144(s0)
    1b00:	02ad0533          	mul	a0,s10,a0
    1b04:	000015b7          	lui	a1,0x1
    1b08:	40b405b3          	sub	a1,s0,a1
    1b0c:	7785b603          	ld	a2,1912(a1) # 1778 <.LBB95_5+0x218>
    1b10:	00c50633          	add	a2,a0,a2
    1b14:	00001537          	lui	a0,0x1
    1b18:	40a40533          	sub	a0,s0,a0
    1b1c:	76c53c23          	sd	a2,1912(a0) # 1778 <.LBB95_5+0x218>
    1b20:	eb043483          	ld	s1,-336(s0)
    1b24:	029d0533          	mul	a0,s10,s1
    1b28:	000015b7          	lui	a1,0x1
    1b2c:	40b405b3          	sub	a1,s0,a1
    1b30:	7805b603          	ld	a2,1920(a1) # 1780 <.LBB95_5+0x220>
    1b34:	00c50633          	add	a2,a0,a2
    1b38:	00001537          	lui	a0,0x1
    1b3c:	40a40533          	sub	a0,s0,a0
    1b40:	78c53023          	sd	a2,1920(a0) # 1780 <.LBB95_5+0x220>
    1b44:	02fd0533          	mul	a0,s10,a5
    1b48:	000015b7          	lui	a1,0x1
    1b4c:	40b405b3          	sub	a1,s0,a1
    1b50:	7885b603          	ld	a2,1928(a1) # 1788 <.LBB95_5+0x228>
    1b54:	00c50633          	add	a2,a0,a2
    1b58:	00001537          	lui	a0,0x1
    1b5c:	40a40533          	sub	a0,s0,a0
    1b60:	78c53423          	sd	a2,1928(a0) # 1788 <.LBB95_5+0x228>
    1b64:	f6843503          	ld	a0,-152(s0)
    1b68:	02ad0533          	mul	a0,s10,a0
    1b6c:	000015b7          	lui	a1,0x1
    1b70:	40b405b3          	sub	a1,s0,a1
    1b74:	7905b603          	ld	a2,1936(a1) # 1790 <.LBB95_5+0x230>
    1b78:	00c50633          	add	a2,a0,a2
    1b7c:	00001537          	lui	a0,0x1
    1b80:	40a40533          	sub	a0,s0,a0
    1b84:	78c53823          	sd	a2,1936(a0) # 1790 <.LBB95_5+0x230>
    1b88:	f7843783          	ld	a5,-136(s0)
    1b8c:	02fd0533          	mul	a0,s10,a5
    1b90:	000015b7          	lui	a1,0x1
    1b94:	40b405b3          	sub	a1,s0,a1
    1b98:	7985b603          	ld	a2,1944(a1) # 1798 <.LBB95_5+0x238>
    1b9c:	00c50633          	add	a2,a0,a2
    1ba0:	00001537          	lui	a0,0x1
    1ba4:	40a40533          	sub	a0,s0,a0
    1ba8:	78c53c23          	sd	a2,1944(a0) # 1798 <.LBB95_5+0x238>
    1bac:	037d0533          	mul	a0,s10,s7
    1bb0:	000b8713          	mv	a4,s7
    1bb4:	f3743c23          	sd	s7,-200(s0)
    1bb8:	000015b7          	lui	a1,0x1
    1bbc:	40b405b3          	sub	a1,s0,a1
    1bc0:	7a05b603          	ld	a2,1952(a1) # 17a0 <.LBB95_5+0x240>
    1bc4:	00c50633          	add	a2,a0,a2
    1bc8:	00001537          	lui	a0,0x1
    1bcc:	40a40533          	sub	a0,s0,a0
    1bd0:	7ac53023          	sd	a2,1952(a0) # 17a0 <.LBB95_5+0x240>
    1bd4:	ee043b83          	ld	s7,-288(s0)
    1bd8:	037d0533          	mul	a0,s10,s7
    1bdc:	000015b7          	lui	a1,0x1
    1be0:	40b405b3          	sub	a1,s0,a1
    1be4:	7a85b603          	ld	a2,1960(a1) # 17a8 <.LBB95_5+0x248>
    1be8:	00c50633          	add	a2,a0,a2
    1bec:	00001537          	lui	a0,0x1
    1bf0:	40a40533          	sub	a0,s0,a0
    1bf4:	7ac53423          	sd	a2,1960(a0) # 17a8 <.LBB95_5+0x248>
    1bf8:	031d0533          	mul	a0,s10,a7
    1bfc:	00088393          	mv	t2,a7
    1c00:	e9143823          	sd	a7,-368(s0)
    1c04:	000015b7          	lui	a1,0x1
    1c08:	40b405b3          	sub	a1,s0,a1
    1c0c:	7b05b603          	ld	a2,1968(a1) # 17b0 <.LBB95_5+0x250>
    1c10:	00c50633          	add	a2,a0,a2
    1c14:	00001537          	lui	a0,0x1
    1c18:	40a40533          	sub	a0,s0,a0
    1c1c:	7ac53823          	sd	a2,1968(a0) # 17b0 <.LBB95_5+0x250>
    1c20:	00001537          	lui	a0,0x1
    1c24:	40a40533          	sub	a0,s0,a0
    1c28:	66053a83          	ld	s5,1632(a0) # 1660 <.LBB95_5+0x100>
    1c2c:	035d0533          	mul	a0,s10,s5
    1c30:	000015b7          	lui	a1,0x1
    1c34:	40b405b3          	sub	a1,s0,a1
    1c38:	7b85b603          	ld	a2,1976(a1) # 17b8 <.LBB95_5+0x258>
    1c3c:	00c50633          	add	a2,a0,a2
    1c40:	00001537          	lui	a0,0x1
    1c44:	40a40533          	sub	a0,s0,a0
    1c48:	7ac53c23          	sd	a2,1976(a0) # 17b8 <.LBB95_5+0x258>
    1c4c:	f2843a03          	ld	s4,-216(s0)
    1c50:	034d0533          	mul	a0,s10,s4
    1c54:	000015b7          	lui	a1,0x1
    1c58:	40b405b3          	sub	a1,s0,a1
    1c5c:	7c05b603          	ld	a2,1984(a1) # 17c0 <.LBB95_5+0x260>
    1c60:	00c50633          	add	a2,a0,a2
    1c64:	00001537          	lui	a0,0x1
    1c68:	40a40533          	sub	a0,s0,a0
    1c6c:	7cc53023          	sd	a2,1984(a0) # 17c0 <.LBB95_5+0x260>
    1c70:	e6043983          	ld	s3,-416(s0)
    1c74:	033d0533          	mul	a0,s10,s3
    1c78:	000015b7          	lui	a1,0x1
    1c7c:	40b405b3          	sub	a1,s0,a1
    1c80:	7c85b603          	ld	a2,1992(a1) # 17c8 <.LBB95_5+0x268>
    1c84:	00c50633          	add	a2,a0,a2
    1c88:	00001537          	lui	a0,0x1
    1c8c:	40a40533          	sub	a0,s0,a0
    1c90:	7cc53423          	sd	a2,1992(a0) # 17c8 <.LBB95_5+0x268>
    1c94:	eb843903          	ld	s2,-328(s0)
    1c98:	032d0533          	mul	a0,s10,s2
    1c9c:	000015b7          	lui	a1,0x1
    1ca0:	40b405b3          	sub	a1,s0,a1
    1ca4:	7d05b603          	ld	a2,2000(a1) # 17d0 <.LBB95_5+0x270>
    1ca8:	00c50633          	add	a2,a0,a2
    1cac:	00001537          	lui	a0,0x1
    1cb0:	40a40533          	sub	a0,s0,a0
    1cb4:	7cc53823          	sd	a2,2000(a0) # 17d0 <.LBB95_5+0x270>
    1cb8:	03fd0533          	mul	a0,s10,t6
    1cbc:	000015b7          	lui	a1,0x1
    1cc0:	40b405b3          	sub	a1,s0,a1
    1cc4:	7d85b603          	ld	a2,2008(a1) # 17d8 <.LBB95_5+0x278>
    1cc8:	00c50633          	add	a2,a0,a2
    1ccc:	00001537          	lui	a0,0x1
    1cd0:	40a40533          	sub	a0,s0,a0
    1cd4:	7cc53c23          	sd	a2,2008(a0) # 17d8 <.LBB95_5+0x278>
    1cd8:	03ed0533          	mul	a0,s10,t5
    1cdc:	000015b7          	lui	a1,0x1
    1ce0:	40b405b3          	sub	a1,s0,a1
    1ce4:	7e05b603          	ld	a2,2016(a1) # 17e0 <.LBB95_5+0x280>
    1ce8:	00c50633          	add	a2,a0,a2
    1cec:	00001537          	lui	a0,0x1
    1cf0:	40a40533          	sub	a0,s0,a0
    1cf4:	7ec53023          	sd	a2,2016(a0) # 17e0 <.LBB95_5+0x280>
    1cf8:	ec643823          	sd	t1,-304(s0)
    1cfc:	026d0533          	mul	a0,s10,t1
    1d00:	000015b7          	lui	a1,0x1
    1d04:	40b405b3          	sub	a1,s0,a1
    1d08:	7e85b603          	ld	a2,2024(a1) # 17e8 <.LBB95_5+0x288>
    1d0c:	00c50633          	add	a2,a0,a2
    1d10:	00001537          	lui	a0,0x1
    1d14:	40a40533          	sub	a0,s0,a0
    1d18:	7ec53423          	sd	a2,2024(a0) # 17e8 <.LBB95_5+0x288>
    1d1c:	03cd0533          	mul	a0,s10,t3
    1d20:	000015b7          	lui	a1,0x1
    1d24:	40b405b3          	sub	a1,s0,a1
    1d28:	7f05b603          	ld	a2,2032(a1) # 17f0 <.LBB95_5+0x290>
    1d2c:	00c50633          	add	a2,a0,a2
    1d30:	00001537          	lui	a0,0x1
    1d34:	40a40533          	sub	a0,s0,a0
    1d38:	7ec53823          	sd	a2,2032(a0) # 17f0 <.LBB95_5+0x290>
    1d3c:	e6843c03          	ld	s8,-408(s0)
    1d40:	038d0533          	mul	a0,s10,s8
    1d44:	000015b7          	lui	a1,0x1
    1d48:	40b405b3          	sub	a1,s0,a1
    1d4c:	7f85b603          	ld	a2,2040(a1) # 17f8 <.LBB95_5+0x298>
    1d50:	00c50633          	add	a2,a0,a2
    1d54:	00001537          	lui	a0,0x1
    1d58:	40a40533          	sub	a0,s0,a0
    1d5c:	7ec53c23          	sd	a2,2040(a0) # 17f8 <.LBB95_5+0x298>
    1d60:	ec043503          	ld	a0,-320(s0)
    1d64:	02ad0533          	mul	a0,s10,a0
    1d68:	80043603          	ld	a2,-2048(s0)
    1d6c:	00c50633          	add	a2,a0,a2
    1d70:	80c43023          	sd	a2,-2048(s0)
    1d74:	ea043083          	ld	ra,-352(s0)
    1d78:	021d0533          	mul	a0,s10,ra
    1d7c:	80843603          	ld	a2,-2040(s0)
    1d80:	00c50633          	add	a2,a0,a2
    1d84:	80c43423          	sd	a2,-2040(s0)
    1d88:	e5b43423          	sd	s11,-440(s0)
    1d8c:	03bd0533          	mul	a0,s10,s11
    1d90:	81043603          	ld	a2,-2032(s0)
    1d94:	00c50633          	add	a2,a0,a2
    1d98:	80c43823          	sd	a2,-2032(s0)
    1d9c:	ee843503          	ld	a0,-280(s0)
    1da0:	02ad0533          	mul	a0,s10,a0
    1da4:	81843603          	ld	a2,-2024(s0)
    1da8:	00c50633          	add	a2,a0,a2
    1dac:	80c43c23          	sd	a2,-2024(s0)
    1db0:	f5843503          	ld	a0,-168(s0)
    1db4:	02ad0533          	mul	a0,s10,a0
    1db8:	82043603          	ld	a2,-2016(s0)
    1dbc:	00c50633          	add	a2,a0,a2
    1dc0:	82c43023          	sd	a2,-2016(s0)
    1dc4:	ea843583          	ld	a1,-344(s0)
    1dc8:	02bd0533          	mul	a0,s10,a1
    1dcc:	82843603          	ld	a2,-2008(s0)
    1dd0:	00c50633          	add	a2,a0,a2
    1dd4:	82c43423          	sd	a2,-2008(s0)
    1dd8:	f5043503          	ld	a0,-176(s0)
    1ddc:	02ad0533          	mul	a0,s10,a0
    1de0:	83043603          	ld	a2,-2000(s0)
    1de4:	00c50633          	add	a2,a0,a2
    1de8:	82c43823          	sd	a2,-2000(s0)
    1dec:	e5043823          	sd	a6,-432(s0)
    1df0:	030d0533          	mul	a0,s10,a6
    1df4:	83843603          	ld	a2,-1992(s0)
    1df8:	00c50633          	add	a2,a0,a2
    1dfc:	82c43c23          	sd	a2,-1992(s0)
    1e00:	00001537          	lui	a0,0x1
    1e04:	40a40533          	sub	a0,s0,a0
    1e08:	64553c23          	sd	t0,1624(a0) # 1658 <.LBB95_5+0xf8>
    1e0c:	025d0533          	mul	a0,s10,t0
    1e10:	84043603          	ld	a2,-1984(s0)
    1e14:	00c50633          	add	a2,a0,a2
    1e18:	84c43023          	sd	a2,-1984(s0)
    1e1c:	e7d43c23          	sd	t4,-392(s0)
    1e20:	03dd0533          	mul	a0,s10,t4
    1e24:	84843603          	ld	a2,-1976(s0)
    1e28:	00c50633          	add	a2,a0,a2
    1e2c:	84c43423          	sd	a2,-1976(s0)
    1e30:	f4843683          	ld	a3,-184(s0)
    1e34:	02dd0533          	mul	a0,s10,a3
    1e38:	85043603          	ld	a2,-1968(s0)
    1e3c:	00c50633          	add	a2,a0,a2
    1e40:	84c43823          	sd	a2,-1968(s0)
    1e44:	e5843e03          	ld	t3,-424(s0)
    1e48:	03cd0533          	mul	a0,s10,t3
    1e4c:	85843603          	ld	a2,-1960(s0)
    1e50:	00c50633          	add	a2,a0,a2
    1e54:	84c43c23          	sd	a2,-1960(s0)
    1e58:	ef043503          	ld	a0,-272(s0)
    1e5c:	78050503          	lb	a0,1920(a0)
    1e60:	ec843603          	ld	a2,-312(s0)
    1e64:	02cd0b33          	mul	s6,s10,a2
    1e68:	86043603          	ld	a2,-1952(s0)
    1e6c:	00cb0633          	add	a2,s6,a2
    1e70:	86c43023          	sd	a2,-1952(s0)
    1e74:	039d0b33          	mul	s6,s10,s9
    1e78:	86843603          	ld	a2,-1944(s0)
    1e7c:	00cb0633          	add	a2,s6,a2
    1e80:	86c43423          	sd	a2,-1944(s0)
    1e84:	f3043603          	ld	a2,-208(s0)
    1e88:	02c50b33          	mul	s6,a0,a2
    1e8c:	87043603          	ld	a2,-1936(s0)
    1e90:	00cb0633          	add	a2,s6,a2
    1e94:	86c43823          	sd	a2,-1936(s0)
    1e98:	f7043603          	ld	a2,-144(s0)
    1e9c:	02c50b33          	mul	s6,a0,a2
    1ea0:	87843603          	ld	a2,-1928(s0)
    1ea4:	00cb0633          	add	a2,s6,a2
    1ea8:	86c43c23          	sd	a2,-1928(s0)
    1eac:	02950b33          	mul	s6,a0,s1
    1eb0:	88043603          	ld	a2,-1920(s0)
    1eb4:	00cb0633          	add	a2,s6,a2
    1eb8:	88c43023          	sd	a2,-1920(s0)
    1ebc:	f4043603          	ld	a2,-192(s0)
    1ec0:	02c50b33          	mul	s6,a0,a2
    1ec4:	88843603          	ld	a2,-1912(s0)
    1ec8:	00cb0633          	add	a2,s6,a2
    1ecc:	88c43423          	sd	a2,-1912(s0)
    1ed0:	f6843883          	ld	a7,-152(s0)
    1ed4:	03150b33          	mul	s6,a0,a7
    1ed8:	89043603          	ld	a2,-1904(s0)
    1edc:	00cb0633          	add	a2,s6,a2
    1ee0:	88c43823          	sd	a2,-1904(s0)
    1ee4:	02f50b33          	mul	s6,a0,a5
    1ee8:	89843603          	ld	a2,-1896(s0)
    1eec:	00cb0633          	add	a2,s6,a2
    1ef0:	88c43c23          	sd	a2,-1896(s0)
    1ef4:	02e50b33          	mul	s6,a0,a4
    1ef8:	8a043603          	ld	a2,-1888(s0)
    1efc:	00cb0633          	add	a2,s6,a2
    1f00:	8ac43023          	sd	a2,-1888(s0)
    1f04:	03750b33          	mul	s6,a0,s7
    1f08:	8a843603          	ld	a2,-1880(s0)
    1f0c:	00cb0633          	add	a2,s6,a2
    1f10:	8ac43423          	sd	a2,-1880(s0)
    1f14:	02750b33          	mul	s6,a0,t2
    1f18:	8b043603          	ld	a2,-1872(s0)
    1f1c:	00cb0633          	add	a2,s6,a2
    1f20:	8ac43823          	sd	a2,-1872(s0)
    1f24:	03550b33          	mul	s6,a0,s5
    1f28:	8b843603          	ld	a2,-1864(s0)
    1f2c:	00cb0633          	add	a2,s6,a2
    1f30:	8ac43c23          	sd	a2,-1864(s0)
    1f34:	03450b33          	mul	s6,a0,s4
    1f38:	8c043603          	ld	a2,-1856(s0)
    1f3c:	00cb0633          	add	a2,s6,a2
    1f40:	8cc43023          	sd	a2,-1856(s0)
    1f44:	03350b33          	mul	s6,a0,s3
    1f48:	8c843603          	ld	a2,-1848(s0)
    1f4c:	00cb0633          	add	a2,s6,a2
    1f50:	8cc43423          	sd	a2,-1848(s0)
    1f54:	03250b33          	mul	s6,a0,s2
    1f58:	8d043603          	ld	a2,-1840(s0)
    1f5c:	00cb0633          	add	a2,s6,a2
    1f60:	8cc43823          	sd	a2,-1840(s0)
    1f64:	03f50b33          	mul	s6,a0,t6
    1f68:	000f8c93          	mv	s9,t6
    1f6c:	edf43c23          	sd	t6,-296(s0)
    1f70:	8d843603          	ld	a2,-1832(s0)
    1f74:	00cb0633          	add	a2,s6,a2
    1f78:	8cc43c23          	sd	a2,-1832(s0)
    1f7c:	03e50b33          	mul	s6,a0,t5
    1f80:	8e043603          	ld	a2,-1824(s0)
    1f84:	00cb0633          	add	a2,s6,a2
    1f88:	8ec43023          	sd	a2,-1824(s0)
    1f8c:	02650b33          	mul	s6,a0,t1
    1f90:	8e843603          	ld	a2,-1816(s0)
    1f94:	00cb0633          	add	a2,s6,a2
    1f98:	8ec43423          	sd	a2,-1816(s0)
    1f9c:	f2043383          	ld	t2,-224(s0)
    1fa0:	02750b33          	mul	s6,a0,t2
    1fa4:	8f043603          	ld	a2,-1808(s0)
    1fa8:	00cb0633          	add	a2,s6,a2
    1fac:	8ec43823          	sd	a2,-1808(s0)
    1fb0:	03850b33          	mul	s6,a0,s8
    1fb4:	8f843603          	ld	a2,-1800(s0)
    1fb8:	00cb0633          	add	a2,s6,a2
    1fbc:	8ec43c23          	sd	a2,-1800(s0)
    1fc0:	ec043a03          	ld	s4,-320(s0)
    1fc4:	03450b33          	mul	s6,a0,s4
    1fc8:	90043603          	ld	a2,-1792(s0)
    1fcc:	00cb0633          	add	a2,s6,a2
    1fd0:	90c43023          	sd	a2,-1792(s0)
    1fd4:	02150b33          	mul	s6,a0,ra
    1fd8:	90843603          	ld	a2,-1784(s0)
    1fdc:	00cb0633          	add	a2,s6,a2
    1fe0:	90c43423          	sd	a2,-1784(s0)
    1fe4:	03b50b33          	mul	s6,a0,s11
    1fe8:	91043603          	ld	a2,-1776(s0)
    1fec:	00cb0633          	add	a2,s6,a2
    1ff0:	90c43823          	sd	a2,-1776(s0)
    1ff4:	ee843703          	ld	a4,-280(s0)
    1ff8:	02e50b33          	mul	s6,a0,a4
    1ffc:	91843603          	ld	a2,-1768(s0)
    2000:	00cb0633          	add	a2,s6,a2
    2004:	90c43c23          	sd	a2,-1768(s0)
    2008:	f5843783          	ld	a5,-168(s0)
    200c:	02f50b33          	mul	s6,a0,a5
    2010:	92043603          	ld	a2,-1760(s0)
    2014:	00cb0633          	add	a2,s6,a2
    2018:	92c43023          	sd	a2,-1760(s0)
    201c:	02b50b33          	mul	s6,a0,a1
    2020:	92843603          	ld	a2,-1752(s0)
    2024:	00cb0633          	add	a2,s6,a2
    2028:	92c43423          	sd	a2,-1752(s0)
    202c:	f5043303          	ld	t1,-176(s0)
    2030:	02650b33          	mul	s6,a0,t1
    2034:	93043603          	ld	a2,-1744(s0)
    2038:	00cb0633          	add	a2,s6,a2
    203c:	92c43823          	sd	a2,-1744(s0)
    2040:	03050b33          	mul	s6,a0,a6
    2044:	93843603          	ld	a2,-1736(s0)
    2048:	00cb0633          	add	a2,s6,a2
    204c:	92c43c23          	sd	a2,-1736(s0)
    2050:	02550b33          	mul	s6,a0,t0
    2054:	94043603          	ld	a2,-1728(s0)
    2058:	00cb0633          	add	a2,s6,a2
    205c:	94c43023          	sd	a2,-1728(s0)
    2060:	03d50b33          	mul	s6,a0,t4
    2064:	94843603          	ld	a2,-1720(s0)
    2068:	00cb0633          	add	a2,s6,a2
    206c:	94c43423          	sd	a2,-1720(s0)
    2070:	02d50b33          	mul	s6,a0,a3
    2074:	95043603          	ld	a2,-1712(s0)
    2078:	00cb0633          	add	a2,s6,a2
    207c:	94c43823          	sd	a2,-1712(s0)
    2080:	000e0293          	mv	t0,t3
    2084:	03c50b33          	mul	s6,a0,t3
    2088:	95843603          	ld	a2,-1704(s0)
    208c:	00cb0633          	add	a2,s6,a2
    2090:	94c43c23          	sd	a2,-1704(s0)
    2094:	e8843583          	ld	a1,-376(s0)
    2098:	00058d03          	lb	s10,0(a1)
    209c:	ec843d83          	ld	s11,-312(s0)
    20a0:	03b50b33          	mul	s6,a0,s11
    20a4:	96043603          	ld	a2,-1696(s0)
    20a8:	00cb0633          	add	a2,s6,a2
    20ac:	96c43023          	sd	a2,-1696(s0)
    20b0:	e9843583          	ld	a1,-360(s0)
    20b4:	02b50533          	mul	a0,a0,a1
    20b8:	96843603          	ld	a2,-1688(s0)
    20bc:	00c50633          	add	a2,a0,a2
    20c0:	96c43423          	sd	a2,-1688(s0)
    20c4:	f3043b83          	ld	s7,-208(s0)
    20c8:	037d0533          	mul	a0,s10,s7
    20cc:	97043603          	ld	a2,-1680(s0)
    20d0:	00c50633          	add	a2,a0,a2
    20d4:	96c43823          	sd	a2,-1680(s0)
    20d8:	f7043683          	ld	a3,-144(s0)
    20dc:	02dd0533          	mul	a0,s10,a3
    20e0:	97843603          	ld	a2,-1672(s0)
    20e4:	00c50633          	add	a2,a0,a2
    20e8:	96c43c23          	sd	a2,-1672(s0)
    20ec:	029d0533          	mul	a0,s10,s1
    20f0:	98043603          	ld	a2,-1664(s0)
    20f4:	00c50633          	add	a2,a0,a2
    20f8:	98c43023          	sd	a2,-1664(s0)
    20fc:	f4043583          	ld	a1,-192(s0)
    2100:	02bd0533          	mul	a0,s10,a1
    2104:	98843603          	ld	a2,-1656(s0)
    2108:	00c50633          	add	a2,a0,a2
    210c:	98c43423          	sd	a2,-1656(s0)
    2110:	031d0533          	mul	a0,s10,a7
    2114:	99043603          	ld	a2,-1648(s0)
    2118:	00c50633          	add	a2,a0,a2
    211c:	98c43823          	sd	a2,-1648(s0)
    2120:	f7843503          	ld	a0,-136(s0)
    2124:	02ad0533          	mul	a0,s10,a0
    2128:	99843603          	ld	a2,-1640(s0)
    212c:	00c50633          	add	a2,a0,a2
    2130:	98c43c23          	sd	a2,-1640(s0)
    2134:	f3843503          	ld	a0,-200(s0)
    2138:	02ad0533          	mul	a0,s10,a0
    213c:	9a043603          	ld	a2,-1632(s0)
    2140:	00c50633          	add	a2,a0,a2
    2144:	9ac43023          	sd	a2,-1632(s0)
    2148:	ee043503          	ld	a0,-288(s0)
    214c:	02ad0533          	mul	a0,s10,a0
    2150:	9a843603          	ld	a2,-1624(s0)
    2154:	00c50633          	add	a2,a0,a2
    2158:	9ac43423          	sd	a2,-1624(s0)
    215c:	e9043803          	ld	a6,-368(s0)
    2160:	030d0533          	mul	a0,s10,a6
    2164:	9b043603          	ld	a2,-1616(s0)
    2168:	00c50633          	add	a2,a0,a2
    216c:	9ac43823          	sd	a2,-1616(s0)
    2170:	035d0533          	mul	a0,s10,s5
    2174:	9b843603          	ld	a2,-1608(s0)
    2178:	00c50633          	add	a2,a0,a2
    217c:	9ac43c23          	sd	a2,-1608(s0)
    2180:	f2843f83          	ld	t6,-216(s0)
    2184:	03fd0533          	mul	a0,s10,t6
    2188:	9c043603          	ld	a2,-1600(s0)
    218c:	00c50633          	add	a2,a0,a2
    2190:	9cc43023          	sd	a2,-1600(s0)
    2194:	033d0533          	mul	a0,s10,s3
    2198:	9c843603          	ld	a2,-1592(s0)
    219c:	00c50633          	add	a2,a0,a2
    21a0:	9cc43423          	sd	a2,-1592(s0)
    21a4:	032d0533          	mul	a0,s10,s2
    21a8:	9d043603          	ld	a2,-1584(s0)
    21ac:	00c50633          	add	a2,a0,a2
    21b0:	9cc43823          	sd	a2,-1584(s0)
    21b4:	039d0533          	mul	a0,s10,s9
    21b8:	9d843603          	ld	a2,-1576(s0)
    21bc:	00c50633          	add	a2,a0,a2
    21c0:	9cc43c23          	sd	a2,-1576(s0)
    21c4:	e7e43823          	sd	t5,-400(s0)
    21c8:	03ed0533          	mul	a0,s10,t5
    21cc:	9e043603          	ld	a2,-1568(s0)
    21d0:	00c50633          	add	a2,a0,a2
    21d4:	9ec43023          	sd	a2,-1568(s0)
    21d8:	ed043883          	ld	a7,-304(s0)
    21dc:	031d0533          	mul	a0,s10,a7
    21e0:	9e843603          	ld	a2,-1560(s0)
    21e4:	00c50633          	add	a2,a0,a2
    21e8:	9ec43423          	sd	a2,-1560(s0)
    21ec:	027d0533          	mul	a0,s10,t2
    21f0:	9f043603          	ld	a2,-1552(s0)
    21f4:	00c50633          	add	a2,a0,a2
    21f8:	9ec43823          	sd	a2,-1552(s0)
    21fc:	000c0e13          	mv	t3,s8
    2200:	038d0533          	mul	a0,s10,s8
    2204:	9f843603          	ld	a2,-1544(s0)
    2208:	00c50633          	add	a2,a0,a2
    220c:	9ec43c23          	sd	a2,-1544(s0)
    2210:	000a0393          	mv	t2,s4
    2214:	034d0533          	mul	a0,s10,s4
    2218:	a0043603          	ld	a2,-1536(s0)
    221c:	00c50633          	add	a2,a0,a2
    2220:	a0c43023          	sd	a2,-1536(s0)
    2224:	021d0533          	mul	a0,s10,ra
    2228:	a0843603          	ld	a2,-1528(s0)
    222c:	00c50633          	add	a2,a0,a2
    2230:	a0c43423          	sd	a2,-1528(s0)
    2234:	e4843083          	ld	ra,-440(s0)
    2238:	021d0533          	mul	a0,s10,ra
    223c:	a1043603          	ld	a2,-1520(s0)
    2240:	00c50633          	add	a2,a0,a2
    2244:	a0c43823          	sd	a2,-1520(s0)
    2248:	02ed0533          	mul	a0,s10,a4
    224c:	a1843603          	ld	a2,-1512(s0)
    2250:	00c50633          	add	a2,a0,a2
    2254:	a0c43c23          	sd	a2,-1512(s0)
    2258:	02fd0533          	mul	a0,s10,a5
    225c:	a2043603          	ld	a2,-1504(s0)
    2260:	00c50633          	add	a2,a0,a2
    2264:	a2c43023          	sd	a2,-1504(s0)
    2268:	ea843e83          	ld	t4,-344(s0)
    226c:	03dd0533          	mul	a0,s10,t4
    2270:	a2843603          	ld	a2,-1496(s0)
    2274:	00c50633          	add	a2,a0,a2
    2278:	a2c43423          	sd	a2,-1496(s0)
    227c:	026d0533          	mul	a0,s10,t1
    2280:	a3043603          	ld	a2,-1488(s0)
    2284:	00c50633          	add	a2,a0,a2
    2288:	a2c43823          	sd	a2,-1488(s0)
    228c:	e5043303          	ld	t1,-432(s0)
    2290:	026d0533          	mul	a0,s10,t1
    2294:	a3843603          	ld	a2,-1480(s0)
    2298:	00c50633          	add	a2,a0,a2
    229c:	a2c43c23          	sd	a2,-1480(s0)
    22a0:	00001537          	lui	a0,0x1
    22a4:	40a40533          	sub	a0,s0,a0
    22a8:	65853c03          	ld	s8,1624(a0) # 1658 <.LBB95_5+0xf8>
    22ac:	038d0533          	mul	a0,s10,s8
    22b0:	a4043603          	ld	a2,-1472(s0)
    22b4:	00c50633          	add	a2,a0,a2
    22b8:	a4c43023          	sd	a2,-1472(s0)
    22bc:	e7843503          	ld	a0,-392(s0)
    22c0:	02ad0533          	mul	a0,s10,a0
    22c4:	a4843603          	ld	a2,-1464(s0)
    22c8:	00c50633          	add	a2,a0,a2
    22cc:	a4c43423          	sd	a2,-1464(s0)
    22d0:	f4843503          	ld	a0,-184(s0)
    22d4:	02ad0533          	mul	a0,s10,a0
    22d8:	a5043603          	ld	a2,-1456(s0)
    22dc:	00c50633          	add	a2,a0,a2
    22e0:	a4c43823          	sd	a2,-1456(s0)
    22e4:	025d0533          	mul	a0,s10,t0
    22e8:	a5843603          	ld	a2,-1448(s0)
    22ec:	00c50633          	add	a2,a0,a2
    22f0:	a4c43c23          	sd	a2,-1448(s0)
    22f4:	e8043503          	ld	a0,-384(s0)
    22f8:	00050503          	lb	a0,0(a0)
    22fc:	03bd0b33          	mul	s6,s10,s11
    2300:	a6043603          	ld	a2,-1440(s0)
    2304:	00cb0633          	add	a2,s6,a2
    2308:	a6c43023          	sd	a2,-1440(s0)
    230c:	e9843a03          	ld	s4,-360(s0)
    2310:	034d0b33          	mul	s6,s10,s4
    2314:	a6843603          	ld	a2,-1432(s0)
    2318:	00cb0633          	add	a2,s6,a2
    231c:	a6c43423          	sd	a2,-1432(s0)
    2320:	03750b33          	mul	s6,a0,s7
    2324:	a7043603          	ld	a2,-1424(s0)
    2328:	00cb0633          	add	a2,s6,a2
    232c:	a6c43823          	sd	a2,-1424(s0)
    2330:	02d50b33          	mul	s6,a0,a3
    2334:	00068b93          	mv	s7,a3
    2338:	a7843603          	ld	a2,-1416(s0)
    233c:	00cb0633          	add	a2,s6,a2
    2340:	a6c43c23          	sd	a2,-1416(s0)
    2344:	02950b33          	mul	s6,a0,s1
    2348:	a8043603          	ld	a2,-1408(s0)
    234c:	00cb0633          	add	a2,s6,a2
    2350:	a8c43023          	sd	a2,-1408(s0)
    2354:	02b50b33          	mul	s6,a0,a1
    2358:	a8843603          	ld	a2,-1400(s0)
    235c:	00cb0633          	add	a2,s6,a2
    2360:	a8c43423          	sd	a2,-1400(s0)
    2364:	f6843c83          	ld	s9,-152(s0)
    2368:	03950b33          	mul	s6,a0,s9
    236c:	a9043603          	ld	a2,-1392(s0)
    2370:	00cb0633          	add	a2,s6,a2
    2374:	a8c43823          	sd	a2,-1392(s0)
    2378:	f7843783          	ld	a5,-136(s0)
    237c:	02f50b33          	mul	s6,a0,a5
    2380:	a9843603          	ld	a2,-1384(s0)
    2384:	00cb0633          	add	a2,s6,a2
    2388:	a8c43c23          	sd	a2,-1384(s0)
    238c:	f3843683          	ld	a3,-200(s0)
    2390:	02d50b33          	mul	s6,a0,a3
    2394:	aa043603          	ld	a2,-1376(s0)
    2398:	00cb0633          	add	a2,s6,a2
    239c:	aac43023          	sd	a2,-1376(s0)
    23a0:	ee043703          	ld	a4,-288(s0)
    23a4:	02e50b33          	mul	s6,a0,a4
    23a8:	aa843603          	ld	a2,-1368(s0)
    23ac:	00cb0633          	add	a2,s6,a2
    23b0:	aac43423          	sd	a2,-1368(s0)
    23b4:	03050b33          	mul	s6,a0,a6
    23b8:	ab043603          	ld	a2,-1360(s0)
    23bc:	00cb0633          	add	a2,s6,a2
    23c0:	aac43823          	sd	a2,-1360(s0)
    23c4:	03550b33          	mul	s6,a0,s5
    23c8:	ab843603          	ld	a2,-1352(s0)
    23cc:	00cb0633          	add	a2,s6,a2
    23d0:	aac43c23          	sd	a2,-1352(s0)
    23d4:	03f50b33          	mul	s6,a0,t6
    23d8:	ac043603          	ld	a2,-1344(s0)
    23dc:	00cb0633          	add	a2,s6,a2
    23e0:	acc43023          	sd	a2,-1344(s0)
    23e4:	03350b33          	mul	s6,a0,s3
    23e8:	ac843603          	ld	a2,-1336(s0)
    23ec:	00cb0633          	add	a2,s6,a2
    23f0:	acc43423          	sd	a2,-1336(s0)
    23f4:	03250b33          	mul	s6,a0,s2
    23f8:	ad043603          	ld	a2,-1328(s0)
    23fc:	00cb0633          	add	a2,s6,a2
    2400:	acc43823          	sd	a2,-1328(s0)
    2404:	ed843583          	ld	a1,-296(s0)
    2408:	02b50b33          	mul	s6,a0,a1
    240c:	ad843603          	ld	a2,-1320(s0)
    2410:	00cb0633          	add	a2,s6,a2
    2414:	acc43c23          	sd	a2,-1320(s0)
    2418:	03e50b33          	mul	s6,a0,t5
    241c:	ae043603          	ld	a2,-1312(s0)
    2420:	00cb0633          	add	a2,s6,a2
    2424:	aec43023          	sd	a2,-1312(s0)
    2428:	03150b33          	mul	s6,a0,a7
    242c:	ae843603          	ld	a2,-1304(s0)
    2430:	00cb0633          	add	a2,s6,a2
    2434:	aec43423          	sd	a2,-1304(s0)
    2438:	f2043f03          	ld	t5,-224(s0)
    243c:	03e50b33          	mul	s6,a0,t5
    2440:	af043603          	ld	a2,-1296(s0)
    2444:	00cb0633          	add	a2,s6,a2
    2448:	aec43823          	sd	a2,-1296(s0)
    244c:	03c50b33          	mul	s6,a0,t3
    2450:	af843603          	ld	a2,-1288(s0)
    2454:	00cb0633          	add	a2,s6,a2
    2458:	aec43c23          	sd	a2,-1288(s0)
    245c:	02750b33          	mul	s6,a0,t2
    2460:	b0043603          	ld	a2,-1280(s0)
    2464:	00cb0633          	add	a2,s6,a2
    2468:	b0c43023          	sd	a2,-1280(s0)
    246c:	ea043583          	ld	a1,-352(s0)
    2470:	02b50b33          	mul	s6,a0,a1
    2474:	b0843603          	ld	a2,-1272(s0)
    2478:	00cb0633          	add	a2,s6,a2
    247c:	b0c43423          	sd	a2,-1272(s0)
    2480:	00008e13          	mv	t3,ra
    2484:	02150b33          	mul	s6,a0,ra
    2488:	b1043603          	ld	a2,-1264(s0)
    248c:	00cb0633          	add	a2,s6,a2
    2490:	b0c43823          	sd	a2,-1264(s0)
    2494:	ee843d83          	ld	s11,-280(s0)
    2498:	03b50b33          	mul	s6,a0,s11
    249c:	b1843603          	ld	a2,-1256(s0)
    24a0:	00cb0633          	add	a2,s6,a2
    24a4:	b0c43c23          	sd	a2,-1256(s0)
    24a8:	f5843483          	ld	s1,-168(s0)
    24ac:	02950b33          	mul	s6,a0,s1
    24b0:	b2043603          	ld	a2,-1248(s0)
    24b4:	00cb0633          	add	a2,s6,a2
    24b8:	b2c43023          	sd	a2,-1248(s0)
    24bc:	03d50b33          	mul	s6,a0,t4
    24c0:	b2843603          	ld	a2,-1240(s0)
    24c4:	00cb0633          	add	a2,s6,a2
    24c8:	b2c43423          	sd	a2,-1240(s0)
    24cc:	f5043903          	ld	s2,-176(s0)
    24d0:	03250b33          	mul	s6,a0,s2
    24d4:	b3043603          	ld	a2,-1232(s0)
    24d8:	00cb0633          	add	a2,s6,a2
    24dc:	b2c43823          	sd	a2,-1232(s0)
    24e0:	00030893          	mv	a7,t1
    24e4:	02650b33          	mul	s6,a0,t1
    24e8:	b3843603          	ld	a2,-1224(s0)
    24ec:	00cb0633          	add	a2,s6,a2
    24f0:	b2c43c23          	sd	a2,-1224(s0)
    24f4:	03850b33          	mul	s6,a0,s8
    24f8:	b4043603          	ld	a2,-1216(s0)
    24fc:	00cb0633          	add	a2,s6,a2
    2500:	b4c43023          	sd	a2,-1216(s0)
    2504:	e7843e83          	ld	t4,-392(s0)
    2508:	03d50b33          	mul	s6,a0,t4
    250c:	b4843603          	ld	a2,-1208(s0)
    2510:	00cb0633          	add	a2,s6,a2
    2514:	b4c43423          	sd	a2,-1208(s0)
    2518:	f4843f83          	ld	t6,-184(s0)
    251c:	03f50b33          	mul	s6,a0,t6
    2520:	b5043603          	ld	a2,-1200(s0)
    2524:	00cb0633          	add	a2,s6,a2
    2528:	b4c43823          	sd	a2,-1200(s0)
    252c:	02550b33          	mul	s6,a0,t0
    2530:	b5843603          	ld	a2,-1192(s0)
    2534:	00cb0633          	add	a2,s6,a2
    2538:	b4c43c23          	sd	a2,-1192(s0)
    253c:	f6043603          	ld	a2,-160(s0)
    2540:	88060d03          	lb	s10,-1920(a2)
    2544:	ec843983          	ld	s3,-312(s0)
    2548:	03350b33          	mul	s6,a0,s3
    254c:	b6043603          	ld	a2,-1184(s0)
    2550:	00cb0633          	add	a2,s6,a2
    2554:	b6c43023          	sd	a2,-1184(s0)
    2558:	03450533          	mul	a0,a0,s4
    255c:	b6843603          	ld	a2,-1176(s0)
    2560:	00c50633          	add	a2,a0,a2
    2564:	b6c43423          	sd	a2,-1176(s0)
    2568:	f3043083          	ld	ra,-208(s0)
    256c:	021d0533          	mul	a0,s10,ra
    2570:	b7043603          	ld	a2,-1168(s0)
    2574:	00c50633          	add	a2,a0,a2
    2578:	b6c43823          	sd	a2,-1168(s0)
    257c:	037d0533          	mul	a0,s10,s7
    2580:	b7843603          	ld	a2,-1160(s0)
    2584:	00c50633          	add	a2,a0,a2
    2588:	b6c43c23          	sd	a2,-1160(s0)
    258c:	eb043803          	ld	a6,-336(s0)
    2590:	030d0533          	mul	a0,s10,a6
    2594:	b8043603          	ld	a2,-1152(s0)
    2598:	00c50633          	add	a2,a0,a2
    259c:	b8c43023          	sd	a2,-1152(s0)
    25a0:	f4043303          	ld	t1,-192(s0)
    25a4:	026d0533          	mul	a0,s10,t1
    25a8:	b8843603          	ld	a2,-1144(s0)
    25ac:	00c50633          	add	a2,a0,a2
    25b0:	b8c43423          	sd	a2,-1144(s0)
    25b4:	039d0533          	mul	a0,s10,s9
    25b8:	b9043603          	ld	a2,-1136(s0)
    25bc:	00c50633          	add	a2,a0,a2
    25c0:	b8c43823          	sd	a2,-1136(s0)
    25c4:	02fd0533          	mul	a0,s10,a5
    25c8:	b9843603          	ld	a2,-1128(s0)
    25cc:	00c50633          	add	a2,a0,a2
    25d0:	b8c43c23          	sd	a2,-1128(s0)
    25d4:	02dd0533          	mul	a0,s10,a3
    25d8:	ba043603          	ld	a2,-1120(s0)
    25dc:	00c50633          	add	a2,a0,a2
    25e0:	bac43023          	sd	a2,-1120(s0)
    25e4:	02ed0533          	mul	a0,s10,a4
    25e8:	00070b93          	mv	s7,a4
    25ec:	ba843603          	ld	a2,-1112(s0)
    25f0:	00c50633          	add	a2,a0,a2
    25f4:	bac43423          	sd	a2,-1112(s0)
    25f8:	e9043683          	ld	a3,-368(s0)
    25fc:	02dd0533          	mul	a0,s10,a3
    2600:	bb043603          	ld	a2,-1104(s0)
    2604:	00c50633          	add	a2,a0,a2
    2608:	bac43823          	sd	a2,-1104(s0)
    260c:	035d0533          	mul	a0,s10,s5
    2610:	bb843603          	ld	a2,-1096(s0)
    2614:	00c50633          	add	a2,a0,a2
    2618:	bac43c23          	sd	a2,-1096(s0)
    261c:	f2843703          	ld	a4,-216(s0)
    2620:	02ed0533          	mul	a0,s10,a4
    2624:	bc043603          	ld	a2,-1088(s0)
    2628:	00c50633          	add	a2,a0,a2
    262c:	bcc43023          	sd	a2,-1088(s0)
    2630:	e6043783          	ld	a5,-416(s0)
    2634:	02fd0533          	mul	a0,s10,a5
    2638:	bc843603          	ld	a2,-1080(s0)
    263c:	00c50633          	add	a2,a0,a2
    2640:	bcc43423          	sd	a2,-1080(s0)
    2644:	eb843503          	ld	a0,-328(s0)
    2648:	02ad0533          	mul	a0,s10,a0
    264c:	bd043603          	ld	a2,-1072(s0)
    2650:	00c50633          	add	a2,a0,a2
    2654:	bcc43823          	sd	a2,-1072(s0)
    2658:	ed843c83          	ld	s9,-296(s0)
    265c:	039d0533          	mul	a0,s10,s9
    2660:	bd843603          	ld	a2,-1064(s0)
    2664:	00c50633          	add	a2,a0,a2
    2668:	bcc43c23          	sd	a2,-1064(s0)
    266c:	e7043503          	ld	a0,-400(s0)
    2670:	02ad0533          	mul	a0,s10,a0
    2674:	be043603          	ld	a2,-1056(s0)
    2678:	00c50633          	add	a2,a0,a2
    267c:	bec43023          	sd	a2,-1056(s0)
    2680:	ed043503          	ld	a0,-304(s0)
    2684:	02ad0533          	mul	a0,s10,a0
    2688:	be843603          	ld	a2,-1048(s0)
    268c:	00c50633          	add	a2,a0,a2
    2690:	bec43423          	sd	a2,-1048(s0)
    2694:	03ed0533          	mul	a0,s10,t5
    2698:	bf043603          	ld	a2,-1040(s0)
    269c:	00c50633          	add	a2,a0,a2
    26a0:	bec43823          	sd	a2,-1040(s0)
    26a4:	e6843f03          	ld	t5,-408(s0)
    26a8:	03ed0533          	mul	a0,s10,t5
    26ac:	bf843603          	ld	a2,-1032(s0)
    26b0:	00c50633          	add	a2,a0,a2
    26b4:	bec43c23          	sd	a2,-1032(s0)
    26b8:	027d0533          	mul	a0,s10,t2
    26bc:	c0043603          	ld	a2,-1024(s0)
    26c0:	00c50633          	add	a2,a0,a2
    26c4:	c0c43023          	sd	a2,-1024(s0)
    26c8:	02bd0533          	mul	a0,s10,a1
    26cc:	c0843603          	ld	a2,-1016(s0)
    26d0:	00c50633          	add	a2,a0,a2
    26d4:	c0c43423          	sd	a2,-1016(s0)
    26d8:	03cd0533          	mul	a0,s10,t3
    26dc:	c1043603          	ld	a2,-1008(s0)
    26e0:	00c50633          	add	a2,a0,a2
    26e4:	c0c43823          	sd	a2,-1008(s0)
    26e8:	000d8593          	mv	a1,s11
    26ec:	03bd0533          	mul	a0,s10,s11
    26f0:	c1843603          	ld	a2,-1000(s0)
    26f4:	00c50633          	add	a2,a0,a2
    26f8:	c0c43c23          	sd	a2,-1000(s0)
    26fc:	029d0533          	mul	a0,s10,s1
    2700:	c2043603          	ld	a2,-992(s0)
    2704:	00c50633          	add	a2,a0,a2
    2708:	c2c43023          	sd	a2,-992(s0)
    270c:	ea843d83          	ld	s11,-344(s0)
    2710:	03bd0533          	mul	a0,s10,s11
    2714:	c2843603          	ld	a2,-984(s0)
    2718:	00c50633          	add	a2,a0,a2
    271c:	c2c43423          	sd	a2,-984(s0)
    2720:	032d0533          	mul	a0,s10,s2
    2724:	c3043603          	ld	a2,-976(s0)
    2728:	00c50633          	add	a2,a0,a2
    272c:	c2c43823          	sd	a2,-976(s0)
    2730:	031d0533          	mul	a0,s10,a7
    2734:	c3843603          	ld	a2,-968(s0)
    2738:	00c50633          	add	a2,a0,a2
    273c:	c2c43c23          	sd	a2,-968(s0)
    2740:	000c0893          	mv	a7,s8
    2744:	038d0533          	mul	a0,s10,s8
    2748:	c4043603          	ld	a2,-960(s0)
    274c:	00c50633          	add	a2,a0,a2
    2750:	c4c43023          	sd	a2,-960(s0)
    2754:	03dd0533          	mul	a0,s10,t4
    2758:	c4843603          	ld	a2,-952(s0)
    275c:	00c50633          	add	a2,a0,a2
    2760:	c4c43423          	sd	a2,-952(s0)
    2764:	03fd0533          	mul	a0,s10,t6
    2768:	c5043603          	ld	a2,-944(s0)
    276c:	00c50633          	add	a2,a0,a2
    2770:	c4c43823          	sd	a2,-944(s0)
    2774:	025d0533          	mul	a0,s10,t0
    2778:	c5843603          	ld	a2,-936(s0)
    277c:	00c50633          	add	a2,a0,a2
    2780:	c4c43c23          	sd	a2,-936(s0)
    2784:	f6043c03          	ld	s8,-160(s0)
    2788:	c40c0503          	lb	a0,-960(s8)
    278c:	033d0b33          	mul	s6,s10,s3
    2790:	00098f93          	mv	t6,s3
    2794:	c6043603          	ld	a2,-928(s0)
    2798:	00cb0633          	add	a2,s6,a2
    279c:	c6c43023          	sd	a2,-928(s0)
    27a0:	034d0b33          	mul	s6,s10,s4
    27a4:	c6843603          	ld	a2,-920(s0)
    27a8:	00cb0633          	add	a2,s6,a2
    27ac:	c6c43423          	sd	a2,-920(s0)
    27b0:	02150b33          	mul	s6,a0,ra
    27b4:	c7043603          	ld	a2,-912(s0)
    27b8:	00cb0633          	add	a2,s6,a2
    27bc:	c6c43823          	sd	a2,-912(s0)
    27c0:	f7043603          	ld	a2,-144(s0)
    27c4:	02c50b33          	mul	s6,a0,a2
    27c8:	c7843603          	ld	a2,-904(s0)
    27cc:	00cb0633          	add	a2,s6,a2
    27d0:	c6c43c23          	sd	a2,-904(s0)
    27d4:	03050b33          	mul	s6,a0,a6
    27d8:	c8043603          	ld	a2,-896(s0)
    27dc:	00cb0633          	add	a2,s6,a2
    27e0:	c8c43023          	sd	a2,-896(s0)
    27e4:	02650b33          	mul	s6,a0,t1
    27e8:	c8843603          	ld	a2,-888(s0)
    27ec:	00cb0633          	add	a2,s6,a2
    27f0:	c8c43423          	sd	a2,-888(s0)
    27f4:	f6843603          	ld	a2,-152(s0)
    27f8:	02c50b33          	mul	s6,a0,a2
    27fc:	c9043603          	ld	a2,-880(s0)
    2800:	00cb0633          	add	a2,s6,a2
    2804:	c8c43823          	sd	a2,-880(s0)
    2808:	f7843603          	ld	a2,-136(s0)
    280c:	02c50b33          	mul	s6,a0,a2
    2810:	c9843603          	ld	a2,-872(s0)
    2814:	00cb0633          	add	a2,s6,a2
    2818:	c8c43c23          	sd	a2,-872(s0)
    281c:	f3843603          	ld	a2,-200(s0)
    2820:	02c50b33          	mul	s6,a0,a2
    2824:	ca043603          	ld	a2,-864(s0)
    2828:	00cb0633          	add	a2,s6,a2
    282c:	cac43023          	sd	a2,-864(s0)
    2830:	000b8093          	mv	ra,s7
    2834:	03750b33          	mul	s6,a0,s7
    2838:	ca843603          	ld	a2,-856(s0)
    283c:	00cb0633          	add	a2,s6,a2
    2840:	cac43423          	sd	a2,-856(s0)
    2844:	02d50b33          	mul	s6,a0,a3
    2848:	cb043603          	ld	a2,-848(s0)
    284c:	00cb0633          	add	a2,s6,a2
    2850:	cac43823          	sd	a2,-848(s0)
    2854:	000a8b93          	mv	s7,s5
    2858:	03550b33          	mul	s6,a0,s5
    285c:	cb843603          	ld	a2,-840(s0)
    2860:	00cb0633          	add	a2,s6,a2
    2864:	cac43c23          	sd	a2,-840(s0)
    2868:	02e50b33          	mul	s6,a0,a4
    286c:	cc043603          	ld	a2,-832(s0)
    2870:	00cb0633          	add	a2,s6,a2
    2874:	ccc43023          	sd	a2,-832(s0)
    2878:	00078a93          	mv	s5,a5
    287c:	02f50b33          	mul	s6,a0,a5
    2880:	cc843603          	ld	a2,-824(s0)
    2884:	00cb0633          	add	a2,s6,a2
    2888:	ccc43423          	sd	a2,-824(s0)
    288c:	eb843a03          	ld	s4,-328(s0)
    2890:	03450b33          	mul	s6,a0,s4
    2894:	cd043603          	ld	a2,-816(s0)
    2898:	00cb0633          	add	a2,s6,a2
    289c:	ccc43823          	sd	a2,-816(s0)
    28a0:	03950b33          	mul	s6,a0,s9
    28a4:	cd843603          	ld	a2,-808(s0)
    28a8:	00cb0633          	add	a2,s6,a2
    28ac:	ccc43c23          	sd	a2,-808(s0)
    28b0:	e7043983          	ld	s3,-400(s0)
    28b4:	03350b33          	mul	s6,a0,s3
    28b8:	ce043603          	ld	a2,-800(s0)
    28bc:	00cb0633          	add	a2,s6,a2
    28c0:	cec43023          	sd	a2,-800(s0)
    28c4:	ed043483          	ld	s1,-304(s0)
    28c8:	02950b33          	mul	s6,a0,s1
    28cc:	ce843603          	ld	a2,-792(s0)
    28d0:	00cb0633          	add	a2,s6,a2
    28d4:	cec43423          	sd	a2,-792(s0)
    28d8:	f2043e03          	ld	t3,-224(s0)
    28dc:	03c50b33          	mul	s6,a0,t3
    28e0:	cf043603          	ld	a2,-784(s0)
    28e4:	00cb0633          	add	a2,s6,a2
    28e8:	cec43823          	sd	a2,-784(s0)
    28ec:	000f0393          	mv	t2,t5
    28f0:	03e50b33          	mul	s6,a0,t5
    28f4:	cf843603          	ld	a2,-776(s0)
    28f8:	00cb0633          	add	a2,s6,a2
    28fc:	cec43c23          	sd	a2,-776(s0)
    2900:	ec043f03          	ld	t5,-320(s0)
    2904:	03e50b33          	mul	s6,a0,t5
    2908:	d0043603          	ld	a2,-768(s0)
    290c:	00cb0633          	add	a2,s6,a2
    2910:	d0c43023          	sd	a2,-768(s0)
    2914:	ea043803          	ld	a6,-352(s0)
    2918:	03050b33          	mul	s6,a0,a6
    291c:	d0843603          	ld	a2,-760(s0)
    2920:	00cb0633          	add	a2,s6,a2
    2924:	d0c43423          	sd	a2,-760(s0)
    2928:	e4843783          	ld	a5,-440(s0)
    292c:	02f50b33          	mul	s6,a0,a5
    2930:	d1043603          	ld	a2,-752(s0)
    2934:	00cb0633          	add	a2,s6,a2
    2938:	d0c43823          	sd	a2,-752(s0)
    293c:	02b50b33          	mul	s6,a0,a1
    2940:	00058c93          	mv	s9,a1
    2944:	d1843603          	ld	a2,-744(s0)
    2948:	00cb0633          	add	a2,s6,a2
    294c:	d0c43c23          	sd	a2,-744(s0)
    2950:	f5843703          	ld	a4,-168(s0)
    2954:	02e50b33          	mul	s6,a0,a4
    2958:	d2043603          	ld	a2,-736(s0)
    295c:	00cb0633          	add	a2,s6,a2
    2960:	d2c43023          	sd	a2,-736(s0)
    2964:	03b50b33          	mul	s6,a0,s11
    2968:	d2843603          	ld	a2,-728(s0)
    296c:	00cb0633          	add	a2,s6,a2
    2970:	d2c43423          	sd	a2,-728(s0)
    2974:	03250b33          	mul	s6,a0,s2
    2978:	d3043603          	ld	a2,-720(s0)
    297c:	00cb0633          	add	a2,s6,a2
    2980:	d2c43823          	sd	a2,-720(s0)
    2984:	e5043683          	ld	a3,-432(s0)
    2988:	02d50b33          	mul	s6,a0,a3
    298c:	d3843603          	ld	a2,-712(s0)
    2990:	00cb0633          	add	a2,s6,a2
    2994:	d2c43c23          	sd	a2,-712(s0)
    2998:	00088593          	mv	a1,a7
    299c:	03150b33          	mul	s6,a0,a7
    29a0:	d4043603          	ld	a2,-704(s0)
    29a4:	00cb0633          	add	a2,s6,a2
    29a8:	d4c43023          	sd	a2,-704(s0)
    29ac:	000e8293          	mv	t0,t4
    29b0:	03d50b33          	mul	s6,a0,t4
    29b4:	d4843603          	ld	a2,-696(s0)
    29b8:	00cb0633          	add	a2,s6,a2
    29bc:	d4c43423          	sd	a2,-696(s0)
    29c0:	f4843e83          	ld	t4,-184(s0)
    29c4:	03d50b33          	mul	s6,a0,t4
    29c8:	d5043603          	ld	a2,-688(s0)
    29cc:	00cb0633          	add	a2,s6,a2
    29d0:	d4c43823          	sd	a2,-688(s0)
    29d4:	e5843883          	ld	a7,-424(s0)
    29d8:	03150b33          	mul	s6,a0,a7
    29dc:	d5843603          	ld	a2,-680(s0)
    29e0:	00cb0633          	add	a2,s6,a2
    29e4:	d4c43c23          	sd	a2,-680(s0)
    29e8:	000c0b03          	lb	s6,0(s8)
    29ec:	03f50d33          	mul	s10,a0,t6
    29f0:	d6043603          	ld	a2,-672(s0)
    29f4:	00cd0633          	add	a2,s10,a2
    29f8:	d6c43023          	sd	a2,-672(s0)
    29fc:	e9843303          	ld	t1,-360(s0)
    2a00:	02650533          	mul	a0,a0,t1
    2a04:	d6843603          	ld	a2,-664(s0)
    2a08:	00c50633          	add	a2,a0,a2
    2a0c:	d6c43423          	sd	a2,-664(s0)
    2a10:	026b0533          	mul	a0,s6,t1
    2a14:	e8a43c23          	sd	a0,-360(s0)
    2a18:	03fb0533          	mul	a0,s6,t6
    2a1c:	eca43423          	sd	a0,-312(s0)
    2a20:	031b0533          	mul	a0,s6,a7
    2a24:	e4a43c23          	sd	a0,-424(s0)
    2a28:	03db0533          	mul	a0,s6,t4
    2a2c:	f4a43423          	sd	a0,-184(s0)
    2a30:	025b0533          	mul	a0,s6,t0
    2a34:	00001637          	lui	a2,0x1
    2a38:	40c40633          	sub	a2,s0,a2
    2a3c:	64a63823          	sd	a0,1616(a2) # 1650 <.LBB95_5+0xf0>
    2a40:	02bb0533          	mul	a0,s6,a1
    2a44:	e6a43c23          	sd	a0,-392(s0)
    2a48:	02db0533          	mul	a0,s6,a3
    2a4c:	e4a43823          	sd	a0,-432(s0)
    2a50:	032b0533          	mul	a0,s6,s2
    2a54:	f4a43823          	sd	a0,-176(s0)
    2a58:	03bb0533          	mul	a0,s6,s11
    2a5c:	eaa43423          	sd	a0,-344(s0)
    2a60:	02eb0533          	mul	a0,s6,a4
    2a64:	f4a43c23          	sd	a0,-168(s0)
    2a68:	039b0c33          	mul	s8,s6,s9
    2a6c:	02fb0cb3          	mul	s9,s6,a5
    2a70:	030b0d33          	mul	s10,s6,a6
    2a74:	03eb0eb3          	mul	t4,s6,t5
    2a78:	027b0333          	mul	t1,s6,t2
    2a7c:	03cb02b3          	mul	t0,s6,t3
    2a80:	029b08b3          	mul	a7,s6,s1
    2a84:	033b0f33          	mul	t5,s6,s3
    2a88:	ed843503          	ld	a0,-296(s0)
    2a8c:	02ab0fb3          	mul	t6,s6,a0
    2a90:	034b0933          	mul	s2,s6,s4
    2a94:	035b09b3          	mul	s3,s6,s5
    2a98:	f2843503          	ld	a0,-216(s0)
    2a9c:	02ab0a33          	mul	s4,s6,a0
    2aa0:	037b0ab3          	mul	s5,s6,s7
    2aa4:	e9043503          	ld	a0,-368(s0)
    2aa8:	02ab0db3          	mul	s11,s6,a0
    2aac:	021b00b3          	mul	ra,s6,ra
    2ab0:	f3843503          	ld	a0,-200(s0)
    2ab4:	02ab0733          	mul	a4,s6,a0
    2ab8:	f7843503          	ld	a0,-136(s0)
    2abc:	02ab0bb3          	mul	s7,s6,a0
    2ac0:	f6843503          	ld	a0,-152(s0)
    2ac4:	02ab06b3          	mul	a3,s6,a0
    2ac8:	f4043503          	ld	a0,-192(s0)
    2acc:	02ab0633          	mul	a2,s6,a0
    2ad0:	eb043503          	ld	a0,-336(s0)
    2ad4:	02ab05b3          	mul	a1,s6,a0
    2ad8:	f7043503          	ld	a0,-144(s0)
    2adc:	02ab0533          	mul	a0,s6,a0
    2ae0:	f3043783          	ld	a5,-208(s0)
    2ae4:	02fb0b33          	mul	s6,s6,a5
    2ae8:	d7043783          	ld	a5,-656(s0)
    2aec:	00fb07b3          	add	a5,s6,a5
    2af0:	d6f43823          	sd	a5,-656(s0)
    2af4:	dd043b03          	ld	s6,-560(s0)
    2af8:	d7843783          	ld	a5,-648(s0)
    2afc:	00f507b3          	add	a5,a0,a5
    2b00:	d6f43c23          	sd	a5,-648(s0)
    2b04:	d8043503          	ld	a0,-640(s0)
    2b08:	00a58533          	add	a0,a1,a0
    2b0c:	d8a43023          	sd	a0,-640(s0)
    2b10:	d8843503          	ld	a0,-632(s0)
    2b14:	00a60533          	add	a0,a2,a0
    2b18:	d8a43423          	sd	a0,-632(s0)
    2b1c:	d9043503          	ld	a0,-624(s0)
    2b20:	00a68533          	add	a0,a3,a0
    2b24:	d8a43823          	sd	a0,-624(s0)
    2b28:	d9843503          	ld	a0,-616(s0)
    2b2c:	00ab8533          	add	a0,s7,a0
    2b30:	d8a43c23          	sd	a0,-616(s0)
    2b34:	dc843b83          	ld	s7,-568(s0)
    2b38:	da043503          	ld	a0,-608(s0)
    2b3c:	00a70533          	add	a0,a4,a0
    2b40:	daa43023          	sd	a0,-608(s0)
    2b44:	e4043703          	ld	a4,-448(s0)
    2b48:	da843503          	ld	a0,-600(s0)
    2b4c:	00a08533          	add	a0,ra,a0
    2b50:	daa43423          	sd	a0,-600(s0)
    2b54:	db043083          	ld	ra,-592(s0)
    2b58:	ef843503          	ld	a0,-264(s0)
    2b5c:	00ad8533          	add	a0,s11,a0
    2b60:	eea43c23          	sd	a0,-264(s0)
    2b64:	ef843d83          	ld	s11,-264(s0)
    2b68:	001a80b3          	add	ra,s5,ra
    2b6c:	dd843a83          	ld	s5,-552(s0)
    2b70:	db843503          	ld	a0,-584(s0)
    2b74:	00aa0533          	add	a0,s4,a0
    2b78:	daa43c23          	sd	a0,-584(s0)
    2b7c:	de043a03          	ld	s4,-544(s0)
    2b80:	dc043503          	ld	a0,-576(s0)
    2b84:	00a98533          	add	a0,s3,a0
    2b88:	dca43023          	sd	a0,-576(s0)
    2b8c:	de843983          	ld	s3,-536(s0)
    2b90:	01790bb3          	add	s7,s2,s7
    2b94:	df043903          	ld	s2,-528(s0)
    2b98:	016f8b33          	add	s6,t6,s6
    2b9c:	df843f83          	ld	t6,-520(s0)
    2ba0:	015f0ab3          	add	s5,t5,s5
    2ba4:	e0043f03          	ld	t5,-512(s0)
    2ba8:	01488a33          	add	s4,a7,s4
    2bac:	e2843883          	ld	a7,-472(s0)
    2bb0:	013289b3          	add	s3,t0,s3
    2bb4:	e2043283          	ld	t0,-480(s0)
    2bb8:	01230933          	add	s2,t1,s2
    2bbc:	00001537          	lui	a0,0x1
    2bc0:	40a40533          	sub	a0,s0,a0
    2bc4:	66853303          	ld	t1,1640(a0) # 1668 <.LBB95_5+0x108>
    2bc8:	01fe8fb3          	add	t6,t4,t6
    2bcc:	e1043383          	ld	t2,-496(s0)
    2bd0:	f0043503          	ld	a0,-256(s0)
    2bd4:	00ad0533          	add	a0,s10,a0
    2bd8:	000015b7          	lui	a1,0x1
    2bdc:	40b405b3          	sub	a1,s0,a1
    2be0:	6705bd03          	ld	s10,1648(a1) # 1670 <.LBB95_5+0x110>
    2be4:	f0a43023          	sd	a0,-256(s0)
    2be8:	f0043683          	ld	a3,-256(s0)
    2bec:	f0843503          	ld	a0,-248(s0)
    2bf0:	00ac8533          	add	a0,s9,a0
    2bf4:	000015b7          	lui	a1,0x1
    2bf8:	40b405b3          	sub	a1,s0,a1
    2bfc:	6785bc83          	ld	s9,1656(a1) # 1678 <.LBB95_5+0x118>
    2c00:	f0a43423          	sd	a0,-248(s0)
    2c04:	f0843603          	ld	a2,-248(s0)
    2c08:	01ec0f33          	add	t5,s8,t5
    2c0c:	e0843e03          	ld	t3,-504(s0)
    2c10:	f1043503          	ld	a0,-240(s0)
    2c14:	f5843583          	ld	a1,-168(s0)
    2c18:	00a58533          	add	a0,a1,a0
    2c1c:	ef043e83          	ld	t4,-272(s0)
    2c20:	f0a43823          	sd	a0,-240(s0)
    2c24:	f1043583          	ld	a1,-240(s0)
    2c28:	ea843503          	ld	a0,-344(s0)
    2c2c:	01c50e33          	add	t3,a0,t3
    2c30:	f8843483          	ld	s1,-120(s0)
    2c34:	f1843503          	ld	a0,-232(s0)
    2c38:	f5043783          	ld	a5,-176(s0)
    2c3c:	00a78533          	add	a0,a5,a0
    2c40:	f0a43c23          	sd	a0,-232(s0)
    2c44:	f1843503          	ld	a0,-232(s0)
    2c48:	e5043783          	ld	a5,-432(s0)
    2c4c:	007783b3          	add	t2,a5,t2
    2c50:	e3043803          	ld	a6,-464(s0)
    2c54:	e1843783          	ld	a5,-488(s0)
    2c58:	e7843c03          	ld	s8,-392(s0)
    2c5c:	00fc07b3          	add	a5,s8,a5
    2c60:	e0f43c23          	sd	a5,-488(s0)
    2c64:	e3843783          	ld	a5,-456(s0)
    2c68:	00001c37          	lui	s8,0x1
    2c6c:	41840c33          	sub	s8,s0,s8
    2c70:	650c3c03          	ld	s8,1616(s8) # 1650 <.LBB95_5+0xf0>
    2c74:	005c02b3          	add	t0,s8,t0
    2c78:	f4843c03          	ld	s8,-184(s0)
    2c7c:	011c08b3          	add	a7,s8,a7
    2c80:	e5843c03          	ld	s8,-424(s0)
    2c84:	010c0833          	add	a6,s8,a6
    2c88:	ec843c03          	ld	s8,-312(s0)
    2c8c:	00fc07b3          	add	a5,s8,a5
    2c90:	e9843c03          	ld	s8,-360(s0)
    2c94:	00ec0733          	add	a4,s8,a4
    2c98:	0a048493          	addi	s1,s1,160
    2c9c:	001e8e93          	addi	t4,t4,1
    2ca0:	f6043c03          	ld	s8,-160(s0)
    2ca4:	001c0c13          	addi	s8,s8,1
    2ca8:	f7843023          	sd	s8,-160(s0)
    2cac:	f6030313          	addi	t1,t1,-160
    2cb0:	e8043c03          	ld	s8,-384(s0)
    2cb4:	001c0c13          	addi	s8,s8,1
    2cb8:	e9843023          	sd	s8,-384(s0)
    2cbc:	e8843c03          	ld	s8,-376(s0)
    2cc0:	001c0c13          	addi	s8,s8,1
    2cc4:	e9843423          	sd	s8,-376(s0)
    2cc8:	00030463          	beqz	t1,2cd0 <.LBB95_6>
    2ccc:	895fe06f          	j	1560 <.LBB95_5>

0000000000002cd0 <.LBB95_6>:
    2cd0:	00001537          	lui	a0,0x1
    2cd4:	40a40533          	sub	a0,s0,a0
    2cd8:	68053c03          	ld	s8,1664(a0) # 1680 <.LBB95_5+0x120>
    2cdc:	00001537          	lui	a0,0x1
    2ce0:	40a40533          	sub	a0,s0,a0
    2ce4:	68853d03          	ld	s10,1672(a0) # 1688 <.LBB95_5+0x128>
    2ce8:	00001537          	lui	a0,0x1
    2cec:	40a40533          	sub	a0,s0,a0
    2cf0:	69053c83          	ld	s9,1680(a0) # 1690 <.LBB95_5+0x130>
    2cf4:	00001537          	lui	a0,0x1
    2cf8:	40a40533          	sub	a0,s0,a0
    2cfc:	69853e83          	ld	t4,1688(a0) # 1698 <.LBB95_5+0x138>
    2d00:	00001537          	lui	a0,0x1
    2d04:	40a40533          	sub	a0,s0,a0
    2d08:	63053d83          	ld	s11,1584(a0) # 1630 <.LBB95_5+0xd0>
    2d0c:	002d9d93          	slli	s11,s11,0x2
    2d10:	00002537          	lui	a0,0x2
    2d14:	40a40533          	sub	a0,s0,a0
    2d18:	04853583          	ld	a1,72(a0) # 2048 <.LBB95_5+0xae8>
    2d1c:	01b585b3          	add	a1,a1,s11
    2d20:	00001537          	lui	a0,0x1
    2d24:	40a40533          	sub	a0,s0,a0
    2d28:	05853503          	ld	a0,88(a0) # 1058 <.LBB95_4+0xdc>
    2d2c:	00052503          	lw	a0,0(a0)
    2d30:	00002637          	lui	a2,0x2
    2d34:	40c40633          	sub	a2,s0,a2
    2d38:	04063603          	ld	a2,64(a2) # 2040 <.LBB95_5+0xae0>
    2d3c:	01b60db3          	add	s11,a2,s11
    2d40:	07cda603          	lw	a2,124(s11)
    2d44:	07c5a303          	lw	t1,124(a1)
    2d48:	00b00693          	li	a3,11
    2d4c:	02d504b3          	mul	s1,a0,a3
    2d50:	00761613          	slli	a2,a2,0x7
    2d54:	ea643423          	sd	t1,-344(s0)
    2d58:	00001537          	lui	a0,0x1
    2d5c:	40a40533          	sub	a0,s0,a0
    2d60:	6a053503          	ld	a0,1696(a0) # 16a0 <.LBB95_5+0x140>
    2d64:	00650533          	add	a0,a0,t1
    2d68:	eac43023          	sd	a2,-352(s0)
    2d6c:	00c50533          	add	a0,a0,a2
    2d70:	ffeb6337          	lui	t1,0xffeb6
    2d74:	4064863b          	subw	a2,s1,t1
    2d78:	40c5063b          	subw	a2,a0,a2
    2d7c:	40000537          	lui	a0,0x40000
    2d80:	000016b7          	lui	a3,0x1
    2d84:	40d406b3          	sub	a3,s0,a3
    2d88:	66a6b423          	sd	a0,1640(a3) # 1668 <.LBB95_5+0x108>
    2d8c:	000016b7          	lui	a3,0x1
    2d90:	40d406b3          	sub	a3,s0,a3
    2d94:	66c6b023          	sd	a2,1632(a3) # 1660 <.LBB95_5+0x100>
    2d98:	00065463          	bgez	a2,2da0 <.LBB95_8>
    2d9c:	c0000537          	lui	a0,0xc0000

0000000000002da0 <.LBB95_8>:
    2da0:	00001637          	lui	a2,0x1
    2da4:	40c40633          	sub	a2,s0,a2
    2da8:	64a63c23          	sd	a0,1624(a2) # 1658 <.LBB95_5+0xf8>
    2dac:	078da503          	lw	a0,120(s11)
    2db0:	0785a603          	lw	a2,120(a1)
    2db4:	00751693          	slli	a3,a0,0x7
    2db8:	e8c43c23          	sd	a2,-360(s0)
    2dbc:	00cc0533          	add	a0,s8,a2
    2dc0:	e8d43823          	sd	a3,-368(s0)
    2dc4:	00d50533          	add	a0,a0,a3
    2dc8:	4064863b          	subw	a2,s1,t1
    2dcc:	40c5053b          	subw	a0,a0,a2
    2dd0:	40000637          	lui	a2,0x40000
    2dd4:	000016b7          	lui	a3,0x1
    2dd8:	40d406b3          	sub	a3,s0,a3
    2ddc:	68a6b023          	sd	a0,1664(a3) # 1680 <.LBB95_5+0x120>
    2de0:	000e8c13          	mv	s8,t4
    2de4:	00055463          	bgez	a0,2dec <.LBB95_10>
    2de8:	c0000637          	lui	a2,0xc0000

0000000000002dec <.LBB95_10>:
    2dec:	00001537          	lui	a0,0x1
    2df0:	40a40533          	sub	a0,s0,a0
    2df4:	64c53823          	sd	a2,1616(a0) # 1650 <.LBB95_5+0xf0>
    2df8:	074da503          	lw	a0,116(s11)
    2dfc:	0745a603          	lw	a2,116(a1)
    2e00:	00751693          	slli	a3,a0,0x7
    2e04:	e8c43423          	sd	a2,-376(s0)
    2e08:	00cd0533          	add	a0,s10,a2
    2e0c:	e8d43023          	sd	a3,-384(s0)
    2e10:	00d50533          	add	a0,a0,a3
    2e14:	4064863b          	subw	a2,s1,t1
    2e18:	40c5053b          	subw	a0,a0,a2
    2e1c:	40000637          	lui	a2,0x40000
    2e20:	000016b7          	lui	a3,0x1
    2e24:	40d406b3          	sub	a3,s0,a3
    2e28:	68a6b423          	sd	a0,1672(a3) # 1688 <.LBB95_5+0x128>
    2e2c:	000016b7          	lui	a3,0x1
    2e30:	40d406b3          	sub	a3,s0,a3
    2e34:	6a86bd03          	ld	s10,1704(a3) # 16a8 <.LBB95_5+0x148>
    2e38:	000016b7          	lui	a3,0x1
    2e3c:	40d406b3          	sub	a3,s0,a3
    2e40:	6c86be83          	ld	t4,1736(a3) # 16c8 <.LBB95_5+0x168>
    2e44:	00055463          	bgez	a0,2e4c <.LBB95_12>
    2e48:	c0000637          	lui	a2,0xc0000

0000000000002e4c <.LBB95_12>:
    2e4c:	00001537          	lui	a0,0x1
    2e50:	40a40533          	sub	a0,s0,a0
    2e54:	62c53423          	sd	a2,1576(a0) # 1628 <.LBB95_5+0xc8>
    2e58:	070da503          	lw	a0,112(s11)
    2e5c:	0705a603          	lw	a2,112(a1)
    2e60:	00751693          	slli	a3,a0,0x7
    2e64:	e6c43c23          	sd	a2,-392(s0)
    2e68:	00001537          	lui	a0,0x1
    2e6c:	40a40533          	sub	a0,s0,a0
    2e70:	6b053503          	ld	a0,1712(a0) # 16b0 <.LBB95_5+0x150>
    2e74:	00c50533          	add	a0,a0,a2
    2e78:	e6d43823          	sd	a3,-400(s0)
    2e7c:	00d50533          	add	a0,a0,a3
    2e80:	4064863b          	subw	a2,s1,t1
    2e84:	40c5053b          	subw	a0,a0,a2
    2e88:	40000637          	lui	a2,0x40000
    2e8c:	000016b7          	lui	a3,0x1
    2e90:	40d406b3          	sub	a3,s0,a3
    2e94:	62a6b023          	sd	a0,1568(a3) # 1620 <.LBB95_5+0xc0>
    2e98:	00055463          	bgez	a0,2ea0 <.LBB95_14>
    2e9c:	c0000637          	lui	a2,0xc0000

0000000000002ea0 <.LBB95_14>:
    2ea0:	00001537          	lui	a0,0x1
    2ea4:	40a40533          	sub	a0,s0,a0
    2ea8:	60c53c23          	sd	a2,1560(a0) # 1618 <.LBB95_5+0xb8>
    2eac:	06cda503          	lw	a0,108(s11)
    2eb0:	06c5a603          	lw	a2,108(a1)
    2eb4:	00751693          	slli	a3,a0,0x7
    2eb8:	e6c43423          	sd	a2,-408(s0)
    2ebc:	00001537          	lui	a0,0x1
    2ec0:	40a40533          	sub	a0,s0,a0
    2ec4:	6b853503          	ld	a0,1720(a0) # 16b8 <.LBB95_5+0x158>
    2ec8:	00c50533          	add	a0,a0,a2
    2ecc:	e6d43023          	sd	a3,-416(s0)
    2ed0:	00d50533          	add	a0,a0,a3
    2ed4:	4064863b          	subw	a2,s1,t1
    2ed8:	40c5053b          	subw	a0,a0,a2
    2edc:	40000637          	lui	a2,0x40000
    2ee0:	000016b7          	lui	a3,0x1
    2ee4:	40d406b3          	sub	a3,s0,a3
    2ee8:	60a6b823          	sd	a0,1552(a3) # 1610 <.LBB95_5+0xb0>
    2eec:	00055463          	bgez	a0,2ef4 <.LBB95_16>
    2ef0:	c0000637          	lui	a2,0xc0000

0000000000002ef4 <.LBB95_16>:
    2ef4:	00001537          	lui	a0,0x1
    2ef8:	40a40533          	sub	a0,s0,a0
    2efc:	60c53423          	sd	a2,1544(a0) # 1608 <.LBB95_5+0xa8>
    2f00:	068da503          	lw	a0,104(s11)
    2f04:	0685a603          	lw	a2,104(a1)
    2f08:	00751693          	slli	a3,a0,0x7
    2f0c:	e4c43c23          	sd	a2,-424(s0)
    2f10:	00001537          	lui	a0,0x1
    2f14:	40a40533          	sub	a0,s0,a0
    2f18:	6c053503          	ld	a0,1728(a0) # 16c0 <.LBB95_5+0x160>
    2f1c:	00c50533          	add	a0,a0,a2
    2f20:	e4d43823          	sd	a3,-432(s0)
    2f24:	00d50533          	add	a0,a0,a3
    2f28:	4064863b          	subw	a2,s1,t1
    2f2c:	40c5053b          	subw	a0,a0,a2
    2f30:	40000637          	lui	a2,0x40000
    2f34:	000016b7          	lui	a3,0x1
    2f38:	40d406b3          	sub	a3,s0,a3
    2f3c:	60a6b023          	sd	a0,1536(a3) # 1600 <.LBB95_5+0xa0>
    2f40:	00055463          	bgez	a0,2f48 <.LBB95_18>
    2f44:	c0000637          	lui	a2,0xc0000

0000000000002f48 <.LBB95_18>:
    2f48:	00001537          	lui	a0,0x1
    2f4c:	40a40533          	sub	a0,s0,a0
    2f50:	5ec53c23          	sd	a2,1528(a0) # 15f8 <.LBB95_5+0x98>
    2f54:	064da503          	lw	a0,100(s11)
    2f58:	0645a603          	lw	a2,100(a1)
    2f5c:	00751693          	slli	a3,a0,0x7
    2f60:	e4c43423          	sd	a2,-440(s0)
    2f64:	00ce8533          	add	a0,t4,a2
    2f68:	00001637          	lui	a2,0x1
    2f6c:	40c40633          	sub	a2,s0,a2
    2f70:	6cd63423          	sd	a3,1736(a2) # 16c8 <.LBB95_5+0x168>
    2f74:	00d50533          	add	a0,a0,a3
    2f78:	4064863b          	subw	a2,s1,t1
    2f7c:	40c5053b          	subw	a0,a0,a2
    2f80:	40000637          	lui	a2,0x40000
    2f84:	000016b7          	lui	a3,0x1
    2f88:	40d406b3          	sub	a3,s0,a3
    2f8c:	5ea6b823          	sd	a0,1520(a3) # 15f0 <.LBB95_5+0x90>
    2f90:	00055463          	bgez	a0,2f98 <.LBB95_20>
    2f94:	c0000637          	lui	a2,0xc0000

0000000000002f98 <.LBB95_20>:
    2f98:	00001537          	lui	a0,0x1
    2f9c:	40a40533          	sub	a0,s0,a0
    2fa0:	5ec53423          	sd	a2,1512(a0) # 15e8 <.LBB95_5+0x88>
    2fa4:	df243823          	sd	s2,-528(s0)
    2fa8:	e1e43023          	sd	t5,-512(s0)
    2fac:	e1c43423          	sd	t3,-504(s0)
    2fb0:	e0743823          	sd	t2,-496(s0)
    2fb4:	e2543023          	sd	t0,-480(s0)
    2fb8:	e3143423          	sd	a7,-472(s0)
    2fbc:	e3043823          	sd	a6,-464(s0)
    2fc0:	e2f43c23          	sd	a5,-456(s0)
    2fc4:	e4e43023          	sd	a4,-448(s0)
    2fc8:	060da503          	lw	a0,96(s11)
    2fcc:	0605a603          	lw	a2,96(a1)
    2fd0:	00751693          	slli	a3,a0,0x7
    2fd4:	00001537          	lui	a0,0x1
    2fd8:	40a40533          	sub	a0,s0,a0
    2fdc:	6cc53023          	sd	a2,1728(a0) # 16c0 <.LBB95_5+0x160>
    2fe0:	00cd0533          	add	a0,s10,a2
    2fe4:	00001637          	lui	a2,0x1
    2fe8:	40c40633          	sub	a2,s0,a2
    2fec:	6ad63c23          	sd	a3,1720(a2) # 16b8 <.LBB95_5+0x158>
    2ff0:	00d50533          	add	a0,a0,a3
    2ff4:	4064863b          	subw	a2,s1,t1
    2ff8:	40c5053b          	subw	a0,a0,a2
    2ffc:	40000637          	lui	a2,0x40000
    3000:	000016b7          	lui	a3,0x1
    3004:	40d406b3          	sub	a3,s0,a3
    3008:	5ea6b023          	sd	a0,1504(a3) # 15e0 <.LBB95_5+0x80>
    300c:	00055463          	bgez	a0,3014 <.LBB95_22>
    3010:	c0000637          	lui	a2,0xc0000

0000000000003014 <.LBB95_22>:
    3014:	00001537          	lui	a0,0x1
    3018:	40a40533          	sub	a0,s0,a0
    301c:	5cc53c23          	sd	a2,1496(a0) # 15d8 <.LBB95_5+0x78>
    3020:	da143823          	sd	ra,-592(s0)
    3024:	dd743423          	sd	s7,-568(s0)
    3028:	dd643823          	sd	s6,-560(s0)
    302c:	dd543c23          	sd	s5,-552(s0)
    3030:	df443023          	sd	s4,-544(s0)
    3034:	df343423          	sd	s3,-536(s0)
    3038:	dff43c23          	sd	t6,-520(s0)
    303c:	0585a903          	lw	s2,88(a1)
    3040:	05c5af83          	lw	t6,92(a1)
    3044:	058da603          	lw	a2,88(s11)
    3048:	05cda783          	lw	a5,92(s11)
    304c:	00002537          	lui	a0,0x2
    3050:	40a40533          	sub	a0,s0,a0
    3054:	02853503          	ld	a0,40(a0) # 2028 <.LBB95_5+0xac8>
    3058:	000016b7          	lui	a3,0x1
    305c:	40d406b3          	sub	a3,s0,a3
    3060:	6306bf03          	ld	t5,1584(a3) # 1630 <.LBB95_5+0xd0>
    3064:	00af0533          	add	a0,t5,a0
    3068:	000026b7          	lui	a3,0x2
    306c:	40d406b3          	sub	a3,s0,a3
    3070:	0386b683          	ld	a3,56(a3) # 2038 <.LBB95_5+0xad8>
    3074:	00001737          	lui	a4,0x1
    3078:	40e40733          	sub	a4,s0,a4
    307c:	00a73823          	sd	a0,16(a4) # 1010 <.LBB95_4+0x94>
    3080:	00a68eb3          	add	t4,a3,a0
    3084:	00002537          	lui	a0,0x2
    3088:	40a40533          	sub	a0,s0,a0
    308c:	02053503          	ld	a0,32(a0) # 2020 <.LBB95_5+0xac0>
    3090:	00af0533          	add	a0,t5,a0
    3094:	00001737          	lui	a4,0x1
    3098:	40e40733          	sub	a4,s0,a4
    309c:	00a73c23          	sd	a0,24(a4) # 1018 <.LBB95_4+0x9c>
    30a0:	00a68e33          	add	t3,a3,a0
    30a4:	00002537          	lui	a0,0x2
    30a8:	40a40533          	sub	a0,s0,a0
    30ac:	01853503          	ld	a0,24(a0) # 2018 <.LBB95_5+0xab8>
    30b0:	01e50533          	add	a0,a0,t5
    30b4:	00001737          	lui	a4,0x1
    30b8:	40e40733          	sub	a4,s0,a4
    30bc:	02a73023          	sd	a0,32(a4) # 1020 <.LBB95_4+0xa4>
    30c0:	00a683b3          	add	t2,a3,a0
    30c4:	00002537          	lui	a0,0x2
    30c8:	40a40533          	sub	a0,s0,a0
    30cc:	01053503          	ld	a0,16(a0) # 2010 <.LBB95_5+0xab0>
    30d0:	01e50533          	add	a0,a0,t5
    30d4:	00001737          	lui	a4,0x1
    30d8:	40e40733          	sub	a4,s0,a4
    30dc:	02a73423          	sd	a0,40(a4) # 1028 <.LBB95_4+0xac>
    30e0:	00a682b3          	add	t0,a3,a0
    30e4:	00002537          	lui	a0,0x2
    30e8:	40a40533          	sub	a0,s0,a0
    30ec:	00853503          	ld	a0,8(a0) # 2008 <.LBB95_5+0xaa8>
    30f0:	01e50533          	add	a0,a0,t5
    30f4:	00001737          	lui	a4,0x1
    30f8:	40e40733          	sub	a4,s0,a4
    30fc:	02a73823          	sd	a0,48(a4) # 1030 <.LBB95_4+0xb4>
    3100:	00a688b3          	add	a7,a3,a0
    3104:	00002537          	lui	a0,0x2
    3108:	40a40533          	sub	a0,s0,a0
    310c:	00053503          	ld	a0,0(a0) # 2000 <.LBB95_5+0xaa0>
    3110:	01e50533          	add	a0,a0,t5
    3114:	00001737          	lui	a4,0x1
    3118:	40e40733          	sub	a4,s0,a4
    311c:	02a73c23          	sd	a0,56(a4) # 1038 <.LBB95_4+0xbc>
    3120:	00a68733          	add	a4,a3,a0
    3124:	00002537          	lui	a0,0x2
    3128:	40a40533          	sub	a0,s0,a0
    312c:	ff853503          	ld	a0,-8(a0) # 1ff8 <.LBB95_5+0xa98>
    3130:	01e50533          	add	a0,a0,t5
    3134:	00001837          	lui	a6,0x1
    3138:	41040833          	sub	a6,s0,a6
    313c:	04a83023          	sd	a0,64(a6) # 1040 <.LBB95_4+0xc4>
    3140:	00a68533          	add	a0,a3,a0
    3144:	00002837          	lui	a6,0x2
    3148:	41040833          	sub	a6,s0,a6
    314c:	ff083803          	ld	a6,-16(a6) # 1ff0 <.LBB95_5+0xa90>
    3150:	01e80833          	add	a6,a6,t5
    3154:	00001f37          	lui	t5,0x1
    3158:	41e40f33          	sub	t5,s0,t5
    315c:	050f3423          	sd	a6,72(t5) # 1048 <.LBB95_4+0xcc>
    3160:	010686b3          	add	a3,a3,a6
    3164:	00779813          	slli	a6,a5,0x7
    3168:	00761f13          	slli	t5,a2,0x7
    316c:	00001637          	lui	a2,0x1
    3170:	40c40633          	sub	a2,s0,a2
    3174:	6bf63823          	sd	t6,1712(a2) # 16b0 <.LBB95_5+0x150>
    3178:	01fc8633          	add	a2,s9,t6
    317c:	000017b7          	lui	a5,0x1
    3180:	40f407b3          	sub	a5,s0,a5
    3184:	6b27b423          	sd	s2,1704(a5) # 16a8 <.LBB95_5+0x148>
    3188:	012c07b3          	add	a5,s8,s2
    318c:	00001fb7          	lui	t6,0x1
    3190:	41f40fb3          	sub	t6,s0,t6
    3194:	69efbc23          	sd	t5,1688(t6) # 1698 <.LBB95_5+0x138>
    3198:	01e787b3          	add	a5,a5,t5
    319c:	00001f37          	lui	t5,0x1
    31a0:	41e40f33          	sub	t5,s0,t5
    31a4:	6b0f3023          	sd	a6,1696(t5) # 16a0 <.LBB95_5+0x140>
    31a8:	01060633          	add	a2,a2,a6
    31ac:	4064883b          	subw	a6,s1,t1
    31b0:	4106083b          	subw	a6,a2,a6
    31b4:	ffeb6937          	lui	s2,0xffeb6
    31b8:	4064863b          	subw	a2,s1,t1
    31bc:	40c787bb          	subw	a5,a5,a2
    31c0:	00001637          	lui	a2,0x1
    31c4:	40c40633          	sub	a2,s0,a2
    31c8:	68f63823          	sd	a5,1680(a2) # 1690 <.LBB95_5+0x130>
    31cc:	40000637          	lui	a2,0x40000
    31d0:	000017b7          	lui	a5,0x1
    31d4:	40f407b3          	sub	a5,s0,a5
    31d8:	5d07b823          	sd	a6,1488(a5) # 15d0 <.LBB95_5+0x70>
    31dc:	00085463          	bgez	a6,31e4 <.LBB95_24>
    31e0:	c0000637          	lui	a2,0xc0000

00000000000031e4 <.LBB95_24>:
    31e4:	000017b7          	lui	a5,0x1
    31e8:	40f407b3          	sub	a5,s0,a5
    31ec:	5cc7b423          	sd	a2,1480(a5) # 15c8 <.LBB95_5+0x68>
    31f0:	0545a603          	lw	a2,84(a1)
    31f4:	f8c43423          	sd	a2,-120(s0)
    31f8:	00c5a603          	lw	a2,12(a1)
    31fc:	ecc43423          	sd	a2,-312(s0)
    3200:	0085a603          	lw	a2,8(a1)
    3204:	ecc43023          	sd	a2,-320(s0)
    3208:	0045a603          	lw	a2,4(a1)
    320c:	eac43c23          	sd	a2,-328(s0)
    3210:	0005a603          	lw	a2,0(a1)
    3214:	eac43823          	sd	a2,-336(s0)
    3218:	0105a603          	lw	a2,16(a1)
    321c:	ecc43823          	sd	a2,-304(s0)
    3220:	0145a603          	lw	a2,20(a1)
    3224:	ecc43c23          	sd	a2,-296(s0)
    3228:	0185a603          	lw	a2,24(a1)
    322c:	eec43023          	sd	a2,-288(s0)
    3230:	01c5a603          	lw	a2,28(a1)
    3234:	eec43423          	sd	a2,-280(s0)
    3238:	0205a603          	lw	a2,32(a1)
    323c:	eec43823          	sd	a2,-272(s0)
    3240:	0245a603          	lw	a2,36(a1)
    3244:	f2c43023          	sd	a2,-224(s0)
    3248:	0285a603          	lw	a2,40(a1)
    324c:	f2c43423          	sd	a2,-216(s0)
    3250:	02c5a603          	lw	a2,44(a1)
    3254:	f2c43823          	sd	a2,-208(s0)
    3258:	0305a603          	lw	a2,48(a1)
    325c:	f2c43c23          	sd	a2,-200(s0)
    3260:	0345a603          	lw	a2,52(a1)
    3264:	f4c43023          	sd	a2,-192(s0)
    3268:	0385a603          	lw	a2,56(a1)
    326c:	f4c43423          	sd	a2,-184(s0)
    3270:	03c5a603          	lw	a2,60(a1)
    3274:	f4c43823          	sd	a2,-176(s0)
    3278:	0405a603          	lw	a2,64(a1)
    327c:	f4c43c23          	sd	a2,-168(s0)
    3280:	0445a603          	lw	a2,68(a1)
    3284:	f6c43023          	sd	a2,-160(s0)
    3288:	0485a603          	lw	a2,72(a1)
    328c:	f6c43423          	sd	a2,-152(s0)
    3290:	04c5a603          	lw	a2,76(a1)
    3294:	f6c43823          	sd	a2,-144(s0)
    3298:	0505a583          	lw	a1,80(a1)
    329c:	f6b43c23          	sd	a1,-136(s0)
    32a0:	054dac83          	lw	s9,84(s11)
    32a4:	00cda583          	lw	a1,12(s11)
    32a8:	f8a43823          	sd	a0,-112(s0)
    32ac:	00001537          	lui	a0,0x1
    32b0:	40a40533          	sub	a0,s0,a0
    32b4:	5ab53c23          	sd	a1,1464(a0) # 15b8 <.LBB95_5+0x58>
    32b8:	008da583          	lw	a1,8(s11)
    32bc:	00001537          	lui	a0,0x1
    32c0:	40a40533          	sub	a0,s0,a0
    32c4:	5ab53823          	sd	a1,1456(a0) # 15b0 <.LBB95_5+0x50>
    32c8:	004da583          	lw	a1,4(s11)
    32cc:	00001537          	lui	a0,0x1
    32d0:	40a40533          	sub	a0,s0,a0
    32d4:	5ab53423          	sd	a1,1448(a0) # 15a8 <.LBB95_5+0x48>
    32d8:	000da583          	lw	a1,0(s11)
    32dc:	00001537          	lui	a0,0x1
    32e0:	40a40533          	sub	a0,s0,a0
    32e4:	5ab53023          	sd	a1,1440(a0) # 15a0 <.LBB95_5+0x40>
    32e8:	010da583          	lw	a1,16(s11)
    32ec:	00001537          	lui	a0,0x1
    32f0:	40a40533          	sub	a0,s0,a0
    32f4:	58b53c23          	sd	a1,1432(a0) # 1598 <.LBB95_5+0x38>
    32f8:	014da583          	lw	a1,20(s11)
    32fc:	00001537          	lui	a0,0x1
    3300:	40a40533          	sub	a0,s0,a0
    3304:	58b53423          	sd	a1,1416(a0) # 1588 <.LBB95_5+0x28>
    3308:	018da603          	lw	a2,24(s11)
    330c:	01cdad03          	lw	s10,28(s11)
    3310:	020dab03          	lw	s6,32(s11)
    3314:	024da083          	lw	ra,36(s11)
    3318:	028daf03          	lw	t5,40(s11)
    331c:	02cdaa03          	lw	s4,44(s11)
    3320:	030da583          	lw	a1,48(s11)
    3324:	034da783          	lw	a5,52(s11)
    3328:	038da803          	lw	a6,56(s11)
    332c:	03cda303          	lw	t1,60(s11)
    3330:	040daf83          	lw	t6,64(s11)
    3334:	044da983          	lw	s3,68(s11)
    3338:	048daa83          	lw	s5,72(s11)
    333c:	04cdab83          	lw	s7,76(s11)
    3340:	050dad83          	lw	s11,80(s11)
    3344:	01fe8c03          	lb	s8,31(t4)
    3348:	00001537          	lui	a0,0x1
    334c:	40a40533          	sub	a0,s0,a0
    3350:	93853023          	sd	s8,-1760(a0) # 920 <.LBB95_3+0x5fc>
    3354:	01ee8c03          	lb	s8,30(t4)
    3358:	00001537          	lui	a0,0x1
    335c:	40a40533          	sub	a0,s0,a0
    3360:	91853823          	sd	s8,-1776(a0) # 910 <.LBB95_3+0x5ec>
    3364:	01de8c03          	lb	s8,29(t4)
    3368:	00001537          	lui	a0,0x1
    336c:	40a40533          	sub	a0,s0,a0
    3370:	91853023          	sd	s8,-1792(a0) # 900 <.LBB95_3+0x5dc>
    3374:	01ce8c03          	lb	s8,28(t4)
    3378:	00001537          	lui	a0,0x1
    337c:	40a40533          	sub	a0,s0,a0
    3380:	8f853823          	sd	s8,-1808(a0) # 8f0 <.LBB95_3+0x5cc>
    3384:	01be8c03          	lb	s8,27(t4)
    3388:	00001537          	lui	a0,0x1
    338c:	40a40533          	sub	a0,s0,a0
    3390:	8f853423          	sd	s8,-1816(a0) # 8e8 <.LBB95_3+0x5c4>
    3394:	01ae8c03          	lb	s8,26(t4)
    3398:	00001537          	lui	a0,0x1
    339c:	40a40533          	sub	a0,s0,a0
    33a0:	8f853023          	sd	s8,-1824(a0) # 8e0 <.LBB95_3+0x5bc>
    33a4:	019e8c03          	lb	s8,25(t4)
    33a8:	00001537          	lui	a0,0x1
    33ac:	40a40533          	sub	a0,s0,a0
    33b0:	8d853c23          	sd	s8,-1832(a0) # 8d8 <.LBB95_3+0x5b4>
    33b4:	018e8c03          	lb	s8,24(t4)
    33b8:	00001537          	lui	a0,0x1
    33bc:	40a40533          	sub	a0,s0,a0
    33c0:	8d853823          	sd	s8,-1840(a0) # 8d0 <.LBB95_3+0x5ac>
    33c4:	017e8c03          	lb	s8,23(t4)
    33c8:	00001537          	lui	a0,0x1
    33cc:	40a40533          	sub	a0,s0,a0
    33d0:	8d853423          	sd	s8,-1848(a0) # 8c8 <.LBB95_3+0x5a4>
    33d4:	016e8c03          	lb	s8,22(t4)
    33d8:	00001537          	lui	a0,0x1
    33dc:	40a40533          	sub	a0,s0,a0
    33e0:	8d853023          	sd	s8,-1856(a0) # 8c0 <.LBB95_3+0x59c>
    33e4:	015e8c03          	lb	s8,21(t4)
    33e8:	00001537          	lui	a0,0x1
    33ec:	40a40533          	sub	a0,s0,a0
    33f0:	8b853c23          	sd	s8,-1864(a0) # 8b8 <.LBB95_3+0x594>
    33f4:	014e8c03          	lb	s8,20(t4)
    33f8:	00001537          	lui	a0,0x1
    33fc:	40a40533          	sub	a0,s0,a0
    3400:	8b853823          	sd	s8,-1872(a0) # 8b0 <.LBB95_3+0x58c>
    3404:	013e8c03          	lb	s8,19(t4)
    3408:	00001537          	lui	a0,0x1
    340c:	40a40533          	sub	a0,s0,a0
    3410:	8b853423          	sd	s8,-1880(a0) # 8a8 <.LBB95_3+0x584>
    3414:	012e8c03          	lb	s8,18(t4)
    3418:	00001537          	lui	a0,0x1
    341c:	40a40533          	sub	a0,s0,a0
    3420:	8b853023          	sd	s8,-1888(a0) # 8a0 <.LBB95_3+0x57c>
    3424:	011e8c03          	lb	s8,17(t4)
    3428:	00001537          	lui	a0,0x1
    342c:	40a40533          	sub	a0,s0,a0
    3430:	89853c23          	sd	s8,-1896(a0) # 898 <.LBB95_3+0x574>
    3434:	010e8c03          	lb	s8,16(t4)
    3438:	00001537          	lui	a0,0x1
    343c:	40a40533          	sub	a0,s0,a0
    3440:	89853823          	sd	s8,-1904(a0) # 890 <.LBB95_3+0x56c>
    3444:	00fe8c03          	lb	s8,15(t4)
    3448:	00001537          	lui	a0,0x1
    344c:	40a40533          	sub	a0,s0,a0
    3450:	89853423          	sd	s8,-1912(a0) # 888 <.LBB95_3+0x564>
    3454:	00ee8c03          	lb	s8,14(t4)
    3458:	00001537          	lui	a0,0x1
    345c:	40a40533          	sub	a0,s0,a0
    3460:	89853023          	sd	s8,-1920(a0) # 880 <.LBB95_3+0x55c>
    3464:	00de8c03          	lb	s8,13(t4)
    3468:	00001537          	lui	a0,0x1
    346c:	40a40533          	sub	a0,s0,a0
    3470:	87853c23          	sd	s8,-1928(a0) # 878 <.LBB95_3+0x554>
    3474:	00ce8c03          	lb	s8,12(t4)
    3478:	00001537          	lui	a0,0x1
    347c:	40a40533          	sub	a0,s0,a0
    3480:	87853823          	sd	s8,-1936(a0) # 870 <.LBB95_3+0x54c>
    3484:	00be8c03          	lb	s8,11(t4)
    3488:	00001537          	lui	a0,0x1
    348c:	40a40533          	sub	a0,s0,a0
    3490:	87853423          	sd	s8,-1944(a0) # 868 <.LBB95_3+0x544>
    3494:	00ae8c03          	lb	s8,10(t4)
    3498:	00001537          	lui	a0,0x1
    349c:	40a40533          	sub	a0,s0,a0
    34a0:	87853023          	sd	s8,-1952(a0) # 860 <.LBB95_3+0x53c>
    34a4:	009e8c03          	lb	s8,9(t4)
    34a8:	00001537          	lui	a0,0x1
    34ac:	40a40533          	sub	a0,s0,a0
    34b0:	85853c23          	sd	s8,-1960(a0) # 858 <.LBB95_3+0x534>
    34b4:	008e8c03          	lb	s8,8(t4)
    34b8:	00001537          	lui	a0,0x1
    34bc:	40a40533          	sub	a0,s0,a0
    34c0:	85853823          	sd	s8,-1968(a0) # 850 <.LBB95_3+0x52c>
    34c4:	007e8c03          	lb	s8,7(t4)
    34c8:	00001537          	lui	a0,0x1
    34cc:	40a40533          	sub	a0,s0,a0
    34d0:	85853423          	sd	s8,-1976(a0) # 848 <.LBB95_3+0x524>
    34d4:	006e8c03          	lb	s8,6(t4)
    34d8:	00001537          	lui	a0,0x1
    34dc:	40a40533          	sub	a0,s0,a0
    34e0:	85853023          	sd	s8,-1984(a0) # 840 <.LBB95_3+0x51c>
    34e4:	005e8c03          	lb	s8,5(t4)
    34e8:	00001537          	lui	a0,0x1
    34ec:	40a40533          	sub	a0,s0,a0
    34f0:	83853c23          	sd	s8,-1992(a0) # 838 <.LBB95_3+0x514>
    34f4:	004e8c03          	lb	s8,4(t4)
    34f8:	00001537          	lui	a0,0x1
    34fc:	40a40533          	sub	a0,s0,a0
    3500:	83853823          	sd	s8,-2000(a0) # 830 <.LBB95_3+0x50c>
    3504:	000e8c03          	lb	s8,0(t4)
    3508:	00001537          	lui	a0,0x1
    350c:	40a40533          	sub	a0,s0,a0
    3510:	83853423          	sd	s8,-2008(a0) # 828 <.LBB95_3+0x504>
    3514:	001e8c03          	lb	s8,1(t4)
    3518:	00001537          	lui	a0,0x1
    351c:	40a40533          	sub	a0,s0,a0
    3520:	83853023          	sd	s8,-2016(a0) # 820 <.LBB95_3+0x4fc>
    3524:	002e8c03          	lb	s8,2(t4)
    3528:	00001537          	lui	a0,0x1
    352c:	40a40533          	sub	a0,s0,a0
    3530:	81853c23          	sd	s8,-2024(a0) # 818 <.LBB95_3+0x4f4>
    3534:	f9043503          	ld	a0,-112(s0)
    3538:	003e8e83          	lb	t4,3(t4)
    353c:	00001c37          	lui	s8,0x1
    3540:	41840c33          	sub	s8,s0,s8
    3544:	81dc3823          	sd	t4,-2032(s8) # 810 <.LBB95_3+0x4ec>
    3548:	000e0e83          	lb	t4,0(t3)
    354c:	00001c37          	lui	s8,0x1
    3550:	41840c33          	sub	s8,s0,s8
    3554:	a3dc3023          	sd	t4,-1504(s8) # a20 <.LBB95_3+0x6fc>
    3558:	001e0e83          	lb	t4,1(t3)
    355c:	00001c37          	lui	s8,0x1
    3560:	41840c33          	sub	s8,s0,s8
    3564:	a1dc3823          	sd	t4,-1520(s8) # a10 <.LBB95_3+0x6ec>
    3568:	002e0e83          	lb	t4,2(t3)
    356c:	00001c37          	lui	s8,0x1
    3570:	41840c33          	sub	s8,s0,s8
    3574:	a1dc3023          	sd	t4,-1536(s8) # a00 <.LBB95_3+0x6dc>
    3578:	003e0e83          	lb	t4,3(t3)
    357c:	00001c37          	lui	s8,0x1
    3580:	41840c33          	sub	s8,s0,s8
    3584:	9fdc3823          	sd	t4,-1552(s8) # 9f0 <.LBB95_3+0x6cc>
    3588:	004e0e83          	lb	t4,4(t3)
    358c:	00001c37          	lui	s8,0x1
    3590:	41840c33          	sub	s8,s0,s8
    3594:	9fdc3423          	sd	t4,-1560(s8) # 9e8 <.LBB95_3+0x6c4>
    3598:	005e0e83          	lb	t4,5(t3)
    359c:	00001c37          	lui	s8,0x1
    35a0:	41840c33          	sub	s8,s0,s8
    35a4:	9fdc3023          	sd	t4,-1568(s8) # 9e0 <.LBB95_3+0x6bc>
    35a8:	006e0e83          	lb	t4,6(t3)
    35ac:	00001c37          	lui	s8,0x1
    35b0:	41840c33          	sub	s8,s0,s8
    35b4:	9ddc3c23          	sd	t4,-1576(s8) # 9d8 <.LBB95_3+0x6b4>
    35b8:	007e0e83          	lb	t4,7(t3)
    35bc:	00001c37          	lui	s8,0x1
    35c0:	41840c33          	sub	s8,s0,s8
    35c4:	9ddc3823          	sd	t4,-1584(s8) # 9d0 <.LBB95_3+0x6ac>
    35c8:	008e0e83          	lb	t4,8(t3)
    35cc:	00001c37          	lui	s8,0x1
    35d0:	41840c33          	sub	s8,s0,s8
    35d4:	9ddc3423          	sd	t4,-1592(s8) # 9c8 <.LBB95_3+0x6a4>
    35d8:	009e0e83          	lb	t4,9(t3)
    35dc:	00001c37          	lui	s8,0x1
    35e0:	41840c33          	sub	s8,s0,s8
    35e4:	9ddc3023          	sd	t4,-1600(s8) # 9c0 <.LBB95_3+0x69c>
    35e8:	00ae0e83          	lb	t4,10(t3)
    35ec:	00001c37          	lui	s8,0x1
    35f0:	41840c33          	sub	s8,s0,s8
    35f4:	9bdc3c23          	sd	t4,-1608(s8) # 9b8 <.LBB95_3+0x694>
    35f8:	00be0e83          	lb	t4,11(t3)
    35fc:	00001c37          	lui	s8,0x1
    3600:	41840c33          	sub	s8,s0,s8
    3604:	9bdc3823          	sd	t4,-1616(s8) # 9b0 <.LBB95_3+0x68c>
    3608:	00ce0e83          	lb	t4,12(t3)
    360c:	00001c37          	lui	s8,0x1
    3610:	41840c33          	sub	s8,s0,s8
    3614:	9bdc3423          	sd	t4,-1624(s8) # 9a8 <.LBB95_3+0x684>
    3618:	00de0e83          	lb	t4,13(t3)
    361c:	00001c37          	lui	s8,0x1
    3620:	41840c33          	sub	s8,s0,s8
    3624:	9bdc3023          	sd	t4,-1632(s8) # 9a0 <.LBB95_3+0x67c>
    3628:	00ee0e83          	lb	t4,14(t3)
    362c:	00001c37          	lui	s8,0x1
    3630:	41840c33          	sub	s8,s0,s8
    3634:	99dc3c23          	sd	t4,-1640(s8) # 998 <.LBB95_3+0x674>
    3638:	00fe0e83          	lb	t4,15(t3)
    363c:	00001c37          	lui	s8,0x1
    3640:	41840c33          	sub	s8,s0,s8
    3644:	99dc3823          	sd	t4,-1648(s8) # 990 <.LBB95_3+0x66c>
    3648:	010e0e83          	lb	t4,16(t3)
    364c:	00001c37          	lui	s8,0x1
    3650:	41840c33          	sub	s8,s0,s8
    3654:	99dc3423          	sd	t4,-1656(s8) # 988 <.LBB95_3+0x664>
    3658:	011e0e83          	lb	t4,17(t3)
    365c:	00001c37          	lui	s8,0x1
    3660:	41840c33          	sub	s8,s0,s8
    3664:	99dc3023          	sd	t4,-1664(s8) # 980 <.LBB95_3+0x65c>
    3668:	012e0e83          	lb	t4,18(t3)
    366c:	00001c37          	lui	s8,0x1
    3670:	41840c33          	sub	s8,s0,s8
    3674:	97dc3c23          	sd	t4,-1672(s8) # 978 <.LBB95_3+0x654>
    3678:	013e0e83          	lb	t4,19(t3)
    367c:	00001c37          	lui	s8,0x1
    3680:	41840c33          	sub	s8,s0,s8
    3684:	97dc3823          	sd	t4,-1680(s8) # 970 <.LBB95_3+0x64c>
    3688:	014e0e83          	lb	t4,20(t3)
    368c:	00001c37          	lui	s8,0x1
    3690:	41840c33          	sub	s8,s0,s8
    3694:	97dc3423          	sd	t4,-1688(s8) # 968 <.LBB95_3+0x644>
    3698:	015e0e83          	lb	t4,21(t3)
    369c:	00001c37          	lui	s8,0x1
    36a0:	41840c33          	sub	s8,s0,s8
    36a4:	97dc3023          	sd	t4,-1696(s8) # 960 <.LBB95_3+0x63c>
    36a8:	016e0e83          	lb	t4,22(t3)
    36ac:	00001c37          	lui	s8,0x1
    36b0:	41840c33          	sub	s8,s0,s8
    36b4:	95dc3c23          	sd	t4,-1704(s8) # 958 <.LBB95_3+0x634>
    36b8:	017e0e83          	lb	t4,23(t3)
    36bc:	00001c37          	lui	s8,0x1
    36c0:	41840c33          	sub	s8,s0,s8
    36c4:	95dc3823          	sd	t4,-1712(s8) # 950 <.LBB95_3+0x62c>
    36c8:	018e0e83          	lb	t4,24(t3)
    36cc:	00001c37          	lui	s8,0x1
    36d0:	41840c33          	sub	s8,s0,s8
    36d4:	95dc3423          	sd	t4,-1720(s8) # 948 <.LBB95_3+0x624>
    36d8:	019e0e83          	lb	t4,25(t3)
    36dc:	00001c37          	lui	s8,0x1
    36e0:	41840c33          	sub	s8,s0,s8
    36e4:	95dc3023          	sd	t4,-1728(s8) # 940 <.LBB95_3+0x61c>
    36e8:	01ae0e83          	lb	t4,26(t3)
    36ec:	00001c37          	lui	s8,0x1
    36f0:	41840c33          	sub	s8,s0,s8
    36f4:	93dc3c23          	sd	t4,-1736(s8) # 938 <.LBB95_3+0x614>
    36f8:	01be0e83          	lb	t4,27(t3)
    36fc:	00001c37          	lui	s8,0x1
    3700:	41840c33          	sub	s8,s0,s8
    3704:	93dc3823          	sd	t4,-1744(s8) # 930 <.LBB95_3+0x60c>
    3708:	01ce0e83          	lb	t4,28(t3)
    370c:	00001c37          	lui	s8,0x1
    3710:	41840c33          	sub	s8,s0,s8
    3714:	93dc3423          	sd	t4,-1752(s8) # 928 <.LBB95_3+0x604>
    3718:	01de0e83          	lb	t4,29(t3)
    371c:	00001c37          	lui	s8,0x1
    3720:	41840c33          	sub	s8,s0,s8
    3724:	91dc3c23          	sd	t4,-1768(s8) # 918 <.LBB95_3+0x5f4>
    3728:	01ee0e83          	lb	t4,30(t3)
    372c:	00001c37          	lui	s8,0x1
    3730:	41840c33          	sub	s8,s0,s8
    3734:	91dc3423          	sd	t4,-1784(s8) # 908 <.LBB95_3+0x5e4>
    3738:	01fe0e03          	lb	t3,31(t3)
    373c:	00001eb7          	lui	t4,0x1
    3740:	41d40eb3          	sub	t4,s0,t4
    3744:	8fcebc23          	sd	t3,-1800(t4) # 8f8 <.LBB95_3+0x5d4>
    3748:	00038e03          	lb	t3,0(t2)
    374c:	00001eb7          	lui	t4,0x1
    3750:	41d40eb3          	sub	t4,s0,t4
    3754:	b3ceb023          	sd	t3,-1248(t4) # b20 <.LBB95_3+0x7fc>
    3758:	00138e03          	lb	t3,1(t2)
    375c:	00001eb7          	lui	t4,0x1
    3760:	41d40eb3          	sub	t4,s0,t4
    3764:	b1ceb823          	sd	t3,-1264(t4) # b10 <.LBB95_3+0x7ec>
    3768:	00238e03          	lb	t3,2(t2)
    376c:	00001eb7          	lui	t4,0x1
    3770:	41d40eb3          	sub	t4,s0,t4
    3774:	b1ceb023          	sd	t3,-1280(t4) # b00 <.LBB95_3+0x7dc>
    3778:	00338e03          	lb	t3,3(t2)
    377c:	00001eb7          	lui	t4,0x1
    3780:	41d40eb3          	sub	t4,s0,t4
    3784:	afceb823          	sd	t3,-1296(t4) # af0 <.LBB95_3+0x7cc>
    3788:	00438e03          	lb	t3,4(t2)
    378c:	00001eb7          	lui	t4,0x1
    3790:	41d40eb3          	sub	t4,s0,t4
    3794:	afceb423          	sd	t3,-1304(t4) # ae8 <.LBB95_3+0x7c4>
    3798:	00538e03          	lb	t3,5(t2)
    379c:	00001eb7          	lui	t4,0x1
    37a0:	41d40eb3          	sub	t4,s0,t4
    37a4:	afceb023          	sd	t3,-1312(t4) # ae0 <.LBB95_3+0x7bc>
    37a8:	00638e03          	lb	t3,6(t2)
    37ac:	00001eb7          	lui	t4,0x1
    37b0:	41d40eb3          	sub	t4,s0,t4
    37b4:	adcebc23          	sd	t3,-1320(t4) # ad8 <.LBB95_3+0x7b4>
    37b8:	00738e03          	lb	t3,7(t2)
    37bc:	00001eb7          	lui	t4,0x1
    37c0:	41d40eb3          	sub	t4,s0,t4
    37c4:	adceb823          	sd	t3,-1328(t4) # ad0 <.LBB95_3+0x7ac>
    37c8:	00838e03          	lb	t3,8(t2)
    37cc:	00001eb7          	lui	t4,0x1
    37d0:	41d40eb3          	sub	t4,s0,t4
    37d4:	adceb423          	sd	t3,-1336(t4) # ac8 <.LBB95_3+0x7a4>
    37d8:	00938e03          	lb	t3,9(t2)
    37dc:	00001eb7          	lui	t4,0x1
    37e0:	41d40eb3          	sub	t4,s0,t4
    37e4:	adceb023          	sd	t3,-1344(t4) # ac0 <.LBB95_3+0x79c>
    37e8:	00a38e03          	lb	t3,10(t2)
    37ec:	00001eb7          	lui	t4,0x1
    37f0:	41d40eb3          	sub	t4,s0,t4
    37f4:	abcebc23          	sd	t3,-1352(t4) # ab8 <.LBB95_3+0x794>
    37f8:	00b38e03          	lb	t3,11(t2)
    37fc:	00001eb7          	lui	t4,0x1
    3800:	41d40eb3          	sub	t4,s0,t4
    3804:	abceb823          	sd	t3,-1360(t4) # ab0 <.LBB95_3+0x78c>
    3808:	00c38e03          	lb	t3,12(t2)
    380c:	00001eb7          	lui	t4,0x1
    3810:	41d40eb3          	sub	t4,s0,t4
    3814:	abceb423          	sd	t3,-1368(t4) # aa8 <.LBB95_3+0x784>
    3818:	00d38e03          	lb	t3,13(t2)
    381c:	00001eb7          	lui	t4,0x1
    3820:	41d40eb3          	sub	t4,s0,t4
    3824:	abceb023          	sd	t3,-1376(t4) # aa0 <.LBB95_3+0x77c>
    3828:	00e38e03          	lb	t3,14(t2)
    382c:	00001eb7          	lui	t4,0x1
    3830:	41d40eb3          	sub	t4,s0,t4
    3834:	a9cebc23          	sd	t3,-1384(t4) # a98 <.LBB95_3+0x774>
    3838:	00f38e03          	lb	t3,15(t2)
    383c:	00001eb7          	lui	t4,0x1
    3840:	41d40eb3          	sub	t4,s0,t4
    3844:	a9ceb823          	sd	t3,-1392(t4) # a90 <.LBB95_3+0x76c>
    3848:	01038e03          	lb	t3,16(t2)
    384c:	00001eb7          	lui	t4,0x1
    3850:	41d40eb3          	sub	t4,s0,t4
    3854:	a9ceb423          	sd	t3,-1400(t4) # a88 <.LBB95_3+0x764>
    3858:	01138e03          	lb	t3,17(t2)
    385c:	00001eb7          	lui	t4,0x1
    3860:	41d40eb3          	sub	t4,s0,t4
    3864:	a9ceb023          	sd	t3,-1408(t4) # a80 <.LBB95_3+0x75c>
    3868:	01238e03          	lb	t3,18(t2)
    386c:	00001eb7          	lui	t4,0x1
    3870:	41d40eb3          	sub	t4,s0,t4
    3874:	a7cebc23          	sd	t3,-1416(t4) # a78 <.LBB95_3+0x754>
    3878:	01338e03          	lb	t3,19(t2)
    387c:	00001eb7          	lui	t4,0x1
    3880:	41d40eb3          	sub	t4,s0,t4
    3884:	a7ceb823          	sd	t3,-1424(t4) # a70 <.LBB95_3+0x74c>
    3888:	01438e03          	lb	t3,20(t2)
    388c:	00001eb7          	lui	t4,0x1
    3890:	41d40eb3          	sub	t4,s0,t4
    3894:	a7ceb423          	sd	t3,-1432(t4) # a68 <.LBB95_3+0x744>
    3898:	01538e03          	lb	t3,21(t2)
    389c:	00001eb7          	lui	t4,0x1
    38a0:	41d40eb3          	sub	t4,s0,t4
    38a4:	a7ceb023          	sd	t3,-1440(t4) # a60 <.LBB95_3+0x73c>
    38a8:	01638e03          	lb	t3,22(t2)
    38ac:	00001eb7          	lui	t4,0x1
    38b0:	41d40eb3          	sub	t4,s0,t4
    38b4:	a5cebc23          	sd	t3,-1448(t4) # a58 <.LBB95_3+0x734>
    38b8:	01738e03          	lb	t3,23(t2)
    38bc:	00001eb7          	lui	t4,0x1
    38c0:	41d40eb3          	sub	t4,s0,t4
    38c4:	a5ceb823          	sd	t3,-1456(t4) # a50 <.LBB95_3+0x72c>
    38c8:	01838e03          	lb	t3,24(t2)
    38cc:	00001eb7          	lui	t4,0x1
    38d0:	41d40eb3          	sub	t4,s0,t4
    38d4:	a5ceb423          	sd	t3,-1464(t4) # a48 <.LBB95_3+0x724>
    38d8:	01938e03          	lb	t3,25(t2)
    38dc:	00001eb7          	lui	t4,0x1
    38e0:	41d40eb3          	sub	t4,s0,t4
    38e4:	a5ceb023          	sd	t3,-1472(t4) # a40 <.LBB95_3+0x71c>
    38e8:	01a38e03          	lb	t3,26(t2)
    38ec:	00001eb7          	lui	t4,0x1
    38f0:	41d40eb3          	sub	t4,s0,t4
    38f4:	a3cebc23          	sd	t3,-1480(t4) # a38 <.LBB95_3+0x714>
    38f8:	01b38e03          	lb	t3,27(t2)
    38fc:	00001eb7          	lui	t4,0x1
    3900:	41d40eb3          	sub	t4,s0,t4
    3904:	a3ceb823          	sd	t3,-1488(t4) # a30 <.LBB95_3+0x70c>
    3908:	01c38e03          	lb	t3,28(t2)
    390c:	00001eb7          	lui	t4,0x1
    3910:	41d40eb3          	sub	t4,s0,t4
    3914:	a3ceb423          	sd	t3,-1496(t4) # a28 <.LBB95_3+0x704>
    3918:	01d38e03          	lb	t3,29(t2)
    391c:	00001eb7          	lui	t4,0x1
    3920:	41d40eb3          	sub	t4,s0,t4
    3924:	a1cebc23          	sd	t3,-1512(t4) # a18 <.LBB95_3+0x6f4>
    3928:	01e38e03          	lb	t3,30(t2)
    392c:	00001eb7          	lui	t4,0x1
    3930:	41d40eb3          	sub	t4,s0,t4
    3934:	a1ceb423          	sd	t3,-1528(t4) # a08 <.LBB95_3+0x6e4>
    3938:	01f38383          	lb	t2,31(t2)
    393c:	00001e37          	lui	t3,0x1
    3940:	41c40e33          	sub	t3,s0,t3
    3944:	9e7e3c23          	sd	t2,-1544(t3) # 9f8 <.LBB95_3+0x6d4>
    3948:	00028383          	lb	t2,0(t0)
    394c:	00001e37          	lui	t3,0x1
    3950:	41c40e33          	sub	t3,s0,t3
    3954:	c27e3023          	sd	t2,-992(t3) # c20 <.LBB95_3+0x8fc>
    3958:	00128383          	lb	t2,1(t0)
    395c:	00001e37          	lui	t3,0x1
    3960:	41c40e33          	sub	t3,s0,t3
    3964:	c07e3823          	sd	t2,-1008(t3) # c10 <.LBB95_3+0x8ec>
    3968:	00228383          	lb	t2,2(t0)
    396c:	00001e37          	lui	t3,0x1
    3970:	41c40e33          	sub	t3,s0,t3
    3974:	c07e3023          	sd	t2,-1024(t3) # c00 <.LBB95_3+0x8dc>
    3978:	00328383          	lb	t2,3(t0)
    397c:	00001e37          	lui	t3,0x1
    3980:	41c40e33          	sub	t3,s0,t3
    3984:	be7e3823          	sd	t2,-1040(t3) # bf0 <.LBB95_3+0x8cc>
    3988:	00428383          	lb	t2,4(t0)
    398c:	00001e37          	lui	t3,0x1
    3990:	41c40e33          	sub	t3,s0,t3
    3994:	be7e3423          	sd	t2,-1048(t3) # be8 <.LBB95_3+0x8c4>
    3998:	00528383          	lb	t2,5(t0)
    399c:	00001e37          	lui	t3,0x1
    39a0:	41c40e33          	sub	t3,s0,t3
    39a4:	be7e3023          	sd	t2,-1056(t3) # be0 <.LBB95_3+0x8bc>
    39a8:	00628383          	lb	t2,6(t0)
    39ac:	00001e37          	lui	t3,0x1
    39b0:	41c40e33          	sub	t3,s0,t3
    39b4:	bc7e3c23          	sd	t2,-1064(t3) # bd8 <.LBB95_3+0x8b4>
    39b8:	00728383          	lb	t2,7(t0)
    39bc:	00001e37          	lui	t3,0x1
    39c0:	41c40e33          	sub	t3,s0,t3
    39c4:	bc7e3823          	sd	t2,-1072(t3) # bd0 <.LBB95_3+0x8ac>
    39c8:	00828383          	lb	t2,8(t0)
    39cc:	00001e37          	lui	t3,0x1
    39d0:	41c40e33          	sub	t3,s0,t3
    39d4:	bc7e3423          	sd	t2,-1080(t3) # bc8 <.LBB95_3+0x8a4>
    39d8:	00928383          	lb	t2,9(t0)
    39dc:	00001e37          	lui	t3,0x1
    39e0:	41c40e33          	sub	t3,s0,t3
    39e4:	bc7e3023          	sd	t2,-1088(t3) # bc0 <.LBB95_3+0x89c>
    39e8:	00a28383          	lb	t2,10(t0)
    39ec:	00001e37          	lui	t3,0x1
    39f0:	41c40e33          	sub	t3,s0,t3
    39f4:	ba7e3c23          	sd	t2,-1096(t3) # bb8 <.LBB95_3+0x894>
    39f8:	00b28383          	lb	t2,11(t0)
    39fc:	00001e37          	lui	t3,0x1
    3a00:	41c40e33          	sub	t3,s0,t3
    3a04:	ba7e3823          	sd	t2,-1104(t3) # bb0 <.LBB95_3+0x88c>
    3a08:	00c28383          	lb	t2,12(t0)
    3a0c:	00001e37          	lui	t3,0x1
    3a10:	41c40e33          	sub	t3,s0,t3
    3a14:	ba7e3423          	sd	t2,-1112(t3) # ba8 <.LBB95_3+0x884>
    3a18:	00d28383          	lb	t2,13(t0)
    3a1c:	00001e37          	lui	t3,0x1
    3a20:	41c40e33          	sub	t3,s0,t3
    3a24:	ba7e3023          	sd	t2,-1120(t3) # ba0 <.LBB95_3+0x87c>
    3a28:	00e28383          	lb	t2,14(t0)
    3a2c:	00001e37          	lui	t3,0x1
    3a30:	41c40e33          	sub	t3,s0,t3
    3a34:	b87e3c23          	sd	t2,-1128(t3) # b98 <.LBB95_3+0x874>
    3a38:	00f28383          	lb	t2,15(t0)
    3a3c:	00001e37          	lui	t3,0x1
    3a40:	41c40e33          	sub	t3,s0,t3
    3a44:	b87e3823          	sd	t2,-1136(t3) # b90 <.LBB95_3+0x86c>
    3a48:	01028383          	lb	t2,16(t0)
    3a4c:	00001e37          	lui	t3,0x1
    3a50:	41c40e33          	sub	t3,s0,t3
    3a54:	b87e3423          	sd	t2,-1144(t3) # b88 <.LBB95_3+0x864>
    3a58:	01128383          	lb	t2,17(t0)
    3a5c:	00001e37          	lui	t3,0x1
    3a60:	41c40e33          	sub	t3,s0,t3
    3a64:	b87e3023          	sd	t2,-1152(t3) # b80 <.LBB95_3+0x85c>
    3a68:	01228383          	lb	t2,18(t0)
    3a6c:	00001e37          	lui	t3,0x1
    3a70:	41c40e33          	sub	t3,s0,t3
    3a74:	b67e3c23          	sd	t2,-1160(t3) # b78 <.LBB95_3+0x854>
    3a78:	01328383          	lb	t2,19(t0)
    3a7c:	00001e37          	lui	t3,0x1
    3a80:	41c40e33          	sub	t3,s0,t3
    3a84:	b67e3823          	sd	t2,-1168(t3) # b70 <.LBB95_3+0x84c>
    3a88:	01428383          	lb	t2,20(t0)
    3a8c:	00001e37          	lui	t3,0x1
    3a90:	41c40e33          	sub	t3,s0,t3
    3a94:	b67e3423          	sd	t2,-1176(t3) # b68 <.LBB95_3+0x844>
    3a98:	01528383          	lb	t2,21(t0)
    3a9c:	00001e37          	lui	t3,0x1
    3aa0:	41c40e33          	sub	t3,s0,t3
    3aa4:	b67e3023          	sd	t2,-1184(t3) # b60 <.LBB95_3+0x83c>
    3aa8:	01628383          	lb	t2,22(t0)
    3aac:	00001e37          	lui	t3,0x1
    3ab0:	41c40e33          	sub	t3,s0,t3
    3ab4:	b47e3c23          	sd	t2,-1192(t3) # b58 <.LBB95_3+0x834>
    3ab8:	01728383          	lb	t2,23(t0)
    3abc:	00001e37          	lui	t3,0x1
    3ac0:	41c40e33          	sub	t3,s0,t3
    3ac4:	b47e3823          	sd	t2,-1200(t3) # b50 <.LBB95_3+0x82c>
    3ac8:	01828383          	lb	t2,24(t0)
    3acc:	00001e37          	lui	t3,0x1
    3ad0:	41c40e33          	sub	t3,s0,t3
    3ad4:	b47e3423          	sd	t2,-1208(t3) # b48 <.LBB95_3+0x824>
    3ad8:	01928383          	lb	t2,25(t0)
    3adc:	00001e37          	lui	t3,0x1
    3ae0:	41c40e33          	sub	t3,s0,t3
    3ae4:	b47e3023          	sd	t2,-1216(t3) # b40 <.LBB95_3+0x81c>
    3ae8:	01a28383          	lb	t2,26(t0)
    3aec:	00001e37          	lui	t3,0x1
    3af0:	41c40e33          	sub	t3,s0,t3
    3af4:	b27e3c23          	sd	t2,-1224(t3) # b38 <.LBB95_3+0x814>
    3af8:	01b28383          	lb	t2,27(t0)
    3afc:	00001e37          	lui	t3,0x1
    3b00:	41c40e33          	sub	t3,s0,t3
    3b04:	b27e3823          	sd	t2,-1232(t3) # b30 <.LBB95_3+0x80c>
    3b08:	01c28383          	lb	t2,28(t0)
    3b0c:	00001e37          	lui	t3,0x1
    3b10:	41c40e33          	sub	t3,s0,t3
    3b14:	b27e3423          	sd	t2,-1240(t3) # b28 <.LBB95_3+0x804>
    3b18:	01d28383          	lb	t2,29(t0)
    3b1c:	00001e37          	lui	t3,0x1
    3b20:	41c40e33          	sub	t3,s0,t3
    3b24:	b07e3c23          	sd	t2,-1256(t3) # b18 <.LBB95_3+0x7f4>
    3b28:	01e28383          	lb	t2,30(t0)
    3b2c:	00001e37          	lui	t3,0x1
    3b30:	41c40e33          	sub	t3,s0,t3
    3b34:	b07e3423          	sd	t2,-1272(t3) # b08 <.LBB95_3+0x7e4>
    3b38:	01f28283          	lb	t0,31(t0)
    3b3c:	000013b7          	lui	t2,0x1
    3b40:	407403b3          	sub	t2,s0,t2
    3b44:	ae53bc23          	sd	t0,-1288(t2) # af8 <.LBB95_3+0x7d4>
    3b48:	00088283          	lb	t0,0(a7)
    3b4c:	000013b7          	lui	t2,0x1
    3b50:	407403b3          	sub	t2,s0,t2
    3b54:	d253b023          	sd	t0,-736(t2) # d20 <.LBB95_3+0x9fc>
    3b58:	00188283          	lb	t0,1(a7)
    3b5c:	000013b7          	lui	t2,0x1
    3b60:	407403b3          	sub	t2,s0,t2
    3b64:	d053b823          	sd	t0,-752(t2) # d10 <.LBB95_3+0x9ec>
    3b68:	00288283          	lb	t0,2(a7)
    3b6c:	000013b7          	lui	t2,0x1
    3b70:	407403b3          	sub	t2,s0,t2
    3b74:	d053b023          	sd	t0,-768(t2) # d00 <.LBB95_3+0x9dc>
    3b78:	00388283          	lb	t0,3(a7)
    3b7c:	000013b7          	lui	t2,0x1
    3b80:	407403b3          	sub	t2,s0,t2
    3b84:	ce53b823          	sd	t0,-784(t2) # cf0 <.LBB95_3+0x9cc>
    3b88:	00488283          	lb	t0,4(a7)
    3b8c:	000013b7          	lui	t2,0x1
    3b90:	407403b3          	sub	t2,s0,t2
    3b94:	ce53b423          	sd	t0,-792(t2) # ce8 <.LBB95_3+0x9c4>
    3b98:	00588283          	lb	t0,5(a7)
    3b9c:	000013b7          	lui	t2,0x1
    3ba0:	407403b3          	sub	t2,s0,t2
    3ba4:	ce53b023          	sd	t0,-800(t2) # ce0 <.LBB95_3+0x9bc>
    3ba8:	00688283          	lb	t0,6(a7)
    3bac:	000013b7          	lui	t2,0x1
    3bb0:	407403b3          	sub	t2,s0,t2
    3bb4:	cc53bc23          	sd	t0,-808(t2) # cd8 <.LBB95_3+0x9b4>
    3bb8:	00788283          	lb	t0,7(a7)
    3bbc:	000013b7          	lui	t2,0x1
    3bc0:	407403b3          	sub	t2,s0,t2
    3bc4:	cc53b823          	sd	t0,-816(t2) # cd0 <.LBB95_3+0x9ac>
    3bc8:	00888283          	lb	t0,8(a7)
    3bcc:	000013b7          	lui	t2,0x1
    3bd0:	407403b3          	sub	t2,s0,t2
    3bd4:	cc53b423          	sd	t0,-824(t2) # cc8 <.LBB95_3+0x9a4>
    3bd8:	00988283          	lb	t0,9(a7)
    3bdc:	000013b7          	lui	t2,0x1
    3be0:	407403b3          	sub	t2,s0,t2
    3be4:	cc53b023          	sd	t0,-832(t2) # cc0 <.LBB95_3+0x99c>
    3be8:	00a88283          	lb	t0,10(a7)
    3bec:	000013b7          	lui	t2,0x1
    3bf0:	407403b3          	sub	t2,s0,t2
    3bf4:	ca53bc23          	sd	t0,-840(t2) # cb8 <.LBB95_3+0x994>
    3bf8:	00b88283          	lb	t0,11(a7)
    3bfc:	000013b7          	lui	t2,0x1
    3c00:	407403b3          	sub	t2,s0,t2
    3c04:	ca53b823          	sd	t0,-848(t2) # cb0 <.LBB95_3+0x98c>
    3c08:	00c88283          	lb	t0,12(a7)
    3c0c:	000013b7          	lui	t2,0x1
    3c10:	407403b3          	sub	t2,s0,t2
    3c14:	ca53b423          	sd	t0,-856(t2) # ca8 <.LBB95_3+0x984>
    3c18:	00d88283          	lb	t0,13(a7)
    3c1c:	000013b7          	lui	t2,0x1
    3c20:	407403b3          	sub	t2,s0,t2
    3c24:	ca53b023          	sd	t0,-864(t2) # ca0 <.LBB95_3+0x97c>
    3c28:	00e88283          	lb	t0,14(a7)
    3c2c:	000013b7          	lui	t2,0x1
    3c30:	407403b3          	sub	t2,s0,t2
    3c34:	c853bc23          	sd	t0,-872(t2) # c98 <.LBB95_3+0x974>
    3c38:	00f88283          	lb	t0,15(a7)
    3c3c:	000013b7          	lui	t2,0x1
    3c40:	407403b3          	sub	t2,s0,t2
    3c44:	c853b823          	sd	t0,-880(t2) # c90 <.LBB95_3+0x96c>
    3c48:	01088283          	lb	t0,16(a7)
    3c4c:	000013b7          	lui	t2,0x1
    3c50:	407403b3          	sub	t2,s0,t2
    3c54:	c853b423          	sd	t0,-888(t2) # c88 <.LBB95_3+0x964>
    3c58:	01188283          	lb	t0,17(a7)
    3c5c:	000013b7          	lui	t2,0x1
    3c60:	407403b3          	sub	t2,s0,t2
    3c64:	c853b023          	sd	t0,-896(t2) # c80 <.LBB95_3+0x95c>
    3c68:	01288283          	lb	t0,18(a7)
    3c6c:	000013b7          	lui	t2,0x1
    3c70:	407403b3          	sub	t2,s0,t2
    3c74:	c653bc23          	sd	t0,-904(t2) # c78 <.LBB95_3+0x954>
    3c78:	01388283          	lb	t0,19(a7)
    3c7c:	000013b7          	lui	t2,0x1
    3c80:	407403b3          	sub	t2,s0,t2
    3c84:	c653b823          	sd	t0,-912(t2) # c70 <.LBB95_3+0x94c>
    3c88:	01488283          	lb	t0,20(a7)
    3c8c:	000013b7          	lui	t2,0x1
    3c90:	407403b3          	sub	t2,s0,t2
    3c94:	c653b423          	sd	t0,-920(t2) # c68 <.LBB95_3+0x944>
    3c98:	01588283          	lb	t0,21(a7)
    3c9c:	000013b7          	lui	t2,0x1
    3ca0:	407403b3          	sub	t2,s0,t2
    3ca4:	c653b023          	sd	t0,-928(t2) # c60 <.LBB95_3+0x93c>
    3ca8:	01688283          	lb	t0,22(a7)
    3cac:	000013b7          	lui	t2,0x1
    3cb0:	407403b3          	sub	t2,s0,t2
    3cb4:	c453bc23          	sd	t0,-936(t2) # c58 <.LBB95_3+0x934>
    3cb8:	01788283          	lb	t0,23(a7)
    3cbc:	000013b7          	lui	t2,0x1
    3cc0:	407403b3          	sub	t2,s0,t2
    3cc4:	c453b823          	sd	t0,-944(t2) # c50 <.LBB95_3+0x92c>
    3cc8:	01888283          	lb	t0,24(a7)
    3ccc:	000013b7          	lui	t2,0x1
    3cd0:	407403b3          	sub	t2,s0,t2
    3cd4:	c453b423          	sd	t0,-952(t2) # c48 <.LBB95_3+0x924>
    3cd8:	01988283          	lb	t0,25(a7)
    3cdc:	000013b7          	lui	t2,0x1
    3ce0:	407403b3          	sub	t2,s0,t2
    3ce4:	c453b023          	sd	t0,-960(t2) # c40 <.LBB95_3+0x91c>
    3ce8:	01a88283          	lb	t0,26(a7)
    3cec:	000013b7          	lui	t2,0x1
    3cf0:	407403b3          	sub	t2,s0,t2
    3cf4:	c253bc23          	sd	t0,-968(t2) # c38 <.LBB95_3+0x914>
    3cf8:	01b88283          	lb	t0,27(a7)
    3cfc:	000013b7          	lui	t2,0x1
    3d00:	407403b3          	sub	t2,s0,t2
    3d04:	c253b823          	sd	t0,-976(t2) # c30 <.LBB95_3+0x90c>
    3d08:	01c88283          	lb	t0,28(a7)
    3d0c:	000013b7          	lui	t2,0x1
    3d10:	407403b3          	sub	t2,s0,t2
    3d14:	c253b423          	sd	t0,-984(t2) # c28 <.LBB95_3+0x904>
    3d18:	01d88283          	lb	t0,29(a7)
    3d1c:	000013b7          	lui	t2,0x1
    3d20:	407403b3          	sub	t2,s0,t2
    3d24:	c053bc23          	sd	t0,-1000(t2) # c18 <.LBB95_3+0x8f4>
    3d28:	01e88283          	lb	t0,30(a7)
    3d2c:	000013b7          	lui	t2,0x1
    3d30:	407403b3          	sub	t2,s0,t2
    3d34:	c053b423          	sd	t0,-1016(t2) # c08 <.LBB95_3+0x8e4>
    3d38:	01f88883          	lb	a7,31(a7)
    3d3c:	000012b7          	lui	t0,0x1
    3d40:	405402b3          	sub	t0,s0,t0
    3d44:	bf12bc23          	sd	a7,-1032(t0) # bf8 <.LBB95_3+0x8d4>
    3d48:	00070883          	lb	a7,0(a4)
    3d4c:	000012b7          	lui	t0,0x1
    3d50:	405402b3          	sub	t0,s0,t0
    3d54:	e512b423          	sd	a7,-440(t0) # e48 <.LBB95_3+0xb24>
    3d58:	00170883          	lb	a7,1(a4)
    3d5c:	000012b7          	lui	t0,0x1
    3d60:	405402b3          	sub	t0,s0,t0
    3d64:	e312bc23          	sd	a7,-456(t0) # e38 <.LBB95_3+0xb14>
    3d68:	00270883          	lb	a7,2(a4)
    3d6c:	000012b7          	lui	t0,0x1
    3d70:	405402b3          	sub	t0,s0,t0
    3d74:	e312b423          	sd	a7,-472(t0) # e28 <.LBB95_3+0xb04>
    3d78:	00370883          	lb	a7,3(a4)
    3d7c:	000012b7          	lui	t0,0x1
    3d80:	405402b3          	sub	t0,s0,t0
    3d84:	e112bc23          	sd	a7,-488(t0) # e18 <.LBB95_3+0xaf4>
    3d88:	00470883          	lb	a7,4(a4)
    3d8c:	000012b7          	lui	t0,0x1
    3d90:	405402b3          	sub	t0,s0,t0
    3d94:	e112b423          	sd	a7,-504(t0) # e08 <.LBB95_3+0xae4>
    3d98:	00570883          	lb	a7,5(a4)
    3d9c:	000012b7          	lui	t0,0x1
    3da0:	405402b3          	sub	t0,s0,t0
    3da4:	df12b823          	sd	a7,-528(t0) # df0 <.LBB95_3+0xacc>
    3da8:	00670883          	lb	a7,6(a4)
    3dac:	000012b7          	lui	t0,0x1
    3db0:	405402b3          	sub	t0,s0,t0
    3db4:	df12b023          	sd	a7,-544(t0) # de0 <.LBB95_3+0xabc>
    3db8:	00770883          	lb	a7,7(a4)
    3dbc:	000012b7          	lui	t0,0x1
    3dc0:	405402b3          	sub	t0,s0,t0
    3dc4:	dd12b823          	sd	a7,-560(t0) # dd0 <.LBB95_3+0xaac>
    3dc8:	00870883          	lb	a7,8(a4)
    3dcc:	000012b7          	lui	t0,0x1
    3dd0:	405402b3          	sub	t0,s0,t0
    3dd4:	dd12b423          	sd	a7,-568(t0) # dc8 <.LBB95_3+0xaa4>
    3dd8:	00970883          	lb	a7,9(a4)
    3ddc:	000012b7          	lui	t0,0x1
    3de0:	405402b3          	sub	t0,s0,t0
    3de4:	dd12b023          	sd	a7,-576(t0) # dc0 <.LBB95_3+0xa9c>
    3de8:	00a70883          	lb	a7,10(a4)
    3dec:	000012b7          	lui	t0,0x1
    3df0:	405402b3          	sub	t0,s0,t0
    3df4:	db12bc23          	sd	a7,-584(t0) # db8 <.LBB95_3+0xa94>
    3df8:	00b70883          	lb	a7,11(a4)
    3dfc:	000012b7          	lui	t0,0x1
    3e00:	405402b3          	sub	t0,s0,t0
    3e04:	db12b823          	sd	a7,-592(t0) # db0 <.LBB95_3+0xa8c>
    3e08:	00c70883          	lb	a7,12(a4)
    3e0c:	000012b7          	lui	t0,0x1
    3e10:	405402b3          	sub	t0,s0,t0
    3e14:	db12b423          	sd	a7,-600(t0) # da8 <.LBB95_3+0xa84>
    3e18:	00d70883          	lb	a7,13(a4)
    3e1c:	000012b7          	lui	t0,0x1
    3e20:	405402b3          	sub	t0,s0,t0
    3e24:	db12b023          	sd	a7,-608(t0) # da0 <.LBB95_3+0xa7c>
    3e28:	00e70883          	lb	a7,14(a4)
    3e2c:	000012b7          	lui	t0,0x1
    3e30:	405402b3          	sub	t0,s0,t0
    3e34:	d912bc23          	sd	a7,-616(t0) # d98 <.LBB95_3+0xa74>
    3e38:	00f70883          	lb	a7,15(a4)
    3e3c:	000012b7          	lui	t0,0x1
    3e40:	405402b3          	sub	t0,s0,t0
    3e44:	d912b823          	sd	a7,-624(t0) # d90 <.LBB95_3+0xa6c>
    3e48:	01070883          	lb	a7,16(a4)
    3e4c:	000012b7          	lui	t0,0x1
    3e50:	405402b3          	sub	t0,s0,t0
    3e54:	d912b423          	sd	a7,-632(t0) # d88 <.LBB95_3+0xa64>
    3e58:	01170883          	lb	a7,17(a4)
    3e5c:	000012b7          	lui	t0,0x1
    3e60:	405402b3          	sub	t0,s0,t0
    3e64:	d912b023          	sd	a7,-640(t0) # d80 <.LBB95_3+0xa5c>
    3e68:	01270883          	lb	a7,18(a4)
    3e6c:	000012b7          	lui	t0,0x1
    3e70:	405402b3          	sub	t0,s0,t0
    3e74:	d712bc23          	sd	a7,-648(t0) # d78 <.LBB95_3+0xa54>
    3e78:	01370883          	lb	a7,19(a4)
    3e7c:	000012b7          	lui	t0,0x1
    3e80:	405402b3          	sub	t0,s0,t0
    3e84:	d712b823          	sd	a7,-656(t0) # d70 <.LBB95_3+0xa4c>
    3e88:	01470883          	lb	a7,20(a4)
    3e8c:	000012b7          	lui	t0,0x1
    3e90:	405402b3          	sub	t0,s0,t0
    3e94:	d712b423          	sd	a7,-664(t0) # d68 <.LBB95_3+0xa44>
    3e98:	01570883          	lb	a7,21(a4)
    3e9c:	000012b7          	lui	t0,0x1
    3ea0:	405402b3          	sub	t0,s0,t0
    3ea4:	d712b023          	sd	a7,-672(t0) # d60 <.LBB95_3+0xa3c>
    3ea8:	01670883          	lb	a7,22(a4)
    3eac:	000012b7          	lui	t0,0x1
    3eb0:	405402b3          	sub	t0,s0,t0
    3eb4:	d512bc23          	sd	a7,-680(t0) # d58 <.LBB95_3+0xa34>
    3eb8:	01770883          	lb	a7,23(a4)
    3ebc:	000012b7          	lui	t0,0x1
    3ec0:	405402b3          	sub	t0,s0,t0
    3ec4:	d512b823          	sd	a7,-688(t0) # d50 <.LBB95_3+0xa2c>
    3ec8:	01870883          	lb	a7,24(a4)
    3ecc:	000012b7          	lui	t0,0x1
    3ed0:	405402b3          	sub	t0,s0,t0
    3ed4:	d512b423          	sd	a7,-696(t0) # d48 <.LBB95_3+0xa24>
    3ed8:	01970883          	lb	a7,25(a4)
    3edc:	000012b7          	lui	t0,0x1
    3ee0:	405402b3          	sub	t0,s0,t0
    3ee4:	d512b023          	sd	a7,-704(t0) # d40 <.LBB95_3+0xa1c>
    3ee8:	01a70883          	lb	a7,26(a4)
    3eec:	000012b7          	lui	t0,0x1
    3ef0:	405402b3          	sub	t0,s0,t0
    3ef4:	d312bc23          	sd	a7,-712(t0) # d38 <.LBB95_3+0xa14>
    3ef8:	01b70883          	lb	a7,27(a4)
    3efc:	000012b7          	lui	t0,0x1
    3f00:	405402b3          	sub	t0,s0,t0
    3f04:	d312b823          	sd	a7,-720(t0) # d30 <.LBB95_3+0xa0c>
    3f08:	01c70883          	lb	a7,28(a4)
    3f0c:	000012b7          	lui	t0,0x1
    3f10:	405402b3          	sub	t0,s0,t0
    3f14:	d312b423          	sd	a7,-728(t0) # d28 <.LBB95_3+0xa04>
    3f18:	01d70883          	lb	a7,29(a4)
    3f1c:	000012b7          	lui	t0,0x1
    3f20:	405402b3          	sub	t0,s0,t0
    3f24:	d112bc23          	sd	a7,-744(t0) # d18 <.LBB95_3+0x9f4>
    3f28:	01e70883          	lb	a7,30(a4)
    3f2c:	000012b7          	lui	t0,0x1
    3f30:	405402b3          	sub	t0,s0,t0
    3f34:	d112b423          	sd	a7,-760(t0) # d08 <.LBB95_3+0x9e4>
    3f38:	01f70703          	lb	a4,31(a4)
    3f3c:	000018b7          	lui	a7,0x1
    3f40:	411408b3          	sub	a7,s0,a7
    3f44:	cee8bc23          	sd	a4,-776(a7) # cf8 <.LBB95_3+0x9d4>
    3f48:	00050703          	lb	a4,0(a0)
    3f4c:	000018b7          	lui	a7,0x1
    3f50:	411408b3          	sub	a7,s0,a7
    3f54:	f2e8b423          	sd	a4,-216(a7) # f28 <.LBB95_3+0xc04>
    3f58:	00150703          	lb	a4,1(a0)
    3f5c:	000018b7          	lui	a7,0x1
    3f60:	411408b3          	sub	a7,s0,a7
    3f64:	f0e8b823          	sd	a4,-240(a7) # f10 <.LBB95_3+0xbec>
    3f68:	00250703          	lb	a4,2(a0)
    3f6c:	000018b7          	lui	a7,0x1
    3f70:	411408b3          	sub	a7,s0,a7
    3f74:	f0e8b023          	sd	a4,-256(a7) # f00 <.LBB95_3+0xbdc>
    3f78:	00350703          	lb	a4,3(a0)
    3f7c:	000018b7          	lui	a7,0x1
    3f80:	411408b3          	sub	a7,s0,a7
    3f84:	eee8bc23          	sd	a4,-264(a7) # ef8 <.LBB95_3+0xbd4>
    3f88:	00450703          	lb	a4,4(a0)
    3f8c:	000018b7          	lui	a7,0x1
    3f90:	411408b3          	sub	a7,s0,a7
    3f94:	eee8b823          	sd	a4,-272(a7) # ef0 <.LBB95_3+0xbcc>
    3f98:	00550703          	lb	a4,5(a0)
    3f9c:	000018b7          	lui	a7,0x1
    3fa0:	411408b3          	sub	a7,s0,a7
    3fa4:	eee8b423          	sd	a4,-280(a7) # ee8 <.LBB95_3+0xbc4>
    3fa8:	00650703          	lb	a4,6(a0)
    3fac:	000018b7          	lui	a7,0x1
    3fb0:	411408b3          	sub	a7,s0,a7
    3fb4:	ece8bc23          	sd	a4,-296(a7) # ed8 <.LBB95_3+0xbb4>
    3fb8:	00750703          	lb	a4,7(a0)
    3fbc:	000018b7          	lui	a7,0x1
    3fc0:	411408b3          	sub	a7,s0,a7
    3fc4:	ece8b823          	sd	a4,-304(a7) # ed0 <.LBB95_3+0xbac>
    3fc8:	00850703          	lb	a4,8(a0)
    3fcc:	000018b7          	lui	a7,0x1
    3fd0:	411408b3          	sub	a7,s0,a7
    3fd4:	ece8b423          	sd	a4,-312(a7) # ec8 <.LBB95_3+0xba4>
    3fd8:	00950703          	lb	a4,9(a0)
    3fdc:	000018b7          	lui	a7,0x1
    3fe0:	411408b3          	sub	a7,s0,a7
    3fe4:	ece8b023          	sd	a4,-320(a7) # ec0 <.LBB95_3+0xb9c>
    3fe8:	00a50703          	lb	a4,10(a0)
    3fec:	000018b7          	lui	a7,0x1
    3ff0:	411408b3          	sub	a7,s0,a7
    3ff4:	eae8bc23          	sd	a4,-328(a7) # eb8 <.LBB95_3+0xb94>
    3ff8:	00b50703          	lb	a4,11(a0)
    3ffc:	000018b7          	lui	a7,0x1
    4000:	411408b3          	sub	a7,s0,a7
    4004:	eae8b823          	sd	a4,-336(a7) # eb0 <.LBB95_3+0xb8c>
    4008:	00c50703          	lb	a4,12(a0)
    400c:	000018b7          	lui	a7,0x1
    4010:	411408b3          	sub	a7,s0,a7
    4014:	eae8b423          	sd	a4,-344(a7) # ea8 <.LBB95_3+0xb84>
    4018:	00d50703          	lb	a4,13(a0)
    401c:	000018b7          	lui	a7,0x1
    4020:	411408b3          	sub	a7,s0,a7
    4024:	eae8b023          	sd	a4,-352(a7) # ea0 <.LBB95_3+0xb7c>
    4028:	00e50703          	lb	a4,14(a0)
    402c:	000018b7          	lui	a7,0x1
    4030:	411408b3          	sub	a7,s0,a7
    4034:	e8e8bc23          	sd	a4,-360(a7) # e98 <.LBB95_3+0xb74>
    4038:	00f50703          	lb	a4,15(a0)
    403c:	000018b7          	lui	a7,0x1
    4040:	411408b3          	sub	a7,s0,a7
    4044:	e8e8b823          	sd	a4,-368(a7) # e90 <.LBB95_3+0xb6c>
    4048:	01050703          	lb	a4,16(a0)
    404c:	000018b7          	lui	a7,0x1
    4050:	411408b3          	sub	a7,s0,a7
    4054:	e8e8b423          	sd	a4,-376(a7) # e88 <.LBB95_3+0xb64>
    4058:	01150703          	lb	a4,17(a0)
    405c:	000018b7          	lui	a7,0x1
    4060:	411408b3          	sub	a7,s0,a7
    4064:	e8e8b023          	sd	a4,-384(a7) # e80 <.LBB95_3+0xb5c>
    4068:	01250703          	lb	a4,18(a0)
    406c:	000018b7          	lui	a7,0x1
    4070:	411408b3          	sub	a7,s0,a7
    4074:	e6e8bc23          	sd	a4,-392(a7) # e78 <.LBB95_3+0xb54>
    4078:	01e68703          	lb	a4,30(a3)
    407c:	000018b7          	lui	a7,0x1
    4080:	411408b3          	sub	a7,s0,a7
    4084:	f0e8b423          	sd	a4,-248(a7) # f08 <.LBB95_3+0xbe4>
    4088:	01d68703          	lb	a4,29(a3)
    408c:	000018b7          	lui	a7,0x1
    4090:	411408b3          	sub	a7,s0,a7
    4094:	f0e8bc23          	sd	a4,-232(a7) # f18 <.LBB95_3+0xbf4>
    4098:	01c68703          	lb	a4,28(a3)
    409c:	000018b7          	lui	a7,0x1
    40a0:	411408b3          	sub	a7,s0,a7
    40a4:	f2e8b023          	sd	a4,-224(a7) # f20 <.LBB95_3+0xbfc>
    40a8:	01b68703          	lb	a4,27(a3)
    40ac:	000018b7          	lui	a7,0x1
    40b0:	411408b3          	sub	a7,s0,a7
    40b4:	f2e8b823          	sd	a4,-208(a7) # f30 <.LBB95_3+0xc0c>
    40b8:	01a68703          	lb	a4,26(a3)
    40bc:	000018b7          	lui	a7,0x1
    40c0:	411408b3          	sub	a7,s0,a7
    40c4:	f2e8bc23          	sd	a4,-200(a7) # f38 <.LBB95_3+0xc14>
    40c8:	01968703          	lb	a4,25(a3)
    40cc:	000018b7          	lui	a7,0x1
    40d0:	411408b3          	sub	a7,s0,a7
    40d4:	f4e8b023          	sd	a4,-192(a7) # f40 <.LBB95_3+0xc1c>
    40d8:	01868703          	lb	a4,24(a3)
    40dc:	000018b7          	lui	a7,0x1
    40e0:	411408b3          	sub	a7,s0,a7
    40e4:	f4e8b423          	sd	a4,-184(a7) # f48 <.LBB95_3+0xc24>
    40e8:	01768703          	lb	a4,23(a3)
    40ec:	000018b7          	lui	a7,0x1
    40f0:	411408b3          	sub	a7,s0,a7
    40f4:	f4e8b823          	sd	a4,-176(a7) # f50 <.LBB95_3+0xc2c>
    40f8:	01668703          	lb	a4,22(a3)
    40fc:	000018b7          	lui	a7,0x1
    4100:	411408b3          	sub	a7,s0,a7
    4104:	f4e8bc23          	sd	a4,-168(a7) # f58 <.LBB95_3+0xc34>
    4108:	01568703          	lb	a4,21(a3)
    410c:	000018b7          	lui	a7,0x1
    4110:	411408b3          	sub	a7,s0,a7
    4114:	f6e8b023          	sd	a4,-160(a7) # f60 <.LBB95_3+0xc3c>
    4118:	01468703          	lb	a4,20(a3)
    411c:	000018b7          	lui	a7,0x1
    4120:	411408b3          	sub	a7,s0,a7
    4124:	f6e8b423          	sd	a4,-152(a7) # f68 <.LBB95_3+0xc44>
    4128:	01368703          	lb	a4,19(a3)
    412c:	000018b7          	lui	a7,0x1
    4130:	411408b3          	sub	a7,s0,a7
    4134:	f6e8b823          	sd	a4,-144(a7) # f70 <.LBB95_3+0xc4c>
    4138:	01268703          	lb	a4,18(a3)
    413c:	000018b7          	lui	a7,0x1
    4140:	411408b3          	sub	a7,s0,a7
    4144:	f6e8bc23          	sd	a4,-136(a7) # f78 <.LBB95_3+0xc54>
    4148:	01168703          	lb	a4,17(a3)
    414c:	000018b7          	lui	a7,0x1
    4150:	411408b3          	sub	a7,s0,a7
    4154:	f8e8b023          	sd	a4,-128(a7) # f80 <.LBB95_4+0x4>
    4158:	01068703          	lb	a4,16(a3)
    415c:	000018b7          	lui	a7,0x1
    4160:	411408b3          	sub	a7,s0,a7
    4164:	f8e8b423          	sd	a4,-120(a7) # f88 <.LBB95_4+0xc>
    4168:	00f68703          	lb	a4,15(a3)
    416c:	000018b7          	lui	a7,0x1
    4170:	411408b3          	sub	a7,s0,a7
    4174:	f8e8b823          	sd	a4,-112(a7) # f90 <.LBB95_4+0x14>
    4178:	00e68703          	lb	a4,14(a3)
    417c:	000018b7          	lui	a7,0x1
    4180:	411408b3          	sub	a7,s0,a7
    4184:	f8e8bc23          	sd	a4,-104(a7) # f98 <.LBB95_4+0x1c>
    4188:	00d68703          	lb	a4,13(a3)
    418c:	000018b7          	lui	a7,0x1
    4190:	411408b3          	sub	a7,s0,a7
    4194:	fae8b023          	sd	a4,-96(a7) # fa0 <.LBB95_4+0x24>
    4198:	00c68703          	lb	a4,12(a3)
    419c:	000018b7          	lui	a7,0x1
    41a0:	411408b3          	sub	a7,s0,a7
    41a4:	fae8b423          	sd	a4,-88(a7) # fa8 <.LBB95_4+0x2c>
    41a8:	00b68703          	lb	a4,11(a3)
    41ac:	000018b7          	lui	a7,0x1
    41b0:	411408b3          	sub	a7,s0,a7
    41b4:	fae8b823          	sd	a4,-80(a7) # fb0 <.LBB95_4+0x34>
    41b8:	00a68703          	lb	a4,10(a3)
    41bc:	000018b7          	lui	a7,0x1
    41c0:	411408b3          	sub	a7,s0,a7
    41c4:	fae8bc23          	sd	a4,-72(a7) # fb8 <.LBB95_4+0x3c>
    41c8:	00968703          	lb	a4,9(a3)
    41cc:	000018b7          	lui	a7,0x1
    41d0:	411408b3          	sub	a7,s0,a7
    41d4:	fce8b023          	sd	a4,-64(a7) # fc0 <.LBB95_4+0x44>
    41d8:	00868703          	lb	a4,8(a3)
    41dc:	000018b7          	lui	a7,0x1
    41e0:	411408b3          	sub	a7,s0,a7
    41e4:	fce8b423          	sd	a4,-56(a7) # fc8 <.LBB95_4+0x4c>
    41e8:	00768703          	lb	a4,7(a3)
    41ec:	000018b7          	lui	a7,0x1
    41f0:	411408b3          	sub	a7,s0,a7
    41f4:	fce8b823          	sd	a4,-48(a7) # fd0 <.LBB95_4+0x54>
    41f8:	00668703          	lb	a4,6(a3)
    41fc:	000018b7          	lui	a7,0x1
    4200:	411408b3          	sub	a7,s0,a7
    4204:	fce8bc23          	sd	a4,-40(a7) # fd8 <.LBB95_4+0x5c>
    4208:	00568703          	lb	a4,5(a3)
    420c:	000018b7          	lui	a7,0x1
    4210:	411408b3          	sub	a7,s0,a7
    4214:	fee8b023          	sd	a4,-32(a7) # fe0 <.LBB95_4+0x64>
    4218:	00468703          	lb	a4,4(a3)
    421c:	000018b7          	lui	a7,0x1
    4220:	411408b3          	sub	a7,s0,a7
    4224:	fee8b423          	sd	a4,-24(a7) # fe8 <.LBB95_4+0x6c>
    4228:	00368703          	lb	a4,3(a3)
    422c:	000018b7          	lui	a7,0x1
    4230:	411408b3          	sub	a7,s0,a7
    4234:	fee8b823          	sd	a4,-16(a7) # ff0 <.LBB95_4+0x74>
    4238:	00268703          	lb	a4,2(a3)
    423c:	000018b7          	lui	a7,0x1
    4240:	411408b3          	sub	a7,s0,a7
    4244:	fee8bc23          	sd	a4,-8(a7) # ff8 <.LBB95_4+0x7c>
    4248:	00168703          	lb	a4,1(a3)
    424c:	000018b7          	lui	a7,0x1
    4250:	411408b3          	sub	a7,s0,a7
    4254:	00e8b023          	sd	a4,0(a7) # 1000 <.LBB95_4+0x84>
    4258:	00068703          	lb	a4,0(a3)
    425c:	000018b7          	lui	a7,0x1
    4260:	411408b3          	sub	a7,s0,a7
    4264:	00e8b423          	sd	a4,8(a7) # 1008 <.LBB95_4+0x8c>
    4268:	01f50703          	lb	a4,31(a0)
    426c:	000018b7          	lui	a7,0x1
    4270:	411408b3          	sub	a7,s0,a7
    4274:	dce8bc23          	sd	a4,-552(a7) # dd8 <.LBB95_3+0xab4>
    4278:	01e50703          	lb	a4,30(a0)
    427c:	000018b7          	lui	a7,0x1
    4280:	411408b3          	sub	a7,s0,a7
    4284:	dee8b423          	sd	a4,-536(a7) # de8 <.LBB95_3+0xac4>
    4288:	01d50703          	lb	a4,29(a0)
    428c:	000018b7          	lui	a7,0x1
    4290:	411408b3          	sub	a7,s0,a7
    4294:	dee8bc23          	sd	a4,-520(a7) # df8 <.LBB95_3+0xad4>
    4298:	01c50703          	lb	a4,28(a0)
    429c:	000018b7          	lui	a7,0x1
    42a0:	411408b3          	sub	a7,s0,a7
    42a4:	e0e8b023          	sd	a4,-512(a7) # e00 <.LBB95_3+0xadc>
    42a8:	01b50703          	lb	a4,27(a0)
    42ac:	000018b7          	lui	a7,0x1
    42b0:	411408b3          	sub	a7,s0,a7
    42b4:	e0e8b823          	sd	a4,-496(a7) # e10 <.LBB95_3+0xaec>
    42b8:	01a50703          	lb	a4,26(a0)
    42bc:	000018b7          	lui	a7,0x1
    42c0:	411408b3          	sub	a7,s0,a7
    42c4:	e2e8b023          	sd	a4,-480(a7) # e20 <.LBB95_3+0xafc>
    42c8:	01950703          	lb	a4,25(a0)
    42cc:	000018b7          	lui	a7,0x1
    42d0:	411408b3          	sub	a7,s0,a7
    42d4:	e2e8b823          	sd	a4,-464(a7) # e30 <.LBB95_3+0xb0c>
    42d8:	01850703          	lb	a4,24(a0)
    42dc:	000018b7          	lui	a7,0x1
    42e0:	411408b3          	sub	a7,s0,a7
    42e4:	e4e8b023          	sd	a4,-448(a7) # e40 <.LBB95_3+0xb1c>
    42e8:	01750703          	lb	a4,23(a0)
    42ec:	000018b7          	lui	a7,0x1
    42f0:	411408b3          	sub	a7,s0,a7
    42f4:	e4e8b823          	sd	a4,-432(a7) # e50 <.LBB95_3+0xb2c>
    42f8:	01650703          	lb	a4,22(a0)
    42fc:	000018b7          	lui	a7,0x1
    4300:	411408b3          	sub	a7,s0,a7
    4304:	e4e8bc23          	sd	a4,-424(a7) # e58 <.LBB95_3+0xb34>
    4308:	01550703          	lb	a4,21(a0)
    430c:	000018b7          	lui	a7,0x1
    4310:	411408b3          	sub	a7,s0,a7
    4314:	e6e8b023          	sd	a4,-416(a7) # e60 <.LBB95_3+0xb3c>
    4318:	01450703          	lb	a4,20(a0)
    431c:	000018b7          	lui	a7,0x1
    4320:	411408b3          	sub	a7,s0,a7
    4324:	e6e8b423          	sd	a4,-408(a7) # e68 <.LBB95_3+0xb44>
    4328:	01350503          	lb	a0,19(a0)
    432c:	00001737          	lui	a4,0x1
    4330:	40e40733          	sub	a4,s0,a4
    4334:	e6a73823          	sd	a0,-400(a4) # e70 <.LBB95_3+0xb4c>
    4338:	01f68503          	lb	a0,31(a3)
    433c:	000016b7          	lui	a3,0x1
    4340:	40d406b3          	sub	a3,s0,a3
    4344:	eea6b023          	sd	a0,-288(a3) # ee0 <.LBB95_3+0xbbc>
    4348:	00001537          	lui	a0,0x1
    434c:	40a40533          	sub	a0,s0,a0
    4350:	05853283          	ld	t0,88(a0) # 1058 <.LBB95_4+0xdc>
    4354:	0042a683          	lw	a3,4(t0)
    4358:	0082a503          	lw	a0,8(t0)
    435c:	00c2a883          	lw	a7,12(t0)
    4360:	0102a703          	lw	a4,16(t0)
    4364:	000013b7          	lui	t2,0x1
    4368:	407403b3          	sub	t2,s0,t2
    436c:	58e3b823          	sd	a4,1424(t2) # 1590 <.LBB95_5+0x30>
    4370:	0142a703          	lw	a4,20(t0)
    4374:	000013b7          	lui	t2,0x1
    4378:	407403b3          	sub	t2,s0,t2
    437c:	58e3b023          	sd	a4,1408(t2) # 1580 <.LBB95_5+0x20>
    4380:	0182a703          	lw	a4,24(t0)
    4384:	000013b7          	lui	t2,0x1
    4388:	407403b3          	sub	t2,s0,t2
    438c:	56e3b823          	sd	a4,1392(t2) # 1570 <.LBB95_5+0x10>
    4390:	01c2a703          	lw	a4,28(t0)
    4394:	000012b7          	lui	t0,0x1
    4398:	405402b3          	sub	t0,s0,t0
    439c:	5ce2b023          	sd	a4,1472(t0) # 15c0 <.LBB95_5+0x60>
    43a0:	400003b7          	lui	t2,0x40000
    43a4:	00001737          	lui	a4,0x1
    43a8:	40e40733          	sub	a4,s0,a4
    43ac:	69073283          	ld	t0,1680(a4) # 1690 <.LBB95_5+0x130>
    43b0:	0002d463          	bgez	t0,43b8 <.LBB95_26>
    43b4:	c00003b7          	lui	t2,0xc0000

00000000000043b8 <.LBB95_26>:
    43b8:	00001737          	lui	a4,0x1
    43bc:	40e40733          	sub	a4,s0,a4
    43c0:	38773423          	sd	t2,904(a4) # 1388 <.LBB95_4+0x40c>
    43c4:	007c9393          	slli	t2,s9,0x7
    43c8:	f8843283          	ld	t0,-120(s0)
    43cc:	00001737          	lui	a4,0x1
    43d0:	40e40733          	sub	a4,s0,a4
    43d4:	6d073703          	ld	a4,1744(a4) # 16d0 <.LBB95_5+0x170>
    43d8:	005702b3          	add	t0,a4,t0
    43dc:	00001737          	lui	a4,0x1
    43e0:	40e40733          	sub	a4,s0,a4
    43e4:	6c773823          	sd	t2,1744(a4) # 16d0 <.LBB95_5+0x170>
    43e8:	007282b3          	add	t0,t0,t2
    43ec:	412483bb          	subw	t2,s1,s2
    43f0:	407282bb          	subw	t0,t0,t2
    43f4:	400003b7          	lui	t2,0x40000
    43f8:	00001737          	lui	a4,0x1
    43fc:	40e40733          	sub	a4,s0,a4
    4400:	30573823          	sd	t0,784(a4) # 1310 <.LBB95_4+0x394>
    4404:	00001737          	lui	a4,0x1
    4408:	40e40733          	sub	a4,s0,a4
    440c:	76073e03          	ld	t3,1888(a4) # 1760 <.LBB95_5+0x200>
    4410:	00001737          	lui	a4,0x1
    4414:	40e40733          	sub	a4,s0,a4
    4418:	75873e83          	ld	t4,1880(a4) # 1758 <.LBB95_5+0x1f8>
    441c:	00001737          	lui	a4,0x1
    4420:	40e40733          	sub	a4,s0,a4
    4424:	74873c03          	ld	s8,1864(a4) # 1748 <.LBB95_5+0x1e8>
    4428:	00001737          	lui	a4,0x1
    442c:	40e40733          	sub	a4,s0,a4
    4430:	6d873703          	ld	a4,1752(a4) # 16d8 <.LBB95_5+0x178>
    4434:	0002d463          	bgez	t0,443c <.LBB95_28>
    4438:	c00003b7          	lui	t2,0xc0000

000000000000443c <.LBB95_28>:
    443c:	000012b7          	lui	t0,0x1
    4440:	405402b3          	sub	t0,s0,t0
    4444:	3072b423          	sd	t2,776(t0) # 1308 <.LBB95_4+0x38c>
    4448:	007d9393          	slli	t2,s11,0x7
    444c:	f7843283          	ld	t0,-136(s0)
    4450:	005702b3          	add	t0,a4,t0
    4454:	00001737          	lui	a4,0x1
    4458:	40e40733          	sub	a4,s0,a4
    445c:	6c773c23          	sd	t2,1752(a4) # 16d8 <.LBB95_5+0x178>
    4460:	007282b3          	add	t0,t0,t2
    4464:	412483bb          	subw	t2,s1,s2
    4468:	407282bb          	subw	t0,t0,t2
    446c:	400003b7          	lui	t2,0x40000
    4470:	00001737          	lui	a4,0x1
    4474:	40e40733          	sub	a4,s0,a4
    4478:	28573823          	sd	t0,656(a4) # 1290 <.LBB95_4+0x314>
    447c:	00001737          	lui	a4,0x1
    4480:	40e40733          	sub	a4,s0,a4
    4484:	70873c83          	ld	s9,1800(a4) # 1708 <.LBB95_5+0x1a8>
    4488:	0002d463          	bgez	t0,4490 <.LBB95_30>
    448c:	c00003b7          	lui	t2,0xc0000

0000000000004490 <.LBB95_30>:
    4490:	00001737          	lui	a4,0x1
    4494:	40e40733          	sub	a4,s0,a4
    4498:	28773023          	sd	t2,640(a4) # 1280 <.LBB95_4+0x304>
    449c:	007b9713          	slli	a4,s7,0x7
    44a0:	f7043283          	ld	t0,-144(s0)
    44a4:	000013b7          	lui	t2,0x1
    44a8:	407403b3          	sub	t2,s0,t2
    44ac:	6e03b383          	ld	t2,1760(t2) # 16e0 <.LBB95_5+0x180>
    44b0:	005382b3          	add	t0,t2,t0
    44b4:	000013b7          	lui	t2,0x1
    44b8:	407403b3          	sub	t2,s0,t2
    44bc:	6ee3b023          	sd	a4,1760(t2) # 16e0 <.LBB95_5+0x180>
    44c0:	00e282b3          	add	t0,t0,a4
    44c4:	412483bb          	subw	t2,s1,s2
    44c8:	407282bb          	subw	t0,t0,t2
    44cc:	400003b7          	lui	t2,0x40000
    44d0:	00001737          	lui	a4,0x1
    44d4:	40e40733          	sub	a4,s0,a4
    44d8:	20573823          	sd	t0,528(a4) # 1210 <.LBB95_4+0x294>
    44dc:	00001737          	lui	a4,0x1
    44e0:	40e40733          	sub	a4,s0,a4
    44e4:	71073d83          	ld	s11,1808(a4) # 1710 <.LBB95_5+0x1b0>
    44e8:	0002d463          	bgez	t0,44f0 <.LBB95_32>
    44ec:	c00003b7          	lui	t2,0xc0000

00000000000044f0 <.LBB95_32>:
    44f0:	00001737          	lui	a4,0x1
    44f4:	40e40733          	sub	a4,s0,a4
    44f8:	1e773c23          	sd	t2,504(a4) # 11f8 <.LBB95_4+0x27c>
    44fc:	007a9a93          	slli	s5,s5,0x7
    4500:	f6843283          	ld	t0,-152(s0)
    4504:	00001737          	lui	a4,0x1
    4508:	40e40733          	sub	a4,s0,a4
    450c:	6e873703          	ld	a4,1768(a4) # 16e8 <.LBB95_5+0x188>
    4510:	005702b3          	add	t0,a4,t0
    4514:	00001737          	lui	a4,0x1
    4518:	40e40733          	sub	a4,s0,a4
    451c:	6f573423          	sd	s5,1768(a4) # 16e8 <.LBB95_5+0x188>
    4520:	015282b3          	add	t0,t0,s5
    4524:	ffeb6ab7          	lui	s5,0xffeb6
    4528:	415483bb          	subw	t2,s1,s5
    452c:	407282bb          	subw	t0,t0,t2
    4530:	400003b7          	lui	t2,0x40000
    4534:	00001737          	lui	a4,0x1
    4538:	40e40733          	sub	a4,s0,a4
    453c:	18573423          	sd	t0,392(a4) # 1188 <.LBB95_4+0x20c>
    4540:	00001737          	lui	a4,0x1
    4544:	40e40733          	sub	a4,s0,a4
    4548:	75073903          	ld	s2,1872(a4) # 1750 <.LBB95_5+0x1f0>
    454c:	00001737          	lui	a4,0x1
    4550:	40e40733          	sub	a4,s0,a4
    4554:	70073b83          	ld	s7,1792(a4) # 1700 <.LBB95_5+0x1a0>
    4558:	00001737          	lui	a4,0x1
    455c:	40e40733          	sub	a4,s0,a4
    4560:	6f073703          	ld	a4,1776(a4) # 16f0 <.LBB95_5+0x190>
    4564:	0002d463          	bgez	t0,456c <.LBB95_34>
    4568:	c00003b7          	lui	t2,0xc0000

000000000000456c <.LBB95_34>:
    456c:	000012b7          	lui	t0,0x1
    4570:	405402b3          	sub	t0,s0,t0
    4574:	1672b423          	sd	t2,360(t0) # 1168 <.LBB95_4+0x1ec>
    4578:	00799993          	slli	s3,s3,0x7
    457c:	f6043283          	ld	t0,-160(s0)
    4580:	005702b3          	add	t0,a4,t0
    4584:	00001737          	lui	a4,0x1
    4588:	40e40733          	sub	a4,s0,a4
    458c:	6f373823          	sd	s3,1776(a4) # 16f0 <.LBB95_5+0x190>
    4590:	013282b3          	add	t0,t0,s3
    4594:	415483bb          	subw	t2,s1,s5
    4598:	407282bb          	subw	t0,t0,t2
    459c:	400003b7          	lui	t2,0x40000
    45a0:	00001737          	lui	a4,0x1
    45a4:	40e40733          	sub	a4,s0,a4
    45a8:	0e573c23          	sd	t0,248(a4) # 10f8 <.LBB95_4+0x17c>
    45ac:	0002d463          	bgez	t0,45b4 <.LBB95_36>
    45b0:	c00003b7          	lui	t2,0xc0000

00000000000045b4 <.LBB95_36>:
    45b4:	00001737          	lui	a4,0x1
    45b8:	40e40733          	sub	a4,s0,a4
    45bc:	0c773c23          	sd	t2,216(a4) # 10d8 <.LBB95_4+0x15c>
    45c0:	007f9713          	slli	a4,t6,0x7
    45c4:	f5843283          	ld	t0,-168(s0)
    45c8:	000013b7          	lui	t2,0x1
    45cc:	407403b3          	sub	t2,s0,t2
    45d0:	6f83b383          	ld	t2,1784(t2) # 16f8 <.LBB95_5+0x198>
    45d4:	005382b3          	add	t0,t2,t0
    45d8:	000013b7          	lui	t2,0x1
    45dc:	407403b3          	sub	t2,s0,t2
    45e0:	6ee3bc23          	sd	a4,1784(t2) # 16f8 <.LBB95_5+0x198>
    45e4:	00e282b3          	add	t0,t0,a4
    45e8:	415483bb          	subw	t2,s1,s5
    45ec:	407282bb          	subw	t0,t0,t2
    45f0:	400003b7          	lui	t2,0x40000
    45f4:	00b00993          	li	s3,11
    45f8:	00001737          	lui	a4,0x1
    45fc:	40e40733          	sub	a4,s0,a4
    4600:	06573423          	sd	t0,104(a4) # 1068 <.LBB95_4+0xec>
    4604:	0002d463          	bgez	t0,460c <.LBB95_38>
    4608:	c00003b7          	lui	t2,0xc0000

000000000000460c <.LBB95_38>:
    460c:	00731313          	slli	t1,t1,0x7
    4610:	f5043283          	ld	t0,-176(s0)
    4614:	005b82b3          	add	t0,s7,t0
    4618:	00030b93          	mv	s7,t1
    461c:	006282b3          	add	t0,t0,t1
    4620:	4154833b          	subw	t1,s1,s5
    4624:	406282bb          	subw	t0,t0,t1
    4628:	40000337          	lui	t1,0x40000
    462c:	a6043703          	ld	a4,-1440(s0)
    4630:	00002fb7          	lui	t6,0x2
    4634:	41f40fb3          	sub	t6,s0,t6
    4638:	785fb423          	sd	t0,1928(t6) # 2788 <.LBB95_5+0x1228>
    463c:	00001fb7          	lui	t6,0x1
    4640:	41f40fb3          	sub	t6,s0,t6
    4644:	718fbf83          	ld	t6,1816(t6) # 1718 <.LBB95_5+0x1b8>
    4648:	0002d463          	bgez	t0,4650 <.LBB95_40>
    464c:	c0000337          	lui	t1,0xc0000

0000000000004650 <.LBB95_40>:
    4650:	f8a43823          	sd	a0,-112(s0)
    4654:	00002537          	lui	a0,0x2
    4658:	40a40533          	sub	a0,s0,a0
    465c:	76653423          	sd	t1,1896(a0) # 2768 <.LBB95_5+0x1208>
    4660:	00781293          	slli	t0,a6,0x7
    4664:	f4843803          	ld	a6,-184(s0)
    4668:	010c8833          	add	a6,s9,a6
    466c:	00028c93          	mv	s9,t0
    4670:	00580833          	add	a6,a6,t0
    4674:	415482bb          	subw	t0,s1,s5
    4678:	4058083b          	subw	a6,a6,t0
    467c:	400002b7          	lui	t0,0x40000
    4680:	97043303          	ld	t1,-1680(s0)
    4684:	00002537          	lui	a0,0x2
    4688:	40a40533          	sub	a0,s0,a0
    468c:	6f053c23          	sd	a6,1784(a0) # 26f8 <.LBB95_5+0x1198>
    4690:	f9043503          	ld	a0,-112(s0)
    4694:	00085463          	bgez	a6,469c <.LBB95_42>
    4698:	c00002b7          	lui	t0,0xc0000

000000000000469c <.LBB95_42>:
    469c:	00779813          	slli	a6,a5,0x7
    46a0:	f4043783          	ld	a5,-192(s0)
    46a4:	00fd87b3          	add	a5,s11,a5
    46a8:	00080d93          	mv	s11,a6
    46ac:	010787b3          	add	a5,a5,a6
    46b0:	4154883b          	subw	a6,s1,s5
    46b4:	410787bb          	subw	a5,a5,a6
    46b8:	40000837          	lui	a6,0x40000
    46bc:	f8a43823          	sd	a0,-112(s0)
    46c0:	00002537          	lui	a0,0x2
    46c4:	40a40533          	sub	a0,s0,a0
    46c8:	66f53823          	sd	a5,1648(a0) # 2670 <.LBB95_5+0x1110>
    46cc:	f9043503          	ld	a0,-112(s0)
    46d0:	0007d463          	bgez	a5,46d8 <.LBB95_44>
    46d4:	c0000837          	lui	a6,0xc0000

00000000000046d8 <.LBB95_44>:
    46d8:	f8a43823          	sd	a0,-112(s0)
    46dc:	00002537          	lui	a0,0x2
    46e0:	40a40533          	sub	a0,s0,a0
    46e4:	67053023          	sd	a6,1632(a0) # 2660 <.LBB95_5+0x1100>
    46e8:	00759793          	slli	a5,a1,0x7
    46ec:	f3843583          	ld	a1,-200(s0)
    46f0:	00bf85b3          	add	a1,t6,a1
    46f4:	00078f93          	mv	t6,a5
    46f8:	00f585b3          	add	a1,a1,a5
    46fc:	415487bb          	subw	a5,s1,s5
    4700:	40f585bb          	subw	a1,a1,a5
    4704:	400007b7          	lui	a5,0x40000
    4708:	87043803          	ld	a6,-1936(s0)
    470c:	00002537          	lui	a0,0x2
    4710:	40a40533          	sub	a0,s0,a0
    4714:	5eb53823          	sd	a1,1520(a0) # 25f0 <.LBB95_5+0x1090>
    4718:	f9043503          	ld	a0,-112(s0)
    471c:	0005d463          	bgez	a1,4724 <.LBB95_46>
    4720:	c00007b7          	lui	a5,0xc0000

0000000000004724 <.LBB95_46>:
    4724:	f8a43823          	sd	a0,-112(s0)
    4728:	00002537          	lui	a0,0x2
    472c:	40a40533          	sub	a0,s0,a0
    4730:	5ef53423          	sd	a5,1512(a0) # 25e8 <.LBB95_5+0x1088>
    4734:	007a1a13          	slli	s4,s4,0x7
    4738:	f3043583          	ld	a1,-208(s0)
    473c:	00001537          	lui	a0,0x1
    4740:	40a40533          	sub	a0,s0,a0
    4744:	72053783          	ld	a5,1824(a0) # 1720 <.LBB95_5+0x1c0>
    4748:	00b785b3          	add	a1,a5,a1
    474c:	014585b3          	add	a1,a1,s4
    4750:	415487bb          	subw	a5,s1,s5
    4754:	40f585bb          	subw	a1,a1,a5
    4758:	400007b7          	lui	a5,0x40000
    475c:	00002537          	lui	a0,0x2
    4760:	40a40533          	sub	a0,s0,a0
    4764:	56b53c23          	sd	a1,1400(a0) # 2578 <.LBB95_5+0x1018>
    4768:	f9043503          	ld	a0,-112(s0)
    476c:	0005d463          	bgez	a1,4774 <.LBB95_48>
    4770:	c00007b7          	lui	a5,0xc0000

0000000000004774 <.LBB95_48>:
    4774:	f8a43823          	sd	a0,-112(s0)
    4778:	00002537          	lui	a0,0x2
    477c:	40a40533          	sub	a0,s0,a0
    4780:	56f53823          	sd	a5,1392(a0) # 2570 <.LBB95_5+0x1010>
    4784:	007f1f13          	slli	t5,t5,0x7
    4788:	f2843583          	ld	a1,-216(s0)
    478c:	00001537          	lui	a0,0x1
    4790:	40a40533          	sub	a0,s0,a0
    4794:	72853783          	ld	a5,1832(a0) # 1728 <.LBB95_5+0x1c8>
    4798:	00b785b3          	add	a1,a5,a1
    479c:	01e585b3          	add	a1,a1,t5
    47a0:	415487bb          	subw	a5,s1,s5
    47a4:	40f585bb          	subw	a1,a1,a5
    47a8:	400007b7          	lui	a5,0x40000
    47ac:	00002537          	lui	a0,0x2
    47b0:	40a40533          	sub	a0,s0,a0
    47b4:	50b53023          	sd	a1,1280(a0) # 2500 <.LBB95_5+0xfa0>
    47b8:	f9043503          	ld	a0,-112(s0)
    47bc:	0005d463          	bgez	a1,47c4 <.LBB95_50>
    47c0:	c00007b7          	lui	a5,0xc0000

00000000000047c4 <.LBB95_50>:
    47c4:	f8a43823          	sd	a0,-112(s0)
    47c8:	00002537          	lui	a0,0x2
    47cc:	40a40533          	sub	a0,s0,a0
    47d0:	4ef53c23          	sd	a5,1272(a0) # 24f8 <.LBB95_5+0xf98>
    47d4:	00709093          	slli	ra,ra,0x7
    47d8:	f2043583          	ld	a1,-224(s0)
    47dc:	00001537          	lui	a0,0x1
    47e0:	40a40533          	sub	a0,s0,a0
    47e4:	73053783          	ld	a5,1840(a0) # 1730 <.LBB95_5+0x1d0>
    47e8:	00b785b3          	add	a1,a5,a1
    47ec:	001585b3          	add	a1,a1,ra
    47f0:	415487bb          	subw	a5,s1,s5
    47f4:	40f585bb          	subw	a1,a1,a5
    47f8:	400007b7          	lui	a5,0x40000
    47fc:	00002537          	lui	a0,0x2
    4800:	40a40533          	sub	a0,s0,a0
    4804:	48b53423          	sd	a1,1160(a0) # 2488 <.LBB95_5+0xf28>
    4808:	f9043503          	ld	a0,-112(s0)
    480c:	0005d463          	bgez	a1,4814 <.LBB95_52>
    4810:	c00007b7          	lui	a5,0xc0000

0000000000004814 <.LBB95_52>:
    4814:	f8a43823          	sd	a0,-112(s0)
    4818:	00002537          	lui	a0,0x2
    481c:	40a40533          	sub	a0,s0,a0
    4820:	48f53023          	sd	a5,1152(a0) # 2480 <.LBB95_5+0xf20>
    4824:	007b1b13          	slli	s6,s6,0x7
    4828:	ef043583          	ld	a1,-272(s0)
    482c:	00001537          	lui	a0,0x1
    4830:	40a40533          	sub	a0,s0,a0
    4834:	73853783          	ld	a5,1848(a0) # 1738 <.LBB95_5+0x1d8>
    4838:	00b785b3          	add	a1,a5,a1
    483c:	016585b3          	add	a1,a1,s6
    4840:	415487bb          	subw	a5,s1,s5
    4844:	40f585bb          	subw	a1,a1,a5
    4848:	400007b7          	lui	a5,0x40000
    484c:	00002537          	lui	a0,0x2
    4850:	40a40533          	sub	a0,s0,a0
    4854:	40b53c23          	sd	a1,1048(a0) # 2418 <.LBB95_5+0xeb8>
    4858:	f9043503          	ld	a0,-112(s0)
    485c:	0005d463          	bgez	a1,4864 <.LBB95_54>
    4860:	c00007b7          	lui	a5,0xc0000

0000000000004864 <.LBB95_54>:
    4864:	f8a43823          	sd	a0,-112(s0)
    4868:	00002537          	lui	a0,0x2
    486c:	40a40533          	sub	a0,s0,a0
    4870:	40f53823          	sd	a5,1040(a0) # 2410 <.LBB95_5+0xeb0>
    4874:	007d1d13          	slli	s10,s10,0x7
    4878:	ee843583          	ld	a1,-280(s0)
    487c:	00001537          	lui	a0,0x1
    4880:	40a40533          	sub	a0,s0,a0
    4884:	74053783          	ld	a5,1856(a0) # 1740 <.LBB95_5+0x1e0>
    4888:	00b785b3          	add	a1,a5,a1
    488c:	01a585b3          	add	a1,a1,s10
    4890:	415487bb          	subw	a5,s1,s5
    4894:	40f585bb          	subw	a1,a1,a5
    4898:	400007b7          	lui	a5,0x40000
    489c:	00002537          	lui	a0,0x2
    48a0:	40a40533          	sub	a0,s0,a0
    48a4:	3ab53423          	sd	a1,936(a0) # 23a8 <.LBB95_5+0xe48>
    48a8:	f9043503          	ld	a0,-112(s0)
    48ac:	0005d463          	bgez	a1,48b4 <.LBB95_56>
    48b0:	c00007b7          	lui	a5,0xc0000

00000000000048b4 <.LBB95_56>:
    48b4:	000025b7          	lui	a1,0x2
    48b8:	40b405b3          	sub	a1,s0,a1
    48bc:	3af5b023          	sd	a5,928(a1) # 23a0 <.LBB95_5+0xe40>
    48c0:	00761613          	slli	a2,a2,0x7
    48c4:	ee043583          	ld	a1,-288(s0)
    48c8:	00bc05b3          	add	a1,s8,a1
    48cc:	00c585b3          	add	a1,a1,a2
    48d0:	415487bb          	subw	a5,s1,s5
    48d4:	40f585bb          	subw	a1,a1,a5
    48d8:	400007b7          	lui	a5,0x40000
    48dc:	00002c37          	lui	s8,0x2
    48e0:	41840c33          	sub	s8,s0,s8
    48e4:	32bc3c23          	sd	a1,824(s8) # 2338 <.LBB95_5+0xdd8>
    48e8:	0005d463          	bgez	a1,48f0 <.LBB95_58>
    48ec:	c00007b7          	lui	a5,0xc0000

00000000000048f0 <.LBB95_58>:
    48f0:	000025b7          	lui	a1,0x2
    48f4:	40b405b3          	sub	a1,s0,a1
    48f8:	32f5b823          	sd	a5,816(a1) # 2330 <.LBB95_5+0xdd0>
    48fc:	000015b7          	lui	a1,0x1
    4900:	40b405b3          	sub	a1,s0,a1
    4904:	5885bc03          	ld	s8,1416(a1) # 1588 <.LBB95_5+0x28>
    4908:	007c1c13          	slli	s8,s8,0x7
    490c:	ed843583          	ld	a1,-296(s0)
    4910:	00b905b3          	add	a1,s2,a1
    4914:	018585b3          	add	a1,a1,s8
    4918:	415487bb          	subw	a5,s1,s5
    491c:	40f585bb          	subw	a1,a1,a5
    4920:	400007b7          	lui	a5,0x40000
    4924:	00002937          	lui	s2,0x2
    4928:	41240933          	sub	s2,s0,s2
    492c:	2cb93423          	sd	a1,712(s2) # 22c8 <.LBB95_5+0xd68>
    4930:	0005d463          	bgez	a1,4938 <.LBB95_60>
    4934:	c00007b7          	lui	a5,0xc0000

0000000000004938 <.LBB95_60>:
    4938:	000025b7          	lui	a1,0x2
    493c:	40b405b3          	sub	a1,s0,a1
    4940:	2cf5b023          	sd	a5,704(a1) # 22c0 <.LBB95_5+0xd60>
    4944:	000015b7          	lui	a1,0x1
    4948:	40b405b3          	sub	a1,s0,a1
    494c:	5985b903          	ld	s2,1432(a1) # 1598 <.LBB95_5+0x38>
    4950:	00791913          	slli	s2,s2,0x7
    4954:	ed043583          	ld	a1,-304(s0)
    4958:	00be85b3          	add	a1,t4,a1
    495c:	012585b3          	add	a1,a1,s2
    4960:	415487bb          	subw	a5,s1,s5
    4964:	40f585bb          	subw	a1,a1,a5
    4968:	400007b7          	lui	a5,0x40000
    496c:	00002eb7          	lui	t4,0x2
    4970:	41d40eb3          	sub	t4,s0,t4
    4974:	26beb023          	sd	a1,608(t4) # 2260 <.LBB95_5+0xd00>
    4978:	0005d463          	bgez	a1,4980 <.LBB95_62>
    497c:	c00007b7          	lui	a5,0xc0000

0000000000004980 <.LBB95_62>:
    4980:	000025b7          	lui	a1,0x2
    4984:	40b405b3          	sub	a1,s0,a1
    4988:	24f5bc23          	sd	a5,600(a1) # 2258 <.LBB95_5+0xcf8>
    498c:	000015b7          	lui	a1,0x1
    4990:	40b405b3          	sub	a1,s0,a1
    4994:	5a05be83          	ld	t4,1440(a1) # 15a0 <.LBB95_5+0x40>
    4998:	007e9e93          	slli	t4,t4,0x7
    499c:	eb043583          	ld	a1,-336(s0)
    49a0:	00be05b3          	add	a1,t3,a1
    49a4:	01d585b3          	add	a1,a1,t4
    49a8:	415487bb          	subw	a5,s1,s5
    49ac:	40f585bb          	subw	a1,a1,a5
    49b0:	400007b7          	lui	a5,0x40000
    49b4:	00002e37          	lui	t3,0x2
    49b8:	41c40e33          	sub	t3,s0,t3
    49bc:	1ebe3823          	sd	a1,496(t3) # 21f0 <.LBB95_5+0xc90>
    49c0:	0005d463          	bgez	a1,49c8 <.LBB95_64>
    49c4:	c00007b7          	lui	a5,0xc0000

00000000000049c8 <.LBB95_64>:
    49c8:	000025b7          	lui	a1,0x2
    49cc:	40b405b3          	sub	a1,s0,a1
    49d0:	1ef5b423          	sd	a5,488(a1) # 21e8 <.LBB95_5+0xc88>
    49d4:	000025b7          	lui	a1,0x2
    49d8:	40b405b3          	sub	a1,s0,a1
    49dc:	7e75bc23          	sd	t2,2040(a1) # 27f8 <.LBB95_5+0x1298>
    49e0:	000015b7          	lui	a1,0x1
    49e4:	40b405b3          	sub	a1,s0,a1
    49e8:	5a85be03          	ld	t3,1448(a1) # 15a8 <.LBB95_5+0x48>
    49ec:	007e1e13          	slli	t3,t3,0x7
    49f0:	eb843583          	ld	a1,-328(s0)
    49f4:	000017b7          	lui	a5,0x1
    49f8:	40f407b3          	sub	a5,s0,a5
    49fc:	7687b783          	ld	a5,1896(a5) # 1768 <.LBB95_5+0x208>
    4a00:	00b785b3          	add	a1,a5,a1
    4a04:	01c585b3          	add	a1,a1,t3
    4a08:	415487bb          	subw	a5,s1,s5
    4a0c:	40f585bb          	subw	a1,a1,a5
    4a10:	400007b7          	lui	a5,0x40000
    4a14:	000023b7          	lui	t2,0x2
    4a18:	407403b3          	sub	t2,s0,t2
    4a1c:	18b3b023          	sd	a1,384(t2) # 2180 <.LBB95_5+0xc20>
    4a20:	0005d463          	bgez	a1,4a28 <.LBB95_66>
    4a24:	c00007b7          	lui	a5,0xc0000

0000000000004a28 <.LBB95_66>:
    4a28:	000025b7          	lui	a1,0x2
    4a2c:	40b405b3          	sub	a1,s0,a1
    4a30:	16f5bc23          	sd	a5,376(a1) # 2178 <.LBB95_5+0xc18>
    4a34:	000025b7          	lui	a1,0x2
    4a38:	40b405b3          	sub	a1,s0,a1
    4a3c:	6e55b023          	sd	t0,1760(a1) # 26e0 <.LBB95_5+0x1180>
    4a40:	000015b7          	lui	a1,0x1
    4a44:	40b405b3          	sub	a1,s0,a1
    4a48:	5b05b383          	ld	t2,1456(a1) # 15b0 <.LBB95_5+0x50>
    4a4c:	00739393          	slli	t2,t2,0x7
    4a50:	ec043583          	ld	a1,-320(s0)
    4a54:	000017b7          	lui	a5,0x1
    4a58:	40f407b3          	sub	a5,s0,a5
    4a5c:	6707b783          	ld	a5,1648(a5) # 1670 <.LBB95_5+0x110>
    4a60:	00b785b3          	add	a1,a5,a1
    4a64:	007585b3          	add	a1,a1,t2
    4a68:	415487bb          	subw	a5,s1,s5
    4a6c:	40f585bb          	subw	a1,a1,a5
    4a70:	400007b7          	lui	a5,0x40000
    4a74:	000022b7          	lui	t0,0x2
    4a78:	405402b3          	sub	t0,s0,t0
    4a7c:	10b2b823          	sd	a1,272(t0) # 2110 <.LBB95_5+0xbb0>
    4a80:	0005d463          	bgez	a1,4a88 <.LBB95_68>
    4a84:	c00007b7          	lui	a5,0xc0000

0000000000004a88 <.LBB95_68>:
    4a88:	000025b7          	lui	a1,0x2
    4a8c:	40b405b3          	sub	a1,s0,a1
    4a90:	10f5b423          	sd	a5,264(a1) # 2108 <.LBB95_5+0xba8>
    4a94:	000015b7          	lui	a1,0x1
    4a98:	40b405b3          	sub	a1,s0,a1
    4a9c:	5b85b283          	ld	t0,1464(a1) # 15b8 <.LBB95_5+0x58>
    4aa0:	00729293          	slli	t0,t0,0x7
    4aa4:	ec843583          	ld	a1,-312(s0)
    4aa8:	000017b7          	lui	a5,0x1
    4aac:	40f407b3          	sub	a5,s0,a5
    4ab0:	6787b783          	ld	a5,1656(a5) # 1678 <.LBB95_5+0x118>
    4ab4:	00b785b3          	add	a1,a5,a1
    4ab8:	005585b3          	add	a1,a1,t0
    4abc:	415487bb          	subw	a5,s1,s5
    4ac0:	40f584bb          	subw	s1,a1,a5
    4ac4:	400005b7          	lui	a1,0x40000
    4ac8:	0004d463          	bgez	s1,4ad0 <.LBB95_70>
    4acc:	c00005b7          	lui	a1,0xc0000

0000000000004ad0 <.LBB95_70>:
    4ad0:	f8a43823          	sd	a0,-112(s0)
    4ad4:	00002537          	lui	a0,0x2
    4ad8:	40a40533          	sub	a0,s0,a0
    4adc:	0ab53023          	sd	a1,160(a0) # 20a0 <.LBB95_5+0xb40>
    4ae0:	eb043783          	ld	a5,-336(s0)
    4ae4:	00001537          	lui	a0,0x1
    4ae8:	40a40533          	sub	a0,s0,a0
    4aec:	77053583          	ld	a1,1904(a0) # 1770 <.LBB95_5+0x210>
    4af0:	00f587b3          	add	a5,a1,a5
    4af4:	033685b3          	mul	a1,a3,s3
    4af8:	01d787b3          	add	a5,a5,t4
    4afc:	415586bb          	subw	a3,a1,s5
    4b00:	40d787bb          	subw	a5,a5,a3
    4b04:	400006b7          	lui	a3,0x40000
    4b08:	00001537          	lui	a0,0x1
    4b0c:	40a40533          	sub	a0,s0,a0
    4b10:	76f53823          	sd	a5,1904(a0) # 1770 <.LBB95_5+0x210>
    4b14:	f9043503          	ld	a0,-112(s0)
    4b18:	0007d463          	bgez	a5,4b20 <.LBB95_72>
    4b1c:	c00006b7          	lui	a3,0xc0000

0000000000004b20 <.LBB95_72>:
    4b20:	f8a43823          	sd	a0,-112(s0)
    4b24:	00001537          	lui	a0,0x1
    4b28:	40a40533          	sub	a0,s0,a0
    4b2c:	76d53423          	sd	a3,1896(a0) # 1768 <.LBB95_5+0x208>
    4b30:	eb843683          	ld	a3,-328(s0)
    4b34:	00001537          	lui	a0,0x1
    4b38:	40a40533          	sub	a0,s0,a0
    4b3c:	77853783          	ld	a5,1912(a0) # 1778 <.LBB95_5+0x218>
    4b40:	00d786b3          	add	a3,a5,a3
    4b44:	01c686b3          	add	a3,a3,t3
    4b48:	415587bb          	subw	a5,a1,s5
    4b4c:	40f686bb          	subw	a3,a3,a5
    4b50:	400007b7          	lui	a5,0x40000
    4b54:	00001537          	lui	a0,0x1
    4b58:	40a40533          	sub	a0,s0,a0
    4b5c:	76d53c23          	sd	a3,1912(a0) # 1778 <.LBB95_5+0x218>
    4b60:	f9043503          	ld	a0,-112(s0)
    4b64:	0006d463          	bgez	a3,4b6c <.LBB95_74>
    4b68:	c00007b7          	lui	a5,0xc0000

0000000000004b6c <.LBB95_74>:
    4b6c:	f8a43823          	sd	a0,-112(s0)
    4b70:	00001537          	lui	a0,0x1
    4b74:	40a40533          	sub	a0,s0,a0
    4b78:	76f53023          	sd	a5,1888(a0) # 1760 <.LBB95_5+0x200>
    4b7c:	ec043683          	ld	a3,-320(s0)
    4b80:	00001537          	lui	a0,0x1
    4b84:	40a40533          	sub	a0,s0,a0
    4b88:	78053783          	ld	a5,1920(a0) # 1780 <.LBB95_5+0x220>
    4b8c:	00d786b3          	add	a3,a5,a3
    4b90:	007686b3          	add	a3,a3,t2
    4b94:	415587bb          	subw	a5,a1,s5
    4b98:	40f686bb          	subw	a3,a3,a5
    4b9c:	400007b7          	lui	a5,0x40000
    4ba0:	00001537          	lui	a0,0x1
    4ba4:	40a40533          	sub	a0,s0,a0
    4ba8:	74d53823          	sd	a3,1872(a0) # 1750 <.LBB95_5+0x1f0>
    4bac:	f9043503          	ld	a0,-112(s0)
    4bb0:	0006d463          	bgez	a3,4bb8 <.LBB95_76>
    4bb4:	c00007b7          	lui	a5,0xc0000

0000000000004bb8 <.LBB95_76>:
    4bb8:	f8a43823          	sd	a0,-112(s0)
    4bbc:	00001537          	lui	a0,0x1
    4bc0:	40a40533          	sub	a0,s0,a0
    4bc4:	74f53023          	sd	a5,1856(a0) # 1740 <.LBB95_5+0x1e0>
    4bc8:	ec843683          	ld	a3,-312(s0)
    4bcc:	00001537          	lui	a0,0x1
    4bd0:	40a40533          	sub	a0,s0,a0
    4bd4:	78853783          	ld	a5,1928(a0) # 1788 <.LBB95_5+0x228>
    4bd8:	00d786b3          	add	a3,a5,a3
    4bdc:	005686b3          	add	a3,a3,t0
    4be0:	415587bb          	subw	a5,a1,s5
    4be4:	40f686bb          	subw	a3,a3,a5
    4be8:	400007b7          	lui	a5,0x40000
    4bec:	00001537          	lui	a0,0x1
    4bf0:	40a40533          	sub	a0,s0,a0
    4bf4:	5ad53c23          	sd	a3,1464(a0) # 15b8 <.LBB95_5+0x58>
    4bf8:	f9043503          	ld	a0,-112(s0)
    4bfc:	0006d463          	bgez	a3,4c04 <.LBB95_78>
    4c00:	c00007b7          	lui	a5,0xc0000

0000000000004c04 <.LBB95_78>:
    4c04:	f8a43823          	sd	a0,-112(s0)
    4c08:	00001537          	lui	a0,0x1
    4c0c:	40a40533          	sub	a0,s0,a0
    4c10:	5af53423          	sd	a5,1448(a0) # 15a8 <.LBB95_5+0x48>
    4c14:	ed043683          	ld	a3,-304(s0)
    4c18:	00001537          	lui	a0,0x1
    4c1c:	40a40533          	sub	a0,s0,a0
    4c20:	79053783          	ld	a5,1936(a0) # 1790 <.LBB95_5+0x230>
    4c24:	00d786b3          	add	a3,a5,a3
    4c28:	012686b3          	add	a3,a3,s2
    4c2c:	415587bb          	subw	a5,a1,s5
    4c30:	40f686bb          	subw	a3,a3,a5
    4c34:	400007b7          	lui	a5,0x40000
    4c38:	00001537          	lui	a0,0x1
    4c3c:	40a40533          	sub	a0,s0,a0
    4c40:	54d53423          	sd	a3,1352(a0) # 1548 <.LBB95_4+0x5cc>
    4c44:	f9043503          	ld	a0,-112(s0)
    4c48:	0006d463          	bgez	a3,4c50 <.LBB95_80>
    4c4c:	c00007b7          	lui	a5,0xc0000

0000000000004c50 <.LBB95_80>:
    4c50:	f8a43823          	sd	a0,-112(s0)
    4c54:	00001537          	lui	a0,0x1
    4c58:	40a40533          	sub	a0,s0,a0
    4c5c:	52f53c23          	sd	a5,1336(a0) # 1538 <.LBB95_4+0x5bc>
    4c60:	ed843683          	ld	a3,-296(s0)
    4c64:	00001537          	lui	a0,0x1
    4c68:	40a40533          	sub	a0,s0,a0
    4c6c:	79853783          	ld	a5,1944(a0) # 1798 <.LBB95_5+0x238>
    4c70:	00d786b3          	add	a3,a5,a3
    4c74:	018686b3          	add	a3,a3,s8
    4c78:	415587bb          	subw	a5,a1,s5
    4c7c:	40f686bb          	subw	a3,a3,a5
    4c80:	400007b7          	lui	a5,0x40000
    4c84:	00001537          	lui	a0,0x1
    4c88:	40a40533          	sub	a0,s0,a0
    4c8c:	4cd53c23          	sd	a3,1240(a0) # 14d8 <.LBB95_4+0x55c>
    4c90:	f9043503          	ld	a0,-112(s0)
    4c94:	0006d463          	bgez	a3,4c9c <.LBB95_82>
    4c98:	c00007b7          	lui	a5,0xc0000

0000000000004c9c <.LBB95_82>:
    4c9c:	f8a43823          	sd	a0,-112(s0)
    4ca0:	00001537          	lui	a0,0x1
    4ca4:	40a40533          	sub	a0,s0,a0
    4ca8:	4cf53423          	sd	a5,1224(a0) # 14c8 <.LBB95_4+0x54c>
    4cac:	ee043683          	ld	a3,-288(s0)
    4cb0:	00001537          	lui	a0,0x1
    4cb4:	40a40533          	sub	a0,s0,a0
    4cb8:	7a053783          	ld	a5,1952(a0) # 17a0 <.LBB95_5+0x240>
    4cbc:	00d786b3          	add	a3,a5,a3
    4cc0:	00c686b3          	add	a3,a3,a2
    4cc4:	415587bb          	subw	a5,a1,s5
    4cc8:	40f686bb          	subw	a3,a3,a5
    4ccc:	400007b7          	lui	a5,0x40000
    4cd0:	00001537          	lui	a0,0x1
    4cd4:	40a40533          	sub	a0,s0,a0
    4cd8:	46d53423          	sd	a3,1128(a0) # 1468 <.LBB95_4+0x4ec>
    4cdc:	f9043503          	ld	a0,-112(s0)
    4ce0:	0006d463          	bgez	a3,4ce8 <.LBB95_84>
    4ce4:	c00007b7          	lui	a5,0xc0000

0000000000004ce8 <.LBB95_84>:
    4ce8:	f8a43823          	sd	a0,-112(s0)
    4cec:	00001537          	lui	a0,0x1
    4cf0:	40a40533          	sub	a0,s0,a0
    4cf4:	44f53c23          	sd	a5,1112(a0) # 1458 <.LBB95_4+0x4dc>
    4cf8:	ee843683          	ld	a3,-280(s0)
    4cfc:	00001537          	lui	a0,0x1
    4d00:	40a40533          	sub	a0,s0,a0
    4d04:	7a853783          	ld	a5,1960(a0) # 17a8 <.LBB95_5+0x248>
    4d08:	00d786b3          	add	a3,a5,a3
    4d0c:	01a686b3          	add	a3,a3,s10
    4d10:	415587bb          	subw	a5,a1,s5
    4d14:	40f686bb          	subw	a3,a3,a5
    4d18:	400007b7          	lui	a5,0x40000
    4d1c:	00001537          	lui	a0,0x1
    4d20:	40a40533          	sub	a0,s0,a0
    4d24:	3ed53c23          	sd	a3,1016(a0) # 13f8 <.LBB95_4+0x47c>
    4d28:	f9043503          	ld	a0,-112(s0)
    4d2c:	0006d463          	bgez	a3,4d34 <.LBB95_86>
    4d30:	c00007b7          	lui	a5,0xc0000

0000000000004d34 <.LBB95_86>:
    4d34:	f8a43823          	sd	a0,-112(s0)
    4d38:	00001537          	lui	a0,0x1
    4d3c:	40a40533          	sub	a0,s0,a0
    4d40:	3ef53423          	sd	a5,1000(a0) # 13e8 <.LBB95_4+0x46c>
    4d44:	ef043683          	ld	a3,-272(s0)
    4d48:	00001537          	lui	a0,0x1
    4d4c:	40a40533          	sub	a0,s0,a0
    4d50:	7b053783          	ld	a5,1968(a0) # 17b0 <.LBB95_5+0x250>
    4d54:	00d786b3          	add	a3,a5,a3
    4d58:	016686b3          	add	a3,a3,s6
    4d5c:	415587bb          	subw	a5,a1,s5
    4d60:	40f686bb          	subw	a3,a3,a5
    4d64:	400007b7          	lui	a5,0x40000
    4d68:	00001537          	lui	a0,0x1
    4d6c:	40a40533          	sub	a0,s0,a0
    4d70:	38d53023          	sd	a3,896(a0) # 1380 <.LBB95_4+0x404>
    4d74:	f9043503          	ld	a0,-112(s0)
    4d78:	0006d463          	bgez	a3,4d80 <.LBB95_88>
    4d7c:	c00007b7          	lui	a5,0xc0000

0000000000004d80 <.LBB95_88>:
    4d80:	f8a43823          	sd	a0,-112(s0)
    4d84:	00001537          	lui	a0,0x1
    4d88:	40a40533          	sub	a0,s0,a0
    4d8c:	36f53823          	sd	a5,880(a0) # 1370 <.LBB95_4+0x3f4>
    4d90:	f2043683          	ld	a3,-224(s0)
    4d94:	00001537          	lui	a0,0x1
    4d98:	40a40533          	sub	a0,s0,a0
    4d9c:	7b853783          	ld	a5,1976(a0) # 17b8 <.LBB95_5+0x258>
    4da0:	00d786b3          	add	a3,a5,a3
    4da4:	001686b3          	add	a3,a3,ra
    4da8:	415587bb          	subw	a5,a1,s5
    4dac:	40f686bb          	subw	a3,a3,a5
    4db0:	400007b7          	lui	a5,0x40000
    4db4:	00001537          	lui	a0,0x1
    4db8:	40a40533          	sub	a0,s0,a0
    4dbc:	30d53023          	sd	a3,768(a0) # 1300 <.LBB95_4+0x384>
    4dc0:	f9043503          	ld	a0,-112(s0)
    4dc4:	0006d463          	bgez	a3,4dcc <.LBB95_90>
    4dc8:	c00007b7          	lui	a5,0xc0000

0000000000004dcc <.LBB95_90>:
    4dcc:	f8a43823          	sd	a0,-112(s0)
    4dd0:	00001537          	lui	a0,0x1
    4dd4:	40a40533          	sub	a0,s0,a0
    4dd8:	2ef53823          	sd	a5,752(a0) # 12f0 <.LBB95_4+0x374>
    4ddc:	f2843683          	ld	a3,-216(s0)
    4de0:	00001537          	lui	a0,0x1
    4de4:	40a40533          	sub	a0,s0,a0
    4de8:	7c053783          	ld	a5,1984(a0) # 17c0 <.LBB95_5+0x260>
    4dec:	00d786b3          	add	a3,a5,a3
    4df0:	01e686b3          	add	a3,a3,t5
    4df4:	415587bb          	subw	a5,a1,s5
    4df8:	40f686bb          	subw	a3,a3,a5
    4dfc:	400007b7          	lui	a5,0x40000
    4e00:	00001537          	lui	a0,0x1
    4e04:	40a40533          	sub	a0,s0,a0
    4e08:	28d53423          	sd	a3,648(a0) # 1288 <.LBB95_4+0x30c>
    4e0c:	f9043503          	ld	a0,-112(s0)
    4e10:	0006d463          	bgez	a3,4e18 <.LBB95_92>
    4e14:	c00007b7          	lui	a5,0xc0000

0000000000004e18 <.LBB95_92>:
    4e18:	f8a43823          	sd	a0,-112(s0)
    4e1c:	00001537          	lui	a0,0x1
    4e20:	40a40533          	sub	a0,s0,a0
    4e24:	26f53823          	sd	a5,624(a0) # 1270 <.LBB95_4+0x2f4>
    4e28:	f3043683          	ld	a3,-208(s0)
    4e2c:	00001537          	lui	a0,0x1
    4e30:	40a40533          	sub	a0,s0,a0
    4e34:	7c853783          	ld	a5,1992(a0) # 17c8 <.LBB95_5+0x268>
    4e38:	00d786b3          	add	a3,a5,a3
    4e3c:	014686b3          	add	a3,a3,s4
    4e40:	415587bb          	subw	a5,a1,s5
    4e44:	40f686bb          	subw	a3,a3,a5
    4e48:	400007b7          	lui	a5,0x40000
    4e4c:	00001537          	lui	a0,0x1
    4e50:	40a40533          	sub	a0,s0,a0
    4e54:	20d53423          	sd	a3,520(a0) # 1208 <.LBB95_4+0x28c>
    4e58:	f9043503          	ld	a0,-112(s0)
    4e5c:	0006d463          	bgez	a3,4e64 <.LBB95_94>
    4e60:	c00007b7          	lui	a5,0xc0000

0000000000004e64 <.LBB95_94>:
    4e64:	f8a43823          	sd	a0,-112(s0)
    4e68:	00001537          	lui	a0,0x1
    4e6c:	40a40533          	sub	a0,s0,a0
    4e70:	1ef53823          	sd	a5,496(a0) # 11f0 <.LBB95_4+0x274>
    4e74:	f3843683          	ld	a3,-200(s0)
    4e78:	00001537          	lui	a0,0x1
    4e7c:	40a40533          	sub	a0,s0,a0
    4e80:	7d053783          	ld	a5,2000(a0) # 17d0 <.LBB95_5+0x270>
    4e84:	00d786b3          	add	a3,a5,a3
    4e88:	01f686b3          	add	a3,a3,t6
    4e8c:	415587bb          	subw	a5,a1,s5
    4e90:	40f686bb          	subw	a3,a3,a5
    4e94:	400007b7          	lui	a5,0x40000
    4e98:	00001537          	lui	a0,0x1
    4e9c:	40a40533          	sub	a0,s0,a0
    4ea0:	18d53823          	sd	a3,400(a0) # 1190 <.LBB95_4+0x214>
    4ea4:	f9043503          	ld	a0,-112(s0)
    4ea8:	0006d463          	bgez	a3,4eb0 <.LBB95_96>
    4eac:	c00007b7          	lui	a5,0xc0000

0000000000004eb0 <.LBB95_96>:
    4eb0:	f8a43823          	sd	a0,-112(s0)
    4eb4:	00001537          	lui	a0,0x1
    4eb8:	40a40533          	sub	a0,s0,a0
    4ebc:	16f53c23          	sd	a5,376(a0) # 1178 <.LBB95_4+0x1fc>
    4ec0:	f4043683          	ld	a3,-192(s0)
    4ec4:	00001537          	lui	a0,0x1
    4ec8:	40a40533          	sub	a0,s0,a0
    4ecc:	7d853783          	ld	a5,2008(a0) # 17d8 <.LBB95_5+0x278>
    4ed0:	00d786b3          	add	a3,a5,a3
    4ed4:	01b686b3          	add	a3,a3,s11
    4ed8:	415587bb          	subw	a5,a1,s5
    4edc:	40f686bb          	subw	a3,a3,a5
    4ee0:	400007b7          	lui	a5,0x40000
    4ee4:	00001537          	lui	a0,0x1
    4ee8:	40a40533          	sub	a0,s0,a0
    4eec:	10d53823          	sd	a3,272(a0) # 1110 <.LBB95_4+0x194>
    4ef0:	f9043503          	ld	a0,-112(s0)
    4ef4:	0006d463          	bgez	a3,4efc <.LBB95_98>
    4ef8:	c00007b7          	lui	a5,0xc0000

0000000000004efc <.LBB95_98>:
    4efc:	f8a43823          	sd	a0,-112(s0)
    4f00:	00001537          	lui	a0,0x1
    4f04:	40a40533          	sub	a0,s0,a0
    4f08:	10f53023          	sd	a5,256(a0) # 1100 <.LBB95_4+0x184>
    4f0c:	f4843683          	ld	a3,-184(s0)
    4f10:	00001537          	lui	a0,0x1
    4f14:	40a40533          	sub	a0,s0,a0
    4f18:	7e053783          	ld	a5,2016(a0) # 17e0 <.LBB95_5+0x280>
    4f1c:	00d786b3          	add	a3,a5,a3
    4f20:	019686b3          	add	a3,a3,s9
    4f24:	415587bb          	subw	a5,a1,s5
    4f28:	40f686bb          	subw	a3,a3,a5
    4f2c:	400007b7          	lui	a5,0x40000
    4f30:	00001537          	lui	a0,0x1
    4f34:	40a40533          	sub	a0,s0,a0
    4f38:	08d53823          	sd	a3,144(a0) # 1090 <.LBB95_4+0x114>
    4f3c:	f9043503          	ld	a0,-112(s0)
    4f40:	0006d463          	bgez	a3,4f48 <.LBB95_100>
    4f44:	c00007b7          	lui	a5,0xc0000

0000000000004f48 <.LBB95_100>:
    4f48:	f8a43823          	sd	a0,-112(s0)
    4f4c:	00001537          	lui	a0,0x1
    4f50:	40a40533          	sub	a0,s0,a0
    4f54:	08f53023          	sd	a5,128(a0) # 1080 <.LBB95_4+0x104>
    4f58:	f5043683          	ld	a3,-176(s0)
    4f5c:	00001537          	lui	a0,0x1
    4f60:	40a40533          	sub	a0,s0,a0
    4f64:	7e853783          	ld	a5,2024(a0) # 17e8 <.LBB95_5+0x288>
    4f68:	00d786b3          	add	a3,a5,a3
    4f6c:	017686b3          	add	a3,a3,s7
    4f70:	415587bb          	subw	a5,a1,s5
    4f74:	40f686bb          	subw	a3,a3,a5
    4f78:	400007b7          	lui	a5,0x40000
    4f7c:	00002537          	lui	a0,0x2
    4f80:	40a40533          	sub	a0,s0,a0
    4f84:	7cd53023          	sd	a3,1984(a0) # 27c0 <.LBB95_5+0x1260>
    4f88:	f9043503          	ld	a0,-112(s0)
    4f8c:	0006d463          	bgez	a3,4f94 <.LBB95_102>
    4f90:	c00007b7          	lui	a5,0xc0000

0000000000004f94 <.LBB95_102>:
    4f94:	f8a43823          	sd	a0,-112(s0)
    4f98:	00002537          	lui	a0,0x2
    4f9c:	40a40533          	sub	a0,s0,a0
    4fa0:	7af53823          	sd	a5,1968(a0) # 27b0 <.LBB95_5+0x1250>
    4fa4:	f5843683          	ld	a3,-168(s0)
    4fa8:	00001537          	lui	a0,0x1
    4fac:	40a40533          	sub	a0,s0,a0
    4fb0:	7f053783          	ld	a5,2032(a0) # 17f0 <.LBB95_5+0x290>
    4fb4:	00d786b3          	add	a3,a5,a3
    4fb8:	00001537          	lui	a0,0x1
    4fbc:	40a40533          	sub	a0,s0,a0
    4fc0:	6f853783          	ld	a5,1784(a0) # 16f8 <.LBB95_5+0x198>
    4fc4:	00f686b3          	add	a3,a3,a5
    4fc8:	415587bb          	subw	a5,a1,s5
    4fcc:	40f686bb          	subw	a3,a3,a5
    4fd0:	400007b7          	lui	a5,0x40000
    4fd4:	00002537          	lui	a0,0x2
    4fd8:	40a40533          	sub	a0,s0,a0
    4fdc:	74d53023          	sd	a3,1856(a0) # 2740 <.LBB95_5+0x11e0>
    4fe0:	f9043503          	ld	a0,-112(s0)
    4fe4:	0006d463          	bgez	a3,4fec <.LBB95_104>
    4fe8:	c00007b7          	lui	a5,0xc0000

0000000000004fec <.LBB95_104>:
    4fec:	f8a43823          	sd	a0,-112(s0)
    4ff0:	00002537          	lui	a0,0x2
    4ff4:	40a40533          	sub	a0,s0,a0
    4ff8:	72f53823          	sd	a5,1840(a0) # 2730 <.LBB95_5+0x11d0>
    4ffc:	f6043683          	ld	a3,-160(s0)
    5000:	00001537          	lui	a0,0x1
    5004:	40a40533          	sub	a0,s0,a0
    5008:	7f853783          	ld	a5,2040(a0) # 17f8 <.LBB95_5+0x298>
    500c:	00d786b3          	add	a3,a5,a3
    5010:	00001537          	lui	a0,0x1
    5014:	40a40533          	sub	a0,s0,a0
    5018:	6f053783          	ld	a5,1776(a0) # 16f0 <.LBB95_5+0x190>
    501c:	00f686b3          	add	a3,a3,a5
    5020:	415587bb          	subw	a5,a1,s5
    5024:	40f686bb          	subw	a3,a3,a5
    5028:	400007b7          	lui	a5,0x40000
    502c:	00002537          	lui	a0,0x2
    5030:	40a40533          	sub	a0,s0,a0
    5034:	6cd53423          	sd	a3,1736(a0) # 26c8 <.LBB95_5+0x1168>
    5038:	f9043503          	ld	a0,-112(s0)
    503c:	0006d463          	bgez	a3,5044 <.LBB95_106>
    5040:	c00007b7          	lui	a5,0xc0000

0000000000005044 <.LBB95_106>:
    5044:	f8a43823          	sd	a0,-112(s0)
    5048:	00002537          	lui	a0,0x2
    504c:	40a40533          	sub	a0,s0,a0
    5050:	6af53c23          	sd	a5,1720(a0) # 26b8 <.LBB95_5+0x1158>
    5054:	f6843683          	ld	a3,-152(s0)
    5058:	80043783          	ld	a5,-2048(s0)
    505c:	00d786b3          	add	a3,a5,a3
    5060:	00001537          	lui	a0,0x1
    5064:	40a40533          	sub	a0,s0,a0
    5068:	6e853783          	ld	a5,1768(a0) # 16e8 <.LBB95_5+0x188>
    506c:	00f686b3          	add	a3,a3,a5
    5070:	415587bb          	subw	a5,a1,s5
    5074:	40f686bb          	subw	a3,a3,a5
    5078:	400007b7          	lui	a5,0x40000
    507c:	00002537          	lui	a0,0x2
    5080:	40a40533          	sub	a0,s0,a0
    5084:	64d53823          	sd	a3,1616(a0) # 2650 <.LBB95_5+0x10f0>
    5088:	f9043503          	ld	a0,-112(s0)
    508c:	0006d463          	bgez	a3,5094 <.LBB95_108>
    5090:	c00007b7          	lui	a5,0xc0000

0000000000005094 <.LBB95_108>:
    5094:	f8a43823          	sd	a0,-112(s0)
    5098:	00002537          	lui	a0,0x2
    509c:	40a40533          	sub	a0,s0,a0
    50a0:	64f53023          	sd	a5,1600(a0) # 2640 <.LBB95_5+0x10e0>
    50a4:	f7043683          	ld	a3,-144(s0)
    50a8:	80843783          	ld	a5,-2040(s0)
    50ac:	00d786b3          	add	a3,a5,a3
    50b0:	00001537          	lui	a0,0x1
    50b4:	40a40533          	sub	a0,s0,a0
    50b8:	6e053783          	ld	a5,1760(a0) # 16e0 <.LBB95_5+0x180>
    50bc:	00f686b3          	add	a3,a3,a5
    50c0:	415587bb          	subw	a5,a1,s5
    50c4:	40f686bb          	subw	a3,a3,a5
    50c8:	400007b7          	lui	a5,0x40000
    50cc:	00002537          	lui	a0,0x2
    50d0:	40a40533          	sub	a0,s0,a0
    50d4:	5ed53023          	sd	a3,1504(a0) # 25e0 <.LBB95_5+0x1080>
    50d8:	f9043503          	ld	a0,-112(s0)
    50dc:	0006d463          	bgez	a3,50e4 <.LBB95_110>
    50e0:	c00007b7          	lui	a5,0xc0000

00000000000050e4 <.LBB95_110>:
    50e4:	f8a43823          	sd	a0,-112(s0)
    50e8:	00002537          	lui	a0,0x2
    50ec:	40a40533          	sub	a0,s0,a0
    50f0:	5cf53823          	sd	a5,1488(a0) # 25d0 <.LBB95_5+0x1070>
    50f4:	f7843683          	ld	a3,-136(s0)
    50f8:	81043783          	ld	a5,-2032(s0)
    50fc:	00d786b3          	add	a3,a5,a3
    5100:	00001537          	lui	a0,0x1
    5104:	40a40533          	sub	a0,s0,a0
    5108:	6d853783          	ld	a5,1752(a0) # 16d8 <.LBB95_5+0x178>
    510c:	00f686b3          	add	a3,a3,a5
    5110:	415587bb          	subw	a5,a1,s5
    5114:	40f686bb          	subw	a3,a3,a5
    5118:	400007b7          	lui	a5,0x40000
    511c:	00002537          	lui	a0,0x2
    5120:	40a40533          	sub	a0,s0,a0
    5124:	56d53423          	sd	a3,1384(a0) # 2568 <.LBB95_5+0x1008>
    5128:	f9043503          	ld	a0,-112(s0)
    512c:	0006d463          	bgez	a3,5134 <.LBB95_112>
    5130:	c00007b7          	lui	a5,0xc0000

0000000000005134 <.LBB95_112>:
    5134:	f8a43823          	sd	a0,-112(s0)
    5138:	00002537          	lui	a0,0x2
    513c:	40a40533          	sub	a0,s0,a0
    5140:	54f53c23          	sd	a5,1368(a0) # 2558 <.LBB95_5+0xff8>
    5144:	f8843683          	ld	a3,-120(s0)
    5148:	81843783          	ld	a5,-2024(s0)
    514c:	00d786b3          	add	a3,a5,a3
    5150:	00001537          	lui	a0,0x1
    5154:	40a40533          	sub	a0,s0,a0
    5158:	6d053783          	ld	a5,1744(a0) # 16d0 <.LBB95_5+0x170>
    515c:	00f686b3          	add	a3,a3,a5
    5160:	415587bb          	subw	a5,a1,s5
    5164:	40f686bb          	subw	a3,a3,a5
    5168:	400007b7          	lui	a5,0x40000
    516c:	00002537          	lui	a0,0x2
    5170:	40a40533          	sub	a0,s0,a0
    5174:	4ed53823          	sd	a3,1264(a0) # 24f0 <.LBB95_5+0xf90>
    5178:	f9043503          	ld	a0,-112(s0)
    517c:	0006d463          	bgez	a3,5184 <.LBB95_114>
    5180:	c00007b7          	lui	a5,0xc0000

0000000000005184 <.LBB95_114>:
    5184:	f8a43823          	sd	a0,-112(s0)
    5188:	00002537          	lui	a0,0x2
    518c:	40a40533          	sub	a0,s0,a0
    5190:	4ef53023          	sd	a5,1248(a0) # 24e0 <.LBB95_5+0xf80>
    5194:	00001537          	lui	a0,0x1
    5198:	40a40533          	sub	a0,s0,a0
    519c:	6a853683          	ld	a3,1704(a0) # 16a8 <.LBB95_5+0x148>
    51a0:	82043783          	ld	a5,-2016(s0)
    51a4:	00d786b3          	add	a3,a5,a3
    51a8:	00001537          	lui	a0,0x1
    51ac:	40a40533          	sub	a0,s0,a0
    51b0:	69853783          	ld	a5,1688(a0) # 1698 <.LBB95_5+0x138>
    51b4:	00f686b3          	add	a3,a3,a5
    51b8:	415587bb          	subw	a5,a1,s5
    51bc:	40f686bb          	subw	a3,a3,a5
    51c0:	400007b7          	lui	a5,0x40000
    51c4:	00002537          	lui	a0,0x2
    51c8:	40a40533          	sub	a0,s0,a0
    51cc:	46d53c23          	sd	a3,1144(a0) # 2478 <.LBB95_5+0xf18>
    51d0:	f9043503          	ld	a0,-112(s0)
    51d4:	0006d463          	bgez	a3,51dc <.LBB95_116>
    51d8:	c00007b7          	lui	a5,0xc0000

00000000000051dc <.LBB95_116>:
    51dc:	f8a43823          	sd	a0,-112(s0)
    51e0:	00002537          	lui	a0,0x2
    51e4:	40a40533          	sub	a0,s0,a0
    51e8:	46f53423          	sd	a5,1128(a0) # 2468 <.LBB95_5+0xf08>
    51ec:	00001537          	lui	a0,0x1
    51f0:	40a40533          	sub	a0,s0,a0
    51f4:	6b053683          	ld	a3,1712(a0) # 16b0 <.LBB95_5+0x150>
    51f8:	82843783          	ld	a5,-2008(s0)
    51fc:	00d786b3          	add	a3,a5,a3
    5200:	00001537          	lui	a0,0x1
    5204:	40a40533          	sub	a0,s0,a0
    5208:	6a053783          	ld	a5,1696(a0) # 16a0 <.LBB95_5+0x140>
    520c:	00f686b3          	add	a3,a3,a5
    5210:	415587bb          	subw	a5,a1,s5
    5214:	40f686bb          	subw	a3,a3,a5
    5218:	400007b7          	lui	a5,0x40000
    521c:	00002537          	lui	a0,0x2
    5220:	40a40533          	sub	a0,s0,a0
    5224:	40d53423          	sd	a3,1032(a0) # 2408 <.LBB95_5+0xea8>
    5228:	f9043503          	ld	a0,-112(s0)
    522c:	0006d463          	bgez	a3,5234 <.LBB95_118>
    5230:	c00007b7          	lui	a5,0xc0000

0000000000005234 <.LBB95_118>:
    5234:	f8a43823          	sd	a0,-112(s0)
    5238:	00002537          	lui	a0,0x2
    523c:	40a40533          	sub	a0,s0,a0
    5240:	3ef53c23          	sd	a5,1016(a0) # 23f8 <.LBB95_5+0xe98>
    5244:	00001537          	lui	a0,0x1
    5248:	40a40533          	sub	a0,s0,a0
    524c:	6c053683          	ld	a3,1728(a0) # 16c0 <.LBB95_5+0x160>
    5250:	83043783          	ld	a5,-2000(s0)
    5254:	00d786b3          	add	a3,a5,a3
    5258:	00001537          	lui	a0,0x1
    525c:	40a40533          	sub	a0,s0,a0
    5260:	6b853783          	ld	a5,1720(a0) # 16b8 <.LBB95_5+0x158>
    5264:	00f686b3          	add	a3,a3,a5
    5268:	415587bb          	subw	a5,a1,s5
    526c:	40f686bb          	subw	a3,a3,a5
    5270:	400007b7          	lui	a5,0x40000
    5274:	00002537          	lui	a0,0x2
    5278:	40a40533          	sub	a0,s0,a0
    527c:	38d53c23          	sd	a3,920(a0) # 2398 <.LBB95_5+0xe38>
    5280:	f9043503          	ld	a0,-112(s0)
    5284:	0006d463          	bgez	a3,528c <.LBB95_120>
    5288:	c00007b7          	lui	a5,0xc0000

000000000000528c <.LBB95_120>:
    528c:	f8a43823          	sd	a0,-112(s0)
    5290:	00002537          	lui	a0,0x2
    5294:	40a40533          	sub	a0,s0,a0
    5298:	38f53423          	sd	a5,904(a0) # 2388 <.LBB95_5+0xe28>
    529c:	e4843683          	ld	a3,-440(s0)
    52a0:	83843783          	ld	a5,-1992(s0)
    52a4:	00d786b3          	add	a3,a5,a3
    52a8:	00001537          	lui	a0,0x1
    52ac:	40a40533          	sub	a0,s0,a0
    52b0:	6c853783          	ld	a5,1736(a0) # 16c8 <.LBB95_5+0x168>
    52b4:	00f686b3          	add	a3,a3,a5
    52b8:	415587bb          	subw	a5,a1,s5
    52bc:	40f686bb          	subw	a3,a3,a5
    52c0:	400007b7          	lui	a5,0x40000
    52c4:	00002537          	lui	a0,0x2
    52c8:	40a40533          	sub	a0,s0,a0
    52cc:	32d53423          	sd	a3,808(a0) # 2328 <.LBB95_5+0xdc8>
    52d0:	f9043503          	ld	a0,-112(s0)
    52d4:	0006d463          	bgez	a3,52dc <.LBB95_122>
    52d8:	c00007b7          	lui	a5,0xc0000

00000000000052dc <.LBB95_122>:
    52dc:	000026b7          	lui	a3,0x2
    52e0:	40d406b3          	sub	a3,s0,a3
    52e4:	30f6bc23          	sd	a5,792(a3) # 2318 <.LBB95_5+0xdb8>
    52e8:	e5843683          	ld	a3,-424(s0)
    52ec:	84043783          	ld	a5,-1984(s0)
    52f0:	00d786b3          	add	a3,a5,a3
    52f4:	e5043783          	ld	a5,-432(s0)
    52f8:	00f686b3          	add	a3,a3,a5
    52fc:	415587bb          	subw	a5,a1,s5
    5300:	40f686bb          	subw	a3,a3,a5
    5304:	400007b7          	lui	a5,0x40000
    5308:	84d43023          	sd	a3,-1984(s0)
    530c:	0006d463          	bgez	a3,5314 <.LBB95_124>
    5310:	c00007b7          	lui	a5,0xc0000

0000000000005314 <.LBB95_124>:
    5314:	f8a43823          	sd	a0,-112(s0)
    5318:	00002537          	lui	a0,0x2
    531c:	40a40533          	sub	a0,s0,a0
    5320:	2af53823          	sd	a5,688(a0) # 22b0 <.LBB95_5+0xd50>
    5324:	e6843683          	ld	a3,-408(s0)
    5328:	84843783          	ld	a5,-1976(s0)
    532c:	00d786b3          	add	a3,a5,a3
    5330:	e6043783          	ld	a5,-416(s0)
    5334:	00f686b3          	add	a3,a3,a5
    5338:	415587bb          	subw	a5,a1,s5
    533c:	40f686bb          	subw	a3,a3,a5
    5340:	400007b7          	lui	a5,0x40000
    5344:	00002537          	lui	a0,0x2
    5348:	40a40533          	sub	a0,s0,a0
    534c:	24d53823          	sd	a3,592(a0) # 2250 <.LBB95_5+0xcf0>
    5350:	f9043503          	ld	a0,-112(s0)
    5354:	0006d463          	bgez	a3,535c <.LBB95_126>
    5358:	c00007b7          	lui	a5,0xc0000

000000000000535c <.LBB95_126>:
    535c:	f8a43823          	sd	a0,-112(s0)
    5360:	00002537          	lui	a0,0x2
    5364:	40a40533          	sub	a0,s0,a0
    5368:	24f53023          	sd	a5,576(a0) # 2240 <.LBB95_5+0xce0>
    536c:	e7843683          	ld	a3,-392(s0)
    5370:	85043783          	ld	a5,-1968(s0)
    5374:	00d786b3          	add	a3,a5,a3
    5378:	e7043783          	ld	a5,-400(s0)
    537c:	00f686b3          	add	a3,a3,a5
    5380:	415587bb          	subw	a5,a1,s5
    5384:	40f686bb          	subw	a3,a3,a5
    5388:	400007b7          	lui	a5,0x40000
    538c:	00002537          	lui	a0,0x2
    5390:	40a40533          	sub	a0,s0,a0
    5394:	1ed53023          	sd	a3,480(a0) # 21e0 <.LBB95_5+0xc80>
    5398:	f9043503          	ld	a0,-112(s0)
    539c:	0006d463          	bgez	a3,53a4 <.LBB95_128>
    53a0:	c00007b7          	lui	a5,0xc0000

00000000000053a4 <.LBB95_128>:
    53a4:	f8a43823          	sd	a0,-112(s0)
    53a8:	00002537          	lui	a0,0x2
    53ac:	40a40533          	sub	a0,s0,a0
    53b0:	1cf53823          	sd	a5,464(a0) # 21d0 <.LBB95_5+0xc70>
    53b4:	e8843683          	ld	a3,-376(s0)
    53b8:	85843783          	ld	a5,-1960(s0)
    53bc:	00d786b3          	add	a3,a5,a3
    53c0:	e8043783          	ld	a5,-384(s0)
    53c4:	00f686b3          	add	a3,a3,a5
    53c8:	415587bb          	subw	a5,a1,s5
    53cc:	40f686bb          	subw	a3,a3,a5
    53d0:	400007b7          	lui	a5,0x40000
    53d4:	00002537          	lui	a0,0x2
    53d8:	40a40533          	sub	a0,s0,a0
    53dc:	16d53823          	sd	a3,368(a0) # 2170 <.LBB95_5+0xc10>
    53e0:	f9043503          	ld	a0,-112(s0)
    53e4:	0006d463          	bgez	a3,53ec <.LBB95_130>
