
code.o:     file format elf64-littleriscv


Disassembly of section .text.main_dispatch_75_matmul_196x384x64_i8xi8xi32:

0000000000000000 <main_dispatch_75_matmul_196x384x64_i8xi8xi32>:
       0:	81010113          	addi	sp,sp,-2032
       4:	7e113423          	sd	ra,2024(sp)
       8:	7e813023          	sd	s0,2016(sp)
       c:	7c913c23          	sd	s1,2008(sp)
      10:	7d213823          	sd	s2,2000(sp)
      14:	7d313423          	sd	s3,1992(sp)
      18:	7d413023          	sd	s4,1984(sp)
      1c:	7b513c23          	sd	s5,1976(sp)
      20:	7b613823          	sd	s6,1968(sp)
      24:	7b713423          	sd	s7,1960(sp)
      28:	7b813023          	sd	s8,1952(sp)
      2c:	79913c23          	sd	s9,1944(sp)
      30:	79a13823          	sd	s10,1936(sp)
      34:	79b13423          	sd	s11,1928(sp)
      38:	7f010413          	addi	s0,sp,2032
      3c:	80010113          	addi	sp,sp,-2048
      40:	cf010113          	addi	sp,sp,-784
      44:	0205b583          	ld	a1,32(a1)
      48:	00000513          	li	a0,0
      4c:	0085b603          	ld	a2,8(a1)
      50:	0005b703          	ld	a4,0(a1)
      54:	0004c6b7          	lui	a3,0x4c
      58:	1806869b          	addiw	a3,a3,384 # 4c180 <.Lfunc_end80+0x237b8>
      5c:	00d603b3          	add	t2,a2,a3
      60:	0001c6b7          	lui	a3,0x1c
      64:	2806869b          	addiw	a3,a3,640 # 1c280 <.LBB41_3527+0xc>
      68:	00d606b3          	add	a3,a2,a3
      6c:	000017b7          	lui	a5,0x1
      70:	40f407b3          	sub	a5,s0,a5
      74:	d6d7b823          	sd	a3,-656(a5) # d70 <.LBB64_3+0xb5c>
      78:	0105b583          	ld	a1,16(a1)
      7c:	000526b7          	lui	a3,0x52
      80:	1806869b          	addiw	a3,a3,384 # 52180 <.Lfunc_end80+0x297b8>
      84:	00d60633          	add	a2,a2,a3
      88:	000016b7          	lui	a3,0x1
      8c:	40d406b3          	sub	a3,s0,a3
      90:	d6c6b423          	sd	a2,-664(a3) # d68 <.LBB64_3+0xb54>
      94:	34058593          	addi	a1,a1,832
      98:	00001637          	lui	a2,0x1
      9c:	40c40633          	sub	a2,s0,a2
      a0:	d0b63423          	sd	a1,-760(a2) # d08 <.LBB64_3+0xaf4>
      a4:	000135b7          	lui	a1,0x13
      a8:	b005859b          	addiw	a1,a1,-1280 # 12b00 <.LBB60_2101+0x4>
      ac:	00001637          	lui	a2,0x1
      b0:	40c40633          	sub	a2,s0,a2
      b4:	d0e63c23          	sd	a4,-744(a2) # d18 <.LBB64_3+0xb04>
      b8:	00b705b3          	add	a1,a4,a1
      bc:	00001637          	lui	a2,0x1
      c0:	40c40633          	sub	a2,s0,a2
      c4:	d6b63c23          	sd	a1,-648(a2) # d78 <.LBB64_3+0xb64>
      c8:	5f7b05b7          	lui	a1,0x5f7b0
      cc:	9d65859b          	addiw	a1,a1,-1578 # 5f7af9d6 <.Lfunc_end80+0x5f78700e>
      d0:	00001637          	lui	a2,0x1
      d4:	40c40633          	sub	a2,s0,a2
      d8:	d2b63023          	sd	a1,-736(a2) # d20 <.LBB64_3+0xb0c>
      dc:	00100593          	li	a1,1
      e0:	02459593          	slli	a1,a1,0x24
      e4:	00001637          	lui	a2,0x1
      e8:	40c40633          	sub	a2,s0,a2
      ec:	64b63c23          	sd	a1,1624(a2) # 1658 <.LBB64_4+0x4f0>
      f0:	000015b7          	lui	a1,0x1
      f4:	40b405b3          	sub	a1,s0,a1
      f8:	d075b823          	sd	t2,-752(a1) # d10 <.LBB64_3+0xafc>
      fc:	0480006f          	j	144 <.LBB64_2>

0000000000000100 <.LBB64_1>:
     100:	00001537          	lui	a0,0x1
     104:	40a40533          	sub	a0,s0,a0
     108:	d0053603          	ld	a2,-768(a0) # d00 <.LBB64_3+0xaec>
     10c:	00860513          	addi	a0,a2,8
     110:	000015b7          	lui	a1,0x1
     114:	40b405b3          	sub	a1,s0,a1
     118:	d785b583          	ld	a1,-648(a1) # d78 <.LBB64_3+0xb64>
     11c:	20058593          	addi	a1,a1,512
     120:	000016b7          	lui	a3,0x1
     124:	40d406b3          	sub	a3,s0,a3
     128:	d6b6bc23          	sd	a1,-648(a3) # d78 <.LBB64_3+0xb64>
     12c:	000015b7          	lui	a1,0x1
     130:	40b405b3          	sub	a1,s0,a1
     134:	d105b383          	ld	t2,-752(a1) # d10 <.LBB64_3+0xafc>
     138:	0b800593          	li	a1,184
     13c:	00b66463          	bltu	a2,a1,144 <.LBB64_2>
     140:	6b50a06f          	j	aff4 <.LBB64_1030>

0000000000000144 <.LBB64_2>:
     144:	00000593          	li	a1,0
     148:	00050693          	mv	a3,a0
     14c:	00251513          	slli	a0,a0,0x2
     150:	00001637          	lui	a2,0x1
     154:	40c40633          	sub	a2,s0,a2
     158:	d1863603          	ld	a2,-744(a2) # d18 <.LBB64_3+0xb04>
     15c:	00a60533          	add	a0,a2,a0
     160:	00001637          	lui	a2,0x1
     164:	40c40633          	sub	a2,s0,a2
     168:	66a63023          	sd	a0,1632(a2) # 1660 <.LBB64_4+0x4f8>
     16c:	18000513          	li	a0,384
     170:	00001637          	lui	a2,0x1
     174:	40c40633          	sub	a2,s0,a2
     178:	d0d63023          	sd	a3,-768(a2) # d00 <.LBB64_3+0xaec>
     17c:	02a68533          	mul	a0,a3,a0
     180:	00001637          	lui	a2,0x1
     184:	40c40633          	sub	a2,s0,a2
     188:	d0863603          	ld	a2,-760(a2) # d08 <.LBB64_3+0xaf4>
     18c:	00a60533          	add	a0,a2,a0
     190:	18050613          	addi	a2,a0,384
     194:	000016b7          	lui	a3,0x1
     198:	40d406b3          	sub	a3,s0,a3
     19c:	d4c6bc23          	sd	a2,-680(a3) # d58 <.LBB64_3+0xb44>
     1a0:	30050613          	addi	a2,a0,768
     1a4:	000016b7          	lui	a3,0x1
     1a8:	40d406b3          	sub	a3,s0,a3
     1ac:	d4c6b823          	sd	a2,-688(a3) # d50 <.LBB64_3+0xb3c>
     1b0:	48050613          	addi	a2,a0,1152
     1b4:	000016b7          	lui	a3,0x1
     1b8:	40d406b3          	sub	a3,s0,a3
     1bc:	d4c6b423          	sd	a2,-696(a3) # d48 <.LBB64_3+0xb34>
     1c0:	60050613          	addi	a2,a0,1536
     1c4:	000016b7          	lui	a3,0x1
     1c8:	40d406b3          	sub	a3,s0,a3
     1cc:	d4c6b023          	sd	a2,-704(a3) # d40 <.LBB64_3+0xb2c>
     1d0:	78050613          	addi	a2,a0,1920
     1d4:	000016b7          	lui	a3,0x1
     1d8:	40d406b3          	sub	a3,s0,a3
     1dc:	d2c6bc23          	sd	a2,-712(a3) # d38 <.LBB64_3+0xb24>
     1e0:	00001637          	lui	a2,0x1
     1e4:	40c40633          	sub	a2,s0,a2
     1e8:	d6a63023          	sd	a0,-672(a2) # d60 <.LBB64_3+0xb4c>
     1ec:	7ff50513          	addi	a0,a0,2047
     1f0:	10150613          	addi	a2,a0,257
     1f4:	000016b7          	lui	a3,0x1
     1f8:	40d406b3          	sub	a3,s0,a3
     1fc:	d2c6b823          	sd	a2,-720(a3) # d30 <.LBB64_3+0xb1c>
     200:	28150513          	addi	a0,a0,641
     204:	00001637          	lui	a2,0x1
     208:	40c40633          	sub	a2,s0,a2
     20c:	d2a63423          	sd	a0,-728(a2) # d28 <.LBB64_3+0xb14>
     210:	7590006f          	j	1168 <.LBB64_4>

0000000000000214 <.LBB64_3>:
     214:	080d4c93          	xori	s9,s10,128
     218:	00001c37          	lui	s8,0x1
     21c:	41840c33          	sub	s8,s0,s8
     220:	d60c3c03          	ld	s8,-672(s8) # d60 <.LBB64_3+0xb4c>
     224:	00001d37          	lui	s10,0x1
     228:	41a40d33          	sub	s10,s0,s10
     22c:	668d3d03          	ld	s10,1640(s10) # 1668 <.LBB64_4+0x500>
     230:	01ac0c33          	add	s8,s8,s10
     234:	019c01a3          	sb	s9,3(s8)
     238:	f8843c83          	ld	s9,-120(s0)
     23c:	080ccc93          	xori	s9,s9,128
     240:	019c0123          	sb	s9,2(s8)
     244:	f8043c83          	ld	s9,-128(s0)
     248:	080ccc93          	xori	s9,s9,128
     24c:	019c00a3          	sb	s9,1(s8)
     250:	f7843c83          	ld	s9,-136(s0)
     254:	080ccc93          	xori	s9,s9,128
     258:	019c0023          	sb	s9,0(s8)
     25c:	f7043c83          	ld	s9,-144(s0)
     260:	080ccc93          	xori	s9,s9,128
     264:	019c0223          	sb	s9,4(s8)
     268:	f6843c83          	ld	s9,-152(s0)
     26c:	080ccc93          	xori	s9,s9,128
     270:	019c02a3          	sb	s9,5(s8)
     274:	f6043c83          	ld	s9,-160(s0)
     278:	080ccc93          	xori	s9,s9,128
     27c:	019c0323          	sb	s9,6(s8)
     280:	f5843c83          	ld	s9,-168(s0)
     284:	080ccc93          	xori	s9,s9,128
     288:	019c03a3          	sb	s9,7(s8)
     28c:	f5043c83          	ld	s9,-176(s0)
     290:	080ccc93          	xori	s9,s9,128
     294:	019c0423          	sb	s9,8(s8)
     298:	f4843c83          	ld	s9,-184(s0)
     29c:	080ccc93          	xori	s9,s9,128
     2a0:	019c04a3          	sb	s9,9(s8)
     2a4:	f4043c83          	ld	s9,-192(s0)
     2a8:	080ccc93          	xori	s9,s9,128
     2ac:	019c0523          	sb	s9,10(s8)
     2b0:	f3843c83          	ld	s9,-200(s0)
     2b4:	080ccc93          	xori	s9,s9,128
     2b8:	019c05a3          	sb	s9,11(s8)
     2bc:	f3043c83          	ld	s9,-208(s0)
     2c0:	080ccc93          	xori	s9,s9,128
     2c4:	019c0623          	sb	s9,12(s8)
     2c8:	f2843c83          	ld	s9,-216(s0)
     2cc:	080ccc93          	xori	s9,s9,128
     2d0:	019c06a3          	sb	s9,13(s8)
     2d4:	f2043c83          	ld	s9,-224(s0)
     2d8:	080ccc93          	xori	s9,s9,128
     2dc:	019c0723          	sb	s9,14(s8)
     2e0:	f1843c83          	ld	s9,-232(s0)
     2e4:	080ccc93          	xori	s9,s9,128
     2e8:	019c07a3          	sb	s9,15(s8)
     2ec:	f1043c83          	ld	s9,-240(s0)
     2f0:	080ccc93          	xori	s9,s9,128
     2f4:	019c0823          	sb	s9,16(s8)
     2f8:	f0843c83          	ld	s9,-248(s0)
     2fc:	080ccc93          	xori	s9,s9,128
     300:	019c08a3          	sb	s9,17(s8)
     304:	f0043c83          	ld	s9,-256(s0)
     308:	080ccc93          	xori	s9,s9,128
     30c:	019c0923          	sb	s9,18(s8)
     310:	ef843c83          	ld	s9,-264(s0)
     314:	080ccc93          	xori	s9,s9,128
     318:	019c09a3          	sb	s9,19(s8)
     31c:	ef043c83          	ld	s9,-272(s0)
     320:	080ccc93          	xori	s9,s9,128
     324:	019c0a23          	sb	s9,20(s8)
     328:	ee043c83          	ld	s9,-288(s0)
     32c:	080ccc93          	xori	s9,s9,128
     330:	019c0aa3          	sb	s9,21(s8)
     334:	ed843c83          	ld	s9,-296(s0)
     338:	080ccc93          	xori	s9,s9,128
     33c:	019c0b23          	sb	s9,22(s8)
     340:	ed043c83          	ld	s9,-304(s0)
     344:	080ccc93          	xori	s9,s9,128
     348:	019c0ba3          	sb	s9,23(s8)
     34c:	ea843c83          	ld	s9,-344(s0)
     350:	080ccc93          	xori	s9,s9,128
     354:	019c0c23          	sb	s9,24(s8)
     358:	e7843c83          	ld	s9,-392(s0)
     35c:	080ccc93          	xori	s9,s9,128
     360:	019c0ca3          	sb	s9,25(s8)
     364:	e5843c83          	ld	s9,-424(s0)
     368:	080ccc93          	xori	s9,s9,128
     36c:	019c0d23          	sb	s9,26(s8)
     370:	e2843c83          	ld	s9,-472(s0)
     374:	080ccc93          	xori	s9,s9,128
     378:	019c0da3          	sb	s9,27(s8)
     37c:	e2043c83          	ld	s9,-480(s0)
     380:	080ccc93          	xori	s9,s9,128
     384:	019c0e23          	sb	s9,28(s8)
     388:	e1843c83          	ld	s9,-488(s0)
     38c:	080ccc93          	xori	s9,s9,128
     390:	019c0ea3          	sb	s9,29(s8)
     394:	e1043c83          	ld	s9,-496(s0)
     398:	080ccc93          	xori	s9,s9,128
     39c:	019c0f23          	sb	s9,30(s8)
     3a0:	e0843c83          	ld	s9,-504(s0)
     3a4:	080ccc93          	xori	s9,s9,128
     3a8:	019c0fa3          	sb	s9,31(s8)
     3ac:	e0043c03          	ld	s8,-512(s0)
     3b0:	080c4c93          	xori	s9,s8,128
     3b4:	00001c37          	lui	s8,0x1
     3b8:	41840c33          	sub	s8,s0,s8
     3bc:	d58c3c03          	ld	s8,-680(s8) # d58 <.LBB64_3+0xb44>
     3c0:	01ac0c33          	add	s8,s8,s10
     3c4:	019c01a3          	sb	s9,3(s8)
     3c8:	df843c83          	ld	s9,-520(s0)
     3cc:	080ccc93          	xori	s9,s9,128
     3d0:	019c0123          	sb	s9,2(s8)
     3d4:	df043c83          	ld	s9,-528(s0)
     3d8:	080ccc93          	xori	s9,s9,128
     3dc:	019c00a3          	sb	s9,1(s8)
     3e0:	de843c83          	ld	s9,-536(s0)
     3e4:	080ccc93          	xori	s9,s9,128
     3e8:	019c0023          	sb	s9,0(s8)
     3ec:	dd843c83          	ld	s9,-552(s0)
     3f0:	080ccc93          	xori	s9,s9,128
     3f4:	019c0223          	sb	s9,4(s8)
     3f8:	dd043c83          	ld	s9,-560(s0)
     3fc:	080ccc93          	xori	s9,s9,128
     400:	019c02a3          	sb	s9,5(s8)
     404:	b8843c83          	ld	s9,-1144(s0)
     408:	080ccc93          	xori	s9,s9,128
     40c:	019c0323          	sb	s9,6(s8)
     410:	b4043c83          	ld	s9,-1216(s0)
     414:	080ccc93          	xori	s9,s9,128
     418:	019c03a3          	sb	s9,7(s8)
     41c:	ae843c83          	ld	s9,-1304(s0)
     420:	080ccc93          	xori	s9,s9,128
     424:	019c0423          	sb	s9,8(s8)
     428:	aa843c83          	ld	s9,-1368(s0)
     42c:	080ccc93          	xori	s9,s9,128
     430:	019c04a3          	sb	s9,9(s8)
     434:	a6043c83          	ld	s9,-1440(s0)
     438:	080ccc93          	xori	s9,s9,128
     43c:	019c0523          	sb	s9,10(s8)
     440:	a2043c83          	ld	s9,-1504(s0)
     444:	080ccc93          	xori	s9,s9,128
     448:	019c05a3          	sb	s9,11(s8)
     44c:	9e043c83          	ld	s9,-1568(s0)
     450:	080ccc93          	xori	s9,s9,128
     454:	019c0623          	sb	s9,12(s8)
     458:	99843c83          	ld	s9,-1640(s0)
     45c:	080ccc93          	xori	s9,s9,128
     460:	019c06a3          	sb	s9,13(s8)
     464:	95843c83          	ld	s9,-1704(s0)
     468:	080ccc93          	xori	s9,s9,128
     46c:	019c0723          	sb	s9,14(s8)
     470:	92043c83          	ld	s9,-1760(s0)
     474:	080ccc93          	xori	s9,s9,128
     478:	019c07a3          	sb	s9,15(s8)
     47c:	8d843c83          	ld	s9,-1832(s0)
     480:	080ccc93          	xori	s9,s9,128
     484:	019c0823          	sb	s9,16(s8)
     488:	89843c83          	ld	s9,-1896(s0)
     48c:	080ccc93          	xori	s9,s9,128
     490:	019c08a3          	sb	s9,17(s8)
     494:	85843c83          	ld	s9,-1960(s0)
     498:	080ccc93          	xori	s9,s9,128
     49c:	019c0923          	sb	s9,18(s8)
     4a0:	81043c83          	ld	s9,-2032(s0)
     4a4:	080ccc93          	xori	s9,s9,128
     4a8:	019c09a3          	sb	s9,19(s8)
     4ac:	00001cb7          	lui	s9,0x1
     4b0:	41940cb3          	sub	s9,s0,s9
     4b4:	7d8cbc83          	ld	s9,2008(s9) # 17d8 <.LBB64_5+0xd4>
     4b8:	080ccc93          	xori	s9,s9,128
     4bc:	019c0a23          	sb	s9,20(s8)
     4c0:	00001cb7          	lui	s9,0x1
     4c4:	41940cb3          	sub	s9,s0,s9
     4c8:	798cbc83          	ld	s9,1944(s9) # 1798 <.LBB64_5+0x94>
     4cc:	080ccc93          	xori	s9,s9,128
     4d0:	019c0aa3          	sb	s9,21(s8)
     4d4:	00001cb7          	lui	s9,0x1
     4d8:	41940cb3          	sub	s9,s0,s9
     4dc:	778cbc83          	ld	s9,1912(s9) # 1778 <.LBB64_5+0x74>
     4e0:	080ccc93          	xori	s9,s9,128
     4e4:	019c0b23          	sb	s9,22(s8)
     4e8:	00001cb7          	lui	s9,0x1
     4ec:	41940cb3          	sub	s9,s0,s9
     4f0:	770cbc83          	ld	s9,1904(s9) # 1770 <.LBB64_5+0x6c>
     4f4:	080ccc93          	xori	s9,s9,128
     4f8:	019c0ba3          	sb	s9,23(s8)
     4fc:	00001cb7          	lui	s9,0x1
     500:	41940cb3          	sub	s9,s0,s9
     504:	768cbc83          	ld	s9,1896(s9) # 1768 <.LBB64_5+0x64>
     508:	080ccc93          	xori	s9,s9,128
     50c:	019c0c23          	sb	s9,24(s8)
     510:	00001cb7          	lui	s9,0x1
     514:	41940cb3          	sub	s9,s0,s9
     518:	760cbc83          	ld	s9,1888(s9) # 1760 <.LBB64_5+0x5c>
     51c:	080ccc93          	xori	s9,s9,128
     520:	019c0ca3          	sb	s9,25(s8)
     524:	00001cb7          	lui	s9,0x1
     528:	41940cb3          	sub	s9,s0,s9
     52c:	758cbc83          	ld	s9,1880(s9) # 1758 <.LBB64_5+0x54>
     530:	080ccc93          	xori	s9,s9,128
     534:	019c0d23          	sb	s9,26(s8)
     538:	00001cb7          	lui	s9,0x1
     53c:	41940cb3          	sub	s9,s0,s9
     540:	750cbc83          	ld	s9,1872(s9) # 1750 <.LBB64_5+0x4c>
     544:	080ccc93          	xori	s9,s9,128
     548:	019c0da3          	sb	s9,27(s8)
     54c:	00001cb7          	lui	s9,0x1
     550:	41940cb3          	sub	s9,s0,s9
     554:	748cbc83          	ld	s9,1864(s9) # 1748 <.LBB64_5+0x44>
     558:	080ccc93          	xori	s9,s9,128
     55c:	019c0e23          	sb	s9,28(s8)
     560:	00001cb7          	lui	s9,0x1
     564:	41940cb3          	sub	s9,s0,s9
     568:	740cbc83          	ld	s9,1856(s9) # 1740 <.LBB64_5+0x3c>
     56c:	080ccc93          	xori	s9,s9,128
     570:	019c0ea3          	sb	s9,29(s8)
     574:	00001cb7          	lui	s9,0x1
     578:	41940cb3          	sub	s9,s0,s9
     57c:	738cbc83          	ld	s9,1848(s9) # 1738 <.LBB64_5+0x34>
     580:	080ccc93          	xori	s9,s9,128
     584:	019c0f23          	sb	s9,30(s8)
     588:	00001cb7          	lui	s9,0x1
     58c:	41940cb3          	sub	s9,s0,s9
     590:	730cbc83          	ld	s9,1840(s9) # 1730 <.LBB64_5+0x2c>
     594:	080ccc93          	xori	s9,s9,128
     598:	019c0fa3          	sb	s9,31(s8)
     59c:	00001c37          	lui	s8,0x1
     5a0:	41840c33          	sub	s8,s0,s8
     5a4:	728c3c03          	ld	s8,1832(s8) # 1728 <.LBB64_5+0x24>
     5a8:	080c4c93          	xori	s9,s8,128
     5ac:	00001c37          	lui	s8,0x1
     5b0:	41840c33          	sub	s8,s0,s8
     5b4:	d50c3c03          	ld	s8,-688(s8) # d50 <.LBB64_3+0xb3c>
     5b8:	01ac0c33          	add	s8,s8,s10
     5bc:	019c01a3          	sb	s9,3(s8)
     5c0:	00001cb7          	lui	s9,0x1
     5c4:	41940cb3          	sub	s9,s0,s9
     5c8:	720cbc83          	ld	s9,1824(s9) # 1720 <.LBB64_5+0x1c>
     5cc:	080ccc93          	xori	s9,s9,128
     5d0:	019c0123          	sb	s9,2(s8)
     5d4:	00001cb7          	lui	s9,0x1
     5d8:	41940cb3          	sub	s9,s0,s9
     5dc:	718cbc83          	ld	s9,1816(s9) # 1718 <.LBB64_5+0x14>
     5e0:	080ccc93          	xori	s9,s9,128
     5e4:	019c00a3          	sb	s9,1(s8)
     5e8:	00001cb7          	lui	s9,0x1
     5ec:	41940cb3          	sub	s9,s0,s9
     5f0:	710cbc83          	ld	s9,1808(s9) # 1710 <.LBB64_5+0xc>
     5f4:	080ccc93          	xori	s9,s9,128
     5f8:	019c0023          	sb	s9,0(s8)
     5fc:	00001cb7          	lui	s9,0x1
     600:	41940cb3          	sub	s9,s0,s9
     604:	708cbc83          	ld	s9,1800(s9) # 1708 <.LBB64_5+0x4>
     608:	080ccc93          	xori	s9,s9,128
     60c:	019c0223          	sb	s9,4(s8)
     610:	00001cb7          	lui	s9,0x1
     614:	41940cb3          	sub	s9,s0,s9
     618:	700cbc83          	ld	s9,1792(s9) # 1700 <.LBB64_4+0x598>
     61c:	080ccc93          	xori	s9,s9,128
     620:	019c02a3          	sb	s9,5(s8)
     624:	00001cb7          	lui	s9,0x1
     628:	41940cb3          	sub	s9,s0,s9
     62c:	6f8cbc83          	ld	s9,1784(s9) # 16f8 <.LBB64_4+0x590>
     630:	080ccc93          	xori	s9,s9,128
     634:	019c0323          	sb	s9,6(s8)
     638:	00001cb7          	lui	s9,0x1
     63c:	41940cb3          	sub	s9,s0,s9
     640:	6f0cbc83          	ld	s9,1776(s9) # 16f0 <.LBB64_4+0x588>
     644:	080ccc93          	xori	s9,s9,128
     648:	019c03a3          	sb	s9,7(s8)
     64c:	00001cb7          	lui	s9,0x1
     650:	41940cb3          	sub	s9,s0,s9
     654:	6e8cbc83          	ld	s9,1768(s9) # 16e8 <.LBB64_4+0x580>
     658:	080ccc93          	xori	s9,s9,128
     65c:	019c0423          	sb	s9,8(s8)
     660:	00001cb7          	lui	s9,0x1
     664:	41940cb3          	sub	s9,s0,s9
     668:	6e0cbc83          	ld	s9,1760(s9) # 16e0 <.LBB64_4+0x578>
     66c:	080ccc93          	xori	s9,s9,128
     670:	019c04a3          	sb	s9,9(s8)
     674:	00001cb7          	lui	s9,0x1
     678:	41940cb3          	sub	s9,s0,s9
     67c:	6d8cbc83          	ld	s9,1752(s9) # 16d8 <.LBB64_4+0x570>
     680:	080ccc93          	xori	s9,s9,128
     684:	019c0523          	sb	s9,10(s8)
     688:	00001cb7          	lui	s9,0x1
     68c:	41940cb3          	sub	s9,s0,s9
     690:	6d0cbc83          	ld	s9,1744(s9) # 16d0 <.LBB64_4+0x568>
     694:	080ccc93          	xori	s9,s9,128
     698:	019c05a3          	sb	s9,11(s8)
     69c:	00001cb7          	lui	s9,0x1
     6a0:	41940cb3          	sub	s9,s0,s9
     6a4:	6c8cbc83          	ld	s9,1736(s9) # 16c8 <.LBB64_4+0x560>
     6a8:	080ccc93          	xori	s9,s9,128
     6ac:	019c0623          	sb	s9,12(s8)
     6b0:	00001cb7          	lui	s9,0x1
     6b4:	41940cb3          	sub	s9,s0,s9
     6b8:	6c0cbc83          	ld	s9,1728(s9) # 16c0 <.LBB64_4+0x558>
     6bc:	080ccc93          	xori	s9,s9,128
     6c0:	019c06a3          	sb	s9,13(s8)
     6c4:	00001cb7          	lui	s9,0x1
     6c8:	41940cb3          	sub	s9,s0,s9
     6cc:	6b8cbc83          	ld	s9,1720(s9) # 16b8 <.LBB64_4+0x550>
     6d0:	080ccc93          	xori	s9,s9,128
     6d4:	019c0723          	sb	s9,14(s8)
     6d8:	00001cb7          	lui	s9,0x1
     6dc:	41940cb3          	sub	s9,s0,s9
     6e0:	6b0cbc83          	ld	s9,1712(s9) # 16b0 <.LBB64_4+0x548>
     6e4:	080ccc93          	xori	s9,s9,128
     6e8:	019c07a3          	sb	s9,15(s8)
     6ec:	00001cb7          	lui	s9,0x1
     6f0:	41940cb3          	sub	s9,s0,s9
     6f4:	6a8cbc83          	ld	s9,1704(s9) # 16a8 <.LBB64_4+0x540>
     6f8:	080ccc93          	xori	s9,s9,128
     6fc:	019c0823          	sb	s9,16(s8)
     700:	00001cb7          	lui	s9,0x1
     704:	41940cb3          	sub	s9,s0,s9
     708:	6a0cbc83          	ld	s9,1696(s9) # 16a0 <.LBB64_4+0x538>
     70c:	080ccc93          	xori	s9,s9,128
     710:	019c08a3          	sb	s9,17(s8)
     714:	00001cb7          	lui	s9,0x1
     718:	41940cb3          	sub	s9,s0,s9
     71c:	698cbc83          	ld	s9,1688(s9) # 1698 <.LBB64_4+0x530>
     720:	080ccc93          	xori	s9,s9,128
     724:	019c0923          	sb	s9,18(s8)
     728:	00001cb7          	lui	s9,0x1
     72c:	41940cb3          	sub	s9,s0,s9
     730:	690cbc83          	ld	s9,1680(s9) # 1690 <.LBB64_4+0x528>
     734:	080ccc93          	xori	s9,s9,128
     738:	019c09a3          	sb	s9,19(s8)
     73c:	00001cb7          	lui	s9,0x1
     740:	41940cb3          	sub	s9,s0,s9
     744:	678cbc83          	ld	s9,1656(s9) # 1678 <.LBB64_4+0x510>
     748:	080ccc93          	xori	s9,s9,128
     74c:	019c0a23          	sb	s9,20(s8)
     750:	00001cb7          	lui	s9,0x1
     754:	41940cb3          	sub	s9,s0,s9
     758:	670cbc83          	ld	s9,1648(s9) # 1670 <.LBB64_4+0x508>
     75c:	080ccc93          	xori	s9,s9,128
     760:	019c0aa3          	sb	s9,21(s8)
     764:	00001cb7          	lui	s9,0x1
     768:	41940cb3          	sub	s9,s0,s9
     76c:	2d0cbc83          	ld	s9,720(s9) # 12d0 <.LBB64_4+0x168>
     770:	080ccc93          	xori	s9,s9,128
     774:	019c0b23          	sb	s9,22(s8)
     778:	00001cb7          	lui	s9,0x1
     77c:	41940cb3          	sub	s9,s0,s9
     780:	2e0cbc83          	ld	s9,736(s9) # 12e0 <.LBB64_4+0x178>
     784:	080ccc93          	xori	s9,s9,128
     788:	019c0ba3          	sb	s9,23(s8)
     78c:	00001cb7          	lui	s9,0x1
     790:	41940cb3          	sub	s9,s0,s9
     794:	2f0cbc83          	ld	s9,752(s9) # 12f0 <.LBB64_4+0x188>
     798:	080ccc93          	xori	s9,s9,128
     79c:	019c0c23          	sb	s9,24(s8)
     7a0:	00001cb7          	lui	s9,0x1
     7a4:	41940cb3          	sub	s9,s0,s9
     7a8:	300cbc83          	ld	s9,768(s9) # 1300 <.LBB64_4+0x198>
     7ac:	080ccc93          	xori	s9,s9,128
     7b0:	019c0ca3          	sb	s9,25(s8)
     7b4:	00001cb7          	lui	s9,0x1
     7b8:	41940cb3          	sub	s9,s0,s9
     7bc:	310cbc83          	ld	s9,784(s9) # 1310 <.LBB64_4+0x1a8>
     7c0:	080ccc93          	xori	s9,s9,128
     7c4:	019c0d23          	sb	s9,26(s8)
     7c8:	00001cb7          	lui	s9,0x1
     7cc:	41940cb3          	sub	s9,s0,s9
     7d0:	320cbc83          	ld	s9,800(s9) # 1320 <.LBB64_4+0x1b8>
     7d4:	080ccc93          	xori	s9,s9,128
     7d8:	019c0da3          	sb	s9,27(s8)
     7dc:	00001cb7          	lui	s9,0x1
     7e0:	41940cb3          	sub	s9,s0,s9
     7e4:	330cbc83          	ld	s9,816(s9) # 1330 <.LBB64_4+0x1c8>
     7e8:	080ccc93          	xori	s9,s9,128
     7ec:	019c0e23          	sb	s9,28(s8)
     7f0:	00001cb7          	lui	s9,0x1
     7f4:	41940cb3          	sub	s9,s0,s9
     7f8:	340cbc83          	ld	s9,832(s9) # 1340 <.LBB64_4+0x1d8>
     7fc:	080ccc93          	xori	s9,s9,128
     800:	019c0ea3          	sb	s9,29(s8)
     804:	00001cb7          	lui	s9,0x1
     808:	41940cb3          	sub	s9,s0,s9
     80c:	350cbc83          	ld	s9,848(s9) # 1350 <.LBB64_4+0x1e8>
     810:	080ccc93          	xori	s9,s9,128
     814:	019c0f23          	sb	s9,30(s8)
     818:	00001cb7          	lui	s9,0x1
     81c:	41940cb3          	sub	s9,s0,s9
     820:	360cbc83          	ld	s9,864(s9) # 1360 <.LBB64_4+0x1f8>
     824:	080ccc93          	xori	s9,s9,128
     828:	019c0fa3          	sb	s9,31(s8)
     82c:	00001c37          	lui	s8,0x1
     830:	41840c33          	sub	s8,s0,s8
     834:	370c3c03          	ld	s8,880(s8) # 1370 <.LBB64_4+0x208>
     838:	080c4c93          	xori	s9,s8,128
     83c:	00001c37          	lui	s8,0x1
     840:	41840c33          	sub	s8,s0,s8
     844:	d48c3c03          	ld	s8,-696(s8) # d48 <.LBB64_3+0xb34>
     848:	01ac0c33          	add	s8,s8,s10
     84c:	019c01a3          	sb	s9,3(s8)
     850:	00001cb7          	lui	s9,0x1
     854:	41940cb3          	sub	s9,s0,s9
     858:	380cbc83          	ld	s9,896(s9) # 1380 <.LBB64_4+0x218>
     85c:	080ccc93          	xori	s9,s9,128
     860:	019c0123          	sb	s9,2(s8)
     864:	00001cb7          	lui	s9,0x1
     868:	41940cb3          	sub	s9,s0,s9
     86c:	390cbc83          	ld	s9,912(s9) # 1390 <.LBB64_4+0x228>
     870:	080ccc93          	xori	s9,s9,128
     874:	019c00a3          	sb	s9,1(s8)
     878:	00001cb7          	lui	s9,0x1
     87c:	41940cb3          	sub	s9,s0,s9
     880:	3a0cbc83          	ld	s9,928(s9) # 13a0 <.LBB64_4+0x238>
     884:	080ccc93          	xori	s9,s9,128
     888:	019c0023          	sb	s9,0(s8)
     88c:	00001cb7          	lui	s9,0x1
     890:	41940cb3          	sub	s9,s0,s9
     894:	3b0cbc83          	ld	s9,944(s9) # 13b0 <.LBB64_4+0x248>
     898:	080ccc93          	xori	s9,s9,128
     89c:	019c0223          	sb	s9,4(s8)
     8a0:	00001cb7          	lui	s9,0x1
     8a4:	41940cb3          	sub	s9,s0,s9
     8a8:	3c0cbc83          	ld	s9,960(s9) # 13c0 <.LBB64_4+0x258>
     8ac:	080ccc93          	xori	s9,s9,128
     8b0:	019c02a3          	sb	s9,5(s8)
     8b4:	00001cb7          	lui	s9,0x1
     8b8:	41940cb3          	sub	s9,s0,s9
     8bc:	3d0cbc83          	ld	s9,976(s9) # 13d0 <.LBB64_4+0x268>
     8c0:	080ccc93          	xori	s9,s9,128
     8c4:	019c0323          	sb	s9,6(s8)
     8c8:	00001cb7          	lui	s9,0x1
     8cc:	41940cb3          	sub	s9,s0,s9
     8d0:	3e0cbc83          	ld	s9,992(s9) # 13e0 <.LBB64_4+0x278>
     8d4:	080ccc93          	xori	s9,s9,128
     8d8:	019c03a3          	sb	s9,7(s8)
     8dc:	00001cb7          	lui	s9,0x1
     8e0:	41940cb3          	sub	s9,s0,s9
     8e4:	3f0cbc83          	ld	s9,1008(s9) # 13f0 <.LBB64_4+0x288>
     8e8:	080ccc93          	xori	s9,s9,128
     8ec:	019c0423          	sb	s9,8(s8)
     8f0:	00001cb7          	lui	s9,0x1
     8f4:	41940cb3          	sub	s9,s0,s9
     8f8:	400cbc83          	ld	s9,1024(s9) # 1400 <.LBB64_4+0x298>
     8fc:	080ccc93          	xori	s9,s9,128
     900:	019c04a3          	sb	s9,9(s8)
     904:	00001cb7          	lui	s9,0x1
     908:	41940cb3          	sub	s9,s0,s9
     90c:	410cbc83          	ld	s9,1040(s9) # 1410 <.LBB64_4+0x2a8>
     910:	080ccc93          	xori	s9,s9,128
     914:	019c0523          	sb	s9,10(s8)
     918:	00001cb7          	lui	s9,0x1
     91c:	41940cb3          	sub	s9,s0,s9
     920:	420cbc83          	ld	s9,1056(s9) # 1420 <.LBB64_4+0x2b8>
     924:	080ccc93          	xori	s9,s9,128
     928:	019c05a3          	sb	s9,11(s8)
     92c:	00001cb7          	lui	s9,0x1
     930:	41940cb3          	sub	s9,s0,s9
     934:	430cbc83          	ld	s9,1072(s9) # 1430 <.LBB64_4+0x2c8>
     938:	080ccc93          	xori	s9,s9,128
     93c:	019c0623          	sb	s9,12(s8)
     940:	00001cb7          	lui	s9,0x1
     944:	41940cb3          	sub	s9,s0,s9
     948:	440cbc83          	ld	s9,1088(s9) # 1440 <.LBB64_4+0x2d8>
     94c:	080ccc93          	xori	s9,s9,128
     950:	019c06a3          	sb	s9,13(s8)
     954:	00001cb7          	lui	s9,0x1
     958:	41940cb3          	sub	s9,s0,s9
     95c:	450cbc83          	ld	s9,1104(s9) # 1450 <.LBB64_4+0x2e8>
     960:	080ccc93          	xori	s9,s9,128
     964:	019c0723          	sb	s9,14(s8)
     968:	00001cb7          	lui	s9,0x1
     96c:	41940cb3          	sub	s9,s0,s9
     970:	460cbc83          	ld	s9,1120(s9) # 1460 <.LBB64_4+0x2f8>
     974:	080ccc93          	xori	s9,s9,128
     978:	019c07a3          	sb	s9,15(s8)
     97c:	00001cb7          	lui	s9,0x1
     980:	41940cb3          	sub	s9,s0,s9
     984:	470cbc83          	ld	s9,1136(s9) # 1470 <.LBB64_4+0x308>
     988:	080ccc93          	xori	s9,s9,128
     98c:	019c0823          	sb	s9,16(s8)
     990:	00001cb7          	lui	s9,0x1
     994:	41940cb3          	sub	s9,s0,s9
     998:	480cbc83          	ld	s9,1152(s9) # 1480 <.LBB64_4+0x318>
     99c:	080ccc93          	xori	s9,s9,128
     9a0:	019c08a3          	sb	s9,17(s8)
     9a4:	00001cb7          	lui	s9,0x1
     9a8:	41940cb3          	sub	s9,s0,s9
     9ac:	490cbc83          	ld	s9,1168(s9) # 1490 <.LBB64_4+0x328>
     9b0:	080ccc93          	xori	s9,s9,128
     9b4:	019c0923          	sb	s9,18(s8)
     9b8:	00001cb7          	lui	s9,0x1
     9bc:	41940cb3          	sub	s9,s0,s9
     9c0:	4a0cbc83          	ld	s9,1184(s9) # 14a0 <.LBB64_4+0x338>
     9c4:	080ccc93          	xori	s9,s9,128
     9c8:	019c09a3          	sb	s9,19(s8)
     9cc:	00001cb7          	lui	s9,0x1
     9d0:	41940cb3          	sub	s9,s0,s9
     9d4:	4b0cbc83          	ld	s9,1200(s9) # 14b0 <.LBB64_4+0x348>
     9d8:	080ccc93          	xori	s9,s9,128
     9dc:	019c0a23          	sb	s9,20(s8)
     9e0:	00001cb7          	lui	s9,0x1
     9e4:	41940cb3          	sub	s9,s0,s9
     9e8:	4c0cbc83          	ld	s9,1216(s9) # 14c0 <.LBB64_4+0x358>
     9ec:	080ccc93          	xori	s9,s9,128
     9f0:	019c0aa3          	sb	s9,21(s8)
     9f4:	00001cb7          	lui	s9,0x1
     9f8:	41940cb3          	sub	s9,s0,s9
     9fc:	4d0cbc83          	ld	s9,1232(s9) # 14d0 <.LBB64_4+0x368>
     a00:	080ccc93          	xori	s9,s9,128
     a04:	019c0b23          	sb	s9,22(s8)
     a08:	00001cb7          	lui	s9,0x1
     a0c:	41940cb3          	sub	s9,s0,s9
     a10:	4e0cbc83          	ld	s9,1248(s9) # 14e0 <.LBB64_4+0x378>
     a14:	080ccc93          	xori	s9,s9,128
     a18:	019c0ba3          	sb	s9,23(s8)
     a1c:	00001cb7          	lui	s9,0x1
     a20:	41940cb3          	sub	s9,s0,s9
     a24:	4f0cbc83          	ld	s9,1264(s9) # 14f0 <.LBB64_4+0x388>
     a28:	080ccc93          	xori	s9,s9,128
     a2c:	019c0c23          	sb	s9,24(s8)
     a30:	00001cb7          	lui	s9,0x1
     a34:	41940cb3          	sub	s9,s0,s9
     a38:	500cbc83          	ld	s9,1280(s9) # 1500 <.LBB64_4+0x398>
     a3c:	080ccc93          	xori	s9,s9,128
     a40:	019c0ca3          	sb	s9,25(s8)
     a44:	00001cb7          	lui	s9,0x1
     a48:	41940cb3          	sub	s9,s0,s9
     a4c:	510cbc83          	ld	s9,1296(s9) # 1510 <.LBB64_4+0x3a8>
     a50:	080ccc93          	xori	s9,s9,128
     a54:	019c0d23          	sb	s9,26(s8)
     a58:	00001cb7          	lui	s9,0x1
     a5c:	41940cb3          	sub	s9,s0,s9
     a60:	520cbc83          	ld	s9,1312(s9) # 1520 <.LBB64_4+0x3b8>
     a64:	080ccc93          	xori	s9,s9,128
     a68:	019c0da3          	sb	s9,27(s8)
     a6c:	00001cb7          	lui	s9,0x1
     a70:	41940cb3          	sub	s9,s0,s9
     a74:	530cbc83          	ld	s9,1328(s9) # 1530 <.LBB64_4+0x3c8>
     a78:	080ccc93          	xori	s9,s9,128
     a7c:	019c0e23          	sb	s9,28(s8)
     a80:	00001cb7          	lui	s9,0x1
     a84:	41940cb3          	sub	s9,s0,s9
     a88:	540cbc83          	ld	s9,1344(s9) # 1540 <.LBB64_4+0x3d8>
     a8c:	080ccc93          	xori	s9,s9,128
     a90:	019c0ea3          	sb	s9,29(s8)
     a94:	00001cb7          	lui	s9,0x1
     a98:	41940cb3          	sub	s9,s0,s9
     a9c:	550cbc83          	ld	s9,1360(s9) # 1550 <.LBB64_4+0x3e8>
     aa0:	080ccc93          	xori	s9,s9,128
     aa4:	019c0f23          	sb	s9,30(s8)
     aa8:	00001cb7          	lui	s9,0x1
     aac:	41940cb3          	sub	s9,s0,s9
     ab0:	560cbc83          	ld	s9,1376(s9) # 1560 <.LBB64_4+0x3f8>
     ab4:	080ccc93          	xori	s9,s9,128
     ab8:	019c0fa3          	sb	s9,31(s8)
     abc:	00001c37          	lui	s8,0x1
     ac0:	41840c33          	sub	s8,s0,s8
     ac4:	570c3c03          	ld	s8,1392(s8) # 1570 <.LBB64_4+0x408>
     ac8:	080c4c93          	xori	s9,s8,128
     acc:	00001c37          	lui	s8,0x1
     ad0:	41840c33          	sub	s8,s0,s8
     ad4:	d40c3c03          	ld	s8,-704(s8) # d40 <.LBB64_3+0xb2c>
     ad8:	01ac0c33          	add	s8,s8,s10
     adc:	019c01a3          	sb	s9,3(s8)
     ae0:	00001cb7          	lui	s9,0x1
     ae4:	41940cb3          	sub	s9,s0,s9
     ae8:	580cbc83          	ld	s9,1408(s9) # 1580 <.LBB64_4+0x418>
     aec:	080ccc93          	xori	s9,s9,128
     af0:	019c0123          	sb	s9,2(s8)
     af4:	00001cb7          	lui	s9,0x1
     af8:	41940cb3          	sub	s9,s0,s9
     afc:	590cbc83          	ld	s9,1424(s9) # 1590 <.LBB64_4+0x428>
     b00:	080ccc93          	xori	s9,s9,128
     b04:	019c00a3          	sb	s9,1(s8)
     b08:	00001cb7          	lui	s9,0x1
     b0c:	41940cb3          	sub	s9,s0,s9
     b10:	5a0cbc83          	ld	s9,1440(s9) # 15a0 <.LBB64_4+0x438>
     b14:	080ccc93          	xori	s9,s9,128
     b18:	019c0023          	sb	s9,0(s8)
     b1c:	00001cb7          	lui	s9,0x1
     b20:	41940cb3          	sub	s9,s0,s9
     b24:	5b0cbc83          	ld	s9,1456(s9) # 15b0 <.LBB64_4+0x448>
     b28:	080ccc93          	xori	s9,s9,128
     b2c:	019c0223          	sb	s9,4(s8)
     b30:	00001cb7          	lui	s9,0x1
     b34:	41940cb3          	sub	s9,s0,s9
     b38:	5c0cbc83          	ld	s9,1472(s9) # 15c0 <.LBB64_4+0x458>
     b3c:	080ccc93          	xori	s9,s9,128
     b40:	019c02a3          	sb	s9,5(s8)
     b44:	00001cb7          	lui	s9,0x1
     b48:	41940cb3          	sub	s9,s0,s9
     b4c:	5d0cbc83          	ld	s9,1488(s9) # 15d0 <.LBB64_4+0x468>
     b50:	080ccc93          	xori	s9,s9,128
     b54:	019c0323          	sb	s9,6(s8)
     b58:	00001cb7          	lui	s9,0x1
     b5c:	41940cb3          	sub	s9,s0,s9
     b60:	5e0cbc83          	ld	s9,1504(s9) # 15e0 <.LBB64_4+0x478>
     b64:	080ccc93          	xori	s9,s9,128
     b68:	019c03a3          	sb	s9,7(s8)
     b6c:	00001cb7          	lui	s9,0x1
     b70:	41940cb3          	sub	s9,s0,s9
     b74:	5f0cbc83          	ld	s9,1520(s9) # 15f0 <.LBB64_4+0x488>
     b78:	080ccc93          	xori	s9,s9,128
     b7c:	019c0423          	sb	s9,8(s8)
     b80:	00001cb7          	lui	s9,0x1
     b84:	41940cb3          	sub	s9,s0,s9
     b88:	600cbc83          	ld	s9,1536(s9) # 1600 <.LBB64_4+0x498>
     b8c:	080ccc93          	xori	s9,s9,128
     b90:	019c04a3          	sb	s9,9(s8)
     b94:	00001cb7          	lui	s9,0x1
     b98:	41940cb3          	sub	s9,s0,s9
     b9c:	610cbc83          	ld	s9,1552(s9) # 1610 <.LBB64_4+0x4a8>
     ba0:	080ccc93          	xori	s9,s9,128
     ba4:	019c0523          	sb	s9,10(s8)
     ba8:	00001cb7          	lui	s9,0x1
     bac:	41940cb3          	sub	s9,s0,s9
     bb0:	620cbc83          	ld	s9,1568(s9) # 1620 <.LBB64_4+0x4b8>
     bb4:	080ccc93          	xori	s9,s9,128
     bb8:	019c05a3          	sb	s9,11(s8)
     bbc:	00001cb7          	lui	s9,0x1
     bc0:	41940cb3          	sub	s9,s0,s9
     bc4:	630cbc83          	ld	s9,1584(s9) # 1630 <.LBB64_4+0x4c8>
     bc8:	080ccc93          	xori	s9,s9,128
     bcc:	019c0623          	sb	s9,12(s8)
     bd0:	00001cb7          	lui	s9,0x1
     bd4:	41940cb3          	sub	s9,s0,s9
     bd8:	640cbc83          	ld	s9,1600(s9) # 1640 <.LBB64_4+0x4d8>
     bdc:	080ccc93          	xori	s9,s9,128
     be0:	019c06a3          	sb	s9,13(s8)
     be4:	00001cb7          	lui	s9,0x1
     be8:	41940cb3          	sub	s9,s0,s9
     bec:	680cbc83          	ld	s9,1664(s9) # 1680 <.LBB64_4+0x518>
     bf0:	080ccc93          	xori	s9,s9,128
     bf4:	019c0723          	sb	s9,14(s8)
     bf8:	af843c83          	ld	s9,-1288(s0)
     bfc:	080ccc93          	xori	s9,s9,128
     c00:	019c07a3          	sb	s9,15(s8)
     c04:	00001cb7          	lui	s9,0x1
     c08:	41940cb3          	sub	s9,s0,s9
     c0c:	788cbc83          	ld	s9,1928(s9) # 1788 <.LBB64_5+0x84>
     c10:	080ccc93          	xori	s9,s9,128
     c14:	019c0823          	sb	s9,16(s8)
     c18:	b0843c83          	ld	s9,-1272(s0)
     c1c:	080ccc93          	xori	s9,s9,128
     c20:	019c08a3          	sb	s9,17(s8)
     c24:	00001cb7          	lui	s9,0x1
     c28:	41940cb3          	sub	s9,s0,s9
     c2c:	7a8cbc83          	ld	s9,1960(s9) # 17a8 <.LBB64_5+0xa4>
     c30:	080ccc93          	xori	s9,s9,128
     c34:	019c0923          	sb	s9,18(s8)
     c38:	00001cb7          	lui	s9,0x1
     c3c:	41940cb3          	sub	s9,s0,s9
     c40:	7b8cbc83          	ld	s9,1976(s9) # 17b8 <.LBB64_5+0xb4>
     c44:	080ccc93          	xori	s9,s9,128
     c48:	019c09a3          	sb	s9,19(s8)
     c4c:	00001cb7          	lui	s9,0x1
     c50:	41940cb3          	sub	s9,s0,s9
     c54:	7c8cbc83          	ld	s9,1992(s9) # 17c8 <.LBB64_5+0xc4>
     c58:	080ccc93          	xori	s9,s9,128
     c5c:	019c0a23          	sb	s9,20(s8)
     c60:	00001cb7          	lui	s9,0x1
     c64:	41940cb3          	sub	s9,s0,s9
     c68:	7e0cbc83          	ld	s9,2016(s9) # 17e0 <.LBB64_5+0xdc>
     c6c:	080ccc93          	xori	s9,s9,128
     c70:	019c0aa3          	sb	s9,21(s8)
     c74:	00001cb7          	lui	s9,0x1
     c78:	41940cb3          	sub	s9,s0,s9
     c7c:	7f0cbc83          	ld	s9,2032(s9) # 17f0 <.LBB64_5+0xec>
     c80:	080ccc93          	xori	s9,s9,128
     c84:	019c0b23          	sb	s9,22(s8)
     c88:	b3843c83          	ld	s9,-1224(s0)
     c8c:	080ccc93          	xori	s9,s9,128
     c90:	019c0ba3          	sb	s9,23(s8)
     c94:	80843c83          	ld	s9,-2040(s0)
     c98:	080ccc93          	xori	s9,s9,128
     c9c:	019c0c23          	sb	s9,24(s8)
     ca0:	82043c83          	ld	s9,-2016(s0)
     ca4:	080ccc93          	xori	s9,s9,128
     ca8:	019c0ca3          	sb	s9,25(s8)
     cac:	83043c83          	ld	s9,-2000(s0)
     cb0:	080ccc93          	xori	s9,s9,128
     cb4:	019c0d23          	sb	s9,26(s8)
     cb8:	84043c83          	ld	s9,-1984(s0)
     cbc:	080ccc93          	xori	s9,s9,128
     cc0:	019c0da3          	sb	s9,27(s8)
     cc4:	85043c83          	ld	s9,-1968(s0)
     cc8:	080ccc93          	xori	s9,s9,128
     ccc:	019c0e23          	sb	s9,28(s8)
     cd0:	86843c83          	ld	s9,-1944(s0)
     cd4:	080ccc93          	xori	s9,s9,128
     cd8:	019c0ea3          	sb	s9,29(s8)
     cdc:	87843c83          	ld	s9,-1928(s0)
     ce0:	080ccc93          	xori	s9,s9,128
     ce4:	019c0f23          	sb	s9,30(s8)
     ce8:	88843c83          	ld	s9,-1912(s0)
     cec:	080ccc93          	xori	s9,s9,128
     cf0:	019c0fa3          	sb	s9,31(s8)
     cf4:	8a043c03          	ld	s8,-1888(s0)
     cf8:	080c4c93          	xori	s9,s8,128
     cfc:	00001c37          	lui	s8,0x1
     d00:	41840c33          	sub	s8,s0,s8
     d04:	d38c3c03          	ld	s8,-712(s8) # d38 <.LBB64_3+0xb24>
     d08:	01ac0c33          	add	s8,s8,s10
     d0c:	019c01a3          	sb	s9,3(s8)
     d10:	8b043c83          	ld	s9,-1872(s0)
     d14:	080ccc93          	xori	s9,s9,128
     d18:	019c0123          	sb	s9,2(s8)
     d1c:	8c043c83          	ld	s9,-1856(s0)
     d20:	080ccc93          	xori	s9,s9,128
     d24:	019c00a3          	sb	s9,1(s8)
     d28:	8d043c83          	ld	s9,-1840(s0)
     d2c:	080ccc93          	xori	s9,s9,128
     d30:	019c0023          	sb	s9,0(s8)
     d34:	8e843c83          	ld	s9,-1816(s0)
     d38:	080ccc93          	xori	s9,s9,128
     d3c:	019c0223          	sb	s9,4(s8)
     d40:	8f843c83          	ld	s9,-1800(s0)
     d44:	080ccc93          	xori	s9,s9,128
     d48:	019c02a3          	sb	s9,5(s8)
     d4c:	90843c83          	ld	s9,-1784(s0)
     d50:	080ccc93          	xori	s9,s9,128
     d54:	019c0323          	sb	s9,6(s8)
     d58:	91843c83          	ld	s9,-1768(s0)
     d5c:	080ccc93          	xori	s9,s9,128
     d60:	019c03a3          	sb	s9,7(s8)
     d64:	93043c83          	ld	s9,-1744(s0)
     d68:	080ccc93          	xori	s9,s9,128
     d6c:	019c0423          	sb	s9,8(s8)
     d70:	94043c83          	ld	s9,-1728(s0)
     d74:	080ccc93          	xori	s9,s9,128
     d78:	019c04a3          	sb	s9,9(s8)
     d7c:	bd043c83          	ld	s9,-1072(s0)
     d80:	080ccc93          	xori	s9,s9,128
     d84:	019c0523          	sb	s9,10(s8)
     d88:	96043c83          	ld	s9,-1696(s0)
     d8c:	080ccc93          	xori	s9,s9,128
     d90:	019c05a3          	sb	s9,11(s8)
     d94:	97043c83          	ld	s9,-1680(s0)
     d98:	080ccc93          	xori	s9,s9,128
     d9c:	019c0623          	sb	s9,12(s8)
     da0:	98043c83          	ld	s9,-1664(s0)
     da4:	080ccc93          	xori	s9,s9,128
     da8:	019c06a3          	sb	s9,13(s8)
     dac:	99043c83          	ld	s9,-1648(s0)
     db0:	080ccc93          	xori	s9,s9,128
     db4:	019c0723          	sb	s9,14(s8)
     db8:	9a843c83          	ld	s9,-1624(s0)
     dbc:	080ccc93          	xori	s9,s9,128
     dc0:	019c07a3          	sb	s9,15(s8)
     dc4:	9b843c83          	ld	s9,-1608(s0)
     dc8:	080ccc93          	xori	s9,s9,128
     dcc:	019c0823          	sb	s9,16(s8)
     dd0:	9c843c83          	ld	s9,-1592(s0)
     dd4:	080ccc93          	xori	s9,s9,128
     dd8:	019c08a3          	sb	s9,17(s8)
     ddc:	9d843c83          	ld	s9,-1576(s0)
     de0:	080ccc93          	xori	s9,s9,128
     de4:	019c0923          	sb	s9,18(s8)
     de8:	9f043c83          	ld	s9,-1552(s0)
     dec:	080ccc93          	xori	s9,s9,128
     df0:	019c09a3          	sb	s9,19(s8)
     df4:	a0043c83          	ld	s9,-1536(s0)
     df8:	080ccc93          	xori	s9,s9,128
     dfc:	019c0a23          	sb	s9,20(s8)
     e00:	a1043c83          	ld	s9,-1520(s0)
     e04:	080ccc93          	xori	s9,s9,128
     e08:	019c0aa3          	sb	s9,21(s8)
     e0c:	a2843c83          	ld	s9,-1496(s0)
     e10:	080ccc93          	xori	s9,s9,128
     e14:	019c0b23          	sb	s9,22(s8)
     e18:	a3843c83          	ld	s9,-1480(s0)
     e1c:	080ccc93          	xori	s9,s9,128
     e20:	019c0ba3          	sb	s9,23(s8)
     e24:	a4843c83          	ld	s9,-1464(s0)
     e28:	080ccc93          	xori	s9,s9,128
     e2c:	019c0c23          	sb	s9,24(s8)
     e30:	a5843c83          	ld	s9,-1448(s0)
     e34:	080ccc93          	xori	s9,s9,128
     e38:	019c0ca3          	sb	s9,25(s8)
     e3c:	a7043c83          	ld	s9,-1424(s0)
     e40:	080ccc93          	xori	s9,s9,128
     e44:	019c0d23          	sb	s9,26(s8)
     e48:	a8043c83          	ld	s9,-1408(s0)
     e4c:	080ccc93          	xori	s9,s9,128
     e50:	019c0da3          	sb	s9,27(s8)
     e54:	a9043c83          	ld	s9,-1392(s0)
     e58:	080ccc93          	xori	s9,s9,128
     e5c:	019c0e23          	sb	s9,28(s8)
     e60:	aa043c83          	ld	s9,-1376(s0)
     e64:	080ccc93          	xori	s9,s9,128
     e68:	019c0ea3          	sb	s9,29(s8)
     e6c:	ab843c83          	ld	s9,-1352(s0)
     e70:	080ccc93          	xori	s9,s9,128
     e74:	019c0f23          	sb	s9,30(s8)
     e78:	ac843c83          	ld	s9,-1336(s0)
     e7c:	080ccc93          	xori	s9,s9,128
     e80:	019c0fa3          	sb	s9,31(s8)
     e84:	ad843c03          	ld	s8,-1320(s0)
     e88:	080c4c93          	xori	s9,s8,128
     e8c:	00001c37          	lui	s8,0x1
     e90:	41840c33          	sub	s8,s0,s8
     e94:	d30c3c03          	ld	s8,-720(s8) # d30 <.LBB64_3+0xb1c>
     e98:	01ac0c33          	add	s8,s8,s10
     e9c:	019c01a3          	sb	s9,3(s8)
     ea0:	af043c83          	ld	s9,-1296(s0)
     ea4:	080ccc93          	xori	s9,s9,128
     ea8:	019c0123          	sb	s9,2(s8)
     eac:	b1043c83          	ld	s9,-1264(s0)
     eb0:	080ccc93          	xori	s9,s9,128
     eb4:	019c00a3          	sb	s9,1(s8)
     eb8:	b2043c83          	ld	s9,-1248(s0)
     ebc:	080ccc93          	xori	s9,s9,128
     ec0:	019c0023          	sb	s9,0(s8)
     ec4:	b3043c83          	ld	s9,-1232(s0)
     ec8:	080ccc93          	xori	s9,s9,128
     ecc:	019c0223          	sb	s9,4(s8)
     ed0:	b5043c83          	ld	s9,-1200(s0)
     ed4:	080ccc93          	xori	s9,s9,128
     ed8:	019c02a3          	sb	s9,5(s8)
     edc:	b6043c83          	ld	s9,-1184(s0)
     ee0:	080ccc93          	xori	s9,s9,128
     ee4:	019c0323          	sb	s9,6(s8)
     ee8:	b7043c83          	ld	s9,-1168(s0)
     eec:	080ccc93          	xori	s9,s9,128
     ef0:	019c03a3          	sb	s9,7(s8)
     ef4:	b8043c83          	ld	s9,-1152(s0)
     ef8:	080ccc93          	xori	s9,s9,128
     efc:	019c0423          	sb	s9,8(s8)
     f00:	b9843c83          	ld	s9,-1128(s0)
     f04:	080ccc93          	xori	s9,s9,128
     f08:	019c04a3          	sb	s9,9(s8)
     f0c:	ba843c83          	ld	s9,-1112(s0)
     f10:	080ccc93          	xori	s9,s9,128
     f14:	019c0523          	sb	s9,10(s8)
     f18:	bb843c83          	ld	s9,-1096(s0)
     f1c:	080ccc93          	xori	s9,s9,128
     f20:	019c05a3          	sb	s9,11(s8)
     f24:	bc843c83          	ld	s9,-1080(s0)
     f28:	080ccc93          	xori	s9,s9,128
     f2c:	019c0623          	sb	s9,12(s8)
     f30:	be043c83          	ld	s9,-1056(s0)
     f34:	080ccc93          	xori	s9,s9,128
     f38:	019c06a3          	sb	s9,13(s8)
     f3c:	bf043c83          	ld	s9,-1040(s0)
     f40:	080ccc93          	xori	s9,s9,128
     f44:	019c0723          	sb	s9,14(s8)
     f48:	c0043c83          	ld	s9,-1024(s0)
     f4c:	080ccc93          	xori	s9,s9,128
     f50:	019c07a3          	sb	s9,15(s8)
     f54:	c1043c83          	ld	s9,-1008(s0)
     f58:	080ccc93          	xori	s9,s9,128
     f5c:	019c0823          	sb	s9,16(s8)
     f60:	c2043c83          	ld	s9,-992(s0)
     f64:	080ccc93          	xori	s9,s9,128
     f68:	019c08a3          	sb	s9,17(s8)
     f6c:	c3043c83          	ld	s9,-976(s0)
     f70:	080ccc93          	xori	s9,s9,128
     f74:	019c0923          	sb	s9,18(s8)
     f78:	c4043c83          	ld	s9,-960(s0)
     f7c:	080ccc93          	xori	s9,s9,128
     f80:	019c09a3          	sb	s9,19(s8)
     f84:	c5043c83          	ld	s9,-944(s0)
     f88:	080ccc93          	xori	s9,s9,128
     f8c:	019c0a23          	sb	s9,20(s8)
     f90:	c6043c83          	ld	s9,-928(s0)
     f94:	080ccc93          	xori	s9,s9,128
     f98:	019c0aa3          	sb	s9,21(s8)
     f9c:	c7043c83          	ld	s9,-912(s0)
     fa0:	080ccc93          	xori	s9,s9,128
     fa4:	019c0b23          	sb	s9,22(s8)
     fa8:	c8043c83          	ld	s9,-896(s0)
     fac:	080ccc93          	xori	s9,s9,128
     fb0:	019c0ba3          	sb	s9,23(s8)
     fb4:	c9043c83          	ld	s9,-880(s0)
     fb8:	080ccc93          	xori	s9,s9,128
     fbc:	019c0c23          	sb	s9,24(s8)
     fc0:	ca043c83          	ld	s9,-864(s0)
     fc4:	080ccc93          	xori	s9,s9,128
     fc8:	019c0ca3          	sb	s9,25(s8)
     fcc:	cb043c83          	ld	s9,-848(s0)
     fd0:	080ccc93          	xori	s9,s9,128
     fd4:	019c0d23          	sb	s9,26(s8)
     fd8:	cc043c83          	ld	s9,-832(s0)
     fdc:	080ccc93          	xori	s9,s9,128
     fe0:	019c0da3          	sb	s9,27(s8)
     fe4:	cd043c83          	ld	s9,-816(s0)
     fe8:	080ccc93          	xori	s9,s9,128
     fec:	019c0e23          	sb	s9,28(s8)
     ff0:	ce043c83          	ld	s9,-800(s0)
     ff4:	080ccc93          	xori	s9,s9,128
     ff8:	019c0ea3          	sb	s9,29(s8)
     ffc:	cf043c83          	ld	s9,-784(s0)
    1000:	080ccc93          	xori	s9,s9,128
    1004:	019c0f23          	sb	s9,30(s8)
    1008:	d0043c83          	ld	s9,-768(s0)
    100c:	080ccc93          	xori	s9,s9,128
    1010:	019c0fa3          	sb	s9,31(s8)
    1014:	d1043c03          	ld	s8,-752(s0)
    1018:	080c4c93          	xori	s9,s8,128
    101c:	00001c37          	lui	s8,0x1
    1020:	41840c33          	sub	s8,s0,s8
    1024:	d28c3c03          	ld	s8,-728(s8) # d28 <.LBB64_3+0xb14>
    1028:	01ac0c33          	add	s8,s8,s10
    102c:	019c01a3          	sb	s9,3(s8)
    1030:	d2043c83          	ld	s9,-736(s0)
    1034:	080ccc93          	xori	s9,s9,128
    1038:	019c0123          	sb	s9,2(s8)
    103c:	d3043c83          	ld	s9,-720(s0)
    1040:	080ccc93          	xori	s9,s9,128
    1044:	019c00a3          	sb	s9,1(s8)
    1048:	d4043c83          	ld	s9,-704(s0)
    104c:	080ccc93          	xori	s9,s9,128
    1050:	019c0023          	sb	s9,0(s8)
    1054:	e8043c83          	ld	s9,-384(s0)
    1058:	080ccc93          	xori	s9,s9,128
    105c:	019c0223          	sb	s9,4(s8)
    1060:	d5043c83          	ld	s9,-688(s0)
    1064:	080ccc93          	xori	s9,s9,128
    1068:	019c02a3          	sb	s9,5(s8)
    106c:	d6043c83          	ld	s9,-672(s0)
    1070:	080ccc93          	xori	s9,s9,128
    1074:	019c0323          	sb	s9,6(s8)
    1078:	d7043c83          	ld	s9,-656(s0)
    107c:	080ccc93          	xori	s9,s9,128
    1080:	019c03a3          	sb	s9,7(s8)
    1084:	d7843c83          	ld	s9,-648(s0)
    1088:	080ccc93          	xori	s9,s9,128
    108c:	019c0423          	sb	s9,8(s8)
    1090:	080dcc93          	xori	s9,s11,128
    1094:	019c04a3          	sb	s9,9(s8)
    1098:	08054513          	xori	a0,a0,128
    109c:	00ac0523          	sb	a0,10(s8)
    10a0:	0805c513          	xori	a0,a1,128
    10a4:	00ac05a3          	sb	a0,11(s8)
    10a8:	08064513          	xori	a0,a2,128
    10ac:	00ac0623          	sb	a0,12(s8)
    10b0:	0806c513          	xori	a0,a3,128
    10b4:	00ac06a3          	sb	a0,13(s8)
    10b8:	08074513          	xori	a0,a4,128
    10bc:	00ac0723          	sb	a0,14(s8)
    10c0:	0807c513          	xori	a0,a5,128
    10c4:	00ac07a3          	sb	a0,15(s8)
    10c8:	08084513          	xori	a0,a6,128
    10cc:	00ac0823          	sb	a0,16(s8)
    10d0:	0808c513          	xori	a0,a7,128
    10d4:	00ac08a3          	sb	a0,17(s8)
    10d8:	0802c513          	xori	a0,t0,128
    10dc:	00ac0923          	sb	a0,18(s8)
    10e0:	08034513          	xori	a0,t1,128
    10e4:	00ac09a3          	sb	a0,19(s8)
    10e8:	0803c513          	xori	a0,t2,128
    10ec:	00ac0a23          	sb	a0,20(s8)
    10f0:	080e4513          	xori	a0,t3,128
    10f4:	00ac0aa3          	sb	a0,21(s8)
    10f8:	080ec513          	xori	a0,t4,128
    10fc:	00ac0b23          	sb	a0,22(s8)
    1100:	080f4513          	xori	a0,t5,128
    1104:	00ac0ba3          	sb	a0,23(s8)
    1108:	080fc513          	xori	a0,t6,128
    110c:	00ac0c23          	sb	a0,24(s8)
    1110:	0804c513          	xori	a0,s1,128
    1114:	00ac0ca3          	sb	a0,25(s8)
    1118:	08094513          	xori	a0,s2,128
    111c:	00ac0d23          	sb	a0,26(s8)
    1120:	0809c513          	xori	a0,s3,128
    1124:	00ac0da3          	sb	a0,27(s8)
    1128:	080a4513          	xori	a0,s4,128
    112c:	00ac0e23          	sb	a0,28(s8)
    1130:	080ac513          	xori	a0,s5,128
    1134:	00ac0ea3          	sb	a0,29(s8)
    1138:	080b4513          	xori	a0,s6,128
    113c:	00ac0f23          	sb	a0,30(s8)
    1140:	080bc513          	xori	a0,s7,128
    1144:	00ac0fa3          	sb	a0,31(s8)
    1148:	020d0593          	addi	a1,s10,32
    114c:	00001537          	lui	a0,0x1
    1150:	40a40533          	sub	a0,s0,a0
    1154:	65053383          	ld	t2,1616(a0) # 1650 <.LBB64_4+0x4e8>
    1158:	02038393          	addi	t2,t2,32
    115c:	16000513          	li	a0,352
    1160:	00ad6463          	bltu	s10,a0,1168 <.LBB64_4>
    1164:	f9dfe06f          	j	100 <.LBB64_1>

0000000000001168 <.LBB64_4>:
    1168:	00001537          	lui	a0,0x1
    116c:	40a40533          	sub	a0,s0,a0
    1170:	66b53423          	sd	a1,1640(a0) # 1668 <.LBB64_4+0x500>
    1174:	00006fb7          	lui	t6,0x6
    1178:	00001537          	lui	a0,0x1
    117c:	40a40533          	sub	a0,s0,a0
    1180:	d7853483          	ld	s1,-648(a0) # d78 <.LBB64_3+0xb64>
    1184:	00001537          	lui	a0,0x1
    1188:	40a40533          	sub	a0,s0,a0
    118c:	64753823          	sd	t2,1616(a0) # 1650 <.LBB64_4+0x4e8>
    1190:	00038a13          	mv	s4,t2
    1194:	00001537          	lui	a0,0x1
    1198:	40a40533          	sub	a0,s0,a0
    119c:	6c053423          	sd	zero,1736(a0) # 16c8 <.LBB64_4+0x560>
    11a0:	00001537          	lui	a0,0x1
    11a4:	40a40533          	sub	a0,s0,a0
    11a8:	6c053023          	sd	zero,1728(a0) # 16c0 <.LBB64_4+0x558>
    11ac:	00001537          	lui	a0,0x1
    11b0:	40a40533          	sub	a0,s0,a0
    11b4:	6a053c23          	sd	zero,1720(a0) # 16b8 <.LBB64_4+0x550>
    11b8:	00001537          	lui	a0,0x1
    11bc:	40a40533          	sub	a0,s0,a0
    11c0:	6c053823          	sd	zero,1744(a0) # 16d0 <.LBB64_4+0x568>
    11c4:	00001537          	lui	a0,0x1
    11c8:	40a40533          	sub	a0,s0,a0
    11cc:	6a053823          	sd	zero,1712(a0) # 16b0 <.LBB64_4+0x548>
    11d0:	00001537          	lui	a0,0x1
    11d4:	40a40533          	sub	a0,s0,a0
    11d8:	6a053423          	sd	zero,1704(a0) # 16a8 <.LBB64_4+0x540>
    11dc:	00001537          	lui	a0,0x1
    11e0:	40a40533          	sub	a0,s0,a0
    11e4:	6a053023          	sd	zero,1696(a0) # 16a0 <.LBB64_4+0x538>
    11e8:	00001537          	lui	a0,0x1
    11ec:	40a40533          	sub	a0,s0,a0
    11f0:	68053c23          	sd	zero,1688(a0) # 1698 <.LBB64_4+0x530>
    11f4:	00001537          	lui	a0,0x1
    11f8:	40a40533          	sub	a0,s0,a0
    11fc:	68053823          	sd	zero,1680(a0) # 1690 <.LBB64_4+0x528>
    1200:	00001537          	lui	a0,0x1
    1204:	40a40533          	sub	a0,s0,a0
    1208:	6c053c23          	sd	zero,1752(a0) # 16d8 <.LBB64_4+0x570>
    120c:	00001537          	lui	a0,0x1
    1210:	40a40533          	sub	a0,s0,a0
    1214:	6e053023          	sd	zero,1760(a0) # 16e0 <.LBB64_4+0x578>
    1218:	00001537          	lui	a0,0x1
    121c:	40a40533          	sub	a0,s0,a0
    1220:	6e053423          	sd	zero,1768(a0) # 16e8 <.LBB64_4+0x580>
    1224:	00001537          	lui	a0,0x1
    1228:	40a40533          	sub	a0,s0,a0
    122c:	6e053823          	sd	zero,1776(a0) # 16f0 <.LBB64_4+0x588>
    1230:	00001537          	lui	a0,0x1
    1234:	40a40533          	sub	a0,s0,a0
    1238:	6e053c23          	sd	zero,1784(a0) # 16f8 <.LBB64_4+0x590>
    123c:	00001537          	lui	a0,0x1
    1240:	40a40533          	sub	a0,s0,a0
    1244:	70053023          	sd	zero,1792(a0) # 1700 <.LBB64_4+0x598>
    1248:	00001537          	lui	a0,0x1
    124c:	40a40533          	sub	a0,s0,a0
    1250:	70053423          	sd	zero,1800(a0) # 1708 <.LBB64_5+0x4>
    1254:	00001537          	lui	a0,0x1
    1258:	40a40533          	sub	a0,s0,a0
    125c:	70053823          	sd	zero,1808(a0) # 1710 <.LBB64_5+0xc>
    1260:	00001537          	lui	a0,0x1
    1264:	40a40533          	sub	a0,s0,a0
    1268:	70053c23          	sd	zero,1816(a0) # 1718 <.LBB64_5+0x14>
    126c:	00001537          	lui	a0,0x1
    1270:	40a40533          	sub	a0,s0,a0
    1274:	72053023          	sd	zero,1824(a0) # 1720 <.LBB64_5+0x1c>
    1278:	00001537          	lui	a0,0x1
    127c:	40a40533          	sub	a0,s0,a0
    1280:	72053423          	sd	zero,1832(a0) # 1728 <.LBB64_5+0x24>
    1284:	00001537          	lui	a0,0x1
    1288:	40a40533          	sub	a0,s0,a0
    128c:	72053823          	sd	zero,1840(a0) # 1730 <.LBB64_5+0x2c>
    1290:	00001537          	lui	a0,0x1
    1294:	40a40533          	sub	a0,s0,a0
    1298:	72053c23          	sd	zero,1848(a0) # 1738 <.LBB64_5+0x34>
    129c:	00001537          	lui	a0,0x1
    12a0:	40a40533          	sub	a0,s0,a0
    12a4:	74053023          	sd	zero,1856(a0) # 1740 <.LBB64_5+0x3c>
    12a8:	00000913          	li	s2,0
    12ac:	00001537          	lui	a0,0x1
    12b0:	40a40533          	sub	a0,s0,a0
    12b4:	74053423          	sd	zero,1864(a0) # 1748 <.LBB64_5+0x44>
    12b8:	00001537          	lui	a0,0x1
    12bc:	40a40533          	sub	a0,s0,a0
    12c0:	74053823          	sd	zero,1872(a0) # 1750 <.LBB64_5+0x4c>
    12c4:	00001537          	lui	a0,0x1
    12c8:	40a40533          	sub	a0,s0,a0
    12cc:	74053c23          	sd	zero,1880(a0) # 1758 <.LBB64_5+0x54>
    12d0:	00001537          	lui	a0,0x1
    12d4:	40a40533          	sub	a0,s0,a0
    12d8:	76053023          	sd	zero,1888(a0) # 1760 <.LBB64_5+0x5c>
    12dc:	00000d13          	li	s10,0
    12e0:	00001537          	lui	a0,0x1
    12e4:	40a40533          	sub	a0,s0,a0
    12e8:	76053423          	sd	zero,1896(a0) # 1768 <.LBB64_5+0x64>
    12ec:	00001537          	lui	a0,0x1
    12f0:	40a40533          	sub	a0,s0,a0
    12f4:	76053823          	sd	zero,1904(a0) # 1770 <.LBB64_5+0x6c>
    12f8:	00001537          	lui	a0,0x1
    12fc:	40a40533          	sub	a0,s0,a0
    1300:	76053c23          	sd	zero,1912(a0) # 1778 <.LBB64_5+0x74>
    1304:	00001537          	lui	a0,0x1
    1308:	40a40533          	sub	a0,s0,a0
    130c:	78053c23          	sd	zero,1944(a0) # 1798 <.LBB64_5+0x94>
    1310:	00001537          	lui	a0,0x1
    1314:	40a40533          	sub	a0,s0,a0
    1318:	78053823          	sd	zero,1936(a0) # 1790 <.LBB64_5+0x8c>
    131c:	00001537          	lui	a0,0x1
    1320:	40a40533          	sub	a0,s0,a0
    1324:	78053423          	sd	zero,1928(a0) # 1788 <.LBB64_5+0x84>
    1328:	00001537          	lui	a0,0x1
    132c:	40a40533          	sub	a0,s0,a0
    1330:	78053023          	sd	zero,1920(a0) # 1780 <.LBB64_5+0x7c>
    1334:	00001537          	lui	a0,0x1
    1338:	40a40533          	sub	a0,s0,a0
    133c:	7a053023          	sd	zero,1952(a0) # 17a0 <.LBB64_5+0x9c>
    1340:	00001537          	lui	a0,0x1
    1344:	40a40533          	sub	a0,s0,a0
    1348:	7a053423          	sd	zero,1960(a0) # 17a8 <.LBB64_5+0xa4>
    134c:	00001537          	lui	a0,0x1
    1350:	40a40533          	sub	a0,s0,a0
    1354:	7a053823          	sd	zero,1968(a0) # 17b0 <.LBB64_5+0xac>
    1358:	00001537          	lui	a0,0x1
    135c:	40a40533          	sub	a0,s0,a0
    1360:	7a053c23          	sd	zero,1976(a0) # 17b8 <.LBB64_5+0xb4>
    1364:	00001537          	lui	a0,0x1
    1368:	40a40533          	sub	a0,s0,a0
    136c:	7c053023          	sd	zero,1984(a0) # 17c0 <.LBB64_5+0xbc>
    1370:	00001537          	lui	a0,0x1
    1374:	40a40533          	sub	a0,s0,a0
    1378:	7c053423          	sd	zero,1992(a0) # 17c8 <.LBB64_5+0xc4>
    137c:	00001537          	lui	a0,0x1
    1380:	40a40533          	sub	a0,s0,a0
    1384:	7c053823          	sd	zero,2000(a0) # 17d0 <.LBB64_5+0xcc>
    1388:	00001537          	lui	a0,0x1
    138c:	40a40533          	sub	a0,s0,a0
    1390:	7c053c23          	sd	zero,2008(a0) # 17d8 <.LBB64_5+0xd4>
    1394:	00001537          	lui	a0,0x1
    1398:	40a40533          	sub	a0,s0,a0
    139c:	7e053023          	sd	zero,2016(a0) # 17e0 <.LBB64_5+0xdc>
    13a0:	00001537          	lui	a0,0x1
    13a4:	40a40533          	sub	a0,s0,a0
    13a8:	7e053423          	sd	zero,2024(a0) # 17e8 <.LBB64_5+0xe4>
    13ac:	00001537          	lui	a0,0x1
    13b0:	40a40533          	sub	a0,s0,a0
    13b4:	7e053823          	sd	zero,2032(a0) # 17f0 <.LBB64_5+0xec>
    13b8:	00001537          	lui	a0,0x1
    13bc:	40a40533          	sub	a0,s0,a0
    13c0:	7e053c23          	sd	zero,2040(a0) # 17f8 <.LBB64_5+0xf4>
    13c4:	80043023          	sd	zero,-2048(s0)
    13c8:	80043423          	sd	zero,-2040(s0)
    13cc:	80043823          	sd	zero,-2032(s0)
    13d0:	80043c23          	sd	zero,-2024(s0)
    13d4:	82043023          	sd	zero,-2016(s0)
    13d8:	82043423          	sd	zero,-2008(s0)
    13dc:	82043823          	sd	zero,-2000(s0)
    13e0:	82043c23          	sd	zero,-1992(s0)
    13e4:	84043023          	sd	zero,-1984(s0)
    13e8:	84043423          	sd	zero,-1976(s0)
    13ec:	84043823          	sd	zero,-1968(s0)
    13f0:	84043c23          	sd	zero,-1960(s0)
    13f4:	86043023          	sd	zero,-1952(s0)
    13f8:	86043423          	sd	zero,-1944(s0)
    13fc:	86043823          	sd	zero,-1936(s0)
    1400:	86043c23          	sd	zero,-1928(s0)
    1404:	88043c23          	sd	zero,-1896(s0)
    1408:	88043823          	sd	zero,-1904(s0)
    140c:	88043423          	sd	zero,-1912(s0)
    1410:	88043023          	sd	zero,-1920(s0)
    1414:	8a043023          	sd	zero,-1888(s0)
    1418:	8a043423          	sd	zero,-1880(s0)
    141c:	8a043823          	sd	zero,-1872(s0)
    1420:	8a043c23          	sd	zero,-1864(s0)
    1424:	8c043023          	sd	zero,-1856(s0)
    1428:	8c043423          	sd	zero,-1848(s0)
    142c:	8c043823          	sd	zero,-1840(s0)
    1430:	8c043c23          	sd	zero,-1832(s0)
    1434:	8e043023          	sd	zero,-1824(s0)
    1438:	8e043423          	sd	zero,-1816(s0)
    143c:	8e043823          	sd	zero,-1808(s0)
    1440:	8e043c23          	sd	zero,-1800(s0)
    1444:	90043023          	sd	zero,-1792(s0)
    1448:	90043423          	sd	zero,-1784(s0)
    144c:	90043823          	sd	zero,-1776(s0)
    1450:	90043c23          	sd	zero,-1768(s0)
    1454:	92043023          	sd	zero,-1760(s0)
    1458:	92043423          	sd	zero,-1752(s0)
    145c:	92043823          	sd	zero,-1744(s0)
    1460:	92043c23          	sd	zero,-1736(s0)
    1464:	94043023          	sd	zero,-1728(s0)
    1468:	94043423          	sd	zero,-1720(s0)
    146c:	94043823          	sd	zero,-1712(s0)
    1470:	94043c23          	sd	zero,-1704(s0)
    1474:	96043023          	sd	zero,-1696(s0)
    1478:	96043423          	sd	zero,-1688(s0)
    147c:	96043823          	sd	zero,-1680(s0)
    1480:	96043c23          	sd	zero,-1672(s0)
    1484:	98043c23          	sd	zero,-1640(s0)
    1488:	98043823          	sd	zero,-1648(s0)
    148c:	98043423          	sd	zero,-1656(s0)
    1490:	98043023          	sd	zero,-1664(s0)
    1494:	9a043023          	sd	zero,-1632(s0)
    1498:	9a043423          	sd	zero,-1624(s0)
    149c:	9a043823          	sd	zero,-1616(s0)
    14a0:	9a043c23          	sd	zero,-1608(s0)
    14a4:	9c043023          	sd	zero,-1600(s0)
    14a8:	9c043423          	sd	zero,-1592(s0)
    14ac:	9c043823          	sd	zero,-1584(s0)
    14b0:	9c043c23          	sd	zero,-1576(s0)
    14b4:	9e043023          	sd	zero,-1568(s0)
    14b8:	9e043423          	sd	zero,-1560(s0)
    14bc:	9e043823          	sd	zero,-1552(s0)
    14c0:	9e043c23          	sd	zero,-1544(s0)
    14c4:	a0043023          	sd	zero,-1536(s0)
    14c8:	a0043423          	sd	zero,-1528(s0)
    14cc:	a0043823          	sd	zero,-1520(s0)
    14d0:	a0043c23          	sd	zero,-1512(s0)
    14d4:	a2043023          	sd	zero,-1504(s0)
    14d8:	a2043423          	sd	zero,-1496(s0)
    14dc:	a2043823          	sd	zero,-1488(s0)
    14e0:	a2043c23          	sd	zero,-1480(s0)
    14e4:	a4043023          	sd	zero,-1472(s0)
    14e8:	a4043423          	sd	zero,-1464(s0)
    14ec:	a4043823          	sd	zero,-1456(s0)
    14f0:	a4043c23          	sd	zero,-1448(s0)
    14f4:	a6043023          	sd	zero,-1440(s0)
    14f8:	a6043423          	sd	zero,-1432(s0)
    14fc:	a6043823          	sd	zero,-1424(s0)
    1500:	a6043c23          	sd	zero,-1416(s0)
    1504:	a8043c23          	sd	zero,-1384(s0)
    1508:	a8043823          	sd	zero,-1392(s0)
    150c:	a8043423          	sd	zero,-1400(s0)
    1510:	a8043023          	sd	zero,-1408(s0)
    1514:	aa043023          	sd	zero,-1376(s0)
    1518:	aa043423          	sd	zero,-1368(s0)
    151c:	aa043823          	sd	zero,-1360(s0)
    1520:	aa043c23          	sd	zero,-1352(s0)
    1524:	ac043023          	sd	zero,-1344(s0)
    1528:	ac043423          	sd	zero,-1336(s0)
    152c:	ac043823          	sd	zero,-1328(s0)
    1530:	ac043c23          	sd	zero,-1320(s0)
    1534:	ae043023          	sd	zero,-1312(s0)
    1538:	ae043423          	sd	zero,-1304(s0)
    153c:	ae043823          	sd	zero,-1296(s0)
    1540:	ae043c23          	sd	zero,-1288(s0)
    1544:	b0043023          	sd	zero,-1280(s0)
    1548:	b0043423          	sd	zero,-1272(s0)
    154c:	b0043823          	sd	zero,-1264(s0)
    1550:	b0043c23          	sd	zero,-1256(s0)
    1554:	b2043023          	sd	zero,-1248(s0)
    1558:	b2043423          	sd	zero,-1240(s0)
    155c:	b2043823          	sd	zero,-1232(s0)
    1560:	b2043c23          	sd	zero,-1224(s0)
    1564:	b4043023          	sd	zero,-1216(s0)
    1568:	b4043423          	sd	zero,-1208(s0)
    156c:	b4043823          	sd	zero,-1200(s0)
    1570:	b4043c23          	sd	zero,-1192(s0)
    1574:	b6043023          	sd	zero,-1184(s0)
    1578:	b6043423          	sd	zero,-1176(s0)
    157c:	b6043823          	sd	zero,-1168(s0)
    1580:	b6043c23          	sd	zero,-1160(s0)
    1584:	b8043c23          	sd	zero,-1128(s0)
    1588:	b8043823          	sd	zero,-1136(s0)
    158c:	b8043423          	sd	zero,-1144(s0)
    1590:	b8043023          	sd	zero,-1152(s0)
    1594:	ba043023          	sd	zero,-1120(s0)
    1598:	ba043423          	sd	zero,-1112(s0)
    159c:	ba043823          	sd	zero,-1104(s0)
    15a0:	ba043c23          	sd	zero,-1096(s0)
    15a4:	bc043023          	sd	zero,-1088(s0)
    15a8:	bc043423          	sd	zero,-1080(s0)
    15ac:	bc043823          	sd	zero,-1072(s0)
    15b0:	bc043c23          	sd	zero,-1064(s0)
    15b4:	be043023          	sd	zero,-1056(s0)
    15b8:	be043423          	sd	zero,-1048(s0)
    15bc:	be043823          	sd	zero,-1040(s0)
    15c0:	be043c23          	sd	zero,-1032(s0)
    15c4:	c0043023          	sd	zero,-1024(s0)
    15c8:	c0043423          	sd	zero,-1016(s0)
    15cc:	c0043823          	sd	zero,-1008(s0)
    15d0:	c0043c23          	sd	zero,-1000(s0)
    15d4:	c2043023          	sd	zero,-992(s0)
    15d8:	c2043423          	sd	zero,-984(s0)
    15dc:	c2043823          	sd	zero,-976(s0)
    15e0:	c2043c23          	sd	zero,-968(s0)
    15e4:	c4043023          	sd	zero,-960(s0)
    15e8:	c4043423          	sd	zero,-952(s0)
    15ec:	c4043823          	sd	zero,-944(s0)
    15f0:	c4043c23          	sd	zero,-936(s0)
    15f4:	c6043023          	sd	zero,-928(s0)
    15f8:	c6043423          	sd	zero,-920(s0)
    15fc:	c6043823          	sd	zero,-912(s0)
    1600:	c6043c23          	sd	zero,-904(s0)
    1604:	c8043c23          	sd	zero,-872(s0)
    1608:	c8043823          	sd	zero,-880(s0)
    160c:	c8043423          	sd	zero,-888(s0)
    1610:	c8043023          	sd	zero,-896(s0)
    1614:	ca043023          	sd	zero,-864(s0)
    1618:	ca043423          	sd	zero,-856(s0)
    161c:	ca043823          	sd	zero,-848(s0)
    1620:	ca043c23          	sd	zero,-840(s0)
    1624:	cc043023          	sd	zero,-832(s0)
    1628:	cc043423          	sd	zero,-824(s0)
    162c:	cc043823          	sd	zero,-816(s0)
    1630:	cc043c23          	sd	zero,-808(s0)
    1634:	ce043023          	sd	zero,-800(s0)
    1638:	ce043423          	sd	zero,-792(s0)
    163c:	ce043823          	sd	zero,-784(s0)
    1640:	ce043c23          	sd	zero,-776(s0)
    1644:	d0043023          	sd	zero,-768(s0)
    1648:	d0043423          	sd	zero,-760(s0)
    164c:	d0043823          	sd	zero,-752(s0)
    1650:	d0043c23          	sd	zero,-744(s0)
    1654:	d2043023          	sd	zero,-736(s0)
    1658:	d2043423          	sd	zero,-728(s0)
    165c:	d2043823          	sd	zero,-720(s0)
    1660:	d2043c23          	sd	zero,-712(s0)
    1664:	d4043023          	sd	zero,-704(s0)
    1668:	d4043423          	sd	zero,-696(s0)
    166c:	d4043823          	sd	zero,-688(s0)
    1670:	d4043c23          	sd	zero,-680(s0)
    1674:	d6043023          	sd	zero,-672(s0)
    1678:	d6043423          	sd	zero,-664(s0)
    167c:	d6043823          	sd	zero,-656(s0)
    1680:	d6043c23          	sd	zero,-648(s0)
    1684:	d8043c23          	sd	zero,-616(s0)
    1688:	d8043823          	sd	zero,-624(s0)
    168c:	d8043423          	sd	zero,-632(s0)
    1690:	d8043023          	sd	zero,-640(s0)
    1694:	da043023          	sd	zero,-608(s0)
    1698:	da043423          	sd	zero,-600(s0)
    169c:	da043823          	sd	zero,-592(s0)
    16a0:	00000093          	li	ra,0
    16a4:	00000c93          	li	s9,0
    16a8:	00000b93          	li	s7,0
    16ac:	da043c23          	sd	zero,-584(s0)
    16b0:	00000b13          	li	s6,0
    16b4:	00000993          	li	s3,0
    16b8:	00000713          	li	a4,0
    16bc:	00000693          	li	a3,0
    16c0:	00000613          	li	a2,0
    16c4:	dc043023          	sd	zero,-576(s0)
    16c8:	00000f13          	li	t5,0
    16cc:	00000e93          	li	t4,0
    16d0:	00000c13          	li	s8,0
    16d4:	00000e13          	li	t3,0
    16d8:	00000313          	li	t1,0
    16dc:	00000293          	li	t0,0
    16e0:	00000593          	li	a1,0
    16e4:	00000513          	li	a0,0
    16e8:	00000893          	li	a7,0
    16ec:	00000813          	li	a6,0
    16f0:	00000793          	li	a5,0
    16f4:	e0043823          	sd	zero,-496(s0)
    16f8:	e0043c23          	sd	zero,-488(s0)
    16fc:	e2043023          	sd	zero,-480(s0)
    1700:	e2043423          	sd	zero,-472(s0)

0000000000001704 <.LBB64_5>:
    1704:	f9443423          	sd	s4,-120(s0)
    1708:	f8943023          	sd	s1,-128(s0)
    170c:	000013b7          	lui	t2,0x1
    1710:	407403b3          	sub	t2,s0,t2
    1714:	67f3bc23          	sd	t6,1656(t2) # 1678 <.LBB64_4+0x510>
    1718:	ec143423          	sd	ra,-312(s0)
    171c:	ed943823          	sd	s9,-304(s0)
    1720:	ed743c23          	sd	s7,-296(s0)
    1724:	ef643023          	sd	s6,-288(s0)
    1728:	ef343423          	sd	s3,-280(s0)
    172c:	eee43823          	sd	a4,-272(s0)
    1730:	eed43c23          	sd	a3,-264(s0)
    1734:	f0c43023          	sd	a2,-256(s0)
    1738:	dde43423          	sd	t5,-568(s0)
    173c:	ddd43823          	sd	t4,-560(s0)
    1740:	dd843c23          	sd	s8,-552(s0)
    1744:	dfc43023          	sd	t3,-544(s0)
    1748:	de643423          	sd	t1,-536(s0)
    174c:	de543823          	sd	t0,-528(s0)
    1750:	f0b43423          	sd	a1,-248(s0)
    1754:	f0a43823          	sd	a0,-240(s0)
    1758:	df143c23          	sd	a7,-520(s0)
    175c:	e1043023          	sd	a6,-512(s0)
    1760:	e0f43423          	sd	a5,-504(s0)
    1764:	e4048503          	lb	a0,-448(s1)
    1768:	002a0603          	lb	a2,2(s4)
    176c:	e4c43c23          	sd	a2,-424(s0)
    1770:	001a0683          	lb	a3,1(s4)
    1774:	f2d43c23          	sd	a3,-200(s0)
    1778:	000a0703          	lb	a4,0(s4)
    177c:	f0e43c23          	sd	a4,-232(s0)
    1780:	003a0783          	lb	a5,3(s4)
    1784:	f2f43823          	sd	a5,-208(s0)
    1788:	004a0803          	lb	a6,4(s4)
    178c:	f3043423          	sd	a6,-216(s0)
    1790:	005a0983          	lb	s3,5(s4)
    1794:	f3343023          	sd	s3,-224(s0)
    1798:	006a0c83          	lb	s9,6(s4)
    179c:	000d0a93          	mv	s5,s10
    17a0:	007a0c03          	lb	s8,7(s4)
    17a4:	008a0883          	lb	a7,8(s4)
    17a8:	e9143423          	sd	a7,-376(s0)
    17ac:	009a0283          	lb	t0,9(s4)
    17b0:	00aa0303          	lb	t1,10(s4)
    17b4:	e4643423          	sd	t1,-440(s0)
    17b8:	00ba0383          	lb	t2,11(s4)
    17bc:	f6743423          	sd	t2,-152(s0)
    17c0:	00ca0d83          	lb	s11,12(s4)
    17c4:	00da0e03          	lb	t3,13(s4)
    17c8:	f5c43023          	sd	t3,-192(s0)
    17cc:	00ea0f03          	lb	t5,14(s4)
    17d0:	ebe43c23          	sd	t5,-328(s0)
    17d4:	f8843583          	ld	a1,-120(s0)
    17d8:	00f58e83          	lb	t4,15(a1)
    17dc:	e9d43823          	sd	t4,-368(s0)
    17e0:	f8843583          	ld	a1,-120(s0)
    17e4:	01058f83          	lb	t6,16(a1)
    17e8:	e5f43823          	sd	t6,-432(s0)
    17ec:	f8843583          	ld	a1,-120(s0)
    17f0:	01158483          	lb	s1,17(a1)
    17f4:	f6943823          	sd	s1,-144(s0)
    17f8:	f8843583          	ld	a1,-120(s0)
    17fc:	01258583          	lb	a1,18(a1)
    1800:	e8b43023          	sd	a1,-384(s0)
    1804:	f8843583          	ld	a1,-120(s0)
    1808:	01358583          	lb	a1,19(a1)
    180c:	e6b43823          	sd	a1,-400(s0)
    1810:	f8843583          	ld	a1,-120(s0)
    1814:	01458083          	lb	ra,20(a1)
    1818:	f8843583          	ld	a1,-120(s0)
    181c:	01558a03          	lb	s4,21(a1)
    1820:	f7443c23          	sd	s4,-136(s0)
    1824:	f8843583          	ld	a1,-120(s0)
    1828:	01658b83          	lb	s7,22(a1)
    182c:	f8843583          	ld	a1,-120(s0)
    1830:	01758b03          	lb	s6,23(a1)
    1834:	f8843583          	ld	a1,-120(s0)
    1838:	01858d03          	lb	s10,24(a1)
    183c:	02c505b3          	mul	a1,a0,a2
    1840:	00001637          	lui	a2,0x1
    1844:	40c40633          	sub	a2,s0,a2
    1848:	6b863603          	ld	a2,1720(a2) # 16b8 <.LBB64_4+0x550>
    184c:	00c58633          	add	a2,a1,a2
    1850:	000015b7          	lui	a1,0x1
    1854:	40b405b3          	sub	a1,s0,a1
    1858:	6ac5bc23          	sd	a2,1720(a1) # 16b8 <.LBB64_4+0x550>
    185c:	02d505b3          	mul	a1,a0,a3
    1860:	00001637          	lui	a2,0x1
    1864:	40c40633          	sub	a2,s0,a2
    1868:	6c063603          	ld	a2,1728(a2) # 16c0 <.LBB64_4+0x558>
    186c:	00c58633          	add	a2,a1,a2
    1870:	000015b7          	lui	a1,0x1
    1874:	40b405b3          	sub	a1,s0,a1
    1878:	6cc5b023          	sd	a2,1728(a1) # 16c0 <.LBB64_4+0x558>
    187c:	02e505b3          	mul	a1,a0,a4
    1880:	00001637          	lui	a2,0x1
    1884:	40c40633          	sub	a2,s0,a2
    1888:	6c863603          	ld	a2,1736(a2) # 16c8 <.LBB64_4+0x560>
    188c:	00c58633          	add	a2,a1,a2
    1890:	000015b7          	lui	a1,0x1
    1894:	40b405b3          	sub	a1,s0,a1
    1898:	6cc5b423          	sd	a2,1736(a1) # 16c8 <.LBB64_4+0x560>
    189c:	02f505b3          	mul	a1,a0,a5
    18a0:	00001637          	lui	a2,0x1
    18a4:	40c40633          	sub	a2,s0,a2
    18a8:	6d063603          	ld	a2,1744(a2) # 16d0 <.LBB64_4+0x568>
    18ac:	00c58633          	add	a2,a1,a2
    18b0:	000015b7          	lui	a1,0x1
    18b4:	40b405b3          	sub	a1,s0,a1
    18b8:	6cc5b823          	sd	a2,1744(a1) # 16d0 <.LBB64_4+0x568>
    18bc:	030505b3          	mul	a1,a0,a6
    18c0:	00001637          	lui	a2,0x1
    18c4:	40c40633          	sub	a2,s0,a2
    18c8:	6b063603          	ld	a2,1712(a2) # 16b0 <.LBB64_4+0x548>
    18cc:	00c58633          	add	a2,a1,a2
    18d0:	000015b7          	lui	a1,0x1
    18d4:	40b405b3          	sub	a1,s0,a1
    18d8:	6ac5b823          	sd	a2,1712(a1) # 16b0 <.LBB64_4+0x548>
    18dc:	033505b3          	mul	a1,a0,s3
    18e0:	00001637          	lui	a2,0x1
    18e4:	40c40633          	sub	a2,s0,a2
    18e8:	6a863603          	ld	a2,1704(a2) # 16a8 <.LBB64_4+0x540>
    18ec:	00c58633          	add	a2,a1,a2
    18f0:	000015b7          	lui	a1,0x1
    18f4:	40b405b3          	sub	a1,s0,a1
    18f8:	6ac5b423          	sd	a2,1704(a1) # 16a8 <.LBB64_4+0x540>
    18fc:	039505b3          	mul	a1,a0,s9
    1900:	000c8713          	mv	a4,s9
    1904:	eb943423          	sd	s9,-344(s0)
    1908:	00001637          	lui	a2,0x1
    190c:	40c40633          	sub	a2,s0,a2
    1910:	6a063603          	ld	a2,1696(a2) # 16a0 <.LBB64_4+0x538>
    1914:	00c58633          	add	a2,a1,a2
    1918:	000015b7          	lui	a1,0x1
    191c:	40b405b3          	sub	a1,s0,a1
    1920:	6ac5b023          	sd	a2,1696(a1) # 16a0 <.LBB64_4+0x538>
    1924:	038505b3          	mul	a1,a0,s8
    1928:	000c0793          	mv	a5,s8
    192c:	e7843023          	sd	s8,-416(s0)
    1930:	00001637          	lui	a2,0x1
    1934:	40c40633          	sub	a2,s0,a2
    1938:	69863603          	ld	a2,1688(a2) # 1698 <.LBB64_4+0x530>
    193c:	00c58633          	add	a2,a1,a2
    1940:	000015b7          	lui	a1,0x1
    1944:	40b405b3          	sub	a1,s0,a1
    1948:	68c5bc23          	sd	a2,1688(a1) # 1698 <.LBB64_4+0x530>
    194c:	031505b3          	mul	a1,a0,a7
    1950:	00001637          	lui	a2,0x1
    1954:	40c40633          	sub	a2,s0,a2
    1958:	69063603          	ld	a2,1680(a2) # 1690 <.LBB64_4+0x528>
    195c:	00c58633          	add	a2,a1,a2
    1960:	000015b7          	lui	a1,0x1
    1964:	40b405b3          	sub	a1,s0,a1
    1968:	68c5b823          	sd	a2,1680(a1) # 1690 <.LBB64_4+0x528>
    196c:	025505b3          	mul	a1,a0,t0
    1970:	00028893          	mv	a7,t0
    1974:	00001637          	lui	a2,0x1
    1978:	40c40633          	sub	a2,s0,a2
    197c:	6d863603          	ld	a2,1752(a2) # 16d8 <.LBB64_4+0x570>
    1980:	00c58633          	add	a2,a1,a2
    1984:	000015b7          	lui	a1,0x1
    1988:	40b405b3          	sub	a1,s0,a1
    198c:	6cc5bc23          	sd	a2,1752(a1) # 16d8 <.LBB64_4+0x570>
    1990:	026505b3          	mul	a1,a0,t1
    1994:	00001637          	lui	a2,0x1
    1998:	40c40633          	sub	a2,s0,a2
    199c:	6e063603          	ld	a2,1760(a2) # 16e0 <.LBB64_4+0x578>
    19a0:	00c58633          	add	a2,a1,a2
    19a4:	000015b7          	lui	a1,0x1
    19a8:	40b405b3          	sub	a1,s0,a1
    19ac:	6ec5b023          	sd	a2,1760(a1) # 16e0 <.LBB64_4+0x578>
    19b0:	027505b3          	mul	a1,a0,t2
    19b4:	00001637          	lui	a2,0x1
    19b8:	40c40633          	sub	a2,s0,a2
    19bc:	6e863603          	ld	a2,1768(a2) # 16e8 <.LBB64_4+0x580>
    19c0:	00c58633          	add	a2,a1,a2
    19c4:	000015b7          	lui	a1,0x1
    19c8:	40b405b3          	sub	a1,s0,a1
    19cc:	6ec5b423          	sd	a2,1768(a1) # 16e8 <.LBB64_4+0x580>
    19d0:	000d8693          	mv	a3,s11
    19d4:	f7b43023          	sd	s11,-160(s0)
    19d8:	03b505b3          	mul	a1,a0,s11
    19dc:	00001637          	lui	a2,0x1
    19e0:	40c40633          	sub	a2,s0,a2
    19e4:	6f063603          	ld	a2,1776(a2) # 16f0 <.LBB64_4+0x588>
    19e8:	00c58633          	add	a2,a1,a2
    19ec:	000015b7          	lui	a1,0x1
    19f0:	40b405b3          	sub	a1,s0,a1
    19f4:	6ec5b823          	sd	a2,1776(a1) # 16f0 <.LBB64_4+0x588>
    19f8:	03c505b3          	mul	a1,a0,t3
    19fc:	00001637          	lui	a2,0x1
    1a00:	40c40633          	sub	a2,s0,a2
    1a04:	6f863603          	ld	a2,1784(a2) # 16f8 <.LBB64_4+0x590>
    1a08:	00c58633          	add	a2,a1,a2
    1a0c:	000015b7          	lui	a1,0x1
    1a10:	40b405b3          	sub	a1,s0,a1
    1a14:	6ec5bc23          	sd	a2,1784(a1) # 16f8 <.LBB64_4+0x590>
    1a18:	03e505b3          	mul	a1,a0,t5
    1a1c:	00001637          	lui	a2,0x1
    1a20:	40c40633          	sub	a2,s0,a2
    1a24:	70063603          	ld	a2,1792(a2) # 1700 <.LBB64_4+0x598>
    1a28:	00c58633          	add	a2,a1,a2
    1a2c:	000015b7          	lui	a1,0x1
    1a30:	40b405b3          	sub	a1,s0,a1
    1a34:	70c5b023          	sd	a2,1792(a1) # 1700 <.LBB64_4+0x598>
    1a38:	03d505b3          	mul	a1,a0,t4
    1a3c:	00001637          	lui	a2,0x1
    1a40:	40c40633          	sub	a2,s0,a2
    1a44:	70863603          	ld	a2,1800(a2) # 1708 <.LBB64_5+0x4>
    1a48:	00c58633          	add	a2,a1,a2
    1a4c:	000015b7          	lui	a1,0x1
    1a50:	40b405b3          	sub	a1,s0,a1
    1a54:	70c5b423          	sd	a2,1800(a1) # 1708 <.LBB64_5+0x4>
    1a58:	03f505b3          	mul	a1,a0,t6
    1a5c:	00001637          	lui	a2,0x1
    1a60:	40c40633          	sub	a2,s0,a2
    1a64:	71063603          	ld	a2,1808(a2) # 1710 <.LBB64_5+0xc>
    1a68:	00c58633          	add	a2,a1,a2
    1a6c:	000015b7          	lui	a1,0x1
    1a70:	40b405b3          	sub	a1,s0,a1
    1a74:	70c5b823          	sd	a2,1808(a1) # 1710 <.LBB64_5+0xc>
    1a78:	029505b3          	mul	a1,a0,s1
    1a7c:	00001637          	lui	a2,0x1
    1a80:	40c40633          	sub	a2,s0,a2
    1a84:	71863603          	ld	a2,1816(a2) # 1718 <.LBB64_5+0x14>
    1a88:	00c58633          	add	a2,a1,a2
    1a8c:	000015b7          	lui	a1,0x1
    1a90:	40b405b3          	sub	a1,s0,a1
    1a94:	70c5bc23          	sd	a2,1816(a1) # 1718 <.LBB64_5+0x14>
    1a98:	e8043f03          	ld	t5,-384(s0)
    1a9c:	03e505b3          	mul	a1,a0,t5
    1aa0:	00001637          	lui	a2,0x1
    1aa4:	40c40633          	sub	a2,s0,a2
    1aa8:	72063603          	ld	a2,1824(a2) # 1720 <.LBB64_5+0x1c>
    1aac:	00c58633          	add	a2,a1,a2
    1ab0:	000015b7          	lui	a1,0x1
    1ab4:	40b405b3          	sub	a1,s0,a1
    1ab8:	72c5b023          	sd	a2,1824(a1) # 1720 <.LBB64_5+0x1c>
    1abc:	e7043383          	ld	t2,-400(s0)
    1ac0:	027505b3          	mul	a1,a0,t2
    1ac4:	00001637          	lui	a2,0x1
    1ac8:	40c40633          	sub	a2,s0,a2
    1acc:	72863603          	ld	a2,1832(a2) # 1728 <.LBB64_5+0x24>
    1ad0:	00c58633          	add	a2,a1,a2
    1ad4:	000015b7          	lui	a1,0x1
    1ad8:	40b405b3          	sub	a1,s0,a1
    1adc:	72c5b423          	sd	a2,1832(a1) # 1728 <.LBB64_5+0x24>
    1ae0:	021505b3          	mul	a1,a0,ra
    1ae4:	00001637          	lui	a2,0x1
    1ae8:	40c40633          	sub	a2,s0,a2
    1aec:	73063603          	ld	a2,1840(a2) # 1730 <.LBB64_5+0x2c>
    1af0:	00c58633          	add	a2,a1,a2
    1af4:	000015b7          	lui	a1,0x1
    1af8:	40b405b3          	sub	a1,s0,a1
    1afc:	72c5b823          	sd	a2,1840(a1) # 1730 <.LBB64_5+0x2c>
    1b00:	034505b3          	mul	a1,a0,s4
    1b04:	00001637          	lui	a2,0x1
    1b08:	40c40633          	sub	a2,s0,a2
    1b0c:	73863603          	ld	a2,1848(a2) # 1738 <.LBB64_5+0x34>
    1b10:	00c58633          	add	a2,a1,a2
    1b14:	000015b7          	lui	a1,0x1
    1b18:	40b405b3          	sub	a1,s0,a1
    1b1c:	72c5bc23          	sd	a2,1848(a1) # 1738 <.LBB64_5+0x34>
    1b20:	037505b3          	mul	a1,a0,s7
    1b24:	000b8493          	mv	s1,s7
    1b28:	00001637          	lui	a2,0x1
    1b2c:	40c40633          	sub	a2,s0,a2
    1b30:	74063603          	ld	a2,1856(a2) # 1740 <.LBB64_5+0x3c>
    1b34:	00c58633          	add	a2,a1,a2
    1b38:	000015b7          	lui	a1,0x1
    1b3c:	40b405b3          	sub	a1,s0,a1
    1b40:	74c5b023          	sd	a2,1856(a1) # 1740 <.LBB64_5+0x3c>
    1b44:	036505b3          	mul	a1,a0,s6
    1b48:	000b0c93          	mv	s9,s6
    1b4c:	e3643c23          	sd	s6,-456(s0)
    1b50:	01258933          	add	s2,a1,s2
    1b54:	000015b7          	lui	a1,0x1
    1b58:	40b405b3          	sub	a1,s0,a1
    1b5c:	6925b023          	sd	s2,1664(a1) # 1680 <.LBB64_4+0x518>
    1b60:	f8843583          	ld	a1,-120(s0)
    1b64:	01958283          	lb	t0,25(a1)
    1b68:	f4543823          	sd	t0,-176(s0)
    1b6c:	03a505b3          	mul	a1,a0,s10
    1b70:	00001637          	lui	a2,0x1
    1b74:	40c40633          	sub	a2,s0,a2
    1b78:	74863603          	ld	a2,1864(a2) # 1748 <.LBB64_5+0x44>
    1b7c:	00c58633          	add	a2,a1,a2
    1b80:	000015b7          	lui	a1,0x1
    1b84:	40b405b3          	sub	a1,s0,a1
    1b88:	74c5b423          	sd	a2,1864(a1) # 1748 <.LBB64_5+0x44>
    1b8c:	f8843583          	ld	a1,-120(s0)
    1b90:	01a58803          	lb	a6,26(a1)
    1b94:	ed043023          	sd	a6,-320(s0)
    1b98:	025505b3          	mul	a1,a0,t0
    1b9c:	00001637          	lui	a2,0x1
    1ba0:	40c40633          	sub	a2,s0,a2
    1ba4:	75063603          	ld	a2,1872(a2) # 1750 <.LBB64_5+0x4c>
    1ba8:	00c58633          	add	a2,a1,a2
    1bac:	000015b7          	lui	a1,0x1
    1bb0:	40b405b3          	sub	a1,s0,a1
    1bb4:	74c5b823          	sd	a2,1872(a1) # 1750 <.LBB64_5+0x4c>
    1bb8:	f8843583          	ld	a1,-120(s0)
    1bbc:	01b58303          	lb	t1,27(a1)
    1bc0:	030505b3          	mul	a1,a0,a6
    1bc4:	00001637          	lui	a2,0x1
    1bc8:	40c40633          	sub	a2,s0,a2
    1bcc:	75863603          	ld	a2,1880(a2) # 1758 <.LBB64_5+0x54>
    1bd0:	00c58633          	add	a2,a1,a2
    1bd4:	000015b7          	lui	a1,0x1
    1bd8:	40b405b3          	sub	a1,s0,a1
    1bdc:	74c5bc23          	sd	a2,1880(a1) # 1758 <.LBB64_5+0x54>
    1be0:	f8843583          	ld	a1,-120(s0)
    1be4:	01c58803          	lb	a6,28(a1)
    1be8:	f5043c23          	sd	a6,-168(s0)
    1bec:	026505b3          	mul	a1,a0,t1
    1bf0:	00030913          	mv	s2,t1
    1bf4:	e2643823          	sd	t1,-464(s0)
    1bf8:	00001637          	lui	a2,0x1
    1bfc:	40c40633          	sub	a2,s0,a2
    1c00:	76063603          	ld	a2,1888(a2) # 1760 <.LBB64_5+0x5c>
    1c04:	00c58633          	add	a2,a1,a2
    1c08:	000015b7          	lui	a1,0x1
    1c0c:	40b405b3          	sub	a1,s0,a1
    1c10:	76c5b023          	sd	a2,1888(a1) # 1760 <.LBB64_5+0x5c>
    1c14:	f8843583          	ld	a1,-120(s0)
    1c18:	01d58e83          	lb	t4,29(a1)
    1c1c:	030505b3          	mul	a1,a0,a6
    1c20:	01558ab3          	add	s5,a1,s5
    1c24:	000015b7          	lui	a1,0x1
    1c28:	40b405b3          	sub	a1,s0,a1
    1c2c:	6955b423          	sd	s5,1672(a1) # 1688 <.LBB64_4+0x520>
    1c30:	f8843583          	ld	a1,-120(s0)
    1c34:	01e58803          	lb	a6,30(a1)
    1c38:	f5043423          	sd	a6,-184(s0)
    1c3c:	03d505b3          	mul	a1,a0,t4
    1c40:	00001637          	lui	a2,0x1
    1c44:	40c40633          	sub	a2,s0,a2
    1c48:	76863603          	ld	a2,1896(a2) # 1768 <.LBB64_5+0x64>
    1c4c:	00c58633          	add	a2,a1,a2
    1c50:	000015b7          	lui	a1,0x1
    1c54:	40b405b3          	sub	a1,s0,a1
    1c58:	76c5b423          	sd	a2,1896(a1) # 1768 <.LBB64_5+0x64>
    1c5c:	f8843583          	ld	a1,-120(s0)
    1c60:	01f58583          	lb	a1,31(a1)
    1c64:	e6b43c23          	sd	a1,-392(s0)
    1c68:	f8043603          	ld	a2,-128(s0)
    1c6c:	e8060983          	lb	s3,-384(a2)
    1c70:	03050c33          	mul	s8,a0,a6
    1c74:	00001637          	lui	a2,0x1
    1c78:	40c40633          	sub	a2,s0,a2
    1c7c:	77063603          	ld	a2,1904(a2) # 1770 <.LBB64_5+0x6c>
    1c80:	00cc0633          	add	a2,s8,a2
    1c84:	00001837          	lui	a6,0x1
    1c88:	41040833          	sub	a6,s0,a6
    1c8c:	76c83823          	sd	a2,1904(a6) # 1770 <.LBB64_5+0x6c>
    1c90:	02b50533          	mul	a0,a0,a1
    1c94:	000015b7          	lui	a1,0x1
    1c98:	40b405b3          	sub	a1,s0,a1
    1c9c:	7785b603          	ld	a2,1912(a1) # 1778 <.LBB64_5+0x74>
    1ca0:	00c50633          	add	a2,a0,a2
    1ca4:	00001537          	lui	a0,0x1
    1ca8:	40a40533          	sub	a0,s0,a0
    1cac:	76c53c23          	sd	a2,1912(a0) # 1778 <.LBB64_5+0x74>
    1cb0:	f1843a03          	ld	s4,-232(s0)
    1cb4:	03498533          	mul	a0,s3,s4
    1cb8:	000015b7          	lui	a1,0x1
    1cbc:	40b405b3          	sub	a1,s0,a1
    1cc0:	7985b603          	ld	a2,1944(a1) # 1798 <.LBB64_5+0x94>
    1cc4:	00c50633          	add	a2,a0,a2
    1cc8:	00001537          	lui	a0,0x1
    1ccc:	40a40533          	sub	a0,s0,a0
    1cd0:	78c53c23          	sd	a2,1944(a0) # 1798 <.LBB64_5+0x94>
    1cd4:	f3843a83          	ld	s5,-200(s0)
    1cd8:	03598533          	mul	a0,s3,s5
    1cdc:	000015b7          	lui	a1,0x1
    1ce0:	40b405b3          	sub	a1,s0,a1
    1ce4:	7905b603          	ld	a2,1936(a1) # 1790 <.LBB64_5+0x8c>
    1ce8:	00c50633          	add	a2,a0,a2
    1cec:	00001537          	lui	a0,0x1
    1cf0:	40a40533          	sub	a0,s0,a0
    1cf4:	78c53823          	sd	a2,1936(a0) # 1790 <.LBB64_5+0x8c>
    1cf8:	e5843283          	ld	t0,-424(s0)
    1cfc:	02598533          	mul	a0,s3,t0
    1d00:	000015b7          	lui	a1,0x1
    1d04:	40b405b3          	sub	a1,s0,a1
    1d08:	7885b603          	ld	a2,1928(a1) # 1788 <.LBB64_5+0x84>
    1d0c:	00c50633          	add	a2,a0,a2
    1d10:	00001537          	lui	a0,0x1
    1d14:	40a40533          	sub	a0,s0,a0
    1d18:	78c53423          	sd	a2,1928(a0) # 1788 <.LBB64_5+0x84>
    1d1c:	f3043803          	ld	a6,-208(s0)
    1d20:	03098533          	mul	a0,s3,a6
    1d24:	000015b7          	lui	a1,0x1
    1d28:	40b405b3          	sub	a1,s0,a1
    1d2c:	7805b603          	ld	a2,1920(a1) # 1780 <.LBB64_5+0x7c>
    1d30:	00c50633          	add	a2,a0,a2
    1d34:	00001537          	lui	a0,0x1
    1d38:	40a40533          	sub	a0,s0,a0
    1d3c:	78c53023          	sd	a2,1920(a0) # 1780 <.LBB64_5+0x7c>
    1d40:	f2843303          	ld	t1,-216(s0)
    1d44:	02698533          	mul	a0,s3,t1
    1d48:	000015b7          	lui	a1,0x1
    1d4c:	40b405b3          	sub	a1,s0,a1
    1d50:	7a05b603          	ld	a2,1952(a1) # 17a0 <.LBB64_5+0x9c>
    1d54:	00c50633          	add	a2,a0,a2
    1d58:	00001537          	lui	a0,0x1
    1d5c:	40a40533          	sub	a0,s0,a0
    1d60:	7ac53023          	sd	a2,1952(a0) # 17a0 <.LBB64_5+0x9c>
    1d64:	f2043e03          	ld	t3,-224(s0)
    1d68:	03c98533          	mul	a0,s3,t3
    1d6c:	000015b7          	lui	a1,0x1
    1d70:	40b405b3          	sub	a1,s0,a1
    1d74:	7a85b603          	ld	a2,1960(a1) # 17a8 <.LBB64_5+0xa4>
    1d78:	00c50633          	add	a2,a0,a2
    1d7c:	00001537          	lui	a0,0x1
    1d80:	40a40533          	sub	a0,s0,a0
    1d84:	7ac53423          	sd	a2,1960(a0) # 17a8 <.LBB64_5+0xa4>
    1d88:	02e98533          	mul	a0,s3,a4
    1d8c:	000015b7          	lui	a1,0x1
    1d90:	40b405b3          	sub	a1,s0,a1
    1d94:	7b05b603          	ld	a2,1968(a1) # 17b0 <.LBB64_5+0xac>
    1d98:	00c50633          	add	a2,a0,a2
    1d9c:	00001537          	lui	a0,0x1
    1da0:	40a40533          	sub	a0,s0,a0
    1da4:	7ac53823          	sd	a2,1968(a0) # 17b0 <.LBB64_5+0xac>
    1da8:	02f98533          	mul	a0,s3,a5
    1dac:	000015b7          	lui	a1,0x1
    1db0:	40b405b3          	sub	a1,s0,a1
    1db4:	7b85b603          	ld	a2,1976(a1) # 17b8 <.LBB64_5+0xb4>
    1db8:	00c50633          	add	a2,a0,a2
    1dbc:	00001537          	lui	a0,0x1
    1dc0:	40a40533          	sub	a0,s0,a0
    1dc4:	7ac53c23          	sd	a2,1976(a0) # 17b8 <.LBB64_5+0xb4>
    1dc8:	e8843d83          	ld	s11,-376(s0)
    1dcc:	03b98533          	mul	a0,s3,s11
    1dd0:	000015b7          	lui	a1,0x1
    1dd4:	40b405b3          	sub	a1,s0,a1
    1dd8:	7c05b603          	ld	a2,1984(a1) # 17c0 <.LBB64_5+0xbc>
    1ddc:	00c50633          	add	a2,a0,a2
    1de0:	00001537          	lui	a0,0x1
    1de4:	40a40533          	sub	a0,s0,a0
    1de8:	7cc53023          	sd	a2,1984(a0) # 17c0 <.LBB64_5+0xbc>
    1dec:	00088b93          	mv	s7,a7
    1df0:	eb143823          	sd	a7,-336(s0)
    1df4:	03198533          	mul	a0,s3,a7
    1df8:	000015b7          	lui	a1,0x1
    1dfc:	40b405b3          	sub	a1,s0,a1
    1e00:	7c85b603          	ld	a2,1992(a1) # 17c8 <.LBB64_5+0xc4>
    1e04:	00c50633          	add	a2,a0,a2
    1e08:	00001537          	lui	a0,0x1
    1e0c:	40a40533          	sub	a0,s0,a0
    1e10:	7cc53423          	sd	a2,1992(a0) # 17c8 <.LBB64_5+0xc4>
    1e14:	e4843b03          	ld	s6,-440(s0)
    1e18:	03698533          	mul	a0,s3,s6
    1e1c:	000015b7          	lui	a1,0x1
    1e20:	40b405b3          	sub	a1,s0,a1
    1e24:	7d05b603          	ld	a2,2000(a1) # 17d0 <.LBB64_5+0xcc>
    1e28:	00c50633          	add	a2,a0,a2
    1e2c:	00001537          	lui	a0,0x1
    1e30:	40a40533          	sub	a0,s0,a0
    1e34:	7cc53823          	sd	a2,2000(a0) # 17d0 <.LBB64_5+0xcc>
    1e38:	f6843883          	ld	a7,-152(s0)
    1e3c:	03198533          	mul	a0,s3,a7
    1e40:	000015b7          	lui	a1,0x1
    1e44:	40b405b3          	sub	a1,s0,a1
    1e48:	7d85b603          	ld	a2,2008(a1) # 17d8 <.LBB64_5+0xd4>
    1e4c:	00c50633          	add	a2,a0,a2
    1e50:	00001537          	lui	a0,0x1
    1e54:	40a40533          	sub	a0,s0,a0
    1e58:	7cc53c23          	sd	a2,2008(a0) # 17d8 <.LBB64_5+0xd4>
    1e5c:	02d98533          	mul	a0,s3,a3
    1e60:	000015b7          	lui	a1,0x1
    1e64:	40b405b3          	sub	a1,s0,a1
    1e68:	7e05b603          	ld	a2,2016(a1) # 17e0 <.LBB64_5+0xdc>
    1e6c:	00c50633          	add	a2,a0,a2
    1e70:	00001537          	lui	a0,0x1
    1e74:	40a40533          	sub	a0,s0,a0
    1e78:	7ec53023          	sd	a2,2016(a0) # 17e0 <.LBB64_5+0xdc>
    1e7c:	f4043f83          	ld	t6,-192(s0)
    1e80:	03f98533          	mul	a0,s3,t6
    1e84:	000015b7          	lui	a1,0x1
    1e88:	40b405b3          	sub	a1,s0,a1
    1e8c:	7e85b603          	ld	a2,2024(a1) # 17e8 <.LBB64_5+0xe4>
    1e90:	00c50633          	add	a2,a0,a2
    1e94:	00001537          	lui	a0,0x1
    1e98:	40a40533          	sub	a0,s0,a0
    1e9c:	7ec53423          	sd	a2,2024(a0) # 17e8 <.LBB64_5+0xe4>
    1ea0:	eb843783          	ld	a5,-328(s0)
    1ea4:	02f98533          	mul	a0,s3,a5
    1ea8:	000015b7          	lui	a1,0x1
    1eac:	40b405b3          	sub	a1,s0,a1
    1eb0:	7f05b603          	ld	a2,2032(a1) # 17f0 <.LBB64_5+0xec>
    1eb4:	00c50633          	add	a2,a0,a2
    1eb8:	00001537          	lui	a0,0x1
    1ebc:	40a40533          	sub	a0,s0,a0
    1ec0:	7ec53823          	sd	a2,2032(a0) # 17f0 <.LBB64_5+0xec>
    1ec4:	e9043703          	ld	a4,-368(s0)
    1ec8:	02e98533          	mul	a0,s3,a4
    1ecc:	000015b7          	lui	a1,0x1
    1ed0:	40b405b3          	sub	a1,s0,a1
    1ed4:	7f85b603          	ld	a2,2040(a1) # 17f8 <.LBB64_5+0xf4>
    1ed8:	00c50633          	add	a2,a0,a2
    1edc:	00001537          	lui	a0,0x1
    1ee0:	40a40533          	sub	a0,s0,a0
    1ee4:	7ec53c23          	sd	a2,2040(a0) # 17f8 <.LBB64_5+0xf4>
    1ee8:	e5043683          	ld	a3,-432(s0)
    1eec:	02d98533          	mul	a0,s3,a3
    1ef0:	80043603          	ld	a2,-2048(s0)
    1ef4:	00c50633          	add	a2,a0,a2
    1ef8:	80c43023          	sd	a2,-2048(s0)
    1efc:	f7043503          	ld	a0,-144(s0)
    1f00:	02a98533          	mul	a0,s3,a0
    1f04:	80843603          	ld	a2,-2040(s0)
    1f08:	00c50633          	add	a2,a0,a2
    1f0c:	80c43423          	sd	a2,-2040(s0)
    1f10:	03e98533          	mul	a0,s3,t5
    1f14:	81043603          	ld	a2,-2032(s0)
    1f18:	00c50633          	add	a2,a0,a2
    1f1c:	80c43823          	sd	a2,-2032(s0)
    1f20:	02798533          	mul	a0,s3,t2
    1f24:	81843603          	ld	a2,-2024(s0)
    1f28:	00c50633          	add	a2,a0,a2
    1f2c:	80c43c23          	sd	a2,-2024(s0)
    1f30:	02198533          	mul	a0,s3,ra
    1f34:	82043603          	ld	a2,-2016(s0)
    1f38:	00c50633          	add	a2,a0,a2
    1f3c:	82c43023          	sd	a2,-2016(s0)
    1f40:	f7843503          	ld	a0,-136(s0)
    1f44:	02a98533          	mul	a0,s3,a0
    1f48:	82843603          	ld	a2,-2008(s0)
    1f4c:	00c50633          	add	a2,a0,a2
    1f50:	82c43423          	sd	a2,-2008(s0)
    1f54:	00048593          	mv	a1,s1
    1f58:	ea943023          	sd	s1,-352(s0)
    1f5c:	02998533          	mul	a0,s3,s1
    1f60:	83043603          	ld	a2,-2000(s0)
    1f64:	00c50633          	add	a2,a0,a2
    1f68:	82c43823          	sd	a2,-2000(s0)
    1f6c:	03998533          	mul	a0,s3,s9
    1f70:	83843603          	ld	a2,-1992(s0)
    1f74:	00c50633          	add	a2,a0,a2
    1f78:	82c43c23          	sd	a2,-1992(s0)
    1f7c:	000d0393          	mv	t2,s10
    1f80:	e9a43c23          	sd	s10,-360(s0)
    1f84:	03a98533          	mul	a0,s3,s10
    1f88:	84043603          	ld	a2,-1984(s0)
    1f8c:	00c50633          	add	a2,a0,a2
    1f90:	84c43023          	sd	a2,-1984(s0)
    1f94:	f5043f03          	ld	t5,-176(s0)
    1f98:	03e98533          	mul	a0,s3,t5
    1f9c:	84843603          	ld	a2,-1976(s0)
    1fa0:	00c50633          	add	a2,a0,a2
    1fa4:	84c43423          	sd	a2,-1976(s0)
    1fa8:	ec043503          	ld	a0,-320(s0)
    1fac:	02a98533          	mul	a0,s3,a0
    1fb0:	85043603          	ld	a2,-1968(s0)
    1fb4:	00c50633          	add	a2,a0,a2
    1fb8:	84c43823          	sd	a2,-1968(s0)
    1fbc:	03298533          	mul	a0,s3,s2
    1fc0:	85843603          	ld	a2,-1960(s0)
    1fc4:	00c50633          	add	a2,a0,a2
    1fc8:	84c43c23          	sd	a2,-1960(s0)
    1fcc:	f5843483          	ld	s1,-168(s0)
    1fd0:	02998533          	mul	a0,s3,s1
    1fd4:	86043603          	ld	a2,-1952(s0)
    1fd8:	00c50633          	add	a2,a0,a2
    1fdc:	86c43023          	sd	a2,-1952(s0)
    1fe0:	e5d43023          	sd	t4,-448(s0)
    1fe4:	03d98533          	mul	a0,s3,t4
    1fe8:	86843603          	ld	a2,-1944(s0)
    1fec:	00c50633          	add	a2,a0,a2
    1ff0:	86c43423          	sd	a2,-1944(s0)
    1ff4:	f8043503          	ld	a0,-128(s0)
    1ff8:	ec050503          	lb	a0,-320(a0)
    1ffc:	f4843d03          	ld	s10,-184(s0)
    2000:	03a98c33          	mul	s8,s3,s10
    2004:	87043603          	ld	a2,-1936(s0)
    2008:	00cc0633          	add	a2,s8,a2
    200c:	86c43823          	sd	a2,-1936(s0)
    2010:	e7843c83          	ld	s9,-392(s0)
    2014:	039989b3          	mul	s3,s3,s9
    2018:	87843603          	ld	a2,-1928(s0)
    201c:	00c98633          	add	a2,s3,a2
    2020:	86c43c23          	sd	a2,-1928(s0)
    2024:	034509b3          	mul	s3,a0,s4
    2028:	89843603          	ld	a2,-1896(s0)
    202c:	00c98633          	add	a2,s3,a2
    2030:	88c43c23          	sd	a2,-1896(s0)
    2034:	035509b3          	mul	s3,a0,s5
    2038:	89043603          	ld	a2,-1904(s0)
    203c:	00c98633          	add	a2,s3,a2
    2040:	88c43823          	sd	a2,-1904(s0)
    2044:	025509b3          	mul	s3,a0,t0
    2048:	00028a93          	mv	s5,t0
    204c:	88843603          	ld	a2,-1912(s0)
    2050:	00c98633          	add	a2,s3,a2
    2054:	88c43423          	sd	a2,-1912(s0)
    2058:	030509b3          	mul	s3,a0,a6
    205c:	88043603          	ld	a2,-1920(s0)
    2060:	00c98633          	add	a2,s3,a2
    2064:	88c43023          	sd	a2,-1920(s0)
    2068:	026509b3          	mul	s3,a0,t1
    206c:	8a043603          	ld	a2,-1888(s0)
    2070:	00c98633          	add	a2,s3,a2
    2074:	8ac43023          	sd	a2,-1888(s0)
    2078:	03c509b3          	mul	s3,a0,t3
    207c:	8a843603          	ld	a2,-1880(s0)
    2080:	00c98633          	add	a2,s3,a2
    2084:	8ac43423          	sd	a2,-1880(s0)
    2088:	ea843603          	ld	a2,-344(s0)
    208c:	02c509b3          	mul	s3,a0,a2
    2090:	8b043603          	ld	a2,-1872(s0)
    2094:	00c98633          	add	a2,s3,a2
    2098:	8ac43823          	sd	a2,-1872(s0)
    209c:	e6043603          	ld	a2,-416(s0)
    20a0:	02c509b3          	mul	s3,a0,a2
    20a4:	8b843603          	ld	a2,-1864(s0)
    20a8:	00c98633          	add	a2,s3,a2
    20ac:	8ac43c23          	sd	a2,-1864(s0)
    20b0:	03b509b3          	mul	s3,a0,s11
    20b4:	8c043603          	ld	a2,-1856(s0)
    20b8:	00c98633          	add	a2,s3,a2
    20bc:	8cc43023          	sd	a2,-1856(s0)
    20c0:	037509b3          	mul	s3,a0,s7
    20c4:	8c843603          	ld	a2,-1848(s0)
    20c8:	00c98633          	add	a2,s3,a2
    20cc:	8cc43423          	sd	a2,-1848(s0)
    20d0:	036509b3          	mul	s3,a0,s6
    20d4:	000b0313          	mv	t1,s6
    20d8:	8d043603          	ld	a2,-1840(s0)
    20dc:	00c98633          	add	a2,s3,a2
    20e0:	8cc43823          	sd	a2,-1840(s0)
    20e4:	031509b3          	mul	s3,a0,a7
    20e8:	8d843603          	ld	a2,-1832(s0)
    20ec:	00c98633          	add	a2,s3,a2
    20f0:	8cc43c23          	sd	a2,-1832(s0)
    20f4:	f6043283          	ld	t0,-160(s0)
    20f8:	025509b3          	mul	s3,a0,t0
    20fc:	8e043603          	ld	a2,-1824(s0)
    2100:	00c98633          	add	a2,s3,a2
    2104:	8ec43023          	sd	a2,-1824(s0)
    2108:	03f509b3          	mul	s3,a0,t6
    210c:	8e843603          	ld	a2,-1816(s0)
    2110:	00c98633          	add	a2,s3,a2
    2114:	8ec43423          	sd	a2,-1816(s0)
    2118:	02f509b3          	mul	s3,a0,a5
    211c:	8f043603          	ld	a2,-1808(s0)
    2120:	00c98633          	add	a2,s3,a2
    2124:	8ec43823          	sd	a2,-1808(s0)
    2128:	02e509b3          	mul	s3,a0,a4
    212c:	8f843603          	ld	a2,-1800(s0)
    2130:	00c98633          	add	a2,s3,a2
    2134:	8ec43c23          	sd	a2,-1800(s0)
    2138:	02d509b3          	mul	s3,a0,a3
    213c:	00068f93          	mv	t6,a3
    2140:	90043603          	ld	a2,-1792(s0)
    2144:	00c98633          	add	a2,s3,a2
    2148:	90c43023          	sd	a2,-1792(s0)
    214c:	f7043d83          	ld	s11,-144(s0)
    2150:	03b509b3          	mul	s3,a0,s11
    2154:	90843603          	ld	a2,-1784(s0)
    2158:	00c98633          	add	a2,s3,a2
    215c:	90c43423          	sd	a2,-1784(s0)
    2160:	e8043b83          	ld	s7,-384(s0)
    2164:	037509b3          	mul	s3,a0,s7
    2168:	91043603          	ld	a2,-1776(s0)
    216c:	00c98633          	add	a2,s3,a2
    2170:	90c43823          	sd	a2,-1776(s0)
    2174:	e7043b03          	ld	s6,-400(s0)
    2178:	036509b3          	mul	s3,a0,s6
    217c:	91843603          	ld	a2,-1768(s0)
    2180:	00c98633          	add	a2,s3,a2
    2184:	90c43c23          	sd	a2,-1768(s0)
    2188:	e6143423          	sd	ra,-408(s0)
    218c:	021509b3          	mul	s3,a0,ra
    2190:	92043603          	ld	a2,-1760(s0)
    2194:	00c98633          	add	a2,s3,a2
    2198:	92c43023          	sd	a2,-1760(s0)
    219c:	f7843e03          	ld	t3,-136(s0)
    21a0:	03c509b3          	mul	s3,a0,t3
    21a4:	92843603          	ld	a2,-1752(s0)
    21a8:	00c98633          	add	a2,s3,a2
    21ac:	92c43423          	sd	a2,-1752(s0)
    21b0:	02b509b3          	mul	s3,a0,a1
    21b4:	93043603          	ld	a2,-1744(s0)
    21b8:	00c98633          	add	a2,s3,a2
    21bc:	92c43823          	sd	a2,-1744(s0)
    21c0:	e3843a03          	ld	s4,-456(s0)
    21c4:	034509b3          	mul	s3,a0,s4
    21c8:	93843603          	ld	a2,-1736(s0)
    21cc:	00c98633          	add	a2,s3,a2
    21d0:	92c43c23          	sd	a2,-1736(s0)
    21d4:	027509b3          	mul	s3,a0,t2
    21d8:	94043603          	ld	a2,-1728(s0)
    21dc:	00c98633          	add	a2,s3,a2
    21e0:	94c43023          	sd	a2,-1728(s0)
    21e4:	03e509b3          	mul	s3,a0,t5
    21e8:	94843603          	ld	a2,-1720(s0)
    21ec:	00c98633          	add	a2,s3,a2
    21f0:	94c43423          	sd	a2,-1720(s0)
    21f4:	ec043903          	ld	s2,-320(s0)
    21f8:	032509b3          	mul	s3,a0,s2
    21fc:	95043603          	ld	a2,-1712(s0)
    2200:	00c98633          	add	a2,s3,a2
    2204:	94c43823          	sd	a2,-1712(s0)
    2208:	e3043803          	ld	a6,-464(s0)
    220c:	030509b3          	mul	s3,a0,a6
    2210:	95843603          	ld	a2,-1704(s0)
    2214:	00c98633          	add	a2,s3,a2
    2218:	94c43c23          	sd	a2,-1704(s0)
    221c:	029509b3          	mul	s3,a0,s1
    2220:	96043603          	ld	a2,-1696(s0)
    2224:	00c98633          	add	a2,s3,a2
    2228:	96c43023          	sd	a2,-1696(s0)
    222c:	03d509b3          	mul	s3,a0,t4
    2230:	96843603          	ld	a2,-1688(s0)
    2234:	00c98633          	add	a2,s3,a2
    2238:	96c43423          	sd	a2,-1688(s0)
    223c:	f8043603          	ld	a2,-128(s0)
    2240:	f0060983          	lb	s3,-256(a2)
    2244:	03a50c33          	mul	s8,a0,s10
    2248:	97043603          	ld	a2,-1680(s0)
    224c:	00cc0633          	add	a2,s8,a2
    2250:	96c43823          	sd	a2,-1680(s0)
    2254:	03950533          	mul	a0,a0,s9
    2258:	97843603          	ld	a2,-1672(s0)
    225c:	00c50633          	add	a2,a0,a2
    2260:	96c43c23          	sd	a2,-1672(s0)
    2264:	f1843703          	ld	a4,-232(s0)
    2268:	02e98533          	mul	a0,s3,a4
    226c:	99843603          	ld	a2,-1640(s0)
    2270:	00c50633          	add	a2,a0,a2
    2274:	98c43c23          	sd	a2,-1640(s0)
    2278:	f3843683          	ld	a3,-200(s0)
    227c:	02d98533          	mul	a0,s3,a3
    2280:	99043603          	ld	a2,-1648(s0)
    2284:	00c50633          	add	a2,a0,a2
    2288:	98c43823          	sd	a2,-1648(s0)
    228c:	03598533          	mul	a0,s3,s5
    2290:	98843603          	ld	a2,-1656(s0)
    2294:	00c50633          	add	a2,a0,a2
    2298:	98c43423          	sd	a2,-1656(s0)
    229c:	f3043783          	ld	a5,-208(s0)
    22a0:	02f98533          	mul	a0,s3,a5
    22a4:	98043603          	ld	a2,-1664(s0)
    22a8:	00c50633          	add	a2,a0,a2
    22ac:	98c43023          	sd	a2,-1664(s0)
    22b0:	f2843583          	ld	a1,-216(s0)
    22b4:	02b98533          	mul	a0,s3,a1
    22b8:	9a043603          	ld	a2,-1632(s0)
    22bc:	00c50633          	add	a2,a0,a2
    22c0:	9ac43023          	sd	a2,-1632(s0)
    22c4:	f2043883          	ld	a7,-224(s0)
    22c8:	03198533          	mul	a0,s3,a7
    22cc:	9a843603          	ld	a2,-1624(s0)
    22d0:	00c50633          	add	a2,a0,a2
    22d4:	9ac43423          	sd	a2,-1624(s0)
    22d8:	ea843c83          	ld	s9,-344(s0)
    22dc:	03998533          	mul	a0,s3,s9
    22e0:	9b043603          	ld	a2,-1616(s0)
    22e4:	00c50633          	add	a2,a0,a2
    22e8:	9ac43823          	sd	a2,-1616(s0)
    22ec:	e6043483          	ld	s1,-416(s0)
    22f0:	02998533          	mul	a0,s3,s1
    22f4:	9b843603          	ld	a2,-1608(s0)
    22f8:	00c50633          	add	a2,a0,a2
    22fc:	9ac43c23          	sd	a2,-1608(s0)
    2300:	e8843d03          	ld	s10,-376(s0)
    2304:	03a98533          	mul	a0,s3,s10
    2308:	9c043603          	ld	a2,-1600(s0)
    230c:	00c50633          	add	a2,a0,a2
    2310:	9cc43023          	sd	a2,-1600(s0)
    2314:	eb043503          	ld	a0,-336(s0)
    2318:	02a98533          	mul	a0,s3,a0
    231c:	9c843603          	ld	a2,-1592(s0)
    2320:	00c50633          	add	a2,a0,a2
    2324:	9cc43423          	sd	a2,-1592(s0)
    2328:	02698533          	mul	a0,s3,t1
    232c:	9d043603          	ld	a2,-1584(s0)
    2330:	00c50633          	add	a2,a0,a2
    2334:	9cc43823          	sd	a2,-1584(s0)
    2338:	f6843503          	ld	a0,-152(s0)
    233c:	02a98533          	mul	a0,s3,a0
    2340:	9d843603          	ld	a2,-1576(s0)
    2344:	00c50633          	add	a2,a0,a2
    2348:	9cc43c23          	sd	a2,-1576(s0)
    234c:	02598533          	mul	a0,s3,t0
    2350:	9e043603          	ld	a2,-1568(s0)
    2354:	00c50633          	add	a2,a0,a2
    2358:	9ec43023          	sd	a2,-1568(s0)
    235c:	f4043383          	ld	t2,-192(s0)
    2360:	02798533          	mul	a0,s3,t2
    2364:	9e843603          	ld	a2,-1560(s0)
    2368:	00c50633          	add	a2,a0,a2
    236c:	9ec43423          	sd	a2,-1560(s0)
    2370:	eb843503          	ld	a0,-328(s0)
    2374:	02a98533          	mul	a0,s3,a0
    2378:	9f043603          	ld	a2,-1552(s0)
    237c:	00c50633          	add	a2,a0,a2
    2380:	9ec43823          	sd	a2,-1552(s0)
    2384:	e9043283          	ld	t0,-368(s0)
    2388:	02598533          	mul	a0,s3,t0
    238c:	9f843603          	ld	a2,-1544(s0)
    2390:	00c50633          	add	a2,a0,a2
    2394:	9ec43c23          	sd	a2,-1544(s0)
    2398:	03f98533          	mul	a0,s3,t6
    239c:	a0043603          	ld	a2,-1536(s0)
    23a0:	00c50633          	add	a2,a0,a2
    23a4:	a0c43023          	sd	a2,-1536(s0)
    23a8:	03b98533          	mul	a0,s3,s11
    23ac:	a0843603          	ld	a2,-1528(s0)
    23b0:	00c50633          	add	a2,a0,a2
    23b4:	a0c43423          	sd	a2,-1528(s0)
    23b8:	03798533          	mul	a0,s3,s7
    23bc:	a1043603          	ld	a2,-1520(s0)
    23c0:	00c50633          	add	a2,a0,a2
    23c4:	a0c43823          	sd	a2,-1520(s0)
    23c8:	03698533          	mul	a0,s3,s6
    23cc:	000b0f13          	mv	t5,s6
    23d0:	a1843603          	ld	a2,-1512(s0)
    23d4:	00c50633          	add	a2,a0,a2
    23d8:	a0c43c23          	sd	a2,-1512(s0)
    23dc:	02198533          	mul	a0,s3,ra
    23e0:	a2043603          	ld	a2,-1504(s0)
    23e4:	00c50633          	add	a2,a0,a2
    23e8:	a2c43023          	sd	a2,-1504(s0)
    23ec:	03c98533          	mul	a0,s3,t3
    23f0:	a2843603          	ld	a2,-1496(s0)
    23f4:	00c50633          	add	a2,a0,a2
    23f8:	a2c43423          	sd	a2,-1496(s0)
    23fc:	ea043d83          	ld	s11,-352(s0)
    2400:	03b98533          	mul	a0,s3,s11
    2404:	a3043603          	ld	a2,-1488(s0)
    2408:	00c50633          	add	a2,a0,a2
    240c:	a2c43823          	sd	a2,-1488(s0)
    2410:	03498533          	mul	a0,s3,s4
    2414:	a3843603          	ld	a2,-1480(s0)
    2418:	00c50633          	add	a2,a0,a2
    241c:	a2c43c23          	sd	a2,-1480(s0)
    2420:	e9843e83          	ld	t4,-360(s0)
    2424:	03d98533          	mul	a0,s3,t4
    2428:	a4043603          	ld	a2,-1472(s0)
    242c:	00c50633          	add	a2,a0,a2
    2430:	a4c43023          	sd	a2,-1472(s0)
    2434:	f5043303          	ld	t1,-176(s0)
    2438:	02698533          	mul	a0,s3,t1
    243c:	a4843603          	ld	a2,-1464(s0)
    2440:	00c50633          	add	a2,a0,a2
    2444:	a4c43423          	sd	a2,-1464(s0)
    2448:	03298533          	mul	a0,s3,s2
    244c:	00090a13          	mv	s4,s2
    2450:	a5043603          	ld	a2,-1456(s0)
    2454:	00c50633          	add	a2,a0,a2
    2458:	a4c43823          	sd	a2,-1456(s0)
    245c:	00080b93          	mv	s7,a6
    2460:	03098533          	mul	a0,s3,a6
    2464:	a5843603          	ld	a2,-1448(s0)
    2468:	00c50633          	add	a2,a0,a2
    246c:	a4c43c23          	sd	a2,-1448(s0)
    2470:	f5843803          	ld	a6,-168(s0)
    2474:	03098533          	mul	a0,s3,a6
    2478:	a6043603          	ld	a2,-1440(s0)
    247c:	00c50633          	add	a2,a0,a2
    2480:	a6c43023          	sd	a2,-1440(s0)
    2484:	e4043903          	ld	s2,-448(s0)
    2488:	03298533          	mul	a0,s3,s2
    248c:	a6843603          	ld	a2,-1432(s0)
    2490:	00c50633          	add	a2,a0,a2
    2494:	a6c43423          	sd	a2,-1432(s0)
    2498:	f8043503          	ld	a0,-128(s0)
    249c:	f4050503          	lb	a0,-192(a0)
    24a0:	f4843f83          	ld	t6,-184(s0)
    24a4:	03f98c33          	mul	s8,s3,t6
    24a8:	a7043603          	ld	a2,-1424(s0)
    24ac:	00cc0633          	add	a2,s8,a2
    24b0:	a6c43823          	sd	a2,-1424(s0)
    24b4:	e7843083          	ld	ra,-392(s0)
    24b8:	021989b3          	mul	s3,s3,ra
    24bc:	a7843603          	ld	a2,-1416(s0)
    24c0:	00c98633          	add	a2,s3,a2
    24c4:	a6c43c23          	sd	a2,-1416(s0)
    24c8:	02e509b3          	mul	s3,a0,a4
    24cc:	a9843603          	ld	a2,-1384(s0)
    24d0:	00c98633          	add	a2,s3,a2
    24d4:	a8c43c23          	sd	a2,-1384(s0)
    24d8:	02d509b3          	mul	s3,a0,a3
    24dc:	a9043603          	ld	a2,-1392(s0)
    24e0:	00c98633          	add	a2,s3,a2
    24e4:	a8c43823          	sd	a2,-1392(s0)
    24e8:	035509b3          	mul	s3,a0,s5
    24ec:	a8843603          	ld	a2,-1400(s0)
    24f0:	00c98633          	add	a2,s3,a2
    24f4:	a8c43423          	sd	a2,-1400(s0)
    24f8:	02f509b3          	mul	s3,a0,a5
    24fc:	a8043603          	ld	a2,-1408(s0)
    2500:	00c98633          	add	a2,s3,a2
    2504:	a8c43023          	sd	a2,-1408(s0)
    2508:	02b509b3          	mul	s3,a0,a1
    250c:	aa043603          	ld	a2,-1376(s0)
    2510:	00c98633          	add	a2,s3,a2
    2514:	aac43023          	sd	a2,-1376(s0)
    2518:	031509b3          	mul	s3,a0,a7
    251c:	aa843603          	ld	a2,-1368(s0)
    2520:	00c98633          	add	a2,s3,a2
    2524:	aac43423          	sd	a2,-1368(s0)
    2528:	039509b3          	mul	s3,a0,s9
    252c:	ab043603          	ld	a2,-1360(s0)
    2530:	00c98633          	add	a2,s3,a2
    2534:	aac43823          	sd	a2,-1360(s0)
    2538:	00048693          	mv	a3,s1
    253c:	029509b3          	mul	s3,a0,s1
    2540:	ab843603          	ld	a2,-1352(s0)
    2544:	00c98633          	add	a2,s3,a2
    2548:	aac43c23          	sd	a2,-1352(s0)
    254c:	000d0713          	mv	a4,s10
    2550:	03a509b3          	mul	s3,a0,s10
    2554:	ac043603          	ld	a2,-1344(s0)
    2558:	00c98633          	add	a2,s3,a2
    255c:	acc43023          	sd	a2,-1344(s0)
    2560:	eb043783          	ld	a5,-336(s0)
    2564:	02f509b3          	mul	s3,a0,a5
    2568:	ac843603          	ld	a2,-1336(s0)
    256c:	00c98633          	add	a2,s3,a2
    2570:	acc43423          	sd	a2,-1336(s0)
    2574:	e4843b03          	ld	s6,-440(s0)
    2578:	036509b3          	mul	s3,a0,s6
    257c:	ad043603          	ld	a2,-1328(s0)
    2580:	00c98633          	add	a2,s3,a2
    2584:	acc43823          	sd	a2,-1328(s0)
    2588:	f6843e03          	ld	t3,-152(s0)
    258c:	03c509b3          	mul	s3,a0,t3
    2590:	ad843603          	ld	a2,-1320(s0)
    2594:	00c98633          	add	a2,s3,a2
    2598:	acc43c23          	sd	a2,-1320(s0)
    259c:	f6043583          	ld	a1,-160(s0)
    25a0:	02b509b3          	mul	s3,a0,a1
    25a4:	ae043603          	ld	a2,-1312(s0)
    25a8:	00c98633          	add	a2,s3,a2
    25ac:	aec43023          	sd	a2,-1312(s0)
    25b0:	027509b3          	mul	s3,a0,t2
    25b4:	ae843603          	ld	a2,-1304(s0)
    25b8:	00c98633          	add	a2,s3,a2
    25bc:	aec43423          	sd	a2,-1304(s0)
    25c0:	eb843d03          	ld	s10,-328(s0)
    25c4:	03a509b3          	mul	s3,a0,s10
    25c8:	af043603          	ld	a2,-1296(s0)
    25cc:	00c98633          	add	a2,s3,a2
    25d0:	aec43823          	sd	a2,-1296(s0)
    25d4:	00028593          	mv	a1,t0
    25d8:	025509b3          	mul	s3,a0,t0
    25dc:	af843603          	ld	a2,-1288(s0)
    25e0:	00c98633          	add	a2,s3,a2
    25e4:	aec43c23          	sd	a2,-1288(s0)
    25e8:	e5043883          	ld	a7,-432(s0)
    25ec:	031509b3          	mul	s3,a0,a7
    25f0:	b0043603          	ld	a2,-1280(s0)
    25f4:	00c98633          	add	a2,s3,a2
    25f8:	b0c43023          	sd	a2,-1280(s0)
    25fc:	f7043283          	ld	t0,-144(s0)
    2600:	025509b3          	mul	s3,a0,t0
    2604:	b0843603          	ld	a2,-1272(s0)
    2608:	00c98633          	add	a2,s3,a2
    260c:	b0c43423          	sd	a2,-1272(s0)
    2610:	e8043383          	ld	t2,-384(s0)
    2614:	027509b3          	mul	s3,a0,t2
    2618:	b1043603          	ld	a2,-1264(s0)
    261c:	00c98633          	add	a2,s3,a2
    2620:	b0c43823          	sd	a2,-1264(s0)
    2624:	03e509b3          	mul	s3,a0,t5
    2628:	b1843603          	ld	a2,-1256(s0)
    262c:	00c98633          	add	a2,s3,a2
    2630:	b0c43c23          	sd	a2,-1256(s0)
    2634:	e6843603          	ld	a2,-408(s0)
    2638:	02c509b3          	mul	s3,a0,a2
    263c:	b2043603          	ld	a2,-1248(s0)
    2640:	00c98633          	add	a2,s3,a2
    2644:	b2c43023          	sd	a2,-1248(s0)
    2648:	f7843603          	ld	a2,-136(s0)
    264c:	02c509b3          	mul	s3,a0,a2
    2650:	b2843603          	ld	a2,-1240(s0)
    2654:	00c98633          	add	a2,s3,a2
    2658:	b2c43423          	sd	a2,-1240(s0)
    265c:	03b509b3          	mul	s3,a0,s11
    2660:	b3043603          	ld	a2,-1232(s0)
    2664:	00c98633          	add	a2,s3,a2
    2668:	b2c43823          	sd	a2,-1232(s0)
    266c:	e3843d83          	ld	s11,-456(s0)
    2670:	03b509b3          	mul	s3,a0,s11
    2674:	b3843603          	ld	a2,-1224(s0)
    2678:	00c98633          	add	a2,s3,a2
    267c:	b2c43c23          	sd	a2,-1224(s0)
    2680:	03d509b3          	mul	s3,a0,t4
    2684:	b4043603          	ld	a2,-1216(s0)
    2688:	00c98633          	add	a2,s3,a2
    268c:	b4c43023          	sd	a2,-1216(s0)
    2690:	026509b3          	mul	s3,a0,t1
    2694:	b4843603          	ld	a2,-1208(s0)
    2698:	00c98633          	add	a2,s3,a2
    269c:	b4c43423          	sd	a2,-1208(s0)
    26a0:	000a0313          	mv	t1,s4
    26a4:	034509b3          	mul	s3,a0,s4
    26a8:	b5043603          	ld	a2,-1200(s0)
    26ac:	00c98633          	add	a2,s3,a2
    26b0:	b4c43823          	sd	a2,-1200(s0)
    26b4:	037509b3          	mul	s3,a0,s7
    26b8:	b5843603          	ld	a2,-1192(s0)
    26bc:	00c98633          	add	a2,s3,a2
    26c0:	b4c43c23          	sd	a2,-1192(s0)
    26c4:	030509b3          	mul	s3,a0,a6
    26c8:	b6043603          	ld	a2,-1184(s0)
    26cc:	00c98633          	add	a2,s3,a2
    26d0:	b6c43023          	sd	a2,-1184(s0)
    26d4:	032509b3          	mul	s3,a0,s2
    26d8:	00090b93          	mv	s7,s2
    26dc:	b6843603          	ld	a2,-1176(s0)
    26e0:	00c98633          	add	a2,s3,a2
    26e4:	b6c43423          	sd	a2,-1176(s0)
    26e8:	f8043603          	ld	a2,-128(s0)
    26ec:	f8060983          	lb	s3,-128(a2)
    26f0:	03f50c33          	mul	s8,a0,t6
    26f4:	b7043603          	ld	a2,-1168(s0)
    26f8:	00cc0633          	add	a2,s8,a2
    26fc:	b6c43823          	sd	a2,-1168(s0)
    2700:	02150533          	mul	a0,a0,ra
    2704:	b7843603          	ld	a2,-1160(s0)
    2708:	00c50633          	add	a2,a0,a2
    270c:	b6c43c23          	sd	a2,-1160(s0)
    2710:	f1843483          	ld	s1,-232(s0)
    2714:	02998533          	mul	a0,s3,s1
    2718:	b9843603          	ld	a2,-1128(s0)
    271c:	00c50633          	add	a2,a0,a2
    2720:	b8c43c23          	sd	a2,-1128(s0)
    2724:	f3843803          	ld	a6,-200(s0)
    2728:	03098533          	mul	a0,s3,a6
    272c:	b9043603          	ld	a2,-1136(s0)
    2730:	00c50633          	add	a2,a0,a2
    2734:	b8c43823          	sd	a2,-1136(s0)
    2738:	03598533          	mul	a0,s3,s5
    273c:	000a8093          	mv	ra,s5
    2740:	b8843603          	ld	a2,-1144(s0)
    2744:	00c50633          	add	a2,a0,a2
    2748:	b8c43423          	sd	a2,-1144(s0)
    274c:	f3043e83          	ld	t4,-208(s0)
    2750:	03d98533          	mul	a0,s3,t4
    2754:	b8043603          	ld	a2,-1152(s0)
    2758:	00c50633          	add	a2,a0,a2
    275c:	b8c43023          	sd	a2,-1152(s0)
    2760:	f2843f03          	ld	t5,-216(s0)
    2764:	03e98533          	mul	a0,s3,t5
    2768:	ba043603          	ld	a2,-1120(s0)
    276c:	00c50633          	add	a2,a0,a2
    2770:	bac43023          	sd	a2,-1120(s0)
    2774:	f2043f83          	ld	t6,-224(s0)
    2778:	03f98533          	mul	a0,s3,t6
    277c:	ba843603          	ld	a2,-1112(s0)
    2780:	00c50633          	add	a2,a0,a2
    2784:	bac43423          	sd	a2,-1112(s0)
    2788:	03998533          	mul	a0,s3,s9
    278c:	bb043603          	ld	a2,-1104(s0)
    2790:	00c50633          	add	a2,a0,a2
    2794:	bac43823          	sd	a2,-1104(s0)
    2798:	02d98533          	mul	a0,s3,a3
    279c:	00068a93          	mv	s5,a3
    27a0:	bb843603          	ld	a2,-1096(s0)
    27a4:	00c50633          	add	a2,a0,a2
    27a8:	bac43c23          	sd	a2,-1096(s0)
    27ac:	02e98533          	mul	a0,s3,a4
    27b0:	bc043603          	ld	a2,-1088(s0)
    27b4:	00c50633          	add	a2,a0,a2
    27b8:	bcc43023          	sd	a2,-1088(s0)
    27bc:	02f98533          	mul	a0,s3,a5
    27c0:	bc843603          	ld	a2,-1080(s0)
    27c4:	00c50633          	add	a2,a0,a2
    27c8:	bcc43423          	sd	a2,-1080(s0)
    27cc:	03698533          	mul	a0,s3,s6
    27d0:	bd043603          	ld	a2,-1072(s0)
    27d4:	00c50633          	add	a2,a0,a2
    27d8:	bcc43823          	sd	a2,-1072(s0)
    27dc:	03c98533          	mul	a0,s3,t3
    27e0:	bd843603          	ld	a2,-1064(s0)
    27e4:	00c50633          	add	a2,a0,a2
    27e8:	bcc43c23          	sd	a2,-1064(s0)
    27ec:	f6043683          	ld	a3,-160(s0)
    27f0:	02d98533          	mul	a0,s3,a3
    27f4:	be043603          	ld	a2,-1056(s0)
    27f8:	00c50633          	add	a2,a0,a2
    27fc:	bec43023          	sd	a2,-1056(s0)
    2800:	f4043783          	ld	a5,-192(s0)
    2804:	02f98533          	mul	a0,s3,a5
    2808:	be843603          	ld	a2,-1048(s0)
    280c:	00c50633          	add	a2,a0,a2
    2810:	bec43423          	sd	a2,-1048(s0)
    2814:	03a98533          	mul	a0,s3,s10
    2818:	bf043603          	ld	a2,-1040(s0)
    281c:	00c50633          	add	a2,a0,a2
    2820:	bec43823          	sd	a2,-1040(s0)
    2824:	02b98533          	mul	a0,s3,a1
    2828:	bf843603          	ld	a2,-1032(s0)
    282c:	00c50633          	add	a2,a0,a2
    2830:	bec43c23          	sd	a2,-1032(s0)
    2834:	03198533          	mul	a0,s3,a7
    2838:	00088913          	mv	s2,a7
    283c:	c0043603          	ld	a2,-1024(s0)
    2840:	00c50633          	add	a2,a0,a2
    2844:	c0c43023          	sd	a2,-1024(s0)
    2848:	02598533          	mul	a0,s3,t0
    284c:	c0843603          	ld	a2,-1016(s0)
    2850:	00c50633          	add	a2,a0,a2
    2854:	c0c43423          	sd	a2,-1016(s0)
    2858:	02798533          	mul	a0,s3,t2
    285c:	00038a13          	mv	s4,t2
    2860:	c1043603          	ld	a2,-1008(s0)
    2864:	00c50633          	add	a2,a0,a2
    2868:	c0c43823          	sd	a2,-1008(s0)
    286c:	e7043883          	ld	a7,-400(s0)
    2870:	03198533          	mul	a0,s3,a7
    2874:	c1843603          	ld	a2,-1000(s0)
    2878:	00c50633          	add	a2,a0,a2
    287c:	c0c43c23          	sd	a2,-1000(s0)
    2880:	e6843383          	ld	t2,-408(s0)
    2884:	02798533          	mul	a0,s3,t2
    2888:	c2043603          	ld	a2,-992(s0)
    288c:	00c50633          	add	a2,a0,a2
    2890:	c2c43023          	sd	a2,-992(s0)
    2894:	f7843583          	ld	a1,-136(s0)
    2898:	02b98533          	mul	a0,s3,a1
    289c:	c2843603          	ld	a2,-984(s0)
    28a0:	00c50633          	add	a2,a0,a2
    28a4:	c2c43423          	sd	a2,-984(s0)
    28a8:	ea043503          	ld	a0,-352(s0)
    28ac:	02a98533          	mul	a0,s3,a0
    28b0:	c3043603          	ld	a2,-976(s0)
    28b4:	00c50633          	add	a2,a0,a2
    28b8:	c2c43823          	sd	a2,-976(s0)
    28bc:	000d8713          	mv	a4,s11
    28c0:	03b98533          	mul	a0,s3,s11
    28c4:	c3843603          	ld	a2,-968(s0)
    28c8:	00c50633          	add	a2,a0,a2
    28cc:	c2c43c23          	sd	a2,-968(s0)
    28d0:	e9843503          	ld	a0,-360(s0)
    28d4:	02a98533          	mul	a0,s3,a0
    28d8:	c4043603          	ld	a2,-960(s0)
    28dc:	00c50633          	add	a2,a0,a2
    28e0:	c4c43023          	sd	a2,-960(s0)
    28e4:	f5043503          	ld	a0,-176(s0)
    28e8:	02a98533          	mul	a0,s3,a0
    28ec:	c4843603          	ld	a2,-952(s0)
    28f0:	00c50633          	add	a2,a0,a2
    28f4:	c4c43423          	sd	a2,-952(s0)
    28f8:	02698533          	mul	a0,s3,t1
    28fc:	c5043603          	ld	a2,-944(s0)
    2900:	00c50633          	add	a2,a0,a2
    2904:	c4c43823          	sd	a2,-944(s0)
    2908:	e3043303          	ld	t1,-464(s0)
    290c:	02698533          	mul	a0,s3,t1
    2910:	c5843603          	ld	a2,-936(s0)
    2914:	00c50633          	add	a2,a0,a2
    2918:	c4c43c23          	sd	a2,-936(s0)
    291c:	f5843503          	ld	a0,-168(s0)
    2920:	02a98533          	mul	a0,s3,a0
    2924:	c6043603          	ld	a2,-928(s0)
    2928:	00c50633          	add	a2,a0,a2
    292c:	c6c43023          	sd	a2,-928(s0)
    2930:	03798533          	mul	a0,s3,s7
    2934:	c6843603          	ld	a2,-920(s0)
    2938:	00c50633          	add	a2,a0,a2
    293c:	c6c43423          	sd	a2,-920(s0)
    2940:	f8043503          	ld	a0,-128(s0)
    2944:	fc050503          	lb	a0,-64(a0)
    2948:	f4843603          	ld	a2,-184(s0)
    294c:	02c98c33          	mul	s8,s3,a2
    2950:	c7043603          	ld	a2,-912(s0)
    2954:	00cc0633          	add	a2,s8,a2
    2958:	c6c43823          	sd	a2,-912(s0)
    295c:	e7843d83          	ld	s11,-392(s0)
    2960:	03b989b3          	mul	s3,s3,s11
    2964:	c7843603          	ld	a2,-904(s0)
    2968:	00c98633          	add	a2,s3,a2
    296c:	c6c43c23          	sd	a2,-904(s0)
    2970:	029509b3          	mul	s3,a0,s1
    2974:	c9843603          	ld	a2,-872(s0)
    2978:	00c98633          	add	a2,s3,a2
    297c:	c8c43c23          	sd	a2,-872(s0)
    2980:	030509b3          	mul	s3,a0,a6
    2984:	c9043603          	ld	a2,-880(s0)
    2988:	00c98633          	add	a2,s3,a2
    298c:	c8c43823          	sd	a2,-880(s0)
    2990:	021509b3          	mul	s3,a0,ra
    2994:	c8843603          	ld	a2,-888(s0)
    2998:	00c98633          	add	a2,s3,a2
    299c:	c8c43423          	sd	a2,-888(s0)
    29a0:	03d509b3          	mul	s3,a0,t4
    29a4:	c8043603          	ld	a2,-896(s0)
    29a8:	00c98633          	add	a2,s3,a2
    29ac:	c8c43023          	sd	a2,-896(s0)
    29b0:	03e509b3          	mul	s3,a0,t5
    29b4:	ca043603          	ld	a2,-864(s0)
    29b8:	00c98633          	add	a2,s3,a2
    29bc:	cac43023          	sd	a2,-864(s0)
    29c0:	03f509b3          	mul	s3,a0,t6
    29c4:	ca843603          	ld	a2,-856(s0)
    29c8:	00c98633          	add	a2,s3,a2
    29cc:	cac43423          	sd	a2,-856(s0)
    29d0:	039509b3          	mul	s3,a0,s9
    29d4:	cb043603          	ld	a2,-848(s0)
    29d8:	00c98633          	add	a2,s3,a2
    29dc:	cac43823          	sd	a2,-848(s0)
    29e0:	000a8093          	mv	ra,s5
    29e4:	035509b3          	mul	s3,a0,s5
    29e8:	cb843603          	ld	a2,-840(s0)
    29ec:	00c98633          	add	a2,s3,a2
    29f0:	cac43c23          	sd	a2,-840(s0)
    29f4:	e8843c83          	ld	s9,-376(s0)
    29f8:	039509b3          	mul	s3,a0,s9
    29fc:	cc043603          	ld	a2,-832(s0)
    2a00:	00c98633          	add	a2,s3,a2
    2a04:	ccc43023          	sd	a2,-832(s0)
    2a08:	eb043b83          	ld	s7,-336(s0)
    2a0c:	037509b3          	mul	s3,a0,s7
    2a10:	cc843603          	ld	a2,-824(s0)
    2a14:	00c98633          	add	a2,s3,a2
    2a18:	ccc43423          	sd	a2,-824(s0)
    2a1c:	036509b3          	mul	s3,a0,s6
    2a20:	cd043603          	ld	a2,-816(s0)
    2a24:	00c98633          	add	a2,s3,a2
    2a28:	ccc43823          	sd	a2,-816(s0)
    2a2c:	f6843483          	ld	s1,-152(s0)
    2a30:	029509b3          	mul	s3,a0,s1
    2a34:	cd843603          	ld	a2,-808(s0)
    2a38:	00c98633          	add	a2,s3,a2
    2a3c:	ccc43c23          	sd	a2,-808(s0)
    2a40:	02d509b3          	mul	s3,a0,a3
    2a44:	ce043603          	ld	a2,-800(s0)
    2a48:	00c98633          	add	a2,s3,a2
    2a4c:	cec43023          	sd	a2,-800(s0)
    2a50:	02f509b3          	mul	s3,a0,a5
    2a54:	ce843603          	ld	a2,-792(s0)
    2a58:	00c98633          	add	a2,s3,a2
    2a5c:	cec43423          	sd	a2,-792(s0)
    2a60:	03a509b3          	mul	s3,a0,s10
    2a64:	cf043603          	ld	a2,-784(s0)
    2a68:	00c98633          	add	a2,s3,a2
    2a6c:	cec43823          	sd	a2,-784(s0)
    2a70:	e9043283          	ld	t0,-368(s0)
    2a74:	025509b3          	mul	s3,a0,t0
    2a78:	cf843603          	ld	a2,-776(s0)
    2a7c:	00c98633          	add	a2,s3,a2
    2a80:	cec43c23          	sd	a2,-776(s0)
    2a84:	032509b3          	mul	s3,a0,s2
    2a88:	00090a93          	mv	s5,s2
    2a8c:	d0043603          	ld	a2,-768(s0)
    2a90:	00c98633          	add	a2,s3,a2
    2a94:	d0c43023          	sd	a2,-768(s0)
    2a98:	f7043803          	ld	a6,-144(s0)
    2a9c:	030509b3          	mul	s3,a0,a6
    2aa0:	d0843603          	ld	a2,-760(s0)
    2aa4:	00c98633          	add	a2,s3,a2
    2aa8:	d0c43423          	sd	a2,-760(s0)
    2aac:	034509b3          	mul	s3,a0,s4
    2ab0:	d1043603          	ld	a2,-752(s0)
    2ab4:	00c98633          	add	a2,s3,a2
    2ab8:	d0c43823          	sd	a2,-752(s0)
    2abc:	031509b3          	mul	s3,a0,a7
    2ac0:	00088913          	mv	s2,a7
    2ac4:	d1843603          	ld	a2,-744(s0)
    2ac8:	00c98633          	add	a2,s3,a2
    2acc:	d0c43c23          	sd	a2,-744(s0)
    2ad0:	027509b3          	mul	s3,a0,t2
    2ad4:	00038f13          	mv	t5,t2
    2ad8:	d2043603          	ld	a2,-736(s0)
    2adc:	00c98633          	add	a2,s3,a2
    2ae0:	d2c43023          	sd	a2,-736(s0)
    2ae4:	02b509b3          	mul	s3,a0,a1
    2ae8:	00058e13          	mv	t3,a1
    2aec:	d2843603          	ld	a2,-728(s0)
    2af0:	00c98633          	add	a2,s3,a2
    2af4:	d2c43423          	sd	a2,-728(s0)
    2af8:	ea043883          	ld	a7,-352(s0)
    2afc:	031509b3          	mul	s3,a0,a7
    2b00:	d3043603          	ld	a2,-720(s0)
    2b04:	00c98633          	add	a2,s3,a2
    2b08:	d2c43823          	sd	a2,-720(s0)
    2b0c:	02e509b3          	mul	s3,a0,a4
    2b10:	00070393          	mv	t2,a4
    2b14:	d3843603          	ld	a2,-712(s0)
    2b18:	00c98633          	add	a2,s3,a2
    2b1c:	d2c43c23          	sd	a2,-712(s0)
    2b20:	e9843e83          	ld	t4,-360(s0)
    2b24:	03d509b3          	mul	s3,a0,t4
    2b28:	d4043603          	ld	a2,-704(s0)
    2b2c:	00c98633          	add	a2,s3,a2
    2b30:	d4c43023          	sd	a2,-704(s0)
    2b34:	f5043783          	ld	a5,-176(s0)
    2b38:	02f509b3          	mul	s3,a0,a5
    2b3c:	d4843603          	ld	a2,-696(s0)
    2b40:	00c98633          	add	a2,s3,a2
    2b44:	d4c43423          	sd	a2,-696(s0)
    2b48:	ec043703          	ld	a4,-320(s0)
    2b4c:	02e509b3          	mul	s3,a0,a4
    2b50:	d5043603          	ld	a2,-688(s0)
    2b54:	00c98633          	add	a2,s3,a2
    2b58:	d4c43823          	sd	a2,-688(s0)
    2b5c:	00030693          	mv	a3,t1
    2b60:	026509b3          	mul	s3,a0,t1
    2b64:	d5843603          	ld	a2,-680(s0)
    2b68:	00c98633          	add	a2,s3,a2
    2b6c:	d4c43c23          	sd	a2,-680(s0)
    2b70:	f5843583          	ld	a1,-168(s0)
    2b74:	02b509b3          	mul	s3,a0,a1
    2b78:	d6043603          	ld	a2,-672(s0)
    2b7c:	00c98633          	add	a2,s3,a2
    2b80:	d6c43023          	sd	a2,-672(s0)
    2b84:	e4043303          	ld	t1,-448(s0)
    2b88:	026509b3          	mul	s3,a0,t1
    2b8c:	d6843603          	ld	a2,-664(s0)
    2b90:	00c98633          	add	a2,s3,a2
    2b94:	d6c43423          	sd	a2,-664(s0)
    2b98:	f8043603          	ld	a2,-128(s0)
    2b9c:	00060983          	lb	s3,0(a2)
    2ba0:	f4843f83          	ld	t6,-184(s0)
    2ba4:	03f50c33          	mul	s8,a0,t6
    2ba8:	d7043603          	ld	a2,-656(s0)
    2bac:	00cc0633          	add	a2,s8,a2
    2bb0:	d6c43823          	sd	a2,-656(s0)
    2bb4:	000d8c13          	mv	s8,s11
    2bb8:	03b50533          	mul	a0,a0,s11
    2bbc:	d7843603          	ld	a2,-648(s0)
    2bc0:	00c50633          	add	a2,a0,a2
    2bc4:	d6c43c23          	sd	a2,-648(s0)
    2bc8:	03b98533          	mul	a0,s3,s11
    2bcc:	e6a43c23          	sd	a0,-392(s0)
    2bd0:	03f98533          	mul	a0,s3,t6
    2bd4:	f4a43423          	sd	a0,-184(s0)
    2bd8:	02698533          	mul	a0,s3,t1
    2bdc:	e4a43023          	sd	a0,-448(s0)
    2be0:	02b98533          	mul	a0,s3,a1
    2be4:	000015b7          	lui	a1,0x1
    2be8:	40b405b3          	sub	a1,s0,a1
    2bec:	66a5b823          	sd	a0,1648(a1) # 1670 <.LBB64_4+0x508>
    2bf0:	02d98533          	mul	a0,s3,a3
    2bf4:	e2a43823          	sd	a0,-464(s0)
    2bf8:	02e98533          	mul	a0,s3,a4
    2bfc:	f4a43c23          	sd	a0,-168(s0)
    2c00:	02f98533          	mul	a0,s3,a5
    2c04:	f4a43823          	sd	a0,-176(s0)
    2c08:	03d98533          	mul	a0,s3,t4
    2c0c:	eca43023          	sd	a0,-320(s0)
    2c10:	02798533          	mul	a0,s3,t2
    2c14:	e8a43c23          	sd	a0,-360(s0)
    2c18:	03198fb3          	mul	t6,s3,a7
    2c1c:	03c983b3          	mul	t2,s3,t3
    2c20:	03e98333          	mul	t1,s3,t5
    2c24:	032988b3          	mul	a7,s3,s2
    2c28:	03498e33          	mul	t3,s3,s4
    2c2c:	03098eb3          	mul	t4,s3,a6
    2c30:	03598f33          	mul	t5,s3,s5
    2c34:	02598933          	mul	s2,s3,t0
    2c38:	03a98a33          	mul	s4,s3,s10
    2c3c:	f4043503          	ld	a0,-192(s0)
    2c40:	02a98ab3          	mul	s5,s3,a0
    2c44:	f6043503          	ld	a0,-160(s0)
    2c48:	02a98c33          	mul	s8,s3,a0
    2c4c:	02998d33          	mul	s10,s3,s1
    2c50:	03698b33          	mul	s6,s3,s6
    2c54:	03798bb3          	mul	s7,s3,s7
    2c58:	03998db3          	mul	s11,s3,s9
    2c5c:	021980b3          	mul	ra,s3,ra
    2c60:	ea843503          	ld	a0,-344(s0)
    2c64:	02a98733          	mul	a4,s3,a0
    2c68:	f2043503          	ld	a0,-224(s0)
    2c6c:	02a98cb3          	mul	s9,s3,a0
    2c70:	f2843503          	ld	a0,-216(s0)
    2c74:	02a986b3          	mul	a3,s3,a0
    2c78:	f3043503          	ld	a0,-208(s0)
    2c7c:	02a98633          	mul	a2,s3,a0
    2c80:	e5843503          	ld	a0,-424(s0)
    2c84:	02a985b3          	mul	a1,s3,a0
    2c88:	f3843503          	ld	a0,-200(s0)
    2c8c:	02a98533          	mul	a0,s3,a0
    2c90:	f1843783          	ld	a5,-232(s0)
    2c94:	02f989b3          	mul	s3,s3,a5
    2c98:	d9843783          	ld	a5,-616(s0)
    2c9c:	00f987b3          	add	a5,s3,a5
    2ca0:	d8f43c23          	sd	a5,-616(s0)
    2ca4:	d9043783          	ld	a5,-624(s0)
    2ca8:	00f507b3          	add	a5,a0,a5
    2cac:	d8f43823          	sd	a5,-624(s0)
    2cb0:	d8843503          	ld	a0,-632(s0)
    2cb4:	00a58533          	add	a0,a1,a0
    2cb8:	d8a43423          	sd	a0,-632(s0)
    2cbc:	d8043503          	ld	a0,-640(s0)
    2cc0:	00a60533          	add	a0,a2,a0
    2cc4:	d8a43023          	sd	a0,-640(s0)
    2cc8:	da043503          	ld	a0,-608(s0)
    2ccc:	00a68533          	add	a0,a3,a0
    2cd0:	daa43023          	sd	a0,-608(s0)
    2cd4:	da843503          	ld	a0,-600(s0)
    2cd8:	00ac8533          	add	a0,s9,a0
    2cdc:	daa43423          	sd	a0,-600(s0)
    2ce0:	db043503          	ld	a0,-592(s0)
    2ce4:	00a70533          	add	a0,a4,a0
    2ce8:	daa43823          	sd	a0,-592(s0)
    2cec:	ec843503          	ld	a0,-312(s0)
    2cf0:	00a08533          	add	a0,ra,a0
    2cf4:	eca43423          	sd	a0,-312(s0)
    2cf8:	ec843083          	ld	ra,-312(s0)
    2cfc:	ed043503          	ld	a0,-304(s0)
    2d00:	00ad8533          	add	a0,s11,a0
    2d04:	eca43823          	sd	a0,-304(s0)
    2d08:	ed043c83          	ld	s9,-304(s0)
    2d0c:	ed843503          	ld	a0,-296(s0)
    2d10:	00ab8533          	add	a0,s7,a0
    2d14:	eca43c23          	sd	a0,-296(s0)
    2d18:	ed843b83          	ld	s7,-296(s0)
    2d1c:	db843503          	ld	a0,-584(s0)
    2d20:	00ab0533          	add	a0,s6,a0
    2d24:	daa43c23          	sd	a0,-584(s0)
    2d28:	ee043503          	ld	a0,-288(s0)
    2d2c:	00ad0533          	add	a0,s10,a0
    2d30:	eea43023          	sd	a0,-288(s0)
    2d34:	ee043b03          	ld	s6,-288(s0)
    2d38:	ee843503          	ld	a0,-280(s0)
    2d3c:	00ac0533          	add	a0,s8,a0
    2d40:	000015b7          	lui	a1,0x1
    2d44:	40b405b3          	sub	a1,s0,a1
    2d48:	6885bd03          	ld	s10,1672(a1) # 1688 <.LBB64_4+0x520>
    2d4c:	eea43423          	sd	a0,-280(s0)
    2d50:	ee843983          	ld	s3,-280(s0)
    2d54:	ef043503          	ld	a0,-272(s0)
    2d58:	00aa8533          	add	a0,s5,a0
    2d5c:	eea43823          	sd	a0,-272(s0)
    2d60:	ef043703          	ld	a4,-272(s0)
    2d64:	ef843503          	ld	a0,-264(s0)
    2d68:	00aa0533          	add	a0,s4,a0
    2d6c:	f8843a03          	ld	s4,-120(s0)
    2d70:	eea43c23          	sd	a0,-264(s0)
    2d74:	ef843683          	ld	a3,-264(s0)
    2d78:	f0043503          	ld	a0,-256(s0)
    2d7c:	00a90533          	add	a0,s2,a0
    2d80:	000015b7          	lui	a1,0x1
    2d84:	40b405b3          	sub	a1,s0,a1
    2d88:	6805b903          	ld	s2,1664(a1) # 1680 <.LBB64_4+0x518>
    2d8c:	f0a43023          	sd	a0,-256(s0)
    2d90:	f0043603          	ld	a2,-256(s0)
    2d94:	dc043503          	ld	a0,-576(s0)
    2d98:	00af0533          	add	a0,t5,a0
    2d9c:	dca43023          	sd	a0,-576(s0)
    2da0:	dc843f03          	ld	t5,-568(s0)
    2da4:	01ee8f33          	add	t5,t4,t5
    2da8:	dd043e83          	ld	t4,-560(s0)
    2dac:	01de0eb3          	add	t4,t3,t4
    2db0:	dd843c03          	ld	s8,-552(s0)
    2db4:	01888c33          	add	s8,a7,s8
    2db8:	de043e03          	ld	t3,-544(s0)
    2dbc:	01c30e33          	add	t3,t1,t3
    2dc0:	de843303          	ld	t1,-536(s0)
    2dc4:	00638333          	add	t1,t2,t1
    2dc8:	df043283          	ld	t0,-528(s0)
    2dcc:	005f82b3          	add	t0,t6,t0
    2dd0:	df843883          	ld	a7,-520(s0)
    2dd4:	f0843503          	ld	a0,-248(s0)
    2dd8:	e9843583          	ld	a1,-360(s0)
    2ddc:	00a58533          	add	a0,a1,a0
    2de0:	000015b7          	lui	a1,0x1
    2de4:	40b405b3          	sub	a1,s0,a1
    2de8:	6785bf83          	ld	t6,1656(a1) # 1678 <.LBB64_4+0x510>
    2dec:	f0a43423          	sd	a0,-248(s0)
    2df0:	f0843583          	ld	a1,-248(s0)
    2df4:	f1043503          	ld	a0,-240(s0)
    2df8:	ec043783          	ld	a5,-320(s0)
    2dfc:	00a78533          	add	a0,a5,a0
    2e00:	f8043483          	ld	s1,-128(s0)
    2e04:	f0a43823          	sd	a0,-240(s0)
    2e08:	f1043503          	ld	a0,-240(s0)
    2e0c:	f5043783          	ld	a5,-176(s0)
    2e10:	011788b3          	add	a7,a5,a7
    2e14:	e0043803          	ld	a6,-512(s0)
    2e18:	f5843783          	ld	a5,-168(s0)
    2e1c:	01078833          	add	a6,a5,a6
    2e20:	e0843783          	ld	a5,-504(s0)
    2e24:	e3043383          	ld	t2,-464(s0)
    2e28:	00f387b3          	add	a5,t2,a5
    2e2c:	e1043a83          	ld	s5,-496(s0)
    2e30:	000013b7          	lui	t2,0x1
    2e34:	407403b3          	sub	t2,s0,t2
    2e38:	6703b383          	ld	t2,1648(t2) # 1670 <.LBB64_4+0x508>
    2e3c:	01538ab3          	add	s5,t2,s5
    2e40:	e1543823          	sd	s5,-496(s0)
    2e44:	e1843a83          	ld	s5,-488(s0)
    2e48:	e4043383          	ld	t2,-448(s0)
    2e4c:	01538ab3          	add	s5,t2,s5
    2e50:	e1543c23          	sd	s5,-488(s0)
    2e54:	e2043a83          	ld	s5,-480(s0)
    2e58:	f4843383          	ld	t2,-184(s0)
    2e5c:	01538ab3          	add	s5,t2,s5
    2e60:	e3543023          	sd	s5,-480(s0)
    2e64:	e2843a83          	ld	s5,-472(s0)
    2e68:	e7843383          	ld	t2,-392(s0)
    2e6c:	01538ab3          	add	s5,t2,s5
    2e70:	e3543423          	sd	s5,-472(s0)
    2e74:	e80f8f93          	addi	t6,t6,-384 # 5e80 <.LBB64_316+0x10>
    2e78:	180a0a13          	addi	s4,s4,384
    2e7c:	00148493          	addi	s1,s1,1
    2e80:	000f8463          	beqz	t6,2e88 <.LBB64_6>
    2e84:	881fe06f          	j	1704 <.LBB64_5>

0000000000002e88 <.LBB64_6>:
    2e88:	00001537          	lui	a0,0x1
    2e8c:	40a40533          	sub	a0,s0,a0
    2e90:	6b853a83          	ld	s5,1720(a0) # 16b8 <.LBB64_4+0x550>
    2e94:	00001537          	lui	a0,0x1
    2e98:	40a40533          	sub	a0,s0,a0
    2e9c:	6c053d83          	ld	s11,1728(a0) # 16c0 <.LBB64_4+0x558>
    2ea0:	00001537          	lui	a0,0x1
    2ea4:	40a40533          	sub	a0,s0,a0
    2ea8:	6c853d03          	ld	s10,1736(a0) # 16c8 <.LBB64_4+0x560>
    2eac:	00001537          	lui	a0,0x1
    2eb0:	40a40533          	sub	a0,s0,a0
    2eb4:	6b053c83          	ld	s9,1712(a0) # 16b0 <.LBB64_4+0x548>
    2eb8:	00001537          	lui	a0,0x1
    2ebc:	40a40533          	sub	a0,s0,a0
    2ec0:	6a853a03          	ld	s4,1704(a0) # 16a8 <.LBB64_4+0x540>
    2ec4:	00001537          	lui	a0,0x1
    2ec8:	40a40533          	sub	a0,s0,a0
    2ecc:	6a053983          	ld	s3,1696(a0) # 16a0 <.LBB64_4+0x538>
    2ed0:	00001537          	lui	a0,0x1
    2ed4:	40a40533          	sub	a0,s0,a0
    2ed8:	69853903          	ld	s2,1688(a0) # 1698 <.LBB64_4+0x530>
    2edc:	00001537          	lui	a0,0x1
    2ee0:	40a40533          	sub	a0,s0,a0
    2ee4:	69053483          	ld	s1,1680(a0) # 1690 <.LBB64_4+0x528>
    2ee8:	00001537          	lui	a0,0x1
    2eec:	40a40533          	sub	a0,s0,a0
    2ef0:	66853503          	ld	a0,1640(a0) # 1668 <.LBB64_4+0x500>
    2ef4:	00251513          	slli	a0,a0,0x2
    2ef8:	000015b7          	lui	a1,0x1
    2efc:	40b405b3          	sub	a1,s0,a1
    2f00:	d705b583          	ld	a1,-656(a1) # d70 <.LBB64_3+0xb5c>
    2f04:	00a585b3          	add	a1,a1,a0
    2f08:	00001637          	lui	a2,0x1
    2f0c:	40c40633          	sub	a2,s0,a2
    2f10:	d6863603          	ld	a2,-664(a2) # d68 <.LBB64_3+0xb54>
    2f14:	00a60533          	add	a0,a2,a0
    2f18:	00c52603          	lw	a2,12(a0)
    2f1c:	00c5af83          	lw	t6,12(a1)
    2f20:	000016b7          	lui	a3,0x1
    2f24:	40d406b3          	sub	a3,s0,a3
    2f28:	6606b683          	ld	a3,1632(a3) # 1660 <.LBB64_4+0x4f8>
    2f2c:	0006a703          	lw	a4,0(a3)
    2f30:	00261693          	slli	a3,a2,0x2
    2f34:	e9f43023          	sd	t6,-384(s0)
    2f38:	00001637          	lui	a2,0x1
    2f3c:	40c40633          	sub	a2,s0,a2
    2f40:	6d063603          	ld	a2,1744(a2) # 16d0 <.LBB64_4+0x568>
    2f44:	01f60633          	add	a2,a2,t6
    2f48:	e6d43c23          	sd	a3,-392(s0)
    2f4c:	00d60633          	add	a2,a2,a3
    2f50:	00e60633          	add	a2,a2,a4
    2f54:	1006061b          	addiw	a2,a2,256
    2f58:	400006b7          	lui	a3,0x40000
    2f5c:	000013b7          	lui	t2,0x1
    2f60:	407403b3          	sub	t2,s0,t2
    2f64:	fec3bc23          	sd	a2,-8(t2) # ff8 <.LBB64_3+0xde4>
    2f68:	00065463          	bgez	a2,2f70 <.LBB64_8>
    2f6c:	c00006b7          	lui	a3,0xc0000

0000000000002f70 <.LBB64_8>:
    2f70:	00001637          	lui	a2,0x1
    2f74:	40c40633          	sub	a2,s0,a2
    2f78:	fcd63023          	sd	a3,-64(a2) # fc0 <.LBB64_3+0xdac>
    2f7c:	00852603          	lw	a2,8(a0)
    2f80:	0085a683          	lw	a3,8(a1)
    2f84:	00261f93          	slli	t6,a2,0x2
    2f88:	e6d43823          	sd	a3,-400(s0)
    2f8c:	00da8633          	add	a2,s5,a3
    2f90:	e7f43423          	sd	t6,-408(s0)
    2f94:	01f60633          	add	a2,a2,t6
    2f98:	00e60633          	add	a2,a2,a4
    2f9c:	1006061b          	addiw	a2,a2,256
    2fa0:	400006b7          	lui	a3,0x40000
    2fa4:	000013b7          	lui	t2,0x1
    2fa8:	407403b3          	sub	t2,s0,t2
    2fac:	fec3b823          	sd	a2,-16(t2) # ff0 <.LBB64_3+0xddc>
    2fb0:	00048b93          	mv	s7,s1
    2fb4:	00090393          	mv	t2,s2
    2fb8:	00098b13          	mv	s6,s3
    2fbc:	000a0a93          	mv	s5,s4
    2fc0:	00065463          	bgez	a2,2fc8 <.LBB64_10>
    2fc4:	c00006b7          	lui	a3,0xc0000

0000000000002fc8 <.LBB64_10>:
    2fc8:	00452603          	lw	a2,4(a0)
    2fcc:	0045af83          	lw	t6,4(a1)
    2fd0:	00261493          	slli	s1,a2,0x2
    2fd4:	e7f43023          	sd	t6,-416(s0)
    2fd8:	01fd8633          	add	a2,s11,t6
    2fdc:	e4943c23          	sd	s1,-424(s0)
    2fe0:	00960633          	add	a2,a2,s1
    2fe4:	00e60633          	add	a2,a2,a4
    2fe8:	1006061b          	addiw	a2,a2,256
    2fec:	40000fb7          	lui	t6,0x40000
    2ff0:	000014b7          	lui	s1,0x1
    2ff4:	409404b3          	sub	s1,s0,s1
    2ff8:	fec4b023          	sd	a2,-32(s1) # fe0 <.LBB64_3+0xdcc>
    2ffc:	00065463          	bgez	a2,3004 <.LBB64_12>
    3000:	c0000fb7          	lui	t6,0xc0000

0000000000003004 <.LBB64_12>:
    3004:	00052603          	lw	a2,0(a0)
    3008:	0005a483          	lw	s1,0(a1)
    300c:	00261913          	slli	s2,a2,0x2
    3010:	e4943823          	sd	s1,-432(s0)
    3014:	009d0633          	add	a2,s10,s1
    3018:	e5243423          	sd	s2,-440(s0)
    301c:	01260633          	add	a2,a2,s2
    3020:	00e60633          	add	a2,a2,a4
    3024:	1006061b          	addiw	a2,a2,256
    3028:	400004b7          	lui	s1,0x40000
    302c:	00001937          	lui	s2,0x1
    3030:	41240933          	sub	s2,s0,s2
    3034:	fcc93423          	sd	a2,-56(s2) # fc8 <.LBB64_3+0xdb4>
    3038:	00065463          	bgez	a2,3040 <.LBB64_14>
    303c:	c00004b7          	lui	s1,0xc0000

0000000000003040 <.LBB64_14>:
    3040:	01052603          	lw	a2,16(a0)
    3044:	0105a903          	lw	s2,16(a1)
    3048:	00261993          	slli	s3,a2,0x2
    304c:	e5243023          	sd	s2,-448(s0)
    3050:	012c8633          	add	a2,s9,s2
    3054:	e3343c23          	sd	s3,-456(s0)
    3058:	01360633          	add	a2,a2,s3
    305c:	00e60633          	add	a2,a2,a4
    3060:	1006061b          	addiw	a2,a2,256
    3064:	40000937          	lui	s2,0x40000
    3068:	000019b7          	lui	s3,0x1
    306c:	413409b3          	sub	s3,s0,s3
    3070:	fac9b823          	sd	a2,-80(s3) # fb0 <.LBB64_3+0xd9c>
    3074:	00065463          	bgez	a2,307c <.LBB64_16>
    3078:	c0000937          	lui	s2,0xc0000

000000000000307c <.LBB64_16>:
    307c:	01452603          	lw	a2,20(a0)
    3080:	0145a983          	lw	s3,20(a1)
    3084:	00261a13          	slli	s4,a2,0x2
    3088:	e3343823          	sd	s3,-464(s0)
    308c:	013a8633          	add	a2,s5,s3
    3090:	000019b7          	lui	s3,0x1
    3094:	413409b3          	sub	s3,s0,s3
    3098:	6d49b823          	sd	s4,1744(s3) # 16d0 <.LBB64_4+0x568>
    309c:	01460633          	add	a2,a2,s4
    30a0:	00e60633          	add	a2,a2,a4
    30a4:	1006061b          	addiw	a2,a2,256
    30a8:	400009b7          	lui	s3,0x40000
    30ac:	00001a37          	lui	s4,0x1
    30b0:	41440a33          	sub	s4,s0,s4
    30b4:	f8ca3c23          	sd	a2,-104(s4) # f98 <.LBB64_3+0xd84>
    30b8:	00065463          	bgez	a2,30c0 <.LBB64_18>
    30bc:	c00009b7          	lui	s3,0xc0000

00000000000030c0 <.LBB64_18>:
    30c0:	01852603          	lw	a2,24(a0)
    30c4:	0185aa03          	lw	s4,24(a1)
    30c8:	00261a93          	slli	s5,a2,0x2
    30cc:	00001637          	lui	a2,0x1
    30d0:	40c40633          	sub	a2,s0,a2
    30d4:	6d463423          	sd	s4,1736(a2) # 16c8 <.LBB64_4+0x560>
    30d8:	014b0633          	add	a2,s6,s4
    30dc:	00001a37          	lui	s4,0x1
    30e0:	41440a33          	sub	s4,s0,s4
    30e4:	6d5a3023          	sd	s5,1728(s4) # 16c0 <.LBB64_4+0x558>
    30e8:	01560633          	add	a2,a2,s5
    30ec:	00e60633          	add	a2,a2,a4
    30f0:	1006061b          	addiw	a2,a2,256
    30f4:	40000a37          	lui	s4,0x40000
    30f8:	00001ab7          	lui	s5,0x1
    30fc:	41540ab3          	sub	s5,s0,s5
    3100:	f8cab023          	sd	a2,-128(s5) # f80 <.LBB64_3+0xd6c>
    3104:	00065463          	bgez	a2,310c <.LBB64_20>
    3108:	c0000a37          	lui	s4,0xc0000

000000000000310c <.LBB64_20>:
    310c:	01c52603          	lw	a2,28(a0)
    3110:	01c5aa83          	lw	s5,28(a1)
    3114:	00261b13          	slli	s6,a2,0x2
    3118:	00001637          	lui	a2,0x1
    311c:	40c40633          	sub	a2,s0,a2
    3120:	6b563c23          	sd	s5,1720(a2) # 16b8 <.LBB64_4+0x550>
    3124:	01538633          	add	a2,t2,s5
    3128:	000013b7          	lui	t2,0x1
    312c:	407403b3          	sub	t2,s0,t2
    3130:	6b63b823          	sd	s6,1712(t2) # 16b0 <.LBB64_4+0x548>
    3134:	01660633          	add	a2,a2,s6
    3138:	00e60633          	add	a2,a2,a4
    313c:	1006061b          	addiw	a2,a2,256
    3140:	40000ab7          	lui	s5,0x40000
    3144:	000013b7          	lui	t2,0x1
    3148:	407403b3          	sub	t2,s0,t2
    314c:	f6c3b823          	sd	a2,-144(t2) # f70 <.LBB64_3+0xd5c>
    3150:	00065463          	bgez	a2,3158 <.LBB64_22>
    3154:	c0000ab7          	lui	s5,0xc0000

0000000000003158 <.LBB64_22>:
    3158:	00001637          	lui	a2,0x1
    315c:	40c40633          	sub	a2,s0,a2
    3160:	f5563823          	sd	s5,-176(a2) # f50 <.LBB64_3+0xd3c>
    3164:	00001637          	lui	a2,0x1
    3168:	40c40633          	sub	a2,s0,a2
    316c:	f7463023          	sd	s4,-160(a2) # f60 <.LBB64_3+0xd4c>
    3170:	00001637          	lui	a2,0x1
    3174:	40c40633          	sub	a2,s0,a2
    3178:	f7363c23          	sd	s3,-136(a2) # f78 <.LBB64_3+0xd64>
    317c:	00001637          	lui	a2,0x1
    3180:	40c40633          	sub	a2,s0,a2
    3184:	f9263823          	sd	s2,-112(a2) # f90 <.LBB64_3+0xd7c>
    3188:	00001637          	lui	a2,0x1
    318c:	40c40633          	sub	a2,s0,a2
    3190:	fa963023          	sd	s1,-96(a2) # fa0 <.LBB64_3+0xd8c>
    3194:	00001637          	lui	a2,0x1
    3198:	40c40633          	sub	a2,s0,a2
    319c:	fbf63c23          	sd	t6,-72(a2) # fb8 <.LBB64_3+0xda4>
    31a0:	00001637          	lui	a2,0x1
    31a4:	40c40633          	sub	a2,s0,a2
    31a8:	fcd63c23          	sd	a3,-40(a2) # fd8 <.LBB64_3+0xdc4>
    31ac:	dde43423          	sd	t5,-568(s0)
    31b0:	ddd43823          	sd	t4,-560(s0)
    31b4:	dd843c23          	sd	s8,-552(s0)
    31b8:	dfc43023          	sd	t3,-544(s0)
    31bc:	de643423          	sd	t1,-536(s0)
    31c0:	de543823          	sd	t0,-528(s0)
    31c4:	df143c23          	sd	a7,-520(s0)
    31c8:	e1043023          	sd	a6,-512(s0)
    31cc:	e0f43423          	sd	a5,-504(s0)
    31d0:	02052603          	lw	a2,32(a0)
    31d4:	0205a683          	lw	a3,32(a1)
    31d8:	00261793          	slli	a5,a2,0x2
    31dc:	00001637          	lui	a2,0x1
    31e0:	40c40633          	sub	a2,s0,a2
    31e4:	6ad63423          	sd	a3,1704(a2) # 16a8 <.LBB64_4+0x540>
    31e8:	00db8633          	add	a2,s7,a3
    31ec:	000016b7          	lui	a3,0x1
    31f0:	40d406b3          	sub	a3,s0,a3
    31f4:	6af6b023          	sd	a5,1696(a3) # 16a0 <.LBB64_4+0x538>
    31f8:	00f60633          	add	a2,a2,a5
    31fc:	00e60633          	add	a2,a2,a4
    3200:	1006061b          	addiw	a2,a2,256
    3204:	400006b7          	lui	a3,0x40000
    3208:	000017b7          	lui	a5,0x1
    320c:	40f407b3          	sub	a5,s0,a5
    3210:	f4c7bc23          	sd	a2,-168(a5) # f58 <.LBB64_3+0xd44>
    3214:	00065463          	bgez	a2,321c <.LBB64_24>
    3218:	c00006b7          	lui	a3,0xc0000

000000000000321c <.LBB64_24>:
    321c:	00001637          	lui	a2,0x1
    3220:	40c40633          	sub	a2,s0,a2
    3224:	f4d63023          	sd	a3,-192(a2) # f40 <.LBB64_3+0xd2c>
    3228:	07c5a603          	lw	a2,124(a1)
    322c:	f8c43023          	sd	a2,-128(s0)
    3230:	0785a603          	lw	a2,120(a1)
    3234:	f6c43c23          	sd	a2,-136(s0)
    3238:	0745a603          	lw	a2,116(a1)
    323c:	f6c43823          	sd	a2,-144(s0)
    3240:	0705a603          	lw	a2,112(a1)
    3244:	f6c43423          	sd	a2,-152(s0)
    3248:	06c5a603          	lw	a2,108(a1)
    324c:	f6c43023          	sd	a2,-160(s0)
    3250:	0685a603          	lw	a2,104(a1)
    3254:	f4c43c23          	sd	a2,-168(s0)
    3258:	0645a603          	lw	a2,100(a1)
    325c:	f4c43823          	sd	a2,-176(s0)
    3260:	0605a603          	lw	a2,96(a1)
    3264:	f4c43423          	sd	a2,-184(s0)
    3268:	05c5a603          	lw	a2,92(a1)
    326c:	f4c43023          	sd	a2,-192(s0)
    3270:	0585a603          	lw	a2,88(a1)
    3274:	f2c43c23          	sd	a2,-200(s0)
    3278:	0545a603          	lw	a2,84(a1)
    327c:	f2c43823          	sd	a2,-208(s0)
    3280:	0505a603          	lw	a2,80(a1)
    3284:	f2c43423          	sd	a2,-216(s0)
    3288:	04c5a603          	lw	a2,76(a1)
    328c:	f2c43023          	sd	a2,-224(s0)
    3290:	0485a603          	lw	a2,72(a1)
    3294:	f0c43c23          	sd	a2,-232(s0)
    3298:	0445a603          	lw	a2,68(a1)
    329c:	ecc43023          	sd	a2,-320(s0)
    32a0:	0405a603          	lw	a2,64(a1)
    32a4:	eac43c23          	sd	a2,-328(s0)
    32a8:	03c5a603          	lw	a2,60(a1)
    32ac:	eac43823          	sd	a2,-336(s0)
    32b0:	0385a603          	lw	a2,56(a1)
    32b4:	eac43423          	sd	a2,-344(s0)
    32b8:	0345a603          	lw	a2,52(a1)
    32bc:	eac43023          	sd	a2,-352(s0)
    32c0:	0305a603          	lw	a2,48(a1)
    32c4:	e8c43c23          	sd	a2,-360(s0)
    32c8:	02c5a603          	lw	a2,44(a1)
    32cc:	e8c43823          	sd	a2,-368(s0)
    32d0:	0285a603          	lw	a2,40(a1)
    32d4:	e8c43423          	sd	a2,-376(s0)
    32d8:	0245a603          	lw	a2,36(a1)
    32dc:	07c52583          	lw	a1,124(a0)
    32e0:	000016b7          	lui	a3,0x1
    32e4:	40d406b3          	sub	a3,s0,a3
    32e8:	64b6b423          	sd	a1,1608(a3) # 1648 <.LBB64_4+0x4e0>
    32ec:	07852583          	lw	a1,120(a0)
    32f0:	000016b7          	lui	a3,0x1
    32f4:	40d406b3          	sub	a3,s0,a3
    32f8:	64b6b023          	sd	a1,1600(a3) # 1640 <.LBB64_4+0x4d8>
    32fc:	07452883          	lw	a7,116(a0)
    3300:	07052283          	lw	t0,112(a0)
    3304:	06c52303          	lw	t1,108(a0)
    3308:	06852383          	lw	t2,104(a0)
    330c:	06452e03          	lw	t3,100(a0)
    3310:	06052e83          	lw	t4,96(a0)
    3314:	05c52f03          	lw	t5,92(a0)
    3318:	05852f83          	lw	t6,88(a0)
    331c:	05452483          	lw	s1,84(a0)
    3320:	05052903          	lw	s2,80(a0)
    3324:	04c52983          	lw	s3,76(a0)
    3328:	04852a03          	lw	s4,72(a0)
    332c:	04452a83          	lw	s5,68(a0)
    3330:	04052b03          	lw	s6,64(a0)
    3334:	03c52b83          	lw	s7,60(a0)
    3338:	03852c03          	lw	s8,56(a0)
    333c:	03452c83          	lw	s9,52(a0)
    3340:	02452583          	lw	a1,36(a0)
    3344:	03052d03          	lw	s10,48(a0)
    3348:	02c52d83          	lw	s11,44(a0)
    334c:	02852083          	lw	ra,40(a0)
    3350:	00259593          	slli	a1,a1,0x2
    3354:	f9143823          	sd	a7,-112(s0)
    3358:	00001537          	lui	a0,0x1
    335c:	40a40533          	sub	a0,s0,a0
    3360:	68c53c23          	sd	a2,1688(a0) # 1698 <.LBB64_4+0x530>
    3364:	00001537          	lui	a0,0x1
    3368:	40a40533          	sub	a0,s0,a0
    336c:	6d853503          	ld	a0,1752(a0) # 16d8 <.LBB64_4+0x570>
    3370:	00c50533          	add	a0,a0,a2
    3374:	00001637          	lui	a2,0x1
    3378:	40c40633          	sub	a2,s0,a2
    337c:	6cb63c23          	sd	a1,1752(a2) # 16d8 <.LBB64_4+0x570>
    3380:	00b50533          	add	a0,a0,a1
    3384:	000015b7          	lui	a1,0x1
    3388:	40b405b3          	sub	a1,s0,a1
    338c:	6605b683          	ld	a3,1632(a1) # 1660 <.LBB64_4+0x4f8>
    3390:	01c6a583          	lw	a1,28(a3)
    3394:	f8b43423          	sd	a1,-120(s0)
    3398:	0186a583          	lw	a1,24(a3)
    339c:	00001637          	lui	a2,0x1
    33a0:	40c40633          	sub	a2,s0,a2
    33a4:	d8b63423          	sd	a1,-632(a2) # d88 <.LBB64_3+0xb74>
    33a8:	0146a583          	lw	a1,20(a3)
    33ac:	00001637          	lui	a2,0x1
    33b0:	40c40633          	sub	a2,s0,a2
    33b4:	d8b63023          	sd	a1,-640(a2) # d80 <.LBB64_3+0xb6c>
    33b8:	0106a783          	lw	a5,16(a3)
    33bc:	00c6a583          	lw	a1,12(a3)
    33c0:	0086a603          	lw	a2,8(a3)
    33c4:	0046a683          	lw	a3,4(a3)
    33c8:	00e50533          	add	a0,a0,a4
    33cc:	1005051b          	addiw	a0,a0,256
    33d0:	40000837          	lui	a6,0x40000
    33d4:	000018b7          	lui	a7,0x1
    33d8:	411408b3          	sub	a7,s0,a7
    33dc:	6708b823          	sd	a6,1648(a7) # 1670 <.LBB64_4+0x508>
    33e0:	f9043883          	ld	a7,-112(s0)
    33e4:	00001837          	lui	a6,0x1
    33e8:	41040833          	sub	a6,s0,a6
    33ec:	d8a83823          	sd	a0,-624(a6) # d90 <.LBB64_3+0xb7c>
    33f0:	00055a63          	bgez	a0,3404 <.LBB64_26>
    33f4:	c0000537          	lui	a0,0xc0000
    33f8:	00001837          	lui	a6,0x1
    33fc:	41040833          	sub	a6,s0,a6
    3400:	66a83823          	sd	a0,1648(a6) # 1670 <.LBB64_4+0x508>

0000000000003404 <.LBB64_26>:
    3404:	00209093          	slli	ra,ra,0x2
    3408:	e8843503          	ld	a0,-376(s0)
    340c:	00001837          	lui	a6,0x1
    3410:	41040833          	sub	a6,s0,a6
    3414:	6e083803          	ld	a6,1760(a6) # 16e0 <.LBB64_4+0x578>
    3418:	00a80533          	add	a0,a6,a0
    341c:	00001837          	lui	a6,0x1
    3420:	41040833          	sub	a6,s0,a6
    3424:	6e183023          	sd	ra,1760(a6) # 16e0 <.LBB64_4+0x578>
    3428:	00150533          	add	a0,a0,ra
    342c:	00e50533          	add	a0,a0,a4
    3430:	1005051b          	addiw	a0,a0,256 # ffffffffc0000100 <.Lfunc_end80+0xffffffffbffd7738>
    3434:	400000b7          	lui	ra,0x40000
    3438:	00001837          	lui	a6,0x1
    343c:	41040833          	sub	a6,s0,a6
    3440:	daa83023          	sd	a0,-608(a6) # da0 <.LBB64_3+0xb8c>
    3444:	00001837          	lui	a6,0x1
    3448:	41040833          	sub	a6,s0,a6
    344c:	76883803          	ld	a6,1896(a6) # 1768 <.LBB64_5+0x64>
    3450:	00055463          	bgez	a0,3458 <.LBB64_28>
    3454:	c00000b7          	lui	ra,0xc0000

0000000000003458 <.LBB64_28>:
    3458:	f8b43823          	sd	a1,-112(s0)
    345c:	00001537          	lui	a0,0x1
    3460:	40a40533          	sub	a0,s0,a0
    3464:	d8153c23          	sd	ra,-616(a0) # d98 <.LBB64_3+0xb84>
    3468:	002d9d93          	slli	s11,s11,0x2
    346c:	e9043503          	ld	a0,-368(s0)
    3470:	000015b7          	lui	a1,0x1
    3474:	40b405b3          	sub	a1,s0,a1
    3478:	6e85b083          	ld	ra,1768(a1) # 16e8 <.LBB64_4+0x580>
    347c:	00a08533          	add	a0,ra,a0
    3480:	000015b7          	lui	a1,0x1
    3484:	40b405b3          	sub	a1,s0,a1
    3488:	6fb5b423          	sd	s11,1768(a1) # 16e8 <.LBB64_4+0x580>
    348c:	01b50533          	add	a0,a0,s11
    3490:	00e50533          	add	a0,a0,a4
    3494:	1005051b          	addiw	a0,a0,256
    3498:	40000db7          	lui	s11,0x40000
    349c:	b4043083          	ld	ra,-1216(s0)
    34a0:	000015b7          	lui	a1,0x1
    34a4:	40b405b3          	sub	a1,s0,a1
    34a8:	daa5b823          	sd	a0,-592(a1) # db0 <.LBB64_3+0xb9c>
    34ac:	f9043583          	ld	a1,-112(s0)
    34b0:	00055463          	bgez	a0,34b8 <.LBB64_30>
    34b4:	c0000db7          	lui	s11,0xc0000

00000000000034b8 <.LBB64_30>:
    34b8:	f8b43823          	sd	a1,-112(s0)
    34bc:	00001537          	lui	a0,0x1
    34c0:	40a40533          	sub	a0,s0,a0
    34c4:	dbb53423          	sd	s11,-600(a0) # da8 <.LBB64_3+0xb94>
    34c8:	002d1d13          	slli	s10,s10,0x2
    34cc:	e9843503          	ld	a0,-360(s0)
    34d0:	000015b7          	lui	a1,0x1
    34d4:	40b405b3          	sub	a1,s0,a1
    34d8:	6f05bd83          	ld	s11,1776(a1) # 16f0 <.LBB64_4+0x588>
    34dc:	00ad8533          	add	a0,s11,a0
    34e0:	000015b7          	lui	a1,0x1
    34e4:	40b405b3          	sub	a1,s0,a1
    34e8:	6fa5b823          	sd	s10,1776(a1) # 16f0 <.LBB64_4+0x588>
    34ec:	01a50533          	add	a0,a0,s10
    34f0:	00e50533          	add	a0,a0,a4
    34f4:	1005051b          	addiw	a0,a0,256
    34f8:	40000d37          	lui	s10,0x40000
    34fc:	b1043d83          	ld	s11,-1264(s0)
    3500:	000015b7          	lui	a1,0x1
    3504:	40b405b3          	sub	a1,s0,a1
    3508:	dca5b023          	sd	a0,-576(a1) # dc0 <.LBB64_3+0xbac>
    350c:	f9043583          	ld	a1,-112(s0)
    3510:	00055463          	bgez	a0,3518 <.LBB64_32>
    3514:	c0000d37          	lui	s10,0xc0000

0000000000003518 <.LBB64_32>:
    3518:	f8b43823          	sd	a1,-112(s0)
    351c:	00001537          	lui	a0,0x1
    3520:	40a40533          	sub	a0,s0,a0
    3524:	dba53c23          	sd	s10,-584(a0) # db8 <.LBB64_3+0xba4>
    3528:	002c9c93          	slli	s9,s9,0x2
    352c:	ea043503          	ld	a0,-352(s0)
    3530:	000015b7          	lui	a1,0x1
    3534:	40b405b3          	sub	a1,s0,a1
    3538:	6f85bd03          	ld	s10,1784(a1) # 16f8 <.LBB64_4+0x590>
    353c:	00ad0533          	add	a0,s10,a0
    3540:	000c8d13          	mv	s10,s9
    3544:	01950533          	add	a0,a0,s9
    3548:	00e50533          	add	a0,a0,a4
    354c:	1005051b          	addiw	a0,a0,256
    3550:	40000cb7          	lui	s9,0x40000
    3554:	000015b7          	lui	a1,0x1
    3558:	40b405b3          	sub	a1,s0,a1
    355c:	dca5b823          	sd	a0,-560(a1) # dd0 <.LBB64_3+0xbbc>
    3560:	f9043583          	ld	a1,-112(s0)
    3564:	00055463          	bgez	a0,356c <.LBB64_34>
    3568:	c0000cb7          	lui	s9,0xc0000

000000000000356c <.LBB64_34>:
    356c:	f8b43823          	sd	a1,-112(s0)
    3570:	00001537          	lui	a0,0x1
    3574:	40a40533          	sub	a0,s0,a0
    3578:	dd953423          	sd	s9,-568(a0) # dc8 <.LBB64_3+0xbb4>
    357c:	002c1c13          	slli	s8,s8,0x2
    3580:	ea843503          	ld	a0,-344(s0)
    3584:	000015b7          	lui	a1,0x1
    3588:	40b405b3          	sub	a1,s0,a1
    358c:	7005bc83          	ld	s9,1792(a1) # 1700 <.LBB64_4+0x598>
    3590:	00ac8533          	add	a0,s9,a0
    3594:	000015b7          	lui	a1,0x1
    3598:	40b405b3          	sub	a1,s0,a1
    359c:	7185b023          	sd	s8,1792(a1) # 1700 <.LBB64_4+0x598>
    35a0:	01850533          	add	a0,a0,s8
    35a4:	00e50533          	add	a0,a0,a4
    35a8:	1005051b          	addiw	a0,a0,256
    35ac:	40000c37          	lui	s8,0x40000
    35b0:	da843c83          	ld	s9,-600(s0)
    35b4:	000015b7          	lui	a1,0x1
    35b8:	40b405b3          	sub	a1,s0,a1
    35bc:	dea5b023          	sd	a0,-544(a1) # de0 <.LBB64_3+0xbcc>
    35c0:	f9043583          	ld	a1,-112(s0)
    35c4:	00055463          	bgez	a0,35cc <.LBB64_36>
    35c8:	c0000c37          	lui	s8,0xc0000

00000000000035cc <.LBB64_36>:
    35cc:	f8b43823          	sd	a1,-112(s0)
    35d0:	00001537          	lui	a0,0x1
    35d4:	40a40533          	sub	a0,s0,a0
    35d8:	dd853c23          	sd	s8,-552(a0) # dd8 <.LBB64_3+0xbc4>
    35dc:	002b9b93          	slli	s7,s7,0x2
    35e0:	eb043503          	ld	a0,-336(s0)
    35e4:	000015b7          	lui	a1,0x1
    35e8:	40b405b3          	sub	a1,s0,a1
    35ec:	7085bc03          	ld	s8,1800(a1) # 1708 <.LBB64_5+0x4>
    35f0:	00ac0533          	add	a0,s8,a0
    35f4:	000015b7          	lui	a1,0x1
    35f8:	40b405b3          	sub	a1,s0,a1
    35fc:	7175b423          	sd	s7,1800(a1) # 1708 <.LBB64_5+0x4>
    3600:	01750533          	add	a0,a0,s7
    3604:	00e50533          	add	a0,a0,a4
    3608:	1005051b          	addiw	a0,a0,256
    360c:	40000bb7          	lui	s7,0x40000
    3610:	000015b7          	lui	a1,0x1
    3614:	40b405b3          	sub	a1,s0,a1
    3618:	d205bc03          	ld	s8,-736(a1) # d20 <.LBB64_3+0xb0c>
    361c:	000015b7          	lui	a1,0x1
    3620:	40b405b3          	sub	a1,s0,a1
    3624:	dea5b823          	sd	a0,-528(a1) # df0 <.LBB64_3+0xbdc>
    3628:	f9043583          	ld	a1,-112(s0)
    362c:	00055463          	bgez	a0,3634 <.LBB64_38>
    3630:	c0000bb7          	lui	s7,0xc0000

0000000000003634 <.LBB64_38>:
    3634:	f8b43823          	sd	a1,-112(s0)
    3638:	00001537          	lui	a0,0x1
    363c:	40a40533          	sub	a0,s0,a0
    3640:	df753423          	sd	s7,-536(a0) # de8 <.LBB64_3+0xbd4>
    3644:	002b1b13          	slli	s6,s6,0x2
    3648:	eb843503          	ld	a0,-328(s0)
    364c:	000015b7          	lui	a1,0x1
    3650:	40b405b3          	sub	a1,s0,a1
    3654:	7105bb83          	ld	s7,1808(a1) # 1710 <.LBB64_5+0xc>
    3658:	00ab8533          	add	a0,s7,a0
    365c:	000015b7          	lui	a1,0x1
    3660:	40b405b3          	sub	a1,s0,a1
    3664:	7165b823          	sd	s6,1808(a1) # 1710 <.LBB64_5+0xc>
    3668:	01650533          	add	a0,a0,s6
    366c:	00e50533          	add	a0,a0,a4
    3670:	1005051b          	addiw	a0,a0,256
    3674:	40000b37          	lui	s6,0x40000
    3678:	000015b7          	lui	a1,0x1
    367c:	40b405b3          	sub	a1,s0,a1
    3680:	6585bb83          	ld	s7,1624(a1) # 1658 <.LBB64_4+0x4f0>
    3684:	000015b7          	lui	a1,0x1
    3688:	40b405b3          	sub	a1,s0,a1
    368c:	e0a5b023          	sd	a0,-512(a1) # e00 <.LBB64_3+0xbec>
    3690:	f9043583          	ld	a1,-112(s0)
    3694:	00055463          	bgez	a0,369c <.LBB64_40>
    3698:	c0000b37          	lui	s6,0xc0000

000000000000369c <.LBB64_40>:
    369c:	00001537          	lui	a0,0x1
    36a0:	40a40533          	sub	a0,s0,a0
    36a4:	df653c23          	sd	s6,-520(a0) # df8 <.LBB64_3+0xbe4>
    36a8:	002a9a93          	slli	s5,s5,0x2
    36ac:	ec043503          	ld	a0,-320(s0)
    36b0:	00001b37          	lui	s6,0x1
    36b4:	41640b33          	sub	s6,s0,s6
    36b8:	718b3b03          	ld	s6,1816(s6) # 1718 <.LBB64_5+0x14>
    36bc:	00ab0533          	add	a0,s6,a0
    36c0:	00001b37          	lui	s6,0x1
    36c4:	41640b33          	sub	s6,s0,s6
    36c8:	715b3c23          	sd	s5,1816(s6) # 1718 <.LBB64_5+0x14>
    36cc:	01550533          	add	a0,a0,s5
    36d0:	00e50533          	add	a0,a0,a4
    36d4:	1005051b          	addiw	a0,a0,256
    36d8:	40000ab7          	lui	s5,0x40000
    36dc:	00001b37          	lui	s6,0x1
    36e0:	41640b33          	sub	s6,s0,s6
    36e4:	675b3c23          	sd	s5,1656(s6) # 1678 <.LBB64_4+0x510>
    36e8:	db043b03          	ld	s6,-592(s0)
    36ec:	00001ab7          	lui	s5,0x1
    36f0:	41540ab3          	sub	s5,s0,s5
    36f4:	e0aab423          	sd	a0,-504(s5) # e08 <.LBB64_3+0xbf4>
    36f8:	00055a63          	bgez	a0,370c <.LBB64_42>
    36fc:	c0000537          	lui	a0,0xc0000
    3700:	00001ab7          	lui	s5,0x1
    3704:	41540ab3          	sub	s5,s0,s5
    3708:	66aabc23          	sd	a0,1656(s5) # 1678 <.LBB64_4+0x510>

000000000000370c <.LBB64_42>:
    370c:	002a1a13          	slli	s4,s4,0x2
    3710:	f1843503          	ld	a0,-232(s0)
    3714:	00001ab7          	lui	s5,0x1
    3718:	41540ab3          	sub	s5,s0,s5
    371c:	720aba83          	ld	s5,1824(s5) # 1720 <.LBB64_5+0x1c>
    3720:	00aa8533          	add	a0,s5,a0
    3724:	00001ab7          	lui	s5,0x1
    3728:	41540ab3          	sub	s5,s0,s5
    372c:	734ab023          	sd	s4,1824(s5) # 1720 <.LBB64_5+0x1c>
    3730:	01450533          	add	a0,a0,s4
    3734:	00e50533          	add	a0,a0,a4
    3738:	1005051b          	addiw	a0,a0,256 # ffffffffc0000100 <.Lfunc_end80+0xffffffffbffd7738>
    373c:	40000a37          	lui	s4,0x40000
    3740:	00001ab7          	lui	s5,0x1
    3744:	41540ab3          	sub	s5,s0,s5
    3748:	e0aabc23          	sd	a0,-488(s5) # e18 <.LBB64_3+0xc04>
    374c:	00001ab7          	lui	s5,0x1
    3750:	41540ab3          	sub	s5,s0,s5
    3754:	728aba83          	ld	s5,1832(s5) # 1728 <.LBB64_5+0x24>
    3758:	00055463          	bgez	a0,3760 <.LBB64_44>
    375c:	c0000a37          	lui	s4,0xc0000

0000000000003760 <.LBB64_44>:
    3760:	00001537          	lui	a0,0x1
    3764:	40a40533          	sub	a0,s0,a0
    3768:	e1453823          	sd	s4,-496(a0) # e10 <.LBB64_3+0xbfc>
    376c:	00299993          	slli	s3,s3,0x2
    3770:	f2043503          	ld	a0,-224(s0)
    3774:	00aa8533          	add	a0,s5,a0
    3778:	00001a37          	lui	s4,0x1
    377c:	41440a33          	sub	s4,s0,s4
    3780:	733a3423          	sd	s3,1832(s4) # 1728 <.LBB64_5+0x24>
    3784:	01350533          	add	a0,a0,s3
    3788:	00e50533          	add	a0,a0,a4
    378c:	1005051b          	addiw	a0,a0,256
    3790:	400009b7          	lui	s3,0x40000
    3794:	b0043a03          	ld	s4,-1280(s0)
    3798:	00001ab7          	lui	s5,0x1
    379c:	41540ab3          	sub	s5,s0,s5
    37a0:	e2aab423          	sd	a0,-472(s5) # e28 <.LBB64_3+0xc14>
    37a4:	00055463          	bgez	a0,37ac <.LBB64_46>
    37a8:	c00009b7          	lui	s3,0xc0000

00000000000037ac <.LBB64_46>:
    37ac:	00291913          	slli	s2,s2,0x2
    37b0:	f2843503          	ld	a0,-216(s0)
    37b4:	00001ab7          	lui	s5,0x1
    37b8:	41540ab3          	sub	s5,s0,s5
    37bc:	730aba83          	ld	s5,1840(s5) # 1730 <.LBB64_5+0x2c>
    37c0:	00aa8533          	add	a0,s5,a0
    37c4:	00001ab7          	lui	s5,0x1
    37c8:	41540ab3          	sub	s5,s0,s5
    37cc:	732ab823          	sd	s2,1840(s5) # 1730 <.LBB64_5+0x2c>
    37d0:	01250533          	add	a0,a0,s2
    37d4:	00e50533          	add	a0,a0,a4
    37d8:	1005051b          	addiw	a0,a0,256
    37dc:	40000937          	lui	s2,0x40000
    37e0:	00001ab7          	lui	s5,0x1
    37e4:	41540ab3          	sub	s5,s0,s5
    37e8:	e2aabc23          	sd	a0,-456(s5) # e38 <.LBB64_3+0xc24>
    37ec:	00055463          	bgez	a0,37f4 <.LBB64_48>
    37f0:	c0000937          	lui	s2,0xc0000

00000000000037f4 <.LBB64_48>:
    37f4:	00001537          	lui	a0,0x1
    37f8:	40a40533          	sub	a0,s0,a0
    37fc:	e3253823          	sd	s2,-464(a0) # e30 <.LBB64_3+0xc1c>
    3800:	00249493          	slli	s1,s1,0x2
    3804:	f3043503          	ld	a0,-208(s0)
    3808:	00001937          	lui	s2,0x1
    380c:	41240933          	sub	s2,s0,s2
    3810:	73893903          	ld	s2,1848(s2) # 1738 <.LBB64_5+0x34>
    3814:	00a90533          	add	a0,s2,a0
    3818:	00001937          	lui	s2,0x1
    381c:	41240933          	sub	s2,s0,s2
    3820:	72993c23          	sd	s1,1848(s2) # 1738 <.LBB64_5+0x34>
    3824:	00950533          	add	a0,a0,s1
    3828:	00e50533          	add	a0,a0,a4
    382c:	1005051b          	addiw	a0,a0,256
    3830:	400004b7          	lui	s1,0x40000
    3834:	f0043903          	ld	s2,-256(s0)
    3838:	00001ab7          	lui	s5,0x1
    383c:	41540ab3          	sub	s5,s0,s5
    3840:	e4aab423          	sd	a0,-440(s5) # e48 <.LBB64_3+0xc34>
    3844:	00055463          	bgez	a0,384c <.LBB64_50>
    3848:	c00004b7          	lui	s1,0xc0000

000000000000384c <.LBB64_50>:
    384c:	00001537          	lui	a0,0x1
    3850:	40a40533          	sub	a0,s0,a0
    3854:	e4953023          	sd	s1,-448(a0) # e40 <.LBB64_3+0xc2c>
    3858:	002f9f93          	slli	t6,t6,0x2
    385c:	f3843503          	ld	a0,-200(s0)
    3860:	000014b7          	lui	s1,0x1
    3864:	409404b3          	sub	s1,s0,s1
    3868:	7404b483          	ld	s1,1856(s1) # 1740 <.LBB64_5+0x3c>
    386c:	00a48533          	add	a0,s1,a0
    3870:	000014b7          	lui	s1,0x1
    3874:	409404b3          	sub	s1,s0,s1
    3878:	75f4b023          	sd	t6,1856(s1) # 1740 <.LBB64_5+0x3c>
    387c:	01f50533          	add	a0,a0,t6
    3880:	00e50533          	add	a0,a0,a4
    3884:	1005051b          	addiw	a0,a0,256
    3888:	40000fb7          	lui	t6,0x40000
    388c:	dc043483          	ld	s1,-576(s0)
    3890:	00001ab7          	lui	s5,0x1
    3894:	41540ab3          	sub	s5,s0,s5
    3898:	e4aabc23          	sd	a0,-424(s5) # e58 <.LBB64_3+0xc44>
    389c:	00055463          	bgez	a0,38a4 <.LBB64_52>
    38a0:	c0000fb7          	lui	t6,0xc0000

00000000000038a4 <.LBB64_52>:
    38a4:	00001537          	lui	a0,0x1
    38a8:	40a40533          	sub	a0,s0,a0
    38ac:	e5f53823          	sd	t6,-432(a0) # e50 <.LBB64_3+0xc3c>
    38b0:	002f1f13          	slli	t5,t5,0x2
    38b4:	f4043503          	ld	a0,-192(s0)
    38b8:	00001fb7          	lui	t6,0x1
    38bc:	41f40fb3          	sub	t6,s0,t6
    38c0:	680fbf83          	ld	t6,1664(t6) # 1680 <.LBB64_4+0x518>
    38c4:	00af8533          	add	a0,t6,a0
    38c8:	00001fb7          	lui	t6,0x1
    38cc:	41f40fb3          	sub	t6,s0,t6
    38d0:	6fefbc23          	sd	t5,1784(t6) # 16f8 <.LBB64_4+0x590>
    38d4:	01e50533          	add	a0,a0,t5
    38d8:	00e50533          	add	a0,a0,a4
    38dc:	1005051b          	addiw	a0,a0,256
    38e0:	40000f37          	lui	t5,0x40000
    38e4:	bd843f83          	ld	t6,-1064(s0)
    38e8:	00001ab7          	lui	s5,0x1
    38ec:	41540ab3          	sub	s5,s0,s5
    38f0:	e6aab423          	sd	a0,-408(s5) # e68 <.LBB64_3+0xc54>
    38f4:	00055463          	bgez	a0,38fc <.LBB64_54>
    38f8:	c0000f37          	lui	t5,0xc0000

00000000000038fc <.LBB64_54>:
    38fc:	00001537          	lui	a0,0x1
    3900:	40a40533          	sub	a0,s0,a0
    3904:	e7e53023          	sd	t5,-416(a0) # e60 <.LBB64_3+0xc4c>
    3908:	002e9e93          	slli	t4,t4,0x2
    390c:	f4843503          	ld	a0,-184(s0)
    3910:	00001f37          	lui	t5,0x1
    3914:	41e40f33          	sub	t5,s0,t5
    3918:	748f3f03          	ld	t5,1864(t5) # 1748 <.LBB64_5+0x44>
    391c:	00af0533          	add	a0,t5,a0
    3920:	00001f37          	lui	t5,0x1
    3924:	41e40f33          	sub	t5,s0,t5
    3928:	75df3423          	sd	t4,1864(t5) # 1748 <.LBB64_5+0x44>
    392c:	01d50533          	add	a0,a0,t4
    3930:	00e50533          	add	a0,a0,a4
    3934:	1005051b          	addiw	a0,a0,256
    3938:	40000eb7          	lui	t4,0x40000
    393c:	dc843f03          	ld	t5,-568(s0)
    3940:	00001ab7          	lui	s5,0x1
    3944:	41540ab3          	sub	s5,s0,s5
    3948:	e6aabc23          	sd	a0,-392(s5) # e78 <.LBB64_3+0xc64>
    394c:	00055463          	bgez	a0,3954 <.LBB64_56>
    3950:	c0000eb7          	lui	t4,0xc0000

0000000000003954 <.LBB64_56>:
    3954:	00001537          	lui	a0,0x1
    3958:	40a40533          	sub	a0,s0,a0
    395c:	e7d53823          	sd	t4,-400(a0) # e70 <.LBB64_3+0xc5c>
    3960:	002e1e13          	slli	t3,t3,0x2
    3964:	f5043503          	ld	a0,-176(s0)
    3968:	00001eb7          	lui	t4,0x1
    396c:	41d40eb3          	sub	t4,s0,t4
    3970:	750ebe83          	ld	t4,1872(t4) # 1750 <.LBB64_5+0x4c>
    3974:	00ae8533          	add	a0,t4,a0
    3978:	00001eb7          	lui	t4,0x1
    397c:	41d40eb3          	sub	t4,s0,t4
    3980:	75ceb823          	sd	t3,1872(t4) # 1750 <.LBB64_5+0x4c>
    3984:	01c50533          	add	a0,a0,t3
    3988:	00e50533          	add	a0,a0,a4
    398c:	1005051b          	addiw	a0,a0,256
    3990:	40000e37          	lui	t3,0x40000
    3994:	dd043e83          	ld	t4,-560(s0)
    3998:	00001ab7          	lui	s5,0x1
    399c:	41540ab3          	sub	s5,s0,s5
    39a0:	e8aab423          	sd	a0,-376(s5) # e88 <.LBB64_3+0xc74>
    39a4:	00055463          	bgez	a0,39ac <.LBB64_58>
    39a8:	c0000e37          	lui	t3,0xc0000

00000000000039ac <.LBB64_58>:
    39ac:	00001537          	lui	a0,0x1
    39b0:	40a40533          	sub	a0,s0,a0
    39b4:	e9c53023          	sd	t3,-384(a0) # e80 <.LBB64_3+0xc6c>
    39b8:	00239393          	slli	t2,t2,0x2
    39bc:	f5843503          	ld	a0,-168(s0)
    39c0:	00001e37          	lui	t3,0x1
    39c4:	41c40e33          	sub	t3,s0,t3
    39c8:	758e3e03          	ld	t3,1880(t3) # 1758 <.LBB64_5+0x54>
    39cc:	00ae0533          	add	a0,t3,a0
    39d0:	00001e37          	lui	t3,0x1
    39d4:	41c40e33          	sub	t3,s0,t3
    39d8:	747e3c23          	sd	t2,1880(t3) # 1758 <.LBB64_5+0x54>
    39dc:	00750533          	add	a0,a0,t2
    39e0:	00e50533          	add	a0,a0,a4
    39e4:	1005051b          	addiw	a0,a0,256
    39e8:	400003b7          	lui	t2,0x40000
    39ec:	dd843e03          	ld	t3,-552(s0)
    39f0:	00001ab7          	lui	s5,0x1
    39f4:	41540ab3          	sub	s5,s0,s5
    39f8:	e8aabc23          	sd	a0,-360(s5) # e98 <.LBB64_3+0xc84>
    39fc:	00055463          	bgez	a0,3a04 <.LBB64_60>
    3a00:	c00003b7          	lui	t2,0xc0000

0000000000003a04 <.LBB64_60>:
    3a04:	00001537          	lui	a0,0x1
    3a08:	40a40533          	sub	a0,s0,a0
    3a0c:	e8753823          	sd	t2,-368(a0) # e90 <.LBB64_3+0xc7c>
    3a10:	00231313          	slli	t1,t1,0x2
    3a14:	f6043503          	ld	a0,-160(s0)
    3a18:	000013b7          	lui	t2,0x1
    3a1c:	407403b3          	sub	t2,s0,t2
    3a20:	7603b383          	ld	t2,1888(t2) # 1760 <.LBB64_5+0x5c>
    3a24:	00a38533          	add	a0,t2,a0
    3a28:	000013b7          	lui	t2,0x1
    3a2c:	407403b3          	sub	t2,s0,t2
    3a30:	7663b023          	sd	t1,1888(t2) # 1760 <.LBB64_5+0x5c>
    3a34:	00650533          	add	a0,a0,t1
    3a38:	00e50533          	add	a0,a0,a4
    3a3c:	1005051b          	addiw	a0,a0,256
    3a40:	40000337          	lui	t1,0x40000
    3a44:	de043383          	ld	t2,-544(s0)
    3a48:	00001ab7          	lui	s5,0x1
    3a4c:	41540ab3          	sub	s5,s0,s5
    3a50:	eaaab423          	sd	a0,-344(s5) # ea8 <.LBB64_3+0xc94>
    3a54:	00055463          	bgez	a0,3a5c <.LBB64_62>
    3a58:	c0000337          	lui	t1,0xc0000

0000000000003a5c <.LBB64_62>:
    3a5c:	00001537          	lui	a0,0x1
    3a60:	40a40533          	sub	a0,s0,a0
    3a64:	ea653023          	sd	t1,-352(a0) # ea0 <.LBB64_3+0xc8c>
    3a68:	00229293          	slli	t0,t0,0x2
    3a6c:	f6843503          	ld	a0,-152(s0)
    3a70:	00001337          	lui	t1,0x1
    3a74:	40640333          	sub	t1,s0,t1
    3a78:	68833303          	ld	t1,1672(t1) # 1688 <.LBB64_4+0x520>
    3a7c:	00a30533          	add	a0,t1,a0
    3a80:	00001337          	lui	t1,0x1
    3a84:	40640333          	sub	t1,s0,t1
    3a88:	68533823          	sd	t0,1680(t1) # 1690 <.LBB64_4+0x528>
    3a8c:	00550533          	add	a0,a0,t0
    3a90:	00e50533          	add	a0,a0,a4
    3a94:	1005051b          	addiw	a0,a0,256
    3a98:	400002b7          	lui	t0,0x40000
    3a9c:	de843303          	ld	t1,-536(s0)
    3aa0:	00001ab7          	lui	s5,0x1
    3aa4:	41540ab3          	sub	s5,s0,s5
    3aa8:	eaaabc23          	sd	a0,-328(s5) # eb8 <.LBB64_3+0xca4>
    3aac:	00055463          	bgez	a0,3ab4 <.LBB64_64>
    3ab0:	c00002b7          	lui	t0,0xc0000

0000000000003ab4 <.LBB64_64>:
    3ab4:	00001537          	lui	a0,0x1
    3ab8:	40a40533          	sub	a0,s0,a0
    3abc:	ea553823          	sd	t0,-336(a0) # eb0 <.LBB64_3+0xc9c>
    3ac0:	00289893          	slli	a7,a7,0x2
    3ac4:	f7043503          	ld	a0,-144(s0)
    3ac8:	00a80533          	add	a0,a6,a0
    3acc:	00001837          	lui	a6,0x1
    3ad0:	41040833          	sub	a6,s0,a6
    3ad4:	77183423          	sd	a7,1896(a6) # 1768 <.LBB64_5+0x64>
    3ad8:	01150533          	add	a0,a0,a7
    3adc:	00e50533          	add	a0,a0,a4
    3ae0:	1005051b          	addiw	a0,a0,256
    3ae4:	400008b7          	lui	a7,0x40000
    3ae8:	df043283          	ld	t0,-528(s0)
    3aec:	00001837          	lui	a6,0x1
    3af0:	41040833          	sub	a6,s0,a6
    3af4:	eca83423          	sd	a0,-312(a6) # ec8 <.LBB64_3+0xcb4>
    3af8:	00055463          	bgez	a0,3b00 <.LBB64_66>
    3afc:	c00008b7          	lui	a7,0xc0000

0000000000003b00 <.LBB64_66>:
    3b00:	00001537          	lui	a0,0x1
    3b04:	40a40533          	sub	a0,s0,a0
    3b08:	ed153023          	sd	a7,-320(a0) # ec0 <.LBB64_3+0xcac>
    3b0c:	00001537          	lui	a0,0x1
    3b10:	40a40533          	sub	a0,s0,a0
    3b14:	64053803          	ld	a6,1600(a0) # 1640 <.LBB64_4+0x4d8>
    3b18:	00281813          	slli	a6,a6,0x2
    3b1c:	f7843503          	ld	a0,-136(s0)
    3b20:	000018b7          	lui	a7,0x1
    3b24:	411408b3          	sub	a7,s0,a7
    3b28:	7708b883          	ld	a7,1904(a7) # 1770 <.LBB64_5+0x6c>
    3b2c:	00a88533          	add	a0,a7,a0
    3b30:	000018b7          	lui	a7,0x1
    3b34:	411408b3          	sub	a7,s0,a7
    3b38:	7708b823          	sd	a6,1904(a7) # 1770 <.LBB64_5+0x6c>
    3b3c:	01050533          	add	a0,a0,a6
    3b40:	00e50533          	add	a0,a0,a4
    3b44:	1005051b          	addiw	a0,a0,256
    3b48:	40000837          	lui	a6,0x40000
    3b4c:	df843883          	ld	a7,-520(s0)
    3b50:	00001ab7          	lui	s5,0x1
    3b54:	41540ab3          	sub	s5,s0,s5
    3b58:	ecaabc23          	sd	a0,-296(s5) # ed8 <.LBB64_3+0xcc4>
    3b5c:	00055463          	bgez	a0,3b64 <.LBB64_68>
    3b60:	c0000837          	lui	a6,0xc0000

0000000000003b64 <.LBB64_68>:
    3b64:	00001537          	lui	a0,0x1
    3b68:	40a40533          	sub	a0,s0,a0
    3b6c:	e3353023          	sd	s3,-480(a0) # e20 <.LBB64_3+0xc0c>
    3b70:	00001537          	lui	a0,0x1
    3b74:	40a40533          	sub	a0,s0,a0
    3b78:	ed053823          	sd	a6,-304(a0) # ed0 <.LBB64_3+0xcbc>
    3b7c:	00001537          	lui	a0,0x1
    3b80:	40a40533          	sub	a0,s0,a0
    3b84:	64853803          	ld	a6,1608(a0) # 1648 <.LBB64_4+0x4e0>
    3b88:	00281813          	slli	a6,a6,0x2
    3b8c:	f8043503          	ld	a0,-128(s0)
    3b90:	000019b7          	lui	s3,0x1
    3b94:	413409b3          	sub	s3,s0,s3
    3b98:	7789b983          	ld	s3,1912(s3) # 1778 <.LBB64_5+0x74>
    3b9c:	00a98533          	add	a0,s3,a0
    3ba0:	000019b7          	lui	s3,0x1
    3ba4:	413409b3          	sub	s3,s0,s3
    3ba8:	7709bc23          	sd	a6,1912(s3) # 1778 <.LBB64_5+0x74>
    3bac:	01050533          	add	a0,a0,a6
    3bb0:	00e50533          	add	a0,a0,a4
    3bb4:	1005051b          	addiw	a0,a0,256
    3bb8:	40000737          	lui	a4,0x40000
    3bbc:	e0043803          	ld	a6,-512(s0)
    3bc0:	000019b7          	lui	s3,0x1
    3bc4:	413409b3          	sub	s3,s0,s3
    3bc8:	eea9b423          	sd	a0,-280(s3) # ee8 <.LBB64_3+0xcd4>
    3bcc:	00055463          	bgez	a0,3bd4 <.LBB64_70>
    3bd0:	c0000737          	lui	a4,0xc0000

0000000000003bd4 <.LBB64_70>:
    3bd4:	00001537          	lui	a0,0x1
    3bd8:	40a40533          	sub	a0,s0,a0
    3bdc:	eee53023          	sd	a4,-288(a0) # ee0 <.LBB64_3+0xccc>
    3be0:	e8043503          	ld	a0,-384(s0)
    3be4:	00001737          	lui	a4,0x1
    3be8:	40e40733          	sub	a4,s0,a4
    3bec:	78073703          	ld	a4,1920(a4) # 1780 <.LBB64_5+0x7c>
    3bf0:	00a70533          	add	a0,a4,a0
    3bf4:	e7843703          	ld	a4,-392(s0)
    3bf8:	00e50533          	add	a0,a0,a4
    3bfc:	00d50533          	add	a0,a0,a3
    3c00:	1005051b          	addiw	a0,a0,256
    3c04:	400009b7          	lui	s3,0x40000
    3c08:	e1043703          	ld	a4,-496(s0)
    3c0c:	00001ab7          	lui	s5,0x1
    3c10:	41540ab3          	sub	s5,s0,s5
    3c14:	eeaabc23          	sd	a0,-264(s5) # ef8 <.LBB64_3+0xce4>
    3c18:	00055463          	bgez	a0,3c20 <.LBB64_72>
    3c1c:	c00009b7          	lui	s3,0xc0000

0000000000003c20 <.LBB64_72>:
    3c20:	00001537          	lui	a0,0x1
    3c24:	40a40533          	sub	a0,s0,a0
    3c28:	ef353823          	sd	s3,-272(a0) # ef0 <.LBB64_3+0xcdc>
    3c2c:	e7043503          	ld	a0,-400(s0)
    3c30:	000019b7          	lui	s3,0x1
    3c34:	413409b3          	sub	s3,s0,s3
    3c38:	7889b983          	ld	s3,1928(s3) # 1788 <.LBB64_5+0x84>
    3c3c:	00a98533          	add	a0,s3,a0
    3c40:	e6843983          	ld	s3,-408(s0)
    3c44:	01350533          	add	a0,a0,s3
    3c48:	00d50533          	add	a0,a0,a3
    3c4c:	1005051b          	addiw	a0,a0,256
    3c50:	400009b7          	lui	s3,0x40000
    3c54:	00001ab7          	lui	s5,0x1
    3c58:	41540ab3          	sub	s5,s0,s5
    3c5c:	f0aab423          	sd	a0,-248(s5) # f08 <.LBB64_3+0xcf4>
    3c60:	00055463          	bgez	a0,3c68 <.LBB64_74>
    3c64:	c00009b7          	lui	s3,0xc0000

0000000000003c68 <.LBB64_74>:
    3c68:	00001537          	lui	a0,0x1
    3c6c:	40a40533          	sub	a0,s0,a0
    3c70:	f1353023          	sd	s3,-256(a0) # f00 <.LBB64_3+0xcec>
    3c74:	e6043503          	ld	a0,-416(s0)
    3c78:	000019b7          	lui	s3,0x1
    3c7c:	413409b3          	sub	s3,s0,s3
    3c80:	7909b983          	ld	s3,1936(s3) # 1790 <.LBB64_5+0x8c>
    3c84:	00a98533          	add	a0,s3,a0
    3c88:	e5843983          	ld	s3,-424(s0)
    3c8c:	01350533          	add	a0,a0,s3
    3c90:	00d50533          	add	a0,a0,a3
    3c94:	1005051b          	addiw	a0,a0,256
    3c98:	400009b7          	lui	s3,0x40000
    3c9c:	00001ab7          	lui	s5,0x1
    3ca0:	41540ab3          	sub	s5,s0,s5
    3ca4:	f0aabc23          	sd	a0,-232(s5) # f18 <.LBB64_3+0xd04>
    3ca8:	00055463          	bgez	a0,3cb0 <.LBB64_76>
    3cac:	c00009b7          	lui	s3,0xc0000

0000000000003cb0 <.LBB64_76>:
    3cb0:	00001537          	lui	a0,0x1
    3cb4:	40a40533          	sub	a0,s0,a0
    3cb8:	f1353823          	sd	s3,-240(a0) # f10 <.LBB64_3+0xcfc>
    3cbc:	e5043503          	ld	a0,-432(s0)
    3cc0:	000019b7          	lui	s3,0x1
    3cc4:	413409b3          	sub	s3,s0,s3
    3cc8:	7989b983          	ld	s3,1944(s3) # 1798 <.LBB64_5+0x94>
    3ccc:	00a98533          	add	a0,s3,a0
    3cd0:	e4843983          	ld	s3,-440(s0)
    3cd4:	01350533          	add	a0,a0,s3
    3cd8:	00d50533          	add	a0,a0,a3
    3cdc:	1005051b          	addiw	a0,a0,256
    3ce0:	400009b7          	lui	s3,0x40000
    3ce4:	00001ab7          	lui	s5,0x1
    3ce8:	41540ab3          	sub	s5,s0,s5
    3cec:	f2aab423          	sd	a0,-216(s5) # f28 <.LBB64_3+0xd14>
    3cf0:	00055463          	bgez	a0,3cf8 <.LBB64_78>
    3cf4:	c00009b7          	lui	s3,0xc0000

0000000000003cf8 <.LBB64_78>:
    3cf8:	00001537          	lui	a0,0x1
    3cfc:	40a40533          	sub	a0,s0,a0
    3d00:	f3353023          	sd	s3,-224(a0) # f20 <.LBB64_3+0xd0c>
    3d04:	e4043503          	ld	a0,-448(s0)
    3d08:	000019b7          	lui	s3,0x1
    3d0c:	413409b3          	sub	s3,s0,s3
    3d10:	7a09b983          	ld	s3,1952(s3) # 17a0 <.LBB64_5+0x9c>
    3d14:	00a98533          	add	a0,s3,a0
    3d18:	e3843983          	ld	s3,-456(s0)
    3d1c:	01350533          	add	a0,a0,s3
    3d20:	00d50533          	add	a0,a0,a3
    3d24:	1005051b          	addiw	a0,a0,256
    3d28:	400009b7          	lui	s3,0x40000
    3d2c:	00001ab7          	lui	s5,0x1
    3d30:	41540ab3          	sub	s5,s0,s5
    3d34:	f2aabc23          	sd	a0,-200(s5) # f38 <.LBB64_3+0xd24>
    3d38:	00055463          	bgez	a0,3d40 <.LBB64_80>
    3d3c:	c00009b7          	lui	s3,0xc0000

0000000000003d40 <.LBB64_80>:
    3d40:	00001537          	lui	a0,0x1
    3d44:	40a40533          	sub	a0,s0,a0
    3d48:	f3353823          	sd	s3,-208(a0) # f30 <.LBB64_3+0xd1c>
    3d4c:	e3043503          	ld	a0,-464(s0)
    3d50:	000019b7          	lui	s3,0x1
    3d54:	413409b3          	sub	s3,s0,s3
    3d58:	7a89b983          	ld	s3,1960(s3) # 17a8 <.LBB64_5+0xa4>
    3d5c:	00a98533          	add	a0,s3,a0
    3d60:	000019b7          	lui	s3,0x1
    3d64:	413409b3          	sub	s3,s0,s3
    3d68:	6d09b983          	ld	s3,1744(s3) # 16d0 <.LBB64_4+0x568>
    3d6c:	01350533          	add	a0,a0,s3
    3d70:	00d50533          	add	a0,a0,a3
    3d74:	1005051b          	addiw	a0,a0,256
    3d78:	400009b7          	lui	s3,0x40000
    3d7c:	00001ab7          	lui	s5,0x1
    3d80:	41540ab3          	sub	s5,s0,s5
    3d84:	f6aab423          	sd	a0,-152(s5) # f68 <.LBB64_3+0xd54>
    3d88:	00055463          	bgez	a0,3d90 <.LBB64_82>
    3d8c:	c00009b7          	lui	s3,0xc0000

0000000000003d90 <.LBB64_82>:
    3d90:	00001537          	lui	a0,0x1
    3d94:	40a40533          	sub	a0,s0,a0
    3d98:	f5353423          	sd	s3,-184(a0) # f48 <.LBB64_3+0xd34>
    3d9c:	00001537          	lui	a0,0x1
    3da0:	40a40533          	sub	a0,s0,a0
    3da4:	6c853503          	ld	a0,1736(a0) # 16c8 <.LBB64_4+0x560>
    3da8:	000019b7          	lui	s3,0x1
    3dac:	413409b3          	sub	s3,s0,s3
    3db0:	7b09b983          	ld	s3,1968(s3) # 17b0 <.LBB64_5+0xac>
    3db4:	00a98533          	add	a0,s3,a0
    3db8:	000019b7          	lui	s3,0x1
    3dbc:	413409b3          	sub	s3,s0,s3
    3dc0:	6c09b983          	ld	s3,1728(s3) # 16c0 <.LBB64_4+0x558>
    3dc4:	01350533          	add	a0,a0,s3
    3dc8:	00d50533          	add	a0,a0,a3
    3dcc:	1005051b          	addiw	a0,a0,256
    3dd0:	400009b7          	lui	s3,0x40000
    3dd4:	00001ab7          	lui	s5,0x1
    3dd8:	41540ab3          	sub	s5,s0,s5
    3ddc:	faaab423          	sd	a0,-88(s5) # fa8 <.LBB64_3+0xd94>
    3de0:	00055463          	bgez	a0,3de8 <.LBB64_84>
    3de4:	c00009b7          	lui	s3,0xc0000

0000000000003de8 <.LBB64_84>:
    3de8:	00001537          	lui	a0,0x1
    3dec:	40a40533          	sub	a0,s0,a0
    3df0:	f9353423          	sd	s3,-120(a0) # f88 <.LBB64_3+0xd74>
    3df4:	00001537          	lui	a0,0x1
    3df8:	40a40533          	sub	a0,s0,a0
    3dfc:	6b853503          	ld	a0,1720(a0) # 16b8 <.LBB64_4+0x550>
    3e00:	000019b7          	lui	s3,0x1
    3e04:	413409b3          	sub	s3,s0,s3
    3e08:	7b89b983          	ld	s3,1976(s3) # 17b8 <.LBB64_5+0xb4>
    3e0c:	00a98533          	add	a0,s3,a0
    3e10:	000019b7          	lui	s3,0x1
    3e14:	413409b3          	sub	s3,s0,s3
    3e18:	6b09b983          	ld	s3,1712(s3) # 16b0 <.LBB64_4+0x548>
    3e1c:	01350533          	add	a0,a0,s3
    3e20:	00d50533          	add	a0,a0,a3
    3e24:	1005051b          	addiw	a0,a0,256
    3e28:	400009b7          	lui	s3,0x40000
    3e2c:	00001ab7          	lui	s5,0x1
    3e30:	41540ab3          	sub	s5,s0,s5
    3e34:	feaab423          	sd	a0,-24(s5) # fe8 <.LBB64_3+0xdd4>
    3e38:	00055463          	bgez	a0,3e40 <.LBB64_86>
    3e3c:	c00009b7          	lui	s3,0xc0000

0000000000003e40 <.LBB64_86>:
    3e40:	00001537          	lui	a0,0x1
    3e44:	40a40533          	sub	a0,s0,a0
    3e48:	fd353823          	sd	s3,-48(a0) # fd0 <.LBB64_3+0xdbc>
    3e4c:	00001537          	lui	a0,0x1
    3e50:	40a40533          	sub	a0,s0,a0
    3e54:	6a853503          	ld	a0,1704(a0) # 16a8 <.LBB64_4+0x540>
    3e58:	000019b7          	lui	s3,0x1
    3e5c:	413409b3          	sub	s3,s0,s3
    3e60:	7c09b983          	ld	s3,1984(s3) # 17c0 <.LBB64_5+0xbc>
    3e64:	00a98533          	add	a0,s3,a0
    3e68:	000019b7          	lui	s3,0x1
    3e6c:	413409b3          	sub	s3,s0,s3
    3e70:	6a09b983          	ld	s3,1696(s3) # 16a0 <.LBB64_4+0x538>
    3e74:	01350533          	add	a0,a0,s3
    3e78:	00d50533          	add	a0,a0,a3
    3e7c:	1005051b          	addiw	a0,a0,256
    3e80:	400009b7          	lui	s3,0x40000
    3e84:	00001ab7          	lui	s5,0x1
    3e88:	41540ab3          	sub	s5,s0,s5
    3e8c:	00aab423          	sd	a0,8(s5) # 1008 <.LBB64_3+0xdf4>
    3e90:	00055463          	bgez	a0,3e98 <.LBB64_88>
    3e94:	c00009b7          	lui	s3,0xc0000

0000000000003e98 <.LBB64_88>:
    3e98:	00001537          	lui	a0,0x1
    3e9c:	40a40533          	sub	a0,s0,a0
    3ea0:	01353023          	sd	s3,0(a0) # 1000 <.LBB64_3+0xdec>
    3ea4:	00001537          	lui	a0,0x1
    3ea8:	40a40533          	sub	a0,s0,a0
    3eac:	69853503          	ld	a0,1688(a0) # 1698 <.LBB64_4+0x530>
    3eb0:	000019b7          	lui	s3,0x1
    3eb4:	413409b3          	sub	s3,s0,s3
    3eb8:	7c89b983          	ld	s3,1992(s3) # 17c8 <.LBB64_5+0xc4>
    3ebc:	00a98533          	add	a0,s3,a0
    3ec0:	000019b7          	lui	s3,0x1
    3ec4:	413409b3          	sub	s3,s0,s3
    3ec8:	6d89b983          	ld	s3,1752(s3) # 16d8 <.LBB64_4+0x570>
    3ecc:	01350533          	add	a0,a0,s3
    3ed0:	00d50533          	add	a0,a0,a3
    3ed4:	1005051b          	addiw	a0,a0,256
    3ed8:	400009b7          	lui	s3,0x40000
    3edc:	00001ab7          	lui	s5,0x1
    3ee0:	41540ab3          	sub	s5,s0,s5
    3ee4:	00aabc23          	sd	a0,24(s5) # 1018 <.LBB64_3+0xe04>
    3ee8:	00055463          	bgez	a0,3ef0 <.LBB64_90>
    3eec:	c00009b7          	lui	s3,0xc0000

0000000000003ef0 <.LBB64_90>:
    3ef0:	00001537          	lui	a0,0x1
    3ef4:	40a40533          	sub	a0,s0,a0
    3ef8:	01353823          	sd	s3,16(a0) # 1010 <.LBB64_3+0xdfc>
    3efc:	e8843503          	ld	a0,-376(s0)
    3f00:	000019b7          	lui	s3,0x1
    3f04:	413409b3          	sub	s3,s0,s3
    3f08:	7d09b983          	ld	s3,2000(s3) # 17d0 <.LBB64_5+0xcc>
    3f0c:	00a98533          	add	a0,s3,a0
    3f10:	000019b7          	lui	s3,0x1
    3f14:	413409b3          	sub	s3,s0,s3
    3f18:	6e09b983          	ld	s3,1760(s3) # 16e0 <.LBB64_4+0x578>
    3f1c:	01350533          	add	a0,a0,s3
    3f20:	00d50533          	add	a0,a0,a3
    3f24:	1005051b          	addiw	a0,a0,256
    3f28:	400009b7          	lui	s3,0x40000
    3f2c:	00001ab7          	lui	s5,0x1
    3f30:	41540ab3          	sub	s5,s0,s5
    3f34:	02aab423          	sd	a0,40(s5) # 1028 <.LBB64_3+0xe14>
    3f38:	00055463          	bgez	a0,3f40 <.LBB64_92>
    3f3c:	c00009b7          	lui	s3,0xc0000

0000000000003f40 <.LBB64_92>:
    3f40:	00001537          	lui	a0,0x1
    3f44:	40a40533          	sub	a0,s0,a0
    3f48:	03353023          	sd	s3,32(a0) # 1020 <.LBB64_3+0xe0c>
    3f4c:	e9043503          	ld	a0,-368(s0)
    3f50:	000019b7          	lui	s3,0x1
    3f54:	413409b3          	sub	s3,s0,s3
    3f58:	7d89b983          	ld	s3,2008(s3) # 17d8 <.LBB64_5+0xd4>
    3f5c:	00a98533          	add	a0,s3,a0
    3f60:	000019b7          	lui	s3,0x1
    3f64:	413409b3          	sub	s3,s0,s3
    3f68:	6e89b983          	ld	s3,1768(s3) # 16e8 <.LBB64_4+0x580>
    3f6c:	01350533          	add	a0,a0,s3
    3f70:	00d50533          	add	a0,a0,a3
    3f74:	1005051b          	addiw	a0,a0,256
    3f78:	400009b7          	lui	s3,0x40000
    3f7c:	00001ab7          	lui	s5,0x1
    3f80:	41540ab3          	sub	s5,s0,s5
    3f84:	02aabc23          	sd	a0,56(s5) # 1038 <.LBB64_3+0xe24>
    3f88:	00055463          	bgez	a0,3f90 <.LBB64_94>
    3f8c:	c00009b7          	lui	s3,0xc0000

0000000000003f90 <.LBB64_94>:
    3f90:	00001537          	lui	a0,0x1
    3f94:	40a40533          	sub	a0,s0,a0
    3f98:	03353823          	sd	s3,48(a0) # 1030 <.LBB64_3+0xe1c>
    3f9c:	e9843503          	ld	a0,-360(s0)
    3fa0:	000019b7          	lui	s3,0x1
    3fa4:	413409b3          	sub	s3,s0,s3
    3fa8:	7e09b983          	ld	s3,2016(s3) # 17e0 <.LBB64_5+0xdc>
    3fac:	00a98533          	add	a0,s3,a0
    3fb0:	000019b7          	lui	s3,0x1
    3fb4:	413409b3          	sub	s3,s0,s3
    3fb8:	6f09b983          	ld	s3,1776(s3) # 16f0 <.LBB64_4+0x588>
    3fbc:	01350533          	add	a0,a0,s3
    3fc0:	00d50533          	add	a0,a0,a3
    3fc4:	1005051b          	addiw	a0,a0,256
    3fc8:	400009b7          	lui	s3,0x40000
    3fcc:	00001ab7          	lui	s5,0x1
    3fd0:	41540ab3          	sub	s5,s0,s5
    3fd4:	04aab423          	sd	a0,72(s5) # 1048 <.LBB64_3+0xe34>
    3fd8:	00055463          	bgez	a0,3fe0 <.LBB64_96>
    3fdc:	c00009b7          	lui	s3,0xc0000

0000000000003fe0 <.LBB64_96>:
    3fe0:	00001537          	lui	a0,0x1
    3fe4:	40a40533          	sub	a0,s0,a0
    3fe8:	05353023          	sd	s3,64(a0) # 1040 <.LBB64_3+0xe2c>
    3fec:	ea043503          	ld	a0,-352(s0)
    3ff0:	000019b7          	lui	s3,0x1
    3ff4:	413409b3          	sub	s3,s0,s3
    3ff8:	7e89b983          	ld	s3,2024(s3) # 17e8 <.LBB64_5+0xe4>
    3ffc:	00a98533          	add	a0,s3,a0
    4000:	01a50533          	add	a0,a0,s10
    4004:	00d50533          	add	a0,a0,a3
    4008:	1005051b          	addiw	a0,a0,256
    400c:	400009b7          	lui	s3,0x40000
    4010:	00001ab7          	lui	s5,0x1
    4014:	41540ab3          	sub	s5,s0,s5
    4018:	04aabc23          	sd	a0,88(s5) # 1058 <.LBB64_3+0xe44>
    401c:	00055463          	bgez	a0,4024 <.LBB64_98>
    4020:	c00009b7          	lui	s3,0xc0000

0000000000004024 <.LBB64_98>:
    4024:	00001537          	lui	a0,0x1
    4028:	40a40533          	sub	a0,s0,a0
    402c:	05353823          	sd	s3,80(a0) # 1050 <.LBB64_3+0xe3c>
    4030:	ea843503          	ld	a0,-344(s0)
    4034:	000019b7          	lui	s3,0x1
    4038:	413409b3          	sub	s3,s0,s3
    403c:	7f09b983          	ld	s3,2032(s3) # 17f0 <.LBB64_5+0xec>
    4040:	00a98533          	add	a0,s3,a0
    4044:	000019b7          	lui	s3,0x1
    4048:	413409b3          	sub	s3,s0,s3
    404c:	7009b983          	ld	s3,1792(s3) # 1700 <.LBB64_4+0x598>
    4050:	01350533          	add	a0,a0,s3
    4054:	00d50533          	add	a0,a0,a3
    4058:	1005051b          	addiw	a0,a0,256
    405c:	400009b7          	lui	s3,0x40000
    4060:	00001ab7          	lui	s5,0x1
    4064:	41540ab3          	sub	s5,s0,s5
    4068:	06aab423          	sd	a0,104(s5) # 1068 <.LBB64_3+0xe54>
    406c:	00055463          	bgez	a0,4074 <.LBB64_100>
    4070:	c00009b7          	lui	s3,0xc0000

0000000000004074 <.LBB64_100>:
    4074:	00001537          	lui	a0,0x1
    4078:	40a40533          	sub	a0,s0,a0
    407c:	07353023          	sd	s3,96(a0) # 1060 <.LBB64_3+0xe4c>
    4080:	eb043503          	ld	a0,-336(s0)
    4084:	000019b7          	lui	s3,0x1
    4088:	413409b3          	sub	s3,s0,s3
    408c:	7f89b983          	ld	s3,2040(s3) # 17f8 <.LBB64_5+0xf4>
    4090:	00a98533          	add	a0,s3,a0
    4094:	000019b7          	lui	s3,0x1
    4098:	413409b3          	sub	s3,s0,s3
    409c:	7089b983          	ld	s3,1800(s3) # 1708 <.LBB64_5+0x4>
    40a0:	01350533          	add	a0,a0,s3
    40a4:	00d50533          	add	a0,a0,a3
    40a8:	1005051b          	addiw	a0,a0,256
    40ac:	400009b7          	lui	s3,0x40000
    40b0:	00001ab7          	lui	s5,0x1
    40b4:	41540ab3          	sub	s5,s0,s5
    40b8:	06aabc23          	sd	a0,120(s5) # 1078 <.LBB64_3+0xe64>
    40bc:	00055463          	bgez	a0,40c4 <.LBB64_102>
    40c0:	c00009b7          	lui	s3,0xc0000

00000000000040c4 <.LBB64_102>:
    40c4:	00001537          	lui	a0,0x1
    40c8:	40a40533          	sub	a0,s0,a0
    40cc:	07353823          	sd	s3,112(a0) # 1070 <.LBB64_3+0xe5c>
    40d0:	eb843503          	ld	a0,-328(s0)
    40d4:	80043983          	ld	s3,-2048(s0)
    40d8:	00a98533          	add	a0,s3,a0
    40dc:	000019b7          	lui	s3,0x1
    40e0:	413409b3          	sub	s3,s0,s3
    40e4:	7109b983          	ld	s3,1808(s3) # 1710 <.LBB64_5+0xc>
    40e8:	01350533          	add	a0,a0,s3
    40ec:	00d50533          	add	a0,a0,a3
    40f0:	1005051b          	addiw	a0,a0,256
    40f4:	400009b7          	lui	s3,0x40000
    40f8:	00001ab7          	lui	s5,0x1
    40fc:	41540ab3          	sub	s5,s0,s5
    4100:	08aab423          	sd	a0,136(s5) # 1088 <.LBB64_3+0xe74>
    4104:	00055463          	bgez	a0,410c <.LBB64_104>
    4108:	c00009b7          	lui	s3,0xc0000

000000000000410c <.LBB64_104>:
    410c:	00001537          	lui	a0,0x1
    4110:	40a40533          	sub	a0,s0,a0
    4114:	09353023          	sd	s3,128(a0) # 1080 <.LBB64_3+0xe6c>
    4118:	ec043503          	ld	a0,-320(s0)
    411c:	80843983          	ld	s3,-2040(s0)
    4120:	00a98533          	add	a0,s3,a0
    4124:	000019b7          	lui	s3,0x1
    4128:	413409b3          	sub	s3,s0,s3
    412c:	7189b983          	ld	s3,1816(s3) # 1718 <.LBB64_5+0x14>
    4130:	01350533          	add	a0,a0,s3
    4134:	00d50533          	add	a0,a0,a3
    4138:	1005051b          	addiw	a0,a0,256
    413c:	400009b7          	lui	s3,0x40000
    4140:	00001ab7          	lui	s5,0x1
    4144:	41540ab3          	sub	s5,s0,s5
    4148:	08aabc23          	sd	a0,152(s5) # 1098 <.LBB64_3+0xe84>
    414c:	00055463          	bgez	a0,4154 <.LBB64_106>
    4150:	c00009b7          	lui	s3,0xc0000

0000000000004154 <.LBB64_106>:
    4154:	00001537          	lui	a0,0x1
    4158:	40a40533          	sub	a0,s0,a0
    415c:	09353823          	sd	s3,144(a0) # 1090 <.LBB64_3+0xe7c>
    4160:	f1843503          	ld	a0,-232(s0)
    4164:	81043983          	ld	s3,-2032(s0)
    4168:	00a98533          	add	a0,s3,a0
    416c:	000019b7          	lui	s3,0x1
    4170:	413409b3          	sub	s3,s0,s3
    4174:	7209b983          	ld	s3,1824(s3) # 1720 <.LBB64_5+0x1c>
    4178:	01350533          	add	a0,a0,s3
    417c:	00d50533          	add	a0,a0,a3
    4180:	1005051b          	addiw	a0,a0,256
    4184:	400009b7          	lui	s3,0x40000
    4188:	00001ab7          	lui	s5,0x1
    418c:	41540ab3          	sub	s5,s0,s5
    4190:	0aaab423          	sd	a0,168(s5) # 10a8 <.LBB64_3+0xe94>
    4194:	00055463          	bgez	a0,419c <.LBB64_108>
    4198:	c00009b7          	lui	s3,0xc0000

000000000000419c <.LBB64_108>:
    419c:	00001537          	lui	a0,0x1
    41a0:	40a40533          	sub	a0,s0,a0
    41a4:	0b353023          	sd	s3,160(a0) # 10a0 <.LBB64_3+0xe8c>
    41a8:	f2043503          	ld	a0,-224(s0)
    41ac:	81843983          	ld	s3,-2024(s0)
    41b0:	00a98533          	add	a0,s3,a0
    41b4:	000019b7          	lui	s3,0x1
    41b8:	413409b3          	sub	s3,s0,s3
    41bc:	7289b983          	ld	s3,1832(s3) # 1728 <.LBB64_5+0x24>
    41c0:	01350533          	add	a0,a0,s3
    41c4:	00d50533          	add	a0,a0,a3
    41c8:	1005051b          	addiw	a0,a0,256
    41cc:	400009b7          	lui	s3,0x40000
    41d0:	80a43823          	sd	a0,-2032(s0)
    41d4:	00055463          	bgez	a0,41dc <.LBB64_110>
    41d8:	c00009b7          	lui	s3,0xc0000

00000000000041dc <.LBB64_110>:
    41dc:	00001537          	lui	a0,0x1
    41e0:	40a40533          	sub	a0,s0,a0
    41e4:	0b353823          	sd	s3,176(a0) # 10b0 <.LBB64_3+0xe9c>
    41e8:	f2843503          	ld	a0,-216(s0)
    41ec:	82043983          	ld	s3,-2016(s0)
    41f0:	00a98533          	add	a0,s3,a0
    41f4:	000019b7          	lui	s3,0x1
    41f8:	413409b3          	sub	s3,s0,s3
    41fc:	7309b983          	ld	s3,1840(s3) # 1730 <.LBB64_5+0x2c>
    4200:	01350533          	add	a0,a0,s3
    4204:	00d50533          	add	a0,a0,a3
    4208:	1005051b          	addiw	a0,a0,256
    420c:	400009b7          	lui	s3,0x40000
    4210:	00001ab7          	lui	s5,0x1
    4214:	41540ab3          	sub	s5,s0,s5
    4218:	7caabc23          	sd	a0,2008(s5) # 17d8 <.LBB64_5+0xd4>
    421c:	00055463          	bgez	a0,4224 <.LBB64_112>
    4220:	c00009b7          	lui	s3,0xc0000

0000000000004224 <.LBB64_112>:
    4224:	00001537          	lui	a0,0x1
    4228:	40a40533          	sub	a0,s0,a0
    422c:	0b353c23          	sd	s3,184(a0) # 10b8 <.LBB64_3+0xea4>
    4230:	f3043503          	ld	a0,-208(s0)
    4234:	82843983          	ld	s3,-2008(s0)
    4238:	00a98533          	add	a0,s3,a0
    423c:	000019b7          	lui	s3,0x1
    4240:	413409b3          	sub	s3,s0,s3
    4244:	7389b983          	ld	s3,1848(s3) # 1738 <.LBB64_5+0x34>
    4248:	01350533          	add	a0,a0,s3
    424c:	00d50533          	add	a0,a0,a3
    4250:	1005051b          	addiw	a0,a0,256
    4254:	400009b7          	lui	s3,0x40000
    4258:	00001ab7          	lui	s5,0x1
    425c:	41540ab3          	sub	s5,s0,s5
    4260:	78aabc23          	sd	a0,1944(s5) # 1798 <.LBB64_5+0x94>
    4264:	00055463          	bgez	a0,426c <.LBB64_114>
    4268:	c00009b7          	lui	s3,0xc0000

000000000000426c <.LBB64_114>:
    426c:	00001537          	lui	a0,0x1
    4270:	40a40533          	sub	a0,s0,a0
    4274:	0d353023          	sd	s3,192(a0) # 10c0 <.LBB64_3+0xeac>
    4278:	f3843503          	ld	a0,-200(s0)
    427c:	83043983          	ld	s3,-2000(s0)
    4280:	00a98533          	add	a0,s3,a0
    4284:	000019b7          	lui	s3,0x1
    4288:	413409b3          	sub	s3,s0,s3
    428c:	7409b983          	ld	s3,1856(s3) # 1740 <.LBB64_5+0x3c>
    4290:	01350533          	add	a0,a0,s3
    4294:	00d50533          	add	a0,a0,a3
    4298:	1005051b          	addiw	a0,a0,256
    429c:	400009b7          	lui	s3,0x40000
    42a0:	00001ab7          	lui	s5,0x1
    42a4:	41540ab3          	sub	s5,s0,s5
    42a8:	0caab823          	sd	a0,208(s5) # 10d0 <.LBB64_3+0xebc>
    42ac:	00055463          	bgez	a0,42b4 <.LBB64_116>
    42b0:	c00009b7          	lui	s3,0xc0000

00000000000042b4 <.LBB64_116>:
    42b4:	00001537          	lui	a0,0x1
    42b8:	40a40533          	sub	a0,s0,a0
    42bc:	0d353423          	sd	s3,200(a0) # 10c8 <.LBB64_3+0xeb4>
    42c0:	f4043503          	ld	a0,-192(s0)
    42c4:	83843983          	ld	s3,-1992(s0)
    42c8:	00a98533          	add	a0,s3,a0
    42cc:	000019b7          	lui	s3,0x1
    42d0:	413409b3          	sub	s3,s0,s3
    42d4:	6f89b983          	ld	s3,1784(s3) # 16f8 <.LBB64_4+0x590>
    42d8:	01350533          	add	a0,a0,s3
    42dc:	00d50533          	add	a0,a0,a3
    42e0:	1005051b          	addiw	a0,a0,256
    42e4:	400009b7          	lui	s3,0x40000
    42e8:	00001ab7          	lui	s5,0x1
    42ec:	41540ab3          	sub	s5,s0,s5
    42f0:	0eaab023          	sd	a0,224(s5) # 10e0 <.LBB64_3+0xecc>
    42f4:	00055463          	bgez	a0,42fc <.LBB64_118>
    42f8:	c00009b7          	lui	s3,0xc0000

00000000000042fc <.LBB64_118>:
    42fc:	00001537          	lui	a0,0x1
    4300:	40a40533          	sub	a0,s0,a0
    4304:	0d353c23          	sd	s3,216(a0) # 10d8 <.LBB64_3+0xec4>
    4308:	f4843503          	ld	a0,-184(s0)
    430c:	84043983          	ld	s3,-1984(s0)
    4310:	00a98533          	add	a0,s3,a0
    4314:	000019b7          	lui	s3,0x1
    4318:	413409b3          	sub	s3,s0,s3
    431c:	7489b983          	ld	s3,1864(s3) # 1748 <.LBB64_5+0x44>
    4320:	01350533          	add	a0,a0,s3
    4324:	00d50533          	add	a0,a0,a3
    4328:	1005051b          	addiw	a0,a0,256
    432c:	400009b7          	lui	s3,0x40000
    4330:	00001ab7          	lui	s5,0x1
    4334:	41540ab3          	sub	s5,s0,s5
    4338:	0eaab823          	sd	a0,240(s5) # 10f0 <.LBB64_3+0xedc>
    433c:	00055463          	bgez	a0,4344 <.LBB64_120>
    4340:	c00009b7          	lui	s3,0xc0000

0000000000004344 <.LBB64_120>:
    4344:	00001537          	lui	a0,0x1
    4348:	40a40533          	sub	a0,s0,a0
    434c:	0f353423          	sd	s3,232(a0) # 10e8 <.LBB64_3+0xed4>
    4350:	f5043503          	ld	a0,-176(s0)
    4354:	84843983          	ld	s3,-1976(s0)
    4358:	00a98533          	add	a0,s3,a0
    435c:	000019b7          	lui	s3,0x1
    4360:	413409b3          	sub	s3,s0,s3
    4364:	7509b983          	ld	s3,1872(s3) # 1750 <.LBB64_5+0x4c>
    4368:	01350533          	add	a0,a0,s3
    436c:	00d50533          	add	a0,a0,a3
    4370:	1005051b          	addiw	a0,a0,256
    4374:	400009b7          	lui	s3,0x40000
    4378:	00001ab7          	lui	s5,0x1
    437c:	41540ab3          	sub	s5,s0,s5
    4380:	10aab023          	sd	a0,256(s5) # 1100 <.LBB64_3+0xeec>
    4384:	00055463          	bgez	a0,438c <.LBB64_122>
    4388:	c00009b7          	lui	s3,0xc0000

000000000000438c <.LBB64_122>:
    438c:	00001537          	lui	a0,0x1
    4390:	40a40533          	sub	a0,s0,a0
    4394:	0f353c23          	sd	s3,248(a0) # 10f8 <.LBB64_3+0xee4>
    4398:	f5843503          	ld	a0,-168(s0)
    439c:	85043983          	ld	s3,-1968(s0)
    43a0:	00a98533          	add	a0,s3,a0
    43a4:	000019b7          	lui	s3,0x1
    43a8:	413409b3          	sub	s3,s0,s3
    43ac:	7589b983          	ld	s3,1880(s3) # 1758 <.LBB64_5+0x54>
    43b0:	01350533          	add	a0,a0,s3
    43b4:	00d50533          	add	a0,a0,a3
    43b8:	1005051b          	addiw	a0,a0,256
    43bc:	400009b7          	lui	s3,0x40000
    43c0:	00001ab7          	lui	s5,0x1
    43c4:	41540ab3          	sub	s5,s0,s5
    43c8:	10aab823          	sd	a0,272(s5) # 1110 <.LBB64_3+0xefc>
    43cc:	00055463          	bgez	a0,43d4 <.LBB64_124>
    43d0:	c00009b7          	lui	s3,0xc0000

00000000000043d4 <.LBB64_124>:
    43d4:	00001537          	lui	a0,0x1
    43d8:	40a40533          	sub	a0,s0,a0
    43dc:	11353423          	sd	s3,264(a0) # 1108 <.LBB64_3+0xef4>
    43e0:	f6043503          	ld	a0,-160(s0)
    43e4:	85843983          	ld	s3,-1960(s0)
    43e8:	00a98533          	add	a0,s3,a0
    43ec:	000019b7          	lui	s3,0x1
    43f0:	413409b3          	sub	s3,s0,s3
    43f4:	7609b983          	ld	s3,1888(s3) # 1760 <.LBB64_5+0x5c>
    43f8:	01350533          	add	a0,a0,s3
    43fc:	00d50533          	add	a0,a0,a3
    4400:	1005051b          	addiw	a0,a0,256
    4404:	400009b7          	lui	s3,0x40000
    4408:	00001ab7          	lui	s5,0x1
    440c:	41540ab3          	sub	s5,s0,s5
    4410:	12aab023          	sd	a0,288(s5) # 1120 <.LBB64_3+0xf0c>
    4414:	00055463          	bgez	a0,441c <.LBB64_126>
    4418:	c00009b7          	lui	s3,0xc0000

000000000000441c <.LBB64_126>:
    441c:	00001537          	lui	a0,0x1
    4420:	40a40533          	sub	a0,s0,a0
    4424:	11353c23          	sd	s3,280(a0) # 1118 <.LBB64_3+0xf04>
    4428:	f6843503          	ld	a0,-152(s0)
    442c:	86043983          	ld	s3,-1952(s0)
    4430:	00a98533          	add	a0,s3,a0
    4434:	000019b7          	lui	s3,0x1
    4438:	413409b3          	sub	s3,s0,s3
    443c:	6909b983          	ld	s3,1680(s3) # 1690 <.LBB64_4+0x528>
    4440:	01350533          	add	a0,a0,s3
    4444:	00d50533          	add	a0,a0,a3
    4448:	1005051b          	addiw	a0,a0,256
    444c:	400009b7          	lui	s3,0x40000
    4450:	00001ab7          	lui	s5,0x1
    4454:	41540ab3          	sub	s5,s0,s5
    4458:	12aab823          	sd	a0,304(s5) # 1130 <.LBB64_3+0xf1c>
    445c:	00055463          	bgez	a0,4464 <.LBB64_128>
    4460:	c00009b7          	lui	s3,0xc0000

0000000000004464 <.LBB64_128>:
    4464:	00001537          	lui	a0,0x1
    4468:	40a40533          	sub	a0,s0,a0
    446c:	13353423          	sd	s3,296(a0) # 1128 <.LBB64_3+0xf14>
    4470:	f7043503          	ld	a0,-144(s0)
    4474:	86843983          	ld	s3,-1944(s0)
    4478:	00a98533          	add	a0,s3,a0
    447c:	000019b7          	lui	s3,0x1
    4480:	413409b3          	sub	s3,s0,s3
    4484:	7689b983          	ld	s3,1896(s3) # 1768 <.LBB64_5+0x64>
    4488:	01350533          	add	a0,a0,s3
    448c:	00d50533          	add	a0,a0,a3
    4490:	1005051b          	addiw	a0,a0,256
    4494:	400009b7          	lui	s3,0x40000
    4498:	00001ab7          	lui	s5,0x1
    449c:	41540ab3          	sub	s5,s0,s5
    44a0:	14aab023          	sd	a0,320(s5) # 1140 <.LBB64_3+0xf2c>
    44a4:	00055463          	bgez	a0,44ac <.LBB64_130>
    44a8:	c00009b7          	lui	s3,0xc0000

00000000000044ac <.LBB64_130>:
    44ac:	00001537          	lui	a0,0x1
    44b0:	40a40533          	sub	a0,s0,a0
    44b4:	13353c23          	sd	s3,312(a0) # 1138 <.LBB64_3+0xf24>
    44b8:	f7843503          	ld	a0,-136(s0)
    44bc:	87043983          	ld	s3,-1936(s0)
    44c0:	00a98533          	add	a0,s3,a0
    44c4:	000019b7          	lui	s3,0x1
    44c8:	413409b3          	sub	s3,s0,s3
    44cc:	7709b983          	ld	s3,1904(s3) # 1770 <.LBB64_5+0x6c>
    44d0:	01350533          	add	a0,a0,s3
    44d4:	00d50533          	add	a0,a0,a3
    44d8:	1005051b          	addiw	a0,a0,256
    44dc:	400009b7          	lui	s3,0x40000
    44e0:	00001ab7          	lui	s5,0x1
    44e4:	41540ab3          	sub	s5,s0,s5
    44e8:	14aab823          	sd	a0,336(s5) # 1150 <.LBB64_3+0xf3c>
    44ec:	00055463          	bgez	a0,44f4 <.LBB64_132>
    44f0:	c00009b7          	lui	s3,0xc0000

00000000000044f4 <.LBB64_132>:
    44f4:	00001537          	lui	a0,0x1
    44f8:	40a40533          	sub	a0,s0,a0
    44fc:	15353423          	sd	s3,328(a0) # 1148 <.LBB64_3+0xf34>
    4500:	f8043503          	ld	a0,-128(s0)
    4504:	87843983          	ld	s3,-1928(s0)
    4508:	00a98533          	add	a0,s3,a0
    450c:	000019b7          	lui	s3,0x1
    4510:	413409b3          	sub	s3,s0,s3
    4514:	7789b983          	ld	s3,1912(s3) # 1778 <.LBB64_5+0x74>
    4518:	01350533          	add	a0,a0,s3
    451c:	00d50533          	add	a0,a0,a3
    4520:	1005051b          	addiw	a0,a0,256
    4524:	400006b7          	lui	a3,0x40000
    4528:	000019b7          	lui	s3,0x1
    452c:	413409b3          	sub	s3,s0,s3
    4530:	16a9b023          	sd	a0,352(s3) # 1160 <.LBB64_3+0xf4c>
    4534:	00055463          	bgez	a0,453c <.LBB64_134>
    4538:	c00006b7          	lui	a3,0xc0000

000000000000453c <.LBB64_134>:
    453c:	00001537          	lui	a0,0x1
    4540:	40a40533          	sub	a0,s0,a0
    4544:	14d53c23          	sd	a3,344(a0) # 1158 <.LBB64_3+0xf44>
    4548:	e8043503          	ld	a0,-384(s0)
    454c:	88043683          	ld	a3,-1920(s0)
    4550:	00a68533          	add	a0,a3,a0
    4554:	e7843683          	ld	a3,-392(s0)
    4558:	00d50533          	add	a0,a0,a3
    455c:	00c50533          	add	a0,a0,a2
    4560:	1005051b          	addiw	a0,a0,256
    4564:	400009b7          	lui	s3,0x40000
    4568:	e1843683          	ld	a3,-488(s0)
    456c:	00001ab7          	lui	s5,0x1
    4570:	41540ab3          	sub	s5,s0,s5
    4574:	16aab823          	sd	a0,368(s5) # 1170 <.LBB64_4+0x8>
    4578:	00055463          	bgez	a0,4580 <.LBB64_136>
    457c:	c00009b7          	lui	s3,0xc0000

0000000000004580 <.LBB64_136>:
    4580:	00001537          	lui	a0,0x1
    4584:	40a40533          	sub	a0,s0,a0
    4588:	17353423          	sd	s3,360(a0) # 1168 <.LBB64_4>
    458c:	e7043503          	ld	a0,-400(s0)
    4590:	88843983          	ld	s3,-1912(s0)
    4594:	00a98533          	add	a0,s3,a0
    4598:	e6843983          	ld	s3,-408(s0)
    459c:	01350533          	add	a0,a0,s3
    45a0:	00c50533          	add	a0,a0,a2
    45a4:	1005051b          	addiw	a0,a0,256
    45a8:	400009b7          	lui	s3,0x40000
    45ac:	00001ab7          	lui	s5,0x1
    45b0:	41540ab3          	sub	s5,s0,s5
    45b4:	18aab023          	sd	a0,384(s5) # 1180 <.LBB64_4+0x18>
    45b8:	00055463          	bgez	a0,45c0 <.LBB64_138>
    45bc:	c00009b7          	lui	s3,0xc0000

00000000000045c0 <.LBB64_138>:
    45c0:	00001537          	lui	a0,0x1
    45c4:	40a40533          	sub	a0,s0,a0
    45c8:	17353c23          	sd	s3,376(a0) # 1178 <.LBB64_4+0x10>
    45cc:	e6043503          	ld	a0,-416(s0)
    45d0:	89043983          	ld	s3,-1904(s0)
    45d4:	00a98533          	add	a0,s3,a0
    45d8:	e5843983          	ld	s3,-424(s0)
    45dc:	01350533          	add	a0,a0,s3
    45e0:	00c50533          	add	a0,a0,a2
    45e4:	1005051b          	addiw	a0,a0,256
    45e8:	400009b7          	lui	s3,0x40000
    45ec:	00001ab7          	lui	s5,0x1
    45f0:	41540ab3          	sub	s5,s0,s5
    45f4:	18aab823          	sd	a0,400(s5) # 1190 <.LBB64_4+0x28>
    45f8:	00055463          	bgez	a0,4600 <.LBB64_140>
    45fc:	c00009b7          	lui	s3,0xc0000

0000000000004600 <.LBB64_140>:
    4600:	00001537          	lui	a0,0x1
    4604:	40a40533          	sub	a0,s0,a0
    4608:	19353423          	sd	s3,392(a0) # 1188 <.LBB64_4+0x20>
    460c:	e5043503          	ld	a0,-432(s0)
    4610:	89843983          	ld	s3,-1896(s0)
    4614:	00a98533          	add	a0,s3,a0
    4618:	e4843983          	ld	s3,-440(s0)
    461c:	01350533          	add	a0,a0,s3
    4620:	00c50533          	add	a0,a0,a2
    4624:	1005051b          	addiw	a0,a0,256
    4628:	400009b7          	lui	s3,0x40000
    462c:	00001ab7          	lui	s5,0x1
    4630:	41540ab3          	sub	s5,s0,s5
    4634:	1aaab023          	sd	a0,416(s5) # 11a0 <.LBB64_4+0x38>
    4638:	00055463          	bgez	a0,4640 <.LBB64_142>
    463c:	c00009b7          	lui	s3,0xc0000

0000000000004640 <.LBB64_142>:
    4640:	00001537          	lui	a0,0x1
    4644:	40a40533          	sub	a0,s0,a0
    4648:	19353c23          	sd	s3,408(a0) # 1198 <.LBB64_4+0x30>
    464c:	e4043503          	ld	a0,-448(s0)
    4650:	8a043983          	ld	s3,-1888(s0)
    4654:	00a98533          	add	a0,s3,a0
    4658:	e3843983          	ld	s3,-456(s0)
    465c:	01350533          	add	a0,a0,s3
    4660:	00c50533          	add	a0,a0,a2
    4664:	1005051b          	addiw	a0,a0,256
    4668:	400009b7          	lui	s3,0x40000
    466c:	00001ab7          	lui	s5,0x1
    4670:	41540ab3          	sub	s5,s0,s5
    4674:	1aaab823          	sd	a0,432(s5) # 11b0 <.LBB64_4+0x48>
    4678:	00055463          	bgez	a0,4680 <.LBB64_144>
    467c:	c00009b7          	lui	s3,0xc0000

0000000000004680 <.LBB64_144>:
    4680:	00001537          	lui	a0,0x1
    4684:	40a40533          	sub	a0,s0,a0
    4688:	1b353423          	sd	s3,424(a0) # 11a8 <.LBB64_4+0x40>
    468c:	e3043503          	ld	a0,-464(s0)
    4690:	8a843983          	ld	s3,-1880(s0)
    4694:	00a98533          	add	a0,s3,a0
    4698:	000019b7          	lui	s3,0x1
    469c:	413409b3          	sub	s3,s0,s3
    46a0:	6d09b983          	ld	s3,1744(s3) # 16d0 <.LBB64_4+0x568>
    46a4:	01350533          	add	a0,a0,s3
    46a8:	00c50533          	add	a0,a0,a2
    46ac:	1005051b          	addiw	a0,a0,256
    46b0:	400009b7          	lui	s3,0x40000
    46b4:	00001ab7          	lui	s5,0x1
    46b8:	41540ab3          	sub	s5,s0,s5
    46bc:	1caab023          	sd	a0,448(s5) # 11c0 <.LBB64_4+0x58>
    46c0:	00055463          	bgez	a0,46c8 <.LBB64_146>
    46c4:	c00009b7          	lui	s3,0xc0000

00000000000046c8 <.LBB64_146>:
    46c8:	00001537          	lui	a0,0x1
    46cc:	40a40533          	sub	a0,s0,a0
    46d0:	1b353c23          	sd	s3,440(a0) # 11b8 <.LBB64_4+0x50>
    46d4:	00001537          	lui	a0,0x1
    46d8:	40a40533          	sub	a0,s0,a0
    46dc:	6c853503          	ld	a0,1736(a0) # 16c8 <.LBB64_4+0x560>
    46e0:	8b043983          	ld	s3,-1872(s0)
    46e4:	00a98533          	add	a0,s3,a0
    46e8:	000019b7          	lui	s3,0x1
    46ec:	413409b3          	sub	s3,s0,s3
    46f0:	6c09b983          	ld	s3,1728(s3) # 16c0 <.LBB64_4+0x558>
    46f4:	01350533          	add	a0,a0,s3
    46f8:	00c50533          	add	a0,a0,a2
    46fc:	1005051b          	addiw	a0,a0,256
    4700:	400009b7          	lui	s3,0x40000
    4704:	00001ab7          	lui	s5,0x1
    4708:	41540ab3          	sub	s5,s0,s5
    470c:	1caab823          	sd	a0,464(s5) # 11d0 <.LBB64_4+0x68>
    4710:	00055463          	bgez	a0,4718 <.LBB64_148>
    4714:	c00009b7          	lui	s3,0xc0000

0000000000004718 <.LBB64_148>:
    4718:	00001537          	lui	a0,0x1
    471c:	40a40533          	sub	a0,s0,a0
    4720:	1d353423          	sd	s3,456(a0) # 11c8 <.LBB64_4+0x60>
    4724:	8b843503          	ld	a0,-1864(s0)
    4728:	000019b7          	lui	s3,0x1
    472c:	413409b3          	sub	s3,s0,s3
    4730:	6b89b983          	ld	s3,1720(s3) # 16b8 <.LBB64_4+0x550>
    4734:	01350533          	add	a0,a0,s3
    4738:	000019b7          	lui	s3,0x1
    473c:	413409b3          	sub	s3,s0,s3
    4740:	6b09b983          	ld	s3,1712(s3) # 16b0 <.LBB64_4+0x548>
    4744:	01350533          	add	a0,a0,s3
    4748:	00c50533          	add	a0,a0,a2
    474c:	1005051b          	addiw	a0,a0,256
    4750:	400009b7          	lui	s3,0x40000
    4754:	00001ab7          	lui	s5,0x1
    4758:	41540ab3          	sub	s5,s0,s5
    475c:	1eaab023          	sd	a0,480(s5) # 11e0 <.LBB64_4+0x78>
    4760:	00055463          	bgez	a0,4768 <.LBB64_150>
    4764:	c00009b7          	lui	s3,0xc0000

0000000000004768 <.LBB64_150>:
    4768:	00001537          	lui	a0,0x1
    476c:	40a40533          	sub	a0,s0,a0
    4770:	1d353c23          	sd	s3,472(a0) # 11d8 <.LBB64_4+0x70>
    4774:	8c043503          	ld	a0,-1856(s0)
    4778:	000019b7          	lui	s3,0x1
    477c:	413409b3          	sub	s3,s0,s3
    4780:	6a89b983          	ld	s3,1704(s3) # 16a8 <.LBB64_4+0x540>
    4784:	01350533          	add	a0,a0,s3
    4788:	000019b7          	lui	s3,0x1
    478c:	413409b3          	sub	s3,s0,s3
    4790:	6a09b983          	ld	s3,1696(s3) # 16a0 <.LBB64_4+0x538>
    4794:	01350533          	add	a0,a0,s3
    4798:	00c50533          	add	a0,a0,a2
    479c:	1005051b          	addiw	a0,a0,256
    47a0:	400009b7          	lui	s3,0x40000
    47a4:	00001ab7          	lui	s5,0x1
    47a8:	41540ab3          	sub	s5,s0,s5
    47ac:	1eaab823          	sd	a0,496(s5) # 11f0 <.LBB64_4+0x88>
    47b0:	00055463          	bgez	a0,47b8 <.LBB64_152>
    47b4:	c00009b7          	lui	s3,0xc0000

00000000000047b8 <.LBB64_152>:
    47b8:	00001537          	lui	a0,0x1
    47bc:	40a40533          	sub	a0,s0,a0
    47c0:	1f353423          	sd	s3,488(a0) # 11e8 <.LBB64_4+0x80>
    47c4:	8c843503          	ld	a0,-1848(s0)
    47c8:	000019b7          	lui	s3,0x1
    47cc:	413409b3          	sub	s3,s0,s3
    47d0:	6989b983          	ld	s3,1688(s3) # 1698 <.LBB64_4+0x530>
    47d4:	01350533          	add	a0,a0,s3
    47d8:	000019b7          	lui	s3,0x1
    47dc:	413409b3          	sub	s3,s0,s3
    47e0:	6d89b983          	ld	s3,1752(s3) # 16d8 <.LBB64_4+0x570>
    47e4:	01350533          	add	a0,a0,s3
    47e8:	00c50533          	add	a0,a0,a2
    47ec:	1005051b          	addiw	a0,a0,256
    47f0:	400009b7          	lui	s3,0x40000
    47f4:	00001ab7          	lui	s5,0x1
    47f8:	41540ab3          	sub	s5,s0,s5
    47fc:	20aab023          	sd	a0,512(s5) # 1200 <.LBB64_4+0x98>
    4800:	00055463          	bgez	a0,4808 <.LBB64_154>
    4804:	c00009b7          	lui	s3,0xc0000

0000000000004808 <.LBB64_154>:
    4808:	00001537          	lui	a0,0x1
    480c:	40a40533          	sub	a0,s0,a0
    4810:	1f353c23          	sd	s3,504(a0) # 11f8 <.LBB64_4+0x90>
    4814:	8d043503          	ld	a0,-1840(s0)
    4818:	e8843983          	ld	s3,-376(s0)
    481c:	01350533          	add	a0,a0,s3
    4820:	000019b7          	lui	s3,0x1
    4824:	413409b3          	sub	s3,s0,s3
    4828:	6e09b983          	ld	s3,1760(s3) # 16e0 <.LBB64_4+0x578>
    482c:	01350533          	add	a0,a0,s3
    4830:	00c50533          	add	a0,a0,a2
    4834:	1005051b          	addiw	a0,a0,256
    4838:	400009b7          	lui	s3,0x40000
    483c:	00001ab7          	lui	s5,0x1
    4840:	41540ab3          	sub	s5,s0,s5
    4844:	20aab823          	sd	a0,528(s5) # 1210 <.LBB64_4+0xa8>
    4848:	00055463          	bgez	a0,4850 <.LBB64_156>
    484c:	c00009b7          	lui	s3,0xc0000

0000000000004850 <.LBB64_156>:
    4850:	00001537          	lui	a0,0x1
    4854:	40a40533          	sub	a0,s0,a0
    4858:	21353423          	sd	s3,520(a0) # 1208 <.LBB64_4+0xa0>
    485c:	8d843503          	ld	a0,-1832(s0)
    4860:	e9043983          	ld	s3,-368(s0)
    4864:	01350533          	add	a0,a0,s3
    4868:	000019b7          	lui	s3,0x1
    486c:	413409b3          	sub	s3,s0,s3
    4870:	6e89b983          	ld	s3,1768(s3) # 16e8 <.LBB64_4+0x580>
    4874:	01350533          	add	a0,a0,s3
    4878:	00c50533          	add	a0,a0,a2
    487c:	1005051b          	addiw	a0,a0,256
    4880:	400009b7          	lui	s3,0x40000
    4884:	00001ab7          	lui	s5,0x1
    4888:	41540ab3          	sub	s5,s0,s5
    488c:	22aab023          	sd	a0,544(s5) # 1220 <.LBB64_4+0xb8>
    4890:	00055463          	bgez	a0,4898 <.LBB64_158>
    4894:	c00009b7          	lui	s3,0xc0000

0000000000004898 <.LBB64_158>:
    4898:	00001537          	lui	a0,0x1
    489c:	40a40533          	sub	a0,s0,a0
    48a0:	21353c23          	sd	s3,536(a0) # 1218 <.LBB64_4+0xb0>
    48a4:	8e043503          	ld	a0,-1824(s0)
    48a8:	e9843983          	ld	s3,-360(s0)
    48ac:	01350533          	add	a0,a0,s3
    48b0:	000019b7          	lui	s3,0x1
    48b4:	413409b3          	sub	s3,s0,s3
    48b8:	6f09b983          	ld	s3,1776(s3) # 16f0 <.LBB64_4+0x588>
    48bc:	01350533          	add	a0,a0,s3
    48c0:	00c50533          	add	a0,a0,a2
    48c4:	1005051b          	addiw	a0,a0,256
    48c8:	400009b7          	lui	s3,0x40000
    48cc:	00001ab7          	lui	s5,0x1
    48d0:	41540ab3          	sub	s5,s0,s5
    48d4:	22aab823          	sd	a0,560(s5) # 1230 <.LBB64_4+0xc8>
    48d8:	00055463          	bgez	a0,48e0 <.LBB64_160>
    48dc:	c00009b7          	lui	s3,0xc0000

00000000000048e0 <.LBB64_160>:
    48e0:	00001537          	lui	a0,0x1
    48e4:	40a40533          	sub	a0,s0,a0
    48e8:	23353423          	sd	s3,552(a0) # 1228 <.LBB64_4+0xc0>
    48ec:	8e843503          	ld	a0,-1816(s0)
    48f0:	ea043983          	ld	s3,-352(s0)
    48f4:	01350533          	add	a0,a0,s3
    48f8:	01a50533          	add	a0,a0,s10
    48fc:	00c50533          	add	a0,a0,a2
    4900:	1005051b          	addiw	a0,a0,256
    4904:	400009b7          	lui	s3,0x40000
    4908:	00001ab7          	lui	s5,0x1
    490c:	41540ab3          	sub	s5,s0,s5
    4910:	24aab023          	sd	a0,576(s5) # 1240 <.LBB64_4+0xd8>
    4914:	00055463          	bgez	a0,491c <.LBB64_162>
    4918:	c00009b7          	lui	s3,0xc0000

000000000000491c <.LBB64_162>:
    491c:	00001537          	lui	a0,0x1
    4920:	40a40533          	sub	a0,s0,a0
    4924:	23353c23          	sd	s3,568(a0) # 1238 <.LBB64_4+0xd0>
    4928:	8f043503          	ld	a0,-1808(s0)
    492c:	ea843983          	ld	s3,-344(s0)
    4930:	01350533          	add	a0,a0,s3
    4934:	000019b7          	lui	s3,0x1
    4938:	413409b3          	sub	s3,s0,s3
    493c:	7009b983          	ld	s3,1792(s3) # 1700 <.LBB64_4+0x598>
    4940:	01350533          	add	a0,a0,s3
    4944:	00c50533          	add	a0,a0,a2
    4948:	1005051b          	addiw	a0,a0,256
    494c:	400009b7          	lui	s3,0x40000
    4950:	00001ab7          	lui	s5,0x1
    4954:	41540ab3          	sub	s5,s0,s5
    4958:	24aab823          	sd	a0,592(s5) # 1250 <.LBB64_4+0xe8>
    495c:	00055463          	bgez	a0,4964 <.LBB64_164>
    4960:	c00009b7          	lui	s3,0xc0000

0000000000004964 <.LBB64_164>:
    4964:	00001537          	lui	a0,0x1
    4968:	40a40533          	sub	a0,s0,a0
    496c:	25353423          	sd	s3,584(a0) # 1248 <.LBB64_4+0xe0>
    4970:	8f843503          	ld	a0,-1800(s0)
    4974:	eb043983          	ld	s3,-336(s0)
    4978:	01350533          	add	a0,a0,s3
    497c:	000019b7          	lui	s3,0x1
    4980:	413409b3          	sub	s3,s0,s3
    4984:	7089b983          	ld	s3,1800(s3) # 1708 <.LBB64_5+0x4>
    4988:	01350533          	add	a0,a0,s3
    498c:	00c50533          	add	a0,a0,a2
    4990:	1005051b          	addiw	a0,a0,256
    4994:	400009b7          	lui	s3,0x40000
    4998:	00001ab7          	lui	s5,0x1
    499c:	41540ab3          	sub	s5,s0,s5
    49a0:	26aab023          	sd	a0,608(s5) # 1260 <.LBB64_4+0xf8>
    49a4:	00055463          	bgez	a0,49ac <.LBB64_166>
    49a8:	c00009b7          	lui	s3,0xc0000

00000000000049ac <.LBB64_166>:
    49ac:	00001537          	lui	a0,0x1
    49b0:	40a40533          	sub	a0,s0,a0
    49b4:	25353c23          	sd	s3,600(a0) # 1258 <.LBB64_4+0xf0>
    49b8:	90043503          	ld	a0,-1792(s0)
    49bc:	eb843983          	ld	s3,-328(s0)
    49c0:	01350533          	add	a0,a0,s3
    49c4:	000019b7          	lui	s3,0x1
    49c8:	413409b3          	sub	s3,s0,s3
    49cc:	7109b983          	ld	s3,1808(s3) # 1710 <.LBB64_5+0xc>
    49d0:	01350533          	add	a0,a0,s3
    49d4:	00c50533          	add	a0,a0,a2
    49d8:	1005051b          	addiw	a0,a0,256
    49dc:	400009b7          	lui	s3,0x40000
    49e0:	00001ab7          	lui	s5,0x1
    49e4:	41540ab3          	sub	s5,s0,s5
    49e8:	26aab823          	sd	a0,624(s5) # 1270 <.LBB64_4+0x108>
    49ec:	00055463          	bgez	a0,49f4 <.LBB64_168>
    49f0:	c00009b7          	lui	s3,0xc0000

00000000000049f4 <.LBB64_168>:
    49f4:	00001537          	lui	a0,0x1
    49f8:	40a40533          	sub	a0,s0,a0
    49fc:	27353423          	sd	s3,616(a0) # 1268 <.LBB64_4+0x100>
    4a00:	90843503          	ld	a0,-1784(s0)
    4a04:	ec043983          	ld	s3,-320(s0)
    4a08:	01350533          	add	a0,a0,s3
    4a0c:	000019b7          	lui	s3,0x1
    4a10:	413409b3          	sub	s3,s0,s3
    4a14:	7189b983          	ld	s3,1816(s3) # 1718 <.LBB64_5+0x14>
    4a18:	01350533          	add	a0,a0,s3
    4a1c:	00c50533          	add	a0,a0,a2
    4a20:	1005051b          	addiw	a0,a0,256
    4a24:	400009b7          	lui	s3,0x40000
    4a28:	00001ab7          	lui	s5,0x1
    4a2c:	41540ab3          	sub	s5,s0,s5
    4a30:	28aab023          	sd	a0,640(s5) # 1280 <.LBB64_4+0x118>
    4a34:	00055463          	bgez	a0,4a3c <.LBB64_170>
    4a38:	c00009b7          	lui	s3,0xc0000

0000000000004a3c <.LBB64_170>:
    4a3c:	00001537          	lui	a0,0x1
    4a40:	40a40533          	sub	a0,s0,a0
    4a44:	27353c23          	sd	s3,632(a0) # 1278 <.LBB64_4+0x110>
    4a48:	91043503          	ld	a0,-1776(s0)
    4a4c:	f1843983          	ld	s3,-232(s0)
    4a50:	01350533          	add	a0,a0,s3
    4a54:	000019b7          	lui	s3,0x1
    4a58:	413409b3          	sub	s3,s0,s3
    4a5c:	7209b983          	ld	s3,1824(s3) # 1720 <.LBB64_5+0x1c>
    4a60:	01350533          	add	a0,a0,s3
    4a64:	00c50533          	add	a0,a0,a2
    4a68:	1005051b          	addiw	a0,a0,256
    4a6c:	400009b7          	lui	s3,0x40000
    4a70:	00001ab7          	lui	s5,0x1
    4a74:	41540ab3          	sub	s5,s0,s5
    4a78:	28aab823          	sd	a0,656(s5) # 1290 <.LBB64_4+0x128>
    4a7c:	00055463          	bgez	a0,4a84 <.LBB64_172>
    4a80:	c00009b7          	lui	s3,0xc0000

0000000000004a84 <.LBB64_172>:
    4a84:	00001537          	lui	a0,0x1
    4a88:	40a40533          	sub	a0,s0,a0
    4a8c:	29353423          	sd	s3,648(a0) # 1288 <.LBB64_4+0x120>
    4a90:	91843503          	ld	a0,-1768(s0)
    4a94:	f2043983          	ld	s3,-224(s0)
    4a98:	01350533          	add	a0,a0,s3
    4a9c:	000019b7          	lui	s3,0x1
    4aa0:	413409b3          	sub	s3,s0,s3
    4aa4:	7289b983          	ld	s3,1832(s3) # 1728 <.LBB64_5+0x24>
    4aa8:	01350533          	add	a0,a0,s3
    4aac:	00c50533          	add	a0,a0,a2
    4ab0:	1005051b          	addiw	a0,a0,256
    4ab4:	400009b7          	lui	s3,0x40000
    4ab8:	00001ab7          	lui	s5,0x1
    4abc:	41540ab3          	sub	s5,s0,s5
    4ac0:	2aaab023          	sd	a0,672(s5) # 12a0 <.LBB64_4+0x138>
    4ac4:	00055463          	bgez	a0,4acc <.LBB64_174>
    4ac8:	c00009b7          	lui	s3,0xc0000

0000000000004acc <.LBB64_174>:
    4acc:	00001537          	lui	a0,0x1
    4ad0:	40a40533          	sub	a0,s0,a0
    4ad4:	29353c23          	sd	s3,664(a0) # 1298 <.LBB64_4+0x130>
    4ad8:	92043503          	ld	a0,-1760(s0)
    4adc:	f2843983          	ld	s3,-216(s0)
    4ae0:	01350533          	add	a0,a0,s3
    4ae4:	000019b7          	lui	s3,0x1
    4ae8:	413409b3          	sub	s3,s0,s3
    4aec:	7309b983          	ld	s3,1840(s3) # 1730 <.LBB64_5+0x2c>
    4af0:	01350533          	add	a0,a0,s3
    4af4:	00c50533          	add	a0,a0,a2
    4af8:	1005051b          	addiw	a0,a0,256
    4afc:	400009b7          	lui	s3,0x40000
    4b00:	00001ab7          	lui	s5,0x1
    4b04:	41540ab3          	sub	s5,s0,s5
    4b08:	2aaab823          	sd	a0,688(s5) # 12b0 <.LBB64_4+0x148>
    4b0c:	00055463          	bgez	a0,4b14 <.LBB64_176>
    4b10:	c00009b7          	lui	s3,0xc0000

0000000000004b14 <.LBB64_176>:
    4b14:	00001537          	lui	a0,0x1
    4b18:	40a40533          	sub	a0,s0,a0
    4b1c:	2b353423          	sd	s3,680(a0) # 12a8 <.LBB64_4+0x140>
    4b20:	92843503          	ld	a0,-1752(s0)
    4b24:	f3043983          	ld	s3,-208(s0)
    4b28:	01350533          	add	a0,a0,s3
    4b2c:	000019b7          	lui	s3,0x1
    4b30:	413409b3          	sub	s3,s0,s3
    4b34:	7389b983          	ld	s3,1848(s3) # 1738 <.LBB64_5+0x34>
    4b38:	01350533          	add	a0,a0,s3
    4b3c:	00c50533          	add	a0,a0,a2
    4b40:	1005051b          	addiw	a0,a0,256
    4b44:	400009b7          	lui	s3,0x40000
    4b48:	00001ab7          	lui	s5,0x1
    4b4c:	41540ab3          	sub	s5,s0,s5
    4b50:	2caab023          	sd	a0,704(s5) # 12c0 <.LBB64_4+0x158>
    4b54:	00055463          	bgez	a0,4b5c <.LBB64_178>
    4b58:	c00009b7          	lui	s3,0xc0000

0000000000004b5c <.LBB64_178>:
    4b5c:	00001537          	lui	a0,0x1
    4b60:	40a40533          	sub	a0,s0,a0
    4b64:	2b353c23          	sd	s3,696(a0) # 12b8 <.LBB64_4+0x150>
    4b68:	93043503          	ld	a0,-1744(s0)
    4b6c:	f3843983          	ld	s3,-200(s0)
    4b70:	01350533          	add	a0,a0,s3
    4b74:	000019b7          	lui	s3,0x1
    4b78:	413409b3          	sub	s3,s0,s3
    4b7c:	7409b983          	ld	s3,1856(s3) # 1740 <.LBB64_5+0x3c>
    4b80:	01350533          	add	a0,a0,s3
    4b84:	00c50533          	add	a0,a0,a2
    4b88:	1005051b          	addiw	a0,a0,256
    4b8c:	400009b7          	lui	s3,0x40000
    4b90:	00001ab7          	lui	s5,0x1
    4b94:	41540ab3          	sub	s5,s0,s5
    4b98:	2caab823          	sd	a0,720(s5) # 12d0 <.LBB64_4+0x168>
    4b9c:	00055463          	bgez	a0,4ba4 <.LBB64_180>
    4ba0:	c00009b7          	lui	s3,0xc0000

0000000000004ba4 <.LBB64_180>:
    4ba4:	00001537          	lui	a0,0x1
    4ba8:	40a40533          	sub	a0,s0,a0
    4bac:	2d353423          	sd	s3,712(a0) # 12c8 <.LBB64_4+0x160>
    4bb0:	93843503          	ld	a0,-1736(s0)
    4bb4:	f4043983          	ld	s3,-192(s0)
    4bb8:	01350533          	add	a0,a0,s3
    4bbc:	000019b7          	lui	s3,0x1
    4bc0:	413409b3          	sub	s3,s0,s3
    4bc4:	6f89b983          	ld	s3,1784(s3) # 16f8 <.LBB64_4+0x590>
    4bc8:	01350533          	add	a0,a0,s3
    4bcc:	00c50533          	add	a0,a0,a2
    4bd0:	1005051b          	addiw	a0,a0,256
    4bd4:	400009b7          	lui	s3,0x40000
    4bd8:	00001ab7          	lui	s5,0x1
    4bdc:	41540ab3          	sub	s5,s0,s5
    4be0:	2eaab023          	sd	a0,736(s5) # 12e0 <.LBB64_4+0x178>
    4be4:	00055463          	bgez	a0,4bec <.LBB64_182>
    4be8:	c00009b7          	lui	s3,0xc0000

0000000000004bec <.LBB64_182>:
    4bec:	00001537          	lui	a0,0x1
    4bf0:	40a40533          	sub	a0,s0,a0
    4bf4:	2d353c23          	sd	s3,728(a0) # 12d8 <.LBB64_4+0x170>
    4bf8:	94043503          	ld	a0,-1728(s0)
    4bfc:	f4843983          	ld	s3,-184(s0)
    4c00:	01350533          	add	a0,a0,s3
    4c04:	000019b7          	lui	s3,0x1
    4c08:	413409b3          	sub	s3,s0,s3
    4c0c:	7489b983          	ld	s3,1864(s3) # 1748 <.LBB64_5+0x44>
    4c10:	01350533          	add	a0,a0,s3
    4c14:	00c50533          	add	a0,a0,a2
    4c18:	1005051b          	addiw	a0,a0,256
    4c1c:	400009b7          	lui	s3,0x40000
    4c20:	00001ab7          	lui	s5,0x1
    4c24:	41540ab3          	sub	s5,s0,s5
    4c28:	2eaab823          	sd	a0,752(s5) # 12f0 <.LBB64_4+0x188>
    4c2c:	00055463          	bgez	a0,4c34 <.LBB64_184>
    4c30:	c00009b7          	lui	s3,0xc0000

0000000000004c34 <.LBB64_184>:
    4c34:	00001537          	lui	a0,0x1
    4c38:	40a40533          	sub	a0,s0,a0
    4c3c:	2f353423          	sd	s3,744(a0) # 12e8 <.LBB64_4+0x180>
    4c40:	94843503          	ld	a0,-1720(s0)
    4c44:	f5043983          	ld	s3,-176(s0)
    4c48:	01350533          	add	a0,a0,s3
    4c4c:	000019b7          	lui	s3,0x1
    4c50:	413409b3          	sub	s3,s0,s3
    4c54:	7509b983          	ld	s3,1872(s3) # 1750 <.LBB64_5+0x4c>
    4c58:	01350533          	add	a0,a0,s3
    4c5c:	00c50533          	add	a0,a0,a2
    4c60:	1005051b          	addiw	a0,a0,256
    4c64:	400009b7          	lui	s3,0x40000
    4c68:	00001ab7          	lui	s5,0x1
    4c6c:	41540ab3          	sub	s5,s0,s5
    4c70:	30aab023          	sd	a0,768(s5) # 1300 <.LBB64_4+0x198>
    4c74:	00055463          	bgez	a0,4c7c <.LBB64_186>
    4c78:	c00009b7          	lui	s3,0xc0000

0000000000004c7c <.LBB64_186>:
    4c7c:	00001537          	lui	a0,0x1
    4c80:	40a40533          	sub	a0,s0,a0
    4c84:	2f353c23          	sd	s3,760(a0) # 12f8 <.LBB64_4+0x190>
    4c88:	95043503          	ld	a0,-1712(s0)
    4c8c:	f5843983          	ld	s3,-168(s0)
    4c90:	01350533          	add	a0,a0,s3
    4c94:	000019b7          	lui	s3,0x1
    4c98:	413409b3          	sub	s3,s0,s3
    4c9c:	7589b983          	ld	s3,1880(s3) # 1758 <.LBB64_5+0x54>
    4ca0:	01350533          	add	a0,a0,s3
    4ca4:	00c50533          	add	a0,a0,a2
    4ca8:	1005051b          	addiw	a0,a0,256
    4cac:	400009b7          	lui	s3,0x40000
    4cb0:	00001ab7          	lui	s5,0x1
    4cb4:	41540ab3          	sub	s5,s0,s5
    4cb8:	30aab823          	sd	a0,784(s5) # 1310 <.LBB64_4+0x1a8>
    4cbc:	00055463          	bgez	a0,4cc4 <.LBB64_188>
    4cc0:	c00009b7          	lui	s3,0xc0000

0000000000004cc4 <.LBB64_188>:
    4cc4:	00001537          	lui	a0,0x1
    4cc8:	40a40533          	sub	a0,s0,a0
    4ccc:	31353423          	sd	s3,776(a0) # 1308 <.LBB64_4+0x1a0>
    4cd0:	95843503          	ld	a0,-1704(s0)
    4cd4:	f6043983          	ld	s3,-160(s0)
    4cd8:	01350533          	add	a0,a0,s3
    4cdc:	000019b7          	lui	s3,0x1
    4ce0:	413409b3          	sub	s3,s0,s3
    4ce4:	7609b983          	ld	s3,1888(s3) # 1760 <.LBB64_5+0x5c>
    4ce8:	01350533          	add	a0,a0,s3
    4cec:	00c50533          	add	a0,a0,a2
    4cf0:	1005051b          	addiw	a0,a0,256
    4cf4:	400009b7          	lui	s3,0x40000
    4cf8:	00001ab7          	lui	s5,0x1
    4cfc:	41540ab3          	sub	s5,s0,s5
    4d00:	32aab023          	sd	a0,800(s5) # 1320 <.LBB64_4+0x1b8>
    4d04:	00055463          	bgez	a0,4d0c <.LBB64_190>
    4d08:	c00009b7          	lui	s3,0xc0000

0000000000004d0c <.LBB64_190>:
    4d0c:	00001537          	lui	a0,0x1
    4d10:	40a40533          	sub	a0,s0,a0
    4d14:	31353c23          	sd	s3,792(a0) # 1318 <.LBB64_4+0x1b0>
    4d18:	96043503          	ld	a0,-1696(s0)
    4d1c:	f6843983          	ld	s3,-152(s0)
    4d20:	01350533          	add	a0,a0,s3
    4d24:	000019b7          	lui	s3,0x1
    4d28:	413409b3          	sub	s3,s0,s3
    4d2c:	6909b983          	ld	s3,1680(s3) # 1690 <.LBB64_4+0x528>
    4d30:	01350533          	add	a0,a0,s3
    4d34:	00c50533          	add	a0,a0,a2
    4d38:	1005051b          	addiw	a0,a0,256
    4d3c:	400009b7          	lui	s3,0x40000
    4d40:	00001ab7          	lui	s5,0x1
    4d44:	41540ab3          	sub	s5,s0,s5
    4d48:	32aab823          	sd	a0,816(s5) # 1330 <.LBB64_4+0x1c8>
    4d4c:	00055463          	bgez	a0,4d54 <.LBB64_192>
    4d50:	c00009b7          	lui	s3,0xc0000

0000000000004d54 <.LBB64_192>:
    4d54:	00001537          	lui	a0,0x1
    4d58:	40a40533          	sub	a0,s0,a0
    4d5c:	33353423          	sd	s3,808(a0) # 1328 <.LBB64_4+0x1c0>
    4d60:	96843503          	ld	a0,-1688(s0)
    4d64:	f7043983          	ld	s3,-144(s0)
    4d68:	01350533          	add	a0,a0,s3
    4d6c:	000019b7          	lui	s3,0x1
    4d70:	413409b3          	sub	s3,s0,s3
    4d74:	7689b983          	ld	s3,1896(s3) # 1768 <.LBB64_5+0x64>
    4d78:	01350533          	add	a0,a0,s3
    4d7c:	00c50533          	add	a0,a0,a2
    4d80:	1005051b          	addiw	a0,a0,256
    4d84:	400009b7          	lui	s3,0x40000
    4d88:	00001ab7          	lui	s5,0x1
    4d8c:	41540ab3          	sub	s5,s0,s5
    4d90:	34aab023          	sd	a0,832(s5) # 1340 <.LBB64_4+0x1d8>
    4d94:	00055463          	bgez	a0,4d9c <.LBB64_194>
    4d98:	c00009b7          	lui	s3,0xc0000

0000000000004d9c <.LBB64_194>:
    4d9c:	00001537          	lui	a0,0x1
    4da0:	40a40533          	sub	a0,s0,a0
    4da4:	33353c23          	sd	s3,824(a0) # 1338 <.LBB64_4+0x1d0>
    4da8:	97043503          	ld	a0,-1680(s0)
    4dac:	f7843983          	ld	s3,-136(s0)
    4db0:	01350533          	add	a0,a0,s3
    4db4:	000019b7          	lui	s3,0x1
    4db8:	413409b3          	sub	s3,s0,s3
    4dbc:	7709b983          	ld	s3,1904(s3) # 1770 <.LBB64_5+0x6c>
    4dc0:	01350533          	add	a0,a0,s3
    4dc4:	00c50533          	add	a0,a0,a2
    4dc8:	1005051b          	addiw	a0,a0,256
    4dcc:	400009b7          	lui	s3,0x40000
    4dd0:	00001ab7          	lui	s5,0x1
    4dd4:	41540ab3          	sub	s5,s0,s5
    4dd8:	34aab823          	sd	a0,848(s5) # 1350 <.LBB64_4+0x1e8>
    4ddc:	00055463          	bgez	a0,4de4 <.LBB64_196>
    4de0:	c00009b7          	lui	s3,0xc0000

0000000000004de4 <.LBB64_196>:
    4de4:	00001537          	lui	a0,0x1
    4de8:	40a40533          	sub	a0,s0,a0
    4dec:	35353423          	sd	s3,840(a0) # 1348 <.LBB64_4+0x1e0>
    4df0:	97843503          	ld	a0,-1672(s0)
    4df4:	f8043983          	ld	s3,-128(s0)
    4df8:	01350533          	add	a0,a0,s3
    4dfc:	000019b7          	lui	s3,0x1
    4e00:	413409b3          	sub	s3,s0,s3
    4e04:	7789b983          	ld	s3,1912(s3) # 1778 <.LBB64_5+0x74>
    4e08:	01350533          	add	a0,a0,s3
    4e0c:	00c50533          	add	a0,a0,a2
    4e10:	1005051b          	addiw	a0,a0,256
    4e14:	40000637          	lui	a2,0x40000
    4e18:	000019b7          	lui	s3,0x1
    4e1c:	413409b3          	sub	s3,s0,s3
    4e20:	36a9b023          	sd	a0,864(s3) # 1360 <.LBB64_4+0x1f8>
    4e24:	00055463          	bgez	a0,4e2c <.LBB64_198>
    4e28:	c0000637          	lui	a2,0xc0000

0000000000004e2c <.LBB64_198>:
    4e2c:	00001537          	lui	a0,0x1
    4e30:	40a40533          	sub	a0,s0,a0
    4e34:	34c53c23          	sd	a2,856(a0) # 1358 <.LBB64_4+0x1f0>
    4e38:	98043503          	ld	a0,-1664(s0)
    4e3c:	e8043603          	ld	a2,-384(s0)
    4e40:	00c50533          	add	a0,a0,a2
    4e44:	e7843603          	ld	a2,-392(s0)
    4e48:	00c50533          	add	a0,a0,a2
    4e4c:	00b50533          	add	a0,a0,a1
    4e50:	1005051b          	addiw	a0,a0,256
    4e54:	400009b7          	lui	s3,0x40000
    4e58:	e2043603          	ld	a2,-480(s0)
    4e5c:	00001ab7          	lui	s5,0x1
    4e60:	41540ab3          	sub	s5,s0,s5
    4e64:	36aab823          	sd	a0,880(s5) # 1370 <.LBB64_4+0x208>
    4e68:	00055463          	bgez	a0,4e70 <.LBB64_200>
    4e6c:	c00009b7          	lui	s3,0xc0000

0000000000004e70 <.LBB64_200>:
    4e70:	00001537          	lui	a0,0x1
    4e74:	40a40533          	sub	a0,s0,a0
    4e78:	37353423          	sd	s3,872(a0) # 1368 <.LBB64_4+0x200>
    4e7c:	98843503          	ld	a0,-1656(s0)
    4e80:	e7043983          	ld	s3,-400(s0)
    4e84:	01350533          	add	a0,a0,s3
    4e88:	e6843983          	ld	s3,-408(s0)
    4e8c:	01350533          	add	a0,a0,s3
    4e90:	00b50533          	add	a0,a0,a1
    4e94:	1005051b          	addiw	a0,a0,256
    4e98:	400009b7          	lui	s3,0x40000
    4e9c:	00001ab7          	lui	s5,0x1
    4ea0:	41540ab3          	sub	s5,s0,s5
    4ea4:	38aab023          	sd	a0,896(s5) # 1380 <.LBB64_4+0x218>
    4ea8:	00055463          	bgez	a0,4eb0 <.LBB64_202>
    4eac:	c00009b7          	lui	s3,0xc0000

0000000000004eb0 <.LBB64_202>:
    4eb0:	00001537          	lui	a0,0x1
    4eb4:	40a40533          	sub	a0,s0,a0
    4eb8:	37353c23          	sd	s3,888(a0) # 1378 <.LBB64_4+0x210>
    4ebc:	99043503          	ld	a0,-1648(s0)
    4ec0:	e6043983          	ld	s3,-416(s0)
    4ec4:	01350533          	add	a0,a0,s3
    4ec8:	e5843983          	ld	s3,-424(s0)
    4ecc:	01350533          	add	a0,a0,s3
    4ed0:	00b50533          	add	a0,a0,a1
    4ed4:	1005051b          	addiw	a0,a0,256
    4ed8:	400009b7          	lui	s3,0x40000
    4edc:	00001ab7          	lui	s5,0x1
    4ee0:	41540ab3          	sub	s5,s0,s5
    4ee4:	38aab823          	sd	a0,912(s5) # 1390 <.LBB64_4+0x228>
    4ee8:	00055463          	bgez	a0,4ef0 <.LBB64_204>
    4eec:	c00009b7          	lui	s3,0xc0000

0000000000004ef0 <.LBB64_204>:
    4ef0:	00001537          	lui	a0,0x1
    4ef4:	40a40533          	sub	a0,s0,a0
    4ef8:	39353423          	sd	s3,904(a0) # 1388 <.LBB64_4+0x220>
    4efc:	99843503          	ld	a0,-1640(s0)
    4f00:	e5043983          	ld	s3,-432(s0)
    4f04:	01350533          	add	a0,a0,s3
    4f08:	e4843983          	ld	s3,-440(s0)
    4f0c:	01350533          	add	a0,a0,s3
    4f10:	00b50533          	add	a0,a0,a1
    4f14:	1005051b          	addiw	a0,a0,256
    4f18:	400009b7          	lui	s3,0x40000
    4f1c:	00001ab7          	lui	s5,0x1
    4f20:	41540ab3          	sub	s5,s0,s5
    4f24:	3aaab023          	sd	a0,928(s5) # 13a0 <.LBB64_4+0x238>
    4f28:	00055463          	bgez	a0,4f30 <.LBB64_206>
    4f2c:	c00009b7          	lui	s3,0xc0000

0000000000004f30 <.LBB64_206>:
    4f30:	00001537          	lui	a0,0x1
    4f34:	40a40533          	sub	a0,s0,a0
    4f38:	39353c23          	sd	s3,920(a0) # 1398 <.LBB64_4+0x230>
    4f3c:	9a043503          	ld	a0,-1632(s0)
    4f40:	e4043983          	ld	s3,-448(s0)
    4f44:	01350533          	add	a0,a0,s3
    4f48:	e3843983          	ld	s3,-456(s0)
    4f4c:	01350533          	add	a0,a0,s3
    4f50:	00b50533          	add	a0,a0,a1
    4f54:	1005051b          	addiw	a0,a0,256
    4f58:	400009b7          	lui	s3,0x40000
    4f5c:	00001ab7          	lui	s5,0x1
    4f60:	41540ab3          	sub	s5,s0,s5
    4f64:	3aaab823          	sd	a0,944(s5) # 13b0 <.LBB64_4+0x248>
    4f68:	00055463          	bgez	a0,4f70 <.LBB64_208>
    4f6c:	c00009b7          	lui	s3,0xc0000

0000000000004f70 <.LBB64_208>:
    4f70:	00001537          	lui	a0,0x1
    4f74:	40a40533          	sub	a0,s0,a0
    4f78:	3b353423          	sd	s3,936(a0) # 13a8 <.LBB64_4+0x240>
    4f7c:	9a843503          	ld	a0,-1624(s0)
    4f80:	e3043983          	ld	s3,-464(s0)
    4f84:	01350533          	add	a0,a0,s3
    4f88:	000019b7          	lui	s3,0x1
    4f8c:	413409b3          	sub	s3,s0,s3
    4f90:	6d09b983          	ld	s3,1744(s3) # 16d0 <.LBB64_4+0x568>
    4f94:	01350533          	add	a0,a0,s3
    4f98:	00b50533          	add	a0,a0,a1
    4f9c:	1005051b          	addiw	a0,a0,256
    4fa0:	400009b7          	lui	s3,0x40000
    4fa4:	00001ab7          	lui	s5,0x1
    4fa8:	41540ab3          	sub	s5,s0,s5
    4fac:	3caab023          	sd	a0,960(s5) # 13c0 <.LBB64_4+0x258>
    4fb0:	00055463          	bgez	a0,4fb8 <.LBB64_210>
    4fb4:	c00009b7          	lui	s3,0xc0000

0000000000004fb8 <.LBB64_210>:
    4fb8:	00001537          	lui	a0,0x1
    4fbc:	40a40533          	sub	a0,s0,a0
    4fc0:	3b353c23          	sd	s3,952(a0) # 13b8 <.LBB64_4+0x250>
    4fc4:	9b043503          	ld	a0,-1616(s0)
    4fc8:	000019b7          	lui	s3,0x1
    4fcc:	413409b3          	sub	s3,s0,s3
    4fd0:	6c89b983          	ld	s3,1736(s3) # 16c8 <.LBB64_4+0x560>
    4fd4:	01350533          	add	a0,a0,s3
    4fd8:	000019b7          	lui	s3,0x1
    4fdc:	413409b3          	sub	s3,s0,s3
    4fe0:	6c09b983          	ld	s3,1728(s3) # 16c0 <.LBB64_4+0x558>
    4fe4:	01350533          	add	a0,a0,s3
    4fe8:	00b50533          	add	a0,a0,a1
    4fec:	1005051b          	addiw	a0,a0,256
    4ff0:	400009b7          	lui	s3,0x40000
    4ff4:	00001ab7          	lui	s5,0x1
    4ff8:	41540ab3          	sub	s5,s0,s5
    4ffc:	3caab823          	sd	a0,976(s5) # 13d0 <.LBB64_4+0x268>
    5000:	00055463          	bgez	a0,5008 <.LBB64_212>
    5004:	c00009b7          	lui	s3,0xc0000

0000000000005008 <.LBB64_212>:
    5008:	00001537          	lui	a0,0x1
    500c:	40a40533          	sub	a0,s0,a0
    5010:	3d353423          	sd	s3,968(a0) # 13c8 <.LBB64_4+0x260>
    5014:	9b843503          	ld	a0,-1608(s0)
    5018:	000019b7          	lui	s3,0x1
    501c:	413409b3          	sub	s3,s0,s3
    5020:	6b89b983          	ld	s3,1720(s3) # 16b8 <.LBB64_4+0x550>
    5024:	01350533          	add	a0,a0,s3
    5028:	000019b7          	lui	s3,0x1
    502c:	413409b3          	sub	s3,s0,s3
    5030:	6b09b983          	ld	s3,1712(s3) # 16b0 <.LBB64_4+0x548>
    5034:	01350533          	add	a0,a0,s3
    5038:	00b50533          	add	a0,a0,a1
    503c:	1005051b          	addiw	a0,a0,256
    5040:	400009b7          	lui	s3,0x40000
    5044:	00001ab7          	lui	s5,0x1
    5048:	41540ab3          	sub	s5,s0,s5
    504c:	3eaab023          	sd	a0,992(s5) # 13e0 <.LBB64_4+0x278>
    5050:	00055463          	bgez	a0,5058 <.LBB64_214>
    5054:	c00009b7          	lui	s3,0xc0000

0000000000005058 <.LBB64_214>:
    5058:	00001537          	lui	a0,0x1
    505c:	40a40533          	sub	a0,s0,a0
    5060:	3d353c23          	sd	s3,984(a0) # 13d8 <.LBB64_4+0x270>
    5064:	9c043503          	ld	a0,-1600(s0)
    5068:	000019b7          	lui	s3,0x1
    506c:	413409b3          	sub	s3,s0,s3
    5070:	6a89b983          	ld	s3,1704(s3) # 16a8 <.LBB64_4+0x540>
    5074:	01350533          	add	a0,a0,s3
    5078:	000019b7          	lui	s3,0x1
    507c:	413409b3          	sub	s3,s0,s3
    5080:	6a09b983          	ld	s3,1696(s3) # 16a0 <.LBB64_4+0x538>
    5084:	01350533          	add	a0,a0,s3
    5088:	00b50533          	add	a0,a0,a1
    508c:	1005051b          	addiw	a0,a0,256
    5090:	400009b7          	lui	s3,0x40000
    5094:	00001ab7          	lui	s5,0x1
    5098:	41540ab3          	sub	s5,s0,s5
    509c:	3eaab823          	sd	a0,1008(s5) # 13f0 <.LBB64_4+0x288>
    50a0:	00055463          	bgez	a0,50a8 <.LBB64_216>
    50a4:	c00009b7          	lui	s3,0xc0000

00000000000050a8 <.LBB64_216>:
    50a8:	00001537          	lui	a0,0x1
    50ac:	40a40533          	sub	a0,s0,a0
    50b0:	3f353423          	sd	s3,1000(a0) # 13e8 <.LBB64_4+0x280>
    50b4:	9c843503          	ld	a0,-1592(s0)
    50b8:	000019b7          	lui	s3,0x1
    50bc:	413409b3          	sub	s3,s0,s3
    50c0:	6989b983          	ld	s3,1688(s3) # 1698 <.LBB64_4+0x530>
    50c4:	01350533          	add	a0,a0,s3
    50c8:	000019b7          	lui	s3,0x1
    50cc:	413409b3          	sub	s3,s0,s3
    50d0:	6d89b983          	ld	s3,1752(s3) # 16d8 <.LBB64_4+0x570>
    50d4:	01350533          	add	a0,a0,s3
    50d8:	00b50533          	add	a0,a0,a1
    50dc:	1005051b          	addiw	a0,a0,256
    50e0:	400009b7          	lui	s3,0x40000
    50e4:	00001ab7          	lui	s5,0x1
    50e8:	41540ab3          	sub	s5,s0,s5
    50ec:	40aab023          	sd	a0,1024(s5) # 1400 <.LBB64_4+0x298>
    50f0:	00055463          	bgez	a0,50f8 <.LBB64_218>
    50f4:	c00009b7          	lui	s3,0xc0000

00000000000050f8 <.LBB64_218>:
    50f8:	00001537          	lui	a0,0x1
    50fc:	40a40533          	sub	a0,s0,a0
    5100:	3f353c23          	sd	s3,1016(a0) # 13f8 <.LBB64_4+0x290>
    5104:	9d043503          	ld	a0,-1584(s0)
    5108:	e8843983          	ld	s3,-376(s0)
    510c:	01350533          	add	a0,a0,s3
    5110:	000019b7          	lui	s3,0x1
    5114:	413409b3          	sub	s3,s0,s3
    5118:	6e09b983          	ld	s3,1760(s3) # 16e0 <.LBB64_4+0x578>
    511c:	01350533          	add	a0,a0,s3
    5120:	00b50533          	add	a0,a0,a1
    5124:	1005051b          	addiw	a0,a0,256
    5128:	400009b7          	lui	s3,0x40000
    512c:	00001ab7          	lui	s5,0x1
    5130:	41540ab3          	sub	s5,s0,s5
    5134:	40aab823          	sd	a0,1040(s5) # 1410 <.LBB64_4+0x2a8>
    5138:	00055463          	bgez	a0,5140 <.LBB64_220>
    513c:	c00009b7          	lui	s3,0xc0000

0000000000005140 <.LBB64_220>:
    5140:	00001537          	lui	a0,0x1
    5144:	40a40533          	sub	a0,s0,a0
    5148:	41353423          	sd	s3,1032(a0) # 1408 <.LBB64_4+0x2a0>
    514c:	9d843503          	ld	a0,-1576(s0)
    5150:	e9043983          	ld	s3,-368(s0)
    5154:	01350533          	add	a0,a0,s3
    5158:	000019b7          	lui	s3,0x1
    515c:	413409b3          	sub	s3,s0,s3
    5160:	6e89b983          	ld	s3,1768(s3) # 16e8 <.LBB64_4+0x580>
    5164:	01350533          	add	a0,a0,s3
    5168:	00b50533          	add	a0,a0,a1
    516c:	1005051b          	addiw	a0,a0,256
    5170:	400009b7          	lui	s3,0x40000
    5174:	00001ab7          	lui	s5,0x1
    5178:	41540ab3          	sub	s5,s0,s5
    517c:	42aab023          	sd	a0,1056(s5) # 1420 <.LBB64_4+0x2b8>
    5180:	00055463          	bgez	a0,5188 <.LBB64_222>
    5184:	c00009b7          	lui	s3,0xc0000

0000000000005188 <.LBB64_222>:
    5188:	00001537          	lui	a0,0x1
    518c:	40a40533          	sub	a0,s0,a0
    5190:	41353c23          	sd	s3,1048(a0) # 1418 <.LBB64_4+0x2b0>
    5194:	9e043503          	ld	a0,-1568(s0)
    5198:	e9843983          	ld	s3,-360(s0)
    519c:	01350533          	add	a0,a0,s3
    51a0:	000019b7          	lui	s3,0x1
    51a4:	413409b3          	sub	s3,s0,s3
    51a8:	6f09b983          	ld	s3,1776(s3) # 16f0 <.LBB64_4+0x588>
    51ac:	01350533          	add	a0,a0,s3
    51b0:	00b50533          	add	a0,a0,a1
    51b4:	1005051b          	addiw	a0,a0,256
    51b8:	400009b7          	lui	s3,0x40000
    51bc:	00001ab7          	lui	s5,0x1
    51c0:	41540ab3          	sub	s5,s0,s5
    51c4:	42aab823          	sd	a0,1072(s5) # 1430 <.LBB64_4+0x2c8>
    51c8:	00055463          	bgez	a0,51d0 <.LBB64_224>
    51cc:	c00009b7          	lui	s3,0xc0000

00000000000051d0 <.LBB64_224>:
    51d0:	00001537          	lui	a0,0x1
    51d4:	40a40533          	sub	a0,s0,a0
    51d8:	43353423          	sd	s3,1064(a0) # 1428 <.LBB64_4+0x2c0>
    51dc:	9e843503          	ld	a0,-1560(s0)
    51e0:	ea043983          	ld	s3,-352(s0)
    51e4:	01350533          	add	a0,a0,s3
    51e8:	01a50533          	add	a0,a0,s10
    51ec:	00b50533          	add	a0,a0,a1
    51f0:	1005051b          	addiw	a0,a0,256
    51f4:	400009b7          	lui	s3,0x40000
    51f8:	00001ab7          	lui	s5,0x1
    51fc:	41540ab3          	sub	s5,s0,s5
    5200:	44aab023          	sd	a0,1088(s5) # 1440 <.LBB64_4+0x2d8>
    5204:	00055463          	bgez	a0,520c <.LBB64_226>
    5208:	c00009b7          	lui	s3,0xc0000

000000000000520c <.LBB64_226>:
    520c:	00001537          	lui	a0,0x1
    5210:	40a40533          	sub	a0,s0,a0
    5214:	43353c23          	sd	s3,1080(a0) # 1438 <.LBB64_4+0x2d0>
    5218:	9f043503          	ld	a0,-1552(s0)
    521c:	ea843983          	ld	s3,-344(s0)
    5220:	01350533          	add	a0,a0,s3
    5224:	000019b7          	lui	s3,0x1
    5228:	413409b3          	sub	s3,s0,s3
    522c:	7009b983          	ld	s3,1792(s3) # 1700 <.LBB64_4+0x598>
    5230:	01350533          	add	a0,a0,s3
    5234:	00b50533          	add	a0,a0,a1
    5238:	1005051b          	addiw	a0,a0,256
    523c:	400009b7          	lui	s3,0x40000
    5240:	00001ab7          	lui	s5,0x1
    5244:	41540ab3          	sub	s5,s0,s5
    5248:	44aab823          	sd	a0,1104(s5) # 1450 <.LBB64_4+0x2e8>
    524c:	00055463          	bgez	a0,5254 <.LBB64_228>
    5250:	c00009b7          	lui	s3,0xc0000

0000000000005254 <.LBB64_228>:
    5254:	00001537          	lui	a0,0x1
    5258:	40a40533          	sub	a0,s0,a0
    525c:	45353423          	sd	s3,1096(a0) # 1448 <.LBB64_4+0x2e0>
    5260:	9f843503          	ld	a0,-1544(s0)
    5264:	eb043983          	ld	s3,-336(s0)
    5268:	01350533          	add	a0,a0,s3
    526c:	000019b7          	lui	s3,0x1
    5270:	413409b3          	sub	s3,s0,s3
    5274:	7089b983          	ld	s3,1800(s3) # 1708 <.LBB64_5+0x4>
    5278:	01350533          	add	a0,a0,s3
    527c:	00b50533          	add	a0,a0,a1
    5280:	1005051b          	addiw	a0,a0,256
    5284:	400009b7          	lui	s3,0x40000
    5288:	00001ab7          	lui	s5,0x1
    528c:	41540ab3          	sub	s5,s0,s5
    5290:	46aab023          	sd	a0,1120(s5) # 1460 <.LBB64_4+0x2f8>
    5294:	00055463          	bgez	a0,529c <.LBB64_230>
    5298:	c00009b7          	lui	s3,0xc0000

000000000000529c <.LBB64_230>:
    529c:	00001537          	lui	a0,0x1
    52a0:	40a40533          	sub	a0,s0,a0
    52a4:	45353c23          	sd	s3,1112(a0) # 1458 <.LBB64_4+0x2f0>
    52a8:	a0043503          	ld	a0,-1536(s0)
    52ac:	eb843983          	ld	s3,-328(s0)
    52b0:	01350533          	add	a0,a0,s3
    52b4:	000019b7          	lui	s3,0x1
    52b8:	413409b3          	sub	s3,s0,s3
    52bc:	7109b983          	ld	s3,1808(s3) # 1710 <.LBB64_5+0xc>
    52c0:	01350533          	add	a0,a0,s3
    52c4:	00b50533          	add	a0,a0,a1
    52c8:	1005051b          	addiw	a0,a0,256
    52cc:	400009b7          	lui	s3,0x40000
    52d0:	00001ab7          	lui	s5,0x1
    52d4:	41540ab3          	sub	s5,s0,s5
    52d8:	46aab823          	sd	a0,1136(s5) # 1470 <.LBB64_4+0x308>
    52dc:	00055463          	bgez	a0,52e4 <.LBB64_232>
    52e0:	c00009b7          	lui	s3,0xc0000

00000000000052e4 <.LBB64_232>:
    52e4:	00001537          	lui	a0,0x1
    52e8:	40a40533          	sub	a0,s0,a0
    52ec:	47353423          	sd	s3,1128(a0) # 1468 <.LBB64_4+0x300>
    52f0:	a0843503          	ld	a0,-1528(s0)
    52f4:	ec043983          	ld	s3,-320(s0)
    52f8:	01350533          	add	a0,a0,s3
    52fc:	000019b7          	lui	s3,0x1
    5300:	413409b3          	sub	s3,s0,s3
    5304:	7189b983          	ld	s3,1816(s3) # 1718 <.LBB64_5+0x14>
    5308:	01350533          	add	a0,a0,s3
    530c:	00b50533          	add	a0,a0,a1
    5310:	1005051b          	addiw	a0,a0,256
    5314:	400009b7          	lui	s3,0x40000
    5318:	00001ab7          	lui	s5,0x1
    531c:	41540ab3          	sub	s5,s0,s5
    5320:	48aab023          	sd	a0,1152(s5) # 1480 <.LBB64_4+0x318>
    5324:	00055463          	bgez	a0,532c <.LBB64_234>
    5328:	c00009b7          	lui	s3,0xc0000

000000000000532c <.LBB64_234>:
    532c:	00001537          	lui	a0,0x1
    5330:	40a40533          	sub	a0,s0,a0
    5334:	47353c23          	sd	s3,1144(a0) # 1478 <.LBB64_4+0x310>
    5338:	a1043503          	ld	a0,-1520(s0)
    533c:	f1843983          	ld	s3,-232(s0)
    5340:	01350533          	add	a0,a0,s3
    5344:	000019b7          	lui	s3,0x1
    5348:	413409b3          	sub	s3,s0,s3
    534c:	7209b983          	ld	s3,1824(s3) # 1720 <.LBB64_5+0x1c>
