
code.o:     file format elf64-littleriscv


Disassembly of section .text.main_dispatch_32_pooling_nhwc_sum_1x28x28x144x3x3_i8xi32xi32:

0000000000000000 <main_dispatch_32_pooling_nhwc_sum_1x28x28x144x3x3_i8xi32xi32>:
   0:	e9010113          	addi	sp,sp,-368
   4:	16113423          	sd	ra,360(sp)
   8:	16813023          	sd	s0,352(sp)
   c:	14913c23          	sd	s1,344(sp)
  10:	15213823          	sd	s2,336(sp)
  14:	15313423          	sd	s3,328(sp)
  18:	15413023          	sd	s4,320(sp)
  1c:	13513c23          	sd	s5,312(sp)
  20:	13613823          	sd	s6,304(sp)
  24:	13713423          	sd	s7,296(sp)
  28:	13813023          	sd	s8,288(sp)
  2c:	11913c23          	sd	s9,280(sp)
  30:	11a13823          	sd	s10,272(sp)
  34:	11b13423          	sd	s11,264(sp)
  38:	17010413          	addi	s0,sp,368
  3c:	0205b503          	ld	a0,32(a1)
  40:	00000693          	li	a3,0
  44:	00853583          	ld	a1,8(a0)
  48:	00053503          	ld	a0,0(a0)
  4c:	00108637          	lui	a2,0x108
  50:	4c06061b          	addiw	a2,a2,1216 # 1084c0 <.Lfunc_end80+0xdfaf8>
  54:	00c585b3          	add	a1,a1,a2
  58:	e8b43c23          	sd	a1,-360(s0)
  5c:	000965b7          	lui	a1,0x96
  60:	3405859b          	addiw	a1,a1,832 # 96340 <.Lfunc_end80+0x6d978>
  64:	00b50cb3          	add	s9,a0,a1
  68:	00002537          	lui	a0,0x2
  6c:	0105079b          	addiw	a5,a0,16 # 2010 <.LBB28_4+0x2fc>
  70:	00004537          	lui	a0,0x4
  74:	0205051b          	addiw	a0,a0,32 # 4020 <.LBB103_96>
  78:	e8a43823          	sd	a0,-368(s0)

000000000000007c <.LBB31_1>:
  7c:	00000513          	li	a0,0
  80:	00869593          	slli	a1,a3,0x8
  84:	ead43423          	sd	a3,-344(s0)
  88:	00e69613          	slli	a2,a3,0xe
  8c:	40b60633          	sub	a2,a2,a1
  90:	e9843583          	ld	a1,-360(s0)
  94:	00c585b3          	add	a1,a1,a2
  98:	eab43823          	sd	a1,-336(s0)
  9c:	eb943023          	sd	s9,-352(s0)

00000000000000a0 <.LBB31_2>:
  a0:	00000c13          	li	s8,0
  a4:	00050593          	mv	a1,a0
  a8:	24000513          	li	a0,576
  ac:	eab43c23          	sd	a1,-328(s0)
  b0:	02a58533          	mul	a0,a1,a0
  b4:	eb043583          	ld	a1,-336(s0)
  b8:	00a58533          	add	a0,a1,a0
  bc:	24050593          	addi	a1,a0,576
  c0:	ecb43c23          	sd	a1,-296(s0)
  c4:	48050593          	addi	a1,a0,1152
  c8:	ecb43823          	sd	a1,-304(s0)
  cc:	eea43023          	sd	a0,-288(s0)
  d0:	6c050513          	addi	a0,a0,1728
  d4:	eca43423          	sd	a0,-312(s0)
  d8:	ed943023          	sd	s9,-320(s0)

00000000000000dc <.LBB31_3>:
  dc:	00000f93          	li	t6,0
  e0:	00000593          	li	a1,0
  e4:	00000a93          	li	s5,0
  e8:	f4043423          	sd	zero,-184(s0)
  ec:	f4043023          	sd	zero,-192(s0)
  f0:	f2043c23          	sd	zero,-200(s0)
  f4:	00000b13          	li	s6,0
  f8:	00000b93          	li	s7,0
  fc:	00000313          	li	t1,0
 100:	00000d13          	li	s10,0
 104:	00000993          	li	s3,0
 108:	f6043423          	sd	zero,-152(s0)
 10c:	f6043023          	sd	zero,-160(s0)
 110:	f4043c23          	sd	zero,-168(s0)
 114:	f4043823          	sd	zero,-176(s0)
 118:	00000f13          	li	t5,0
 11c:	f8043823          	sd	zero,-112(s0)
 120:	f8043423          	sd	zero,-120(s0)
 124:	00000493          	li	s1,0
 128:	f8043023          	sd	zero,-128(s0)
 12c:	f6043c23          	sd	zero,-136(s0)
 130:	00000713          	li	a4,0
 134:	f6043823          	sd	zero,-144(s0)
 138:	00000e93          	li	t4,0
 13c:	00000913          	li	s2,0
 140:	00000093          	li	ra,0
 144:	00000e13          	li	t3,0
 148:	00000d93          	li	s11,0
 14c:	00000393          	li	t2,0
 150:	00000813          	li	a6,0
 154:	00000293          	li	t0,0
 158:	00000893          	li	a7,0
 15c:	ef843423          	sd	s8,-280(s0)
 160:	ffd00c13          	li	s8,-3
 164:	ef943823          	sd	s9,-272(s0)

0000000000000168 <.LBB31_4>:
 168:	f0543023          	sd	t0,-256(s0)
 16c:	f1243423          	sd	s2,-248(s0)
 170:	f3043023          	sd	a6,-224(s0)
 174:	f2143423          	sd	ra,-216(s0)
 178:	f3b43823          	sd	s11,-208(s0)
 17c:	dc1c8083          	lb	ra,-575(s9)
 180:	dc0c8d83          	lb	s11,-576(s9)
 184:	00158833          	add	a6,a1,ra
 188:	dc2c8083          	lb	ra,-574(s9)
 18c:	01bf8fb3          	add	t6,t6,s11
 190:	dc3c8d83          	lb	s11,-573(s9)
 194:	dc4c8a03          	lb	s4,-572(s9)
 198:	001a8933          	add	s2,s5,ra
 19c:	dc5c8083          	lb	ra,-571(s9)
 1a0:	00070693          	mv	a3,a4
 1a4:	f4843703          	ld	a4,-184(s0)
 1a8:	01b70733          	add	a4,a4,s11
 1ac:	f4043503          	ld	a0,-192(s0)
 1b0:	01450a33          	add	s4,a0,s4
 1b4:	dc6c8583          	lb	a1,-570(s9)
 1b8:	f3843a83          	ld	s5,-200(s0)
 1bc:	001a8ab3          	add	s5,s5,ra
 1c0:	dc7c8d83          	lb	s11,-569(s9)
 1c4:	ee1c8083          	lb	ra,-287(s9)
 1c8:	00bb0b33          	add	s6,s6,a1
 1cc:	e51c8583          	lb	a1,-431(s9)
 1d0:	01bb8bb3          	add	s7,s7,s11
 1d4:	001d0d33          	add	s10,s10,ra
 1d8:	ee0c8d83          	lb	s11,-288(s9)
 1dc:	001585b3          	add	a1,a1,ra
 1e0:	e50c8083          	lb	ra,-432(s9)
 1e4:	00b805b3          	add	a1,a6,a1
 1e8:	eeb43c23          	sd	a1,-264(s0)
 1ec:	01b302b3          	add	t0,t1,s11
 1f0:	ee2c8583          	lb	a1,-286(s9)
 1f4:	01b08db3          	add	s11,ra,s11
 1f8:	e52c8083          	lb	ra,-430(s9)
 1fc:	01bf8fb3          	add	t6,t6,s11
 200:	f1f43c23          	sd	t6,-232(s0)
 204:	00b989b3          	add	s3,s3,a1
 208:	ee3c8d83          	lb	s11,-285(s9)
 20c:	00b085b3          	add	a1,ra,a1
 210:	e53c8083          	lb	ra,-429(s9)
 214:	00b905b3          	add	a1,s2,a1
 218:	f0b43823          	sd	a1,-240(s0)
 21c:	f6843303          	ld	t1,-152(s0)
 220:	01b30333          	add	t1,t1,s11
 224:	ee4c8583          	lb	a1,-284(s9)
 228:	01b08db3          	add	s11,ra,s11
 22c:	e54c8083          	lb	ra,-428(s9)
 230:	01b70733          	add	a4,a4,s11
 234:	f4e43423          	sd	a4,-184(s0)
 238:	000e0713          	mv	a4,t3
 23c:	f6043e03          	ld	t3,-160(s0)
 240:	00be0e33          	add	t3,t3,a1
 244:	ee5c8d83          	lb	s11,-283(s9)
 248:	00b085b3          	add	a1,ra,a1
 24c:	e55c8083          	lb	ra,-427(s9)
 250:	00ba05b3          	add	a1,s4,a1
 254:	f4b43023          	sd	a1,-192(s0)
 258:	00038593          	mv	a1,t2
 25c:	f5843383          	ld	t2,-168(s0)
 260:	01b383b3          	add	t2,t2,s11
 264:	ee6c8a03          	lb	s4,-282(s9)
 268:	01b08db3          	add	s11,ra,s11
 26c:	e56c8083          	lb	ra,-426(s9)
 270:	01ba8ab3          	add	s5,s5,s11
 274:	f3543c23          	sd	s5,-200(s0)
 278:	00078f93          	mv	t6,a5
 27c:	f5043783          	ld	a5,-176(s0)
 280:	014787b3          	add	a5,a5,s4
 284:	ee7c8d83          	lb	s11,-281(s9)
 288:	01408a33          	add	s4,ra,s4
 28c:	e57c8083          	lb	ra,-425(s9)
 290:	014b0b33          	add	s6,s6,s4
 294:	01bf0f33          	add	t5,t5,s11
 298:	000c8a03          	lb	s4,0(s9)
 29c:	01b08db3          	add	s11,ra,s11
 2a0:	f70c8083          	lb	ra,-144(s9)
 2a4:	01bb8bb3          	add	s7,s7,s11
 2a8:	f9043d83          	ld	s11,-112(s0)
 2ac:	014d8db3          	add	s11,s11,s4
 2b0:	001c8503          	lb	a0,1(s9)
 2b4:	01408a33          	add	s4,ra,s4
 2b8:	f71c8083          	lb	ra,-143(s9)
 2bc:	01428ab3          	add	s5,t0,s4
 2c0:	00088913          	mv	s2,a7
 2c4:	f8843883          	ld	a7,-120(s0)
 2c8:	00a888b3          	add	a7,a7,a0
 2cc:	002c8283          	lb	t0,2(s9)
 2d0:	00a08533          	add	a0,ra,a0
 2d4:	f72c8a03          	lb	s4,-142(s9)
 2d8:	00ad0d33          	add	s10,s10,a0
 2dc:	005484b3          	add	s1,s1,t0
 2e0:	003c8503          	lb	a0,3(s9)
 2e4:	005a02b3          	add	t0,s4,t0
 2e8:	f73c8a03          	lb	s4,-141(s9)
 2ec:	005989b3          	add	s3,s3,t0
 2f0:	f8043603          	ld	a2,-128(s0)
 2f4:	00a60633          	add	a2,a2,a0
 2f8:	004c8283          	lb	t0,4(s9)
 2fc:	00aa0533          	add	a0,s4,a0
 300:	f74c8a03          	lb	s4,-140(s9)
 304:	00a30533          	add	a0,t1,a0
 308:	f6a43423          	sd	a0,-152(s0)
 30c:	f7843503          	ld	a0,-136(s0)
 310:	00550533          	add	a0,a0,t0
 314:	005c8083          	lb	ra,5(s9)
 318:	005a02b3          	add	t0,s4,t0
 31c:	f75c8a03          	lb	s4,-139(s9)
 320:	005e02b3          	add	t0,t3,t0
 324:	f6543023          	sd	t0,-160(s0)
 328:	001682b3          	add	t0,a3,ra
 32c:	006c8683          	lb	a3,6(s9)
 330:	001a0a33          	add	s4,s4,ra
 334:	f76c8083          	lb	ra,-138(s9)
 338:	014383b3          	add	t2,t2,s4
 33c:	f4743c23          	sd	t2,-168(s0)
 340:	f7043a03          	ld	s4,-144(s0)
 344:	00da0a33          	add	s4,s4,a3
 348:	007c8803          	lb	a6,7(s9)
 34c:	00d086b3          	add	a3,ra,a3
 350:	f77c8083          	lb	ra,-137(s9)
 354:	00d786b3          	add	a3,a5,a3
 358:	f4d43823          	sd	a3,-176(s0)
 35c:	010e8eb3          	add	t4,t4,a6
 360:	120c8683          	lb	a3,288(s9)
 364:	01008833          	add	a6,ra,a6
 368:	090c8083          	lb	ra,144(s9)
 36c:	010f0f33          	add	t5,t5,a6
 370:	f0843803          	ld	a6,-248(s0)
 374:	00d80833          	add	a6,a6,a3
 378:	121c8783          	lb	a5,289(s9)
 37c:	00d086b3          	add	a3,ra,a3
 380:	091c8083          	lb	ra,145(s9)
 384:	00dd86b3          	add	a3,s11,a3
 388:	f8d43823          	sd	a3,-112(s0)
 38c:	f2843683          	ld	a3,-216(s0)
 390:	00f686b3          	add	a3,a3,a5
 394:	122c8d83          	lb	s11,290(s9)
 398:	00f087b3          	add	a5,ra,a5
 39c:	092c8083          	lb	ra,146(s9)
 3a0:	00f887b3          	add	a5,a7,a5
 3a4:	f8f43423          	sd	a5,-120(s0)
 3a8:	01b707b3          	add	a5,a4,s11
 3ac:	123c8883          	lb	a7,291(s9)
 3b0:	01b08db3          	add	s11,ra,s11
 3b4:	093c8083          	lb	ra,147(s9)
 3b8:	01b484b3          	add	s1,s1,s11
 3bc:	f3043d83          	ld	s11,-208(s0)
 3c0:	011d8db3          	add	s11,s11,a7
 3c4:	124c8303          	lb	t1,292(s9)
 3c8:	011088b3          	add	a7,ra,a7
 3cc:	094c8083          	lb	ra,148(s9)
 3d0:	01160633          	add	a2,a2,a7
 3d4:	f8c43023          	sd	a2,-128(s0)
 3d8:	006588b3          	add	a7,a1,t1
 3dc:	ef843583          	ld	a1,-264(s0)
 3e0:	125c8603          	lb	a2,293(s9)
 3e4:	00608333          	add	t1,ra,t1
 3e8:	095c8083          	lb	ra,149(s9)
 3ec:	00650533          	add	a0,a0,t1
 3f0:	f6a43c23          	sd	a0,-136(s0)
 3f4:	f2043503          	ld	a0,-224(s0)
 3f8:	00c50533          	add	a0,a0,a2
 3fc:	126c8303          	lb	t1,294(s9)
 400:	00c08633          	add	a2,ra,a2
 404:	00c28733          	add	a4,t0,a2
 408:	096c8603          	lb	a2,150(s9)
 40c:	f0043283          	ld	t0,-256(s0)
 410:	006282b3          	add	t0,t0,t1
 414:	127c8083          	lb	ra,295(s9)
 418:	097c8383          	lb	t2,151(s9)
 41c:	00660633          	add	a2,a2,t1
 420:	00ca0633          	add	a2,s4,a2
 424:	f6c43823          	sd	a2,-144(s0)
 428:	00190633          	add	a2,s2,ra
 42c:	001383b3          	add	t2,t2,ra
 430:	1b0c8303          	lb	t1,432(s9)
 434:	240c8a03          	lb	s4,576(s9)
 438:	1b1c8083          	lb	ra,433(s9)
 43c:	241c8e03          	lb	t3,577(s9)
 440:	007e8eb3          	add	t4,t4,t2
 444:	01430333          	add	t1,t1,s4
 448:	00680933          	add	s2,a6,t1
 44c:	01c08e33          	add	t3,ra,t3
 450:	1b2c8803          	lb	a6,434(s9)
 454:	242c8303          	lb	t1,578(s9)
 458:	1b3c8383          	lb	t2,435(s9)
 45c:	243c8a03          	lb	s4,579(s9)
 460:	01c680b3          	add	ra,a3,t3
 464:	00680833          	add	a6,a6,t1
 468:	01078e33          	add	t3,a5,a6
 46c:	014383b3          	add	t2,t2,s4
 470:	1b4c8683          	lb	a3,436(s9)
 474:	244c8783          	lb	a5,580(s9)
 478:	1b5c8803          	lb	a6,437(s9)
 47c:	245c8303          	lb	t1,581(s9)
 480:	007d8db3          	add	s11,s11,t2
 484:	00f686b3          	add	a3,a3,a5
 488:	00d883b3          	add	t2,a7,a3
 48c:	00680833          	add	a6,a6,t1
 490:	1b6c8683          	lb	a3,438(s9)
 494:	246c8783          	lb	a5,582(s9)
 498:	1b7c8883          	lb	a7,439(s9)
 49c:	247c8303          	lb	t1,583(s9)
 4a0:	01050833          	add	a6,a0,a6
 4a4:	00f686b3          	add	a3,a3,a5
 4a8:	000f8793          	mv	a5,t6
 4ac:	f1843f83          	ld	t6,-232(s0)
 4b0:	00d282b3          	add	t0,t0,a3
 4b4:	006888b3          	add	a7,a7,t1
 4b8:	000a8313          	mv	t1,s5
 4bc:	f1043a83          	ld	s5,-240(s0)
 4c0:	011608b3          	add	a7,a2,a7
 4c4:	001c0c13          	addi	s8,s8,1
 4c8:	00fc8cb3          	add	s9,s9,a5
 4cc:	c80c1ee3          	bnez	s8,168 <.LBB31_4>
 4d0:	ee843683          	ld	a3,-280(s0)
 4d4:	00269513          	slli	a0,a3,0x2
 4d8:	ee043603          	ld	a2,-288(s0)
 4dc:	00a60633          	add	a2,a2,a0
 4e0:	01562423          	sw	s5,8(a2)
 4e4:	00b62223          	sw	a1,4(a2)
 4e8:	01f62023          	sw	t6,0(a2)
 4ec:	f4843583          	ld	a1,-184(s0)
 4f0:	00b62623          	sw	a1,12(a2)
 4f4:	f4043583          	ld	a1,-192(s0)
 4f8:	00b62823          	sw	a1,16(a2)
 4fc:	f3843583          	ld	a1,-200(s0)
 500:	00b62a23          	sw	a1,20(a2)
 504:	01662c23          	sw	s6,24(a2)
 508:	01762e23          	sw	s7,28(a2)
 50c:	ed843583          	ld	a1,-296(s0)
 510:	00a585b3          	add	a1,a1,a0
 514:	0135a423          	sw	s3,8(a1)
 518:	01a5a223          	sw	s10,4(a1)
 51c:	0065a023          	sw	t1,0(a1)
 520:	f6843603          	ld	a2,-152(s0)
 524:	00c5a623          	sw	a2,12(a1)
 528:	f6043603          	ld	a2,-160(s0)
 52c:	00c5a823          	sw	a2,16(a1)
 530:	f5843603          	ld	a2,-168(s0)
 534:	00c5aa23          	sw	a2,20(a1)
 538:	f5043603          	ld	a2,-176(s0)
 53c:	00c5ac23          	sw	a2,24(a1)
 540:	01e5ae23          	sw	t5,28(a1)
 544:	ed043583          	ld	a1,-304(s0)
 548:	00a585b3          	add	a1,a1,a0
 54c:	0095a423          	sw	s1,8(a1)
 550:	f8843603          	ld	a2,-120(s0)
 554:	00c5a223          	sw	a2,4(a1)
 558:	f9043603          	ld	a2,-112(s0)
 55c:	00c5a023          	sw	a2,0(a1)
 560:	f8043603          	ld	a2,-128(s0)
 564:	00c5a623          	sw	a2,12(a1)
 568:	f7843603          	ld	a2,-136(s0)
 56c:	00c5a823          	sw	a2,16(a1)
 570:	00e5aa23          	sw	a4,20(a1)
 574:	f7043603          	ld	a2,-144(s0)
 578:	00c5ac23          	sw	a2,24(a1)
 57c:	01d5ae23          	sw	t4,28(a1)
 580:	ec843583          	ld	a1,-312(s0)
 584:	00a58533          	add	a0,a1,a0
 588:	01c52423          	sw	t3,8(a0)
 58c:	00152223          	sw	ra,4(a0)
 590:	01252023          	sw	s2,0(a0)
 594:	01b52623          	sw	s11,12(a0)
 598:	00752823          	sw	t2,16(a0)
 59c:	01052a23          	sw	a6,20(a0)
 5a0:	00552c23          	sw	t0,24(a0)
 5a4:	01152e23          	sw	a7,28(a0)
 5a8:	00868c13          	addi	s8,a3,8
 5ac:	ef043c83          	ld	s9,-272(s0)
 5b0:	008c8c93          	addi	s9,s9,8
 5b4:	08800513          	li	a0,136
 5b8:	b2a6e2e3          	bltu	a3,a0,dc <.LBB31_3>
 5bc:	eb843603          	ld	a2,-328(s0)
 5c0:	00460513          	addi	a0,a2,4
 5c4:	ec043c83          	ld	s9,-320(s0)
 5c8:	480c8c93          	addi	s9,s9,1152
 5cc:	01800593          	li	a1,24
 5d0:	acb668e3          	bltu	a2,a1,a0 <.LBB31_2>
 5d4:	ea843683          	ld	a3,-344(s0)
 5d8:	00168693          	addi	a3,a3,1
 5dc:	ea043c83          	ld	s9,-352(s0)
 5e0:	e9043503          	ld	a0,-368(s0)
 5e4:	00ac8cb3          	add	s9,s9,a0
 5e8:	01c00513          	li	a0,28
 5ec:	a8a698e3          	bne	a3,a0,7c <.LBB31_1>
 5f0:	00000513          	li	a0,0
 5f4:	16813083          	ld	ra,360(sp)
 5f8:	16013403          	ld	s0,352(sp)
 5fc:	15813483          	ld	s1,344(sp)
 600:	15013903          	ld	s2,336(sp)
 604:	14813983          	ld	s3,328(sp)
 608:	14013a03          	ld	s4,320(sp)
 60c:	13813a83          	ld	s5,312(sp)
 610:	13013b03          	ld	s6,304(sp)
 614:	12813b83          	ld	s7,296(sp)
 618:	12013c03          	ld	s8,288(sp)
 61c:	11813c83          	ld	s9,280(sp)
 620:	11013d03          	ld	s10,272(sp)
 624:	10813d83          	ld	s11,264(sp)
 628:	17010113          	addi	sp,sp,368
 62c:	00008067          	ret
