
code.o:     file format elf64-littleriscv


Disassembly of section .text.main_dispatch_13_matmul_12544x96x16_i8xi8xi32:

0000000000000000 <main_dispatch_13_matmul_12544x96x16_i8xi8xi32>:
       0:	81010113          	addi	sp,sp,-2032
       4:	7e113423          	sd	ra,2024(sp)
       8:	7e813023          	sd	s0,2016(sp)
       c:	7c913c23          	sd	s1,2008(sp)
      10:	7d213823          	sd	s2,2000(sp)
      14:	7d313423          	sd	s3,1992(sp)
      18:	7d413023          	sd	s4,1984(sp)
      1c:	7b513c23          	sd	s5,1976(sp)
      20:	7b613823          	sd	s6,1968(sp)
      24:	7b713423          	sd	s7,1960(sp)
      28:	7b813023          	sd	s8,1952(sp)
      2c:	79913c23          	sd	s9,1944(sp)
      30:	79a13823          	sd	s10,1936(sp)
      34:	79b13423          	sd	s11,1928(sp)
      38:	7f010413          	addi	s0,sp,2032
      3c:	80010113          	addi	sp,sp,-2048
      40:	c9010113          	addi	sp,sp,-880
      44:	0205b503          	ld	a0,32(a1)
      48:	00000713          	li	a4,0
      4c:	00853583          	ld	a1,8(a0)
      50:	00053683          	ld	a3,0(a0)
      54:	00021637          	lui	a2,0x21
      58:	4806061b          	addiw	a2,a2,1152 # 21480 <.LBB60_4220>
      5c:	00c58633          	add	a2,a1,a2
      60:	000017b7          	lui	a5,0x1
      64:	40f407b3          	sub	a5,s0,a5
      68:	cac7b423          	sd	a2,-856(a5) # ca8 <.LBB13_3+0xa90>
      6c:	00020637          	lui	a2,0x20
      70:	d006061b          	addiw	a2,a2,-768 # 1fd00 <.LBB63_3954+0x4>
      74:	00c58633          	add	a2,a1,a2
      78:	000017b7          	lui	a5,0x1
      7c:	40f407b3          	sub	a5,s0,a5
      80:	ccc7b823          	sd	a2,-816(a5) # cd0 <.LBB13_3+0xab8>
      84:	00022637          	lui	a2,0x22
      88:	a806061b          	addiw	a2,a2,-1408 # 21a80 <.LBB60_4314+0x4>
      8c:	01053503          	ld	a0,16(a0)
      90:	00c585b3          	add	a1,a1,a2
      94:	00001637          	lui	a2,0x1
      98:	40c40633          	sub	a2,s0,a2
      9c:	ccb63423          	sd	a1,-824(a2) # cc8 <.LBB13_3+0xab0>
      a0:	0003d5b7          	lui	a1,0x3d
      a4:	4005859b          	addiw	a1,a1,1024 # 3d400 <.Lfunc_end80+0x14a38>
      a8:	00b50533          	add	a0,a0,a1
      ac:	000015b7          	lui	a1,0x1
      b0:	40b405b3          	sub	a1,s0,a1
      b4:	caa5b023          	sd	a0,-864(a1) # ca0 <.LBB13_3+0xa88>
      b8:	0000c537          	lui	a0,0xc
      bc:	4705051b          	addiw	a0,a0,1136 # c470 <.LBB19_804>
      c0:	000015b7          	lui	a1,0x1
      c4:	40b405b3          	sub	a1,s0,a1
      c8:	cad5b823          	sd	a3,-848(a1) # cb0 <.LBB13_3+0xa98>
      cc:	00a68533          	add	a0,a3,a0
      d0:	000015b7          	lui	a1,0x1
      d4:	40b405b3          	sub	a1,s0,a1
      d8:	d0a5bc23          	sd	a0,-744(a1) # d18 <.LBB13_3+0xb00>
      dc:	4b42d537          	lui	a0,0x4b42d
      e0:	c975051b          	addiw	a0,a0,-873 # 4b42cc97 <.Lfunc_end80+0x4b4042cf>
      e4:	000015b7          	lui	a1,0x1
      e8:	40b405b3          	sub	a1,s0,a1
      ec:	cca5b023          	sd	a0,-832(a1) # cc0 <.LBB13_3+0xaa8>
      f0:	00100513          	li	a0,1
      f4:	02051513          	slli	a0,a0,0x20
      f8:	000015b7          	lui	a1,0x1
      fc:	40b405b3          	sub	a1,s0,a1
     100:	62a5b423          	sd	a0,1576(a1) # 1628 <.LBB13_4+0x488>
     104:	0400006f          	j	144 <.LBB13_2>

0000000000000108 <.LBB13_1>:
     108:	00001537          	lui	a0,0x1
     10c:	40a40533          	sub	a0,s0,a0
     110:	cb853583          	ld	a1,-840(a0) # cb8 <.LBB13_3+0xaa0>
     114:	0035d513          	srli	a0,a1,0x3
     118:	00858713          	addi	a4,a1,8
     11c:	000015b7          	lui	a1,0x1
     120:	40b405b3          	sub	a1,s0,a1
     124:	d185b603          	ld	a2,-744(a1) # d18 <.LBB13_3+0xb00>
     128:	08060613          	addi	a2,a2,128
     12c:	000015b7          	lui	a1,0x1
     130:	40b405b3          	sub	a1,s0,a1
     134:	d0c5bc23          	sd	a2,-744(a1) # d18 <.LBB13_3+0xb00>
     138:	61f00593          	li	a1,1567
     13c:	00b56463          	bltu	a0,a1,144 <.LBB13_2>
     140:	6510a06f          	j	af90 <.LBB13_1030>

0000000000000144 <.LBB13_2>:
     144:	00000513          	li	a0,0
     148:	00271593          	slli	a1,a4,0x2
     14c:	00001637          	lui	a2,0x1
     150:	40c40633          	sub	a2,s0,a2
     154:	cb063603          	ld	a2,-848(a2) # cb0 <.LBB13_3+0xa98>
     158:	00b605b3          	add	a1,a2,a1
     15c:	00001637          	lui	a2,0x1
     160:	40c40633          	sub	a2,s0,a2
     164:	62b63823          	sd	a1,1584(a2) # 1630 <.LBB13_4+0x490>
     168:	000015b7          	lui	a1,0x1
     16c:	40b405b3          	sub	a1,s0,a1
     170:	cae5bc23          	sd	a4,-840(a1) # cb8 <.LBB13_3+0xaa0>
     174:	06000593          	li	a1,96
     178:	02b705b3          	mul	a1,a4,a1
     17c:	00001637          	lui	a2,0x1
     180:	40c40633          	sub	a2,s0,a2
     184:	ca063603          	ld	a2,-864(a2) # ca0 <.LBB13_3+0xa88>
     188:	00b605b3          	add	a1,a2,a1
     18c:	06058613          	addi	a2,a1,96
     190:	000016b7          	lui	a3,0x1
     194:	40d406b3          	sub	a3,s0,a3
     198:	d0c6b423          	sd	a2,-760(a3) # d08 <.LBB13_3+0xaf0>
     19c:	0c058613          	addi	a2,a1,192
     1a0:	000016b7          	lui	a3,0x1
     1a4:	40d406b3          	sub	a3,s0,a3
     1a8:	d0c6b023          	sd	a2,-768(a3) # d00 <.LBB13_3+0xae8>
     1ac:	12058613          	addi	a2,a1,288
     1b0:	000016b7          	lui	a3,0x1
     1b4:	40d406b3          	sub	a3,s0,a3
     1b8:	cec6bc23          	sd	a2,-776(a3) # cf8 <.LBB13_3+0xae0>
     1bc:	18058613          	addi	a2,a1,384
     1c0:	000016b7          	lui	a3,0x1
     1c4:	40d406b3          	sub	a3,s0,a3
     1c8:	cec6b823          	sd	a2,-784(a3) # cf0 <.LBB13_3+0xad8>
     1cc:	1e058613          	addi	a2,a1,480
     1d0:	000016b7          	lui	a3,0x1
     1d4:	40d406b3          	sub	a3,s0,a3
     1d8:	cec6b423          	sd	a2,-792(a3) # ce8 <.LBB13_3+0xad0>
     1dc:	24058613          	addi	a2,a1,576
     1e0:	000016b7          	lui	a3,0x1
     1e4:	40d406b3          	sub	a3,s0,a3
     1e8:	cec6b023          	sd	a2,-800(a3) # ce0 <.LBB13_3+0xac8>
     1ec:	00001637          	lui	a2,0x1
     1f0:	40c40633          	sub	a2,s0,a2
     1f4:	d0b63823          	sd	a1,-752(a2) # d10 <.LBB13_3+0xaf8>
     1f8:	2a058593          	addi	a1,a1,672
     1fc:	00001637          	lui	a2,0x1
     200:	40c40633          	sub	a2,s0,a2
     204:	ccb63c23          	sd	a1,-808(a2) # cd8 <.LBB13_3+0xac0>
     208:	000015b7          	lui	a1,0x1
     20c:	40b405b3          	sub	a1,s0,a1
     210:	ca85b603          	ld	a2,-856(a1) # ca8 <.LBB13_3+0xa90>
     214:	78d0006f          	j	11a0 <.LBB13_4>

0000000000000218 <.LBB13_3>:
     218:	ee843c03          	ld	s8,-280(s0)
     21c:	080c4c93          	xori	s9,s8,128
     220:	00001c37          	lui	s8,0x1
     224:	41840c33          	sub	s8,s0,s8
     228:	d10c3c03          	ld	s8,-752(s8) # d10 <.LBB13_3+0xaf8>
     22c:	00001d37          	lui	s10,0x1
     230:	41a40d33          	sub	s10,s0,s10
     234:	638d3d03          	ld	s10,1592(s10) # 1638 <.LBB13_4+0x498>
     238:	01ac0c33          	add	s8,s8,s10
     23c:	019c01a3          	sb	s9,3(s8)
     240:	f8843c83          	ld	s9,-120(s0)
     244:	080ccc93          	xori	s9,s9,128
     248:	019c0123          	sb	s9,2(s8)
     24c:	f8043c83          	ld	s9,-128(s0)
     250:	080ccc93          	xori	s9,s9,128
     254:	019c00a3          	sb	s9,1(s8)
     258:	f7843c83          	ld	s9,-136(s0)
     25c:	080ccc93          	xori	s9,s9,128
     260:	019c0023          	sb	s9,0(s8)
     264:	f7043c83          	ld	s9,-144(s0)
     268:	080ccc93          	xori	s9,s9,128
     26c:	019c0223          	sb	s9,4(s8)
     270:	f6843c83          	ld	s9,-152(s0)
     274:	080ccc93          	xori	s9,s9,128
     278:	019c02a3          	sb	s9,5(s8)
     27c:	f6043c83          	ld	s9,-160(s0)
     280:	080ccc93          	xori	s9,s9,128
     284:	019c0323          	sb	s9,6(s8)
     288:	f5843c83          	ld	s9,-168(s0)
     28c:	080ccc93          	xori	s9,s9,128
     290:	019c03a3          	sb	s9,7(s8)
     294:	f5043c83          	ld	s9,-176(s0)
     298:	080ccc93          	xori	s9,s9,128
     29c:	019c0423          	sb	s9,8(s8)
     2a0:	f4843c83          	ld	s9,-184(s0)
     2a4:	080ccc93          	xori	s9,s9,128
     2a8:	019c04a3          	sb	s9,9(s8)
     2ac:	f4043c83          	ld	s9,-192(s0)
     2b0:	080ccc93          	xori	s9,s9,128
     2b4:	019c0523          	sb	s9,10(s8)
     2b8:	f3843c83          	ld	s9,-200(s0)
     2bc:	080ccc93          	xori	s9,s9,128
     2c0:	019c05a3          	sb	s9,11(s8)
     2c4:	f3043c83          	ld	s9,-208(s0)
     2c8:	080ccc93          	xori	s9,s9,128
     2cc:	019c0623          	sb	s9,12(s8)
     2d0:	f2843c83          	ld	s9,-216(s0)
     2d4:	080ccc93          	xori	s9,s9,128
     2d8:	019c06a3          	sb	s9,13(s8)
     2dc:	f2043c83          	ld	s9,-224(s0)
     2e0:	080ccc93          	xori	s9,s9,128
     2e4:	019c0723          	sb	s9,14(s8)
     2e8:	f1843c83          	ld	s9,-232(s0)
     2ec:	080ccc93          	xori	s9,s9,128
     2f0:	019c07a3          	sb	s9,15(s8)
     2f4:	f1043c83          	ld	s9,-240(s0)
     2f8:	080ccc93          	xori	s9,s9,128
     2fc:	019c0823          	sb	s9,16(s8)
     300:	f0843c83          	ld	s9,-248(s0)
     304:	080ccc93          	xori	s9,s9,128
     308:	019c08a3          	sb	s9,17(s8)
     30c:	f0043c83          	ld	s9,-256(s0)
     310:	080ccc93          	xori	s9,s9,128
     314:	019c0923          	sb	s9,18(s8)
     318:	ef843c83          	ld	s9,-264(s0)
     31c:	080ccc93          	xori	s9,s9,128
     320:	019c09a3          	sb	s9,19(s8)
     324:	ef043c83          	ld	s9,-272(s0)
     328:	080ccc93          	xori	s9,s9,128
     32c:	019c0a23          	sb	s9,20(s8)
     330:	ee043c83          	ld	s9,-288(s0)
     334:	080ccc93          	xori	s9,s9,128
     338:	019c0aa3          	sb	s9,21(s8)
     33c:	ed843c83          	ld	s9,-296(s0)
     340:	080ccc93          	xori	s9,s9,128
     344:	019c0b23          	sb	s9,22(s8)
     348:	ec843c83          	ld	s9,-312(s0)
     34c:	080ccc93          	xori	s9,s9,128
     350:	019c0ba3          	sb	s9,23(s8)
     354:	ea843c83          	ld	s9,-344(s0)
     358:	080ccc93          	xori	s9,s9,128
     35c:	019c0c23          	sb	s9,24(s8)
     360:	e8043c83          	ld	s9,-384(s0)
     364:	080ccc93          	xori	s9,s9,128
     368:	019c0ca3          	sb	s9,25(s8)
     36c:	e4043c83          	ld	s9,-448(s0)
     370:	080ccc93          	xori	s9,s9,128
     374:	019c0d23          	sb	s9,26(s8)
     378:	e0043c83          	ld	s9,-512(s0)
     37c:	080ccc93          	xori	s9,s9,128
     380:	019c0da3          	sb	s9,27(s8)
     384:	dd043c83          	ld	s9,-560(s0)
     388:	080ccc93          	xori	s9,s9,128
     38c:	019c0e23          	sb	s9,28(s8)
     390:	d9843c83          	ld	s9,-616(s0)
     394:	080ccc93          	xori	s9,s9,128
     398:	019c0ea3          	sb	s9,29(s8)
     39c:	d5843c83          	ld	s9,-680(s0)
     3a0:	080ccc93          	xori	s9,s9,128
     3a4:	019c0f23          	sb	s9,30(s8)
     3a8:	d1043c83          	ld	s9,-752(s0)
     3ac:	080ccc93          	xori	s9,s9,128
     3b0:	019c0fa3          	sb	s9,31(s8)
     3b4:	cd043c03          	ld	s8,-816(s0)
     3b8:	080c4c93          	xori	s9,s8,128
     3bc:	00001c37          	lui	s8,0x1
     3c0:	41840c33          	sub	s8,s0,s8
     3c4:	d08c3c03          	ld	s8,-760(s8) # d08 <.LBB13_3+0xaf0>
     3c8:	01ac0c33          	add	s8,s8,s10
     3cc:	019c01a3          	sb	s9,3(s8)
     3d0:	c9043c83          	ld	s9,-880(s0)
     3d4:	080ccc93          	xori	s9,s9,128
     3d8:	019c0123          	sb	s9,2(s8)
     3dc:	c5043c83          	ld	s9,-944(s0)
     3e0:	080ccc93          	xori	s9,s9,128
     3e4:	019c00a3          	sb	s9,1(s8)
     3e8:	c1043c83          	ld	s9,-1008(s0)
     3ec:	080ccc93          	xori	s9,s9,128
     3f0:	019c0023          	sb	s9,0(s8)
     3f4:	c0843c83          	ld	s9,-1016(s0)
     3f8:	080ccc93          	xori	s9,s9,128
     3fc:	019c0223          	sb	s9,4(s8)
     400:	b8843c83          	ld	s9,-1144(s0)
     404:	080ccc93          	xori	s9,s9,128
     408:	019c02a3          	sb	s9,5(s8)
     40c:	b4843c83          	ld	s9,-1208(s0)
     410:	080ccc93          	xori	s9,s9,128
     414:	019c0323          	sb	s9,6(s8)
     418:	b0043c83          	ld	s9,-1280(s0)
     41c:	080ccc93          	xori	s9,s9,128
     420:	019c03a3          	sb	s9,7(s8)
     424:	ac043c83          	ld	s9,-1344(s0)
     428:	080ccc93          	xori	s9,s9,128
     42c:	019c0423          	sb	s9,8(s8)
     430:	a8043c83          	ld	s9,-1408(s0)
     434:	080ccc93          	xori	s9,s9,128
     438:	019c04a3          	sb	s9,9(s8)
     43c:	a3843c83          	ld	s9,-1480(s0)
     440:	080ccc93          	xori	s9,s9,128
     444:	019c0523          	sb	s9,10(s8)
     448:	9f843c83          	ld	s9,-1544(s0)
     44c:	080ccc93          	xori	s9,s9,128
     450:	019c05a3          	sb	s9,11(s8)
     454:	9b843c83          	ld	s9,-1608(s0)
     458:	080ccc93          	xori	s9,s9,128
     45c:	019c0623          	sb	s9,12(s8)
     460:	97043c83          	ld	s9,-1680(s0)
     464:	080ccc93          	xori	s9,s9,128
     468:	019c06a3          	sb	s9,13(s8)
     46c:	93043c83          	ld	s9,-1744(s0)
     470:	080ccc93          	xori	s9,s9,128
     474:	019c0723          	sb	s9,14(s8)
     478:	8f043c83          	ld	s9,-1808(s0)
     47c:	080ccc93          	xori	s9,s9,128
     480:	019c07a3          	sb	s9,15(s8)
     484:	8a843c83          	ld	s9,-1880(s0)
     488:	080ccc93          	xori	s9,s9,128
     48c:	019c0823          	sb	s9,16(s8)
     490:	86843c83          	ld	s9,-1944(s0)
     494:	080ccc93          	xori	s9,s9,128
     498:	019c08a3          	sb	s9,17(s8)
     49c:	84043c83          	ld	s9,-1984(s0)
     4a0:	080ccc93          	xori	s9,s9,128
     4a4:	019c0923          	sb	s9,18(s8)
     4a8:	80043c83          	ld	s9,-2048(s0)
     4ac:	080ccc93          	xori	s9,s9,128
     4b0:	019c09a3          	sb	s9,19(s8)
     4b4:	00001cb7          	lui	s9,0x1
     4b8:	41940cb3          	sub	s9,s0,s9
     4bc:	7a0cbc83          	ld	s9,1952(s9) # 17a0 <.LBB13_5+0xf4>
     4c0:	080ccc93          	xori	s9,s9,128
     4c4:	019c0a23          	sb	s9,20(s8)
     4c8:	00001cb7          	lui	s9,0x1
     4cc:	41940cb3          	sub	s9,s0,s9
     4d0:	768cbc83          	ld	s9,1896(s9) # 1768 <.LBB13_5+0xbc>
     4d4:	080ccc93          	xori	s9,s9,128
     4d8:	019c0aa3          	sb	s9,21(s8)
     4dc:	00001cb7          	lui	s9,0x1
     4e0:	41940cb3          	sub	s9,s0,s9
     4e4:	760cbc83          	ld	s9,1888(s9) # 1760 <.LBB13_5+0xb4>
     4e8:	080ccc93          	xori	s9,s9,128
     4ec:	019c0b23          	sb	s9,22(s8)
     4f0:	00001cb7          	lui	s9,0x1
     4f4:	41940cb3          	sub	s9,s0,s9
     4f8:	758cbc83          	ld	s9,1880(s9) # 1758 <.LBB13_5+0xac>
     4fc:	080ccc93          	xori	s9,s9,128
     500:	019c0ba3          	sb	s9,23(s8)
     504:	00001cb7          	lui	s9,0x1
     508:	41940cb3          	sub	s9,s0,s9
     50c:	750cbc83          	ld	s9,1872(s9) # 1750 <.LBB13_5+0xa4>
     510:	080ccc93          	xori	s9,s9,128
     514:	019c0c23          	sb	s9,24(s8)
     518:	00001cb7          	lui	s9,0x1
     51c:	41940cb3          	sub	s9,s0,s9
     520:	748cbc83          	ld	s9,1864(s9) # 1748 <.LBB13_5+0x9c>
     524:	080ccc93          	xori	s9,s9,128
     528:	019c0ca3          	sb	s9,25(s8)
     52c:	00001cb7          	lui	s9,0x1
     530:	41940cb3          	sub	s9,s0,s9
     534:	740cbc83          	ld	s9,1856(s9) # 1740 <.LBB13_5+0x94>
     538:	080ccc93          	xori	s9,s9,128
     53c:	019c0d23          	sb	s9,26(s8)
     540:	00001cb7          	lui	s9,0x1
     544:	41940cb3          	sub	s9,s0,s9
     548:	738cbc83          	ld	s9,1848(s9) # 1738 <.LBB13_5+0x8c>
     54c:	080ccc93          	xori	s9,s9,128
     550:	019c0da3          	sb	s9,27(s8)
     554:	00001cb7          	lui	s9,0x1
     558:	41940cb3          	sub	s9,s0,s9
     55c:	730cbc83          	ld	s9,1840(s9) # 1730 <.LBB13_5+0x84>
     560:	080ccc93          	xori	s9,s9,128
     564:	019c0e23          	sb	s9,28(s8)
     568:	00001cb7          	lui	s9,0x1
     56c:	41940cb3          	sub	s9,s0,s9
     570:	728cbc83          	ld	s9,1832(s9) # 1728 <.LBB13_5+0x7c>
     574:	080ccc93          	xori	s9,s9,128
     578:	019c0ea3          	sb	s9,29(s8)
     57c:	00001cb7          	lui	s9,0x1
     580:	41940cb3          	sub	s9,s0,s9
     584:	720cbc83          	ld	s9,1824(s9) # 1720 <.LBB13_5+0x74>
     588:	080ccc93          	xori	s9,s9,128
     58c:	019c0f23          	sb	s9,30(s8)
     590:	00001cb7          	lui	s9,0x1
     594:	41940cb3          	sub	s9,s0,s9
     598:	6f8cbc83          	ld	s9,1784(s9) # 16f8 <.LBB13_5+0x4c>
     59c:	080ccc93          	xori	s9,s9,128
     5a0:	019c0fa3          	sb	s9,31(s8)
     5a4:	00001c37          	lui	s8,0x1
     5a8:	41840c33          	sub	s8,s0,s8
     5ac:	6f0c3c03          	ld	s8,1776(s8) # 16f0 <.LBB13_5+0x44>
     5b0:	080c4c93          	xori	s9,s8,128
     5b4:	00001c37          	lui	s8,0x1
     5b8:	41840c33          	sub	s8,s0,s8
     5bc:	d00c3c03          	ld	s8,-768(s8) # d00 <.LBB13_3+0xae8>
     5c0:	01ac0c33          	add	s8,s8,s10
     5c4:	019c01a3          	sb	s9,3(s8)
     5c8:	00001cb7          	lui	s9,0x1
     5cc:	41940cb3          	sub	s9,s0,s9
     5d0:	6e8cbc83          	ld	s9,1768(s9) # 16e8 <.LBB13_5+0x3c>
     5d4:	080ccc93          	xori	s9,s9,128
     5d8:	019c0123          	sb	s9,2(s8)
     5dc:	00001cb7          	lui	s9,0x1
     5e0:	41940cb3          	sub	s9,s0,s9
     5e4:	6e0cbc83          	ld	s9,1760(s9) # 16e0 <.LBB13_5+0x34>
     5e8:	080ccc93          	xori	s9,s9,128
     5ec:	019c00a3          	sb	s9,1(s8)
     5f0:	00001cb7          	lui	s9,0x1
     5f4:	41940cb3          	sub	s9,s0,s9
     5f8:	6d8cbc83          	ld	s9,1752(s9) # 16d8 <.LBB13_5+0x2c>
     5fc:	080ccc93          	xori	s9,s9,128
     600:	019c0023          	sb	s9,0(s8)
     604:	00001cb7          	lui	s9,0x1
     608:	41940cb3          	sub	s9,s0,s9
     60c:	6d0cbc83          	ld	s9,1744(s9) # 16d0 <.LBB13_5+0x24>
     610:	080ccc93          	xori	s9,s9,128
     614:	019c0223          	sb	s9,4(s8)
     618:	00001cb7          	lui	s9,0x1
     61c:	41940cb3          	sub	s9,s0,s9
     620:	6c8cbc83          	ld	s9,1736(s9) # 16c8 <.LBB13_5+0x1c>
     624:	080ccc93          	xori	s9,s9,128
     628:	019c02a3          	sb	s9,5(s8)
     62c:	00001cb7          	lui	s9,0x1
     630:	41940cb3          	sub	s9,s0,s9
     634:	6c0cbc83          	ld	s9,1728(s9) # 16c0 <.LBB13_5+0x14>
     638:	080ccc93          	xori	s9,s9,128
     63c:	019c0323          	sb	s9,6(s8)
     640:	00001cb7          	lui	s9,0x1
     644:	41940cb3          	sub	s9,s0,s9
     648:	6b8cbc83          	ld	s9,1720(s9) # 16b8 <.LBB13_5+0xc>
     64c:	080ccc93          	xori	s9,s9,128
     650:	019c03a3          	sb	s9,7(s8)
     654:	00001cb7          	lui	s9,0x1
     658:	41940cb3          	sub	s9,s0,s9
     65c:	6b0cbc83          	ld	s9,1712(s9) # 16b0 <.LBB13_5+0x4>
     660:	080ccc93          	xori	s9,s9,128
     664:	019c0423          	sb	s9,8(s8)
     668:	00001cb7          	lui	s9,0x1
     66c:	41940cb3          	sub	s9,s0,s9
     670:	6a8cbc83          	ld	s9,1704(s9) # 16a8 <.LBB13_4+0x508>
     674:	080ccc93          	xori	s9,s9,128
     678:	019c04a3          	sb	s9,9(s8)
     67c:	00001cb7          	lui	s9,0x1
     680:	41940cb3          	sub	s9,s0,s9
     684:	6a0cbc83          	ld	s9,1696(s9) # 16a0 <.LBB13_4+0x500>
     688:	080ccc93          	xori	s9,s9,128
     68c:	019c0523          	sb	s9,10(s8)
     690:	00001cb7          	lui	s9,0x1
     694:	41940cb3          	sub	s9,s0,s9
     698:	698cbc83          	ld	s9,1688(s9) # 1698 <.LBB13_4+0x4f8>
     69c:	080ccc93          	xori	s9,s9,128
     6a0:	019c05a3          	sb	s9,11(s8)
     6a4:	00001cb7          	lui	s9,0x1
     6a8:	41940cb3          	sub	s9,s0,s9
     6ac:	690cbc83          	ld	s9,1680(s9) # 1690 <.LBB13_4+0x4f0>
     6b0:	080ccc93          	xori	s9,s9,128
     6b4:	019c0623          	sb	s9,12(s8)
     6b8:	00001cb7          	lui	s9,0x1
     6bc:	41940cb3          	sub	s9,s0,s9
     6c0:	688cbc83          	ld	s9,1672(s9) # 1688 <.LBB13_4+0x4e8>
     6c4:	080ccc93          	xori	s9,s9,128
     6c8:	019c06a3          	sb	s9,13(s8)
     6cc:	00001cb7          	lui	s9,0x1
     6d0:	41940cb3          	sub	s9,s0,s9
     6d4:	680cbc83          	ld	s9,1664(s9) # 1680 <.LBB13_4+0x4e0>
     6d8:	080ccc93          	xori	s9,s9,128
     6dc:	019c0723          	sb	s9,14(s8)
     6e0:	00001cb7          	lui	s9,0x1
     6e4:	41940cb3          	sub	s9,s0,s9
     6e8:	678cbc83          	ld	s9,1656(s9) # 1678 <.LBB13_4+0x4d8>
     6ec:	080ccc93          	xori	s9,s9,128
     6f0:	019c07a3          	sb	s9,15(s8)
     6f4:	00001cb7          	lui	s9,0x1
     6f8:	41940cb3          	sub	s9,s0,s9
     6fc:	670cbc83          	ld	s9,1648(s9) # 1670 <.LBB13_4+0x4d0>
     700:	080ccc93          	xori	s9,s9,128
     704:	019c0823          	sb	s9,16(s8)
     708:	00001cb7          	lui	s9,0x1
     70c:	41940cb3          	sub	s9,s0,s9
     710:	668cbc83          	ld	s9,1640(s9) # 1668 <.LBB13_4+0x4c8>
     714:	080ccc93          	xori	s9,s9,128
     718:	019c08a3          	sb	s9,17(s8)
     71c:	00001cb7          	lui	s9,0x1
     720:	41940cb3          	sub	s9,s0,s9
     724:	660cbc83          	ld	s9,1632(s9) # 1660 <.LBB13_4+0x4c0>
     728:	080ccc93          	xori	s9,s9,128
     72c:	019c0923          	sb	s9,18(s8)
     730:	00001cb7          	lui	s9,0x1
     734:	41940cb3          	sub	s9,s0,s9
     738:	658cbc83          	ld	s9,1624(s9) # 1658 <.LBB13_4+0x4b8>
     73c:	080ccc93          	xori	s9,s9,128
     740:	019c09a3          	sb	s9,19(s8)
     744:	00001cb7          	lui	s9,0x1
     748:	41940cb3          	sub	s9,s0,s9
     74c:	650cbc83          	ld	s9,1616(s9) # 1650 <.LBB13_4+0x4b0>
     750:	080ccc93          	xori	s9,s9,128
     754:	019c0a23          	sb	s9,20(s8)
     758:	00001cb7          	lui	s9,0x1
     75c:	41940cb3          	sub	s9,s0,s9
     760:	648cbc83          	ld	s9,1608(s9) # 1648 <.LBB13_4+0x4a8>
     764:	080ccc93          	xori	s9,s9,128
     768:	019c0aa3          	sb	s9,21(s8)
     76c:	00001cb7          	lui	s9,0x1
     770:	41940cb3          	sub	s9,s0,s9
     774:	640cbc83          	ld	s9,1600(s9) # 1640 <.LBB13_4+0x4a0>
     778:	080ccc93          	xori	s9,s9,128
     77c:	019c0b23          	sb	s9,22(s8)
     780:	00001cb7          	lui	s9,0x1
     784:	41940cb3          	sub	s9,s0,s9
     788:	290cbc83          	ld	s9,656(s9) # 1290 <.LBB13_4+0xf0>
     78c:	080ccc93          	xori	s9,s9,128
     790:	019c0ba3          	sb	s9,23(s8)
     794:	00001cb7          	lui	s9,0x1
     798:	41940cb3          	sub	s9,s0,s9
     79c:	2a0cbc83          	ld	s9,672(s9) # 12a0 <.LBB13_4+0x100>
     7a0:	080ccc93          	xori	s9,s9,128
     7a4:	019c0c23          	sb	s9,24(s8)
     7a8:	00001cb7          	lui	s9,0x1
     7ac:	41940cb3          	sub	s9,s0,s9
     7b0:	2b0cbc83          	ld	s9,688(s9) # 12b0 <.LBB13_4+0x110>
     7b4:	080ccc93          	xori	s9,s9,128
     7b8:	019c0ca3          	sb	s9,25(s8)
     7bc:	00001cb7          	lui	s9,0x1
     7c0:	41940cb3          	sub	s9,s0,s9
     7c4:	2c0cbc83          	ld	s9,704(s9) # 12c0 <.LBB13_4+0x120>
     7c8:	080ccc93          	xori	s9,s9,128
     7cc:	019c0d23          	sb	s9,26(s8)
     7d0:	00001cb7          	lui	s9,0x1
     7d4:	41940cb3          	sub	s9,s0,s9
     7d8:	2d0cbc83          	ld	s9,720(s9) # 12d0 <.LBB13_4+0x130>
     7dc:	080ccc93          	xori	s9,s9,128
     7e0:	019c0da3          	sb	s9,27(s8)
     7e4:	00001cb7          	lui	s9,0x1
     7e8:	41940cb3          	sub	s9,s0,s9
     7ec:	2e0cbc83          	ld	s9,736(s9) # 12e0 <.LBB13_4+0x140>
     7f0:	080ccc93          	xori	s9,s9,128
     7f4:	019c0e23          	sb	s9,28(s8)
     7f8:	00001cb7          	lui	s9,0x1
     7fc:	41940cb3          	sub	s9,s0,s9
     800:	2f0cbc83          	ld	s9,752(s9) # 12f0 <.LBB13_4+0x150>
     804:	080ccc93          	xori	s9,s9,128
     808:	019c0ea3          	sb	s9,29(s8)
     80c:	00001cb7          	lui	s9,0x1
     810:	41940cb3          	sub	s9,s0,s9
     814:	300cbc83          	ld	s9,768(s9) # 1300 <.LBB13_4+0x160>
     818:	080ccc93          	xori	s9,s9,128
     81c:	019c0f23          	sb	s9,30(s8)
     820:	00001cb7          	lui	s9,0x1
     824:	41940cb3          	sub	s9,s0,s9
     828:	310cbc83          	ld	s9,784(s9) # 1310 <.LBB13_4+0x170>
     82c:	080ccc93          	xori	s9,s9,128
     830:	019c0fa3          	sb	s9,31(s8)
     834:	00001c37          	lui	s8,0x1
     838:	41840c33          	sub	s8,s0,s8
     83c:	320c3c03          	ld	s8,800(s8) # 1320 <.LBB13_4+0x180>
     840:	080c4c93          	xori	s9,s8,128
     844:	00001c37          	lui	s8,0x1
     848:	41840c33          	sub	s8,s0,s8
     84c:	cf8c3c03          	ld	s8,-776(s8) # cf8 <.LBB13_3+0xae0>
     850:	01ac0c33          	add	s8,s8,s10
     854:	019c01a3          	sb	s9,3(s8)
     858:	00001cb7          	lui	s9,0x1
     85c:	41940cb3          	sub	s9,s0,s9
     860:	330cbc83          	ld	s9,816(s9) # 1330 <.LBB13_4+0x190>
     864:	080ccc93          	xori	s9,s9,128
     868:	019c0123          	sb	s9,2(s8)
     86c:	00001cb7          	lui	s9,0x1
     870:	41940cb3          	sub	s9,s0,s9
     874:	340cbc83          	ld	s9,832(s9) # 1340 <.LBB13_4+0x1a0>
     878:	080ccc93          	xori	s9,s9,128
     87c:	019c00a3          	sb	s9,1(s8)
     880:	00001cb7          	lui	s9,0x1
     884:	41940cb3          	sub	s9,s0,s9
     888:	350cbc83          	ld	s9,848(s9) # 1350 <.LBB13_4+0x1b0>
     88c:	080ccc93          	xori	s9,s9,128
     890:	019c0023          	sb	s9,0(s8)
     894:	00001cb7          	lui	s9,0x1
     898:	41940cb3          	sub	s9,s0,s9
     89c:	360cbc83          	ld	s9,864(s9) # 1360 <.LBB13_4+0x1c0>
     8a0:	080ccc93          	xori	s9,s9,128
     8a4:	019c0223          	sb	s9,4(s8)
     8a8:	00001cb7          	lui	s9,0x1
     8ac:	41940cb3          	sub	s9,s0,s9
     8b0:	370cbc83          	ld	s9,880(s9) # 1370 <.LBB13_4+0x1d0>
     8b4:	080ccc93          	xori	s9,s9,128
     8b8:	019c02a3          	sb	s9,5(s8)
     8bc:	00001cb7          	lui	s9,0x1
     8c0:	41940cb3          	sub	s9,s0,s9
     8c4:	380cbc83          	ld	s9,896(s9) # 1380 <.LBB13_4+0x1e0>
     8c8:	080ccc93          	xori	s9,s9,128
     8cc:	019c0323          	sb	s9,6(s8)
     8d0:	00001cb7          	lui	s9,0x1
     8d4:	41940cb3          	sub	s9,s0,s9
     8d8:	390cbc83          	ld	s9,912(s9) # 1390 <.LBB13_4+0x1f0>
     8dc:	080ccc93          	xori	s9,s9,128
     8e0:	019c03a3          	sb	s9,7(s8)
     8e4:	00001cb7          	lui	s9,0x1
     8e8:	41940cb3          	sub	s9,s0,s9
     8ec:	3a0cbc83          	ld	s9,928(s9) # 13a0 <.LBB13_4+0x200>
     8f0:	080ccc93          	xori	s9,s9,128
     8f4:	019c0423          	sb	s9,8(s8)
     8f8:	00001cb7          	lui	s9,0x1
     8fc:	41940cb3          	sub	s9,s0,s9
     900:	3b0cbc83          	ld	s9,944(s9) # 13b0 <.LBB13_4+0x210>
     904:	080ccc93          	xori	s9,s9,128
     908:	019c04a3          	sb	s9,9(s8)
     90c:	00001cb7          	lui	s9,0x1
     910:	41940cb3          	sub	s9,s0,s9
     914:	3c0cbc83          	ld	s9,960(s9) # 13c0 <.LBB13_4+0x220>
     918:	080ccc93          	xori	s9,s9,128
     91c:	019c0523          	sb	s9,10(s8)
     920:	00001cb7          	lui	s9,0x1
     924:	41940cb3          	sub	s9,s0,s9
     928:	3d0cbc83          	ld	s9,976(s9) # 13d0 <.LBB13_4+0x230>
     92c:	080ccc93          	xori	s9,s9,128
     930:	019c05a3          	sb	s9,11(s8)
     934:	00001cb7          	lui	s9,0x1
     938:	41940cb3          	sub	s9,s0,s9
     93c:	3e0cbc83          	ld	s9,992(s9) # 13e0 <.LBB13_4+0x240>
     940:	080ccc93          	xori	s9,s9,128
     944:	019c0623          	sb	s9,12(s8)
     948:	00001cb7          	lui	s9,0x1
     94c:	41940cb3          	sub	s9,s0,s9
     950:	3f0cbc83          	ld	s9,1008(s9) # 13f0 <.LBB13_4+0x250>
     954:	080ccc93          	xori	s9,s9,128
     958:	019c06a3          	sb	s9,13(s8)
     95c:	00001cb7          	lui	s9,0x1
     960:	41940cb3          	sub	s9,s0,s9
     964:	400cbc83          	ld	s9,1024(s9) # 1400 <.LBB13_4+0x260>
     968:	080ccc93          	xori	s9,s9,128
     96c:	019c0723          	sb	s9,14(s8)
     970:	00001cb7          	lui	s9,0x1
     974:	41940cb3          	sub	s9,s0,s9
     978:	410cbc83          	ld	s9,1040(s9) # 1410 <.LBB13_4+0x270>
     97c:	080ccc93          	xori	s9,s9,128
     980:	019c07a3          	sb	s9,15(s8)
     984:	00001cb7          	lui	s9,0x1
     988:	41940cb3          	sub	s9,s0,s9
     98c:	420cbc83          	ld	s9,1056(s9) # 1420 <.LBB13_4+0x280>
     990:	080ccc93          	xori	s9,s9,128
     994:	019c0823          	sb	s9,16(s8)
     998:	00001cb7          	lui	s9,0x1
     99c:	41940cb3          	sub	s9,s0,s9
     9a0:	430cbc83          	ld	s9,1072(s9) # 1430 <.LBB13_4+0x290>
     9a4:	080ccc93          	xori	s9,s9,128
     9a8:	019c08a3          	sb	s9,17(s8)
     9ac:	00001cb7          	lui	s9,0x1
     9b0:	41940cb3          	sub	s9,s0,s9
     9b4:	440cbc83          	ld	s9,1088(s9) # 1440 <.LBB13_4+0x2a0>
     9b8:	080ccc93          	xori	s9,s9,128
     9bc:	019c0923          	sb	s9,18(s8)
     9c0:	00001cb7          	lui	s9,0x1
     9c4:	41940cb3          	sub	s9,s0,s9
     9c8:	450cbc83          	ld	s9,1104(s9) # 1450 <.LBB13_4+0x2b0>
     9cc:	080ccc93          	xori	s9,s9,128
     9d0:	019c09a3          	sb	s9,19(s8)
     9d4:	00001cb7          	lui	s9,0x1
     9d8:	41940cb3          	sub	s9,s0,s9
     9dc:	460cbc83          	ld	s9,1120(s9) # 1460 <.LBB13_4+0x2c0>
     9e0:	080ccc93          	xori	s9,s9,128
     9e4:	019c0a23          	sb	s9,20(s8)
     9e8:	00001cb7          	lui	s9,0x1
     9ec:	41940cb3          	sub	s9,s0,s9
     9f0:	470cbc83          	ld	s9,1136(s9) # 1470 <.LBB13_4+0x2d0>
     9f4:	080ccc93          	xori	s9,s9,128
     9f8:	019c0aa3          	sb	s9,21(s8)
     9fc:	00001cb7          	lui	s9,0x1
     a00:	41940cb3          	sub	s9,s0,s9
     a04:	480cbc83          	ld	s9,1152(s9) # 1480 <.LBB13_4+0x2e0>
     a08:	080ccc93          	xori	s9,s9,128
     a0c:	019c0b23          	sb	s9,22(s8)
     a10:	00001cb7          	lui	s9,0x1
     a14:	41940cb3          	sub	s9,s0,s9
     a18:	490cbc83          	ld	s9,1168(s9) # 1490 <.LBB13_4+0x2f0>
     a1c:	080ccc93          	xori	s9,s9,128
     a20:	019c0ba3          	sb	s9,23(s8)
     a24:	00001cb7          	lui	s9,0x1
     a28:	41940cb3          	sub	s9,s0,s9
     a2c:	4a0cbc83          	ld	s9,1184(s9) # 14a0 <.LBB13_4+0x300>
     a30:	080ccc93          	xori	s9,s9,128
     a34:	019c0c23          	sb	s9,24(s8)
     a38:	00001cb7          	lui	s9,0x1
     a3c:	41940cb3          	sub	s9,s0,s9
     a40:	4b0cbc83          	ld	s9,1200(s9) # 14b0 <.LBB13_4+0x310>
     a44:	080ccc93          	xori	s9,s9,128
     a48:	019c0ca3          	sb	s9,25(s8)
     a4c:	00001cb7          	lui	s9,0x1
     a50:	41940cb3          	sub	s9,s0,s9
     a54:	4c0cbc83          	ld	s9,1216(s9) # 14c0 <.LBB13_4+0x320>
     a58:	080ccc93          	xori	s9,s9,128
     a5c:	019c0d23          	sb	s9,26(s8)
     a60:	00001cb7          	lui	s9,0x1
     a64:	41940cb3          	sub	s9,s0,s9
     a68:	4d0cbc83          	ld	s9,1232(s9) # 14d0 <.LBB13_4+0x330>
     a6c:	080ccc93          	xori	s9,s9,128
     a70:	019c0da3          	sb	s9,27(s8)
     a74:	00001cb7          	lui	s9,0x1
     a78:	41940cb3          	sub	s9,s0,s9
     a7c:	4e0cbc83          	ld	s9,1248(s9) # 14e0 <.LBB13_4+0x340>
     a80:	080ccc93          	xori	s9,s9,128
     a84:	019c0e23          	sb	s9,28(s8)
     a88:	00001cb7          	lui	s9,0x1
     a8c:	41940cb3          	sub	s9,s0,s9
     a90:	4f0cbc83          	ld	s9,1264(s9) # 14f0 <.LBB13_4+0x350>
     a94:	080ccc93          	xori	s9,s9,128
     a98:	019c0ea3          	sb	s9,29(s8)
     a9c:	00001cb7          	lui	s9,0x1
     aa0:	41940cb3          	sub	s9,s0,s9
     aa4:	500cbc83          	ld	s9,1280(s9) # 1500 <.LBB13_4+0x360>
     aa8:	080ccc93          	xori	s9,s9,128
     aac:	019c0f23          	sb	s9,30(s8)
     ab0:	00001cb7          	lui	s9,0x1
     ab4:	41940cb3          	sub	s9,s0,s9
     ab8:	510cbc83          	ld	s9,1296(s9) # 1510 <.LBB13_4+0x370>
     abc:	080ccc93          	xori	s9,s9,128
     ac0:	019c0fa3          	sb	s9,31(s8)
     ac4:	00001c37          	lui	s8,0x1
     ac8:	41840c33          	sub	s8,s0,s8
     acc:	520c3c03          	ld	s8,1312(s8) # 1520 <.LBB13_4+0x380>
     ad0:	080c4c93          	xori	s9,s8,128
     ad4:	00001c37          	lui	s8,0x1
     ad8:	41840c33          	sub	s8,s0,s8
     adc:	cf0c3c03          	ld	s8,-784(s8) # cf0 <.LBB13_3+0xad8>
     ae0:	01ac0c33          	add	s8,s8,s10
     ae4:	019c01a3          	sb	s9,3(s8)
     ae8:	00001cb7          	lui	s9,0x1
     aec:	41940cb3          	sub	s9,s0,s9
     af0:	530cbc83          	ld	s9,1328(s9) # 1530 <.LBB13_4+0x390>
     af4:	080ccc93          	xori	s9,s9,128
     af8:	019c0123          	sb	s9,2(s8)
     afc:	00001cb7          	lui	s9,0x1
     b00:	41940cb3          	sub	s9,s0,s9
     b04:	540cbc83          	ld	s9,1344(s9) # 1540 <.LBB13_4+0x3a0>
     b08:	080ccc93          	xori	s9,s9,128
     b0c:	019c00a3          	sb	s9,1(s8)
     b10:	00001cb7          	lui	s9,0x1
     b14:	41940cb3          	sub	s9,s0,s9
     b18:	550cbc83          	ld	s9,1360(s9) # 1550 <.LBB13_4+0x3b0>
     b1c:	080ccc93          	xori	s9,s9,128
     b20:	019c0023          	sb	s9,0(s8)
     b24:	00001cb7          	lui	s9,0x1
     b28:	41940cb3          	sub	s9,s0,s9
     b2c:	560cbc83          	ld	s9,1376(s9) # 1560 <.LBB13_4+0x3c0>
     b30:	080ccc93          	xori	s9,s9,128
     b34:	019c0223          	sb	s9,4(s8)
     b38:	00001cb7          	lui	s9,0x1
     b3c:	41940cb3          	sub	s9,s0,s9
     b40:	570cbc83          	ld	s9,1392(s9) # 1570 <.LBB13_4+0x3d0>
     b44:	080ccc93          	xori	s9,s9,128
     b48:	019c02a3          	sb	s9,5(s8)
     b4c:	00001cb7          	lui	s9,0x1
     b50:	41940cb3          	sub	s9,s0,s9
     b54:	580cbc83          	ld	s9,1408(s9) # 1580 <.LBB13_4+0x3e0>
     b58:	080ccc93          	xori	s9,s9,128
     b5c:	019c0323          	sb	s9,6(s8)
     b60:	00001cb7          	lui	s9,0x1
     b64:	41940cb3          	sub	s9,s0,s9
     b68:	590cbc83          	ld	s9,1424(s9) # 1590 <.LBB13_4+0x3f0>
     b6c:	080ccc93          	xori	s9,s9,128
     b70:	019c03a3          	sb	s9,7(s8)
     b74:	00001cb7          	lui	s9,0x1
     b78:	41940cb3          	sub	s9,s0,s9
     b7c:	5a0cbc83          	ld	s9,1440(s9) # 15a0 <.LBB13_4+0x400>
     b80:	080ccc93          	xori	s9,s9,128
     b84:	019c0423          	sb	s9,8(s8)
     b88:	00001cb7          	lui	s9,0x1
     b8c:	41940cb3          	sub	s9,s0,s9
     b90:	5b0cbc83          	ld	s9,1456(s9) # 15b0 <.LBB13_4+0x410>
     b94:	080ccc93          	xori	s9,s9,128
     b98:	019c04a3          	sb	s9,9(s8)
     b9c:	00001cb7          	lui	s9,0x1
     ba0:	41940cb3          	sub	s9,s0,s9
     ba4:	5c0cbc83          	ld	s9,1472(s9) # 15c0 <.LBB13_4+0x420>
     ba8:	080ccc93          	xori	s9,s9,128
     bac:	019c0523          	sb	s9,10(s8)
     bb0:	00001cb7          	lui	s9,0x1
     bb4:	41940cb3          	sub	s9,s0,s9
     bb8:	5d0cbc83          	ld	s9,1488(s9) # 15d0 <.LBB13_4+0x430>
     bbc:	080ccc93          	xori	s9,s9,128
     bc0:	019c05a3          	sb	s9,11(s8)
     bc4:	00001cb7          	lui	s9,0x1
     bc8:	41940cb3          	sub	s9,s0,s9
     bcc:	5e0cbc83          	ld	s9,1504(s9) # 15e0 <.LBB13_4+0x440>
     bd0:	080ccc93          	xori	s9,s9,128
     bd4:	019c0623          	sb	s9,12(s8)
     bd8:	00001cb7          	lui	s9,0x1
     bdc:	41940cb3          	sub	s9,s0,s9
     be0:	5f0cbc83          	ld	s9,1520(s9) # 15f0 <.LBB13_4+0x450>
     be4:	080ccc93          	xori	s9,s9,128
     be8:	019c06a3          	sb	s9,13(s8)
     bec:	00001cb7          	lui	s9,0x1
     bf0:	41940cb3          	sub	s9,s0,s9
     bf4:	600cbc83          	ld	s9,1536(s9) # 1600 <.LBB13_4+0x460>
     bf8:	080ccc93          	xori	s9,s9,128
     bfc:	019c0723          	sb	s9,14(s8)
     c00:	00001cb7          	lui	s9,0x1
     c04:	41940cb3          	sub	s9,s0,s9
     c08:	610cbc83          	ld	s9,1552(s9) # 1610 <.LBB13_4+0x470>
     c0c:	080ccc93          	xori	s9,s9,128
     c10:	019c07a3          	sb	s9,15(s8)
     c14:	00001cb7          	lui	s9,0x1
     c18:	41940cb3          	sub	s9,s0,s9
     c1c:	700cbc83          	ld	s9,1792(s9) # 1700 <.LBB13_5+0x54>
     c20:	080ccc93          	xori	s9,s9,128
     c24:	019c0823          	sb	s9,16(s8)
     c28:	00001cb7          	lui	s9,0x1
     c2c:	41940cb3          	sub	s9,s0,s9
     c30:	710cbc83          	ld	s9,1808(s9) # 1710 <.LBB13_5+0x64>
     c34:	080ccc93          	xori	s9,s9,128
     c38:	019c08a3          	sb	s9,17(s8)
     c3c:	00001cb7          	lui	s9,0x1
     c40:	41940cb3          	sub	s9,s0,s9
     c44:	770cbc83          	ld	s9,1904(s9) # 1770 <.LBB13_5+0xc4>
     c48:	080ccc93          	xori	s9,s9,128
     c4c:	019c0923          	sb	s9,18(s8)
     c50:	00001cb7          	lui	s9,0x1
     c54:	41940cb3          	sub	s9,s0,s9
     c58:	780cbc83          	ld	s9,1920(s9) # 1780 <.LBB13_5+0xd4>
     c5c:	080ccc93          	xori	s9,s9,128
     c60:	019c09a3          	sb	s9,19(s8)
     c64:	00001cb7          	lui	s9,0x1
     c68:	41940cb3          	sub	s9,s0,s9
     c6c:	790cbc83          	ld	s9,1936(s9) # 1790 <.LBB13_5+0xe4>
     c70:	080ccc93          	xori	s9,s9,128
     c74:	019c0a23          	sb	s9,20(s8)
     c78:	00001cb7          	lui	s9,0x1
     c7c:	41940cb3          	sub	s9,s0,s9
     c80:	7a8cbc83          	ld	s9,1960(s9) # 17a8 <.LBB13_5+0xfc>
     c84:	080ccc93          	xori	s9,s9,128
     c88:	019c0aa3          	sb	s9,21(s8)
     c8c:	00001cb7          	lui	s9,0x1
     c90:	41940cb3          	sub	s9,s0,s9
     c94:	7b8cbc83          	ld	s9,1976(s9) # 17b8 <.LBB13_5+0x10c>
     c98:	080ccc93          	xori	s9,s9,128
     c9c:	019c0b23          	sb	s9,22(s8)
     ca0:	00001cb7          	lui	s9,0x1
     ca4:	41940cb3          	sub	s9,s0,s9
     ca8:	7c8cbc83          	ld	s9,1992(s9) # 17c8 <.LBB13_5+0x11c>
     cac:	080ccc93          	xori	s9,s9,128
     cb0:	019c0ba3          	sb	s9,23(s8)
     cb4:	00001cb7          	lui	s9,0x1
     cb8:	41940cb3          	sub	s9,s0,s9
     cbc:	7d8cbc83          	ld	s9,2008(s9) # 17d8 <.LBB13_5+0x12c>
     cc0:	080ccc93          	xori	s9,s9,128
     cc4:	019c0c23          	sb	s9,24(s8)
     cc8:	00001cb7          	lui	s9,0x1
     ccc:	41940cb3          	sub	s9,s0,s9
     cd0:	7e8cbc83          	ld	s9,2024(s9) # 17e8 <.LBB13_5+0x13c>
     cd4:	080ccc93          	xori	s9,s9,128
     cd8:	019c0ca3          	sb	s9,25(s8)
     cdc:	00001cb7          	lui	s9,0x1
     ce0:	41940cb3          	sub	s9,s0,s9
     ce4:	7f8cbc83          	ld	s9,2040(s9) # 17f8 <.LBB13_5+0x14c>
     ce8:	080ccc93          	xori	s9,s9,128
     cec:	019c0d23          	sb	s9,26(s8)
     cf0:	81043c83          	ld	s9,-2032(s0)
     cf4:	080ccc93          	xori	s9,s9,128
     cf8:	019c0da3          	sb	s9,27(s8)
     cfc:	82043c83          	ld	s9,-2016(s0)
     d00:	080ccc93          	xori	s9,s9,128
     d04:	019c0e23          	sb	s9,28(s8)
     d08:	83043c83          	ld	s9,-2000(s0)
     d0c:	080ccc93          	xori	s9,s9,128
     d10:	019c0ea3          	sb	s9,29(s8)
     d14:	84843c83          	ld	s9,-1976(s0)
     d18:	080ccc93          	xori	s9,s9,128
     d1c:	019c0f23          	sb	s9,30(s8)
     d20:	85843c83          	ld	s9,-1960(s0)
     d24:	080ccc93          	xori	s9,s9,128
     d28:	019c0fa3          	sb	s9,31(s8)
     d2c:	87043c03          	ld	s8,-1936(s0)
     d30:	080c4c93          	xori	s9,s8,128
     d34:	00001c37          	lui	s8,0x1
     d38:	41840c33          	sub	s8,s0,s8
     d3c:	ce8c3c03          	ld	s8,-792(s8) # ce8 <.LBB13_3+0xad0>
     d40:	01ac0c33          	add	s8,s8,s10
     d44:	019c01a3          	sb	s9,3(s8)
     d48:	88043c83          	ld	s9,-1920(s0)
     d4c:	080ccc93          	xori	s9,s9,128
     d50:	019c0123          	sb	s9,2(s8)
     d54:	89043c83          	ld	s9,-1904(s0)
     d58:	080ccc93          	xori	s9,s9,128
     d5c:	019c00a3          	sb	s9,1(s8)
     d60:	8a043c83          	ld	s9,-1888(s0)
     d64:	080ccc93          	xori	s9,s9,128
     d68:	019c0023          	sb	s9,0(s8)
     d6c:	8b843c83          	ld	s9,-1864(s0)
     d70:	080ccc93          	xori	s9,s9,128
     d74:	019c0223          	sb	s9,4(s8)
     d78:	8c843c83          	ld	s9,-1848(s0)
     d7c:	080ccc93          	xori	s9,s9,128
     d80:	019c02a3          	sb	s9,5(s8)
     d84:	8d843c83          	ld	s9,-1832(s0)
     d88:	080ccc93          	xori	s9,s9,128
     d8c:	019c0323          	sb	s9,6(s8)
     d90:	8e843c83          	ld	s9,-1816(s0)
     d94:	080ccc93          	xori	s9,s9,128
     d98:	019c03a3          	sb	s9,7(s8)
     d9c:	90043c83          	ld	s9,-1792(s0)
     da0:	080ccc93          	xori	s9,s9,128
     da4:	019c0423          	sb	s9,8(s8)
     da8:	91043c83          	ld	s9,-1776(s0)
     dac:	080ccc93          	xori	s9,s9,128
     db0:	019c04a3          	sb	s9,9(s8)
     db4:	92043c83          	ld	s9,-1760(s0)
     db8:	080ccc93          	xori	s9,s9,128
     dbc:	019c0523          	sb	s9,10(s8)
     dc0:	93843c83          	ld	s9,-1736(s0)
     dc4:	080ccc93          	xori	s9,s9,128
     dc8:	019c05a3          	sb	s9,11(s8)
     dcc:	94843c83          	ld	s9,-1720(s0)
     dd0:	080ccc93          	xori	s9,s9,128
     dd4:	019c0623          	sb	s9,12(s8)
     dd8:	95843c83          	ld	s9,-1704(s0)
     ddc:	080ccc93          	xori	s9,s9,128
     de0:	019c06a3          	sb	s9,13(s8)
     de4:	96843c83          	ld	s9,-1688(s0)
     de8:	080ccc93          	xori	s9,s9,128
     dec:	019c0723          	sb	s9,14(s8)
     df0:	98043c83          	ld	s9,-1664(s0)
     df4:	080ccc93          	xori	s9,s9,128
     df8:	019c07a3          	sb	s9,15(s8)
     dfc:	99043c83          	ld	s9,-1648(s0)
     e00:	080ccc93          	xori	s9,s9,128
     e04:	019c0823          	sb	s9,16(s8)
     e08:	9a043c83          	ld	s9,-1632(s0)
     e0c:	080ccc93          	xori	s9,s9,128
     e10:	019c08a3          	sb	s9,17(s8)
     e14:	9b043c83          	ld	s9,-1616(s0)
     e18:	080ccc93          	xori	s9,s9,128
     e1c:	019c0923          	sb	s9,18(s8)
     e20:	9c843c83          	ld	s9,-1592(s0)
     e24:	080ccc93          	xori	s9,s9,128
     e28:	019c09a3          	sb	s9,19(s8)
     e2c:	9d843c83          	ld	s9,-1576(s0)
     e30:	080ccc93          	xori	s9,s9,128
     e34:	019c0a23          	sb	s9,20(s8)
     e38:	9e843c83          	ld	s9,-1560(s0)
     e3c:	080ccc93          	xori	s9,s9,128
     e40:	019c0aa3          	sb	s9,21(s8)
     e44:	a0043c83          	ld	s9,-1536(s0)
     e48:	080ccc93          	xori	s9,s9,128
     e4c:	019c0b23          	sb	s9,22(s8)
     e50:	a1043c83          	ld	s9,-1520(s0)
     e54:	080ccc93          	xori	s9,s9,128
     e58:	019c0ba3          	sb	s9,23(s8)
     e5c:	a2043c83          	ld	s9,-1504(s0)
     e60:	080ccc93          	xori	s9,s9,128
     e64:	019c0c23          	sb	s9,24(s8)
     e68:	a3043c83          	ld	s9,-1488(s0)
     e6c:	080ccc93          	xori	s9,s9,128
     e70:	019c0ca3          	sb	s9,25(s8)
     e74:	a4843c83          	ld	s9,-1464(s0)
     e78:	080ccc93          	xori	s9,s9,128
     e7c:	019c0d23          	sb	s9,26(s8)
     e80:	a5843c83          	ld	s9,-1448(s0)
     e84:	080ccc93          	xori	s9,s9,128
     e88:	019c0da3          	sb	s9,27(s8)
     e8c:	a6843c83          	ld	s9,-1432(s0)
     e90:	080ccc93          	xori	s9,s9,128
     e94:	019c0e23          	sb	s9,28(s8)
     e98:	a7843c83          	ld	s9,-1416(s0)
     e9c:	080ccc93          	xori	s9,s9,128
     ea0:	019c0ea3          	sb	s9,29(s8)
     ea4:	a9043c83          	ld	s9,-1392(s0)
     ea8:	080ccc93          	xori	s9,s9,128
     eac:	019c0f23          	sb	s9,30(s8)
     eb0:	aa043c83          	ld	s9,-1376(s0)
     eb4:	080ccc93          	xori	s9,s9,128
     eb8:	019c0fa3          	sb	s9,31(s8)
     ebc:	ab043c03          	ld	s8,-1360(s0)
     ec0:	080c4c93          	xori	s9,s8,128
     ec4:	00001c37          	lui	s8,0x1
     ec8:	41840c33          	sub	s8,s0,s8
     ecc:	ce0c3c03          	ld	s8,-800(s8) # ce0 <.LBB13_3+0xac8>
     ed0:	01ac0c33          	add	s8,s8,s10
     ed4:	019c01a3          	sb	s9,3(s8)
     ed8:	ac843c83          	ld	s9,-1336(s0)
     edc:	080ccc93          	xori	s9,s9,128
     ee0:	019c0123          	sb	s9,2(s8)
     ee4:	ad843c83          	ld	s9,-1320(s0)
     ee8:	080ccc93          	xori	s9,s9,128
     eec:	019c00a3          	sb	s9,1(s8)
     ef0:	ae843c83          	ld	s9,-1304(s0)
     ef4:	080ccc93          	xori	s9,s9,128
     ef8:	019c0023          	sb	s9,0(s8)
     efc:	af843c83          	ld	s9,-1288(s0)
     f00:	080ccc93          	xori	s9,s9,128
     f04:	019c0223          	sb	s9,4(s8)
     f08:	b1043c83          	ld	s9,-1264(s0)
     f0c:	080ccc93          	xori	s9,s9,128
     f10:	019c02a3          	sb	s9,5(s8)
     f14:	b2043c83          	ld	s9,-1248(s0)
     f18:	080ccc93          	xori	s9,s9,128
     f1c:	019c0323          	sb	s9,6(s8)
     f20:	b3043c83          	ld	s9,-1232(s0)
     f24:	080ccc93          	xori	s9,s9,128
     f28:	019c03a3          	sb	s9,7(s8)
     f2c:	b4043c83          	ld	s9,-1216(s0)
     f30:	080ccc93          	xori	s9,s9,128
     f34:	019c0423          	sb	s9,8(s8)
     f38:	b5843c83          	ld	s9,-1192(s0)
     f3c:	080ccc93          	xori	s9,s9,128
     f40:	019c04a3          	sb	s9,9(s8)
     f44:	b6843c83          	ld	s9,-1176(s0)
     f48:	080ccc93          	xori	s9,s9,128
     f4c:	019c0523          	sb	s9,10(s8)
     f50:	b7843c83          	ld	s9,-1160(s0)
     f54:	080ccc93          	xori	s9,s9,128
     f58:	019c05a3          	sb	s9,11(s8)
     f5c:	b9043c83          	ld	s9,-1136(s0)
     f60:	080ccc93          	xori	s9,s9,128
     f64:	019c0623          	sb	s9,12(s8)
     f68:	ba043c83          	ld	s9,-1120(s0)
     f6c:	080ccc93          	xori	s9,s9,128
     f70:	019c06a3          	sb	s9,13(s8)
     f74:	bb043c83          	ld	s9,-1104(s0)
     f78:	080ccc93          	xori	s9,s9,128
     f7c:	019c0723          	sb	s9,14(s8)
     f80:	bc043c83          	ld	s9,-1088(s0)
     f84:	080ccc93          	xori	s9,s9,128
     f88:	019c07a3          	sb	s9,15(s8)
     f8c:	bd043c83          	ld	s9,-1072(s0)
     f90:	080ccc93          	xori	s9,s9,128
     f94:	019c0823          	sb	s9,16(s8)
     f98:	be043c83          	ld	s9,-1056(s0)
     f9c:	080ccc93          	xori	s9,s9,128
     fa0:	019c08a3          	sb	s9,17(s8)
     fa4:	bf043c83          	ld	s9,-1040(s0)
     fa8:	080ccc93          	xori	s9,s9,128
     fac:	019c0923          	sb	s9,18(s8)
     fb0:	c0043c83          	ld	s9,-1024(s0)
     fb4:	080ccc93          	xori	s9,s9,128
     fb8:	019c09a3          	sb	s9,19(s8)
     fbc:	c2043c83          	ld	s9,-992(s0)
     fc0:	080ccc93          	xori	s9,s9,128
     fc4:	019c0a23          	sb	s9,20(s8)
     fc8:	c3043c83          	ld	s9,-976(s0)
     fcc:	080ccc93          	xori	s9,s9,128
     fd0:	019c0aa3          	sb	s9,21(s8)
     fd4:	c4043c83          	ld	s9,-960(s0)
     fd8:	080ccc93          	xori	s9,s9,128
     fdc:	019c0b23          	sb	s9,22(s8)
     fe0:	c5843c83          	ld	s9,-936(s0)
     fe4:	080ccc93          	xori	s9,s9,128
     fe8:	019c0ba3          	sb	s9,23(s8)
     fec:	c6843c83          	ld	s9,-920(s0)
     ff0:	080ccc93          	xori	s9,s9,128
     ff4:	019c0c23          	sb	s9,24(s8)
     ff8:	c7843c83          	ld	s9,-904(s0)
     ffc:	080ccc93          	xori	s9,s9,128
    1000:	019c0ca3          	sb	s9,25(s8)
    1004:	c8843c83          	ld	s9,-888(s0)
    1008:	080ccc93          	xori	s9,s9,128
    100c:	019c0d23          	sb	s9,26(s8)
    1010:	ca043c83          	ld	s9,-864(s0)
    1014:	080ccc93          	xori	s9,s9,128
    1018:	019c0da3          	sb	s9,27(s8)
    101c:	cb043c83          	ld	s9,-848(s0)
    1020:	080ccc93          	xori	s9,s9,128
    1024:	019c0e23          	sb	s9,28(s8)
    1028:	cc043c83          	ld	s9,-832(s0)
    102c:	080ccc93          	xori	s9,s9,128
    1030:	019c0ea3          	sb	s9,29(s8)
    1034:	cd843c83          	ld	s9,-808(s0)
    1038:	080ccc93          	xori	s9,s9,128
    103c:	019c0f23          	sb	s9,30(s8)
    1040:	ce843c83          	ld	s9,-792(s0)
    1044:	080ccc93          	xori	s9,s9,128
    1048:	019c0fa3          	sb	s9,31(s8)
    104c:	cf843c03          	ld	s8,-776(s0)
    1050:	080c4c93          	xori	s9,s8,128
    1054:	00001c37          	lui	s8,0x1
    1058:	41840c33          	sub	s8,s0,s8
    105c:	cd8c3c03          	ld	s8,-808(s8) # cd8 <.LBB13_3+0xac0>
    1060:	01ac0c33          	add	s8,s8,s10
    1064:	019c01a3          	sb	s9,3(s8)
    1068:	d0843c83          	ld	s9,-760(s0)
    106c:	080ccc93          	xori	s9,s9,128
    1070:	019c0123          	sb	s9,2(s8)
    1074:	d2043c83          	ld	s9,-736(s0)
    1078:	080ccc93          	xori	s9,s9,128
    107c:	019c00a3          	sb	s9,1(s8)
    1080:	d3043c83          	ld	s9,-720(s0)
    1084:	080ccc93          	xori	s9,s9,128
    1088:	019c0023          	sb	s9,0(s8)
    108c:	d4043c83          	ld	s9,-704(s0)
    1090:	080ccc93          	xori	s9,s9,128
    1094:	019c0223          	sb	s9,4(s8)
    1098:	d5043c83          	ld	s9,-688(s0)
    109c:	080ccc93          	xori	s9,s9,128
    10a0:	019c02a3          	sb	s9,5(s8)
    10a4:	d6843c83          	ld	s9,-664(s0)
    10a8:	080ccc93          	xori	s9,s9,128
    10ac:	019c0323          	sb	s9,6(s8)
    10b0:	d7843c83          	ld	s9,-648(s0)
    10b4:	080ccc93          	xori	s9,s9,128
    10b8:	019c03a3          	sb	s9,7(s8)
    10bc:	d8843c83          	ld	s9,-632(s0)
    10c0:	080ccc93          	xori	s9,s9,128
    10c4:	019c0423          	sb	s9,8(s8)
    10c8:	080dcc93          	xori	s9,s11,128
    10cc:	019c04a3          	sb	s9,9(s8)
    10d0:	08054513          	xori	a0,a0,128
    10d4:	00ac0523          	sb	a0,10(s8)
    10d8:	0805c513          	xori	a0,a1,128
    10dc:	00ac05a3          	sb	a0,11(s8)
    10e0:	08064513          	xori	a0,a2,128
    10e4:	00ac0623          	sb	a0,12(s8)
    10e8:	0806c513          	xori	a0,a3,128
    10ec:	00ac06a3          	sb	a0,13(s8)
    10f0:	08074513          	xori	a0,a4,128
    10f4:	00ac0723          	sb	a0,14(s8)
    10f8:	0807c513          	xori	a0,a5,128
    10fc:	00ac07a3          	sb	a0,15(s8)
    1100:	08084513          	xori	a0,a6,128
    1104:	00ac0823          	sb	a0,16(s8)
    1108:	0808c513          	xori	a0,a7,128
    110c:	00ac08a3          	sb	a0,17(s8)
    1110:	0802c513          	xori	a0,t0,128
    1114:	00ac0923          	sb	a0,18(s8)
    1118:	08034513          	xori	a0,t1,128
    111c:	00ac09a3          	sb	a0,19(s8)
    1120:	0803c513          	xori	a0,t2,128
    1124:	00ac0a23          	sb	a0,20(s8)
    1128:	080e4513          	xori	a0,t3,128
    112c:	00ac0aa3          	sb	a0,21(s8)
    1130:	080ec513          	xori	a0,t4,128
    1134:	00ac0b23          	sb	a0,22(s8)
    1138:	080f4513          	xori	a0,t5,128
    113c:	00ac0ba3          	sb	a0,23(s8)
    1140:	080fc513          	xori	a0,t6,128
    1144:	00ac0c23          	sb	a0,24(s8)
    1148:	0804c513          	xori	a0,s1,128
    114c:	00ac0ca3          	sb	a0,25(s8)
    1150:	08094513          	xori	a0,s2,128
    1154:	00ac0d23          	sb	a0,26(s8)
    1158:	0809c513          	xori	a0,s3,128
    115c:	00ac0da3          	sb	a0,27(s8)
    1160:	080a4513          	xori	a0,s4,128
    1164:	00ac0e23          	sb	a0,28(s8)
    1168:	080ac513          	xori	a0,s5,128
    116c:	00ac0ea3          	sb	a0,29(s8)
    1170:	080b4513          	xori	a0,s6,128
    1174:	00ac0f23          	sb	a0,30(s8)
    1178:	080bc513          	xori	a0,s7,128
    117c:	00ac0fa3          	sb	a0,31(s8)
    1180:	020d0513          	addi	a0,s10,32
    1184:	000015b7          	lui	a1,0x1
    1188:	40b405b3          	sub	a1,s0,a1
    118c:	6205b603          	ld	a2,1568(a1) # 1620 <.LBB13_4+0x480>
    1190:	02060613          	addi	a2,a2,32
    1194:	04000593          	li	a1,64
    1198:	00bd6463          	bltu	s10,a1,11a0 <.LBB13_4>
    119c:	f6dfe06f          	j	108 <.LBB13_1>

00000000000011a0 <.LBB13_4>:
    11a0:	000015b7          	lui	a1,0x1
    11a4:	40b405b3          	sub	a1,s0,a1
    11a8:	62a5bc23          	sd	a0,1592(a1) # 1638 <.LBB13_4+0x498>
    11ac:	60000513          	li	a0,1536
    11b0:	000015b7          	lui	a1,0x1
    11b4:	40b405b3          	sub	a1,s0,a1
    11b8:	d185b783          	ld	a5,-744(a1) # d18 <.LBB13_3+0xb00>
    11bc:	000015b7          	lui	a1,0x1
    11c0:	40b405b3          	sub	a1,s0,a1
    11c4:	62c5b023          	sd	a2,1568(a1) # 1620 <.LBB13_4+0x480>
    11c8:	00060493          	mv	s1,a2
    11cc:	000015b7          	lui	a1,0x1
    11d0:	40b405b3          	sub	a1,s0,a1
    11d4:	7405b023          	sd	zero,1856(a1) # 1740 <.LBB13_5+0x94>
    11d8:	000015b7          	lui	a1,0x1
    11dc:	40b405b3          	sub	a1,s0,a1
    11e0:	7205bc23          	sd	zero,1848(a1) # 1738 <.LBB13_5+0x8c>
    11e4:	000015b7          	lui	a1,0x1
    11e8:	40b405b3          	sub	a1,s0,a1
    11ec:	7205b823          	sd	zero,1840(a1) # 1730 <.LBB13_5+0x84>
    11f0:	000015b7          	lui	a1,0x1
    11f4:	40b405b3          	sub	a1,s0,a1
    11f8:	7405b423          	sd	zero,1864(a1) # 1748 <.LBB13_5+0x9c>
    11fc:	000015b7          	lui	a1,0x1
    1200:	40b405b3          	sub	a1,s0,a1
    1204:	7205b423          	sd	zero,1832(a1) # 1728 <.LBB13_5+0x7c>
    1208:	000015b7          	lui	a1,0x1
    120c:	40b405b3          	sub	a1,s0,a1
    1210:	7405b823          	sd	zero,1872(a1) # 1750 <.LBB13_5+0xa4>
    1214:	000015b7          	lui	a1,0x1
    1218:	40b405b3          	sub	a1,s0,a1
    121c:	7405bc23          	sd	zero,1880(a1) # 1758 <.LBB13_5+0xac>
    1220:	000015b7          	lui	a1,0x1
    1224:	40b405b3          	sub	a1,s0,a1
    1228:	7605b023          	sd	zero,1888(a1) # 1760 <.LBB13_5+0xb4>
    122c:	000015b7          	lui	a1,0x1
    1230:	40b405b3          	sub	a1,s0,a1
    1234:	7205b023          	sd	zero,1824(a1) # 1720 <.LBB13_5+0x74>
    1238:	000015b7          	lui	a1,0x1
    123c:	40b405b3          	sub	a1,s0,a1
    1240:	7605b423          	sd	zero,1896(a1) # 1768 <.LBB13_5+0xbc>
    1244:	000015b7          	lui	a1,0x1
    1248:	40b405b3          	sub	a1,s0,a1
    124c:	7605b823          	sd	zero,1904(a1) # 1770 <.LBB13_5+0xc4>
    1250:	000015b7          	lui	a1,0x1
    1254:	40b405b3          	sub	a1,s0,a1
    1258:	7605bc23          	sd	zero,1912(a1) # 1778 <.LBB13_5+0xcc>
    125c:	000015b7          	lui	a1,0x1
    1260:	40b405b3          	sub	a1,s0,a1
    1264:	7805b023          	sd	zero,1920(a1) # 1780 <.LBB13_5+0xd4>
    1268:	000015b7          	lui	a1,0x1
    126c:	40b405b3          	sub	a1,s0,a1
    1270:	7805b423          	sd	zero,1928(a1) # 1788 <.LBB13_5+0xdc>
    1274:	000015b7          	lui	a1,0x1
    1278:	40b405b3          	sub	a1,s0,a1
    127c:	7805b823          	sd	zero,1936(a1) # 1790 <.LBB13_5+0xe4>
    1280:	000015b7          	lui	a1,0x1
    1284:	40b405b3          	sub	a1,s0,a1
    1288:	7805bc23          	sd	zero,1944(a1) # 1798 <.LBB13_5+0xec>
    128c:	000015b7          	lui	a1,0x1
    1290:	40b405b3          	sub	a1,s0,a1
    1294:	7a05b023          	sd	zero,1952(a1) # 17a0 <.LBB13_5+0xf4>
    1298:	000015b7          	lui	a1,0x1
    129c:	40b405b3          	sub	a1,s0,a1
    12a0:	7a05b423          	sd	zero,1960(a1) # 17a8 <.LBB13_5+0xfc>
    12a4:	000015b7          	lui	a1,0x1
    12a8:	40b405b3          	sub	a1,s0,a1
    12ac:	7a05b823          	sd	zero,1968(a1) # 17b0 <.LBB13_5+0x104>
    12b0:	000015b7          	lui	a1,0x1
    12b4:	40b405b3          	sub	a1,s0,a1
    12b8:	7a05bc23          	sd	zero,1976(a1) # 17b8 <.LBB13_5+0x10c>
    12bc:	000015b7          	lui	a1,0x1
    12c0:	40b405b3          	sub	a1,s0,a1
    12c4:	7c05b023          	sd	zero,1984(a1) # 17c0 <.LBB13_5+0x114>
    12c8:	000015b7          	lui	a1,0x1
    12cc:	40b405b3          	sub	a1,s0,a1
    12d0:	7c05b423          	sd	zero,1992(a1) # 17c8 <.LBB13_5+0x11c>
    12d4:	00000693          	li	a3,0
    12d8:	00000713          	li	a4,0
    12dc:	00000313          	li	t1,0
    12e0:	000015b7          	lui	a1,0x1
    12e4:	40b405b3          	sub	a1,s0,a1
    12e8:	7c05b823          	sd	zero,2000(a1) # 17d0 <.LBB13_5+0x124>
    12ec:	000015b7          	lui	a1,0x1
    12f0:	40b405b3          	sub	a1,s0,a1
    12f4:	7c05bc23          	sd	zero,2008(a1) # 17d8 <.LBB13_5+0x12c>
    12f8:	000015b7          	lui	a1,0x1
    12fc:	40b405b3          	sub	a1,s0,a1
    1300:	7e05b023          	sd	zero,2016(a1) # 17e0 <.LBB13_5+0x134>
    1304:	000015b7          	lui	a1,0x1
    1308:	40b405b3          	sub	a1,s0,a1
    130c:	7e05b423          	sd	zero,2024(a1) # 17e8 <.LBB13_5+0x13c>
    1310:	00000b93          	li	s7,0
    1314:	000015b7          	lui	a1,0x1
    1318:	40b405b3          	sub	a1,s0,a1
    131c:	7e05b823          	sd	zero,2032(a1) # 17f0 <.LBB13_5+0x144>
    1320:	000015b7          	lui	a1,0x1
    1324:	40b405b3          	sub	a1,s0,a1
    1328:	7e05bc23          	sd	zero,2040(a1) # 17f8 <.LBB13_5+0x14c>
    132c:	82043023          	sd	zero,-2016(s0)
    1330:	80043c23          	sd	zero,-2024(s0)
    1334:	80043823          	sd	zero,-2032(s0)
    1338:	80043423          	sd	zero,-2040(s0)
    133c:	82043423          	sd	zero,-2008(s0)
    1340:	82043823          	sd	zero,-2000(s0)
    1344:	82043c23          	sd	zero,-1992(s0)
    1348:	84043423          	sd	zero,-1976(s0)
    134c:	84043823          	sd	zero,-1968(s0)
    1350:	84043c23          	sd	zero,-1960(s0)
    1354:	86043023          	sd	zero,-1952(s0)
    1358:	86043423          	sd	zero,-1944(s0)
    135c:	86043823          	sd	zero,-1936(s0)
    1360:	86043c23          	sd	zero,-1928(s0)
    1364:	88043023          	sd	zero,-1920(s0)
    1368:	88043423          	sd	zero,-1912(s0)
    136c:	88043823          	sd	zero,-1904(s0)
    1370:	88043c23          	sd	zero,-1896(s0)
    1374:	8a043023          	sd	zero,-1888(s0)
    1378:	8a043423          	sd	zero,-1880(s0)
    137c:	8a043823          	sd	zero,-1872(s0)
    1380:	8a043c23          	sd	zero,-1864(s0)
    1384:	8c043023          	sd	zero,-1856(s0)
    1388:	8c043423          	sd	zero,-1848(s0)
    138c:	8c043823          	sd	zero,-1840(s0)
    1390:	8c043c23          	sd	zero,-1832(s0)
    1394:	8e043023          	sd	zero,-1824(s0)
    1398:	8e043423          	sd	zero,-1816(s0)
    139c:	8e043823          	sd	zero,-1808(s0)
    13a0:	8e043c23          	sd	zero,-1800(s0)
    13a4:	90043023          	sd	zero,-1792(s0)
    13a8:	90043423          	sd	zero,-1784(s0)
    13ac:	92043423          	sd	zero,-1752(s0)
    13b0:	92043023          	sd	zero,-1760(s0)
    13b4:	90043c23          	sd	zero,-1768(s0)
    13b8:	90043823          	sd	zero,-1776(s0)
    13bc:	92043823          	sd	zero,-1744(s0)
    13c0:	92043c23          	sd	zero,-1736(s0)
    13c4:	94043023          	sd	zero,-1728(s0)
    13c8:	94043423          	sd	zero,-1720(s0)
    13cc:	94043823          	sd	zero,-1712(s0)
    13d0:	94043c23          	sd	zero,-1704(s0)
    13d4:	96043023          	sd	zero,-1696(s0)
    13d8:	96043423          	sd	zero,-1688(s0)
    13dc:	96043823          	sd	zero,-1680(s0)
    13e0:	96043c23          	sd	zero,-1672(s0)
    13e4:	98043023          	sd	zero,-1664(s0)
    13e8:	98043423          	sd	zero,-1656(s0)
    13ec:	98043823          	sd	zero,-1648(s0)
    13f0:	98043c23          	sd	zero,-1640(s0)
    13f4:	9a043023          	sd	zero,-1632(s0)
    13f8:	9a043423          	sd	zero,-1624(s0)
    13fc:	9a043823          	sd	zero,-1616(s0)
    1400:	9a043c23          	sd	zero,-1608(s0)
    1404:	9c043023          	sd	zero,-1600(s0)
    1408:	9c043423          	sd	zero,-1592(s0)
    140c:	9c043823          	sd	zero,-1584(s0)
    1410:	9c043c23          	sd	zero,-1576(s0)
    1414:	9e043023          	sd	zero,-1568(s0)
    1418:	9e043423          	sd	zero,-1560(s0)
    141c:	9e043823          	sd	zero,-1552(s0)
    1420:	9e043c23          	sd	zero,-1544(s0)
    1424:	a0043023          	sd	zero,-1536(s0)
    1428:	a0043423          	sd	zero,-1528(s0)
    142c:	a2043423          	sd	zero,-1496(s0)
    1430:	a2043023          	sd	zero,-1504(s0)
    1434:	a0043c23          	sd	zero,-1512(s0)
    1438:	a0043823          	sd	zero,-1520(s0)
    143c:	a2043823          	sd	zero,-1488(s0)
    1440:	a2043c23          	sd	zero,-1480(s0)
    1444:	a4043023          	sd	zero,-1472(s0)
    1448:	a4043423          	sd	zero,-1464(s0)
    144c:	a4043823          	sd	zero,-1456(s0)
    1450:	a4043c23          	sd	zero,-1448(s0)
    1454:	a6043023          	sd	zero,-1440(s0)
    1458:	a6043423          	sd	zero,-1432(s0)
    145c:	a6043823          	sd	zero,-1424(s0)
    1460:	a6043c23          	sd	zero,-1416(s0)
    1464:	a8043023          	sd	zero,-1408(s0)
    1468:	a8043423          	sd	zero,-1400(s0)
    146c:	a8043823          	sd	zero,-1392(s0)
    1470:	a8043c23          	sd	zero,-1384(s0)
    1474:	aa043023          	sd	zero,-1376(s0)
    1478:	aa043423          	sd	zero,-1368(s0)
    147c:	aa043823          	sd	zero,-1360(s0)
    1480:	aa043c23          	sd	zero,-1352(s0)
    1484:	ac043023          	sd	zero,-1344(s0)
    1488:	ac043423          	sd	zero,-1336(s0)
    148c:	ac043823          	sd	zero,-1328(s0)
    1490:	ac043c23          	sd	zero,-1320(s0)
    1494:	ae043023          	sd	zero,-1312(s0)
    1498:	ae043423          	sd	zero,-1304(s0)
    149c:	ae043823          	sd	zero,-1296(s0)
    14a0:	ae043c23          	sd	zero,-1288(s0)
    14a4:	b0043023          	sd	zero,-1280(s0)
    14a8:	b0043423          	sd	zero,-1272(s0)
    14ac:	b2043423          	sd	zero,-1240(s0)
    14b0:	b2043023          	sd	zero,-1248(s0)
    14b4:	b0043c23          	sd	zero,-1256(s0)
    14b8:	b0043823          	sd	zero,-1264(s0)
    14bc:	b2043823          	sd	zero,-1232(s0)
    14c0:	b2043c23          	sd	zero,-1224(s0)
    14c4:	b4043023          	sd	zero,-1216(s0)
    14c8:	b4043423          	sd	zero,-1208(s0)
    14cc:	b4043823          	sd	zero,-1200(s0)
    14d0:	b4043c23          	sd	zero,-1192(s0)
    14d4:	b6043023          	sd	zero,-1184(s0)
    14d8:	b6043423          	sd	zero,-1176(s0)
    14dc:	b6043823          	sd	zero,-1168(s0)
    14e0:	b6043c23          	sd	zero,-1160(s0)
    14e4:	b8043023          	sd	zero,-1152(s0)
    14e8:	b8043423          	sd	zero,-1144(s0)
    14ec:	b8043823          	sd	zero,-1136(s0)
    14f0:	b8043c23          	sd	zero,-1128(s0)
    14f4:	ba043023          	sd	zero,-1120(s0)
    14f8:	ba043423          	sd	zero,-1112(s0)
    14fc:	ba043823          	sd	zero,-1104(s0)
    1500:	ba043c23          	sd	zero,-1096(s0)
    1504:	bc043023          	sd	zero,-1088(s0)
    1508:	bc043423          	sd	zero,-1080(s0)
    150c:	bc043823          	sd	zero,-1072(s0)
    1510:	bc043c23          	sd	zero,-1064(s0)
    1514:	be043023          	sd	zero,-1056(s0)
    1518:	be043423          	sd	zero,-1048(s0)
    151c:	be043823          	sd	zero,-1040(s0)
    1520:	be043c23          	sd	zero,-1032(s0)
    1524:	c0043023          	sd	zero,-1024(s0)
    1528:	80043023          	sd	zero,-2048(s0)
    152c:	c2043423          	sd	zero,-984(s0)
    1530:	c2043023          	sd	zero,-992(s0)
    1534:	c0043c23          	sd	zero,-1000(s0)
    1538:	c0043823          	sd	zero,-1008(s0)
    153c:	c2043823          	sd	zero,-976(s0)
    1540:	c2043c23          	sd	zero,-968(s0)
    1544:	c4043023          	sd	zero,-960(s0)
    1548:	c4043423          	sd	zero,-952(s0)
    154c:	c4043823          	sd	zero,-944(s0)
    1550:	c4043c23          	sd	zero,-936(s0)
    1554:	c6043023          	sd	zero,-928(s0)
    1558:	c6043423          	sd	zero,-920(s0)
    155c:	c6043823          	sd	zero,-912(s0)
    1560:	c6043c23          	sd	zero,-904(s0)
    1564:	c8043023          	sd	zero,-896(s0)
    1568:	c8043423          	sd	zero,-888(s0)
    156c:	c8043823          	sd	zero,-880(s0)
    1570:	c8043c23          	sd	zero,-872(s0)
    1574:	ca043023          	sd	zero,-864(s0)
    1578:	ca043423          	sd	zero,-856(s0)
    157c:	ca043823          	sd	zero,-848(s0)
    1580:	ca043c23          	sd	zero,-840(s0)
    1584:	cc043023          	sd	zero,-832(s0)
    1588:	cc043423          	sd	zero,-824(s0)
    158c:	cc043823          	sd	zero,-816(s0)
    1590:	cc043c23          	sd	zero,-808(s0)
    1594:	ce043023          	sd	zero,-800(s0)
    1598:	ce043423          	sd	zero,-792(s0)
    159c:	ce043823          	sd	zero,-784(s0)
    15a0:	ce043c23          	sd	zero,-776(s0)
    15a4:	d0043023          	sd	zero,-768(s0)
    15a8:	d0043423          	sd	zero,-760(s0)
    15ac:	d2043423          	sd	zero,-728(s0)
    15b0:	d2043023          	sd	zero,-736(s0)
    15b4:	d0043c23          	sd	zero,-744(s0)
    15b8:	d0043823          	sd	zero,-752(s0)
    15bc:	d2043823          	sd	zero,-720(s0)
    15c0:	d2043c23          	sd	zero,-712(s0)
    15c4:	d4043023          	sd	zero,-704(s0)
    15c8:	d4043423          	sd	zero,-696(s0)
    15cc:	d4043823          	sd	zero,-688(s0)
    15d0:	d4043c23          	sd	zero,-680(s0)
    15d4:	d6043023          	sd	zero,-672(s0)
    15d8:	d6043423          	sd	zero,-664(s0)
    15dc:	d6043823          	sd	zero,-656(s0)
    15e0:	d6043c23          	sd	zero,-648(s0)
    15e4:	d8043023          	sd	zero,-640(s0)
    15e8:	d8043423          	sd	zero,-632(s0)
    15ec:	d8043823          	sd	zero,-624(s0)
    15f0:	d8043c23          	sd	zero,-616(s0)
    15f4:	da043023          	sd	zero,-608(s0)
    15f8:	da043423          	sd	zero,-600(s0)
    15fc:	da043823          	sd	zero,-592(s0)
    1600:	da043c23          	sd	zero,-584(s0)
    1604:	dc043023          	sd	zero,-576(s0)
    1608:	dc043423          	sd	zero,-568(s0)
    160c:	dc043823          	sd	zero,-560(s0)
    1610:	dc043c23          	sd	zero,-552(s0)
    1614:	de043023          	sd	zero,-544(s0)
    1618:	de043423          	sd	zero,-536(s0)
    161c:	de043823          	sd	zero,-528(s0)
    1620:	de043c23          	sd	zero,-520(s0)
    1624:	e0043023          	sd	zero,-512(s0)
    1628:	e0043423          	sd	zero,-504(s0)
    162c:	e2043423          	sd	zero,-472(s0)
    1630:	e2043023          	sd	zero,-480(s0)
    1634:	e0043c23          	sd	zero,-488(s0)
    1638:	e0043823          	sd	zero,-496(s0)
    163c:	e2043823          	sd	zero,-464(s0)
    1640:	e2043c23          	sd	zero,-456(s0)
    1644:	e4043023          	sd	zero,-448(s0)
    1648:	84043023          	sd	zero,-1984(s0)
    164c:	c0043423          	sd	zero,-1016(s0)
    1650:	00000613          	li	a2,0
    1654:	e4043423          	sd	zero,-440(s0)
    1658:	e4043823          	sd	zero,-432(s0)
    165c:	00000593          	li	a1,0
    1660:	e6043423          	sd	zero,-408(s0)
    1664:	e4043c23          	sd	zero,-424(s0)
    1668:	e6043023          	sd	zero,-416(s0)
    166c:	00000093          	li	ra,0
    1670:	00000d93          	li	s11,0
    1674:	00000c93          	li	s9,0
    1678:	00000b13          	li	s6,0
    167c:	00000a93          	li	s5,0
    1680:	00000a13          	li	s4,0
    1684:	e6043823          	sd	zero,-400(s0)
    1688:	00000913          	li	s2,0
    168c:	00000f93          	li	t6,0
    1690:	00000f13          	li	t5,0
    1694:	00000e93          	li	t4,0
    1698:	00000e13          	li	t3,0
    169c:	00000393          	li	t2,0
    16a0:	00000993          	li	s3,0
    16a4:	00000293          	li	t0,0
    16a8:	00000893          	li	a7,0

00000000000016ac <.LBB13_5>:
    16ac:	f8943423          	sd	s1,-120(s0)
    16b0:	f8f43023          	sd	a5,-128(s0)
    16b4:	00001837          	lui	a6,0x1
    16b8:	41040833          	sub	a6,s0,a6
    16bc:	68a83423          	sd	a0,1672(a6) # 1688 <.LBB13_4+0x4e8>
    16c0:	f2c43023          	sd	a2,-224(s0)
    16c4:	f2b43423          	sd	a1,-216(s0)
    16c8:	00001537          	lui	a0,0x1
    16cc:	40a40533          	sub	a0,s0,a0
    16d0:	68153823          	sd	ra,1680(a0) # 1690 <.LBB13_4+0x4f0>
    16d4:	00001537          	lui	a0,0x1
    16d8:	40a40533          	sub	a0,s0,a0
    16dc:	69b53c23          	sd	s11,1688(a0) # 1698 <.LBB13_4+0x4f8>
    16e0:	00001537          	lui	a0,0x1
    16e4:	40a40533          	sub	a0,s0,a0
    16e8:	6b953023          	sd	s9,1696(a0) # 16a0 <.LBB13_4+0x500>
    16ec:	00001537          	lui	a0,0x1
    16f0:	40a40533          	sub	a0,s0,a0
    16f4:	6b653423          	sd	s6,1704(a0) # 16a8 <.LBB13_4+0x508>
    16f8:	00001537          	lui	a0,0x1
    16fc:	40a40533          	sub	a0,s0,a0
    1700:	6b553823          	sd	s5,1712(a0) # 16b0 <.LBB13_5+0x4>
    1704:	00001537          	lui	a0,0x1
    1708:	40a40533          	sub	a0,s0,a0
    170c:	6b453c23          	sd	s4,1720(a0) # 16b8 <.LBB13_5+0xc>
    1710:	00001537          	lui	a0,0x1
    1714:	40a40533          	sub	a0,s0,a0
    1718:	6d253023          	sd	s2,1728(a0) # 16c0 <.LBB13_5+0x14>
    171c:	f1f43c23          	sd	t6,-232(s0)
    1720:	00001537          	lui	a0,0x1
    1724:	40a40533          	sub	a0,s0,a0
    1728:	6de53423          	sd	t5,1736(a0) # 16c8 <.LBB13_5+0x1c>
    172c:	00001537          	lui	a0,0x1
    1730:	40a40533          	sub	a0,s0,a0
    1734:	6dd53823          	sd	t4,1744(a0) # 16d0 <.LBB13_5+0x24>
    1738:	00001537          	lui	a0,0x1
    173c:	40a40533          	sub	a0,s0,a0
    1740:	6dc53c23          	sd	t3,1752(a0) # 16d8 <.LBB13_5+0x2c>
    1744:	00001537          	lui	a0,0x1
    1748:	40a40533          	sub	a0,s0,a0
    174c:	6e753023          	sd	t2,1760(a0) # 16e0 <.LBB13_5+0x34>
    1750:	00001537          	lui	a0,0x1
    1754:	40a40533          	sub	a0,s0,a0
    1758:	6f353423          	sd	s3,1768(a0) # 16e8 <.LBB13_5+0x3c>
    175c:	00001537          	lui	a0,0x1
    1760:	40a40533          	sub	a0,s0,a0
    1764:	6e553823          	sd	t0,1776(a0) # 16f0 <.LBB13_5+0x44>
    1768:	00001537          	lui	a0,0x1
    176c:	40a40533          	sub	a0,s0,a0
    1770:	6f153c23          	sd	a7,1784(a0) # 16f8 <.LBB13_5+0x4c>
    1774:	f9078503          	lb	a0,-112(a5)
    1778:	00248603          	lb	a2,2(s1)
    177c:	f2c43c23          	sd	a2,-200(s0)
    1780:	00148783          	lb	a5,1(s1)
    1784:	eaf43823          	sd	a5,-336(s0)
    1788:	00048903          	lb	s2,0(s1)
    178c:	00348983          	lb	s3,3(s1)
    1790:	f3343823          	sd	s3,-208(s0)
    1794:	00448c83          	lb	s9,4(s1)
    1798:	f7943c23          	sd	s9,-136(s0)
    179c:	00548c03          	lb	s8,5(s1)
    17a0:	f7843823          	sd	s8,-144(s0)
    17a4:	00068893          	mv	a7,a3
    17a8:	00648683          	lb	a3,6(s1)
    17ac:	f4d43023          	sd	a3,-192(s0)
    17b0:	00070293          	mv	t0,a4
    17b4:	00748703          	lb	a4,7(s1)
    17b8:	00848803          	lb	a6,8(s1)
    17bc:	00948d03          	lb	s10,9(s1)
    17c0:	eba43c23          	sd	s10,-328(s0)
    17c4:	00a48383          	lb	t2,10(s1)
    17c8:	00b48a03          	lb	s4,11(s1)
    17cc:	ed443023          	sd	s4,-320(s0)
    17d0:	00c48b03          	lb	s6,12(s1)
    17d4:	00d48083          	lb	ra,13(s1)
    17d8:	00e48d83          	lb	s11,14(s1)
    17dc:	00f48e03          	lb	t3,15(s1)
    17e0:	e9c43c23          	sd	t3,-360(s0)
    17e4:	01048e83          	lb	t4,16(s1)
    17e8:	edd43423          	sd	t4,-312(s0)
    17ec:	01148f03          	lb	t5,17(s1)
    17f0:	ede43823          	sd	t5,-304(s0)
    17f4:	01248583          	lb	a1,18(s1)
    17f8:	f4b43c23          	sd	a1,-168(s0)
    17fc:	01348a83          	lb	s5,19(s1)
    1800:	01448f83          	lb	t6,20(s1)
    1804:	f1f43823          	sd	t6,-240(s0)
    1808:	01548583          	lb	a1,21(s1)
    180c:	eeb43023          	sd	a1,-288(s0)
    1810:	01648583          	lb	a1,22(s1)
    1814:	f6b43023          	sd	a1,-160(s0)
    1818:	01748583          	lb	a1,23(s1)
    181c:	eab43023          	sd	a1,-352(s0)
    1820:	f8843583          	ld	a1,-120(s0)
    1824:	01858483          	lb	s1,24(a1)
    1828:	f4943423          	sd	s1,-184(s0)
    182c:	02c505b3          	mul	a1,a0,a2
    1830:	00001637          	lui	a2,0x1
    1834:	40c40633          	sub	a2,s0,a2
    1838:	73063603          	ld	a2,1840(a2) # 1730 <.LBB13_5+0x84>
    183c:	00c58633          	add	a2,a1,a2
    1840:	000015b7          	lui	a1,0x1
    1844:	40b405b3          	sub	a1,s0,a1
    1848:	72c5b823          	sd	a2,1840(a1) # 1730 <.LBB13_5+0x84>
    184c:	02f505b3          	mul	a1,a0,a5
    1850:	00001637          	lui	a2,0x1
    1854:	40c40633          	sub	a2,s0,a2
    1858:	73863603          	ld	a2,1848(a2) # 1738 <.LBB13_5+0x8c>
    185c:	00c58633          	add	a2,a1,a2
    1860:	000015b7          	lui	a1,0x1
    1864:	40b405b3          	sub	a1,s0,a1
    1868:	72c5bc23          	sd	a2,1848(a1) # 1738 <.LBB13_5+0x8c>
    186c:	032505b3          	mul	a1,a0,s2
    1870:	00001637          	lui	a2,0x1
    1874:	40c40633          	sub	a2,s0,a2
    1878:	74063603          	ld	a2,1856(a2) # 1740 <.LBB13_5+0x94>
    187c:	00c58633          	add	a2,a1,a2
    1880:	000015b7          	lui	a1,0x1
    1884:	40b405b3          	sub	a1,s0,a1
    1888:	74c5b023          	sd	a2,1856(a1) # 1740 <.LBB13_5+0x94>
    188c:	033505b3          	mul	a1,a0,s3
    1890:	00001637          	lui	a2,0x1
    1894:	40c40633          	sub	a2,s0,a2
    1898:	74863603          	ld	a2,1864(a2) # 1748 <.LBB13_5+0x9c>
    189c:	00c58633          	add	a2,a1,a2
    18a0:	000015b7          	lui	a1,0x1
    18a4:	40b405b3          	sub	a1,s0,a1
    18a8:	74c5b423          	sd	a2,1864(a1) # 1748 <.LBB13_5+0x9c>
    18ac:	039505b3          	mul	a1,a0,s9
    18b0:	00001637          	lui	a2,0x1
    18b4:	40c40633          	sub	a2,s0,a2
    18b8:	72863603          	ld	a2,1832(a2) # 1728 <.LBB13_5+0x7c>
    18bc:	00c58633          	add	a2,a1,a2
    18c0:	000015b7          	lui	a1,0x1
    18c4:	40b405b3          	sub	a1,s0,a1
    18c8:	72c5b423          	sd	a2,1832(a1) # 1728 <.LBB13_5+0x7c>
    18cc:	038505b3          	mul	a1,a0,s8
    18d0:	00001637          	lui	a2,0x1
    18d4:	40c40633          	sub	a2,s0,a2
    18d8:	75063603          	ld	a2,1872(a2) # 1750 <.LBB13_5+0xa4>
    18dc:	00c58633          	add	a2,a1,a2
    18e0:	000015b7          	lui	a1,0x1
    18e4:	40b405b3          	sub	a1,s0,a1
    18e8:	74c5b823          	sd	a2,1872(a1) # 1750 <.LBB13_5+0xa4>
    18ec:	02d505b3          	mul	a1,a0,a3
    18f0:	00001637          	lui	a2,0x1
    18f4:	40c40633          	sub	a2,s0,a2
    18f8:	75863603          	ld	a2,1880(a2) # 1758 <.LBB13_5+0xac>
    18fc:	00c58633          	add	a2,a1,a2
    1900:	000015b7          	lui	a1,0x1
    1904:	40b405b3          	sub	a1,s0,a1
    1908:	74c5bc23          	sd	a2,1880(a1) # 1758 <.LBB13_5+0xac>
    190c:	02e505b3          	mul	a1,a0,a4
    1910:	00001637          	lui	a2,0x1
    1914:	40c40633          	sub	a2,s0,a2
    1918:	76063603          	ld	a2,1888(a2) # 1760 <.LBB13_5+0xb4>
    191c:	00c58633          	add	a2,a1,a2
    1920:	000015b7          	lui	a1,0x1
    1924:	40b405b3          	sub	a1,s0,a1
    1928:	76c5b023          	sd	a2,1888(a1) # 1760 <.LBB13_5+0xb4>
    192c:	030505b3          	mul	a1,a0,a6
    1930:	00001637          	lui	a2,0x1
    1934:	40c40633          	sub	a2,s0,a2
    1938:	72063603          	ld	a2,1824(a2) # 1720 <.LBB13_5+0x74>
    193c:	00c58633          	add	a2,a1,a2
    1940:	000015b7          	lui	a1,0x1
    1944:	40b405b3          	sub	a1,s0,a1
    1948:	72c5b023          	sd	a2,1824(a1) # 1720 <.LBB13_5+0x74>
    194c:	03a505b3          	mul	a1,a0,s10
    1950:	00001637          	lui	a2,0x1
    1954:	40c40633          	sub	a2,s0,a2
    1958:	76863603          	ld	a2,1896(a2) # 1768 <.LBB13_5+0xbc>
    195c:	00c58633          	add	a2,a1,a2
    1960:	000015b7          	lui	a1,0x1
    1964:	40b405b3          	sub	a1,s0,a1
    1968:	76c5b423          	sd	a2,1896(a1) # 1768 <.LBB13_5+0xbc>
    196c:	027505b3          	mul	a1,a0,t2
    1970:	00038d13          	mv	s10,t2
    1974:	e6743c23          	sd	t2,-392(s0)
    1978:	00001637          	lui	a2,0x1
    197c:	40c40633          	sub	a2,s0,a2
    1980:	77063603          	ld	a2,1904(a2) # 1770 <.LBB13_5+0xc4>
    1984:	00c58633          	add	a2,a1,a2
    1988:	000015b7          	lui	a1,0x1
    198c:	40b405b3          	sub	a1,s0,a1
    1990:	76c5b823          	sd	a2,1904(a1) # 1770 <.LBB13_5+0xc4>
    1994:	034505b3          	mul	a1,a0,s4
    1998:	00001637          	lui	a2,0x1
    199c:	40c40633          	sub	a2,s0,a2
    19a0:	77863603          	ld	a2,1912(a2) # 1778 <.LBB13_5+0xcc>
    19a4:	00c58633          	add	a2,a1,a2
    19a8:	000015b7          	lui	a1,0x1
    19ac:	40b405b3          	sub	a1,s0,a1
    19b0:	76c5bc23          	sd	a2,1912(a1) # 1778 <.LBB13_5+0xcc>
    19b4:	036505b3          	mul	a1,a0,s6
    19b8:	000b0a13          	mv	s4,s6
    19bc:	00001637          	lui	a2,0x1
    19c0:	40c40633          	sub	a2,s0,a2
    19c4:	69663023          	sd	s6,1664(a2) # 1680 <.LBB13_4+0x4e0>
    19c8:	00001637          	lui	a2,0x1
    19cc:	40c40633          	sub	a2,s0,a2
    19d0:	78063603          	ld	a2,1920(a2) # 1780 <.LBB13_5+0xd4>
    19d4:	00c58633          	add	a2,a1,a2
    19d8:	000015b7          	lui	a1,0x1
    19dc:	40b405b3          	sub	a1,s0,a1
    19e0:	78c5b023          	sd	a2,1920(a1) # 1780 <.LBB13_5+0xd4>
    19e4:	021505b3          	mul	a1,a0,ra
    19e8:	00001637          	lui	a2,0x1
    19ec:	40c40633          	sub	a2,s0,a2
    19f0:	78863603          	ld	a2,1928(a2) # 1788 <.LBB13_5+0xdc>
    19f4:	00c58633          	add	a2,a1,a2
    19f8:	000015b7          	lui	a1,0x1
    19fc:	40b405b3          	sub	a1,s0,a1
    1a00:	78c5b423          	sd	a2,1928(a1) # 1788 <.LBB13_5+0xdc>
    1a04:	03b505b3          	mul	a1,a0,s11
    1a08:	00001637          	lui	a2,0x1
    1a0c:	40c40633          	sub	a2,s0,a2
    1a10:	79063603          	ld	a2,1936(a2) # 1790 <.LBB13_5+0xe4>
    1a14:	00c58633          	add	a2,a1,a2
    1a18:	000015b7          	lui	a1,0x1
    1a1c:	40b405b3          	sub	a1,s0,a1
    1a20:	78c5b823          	sd	a2,1936(a1) # 1790 <.LBB13_5+0xe4>
    1a24:	03c505b3          	mul	a1,a0,t3
    1a28:	00001637          	lui	a2,0x1
    1a2c:	40c40633          	sub	a2,s0,a2
    1a30:	79863603          	ld	a2,1944(a2) # 1798 <.LBB13_5+0xec>
    1a34:	00c58633          	add	a2,a1,a2
    1a38:	000015b7          	lui	a1,0x1
    1a3c:	40b405b3          	sub	a1,s0,a1
    1a40:	78c5bc23          	sd	a2,1944(a1) # 1798 <.LBB13_5+0xec>
    1a44:	03d505b3          	mul	a1,a0,t4
    1a48:	00001637          	lui	a2,0x1
    1a4c:	40c40633          	sub	a2,s0,a2
    1a50:	7a063603          	ld	a2,1952(a2) # 17a0 <.LBB13_5+0xf4>
    1a54:	00c58633          	add	a2,a1,a2
    1a58:	000015b7          	lui	a1,0x1
    1a5c:	40b405b3          	sub	a1,s0,a1
    1a60:	7ac5b023          	sd	a2,1952(a1) # 17a0 <.LBB13_5+0xf4>
    1a64:	03e505b3          	mul	a1,a0,t5
    1a68:	00001637          	lui	a2,0x1
    1a6c:	40c40633          	sub	a2,s0,a2
    1a70:	7a863603          	ld	a2,1960(a2) # 17a8 <.LBB13_5+0xfc>
    1a74:	00c58633          	add	a2,a1,a2
    1a78:	000015b7          	lui	a1,0x1
    1a7c:	40b405b3          	sub	a1,s0,a1
    1a80:	7ac5b423          	sd	a2,1960(a1) # 17a8 <.LBB13_5+0xfc>
    1a84:	f5843783          	ld	a5,-168(s0)
    1a88:	02f505b3          	mul	a1,a0,a5
    1a8c:	00001637          	lui	a2,0x1
    1a90:	40c40633          	sub	a2,s0,a2
    1a94:	7b063603          	ld	a2,1968(a2) # 17b0 <.LBB13_5+0x104>
    1a98:	00c58633          	add	a2,a1,a2
    1a9c:	000015b7          	lui	a1,0x1
    1aa0:	40b405b3          	sub	a1,s0,a1
    1aa4:	7ac5b823          	sd	a2,1968(a1) # 17b0 <.LBB13_5+0x104>
    1aa8:	035505b3          	mul	a1,a0,s5
    1aac:	00001637          	lui	a2,0x1
    1ab0:	40c40633          	sub	a2,s0,a2
    1ab4:	7b863603          	ld	a2,1976(a2) # 17b8 <.LBB13_5+0x10c>
    1ab8:	00c58633          	add	a2,a1,a2
    1abc:	000015b7          	lui	a1,0x1
    1ac0:	40b405b3          	sub	a1,s0,a1
    1ac4:	7ac5bc23          	sd	a2,1976(a1) # 17b8 <.LBB13_5+0x10c>
    1ac8:	03f505b3          	mul	a1,a0,t6
    1acc:	00001637          	lui	a2,0x1
    1ad0:	40c40633          	sub	a2,s0,a2
    1ad4:	7c063603          	ld	a2,1984(a2) # 17c0 <.LBB13_5+0x114>
    1ad8:	00c58633          	add	a2,a1,a2
    1adc:	000015b7          	lui	a1,0x1
    1ae0:	40b405b3          	sub	a1,s0,a1
    1ae4:	7cc5b023          	sd	a2,1984(a1) # 17c0 <.LBB13_5+0x114>
    1ae8:	ee043583          	ld	a1,-288(s0)
    1aec:	02b505b3          	mul	a1,a0,a1
    1af0:	00001637          	lui	a2,0x1
    1af4:	40c40633          	sub	a2,s0,a2
    1af8:	7c863603          	ld	a2,1992(a2) # 17c8 <.LBB13_5+0x11c>
    1afc:	00c58633          	add	a2,a1,a2
    1b00:	000015b7          	lui	a1,0x1
    1b04:	40b405b3          	sub	a1,s0,a1
    1b08:	7cc5b423          	sd	a2,1992(a1) # 17c8 <.LBB13_5+0x11c>
    1b0c:	f6043583          	ld	a1,-160(s0)
    1b10:	02b505b3          	mul	a1,a0,a1
    1b14:	011588b3          	add	a7,a1,a7
    1b18:	000015b7          	lui	a1,0x1
    1b1c:	40b405b3          	sub	a1,s0,a1
    1b20:	7115b023          	sd	a7,1792(a1) # 1700 <.LBB13_5+0x54>
    1b24:	ea043c83          	ld	s9,-352(s0)
    1b28:	039505b3          	mul	a1,a0,s9
    1b2c:	005582b3          	add	t0,a1,t0
    1b30:	000015b7          	lui	a1,0x1
    1b34:	40b405b3          	sub	a1,s0,a1
    1b38:	7055b423          	sd	t0,1800(a1) # 1708 <.LBB13_5+0x5c>
    1b3c:	f8843583          	ld	a1,-120(s0)
    1b40:	01958603          	lb	a2,25(a1)
    1b44:	e8c43823          	sd	a2,-368(s0)
    1b48:	029505b3          	mul	a1,a0,s1
    1b4c:	00658333          	add	t1,a1,t1
    1b50:	000015b7          	lui	a1,0x1
    1b54:	40b405b3          	sub	a1,s0,a1
    1b58:	7065b823          	sd	t1,1808(a1) # 1710 <.LBB13_5+0x64>
    1b5c:	f8843583          	ld	a1,-120(s0)
    1b60:	01a58683          	lb	a3,26(a1)
    1b64:	f6d43423          	sd	a3,-152(s0)
    1b68:	02c505b3          	mul	a1,a0,a2
    1b6c:	00001637          	lui	a2,0x1
    1b70:	40c40633          	sub	a2,s0,a2
    1b74:	7d063603          	ld	a2,2000(a2) # 17d0 <.LBB13_5+0x124>
    1b78:	00c58633          	add	a2,a1,a2
    1b7c:	000015b7          	lui	a1,0x1
    1b80:	40b405b3          	sub	a1,s0,a1
    1b84:	7cc5b823          	sd	a2,2000(a1) # 17d0 <.LBB13_5+0x124>
    1b88:	f8843583          	ld	a1,-120(s0)
    1b8c:	01b58303          	lb	t1,27(a1)
    1b90:	02d505b3          	mul	a1,a0,a3
    1b94:	00001637          	lui	a2,0x1
    1b98:	40c40633          	sub	a2,s0,a2
    1b9c:	7d863603          	ld	a2,2008(a2) # 17d8 <.LBB13_5+0x12c>
    1ba0:	00c58633          	add	a2,a1,a2
    1ba4:	000015b7          	lui	a1,0x1
    1ba8:	40b405b3          	sub	a1,s0,a1
    1bac:	7cc5bc23          	sd	a2,2008(a1) # 17d8 <.LBB13_5+0x12c>
    1bb0:	f8843583          	ld	a1,-120(s0)
    1bb4:	01c58683          	lb	a3,28(a1)
    1bb8:	ead43423          	sd	a3,-344(s0)
    1bbc:	026505b3          	mul	a1,a0,t1
    1bc0:	00001637          	lui	a2,0x1
    1bc4:	40c40633          	sub	a2,s0,a2
    1bc8:	7e063603          	ld	a2,2016(a2) # 17e0 <.LBB13_5+0x134>
    1bcc:	00c58633          	add	a2,a1,a2
    1bd0:	000015b7          	lui	a1,0x1
    1bd4:	40b405b3          	sub	a1,s0,a1
    1bd8:	7ec5b023          	sd	a2,2016(a1) # 17e0 <.LBB13_5+0x134>
    1bdc:	f8843583          	ld	a1,-120(s0)
    1be0:	01d58f83          	lb	t6,29(a1)
    1be4:	02d505b3          	mul	a1,a0,a3
    1be8:	00001637          	lui	a2,0x1
    1bec:	40c40633          	sub	a2,s0,a2
    1bf0:	7e863603          	ld	a2,2024(a2) # 17e8 <.LBB13_5+0x13c>
    1bf4:	00c58633          	add	a2,a1,a2
    1bf8:	000015b7          	lui	a1,0x1
    1bfc:	40b405b3          	sub	a1,s0,a1
    1c00:	7ec5b423          	sd	a2,2024(a1) # 17e8 <.LBB13_5+0x13c>
    1c04:	f8843583          	ld	a1,-120(s0)
    1c08:	01e58683          	lb	a3,30(a1)
    1c0c:	eed43423          	sd	a3,-280(s0)
    1c10:	03f505b3          	mul	a1,a0,t6
    1c14:	e9f43023          	sd	t6,-384(s0)
    1c18:	01758bb3          	add	s7,a1,s7
    1c1c:	000015b7          	lui	a1,0x1
    1c20:	40b405b3          	sub	a1,s0,a1
    1c24:	7175bc23          	sd	s7,1816(a1) # 1718 <.LBB13_5+0x6c>
    1c28:	f8843583          	ld	a1,-120(s0)
    1c2c:	01f58583          	lb	a1,31(a1)
    1c30:	eeb43823          	sd	a1,-272(s0)
    1c34:	f8043603          	ld	a2,-128(s0)
    1c38:	fa060983          	lb	s3,-96(a2)
    1c3c:	02d50c33          	mul	s8,a0,a3
    1c40:	00001637          	lui	a2,0x1
    1c44:	40c40633          	sub	a2,s0,a2
    1c48:	7f063603          	ld	a2,2032(a2) # 17f0 <.LBB13_5+0x144>
    1c4c:	00cc0633          	add	a2,s8,a2
    1c50:	000016b7          	lui	a3,0x1
    1c54:	40d406b3          	sub	a3,s0,a3
    1c58:	7ec6b823          	sd	a2,2032(a3) # 17f0 <.LBB13_5+0x144>
    1c5c:	02b50533          	mul	a0,a0,a1
    1c60:	000015b7          	lui	a1,0x1
    1c64:	40b405b3          	sub	a1,s0,a1
    1c68:	7f85b603          	ld	a2,2040(a1) # 17f8 <.LBB13_5+0x14c>
    1c6c:	00c50633          	add	a2,a0,a2
    1c70:	00001537          	lui	a0,0x1
    1c74:	40a40533          	sub	a0,s0,a0
    1c78:	7ec53c23          	sd	a2,2040(a0) # 17f8 <.LBB13_5+0x14c>
    1c7c:	00090b13          	mv	s6,s2
    1c80:	e9243423          	sd	s2,-376(s0)
    1c84:	03298533          	mul	a0,s3,s2
    1c88:	82043603          	ld	a2,-2016(s0)
    1c8c:	00c50633          	add	a2,a0,a2
    1c90:	82c43023          	sd	a2,-2016(s0)
    1c94:	eb043483          	ld	s1,-336(s0)
    1c98:	02998533          	mul	a0,s3,s1
    1c9c:	81843603          	ld	a2,-2024(s0)
    1ca0:	00c50633          	add	a2,a0,a2
    1ca4:	80c43c23          	sd	a2,-2024(s0)
    1ca8:	f3843f03          	ld	t5,-200(s0)
    1cac:	03e98533          	mul	a0,s3,t5
    1cb0:	81043603          	ld	a2,-2032(s0)
    1cb4:	00c50633          	add	a2,a0,a2
    1cb8:	80c43823          	sd	a2,-2032(s0)
    1cbc:	f3043e03          	ld	t3,-208(s0)
    1cc0:	03c98533          	mul	a0,s3,t3
    1cc4:	80843603          	ld	a2,-2040(s0)
    1cc8:	00c50633          	add	a2,a0,a2
    1ccc:	80c43423          	sd	a2,-2040(s0)
    1cd0:	f7843903          	ld	s2,-136(s0)
    1cd4:	03298533          	mul	a0,s3,s2
    1cd8:	82843603          	ld	a2,-2008(s0)
    1cdc:	00c50633          	add	a2,a0,a2
    1ce0:	82c43423          	sd	a2,-2008(s0)
    1ce4:	f7043883          	ld	a7,-144(s0)
    1ce8:	03198533          	mul	a0,s3,a7
    1cec:	83043603          	ld	a2,-2000(s0)
    1cf0:	00c50633          	add	a2,a0,a2
    1cf4:	82c43823          	sd	a2,-2000(s0)
    1cf8:	f4043683          	ld	a3,-192(s0)
    1cfc:	02d98533          	mul	a0,s3,a3
    1d00:	83843603          	ld	a2,-1992(s0)
    1d04:	00c50633          	add	a2,a0,a2
    1d08:	82c43c23          	sd	a2,-1992(s0)
    1d0c:	f4e43823          	sd	a4,-176(s0)
    1d10:	02e98533          	mul	a0,s3,a4
    1d14:	84843603          	ld	a2,-1976(s0)
    1d18:	00c50633          	add	a2,a0,a2
    1d1c:	84c43423          	sd	a2,-1976(s0)
    1d20:	ef043c23          	sd	a6,-264(s0)
    1d24:	03098533          	mul	a0,s3,a6
    1d28:	85043603          	ld	a2,-1968(s0)
    1d2c:	00c50633          	add	a2,a0,a2
    1d30:	84c43823          	sd	a2,-1968(s0)
    1d34:	eb843383          	ld	t2,-328(s0)
    1d38:	02798533          	mul	a0,s3,t2
    1d3c:	85843603          	ld	a2,-1960(s0)
    1d40:	00c50633          	add	a2,a0,a2
    1d44:	84c43c23          	sd	a2,-1960(s0)
    1d48:	03a98533          	mul	a0,s3,s10
    1d4c:	86043603          	ld	a2,-1952(s0)
    1d50:	00c50633          	add	a2,a0,a2
    1d54:	86c43023          	sd	a2,-1952(s0)
    1d58:	ec043e83          	ld	t4,-320(s0)
    1d5c:	03d98533          	mul	a0,s3,t4
    1d60:	86843603          	ld	a2,-1944(s0)
    1d64:	00c50633          	add	a2,a0,a2
    1d68:	86c43423          	sd	a2,-1944(s0)
    1d6c:	03498533          	mul	a0,s3,s4
    1d70:	87043603          	ld	a2,-1936(s0)
    1d74:	00c50633          	add	a2,a0,a2
    1d78:	86c43823          	sd	a2,-1936(s0)
    1d7c:	f0143023          	sd	ra,-256(s0)
    1d80:	02198533          	mul	a0,s3,ra
    1d84:	87843603          	ld	a2,-1928(s0)
    1d88:	00c50633          	add	a2,a0,a2
    1d8c:	86c43c23          	sd	a2,-1928(s0)
    1d90:	f1b43423          	sd	s11,-248(s0)
    1d94:	03b98533          	mul	a0,s3,s11
    1d98:	88043603          	ld	a2,-1920(s0)
    1d9c:	00c50633          	add	a2,a0,a2
    1da0:	88c43023          	sd	a2,-1920(s0)
    1da4:	e9843a03          	ld	s4,-360(s0)
    1da8:	03498533          	mul	a0,s3,s4
    1dac:	88843603          	ld	a2,-1912(s0)
    1db0:	00c50633          	add	a2,a0,a2
    1db4:	88c43423          	sd	a2,-1912(s0)
    1db8:	ec843583          	ld	a1,-312(s0)
    1dbc:	02b98533          	mul	a0,s3,a1
    1dc0:	89043603          	ld	a2,-1904(s0)
    1dc4:	00c50633          	add	a2,a0,a2
    1dc8:	88c43823          	sd	a2,-1904(s0)
    1dcc:	ed043b83          	ld	s7,-304(s0)
    1dd0:	03798533          	mul	a0,s3,s7
    1dd4:	89843603          	ld	a2,-1896(s0)
    1dd8:	00c50633          	add	a2,a0,a2
    1ddc:	88c43c23          	sd	a2,-1896(s0)
    1de0:	02f98533          	mul	a0,s3,a5
    1de4:	00078d13          	mv	s10,a5
    1de8:	8a043603          	ld	a2,-1888(s0)
    1dec:	00c50633          	add	a2,a0,a2
    1df0:	8ac43023          	sd	a2,-1888(s0)
    1df4:	000a8293          	mv	t0,s5
    1df8:	03598533          	mul	a0,s3,s5
    1dfc:	8a843603          	ld	a2,-1880(s0)
    1e00:	00c50633          	add	a2,a0,a2
    1e04:	8ac43423          	sd	a2,-1880(s0)
    1e08:	f1043503          	ld	a0,-240(s0)
    1e0c:	02a98533          	mul	a0,s3,a0
    1e10:	8b043603          	ld	a2,-1872(s0)
    1e14:	00c50633          	add	a2,a0,a2
    1e18:	8ac43823          	sd	a2,-1872(s0)
    1e1c:	ee043783          	ld	a5,-288(s0)
    1e20:	02f98533          	mul	a0,s3,a5
    1e24:	8b843603          	ld	a2,-1864(s0)
    1e28:	00c50633          	add	a2,a0,a2
    1e2c:	8ac43c23          	sd	a2,-1864(s0)
    1e30:	f6043503          	ld	a0,-160(s0)
    1e34:	02a98533          	mul	a0,s3,a0
    1e38:	8c043603          	ld	a2,-1856(s0)
    1e3c:	00c50633          	add	a2,a0,a2
    1e40:	8cc43023          	sd	a2,-1856(s0)
    1e44:	03998533          	mul	a0,s3,s9
    1e48:	8c843603          	ld	a2,-1848(s0)
    1e4c:	00c50633          	add	a2,a0,a2
    1e50:	8cc43423          	sd	a2,-1848(s0)
    1e54:	f4843503          	ld	a0,-184(s0)
    1e58:	02a98533          	mul	a0,s3,a0
    1e5c:	8d043603          	ld	a2,-1840(s0)
    1e60:	00c50633          	add	a2,a0,a2
    1e64:	8cc43823          	sd	a2,-1840(s0)
    1e68:	e9043c83          	ld	s9,-368(s0)
    1e6c:	03998533          	mul	a0,s3,s9
    1e70:	8d843603          	ld	a2,-1832(s0)
    1e74:	00c50633          	add	a2,a0,a2
    1e78:	8cc43c23          	sd	a2,-1832(s0)
    1e7c:	f6843503          	ld	a0,-152(s0)
    1e80:	02a98533          	mul	a0,s3,a0
    1e84:	8e043603          	ld	a2,-1824(s0)
    1e88:	00c50633          	add	a2,a0,a2
    1e8c:	8ec43023          	sd	a2,-1824(s0)
    1e90:	02698533          	mul	a0,s3,t1
    1e94:	00030a93          	mv	s5,t1
    1e98:	ec643c23          	sd	t1,-296(s0)
    1e9c:	8e843603          	ld	a2,-1816(s0)
    1ea0:	00c50633          	add	a2,a0,a2
    1ea4:	8ec43423          	sd	a2,-1816(s0)
    1ea8:	ea843303          	ld	t1,-344(s0)
    1eac:	02698533          	mul	a0,s3,t1
    1eb0:	8f043603          	ld	a2,-1808(s0)
    1eb4:	00c50633          	add	a2,a0,a2
    1eb8:	8ec43823          	sd	a2,-1808(s0)
    1ebc:	03f98533          	mul	a0,s3,t6
    1ec0:	8f843603          	ld	a2,-1800(s0)
    1ec4:	00c50633          	add	a2,a0,a2
    1ec8:	8ec43c23          	sd	a2,-1800(s0)
    1ecc:	f8043503          	ld	a0,-128(s0)
    1ed0:	fb050503          	lb	a0,-80(a0)
    1ed4:	ee843603          	ld	a2,-280(s0)
    1ed8:	02c98c33          	mul	s8,s3,a2
    1edc:	90043603          	ld	a2,-1792(s0)
    1ee0:	00cc0633          	add	a2,s8,a2
    1ee4:	90c43023          	sd	a2,-1792(s0)
    1ee8:	ef043603          	ld	a2,-272(s0)
    1eec:	02c989b3          	mul	s3,s3,a2
    1ef0:	90843603          	ld	a2,-1784(s0)
    1ef4:	00c98633          	add	a2,s3,a2
    1ef8:	90c43423          	sd	a2,-1784(s0)
    1efc:	036509b3          	mul	s3,a0,s6
    1f00:	92843603          	ld	a2,-1752(s0)
    1f04:	00c98633          	add	a2,s3,a2
    1f08:	92c43423          	sd	a2,-1752(s0)
    1f0c:	029509b3          	mul	s3,a0,s1
    1f10:	92043603          	ld	a2,-1760(s0)
    1f14:	00c98633          	add	a2,s3,a2
    1f18:	92c43023          	sd	a2,-1760(s0)
    1f1c:	03e509b3          	mul	s3,a0,t5
    1f20:	91843603          	ld	a2,-1768(s0)
    1f24:	00c98633          	add	a2,s3,a2
    1f28:	90c43c23          	sd	a2,-1768(s0)
    1f2c:	03c509b3          	mul	s3,a0,t3
    1f30:	91043603          	ld	a2,-1776(s0)
    1f34:	00c98633          	add	a2,s3,a2
    1f38:	90c43823          	sd	a2,-1776(s0)
    1f3c:	032509b3          	mul	s3,a0,s2
    1f40:	93043603          	ld	a2,-1744(s0)
    1f44:	00c98633          	add	a2,s3,a2
    1f48:	92c43823          	sd	a2,-1744(s0)
    1f4c:	031509b3          	mul	s3,a0,a7
    1f50:	93843603          	ld	a2,-1736(s0)
    1f54:	00c98633          	add	a2,s3,a2
    1f58:	92c43c23          	sd	a2,-1736(s0)
    1f5c:	02d509b3          	mul	s3,a0,a3
    1f60:	94043603          	ld	a2,-1728(s0)
    1f64:	00c98633          	add	a2,s3,a2
    1f68:	94c43023          	sd	a2,-1728(s0)
    1f6c:	02e509b3          	mul	s3,a0,a4
    1f70:	94843603          	ld	a2,-1720(s0)
    1f74:	00c98633          	add	a2,s3,a2
    1f78:	94c43423          	sd	a2,-1720(s0)
    1f7c:	030509b3          	mul	s3,a0,a6
    1f80:	95043603          	ld	a2,-1712(s0)
    1f84:	00c98633          	add	a2,s3,a2
    1f88:	94c43823          	sd	a2,-1712(s0)
    1f8c:	027509b3          	mul	s3,a0,t2
    1f90:	00038f13          	mv	t5,t2
    1f94:	95843603          	ld	a2,-1704(s0)
    1f98:	00c98633          	add	a2,s3,a2
    1f9c:	94c43c23          	sd	a2,-1704(s0)
    1fa0:	e7843e03          	ld	t3,-392(s0)
    1fa4:	03c509b3          	mul	s3,a0,t3
    1fa8:	96043603          	ld	a2,-1696(s0)
    1fac:	00c98633          	add	a2,s3,a2
    1fb0:	96c43023          	sd	a2,-1696(s0)
    1fb4:	03d509b3          	mul	s3,a0,t4
    1fb8:	96843603          	ld	a2,-1688(s0)
    1fbc:	00c98633          	add	a2,s3,a2
    1fc0:	96c43423          	sd	a2,-1688(s0)
    1fc4:	00001637          	lui	a2,0x1
    1fc8:	40c40633          	sub	a2,s0,a2
    1fcc:	68063b03          	ld	s6,1664(a2) # 1680 <.LBB13_4+0x4e0>
    1fd0:	036509b3          	mul	s3,a0,s6
    1fd4:	97043603          	ld	a2,-1680(s0)
    1fd8:	00c98633          	add	a2,s3,a2
    1fdc:	96c43823          	sd	a2,-1680(s0)
    1fe0:	021509b3          	mul	s3,a0,ra
    1fe4:	97843603          	ld	a2,-1672(s0)
    1fe8:	00c98633          	add	a2,s3,a2
    1fec:	96c43c23          	sd	a2,-1672(s0)
    1ff0:	03b509b3          	mul	s3,a0,s11
    1ff4:	98043603          	ld	a2,-1664(s0)
    1ff8:	00c98633          	add	a2,s3,a2
    1ffc:	98c43023          	sd	a2,-1664(s0)
    2000:	034509b3          	mul	s3,a0,s4
    2004:	98843603          	ld	a2,-1656(s0)
    2008:	00c98633          	add	a2,s3,a2
    200c:	98c43423          	sd	a2,-1656(s0)
    2010:	02b509b3          	mul	s3,a0,a1
    2014:	99043603          	ld	a2,-1648(s0)
    2018:	00c98633          	add	a2,s3,a2
    201c:	98c43823          	sd	a2,-1648(s0)
    2020:	037509b3          	mul	s3,a0,s7
    2024:	99843603          	ld	a2,-1640(s0)
    2028:	00c98633          	add	a2,s3,a2
    202c:	98c43c23          	sd	a2,-1640(s0)
    2030:	03a509b3          	mul	s3,a0,s10
    2034:	9a043603          	ld	a2,-1632(s0)
    2038:	00c98633          	add	a2,s3,a2
    203c:	9ac43023          	sd	a2,-1632(s0)
    2040:	025509b3          	mul	s3,a0,t0
    2044:	00028913          	mv	s2,t0
    2048:	000015b7          	lui	a1,0x1
    204c:	40b405b3          	sub	a1,s0,a1
    2050:	6655bc23          	sd	t0,1656(a1) # 1678 <.LBB13_4+0x4d8>
    2054:	9a843603          	ld	a2,-1624(s0)
    2058:	00c98633          	add	a2,s3,a2
    205c:	9ac43423          	sd	a2,-1624(s0)
    2060:	f1043383          	ld	t2,-240(s0)
    2064:	027509b3          	mul	s3,a0,t2
    2068:	9b043603          	ld	a2,-1616(s0)
    206c:	00c98633          	add	a2,s3,a2
    2070:	9ac43823          	sd	a2,-1616(s0)
    2074:	02f509b3          	mul	s3,a0,a5
    2078:	00078293          	mv	t0,a5
    207c:	9b843603          	ld	a2,-1608(s0)
    2080:	00c98633          	add	a2,s3,a2
    2084:	9ac43c23          	sd	a2,-1608(s0)
    2088:	f6043703          	ld	a4,-160(s0)
    208c:	02e509b3          	mul	s3,a0,a4
    2090:	9c043603          	ld	a2,-1600(s0)
    2094:	00c98633          	add	a2,s3,a2
    2098:	9cc43023          	sd	a2,-1600(s0)
    209c:	ea043f83          	ld	t6,-352(s0)
    20a0:	03f509b3          	mul	s3,a0,t6
    20a4:	9c843603          	ld	a2,-1592(s0)
    20a8:	00c98633          	add	a2,s3,a2
    20ac:	9cc43423          	sd	a2,-1592(s0)
    20b0:	f4843683          	ld	a3,-184(s0)
    20b4:	02d509b3          	mul	s3,a0,a3
    20b8:	9d043603          	ld	a2,-1584(s0)
    20bc:	00c98633          	add	a2,s3,a2
    20c0:	9cc43823          	sd	a2,-1584(s0)
    20c4:	000c8d13          	mv	s10,s9
    20c8:	039509b3          	mul	s3,a0,s9
    20cc:	9d843603          	ld	a2,-1576(s0)
    20d0:	00c98633          	add	a2,s3,a2
    20d4:	9cc43c23          	sd	a2,-1576(s0)
    20d8:	f6843c83          	ld	s9,-152(s0)
    20dc:	039509b3          	mul	s3,a0,s9
    20e0:	9e043603          	ld	a2,-1568(s0)
    20e4:	00c98633          	add	a2,s3,a2
    20e8:	9ec43023          	sd	a2,-1568(s0)
    20ec:	035509b3          	mul	s3,a0,s5
    20f0:	9e843603          	ld	a2,-1560(s0)
    20f4:	00c98633          	add	a2,s3,a2
    20f8:	9ec43423          	sd	a2,-1560(s0)
    20fc:	00030793          	mv	a5,t1
    2100:	026509b3          	mul	s3,a0,t1
    2104:	9f043603          	ld	a2,-1552(s0)
    2108:	00c98633          	add	a2,s3,a2
    210c:	9ec43823          	sd	a2,-1552(s0)
    2110:	e8043803          	ld	a6,-384(s0)
    2114:	030509b3          	mul	s3,a0,a6
    2118:	9f843603          	ld	a2,-1544(s0)
    211c:	00c98633          	add	a2,s3,a2
    2120:	9ec43c23          	sd	a2,-1544(s0)
    2124:	f8043603          	ld	a2,-128(s0)
    2128:	fc060983          	lb	s3,-64(a2)
    212c:	ee843d83          	ld	s11,-280(s0)
    2130:	03b50c33          	mul	s8,a0,s11
    2134:	a0043603          	ld	a2,-1536(s0)
    2138:	00cc0633          	add	a2,s8,a2
    213c:	a0c43023          	sd	a2,-1536(s0)
    2140:	ef043083          	ld	ra,-272(s0)
    2144:	02150533          	mul	a0,a0,ra
    2148:	a0843603          	ld	a2,-1528(s0)
    214c:	00c50633          	add	a2,a0,a2
    2150:	a0c43423          	sd	a2,-1528(s0)
    2154:	e8843883          	ld	a7,-376(s0)
    2158:	03198533          	mul	a0,s3,a7
    215c:	a2843603          	ld	a2,-1496(s0)
    2160:	00c50633          	add	a2,a0,a2
    2164:	a2c43423          	sd	a2,-1496(s0)
    2168:	02998533          	mul	a0,s3,s1
    216c:	a2043603          	ld	a2,-1504(s0)
    2170:	00c50633          	add	a2,a0,a2
    2174:	a2c43023          	sd	a2,-1504(s0)
    2178:	f3843583          	ld	a1,-200(s0)
    217c:	02b98533          	mul	a0,s3,a1
    2180:	a1843603          	ld	a2,-1512(s0)
    2184:	00c50633          	add	a2,a0,a2
    2188:	a0c43c23          	sd	a2,-1512(s0)
    218c:	f3043b83          	ld	s7,-208(s0)
    2190:	03798533          	mul	a0,s3,s7
    2194:	a1043603          	ld	a2,-1520(s0)
    2198:	00c50633          	add	a2,a0,a2
    219c:	a0c43823          	sd	a2,-1520(s0)
    21a0:	f7843503          	ld	a0,-136(s0)
    21a4:	02a98533          	mul	a0,s3,a0
    21a8:	a3043603          	ld	a2,-1488(s0)
    21ac:	00c50633          	add	a2,a0,a2
    21b0:	a2c43823          	sd	a2,-1488(s0)
    21b4:	f7043503          	ld	a0,-144(s0)
    21b8:	02a98533          	mul	a0,s3,a0
    21bc:	a3843603          	ld	a2,-1480(s0)
    21c0:	00c50633          	add	a2,a0,a2
    21c4:	a2c43c23          	sd	a2,-1480(s0)
    21c8:	f4043a83          	ld	s5,-192(s0)
    21cc:	03598533          	mul	a0,s3,s5
    21d0:	a4043603          	ld	a2,-1472(s0)
    21d4:	00c50633          	add	a2,a0,a2
    21d8:	a4c43023          	sd	a2,-1472(s0)
    21dc:	f5043503          	ld	a0,-176(s0)
    21e0:	02a98533          	mul	a0,s3,a0
    21e4:	a4843603          	ld	a2,-1464(s0)
    21e8:	00c50633          	add	a2,a0,a2
    21ec:	a4c43423          	sd	a2,-1464(s0)
    21f0:	ef843503          	ld	a0,-264(s0)
    21f4:	02a98533          	mul	a0,s3,a0
    21f8:	a5043603          	ld	a2,-1456(s0)
    21fc:	00c50633          	add	a2,a0,a2
    2200:	a4c43823          	sd	a2,-1456(s0)
    2204:	03e98533          	mul	a0,s3,t5
    2208:	a5843603          	ld	a2,-1448(s0)
    220c:	00c50633          	add	a2,a0,a2
    2210:	a4c43c23          	sd	a2,-1448(s0)
    2214:	03c98533          	mul	a0,s3,t3
    2218:	a6043603          	ld	a2,-1440(s0)
    221c:	00c50633          	add	a2,a0,a2
    2220:	a6c43023          	sd	a2,-1440(s0)
    2224:	03d98533          	mul	a0,s3,t4
    2228:	a6843603          	ld	a2,-1432(s0)
    222c:	00c50633          	add	a2,a0,a2
    2230:	a6c43423          	sd	a2,-1432(s0)
    2234:	03698533          	mul	a0,s3,s6
    2238:	a7043603          	ld	a2,-1424(s0)
    223c:	00c50633          	add	a2,a0,a2
    2240:	a6c43823          	sd	a2,-1424(s0)
    2244:	f0043503          	ld	a0,-256(s0)
    2248:	02a98533          	mul	a0,s3,a0
    224c:	a7843603          	ld	a2,-1416(s0)
    2250:	00c50633          	add	a2,a0,a2
    2254:	a6c43c23          	sd	a2,-1416(s0)
    2258:	f0843503          	ld	a0,-248(s0)
    225c:	02a98533          	mul	a0,s3,a0
    2260:	a8043603          	ld	a2,-1408(s0)
    2264:	00c50633          	add	a2,a0,a2
    2268:	a8c43023          	sd	a2,-1408(s0)
    226c:	03498533          	mul	a0,s3,s4
    2270:	a8843603          	ld	a2,-1400(s0)
    2274:	00c50633          	add	a2,a0,a2
    2278:	a8c43423          	sd	a2,-1400(s0)
    227c:	ec843f03          	ld	t5,-312(s0)
    2280:	03e98533          	mul	a0,s3,t5
    2284:	a9043603          	ld	a2,-1392(s0)
    2288:	00c50633          	add	a2,a0,a2
    228c:	a8c43823          	sd	a2,-1392(s0)
    2290:	ed043303          	ld	t1,-304(s0)
    2294:	02698533          	mul	a0,s3,t1
    2298:	a9843603          	ld	a2,-1384(s0)
    229c:	00c50633          	add	a2,a0,a2
    22a0:	a8c43c23          	sd	a2,-1384(s0)
    22a4:	f5843503          	ld	a0,-168(s0)
    22a8:	02a98533          	mul	a0,s3,a0
    22ac:	aa043603          	ld	a2,-1376(s0)
    22b0:	00c50633          	add	a2,a0,a2
    22b4:	aac43023          	sd	a2,-1376(s0)
    22b8:	03298533          	mul	a0,s3,s2
    22bc:	aa843603          	ld	a2,-1368(s0)
    22c0:	00c50633          	add	a2,a0,a2
    22c4:	aac43423          	sd	a2,-1368(s0)
    22c8:	02798533          	mul	a0,s3,t2
    22cc:	ab043603          	ld	a2,-1360(s0)
    22d0:	00c50633          	add	a2,a0,a2
    22d4:	aac43823          	sd	a2,-1360(s0)
    22d8:	02598533          	mul	a0,s3,t0
    22dc:	ab843603          	ld	a2,-1352(s0)
    22e0:	00c50633          	add	a2,a0,a2
    22e4:	aac43c23          	sd	a2,-1352(s0)
    22e8:	02e98533          	mul	a0,s3,a4
    22ec:	00070913          	mv	s2,a4
    22f0:	ac043603          	ld	a2,-1344(s0)
    22f4:	00c50633          	add	a2,a0,a2
    22f8:	acc43023          	sd	a2,-1344(s0)
    22fc:	03f98533          	mul	a0,s3,t6
    2300:	ac843603          	ld	a2,-1336(s0)
    2304:	00c50633          	add	a2,a0,a2
    2308:	acc43423          	sd	a2,-1336(s0)
    230c:	02d98533          	mul	a0,s3,a3
    2310:	ad043603          	ld	a2,-1328(s0)
    2314:	00c50633          	add	a2,a0,a2
    2318:	acc43823          	sd	a2,-1328(s0)
    231c:	03a98533          	mul	a0,s3,s10
    2320:	ad843603          	ld	a2,-1320(s0)
    2324:	00c50633          	add	a2,a0,a2
    2328:	acc43c23          	sd	a2,-1320(s0)
    232c:	03998533          	mul	a0,s3,s9
    2330:	ae043603          	ld	a2,-1312(s0)
    2334:	00c50633          	add	a2,a0,a2
    2338:	aec43023          	sd	a2,-1312(s0)
    233c:	ed843c83          	ld	s9,-296(s0)
    2340:	03998533          	mul	a0,s3,s9
    2344:	ae843603          	ld	a2,-1304(s0)
    2348:	00c50633          	add	a2,a0,a2
    234c:	aec43423          	sd	a2,-1304(s0)
    2350:	02f98533          	mul	a0,s3,a5
    2354:	af043603          	ld	a2,-1296(s0)
    2358:	00c50633          	add	a2,a0,a2
    235c:	aec43823          	sd	a2,-1296(s0)
    2360:	03098533          	mul	a0,s3,a6
    2364:	af843603          	ld	a2,-1288(s0)
    2368:	00c50633          	add	a2,a0,a2
    236c:	aec43c23          	sd	a2,-1288(s0)
    2370:	f8043503          	ld	a0,-128(s0)
    2374:	fd050503          	lb	a0,-48(a0)
    2378:	03b98c33          	mul	s8,s3,s11
    237c:	b0043603          	ld	a2,-1280(s0)
    2380:	00cc0633          	add	a2,s8,a2
    2384:	b0c43023          	sd	a2,-1280(s0)
    2388:	021989b3          	mul	s3,s3,ra
    238c:	b0843603          	ld	a2,-1272(s0)
    2390:	00c98633          	add	a2,s3,a2
    2394:	b0c43423          	sd	a2,-1272(s0)
    2398:	031509b3          	mul	s3,a0,a7
    239c:	b2843603          	ld	a2,-1240(s0)
    23a0:	00c98633          	add	a2,s3,a2
    23a4:	b2c43423          	sd	a2,-1240(s0)
    23a8:	029509b3          	mul	s3,a0,s1
    23ac:	b2043603          	ld	a2,-1248(s0)
    23b0:	00c98633          	add	a2,s3,a2
    23b4:	b2c43023          	sd	a2,-1248(s0)
    23b8:	02b509b3          	mul	s3,a0,a1
    23bc:	b1843603          	ld	a2,-1256(s0)
    23c0:	00c98633          	add	a2,s3,a2
    23c4:	b0c43c23          	sd	a2,-1256(s0)
    23c8:	037509b3          	mul	s3,a0,s7
    23cc:	b1043603          	ld	a2,-1264(s0)
    23d0:	00c98633          	add	a2,s3,a2
    23d4:	b0c43823          	sd	a2,-1264(s0)
    23d8:	f7843683          	ld	a3,-136(s0)
    23dc:	02d509b3          	mul	s3,a0,a3
    23e0:	b3043603          	ld	a2,-1232(s0)
    23e4:	00c98633          	add	a2,s3,a2
    23e8:	b2c43823          	sd	a2,-1232(s0)
    23ec:	f7043783          	ld	a5,-144(s0)
    23f0:	02f509b3          	mul	s3,a0,a5
    23f4:	b3843603          	ld	a2,-1224(s0)
    23f8:	00c98633          	add	a2,s3,a2
    23fc:	b2c43c23          	sd	a2,-1224(s0)
    2400:	035509b3          	mul	s3,a0,s5
    2404:	b4043603          	ld	a2,-1216(s0)
    2408:	00c98633          	add	a2,s3,a2
    240c:	b4c43023          	sd	a2,-1216(s0)
    2410:	f5043583          	ld	a1,-176(s0)
    2414:	02b509b3          	mul	s3,a0,a1
    2418:	b4843603          	ld	a2,-1208(s0)
    241c:	00c98633          	add	a2,s3,a2
    2420:	b4c43423          	sd	a2,-1208(s0)
    2424:	ef843703          	ld	a4,-264(s0)
    2428:	02e509b3          	mul	s3,a0,a4
    242c:	b5043603          	ld	a2,-1200(s0)
    2430:	00c98633          	add	a2,s3,a2
    2434:	b4c43823          	sd	a2,-1200(s0)
    2438:	eb843483          	ld	s1,-328(s0)
    243c:	029509b3          	mul	s3,a0,s1
    2440:	b5843603          	ld	a2,-1192(s0)
    2444:	00c98633          	add	a2,s3,a2
    2448:	b4c43c23          	sd	a2,-1192(s0)
    244c:	03c509b3          	mul	s3,a0,t3
    2450:	b6043603          	ld	a2,-1184(s0)
    2454:	00c98633          	add	a2,s3,a2
    2458:	b6c43023          	sd	a2,-1184(s0)
    245c:	03d509b3          	mul	s3,a0,t4
    2460:	b6843603          	ld	a2,-1176(s0)
    2464:	00c98633          	add	a2,s3,a2
    2468:	b6c43423          	sd	a2,-1176(s0)
    246c:	036509b3          	mul	s3,a0,s6
    2470:	b7043603          	ld	a2,-1168(s0)
    2474:	00c98633          	add	a2,s3,a2
    2478:	b6c43823          	sd	a2,-1168(s0)
    247c:	f0043583          	ld	a1,-256(s0)
    2480:	02b509b3          	mul	s3,a0,a1
    2484:	b7843603          	ld	a2,-1160(s0)
    2488:	00c98633          	add	a2,s3,a2
    248c:	b6c43c23          	sd	a2,-1160(s0)
    2490:	f0843803          	ld	a6,-248(s0)
    2494:	030509b3          	mul	s3,a0,a6
    2498:	b8043603          	ld	a2,-1152(s0)
    249c:	00c98633          	add	a2,s3,a2
    24a0:	b8c43023          	sd	a2,-1152(s0)
    24a4:	034509b3          	mul	s3,a0,s4
    24a8:	b8843603          	ld	a2,-1144(s0)
    24ac:	00c98633          	add	a2,s3,a2
    24b0:	b8c43423          	sd	a2,-1144(s0)
    24b4:	03e509b3          	mul	s3,a0,t5
    24b8:	b9043603          	ld	a2,-1136(s0)
    24bc:	00c98633          	add	a2,s3,a2
    24c0:	b8c43823          	sd	a2,-1136(s0)
    24c4:	026509b3          	mul	s3,a0,t1
    24c8:	b9843603          	ld	a2,-1128(s0)
    24cc:	00c98633          	add	a2,s3,a2
    24d0:	b8c43c23          	sd	a2,-1128(s0)
    24d4:	f5843e03          	ld	t3,-168(s0)
    24d8:	03c509b3          	mul	s3,a0,t3
    24dc:	ba043603          	ld	a2,-1120(s0)
    24e0:	00c98633          	add	a2,s3,a2
    24e4:	bac43023          	sd	a2,-1120(s0)
    24e8:	00001637          	lui	a2,0x1
    24ec:	40c40633          	sub	a2,s0,a2
    24f0:	67863e83          	ld	t4,1656(a2) # 1678 <.LBB13_4+0x4d8>
    24f4:	03d509b3          	mul	s3,a0,t4
    24f8:	ba843603          	ld	a2,-1112(s0)
    24fc:	00c98633          	add	a2,s3,a2
    2500:	bac43423          	sd	a2,-1112(s0)
    2504:	027509b3          	mul	s3,a0,t2
    2508:	bb043603          	ld	a2,-1104(s0)
    250c:	00c98633          	add	a2,s3,a2
    2510:	bac43823          	sd	a2,-1104(s0)
    2514:	025509b3          	mul	s3,a0,t0
    2518:	bb843603          	ld	a2,-1096(s0)
    251c:	00c98633          	add	a2,s3,a2
    2520:	bac43c23          	sd	a2,-1096(s0)
    2524:	032509b3          	mul	s3,a0,s2
    2528:	bc043603          	ld	a2,-1088(s0)
    252c:	00c98633          	add	a2,s3,a2
    2530:	bcc43023          	sd	a2,-1088(s0)
    2534:	03f509b3          	mul	s3,a0,t6
    2538:	bc843603          	ld	a2,-1080(s0)
    253c:	00c98633          	add	a2,s3,a2
    2540:	bcc43423          	sd	a2,-1080(s0)
    2544:	f4843f03          	ld	t5,-184(s0)
    2548:	03e509b3          	mul	s3,a0,t5
    254c:	bd043603          	ld	a2,-1072(s0)
    2550:	00c98633          	add	a2,s3,a2
    2554:	bcc43823          	sd	a2,-1072(s0)
    2558:	03a509b3          	mul	s3,a0,s10
    255c:	bd843603          	ld	a2,-1064(s0)
    2560:	00c98633          	add	a2,s3,a2
    2564:	bcc43c23          	sd	a2,-1064(s0)
    2568:	f6843283          	ld	t0,-152(s0)
    256c:	025509b3          	mul	s3,a0,t0
    2570:	be043603          	ld	a2,-1056(s0)
    2574:	00c98633          	add	a2,s3,a2
    2578:	bec43023          	sd	a2,-1056(s0)
    257c:	039509b3          	mul	s3,a0,s9
    2580:	be843603          	ld	a2,-1048(s0)
    2584:	00c98633          	add	a2,s3,a2
    2588:	bec43423          	sd	a2,-1048(s0)
    258c:	ea843383          	ld	t2,-344(s0)
    2590:	027509b3          	mul	s3,a0,t2
    2594:	bf043603          	ld	a2,-1040(s0)
    2598:	00c98633          	add	a2,s3,a2
    259c:	bec43823          	sd	a2,-1040(s0)
    25a0:	e8043303          	ld	t1,-384(s0)
    25a4:	026509b3          	mul	s3,a0,t1
    25a8:	bf843603          	ld	a2,-1032(s0)
    25ac:	00c98633          	add	a2,s3,a2
    25b0:	bec43c23          	sd	a2,-1032(s0)
    25b4:	f8043603          	ld	a2,-128(s0)
    25b8:	fe060983          	lb	s3,-32(a2)
    25bc:	000d8c93          	mv	s9,s11
    25c0:	03b50c33          	mul	s8,a0,s11
    25c4:	c0043603          	ld	a2,-1024(s0)
    25c8:	00cc0633          	add	a2,s8,a2
    25cc:	c0c43023          	sd	a2,-1024(s0)
    25d0:	02150533          	mul	a0,a0,ra
    25d4:	80043603          	ld	a2,-2048(s0)
    25d8:	00c50633          	add	a2,a0,a2
    25dc:	80c43023          	sd	a2,-2048(s0)
    25e0:	00088b93          	mv	s7,a7
    25e4:	03198533          	mul	a0,s3,a7
    25e8:	c2843603          	ld	a2,-984(s0)
    25ec:	00c50633          	add	a2,a0,a2
    25f0:	c2c43423          	sd	a2,-984(s0)
    25f4:	eb043d03          	ld	s10,-336(s0)
    25f8:	03a98533          	mul	a0,s3,s10
    25fc:	c2043603          	ld	a2,-992(s0)
    2600:	00c50633          	add	a2,a0,a2
    2604:	c2c43023          	sd	a2,-992(s0)
    2608:	f3843d83          	ld	s11,-200(s0)
    260c:	03b98533          	mul	a0,s3,s11
    2610:	c1843603          	ld	a2,-1000(s0)
    2614:	00c50633          	add	a2,a0,a2
    2618:	c0c43c23          	sd	a2,-1000(s0)
    261c:	f3043883          	ld	a7,-208(s0)
    2620:	03198533          	mul	a0,s3,a7
    2624:	c1043603          	ld	a2,-1008(s0)
    2628:	00c50633          	add	a2,a0,a2
    262c:	c0c43823          	sd	a2,-1008(s0)
    2630:	02d98533          	mul	a0,s3,a3
    2634:	c3043603          	ld	a2,-976(s0)
    2638:	00c50633          	add	a2,a0,a2
    263c:	c2c43823          	sd	a2,-976(s0)
    2640:	02f98533          	mul	a0,s3,a5
    2644:	c3843603          	ld	a2,-968(s0)
    2648:	00c50633          	add	a2,a0,a2
    264c:	c2c43c23          	sd	a2,-968(s0)
    2650:	03598533          	mul	a0,s3,s5
    2654:	c4043603          	ld	a2,-960(s0)
    2658:	00c50633          	add	a2,a0,a2
    265c:	c4c43023          	sd	a2,-960(s0)
    2660:	f5043a03          	ld	s4,-176(s0)
    2664:	03498533          	mul	a0,s3,s4
    2668:	c4843603          	ld	a2,-952(s0)
    266c:	00c50633          	add	a2,a0,a2
    2670:	c4c43423          	sd	a2,-952(s0)
    2674:	02e98533          	mul	a0,s3,a4
    2678:	c5043603          	ld	a2,-944(s0)
    267c:	00c50633          	add	a2,a0,a2
    2680:	c4c43823          	sd	a2,-944(s0)
    2684:	02998533          	mul	a0,s3,s1
    2688:	c5843603          	ld	a2,-936(s0)
    268c:	00c50633          	add	a2,a0,a2
    2690:	c4c43c23          	sd	a2,-936(s0)
    2694:	e7843703          	ld	a4,-392(s0)
    2698:	02e98533          	mul	a0,s3,a4
    269c:	c6043603          	ld	a2,-928(s0)
    26a0:	00c50633          	add	a2,a0,a2
    26a4:	c6c43023          	sd	a2,-928(s0)
    26a8:	ec043683          	ld	a3,-320(s0)
    26ac:	02d98533          	mul	a0,s3,a3
    26b0:	c6843603          	ld	a2,-920(s0)
    26b4:	00c50633          	add	a2,a0,a2
    26b8:	c6c43423          	sd	a2,-920(s0)
    26bc:	03698533          	mul	a0,s3,s6
    26c0:	000b0793          	mv	a5,s6
    26c4:	c7043603          	ld	a2,-912(s0)
    26c8:	00c50633          	add	a2,a0,a2
    26cc:	c6c43823          	sd	a2,-912(s0)
    26d0:	02b98533          	mul	a0,s3,a1
    26d4:	c7843603          	ld	a2,-904(s0)
    26d8:	00c50633          	add	a2,a0,a2
    26dc:	c6c43c23          	sd	a2,-904(s0)
    26e0:	03098533          	mul	a0,s3,a6
    26e4:	c8043603          	ld	a2,-896(s0)
    26e8:	00c50633          	add	a2,a0,a2
    26ec:	c8c43023          	sd	a2,-896(s0)
    26f0:	e9843a83          	ld	s5,-360(s0)
    26f4:	03598533          	mul	a0,s3,s5
    26f8:	c8843603          	ld	a2,-888(s0)
    26fc:	00c50633          	add	a2,a0,a2
    2700:	c8c43423          	sd	a2,-888(s0)
    2704:	ec843f83          	ld	t6,-312(s0)
    2708:	03f98533          	mul	a0,s3,t6
    270c:	c9043603          	ld	a2,-880(s0)
    2710:	00c50633          	add	a2,a0,a2
    2714:	c8c43823          	sd	a2,-880(s0)
    2718:	ed043b03          	ld	s6,-304(s0)
    271c:	03698533          	mul	a0,s3,s6
    2720:	c9843603          	ld	a2,-872(s0)
    2724:	00c50633          	add	a2,a0,a2
    2728:	c8c43c23          	sd	a2,-872(s0)
    272c:	03c98533          	mul	a0,s3,t3
    2730:	ca043603          	ld	a2,-864(s0)
    2734:	00c50633          	add	a2,a0,a2
    2738:	cac43023          	sd	a2,-864(s0)
    273c:	03d98533          	mul	a0,s3,t4
    2740:	ca843603          	ld	a2,-856(s0)
    2744:	00c50633          	add	a2,a0,a2
    2748:	cac43423          	sd	a2,-856(s0)
    274c:	f1043583          	ld	a1,-240(s0)
    2750:	02b98533          	mul	a0,s3,a1
    2754:	cb043603          	ld	a2,-848(s0)
    2758:	00c50633          	add	a2,a0,a2
    275c:	cac43823          	sd	a2,-848(s0)
    2760:	ee043e03          	ld	t3,-288(s0)
    2764:	03c98533          	mul	a0,s3,t3
    2768:	cb843603          	ld	a2,-840(s0)
    276c:	00c50633          	add	a2,a0,a2
    2770:	cac43c23          	sd	a2,-840(s0)
    2774:	03298533          	mul	a0,s3,s2
    2778:	cc043603          	ld	a2,-832(s0)
    277c:	00c50633          	add	a2,a0,a2
    2780:	ccc43023          	sd	a2,-832(s0)
    2784:	ea043903          	ld	s2,-352(s0)
    2788:	03298533          	mul	a0,s3,s2
    278c:	cc843603          	ld	a2,-824(s0)
    2790:	00c50633          	add	a2,a0,a2
    2794:	ccc43423          	sd	a2,-824(s0)
    2798:	03e98533          	mul	a0,s3,t5
    279c:	cd043603          	ld	a2,-816(s0)
    27a0:	00c50633          	add	a2,a0,a2
    27a4:	ccc43823          	sd	a2,-816(s0)
    27a8:	e9043483          	ld	s1,-368(s0)
    27ac:	02998533          	mul	a0,s3,s1
    27b0:	cd843603          	ld	a2,-808(s0)
    27b4:	00c50633          	add	a2,a0,a2
    27b8:	ccc43c23          	sd	a2,-808(s0)
    27bc:	02598533          	mul	a0,s3,t0
    27c0:	ce043603          	ld	a2,-800(s0)
    27c4:	00c50633          	add	a2,a0,a2
    27c8:	cec43023          	sd	a2,-800(s0)
    27cc:	ed843503          	ld	a0,-296(s0)
    27d0:	02a98533          	mul	a0,s3,a0
    27d4:	ce843603          	ld	a2,-792(s0)
    27d8:	00c50633          	add	a2,a0,a2
    27dc:	cec43423          	sd	a2,-792(s0)
    27e0:	02798533          	mul	a0,s3,t2
    27e4:	cf043603          	ld	a2,-784(s0)
    27e8:	00c50633          	add	a2,a0,a2
    27ec:	cec43823          	sd	a2,-784(s0)
    27f0:	02698533          	mul	a0,s3,t1
    27f4:	cf843603          	ld	a2,-776(s0)
    27f8:	00c50633          	add	a2,a0,a2
    27fc:	cec43c23          	sd	a2,-776(s0)
    2800:	f8043503          	ld	a0,-128(s0)
    2804:	ff050503          	lb	a0,-16(a0)
    2808:	03998c33          	mul	s8,s3,s9
    280c:	d0043603          	ld	a2,-768(s0)
    2810:	00cc0633          	add	a2,s8,a2
    2814:	d0c43023          	sd	a2,-768(s0)
    2818:	021989b3          	mul	s3,s3,ra
    281c:	d0843603          	ld	a2,-760(s0)
    2820:	00c98633          	add	a2,s3,a2
    2824:	d0c43423          	sd	a2,-760(s0)
    2828:	037509b3          	mul	s3,a0,s7
    282c:	d2843603          	ld	a2,-728(s0)
    2830:	00c98633          	add	a2,s3,a2
    2834:	d2c43423          	sd	a2,-728(s0)
    2838:	03a509b3          	mul	s3,a0,s10
    283c:	d2043603          	ld	a2,-736(s0)
    2840:	00c98633          	add	a2,s3,a2
    2844:	d2c43023          	sd	a2,-736(s0)
    2848:	03b509b3          	mul	s3,a0,s11
    284c:	d1843603          	ld	a2,-744(s0)
    2850:	00c98633          	add	a2,s3,a2
    2854:	d0c43c23          	sd	a2,-744(s0)
    2858:	031509b3          	mul	s3,a0,a7
    285c:	d1043603          	ld	a2,-752(s0)
    2860:	00c98633          	add	a2,s3,a2
    2864:	d0c43823          	sd	a2,-752(s0)
    2868:	f7843603          	ld	a2,-136(s0)
    286c:	02c509b3          	mul	s3,a0,a2
    2870:	d3043603          	ld	a2,-720(s0)
    2874:	00c98633          	add	a2,s3,a2
    2878:	d2c43823          	sd	a2,-720(s0)
    287c:	f7043603          	ld	a2,-144(s0)
    2880:	02c509b3          	mul	s3,a0,a2
    2884:	d3843603          	ld	a2,-712(s0)
    2888:	00c98633          	add	a2,s3,a2
    288c:	d2c43c23          	sd	a2,-712(s0)
    2890:	f4043603          	ld	a2,-192(s0)
    2894:	02c509b3          	mul	s3,a0,a2
    2898:	d4043603          	ld	a2,-704(s0)
    289c:	00c98633          	add	a2,s3,a2
    28a0:	d4c43023          	sd	a2,-704(s0)
    28a4:	034509b3          	mul	s3,a0,s4
    28a8:	d4843603          	ld	a2,-696(s0)
    28ac:	00c98633          	add	a2,s3,a2
    28b0:	d4c43423          	sd	a2,-696(s0)
    28b4:	ef843083          	ld	ra,-264(s0)
    28b8:	021509b3          	mul	s3,a0,ra
    28bc:	d5043603          	ld	a2,-688(s0)
    28c0:	00c98633          	add	a2,s3,a2
    28c4:	d4c43823          	sd	a2,-688(s0)
    28c8:	eb843c83          	ld	s9,-328(s0)
    28cc:	039509b3          	mul	s3,a0,s9
    28d0:	d5843603          	ld	a2,-680(s0)
    28d4:	00c98633          	add	a2,s3,a2
    28d8:	d4c43c23          	sd	a2,-680(s0)
    28dc:	00070b93          	mv	s7,a4
    28e0:	02e509b3          	mul	s3,a0,a4
    28e4:	d6043603          	ld	a2,-672(s0)
    28e8:	00c98633          	add	a2,s3,a2
    28ec:	d6c43023          	sd	a2,-672(s0)
    28f0:	02d509b3          	mul	s3,a0,a3
    28f4:	d6843603          	ld	a2,-664(s0)
    28f8:	00c98633          	add	a2,s3,a2
    28fc:	d6c43423          	sd	a2,-664(s0)
    2900:	00078393          	mv	t2,a5
    2904:	02f509b3          	mul	s3,a0,a5
    2908:	d7043603          	ld	a2,-656(s0)
    290c:	00c98633          	add	a2,s3,a2
    2910:	d6c43823          	sd	a2,-656(s0)
    2914:	f0043803          	ld	a6,-256(s0)
    2918:	030509b3          	mul	s3,a0,a6
    291c:	d7843603          	ld	a2,-648(s0)
    2920:	00c98633          	add	a2,s3,a2
    2924:	d6c43c23          	sd	a2,-648(s0)
    2928:	f0843783          	ld	a5,-248(s0)
    292c:	02f509b3          	mul	s3,a0,a5
    2930:	d8043603          	ld	a2,-640(s0)
    2934:	00c98633          	add	a2,s3,a2
    2938:	d8c43023          	sd	a2,-640(s0)
    293c:	000a8713          	mv	a4,s5
    2940:	035509b3          	mul	s3,a0,s5
    2944:	d8843603          	ld	a2,-632(s0)
    2948:	00c98633          	add	a2,s3,a2
    294c:	d8c43423          	sd	a2,-632(s0)
    2950:	03f509b3          	mul	s3,a0,t6
    2954:	000f8f13          	mv	t5,t6
    2958:	d9043603          	ld	a2,-624(s0)
    295c:	00c98633          	add	a2,s3,a2
    2960:	d8c43823          	sd	a2,-624(s0)
    2964:	000b0693          	mv	a3,s6
    2968:	036509b3          	mul	s3,a0,s6
    296c:	d9843603          	ld	a2,-616(s0)
    2970:	00c98633          	add	a2,s3,a2
    2974:	d8c43c23          	sd	a2,-616(s0)
    2978:	f5843b03          	ld	s6,-168(s0)
    297c:	036509b3          	mul	s3,a0,s6
    2980:	da043603          	ld	a2,-608(s0)
    2984:	00c98633          	add	a2,s3,a2
    2988:	dac43023          	sd	a2,-608(s0)
    298c:	03d509b3          	mul	s3,a0,t4
    2990:	da843603          	ld	a2,-600(s0)
    2994:	00c98633          	add	a2,s3,a2
    2998:	dac43423          	sd	a2,-600(s0)
    299c:	02b509b3          	mul	s3,a0,a1
    29a0:	00058a93          	mv	s5,a1
    29a4:	db043603          	ld	a2,-592(s0)
    29a8:	00c98633          	add	a2,s3,a2
    29ac:	dac43823          	sd	a2,-592(s0)
    29b0:	03c509b3          	mul	s3,a0,t3
    29b4:	db843603          	ld	a2,-584(s0)
    29b8:	00c98633          	add	a2,s3,a2
    29bc:	dac43c23          	sd	a2,-584(s0)
    29c0:	f6043883          	ld	a7,-160(s0)
    29c4:	031509b3          	mul	s3,a0,a7
    29c8:	dc043603          	ld	a2,-576(s0)
    29cc:	00c98633          	add	a2,s3,a2
    29d0:	dcc43023          	sd	a2,-576(s0)
    29d4:	00090293          	mv	t0,s2
    29d8:	032509b3          	mul	s3,a0,s2
    29dc:	dc843603          	ld	a2,-568(s0)
    29e0:	00c98633          	add	a2,s3,a2
    29e4:	dcc43423          	sd	a2,-568(s0)
    29e8:	f4843f83          	ld	t6,-184(s0)
    29ec:	03f509b3          	mul	s3,a0,t6
    29f0:	dd043603          	ld	a2,-560(s0)
    29f4:	00c98633          	add	a2,s3,a2
    29f8:	dcc43823          	sd	a2,-560(s0)
    29fc:	029509b3          	mul	s3,a0,s1
    2a00:	dd843603          	ld	a2,-552(s0)
    2a04:	00c98633          	add	a2,s3,a2
    2a08:	dcc43c23          	sd	a2,-552(s0)
    2a0c:	f6843a03          	ld	s4,-152(s0)
    2a10:	034509b3          	mul	s3,a0,s4
    2a14:	de043603          	ld	a2,-544(s0)
    2a18:	00c98633          	add	a2,s3,a2
    2a1c:	dec43023          	sd	a2,-544(s0)
    2a20:	ed843d03          	ld	s10,-296(s0)
    2a24:	03a509b3          	mul	s3,a0,s10
    2a28:	de843603          	ld	a2,-536(s0)
    2a2c:	00c98633          	add	a2,s3,a2
    2a30:	dec43423          	sd	a2,-536(s0)
    2a34:	ea843583          	ld	a1,-344(s0)
    2a38:	02b509b3          	mul	s3,a0,a1
    2a3c:	df043603          	ld	a2,-528(s0)
    2a40:	00c98633          	add	a2,s3,a2
    2a44:	dec43823          	sd	a2,-528(s0)
    2a48:	026509b3          	mul	s3,a0,t1
    2a4c:	df843603          	ld	a2,-520(s0)
    2a50:	00c98633          	add	a2,s3,a2
    2a54:	dec43c23          	sd	a2,-520(s0)
    2a58:	f8043603          	ld	a2,-128(s0)
    2a5c:	00060983          	lb	s3,0(a2)
    2a60:	ee843d83          	ld	s11,-280(s0)
    2a64:	03b50c33          	mul	s8,a0,s11
    2a68:	e0043603          	ld	a2,-512(s0)
    2a6c:	00cc0633          	add	a2,s8,a2
    2a70:	e0c43023          	sd	a2,-512(s0)
    2a74:	ef043c03          	ld	s8,-272(s0)
    2a78:	03850533          	mul	a0,a0,s8
    2a7c:	e0843603          	ld	a2,-504(s0)
    2a80:	00c50633          	add	a2,a0,a2
    2a84:	e0c43423          	sd	a2,-504(s0)
    2a88:	03898533          	mul	a0,s3,s8
    2a8c:	eea43823          	sd	a0,-272(s0)
    2a90:	03b98533          	mul	a0,s3,s11
    2a94:	eea43423          	sd	a0,-280(s0)
    2a98:	02698533          	mul	a0,s3,t1
    2a9c:	e8a43023          	sd	a0,-384(s0)
    2aa0:	02b98533          	mul	a0,s3,a1
    2aa4:	eaa43423          	sd	a0,-344(s0)
    2aa8:	03a98533          	mul	a0,s3,s10
    2aac:	eca43c23          	sd	a0,-296(s0)
    2ab0:	03498533          	mul	a0,s3,s4
    2ab4:	f6a43423          	sd	a0,-152(s0)
    2ab8:	02998533          	mul	a0,s3,s1
    2abc:	e8a43823          	sd	a0,-368(s0)
    2ac0:	03f98533          	mul	a0,s3,t6
    2ac4:	f4a43423          	sd	a0,-184(s0)
    2ac8:	032984b3          	mul	s1,s3,s2
    2acc:	03198fb3          	mul	t6,s3,a7
    2ad0:	03c982b3          	mul	t0,s3,t3
    2ad4:	035988b3          	mul	a7,s3,s5
    2ad8:	03d98333          	mul	t1,s3,t4
    2adc:	03698e33          	mul	t3,s3,s6
    2ae0:	02d98eb3          	mul	t4,s3,a3
    2ae4:	03e98f33          	mul	t5,s3,t5
    2ae8:	02e98933          	mul	s2,s3,a4
    2aec:	02f98a33          	mul	s4,s3,a5
    2af0:	03098ab3          	mul	s5,s3,a6
    2af4:	02798c33          	mul	s8,s3,t2
    2af8:	ec043503          	ld	a0,-320(s0)
    2afc:	02a98d33          	mul	s10,s3,a0
    2b00:	03798b33          	mul	s6,s3,s7
    2b04:	03998bb3          	mul	s7,s3,s9
    2b08:	02198db3          	mul	s11,s3,ra
    2b0c:	f5043503          	ld	a0,-176(s0)
    2b10:	02a980b3          	mul	ra,s3,a0
    2b14:	f4043503          	ld	a0,-192(s0)
    2b18:	02a98733          	mul	a4,s3,a0
    2b1c:	f7043503          	ld	a0,-144(s0)
    2b20:	02a98cb3          	mul	s9,s3,a0
    2b24:	f7843503          	ld	a0,-136(s0)
    2b28:	02a986b3          	mul	a3,s3,a0
    2b2c:	f3043503          	ld	a0,-208(s0)
    2b30:	02a98633          	mul	a2,s3,a0
    2b34:	f3843503          	ld	a0,-200(s0)
    2b38:	02a985b3          	mul	a1,s3,a0
    2b3c:	eb043503          	ld	a0,-336(s0)
    2b40:	02a98533          	mul	a0,s3,a0
    2b44:	e8843783          	ld	a5,-376(s0)
    2b48:	02f989b3          	mul	s3,s3,a5
    2b4c:	e2843783          	ld	a5,-472(s0)
    2b50:	00f987b3          	add	a5,s3,a5
    2b54:	e2f43423          	sd	a5,-472(s0)
    2b58:	e2043783          	ld	a5,-480(s0)
    2b5c:	00f507b3          	add	a5,a0,a5
    2b60:	e2f43023          	sd	a5,-480(s0)
    2b64:	e1843503          	ld	a0,-488(s0)
    2b68:	00a58533          	add	a0,a1,a0
    2b6c:	e0a43c23          	sd	a0,-488(s0)
    2b70:	e1043503          	ld	a0,-496(s0)
    2b74:	00a60533          	add	a0,a2,a0
    2b78:	e0a43823          	sd	a0,-496(s0)
    2b7c:	e3043503          	ld	a0,-464(s0)
    2b80:	00a68533          	add	a0,a3,a0
    2b84:	e2a43823          	sd	a0,-464(s0)
    2b88:	e3843503          	ld	a0,-456(s0)
    2b8c:	00ac8533          	add	a0,s9,a0
    2b90:	e2a43c23          	sd	a0,-456(s0)
    2b94:	00001537          	lui	a0,0x1
    2b98:	40a40533          	sub	a0,s0,a0
    2b9c:	6a053c83          	ld	s9,1696(a0) # 16a0 <.LBB13_4+0x500>
    2ba0:	e4043503          	ld	a0,-448(s0)
    2ba4:	00a70533          	add	a0,a4,a0
    2ba8:	e4a43023          	sd	a0,-448(s0)
    2bac:	84043503          	ld	a0,-1984(s0)
    2bb0:	00a08533          	add	a0,ra,a0
    2bb4:	84a43023          	sd	a0,-1984(s0)
    2bb8:	00001537          	lui	a0,0x1
    2bbc:	40a40533          	sub	a0,s0,a0
    2bc0:	69053083          	ld	ra,1680(a0) # 1690 <.LBB13_4+0x4f0>
    2bc4:	c0843503          	ld	a0,-1016(s0)
    2bc8:	00ad8533          	add	a0,s11,a0
    2bcc:	c0a43423          	sd	a0,-1016(s0)
    2bd0:	00001537          	lui	a0,0x1
    2bd4:	40a40533          	sub	a0,s0,a0
    2bd8:	69853d83          	ld	s11,1688(a0) # 1698 <.LBB13_4+0x4f8>
    2bdc:	f2043503          	ld	a0,-224(s0)
    2be0:	00ab8533          	add	a0,s7,a0
    2be4:	f2a43023          	sd	a0,-224(s0)
    2be8:	f2043603          	ld	a2,-224(s0)
    2bec:	e4843503          	ld	a0,-440(s0)
    2bf0:	00ab0533          	add	a0,s6,a0
    2bf4:	e4a43423          	sd	a0,-440(s0)
    2bf8:	00001537          	lui	a0,0x1
    2bfc:	40a40533          	sub	a0,s0,a0
    2c00:	6a853b03          	ld	s6,1704(a0) # 16a8 <.LBB13_4+0x508>
    2c04:	e5043503          	ld	a0,-432(s0)
    2c08:	00ad0533          	add	a0,s10,a0
    2c0c:	e4a43823          	sd	a0,-432(s0)
    2c10:	f2843503          	ld	a0,-216(s0)
    2c14:	00ac0533          	add	a0,s8,a0
    2c18:	000015b7          	lui	a1,0x1
    2c1c:	40b405b3          	sub	a1,s0,a1
    2c20:	7185bb83          	ld	s7,1816(a1) # 1718 <.LBB13_5+0x6c>
    2c24:	f2a43423          	sd	a0,-216(s0)
    2c28:	f2843583          	ld	a1,-216(s0)
    2c2c:	e6843503          	ld	a0,-408(s0)
    2c30:	00aa8533          	add	a0,s5,a0
    2c34:	e6a43423          	sd	a0,-408(s0)
    2c38:	00001537          	lui	a0,0x1
    2c3c:	40a40533          	sub	a0,s0,a0
    2c40:	6b053a83          	ld	s5,1712(a0) # 16b0 <.LBB13_5+0x4>
    2c44:	e5843503          	ld	a0,-424(s0)
    2c48:	00aa0533          	add	a0,s4,a0
    2c4c:	e4a43c23          	sd	a0,-424(s0)
    2c50:	00001537          	lui	a0,0x1
    2c54:	40a40533          	sub	a0,s0,a0
    2c58:	6b853a03          	ld	s4,1720(a0) # 16b8 <.LBB13_5+0xc>
    2c5c:	e6043503          	ld	a0,-416(s0)
    2c60:	00a90533          	add	a0,s2,a0
    2c64:	e6a43023          	sd	a0,-416(s0)
    2c68:	00001537          	lui	a0,0x1
    2c6c:	40a40533          	sub	a0,s0,a0
    2c70:	6c053903          	ld	s2,1728(a0) # 16c0 <.LBB13_5+0x14>
    2c74:	001f00b3          	add	ra,t5,ra
    2c78:	00001537          	lui	a0,0x1
    2c7c:	40a40533          	sub	a0,s0,a0
    2c80:	6c853f03          	ld	t5,1736(a0) # 16c8 <.LBB13_5+0x1c>
    2c84:	01be8db3          	add	s11,t4,s11
    2c88:	00001537          	lui	a0,0x1
    2c8c:	40a40533          	sub	a0,s0,a0
    2c90:	6d053e83          	ld	t4,1744(a0) # 16d0 <.LBB13_5+0x24>
    2c94:	019e0cb3          	add	s9,t3,s9
    2c98:	00001537          	lui	a0,0x1
    2c9c:	40a40533          	sub	a0,s0,a0
    2ca0:	6d853e03          	ld	t3,1752(a0) # 16d8 <.LBB13_5+0x2c>
    2ca4:	01630b33          	add	s6,t1,s6
    2ca8:	00001537          	lui	a0,0x1
    2cac:	40a40533          	sub	a0,s0,a0
    2cb0:	6e853983          	ld	s3,1768(a0) # 16e8 <.LBB13_5+0x3c>
    2cb4:	01588ab3          	add	s5,a7,s5
    2cb8:	00001537          	lui	a0,0x1
    2cbc:	40a40533          	sub	a0,s0,a0
    2cc0:	6e053383          	ld	t2,1760(a0) # 16e0 <.LBB13_5+0x34>
    2cc4:	01428a33          	add	s4,t0,s4
    2cc8:	00001537          	lui	a0,0x1
    2ccc:	40a40533          	sub	a0,s0,a0
    2cd0:	6f053283          	ld	t0,1776(a0) # 16f0 <.LBB13_5+0x44>
    2cd4:	e7043503          	ld	a0,-400(s0)
    2cd8:	00af8533          	add	a0,t6,a0
    2cdc:	e6a43823          	sd	a0,-400(s0)
    2ce0:	00001537          	lui	a0,0x1
    2ce4:	40a40533          	sub	a0,s0,a0
    2ce8:	6f853883          	ld	a7,1784(a0) # 16f8 <.LBB13_5+0x4c>
    2cec:	01248933          	add	s2,s1,s2
    2cf0:	f1843503          	ld	a0,-232(s0)
    2cf4:	f4843683          	ld	a3,-184(s0)
    2cf8:	00a68533          	add	a0,a3,a0
    2cfc:	f8843483          	ld	s1,-120(s0)
    2d00:	f0a43c23          	sd	a0,-232(s0)
    2d04:	00001537          	lui	a0,0x1
    2d08:	40a40533          	sub	a0,s0,a0
    2d0c:	68853503          	ld	a0,1672(a0) # 1688 <.LBB13_4+0x4e8>
    2d10:	f1843f83          	ld	t6,-232(s0)
    2d14:	e9043683          	ld	a3,-368(s0)
    2d18:	01e68f33          	add	t5,a3,t5
    2d1c:	000016b7          	lui	a3,0x1
    2d20:	40d406b3          	sub	a3,s0,a3
    2d24:	7006b683          	ld	a3,1792(a3) # 1700 <.LBB13_5+0x54>
    2d28:	00001737          	lui	a4,0x1
    2d2c:	40e40733          	sub	a4,s0,a4
    2d30:	70873703          	ld	a4,1800(a4) # 1708 <.LBB13_5+0x5c>
    2d34:	000017b7          	lui	a5,0x1
    2d38:	40f407b3          	sub	a5,s0,a5
    2d3c:	7107b303          	ld	t1,1808(a5) # 1710 <.LBB13_5+0x64>
    2d40:	f6843783          	ld	a5,-152(s0)
    2d44:	01d78eb3          	add	t4,a5,t4
    2d48:	f8043783          	ld	a5,-128(s0)
    2d4c:	ed843803          	ld	a6,-296(s0)
    2d50:	01c80e33          	add	t3,a6,t3
    2d54:	ea843803          	ld	a6,-344(s0)
    2d58:	007803b3          	add	t2,a6,t2
    2d5c:	e8043803          	ld	a6,-384(s0)
    2d60:	013809b3          	add	s3,a6,s3
    2d64:	ee843803          	ld	a6,-280(s0)
    2d68:	005802b3          	add	t0,a6,t0
    2d6c:	ef043803          	ld	a6,-272(s0)
    2d70:	011808b3          	add	a7,a6,a7
    2d74:	fa050513          	addi	a0,a0,-96
    2d78:	06048493          	addi	s1,s1,96
    2d7c:	00178793          	addi	a5,a5,1
    2d80:	00050463          	beqz	a0,2d88 <.LBB13_6>
    2d84:	929fe06f          	j	16ac <.LBB13_5>

0000000000002d88 <.LBB13_6>:
    2d88:	00001537          	lui	a0,0x1
    2d8c:	40a40533          	sub	a0,s0,a0
    2d90:	73053483          	ld	s1,1840(a0) # 1730 <.LBB13_5+0x84>
    2d94:	00001537          	lui	a0,0x1
    2d98:	40a40533          	sub	a0,s0,a0
    2d9c:	73853c03          	ld	s8,1848(a0) # 1738 <.LBB13_5+0x8c>
    2da0:	00001537          	lui	a0,0x1
    2da4:	40a40533          	sub	a0,s0,a0
    2da8:	74053b83          	ld	s7,1856(a0) # 1740 <.LBB13_5+0x94>
    2dac:	00001537          	lui	a0,0x1
    2db0:	40a40533          	sub	a0,s0,a0
    2db4:	72853d03          	ld	s10,1832(a0) # 1728 <.LBB13_5+0x7c>
    2db8:	00001537          	lui	a0,0x1
    2dbc:	40a40533          	sub	a0,s0,a0
    2dc0:	72053803          	ld	a6,1824(a0) # 1720 <.LBB13_5+0x74>
    2dc4:	00001537          	lui	a0,0x1
    2dc8:	40a40533          	sub	a0,s0,a0
    2dcc:	63853503          	ld	a0,1592(a0) # 1638 <.LBB13_4+0x498>
    2dd0:	00251513          	slli	a0,a0,0x2
    2dd4:	000015b7          	lui	a1,0x1
    2dd8:	40b405b3          	sub	a1,s0,a1
    2ddc:	cd05b583          	ld	a1,-816(a1) # cd0 <.LBB13_3+0xab8>
    2de0:	00a585b3          	add	a1,a1,a0
    2de4:	00c5a683          	lw	a3,12(a1)
    2de8:	00001637          	lui	a2,0x1
    2dec:	40c40633          	sub	a2,s0,a2
    2df0:	63063603          	ld	a2,1584(a2) # 1630 <.LBB13_4+0x490>
    2df4:	00062703          	lw	a4,0(a2)
    2df8:	00001637          	lui	a2,0x1
    2dfc:	40c40633          	sub	a2,s0,a2
    2e00:	cc863603          	ld	a2,-824(a2) # cc8 <.LBB13_3+0xab0>
    2e04:	00a60533          	add	a0,a2,a0
    2e08:	00c52783          	lw	a5,12(a0)
    2e0c:	00001637          	lui	a2,0x1
    2e10:	40c40633          	sub	a2,s0,a2
    2e14:	6ed63023          	sd	a3,1760(a2) # 16e0 <.LBB13_5+0x34>
    2e18:	00001637          	lui	a2,0x1
    2e1c:	40c40633          	sub	a2,s0,a2
    2e20:	74863603          	ld	a2,1864(a2) # 1748 <.LBB13_5+0x9c>
    2e24:	00d60633          	add	a2,a2,a3
    2e28:	000016b7          	lui	a3,0x1
    2e2c:	40d406b3          	sub	a3,s0,a3
    2e30:	6cf6bc23          	sd	a5,1752(a3) # 16d8 <.LBB13_5+0x2c>
    2e34:	40f706bb          	subw	a3,a4,a5
    2e38:	00d60633          	add	a2,a2,a3
    2e3c:	ff06061b          	addiw	a2,a2,-16
    2e40:	400006b7          	lui	a3,0x40000
    2e44:	000017b7          	lui	a5,0x1
    2e48:	40f407b3          	sub	a5,s0,a5
    2e4c:	e4c7b423          	sd	a2,-440(a5) # e48 <.LBB13_3+0xc30>
    2e50:	00065463          	bgez	a2,2e58 <.LBB13_8>
    2e54:	c00006b7          	lui	a3,0xc0000

0000000000002e58 <.LBB13_8>:
    2e58:	00001637          	lui	a2,0x1
    2e5c:	40c40633          	sub	a2,s0,a2
    2e60:	e2d63423          	sd	a3,-472(a2) # e28 <.LBB13_3+0xc10>
    2e64:	0085a603          	lw	a2,8(a1)
    2e68:	00852683          	lw	a3,8(a0)
    2e6c:	000017b7          	lui	a5,0x1
    2e70:	40f407b3          	sub	a5,s0,a5
    2e74:	6cc7b823          	sd	a2,1744(a5) # 16d0 <.LBB13_5+0x24>
    2e78:	00c48633          	add	a2,s1,a2
    2e7c:	000017b7          	lui	a5,0x1
    2e80:	40f407b3          	sub	a5,s0,a5
    2e84:	6cd7b423          	sd	a3,1736(a5) # 16c8 <.LBB13_5+0x1c>
    2e88:	40d706bb          	subw	a3,a4,a3
    2e8c:	00d60633          	add	a2,a2,a3
    2e90:	ff06061b          	addiw	a2,a2,-16
    2e94:	400006b7          	lui	a3,0x40000
    2e98:	000017b7          	lui	a5,0x1
    2e9c:	40f407b3          	sub	a5,s0,a5
    2ea0:	e6c7b023          	sd	a2,-416(a5) # e60 <.LBB13_3+0xc48>
    2ea4:	00065463          	bgez	a2,2eac <.LBB13_10>
    2ea8:	c00006b7          	lui	a3,0xc0000

0000000000002eac <.LBB13_10>:
    2eac:	00001637          	lui	a2,0x1
    2eb0:	40c40633          	sub	a2,s0,a2
    2eb4:	e4d63023          	sd	a3,-448(a2) # e40 <.LBB13_3+0xc28>
    2eb8:	0045a603          	lw	a2,4(a1)
    2ebc:	00452683          	lw	a3,4(a0)
    2ec0:	000017b7          	lui	a5,0x1
    2ec4:	40f407b3          	sub	a5,s0,a5
    2ec8:	6cc7b023          	sd	a2,1728(a5) # 16c0 <.LBB13_5+0x14>
    2ecc:	00cc0633          	add	a2,s8,a2
    2ed0:	000017b7          	lui	a5,0x1
    2ed4:	40f407b3          	sub	a5,s0,a5
    2ed8:	6ad7bc23          	sd	a3,1720(a5) # 16b8 <.LBB13_5+0xc>
    2edc:	40d706bb          	subw	a3,a4,a3
    2ee0:	00d60633          	add	a2,a2,a3
    2ee4:	ff06061b          	addiw	a2,a2,-16
    2ee8:	400006b7          	lui	a3,0x40000
    2eec:	000017b7          	lui	a5,0x1
    2ef0:	40f407b3          	sub	a5,s0,a5
    2ef4:	e6c7bc23          	sd	a2,-392(a5) # e78 <.LBB13_3+0xc60>
    2ef8:	00065463          	bgez	a2,2f00 <.LBB13_12>
    2efc:	c00006b7          	lui	a3,0xc0000

0000000000002f00 <.LBB13_12>:
    2f00:	00001637          	lui	a2,0x1
    2f04:	40c40633          	sub	a2,s0,a2
    2f08:	e4d63c23          	sd	a3,-424(a2) # e58 <.LBB13_3+0xc40>
    2f0c:	0005a783          	lw	a5,0(a1)
    2f10:	00052683          	lw	a3,0(a0)
    2f14:	00fb8633          	add	a2,s7,a5
    2f18:	00001337          	lui	t1,0x1
    2f1c:	40640333          	sub	t1,s0,t1
    2f20:	6ad33823          	sd	a3,1712(t1) # 16b0 <.LBB13_5+0x4>
    2f24:	40d706bb          	subw	a3,a4,a3
    2f28:	00d60633          	add	a2,a2,a3
    2f2c:	ff06061b          	addiw	a2,a2,-16
    2f30:	400006b7          	lui	a3,0x40000
    2f34:	00001337          	lui	t1,0x1
    2f38:	40640333          	sub	t1,s0,t1
    2f3c:	cc033c03          	ld	s8,-832(t1) # cc0 <.LBB13_3+0xaa8>
    2f40:	00001337          	lui	t1,0x1
    2f44:	40640333          	sub	t1,s0,t1
    2f48:	62833b83          	ld	s7,1576(t1) # 1628 <.LBB13_4+0x488>
    2f4c:	00001337          	lui	t1,0x1
    2f50:	40640333          	sub	t1,s0,t1
    2f54:	e8c33423          	sd	a2,-376(t1) # e88 <.LBB13_3+0xc70>
    2f58:	00065463          	bgez	a2,2f60 <.LBB13_14>
    2f5c:	c00006b7          	lui	a3,0xc0000

0000000000002f60 <.LBB13_14>:
    2f60:	00001637          	lui	a2,0x1
    2f64:	40c40633          	sub	a2,s0,a2
    2f68:	e6d63423          	sd	a3,-408(a2) # e68 <.LBB13_3+0xc50>
    2f6c:	0105a603          	lw	a2,16(a1)
    2f70:	01052683          	lw	a3,16(a0)
    2f74:	00001337          	lui	t1,0x1
    2f78:	40640333          	sub	t1,s0,t1
    2f7c:	6ac33423          	sd	a2,1704(t1) # 16a8 <.LBB13_4+0x508>
    2f80:	00cd0633          	add	a2,s10,a2
    2f84:	00001337          	lui	t1,0x1
    2f88:	40640333          	sub	t1,s0,t1
    2f8c:	6ad33023          	sd	a3,1696(t1) # 16a0 <.LBB13_4+0x500>
    2f90:	40d706bb          	subw	a3,a4,a3
    2f94:	00d60633          	add	a2,a2,a3
    2f98:	ff06061b          	addiw	a2,a2,-16
    2f9c:	400006b7          	lui	a3,0x40000
    2fa0:	00001337          	lui	t1,0x1
    2fa4:	40640333          	sub	t1,s0,t1
    2fa8:	eac33023          	sd	a2,-352(t1) # ea0 <.LBB13_3+0xc88>
    2fac:	00065463          	bgez	a2,2fb4 <.LBB13_16>
    2fb0:	c00006b7          	lui	a3,0xc0000

0000000000002fb4 <.LBB13_16>:
    2fb4:	00001637          	lui	a2,0x1
    2fb8:	40c40633          	sub	a2,s0,a2
    2fbc:	e8d63023          	sd	a3,-384(a2) # e80 <.LBB13_3+0xc68>
    2fc0:	0145a603          	lw	a2,20(a1)
    2fc4:	01452683          	lw	a3,20(a0)
    2fc8:	00001337          	lui	t1,0x1
    2fcc:	40640333          	sub	t1,s0,t1
    2fd0:	68c33c23          	sd	a2,1688(t1) # 1698 <.LBB13_4+0x4f8>
    2fd4:	00001337          	lui	t1,0x1
    2fd8:	40640333          	sub	t1,s0,t1
    2fdc:	75033483          	ld	s1,1872(t1) # 1750 <.LBB13_5+0xa4>
    2fe0:	00c48633          	add	a2,s1,a2
    2fe4:	00001337          	lui	t1,0x1
    2fe8:	40640333          	sub	t1,s0,t1
    2fec:	68d33823          	sd	a3,1680(t1) # 1690 <.LBB13_4+0x4f0>
    2ff0:	40d706bb          	subw	a3,a4,a3
    2ff4:	00d60633          	add	a2,a2,a3
    2ff8:	ff06061b          	addiw	a2,a2,-16
    2ffc:	400006b7          	lui	a3,0x40000
    3000:	00001337          	lui	t1,0x1
    3004:	40640333          	sub	t1,s0,t1
    3008:	eac33c23          	sd	a2,-328(t1) # eb8 <.LBB13_3+0xca0>
    300c:	00065463          	bgez	a2,3014 <.LBB13_18>
    3010:	c00006b7          	lui	a3,0xc0000

0000000000003014 <.LBB13_18>:
    3014:	00001637          	lui	a2,0x1
    3018:	40c40633          	sub	a2,s0,a2
    301c:	e8d63c23          	sd	a3,-360(a2) # e98 <.LBB13_3+0xc80>
    3020:	0185a603          	lw	a2,24(a1)
    3024:	01852683          	lw	a3,24(a0)
    3028:	00001337          	lui	t1,0x1
    302c:	40640333          	sub	t1,s0,t1
    3030:	68c33423          	sd	a2,1672(t1) # 1688 <.LBB13_4+0x4e8>
    3034:	00001337          	lui	t1,0x1
    3038:	40640333          	sub	t1,s0,t1
    303c:	75833483          	ld	s1,1880(t1) # 1758 <.LBB13_5+0xac>
    3040:	00c48633          	add	a2,s1,a2
    3044:	00001337          	lui	t1,0x1
    3048:	40640333          	sub	t1,s0,t1
    304c:	68d33023          	sd	a3,1664(t1) # 1680 <.LBB13_4+0x4e0>
    3050:	40d706bb          	subw	a3,a4,a3
    3054:	00d60633          	add	a2,a2,a3
    3058:	ff06061b          	addiw	a2,a2,-16
    305c:	400006b7          	lui	a3,0x40000
    3060:	00001337          	lui	t1,0x1
    3064:	40640333          	sub	t1,s0,t1
    3068:	ecc33423          	sd	a2,-312(t1) # ec8 <.LBB13_3+0xcb0>
    306c:	00065463          	bgez	a2,3074 <.LBB13_20>
    3070:	c00006b7          	lui	a3,0xc0000

0000000000003074 <.LBB13_20>:
    3074:	00001637          	lui	a2,0x1
    3078:	40c40633          	sub	a2,s0,a2
    307c:	ead63423          	sd	a3,-344(a2) # ea8 <.LBB13_3+0xc90>
    3080:	01c5a603          	lw	a2,28(a1)
    3084:	01c52683          	lw	a3,28(a0)
    3088:	00001337          	lui	t1,0x1
    308c:	40640333          	sub	t1,s0,t1
    3090:	66c33c23          	sd	a2,1656(t1) # 1678 <.LBB13_4+0x4d8>
    3094:	00001337          	lui	t1,0x1
    3098:	40640333          	sub	t1,s0,t1
    309c:	76033483          	ld	s1,1888(t1) # 1760 <.LBB13_5+0xb4>
    30a0:	00c48633          	add	a2,s1,a2
    30a4:	00001337          	lui	t1,0x1
    30a8:	40640333          	sub	t1,s0,t1
    30ac:	66d33823          	sd	a3,1648(t1) # 1670 <.LBB13_4+0x4d0>
    30b0:	40d706bb          	subw	a3,a4,a3
    30b4:	00d60633          	add	a2,a2,a3
    30b8:	ff06061b          	addiw	a2,a2,-16
    30bc:	400006b7          	lui	a3,0x40000
    30c0:	00001337          	lui	t1,0x1
    30c4:	40640333          	sub	t1,s0,t1
    30c8:	eec33023          	sd	a2,-288(t1) # ee0 <.LBB13_3+0xcc8>
    30cc:	00065463          	bgez	a2,30d4 <.LBB13_22>
    30d0:	c00006b7          	lui	a3,0xc0000

00000000000030d4 <.LBB13_22>:
    30d4:	00001637          	lui	a2,0x1
    30d8:	40c40633          	sub	a2,s0,a2
    30dc:	64f63023          	sd	a5,1600(a2) # 1640 <.LBB13_4+0x4a0>
    30e0:	00001637          	lui	a2,0x1
    30e4:	40c40633          	sub	a2,s0,a2
    30e8:	ecd63023          	sd	a3,-320(a2) # ec0 <.LBB13_3+0xca8>
    30ec:	0205a603          	lw	a2,32(a1)
    30f0:	02052683          	lw	a3,32(a0)
    30f4:	000017b7          	lui	a5,0x1
    30f8:	40f407b3          	sub	a5,s0,a5
    30fc:	66c7b423          	sd	a2,1640(a5) # 1668 <.LBB13_4+0x4c8>
    3100:	00c80633          	add	a2,a6,a2
    3104:	000017b7          	lui	a5,0x1
    3108:	40f407b3          	sub	a5,s0,a5
    310c:	66d7b023          	sd	a3,1632(a5) # 1660 <.LBB13_4+0x4c0>
    3110:	40d706bb          	subw	a3,a4,a3
    3114:	00d60633          	add	a2,a2,a3
    3118:	ff06061b          	addiw	a2,a2,-16
    311c:	400006b7          	lui	a3,0x40000
    3120:	000017b7          	lui	a5,0x1
    3124:	40f407b3          	sub	a5,s0,a5
    3128:	eec7b823          	sd	a2,-272(a5) # ef0 <.LBB13_3+0xcd8>
    312c:	00065463          	bgez	a2,3134 <.LBB13_24>
    3130:	c00006b7          	lui	a3,0xc0000

0000000000003134 <.LBB13_24>:
    3134:	00001637          	lui	a2,0x1
    3138:	40c40633          	sub	a2,s0,a2
    313c:	ecd63c23          	sd	a3,-296(a2) # ed8 <.LBB13_3+0xcc0>
    3140:	0245a783          	lw	a5,36(a1)
    3144:	0285a603          	lw	a2,40(a1)
    3148:	000016b7          	lui	a3,0x1
    314c:	40d406b3          	sub	a3,s0,a3
    3150:	72c6b823          	sd	a2,1840(a3) # 1730 <.LBB13_5+0x84>
    3154:	02c5a603          	lw	a2,44(a1)
    3158:	000016b7          	lui	a3,0x1
    315c:	40d406b3          	sub	a3,s0,a3
    3160:	64c6b423          	sd	a2,1608(a3) # 1648 <.LBB13_4+0x4a8>
    3164:	0305a603          	lw	a2,48(a1)
    3168:	000016b7          	lui	a3,0x1
    316c:	40d406b3          	sub	a3,s0,a3
    3170:	74c6b423          	sd	a2,1864(a3) # 1748 <.LBB13_5+0x9c>
    3174:	0345a603          	lw	a2,52(a1)
    3178:	000016b7          	lui	a3,0x1
    317c:	40d406b3          	sub	a3,s0,a3
    3180:	74c6b823          	sd	a2,1872(a3) # 1750 <.LBB13_5+0xa4>
    3184:	0385a603          	lw	a2,56(a1)
    3188:	000016b7          	lui	a3,0x1
    318c:	40d406b3          	sub	a3,s0,a3
    3190:	76c6b023          	sd	a2,1888(a3) # 1760 <.LBB13_5+0xb4>
    3194:	03c5a603          	lw	a2,60(a1)
    3198:	e8c43023          	sd	a2,-384(s0)
    319c:	0405a603          	lw	a2,64(a1)
    31a0:	e8c43823          	sd	a2,-368(s0)
    31a4:	0445a603          	lw	a2,68(a1)
    31a8:	eac43023          	sd	a2,-352(s0)
    31ac:	0485a603          	lw	a2,72(a1)
    31b0:	eac43823          	sd	a2,-336(s0)
    31b4:	04c5a603          	lw	a2,76(a1)
    31b8:	eac43c23          	sd	a2,-328(s0)
    31bc:	0505a603          	lw	a2,80(a1)
    31c0:	ecc43423          	sd	a2,-312(s0)
    31c4:	0545a603          	lw	a2,84(a1)
    31c8:	ecc43c23          	sd	a2,-296(s0)
    31cc:	0585a603          	lw	a2,88(a1)
    31d0:	eec43423          	sd	a2,-280(s0)
    31d4:	05c5a603          	lw	a2,92(a1)
    31d8:	eec43c23          	sd	a2,-264(s0)
    31dc:	0605a603          	lw	a2,96(a1)
    31e0:	f0c43023          	sd	a2,-256(s0)
    31e4:	0645a603          	lw	a2,100(a1)
    31e8:	f0c43823          	sd	a2,-240(s0)
    31ec:	0685a603          	lw	a2,104(a1)
    31f0:	f2c43c23          	sd	a2,-200(s0)
    31f4:	06c5a603          	lw	a2,108(a1)
    31f8:	f4c43423          	sd	a2,-184(s0)
    31fc:	0705a603          	lw	a2,112(a1)
    3200:	f4c43c23          	sd	a2,-168(s0)
    3204:	0745a603          	lw	a2,116(a1)
    3208:	f6c43423          	sd	a2,-152(s0)
    320c:	0785a603          	lw	a2,120(a1)
    3210:	f6c43823          	sd	a2,-144(s0)
    3214:	07c5a583          	lw	a1,124(a1)
    3218:	f8b43023          	sd	a1,-128(s0)
    321c:	07c52583          	lw	a1,124(a0)
    3220:	f6b43c23          	sd	a1,-136(s0)
    3224:	07852583          	lw	a1,120(a0)
    3228:	f6b43023          	sd	a1,-160(s0)
    322c:	07452583          	lw	a1,116(a0)
    3230:	f4b43823          	sd	a1,-176(s0)
    3234:	07052583          	lw	a1,112(a0)
    3238:	f4b43023          	sd	a1,-192(s0)
    323c:	06c52583          	lw	a1,108(a0)
    3240:	f2b43823          	sd	a1,-208(s0)
    3244:	06852583          	lw	a1,104(a0)
    3248:	f0b43423          	sd	a1,-248(s0)
    324c:	06452583          	lw	a1,100(a0)
    3250:	eeb43823          	sd	a1,-272(s0)
    3254:	06052583          	lw	a1,96(a0)
    3258:	eeb43023          	sd	a1,-288(s0)
    325c:	05c52583          	lw	a1,92(a0)
    3260:	ecb43823          	sd	a1,-304(s0)
    3264:	05852583          	lw	a1,88(a0)
    3268:	ecb43023          	sd	a1,-320(s0)
    326c:	05452583          	lw	a1,84(a0)
    3270:	eab43423          	sd	a1,-344(s0)
    3274:	05052583          	lw	a1,80(a0)
    3278:	e8b43c23          	sd	a1,-360(s0)
    327c:	04c52583          	lw	a1,76(a0)
    3280:	e8b43423          	sd	a1,-376(s0)
    3284:	04852583          	lw	a1,72(a0)
    3288:	e6b43c23          	sd	a1,-392(s0)
    328c:	04452583          	lw	a1,68(a0)
    3290:	00001637          	lui	a2,0x1
    3294:	40c40633          	sub	a2,s0,a2
    3298:	74b63c23          	sd	a1,1880(a2) # 1758 <.LBB13_5+0xac>
    329c:	04052583          	lw	a1,64(a0)
    32a0:	00001637          	lui	a2,0x1
    32a4:	40c40633          	sub	a2,s0,a2
    32a8:	74b63023          	sd	a1,1856(a2) # 1740 <.LBB13_5+0x94>
    32ac:	03c52583          	lw	a1,60(a0)
    32b0:	00001637          	lui	a2,0x1
    32b4:	40c40633          	sub	a2,s0,a2
    32b8:	72b63c23          	sd	a1,1848(a2) # 1738 <.LBB13_5+0x8c>
    32bc:	03852583          	lw	a1,56(a0)
    32c0:	00001637          	lui	a2,0x1
    32c4:	40c40633          	sub	a2,s0,a2
    32c8:	72b63423          	sd	a1,1832(a2) # 1728 <.LBB13_5+0x7c>
    32cc:	03452583          	lw	a1,52(a0)
    32d0:	00001637          	lui	a2,0x1
    32d4:	40c40633          	sub	a2,s0,a2
    32d8:	72b63023          	sd	a1,1824(a2) # 1720 <.LBB13_5+0x74>
    32dc:	03052583          	lw	a1,48(a0)
    32e0:	00001637          	lui	a2,0x1
    32e4:	40c40633          	sub	a2,s0,a2
    32e8:	6eb63c23          	sd	a1,1784(a2) # 16f8 <.LBB13_5+0x4c>
    32ec:	02c52583          	lw	a1,44(a0)
    32f0:	00001637          	lui	a2,0x1
    32f4:	40c40633          	sub	a2,s0,a2
    32f8:	6eb63823          	sd	a1,1776(a2) # 16f0 <.LBB13_5+0x44>
    32fc:	02852583          	lw	a1,40(a0)
    3300:	00001637          	lui	a2,0x1
    3304:	40c40633          	sub	a2,s0,a2
    3308:	6eb63423          	sd	a1,1768(a2) # 16e8 <.LBB13_5+0x3c>
    330c:	02452803          	lw	a6,36(a0)
    3310:	00001537          	lui	a0,0x1
    3314:	40a40533          	sub	a0,s0,a0
    3318:	64f53c23          	sd	a5,1624(a0) # 1658 <.LBB13_4+0x4b8>
    331c:	00001537          	lui	a0,0x1
    3320:	40a40533          	sub	a0,s0,a0
    3324:	76853503          	ld	a0,1896(a0) # 1768 <.LBB13_5+0xbc>
    3328:	00f507b3          	add	a5,a0,a5
    332c:	00001537          	lui	a0,0x1
    3330:	40a40533          	sub	a0,s0,a0
    3334:	63053683          	ld	a3,1584(a0) # 1630 <.LBB13_4+0x490>
    3338:	01c6a503          	lw	a0,28(a3)
    333c:	f8a43423          	sd	a0,-120(s0)
    3340:	0186a503          	lw	a0,24(a3)
    3344:	000015b7          	lui	a1,0x1
    3348:	40b405b3          	sub	a1,s0,a1
    334c:	64a5b823          	sd	a0,1616(a1) # 1650 <.LBB13_4+0x4b0>
    3350:	0146a503          	lw	a0,20(a3)
    3354:	000015b7          	lui	a1,0x1
    3358:	40b405b3          	sub	a1,s0,a1
    335c:	d2a5b023          	sd	a0,-736(a1) # d20 <.LBB13_3+0xb08>
    3360:	0106a503          	lw	a0,16(a3)
    3364:	00c6a583          	lw	a1,12(a3)
    3368:	0086a603          	lw	a2,8(a3)
    336c:	0046a683          	lw	a3,4(a3)
    3370:	00001337          	lui	t1,0x1
    3374:	40640333          	sub	t1,s0,t1
    3378:	77033423          	sd	a6,1896(t1) # 1768 <.LBB13_5+0xbc>
    337c:	4107083b          	subw	a6,a4,a6
    3380:	010787b3          	add	a5,a5,a6
    3384:	ff07879b          	addiw	a5,a5,-16
    3388:	40000837          	lui	a6,0x40000
    338c:	00001337          	lui	t1,0x1
    3390:	40640333          	sub	t1,s0,t1
    3394:	d2f33823          	sd	a5,-720(t1) # d30 <.LBB13_3+0xb18>
    3398:	0007d463          	bgez	a5,33a0 <.LBB13_26>
    339c:	c0000837          	lui	a6,0xc0000

00000000000033a0 <.LBB13_26>:
    33a0:	000017b7          	lui	a5,0x1
    33a4:	40f407b3          	sub	a5,s0,a5
    33a8:	d307b423          	sd	a6,-728(a5) # d28 <.LBB13_3+0xb10>
    33ac:	000017b7          	lui	a5,0x1
    33b0:	40f407b3          	sub	a5,s0,a5
    33b4:	7307b783          	ld	a5,1840(a5) # 1730 <.LBB13_5+0x84>
    33b8:	00001837          	lui	a6,0x1
    33bc:	41040833          	sub	a6,s0,a6
    33c0:	77083803          	ld	a6,1904(a6) # 1770 <.LBB13_5+0xc4>
    33c4:	00f807b3          	add	a5,a6,a5
    33c8:	00001837          	lui	a6,0x1
    33cc:	41040833          	sub	a6,s0,a6
    33d0:	6e883803          	ld	a6,1768(a6) # 16e8 <.LBB13_5+0x3c>
    33d4:	4107083b          	subw	a6,a4,a6
    33d8:	010787b3          	add	a5,a5,a6
    33dc:	ff07879b          	addiw	a5,a5,-16
    33e0:	40000837          	lui	a6,0x40000
    33e4:	00001337          	lui	t1,0x1
    33e8:	40640333          	sub	t1,s0,t1
    33ec:	d4f33023          	sd	a5,-704(t1) # d40 <.LBB13_3+0xb28>
    33f0:	0007d463          	bgez	a5,33f8 <.LBB13_28>
    33f4:	c0000837          	lui	a6,0xc0000

00000000000033f8 <.LBB13_28>:
    33f8:	000017b7          	lui	a5,0x1
    33fc:	40f407b3          	sub	a5,s0,a5
    3400:	d307bc23          	sd	a6,-712(a5) # d38 <.LBB13_3+0xb20>
    3404:	000017b7          	lui	a5,0x1
    3408:	40f407b3          	sub	a5,s0,a5
    340c:	6487b783          	ld	a5,1608(a5) # 1648 <.LBB13_4+0x4a8>
    3410:	00001837          	lui	a6,0x1
    3414:	41040833          	sub	a6,s0,a6
    3418:	77883803          	ld	a6,1912(a6) # 1778 <.LBB13_5+0xcc>
    341c:	00f807b3          	add	a5,a6,a5
    3420:	00001837          	lui	a6,0x1
    3424:	41040833          	sub	a6,s0,a6
    3428:	6f083803          	ld	a6,1776(a6) # 16f0 <.LBB13_5+0x44>
    342c:	4107083b          	subw	a6,a4,a6
    3430:	010787b3          	add	a5,a5,a6
    3434:	ff07879b          	addiw	a5,a5,-16
    3438:	40000837          	lui	a6,0x40000
    343c:	00001337          	lui	t1,0x1
    3440:	40640333          	sub	t1,s0,t1
    3444:	d4f33823          	sd	a5,-688(t1) # d50 <.LBB13_3+0xb38>
    3448:	0007d463          	bgez	a5,3450 <.LBB13_30>
    344c:	c0000837          	lui	a6,0xc0000

0000000000003450 <.LBB13_30>:
    3450:	000017b7          	lui	a5,0x1
    3454:	40f407b3          	sub	a5,s0,a5
    3458:	d507b423          	sd	a6,-696(a5) # d48 <.LBB13_3+0xb30>
    345c:	000017b7          	lui	a5,0x1
    3460:	40f407b3          	sub	a5,s0,a5
    3464:	7487b783          	ld	a5,1864(a5) # 1748 <.LBB13_5+0x9c>
    3468:	00001837          	lui	a6,0x1
    346c:	41040833          	sub	a6,s0,a6
    3470:	78083803          	ld	a6,1920(a6) # 1780 <.LBB13_5+0xd4>
    3474:	00f807b3          	add	a5,a6,a5
    3478:	00001837          	lui	a6,0x1
    347c:	41040833          	sub	a6,s0,a6
    3480:	6f883803          	ld	a6,1784(a6) # 16f8 <.LBB13_5+0x4c>
    3484:	4107083b          	subw	a6,a4,a6
    3488:	010787b3          	add	a5,a5,a6
    348c:	ff07879b          	addiw	a5,a5,-16
    3490:	40000837          	lui	a6,0x40000
    3494:	00001337          	lui	t1,0x1
    3498:	40640333          	sub	t1,s0,t1
    349c:	d6f33023          	sd	a5,-672(t1) # d60 <.LBB13_3+0xb48>
    34a0:	0007d463          	bgez	a5,34a8 <.LBB13_32>
    34a4:	c0000837          	lui	a6,0xc0000

00000000000034a8 <.LBB13_32>:
    34a8:	000017b7          	lui	a5,0x1
    34ac:	40f407b3          	sub	a5,s0,a5
    34b0:	d507bc23          	sd	a6,-680(a5) # d58 <.LBB13_3+0xb40>
    34b4:	000017b7          	lui	a5,0x1
    34b8:	40f407b3          	sub	a5,s0,a5
    34bc:	7507b783          	ld	a5,1872(a5) # 1750 <.LBB13_5+0xa4>
    34c0:	00001837          	lui	a6,0x1
    34c4:	41040833          	sub	a6,s0,a6
    34c8:	78883803          	ld	a6,1928(a6) # 1788 <.LBB13_5+0xdc>
    34cc:	00f807b3          	add	a5,a6,a5
    34d0:	00001837          	lui	a6,0x1
    34d4:	41040833          	sub	a6,s0,a6
    34d8:	72083803          	ld	a6,1824(a6) # 1720 <.LBB13_5+0x74>
    34dc:	4107083b          	subw	a6,a4,a6
    34e0:	010787b3          	add	a5,a5,a6
    34e4:	ff07879b          	addiw	a5,a5,-16
    34e8:	40000837          	lui	a6,0x40000
    34ec:	00001337          	lui	t1,0x1
    34f0:	40640333          	sub	t1,s0,t1
    34f4:	d6f33823          	sd	a5,-656(t1) # d70 <.LBB13_3+0xb58>
    34f8:	0007d463          	bgez	a5,3500 <.LBB13_34>
    34fc:	c0000837          	lui	a6,0xc0000

0000000000003500 <.LBB13_34>:
    3500:	000017b7          	lui	a5,0x1
    3504:	40f407b3          	sub	a5,s0,a5
    3508:	d707b423          	sd	a6,-664(a5) # d68 <.LBB13_3+0xb50>
    350c:	000017b7          	lui	a5,0x1
    3510:	40f407b3          	sub	a5,s0,a5
    3514:	7607b783          	ld	a5,1888(a5) # 1760 <.LBB13_5+0xb4>
    3518:	00001837          	lui	a6,0x1
    351c:	41040833          	sub	a6,s0,a6
    3520:	79083803          	ld	a6,1936(a6) # 1790 <.LBB13_5+0xe4>
    3524:	00f807b3          	add	a5,a6,a5
    3528:	00001837          	lui	a6,0x1
    352c:	41040833          	sub	a6,s0,a6
    3530:	72883803          	ld	a6,1832(a6) # 1728 <.LBB13_5+0x7c>
    3534:	4107083b          	subw	a6,a4,a6
    3538:	010787b3          	add	a5,a5,a6
    353c:	ff07879b          	addiw	a5,a5,-16
    3540:	40000837          	lui	a6,0x40000
    3544:	00001337          	lui	t1,0x1
    3548:	40640333          	sub	t1,s0,t1
    354c:	d8f33023          	sd	a5,-640(t1) # d80 <.LBB13_3+0xb68>
    3550:	0007d463          	bgez	a5,3558 <.LBB13_36>
    3554:	c0000837          	lui	a6,0xc0000

0000000000003558 <.LBB13_36>:
    3558:	000017b7          	lui	a5,0x1
    355c:	40f407b3          	sub	a5,s0,a5
    3560:	d707bc23          	sd	a6,-648(a5) # d78 <.LBB13_3+0xb60>
    3564:	e8043783          	ld	a5,-384(s0)
    3568:	00001837          	lui	a6,0x1
    356c:	41040833          	sub	a6,s0,a6
    3570:	79883803          	ld	a6,1944(a6) # 1798 <.LBB13_5+0xec>
    3574:	00f807b3          	add	a5,a6,a5
    3578:	00001837          	lui	a6,0x1
    357c:	41040833          	sub	a6,s0,a6
    3580:	73883803          	ld	a6,1848(a6) # 1738 <.LBB13_5+0x8c>
    3584:	4107083b          	subw	a6,a4,a6
    3588:	010787b3          	add	a5,a5,a6
    358c:	ff07879b          	addiw	a5,a5,-16
    3590:	40000837          	lui	a6,0x40000
    3594:	00001337          	lui	t1,0x1
    3598:	40640333          	sub	t1,s0,t1
    359c:	d8f33823          	sd	a5,-624(t1) # d90 <.LBB13_3+0xb78>
    35a0:	0007d463          	bgez	a5,35a8 <.LBB13_38>
    35a4:	c0000837          	lui	a6,0xc0000

00000000000035a8 <.LBB13_38>:
    35a8:	000017b7          	lui	a5,0x1
    35ac:	40f407b3          	sub	a5,s0,a5
    35b0:	d907b423          	sd	a6,-632(a5) # d88 <.LBB13_3+0xb70>
    35b4:	e9043783          	ld	a5,-368(s0)
    35b8:	00001837          	lui	a6,0x1
    35bc:	41040833          	sub	a6,s0,a6
    35c0:	7a083803          	ld	a6,1952(a6) # 17a0 <.LBB13_5+0xf4>
    35c4:	00f807b3          	add	a5,a6,a5
    35c8:	00001837          	lui	a6,0x1
    35cc:	41040833          	sub	a6,s0,a6
    35d0:	74083803          	ld	a6,1856(a6) # 1740 <.LBB13_5+0x94>
    35d4:	4107083b          	subw	a6,a4,a6
    35d8:	010787b3          	add	a5,a5,a6
    35dc:	ff07879b          	addiw	a5,a5,-16
    35e0:	40000837          	lui	a6,0x40000
    35e4:	00001337          	lui	t1,0x1
    35e8:	40640333          	sub	t1,s0,t1
    35ec:	daf33023          	sd	a5,-608(t1) # da0 <.LBB13_3+0xb88>
    35f0:	0007d463          	bgez	a5,35f8 <.LBB13_40>
    35f4:	c0000837          	lui	a6,0xc0000

00000000000035f8 <.LBB13_40>:
    35f8:	000017b7          	lui	a5,0x1
    35fc:	40f407b3          	sub	a5,s0,a5
    3600:	d907bc23          	sd	a6,-616(a5) # d98 <.LBB13_3+0xb80>
    3604:	ea043783          	ld	a5,-352(s0)
    3608:	00001837          	lui	a6,0x1
    360c:	41040833          	sub	a6,s0,a6
    3610:	7a883803          	ld	a6,1960(a6) # 17a8 <.LBB13_5+0xfc>
    3614:	00f807b3          	add	a5,a6,a5
    3618:	00001837          	lui	a6,0x1
    361c:	41040833          	sub	a6,s0,a6
    3620:	75883803          	ld	a6,1880(a6) # 1758 <.LBB13_5+0xac>
    3624:	4107083b          	subw	a6,a4,a6
    3628:	010787b3          	add	a5,a5,a6
    362c:	ff07879b          	addiw	a5,a5,-16
    3630:	40000837          	lui	a6,0x40000
    3634:	00001337          	lui	t1,0x1
    3638:	40640333          	sub	t1,s0,t1
    363c:	daf33823          	sd	a5,-592(t1) # db0 <.LBB13_3+0xb98>
    3640:	0007d463          	bgez	a5,3648 <.LBB13_42>
    3644:	c0000837          	lui	a6,0xc0000

0000000000003648 <.LBB13_42>:
    3648:	000017b7          	lui	a5,0x1
    364c:	40f407b3          	sub	a5,s0,a5
    3650:	db07b423          	sd	a6,-600(a5) # da8 <.LBB13_3+0xb90>
    3654:	eb043783          	ld	a5,-336(s0)
    3658:	00001837          	lui	a6,0x1
    365c:	41040833          	sub	a6,s0,a6
    3660:	7b083803          	ld	a6,1968(a6) # 17b0 <.LBB13_5+0x104>
    3664:	00f807b3          	add	a5,a6,a5
    3668:	e7843803          	ld	a6,-392(s0)
    366c:	4107083b          	subw	a6,a4,a6
    3670:	010787b3          	add	a5,a5,a6
    3674:	ff07879b          	addiw	a5,a5,-16
    3678:	40000837          	lui	a6,0x40000
    367c:	00001337          	lui	t1,0x1
    3680:	40640333          	sub	t1,s0,t1
    3684:	dcf33023          	sd	a5,-576(t1) # dc0 <.LBB13_3+0xba8>
    3688:	0007d463          	bgez	a5,3690 <.LBB13_44>
    368c:	c0000837          	lui	a6,0xc0000

0000000000003690 <.LBB13_44>:
    3690:	000017b7          	lui	a5,0x1
    3694:	40f407b3          	sub	a5,s0,a5
    3698:	db07bc23          	sd	a6,-584(a5) # db8 <.LBB13_3+0xba0>
    369c:	eb843783          	ld	a5,-328(s0)
    36a0:	00001837          	lui	a6,0x1
    36a4:	41040833          	sub	a6,s0,a6
    36a8:	7b883803          	ld	a6,1976(a6) # 17b8 <.LBB13_5+0x10c>
    36ac:	00f807b3          	add	a5,a6,a5
    36b0:	e8843803          	ld	a6,-376(s0)
    36b4:	4107083b          	subw	a6,a4,a6
    36b8:	010787b3          	add	a5,a5,a6
    36bc:	ff07879b          	addiw	a5,a5,-16
    36c0:	40000837          	lui	a6,0x40000
    36c4:	00001337          	lui	t1,0x1
    36c8:	40640333          	sub	t1,s0,t1
    36cc:	dcf33823          	sd	a5,-560(t1) # dd0 <.LBB13_3+0xbb8>
    36d0:	0007d463          	bgez	a5,36d8 <.LBB13_46>
    36d4:	c0000837          	lui	a6,0xc0000

00000000000036d8 <.LBB13_46>:
    36d8:	000017b7          	lui	a5,0x1
    36dc:	40f407b3          	sub	a5,s0,a5
    36e0:	dd07b423          	sd	a6,-568(a5) # dc8 <.LBB13_3+0xbb0>
    36e4:	ec843783          	ld	a5,-312(s0)
    36e8:	00001837          	lui	a6,0x1
    36ec:	41040833          	sub	a6,s0,a6
    36f0:	7c083803          	ld	a6,1984(a6) # 17c0 <.LBB13_5+0x114>
    36f4:	00f807b3          	add	a5,a6,a5
    36f8:	e9843803          	ld	a6,-360(s0)
    36fc:	4107083b          	subw	a6,a4,a6
    3700:	010787b3          	add	a5,a5,a6
    3704:	ff07879b          	addiw	a5,a5,-16
    3708:	40000837          	lui	a6,0x40000
    370c:	00001337          	lui	t1,0x1
    3710:	40640333          	sub	t1,s0,t1
    3714:	def33023          	sd	a5,-544(t1) # de0 <.LBB13_3+0xbc8>
    3718:	0007d463          	bgez	a5,3720 <.LBB13_48>
    371c:	c0000837          	lui	a6,0xc0000

0000000000003720 <.LBB13_48>:
    3720:	000017b7          	lui	a5,0x1
    3724:	40f407b3          	sub	a5,s0,a5
    3728:	dd07bc23          	sd	a6,-552(a5) # dd8 <.LBB13_3+0xbc0>
    372c:	ed843783          	ld	a5,-296(s0)
    3730:	00001837          	lui	a6,0x1
    3734:	41040833          	sub	a6,s0,a6
    3738:	7c883803          	ld	a6,1992(a6) # 17c8 <.LBB13_5+0x11c>
    373c:	00f807b3          	add	a5,a6,a5
    3740:	ea843803          	ld	a6,-344(s0)
    3744:	4107083b          	subw	a6,a4,a6
    3748:	010787b3          	add	a5,a5,a6
    374c:	ff07879b          	addiw	a5,a5,-16
    3750:	40000837          	lui	a6,0x40000
    3754:	00001337          	lui	t1,0x1
    3758:	40640333          	sub	t1,s0,t1
    375c:	def33823          	sd	a5,-528(t1) # df0 <.LBB13_3+0xbd8>
    3760:	0007d463          	bgez	a5,3768 <.LBB13_50>
    3764:	c0000837          	lui	a6,0xc0000

0000000000003768 <.LBB13_50>:
    3768:	000017b7          	lui	a5,0x1
    376c:	40f407b3          	sub	a5,s0,a5
    3770:	df07b423          	sd	a6,-536(a5) # de8 <.LBB13_3+0xbd0>
    3774:	ee843783          	ld	a5,-280(s0)
    3778:	00001837          	lui	a6,0x1
    377c:	41040833          	sub	a6,s0,a6
    3780:	70083803          	ld	a6,1792(a6) # 1700 <.LBB13_5+0x54>
    3784:	00f807b3          	add	a5,a6,a5
    3788:	ec043803          	ld	a6,-320(s0)
    378c:	4107083b          	subw	a6,a4,a6
    3790:	010787b3          	add	a5,a5,a6
    3794:	ff07879b          	addiw	a5,a5,-16
    3798:	40000837          	lui	a6,0x40000
    379c:	00001337          	lui	t1,0x1
    37a0:	40640333          	sub	t1,s0,t1
    37a4:	e0f33023          	sd	a5,-512(t1) # e00 <.LBB13_3+0xbe8>
    37a8:	0007d463          	bgez	a5,37b0 <.LBB13_52>
    37ac:	c0000837          	lui	a6,0xc0000

00000000000037b0 <.LBB13_52>:
    37b0:	000017b7          	lui	a5,0x1
    37b4:	40f407b3          	sub	a5,s0,a5
    37b8:	df07bc23          	sd	a6,-520(a5) # df8 <.LBB13_3+0xbe0>
    37bc:	ef843783          	ld	a5,-264(s0)
    37c0:	00001837          	lui	a6,0x1
    37c4:	41040833          	sub	a6,s0,a6
    37c8:	70883803          	ld	a6,1800(a6) # 1708 <.LBB13_5+0x5c>
    37cc:	00f807b3          	add	a5,a6,a5
    37d0:	ed043803          	ld	a6,-304(s0)
    37d4:	4107083b          	subw	a6,a4,a6
    37d8:	010787b3          	add	a5,a5,a6
    37dc:	ff07879b          	addiw	a5,a5,-16
    37e0:	40000837          	lui	a6,0x40000
    37e4:	00001337          	lui	t1,0x1
    37e8:	40640333          	sub	t1,s0,t1
    37ec:	e0f33823          	sd	a5,-496(t1) # e10 <.LBB13_3+0xbf8>
    37f0:	0007d463          	bgez	a5,37f8 <.LBB13_54>
    37f4:	c0000837          	lui	a6,0xc0000

00000000000037f8 <.LBB13_54>:
    37f8:	000017b7          	lui	a5,0x1
    37fc:	40f407b3          	sub	a5,s0,a5
    3800:	e107b423          	sd	a6,-504(a5) # e08 <.LBB13_3+0xbf0>
    3804:	f0043783          	ld	a5,-256(s0)
    3808:	00001837          	lui	a6,0x1
    380c:	41040833          	sub	a6,s0,a6
    3810:	71083803          	ld	a6,1808(a6) # 1710 <.LBB13_5+0x64>
    3814:	00f807b3          	add	a5,a6,a5
    3818:	ee043803          	ld	a6,-288(s0)
    381c:	4107083b          	subw	a6,a4,a6
    3820:	010787b3          	add	a5,a5,a6
    3824:	ff07879b          	addiw	a5,a5,-16
    3828:	40000837          	lui	a6,0x40000
    382c:	00001337          	lui	t1,0x1
    3830:	40640333          	sub	t1,s0,t1
    3834:	e2f33023          	sd	a5,-480(t1) # e20 <.LBB13_3+0xc08>
    3838:	0007d463          	bgez	a5,3840 <.LBB13_56>
    383c:	c0000837          	lui	a6,0xc0000

0000000000003840 <.LBB13_56>:
    3840:	000017b7          	lui	a5,0x1
    3844:	40f407b3          	sub	a5,s0,a5
    3848:	e107bc23          	sd	a6,-488(a5) # e18 <.LBB13_3+0xc00>
    384c:	f1043783          	ld	a5,-240(s0)
    3850:	00001837          	lui	a6,0x1
    3854:	41040833          	sub	a6,s0,a6
    3858:	7d083803          	ld	a6,2000(a6) # 17d0 <.LBB13_5+0x124>
    385c:	00f807b3          	add	a5,a6,a5
    3860:	ef043803          	ld	a6,-272(s0)
    3864:	4107083b          	subw	a6,a4,a6
    3868:	010787b3          	add	a5,a5,a6
    386c:	ff07879b          	addiw	a5,a5,-16
    3870:	40000837          	lui	a6,0x40000
    3874:	00001337          	lui	t1,0x1
    3878:	40640333          	sub	t1,s0,t1
    387c:	e2f33c23          	sd	a5,-456(t1) # e38 <.LBB13_3+0xc20>
    3880:	0007d463          	bgez	a5,3888 <.LBB13_58>
    3884:	c0000837          	lui	a6,0xc0000

0000000000003888 <.LBB13_58>:
    3888:	000017b7          	lui	a5,0x1
    388c:	40f407b3          	sub	a5,s0,a5
    3890:	e307b823          	sd	a6,-464(a5) # e30 <.LBB13_3+0xc18>
    3894:	f3843783          	ld	a5,-200(s0)
    3898:	00001837          	lui	a6,0x1
    389c:	41040833          	sub	a6,s0,a6
    38a0:	7d883803          	ld	a6,2008(a6) # 17d8 <.LBB13_5+0x12c>
    38a4:	00f807b3          	add	a5,a6,a5
    38a8:	f0843803          	ld	a6,-248(s0)
    38ac:	4107083b          	subw	a6,a4,a6
    38b0:	010787b3          	add	a5,a5,a6
    38b4:	ff07879b          	addiw	a5,a5,-16
    38b8:	40000837          	lui	a6,0x40000
    38bc:	00001337          	lui	t1,0x1
    38c0:	40640333          	sub	t1,s0,t1
    38c4:	e6f33823          	sd	a5,-400(t1) # e70 <.LBB13_3+0xc58>
    38c8:	0007d463          	bgez	a5,38d0 <.LBB13_60>
    38cc:	c0000837          	lui	a6,0xc0000

00000000000038d0 <.LBB13_60>:
    38d0:	000017b7          	lui	a5,0x1
    38d4:	40f407b3          	sub	a5,s0,a5
    38d8:	e507b823          	sd	a6,-432(a5) # e50 <.LBB13_3+0xc38>
    38dc:	f4843783          	ld	a5,-184(s0)
    38e0:	00001837          	lui	a6,0x1
    38e4:	41040833          	sub	a6,s0,a6
    38e8:	7e083803          	ld	a6,2016(a6) # 17e0 <.LBB13_5+0x134>
    38ec:	00f807b3          	add	a5,a6,a5
    38f0:	f3043803          	ld	a6,-208(s0)
    38f4:	4107083b          	subw	a6,a4,a6
    38f8:	010787b3          	add	a5,a5,a6
    38fc:	ff07879b          	addiw	a5,a5,-16
    3900:	40000837          	lui	a6,0x40000
    3904:	00001337          	lui	t1,0x1
    3908:	40640333          	sub	t1,s0,t1
    390c:	eaf33823          	sd	a5,-336(t1) # eb0 <.LBB13_3+0xc98>
    3910:	0007d463          	bgez	a5,3918 <.LBB13_62>
    3914:	c0000837          	lui	a6,0xc0000

0000000000003918 <.LBB13_62>:
    3918:	000017b7          	lui	a5,0x1
    391c:	40f407b3          	sub	a5,s0,a5
    3920:	e907b823          	sd	a6,-368(a5) # e90 <.LBB13_3+0xc78>
    3924:	f5843783          	ld	a5,-168(s0)
    3928:	00001837          	lui	a6,0x1
    392c:	41040833          	sub	a6,s0,a6
    3930:	7e883803          	ld	a6,2024(a6) # 17e8 <.LBB13_5+0x13c>
    3934:	00f807b3          	add	a5,a6,a5
    3938:	f4043803          	ld	a6,-192(s0)
    393c:	4107083b          	subw	a6,a4,a6
    3940:	010787b3          	add	a5,a5,a6
    3944:	ff07879b          	addiw	a5,a5,-16
    3948:	40000837          	lui	a6,0x40000
    394c:	00001337          	lui	t1,0x1
    3950:	40640333          	sub	t1,s0,t1
    3954:	eef33423          	sd	a5,-280(t1) # ee8 <.LBB13_3+0xcd0>
    3958:	0007d463          	bgez	a5,3960 <.LBB13_64>
    395c:	c0000837          	lui	a6,0xc0000

0000000000003960 <.LBB13_64>:
    3960:	000017b7          	lui	a5,0x1
    3964:	40f407b3          	sub	a5,s0,a5
    3968:	ed07b823          	sd	a6,-304(a5) # ed0 <.LBB13_3+0xcb8>
    396c:	f6843783          	ld	a5,-152(s0)
    3970:	00001837          	lui	a6,0x1
    3974:	41040833          	sub	a6,s0,a6
    3978:	71883803          	ld	a6,1816(a6) # 1718 <.LBB13_5+0x6c>
    397c:	00f807b3          	add	a5,a6,a5
    3980:	f5043803          	ld	a6,-176(s0)
    3984:	4107083b          	subw	a6,a4,a6
    3988:	010787b3          	add	a5,a5,a6
    398c:	ff07879b          	addiw	a5,a5,-16
    3990:	40000837          	lui	a6,0x40000
    3994:	00001337          	lui	t1,0x1
    3998:	40640333          	sub	t1,s0,t1
    399c:	f0f33023          	sd	a5,-256(t1) # f00 <.LBB13_3+0xce8>
    39a0:	0007d463          	bgez	a5,39a8 <.LBB13_66>
    39a4:	c0000837          	lui	a6,0xc0000

00000000000039a8 <.LBB13_66>:
    39a8:	000017b7          	lui	a5,0x1
    39ac:	40f407b3          	sub	a5,s0,a5
    39b0:	ef07bc23          	sd	a6,-264(a5) # ef8 <.LBB13_3+0xce0>
    39b4:	f7043783          	ld	a5,-144(s0)
    39b8:	00001837          	lui	a6,0x1
    39bc:	41040833          	sub	a6,s0,a6
    39c0:	7f083803          	ld	a6,2032(a6) # 17f0 <.LBB13_5+0x144>
    39c4:	00f807b3          	add	a5,a6,a5
    39c8:	f6043803          	ld	a6,-160(s0)
    39cc:	4107083b          	subw	a6,a4,a6
    39d0:	010787b3          	add	a5,a5,a6
    39d4:	ff07879b          	addiw	a5,a5,-16
    39d8:	40000837          	lui	a6,0x40000
    39dc:	00001337          	lui	t1,0x1
    39e0:	40640333          	sub	t1,s0,t1
    39e4:	f0f33823          	sd	a5,-240(t1) # f10 <.LBB13_3+0xcf8>
    39e8:	0007d463          	bgez	a5,39f0 <.LBB13_68>
    39ec:	c0000837          	lui	a6,0xc0000

00000000000039f0 <.LBB13_68>:
    39f0:	000017b7          	lui	a5,0x1
    39f4:	40f407b3          	sub	a5,s0,a5
    39f8:	f107b423          	sd	a6,-248(a5) # f08 <.LBB13_3+0xcf0>
    39fc:	f8043783          	ld	a5,-128(s0)
    3a00:	00001837          	lui	a6,0x1
    3a04:	41040833          	sub	a6,s0,a6
    3a08:	7f883803          	ld	a6,2040(a6) # 17f8 <.LBB13_5+0x14c>
    3a0c:	00f807b3          	add	a5,a6,a5
    3a10:	f7843803          	ld	a6,-136(s0)
    3a14:	4107073b          	subw	a4,a4,a6
    3a18:	00e78733          	add	a4,a5,a4
    3a1c:	ff07071b          	addiw	a4,a4,-16
    3a20:	400007b7          	lui	a5,0x40000
    3a24:	00001837          	lui	a6,0x1
    3a28:	41040833          	sub	a6,s0,a6
    3a2c:	f2e83023          	sd	a4,-224(a6) # f20 <.LBB13_3+0xd08>
    3a30:	00075463          	bgez	a4,3a38 <.LBB13_70>
    3a34:	c00007b7          	lui	a5,0xc0000

0000000000003a38 <.LBB13_70>:
    3a38:	00001737          	lui	a4,0x1
    3a3c:	40e40733          	sub	a4,s0,a4
    3a40:	f0f73c23          	sd	a5,-232(a4) # f18 <.LBB13_3+0xd00>
    3a44:	00001737          	lui	a4,0x1
    3a48:	40e40733          	sub	a4,s0,a4
    3a4c:	6e073703          	ld	a4,1760(a4) # 16e0 <.LBB13_5+0x34>
    3a50:	80843783          	ld	a5,-2040(s0)
    3a54:	00e78733          	add	a4,a5,a4
    3a58:	000017b7          	lui	a5,0x1
    3a5c:	40f407b3          	sub	a5,s0,a5
    3a60:	6d87b783          	ld	a5,1752(a5) # 16d8 <.LBB13_5+0x2c>
    3a64:	40f687bb          	subw	a5,a3,a5
    3a68:	00f70733          	add	a4,a4,a5
    3a6c:	ff07071b          	addiw	a4,a4,-16
    3a70:	400007b7          	lui	a5,0x40000
    3a74:	80043483          	ld	s1,-2048(s0)
    3a78:	00001837          	lui	a6,0x1
    3a7c:	41040833          	sub	a6,s0,a6
    3a80:	f2e83823          	sd	a4,-208(a6) # f30 <.LBB13_3+0xd18>
    3a84:	00001837          	lui	a6,0x1
    3a88:	41040833          	sub	a6,s0,a6
    3a8c:	64883803          	ld	a6,1608(a6) # 1648 <.LBB13_4+0x4a8>
    3a90:	00075463          	bgez	a4,3a98 <.LBB13_72>
    3a94:	c00007b7          	lui	a5,0xc0000

0000000000003a98 <.LBB13_72>:
    3a98:	00001737          	lui	a4,0x1
    3a9c:	40e40733          	sub	a4,s0,a4
    3aa0:	f2f73423          	sd	a5,-216(a4) # f28 <.LBB13_3+0xd10>
    3aa4:	00001737          	lui	a4,0x1
    3aa8:	40e40733          	sub	a4,s0,a4
    3aac:	6d073703          	ld	a4,1744(a4) # 16d0 <.LBB13_5+0x24>
    3ab0:	81043783          	ld	a5,-2032(s0)
    3ab4:	00e78733          	add	a4,a5,a4
    3ab8:	000017b7          	lui	a5,0x1
    3abc:	40f407b3          	sub	a5,s0,a5
    3ac0:	6c87b783          	ld	a5,1736(a5) # 16c8 <.LBB13_5+0x1c>
    3ac4:	40f687bb          	subw	a5,a3,a5
    3ac8:	00f70733          	add	a4,a4,a5
    3acc:	ff07071b          	addiw	a4,a4,-16
    3ad0:	400007b7          	lui	a5,0x40000
    3ad4:	c0043d03          	ld	s10,-1024(s0)
    3ad8:	00001337          	lui	t1,0x1
    3adc:	40640333          	sub	t1,s0,t1
    3ae0:	f4e33023          	sd	a4,-192(t1) # f40 <.LBB13_3+0xd28>
    3ae4:	00075463          	bgez	a4,3aec <.LBB13_74>
    3ae8:	c00007b7          	lui	a5,0xc0000

0000000000003aec <.LBB13_74>:
    3aec:	00001737          	lui	a4,0x1
    3af0:	40e40733          	sub	a4,s0,a4
    3af4:	f2f73c23          	sd	a5,-200(a4) # f38 <.LBB13_3+0xd20>
    3af8:	00001737          	lui	a4,0x1
    3afc:	40e40733          	sub	a4,s0,a4
    3b00:	6c073703          	ld	a4,1728(a4) # 16c0 <.LBB13_5+0x14>
    3b04:	81843783          	ld	a5,-2024(s0)
    3b08:	00e78733          	add	a4,a5,a4
    3b0c:	000017b7          	lui	a5,0x1
    3b10:	40f407b3          	sub	a5,s0,a5
    3b14:	6b87b783          	ld	a5,1720(a5) # 16b8 <.LBB13_5+0xc>
    3b18:	40f687bb          	subw	a5,a3,a5
    3b1c:	00f70733          	add	a4,a4,a5
    3b20:	ff07071b          	addiw	a4,a4,-16
    3b24:	400007b7          	lui	a5,0x40000
    3b28:	00001337          	lui	t1,0x1
    3b2c:	40640333          	sub	t1,s0,t1
    3b30:	f4e33823          	sd	a4,-176(t1) # f50 <.LBB13_3+0xd38>
    3b34:	00075463          	bgez	a4,3b3c <.LBB13_76>
    3b38:	c00007b7          	lui	a5,0xc0000

0000000000003b3c <.LBB13_76>:
    3b3c:	00001737          	lui	a4,0x1
    3b40:	40e40733          	sub	a4,s0,a4
    3b44:	f4f73423          	sd	a5,-184(a4) # f48 <.LBB13_3+0xd30>
    3b48:	00001737          	lui	a4,0x1
    3b4c:	40e40733          	sub	a4,s0,a4
    3b50:	64073703          	ld	a4,1600(a4) # 1640 <.LBB13_4+0x4a0>
    3b54:	82043783          	ld	a5,-2016(s0)
    3b58:	00e78733          	add	a4,a5,a4
    3b5c:	000017b7          	lui	a5,0x1
    3b60:	40f407b3          	sub	a5,s0,a5
    3b64:	6b07b783          	ld	a5,1712(a5) # 16b0 <.LBB13_5+0x4>
    3b68:	40f687bb          	subw	a5,a3,a5
    3b6c:	00f70733          	add	a4,a4,a5
    3b70:	ff07071b          	addiw	a4,a4,-16
    3b74:	400007b7          	lui	a5,0x40000
    3b78:	00001337          	lui	t1,0x1
    3b7c:	40640333          	sub	t1,s0,t1
    3b80:	f6e33023          	sd	a4,-160(t1) # f60 <.LBB13_3+0xd48>
    3b84:	00075463          	bgez	a4,3b8c <.LBB13_78>
    3b88:	c00007b7          	lui	a5,0xc0000

0000000000003b8c <.LBB13_78>:
    3b8c:	00001737          	lui	a4,0x1
    3b90:	40e40733          	sub	a4,s0,a4
    3b94:	f4f73c23          	sd	a5,-168(a4) # f58 <.LBB13_3+0xd40>
    3b98:	00001737          	lui	a4,0x1
    3b9c:	40e40733          	sub	a4,s0,a4
    3ba0:	6a873703          	ld	a4,1704(a4) # 16a8 <.LBB13_4+0x508>
    3ba4:	82843783          	ld	a5,-2008(s0)
    3ba8:	00e78733          	add	a4,a5,a4
    3bac:	000017b7          	lui	a5,0x1
    3bb0:	40f407b3          	sub	a5,s0,a5
    3bb4:	6a07b783          	ld	a5,1696(a5) # 16a0 <.LBB13_4+0x500>
    3bb8:	40f687bb          	subw	a5,a3,a5
    3bbc:	00f70733          	add	a4,a4,a5
    3bc0:	ff07071b          	addiw	a4,a4,-16
    3bc4:	400007b7          	lui	a5,0x40000
    3bc8:	00001337          	lui	t1,0x1
    3bcc:	40640333          	sub	t1,s0,t1
    3bd0:	f6e33823          	sd	a4,-144(t1) # f70 <.LBB13_3+0xd58>
    3bd4:	00075463          	bgez	a4,3bdc <.LBB13_80>
    3bd8:	c00007b7          	lui	a5,0xc0000

0000000000003bdc <.LBB13_80>:
    3bdc:	00001737          	lui	a4,0x1
    3be0:	40e40733          	sub	a4,s0,a4
    3be4:	f6f73423          	sd	a5,-152(a4) # f68 <.LBB13_3+0xd50>
    3be8:	00001737          	lui	a4,0x1
    3bec:	40e40733          	sub	a4,s0,a4
    3bf0:	69873703          	ld	a4,1688(a4) # 1698 <.LBB13_4+0x4f8>
    3bf4:	83043783          	ld	a5,-2000(s0)
    3bf8:	00e78733          	add	a4,a5,a4
    3bfc:	000017b7          	lui	a5,0x1
    3c00:	40f407b3          	sub	a5,s0,a5
    3c04:	6907b783          	ld	a5,1680(a5) # 1690 <.LBB13_4+0x4f0>
    3c08:	40f687bb          	subw	a5,a3,a5
    3c0c:	00f70733          	add	a4,a4,a5
    3c10:	ff07071b          	addiw	a4,a4,-16
    3c14:	400007b7          	lui	a5,0x40000
    3c18:	00001337          	lui	t1,0x1
    3c1c:	40640333          	sub	t1,s0,t1
    3c20:	f8e33023          	sd	a4,-128(t1) # f80 <.LBB13_3+0xd68>
    3c24:	00075463          	bgez	a4,3c2c <.LBB13_82>
    3c28:	c00007b7          	lui	a5,0xc0000

0000000000003c2c <.LBB13_82>:
    3c2c:	00001737          	lui	a4,0x1
    3c30:	40e40733          	sub	a4,s0,a4
    3c34:	f6f73c23          	sd	a5,-136(a4) # f78 <.LBB13_3+0xd60>
    3c38:	00001737          	lui	a4,0x1
    3c3c:	40e40733          	sub	a4,s0,a4
    3c40:	68873703          	ld	a4,1672(a4) # 1688 <.LBB13_4+0x4e8>
    3c44:	83843783          	ld	a5,-1992(s0)
    3c48:	00e78733          	add	a4,a5,a4
    3c4c:	000017b7          	lui	a5,0x1
    3c50:	40f407b3          	sub	a5,s0,a5
    3c54:	6807b783          	ld	a5,1664(a5) # 1680 <.LBB13_4+0x4e0>
    3c58:	40f687bb          	subw	a5,a3,a5
    3c5c:	00f70733          	add	a4,a4,a5
    3c60:	ff07071b          	addiw	a4,a4,-16
    3c64:	400007b7          	lui	a5,0x40000
    3c68:	00001337          	lui	t1,0x1
    3c6c:	40640333          	sub	t1,s0,t1
    3c70:	f8e33823          	sd	a4,-112(t1) # f90 <.LBB13_3+0xd78>
    3c74:	00075463          	bgez	a4,3c7c <.LBB13_84>
    3c78:	c00007b7          	lui	a5,0xc0000

0000000000003c7c <.LBB13_84>:
    3c7c:	00001737          	lui	a4,0x1
    3c80:	40e40733          	sub	a4,s0,a4
    3c84:	f8f73423          	sd	a5,-120(a4) # f88 <.LBB13_3+0xd70>
    3c88:	00001737          	lui	a4,0x1
    3c8c:	40e40733          	sub	a4,s0,a4
    3c90:	67873703          	ld	a4,1656(a4) # 1678 <.LBB13_4+0x4d8>
    3c94:	84843783          	ld	a5,-1976(s0)
    3c98:	00e78733          	add	a4,a5,a4
    3c9c:	000017b7          	lui	a5,0x1
    3ca0:	40f407b3          	sub	a5,s0,a5
    3ca4:	6707b783          	ld	a5,1648(a5) # 1670 <.LBB13_4+0x4d0>
    3ca8:	40f687bb          	subw	a5,a3,a5
    3cac:	00f70733          	add	a4,a4,a5
    3cb0:	ff07071b          	addiw	a4,a4,-16
    3cb4:	400007b7          	lui	a5,0x40000
    3cb8:	00001337          	lui	t1,0x1
    3cbc:	40640333          	sub	t1,s0,t1
    3cc0:	fae33023          	sd	a4,-96(t1) # fa0 <.LBB13_3+0xd88>
    3cc4:	00075463          	bgez	a4,3ccc <.LBB13_86>
    3cc8:	c00007b7          	lui	a5,0xc0000

0000000000003ccc <.LBB13_86>:
    3ccc:	00001737          	lui	a4,0x1
    3cd0:	40e40733          	sub	a4,s0,a4
    3cd4:	f8f73c23          	sd	a5,-104(a4) # f98 <.LBB13_3+0xd80>
    3cd8:	00001737          	lui	a4,0x1
    3cdc:	40e40733          	sub	a4,s0,a4
    3ce0:	66873703          	ld	a4,1640(a4) # 1668 <.LBB13_4+0x4c8>
    3ce4:	85043783          	ld	a5,-1968(s0)
    3ce8:	00e78733          	add	a4,a5,a4
    3cec:	000017b7          	lui	a5,0x1
    3cf0:	40f407b3          	sub	a5,s0,a5
    3cf4:	6607b783          	ld	a5,1632(a5) # 1660 <.LBB13_4+0x4c0>
    3cf8:	40f687bb          	subw	a5,a3,a5
    3cfc:	00f70733          	add	a4,a4,a5
    3d00:	ff07071b          	addiw	a4,a4,-16
    3d04:	400007b7          	lui	a5,0x40000
    3d08:	00001337          	lui	t1,0x1
    3d0c:	40640333          	sub	t1,s0,t1
    3d10:	fae33823          	sd	a4,-80(t1) # fb0 <.LBB13_3+0xd98>
    3d14:	00075463          	bgez	a4,3d1c <.LBB13_88>
    3d18:	c00007b7          	lui	a5,0xc0000

0000000000003d1c <.LBB13_88>:
    3d1c:	00001737          	lui	a4,0x1
    3d20:	40e40733          	sub	a4,s0,a4
    3d24:	faf73423          	sd	a5,-88(a4) # fa8 <.LBB13_3+0xd90>
    3d28:	00001737          	lui	a4,0x1
    3d2c:	40e40733          	sub	a4,s0,a4
    3d30:	65873703          	ld	a4,1624(a4) # 1658 <.LBB13_4+0x4b8>
    3d34:	85843783          	ld	a5,-1960(s0)
    3d38:	00e78733          	add	a4,a5,a4
    3d3c:	000017b7          	lui	a5,0x1
    3d40:	40f407b3          	sub	a5,s0,a5
    3d44:	7687b783          	ld	a5,1896(a5) # 1768 <.LBB13_5+0xbc>
    3d48:	40f687bb          	subw	a5,a3,a5
    3d4c:	00f70733          	add	a4,a4,a5
    3d50:	ff07071b          	addiw	a4,a4,-16
    3d54:	400007b7          	lui	a5,0x40000
    3d58:	00001337          	lui	t1,0x1
    3d5c:	40640333          	sub	t1,s0,t1
    3d60:	fce33023          	sd	a4,-64(t1) # fc0 <.LBB13_3+0xda8>
    3d64:	00075463          	bgez	a4,3d6c <.LBB13_90>
    3d68:	c00007b7          	lui	a5,0xc0000

0000000000003d6c <.LBB13_90>:
    3d6c:	00001737          	lui	a4,0x1
    3d70:	40e40733          	sub	a4,s0,a4
    3d74:	faf73c23          	sd	a5,-72(a4) # fb8 <.LBB13_3+0xda0>
    3d78:	00001737          	lui	a4,0x1
    3d7c:	40e40733          	sub	a4,s0,a4
    3d80:	73073703          	ld	a4,1840(a4) # 1730 <.LBB13_5+0x84>
    3d84:	86043783          	ld	a5,-1952(s0)
    3d88:	00e78733          	add	a4,a5,a4
    3d8c:	000017b7          	lui	a5,0x1
    3d90:	40f407b3          	sub	a5,s0,a5
    3d94:	6e87b783          	ld	a5,1768(a5) # 16e8 <.LBB13_5+0x3c>
    3d98:	40f687bb          	subw	a5,a3,a5
    3d9c:	00f70733          	add	a4,a4,a5
    3da0:	ff07071b          	addiw	a4,a4,-16
    3da4:	400007b7          	lui	a5,0x40000
    3da8:	00001337          	lui	t1,0x1
    3dac:	40640333          	sub	t1,s0,t1
    3db0:	fce33823          	sd	a4,-48(t1) # fd0 <.LBB13_3+0xdb8>
    3db4:	00075463          	bgez	a4,3dbc <.LBB13_92>
    3db8:	c00007b7          	lui	a5,0xc0000

0000000000003dbc <.LBB13_92>:
    3dbc:	00001737          	lui	a4,0x1
    3dc0:	40e40733          	sub	a4,s0,a4
    3dc4:	fcf73423          	sd	a5,-56(a4) # fc8 <.LBB13_3+0xdb0>
    3dc8:	86843703          	ld	a4,-1944(s0)
    3dcc:	01070733          	add	a4,a4,a6
    3dd0:	000017b7          	lui	a5,0x1
    3dd4:	40f407b3          	sub	a5,s0,a5
    3dd8:	6f07b783          	ld	a5,1776(a5) # 16f0 <.LBB13_5+0x44>
    3ddc:	40f687bb          	subw	a5,a3,a5
    3de0:	00f70733          	add	a4,a4,a5
    3de4:	ff07071b          	addiw	a4,a4,-16
    3de8:	400007b7          	lui	a5,0x40000
    3dec:	00001337          	lui	t1,0x1
    3df0:	40640333          	sub	t1,s0,t1
    3df4:	fee33023          	sd	a4,-32(t1) # fe0 <.LBB13_3+0xdc8>
    3df8:	00075463          	bgez	a4,3e00 <.LBB13_94>
    3dfc:	c00007b7          	lui	a5,0xc0000

0000000000003e00 <.LBB13_94>:
    3e00:	00001737          	lui	a4,0x1
    3e04:	40e40733          	sub	a4,s0,a4
    3e08:	fcf73c23          	sd	a5,-40(a4) # fd8 <.LBB13_3+0xdc0>
    3e0c:	00001737          	lui	a4,0x1
    3e10:	40e40733          	sub	a4,s0,a4
    3e14:	74873703          	ld	a4,1864(a4) # 1748 <.LBB13_5+0x9c>
    3e18:	87043783          	ld	a5,-1936(s0)
    3e1c:	00e78733          	add	a4,a5,a4
    3e20:	000017b7          	lui	a5,0x1
    3e24:	40f407b3          	sub	a5,s0,a5
    3e28:	6f87b783          	ld	a5,1784(a5) # 16f8 <.LBB13_5+0x4c>
    3e2c:	40f687bb          	subw	a5,a3,a5
    3e30:	00f70733          	add	a4,a4,a5
    3e34:	ff07071b          	addiw	a4,a4,-16
    3e38:	400007b7          	lui	a5,0x40000
    3e3c:	00001337          	lui	t1,0x1
    3e40:	40640333          	sub	t1,s0,t1
    3e44:	fee33823          	sd	a4,-16(t1) # ff0 <.LBB13_3+0xdd8>
    3e48:	00075463          	bgez	a4,3e50 <.LBB13_96>
    3e4c:	c00007b7          	lui	a5,0xc0000

0000000000003e50 <.LBB13_96>:
    3e50:	00001737          	lui	a4,0x1
    3e54:	40e40733          	sub	a4,s0,a4
    3e58:	fef73423          	sd	a5,-24(a4) # fe8 <.LBB13_3+0xdd0>
    3e5c:	00001737          	lui	a4,0x1
    3e60:	40e40733          	sub	a4,s0,a4
    3e64:	75073703          	ld	a4,1872(a4) # 1750 <.LBB13_5+0xa4>
    3e68:	87843783          	ld	a5,-1928(s0)
    3e6c:	00e78733          	add	a4,a5,a4
    3e70:	000017b7          	lui	a5,0x1
    3e74:	40f407b3          	sub	a5,s0,a5
    3e78:	7207b783          	ld	a5,1824(a5) # 1720 <.LBB13_5+0x74>
    3e7c:	40f687bb          	subw	a5,a3,a5
    3e80:	00f70733          	add	a4,a4,a5
    3e84:	ff07071b          	addiw	a4,a4,-16
    3e88:	400007b7          	lui	a5,0x40000
    3e8c:	00001337          	lui	t1,0x1
    3e90:	40640333          	sub	t1,s0,t1
    3e94:	00e33023          	sd	a4,0(t1) # 1000 <.LBB13_3+0xde8>
    3e98:	00075463          	bgez	a4,3ea0 <.LBB13_98>
    3e9c:	c00007b7          	lui	a5,0xc0000

0000000000003ea0 <.LBB13_98>:
    3ea0:	00001737          	lui	a4,0x1
    3ea4:	40e40733          	sub	a4,s0,a4
    3ea8:	fef73c23          	sd	a5,-8(a4) # ff8 <.LBB13_3+0xde0>
    3eac:	00001737          	lui	a4,0x1
    3eb0:	40e40733          	sub	a4,s0,a4
    3eb4:	76073703          	ld	a4,1888(a4) # 1760 <.LBB13_5+0xb4>
    3eb8:	88043783          	ld	a5,-1920(s0)
    3ebc:	00e78733          	add	a4,a5,a4
    3ec0:	000017b7          	lui	a5,0x1
    3ec4:	40f407b3          	sub	a5,s0,a5
    3ec8:	7287b783          	ld	a5,1832(a5) # 1728 <.LBB13_5+0x7c>
    3ecc:	40f687bb          	subw	a5,a3,a5
    3ed0:	00f70733          	add	a4,a4,a5
    3ed4:	ff07071b          	addiw	a4,a4,-16
    3ed8:	400007b7          	lui	a5,0x40000
    3edc:	00001337          	lui	t1,0x1
    3ee0:	40640333          	sub	t1,s0,t1
    3ee4:	00e33823          	sd	a4,16(t1) # 1010 <.LBB13_3+0xdf8>
    3ee8:	00075463          	bgez	a4,3ef0 <.LBB13_100>
    3eec:	c00007b7          	lui	a5,0xc0000

0000000000003ef0 <.LBB13_100>:
    3ef0:	00001737          	lui	a4,0x1
    3ef4:	40e40733          	sub	a4,s0,a4
    3ef8:	00f73423          	sd	a5,8(a4) # 1008 <.LBB13_3+0xdf0>
    3efc:	e8043703          	ld	a4,-384(s0)
    3f00:	88843783          	ld	a5,-1912(s0)
    3f04:	00e78733          	add	a4,a5,a4
    3f08:	000017b7          	lui	a5,0x1
    3f0c:	40f407b3          	sub	a5,s0,a5
    3f10:	7387b783          	ld	a5,1848(a5) # 1738 <.LBB13_5+0x8c>
    3f14:	40f687bb          	subw	a5,a3,a5
    3f18:	00f70733          	add	a4,a4,a5
    3f1c:	ff07071b          	addiw	a4,a4,-16
    3f20:	400007b7          	lui	a5,0x40000
    3f24:	00001337          	lui	t1,0x1
    3f28:	40640333          	sub	t1,s0,t1
    3f2c:	02e33023          	sd	a4,32(t1) # 1020 <.LBB13_3+0xe08>
    3f30:	00075463          	bgez	a4,3f38 <.LBB13_102>
    3f34:	c00007b7          	lui	a5,0xc0000

0000000000003f38 <.LBB13_102>:
    3f38:	00001737          	lui	a4,0x1
    3f3c:	40e40733          	sub	a4,s0,a4
    3f40:	00f73c23          	sd	a5,24(a4) # 1018 <.LBB13_3+0xe00>
    3f44:	e9043703          	ld	a4,-368(s0)
    3f48:	89043783          	ld	a5,-1904(s0)
    3f4c:	00e78733          	add	a4,a5,a4
    3f50:	000017b7          	lui	a5,0x1
    3f54:	40f407b3          	sub	a5,s0,a5
    3f58:	7407b783          	ld	a5,1856(a5) # 1740 <.LBB13_5+0x94>
    3f5c:	40f687bb          	subw	a5,a3,a5
    3f60:	00f70733          	add	a4,a4,a5
    3f64:	ff07071b          	addiw	a4,a4,-16
    3f68:	400007b7          	lui	a5,0x40000
    3f6c:	00001337          	lui	t1,0x1
    3f70:	40640333          	sub	t1,s0,t1
    3f74:	02e33823          	sd	a4,48(t1) # 1030 <.LBB13_3+0xe18>
    3f78:	00075463          	bgez	a4,3f80 <.LBB13_104>
    3f7c:	c00007b7          	lui	a5,0xc0000

0000000000003f80 <.LBB13_104>:
    3f80:	00001737          	lui	a4,0x1
    3f84:	40e40733          	sub	a4,s0,a4
    3f88:	02f73423          	sd	a5,40(a4) # 1028 <.LBB13_3+0xe10>
    3f8c:	ea043703          	ld	a4,-352(s0)
    3f90:	89843783          	ld	a5,-1896(s0)
    3f94:	00e78733          	add	a4,a5,a4
    3f98:	000017b7          	lui	a5,0x1
    3f9c:	40f407b3          	sub	a5,s0,a5
    3fa0:	7587b783          	ld	a5,1880(a5) # 1758 <.LBB13_5+0xac>
    3fa4:	40f687bb          	subw	a5,a3,a5
    3fa8:	00f70733          	add	a4,a4,a5
    3fac:	ff07071b          	addiw	a4,a4,-16
    3fb0:	400007b7          	lui	a5,0x40000
    3fb4:	86e43423          	sd	a4,-1944(s0)
    3fb8:	00075463          	bgez	a4,3fc0 <.LBB13_106>
    3fbc:	c00007b7          	lui	a5,0xc0000

0000000000003fc0 <.LBB13_106>:
    3fc0:	00001737          	lui	a4,0x1
    3fc4:	40e40733          	sub	a4,s0,a4
    3fc8:	02f73c23          	sd	a5,56(a4) # 1038 <.LBB13_3+0xe20>
    3fcc:	eb043703          	ld	a4,-336(s0)
    3fd0:	8a043783          	ld	a5,-1888(s0)
    3fd4:	00e78733          	add	a4,a5,a4
    3fd8:	e7843783          	ld	a5,-392(s0)
    3fdc:	40f687bb          	subw	a5,a3,a5
    3fe0:	00f70733          	add	a4,a4,a5
    3fe4:	ff07071b          	addiw	a4,a4,-16
    3fe8:	400007b7          	lui	a5,0x40000
    3fec:	00001337          	lui	t1,0x1
    3ff0:	40640333          	sub	t1,s0,t1
    3ff4:	04e33423          	sd	a4,72(t1) # 1048 <.LBB13_3+0xe30>
    3ff8:	00075463          	bgez	a4,4000 <.LBB13_108>
    3ffc:	c00007b7          	lui	a5,0xc0000

0000000000004000 <.LBB13_108>:
    4000:	00001737          	lui	a4,0x1
    4004:	40e40733          	sub	a4,s0,a4
    4008:	04f73023          	sd	a5,64(a4) # 1040 <.LBB13_3+0xe28>
    400c:	eb843703          	ld	a4,-328(s0)
    4010:	8a843783          	ld	a5,-1880(s0)
    4014:	00e78733          	add	a4,a5,a4
    4018:	e8843783          	ld	a5,-376(s0)
    401c:	40f687bb          	subw	a5,a3,a5
    4020:	00f70733          	add	a4,a4,a5
    4024:	ff07071b          	addiw	a4,a4,-16
    4028:	400007b7          	lui	a5,0x40000
    402c:	00001337          	lui	t1,0x1
    4030:	40640333          	sub	t1,s0,t1
    4034:	04e33c23          	sd	a4,88(t1) # 1058 <.LBB13_3+0xe40>
    4038:	00075463          	bgez	a4,4040 <.LBB13_110>
    403c:	c00007b7          	lui	a5,0xc0000

0000000000004040 <.LBB13_110>:
    4040:	00001737          	lui	a4,0x1
    4044:	40e40733          	sub	a4,s0,a4
    4048:	04f73823          	sd	a5,80(a4) # 1050 <.LBB13_3+0xe38>
    404c:	ec843703          	ld	a4,-312(s0)
    4050:	8b043783          	ld	a5,-1872(s0)
    4054:	00e78733          	add	a4,a5,a4
    4058:	e9843783          	ld	a5,-360(s0)
    405c:	40f687bb          	subw	a5,a3,a5
    4060:	00f70733          	add	a4,a4,a5
    4064:	ff07071b          	addiw	a4,a4,-16
    4068:	400007b7          	lui	a5,0x40000
    406c:	00001337          	lui	t1,0x1
    4070:	40640333          	sub	t1,s0,t1
    4074:	7ae33023          	sd	a4,1952(t1) # 17a0 <.LBB13_5+0xf4>
    4078:	00075463          	bgez	a4,4080 <.LBB13_112>
    407c:	c00007b7          	lui	a5,0xc0000

0000000000004080 <.LBB13_112>:
    4080:	00001737          	lui	a4,0x1
    4084:	40e40733          	sub	a4,s0,a4
    4088:	06f73023          	sd	a5,96(a4) # 1060 <.LBB13_3+0xe48>
    408c:	ed843703          	ld	a4,-296(s0)
    4090:	8b843783          	ld	a5,-1864(s0)
    4094:	00e78733          	add	a4,a5,a4
    4098:	ea843783          	ld	a5,-344(s0)
    409c:	40f687bb          	subw	a5,a3,a5
    40a0:	00f70733          	add	a4,a4,a5
    40a4:	ff07071b          	addiw	a4,a4,-16
    40a8:	400007b7          	lui	a5,0x40000
    40ac:	00001337          	lui	t1,0x1
    40b0:	40640333          	sub	t1,s0,t1
    40b4:	06e33823          	sd	a4,112(t1) # 1070 <.LBB13_3+0xe58>
    40b8:	00075463          	bgez	a4,40c0 <.LBB13_114>
    40bc:	c00007b7          	lui	a5,0xc0000

00000000000040c0 <.LBB13_114>:
    40c0:	00001737          	lui	a4,0x1
    40c4:	40e40733          	sub	a4,s0,a4
    40c8:	06f73423          	sd	a5,104(a4) # 1068 <.LBB13_3+0xe50>
    40cc:	ee843703          	ld	a4,-280(s0)
    40d0:	8c043783          	ld	a5,-1856(s0)
    40d4:	00e78733          	add	a4,a5,a4
    40d8:	ec043783          	ld	a5,-320(s0)
    40dc:	40f687bb          	subw	a5,a3,a5
    40e0:	00f70733          	add	a4,a4,a5
    40e4:	ff07071b          	addiw	a4,a4,-16
    40e8:	400007b7          	lui	a5,0x40000
    40ec:	00001337          	lui	t1,0x1
    40f0:	40640333          	sub	t1,s0,t1
    40f4:	08e33023          	sd	a4,128(t1) # 1080 <.LBB13_3+0xe68>
    40f8:	00075463          	bgez	a4,4100 <.LBB13_116>
    40fc:	c00007b7          	lui	a5,0xc0000

0000000000004100 <.LBB13_116>:
    4100:	00001737          	lui	a4,0x1
    4104:	40e40733          	sub	a4,s0,a4
    4108:	06f73c23          	sd	a5,120(a4) # 1078 <.LBB13_3+0xe60>
    410c:	ef843703          	ld	a4,-264(s0)
    4110:	8c843783          	ld	a5,-1848(s0)
    4114:	00e78733          	add	a4,a5,a4
    4118:	ed043783          	ld	a5,-304(s0)
    411c:	40f687bb          	subw	a5,a3,a5
    4120:	00f70733          	add	a4,a4,a5
    4124:	ff07071b          	addiw	a4,a4,-16
    4128:	400007b7          	lui	a5,0x40000
    412c:	00001337          	lui	t1,0x1
    4130:	40640333          	sub	t1,s0,t1
    4134:	08e33823          	sd	a4,144(t1) # 1090 <.LBB13_3+0xe78>
    4138:	00075463          	bgez	a4,4140 <.LBB13_118>
    413c:	c00007b7          	lui	a5,0xc0000

0000000000004140 <.LBB13_118>:
    4140:	00001737          	lui	a4,0x1
    4144:	40e40733          	sub	a4,s0,a4
    4148:	08f73423          	sd	a5,136(a4) # 1088 <.LBB13_3+0xe70>
    414c:	f0043703          	ld	a4,-256(s0)
    4150:	8d043783          	ld	a5,-1840(s0)
    4154:	00e78733          	add	a4,a5,a4
    4158:	ee043783          	ld	a5,-288(s0)
    415c:	40f687bb          	subw	a5,a3,a5
    4160:	00f70733          	add	a4,a4,a5
    4164:	ff07071b          	addiw	a4,a4,-16
    4168:	400007b7          	lui	a5,0x40000
    416c:	00001337          	lui	t1,0x1
    4170:	40640333          	sub	t1,s0,t1
    4174:	0ae33023          	sd	a4,160(t1) # 10a0 <.LBB13_3+0xe88>
    4178:	00075463          	bgez	a4,4180 <.LBB13_120>
    417c:	c00007b7          	lui	a5,0xc0000

0000000000004180 <.LBB13_120>:
    4180:	00001737          	lui	a4,0x1
    4184:	40e40733          	sub	a4,s0,a4
    4188:	08f73c23          	sd	a5,152(a4) # 1098 <.LBB13_3+0xe80>
    418c:	f1043703          	ld	a4,-240(s0)
    4190:	8d843783          	ld	a5,-1832(s0)
    4194:	00e78733          	add	a4,a5,a4
    4198:	ef043783          	ld	a5,-272(s0)
    419c:	40f687bb          	subw	a5,a3,a5
    41a0:	00f70733          	add	a4,a4,a5
    41a4:	ff07071b          	addiw	a4,a4,-16
    41a8:	400007b7          	lui	a5,0x40000
    41ac:	00001337          	lui	t1,0x1
    41b0:	40640333          	sub	t1,s0,t1
    41b4:	0ae33823          	sd	a4,176(t1) # 10b0 <.LBB13_3+0xe98>
    41b8:	00075463          	bgez	a4,41c0 <.LBB13_122>
    41bc:	c00007b7          	lui	a5,0xc0000

00000000000041c0 <.LBB13_122>:
    41c0:	00001737          	lui	a4,0x1
    41c4:	40e40733          	sub	a4,s0,a4
    41c8:	0af73423          	sd	a5,168(a4) # 10a8 <.LBB13_3+0xe90>
    41cc:	f3843703          	ld	a4,-200(s0)
    41d0:	8e043783          	ld	a5,-1824(s0)
    41d4:	00e78733          	add	a4,a5,a4
    41d8:	f0843783          	ld	a5,-248(s0)
    41dc:	40f687bb          	subw	a5,a3,a5
    41e0:	00f70733          	add	a4,a4,a5
    41e4:	ff07071b          	addiw	a4,a4,-16
    41e8:	400007b7          	lui	a5,0x40000
    41ec:	00001337          	lui	t1,0x1
    41f0:	40640333          	sub	t1,s0,t1
    41f4:	0ce33023          	sd	a4,192(t1) # 10c0 <.LBB13_3+0xea8>
    41f8:	00075463          	bgez	a4,4200 <.LBB13_124>
    41fc:	c00007b7          	lui	a5,0xc0000

0000000000004200 <.LBB13_124>:
    4200:	00001737          	lui	a4,0x1
    4204:	40e40733          	sub	a4,s0,a4
    4208:	0af73c23          	sd	a5,184(a4) # 10b8 <.LBB13_3+0xea0>
    420c:	f4843703          	ld	a4,-184(s0)
    4210:	8e843783          	ld	a5,-1816(s0)
    4214:	00e78733          	add	a4,a5,a4
    4218:	f3043783          	ld	a5,-208(s0)
    421c:	40f687bb          	subw	a5,a3,a5
    4220:	00f70733          	add	a4,a4,a5
    4224:	ff07071b          	addiw	a4,a4,-16
    4228:	400007b7          	lui	a5,0x40000
    422c:	00001337          	lui	t1,0x1
    4230:	40640333          	sub	t1,s0,t1
    4234:	0ce33823          	sd	a4,208(t1) # 10d0 <.LBB13_3+0xeb8>
    4238:	00075463          	bgez	a4,4240 <.LBB13_126>
    423c:	c00007b7          	lui	a5,0xc0000

0000000000004240 <.LBB13_126>:
    4240:	00001737          	lui	a4,0x1
    4244:	40e40733          	sub	a4,s0,a4
    4248:	0cf73423          	sd	a5,200(a4) # 10c8 <.LBB13_3+0xeb0>
    424c:	f5843703          	ld	a4,-168(s0)
    4250:	8f043783          	ld	a5,-1808(s0)
    4254:	00e78733          	add	a4,a5,a4
    4258:	f4043783          	ld	a5,-192(s0)
    425c:	40f687bb          	subw	a5,a3,a5
    4260:	00f70733          	add	a4,a4,a5
    4264:	ff07071b          	addiw	a4,a4,-16
    4268:	400007b7          	lui	a5,0x40000
    426c:	00001337          	lui	t1,0x1
    4270:	40640333          	sub	t1,s0,t1
    4274:	0ee33023          	sd	a4,224(t1) # 10e0 <.LBB13_3+0xec8>
    4278:	00075463          	bgez	a4,4280 <.LBB13_128>
    427c:	c00007b7          	lui	a5,0xc0000

0000000000004280 <.LBB13_128>:
    4280:	00001737          	lui	a4,0x1
    4284:	40e40733          	sub	a4,s0,a4
    4288:	0cf73c23          	sd	a5,216(a4) # 10d8 <.LBB13_3+0xec0>
    428c:	f6843703          	ld	a4,-152(s0)
    4290:	8f843783          	ld	a5,-1800(s0)
    4294:	00e78733          	add	a4,a5,a4
    4298:	f5043783          	ld	a5,-176(s0)
    429c:	40f687bb          	subw	a5,a3,a5
    42a0:	00f70733          	add	a4,a4,a5
    42a4:	ff07071b          	addiw	a4,a4,-16
    42a8:	400007b7          	lui	a5,0x40000
    42ac:	00001337          	lui	t1,0x1
    42b0:	40640333          	sub	t1,s0,t1
    42b4:	0ee33823          	sd	a4,240(t1) # 10f0 <.LBB13_3+0xed8>
    42b8:	00075463          	bgez	a4,42c0 <.LBB13_130>
    42bc:	c00007b7          	lui	a5,0xc0000

00000000000042c0 <.LBB13_130>:
    42c0:	00001737          	lui	a4,0x1
    42c4:	40e40733          	sub	a4,s0,a4
    42c8:	0ef73423          	sd	a5,232(a4) # 10e8 <.LBB13_3+0xed0>
    42cc:	f7043703          	ld	a4,-144(s0)
    42d0:	90043783          	ld	a5,-1792(s0)
    42d4:	00e78733          	add	a4,a5,a4
    42d8:	f6043783          	ld	a5,-160(s0)
    42dc:	40f687bb          	subw	a5,a3,a5
    42e0:	00f70733          	add	a4,a4,a5
    42e4:	ff07071b          	addiw	a4,a4,-16
    42e8:	400007b7          	lui	a5,0x40000
    42ec:	00001337          	lui	t1,0x1
    42f0:	40640333          	sub	t1,s0,t1
    42f4:	10e33023          	sd	a4,256(t1) # 1100 <.LBB13_3+0xee8>
    42f8:	00075463          	bgez	a4,4300 <.LBB13_132>
    42fc:	c00007b7          	lui	a5,0xc0000

0000000000004300 <.LBB13_132>:
    4300:	00001737          	lui	a4,0x1
    4304:	40e40733          	sub	a4,s0,a4
    4308:	0ef73c23          	sd	a5,248(a4) # 10f8 <.LBB13_3+0xee0>
    430c:	f8043703          	ld	a4,-128(s0)
    4310:	90843783          	ld	a5,-1784(s0)
    4314:	00e78733          	add	a4,a5,a4
    4318:	f7843783          	ld	a5,-136(s0)
    431c:	40f686bb          	subw	a3,a3,a5
    4320:	00d706b3          	add	a3,a4,a3
    4324:	ff06869b          	addiw	a3,a3,-16
    4328:	40000737          	lui	a4,0x40000
    432c:	000017b7          	lui	a5,0x1
    4330:	40f407b3          	sub	a5,s0,a5
    4334:	10d7b823          	sd	a3,272(a5) # 1110 <.LBB13_3+0xef8>
    4338:	0006d463          	bgez	a3,4340 <.LBB13_134>
    433c:	c0000737          	lui	a4,0xc0000

0000000000004340 <.LBB13_134>:
    4340:	000016b7          	lui	a3,0x1
    4344:	40d406b3          	sub	a3,s0,a3
    4348:	10e6b423          	sd	a4,264(a3) # 1108 <.LBB13_3+0xef0>
    434c:	000016b7          	lui	a3,0x1
    4350:	40d406b3          	sub	a3,s0,a3
    4354:	6e06b683          	ld	a3,1760(a3) # 16e0 <.LBB13_5+0x34>
    4358:	91043703          	ld	a4,-1776(s0)
    435c:	00d706b3          	add	a3,a4,a3
    4360:	00001737          	lui	a4,0x1
    4364:	40e40733          	sub	a4,s0,a4
    4368:	6d873703          	ld	a4,1752(a4) # 16d8 <.LBB13_5+0x2c>
    436c:	40e6073b          	subw	a4,a2,a4
    4370:	00e686b3          	add	a3,a3,a4
    4374:	ff06869b          	addiw	a3,a3,-16
    4378:	40000737          	lui	a4,0x40000
    437c:	000017b7          	lui	a5,0x1
    4380:	40f407b3          	sub	a5,s0,a5
    4384:	12d7b023          	sd	a3,288(a5) # 1120 <.LBB13_3+0xf08>
    4388:	000017b7          	lui	a5,0x1
    438c:	40f407b3          	sub	a5,s0,a5
    4390:	6407b783          	ld	a5,1600(a5) # 1640 <.LBB13_4+0x4a0>
    4394:	0006d463          	bgez	a3,439c <.LBB13_136>
    4398:	c0000737          	lui	a4,0xc0000

000000000000439c <.LBB13_136>:
    439c:	000016b7          	lui	a3,0x1
    43a0:	40d406b3          	sub	a3,s0,a3
    43a4:	10e6bc23          	sd	a4,280(a3) # 1118 <.LBB13_3+0xf00>
    43a8:	000016b7          	lui	a3,0x1
    43ac:	40d406b3          	sub	a3,s0,a3
    43b0:	6d06b683          	ld	a3,1744(a3) # 16d0 <.LBB13_5+0x24>
    43b4:	91843703          	ld	a4,-1768(s0)
    43b8:	00d706b3          	add	a3,a4,a3
    43bc:	00001737          	lui	a4,0x1
    43c0:	40e40733          	sub	a4,s0,a4
    43c4:	6c873703          	ld	a4,1736(a4) # 16c8 <.LBB13_5+0x1c>
    43c8:	40e6073b          	subw	a4,a2,a4
    43cc:	00e686b3          	add	a3,a3,a4
    43d0:	ff06869b          	addiw	a3,a3,-16
    43d4:	40000737          	lui	a4,0x40000
    43d8:	00001337          	lui	t1,0x1
    43dc:	40640333          	sub	t1,s0,t1
    43e0:	12d33823          	sd	a3,304(t1) # 1130 <.LBB13_3+0xf18>
    43e4:	0006d463          	bgez	a3,43ec <.LBB13_138>
    43e8:	c0000737          	lui	a4,0xc0000

00000000000043ec <.LBB13_138>:
    43ec:	000016b7          	lui	a3,0x1
    43f0:	40d406b3          	sub	a3,s0,a3
    43f4:	12e6b423          	sd	a4,296(a3) # 1128 <.LBB13_3+0xf10>
    43f8:	000016b7          	lui	a3,0x1
    43fc:	40d406b3          	sub	a3,s0,a3
    4400:	6c06b683          	ld	a3,1728(a3) # 16c0 <.LBB13_5+0x14>
    4404:	92043703          	ld	a4,-1760(s0)
    4408:	00d706b3          	add	a3,a4,a3
    440c:	00001737          	lui	a4,0x1
    4410:	40e40733          	sub	a4,s0,a4
    4414:	6b873703          	ld	a4,1720(a4) # 16b8 <.LBB13_5+0xc>
    4418:	40e6073b          	subw	a4,a2,a4
    441c:	00e686b3          	add	a3,a3,a4
    4420:	ff06869b          	addiw	a3,a3,-16
    4424:	40000737          	lui	a4,0x40000
    4428:	00001337          	lui	t1,0x1
    442c:	40640333          	sub	t1,s0,t1
    4430:	14d33023          	sd	a3,320(t1) # 1140 <.LBB13_3+0xf28>
    4434:	0006d463          	bgez	a3,443c <.LBB13_140>
    4438:	c0000737          	lui	a4,0xc0000

000000000000443c <.LBB13_140>:
    443c:	000016b7          	lui	a3,0x1
    4440:	40d406b3          	sub	a3,s0,a3
    4444:	12e6bc23          	sd	a4,312(a3) # 1138 <.LBB13_3+0xf20>
    4448:	92843683          	ld	a3,-1752(s0)
    444c:	00f686b3          	add	a3,a3,a5
    4450:	00001737          	lui	a4,0x1
    4454:	40e40733          	sub	a4,s0,a4
    4458:	6b073703          	ld	a4,1712(a4) # 16b0 <.LBB13_5+0x4>
    445c:	40e6073b          	subw	a4,a2,a4
    4460:	00e686b3          	add	a3,a3,a4
    4464:	ff06869b          	addiw	a3,a3,-16
    4468:	40000737          	lui	a4,0x40000
    446c:	00001337          	lui	t1,0x1
    4470:	40640333          	sub	t1,s0,t1
    4474:	14d33823          	sd	a3,336(t1) # 1150 <.LBB13_3+0xf38>
    4478:	0006d463          	bgez	a3,4480 <.LBB13_142>
    447c:	c0000737          	lui	a4,0xc0000

0000000000004480 <.LBB13_142>:
    4480:	000016b7          	lui	a3,0x1
    4484:	40d406b3          	sub	a3,s0,a3
    4488:	14e6b423          	sd	a4,328(a3) # 1148 <.LBB13_3+0xf30>
    448c:	000016b7          	lui	a3,0x1
    4490:	40d406b3          	sub	a3,s0,a3
    4494:	6a86b683          	ld	a3,1704(a3) # 16a8 <.LBB13_4+0x508>
    4498:	93043703          	ld	a4,-1744(s0)
    449c:	00d706b3          	add	a3,a4,a3
    44a0:	00001737          	lui	a4,0x1
    44a4:	40e40733          	sub	a4,s0,a4
    44a8:	6a073703          	ld	a4,1696(a4) # 16a0 <.LBB13_4+0x500>
    44ac:	40e6073b          	subw	a4,a2,a4
    44b0:	00e686b3          	add	a3,a3,a4
    44b4:	ff06869b          	addiw	a3,a3,-16
    44b8:	40000737          	lui	a4,0x40000
    44bc:	00001337          	lui	t1,0x1
    44c0:	40640333          	sub	t1,s0,t1
    44c4:	16d33023          	sd	a3,352(t1) # 1160 <.LBB13_3+0xf48>
    44c8:	0006d463          	bgez	a3,44d0 <.LBB13_144>
    44cc:	c0000737          	lui	a4,0xc0000

00000000000044d0 <.LBB13_144>:
    44d0:	000016b7          	lui	a3,0x1
    44d4:	40d406b3          	sub	a3,s0,a3
    44d8:	14e6bc23          	sd	a4,344(a3) # 1158 <.LBB13_3+0xf40>
    44dc:	000016b7          	lui	a3,0x1
    44e0:	40d406b3          	sub	a3,s0,a3
    44e4:	6986b683          	ld	a3,1688(a3) # 1698 <.LBB13_4+0x4f8>
    44e8:	93843703          	ld	a4,-1736(s0)
    44ec:	00d706b3          	add	a3,a4,a3
    44f0:	00001737          	lui	a4,0x1
    44f4:	40e40733          	sub	a4,s0,a4
    44f8:	69073703          	ld	a4,1680(a4) # 1690 <.LBB13_4+0x4f0>
    44fc:	40e6073b          	subw	a4,a2,a4
    4500:	00e686b3          	add	a3,a3,a4
    4504:	ff06869b          	addiw	a3,a3,-16
    4508:	40000737          	lui	a4,0x40000
    450c:	00001337          	lui	t1,0x1
    4510:	40640333          	sub	t1,s0,t1
    4514:	16d33823          	sd	a3,368(t1) # 1170 <.LBB13_3+0xf58>
    4518:	0006d463          	bgez	a3,4520 <.LBB13_146>
    451c:	c0000737          	lui	a4,0xc0000

0000000000004520 <.LBB13_146>:
    4520:	000016b7          	lui	a3,0x1
    4524:	40d406b3          	sub	a3,s0,a3
    4528:	16e6b423          	sd	a4,360(a3) # 1168 <.LBB13_3+0xf50>
    452c:	000016b7          	lui	a3,0x1
    4530:	40d406b3          	sub	a3,s0,a3
    4534:	6886b683          	ld	a3,1672(a3) # 1688 <.LBB13_4+0x4e8>
    4538:	94043703          	ld	a4,-1728(s0)
    453c:	00d706b3          	add	a3,a4,a3
    4540:	00001737          	lui	a4,0x1
    4544:	40e40733          	sub	a4,s0,a4
    4548:	68073703          	ld	a4,1664(a4) # 1680 <.LBB13_4+0x4e0>
    454c:	40e6073b          	subw	a4,a2,a4
    4550:	00e686b3          	add	a3,a3,a4
    4554:	ff06869b          	addiw	a3,a3,-16
    4558:	40000737          	lui	a4,0x40000
    455c:	00001337          	lui	t1,0x1
    4560:	40640333          	sub	t1,s0,t1
    4564:	18d33023          	sd	a3,384(t1) # 1180 <.LBB13_3+0xf68>
    4568:	0006d463          	bgez	a3,4570 <.LBB13_148>
    456c:	c0000737          	lui	a4,0xc0000

0000000000004570 <.LBB13_148>:
    4570:	000016b7          	lui	a3,0x1
    4574:	40d406b3          	sub	a3,s0,a3
    4578:	16e6bc23          	sd	a4,376(a3) # 1178 <.LBB13_3+0xf60>
    457c:	000016b7          	lui	a3,0x1
    4580:	40d406b3          	sub	a3,s0,a3
    4584:	6786b683          	ld	a3,1656(a3) # 1678 <.LBB13_4+0x4d8>
    4588:	94843703          	ld	a4,-1720(s0)
    458c:	00d706b3          	add	a3,a4,a3
    4590:	00001737          	lui	a4,0x1
    4594:	40e40733          	sub	a4,s0,a4
    4598:	67073703          	ld	a4,1648(a4) # 1670 <.LBB13_4+0x4d0>
    459c:	40e6073b          	subw	a4,a2,a4
    45a0:	00e686b3          	add	a3,a3,a4
    45a4:	ff06869b          	addiw	a3,a3,-16
    45a8:	40000737          	lui	a4,0x40000
    45ac:	00001337          	lui	t1,0x1
    45b0:	40640333          	sub	t1,s0,t1
    45b4:	18d33823          	sd	a3,400(t1) # 1190 <.LBB13_3+0xf78>
    45b8:	0006d463          	bgez	a3,45c0 <.LBB13_150>
    45bc:	c0000737          	lui	a4,0xc0000

00000000000045c0 <.LBB13_150>:
    45c0:	000016b7          	lui	a3,0x1
    45c4:	40d406b3          	sub	a3,s0,a3
    45c8:	18e6b423          	sd	a4,392(a3) # 1188 <.LBB13_3+0xf70>
    45cc:	000016b7          	lui	a3,0x1
    45d0:	40d406b3          	sub	a3,s0,a3
    45d4:	6686b683          	ld	a3,1640(a3) # 1668 <.LBB13_4+0x4c8>
    45d8:	95043703          	ld	a4,-1712(s0)
    45dc:	00d706b3          	add	a3,a4,a3
    45e0:	00001737          	lui	a4,0x1
    45e4:	40e40733          	sub	a4,s0,a4
    45e8:	66073703          	ld	a4,1632(a4) # 1660 <.LBB13_4+0x4c0>
    45ec:	40e6073b          	subw	a4,a2,a4
    45f0:	00e686b3          	add	a3,a3,a4
    45f4:	ff06869b          	addiw	a3,a3,-16
    45f8:	40000737          	lui	a4,0x40000
    45fc:	00001337          	lui	t1,0x1
    4600:	40640333          	sub	t1,s0,t1
    4604:	1ad33023          	sd	a3,416(t1) # 11a0 <.LBB13_4>
    4608:	0006d463          	bgez	a3,4610 <.LBB13_152>
    460c:	c0000737          	lui	a4,0xc0000

0000000000004610 <.LBB13_152>:
    4610:	000016b7          	lui	a3,0x1
    4614:	40d406b3          	sub	a3,s0,a3
    4618:	18e6bc23          	sd	a4,408(a3) # 1198 <.LBB13_3+0xf80>
    461c:	95843683          	ld	a3,-1704(s0)
    4620:	00001737          	lui	a4,0x1
    4624:	40e40733          	sub	a4,s0,a4
    4628:	65873703          	ld	a4,1624(a4) # 1658 <.LBB13_4+0x4b8>
    462c:	00e686b3          	add	a3,a3,a4
    4630:	00001737          	lui	a4,0x1
    4634:	40e40733          	sub	a4,s0,a4
    4638:	76873703          	ld	a4,1896(a4) # 1768 <.LBB13_5+0xbc>
    463c:	40e6073b          	subw	a4,a2,a4
    4640:	00e686b3          	add	a3,a3,a4
    4644:	ff06869b          	addiw	a3,a3,-16
    4648:	40000737          	lui	a4,0x40000
    464c:	00001337          	lui	t1,0x1
    4650:	40640333          	sub	t1,s0,t1
    4654:	1ad33823          	sd	a3,432(t1) # 11b0 <.LBB13_4+0x10>
    4658:	0006d463          	bgez	a3,4660 <.LBB13_154>
    465c:	c0000737          	lui	a4,0xc0000

0000000000004660 <.LBB13_154>:
    4660:	000016b7          	lui	a3,0x1
    4664:	40d406b3          	sub	a3,s0,a3
    4668:	1ae6b423          	sd	a4,424(a3) # 11a8 <.LBB13_4+0x8>
    466c:	96043683          	ld	a3,-1696(s0)
    4670:	00001737          	lui	a4,0x1
    4674:	40e40733          	sub	a4,s0,a4
    4678:	73073703          	ld	a4,1840(a4) # 1730 <.LBB13_5+0x84>
    467c:	00e686b3          	add	a3,a3,a4
    4680:	00001737          	lui	a4,0x1
    4684:	40e40733          	sub	a4,s0,a4
    4688:	6e873703          	ld	a4,1768(a4) # 16e8 <.LBB13_5+0x3c>
    468c:	40e6073b          	subw	a4,a2,a4
    4690:	00e686b3          	add	a3,a3,a4
    4694:	ff06869b          	addiw	a3,a3,-16
    4698:	40000737          	lui	a4,0x40000
    469c:	00001337          	lui	t1,0x1
    46a0:	40640333          	sub	t1,s0,t1
    46a4:	1cd33023          	sd	a3,448(t1) # 11c0 <.LBB13_4+0x20>
    46a8:	0006d463          	bgez	a3,46b0 <.LBB13_156>
    46ac:	c0000737          	lui	a4,0xc0000

00000000000046b0 <.LBB13_156>:
    46b0:	000016b7          	lui	a3,0x1
    46b4:	40d406b3          	sub	a3,s0,a3
    46b8:	1ae6bc23          	sd	a4,440(a3) # 11b8 <.LBB13_4+0x18>
    46bc:	96843683          	ld	a3,-1688(s0)
    46c0:	010686b3          	add	a3,a3,a6
    46c4:	00001737          	lui	a4,0x1
    46c8:	40e40733          	sub	a4,s0,a4
    46cc:	6f073703          	ld	a4,1776(a4) # 16f0 <.LBB13_5+0x44>
    46d0:	40e6073b          	subw	a4,a2,a4
    46d4:	00e686b3          	add	a3,a3,a4
    46d8:	ff06869b          	addiw	a3,a3,-16
    46dc:	40000737          	lui	a4,0x40000
    46e0:	00001337          	lui	t1,0x1
    46e4:	40640333          	sub	t1,s0,t1
    46e8:	1cd33823          	sd	a3,464(t1) # 11d0 <.LBB13_4+0x30>
    46ec:	0006d463          	bgez	a3,46f4 <.LBB13_158>
    46f0:	c0000737          	lui	a4,0xc0000

00000000000046f4 <.LBB13_158>:
    46f4:	000016b7          	lui	a3,0x1
    46f8:	40d406b3          	sub	a3,s0,a3
    46fc:	1ce6b423          	sd	a4,456(a3) # 11c8 <.LBB13_4+0x28>
    4700:	97043683          	ld	a3,-1680(s0)
    4704:	00001737          	lui	a4,0x1
    4708:	40e40733          	sub	a4,s0,a4
    470c:	74873703          	ld	a4,1864(a4) # 1748 <.LBB13_5+0x9c>
    4710:	00e686b3          	add	a3,a3,a4
    4714:	00001737          	lui	a4,0x1
    4718:	40e40733          	sub	a4,s0,a4
    471c:	6f873703          	ld	a4,1784(a4) # 16f8 <.LBB13_5+0x4c>
    4720:	40e6073b          	subw	a4,a2,a4
    4724:	00e686b3          	add	a3,a3,a4
    4728:	ff06869b          	addiw	a3,a3,-16
    472c:	40000737          	lui	a4,0x40000
    4730:	00001337          	lui	t1,0x1
    4734:	40640333          	sub	t1,s0,t1
    4738:	1ed33023          	sd	a3,480(t1) # 11e0 <.LBB13_4+0x40>
    473c:	0006d463          	bgez	a3,4744 <.LBB13_160>
    4740:	c0000737          	lui	a4,0xc0000

0000000000004744 <.LBB13_160>:
    4744:	000016b7          	lui	a3,0x1
    4748:	40d406b3          	sub	a3,s0,a3
    474c:	1ce6bc23          	sd	a4,472(a3) # 11d8 <.LBB13_4+0x38>
    4750:	97843683          	ld	a3,-1672(s0)
    4754:	00001737          	lui	a4,0x1
    4758:	40e40733          	sub	a4,s0,a4
    475c:	75073703          	ld	a4,1872(a4) # 1750 <.LBB13_5+0xa4>
    4760:	00e686b3          	add	a3,a3,a4
    4764:	00001737          	lui	a4,0x1
    4768:	40e40733          	sub	a4,s0,a4
    476c:	72073703          	ld	a4,1824(a4) # 1720 <.LBB13_5+0x74>
    4770:	40e6073b          	subw	a4,a2,a4
    4774:	00e686b3          	add	a3,a3,a4
    4778:	ff06869b          	addiw	a3,a3,-16
    477c:	40000737          	lui	a4,0x40000
    4780:	00001337          	lui	t1,0x1
    4784:	40640333          	sub	t1,s0,t1
    4788:	1ed33823          	sd	a3,496(t1) # 11f0 <.LBB13_4+0x50>
    478c:	0006d463          	bgez	a3,4794 <.LBB13_162>
    4790:	c0000737          	lui	a4,0xc0000

0000000000004794 <.LBB13_162>:
    4794:	000016b7          	lui	a3,0x1
    4798:	40d406b3          	sub	a3,s0,a3
    479c:	1ee6b423          	sd	a4,488(a3) # 11e8 <.LBB13_4+0x48>
    47a0:	98043683          	ld	a3,-1664(s0)
    47a4:	00001737          	lui	a4,0x1
    47a8:	40e40733          	sub	a4,s0,a4
    47ac:	76073703          	ld	a4,1888(a4) # 1760 <.LBB13_5+0xb4>
    47b0:	00e686b3          	add	a3,a3,a4
    47b4:	00001737          	lui	a4,0x1
    47b8:	40e40733          	sub	a4,s0,a4
    47bc:	72873703          	ld	a4,1832(a4) # 1728 <.LBB13_5+0x7c>
    47c0:	40e6073b          	subw	a4,a2,a4
    47c4:	00e686b3          	add	a3,a3,a4
    47c8:	ff06869b          	addiw	a3,a3,-16
    47cc:	40000737          	lui	a4,0x40000
    47d0:	00001337          	lui	t1,0x1
    47d4:	40640333          	sub	t1,s0,t1
    47d8:	20d33023          	sd	a3,512(t1) # 1200 <.LBB13_4+0x60>
    47dc:	0006d463          	bgez	a3,47e4 <.LBB13_164>
    47e0:	c0000737          	lui	a4,0xc0000

00000000000047e4 <.LBB13_164>:
    47e4:	000016b7          	lui	a3,0x1
    47e8:	40d406b3          	sub	a3,s0,a3
    47ec:	1ee6bc23          	sd	a4,504(a3) # 11f8 <.LBB13_4+0x58>
    47f0:	98843683          	ld	a3,-1656(s0)
    47f4:	e8043703          	ld	a4,-384(s0)
    47f8:	00e686b3          	add	a3,a3,a4
    47fc:	00001737          	lui	a4,0x1
    4800:	40e40733          	sub	a4,s0,a4
    4804:	73873703          	ld	a4,1848(a4) # 1738 <.LBB13_5+0x8c>
    4808:	40e6073b          	subw	a4,a2,a4
    480c:	00e686b3          	add	a3,a3,a4
    4810:	ff06869b          	addiw	a3,a3,-16
    4814:	40000737          	lui	a4,0x40000
    4818:	00001337          	lui	t1,0x1
    481c:	40640333          	sub	t1,s0,t1
    4820:	20d33823          	sd	a3,528(t1) # 1210 <.LBB13_4+0x70>
    4824:	0006d463          	bgez	a3,482c <.LBB13_166>
    4828:	c0000737          	lui	a4,0xc0000

000000000000482c <.LBB13_166>:
    482c:	000016b7          	lui	a3,0x1
    4830:	40d406b3          	sub	a3,s0,a3
    4834:	20e6b423          	sd	a4,520(a3) # 1208 <.LBB13_4+0x68>
    4838:	99043683          	ld	a3,-1648(s0)
    483c:	e9043703          	ld	a4,-368(s0)
    4840:	00e686b3          	add	a3,a3,a4
    4844:	00001737          	lui	a4,0x1
    4848:	40e40733          	sub	a4,s0,a4
    484c:	74073703          	ld	a4,1856(a4) # 1740 <.LBB13_5+0x94>
    4850:	40e6073b          	subw	a4,a2,a4
    4854:	00e686b3          	add	a3,a3,a4
    4858:	ff06869b          	addiw	a3,a3,-16
    485c:	40000737          	lui	a4,0x40000
    4860:	00001337          	lui	t1,0x1
    4864:	40640333          	sub	t1,s0,t1
    4868:	22d33023          	sd	a3,544(t1) # 1220 <.LBB13_4+0x80>
    486c:	0006d463          	bgez	a3,4874 <.LBB13_168>
    4870:	c0000737          	lui	a4,0xc0000

0000000000004874 <.LBB13_168>:
    4874:	000016b7          	lui	a3,0x1
    4878:	40d406b3          	sub	a3,s0,a3
    487c:	20e6bc23          	sd	a4,536(a3) # 1218 <.LBB13_4+0x78>
    4880:	99843683          	ld	a3,-1640(s0)
    4884:	ea043703          	ld	a4,-352(s0)
    4888:	00e686b3          	add	a3,a3,a4
    488c:	00001737          	lui	a4,0x1
    4890:	40e40733          	sub	a4,s0,a4
    4894:	75873703          	ld	a4,1880(a4) # 1758 <.LBB13_5+0xac>
    4898:	40e6073b          	subw	a4,a2,a4
    489c:	00e686b3          	add	a3,a3,a4
    48a0:	ff06869b          	addiw	a3,a3,-16
    48a4:	40000737          	lui	a4,0x40000
    48a8:	00001337          	lui	t1,0x1
    48ac:	40640333          	sub	t1,s0,t1
    48b0:	22d33823          	sd	a3,560(t1) # 1230 <.LBB13_4+0x90>
    48b4:	0006d463          	bgez	a3,48bc <.LBB13_170>
    48b8:	c0000737          	lui	a4,0xc0000

00000000000048bc <.LBB13_170>:
    48bc:	000016b7          	lui	a3,0x1
    48c0:	40d406b3          	sub	a3,s0,a3
    48c4:	22e6b423          	sd	a4,552(a3) # 1228 <.LBB13_4+0x88>
    48c8:	9a043683          	ld	a3,-1632(s0)
    48cc:	eb043703          	ld	a4,-336(s0)
    48d0:	00e686b3          	add	a3,a3,a4
    48d4:	e7843703          	ld	a4,-392(s0)
    48d8:	40e6073b          	subw	a4,a2,a4
    48dc:	00e686b3          	add	a3,a3,a4
    48e0:	ff06869b          	addiw	a3,a3,-16
    48e4:	40000737          	lui	a4,0x40000
    48e8:	00001337          	lui	t1,0x1
    48ec:	40640333          	sub	t1,s0,t1
    48f0:	24d33023          	sd	a3,576(t1) # 1240 <.LBB13_4+0xa0>
    48f4:	0006d463          	bgez	a3,48fc <.LBB13_172>
    48f8:	c0000737          	lui	a4,0xc0000

00000000000048fc <.LBB13_172>:
    48fc:	000016b7          	lui	a3,0x1
    4900:	40d406b3          	sub	a3,s0,a3
    4904:	22e6bc23          	sd	a4,568(a3) # 1238 <.LBB13_4+0x98>
    4908:	9a843683          	ld	a3,-1624(s0)
    490c:	eb843703          	ld	a4,-328(s0)
    4910:	00e686b3          	add	a3,a3,a4
    4914:	e8843703          	ld	a4,-376(s0)
    4918:	40e6073b          	subw	a4,a2,a4
    491c:	00e686b3          	add	a3,a3,a4
    4920:	ff06869b          	addiw	a3,a3,-16
    4924:	40000737          	lui	a4,0x40000
    4928:	00001337          	lui	t1,0x1
    492c:	40640333          	sub	t1,s0,t1
    4930:	24d33823          	sd	a3,592(t1) # 1250 <.LBB13_4+0xb0>
    4934:	0006d463          	bgez	a3,493c <.LBB13_174>
    4938:	c0000737          	lui	a4,0xc0000

000000000000493c <.LBB13_174>:
    493c:	000016b7          	lui	a3,0x1
    4940:	40d406b3          	sub	a3,s0,a3
    4944:	24e6b423          	sd	a4,584(a3) # 1248 <.LBB13_4+0xa8>
    4948:	9b043683          	ld	a3,-1616(s0)
    494c:	ec843703          	ld	a4,-312(s0)
    4950:	00e686b3          	add	a3,a3,a4
    4954:	e9843703          	ld	a4,-360(s0)
    4958:	40e6073b          	subw	a4,a2,a4
    495c:	00e686b3          	add	a3,a3,a4
    4960:	ff06869b          	addiw	a3,a3,-16
    4964:	40000737          	lui	a4,0x40000
    4968:	00001337          	lui	t1,0x1
    496c:	40640333          	sub	t1,s0,t1
    4970:	26d33023          	sd	a3,608(t1) # 1260 <.LBB13_4+0xc0>
    4974:	0006d463          	bgez	a3,497c <.LBB13_176>
    4978:	c0000737          	lui	a4,0xc0000

000000000000497c <.LBB13_176>:
    497c:	000016b7          	lui	a3,0x1
    4980:	40d406b3          	sub	a3,s0,a3
    4984:	24e6bc23          	sd	a4,600(a3) # 1258 <.LBB13_4+0xb8>
    4988:	9b843683          	ld	a3,-1608(s0)
    498c:	ed843703          	ld	a4,-296(s0)
    4990:	00e686b3          	add	a3,a3,a4
    4994:	ea843703          	ld	a4,-344(s0)
    4998:	40e6073b          	subw	a4,a2,a4
    499c:	00e686b3          	add	a3,a3,a4
    49a0:	ff06869b          	addiw	a3,a3,-16
    49a4:	40000737          	lui	a4,0x40000
    49a8:	00001337          	lui	t1,0x1
    49ac:	40640333          	sub	t1,s0,t1
    49b0:	26d33823          	sd	a3,624(t1) # 1270 <.LBB13_4+0xd0>
    49b4:	0006d463          	bgez	a3,49bc <.LBB13_178>
    49b8:	c0000737          	lui	a4,0xc0000

00000000000049bc <.LBB13_178>:
    49bc:	000016b7          	lui	a3,0x1
    49c0:	40d406b3          	sub	a3,s0,a3
    49c4:	26e6b423          	sd	a4,616(a3) # 1268 <.LBB13_4+0xc8>
    49c8:	9c043683          	ld	a3,-1600(s0)
    49cc:	ee843703          	ld	a4,-280(s0)
    49d0:	00e686b3          	add	a3,a3,a4
    49d4:	ec043703          	ld	a4,-320(s0)
    49d8:	40e6073b          	subw	a4,a2,a4
    49dc:	00e686b3          	add	a3,a3,a4
    49e0:	ff06869b          	addiw	a3,a3,-16
    49e4:	40000737          	lui	a4,0x40000
    49e8:	00001337          	lui	t1,0x1
    49ec:	40640333          	sub	t1,s0,t1
    49f0:	28d33023          	sd	a3,640(t1) # 1280 <.LBB13_4+0xe0>
    49f4:	0006d463          	bgez	a3,49fc <.LBB13_180>
    49f8:	c0000737          	lui	a4,0xc0000

00000000000049fc <.LBB13_180>:
    49fc:	000016b7          	lui	a3,0x1
    4a00:	40d406b3          	sub	a3,s0,a3
    4a04:	26e6bc23          	sd	a4,632(a3) # 1278 <.LBB13_4+0xd8>
    4a08:	9c843683          	ld	a3,-1592(s0)
    4a0c:	ef843703          	ld	a4,-264(s0)
    4a10:	00e686b3          	add	a3,a3,a4
    4a14:	ed043703          	ld	a4,-304(s0)
    4a18:	40e6073b          	subw	a4,a2,a4
    4a1c:	00e686b3          	add	a3,a3,a4
    4a20:	ff06869b          	addiw	a3,a3,-16
    4a24:	40000737          	lui	a4,0x40000
    4a28:	00001337          	lui	t1,0x1
    4a2c:	40640333          	sub	t1,s0,t1
    4a30:	28d33823          	sd	a3,656(t1) # 1290 <.LBB13_4+0xf0>
    4a34:	0006d463          	bgez	a3,4a3c <.LBB13_182>
    4a38:	c0000737          	lui	a4,0xc0000

0000000000004a3c <.LBB13_182>:
    4a3c:	000016b7          	lui	a3,0x1
    4a40:	40d406b3          	sub	a3,s0,a3
    4a44:	28e6b423          	sd	a4,648(a3) # 1288 <.LBB13_4+0xe8>
    4a48:	9d043683          	ld	a3,-1584(s0)
    4a4c:	f0043703          	ld	a4,-256(s0)
    4a50:	00e686b3          	add	a3,a3,a4
    4a54:	ee043703          	ld	a4,-288(s0)
    4a58:	40e6073b          	subw	a4,a2,a4
    4a5c:	00e686b3          	add	a3,a3,a4
    4a60:	ff06869b          	addiw	a3,a3,-16
    4a64:	40000737          	lui	a4,0x40000
    4a68:	00001337          	lui	t1,0x1
    4a6c:	40640333          	sub	t1,s0,t1
    4a70:	2ad33023          	sd	a3,672(t1) # 12a0 <.LBB13_4+0x100>
    4a74:	0006d463          	bgez	a3,4a7c <.LBB13_184>
    4a78:	c0000737          	lui	a4,0xc0000

0000000000004a7c <.LBB13_184>:
    4a7c:	000016b7          	lui	a3,0x1
    4a80:	40d406b3          	sub	a3,s0,a3
    4a84:	28e6bc23          	sd	a4,664(a3) # 1298 <.LBB13_4+0xf8>
    4a88:	9d843683          	ld	a3,-1576(s0)
    4a8c:	f1043703          	ld	a4,-240(s0)
    4a90:	00e686b3          	add	a3,a3,a4
    4a94:	ef043703          	ld	a4,-272(s0)
    4a98:	40e6073b          	subw	a4,a2,a4
    4a9c:	00e686b3          	add	a3,a3,a4
    4aa0:	ff06869b          	addiw	a3,a3,-16
    4aa4:	40000737          	lui	a4,0x40000
    4aa8:	00001337          	lui	t1,0x1
    4aac:	40640333          	sub	t1,s0,t1
    4ab0:	2ad33823          	sd	a3,688(t1) # 12b0 <.LBB13_4+0x110>
    4ab4:	0006d463          	bgez	a3,4abc <.LBB13_186>
    4ab8:	c0000737          	lui	a4,0xc0000

0000000000004abc <.LBB13_186>:
    4abc:	000016b7          	lui	a3,0x1
    4ac0:	40d406b3          	sub	a3,s0,a3
    4ac4:	2ae6b423          	sd	a4,680(a3) # 12a8 <.LBB13_4+0x108>
    4ac8:	9e043683          	ld	a3,-1568(s0)
    4acc:	f3843703          	ld	a4,-200(s0)
    4ad0:	00e686b3          	add	a3,a3,a4
    4ad4:	f0843703          	ld	a4,-248(s0)
    4ad8:	40e6073b          	subw	a4,a2,a4
    4adc:	00e686b3          	add	a3,a3,a4
    4ae0:	ff06869b          	addiw	a3,a3,-16
    4ae4:	40000737          	lui	a4,0x40000
    4ae8:	00001337          	lui	t1,0x1
    4aec:	40640333          	sub	t1,s0,t1
    4af0:	2cd33023          	sd	a3,704(t1) # 12c0 <.LBB13_4+0x120>
    4af4:	0006d463          	bgez	a3,4afc <.LBB13_188>
    4af8:	c0000737          	lui	a4,0xc0000

0000000000004afc <.LBB13_188>:
    4afc:	000016b7          	lui	a3,0x1
    4b00:	40d406b3          	sub	a3,s0,a3
    4b04:	2ae6bc23          	sd	a4,696(a3) # 12b8 <.LBB13_4+0x118>
    4b08:	9e843683          	ld	a3,-1560(s0)
    4b0c:	f4843703          	ld	a4,-184(s0)
    4b10:	00e686b3          	add	a3,a3,a4
    4b14:	f3043703          	ld	a4,-208(s0)
    4b18:	40e6073b          	subw	a4,a2,a4
    4b1c:	00e686b3          	add	a3,a3,a4
    4b20:	ff06869b          	addiw	a3,a3,-16
    4b24:	40000737          	lui	a4,0x40000
    4b28:	00001337          	lui	t1,0x1
    4b2c:	40640333          	sub	t1,s0,t1
    4b30:	2cd33823          	sd	a3,720(t1) # 12d0 <.LBB13_4+0x130>
    4b34:	0006d463          	bgez	a3,4b3c <.LBB13_190>
    4b38:	c0000737          	lui	a4,0xc0000

0000000000004b3c <.LBB13_190>:
    4b3c:	000016b7          	lui	a3,0x1
    4b40:	40d406b3          	sub	a3,s0,a3
    4b44:	2ce6b423          	sd	a4,712(a3) # 12c8 <.LBB13_4+0x128>
    4b48:	9f043683          	ld	a3,-1552(s0)
    4b4c:	f5843703          	ld	a4,-168(s0)
    4b50:	00e686b3          	add	a3,a3,a4
    4b54:	f4043703          	ld	a4,-192(s0)
    4b58:	40e6073b          	subw	a4,a2,a4
    4b5c:	00e686b3          	add	a3,a3,a4
    4b60:	ff06869b          	addiw	a3,a3,-16
    4b64:	40000737          	lui	a4,0x40000
    4b68:	00001337          	lui	t1,0x1
    4b6c:	40640333          	sub	t1,s0,t1
    4b70:	2ed33023          	sd	a3,736(t1) # 12e0 <.LBB13_4+0x140>
    4b74:	0006d463          	bgez	a3,4b7c <.LBB13_192>
    4b78:	c0000737          	lui	a4,0xc0000

0000000000004b7c <.LBB13_192>:
    4b7c:	000016b7          	lui	a3,0x1
    4b80:	40d406b3          	sub	a3,s0,a3
    4b84:	2ce6bc23          	sd	a4,728(a3) # 12d8 <.LBB13_4+0x138>
    4b88:	9f843683          	ld	a3,-1544(s0)
    4b8c:	f6843703          	ld	a4,-152(s0)
    4b90:	00e686b3          	add	a3,a3,a4
    4b94:	f5043703          	ld	a4,-176(s0)
    4b98:	40e6073b          	subw	a4,a2,a4
    4b9c:	00e686b3          	add	a3,a3,a4
    4ba0:	ff06869b          	addiw	a3,a3,-16
    4ba4:	40000737          	lui	a4,0x40000
    4ba8:	00001337          	lui	t1,0x1
    4bac:	40640333          	sub	t1,s0,t1
    4bb0:	2ed33823          	sd	a3,752(t1) # 12f0 <.LBB13_4+0x150>
    4bb4:	0006d463          	bgez	a3,4bbc <.LBB13_194>
    4bb8:	c0000737          	lui	a4,0xc0000

0000000000004bbc <.LBB13_194>:
    4bbc:	000016b7          	lui	a3,0x1
    4bc0:	40d406b3          	sub	a3,s0,a3
    4bc4:	2ee6b423          	sd	a4,744(a3) # 12e8 <.LBB13_4+0x148>
    4bc8:	a0043683          	ld	a3,-1536(s0)
    4bcc:	f7043703          	ld	a4,-144(s0)
    4bd0:	00e686b3          	add	a3,a3,a4
    4bd4:	f6043703          	ld	a4,-160(s0)
    4bd8:	40e6073b          	subw	a4,a2,a4
    4bdc:	00e686b3          	add	a3,a3,a4
    4be0:	ff06869b          	addiw	a3,a3,-16
    4be4:	40000737          	lui	a4,0x40000
    4be8:	00001337          	lui	t1,0x1
    4bec:	40640333          	sub	t1,s0,t1
    4bf0:	30d33023          	sd	a3,768(t1) # 1300 <.LBB13_4+0x160>
    4bf4:	0006d463          	bgez	a3,4bfc <.LBB13_196>
    4bf8:	c0000737          	lui	a4,0xc0000

0000000000004bfc <.LBB13_196>:
    4bfc:	000016b7          	lui	a3,0x1
    4c00:	40d406b3          	sub	a3,s0,a3
    4c04:	2ee6bc23          	sd	a4,760(a3) # 12f8 <.LBB13_4+0x158>
    4c08:	a0843683          	ld	a3,-1528(s0)
    4c0c:	f8043703          	ld	a4,-128(s0)
    4c10:	00e686b3          	add	a3,a3,a4
    4c14:	f7843703          	ld	a4,-136(s0)
    4c18:	40e6063b          	subw	a2,a2,a4
    4c1c:	00c68633          	add	a2,a3,a2
    4c20:	ff06061b          	addiw	a2,a2,-16
    4c24:	400006b7          	lui	a3,0x40000
    4c28:	00001737          	lui	a4,0x1
    4c2c:	40e40733          	sub	a4,s0,a4
    4c30:	30c73823          	sd	a2,784(a4) # 1310 <.LBB13_4+0x170>
    4c34:	00065463          	bgez	a2,4c3c <.LBB13_198>
    4c38:	c00006b7          	lui	a3,0xc0000

0000000000004c3c <.LBB13_198>:
    4c3c:	00001637          	lui	a2,0x1
    4c40:	40c40633          	sub	a2,s0,a2
    4c44:	30d63423          	sd	a3,776(a2) # 1308 <.LBB13_4+0x168>
    4c48:	a1043603          	ld	a2,-1520(s0)
    4c4c:	000016b7          	lui	a3,0x1
    4c50:	40d406b3          	sub	a3,s0,a3
    4c54:	6e06b683          	ld	a3,1760(a3) # 16e0 <.LBB13_5+0x34>
    4c58:	00d60633          	add	a2,a2,a3
    4c5c:	000016b7          	lui	a3,0x1
    4c60:	40d406b3          	sub	a3,s0,a3
    4c64:	6d86b683          	ld	a3,1752(a3) # 16d8 <.LBB13_5+0x2c>
    4c68:	40d586bb          	subw	a3,a1,a3
    4c6c:	00d60633          	add	a2,a2,a3
    4c70:	ff06061b          	addiw	a2,a2,-16
    4c74:	400006b7          	lui	a3,0x40000
    4c78:	00001737          	lui	a4,0x1
    4c7c:	40e40733          	sub	a4,s0,a4
    4c80:	32c73023          	sd	a2,800(a4) # 1320 <.LBB13_4+0x180>
    4c84:	00001737          	lui	a4,0x1
    4c88:	40e40733          	sub	a4,s0,a4
    4c8c:	d2073703          	ld	a4,-736(a4) # d20 <.LBB13_3+0xb08>
    4c90:	00065463          	bgez	a2,4c98 <.LBB13_200>
    4c94:	c00006b7          	lui	a3,0xc0000

0000000000004c98 <.LBB13_200>:
    4c98:	00001637          	lui	a2,0x1
    4c9c:	40c40633          	sub	a2,s0,a2
    4ca0:	30d63c23          	sd	a3,792(a2) # 1318 <.LBB13_4+0x178>
    4ca4:	a1843603          	ld	a2,-1512(s0)
    4ca8:	000016b7          	lui	a3,0x1
    4cac:	40d406b3          	sub	a3,s0,a3
    4cb0:	6d06b683          	ld	a3,1744(a3) # 16d0 <.LBB13_5+0x24>
    4cb4:	00d60633          	add	a2,a2,a3
    4cb8:	000016b7          	lui	a3,0x1
    4cbc:	40d406b3          	sub	a3,s0,a3
    4cc0:	6c86b683          	ld	a3,1736(a3) # 16c8 <.LBB13_5+0x1c>
    4cc4:	40d586bb          	subw	a3,a1,a3
    4cc8:	00d60633          	add	a2,a2,a3
    4ccc:	ff06061b          	addiw	a2,a2,-16
    4cd0:	400006b7          	lui	a3,0x40000
    4cd4:	00001337          	lui	t1,0x1
    4cd8:	40640333          	sub	t1,s0,t1
    4cdc:	32c33823          	sd	a2,816(t1) # 1330 <.LBB13_4+0x190>
    4ce0:	00065463          	bgez	a2,4ce8 <.LBB13_202>
    4ce4:	c00006b7          	lui	a3,0xc0000

0000000000004ce8 <.LBB13_202>:
    4ce8:	00001637          	lui	a2,0x1
    4cec:	40c40633          	sub	a2,s0,a2
    4cf0:	32d63423          	sd	a3,808(a2) # 1328 <.LBB13_4+0x188>
    4cf4:	a2043603          	ld	a2,-1504(s0)
    4cf8:	000016b7          	lui	a3,0x1
    4cfc:	40d406b3          	sub	a3,s0,a3
    4d00:	6c06b683          	ld	a3,1728(a3) # 16c0 <.LBB13_5+0x14>
    4d04:	00d60633          	add	a2,a2,a3
    4d08:	000016b7          	lui	a3,0x1
    4d0c:	40d406b3          	sub	a3,s0,a3
    4d10:	6b86b683          	ld	a3,1720(a3) # 16b8 <.LBB13_5+0xc>
    4d14:	40d586bb          	subw	a3,a1,a3
    4d18:	00d60633          	add	a2,a2,a3
    4d1c:	ff06061b          	addiw	a2,a2,-16
    4d20:	400006b7          	lui	a3,0x40000
    4d24:	00001337          	lui	t1,0x1
    4d28:	40640333          	sub	t1,s0,t1
    4d2c:	34c33023          	sd	a2,832(t1) # 1340 <.LBB13_4+0x1a0>
    4d30:	00065463          	bgez	a2,4d38 <.LBB13_204>
    4d34:	c00006b7          	lui	a3,0xc0000

0000000000004d38 <.LBB13_204>:
    4d38:	00001637          	lui	a2,0x1
    4d3c:	40c40633          	sub	a2,s0,a2
    4d40:	32d63c23          	sd	a3,824(a2) # 1338 <.LBB13_4+0x198>
    4d44:	a2843603          	ld	a2,-1496(s0)
    4d48:	00f60633          	add	a2,a2,a5
    4d4c:	000016b7          	lui	a3,0x1
    4d50:	40d406b3          	sub	a3,s0,a3
    4d54:	6b06b683          	ld	a3,1712(a3) # 16b0 <.LBB13_5+0x4>
    4d58:	40d586bb          	subw	a3,a1,a3
    4d5c:	00d60633          	add	a2,a2,a3
    4d60:	ff06061b          	addiw	a2,a2,-16
    4d64:	400006b7          	lui	a3,0x40000
    4d68:	00001337          	lui	t1,0x1
    4d6c:	40640333          	sub	t1,s0,t1
    4d70:	34c33823          	sd	a2,848(t1) # 1350 <.LBB13_4+0x1b0>
    4d74:	00065463          	bgez	a2,4d7c <.LBB13_206>
    4d78:	c00006b7          	lui	a3,0xc0000

0000000000004d7c <.LBB13_206>:
    4d7c:	00001637          	lui	a2,0x1
    4d80:	40c40633          	sub	a2,s0,a2
    4d84:	34d63423          	sd	a3,840(a2) # 1348 <.LBB13_4+0x1a8>
    4d88:	a3043603          	ld	a2,-1488(s0)
    4d8c:	000016b7          	lui	a3,0x1
    4d90:	40d406b3          	sub	a3,s0,a3
    4d94:	6a86b683          	ld	a3,1704(a3) # 16a8 <.LBB13_4+0x508>
    4d98:	00d60633          	add	a2,a2,a3
    4d9c:	000016b7          	lui	a3,0x1
    4da0:	40d406b3          	sub	a3,s0,a3
    4da4:	6a06b683          	ld	a3,1696(a3) # 16a0 <.LBB13_4+0x500>
    4da8:	40d586bb          	subw	a3,a1,a3
    4dac:	00d60633          	add	a2,a2,a3
    4db0:	ff06061b          	addiw	a2,a2,-16
    4db4:	400006b7          	lui	a3,0x40000
    4db8:	00001337          	lui	t1,0x1
    4dbc:	40640333          	sub	t1,s0,t1
    4dc0:	36c33023          	sd	a2,864(t1) # 1360 <.LBB13_4+0x1c0>
    4dc4:	00065463          	bgez	a2,4dcc <.LBB13_208>
    4dc8:	c00006b7          	lui	a3,0xc0000

0000000000004dcc <.LBB13_208>:
    4dcc:	00001637          	lui	a2,0x1
    4dd0:	40c40633          	sub	a2,s0,a2
    4dd4:	34d63c23          	sd	a3,856(a2) # 1358 <.LBB13_4+0x1b8>
    4dd8:	a3843603          	ld	a2,-1480(s0)
    4ddc:	000016b7          	lui	a3,0x1
    4de0:	40d406b3          	sub	a3,s0,a3
    4de4:	6986b683          	ld	a3,1688(a3) # 1698 <.LBB13_4+0x4f8>
    4de8:	00d60633          	add	a2,a2,a3
    4dec:	000016b7          	lui	a3,0x1
    4df0:	40d406b3          	sub	a3,s0,a3
    4df4:	6906b683          	ld	a3,1680(a3) # 1690 <.LBB13_4+0x4f0>
    4df8:	40d586bb          	subw	a3,a1,a3
    4dfc:	00d60633          	add	a2,a2,a3
    4e00:	ff06061b          	addiw	a2,a2,-16
    4e04:	400006b7          	lui	a3,0x40000
    4e08:	00001337          	lui	t1,0x1
    4e0c:	40640333          	sub	t1,s0,t1
    4e10:	36c33823          	sd	a2,880(t1) # 1370 <.LBB13_4+0x1d0>
    4e14:	00065463          	bgez	a2,4e1c <.LBB13_210>
    4e18:	c00006b7          	lui	a3,0xc0000

0000000000004e1c <.LBB13_210>:
    4e1c:	00001637          	lui	a2,0x1
    4e20:	40c40633          	sub	a2,s0,a2
    4e24:	36d63423          	sd	a3,872(a2) # 1368 <.LBB13_4+0x1c8>
    4e28:	a4043603          	ld	a2,-1472(s0)
    4e2c:	000016b7          	lui	a3,0x1
    4e30:	40d406b3          	sub	a3,s0,a3
    4e34:	6886b683          	ld	a3,1672(a3) # 1688 <.LBB13_4+0x4e8>
    4e38:	00d60633          	add	a2,a2,a3
    4e3c:	000016b7          	lui	a3,0x1
    4e40:	40d406b3          	sub	a3,s0,a3
    4e44:	6806b683          	ld	a3,1664(a3) # 1680 <.LBB13_4+0x4e0>
    4e48:	40d586bb          	subw	a3,a1,a3
    4e4c:	00d60633          	add	a2,a2,a3
    4e50:	ff06061b          	addiw	a2,a2,-16
    4e54:	400006b7          	lui	a3,0x40000
    4e58:	00001337          	lui	t1,0x1
    4e5c:	40640333          	sub	t1,s0,t1
    4e60:	38c33023          	sd	a2,896(t1) # 1380 <.LBB13_4+0x1e0>
    4e64:	00065463          	bgez	a2,4e6c <.LBB13_212>
    4e68:	c00006b7          	lui	a3,0xc0000

0000000000004e6c <.LBB13_212>:
    4e6c:	00001637          	lui	a2,0x1
    4e70:	40c40633          	sub	a2,s0,a2
    4e74:	36d63c23          	sd	a3,888(a2) # 1378 <.LBB13_4+0x1d8>
    4e78:	a4843603          	ld	a2,-1464(s0)
    4e7c:	000016b7          	lui	a3,0x1
    4e80:	40d406b3          	sub	a3,s0,a3
    4e84:	6786b683          	ld	a3,1656(a3) # 1678 <.LBB13_4+0x4d8>
    4e88:	00d60633          	add	a2,a2,a3
    4e8c:	000016b7          	lui	a3,0x1
    4e90:	40d406b3          	sub	a3,s0,a3
    4e94:	6706b683          	ld	a3,1648(a3) # 1670 <.LBB13_4+0x4d0>
    4e98:	40d586bb          	subw	a3,a1,a3
    4e9c:	00d60633          	add	a2,a2,a3
    4ea0:	ff06061b          	addiw	a2,a2,-16
    4ea4:	400006b7          	lui	a3,0x40000
    4ea8:	00001337          	lui	t1,0x1
    4eac:	40640333          	sub	t1,s0,t1
    4eb0:	38c33823          	sd	a2,912(t1) # 1390 <.LBB13_4+0x1f0>
    4eb4:	00065463          	bgez	a2,4ebc <.LBB13_214>
    4eb8:	c00006b7          	lui	a3,0xc0000

0000000000004ebc <.LBB13_214>:
    4ebc:	00001637          	lui	a2,0x1
    4ec0:	40c40633          	sub	a2,s0,a2
    4ec4:	38d63423          	sd	a3,904(a2) # 1388 <.LBB13_4+0x1e8>
    4ec8:	a5043603          	ld	a2,-1456(s0)
    4ecc:	000016b7          	lui	a3,0x1
    4ed0:	40d406b3          	sub	a3,s0,a3
    4ed4:	6686b683          	ld	a3,1640(a3) # 1668 <.LBB13_4+0x4c8>
    4ed8:	00d60633          	add	a2,a2,a3
    4edc:	000016b7          	lui	a3,0x1
    4ee0:	40d406b3          	sub	a3,s0,a3
    4ee4:	6606b683          	ld	a3,1632(a3) # 1660 <.LBB13_4+0x4c0>
    4ee8:	40d586bb          	subw	a3,a1,a3
    4eec:	00d60633          	add	a2,a2,a3
    4ef0:	ff06061b          	addiw	a2,a2,-16
    4ef4:	400006b7          	lui	a3,0x40000
    4ef8:	00001337          	lui	t1,0x1
    4efc:	40640333          	sub	t1,s0,t1
    4f00:	3ac33023          	sd	a2,928(t1) # 13a0 <.LBB13_4+0x200>
    4f04:	00065463          	bgez	a2,4f0c <.LBB13_216>
    4f08:	c00006b7          	lui	a3,0xc0000

0000000000004f0c <.LBB13_216>:
    4f0c:	00001637          	lui	a2,0x1
    4f10:	40c40633          	sub	a2,s0,a2
    4f14:	38d63c23          	sd	a3,920(a2) # 1398 <.LBB13_4+0x1f8>
    4f18:	a5843603          	ld	a2,-1448(s0)
    4f1c:	000016b7          	lui	a3,0x1
    4f20:	40d406b3          	sub	a3,s0,a3
    4f24:	6586b683          	ld	a3,1624(a3) # 1658 <.LBB13_4+0x4b8>
    4f28:	00d60633          	add	a2,a2,a3
    4f2c:	000016b7          	lui	a3,0x1
    4f30:	40d406b3          	sub	a3,s0,a3
    4f34:	7686b683          	ld	a3,1896(a3) # 1768 <.LBB13_5+0xbc>
    4f38:	40d586bb          	subw	a3,a1,a3
    4f3c:	00d60633          	add	a2,a2,a3
    4f40:	ff06061b          	addiw	a2,a2,-16
    4f44:	400006b7          	lui	a3,0x40000
    4f48:	00001337          	lui	t1,0x1
    4f4c:	40640333          	sub	t1,s0,t1
    4f50:	3ac33823          	sd	a2,944(t1) # 13b0 <.LBB13_4+0x210>
    4f54:	00065463          	bgez	a2,4f5c <.LBB13_218>
    4f58:	c00006b7          	lui	a3,0xc0000

0000000000004f5c <.LBB13_218>:
    4f5c:	00001637          	lui	a2,0x1
    4f60:	40c40633          	sub	a2,s0,a2
    4f64:	3ad63423          	sd	a3,936(a2) # 13a8 <.LBB13_4+0x208>
    4f68:	a6043603          	ld	a2,-1440(s0)
    4f6c:	000016b7          	lui	a3,0x1
    4f70:	40d406b3          	sub	a3,s0,a3
    4f74:	7306b683          	ld	a3,1840(a3) # 1730 <.LBB13_5+0x84>
    4f78:	00d60633          	add	a2,a2,a3
    4f7c:	000016b7          	lui	a3,0x1
    4f80:	40d406b3          	sub	a3,s0,a3
    4f84:	6e86b683          	ld	a3,1768(a3) # 16e8 <.LBB13_5+0x3c>
    4f88:	40d586bb          	subw	a3,a1,a3
    4f8c:	00d60633          	add	a2,a2,a3
    4f90:	ff06061b          	addiw	a2,a2,-16
    4f94:	400006b7          	lui	a3,0x40000
    4f98:	00001337          	lui	t1,0x1
    4f9c:	40640333          	sub	t1,s0,t1
    4fa0:	3cc33023          	sd	a2,960(t1) # 13c0 <.LBB13_4+0x220>
    4fa4:	00065463          	bgez	a2,4fac <.LBB13_220>
    4fa8:	c00006b7          	lui	a3,0xc0000

0000000000004fac <.LBB13_220>:
    4fac:	00001637          	lui	a2,0x1
    4fb0:	40c40633          	sub	a2,s0,a2
    4fb4:	3ad63c23          	sd	a3,952(a2) # 13b8 <.LBB13_4+0x218>
    4fb8:	a6843603          	ld	a2,-1432(s0)
    4fbc:	01060633          	add	a2,a2,a6
    4fc0:	000016b7          	lui	a3,0x1
    4fc4:	40d406b3          	sub	a3,s0,a3
    4fc8:	6f06b683          	ld	a3,1776(a3) # 16f0 <.LBB13_5+0x44>
    4fcc:	40d586bb          	subw	a3,a1,a3
    4fd0:	00d60633          	add	a2,a2,a3
    4fd4:	ff06061b          	addiw	a2,a2,-16
    4fd8:	400006b7          	lui	a3,0x40000
    4fdc:	00001337          	lui	t1,0x1
    4fe0:	40640333          	sub	t1,s0,t1
    4fe4:	3cc33823          	sd	a2,976(t1) # 13d0 <.LBB13_4+0x230>
    4fe8:	00065463          	bgez	a2,4ff0 <.LBB13_222>
    4fec:	c00006b7          	lui	a3,0xc0000

0000000000004ff0 <.LBB13_222>:
    4ff0:	00001637          	lui	a2,0x1
    4ff4:	40c40633          	sub	a2,s0,a2
    4ff8:	3cd63423          	sd	a3,968(a2) # 13c8 <.LBB13_4+0x228>
    4ffc:	a7043603          	ld	a2,-1424(s0)
    5000:	000016b7          	lui	a3,0x1
    5004:	40d406b3          	sub	a3,s0,a3
    5008:	7486b683          	ld	a3,1864(a3) # 1748 <.LBB13_5+0x9c>
    500c:	00d60633          	add	a2,a2,a3
    5010:	000016b7          	lui	a3,0x1
    5014:	40d406b3          	sub	a3,s0,a3
    5018:	6f86b683          	ld	a3,1784(a3) # 16f8 <.LBB13_5+0x4c>
    501c:	40d586bb          	subw	a3,a1,a3
    5020:	00d60633          	add	a2,a2,a3
    5024:	ff06061b          	addiw	a2,a2,-16
    5028:	400006b7          	lui	a3,0x40000
    502c:	00001337          	lui	t1,0x1
    5030:	40640333          	sub	t1,s0,t1
    5034:	3ec33023          	sd	a2,992(t1) # 13e0 <.LBB13_4+0x240>
    5038:	00065463          	bgez	a2,5040 <.LBB13_224>
    503c:	c00006b7          	lui	a3,0xc0000

0000000000005040 <.LBB13_224>:
    5040:	00001637          	lui	a2,0x1
    5044:	40c40633          	sub	a2,s0,a2
    5048:	3cd63c23          	sd	a3,984(a2) # 13d8 <.LBB13_4+0x238>
    504c:	a7843603          	ld	a2,-1416(s0)
    5050:	000016b7          	lui	a3,0x1
    5054:	40d406b3          	sub	a3,s0,a3
    5058:	7506b683          	ld	a3,1872(a3) # 1750 <.LBB13_5+0xa4>
    505c:	00d60633          	add	a2,a2,a3
    5060:	000016b7          	lui	a3,0x1
    5064:	40d406b3          	sub	a3,s0,a3
    5068:	7206b683          	ld	a3,1824(a3) # 1720 <.LBB13_5+0x74>
    506c:	40d586bb          	subw	a3,a1,a3
    5070:	00d60633          	add	a2,a2,a3
    5074:	ff06061b          	addiw	a2,a2,-16
    5078:	400006b7          	lui	a3,0x40000
    507c:	00001337          	lui	t1,0x1
    5080:	40640333          	sub	t1,s0,t1
    5084:	3ec33823          	sd	a2,1008(t1) # 13f0 <.LBB13_4+0x250>
    5088:	00065463          	bgez	a2,5090 <.LBB13_226>
    508c:	c00006b7          	lui	a3,0xc0000

0000000000005090 <.LBB13_226>:
    5090:	00001637          	lui	a2,0x1
    5094:	40c40633          	sub	a2,s0,a2
    5098:	3ed63423          	sd	a3,1000(a2) # 13e8 <.LBB13_4+0x248>
    509c:	a8043603          	ld	a2,-1408(s0)
    50a0:	000016b7          	lui	a3,0x1
    50a4:	40d406b3          	sub	a3,s0,a3
    50a8:	7606b683          	ld	a3,1888(a3) # 1760 <.LBB13_5+0xb4>
    50ac:	00d60633          	add	a2,a2,a3
    50b0:	000016b7          	lui	a3,0x1
    50b4:	40d406b3          	sub	a3,s0,a3
    50b8:	7286b683          	ld	a3,1832(a3) # 1728 <.LBB13_5+0x7c>
    50bc:	40d586bb          	subw	a3,a1,a3
    50c0:	00d60633          	add	a2,a2,a3
    50c4:	ff06061b          	addiw	a2,a2,-16
    50c8:	400006b7          	lui	a3,0x40000
    50cc:	00001337          	lui	t1,0x1
    50d0:	40640333          	sub	t1,s0,t1
    50d4:	40c33023          	sd	a2,1024(t1) # 1400 <.LBB13_4+0x260>
    50d8:	00065463          	bgez	a2,50e0 <.LBB13_228>
    50dc:	c00006b7          	lui	a3,0xc0000

00000000000050e0 <.LBB13_228>:
    50e0:	00001637          	lui	a2,0x1
    50e4:	40c40633          	sub	a2,s0,a2
    50e8:	3ed63c23          	sd	a3,1016(a2) # 13f8 <.LBB13_4+0x258>
    50ec:	a8843603          	ld	a2,-1400(s0)
    50f0:	e8043683          	ld	a3,-384(s0)
    50f4:	00d60633          	add	a2,a2,a3
    50f8:	000016b7          	lui	a3,0x1
    50fc:	40d406b3          	sub	a3,s0,a3
    5100:	7386b683          	ld	a3,1848(a3) # 1738 <.LBB13_5+0x8c>
    5104:	40d586bb          	subw	a3,a1,a3
    5108:	00d60633          	add	a2,a2,a3
    510c:	ff06061b          	addiw	a2,a2,-16
    5110:	400006b7          	lui	a3,0x40000
    5114:	00001337          	lui	t1,0x1
    5118:	40640333          	sub	t1,s0,t1
    511c:	40c33823          	sd	a2,1040(t1) # 1410 <.LBB13_4+0x270>
    5120:	00065463          	bgez	a2,5128 <.LBB13_230>
    5124:	c00006b7          	lui	a3,0xc0000

0000000000005128 <.LBB13_230>:
    5128:	00001637          	lui	a2,0x1
    512c:	40c40633          	sub	a2,s0,a2
    5130:	40d63423          	sd	a3,1032(a2) # 1408 <.LBB13_4+0x268>
    5134:	a9043603          	ld	a2,-1392(s0)
    5138:	e9043683          	ld	a3,-368(s0)
    513c:	00d60633          	add	a2,a2,a3
    5140:	000016b7          	lui	a3,0x1
    5144:	40d406b3          	sub	a3,s0,a3
    5148:	7406b683          	ld	a3,1856(a3) # 1740 <.LBB13_5+0x94>
    514c:	40d586bb          	subw	a3,a1,a3
    5150:	00d60633          	add	a2,a2,a3
    5154:	ff06061b          	addiw	a2,a2,-16
    5158:	400006b7          	lui	a3,0x40000
    515c:	00001337          	lui	t1,0x1
    5160:	40640333          	sub	t1,s0,t1
    5164:	42c33023          	sd	a2,1056(t1) # 1420 <.LBB13_4+0x280>
    5168:	00065463          	bgez	a2,5170 <.LBB13_232>
    516c:	c00006b7          	lui	a3,0xc0000

0000000000005170 <.LBB13_232>:
    5170:	00001637          	lui	a2,0x1
    5174:	40c40633          	sub	a2,s0,a2
    5178:	40d63c23          	sd	a3,1048(a2) # 1418 <.LBB13_4+0x278>
    517c:	a9843603          	ld	a2,-1384(s0)
    5180:	ea043683          	ld	a3,-352(s0)
    5184:	00d60633          	add	a2,a2,a3
    5188:	000016b7          	lui	a3,0x1
    518c:	40d406b3          	sub	a3,s0,a3
    5190:	7586b683          	ld	a3,1880(a3) # 1758 <.LBB13_5+0xac>
    5194:	40d586bb          	subw	a3,a1,a3
    5198:	00d60633          	add	a2,a2,a3
    519c:	ff06061b          	addiw	a2,a2,-16
    51a0:	400006b7          	lui	a3,0x40000
    51a4:	00001337          	lui	t1,0x1
    51a8:	40640333          	sub	t1,s0,t1
    51ac:	42c33823          	sd	a2,1072(t1) # 1430 <.LBB13_4+0x290>
    51b0:	00065463          	bgez	a2,51b8 <.LBB13_234>
    51b4:	c00006b7          	lui	a3,0xc0000

00000000000051b8 <.LBB13_234>:
    51b8:	00001637          	lui	a2,0x1
    51bc:	40c40633          	sub	a2,s0,a2
    51c0:	42d63423          	sd	a3,1064(a2) # 1428 <.LBB13_4+0x288>
    51c4:	aa043603          	ld	a2,-1376(s0)
    51c8:	eb043683          	ld	a3,-336(s0)
    51cc:	00d60633          	add	a2,a2,a3
    51d0:	e7843683          	ld	a3,-392(s0)
    51d4:	40d586bb          	subw	a3,a1,a3
    51d8:	00d60633          	add	a2,a2,a3
    51dc:	ff06061b          	addiw	a2,a2,-16
    51e0:	400006b7          	lui	a3,0x40000
    51e4:	00001337          	lui	t1,0x1
    51e8:	40640333          	sub	t1,s0,t1
    51ec:	44c33023          	sd	a2,1088(t1) # 1440 <.LBB13_4+0x2a0>
    51f0:	00065463          	bgez	a2,51f8 <.LBB13_236>
    51f4:	c00006b7          	lui	a3,0xc0000

00000000000051f8 <.LBB13_236>:
    51f8:	00001637          	lui	a2,0x1
    51fc:	40c40633          	sub	a2,s0,a2
    5200:	42d63c23          	sd	a3,1080(a2) # 1438 <.LBB13_4+0x298>
    5204:	aa843603          	ld	a2,-1368(s0)
    5208:	eb843683          	ld	a3,-328(s0)
    520c:	00d60633          	add	a2,a2,a3
    5210:	e8843683          	ld	a3,-376(s0)
    5214:	40d586bb          	subw	a3,a1,a3
    5218:	00d60633          	add	a2,a2,a3
    521c:	ff06061b          	addiw	a2,a2,-16
    5220:	400006b7          	lui	a3,0x40000
    5224:	00001337          	lui	t1,0x1
    5228:	40640333          	sub	t1,s0,t1
    522c:	44c33823          	sd	a2,1104(t1) # 1450 <.LBB13_4+0x2b0>
    5230:	00065463          	bgez	a2,5238 <.LBB13_238>
    5234:	c00006b7          	lui	a3,0xc0000

0000000000005238 <.LBB13_238>:
    5238:	00001637          	lui	a2,0x1
    523c:	40c40633          	sub	a2,s0,a2
    5240:	44d63423          	sd	a3,1096(a2) # 1448 <.LBB13_4+0x2a8>
    5244:	ab043603          	ld	a2,-1360(s0)
    5248:	ec843683          	ld	a3,-312(s0)
    524c:	00d60633          	add	a2,a2,a3
    5250:	e9843683          	ld	a3,-360(s0)
    5254:	40d586bb          	subw	a3,a1,a3
    5258:	00d60633          	add	a2,a2,a3
    525c:	ff06061b          	addiw	a2,a2,-16
    5260:	400006b7          	lui	a3,0x40000
    5264:	00001337          	lui	t1,0x1
    5268:	40640333          	sub	t1,s0,t1
    526c:	46c33023          	sd	a2,1120(t1) # 1460 <.LBB13_4+0x2c0>
    5270:	00065463          	bgez	a2,5278 <.LBB13_240>
    5274:	c00006b7          	lui	a3,0xc0000

0000000000005278 <.LBB13_240>:
    5278:	00001637          	lui	a2,0x1
    527c:	40c40633          	sub	a2,s0,a2
    5280:	44d63c23          	sd	a3,1112(a2) # 1458 <.LBB13_4+0x2b8>
    5284:	ab843603          	ld	a2,-1352(s0)
    5288:	ed843683          	ld	a3,-296(s0)
    528c:	00d60633          	add	a2,a2,a3
    5290:	ea843683          	ld	a3,-344(s0)
    5294:	40d586bb          	subw	a3,a1,a3
    5298:	00d60633          	add	a2,a2,a3
    529c:	ff06061b          	addiw	a2,a2,-16
    52a0:	400006b7          	lui	a3,0x40000
    52a4:	00001337          	lui	t1,0x1
    52a8:	40640333          	sub	t1,s0,t1
    52ac:	46c33823          	sd	a2,1136(t1) # 1470 <.LBB13_4+0x2d0>
    52b0:	00065463          	bgez	a2,52b8 <.LBB13_242>
    52b4:	c00006b7          	lui	a3,0xc0000

00000000000052b8 <.LBB13_242>:
    52b8:	00001637          	lui	a2,0x1
    52bc:	40c40633          	sub	a2,s0,a2
    52c0:	46d63423          	sd	a3,1128(a2) # 1468 <.LBB13_4+0x2c8>
    52c4:	ac043603          	ld	a2,-1344(s0)
    52c8:	ee843683          	ld	a3,-280(s0)
    52cc:	00d60633          	add	a2,a2,a3
    52d0:	ec043683          	ld	a3,-320(s0)
    52d4:	40d586bb          	subw	a3,a1,a3
    52d8:	00d60633          	add	a2,a2,a3
    52dc:	ff06061b          	addiw	a2,a2,-16
    52e0:	400006b7          	lui	a3,0x40000
    52e4:	00001337          	lui	t1,0x1
    52e8:	40640333          	sub	t1,s0,t1
    52ec:	48c33023          	sd	a2,1152(t1) # 1480 <.LBB13_4+0x2e0>
    52f0:	00065463          	bgez	a2,52f8 <.LBB13_244>
    52f4:	c00006b7          	lui	a3,0xc0000

00000000000052f8 <.LBB13_244>:
    52f8:	00001637          	lui	a2,0x1
    52fc:	40c40633          	sub	a2,s0,a2
    5300:	46d63c23          	sd	a3,1144(a2) # 1478 <.LBB13_4+0x2d8>
    5304:	ac843603          	ld	a2,-1336(s0)
    5308:	ef843683          	ld	a3,-264(s0)
    530c:	00d60633          	add	a2,a2,a3
    5310:	ed043683          	ld	a3,-304(s0)
    5314:	40d586bb          	subw	a3,a1,a3
    5318:	00d60633          	add	a2,a2,a3
    531c:	ff06061b          	addiw	a2,a2,-16
    5320:	400006b7          	lui	a3,0x40000
    5324:	00001337          	lui	t1,0x1
    5328:	40640333          	sub	t1,s0,t1
    532c:	48c33823          	sd	a2,1168(t1) # 1490 <.LBB13_4+0x2f0>
    5330:	00065463          	bgez	a2,5338 <.LBB13_246>
    5334:	c00006b7          	lui	a3,0xc0000

0000000000005338 <.LBB13_246>:
    5338:	00001637          	lui	a2,0x1
    533c:	40c40633          	sub	a2,s0,a2
    5340:	48d63423          	sd	a3,1160(a2) # 1488 <.LBB13_4+0x2e8>
    5344:	ad043603          	ld	a2,-1328(s0)
    5348:	f0043683          	ld	a3,-256(s0)
    534c:	00d60633          	add	a2,a2,a3
    5350:	ee043683          	ld	a3,-288(s0)
    5354:	40d586bb          	subw	a3,a1,a3
    5358:	00d60633          	add	a2,a2,a3
    535c:	ff06061b          	addiw	a2,a2,-16
    5360:	400006b7          	lui	a3,0x40000
    5364:	00001337          	lui	t1,0x1
    5368:	40640333          	sub	t1,s0,t1
    536c:	4ac33023          	sd	a2,1184(t1) # 14a0 <.LBB13_4+0x300>
    5370:	00065463          	bgez	a2,5378 <.LBB13_248>
    5374:	c00006b7          	lui	a3,0xc0000

0000000000005378 <.LBB13_248>:
    5378:	00001637          	lui	a2,0x1
    537c:	40c40633          	sub	a2,s0,a2
    5380:	48d63c23          	sd	a3,1176(a2) # 1498 <.LBB13_4+0x2f8>
    5384:	ad843603          	ld	a2,-1320(s0)
    5388:	f1043683          	ld	a3,-240(s0)
    538c:	00d60633          	add	a2,a2,a3
    5390:	ef043683          	ld	a3,-272(s0)
    5394:	40d586bb          	subw	a3,a1,a3
    5398:	00d60633          	add	a2,a2,a3
    539c:	ff06061b          	addiw	a2,a2,-16
    53a0:	400006b7          	lui	a3,0x40000
    53a4:	00001337          	lui	t1,0x1
    53a8:	40640333          	sub	t1,s0,t1
    53ac:	4ac33823          	sd	a2,1200(t1) # 14b0 <.LBB13_4+0x310>
    53b0:	00065463          	bgez	a2,53b8 <.LBB13_250>
    53b4:	c00006b7          	lui	a3,0xc0000

00000000000053b8 <.LBB13_250>:
    53b8:	00001637          	lui	a2,0x1
    53bc:	40c40633          	sub	a2,s0,a2
    53c0:	4ad63423          	sd	a3,1192(a2) # 14a8 <.LBB13_4+0x308>
    53c4:	ae043603          	ld	a2,-1312(s0)
    53c8:	f3843683          	ld	a3,-200(s0)
    53cc:	00d60633          	add	a2,a2,a3
    53d0:	f0843683          	ld	a3,-248(s0)
    53d4:	40d586bb          	subw	a3,a1,a3
    53d8:	00d60633          	add	a2,a2,a3
    53dc:	ff06061b          	addiw	a2,a2,-16
    53e0:	400006b7          	lui	a3,0x40000
    53e4:	00001337          	lui	t1,0x1
    53e8:	40640333          	sub	t1,s0,t1
    53ec:	4cc33023          	sd	a2,1216(t1) # 14c0 <.LBB13_4+0x320>
    53f0:	00065463          	bgez	a2,53f8 <.LBB13_252>
    53f4:	c00006b7          	lui	a3,0xc0000

00000000000053f8 <.LBB13_252>:
    53f8:	00001637          	lui	a2,0x1
    53fc:	40c40633          	sub	a2,s0,a2
    5400:	4ad63c23          	sd	a3,1208(a2) # 14b8 <.LBB13_4+0x318>
    5404:	ae843603          	ld	a2,-1304(s0)
    5408:	f4843683          	ld	a3,-184(s0)
    540c:	00d60633          	add	a2,a2,a3
    5410:	f3043683          	ld	a3,-208(s0)
    5414:	40d586bb          	subw	a3,a1,a3
    5418:	00d60633          	add	a2,a2,a3
    541c:	ff06061b          	addiw	a2,a2,-16
    5420:	400006b7          	lui	a3,0x40000
    5424:	00001337          	lui	t1,0x1
    5428:	40640333          	sub	t1,s0,t1
    542c:	4cc33823          	sd	a2,1232(t1) # 14d0 <.LBB13_4+0x330>
    5430:	00065463          	bgez	a2,5438 <.LBB13_254>
    5434:	c00006b7          	lui	a3,0xc0000

0000000000005438 <.LBB13_254>:
    5438:	00001637          	lui	a2,0x1
    543c:	40c40633          	sub	a2,s0,a2
    5440:	4cd63423          	sd	a3,1224(a2) # 14c8 <.LBB13_4+0x328>
    5444:	af043603          	ld	a2,-1296(s0)
    5448:	f5843683          	ld	a3,-168(s0)
    544c:	00d60633          	add	a2,a2,a3
    5450:	f4043683          	ld	a3,-192(s0)
    5454:	40d586bb          	subw	a3,a1,a3
    5458:	00d60633          	add	a2,a2,a3
    545c:	ff06061b          	addiw	a2,a2,-16
    5460:	400006b7          	lui	a3,0x40000
    5464:	00001337          	lui	t1,0x1
    5468:	40640333          	sub	t1,s0,t1
    546c:	4ec33023          	sd	a2,1248(t1) # 14e0 <.LBB13_4+0x340>
    5470:	00065463          	bgez	a2,5478 <.LBB13_256>
    5474:	c00006b7          	lui	a3,0xc0000

0000000000005478 <.LBB13_256>:
    5478:	00001637          	lui	a2,0x1
    547c:	40c40633          	sub	a2,s0,a2
    5480:	4cd63c23          	sd	a3,1240(a2) # 14d8 <.LBB13_4+0x338>
    5484:	af843603          	ld	a2,-1288(s0)
    5488:	f6843683          	ld	a3,-152(s0)
    548c:	00d60633          	add	a2,a2,a3
    5490:	f5043683          	ld	a3,-176(s0)
    5494:	40d586bb          	subw	a3,a1,a3
    5498:	00d60633          	add	a2,a2,a3
    549c:	ff06061b          	addiw	a2,a2,-16
    54a0:	400006b7          	lui	a3,0x40000
    54a4:	00001337          	lui	t1,0x1
    54a8:	40640333          	sub	t1,s0,t1
    54ac:	4ec33823          	sd	a2,1264(t1) # 14f0 <.LBB13_4+0x350>
    54b0:	00065463          	bgez	a2,54b8 <.LBB13_258>
    54b4:	c00006b7          	lui	a3,0xc0000

00000000000054b8 <.LBB13_258>:
    54b8:	00001637          	lui	a2,0x1
    54bc:	40c40633          	sub	a2,s0,a2
    54c0:	4ed63423          	sd	a3,1256(a2) # 14e8 <.LBB13_4+0x348>
    54c4:	b0043603          	ld	a2,-1280(s0)
    54c8:	f7043683          	ld	a3,-144(s0)
    54cc:	00d60633          	add	a2,a2,a3
    54d0:	f6043683          	ld	a3,-160(s0)
    54d4:	40d586bb          	subw	a3,a1,a3
    54d8:	00d60633          	add	a2,a2,a3
    54dc:	ff06061b          	addiw	a2,a2,-16
    54e0:	400006b7          	lui	a3,0x40000
    54e4:	00001337          	lui	t1,0x1
    54e8:	40640333          	sub	t1,s0,t1
    54ec:	50c33023          	sd	a2,1280(t1) # 1500 <.LBB13_4+0x360>
    54f0:	00065463          	bgez	a2,54f8 <.LBB13_260>
    54f4:	c00006b7          	lui	a3,0xc0000

00000000000054f8 <.LBB13_260>:
    54f8:	00001637          	lui	a2,0x1
    54fc:	40c40633          	sub	a2,s0,a2
    5500:	4ed63c23          	sd	a3,1272(a2) # 14f8 <.LBB13_4+0x358>
    5504:	b0843603          	ld	a2,-1272(s0)
    5508:	f8043683          	ld	a3,-128(s0)
    550c:	00d60633          	add	a2,a2,a3
    5510:	f7843683          	ld	a3,-136(s0)
    5514:	40d585bb          	subw	a1,a1,a3
    5518:	00b605b3          	add	a1,a2,a1
    551c:	ff05859b          	addiw	a1,a1,-16
    5520:	40000637          	lui	a2,0x40000
    5524:	e5043683          	ld	a3,-432(s0)
    5528:	00001337          	lui	t1,0x1
    552c:	40640333          	sub	t1,s0,t1
    5530:	50b33823          	sd	a1,1296(t1) # 1510 <.LBB13_4+0x370>
    5534:	0005d463          	bgez	a1,553c <.LBB13_262>
    5538:	c0000637          	lui	a2,0xc0000

000000000000553c <.LBB13_262>:
    553c:	000015b7          	lui	a1,0x1
    5540:	40b405b3          	sub	a1,s0,a1
    5544:	50c5b423          	sd	a2,1288(a1) # 1508 <.LBB13_4+0x368>
    5548:	b1043583          	ld	a1,-1264(s0)
    554c:	00001637          	lui	a2,0x1
    5550:	40c40633          	sub	a2,s0,a2
    5554:	6e063603          	ld	a2,1760(a2) # 16e0 <.LBB13_5+0x34>
    5558:	00c585b3          	add	a1,a1,a2
    555c:	00001637          	lui	a2,0x1
    5560:	40c40633          	sub	a2,s0,a2
    5564:	6d863603          	ld	a2,1752(a2) # 16d8 <.LBB13_5+0x2c>
    5568:	40c5063b          	subw	a2,a0,a2
    556c:	00c585b3          	add	a1,a1,a2
    5570:	ff05859b          	addiw	a1,a1,-16
    5574:	40000637          	lui	a2,0x40000
    5578:	00001337          	lui	t1,0x1
    557c:	40640333          	sub	t1,s0,t1
    5580:	52b33023          	sd	a1,1312(t1) # 1520 <.LBB13_4+0x380>
    5584:	0005d463          	bgez	a1,558c <.LBB13_264>
    5588:	c0000637          	lui	a2,0xc0000

000000000000558c <.LBB13_264>:
    558c:	000015b7          	lui	a1,0x1
    5590:	40b405b3          	sub	a1,s0,a1
    5594:	50c5bc23          	sd	a2,1304(a1) # 1518 <.LBB13_4+0x378>
    5598:	b1843583          	ld	a1,-1256(s0)
    559c:	00001637          	lui	a2,0x1
    55a0:	40c40633          	sub	a2,s0,a2
    55a4:	6d063603          	ld	a2,1744(a2) # 16d0 <.LBB13_5+0x24>
    55a8:	00c585b3          	add	a1,a1,a2
    55ac:	00001637          	lui	a2,0x1
    55b0:	40c40633          	sub	a2,s0,a2
    55b4:	6c863603          	ld	a2,1736(a2) # 16c8 <.LBB13_5+0x1c>
    55b8:	40c5063b          	subw	a2,a0,a2
    55bc:	00c585b3          	add	a1,a1,a2
    55c0:	ff05859b          	addiw	a1,a1,-16
    55c4:	40000637          	lui	a2,0x40000
    55c8:	00001337          	lui	t1,0x1
    55cc:	40640333          	sub	t1,s0,t1
    55d0:	52b33823          	sd	a1,1328(t1) # 1530 <.LBB13_4+0x390>
    55d4:	0005d463          	bgez	a1,55dc <.LBB13_266>
    55d8:	c0000637          	lui	a2,0xc0000

00000000000055dc <.LBB13_266>:
    55dc:	000015b7          	lui	a1,0x1
    55e0:	40b405b3          	sub	a1,s0,a1
    55e4:	52c5b423          	sd	a2,1320(a1) # 1528 <.LBB13_4+0x388>
    55e8:	b2043583          	ld	a1,-1248(s0)
    55ec:	00001637          	lui	a2,0x1
    55f0:	40c40633          	sub	a2,s0,a2
    55f4:	6c063603          	ld	a2,1728(a2) # 16c0 <.LBB13_5+0x14>
    55f8:	00c585b3          	add	a1,a1,a2
    55fc:	00001637          	lui	a2,0x1
    5600:	40c40633          	sub	a2,s0,a2
    5604:	6b863603          	ld	a2,1720(a2) # 16b8 <.LBB13_5+0xc>
    5608:	40c5063b          	subw	a2,a0,a2
    560c:	00c585b3          	add	a1,a1,a2
    5610:	ff05859b          	addiw	a1,a1,-16
    5614:	40000637          	lui	a2,0x40000
    5618:	00001337          	lui	t1,0x1
    561c:	40640333          	sub	t1,s0,t1
    5620:	54b33023          	sd	a1,1344(t1) # 1540 <.LBB13_4+0x3a0>
    5624:	0005d463          	bgez	a1,562c <.LBB13_268>
    5628:	c0000637          	lui	a2,0xc0000

000000000000562c <.LBB13_268>:
    562c:	000015b7          	lui	a1,0x1
    5630:	40b405b3          	sub	a1,s0,a1
    5634:	52c5bc23          	sd	a2,1336(a1) # 1538 <.LBB13_4+0x398>
    5638:	b2843583          	ld	a1,-1240(s0)
    563c:	00f585b3          	add	a1,a1,a5
    5640:	00001637          	lui	a2,0x1
    5644:	40c40633          	sub	a2,s0,a2
    5648:	6b063603          	ld	a2,1712(a2) # 16b0 <.LBB13_5+0x4>
    564c:	40c5063b          	subw	a2,a0,a2
    5650:	00c585b3          	add	a1,a1,a2
    5654:	ff05859b          	addiw	a1,a1,-16
    5658:	40000637          	lui	a2,0x40000
    565c:	00001337          	lui	t1,0x1
    5660:	40640333          	sub	t1,s0,t1
    5664:	54b33823          	sd	a1,1360(t1) # 1550 <.LBB13_4+0x3b0>
    5668:	0005d463          	bgez	a1,5670 <.LBB13_270>
    566c:	c0000637          	lui	a2,0xc0000

0000000000005670 <.LBB13_270>:
    5670:	000015b7          	lui	a1,0x1
    5674:	40b405b3          	sub	a1,s0,a1
    5678:	54c5b423          	sd	a2,1352(a1) # 1548 <.LBB13_4+0x3a8>
    567c:	b3043583          	ld	a1,-1232(s0)
    5680:	00001637          	lui	a2,0x1
    5684:	40c40633          	sub	a2,s0,a2
    5688:	6a863603          	ld	a2,1704(a2) # 16a8 <.LBB13_4+0x508>
    568c:	00c585b3          	add	a1,a1,a2
    5690:	00001637          	lui	a2,0x1
    5694:	40c40633          	sub	a2,s0,a2
    5698:	6a063603          	ld	a2,1696(a2) # 16a0 <.LBB13_4+0x500>
    569c:	40c5063b          	subw	a2,a0,a2
    56a0:	00c585b3          	add	a1,a1,a2
    56a4:	ff05859b          	addiw	a1,a1,-16
    56a8:	40000637          	lui	a2,0x40000
    56ac:	00001337          	lui	t1,0x1
    56b0:	40640333          	sub	t1,s0,t1
    56b4:	56b33023          	sd	a1,1376(t1) # 1560 <.LBB13_4+0x3c0>
    56b8:	0005d463          	bgez	a1,56c0 <.LBB13_272>
    56bc:	c0000637          	lui	a2,0xc0000

00000000000056c0 <.LBB13_272>:
    56c0:	000015b7          	lui	a1,0x1
    56c4:	40b405b3          	sub	a1,s0,a1
    56c8:	54c5bc23          	sd	a2,1368(a1) # 1558 <.LBB13_4+0x3b8>
    56cc:	b3843583          	ld	a1,-1224(s0)
    56d0:	00001637          	lui	a2,0x1
    56d4:	40c40633          	sub	a2,s0,a2
    56d8:	69863603          	ld	a2,1688(a2) # 1698 <.LBB13_4+0x4f8>
    56dc:	00c585b3          	add	a1,a1,a2
    56e0:	00001637          	lui	a2,0x1
    56e4:	40c40633          	sub	a2,s0,a2
    56e8:	69063603          	ld	a2,1680(a2) # 1690 <.LBB13_4+0x4f0>
    56ec:	40c5063b          	subw	a2,a0,a2
    56f0:	00c585b3          	add	a1,a1,a2
    56f4:	ff05859b          	addiw	a1,a1,-16
    56f8:	40000637          	lui	a2,0x40000
    56fc:	00001337          	lui	t1,0x1
    5700:	40640333          	sub	t1,s0,t1
    5704:	56b33823          	sd	a1,1392(t1) # 1570 <.LBB13_4+0x3d0>
    5708:	0005d463          	bgez	a1,5710 <.LBB13_274>
    570c:	c0000637          	lui	a2,0xc0000

0000000000005710 <.LBB13_274>:
    5710:	000015b7          	lui	a1,0x1
    5714:	40b405b3          	sub	a1,s0,a1
    5718:	56c5b423          	sd	a2,1384(a1) # 1568 <.LBB13_4+0x3c8>
    571c:	b4043583          	ld	a1,-1216(s0)
    5720:	00001637          	lui	a2,0x1
    5724:	40c40633          	sub	a2,s0,a2
    5728:	68863603          	ld	a2,1672(a2) # 1688 <.LBB13_4+0x4e8>
    572c:	00c585b3          	add	a1,a1,a2
    5730:	00001637          	lui	a2,0x1
    5734:	40c40633          	sub	a2,s0,a2
    5738:	68063603          	ld	a2,1664(a2) # 1680 <.LBB13_4+0x4e0>
    573c:	40c5063b          	subw	a2,a0,a2
    5740:	00c585b3          	add	a1,a1,a2
    5744:	ff05859b          	addiw	a1,a1,-16
    5748:	40000637          	lui	a2,0x40000
    574c:	00001337          	lui	t1,0x1
    5750:	40640333          	sub	t1,s0,t1
    5754:	58b33023          	sd	a1,1408(t1) # 1580 <.LBB13_4+0x3e0>
    5758:	0005d463          	bgez	a1,5760 <.LBB13_276>
    575c:	c0000637          	lui	a2,0xc0000

0000000000005760 <.LBB13_276>:
    5760:	000015b7          	lui	a1,0x1
    5764:	40b405b3          	sub	a1,s0,a1
    5768:	56c5bc23          	sd	a2,1400(a1) # 1578 <.LBB13_4+0x3d8>
    576c:	b4843583          	ld	a1,-1208(s0)
    5770:	00001637          	lui	a2,0x1
    5774:	40c40633          	sub	a2,s0,a2
    5778:	67863603          	ld	a2,1656(a2) # 1678 <.LBB13_4+0x4d8>
    577c:	00c585b3          	add	a1,a1,a2
    5780:	00001637          	lui	a2,0x1
    5784:	40c40633          	sub	a2,s0,a2
    5788:	67063603          	ld	a2,1648(a2) # 1670 <.LBB13_4+0x4d0>
    578c:	40c5063b          	subw	a2,a0,a2
    5790:	00c585b3          	add	a1,a1,a2
    5794:	ff05859b          	addiw	a1,a1,-16
    5798:	40000637          	lui	a2,0x40000
    579c:	00001337          	lui	t1,0x1
    57a0:	40640333          	sub	t1,s0,t1
    57a4:	58b33823          	sd	a1,1424(t1) # 1590 <.LBB13_4+0x3f0>
    57a8:	0005d463          	bgez	a1,57b0 <.LBB13_278>
    57ac:	c0000637          	lui	a2,0xc0000

00000000000057b0 <.LBB13_278>:
    57b0:	000015b7          	lui	a1,0x1
    57b4:	40b405b3          	sub	a1,s0,a1
    57b8:	58c5b423          	sd	a2,1416(a1) # 1588 <.LBB13_4+0x3e8>
    57bc:	b5043583          	ld	a1,-1200(s0)
    57c0:	00001637          	lui	a2,0x1
    57c4:	40c40633          	sub	a2,s0,a2
    57c8:	66863603          	ld	a2,1640(a2) # 1668 <.LBB13_4+0x4c8>
    57cc:	00c585b3          	add	a1,a1,a2
    57d0:	00001637          	lui	a2,0x1
    57d4:	40c40633          	sub	a2,s0,a2
    57d8:	66063603          	ld	a2,1632(a2) # 1660 <.LBB13_4+0x4c0>
    57dc:	40c5063b          	subw	a2,a0,a2
    57e0:	00c585b3          	add	a1,a1,a2
    57e4:	ff05859b          	addiw	a1,a1,-16
    57e8:	40000637          	lui	a2,0x40000
    57ec:	00001337          	lui	t1,0x1
    57f0:	40640333          	sub	t1,s0,t1
    57f4:	5ab33023          	sd	a1,1440(t1) # 15a0 <.LBB13_4+0x400>
    57f8:	0005d463          	bgez	a1,5800 <.LBB13_280>
    57fc:	c0000637          	lui	a2,0xc0000

0000000000005800 <.LBB13_280>:
    5800:	000015b7          	lui	a1,0x1
    5804:	40b405b3          	sub	a1,s0,a1
    5808:	58c5bc23          	sd	a2,1432(a1) # 1598 <.LBB13_4+0x3f8>
    580c:	b5843583          	ld	a1,-1192(s0)
    5810:	00001637          	lui	a2,0x1
    5814:	40c40633          	sub	a2,s0,a2
    5818:	65863603          	ld	a2,1624(a2) # 1658 <.LBB13_4+0x4b8>
    581c:	00c585b3          	add	a1,a1,a2
    5820:	00001637          	lui	a2,0x1
    5824:	40c40633          	sub	a2,s0,a2
    5828:	76863603          	ld	a2,1896(a2) # 1768 <.LBB13_5+0xbc>
    582c:	40c5063b          	subw	a2,a0,a2
    5830:	00c585b3          	add	a1,a1,a2
    5834:	ff05859b          	addiw	a1,a1,-16
    5838:	40000637          	lui	a2,0x40000
    583c:	00001337          	lui	t1,0x1
    5840:	40640333          	sub	t1,s0,t1
    5844:	5ab33823          	sd	a1,1456(t1) # 15b0 <.LBB13_4+0x410>
    5848:	0005d463          	bgez	a1,5850 <.LBB13_282>
    584c:	c0000637          	lui	a2,0xc0000

0000000000005850 <.LBB13_282>:
    5850:	000015b7          	lui	a1,0x1
    5854:	40b405b3          	sub	a1,s0,a1
    5858:	5ac5b423          	sd	a2,1448(a1) # 15a8 <.LBB13_4+0x408>
    585c:	b6043583          	ld	a1,-1184(s0)
    5860:	00001637          	lui	a2,0x1
    5864:	40c40633          	sub	a2,s0,a2
    5868:	73063603          	ld	a2,1840(a2) # 1730 <.LBB13_5+0x84>
    586c:	00c585b3          	add	a1,a1,a2
    5870:	00001637          	lui	a2,0x1
    5874:	40c40633          	sub	a2,s0,a2
    5878:	6e863603          	ld	a2,1768(a2) # 16e8 <.LBB13_5+0x3c>
    587c:	40c5063b          	subw	a2,a0,a2
    5880:	00c585b3          	add	a1,a1,a2
    5884:	ff05859b          	addiw	a1,a1,-16
    5888:	40000637          	lui	a2,0x40000
    588c:	00001337          	lui	t1,0x1
    5890:	40640333          	sub	t1,s0,t1
    5894:	5cb33023          	sd	a1,1472(t1) # 15c0 <.LBB13_4+0x420>
    5898:	0005d463          	bgez	a1,58a0 <.LBB13_284>
    589c:	c0000637          	lui	a2,0xc0000

00000000000058a0 <.LBB13_284>:
    58a0:	000015b7          	lui	a1,0x1
    58a4:	40b405b3          	sub	a1,s0,a1
    58a8:	5ac5bc23          	sd	a2,1464(a1) # 15b8 <.LBB13_4+0x418>
    58ac:	b6843583          	ld	a1,-1176(s0)
    58b0:	010585b3          	add	a1,a1,a6
    58b4:	00001637          	lui	a2,0x1
    58b8:	40c40633          	sub	a2,s0,a2
    58bc:	6f063603          	ld	a2,1776(a2) # 16f0 <.LBB13_5+0x44>
    58c0:	40c5063b          	subw	a2,a0,a2
    58c4:	00c585b3          	add	a1,a1,a2
    58c8:	ff05859b          	addiw	a1,a1,-16
    58cc:	40000637          	lui	a2,0x40000
    58d0:	00001337          	lui	t1,0x1
    58d4:	40640333          	sub	t1,s0,t1
    58d8:	5cb33823          	sd	a1,1488(t1) # 15d0 <.LBB13_4+0x430>
    58dc:	0005d463          	bgez	a1,58e4 <.LBB13_286>
    58e0:	c0000637          	lui	a2,0xc0000

00000000000058e4 <.LBB13_286>:
    58e4:	000015b7          	lui	a1,0x1
    58e8:	40b405b3          	sub	a1,s0,a1
    58ec:	5cc5b423          	sd	a2,1480(a1) # 15c8 <.LBB13_4+0x428>
    58f0:	b7043583          	ld	a1,-1168(s0)
    58f4:	00001637          	lui	a2,0x1
    58f8:	40c40633          	sub	a2,s0,a2
    58fc:	74863603          	ld	a2,1864(a2) # 1748 <.LBB13_5+0x9c>
    5900:	00c585b3          	add	a1,a1,a2
    5904:	00001637          	lui	a2,0x1
    5908:	40c40633          	sub	a2,s0,a2
    590c:	6f863603          	ld	a2,1784(a2) # 16f8 <.LBB13_5+0x4c>
    5910:	40c5063b          	subw	a2,a0,a2
    5914:	00c585b3          	add	a1,a1,a2
    5918:	ff05859b          	addiw	a1,a1,-16
    591c:	40000637          	lui	a2,0x40000
    5920:	00001337          	lui	t1,0x1
    5924:	40640333          	sub	t1,s0,t1
    5928:	5eb33023          	sd	a1,1504(t1) # 15e0 <.LBB13_4+0x440>
    592c:	0005d463          	bgez	a1,5934 <.LBB13_288>
    5930:	c0000637          	lui	a2,0xc0000

0000000000005934 <.LBB13_288>:
    5934:	000015b7          	lui	a1,0x1
    5938:	40b405b3          	sub	a1,s0,a1
    593c:	5cc5bc23          	sd	a2,1496(a1) # 15d8 <.LBB13_4+0x438>
    5940:	b7843583          	ld	a1,-1160(s0)
    5944:	00001637          	lui	a2,0x1
    5948:	40c40633          	sub	a2,s0,a2
    594c:	75063603          	ld	a2,1872(a2) # 1750 <.LBB13_5+0xa4>
    5950:	00c585b3          	add	a1,a1,a2
    5954:	00001637          	lui	a2,0x1
    5958:	40c40633          	sub	a2,s0,a2
    595c:	72063603          	ld	a2,1824(a2) # 1720 <.LBB13_5+0x74>
    5960:	40c5063b          	subw	a2,a0,a2
    5964:	00c585b3          	add	a1,a1,a2
    5968:	ff05859b          	addiw	a1,a1,-16
    596c:	40000637          	lui	a2,0x40000
    5970:	00001337          	lui	t1,0x1
    5974:	40640333          	sub	t1,s0,t1
    5978:	5eb33823          	sd	a1,1520(t1) # 15f0 <.LBB13_4+0x450>
    597c:	0005d463          	bgez	a1,5984 <.LBB13_290>
    5980:	c0000637          	lui	a2,0xc0000

0000000000005984 <.LBB13_290>:
    5984:	000015b7          	lui	a1,0x1
    5988:	40b405b3          	sub	a1,s0,a1
    598c:	5ec5b423          	sd	a2,1512(a1) # 15e8 <.LBB13_4+0x448>
    5990:	b8043583          	ld	a1,-1152(s0)
    5994:	00001637          	lui	a2,0x1
    5998:	40c40633          	sub	a2,s0,a2
    599c:	76063603          	ld	a2,1888(a2) # 1760 <.LBB13_5+0xb4>
    59a0:	00c585b3          	add	a1,a1,a2
    59a4:	00001637          	lui	a2,0x1
    59a8:	40c40633          	sub	a2,s0,a2
    59ac:	72863603          	ld	a2,1832(a2) # 1728 <.LBB13_5+0x7c>
    59b0:	40c5063b          	subw	a2,a0,a2
    59b4:	00c585b3          	add	a1,a1,a2
    59b8:	ff05859b          	addiw	a1,a1,-16
    59bc:	40000637          	lui	a2,0x40000
    59c0:	00001337          	lui	t1,0x1
    59c4:	40640333          	sub	t1,s0,t1
    59c8:	60b33023          	sd	a1,1536(t1) # 1600 <.LBB13_4+0x460>
    59cc:	0005d463          	bgez	a1,59d4 <.LBB13_292>
    59d0:	c0000637          	lui	a2,0xc0000

00000000000059d4 <.LBB13_292>:
    59d4:	000015b7          	lui	a1,0x1
    59d8:	40b405b3          	sub	a1,s0,a1
    59dc:	5ec5bc23          	sd	a2,1528(a1) # 15f8 <.LBB13_4+0x458>
    59e0:	b8843583          	ld	a1,-1144(s0)
    59e4:	e8043603          	ld	a2,-384(s0)
    59e8:	00c585b3          	add	a1,a1,a2
    59ec:	00001637          	lui	a2,0x1
    59f0:	40c40633          	sub	a2,s0,a2
    59f4:	73863603          	ld	a2,1848(a2) # 1738 <.LBB13_5+0x8c>
    59f8:	40c5063b          	subw	a2,a0,a2
    59fc:	00c585b3          	add	a1,a1,a2
    5a00:	ff05859b          	addiw	a1,a1,-16
    5a04:	40000637          	lui	a2,0x40000
    5a08:	00001337          	lui	t1,0x1
    5a0c:	40640333          	sub	t1,s0,t1
    5a10:	60b33823          	sd	a1,1552(t1) # 1610 <.LBB13_4+0x470>
    5a14:	0005d463          	bgez	a1,5a1c <.LBB13_294>
    5a18:	c0000637          	lui	a2,0xc0000

0000000000005a1c <.LBB13_294>:
    5a1c:	000015b7          	lui	a1,0x1
    5a20:	40b405b3          	sub	a1,s0,a1
    5a24:	60c5b423          	sd	a2,1544(a1) # 1608 <.LBB13_4+0x468>
    5a28:	b9043583          	ld	a1,-1136(s0)
    5a2c:	e9043603          	ld	a2,-368(s0)
    5a30:	00c585b3          	add	a1,a1,a2
    5a34:	00001637          	lui	a2,0x1
    5a38:	40c40633          	sub	a2,s0,a2
    5a3c:	74063603          	ld	a2,1856(a2) # 1740 <.LBB13_5+0x94>
    5a40:	40c5063b          	subw	a2,a0,a2
    5a44:	00c585b3          	add	a1,a1,a2
    5a48:	ff05859b          	addiw	a1,a1,-16
    5a4c:	40000637          	lui	a2,0x40000
    5a50:	00001337          	lui	t1,0x1
    5a54:	40640333          	sub	t1,s0,t1
    5a58:	70b33023          	sd	a1,1792(t1) # 1700 <.LBB13_5+0x54>
    5a5c:	0005d463          	bgez	a1,5a64 <.LBB13_296>
    5a60:	c0000637          	lui	a2,0xc0000

0000000000005a64 <.LBB13_296>:
    5a64:	000015b7          	lui	a1,0x1
    5a68:	40b405b3          	sub	a1,s0,a1
    5a6c:	60c5bc23          	sd	a2,1560(a1) # 1618 <.LBB13_4+0x478>
    5a70:	b9843583          	ld	a1,-1128(s0)
    5a74:	ea043603          	ld	a2,-352(s0)
    5a78:	00c585b3          	add	a1,a1,a2
    5a7c:	00001637          	lui	a2,0x1
    5a80:	40c40633          	sub	a2,s0,a2
    5a84:	75863603          	ld	a2,1880(a2) # 1758 <.LBB13_5+0xac>
    5a88:	40c5063b          	subw	a2,a0,a2
    5a8c:	00c585b3          	add	a1,a1,a2
    5a90:	ff05859b          	addiw	a1,a1,-16
    5a94:	40000637          	lui	a2,0x40000
    5a98:	00001337          	lui	t1,0x1
    5a9c:	40640333          	sub	t1,s0,t1
    5aa0:	70b33823          	sd	a1,1808(t1) # 1710 <.LBB13_5+0x64>
    5aa4:	0005d463          	bgez	a1,5aac <.LBB13_298>
    5aa8:	c0000637          	lui	a2,0xc0000

0000000000005aac <.LBB13_298>:
    5aac:	000015b7          	lui	a1,0x1
    5ab0:	40b405b3          	sub	a1,s0,a1
    5ab4:	70c5b423          	sd	a2,1800(a1) # 1708 <.LBB13_5+0x5c>
    5ab8:	ba043583          	ld	a1,-1120(s0)
    5abc:	eb043603          	ld	a2,-336(s0)
    5ac0:	00c585b3          	add	a1,a1,a2
    5ac4:	e7843603          	ld	a2,-392(s0)
    5ac8:	40c5063b          	subw	a2,a0,a2
    5acc:	00c585b3          	add	a1,a1,a2
    5ad0:	ff05859b          	addiw	a1,a1,-16
    5ad4:	40000637          	lui	a2,0x40000
    5ad8:	00001337          	lui	t1,0x1
    5adc:	40640333          	sub	t1,s0,t1
    5ae0:	76b33823          	sd	a1,1904(t1) # 1770 <.LBB13_5+0xc4>
    5ae4:	0005d463          	bgez	a1,5aec <.LBB13_300>
    5ae8:	c0000637          	lui	a2,0xc0000

0000000000005aec <.LBB13_300>:
    5aec:	000015b7          	lui	a1,0x1
    5af0:	40b405b3          	sub	a1,s0,a1
    5af4:	70c5bc23          	sd	a2,1816(a1) # 1718 <.LBB13_5+0x6c>
    5af8:	ba843583          	ld	a1,-1112(s0)
    5afc:	eb843603          	ld	a2,-328(s0)
    5b00:	00c585b3          	add	a1,a1,a2
    5b04:	e8843603          	ld	a2,-376(s0)
    5b08:	40c5063b          	subw	a2,a0,a2
    5b0c:	00c585b3          	add	a1,a1,a2
    5b10:	ff05859b          	addiw	a1,a1,-16
    5b14:	40000637          	lui	a2,0x40000
    5b18:	00001337          	lui	t1,0x1
    5b1c:	40640333          	sub	t1,s0,t1
    5b20:	78b33023          	sd	a1,1920(t1) # 1780 <.LBB13_5+0xd4>
    5b24:	0005d463          	bgez	a1,5b2c <.LBB13_302>
    5b28:	c0000637          	lui	a2,0xc0000

0000000000005b2c <.LBB13_302>:
    5b2c:	000015b7          	lui	a1,0x1
    5b30:	40b405b3          	sub	a1,s0,a1
    5b34:	76c5bc23          	sd	a2,1912(a1) # 1778 <.LBB13_5+0xcc>
    5b38:	bb043583          	ld	a1,-1104(s0)
    5b3c:	ec843603          	ld	a2,-312(s0)
    5b40:	00c585b3          	add	a1,a1,a2
    5b44:	e9843603          	ld	a2,-360(s0)
    5b48:	40c5063b          	subw	a2,a0,a2
    5b4c:	00c585b3          	add	a1,a1,a2
    5b50:	ff05859b          	addiw	a1,a1,-16
    5b54:	40000637          	lui	a2,0x40000
    5b58:	00001337          	lui	t1,0x1
    5b5c:	40640333          	sub	t1,s0,t1
    5b60:	78b33823          	sd	a1,1936(t1) # 1790 <.LBB13_5+0xe4>
    5b64:	0005d463          	bgez	a1,5b6c <.LBB13_304>
    5b68:	c0000637          	lui	a2,0xc0000

0000000000005b6c <.LBB13_304>:
    5b6c:	000015b7          	lui	a1,0x1
    5b70:	40b405b3          	sub	a1,s0,a1
    5b74:	78c5b423          	sd	a2,1928(a1) # 1788 <.LBB13_5+0xdc>
    5b78:	bb843583          	ld	a1,-1096(s0)
    5b7c:	ed843603          	ld	a2,-296(s0)
    5b80:	00c585b3          	add	a1,a1,a2
    5b84:	ea843603          	ld	a2,-344(s0)
    5b88:	40c5063b          	subw	a2,a0,a2
    5b8c:	00c585b3          	add	a1,a1,a2
    5b90:	ff05859b          	addiw	a1,a1,-16
    5b94:	40000637          	lui	a2,0x40000
    5b98:	00001337          	lui	t1,0x1
    5b9c:	40640333          	sub	t1,s0,t1
    5ba0:	7ab33423          	sd	a1,1960(t1) # 17a8 <.LBB13_5+0xfc>
    5ba4:	0005d463          	bgez	a1,5bac <.LBB13_306>
    5ba8:	c0000637          	lui	a2,0xc0000

0000000000005bac <.LBB13_306>:
    5bac:	000015b7          	lui	a1,0x1
    5bb0:	40b405b3          	sub	a1,s0,a1
    5bb4:	78c5bc23          	sd	a2,1944(a1) # 1798 <.LBB13_5+0xec>
    5bb8:	bc043583          	ld	a1,-1088(s0)
    5bbc:	ee843603          	ld	a2,-280(s0)
    5bc0:	00c585b3          	add	a1,a1,a2
    5bc4:	ec043603          	ld	a2,-320(s0)
    5bc8:	40c5063b          	subw	a2,a0,a2
    5bcc:	00c585b3          	add	a1,a1,a2
    5bd0:	ff05859b          	addiw	a1,a1,-16
    5bd4:	40000637          	lui	a2,0x40000
    5bd8:	00001337          	lui	t1,0x1
    5bdc:	40640333          	sub	t1,s0,t1
    5be0:	7ab33c23          	sd	a1,1976(t1) # 17b8 <.LBB13_5+0x10c>
    5be4:	0005d463          	bgez	a1,5bec <.LBB13_308>
    5be8:	c0000637          	lui	a2,0xc0000

0000000000005bec <.LBB13_308>:
    5bec:	000015b7          	lui	a1,0x1
    5bf0:	40b405b3          	sub	a1,s0,a1
    5bf4:	7ac5b823          	sd	a2,1968(a1) # 17b0 <.LBB13_5+0x104>
    5bf8:	bc843583          	ld	a1,-1080(s0)
    5bfc:	ef843603          	ld	a2,-264(s0)
    5c00:	00c585b3          	add	a1,a1,a2
    5c04:	ed043603          	ld	a2,-304(s0)
    5c08:	40c5063b          	subw	a2,a0,a2
    5c0c:	00c585b3          	add	a1,a1,a2
    5c10:	ff05859b          	addiw	a1,a1,-16
    5c14:	40000637          	lui	a2,0x40000
    5c18:	00001337          	lui	t1,0x1
    5c1c:	40640333          	sub	t1,s0,t1
    5c20:	7cb33423          	sd	a1,1992(t1) # 17c8 <.LBB13_5+0x11c>
    5c24:	0005d463          	bgez	a1,5c2c <.LBB13_310>
    5c28:	c0000637          	lui	a2,0xc0000

0000000000005c2c <.LBB13_310>:
    5c2c:	000015b7          	lui	a1,0x1
    5c30:	40b405b3          	sub	a1,s0,a1
    5c34:	7cc5b023          	sd	a2,1984(a1) # 17c0 <.LBB13_5+0x114>
    5c38:	bd043583          	ld	a1,-1072(s0)
    5c3c:	f0043603          	ld	a2,-256(s0)
    5c40:	00c585b3          	add	a1,a1,a2
    5c44:	ee043603          	ld	a2,-288(s0)
    5c48:	40c5063b          	subw	a2,a0,a2
    5c4c:	00c585b3          	add	a1,a1,a2
    5c50:	ff05859b          	addiw	a1,a1,-16
    5c54:	40000637          	lui	a2,0x40000
    5c58:	00001337          	lui	t1,0x1
    5c5c:	40640333          	sub	t1,s0,t1
    5c60:	7cb33c23          	sd	a1,2008(t1) # 17d8 <.LBB13_5+0x12c>
    5c64:	0005d463          	bgez	a1,5c6c <.LBB13_312>
    5c68:	c0000637          	lui	a2,0xc0000

0000000000005c6c <.LBB13_312>:
    5c6c:	000015b7          	lui	a1,0x1
    5c70:	40b405b3          	sub	a1,s0,a1
    5c74:	7cc5b823          	sd	a2,2000(a1) # 17d0 <.LBB13_5+0x124>
    5c78:	bd843583          	ld	a1,-1064(s0)
    5c7c:	f1043603          	ld	a2,-240(s0)
    5c80:	00c585b3          	add	a1,a1,a2
    5c84:	ef043603          	ld	a2,-272(s0)
    5c88:	40c5063b          	subw	a2,a0,a2
    5c8c:	00c585b3          	add	a1,a1,a2
    5c90:	ff05859b          	addiw	a1,a1,-16
    5c94:	40000637          	lui	a2,0x40000
    5c98:	00001337          	lui	t1,0x1
    5c9c:	40640333          	sub	t1,s0,t1
    5ca0:	7eb33423          	sd	a1,2024(t1) # 17e8 <.LBB13_5+0x13c>
    5ca4:	0005d463          	bgez	a1,5cac <.LBB13_314>
    5ca8:	c0000637          	lui	a2,0xc0000

0000000000005cac <.LBB13_314>:
    5cac:	000015b7          	lui	a1,0x1
    5cb0:	40b405b3          	sub	a1,s0,a1
    5cb4:	7ec5b023          	sd	a2,2016(a1) # 17e0 <.LBB13_5+0x134>
    5cb8:	be043583          	ld	a1,-1056(s0)
    5cbc:	f3843603          	ld	a2,-200(s0)
    5cc0:	00c585b3          	add	a1,a1,a2
    5cc4:	f0843603          	ld	a2,-248(s0)
    5cc8:	40c5063b          	subw	a2,a0,a2
    5ccc:	00c585b3          	add	a1,a1,a2
    5cd0:	ff05859b          	addiw	a1,a1,-16
    5cd4:	40000637          	lui	a2,0x40000
    5cd8:	00001337          	lui	t1,0x1
    5cdc:	40640333          	sub	t1,s0,t1
    5ce0:	7eb33c23          	sd	a1,2040(t1) # 17f8 <.LBB13_5+0x14c>
    5ce4:	0005d463          	bgez	a1,5cec <.LBB13_316>
    5ce8:	c0000637          	lui	a2,0xc0000

0000000000005cec <.LBB13_316>:
    5cec:	000015b7          	lui	a1,0x1
    5cf0:	40b405b3          	sub	a1,s0,a1
    5cf4:	7ec5b823          	sd	a2,2032(a1) # 17f0 <.LBB13_5+0x144>
    5cf8:	be843583          	ld	a1,-1048(s0)
    5cfc:	f4843603          	ld	a2,-184(s0)
    5d00:	00c585b3          	add	a1,a1,a2
    5d04:	f3043603          	ld	a2,-208(s0)
    5d08:	40c5063b          	subw	a2,a0,a2
    5d0c:	00c585b3          	add	a1,a1,a2
    5d10:	ff05859b          	addiw	a1,a1,-16
    5d14:	40000637          	lui	a2,0x40000
    5d18:	80b43823          	sd	a1,-2032(s0)
    5d1c:	0005d463          	bgez	a1,5d24 <.LBB13_318>
    5d20:	c0000637          	lui	a2,0xc0000

0000000000005d24 <.LBB13_318>:
    5d24:	80c43423          	sd	a2,-2040(s0)
    5d28:	bf043583          	ld	a1,-1040(s0)
    5d2c:	f5843603          	ld	a2,-168(s0)
    5d30:	00c585b3          	add	a1,a1,a2
    5d34:	f4043603          	ld	a2,-192(s0)
    5d38:	40c5063b          	subw	a2,a0,a2
    5d3c:	00c585b3          	add	a1,a1,a2
    5d40:	ff05859b          	addiw	a1,a1,-16
    5d44:	40000637          	lui	a2,0x40000
    5d48:	82b43023          	sd	a1,-2016(s0)
    5d4c:	0005d463          	bgez	a1,5d54 <.LBB13_320>
    5d50:	c0000637          	lui	a2,0xc0000

0000000000005d54 <.LBB13_320>:
    5d54:	80c43c23          	sd	a2,-2024(s0)
    5d58:	bf843583          	ld	a1,-1032(s0)
    5d5c:	f6843603          	ld	a2,-152(s0)
    5d60:	00c585b3          	add	a1,a1,a2
    5d64:	f5043603          	ld	a2,-176(s0)
    5d68:	40c5063b          	subw	a2,a0,a2
    5d6c:	00c585b3          	add	a1,a1,a2
    5d70:	ff05859b          	addiw	a1,a1,-16
    5d74:	40000637          	lui	a2,0x40000
    5d78:	82b43823          	sd	a1,-2000(s0)
    5d7c:	0005d463          	bgez	a1,5d84 <.LBB13_322>
    5d80:	c0000637          	lui	a2,0xc0000

0000000000005d84 <.LBB13_322>:
    5d84:	82c43423          	sd	a2,-2008(s0)
    5d88:	f7043583          	ld	a1,-144(s0)
    5d8c:	00bd05b3          	add	a1,s10,a1
    5d90:	f6043603          	ld	a2,-160(s0)
    5d94:	40c5063b          	subw	a2,a0,a2
    5d98:	00c585b3          	add	a1,a1,a2
    5d9c:	ff05859b          	addiw	a1,a1,-16
    5da0:	40000637          	lui	a2,0x40000
    5da4:	84b43423          	sd	a1,-1976(s0)
    5da8:	0005d463          	bgez	a1,5db0 <.LBB13_324>
    5dac:	c0000637          	lui	a2,0xc0000

0000000000005db0 <.LBB13_324>:
    5db0:	82c43c23          	sd	a2,-1992(s0)
    5db4:	f8043583          	ld	a1,-128(s0)
    5db8:	00b485b3          	add	a1,s1,a1
    5dbc:	f7843603          	ld	a2,-136(s0)
    5dc0:	40c5053b          	subw	a0,a0,a2
    5dc4:	00a58533          	add	a0,a1,a0
    5dc8:	ff05051b          	addiw	a0,a0,-16
    5dcc:	400005b7          	lui	a1,0x40000
    5dd0:	e6043483          	ld	s1,-416(s0)
    5dd4:	e5843d03          	ld	s10,-424(s0)
    5dd8:	e6843603          	ld	a2,-408(s0)
    5ddc:	84a43c23          	sd	a0,-1960(s0)
    5de0:	00055463          	bgez	a0,5de8 <.LBB13_326>
    5de4:	c00005b7          	lui	a1,0xc0000

0000000000005de8 <.LBB13_326>:
    5de8:	84b43823          	sd	a1,-1968(s0)
    5dec:	c1043503          	ld	a0,-1008(s0)
    5df0:	000015b7          	lui	a1,0x1
    5df4:	40b405b3          	sub	a1,s0,a1
    5df8:	6e05b583          	ld	a1,1760(a1) # 16e0 <.LBB13_5+0x34>
    5dfc:	00b50533          	add	a0,a0,a1
    5e00:	000015b7          	lui	a1,0x1
    5e04:	40b405b3          	sub	a1,s0,a1
    5e08:	6d85b583          	ld	a1,1752(a1) # 16d8 <.LBB13_5+0x2c>
    5e0c:	40b705bb          	subw	a1,a4,a1
    5e10:	00b50533          	add	a0,a0,a1
    5e14:	ff05051b          	addiw	a0,a0,-16
    5e18:	400005b7          	lui	a1,0x40000
    5e1c:	86a43823          	sd	a0,-1936(s0)
    5e20:	00055463          	bgez	a0,5e28 <.LBB13_328>
    5e24:	c00005b7          	lui	a1,0xc0000

0000000000005e28 <.LBB13_328>:
    5e28:	86b43023          	sd	a1,-1952(s0)
    5e2c:	c1843503          	ld	a0,-1000(s0)
    5e30:	000015b7          	lui	a1,0x1
    5e34:	40b405b3          	sub	a1,s0,a1
    5e38:	6d05b583          	ld	a1,1744(a1) # 16d0 <.LBB13_5+0x24>
    5e3c:	00b50533          	add	a0,a0,a1
    5e40:	000015b7          	lui	a1,0x1
    5e44:	40b405b3          	sub	a1,s0,a1
    5e48:	6c85b583          	ld	a1,1736(a1) # 16c8 <.LBB13_5+0x1c>
    5e4c:	40b705bb          	subw	a1,a4,a1
    5e50:	00b50533          	add	a0,a0,a1
    5e54:	ff05051b          	addiw	a0,a0,-16
    5e58:	400005b7          	lui	a1,0x40000
    5e5c:	88a43023          	sd	a0,-1920(s0)
    5e60:	00055463          	bgez	a0,5e68 <.LBB13_330>
    5e64:	c00005b7          	lui	a1,0xc0000

0000000000005e68 <.LBB13_330>:
    5e68:	86b43c23          	sd	a1,-1928(s0)
    5e6c:	c2043503          	ld	a0,-992(s0)
    5e70:	000015b7          	lui	a1,0x1
    5e74:	40b405b3          	sub	a1,s0,a1
    5e78:	6c05b583          	ld	a1,1728(a1) # 16c0 <.LBB13_5+0x14>
    5e7c:	00b50533          	add	a0,a0,a1
    5e80:	000015b7          	lui	a1,0x1
    5e84:	40b405b3          	sub	a1,s0,a1
    5e88:	6b85b583          	ld	a1,1720(a1) # 16b8 <.LBB13_5+0xc>
    5e8c:	40b705bb          	subw	a1,a4,a1
    5e90:	00b50533          	add	a0,a0,a1
    5e94:	ff05051b          	addiw	a0,a0,-16
    5e98:	400005b7          	lui	a1,0x40000
    5e9c:	88a43823          	sd	a0,-1904(s0)
    5ea0:	00055463          	bgez	a0,5ea8 <.LBB13_332>
    5ea4:	c00005b7          	lui	a1,0xc0000

0000000000005ea8 <.LBB13_332>:
    5ea8:	88b43423          	sd	a1,-1912(s0)
    5eac:	c2843503          	ld	a0,-984(s0)
    5eb0:	00f50533          	add	a0,a0,a5
    5eb4:	000015b7          	lui	a1,0x1
    5eb8:	40b405b3          	sub	a1,s0,a1
    5ebc:	6b05b583          	ld	a1,1712(a1) # 16b0 <.LBB13_5+0x4>
    5ec0:	40b705bb          	subw	a1,a4,a1
    5ec4:	00b50533          	add	a0,a0,a1
    5ec8:	ff05051b          	addiw	a0,a0,-16
    5ecc:	400005b7          	lui	a1,0x40000
    5ed0:	8aa43023          	sd	a0,-1888(s0)
    5ed4:	00055463          	bgez	a0,5edc <.LBB13_334>
    5ed8:	c00005b7          	lui	a1,0xc0000

0000000000005edc <.LBB13_334>:
    5edc:	88b43c23          	sd	a1,-1896(s0)
    5ee0:	c3043503          	ld	a0,-976(s0)
    5ee4:	000015b7          	lui	a1,0x1
    5ee8:	40b405b3          	sub	a1,s0,a1
    5eec:	6a85b583          	ld	a1,1704(a1) # 16a8 <.LBB13_4+0x508>
    5ef0:	00b50533          	add	a0,a0,a1
    5ef4:	000015b7          	lui	a1,0x1
    5ef8:	40b405b3          	sub	a1,s0,a1
    5efc:	6a05b583          	ld	a1,1696(a1) # 16a0 <.LBB13_4+0x500>
    5f00:	40b705bb          	subw	a1,a4,a1
    5f04:	00b50533          	add	a0,a0,a1
    5f08:	ff05051b          	addiw	a0,a0,-16
    5f0c:	400005b7          	lui	a1,0x40000
    5f10:	8aa43c23          	sd	a0,-1864(s0)
    5f14:	00055463          	bgez	a0,5f1c <.LBB13_336>
    5f18:	c00005b7          	lui	a1,0xc0000

0000000000005f1c <.LBB13_336>:
    5f1c:	8ab43823          	sd	a1,-1872(s0)
    5f20:	c3843503          	ld	a0,-968(s0)
    5f24:	000015b7          	lui	a1,0x1
    5f28:	40b405b3          	sub	a1,s0,a1
    5f2c:	6985b583          	ld	a1,1688(a1) # 1698 <.LBB13_4+0x4f8>
    5f30:	00b50533          	add	a0,a0,a1
    5f34:	000015b7          	lui	a1,0x1
    5f38:	40b405b3          	sub	a1,s0,a1
    5f3c:	6905b583          	ld	a1,1680(a1) # 1690 <.LBB13_4+0x4f0>
    5f40:	40b705bb          	subw	a1,a4,a1
    5f44:	00b50533          	add	a0,a0,a1
    5f48:	ff05051b          	addiw	a0,a0,-16
    5f4c:	400005b7          	lui	a1,0x40000
    5f50:	8ca43423          	sd	a0,-1848(s0)
    5f54:	00055463          	bgez	a0,5f5c <.LBB13_338>
    5f58:	c00005b7          	lui	a1,0xc0000

0000000000005f5c <.LBB13_338>:
    5f5c:	8cb43023          	sd	a1,-1856(s0)
    5f60:	c4043503          	ld	a0,-960(s0)
    5f64:	000015b7          	lui	a1,0x1
    5f68:	40b405b3          	sub	a1,s0,a1
    5f6c:	6885b583          	ld	a1,1672(a1) # 1688 <.LBB13_4+0x4e8>
    5f70:	00b50533          	add	a0,a0,a1
    5f74:	000015b7          	lui	a1,0x1
    5f78:	40b405b3          	sub	a1,s0,a1
    5f7c:	6805b583          	ld	a1,1664(a1) # 1680 <.LBB13_4+0x4e0>
    5f80:	40b705bb          	subw	a1,a4,a1
    5f84:	00b50533          	add	a0,a0,a1
    5f88:	ff05051b          	addiw	a0,a0,-16
    5f8c:	400005b7          	lui	a1,0x40000
    5f90:	8ca43c23          	sd	a0,-1832(s0)
    5f94:	00055463          	bgez	a0,5f9c <.LBB13_340>
    5f98:	c00005b7          	lui	a1,0xc0000

0000000000005f9c <.LBB13_340>:
    5f9c:	8cb43823          	sd	a1,-1840(s0)
    5fa0:	c4843503          	ld	a0,-952(s0)
    5fa4:	000015b7          	lui	a1,0x1
    5fa8:	40b405b3          	sub	a1,s0,a1
    5fac:	6785b583          	ld	a1,1656(a1) # 1678 <.LBB13_4+0x4d8>
    5fb0:	00b50533          	add	a0,a0,a1
    5fb4:	000015b7          	lui	a1,0x1
    5fb8:	40b405b3          	sub	a1,s0,a1
    5fbc:	6705b583          	ld	a1,1648(a1) # 1670 <.LBB13_4+0x4d0>
    5fc0:	40b705bb          	subw	a1,a4,a1
    5fc4:	00b50533          	add	a0,a0,a1
    5fc8:	ff05051b          	addiw	a0,a0,-16
    5fcc:	400005b7          	lui	a1,0x40000
    5fd0:	8ea43423          	sd	a0,-1816(s0)
    5fd4:	00055463          	bgez	a0,5fdc <.LBB13_342>
    5fd8:	c00005b7          	lui	a1,0xc0000

0000000000005fdc <.LBB13_342>:
    5fdc:	8eb43023          	sd	a1,-1824(s0)
    5fe0:	c5043503          	ld	a0,-944(s0)
    5fe4:	000015b7          	lui	a1,0x1
    5fe8:	40b405b3          	sub	a1,s0,a1
    5fec:	6685b583          	ld	a1,1640(a1) # 1668 <.LBB13_4+0x4c8>
    5ff0:	00b50533          	add	a0,a0,a1
    5ff4:	000015b7          	lui	a1,0x1
    5ff8:	40b405b3          	sub	a1,s0,a1
    5ffc:	6605b583          	ld	a1,1632(a1) # 1660 <.LBB13_4+0x4c0>
    6000:	40b705bb          	subw	a1,a4,a1
    6004:	00b50533          	add	a0,a0,a1
    6008:	ff05051b          	addiw	a0,a0,-16
    600c:	400005b7          	lui	a1,0x40000
    6010:	90a43023          	sd	a0,-1792(s0)
    6014:	00055463          	bgez	a0,601c <.LBB13_344>
    6018:	c00005b7          	lui	a1,0xc0000

000000000000601c <.LBB13_344>:
    601c:	8eb43c23          	sd	a1,-1800(s0)
    6020:	c5843503          	ld	a0,-936(s0)
    6024:	000015b7          	lui	a1,0x1
    6028:	40b405b3          	sub	a1,s0,a1
    602c:	6585b583          	ld	a1,1624(a1) # 1658 <.LBB13_4+0x4b8>
    6030:	00b50533          	add	a0,a0,a1
    6034:	000015b7          	lui	a1,0x1
    6038:	40b405b3          	sub	a1,s0,a1
    603c:	7685b583          	ld	a1,1896(a1) # 1768 <.LBB13_5+0xbc>
    6040:	40b705bb          	subw	a1,a4,a1
    6044:	00b50533          	add	a0,a0,a1
    6048:	ff05051b          	addiw	a0,a0,-16
    604c:	400005b7          	lui	a1,0x40000
    6050:	90a43823          	sd	a0,-1776(s0)
    6054:	00055463          	bgez	a0,605c <.LBB13_346>
    6058:	c00005b7          	lui	a1,0xc0000

000000000000605c <.LBB13_346>:
    605c:	90b43423          	sd	a1,-1784(s0)
    6060:	c6043503          	ld	a0,-928(s0)
    6064:	000015b7          	lui	a1,0x1
    6068:	40b405b3          	sub	a1,s0,a1
    606c:	7305b583          	ld	a1,1840(a1) # 1730 <.LBB13_5+0x84>
    6070:	00b50533          	add	a0,a0,a1
    6074:	000015b7          	lui	a1,0x1
    6078:	40b405b3          	sub	a1,s0,a1
    607c:	6e85b583          	ld	a1,1768(a1) # 16e8 <.LBB13_5+0x3c>
    6080:	40b705bb          	subw	a1,a4,a1
    6084:	00b50533          	add	a0,a0,a1
    6088:	ff05051b          	addiw	a0,a0,-16
    608c:	400005b7          	lui	a1,0x40000
    6090:	92a43023          	sd	a0,-1760(s0)
    6094:	00055463          	bgez	a0,609c <.LBB13_348>
    6098:	c00005b7          	lui	a1,0xc0000

000000000000609c <.LBB13_348>:
    609c:	90b43c23          	sd	a1,-1768(s0)
    60a0:	c6843503          	ld	a0,-920(s0)
    60a4:	01050533          	add	a0,a0,a6
    60a8:	000015b7          	lui	a1,0x1
    60ac:	40b405b3          	sub	a1,s0,a1
    60b0:	6f05b583          	ld	a1,1776(a1) # 16f0 <.LBB13_5+0x44>
    60b4:	40b705bb          	subw	a1,a4,a1
    60b8:	00b50533          	add	a0,a0,a1
    60bc:	ff05051b          	addiw	a0,a0,-16
    60c0:	400005b7          	lui	a1,0x40000
    60c4:	92a43c23          	sd	a0,-1736(s0)
    60c8:	00055463          	bgez	a0,60d0 <.LBB13_350>
    60cc:	c00005b7          	lui	a1,0xc0000

00000000000060d0 <.LBB13_350>:
    60d0:	92b43423          	sd	a1,-1752(s0)
    60d4:	c7043503          	ld	a0,-912(s0)
    60d8:	000015b7          	lui	a1,0x1
    60dc:	40b405b3          	sub	a1,s0,a1
    60e0:	7485b583          	ld	a1,1864(a1) # 1748 <.LBB13_5+0x9c>
    60e4:	00b50533          	add	a0,a0,a1
    60e8:	000015b7          	lui	a1,0x1
    60ec:	40b405b3          	sub	a1,s0,a1
    60f0:	6f85b583          	ld	a1,1784(a1) # 16f8 <.LBB13_5+0x4c>
    60f4:	40b705bb          	subw	a1,a4,a1
    60f8:	00b50533          	add	a0,a0,a1
    60fc:	ff05051b          	addiw	a0,a0,-16
    6100:	400005b7          	lui	a1,0x40000
    6104:	94a43423          	sd	a0,-1720(s0)
    6108:	00055463          	bgez	a0,6110 <.LBB13_352>
    610c:	c00005b7          	lui	a1,0xc0000

0000000000006110 <.LBB13_352>:
    6110:	94b43023          	sd	a1,-1728(s0)
    6114:	c7843503          	ld	a0,-904(s0)
    6118:	000015b7          	lui	a1,0x1
    611c:	40b405b3          	sub	a1,s0,a1
    6120:	7505b583          	ld	a1,1872(a1) # 1750 <.LBB13_5+0xa4>
    6124:	00b50533          	add	a0,a0,a1
    6128:	000015b7          	lui	a1,0x1
    612c:	40b405b3          	sub	a1,s0,a1
    6130:	7205b583          	ld	a1,1824(a1) # 1720 <.LBB13_5+0x74>
    6134:	40b705bb          	subw	a1,a4,a1
    6138:	00b50533          	add	a0,a0,a1
    613c:	ff05051b          	addiw	a0,a0,-16
    6140:	400005b7          	lui	a1,0x40000
    6144:	94a43c23          	sd	a0,-1704(s0)
    6148:	00055463          	bgez	a0,6150 <.LBB13_354>
    614c:	c00005b7          	lui	a1,0xc0000

0000000000006150 <.LBB13_354>:
    6150:	94b43823          	sd	a1,-1712(s0)
    6154:	c8043503          	ld	a0,-896(s0)
    6158:	000015b7          	lui	a1,0x1
    615c:	40b405b3          	sub	a1,s0,a1
    6160:	7605b583          	ld	a1,1888(a1) # 1760 <.LBB13_5+0xb4>
    6164:	00b50533          	add	a0,a0,a1
    6168:	000015b7          	lui	a1,0x1
    616c:	40b405b3          	sub	a1,s0,a1
    6170:	7285b583          	ld	a1,1832(a1) # 1728 <.LBB13_5+0x7c>
    6174:	40b705bb          	subw	a1,a4,a1
    6178:	00b50533          	add	a0,a0,a1
    617c:	ff05051b          	addiw	a0,a0,-16
    6180:	400005b7          	lui	a1,0x40000
    6184:	96a43423          	sd	a0,-1688(s0)
    6188:	00055463          	bgez	a0,6190 <.LBB13_356>
    618c:	c00005b7          	lui	a1,0xc0000

0000000000006190 <.LBB13_356>:
    6190:	96b43023          	sd	a1,-1696(s0)
    6194:	c8843503          	ld	a0,-888(s0)
    6198:	e8043583          	ld	a1,-384(s0)
    619c:	00b50533          	add	a0,a0,a1
    61a0:	000015b7          	lui	a1,0x1
    61a4:	40b405b3          	sub	a1,s0,a1
    61a8:	7385b583          	ld	a1,1848(a1) # 1738 <.LBB13_5+0x8c>
    61ac:	40b705bb          	subw	a1,a4,a1
    61b0:	00b50533          	add	a0,a0,a1
    61b4:	ff05051b          	addiw	a0,a0,-16
    61b8:	400005b7          	lui	a1,0x40000
    61bc:	98a43023          	sd	a0,-1664(s0)
    61c0:	00055463          	bgez	a0,61c8 <.LBB13_358>
    61c4:	c00005b7          	lui	a1,0xc0000

00000000000061c8 <.LBB13_358>:
    61c8:	96b43c23          	sd	a1,-1672(s0)
    61cc:	c9043503          	ld	a0,-880(s0)
    61d0:	e9043583          	ld	a1,-368(s0)
    61d4:	00b50533          	add	a0,a0,a1
    61d8:	000015b7          	lui	a1,0x1
    61dc:	40b405b3          	sub	a1,s0,a1
    61e0:	7405b583          	ld	a1,1856(a1) # 1740 <.LBB13_5+0x94>
    61e4:	40b705bb          	subw	a1,a4,a1
    61e8:	00b50533          	add	a0,a0,a1
    61ec:	ff05051b          	addiw	a0,a0,-16
    61f0:	400005b7          	lui	a1,0x40000
    61f4:	98a43823          	sd	a0,-1648(s0)
    61f8:	00055463          	bgez	a0,6200 <.LBB13_360>
    61fc:	c00005b7          	lui	a1,0xc0000

0000000000006200 <.LBB13_360>:
    6200:	98b43423          	sd	a1,-1656(s0)
    6204:	c9843503          	ld	a0,-872(s0)
    6208:	ea043583          	ld	a1,-352(s0)
    620c:	00b50533          	add	a0,a0,a1
    6210:	000015b7          	lui	a1,0x1
    6214:	40b405b3          	sub	a1,s0,a1
    6218:	7585b583          	ld	a1,1880(a1) # 1758 <.LBB13_5+0xac>
    621c:	40b705bb          	subw	a1,a4,a1
    6220:	00b50533          	add	a0,a0,a1
    6224:	ff05051b          	addiw	a0,a0,-16
    6228:	400005b7          	lui	a1,0x40000
    622c:	9aa43023          	sd	a0,-1632(s0)
    6230:	00055463          	bgez	a0,6238 <.LBB13_362>
    6234:	c00005b7          	lui	a1,0xc0000

0000000000006238 <.LBB13_362>:
    6238:	98b43c23          	sd	a1,-1640(s0)
    623c:	ca043503          	ld	a0,-864(s0)
    6240:	eb043583          	ld	a1,-336(s0)
    6244:	00b50533          	add	a0,a0,a1
    6248:	e7843583          	ld	a1,-392(s0)
    624c:	40b705bb          	subw	a1,a4,a1
    6250:	00b50533          	add	a0,a0,a1
    6254:	ff05051b          	addiw	a0,a0,-16
    6258:	400005b7          	lui	a1,0x40000
    625c:	9aa43823          	sd	a0,-1616(s0)
    6260:	00055463          	bgez	a0,6268 <.LBB13_364>
    6264:	c00005b7          	lui	a1,0xc0000

0000000000006268 <.LBB13_364>:
    6268:	9ab43423          	sd	a1,-1624(s0)
    626c:	ca843503          	ld	a0,-856(s0)
    6270:	eb843583          	ld	a1,-328(s0)
    6274:	00b50533          	add	a0,a0,a1
    6278:	e8843583          	ld	a1,-376(s0)
    627c:	40b705bb          	subw	a1,a4,a1
    6280:	00b50533          	add	a0,a0,a1
    6284:	ff05051b          	addiw	a0,a0,-16
    6288:	400005b7          	lui	a1,0x40000
    628c:	9ca43423          	sd	a0,-1592(s0)
    6290:	00055463          	bgez	a0,6298 <.LBB13_366>
    6294:	c00005b7          	lui	a1,0xc0000

0000000000006298 <.LBB13_366>:
    6298:	9cb43023          	sd	a1,-1600(s0)
    629c:	cb043503          	ld	a0,-848(s0)
    62a0:	ec843583          	ld	a1,-312(s0)
    62a4:	00b50533          	add	a0,a0,a1
    62a8:	e9843583          	ld	a1,-360(s0)
    62ac:	40b705bb          	subw	a1,a4,a1
    62b0:	00b50533          	add	a0,a0,a1
    62b4:	ff05051b          	addiw	a0,a0,-16
    62b8:	400005b7          	lui	a1,0x40000
    62bc:	9ca43c23          	sd	a0,-1576(s0)
    62c0:	00055463          	bgez	a0,62c8 <.LBB13_368>
    62c4:	c00005b7          	lui	a1,0xc0000

00000000000062c8 <.LBB13_368>:
    62c8:	9cb43823          	sd	a1,-1584(s0)
    62cc:	cb843503          	ld	a0,-840(s0)
    62d0:	ed843583          	ld	a1,-296(s0)
    62d4:	00b50533          	add	a0,a0,a1
    62d8:	ea843583          	ld	a1,-344(s0)
    62dc:	40b705bb          	subw	a1,a4,a1
    62e0:	00b50533          	add	a0,a0,a1
    62e4:	ff05051b          	addiw	a0,a0,-16
    62e8:	400005b7          	lui	a1,0x40000
    62ec:	9ea43423          	sd	a0,-1560(s0)
    62f0:	00055463          	bgez	a0,62f8 <.LBB13_370>
    62f4:	c00005b7          	lui	a1,0xc0000

00000000000062f8 <.LBB13_370>:
    62f8:	9eb43023          	sd	a1,-1568(s0)
    62fc:	cc043503          	ld	a0,-832(s0)
    6300:	ee843583          	ld	a1,-280(s0)
    6304:	00b50533          	add	a0,a0,a1
    6308:	ec043583          	ld	a1,-320(s0)
    630c:	40b705bb          	subw	a1,a4,a1
    6310:	00b50533          	add	a0,a0,a1
    6314:	ff05051b          	addiw	a0,a0,-16
    6318:	400005b7          	lui	a1,0x40000
    631c:	a0a43023          	sd	a0,-1536(s0)
    6320:	00055463          	bgez	a0,6328 <.LBB13_372>
    6324:	c00005b7          	lui	a1,0xc0000

0000000000006328 <.LBB13_372>:
    6328:	9eb43823          	sd	a1,-1552(s0)
    632c:	cc843503          	ld	a0,-824(s0)
    6330:	ef843583          	ld	a1,-264(s0)
    6334:	00b50533          	add	a0,a0,a1
    6338:	ed043583          	ld	a1,-304(s0)
    633c:	40b705bb          	subw	a1,a4,a1
    6340:	00b50533          	add	a0,a0,a1
    6344:	ff05051b          	addiw	a0,a0,-16
    6348:	400005b7          	lui	a1,0x40000
    634c:	a0a43823          	sd	a0,-1520(s0)
    6350:	00055463          	bgez	a0,6358 <.LBB13_374>
    6354:	c00005b7          	lui	a1,0xc0000

0000000000006358 <.LBB13_374>:
    6358:	a0b43423          	sd	a1,-1528(s0)
    635c:	cd043503          	ld	a0,-816(s0)
    6360:	f0043583          	ld	a1,-256(s0)
    6364:	00b50533          	add	a0,a0,a1
    6368:	ee043583          	ld	a1,-288(s0)
    636c:	40b705bb          	subw	a1,a4,a1
    6370:	00b50533          	add	a0,a0,a1
    6374:	ff05051b          	addiw	a0,a0,-16
    6378:	400005b7          	lui	a1,0x40000
    637c:	a2a43023          	sd	a0,-1504(s0)
    6380:	00055463          	bgez	a0,6388 <.LBB13_376>
    6384:	c00005b7          	lui	a1,0xc0000

0000000000006388 <.LBB13_376>:
    6388:	a0b43c23          	sd	a1,-1512(s0)
    638c:	cd843503          	ld	a0,-808(s0)
    6390:	f1043583          	ld	a1,-240(s0)
    6394:	00b50533          	add	a0,a0,a1
    6398:	ef043583          	ld	a1,-272(s0)
    639c:	40b705bb          	subw	a1,a4,a1
    63a0:	00b50533          	add	a0,a0,a1
    63a4:	ff05051b          	addiw	a0,a0,-16
    63a8:	400005b7          	lui	a1,0x40000
    63ac:	a2a43823          	sd	a0,-1488(s0)
    63b0:	00055463          	bgez	a0,63b8 <.LBB13_378>
    63b4:	c00005b7          	lui	a1,0xc0000

00000000000063b8 <.LBB13_378>:
    63b8:	a2b43423          	sd	a1,-1496(s0)
    63bc:	ce043503          	ld	a0,-800(s0)
    63c0:	f3843583          	ld	a1,-200(s0)
    63c4:	00b50533          	add	a0,a0,a1
    63c8:	f0843583          	ld	a1,-248(s0)
    63cc:	40b705bb          	subw	a1,a4,a1
    63d0:	00b50533          	add	a0,a0,a1
    63d4:	ff05051b          	addiw	a0,a0,-16
    63d8:	400005b7          	lui	a1,0x40000
    63dc:	a4a43423          	sd	a0,-1464(s0)
    63e0:	00055463          	bgez	a0,63e8 <.LBB13_380>
    63e4:	c00005b7          	lui	a1,0xc0000

00000000000063e8 <.LBB13_380>:
    63e8:	a4b43023          	sd	a1,-1472(s0)
    63ec:	ce843503          	ld	a0,-792(s0)
    63f0:	f4843583          	ld	a1,-184(s0)
    63f4:	00b50533          	add	a0,a0,a1
    63f8:	f3043583          	ld	a1,-208(s0)
    63fc:	40b705bb          	subw	a1,a4,a1
    6400:	00b50533          	add	a0,a0,a1
    6404:	ff05051b          	addiw	a0,a0,-16
    6408:	400005b7          	lui	a1,0x40000
    640c:	a4a43c23          	sd	a0,-1448(s0)
    6410:	00055463          	bgez	a0,6418 <.LBB13_382>
    6414:	c00005b7          	lui	a1,0xc0000

0000000000006418 <.LBB13_382>:
    6418:	a4b43823          	sd	a1,-1456(s0)
    641c:	cf043503          	ld	a0,-784(s0)
    6420:	f5843583          	ld	a1,-168(s0)
    6424:	00b50533          	add	a0,a0,a1
    6428:	f4043583          	ld	a1,-192(s0)
    642c:	40b705bb          	subw	a1,a4,a1
    6430:	00b50533          	add	a0,a0,a1
    6434:	ff05051b          	addiw	a0,a0,-16
    6438:	400005b7          	lui	a1,0x40000
    643c:	a6a43423          	sd	a0,-1432(s0)
    6440:	00055463          	bgez	a0,6448 <.LBB13_384>
    6444:	c00005b7          	lui	a1,0xc0000

0000000000006448 <.LBB13_384>:
    6448:	a6b43023          	sd	a1,-1440(s0)
    644c:	cf843503          	ld	a0,-776(s0)
    6450:	f6843583          	ld	a1,-152(s0)
    6454:	00b50533          	add	a0,a0,a1
    6458:	f5043583          	ld	a1,-176(s0)
    645c:	40b705bb          	subw	a1,a4,a1
    6460:	00b50533          	add	a0,a0,a1
    6464:	ff05051b          	addiw	a0,a0,-16
    6468:	400005b7          	lui	a1,0x40000
    646c:	a6a43c23          	sd	a0,-1416(s0)
    6470:	00055463          	bgez	a0,6478 <.LBB13_386>
    6474:	c00005b7          	lui	a1,0xc0000

0000000000006478 <.LBB13_386>:
    6478:	a6b43823          	sd	a1,-1424(s0)
    647c:	d0043503          	ld	a0,-768(s0)
    6480:	f7043583          	ld	a1,-144(s0)
    6484:	00b50533          	add	a0,a0,a1
    6488:	f6043583          	ld	a1,-160(s0)
    648c:	40b705bb          	subw	a1,a4,a1
    6490:	00b50533          	add	a0,a0,a1
    6494:	ff05051b          	addiw	a0,a0,-16
    6498:	400005b7          	lui	a1,0x40000
    649c:	a8a43823          	sd	a0,-1392(s0)
    64a0:	00055463          	bgez	a0,64a8 <.LBB13_388>
    64a4:	c00005b7          	lui	a1,0xc0000

00000000000064a8 <.LBB13_388>:
    64a8:	a8b43423          	sd	a1,-1400(s0)
    64ac:	d0843503          	ld	a0,-760(s0)
    64b0:	f8043583          	ld	a1,-128(s0)
    64b4:	00b50533          	add	a0,a0,a1
    64b8:	f7843583          	ld	a1,-136(s0)
    64bc:	40b705bb          	subw	a1,a4,a1
    64c0:	00b50533          	add	a0,a0,a1
    64c4:	ff05051b          	addiw	a0,a0,-16
    64c8:	400005b7          	lui	a1,0x40000
    64cc:	aaa43023          	sd	a0,-1376(s0)
    64d0:	00055463          	bgez	a0,64d8 <.LBB13_390>
    64d4:	c00005b7          	lui	a1,0xc0000

00000000000064d8 <.LBB13_390>:
    64d8:	a8b43c23          	sd	a1,-1384(s0)
    64dc:	d1043503          	ld	a0,-752(s0)
    64e0:	000015b7          	lui	a1,0x1
    64e4:	40b405b3          	sub	a1,s0,a1
    64e8:	6e05b583          	ld	a1,1760(a1) # 16e0 <.LBB13_5+0x34>
    64ec:	00b50533          	add	a0,a0,a1
    64f0:	000015b7          	lui	a1,0x1
    64f4:	40b405b3          	sub	a1,s0,a1
    64f8:	6d85b583          	ld	a1,1752(a1) # 16d8 <.LBB13_5+0x2c>
    64fc:	00001737          	lui	a4,0x1
    6500:	40e40733          	sub	a4,s0,a4
    6504:	65073703          	ld	a4,1616(a4) # 1650 <.LBB13_4+0x4b0>
    6508:	40b705bb          	subw	a1,a4,a1
    650c:	00b50533          	add	a0,a0,a1
    6510:	ff05051b          	addiw	a0,a0,-16
    6514:	400005b7          	lui	a1,0x40000
    6518:	aaa43823          	sd	a0,-1360(s0)
    651c:	00055463          	bgez	a0,6524 <.LBB13_392>
    6520:	c00005b7          	lui	a1,0xc0000

0000000000006524 <.LBB13_392>:
    6524:	aab43423          	sd	a1,-1368(s0)
    6528:	d1843503          	ld	a0,-744(s0)
    652c:	000015b7          	lui	a1,0x1
    6530:	40b405b3          	sub	a1,s0,a1
    6534:	6d05b583          	ld	a1,1744(a1) # 16d0 <.LBB13_5+0x24>
    6538:	00b50533          	add	a0,a0,a1
    653c:	000015b7          	lui	a1,0x1
    6540:	40b405b3          	sub	a1,s0,a1
    6544:	6c85b583          	ld	a1,1736(a1) # 16c8 <.LBB13_5+0x1c>
    6548:	00001737          	lui	a4,0x1
    654c:	40e40733          	sub	a4,s0,a4
    6550:	65073703          	ld	a4,1616(a4) # 1650 <.LBB13_4+0x4b0>
    6554:	40b705bb          	subw	a1,a4,a1
    6558:	00b50533          	add	a0,a0,a1
    655c:	ff05051b          	addiw	a0,a0,-16
    6560:	400005b7          	lui	a1,0x40000
    6564:	aca43423          	sd	a0,-1336(s0)
    6568:	00055463          	bgez	a0,6570 <.LBB13_394>
    656c:	c00005b7          	lui	a1,0xc0000

0000000000006570 <.LBB13_394>:
    6570:	aab43c23          	sd	a1,-1352(s0)
    6574:	d2043503          	ld	a0,-736(s0)
    6578:	000015b7          	lui	a1,0x1
    657c:	40b405b3          	sub	a1,s0,a1
    6580:	6c05b583          	ld	a1,1728(a1) # 16c0 <.LBB13_5+0x14>
    6584:	00b50533          	add	a0,a0,a1
    6588:	000015b7          	lui	a1,0x1
    658c:	40b405b3          	sub	a1,s0,a1
    6590:	6b85b583          	ld	a1,1720(a1) # 16b8 <.LBB13_5+0xc>
    6594:	00001737          	lui	a4,0x1
    6598:	40e40733          	sub	a4,s0,a4
    659c:	65073703          	ld	a4,1616(a4) # 1650 <.LBB13_4+0x4b0>
    65a0:	40b705bb          	subw	a1,a4,a1
    65a4:	00b50533          	add	a0,a0,a1
    65a8:	ff05051b          	addiw	a0,a0,-16
    65ac:	400005b7          	lui	a1,0x40000
    65b0:	aca43c23          	sd	a0,-1320(s0)
    65b4:	00055463          	bgez	a0,65bc <.LBB13_396>
    65b8:	c00005b7          	lui	a1,0xc0000

00000000000065bc <.LBB13_396>:
    65bc:	acb43823          	sd	a1,-1328(s0)
    65c0:	d2843503          	ld	a0,-728(s0)
    65c4:	00f50533          	add	a0,a0,a5
    65c8:	000015b7          	lui	a1,0x1
    65cc:	40b405b3          	sub	a1,s0,a1
    65d0:	6b05b583          	ld	a1,1712(a1) # 16b0 <.LBB13_5+0x4>
    65d4:	00001737          	lui	a4,0x1
    65d8:	40e40733          	sub	a4,s0,a4
    65dc:	65073783          	ld	a5,1616(a4) # 1650 <.LBB13_4+0x4b0>
    65e0:	40b785bb          	subw	a1,a5,a1
    65e4:	00b50533          	add	a0,a0,a1
    65e8:	ff05051b          	addiw	a0,a0,-16
    65ec:	400005b7          	lui	a1,0x40000
    65f0:	aea43423          	sd	a0,-1304(s0)
    65f4:	00055463          	bgez	a0,65fc <.LBB13_398>
    65f8:	c00005b7          	lui	a1,0xc0000

00000000000065fc <.LBB13_398>:
    65fc:	aeb43023          	sd	a1,-1312(s0)
    6600:	d3043503          	ld	a0,-720(s0)
    6604:	000015b7          	lui	a1,0x1
    6608:	40b405b3          	sub	a1,s0,a1
    660c:	6a85b583          	ld	a1,1704(a1) # 16a8 <.LBB13_4+0x508>
    6610:	00b50533          	add	a0,a0,a1
    6614:	000015b7          	lui	a1,0x1
    6618:	40b405b3          	sub	a1,s0,a1
    661c:	6a05b583          	ld	a1,1696(a1) # 16a0 <.LBB13_4+0x500>
    6620:	40b785bb          	subw	a1,a5,a1
    6624:	00b50533          	add	a0,a0,a1
    6628:	ff05051b          	addiw	a0,a0,-16
    662c:	400005b7          	lui	a1,0x40000
    6630:	aea43c23          	sd	a0,-1288(s0)
    6634:	00055463          	bgez	a0,663c <.LBB13_400>
    6638:	c00005b7          	lui	a1,0xc0000

000000000000663c <.LBB13_400>:
    663c:	aeb43823          	sd	a1,-1296(s0)
    6640:	d3843503          	ld	a0,-712(s0)
    6644:	000015b7          	lui	a1,0x1
    6648:	40b405b3          	sub	a1,s0,a1
    664c:	6985b583          	ld	a1,1688(a1) # 1698 <.LBB13_4+0x4f8>
    6650:	00b50533          	add	a0,a0,a1
    6654:	000015b7          	lui	a1,0x1
    6658:	40b405b3          	sub	a1,s0,a1
    665c:	6905b583          	ld	a1,1680(a1) # 1690 <.LBB13_4+0x4f0>
    6660:	40b785bb          	subw	a1,a5,a1
    6664:	00b50533          	add	a0,a0,a1
    6668:	ff05051b          	addiw	a0,a0,-16
    666c:	400005b7          	lui	a1,0x40000
    6670:	b0a43823          	sd	a0,-1264(s0)
    6674:	00055463          	bgez	a0,667c <.LBB13_402>
    6678:	c00005b7          	lui	a1,0xc0000

000000000000667c <.LBB13_402>:
    667c:	b0b43423          	sd	a1,-1272(s0)
    6680:	d4043503          	ld	a0,-704(s0)
    6684:	000015b7          	lui	a1,0x1
    6688:	40b405b3          	sub	a1,s0,a1
    668c:	6885b583          	ld	a1,1672(a1) # 1688 <.LBB13_4+0x4e8>
    6690:	00b50533          	add	a0,a0,a1
    6694:	000015b7          	lui	a1,0x1
    6698:	40b405b3          	sub	a1,s0,a1
    669c:	6805b583          	ld	a1,1664(a1) # 1680 <.LBB13_4+0x4e0>
    66a0:	40b785bb          	subw	a1,a5,a1
    66a4:	00b50533          	add	a0,a0,a1
    66a8:	ff05051b          	addiw	a0,a0,-16
    66ac:	400005b7          	lui	a1,0x40000
    66b0:	b2a43023          	sd	a0,-1248(s0)
    66b4:	00055463          	bgez	a0,66bc <.LBB13_404>
    66b8:	c00005b7          	lui	a1,0xc0000

00000000000066bc <.LBB13_404>:
    66bc:	b0b43c23          	sd	a1,-1256(s0)
    66c0:	d4843503          	ld	a0,-696(s0)
    66c4:	000015b7          	lui	a1,0x1
    66c8:	40b405b3          	sub	a1,s0,a1
    66cc:	6785b583          	ld	a1,1656(a1) # 1678 <.LBB13_4+0x4d8>
    66d0:	00b50533          	add	a0,a0,a1
    66d4:	000015b7          	lui	a1,0x1
    66d8:	40b405b3          	sub	a1,s0,a1
    66dc:	6705b583          	ld	a1,1648(a1) # 1670 <.LBB13_4+0x4d0>
    66e0:	40b785bb          	subw	a1,a5,a1
    66e4:	00b50533          	add	a0,a0,a1
    66e8:	ff05051b          	addiw	a0,a0,-16
    66ec:	400005b7          	lui	a1,0x40000
    66f0:	b2a43823          	sd	a0,-1232(s0)
    66f4:	00055463          	bgez	a0,66fc <.LBB13_406>
    66f8:	c00005b7          	lui	a1,0xc0000

00000000000066fc <.LBB13_406>:
    66fc:	b2b43423          	sd	a1,-1240(s0)
    6700:	d5043503          	ld	a0,-688(s0)
    6704:	000015b7          	lui	a1,0x1
    6708:	40b405b3          	sub	a1,s0,a1
    670c:	6685b583          	ld	a1,1640(a1) # 1668 <.LBB13_4+0x4c8>
    6710:	00b50533          	add	a0,a0,a1
    6714:	000015b7          	lui	a1,0x1
    6718:	40b405b3          	sub	a1,s0,a1
    671c:	6605b583          	ld	a1,1632(a1) # 1660 <.LBB13_4+0x4c0>
    6720:	40b785bb          	subw	a1,a5,a1
    6724:	00b50533          	add	a0,a0,a1
    6728:	ff05051b          	addiw	a0,a0,-16
    672c:	400005b7          	lui	a1,0x40000
    6730:	b4a43023          	sd	a0,-1216(s0)
    6734:	00055463          	bgez	a0,673c <.LBB13_408>
    6738:	c00005b7          	lui	a1,0xc0000

000000000000673c <.LBB13_408>:
    673c:	b2b43c23          	sd	a1,-1224(s0)
    6740:	d5843503          	ld	a0,-680(s0)
    6744:	000015b7          	lui	a1,0x1
    6748:	40b405b3          	sub	a1,s0,a1
    674c:	6585b583          	ld	a1,1624(a1) # 1658 <.LBB13_4+0x4b8>
    6750:	00b50533          	add	a0,a0,a1
    6754:	000015b7          	lui	a1,0x1
    6758:	40b405b3          	sub	a1,s0,a1
    675c:	7685b583          	ld	a1,1896(a1) # 1768 <.LBB13_5+0xbc>
    6760:	40b785bb          	subw	a1,a5,a1
    6764:	00b50533          	add	a0,a0,a1
    6768:	ff05051b          	addiw	a0,a0,-16
    676c:	400005b7          	lui	a1,0x40000
    6770:	b4a43c23          	sd	a0,-1192(s0)
    6774:	00055463          	bgez	a0,677c <.LBB13_410>
    6778:	c00005b7          	lui	a1,0xc0000

000000000000677c <.LBB13_410>:
    677c:	b4b43823          	sd	a1,-1200(s0)
    6780:	d6043503          	ld	a0,-672(s0)
    6784:	000015b7          	lui	a1,0x1
    6788:	40b405b3          	sub	a1,s0,a1
    678c:	7305b583          	ld	a1,1840(a1) # 1730 <.LBB13_5+0x84>
    6790:	00b50533          	add	a0,a0,a1
    6794:	000015b7          	lui	a1,0x1
    6798:	40b405b3          	sub	a1,s0,a1
    679c:	6e85b583          	ld	a1,1768(a1) # 16e8 <.LBB13_5+0x3c>
    67a0:	40b785bb          	subw	a1,a5,a1
    67a4:	00b50533          	add	a0,a0,a1
    67a8:	ff05051b          	addiw	a0,a0,-16
    67ac:	400005b7          	lui	a1,0x40000
    67b0:	b6a43423          	sd	a0,-1176(s0)
    67b4:	00055463          	bgez	a0,67bc <.LBB13_412>
    67b8:	c00005b7          	lui	a1,0xc0000

00000000000067bc <.LBB13_412>:
    67bc:	b6b43023          	sd	a1,-1184(s0)
    67c0:	d6843503          	ld	a0,-664(s0)
    67c4:	01050533          	add	a0,a0,a6
    67c8:	000015b7          	lui	a1,0x1
    67cc:	40b405b3          	sub	a1,s0,a1
    67d0:	6f05b583          	ld	a1,1776(a1) # 16f0 <.LBB13_5+0x44>
    67d4:	40b785bb          	subw	a1,a5,a1
    67d8:	00b50533          	add	a0,a0,a1
    67dc:	ff05051b          	addiw	a0,a0,-16
    67e0:	400005b7          	lui	a1,0x40000
    67e4:	b6a43c23          	sd	a0,-1160(s0)
    67e8:	00055463          	bgez	a0,67f0 <.LBB13_414>
    67ec:	c00005b7          	lui	a1,0xc0000

00000000000067f0 <.LBB13_414>:
    67f0:	b6b43823          	sd	a1,-1168(s0)
    67f4:	d7043503          	ld	a0,-656(s0)
    67f8:	000015b7          	lui	a1,0x1
    67fc:	40b405b3          	sub	a1,s0,a1
    6800:	7485b583          	ld	a1,1864(a1) # 1748 <.LBB13_5+0x9c>
    6804:	00b50533          	add	a0,a0,a1
    6808:	000015b7          	lui	a1,0x1
    680c:	40b405b3          	sub	a1,s0,a1
    6810:	6f85b583          	ld	a1,1784(a1) # 16f8 <.LBB13_5+0x4c>
    6814:	40b785bb          	subw	a1,a5,a1
    6818:	00b50533          	add	a0,a0,a1
    681c:	ff05051b          	addiw	a0,a0,-16
    6820:	400005b7          	lui	a1,0x40000
    6824:	b8a43823          	sd	a0,-1136(s0)
    6828:	00055463          	bgez	a0,6830 <.LBB13_416>
    682c:	c00005b7          	lui	a1,0xc0000

0000000000006830 <.LBB13_416>:
    6830:	b8b43023          	sd	a1,-1152(s0)
    6834:	d7843503          	ld	a0,-648(s0)
    6838:	000015b7          	lui	a1,0x1
    683c:	40b405b3          	sub	a1,s0,a1
    6840:	7505b583          	ld	a1,1872(a1) # 1750 <.LBB13_5+0xa4>
    6844:	00b50533          	add	a0,a0,a1
    6848:	000015b7          	lui	a1,0x1
    684c:	40b405b3          	sub	a1,s0,a1
    6850:	7205b583          	ld	a1,1824(a1) # 1720 <.LBB13_5+0x74>
    6854:	40b785bb          	subw	a1,a5,a1
    6858:	00b50533          	add	a0,a0,a1
    685c:	ff05051b          	addiw	a0,a0,-16
    6860:	400005b7          	lui	a1,0x40000
    6864:	baa43023          	sd	a0,-1120(s0)
    6868:	00055463          	bgez	a0,6870 <.LBB13_418>
    686c:	c00005b7          	lui	a1,0xc0000

0000000000006870 <.LBB13_418>:
    6870:	b8b43c23          	sd	a1,-1128(s0)
    6874:	d8043503          	ld	a0,-640(s0)
    6878:	000015b7          	lui	a1,0x1
    687c:	40b405b3          	sub	a1,s0,a1
    6880:	7605b583          	ld	a1,1888(a1) # 1760 <.LBB13_5+0xb4>
    6884:	00b50533          	add	a0,a0,a1
    6888:	000015b7          	lui	a1,0x1
    688c:	40b405b3          	sub	a1,s0,a1
    6890:	7285b583          	ld	a1,1832(a1) # 1728 <.LBB13_5+0x7c>
    6894:	40b785bb          	subw	a1,a5,a1
    6898:	00b50533          	add	a0,a0,a1
    689c:	ff05051b          	addiw	a0,a0,-16
    68a0:	400005b7          	lui	a1,0x40000
    68a4:	baa43823          	sd	a0,-1104(s0)
    68a8:	00055463          	bgez	a0,68b0 <.LBB13_420>
    68ac:	c00005b7          	lui	a1,0xc0000

00000000000068b0 <.LBB13_420>:
    68b0:	bab43423          	sd	a1,-1112(s0)
    68b4:	d8843503          	ld	a0,-632(s0)
    68b8:	e8043583          	ld	a1,-384(s0)
    68bc:	00b50533          	add	a0,a0,a1
    68c0:	000015b7          	lui	a1,0x1
    68c4:	40b405b3          	sub	a1,s0,a1
    68c8:	7385b583          	ld	a1,1848(a1) # 1738 <.LBB13_5+0x8c>
    68cc:	40b785bb          	subw	a1,a5,a1
    68d0:	00b50533          	add	a0,a0,a1
    68d4:	ff05051b          	addiw	a0,a0,-16
    68d8:	400005b7          	lui	a1,0x40000
    68dc:	bca43023          	sd	a0,-1088(s0)
    68e0:	00055463          	bgez	a0,68e8 <.LBB13_422>
    68e4:	c00005b7          	lui	a1,0xc0000

00000000000068e8 <.LBB13_422>:
    68e8:	bab43c23          	sd	a1,-1096(s0)
    68ec:	d9043503          	ld	a0,-624(s0)
    68f0:	e9043583          	ld	a1,-368(s0)
    68f4:	00b50533          	add	a0,a0,a1
    68f8:	000015b7          	lui	a1,0x1
    68fc:	40b405b3          	sub	a1,s0,a1
    6900:	7405b583          	ld	a1,1856(a1) # 1740 <.LBB13_5+0x94>
    6904:	40b785bb          	subw	a1,a5,a1
    6908:	00b50533          	add	a0,a0,a1
    690c:	ff05051b          	addiw	a0,a0,-16
    6910:	400005b7          	lui	a1,0x40000
    6914:	bca43823          	sd	a0,-1072(s0)
    6918:	00055463          	bgez	a0,6920 <.LBB13_424>
    691c:	c00005b7          	lui	a1,0xc0000

0000000000006920 <.LBB13_424>:
    6920:	bcb43423          	sd	a1,-1080(s0)
    6924:	d9843503          	ld	a0,-616(s0)
    6928:	ea043583          	ld	a1,-352(s0)
    692c:	00b50533          	add	a0,a0,a1
    6930:	000015b7          	lui	a1,0x1
    6934:	40b405b3          	sub	a1,s0,a1
    6938:	7585b583          	ld	a1,1880(a1) # 1758 <.LBB13_5+0xac>
    693c:	40b785bb          	subw	a1,a5,a1
    6940:	00b50533          	add	a0,a0,a1
    6944:	ff05051b          	addiw	a0,a0,-16
    6948:	400005b7          	lui	a1,0x40000
    694c:	bea43023          	sd	a0,-1056(s0)
    6950:	00055463          	bgez	a0,6958 <.LBB13_426>
    6954:	c00005b7          	lui	a1,0xc0000

0000000000006958 <.LBB13_426>:
    6958:	bcb43c23          	sd	a1,-1064(s0)
    695c:	da043503          	ld	a0,-608(s0)
    6960:	eb043583          	ld	a1,-336(s0)
    6964:	00b50533          	add	a0,a0,a1
    6968:	e7843583          	ld	a1,-392(s0)
    696c:	40b785bb          	subw	a1,a5,a1
    6970:	00b50533          	add	a0,a0,a1
    6974:	ff05051b          	addiw	a0,a0,-16
    6978:	400005b7          	lui	a1,0x40000
    697c:	bea43823          	sd	a0,-1040(s0)
    6980:	00055463          	bgez	a0,6988 <.LBB13_428>
    6984:	c00005b7          	lui	a1,0xc0000

0000000000006988 <.LBB13_428>:
    6988:	beb43423          	sd	a1,-1048(s0)
    698c:	da843503          	ld	a0,-600(s0)
    6990:	eb843583          	ld	a1,-328(s0)
    6994:	00b50533          	add	a0,a0,a1
    6998:	e8843583          	ld	a1,-376(s0)
    699c:	40b785bb          	subw	a1,a5,a1
    69a0:	00b50533          	add	a0,a0,a1
    69a4:	ff05051b          	addiw	a0,a0,-16
    69a8:	400005b7          	lui	a1,0x40000
    69ac:	c0a43023          	sd	a0,-1024(s0)
    69b0:	00055463          	bgez	a0,69b8 <.LBB13_430>
    69b4:	c00005b7          	lui	a1,0xc0000

00000000000069b8 <.LBB13_430>:
    69b8:	beb43c23          	sd	a1,-1032(s0)
    69bc:	db043503          	ld	a0,-592(s0)
    69c0:	ec843583          	ld	a1,-312(s0)
    69c4:	00b50533          	add	a0,a0,a1
    69c8:	e9843583          	ld	a1,-360(s0)
    69cc:	40b785bb          	subw	a1,a5,a1
    69d0:	00b50533          	add	a0,a0,a1
    69d4:	ff05051b          	addiw	a0,a0,-16
    69d8:	400005b7          	lui	a1,0x40000
    69dc:	c2a43023          	sd	a0,-992(s0)
    69e0:	00055463          	bgez	a0,69e8 <.LBB13_432>
    69e4:	c00005b7          	lui	a1,0xc0000

00000000000069e8 <.LBB13_432>:
    69e8:	c0b43c23          	sd	a1,-1000(s0)
    69ec:	db843503          	ld	a0,-584(s0)
    69f0:	ed843583          	ld	a1,-296(s0)
    69f4:	00b50533          	add	a0,a0,a1
    69f8:	ea843583          	ld	a1,-344(s0)
    69fc:	40b785bb          	subw	a1,a5,a1
    6a00:	00b50533          	add	a0,a0,a1
    6a04:	ff05051b          	addiw	a0,a0,-16
    6a08:	400005b7          	lui	a1,0x40000
    6a0c:	c2a43823          	sd	a0,-976(s0)
    6a10:	00055463          	bgez	a0,6a18 <.LBB13_434>
    6a14:	c00005b7          	lui	a1,0xc0000

0000000000006a18 <.LBB13_434>:
    6a18:	c2b43423          	sd	a1,-984(s0)
    6a1c:	dc043503          	ld	a0,-576(s0)
    6a20:	ee843583          	ld	a1,-280(s0)
    6a24:	00b50533          	add	a0,a0,a1
    6a28:	ec043583          	ld	a1,-320(s0)
    6a2c:	40b785bb          	subw	a1,a5,a1
    6a30:	00b50533          	add	a0,a0,a1
    6a34:	ff05051b          	addiw	a0,a0,-16
    6a38:	400005b7          	lui	a1,0x40000
    6a3c:	c4a43023          	sd	a0,-960(s0)
    6a40:	00055463          	bgez	a0,6a48 <.LBB13_436>
    6a44:	c00005b7          	lui	a1,0xc0000

0000000000006a48 <.LBB13_436>:
    6a48:	c2b43c23          	sd	a1,-968(s0)
    6a4c:	dc843503          	ld	a0,-568(s0)
    6a50:	ef843583          	ld	a1,-264(s0)
    6a54:	00b50533          	add	a0,a0,a1
    6a58:	ed043583          	ld	a1,-304(s0)
    6a5c:	40b785bb          	subw	a1,a5,a1
    6a60:	00b50533          	add	a0,a0,a1
    6a64:	ff05051b          	addiw	a0,a0,-16
    6a68:	400005b7          	lui	a1,0x40000
    6a6c:	c4a43c23          	sd	a0,-936(s0)
    6a70:	00055463          	bgez	a0,6a78 <.LBB13_438>
    6a74:	c00005b7          	lui	a1,0xc0000

0000000000006a78 <.LBB13_438>:
    6a78:	c4b43423          	sd	a1,-952(s0)
    6a7c:	dd043503          	ld	a0,-560(s0)
    6a80:	f0043583          	ld	a1,-256(s0)
    6a84:	00b50533          	add	a0,a0,a1
    6a88:	ee043583          	ld	a1,-288(s0)
    6a8c:	40b785bb          	subw	a1,a5,a1
    6a90:	00b50533          	add	a0,a0,a1
    6a94:	ff05051b          	addiw	a0,a0,-16
    6a98:	400005b7          	lui	a1,0x40000
    6a9c:	c6a43423          	sd	a0,-920(s0)
    6aa0:	00055463          	bgez	a0,6aa8 <.LBB13_440>
    6aa4:	c00005b7          	lui	a1,0xc0000

0000000000006aa8 <.LBB13_440>:
    6aa8:	c6b43023          	sd	a1,-928(s0)
    6aac:	dd843503          	ld	a0,-552(s0)
    6ab0:	f1043583          	ld	a1,-240(s0)
    6ab4:	00b50533          	add	a0,a0,a1
    6ab8:	ef043583          	ld	a1,-272(s0)
    6abc:	40b785bb          	subw	a1,a5,a1
    6ac0:	00b50533          	add	a0,a0,a1
    6ac4:	ff05051b          	addiw	a0,a0,-16
    6ac8:	400005b7          	lui	a1,0x40000
    6acc:	c6a43c23          	sd	a0,-904(s0)
    6ad0:	00055463          	bgez	a0,6ad8 <.LBB13_442>
    6ad4:	c00005b7          	lui	a1,0xc0000

0000000000006ad8 <.LBB13_442>:
    6ad8:	c6b43823          	sd	a1,-912(s0)
    6adc:	de043503          	ld	a0,-544(s0)
    6ae0:	f3843583          	ld	a1,-200(s0)
    6ae4:	00b50533          	add	a0,a0,a1
    6ae8:	f0843583          	ld	a1,-248(s0)
    6aec:	40b785bb          	subw	a1,a5,a1
    6af0:	00b50533          	add	a0,a0,a1
    6af4:	ff05051b          	addiw	a0,a0,-16
    6af8:	400005b7          	lui	a1,0x40000
    6afc:	c8a43423          	sd	a0,-888(s0)
    6b00:	00055463          	bgez	a0,6b08 <.LBB13_444>
    6b04:	c00005b7          	lui	a1,0xc0000

0000000000006b08 <.LBB13_444>:
    6b08:	c8b43023          	sd	a1,-896(s0)
    6b0c:	de843503          	ld	a0,-536(s0)
    6b10:	f4843583          	ld	a1,-184(s0)
    6b14:	00b50533          	add	a0,a0,a1
    6b18:	f3043583          	ld	a1,-208(s0)
    6b1c:	40b785bb          	subw	a1,a5,a1
    6b20:	00b50533          	add	a0,a0,a1
    6b24:	ff05051b          	addiw	a0,a0,-16
    6b28:	400005b7          	lui	a1,0x40000
    6b2c:	caa43023          	sd	a0,-864(s0)
    6b30:	00055463          	bgez	a0,6b38 <.LBB13_446>
    6b34:	c00005b7          	lui	a1,0xc0000

0000000000006b38 <.LBB13_446>:
    6b38:	c8b43c23          	sd	a1,-872(s0)
    6b3c:	df043503          	ld	a0,-528(s0)
    6b40:	f5843583          	ld	a1,-168(s0)
    6b44:	00b50533          	add	a0,a0,a1
    6b48:	f4043583          	ld	a1,-192(s0)
    6b4c:	40b785bb          	subw	a1,a5,a1
    6b50:	00b50533          	add	a0,a0,a1
    6b54:	ff05051b          	addiw	a0,a0,-16
    6b58:	400005b7          	lui	a1,0x40000
    6b5c:	caa43823          	sd	a0,-848(s0)
    6b60:	00055463          	bgez	a0,6b68 <.LBB13_448>
    6b64:	c00005b7          	lui	a1,0xc0000

0000000000006b68 <.LBB13_448>:
    6b68:	cab43423          	sd	a1,-856(s0)
    6b6c:	df843503          	ld	a0,-520(s0)
    6b70:	f6843583          	ld	a1,-152(s0)
    6b74:	00b50533          	add	a0,a0,a1
    6b78:	f5043583          	ld	a1,-176(s0)
    6b7c:	40b785bb          	subw	a1,a5,a1
    6b80:	00b50533          	add	a0,a0,a1
    6b84:	ff05051b          	addiw	a0,a0,-16
    6b88:	400005b7          	lui	a1,0x40000
    6b8c:	cca43023          	sd	a0,-832(s0)
    6b90:	00055463          	bgez	a0,6b98 <.LBB13_450>
    6b94:	c00005b7          	lui	a1,0xc0000

0000000000006b98 <.LBB13_450>:
    6b98:	cab43c23          	sd	a1,-840(s0)
    6b9c:	e0043503          	ld	a0,-512(s0)
    6ba0:	f7043583          	ld	a1,-144(s0)
    6ba4:	00b50533          	add	a0,a0,a1
    6ba8:	f6043583          	ld	a1,-160(s0)
    6bac:	40b785bb          	subw	a1,a5,a1
    6bb0:	00b50533          	add	a0,a0,a1
    6bb4:	ff05051b          	addiw	a0,a0,-16
    6bb8:	400005b7          	lui	a1,0x40000
    6bbc:	cca43c23          	sd	a0,-808(s0)
    6bc0:	00055463          	bgez	a0,6bc8 <.LBB13_452>
    6bc4:	c00005b7          	lui	a1,0xc0000

0000000000006bc8 <.LBB13_452>:
    6bc8:	ccb43423          	sd	a1,-824(s0)
    6bcc:	e0843503          	ld	a0,-504(s0)
    6bd0:	f8043583          	ld	a1,-128(s0)
    6bd4:	00b50533          	add	a0,a0,a1
    6bd8:	f7843583          	ld	a1,-136(s0)
    6bdc:	40b785bb          	subw	a1,a5,a1
    6be0:	00b50533          	add	a0,a0,a1
    6be4:	ff05051b          	addiw	a0,a0,-16
    6be8:	400005b7          	lui	a1,0x40000
    6bec:	cea43423          	sd	a0,-792(s0)
    6bf0:	00055463          	bgez	a0,6bf8 <.LBB13_454>
    6bf4:	c00005b7          	lui	a1,0xc0000

0000000000006bf8 <.LBB13_454>:
    6bf8:	ceb43023          	sd	a1,-800(s0)
    6bfc:	e1043503          	ld	a0,-496(s0)
    6c00:	000015b7          	lui	a1,0x1
    6c04:	40b405b3          	sub	a1,s0,a1
    6c08:	6e05b583          	ld	a1,1760(a1) # 16e0 <.LBB13_5+0x34>
    6c0c:	00b50533          	add	a0,a0,a1
    6c10:	f8843583          	ld	a1,-120(s0)
    6c14:	00001737          	lui	a4,0x1
    6c18:	40e40733          	sub	a4,s0,a4
    6c1c:	6d873803          	ld	a6,1752(a4) # 16d8 <.LBB13_5+0x2c>
    6c20:	410585bb          	subw	a1,a1,a6
    6c24:	00b50533          	add	a0,a0,a1
    6c28:	ff05051b          	addiw	a0,a0,-16
    6c2c:	400005b7          	lui	a1,0x40000
    6c30:	cea43c23          	sd	a0,-776(s0)
    6c34:	00055463          	bgez	a0,6c3c <.LBB13_456>
    6c38:	c00005b7          	lui	a1,0xc0000

0000000000006c3c <.LBB13_456>:
    6c3c:	ceb43823          	sd	a1,-784(s0)
    6c40:	e1843503          	ld	a0,-488(s0)
    6c44:	000015b7          	lui	a1,0x1
    6c48:	40b405b3          	sub	a1,s0,a1
    6c4c:	6d05b583          	ld	a1,1744(a1) # 16d0 <.LBB13_5+0x24>
    6c50:	00b50533          	add	a0,a0,a1
    6c54:	f8843583          	ld	a1,-120(s0)
    6c58:	00001737          	lui	a4,0x1
    6c5c:	40e40733          	sub	a4,s0,a4
    6c60:	6c873803          	ld	a6,1736(a4) # 16c8 <.LBB13_5+0x1c>
    6c64:	410585bb          	subw	a1,a1,a6
    6c68:	00b50533          	add	a0,a0,a1
    6c6c:	ff05051b          	addiw	a0,a0,-16
    6c70:	400005b7          	lui	a1,0x40000
    6c74:	d0a43423          	sd	a0,-760(s0)
    6c78:	00001737          	lui	a4,0x1
    6c7c:	40e40733          	sub	a4,s0,a4
    6c80:	64873803          	ld	a6,1608(a4) # 1648 <.LBB13_4+0x4a8>
    6c84:	00055463          	bgez	a0,6c8c <.LBB13_458>
    6c88:	c00005b7          	lui	a1,0xc0000

0000000000006c8c <.LBB13_458>:
    6c8c:	d0b43023          	sd	a1,-768(s0)
    6c90:	e2043503          	ld	a0,-480(s0)
    6c94:	000015b7          	lui	a1,0x1
    6c98:	40b405b3          	sub	a1,s0,a1
    6c9c:	6c05b583          	ld	a1,1728(a1) # 16c0 <.LBB13_5+0x14>
    6ca0:	00b50533          	add	a0,a0,a1
    6ca4:	f8843583          	ld	a1,-120(s0)
    6ca8:	00001737          	lui	a4,0x1
    6cac:	40e40733          	sub	a4,s0,a4
    6cb0:	6b873783          	ld	a5,1720(a4) # 16b8 <.LBB13_5+0xc>
    6cb4:	40f585bb          	subw	a1,a1,a5
    6cb8:	00b50533          	add	a0,a0,a1
    6cbc:	ff05051b          	addiw	a0,a0,-16
    6cc0:	400005b7          	lui	a1,0x40000
    6cc4:	d2a43023          	sd	a0,-736(s0)
    6cc8:	00055463          	bgez	a0,6cd0 <.LBB13_460>
    6ccc:	c00005b7          	lui	a1,0xc0000

0000000000006cd0 <.LBB13_460>:
    6cd0:	d0b43c23          	sd	a1,-744(s0)
    6cd4:	e2843503          	ld	a0,-472(s0)
    6cd8:	000015b7          	lui	a1,0x1
    6cdc:	40b405b3          	sub	a1,s0,a1
    6ce0:	6405b583          	ld	a1,1600(a1) # 1640 <.LBB13_4+0x4a0>
    6ce4:	00b50533          	add	a0,a0,a1
    6ce8:	f8843583          	ld	a1,-120(s0)
    6cec:	00001737          	lui	a4,0x1
    6cf0:	40e40733          	sub	a4,s0,a4
    6cf4:	6b073783          	ld	a5,1712(a4) # 16b0 <.LBB13_5+0x4>
    6cf8:	40f585bb          	subw	a1,a1,a5
    6cfc:	00b50533          	add	a0,a0,a1
    6d00:	ff05051b          	addiw	a0,a0,-16
    6d04:	400005b7          	lui	a1,0x40000
    6d08:	d2a43823          	sd	a0,-720(s0)
    6d0c:	00055463          	bgez	a0,6d14 <.LBB13_462>
    6d10:	c00005b7          	lui	a1,0xc0000

0000000000006d14 <.LBB13_462>:
    6d14:	d2b43423          	sd	a1,-728(s0)
    6d18:	e3043503          	ld	a0,-464(s0)
    6d1c:	000015b7          	lui	a1,0x1
    6d20:	40b405b3          	sub	a1,s0,a1
    6d24:	6a85b583          	ld	a1,1704(a1) # 16a8 <.LBB13_4+0x508>
    6d28:	00b50533          	add	a0,a0,a1
    6d2c:	f8843583          	ld	a1,-120(s0)
    6d30:	00001737          	lui	a4,0x1
    6d34:	40e40733          	sub	a4,s0,a4
    6d38:	6a073783          	ld	a5,1696(a4) # 16a0 <.LBB13_4+0x500>
    6d3c:	40f585bb          	subw	a1,a1,a5
    6d40:	00b50533          	add	a0,a0,a1
    6d44:	ff05051b          	addiw	a0,a0,-16
    6d48:	400005b7          	lui	a1,0x40000
    6d4c:	d4a43023          	sd	a0,-704(s0)
    6d50:	00055463          	bgez	a0,6d58 <.LBB13_464>
    6d54:	c00005b7          	lui	a1,0xc0000

0000000000006d58 <.LBB13_464>:
    6d58:	d2b43c23          	sd	a1,-712(s0)
    6d5c:	e3843503          	ld	a0,-456(s0)
    6d60:	000015b7          	lui	a1,0x1
    6d64:	40b405b3          	sub	a1,s0,a1
    6d68:	6985b583          	ld	a1,1688(a1) # 1698 <.LBB13_4+0x4f8>
    6d6c:	00b50533          	add	a0,a0,a1
    6d70:	f8843583          	ld	a1,-120(s0)
    6d74:	00001737          	lui	a4,0x1
    6d78:	40e40733          	sub	a4,s0,a4
    6d7c:	69073783          	ld	a5,1680(a4) # 1690 <.LBB13_4+0x4f0>
    6d80:	40f585bb          	subw	a1,a1,a5
    6d84:	00b50533          	add	a0,a0,a1
    6d88:	ff05051b          	addiw	a0,a0,-16
    6d8c:	400005b7          	lui	a1,0x40000
    6d90:	d4a43823          	sd	a0,-688(s0)
    6d94:	00055463          	bgez	a0,6d9c <.LBB13_466>
    6d98:	c00005b7          	lui	a1,0xc0000

0000000000006d9c <.LBB13_466>:
    6d9c:	d4b43423          	sd	a1,-696(s0)
    6da0:	e4043503          	ld	a0,-448(s0)
    6da4:	000015b7          	lui	a1,0x1
    6da8:	40b405b3          	sub	a1,s0,a1
    6dac:	6885b583          	ld	a1,1672(a1) # 1688 <.LBB13_4+0x4e8>
    6db0:	00b50533          	add	a0,a0,a1
    6db4:	f8843583          	ld	a1,-120(s0)
    6db8:	00001737          	lui	a4,0x1
    6dbc:	40e40733          	sub	a4,s0,a4
    6dc0:	68073783          	ld	a5,1664(a4) # 1680 <.LBB13_4+0x4e0>
    6dc4:	40f585bb          	subw	a1,a1,a5
    6dc8:	00b50533          	add	a0,a0,a1
    6dcc:	ff05051b          	addiw	a0,a0,-16
    6dd0:	400005b7          	lui	a1,0x40000
    6dd4:	d6a43423          	sd	a0,-664(s0)
    6dd8:	00055463          	bgez	a0,6de0 <.LBB13_468>
    6ddc:	c00005b7          	lui	a1,0xc0000

0000000000006de0 <.LBB13_468>:
    6de0:	d6b43023          	sd	a1,-672(s0)
    6de4:	00001537          	lui	a0,0x1
    6de8:	40a40533          	sub	a0,s0,a0
    6dec:	67853503          	ld	a0,1656(a0) # 1678 <.LBB13_4+0x4d8>
    6df0:	84043583          	ld	a1,-1984(s0)
    6df4:	00a58533          	add	a0,a1,a0
    6df8:	f8843583          	ld	a1,-120(s0)
    6dfc:	00001737          	lui	a4,0x1
    6e00:	40e40733          	sub	a4,s0,a4
    6e04:	67073783          	ld	a5,1648(a4) # 1670 <.LBB13_4+0x4d0>
    6e08:	40f585bb          	subw	a1,a1,a5
    6e0c:	00b50533          	add	a0,a0,a1
    6e10:	ff05051b          	addiw	a0,a0,-16
    6e14:	400005b7          	lui	a1,0x40000
    6e18:	d6a43c23          	sd	a0,-648(s0)
    6e1c:	00055463          	bgez	a0,6e24 <.LBB13_470>
    6e20:	c00005b7          	lui	a1,0xc0000

0000000000006e24 <.LBB13_470>:
    6e24:	d6b43823          	sd	a1,-656(s0)
    6e28:	00001537          	lui	a0,0x1
    6e2c:	40a40533          	sub	a0,s0,a0
    6e30:	66853503          	ld	a0,1640(a0) # 1668 <.LBB13_4+0x4c8>
    6e34:	c0843583          	ld	a1,-1016(s0)
    6e38:	00a58533          	add	a0,a1,a0
    6e3c:	f8843583          	ld	a1,-120(s0)
    6e40:	00001737          	lui	a4,0x1
    6e44:	40e40733          	sub	a4,s0,a4
    6e48:	66073783          	ld	a5,1632(a4) # 1660 <.LBB13_4+0x4c0>
    6e4c:	40f585bb          	subw	a1,a1,a5
    6e50:	00b50533          	add	a0,a0,a1
    6e54:	ff05051b          	addiw	a0,a0,-16
    6e58:	400005b7          	lui	a1,0x40000
    6e5c:	d8a43423          	sd	a0,-632(s0)
    6e60:	00055463          	bgez	a0,6e68 <.LBB13_472>
    6e64:	c00005b7          	lui	a1,0xc0000

0000000000006e68 <.LBB13_472>:
    6e68:	d8b43023          	sd	a1,-640(s0)
    6e6c:	f2043503          	ld	a0,-224(s0)
    6e70:	000015b7          	lui	a1,0x1
    6e74:	40b405b3          	sub	a1,s0,a1
    6e78:	6585b583          	ld	a1,1624(a1) # 1658 <.LBB13_4+0x4b8>
    6e7c:	00b50533          	add	a0,a0,a1
    6e80:	f8843583          	ld	a1,-120(s0)
    6e84:	00001737          	lui	a4,0x1
    6e88:	40e40733          	sub	a4,s0,a4
    6e8c:	76873783          	ld	a5,1896(a4) # 1768 <.LBB13_5+0xbc>
    6e90:	40f585bb          	subw	a1,a1,a5
    6e94:	00b50533          	add	a0,a0,a1
    6e98:	ff05051b          	addiw	a0,a0,-16
    6e9c:	400005b7          	lui	a1,0x40000
    6ea0:	daa43023          	sd	a0,-608(s0)
    6ea4:	00055463          	bgez	a0,6eac <.LBB13_474>
    6ea8:	c00005b7          	lui	a1,0xc0000

0000000000006eac <.LBB13_474>:
    6eac:	d8b43823          	sd	a1,-624(s0)
    6eb0:	00001537          	lui	a0,0x1
    6eb4:	40a40533          	sub	a0,s0,a0
    6eb8:	73053503          	ld	a0,1840(a0) # 1730 <.LBB13_5+0x84>
    6ebc:	e4843583          	ld	a1,-440(s0)
    6ec0:	00a58533          	add	a0,a1,a0
    6ec4:	f8843583          	ld	a1,-120(s0)
    6ec8:	00001737          	lui	a4,0x1
    6ecc:	40e40733          	sub	a4,s0,a4
    6ed0:	6e873703          	ld	a4,1768(a4) # 16e8 <.LBB13_5+0x3c>
    6ed4:	40e585bb          	subw	a1,a1,a4
    6ed8:	00b50533          	add	a0,a0,a1
    6edc:	ff05051b          	addiw	a0,a0,-16
    6ee0:	400005b7          	lui	a1,0x40000
    6ee4:	daa43823          	sd	a0,-592(s0)
    6ee8:	00055463          	bgez	a0,6ef0 <.LBB13_476>
    6eec:	c00005b7          	lui	a1,0xc0000

0000000000006ef0 <.LBB13_476>:
    6ef0:	dab43423          	sd	a1,-600(s0)
    6ef4:	01068533          	add	a0,a3,a6
    6ef8:	f8843583          	ld	a1,-120(s0)
    6efc:	000016b7          	lui	a3,0x1
    6f00:	40d406b3          	sub	a3,s0,a3
    6f04:	6f06b683          	ld	a3,1776(a3) # 16f0 <.LBB13_5+0x44>
    6f08:	40d585bb          	subw	a1,a1,a3
    6f0c:	00b50533          	add	a0,a0,a1
    6f10:	ff05051b          	addiw	a0,a0,-16
    6f14:	400005b7          	lui	a1,0x40000
    6f18:	dca43023          	sd	a0,-576(s0)
    6f1c:	00055463          	bgez	a0,6f24 <.LBB13_478>
    6f20:	c00005b7          	lui	a1,0xc0000

0000000000006f24 <.LBB13_478>:
    6f24:	dab43c23          	sd	a1,-584(s0)
    6f28:	f2843503          	ld	a0,-216(s0)
    6f2c:	000015b7          	lui	a1,0x1
    6f30:	40b405b3          	sub	a1,s0,a1
    6f34:	7485b583          	ld	a1,1864(a1) # 1748 <.LBB13_5+0x9c>
    6f38:	00b50533          	add	a0,a0,a1
    6f3c:	f8843583          	ld	a1,-120(s0)
    6f40:	000016b7          	lui	a3,0x1
    6f44:	40d406b3          	sub	a3,s0,a3
    6f48:	6f86b683          	ld	a3,1784(a3) # 16f8 <.LBB13_5+0x4c>
    6f4c:	40d585bb          	subw	a1,a1,a3
    6f50:	00b50533          	add	a0,a0,a1
    6f54:	ff05069b          	addiw	a3,a0,-16
    6f58:	40000537          	lui	a0,0x40000
    6f5c:	0006d463          	bgez	a3,6f64 <.LBB13_480>
    6f60:	c0000537          	lui	a0,0xc0000

0000000000006f64 <.LBB13_480>:
    6f64:	dca43423          	sd	a0,-568(s0)
    6f68:	00001537          	lui	a0,0x1
    6f6c:	40a40533          	sub	a0,s0,a0
    6f70:	75053503          	ld	a0,1872(a0) # 1750 <.LBB13_5+0xa4>
    6f74:	00a60533          	add	a0,a2,a0
    6f78:	f8843583          	ld	a1,-120(s0)
    6f7c:	00001637          	lui	a2,0x1
    6f80:	40c40633          	sub	a2,s0,a2
    6f84:	72063603          	ld	a2,1824(a2) # 1720 <.LBB13_5+0x74>
    6f88:	40c585bb          	subw	a1,a1,a2
    6f8c:	00b50533          	add	a0,a0,a1
    6f90:	ff05071b          	addiw	a4,a0,-16
    6f94:	40000537          	lui	a0,0x40000
    6f98:	00075463          	bgez	a4,6fa0 <.LBB13_482>
    6f9c:	c0000537          	lui	a0,0xc0000

0000000000006fa0 <.LBB13_482>:
    6fa0:	dca43c23          	sd	a0,-552(s0)
    6fa4:	00001537          	lui	a0,0x1
    6fa8:	40a40533          	sub	a0,s0,a0
    6fac:	76053503          	ld	a0,1888(a0) # 1760 <.LBB13_5+0xb4>
    6fb0:	00ad0533          	add	a0,s10,a0
    6fb4:	f8843583          	ld	a1,-120(s0)
    6fb8:	00001637          	lui	a2,0x1
    6fbc:	40c40633          	sub	a2,s0,a2
    6fc0:	72863603          	ld	a2,1832(a2) # 1728 <.LBB13_5+0x7c>
    6fc4:	40c585bb          	subw	a1,a1,a2
    6fc8:	00b50533          	add	a0,a0,a1
    6fcc:	ff05079b          	addiw	a5,a0,-16
    6fd0:	40000537          	lui	a0,0x40000
    6fd4:	0007d463          	bgez	a5,6fdc <.LBB13_484>
    6fd8:	c0000537          	lui	a0,0xc0000

0000000000006fdc <.LBB13_484>:
    6fdc:	dea43023          	sd	a0,-544(s0)
    6fe0:	e8043503          	ld	a0,-384(s0)
    6fe4:	00a48533          	add	a0,s1,a0
    6fe8:	f8843583          	ld	a1,-120(s0)
    6fec:	00001637          	lui	a2,0x1
    6ff0:	40c40633          	sub	a2,s0,a2
    6ff4:	73863603          	ld	a2,1848(a2) # 1738 <.LBB13_5+0x8c>
    6ff8:	40c585bb          	subw	a1,a1,a2
    6ffc:	00b50533          	add	a0,a0,a1
    7000:	ff05081b          	addiw	a6,a0,-16 # ffffffffbffffff0 <.Lfunc_end80+0xffffffffbffd7628>
    7004:	40000537          	lui	a0,0x40000
    7008:	40000637          	lui	a2,0x40000
    700c:	00085463          	bgez	a6,7014 <.LBB13_486>
    7010:	c0000537          	lui	a0,0xc0000

0000000000007014 <.LBB13_486>:
    7014:	dea43423          	sd	a0,-536(s0)
    7018:	e9043503          	ld	a0,-368(s0)
    701c:	00a08533          	add	a0,ra,a0
    7020:	f8843583          	ld	a1,-120(s0)
    7024:	00001337          	lui	t1,0x1
    7028:	40640333          	sub	t1,s0,t1
    702c:	74033483          	ld	s1,1856(t1) # 1740 <.LBB13_5+0x94>
    7030:	409585bb          	subw	a1,a1,s1
    7034:	00b50533          	add	a0,a0,a1
    7038:	ff05051b          	addiw	a0,a0,-16 # ffffffffbffffff0 <.Lfunc_end80+0xffffffffbffd7628>
    703c:	400005b7          	lui	a1,0x40000
    7040:	dea43c23          	sd	a0,-520(s0)
    7044:	00055463          	bgez	a0,704c <.LBB13_488>
    7048:	c00005b7          	lui	a1,0xc0000

000000000000704c <.LBB13_488>:
    704c:	deb43823          	sd	a1,-528(s0)
    7050:	ea043503          	ld	a0,-352(s0)
    7054:	00ad8533          	add	a0,s11,a0
    7058:	f8843583          	ld	a1,-120(s0)
    705c:	00001337          	lui	t1,0x1
    7060:	40640333          	sub	t1,s0,t1
    7064:	75833483          	ld	s1,1880(t1) # 1758 <.LBB13_5+0xac>
    7068:	409585bb          	subw	a1,a1,s1
    706c:	00b50533          	add	a0,a0,a1
    7070:	ff05051b          	addiw	a0,a0,-16
    7074:	400005b7          	lui	a1,0x40000
    7078:	e0a43823          	sd	a0,-496(s0)
    707c:	00055463          	bgez	a0,7084 <.LBB13_490>
    7080:	c00005b7          	lui	a1,0xc0000

0000000000007084 <.LBB13_490>:
    7084:	e0b43423          	sd	a1,-504(s0)
    7088:	eb043503          	ld	a0,-336(s0)
    708c:	00ac8533          	add	a0,s9,a0
    7090:	f8843583          	ld	a1,-120(s0)
    7094:	e7843483          	ld	s1,-392(s0)
    7098:	409585bb          	subw	a1,a1,s1
    709c:	00b50533          	add	a0,a0,a1
    70a0:	ff05051b          	addiw	a0,a0,-16
    70a4:	400005b7          	lui	a1,0x40000
    70a8:	e2a43023          	sd	a0,-480(s0)
    70ac:	00055463          	bgez	a0,70b4 <.LBB13_492>
    70b0:	c00005b7          	lui	a1,0xc0000

00000000000070b4 <.LBB13_492>:
    70b4:	e0b43c23          	sd	a1,-488(s0)
    70b8:	eb843503          	ld	a0,-328(s0)
    70bc:	00ab0533          	add	a0,s6,a0
    70c0:	f8843583          	ld	a1,-120(s0)
    70c4:	e8843483          	ld	s1,-376(s0)
    70c8:	409585bb          	subw	a1,a1,s1
    70cc:	00b50533          	add	a0,a0,a1
    70d0:	ff05051b          	addiw	a0,a0,-16
    70d4:	400005b7          	lui	a1,0x40000
    70d8:	e2a43823          	sd	a0,-464(s0)
    70dc:	00055463          	bgez	a0,70e4 <.LBB13_494>
    70e0:	c00005b7          	lui	a1,0xc0000

00000000000070e4 <.LBB13_494>:
    70e4:	e2b43423          	sd	a1,-472(s0)
    70e8:	ec843503          	ld	a0,-312(s0)
    70ec:	00aa8533          	add	a0,s5,a0
    70f0:	f8843583          	ld	a1,-120(s0)
    70f4:	e9843483          	ld	s1,-360(s0)
    70f8:	409585bb          	subw	a1,a1,s1
    70fc:	00b50533          	add	a0,a0,a1
    7100:	ff05051b          	addiw	a0,a0,-16
    7104:	400005b7          	lui	a1,0x40000
    7108:	e4a43423          	sd	a0,-440(s0)
    710c:	00055463          	bgez	a0,7114 <.LBB13_496>
    7110:	c00005b7          	lui	a1,0xc0000

0000000000007114 <.LBB13_496>:
    7114:	e2b43c23          	sd	a1,-456(s0)
    7118:	ed843503          	ld	a0,-296(s0)
    711c:	00aa0533          	add	a0,s4,a0
    7120:	f8843583          	ld	a1,-120(s0)
    7124:	ea843483          	ld	s1,-344(s0)
    7128:	409585bb          	subw	a1,a1,s1
    712c:	00b50533          	add	a0,a0,a1
    7130:	ff05051b          	addiw	a0,a0,-16
    7134:	400005b7          	lui	a1,0x40000
    7138:	e4a43c23          	sd	a0,-424(s0)
    713c:	00055463          	bgez	a0,7144 <.LBB13_498>
    7140:	c00005b7          	lui	a1,0xc0000

0000000000007144 <.LBB13_498>:
    7144:	e4b43823          	sd	a1,-432(s0)
    7148:	ee843503          	ld	a0,-280(s0)
    714c:	e7043583          	ld	a1,-400(s0)
    7150:	00a58533          	add	a0,a1,a0
    7154:	f8843583          	ld	a1,-120(s0)
    7158:	ec043483          	ld	s1,-320(s0)
    715c:	409585bb          	subw	a1,a1,s1
    7160:	00b50533          	add	a0,a0,a1
    7164:	ff05051b          	addiw	a0,a0,-16
    7168:	400005b7          	lui	a1,0x40000
    716c:	e6a43423          	sd	a0,-408(s0)
    7170:	00055463          	bgez	a0,7178 <.LBB13_500>
    7174:	c00005b7          	lui	a1,0xc0000

0000000000007178 <.LBB13_500>:
    7178:	e6b43023          	sd	a1,-416(s0)
    717c:	ef843503          	ld	a0,-264(s0)
    7180:	00a90533          	add	a0,s2,a0
    7184:	f8843583          	ld	a1,-120(s0)
    7188:	ed043483          	ld	s1,-304(s0)
    718c:	409585bb          	subw	a1,a1,s1
    7190:	00b50533          	add	a0,a0,a1
    7194:	ff05051b          	addiw	a0,a0,-16
    7198:	400005b7          	lui	a1,0x40000
    719c:	e6a43c23          	sd	a0,-392(s0)
    71a0:	00055463          	bgez	a0,71a8 <.LBB13_502>
    71a4:	c00005b7          	lui	a1,0xc0000

00000000000071a8 <.LBB13_502>:
    71a8:	e6b43823          	sd	a1,-400(s0)
    71ac:	f0043503          	ld	a0,-256(s0)
    71b0:	00af8533          	add	a0,t6,a0
    71b4:	f8843583          	ld	a1,-120(s0)
    71b8:	ee043f83          	ld	t6,-288(s0)
    71bc:	41f585bb          	subw	a1,a1,t6
    71c0:	00b50533          	add	a0,a0,a1
    71c4:	ff05049b          	addiw	s1,a0,-16
    71c8:	40000537          	lui	a0,0x40000
    71cc:	0004d463          	bgez	s1,71d4 <.LBB13_504>
    71d0:	c0000537          	lui	a0,0xc0000

00000000000071d4 <.LBB13_504>:
    71d4:	e8a43423          	sd	a0,-376(s0)
    71d8:	f1043503          	ld	a0,-240(s0)
    71dc:	00af0533          	add	a0,t5,a0
    71e0:	f8843583          	ld	a1,-120(s0)
    71e4:	ef043f03          	ld	t5,-272(s0)
    71e8:	41e585bb          	subw	a1,a1,t5
    71ec:	00b50533          	add	a0,a0,a1
    71f0:	ff05091b          	addiw	s2,a0,-16 # ffffffffbffffff0 <.Lfunc_end80+0xffffffffbffd7628>
    71f4:	40000537          	lui	a0,0x40000
    71f8:	00095463          	bgez	s2,7200 <.LBB13_506>
    71fc:	c0000537          	lui	a0,0xc0000

0000000000007200 <.LBB13_506>:
    7200:	e8a43823          	sd	a0,-368(s0)
    7204:	f3843503          	ld	a0,-200(s0)
    7208:	00ae8533          	add	a0,t4,a0
    720c:	f8843583          	ld	a1,-120(s0)
    7210:	f0843e83          	ld	t4,-248(s0)
    7214:	41d585bb          	subw	a1,a1,t4
    7218:	00b50533          	add	a0,a0,a1
    721c:	ff05059b          	addiw	a1,a0,-16 # ffffffffbffffff0 <.Lfunc_end80+0xffffffffbffd7628>
    7220:	40000537          	lui	a0,0x40000
    7224:	00001337          	lui	t1,0x1
    7228:	40640333          	sub	t1,s0,t1
    722c:	d2b33023          	sd	a1,-736(t1) # d20 <.LBB13_3+0xb08>
    7230:	0005d463          	bgez	a1,7238 <.LBB13_508>
    7234:	c0000537          	lui	a0,0xc0000

0000000000007238 <.LBB13_508>:
    7238:	e8a43c23          	sd	a0,-360(s0)
    723c:	f4843503          	ld	a0,-184(s0)
    7240:	00ae0533          	add	a0,t3,a0
    7244:	f8843583          	ld	a1,-120(s0)
    7248:	f3043e03          	ld	t3,-208(s0)
    724c:	41c585bb          	subw	a1,a1,t3
    7250:	00b50533          	add	a0,a0,a1
    7254:	ff050a1b          	addiw	s4,a0,-16 # ffffffffbffffff0 <.Lfunc_end80+0xffffffffbffd7628>
    7258:	40000537          	lui	a0,0x40000
    725c:	000a5463          	bgez	s4,7264 <.LBB13_510>
    7260:	c0000537          	lui	a0,0xc0000

0000000000007264 <.LBB13_510>:
    7264:	eaa43023          	sd	a0,-352(s0)
    7268:	f5843503          	ld	a0,-168(s0)
    726c:	00a38533          	add	a0,t2,a0
    7270:	f8843583          	ld	a1,-120(s0)
    7274:	f4043383          	ld	t2,-192(s0)
    7278:	407585bb          	subw	a1,a1,t2
    727c:	00b50533          	add	a0,a0,a1
    7280:	ff050a9b          	addiw	s5,a0,-16 # ffffffffbffffff0 <.Lfunc_end80+0xffffffffbffd7628>
    7284:	40000537          	lui	a0,0x40000
    7288:	000ad463          	bgez	s5,7290 <.LBB13_512>
    728c:	c0000537          	lui	a0,0xc0000

0000000000007290 <.LBB13_512>:
    7290:	eaa43823          	sd	a0,-336(s0)
    7294:	f6843503          	ld	a0,-152(s0)
    7298:	00a98533          	add	a0,s3,a0
    729c:	f5043583          	ld	a1,-176(s0)
    72a0:	f8843303          	ld	t1,-120(s0)
    72a4:	40b305bb          	subw	a1,t1,a1
    72a8:	00b50533          	add	a0,a0,a1
    72ac:	ff050b1b          	addiw	s6,a0,-16 # ffffffffbffffff0 <.Lfunc_end80+0xffffffffbffd7628>
    72b0:	40000d37          	lui	s10,0x40000
    72b4:	000b5463          	bgez	s6,72bc <.LBB13_514>
    72b8:	c0000d37          	lui	s10,0xc0000

00000000000072bc <.LBB13_514>:
    72bc:	f7043503          	ld	a0,-144(s0)
    72c0:	00a28533          	add	a0,t0,a0
    72c4:	f6043583          	ld	a1,-160(s0)
    72c8:	f8843283          	ld	t0,-120(s0)
    72cc:	40b285bb          	subw	a1,t0,a1
    72d0:	00b50533          	add	a0,a0,a1
    72d4:	ff05051b          	addiw	a0,a0,-16
    72d8:	400005b7          	lui	a1,0x40000
    72dc:	eca43023          	sd	a0,-320(s0)
    72e0:	00055463          	bgez	a0,72e8 <.LBB13_516>
    72e4:	c00005b7          	lui	a1,0xc0000

00000000000072e8 <.LBB13_516>:
    72e8:	eab43c23          	sd	a1,-328(s0)
    72ec:	f8043503          	ld	a0,-128(s0)
    72f0:	00a88533          	add	a0,a7,a0
    72f4:	f7843583          	ld	a1,-136(s0)
    72f8:	f8843883          	ld	a7,-120(s0)
    72fc:	40b885bb          	subw	a1,a7,a1
    7300:	00b50533          	add	a0,a0,a1
    7304:	ff05051b          	addiw	a0,a0,-16
    7308:	eca43823          	sd	a0,-304(s0)
    730c:	00055463          	bgez	a0,7314 <.LBB13_518>
    7310:	c0000637          	lui	a2,0xc0000

0000000000007314 <.LBB13_518>:
    7314:	00001537          	lui	a0,0x1
    7318:	40a40533          	sub	a0,s0,a0
    731c:	e4853503          	ld	a0,-440(a0) # e48 <.LBB13_3+0xc30>
    7320:	03850533          	mul	a0,a0,s8
    7324:	000015b7          	lui	a1,0x1
    7328:	40b405b3          	sub	a1,s0,a1
    732c:	e285b583          	ld	a1,-472(a1) # e28 <.LBB13_3+0xc10>
    7330:	017585b3          	add	a1,a1,s7
    7334:	00b50533          	add	a0,a0,a1
    7338:	42155513          	srai	a0,a0,0x21
    733c:	00a025b3          	sgtz	a1,a0
    7340:	40b005b3          	neg	a1,a1
    7344:	00a5f533          	and	a0,a1,a0
    7348:	0ff00c93          	li	s9,255
    734c:	01954463          	blt	a0,s9,7354 <.LBB13_520>
    7350:	0ff00513          	li	a0,255

0000000000007354 <.LBB13_520>:
    7354:	eea43423          	sd	a0,-280(s0)
    7358:	00001537          	lui	a0,0x1
    735c:	40a40533          	sub	a0,s0,a0
    7360:	e6053503          	ld	a0,-416(a0) # e60 <.LBB13_3+0xc48>
    7364:	03850533          	mul	a0,a0,s8
    7368:	000015b7          	lui	a1,0x1
    736c:	40b405b3          	sub	a1,s0,a1
    7370:	e405b583          	ld	a1,-448(a1) # e40 <.LBB13_3+0xc28>
    7374:	017585b3          	add	a1,a1,s7
    7378:	00b50533          	add	a0,a0,a1
    737c:	42155513          	srai	a0,a0,0x21
    7380:	00a025b3          	sgtz	a1,a0
    7384:	40b005b3          	neg	a1,a1
    7388:	00a5f533          	and	a0,a1,a0
    738c:	01954463          	blt	a0,s9,7394 <.LBB13_522>
    7390:	0ff00513          	li	a0,255

0000000000007394 <.LBB13_522>:
    7394:	f8a43423          	sd	a0,-120(s0)
    7398:	00001537          	lui	a0,0x1
    739c:	40a40533          	sub	a0,s0,a0
    73a0:	e7853503          	ld	a0,-392(a0) # e78 <.LBB13_3+0xc60>
    73a4:	03850533          	mul	a0,a0,s8
    73a8:	000015b7          	lui	a1,0x1
    73ac:	40b405b3          	sub	a1,s0,a1
    73b0:	e585b583          	ld	a1,-424(a1) # e58 <.LBB13_3+0xc40>
    73b4:	017585b3          	add	a1,a1,s7
    73b8:	00b50533          	add	a0,a0,a1
    73bc:	42155513          	srai	a0,a0,0x21
    73c0:	00a025b3          	sgtz	a1,a0
    73c4:	40b005b3          	neg	a1,a1
    73c8:	00a5f533          	and	a0,a1,a0
    73cc:	01954463          	blt	a0,s9,73d4 <.LBB13_524>
    73d0:	0ff00513          	li	a0,255

00000000000073d4 <.LBB13_524>:
    73d4:	f8a43023          	sd	a0,-128(s0)
    73d8:	00001537          	lui	a0,0x1
    73dc:	40a40533          	sub	a0,s0,a0
    73e0:	e8853503          	ld	a0,-376(a0) # e88 <.LBB13_3+0xc70>
    73e4:	03850533          	mul	a0,a0,s8
    73e8:	000015b7          	lui	a1,0x1
    73ec:	40b405b3          	sub	a1,s0,a1
    73f0:	e685b583          	ld	a1,-408(a1) # e68 <.LBB13_3+0xc50>
    73f4:	017585b3          	add	a1,a1,s7
    73f8:	00b50533          	add	a0,a0,a1
    73fc:	42155513          	srai	a0,a0,0x21
    7400:	00a025b3          	sgtz	a1,a0
    7404:	40b005b3          	neg	a1,a1
    7408:	00a5f533          	and	a0,a1,a0
    740c:	01954463          	blt	a0,s9,7414 <.LBB13_526>
    7410:	0ff00513          	li	a0,255

0000000000007414 <.LBB13_526>:
    7414:	f6a43c23          	sd	a0,-136(s0)
    7418:	00001537          	lui	a0,0x1
    741c:	40a40533          	sub	a0,s0,a0
    7420:	ea053503          	ld	a0,-352(a0) # ea0 <.LBB13_3+0xc88>
    7424:	03850533          	mul	a0,a0,s8
    7428:	000015b7          	lui	a1,0x1
    742c:	40b405b3          	sub	a1,s0,a1
    7430:	e805b583          	ld	a1,-384(a1) # e80 <.LBB13_3+0xc68>
    7434:	017585b3          	add	a1,a1,s7
    7438:	00b50533          	add	a0,a0,a1
    743c:	42155513          	srai	a0,a0,0x21
    7440:	00a025b3          	sgtz	a1,a0
    7444:	40b005b3          	neg	a1,a1
    7448:	00a5f533          	and	a0,a1,a0
    744c:	01954463          	blt	a0,s9,7454 <.LBB13_528>
    7450:	0ff00513          	li	a0,255

0000000000007454 <.LBB13_528>:
    7454:	f6a43823          	sd	a0,-144(s0)
    7458:	00001537          	lui	a0,0x1
    745c:	40a40533          	sub	a0,s0,a0
    7460:	eb853503          	ld	a0,-328(a0) # eb8 <.LBB13_3+0xca0>
    7464:	03850533          	mul	a0,a0,s8
    7468:	000015b7          	lui	a1,0x1
    746c:	40b405b3          	sub	a1,s0,a1
    7470:	e985b583          	ld	a1,-360(a1) # e98 <.LBB13_3+0xc80>
    7474:	017585b3          	add	a1,a1,s7
    7478:	00b50533          	add	a0,a0,a1
    747c:	42155513          	srai	a0,a0,0x21
    7480:	00a025b3          	sgtz	a1,a0
    7484:	40b005b3          	neg	a1,a1
    7488:	00a5f533          	and	a0,a1,a0
    748c:	01954463          	blt	a0,s9,7494 <.LBB13_530>
    7490:	0ff00513          	li	a0,255

0000000000007494 <.LBB13_530>:
    7494:	f6a43423          	sd	a0,-152(s0)
    7498:	00001537          	lui	a0,0x1
    749c:	40a40533          	sub	a0,s0,a0
    74a0:	ec853503          	ld	a0,-312(a0) # ec8 <.LBB13_3+0xcb0>
    74a4:	03850533          	mul	a0,a0,s8
    74a8:	000015b7          	lui	a1,0x1
    74ac:	40b405b3          	sub	a1,s0,a1
    74b0:	ea85b583          	ld	a1,-344(a1) # ea8 <.LBB13_3+0xc90>
    74b4:	017585b3          	add	a1,a1,s7
    74b8:	00b50533          	add	a0,a0,a1
    74bc:	42155513          	srai	a0,a0,0x21
    74c0:	00a025b3          	sgtz	a1,a0
    74c4:	40b005b3          	neg	a1,a1
    74c8:	00a5f533          	and	a0,a1,a0
    74cc:	01954463          	blt	a0,s9,74d4 <.LBB13_532>
    74d0:	0ff00513          	li	a0,255

00000000000074d4 <.LBB13_532>:
    74d4:	f6a43023          	sd	a0,-160(s0)
    74d8:	00001537          	lui	a0,0x1
    74dc:	40a40533          	sub	a0,s0,a0
    74e0:	ee053503          	ld	a0,-288(a0) # ee0 <.LBB13_3+0xcc8>
    74e4:	03850533          	mul	a0,a0,s8
    74e8:	000015b7          	lui	a1,0x1
    74ec:	40b405b3          	sub	a1,s0,a1
    74f0:	ec05b583          	ld	a1,-320(a1) # ec0 <.LBB13_3+0xca8>
    74f4:	017585b3          	add	a1,a1,s7
    74f8:	00b50533          	add	a0,a0,a1
    74fc:	42155513          	srai	a0,a0,0x21
    7500:	00a025b3          	sgtz	a1,a0
    7504:	40b005b3          	neg	a1,a1
    7508:	00a5f533          	and	a0,a1,a0
    750c:	01954463          	blt	a0,s9,7514 <.LBB13_534>
    7510:	0ff00513          	li	a0,255

0000000000007514 <.LBB13_534>:
    7514:	f4a43c23          	sd	a0,-168(s0)
    7518:	00001537          	lui	a0,0x1
    751c:	40a40533          	sub	a0,s0,a0
    7520:	ef053503          	ld	a0,-272(a0) # ef0 <.LBB13_3+0xcd8>
    7524:	03850533          	mul	a0,a0,s8
    7528:	000015b7          	lui	a1,0x1
    752c:	40b405b3          	sub	a1,s0,a1
    7530:	ed85b583          	ld	a1,-296(a1) # ed8 <.LBB13_3+0xcc0>
    7534:	017585b3          	add	a1,a1,s7
    7538:	00b50533          	add	a0,a0,a1
    753c:	42155513          	srai	a0,a0,0x21
    7540:	00a025b3          	sgtz	a1,a0
    7544:	40b005b3          	neg	a1,a1
    7548:	00a5f533          	and	a0,a1,a0
    754c:	01954463          	blt	a0,s9,7554 <.LBB13_536>
    7550:	0ff00513          	li	a0,255

0000000000007554 <.LBB13_536>:
    7554:	f4a43823          	sd	a0,-176(s0)
    7558:	00001537          	lui	a0,0x1
    755c:	40a40533          	sub	a0,s0,a0
    7560:	d3053503          	ld	a0,-720(a0) # d30 <.LBB13_3+0xb18>
    7564:	03850533          	mul	a0,a0,s8
    7568:	000015b7          	lui	a1,0x1
    756c:	40b405b3          	sub	a1,s0,a1
    7570:	d285b583          	ld	a1,-728(a1) # d28 <.LBB13_3+0xb10>
    7574:	017585b3          	add	a1,a1,s7
    7578:	00b50533          	add	a0,a0,a1
    757c:	42155513          	srai	a0,a0,0x21
    7580:	00a025b3          	sgtz	a1,a0
    7584:	40b005b3          	neg	a1,a1
    7588:	00a5f533          	and	a0,a1,a0
    758c:	01954463          	blt	a0,s9,7594 <.LBB13_538>
    7590:	0ff00513          	li	a0,255

0000000000007594 <.LBB13_538>:
    7594:	f4a43423          	sd	a0,-184(s0)
    7598:	00001537          	lui	a0,0x1
    759c:	40a40533          	sub	a0,s0,a0
    75a0:	d4053503          	ld	a0,-704(a0) # d40 <.LBB13_3+0xb28>
    75a4:	03850533          	mul	a0,a0,s8
    75a8:	000015b7          	lui	a1,0x1
    75ac:	40b405b3          	sub	a1,s0,a1
    75b0:	d385b583          	ld	a1,-712(a1) # d38 <.LBB13_3+0xb20>
    75b4:	017585b3          	add	a1,a1,s7
    75b8:	00b50533          	add	a0,a0,a1
    75bc:	42155513          	srai	a0,a0,0x21
    75c0:	00a025b3          	sgtz	a1,a0
    75c4:	40b005b3          	neg	a1,a1
    75c8:	00a5f533          	and	a0,a1,a0
    75cc:	01954463          	blt	a0,s9,75d4 <.LBB13_540>
    75d0:	0ff00513          	li	a0,255

00000000000075d4 <.LBB13_540>:
    75d4:	f4a43023          	sd	a0,-192(s0)
    75d8:	00001537          	lui	a0,0x1
    75dc:	40a40533          	sub	a0,s0,a0
    75e0:	d5053503          	ld	a0,-688(a0) # d50 <.LBB13_3+0xb38>
    75e4:	03850533          	mul	a0,a0,s8
    75e8:	000015b7          	lui	a1,0x1
    75ec:	40b405b3          	sub	a1,s0,a1
    75f0:	d485b583          	ld	a1,-696(a1) # d48 <.LBB13_3+0xb30>
    75f4:	017585b3          	add	a1,a1,s7
    75f8:	00b50533          	add	a0,a0,a1
    75fc:	42155513          	srai	a0,a0,0x21
    7600:	00a025b3          	sgtz	a1,a0
    7604:	40b005b3          	neg	a1,a1
    7608:	00a5f533          	and	a0,a1,a0
    760c:	01954463          	blt	a0,s9,7614 <.LBB13_542>
    7610:	0ff00513          	li	a0,255

0000000000007614 <.LBB13_542>:
    7614:	f2a43c23          	sd	a0,-200(s0)
    7618:	00001537          	lui	a0,0x1
    761c:	40a40533          	sub	a0,s0,a0
    7620:	d6053503          	ld	a0,-672(a0) # d60 <.LBB13_3+0xb48>
    7624:	03850533          	mul	a0,a0,s8
    7628:	000015b7          	lui	a1,0x1
    762c:	40b405b3          	sub	a1,s0,a1
    7630:	d585b583          	ld	a1,-680(a1) # d58 <.LBB13_3+0xb40>
    7634:	017585b3          	add	a1,a1,s7
    7638:	00b50533          	add	a0,a0,a1
    763c:	42155513          	srai	a0,a0,0x21
    7640:	00a025b3          	sgtz	a1,a0
    7644:	40b005b3          	neg	a1,a1
    7648:	00a5f533          	and	a0,a1,a0
    764c:	01954463          	blt	a0,s9,7654 <.LBB13_544>
    7650:	0ff00513          	li	a0,255

0000000000007654 <.LBB13_544>:
    7654:	f2a43823          	sd	a0,-208(s0)
    7658:	00001537          	lui	a0,0x1
    765c:	40a40533          	sub	a0,s0,a0
    7660:	d7053503          	ld	a0,-656(a0) # d70 <.LBB13_3+0xb58>
    7664:	03850533          	mul	a0,a0,s8
    7668:	000015b7          	lui	a1,0x1
    766c:	40b405b3          	sub	a1,s0,a1
    7670:	d685b583          	ld	a1,-664(a1) # d68 <.LBB13_3+0xb50>
    7674:	017585b3          	add	a1,a1,s7
    7678:	00b50533          	add	a0,a0,a1
    767c:	42155513          	srai	a0,a0,0x21
    7680:	00a025b3          	sgtz	a1,a0
    7684:	40b005b3          	neg	a1,a1
    7688:	00a5f533          	and	a0,a1,a0
    768c:	01954463          	blt	a0,s9,7694 <.LBB13_546>
    7690:	0ff00513          	li	a0,255

0000000000007694 <.LBB13_546>:
    7694:	f2a43423          	sd	a0,-216(s0)
    7698:	00001537          	lui	a0,0x1
    769c:	40a40533          	sub	a0,s0,a0
    76a0:	d8053503          	ld	a0,-640(a0) # d80 <.LBB13_3+0xb68>
    76a4:	03850533          	mul	a0,a0,s8
    76a8:	000015b7          	lui	a1,0x1
    76ac:	40b405b3          	sub	a1,s0,a1
    76b0:	d785b583          	ld	a1,-648(a1) # d78 <.LBB13_3+0xb60>
    76b4:	017585b3          	add	a1,a1,s7
    76b8:	00b50533          	add	a0,a0,a1
    76bc:	42155513          	srai	a0,a0,0x21
    76c0:	00a025b3          	sgtz	a1,a0
    76c4:	40b005b3          	neg	a1,a1
    76c8:	00a5f533          	and	a0,a1,a0
    76cc:	01954463          	blt	a0,s9,76d4 <.LBB13_548>
    76d0:	0ff00513          	li	a0,255

00000000000076d4 <.LBB13_548>:
    76d4:	f2a43023          	sd	a0,-224(s0)
    76d8:	00001537          	lui	a0,0x1
    76dc:	40a40533          	sub	a0,s0,a0
    76e0:	d9053503          	ld	a0,-624(a0) # d90 <.LBB13_3+0xb78>
    76e4:	03850533          	mul	a0,a0,s8
    76e8:	000015b7          	lui	a1,0x1
    76ec:	40b405b3          	sub	a1,s0,a1
    76f0:	d885b583          	ld	a1,-632(a1) # d88 <.LBB13_3+0xb70>
    76f4:	017585b3          	add	a1,a1,s7
    76f8:	00b50533          	add	a0,a0,a1
    76fc:	42155513          	srai	a0,a0,0x21
    7700:	00a025b3          	sgtz	a1,a0
    7704:	40b005b3          	neg	a1,a1
    7708:	00a5f533          	and	a0,a1,a0
    770c:	01954463          	blt	a0,s9,7714 <.LBB13_550>
    7710:	0ff00513          	li	a0,255

0000000000007714 <.LBB13_550>:
    7714:	f0a43c23          	sd	a0,-232(s0)
    7718:	00001537          	lui	a0,0x1
    771c:	40a40533          	sub	a0,s0,a0
    7720:	da053503          	ld	a0,-608(a0) # da0 <.LBB13_3+0xb88>
    7724:	03850533          	mul	a0,a0,s8
    7728:	000015b7          	lui	a1,0x1
    772c:	40b405b3          	sub	a1,s0,a1
    7730:	d985b583          	ld	a1,-616(a1) # d98 <.LBB13_3+0xb80>
    7734:	017585b3          	add	a1,a1,s7
    7738:	00b50533          	add	a0,a0,a1
    773c:	42155513          	srai	a0,a0,0x21
    7740:	00a025b3          	sgtz	a1,a0
    7744:	40b005b3          	neg	a1,a1
    7748:	00a5f533          	and	a0,a1,a0
    774c:	01954463          	blt	a0,s9,7754 <.LBB13_552>
    7750:	0ff00513          	li	a0,255

0000000000007754 <.LBB13_552>:
    7754:	f0a43823          	sd	a0,-240(s0)
    7758:	00001537          	lui	a0,0x1
    775c:	40a40533          	sub	a0,s0,a0
    7760:	db053503          	ld	a0,-592(a0) # db0 <.LBB13_3+0xb98>
    7764:	03850533          	mul	a0,a0,s8
    7768:	000015b7          	lui	a1,0x1
    776c:	40b405b3          	sub	a1,s0,a1
    7770:	da85b583          	ld	a1,-600(a1) # da8 <.LBB13_3+0xb90>
    7774:	017585b3          	add	a1,a1,s7
    7778:	00b50533          	add	a0,a0,a1
    777c:	42155513          	srai	a0,a0,0x21
    7780:	00a025b3          	sgtz	a1,a0
    7784:	40b005b3          	neg	a1,a1
    7788:	00a5f533          	and	a0,a1,a0
    778c:	01954463          	blt	a0,s9,7794 <.LBB13_554>
    7790:	0ff00513          	li	a0,255

0000000000007794 <.LBB13_554>:
    7794:	f0a43423          	sd	a0,-248(s0)
    7798:	00001537          	lui	a0,0x1
    779c:	40a40533          	sub	a0,s0,a0
    77a0:	dc053503          	ld	a0,-576(a0) # dc0 <.LBB13_3+0xba8>
    77a4:	03850533          	mul	a0,a0,s8
    77a8:	000015b7          	lui	a1,0x1
    77ac:	40b405b3          	sub	a1,s0,a1
    77b0:	db85b583          	ld	a1,-584(a1) # db8 <.LBB13_3+0xba0>
    77b4:	017585b3          	add	a1,a1,s7
    77b8:	00b50533          	add	a0,a0,a1
    77bc:	42155513          	srai	a0,a0,0x21
    77c0:	00a025b3          	sgtz	a1,a0
    77c4:	40b005b3          	neg	a1,a1
    77c8:	00a5f533          	and	a0,a1,a0
    77cc:	01954463          	blt	a0,s9,77d4 <.LBB13_556>
    77d0:	0ff00513          	li	a0,255

00000000000077d4 <.LBB13_556>:
    77d4:	f0a43023          	sd	a0,-256(s0)
    77d8:	00001537          	lui	a0,0x1
    77dc:	40a40533          	sub	a0,s0,a0
    77e0:	dd053503          	ld	a0,-560(a0) # dd0 <.LBB13_3+0xbb8>
    77e4:	03850533          	mul	a0,a0,s8
    77e8:	000015b7          	lui	a1,0x1
    77ec:	40b405b3          	sub	a1,s0,a1
    77f0:	dc85b583          	ld	a1,-568(a1) # dc8 <.LBB13_3+0xbb0>
    77f4:	017585b3          	add	a1,a1,s7
    77f8:	00b50533          	add	a0,a0,a1
    77fc:	42155513          	srai	a0,a0,0x21
    7800:	00a025b3          	sgtz	a1,a0
    7804:	40b005b3          	neg	a1,a1
    7808:	00a5f533          	and	a0,a1,a0
    780c:	01954463          	blt	a0,s9,7814 <.LBB13_558>
    7810:	0ff00513          	li	a0,255

0000000000007814 <.LBB13_558>:
    7814:	eea43c23          	sd	a0,-264(s0)
    7818:	00001537          	lui	a0,0x1
    781c:	40a40533          	sub	a0,s0,a0
    7820:	de053503          	ld	a0,-544(a0) # de0 <.LBB13_3+0xbc8>
    7824:	03850533          	mul	a0,a0,s8
    7828:	000015b7          	lui	a1,0x1
    782c:	40b405b3          	sub	a1,s0,a1
    7830:	dd85b583          	ld	a1,-552(a1) # dd8 <.LBB13_3+0xbc0>
    7834:	017585b3          	add	a1,a1,s7
    7838:	00b50533          	add	a0,a0,a1
    783c:	42155513          	srai	a0,a0,0x21
    7840:	00a025b3          	sgtz	a1,a0
    7844:	40b005b3          	neg	a1,a1
    7848:	00a5f533          	and	a0,a1,a0
    784c:	01954463          	blt	a0,s9,7854 <.LBB13_560>
    7850:	0ff00513          	li	a0,255

0000000000007854 <.LBB13_560>:
    7854:	eea43823          	sd	a0,-272(s0)
    7858:	00001537          	lui	a0,0x1
    785c:	40a40533          	sub	a0,s0,a0
    7860:	df053503          	ld	a0,-528(a0) # df0 <.LBB13_3+0xbd8>
    7864:	03850533          	mul	a0,a0,s8
    7868:	000015b7          	lui	a1,0x1
    786c:	40b405b3          	sub	a1,s0,a1
    7870:	de85b583          	ld	a1,-536(a1) # de8 <.LBB13_3+0xbd0>
    7874:	017585b3          	add	a1,a1,s7
    7878:	00b50533          	add	a0,a0,a1
    787c:	42155513          	srai	a0,a0,0x21
    7880:	00a025b3          	sgtz	a1,a0
    7884:	40b005b3          	neg	a1,a1
    7888:	00a5f533          	and	a0,a1,a0
    788c:	01954463          	blt	a0,s9,7894 <.LBB13_562>
    7890:	0ff00513          	li	a0,255

0000000000007894 <.LBB13_562>:
    7894:	eea43023          	sd	a0,-288(s0)
    7898:	00001537          	lui	a0,0x1
    789c:	40a40533          	sub	a0,s0,a0
    78a0:	e0053503          	ld	a0,-512(a0) # e00 <.LBB13_3+0xbe8>
    78a4:	03850533          	mul	a0,a0,s8
    78a8:	000015b7          	lui	a1,0x1
    78ac:	40b405b3          	sub	a1,s0,a1
    78b0:	df85b583          	ld	a1,-520(a1) # df8 <.LBB13_3+0xbe0>
    78b4:	017585b3          	add	a1,a1,s7
    78b8:	00b50533          	add	a0,a0,a1
    78bc:	42155513          	srai	a0,a0,0x21
    78c0:	00a025b3          	sgtz	a1,a0
    78c4:	40b005b3          	neg	a1,a1
    78c8:	00a5f533          	and	a0,a1,a0
    78cc:	01954463          	blt	a0,s9,78d4 <.LBB13_564>
    78d0:	0ff00513          	li	a0,255

00000000000078d4 <.LBB13_564>:
    78d4:	eca43c23          	sd	a0,-296(s0)
    78d8:	00001537          	lui	a0,0x1
    78dc:	40a40533          	sub	a0,s0,a0
    78e0:	e1053503          	ld	a0,-496(a0) # e10 <.LBB13_3+0xbf8>
    78e4:	03850533          	mul	a0,a0,s8
    78e8:	000015b7          	lui	a1,0x1
    78ec:	40b405b3          	sub	a1,s0,a1
    78f0:	e085b583          	ld	a1,-504(a1) # e08 <.LBB13_3+0xbf0>
    78f4:	017585b3          	add	a1,a1,s7
    78f8:	00b50533          	add	a0,a0,a1
    78fc:	42155513          	srai	a0,a0,0x21
    7900:	00a025b3          	sgtz	a1,a0
    7904:	40b005b3          	neg	a1,a1
    7908:	00a5f533          	and	a0,a1,a0
    790c:	01954463          	blt	a0,s9,7914 <.LBB13_566>
    7910:	0ff00513          	li	a0,255

0000000000007914 <.LBB13_566>:
    7914:	eca43423          	sd	a0,-312(s0)
    7918:	00001537          	lui	a0,0x1
    791c:	40a40533          	sub	a0,s0,a0
    7920:	e2053503          	ld	a0,-480(a0) # e20 <.LBB13_3+0xc08>
    7924:	03850533          	mul	a0,a0,s8
    7928:	000015b7          	lui	a1,0x1
    792c:	40b405b3          	sub	a1,s0,a1
    7930:	e185b583          	ld	a1,-488(a1) # e18 <.LBB13_3+0xc00>
    7934:	017585b3          	add	a1,a1,s7
    7938:	00b50533          	add	a0,a0,a1
    793c:	42155513          	srai	a0,a0,0x21
    7940:	00a025b3          	sgtz	a1,a0
    7944:	40b005b3          	neg	a1,a1
    7948:	00a5f533          	and	a0,a1,a0
    794c:	01954463          	blt	a0,s9,7954 <.LBB13_568>
    7950:	0ff00513          	li	a0,255

0000000000007954 <.LBB13_568>:
    7954:	eaa43423          	sd	a0,-344(s0)
    7958:	00001537          	lui	a0,0x1
    795c:	40a40533          	sub	a0,s0,a0
    7960:	e3853503          	ld	a0,-456(a0) # e38 <.LBB13_3+0xc20>
    7964:	03850533          	mul	a0,a0,s8
    7968:	000015b7          	lui	a1,0x1
    796c:	40b405b3          	sub	a1,s0,a1
    7970:	e305b583          	ld	a1,-464(a1) # e30 <.LBB13_3+0xc18>
    7974:	017585b3          	add	a1,a1,s7
    7978:	00b50533          	add	a0,a0,a1
    797c:	42155513          	srai	a0,a0,0x21
    7980:	00a025b3          	sgtz	a1,a0
    7984:	40b005b3          	neg	a1,a1
    7988:	00a5f533          	and	a0,a1,a0
    798c:	01954463          	blt	a0,s9,7994 <.LBB13_570>
    7990:	0ff00513          	li	a0,255

0000000000007994 <.LBB13_570>:
    7994:	e8a43023          	sd	a0,-384(s0)
    7998:	00001537          	lui	a0,0x1
    799c:	40a40533          	sub	a0,s0,a0
    79a0:	e7053503          	ld	a0,-400(a0) # e70 <.LBB13_3+0xc58>
    79a4:	03850533          	mul	a0,a0,s8
    79a8:	000015b7          	lui	a1,0x1
    79ac:	40b405b3          	sub	a1,s0,a1
    79b0:	e505b583          	ld	a1,-432(a1) # e50 <.LBB13_3+0xc38>
    79b4:	017585b3          	add	a1,a1,s7
    79b8:	00b50533          	add	a0,a0,a1
    79bc:	42155513          	srai	a0,a0,0x21
    79c0:	00a025b3          	sgtz	a1,a0
    79c4:	40b005b3          	neg	a1,a1
    79c8:	00a5f533          	and	a0,a1,a0
    79cc:	01954463          	blt	a0,s9,79d4 <.LBB13_572>
    79d0:	0ff00513          	li	a0,255

00000000000079d4 <.LBB13_572>:
    79d4:	e4a43023          	sd	a0,-448(s0)
    79d8:	00001537          	lui	a0,0x1
    79dc:	40a40533          	sub	a0,s0,a0
    79e0:	eb053503          	ld	a0,-336(a0) # eb0 <.LBB13_3+0xc98>
    79e4:	03850533          	mul	a0,a0,s8
    79e8:	000015b7          	lui	a1,0x1
    79ec:	40b405b3          	sub	a1,s0,a1
    79f0:	e905b583          	ld	a1,-368(a1) # e90 <.LBB13_3+0xc78>
    79f4:	017585b3          	add	a1,a1,s7
    79f8:	00b50533          	add	a0,a0,a1
    79fc:	42155513          	srai	a0,a0,0x21
    7a00:	00a025b3          	sgtz	a1,a0
    7a04:	40b005b3          	neg	a1,a1
    7a08:	00a5f533          	and	a0,a1,a0
    7a0c:	01954463          	blt	a0,s9,7a14 <.LBB13_574>
    7a10:	0ff00513          	li	a0,255

0000000000007a14 <.LBB13_574>:
    7a14:	e0a43023          	sd	a0,-512(s0)
    7a18:	00001537          	lui	a0,0x1
    7a1c:	40a40533          	sub	a0,s0,a0
    7a20:	ee853503          	ld	a0,-280(a0) # ee8 <.LBB13_3+0xcd0>
    7a24:	03850533          	mul	a0,a0,s8
    7a28:	000015b7          	lui	a1,0x1
    7a2c:	40b405b3          	sub	a1,s0,a1
    7a30:	ed05b583          	ld	a1,-304(a1) # ed0 <.LBB13_3+0xcb8>
    7a34:	017585b3          	add	a1,a1,s7
    7a38:	00b50533          	add	a0,a0,a1
    7a3c:	42155513          	srai	a0,a0,0x21
    7a40:	00a025b3          	sgtz	a1,a0
    7a44:	40b005b3          	neg	a1,a1
    7a48:	00a5f533          	and	a0,a1,a0
    7a4c:	01954463          	blt	a0,s9,7a54 <.LBB13_576>
    7a50:	0ff00513          	li	a0,255

0000000000007a54 <.LBB13_576>:
    7a54:	dca43823          	sd	a0,-560(s0)
    7a58:	00001537          	lui	a0,0x1
    7a5c:	40a40533          	sub	a0,s0,a0
    7a60:	f0053503          	ld	a0,-256(a0) # f00 <.LBB13_3+0xce8>
    7a64:	03850533          	mul	a0,a0,s8
    7a68:	000015b7          	lui	a1,0x1
    7a6c:	40b405b3          	sub	a1,s0,a1
    7a70:	ef85b583          	ld	a1,-264(a1) # ef8 <.LBB13_3+0xce0>
    7a74:	017585b3          	add	a1,a1,s7
    7a78:	00b50533          	add	a0,a0,a1
    7a7c:	42155513          	srai	a0,a0,0x21
    7a80:	00a025b3          	sgtz	a1,a0
    7a84:	40b005b3          	neg	a1,a1
    7a88:	00a5f533          	and	a0,a1,a0
    7a8c:	01954463          	blt	a0,s9,7a94 <.LBB13_578>
    7a90:	0ff00513          	li	a0,255

0000000000007a94 <.LBB13_578>:
    7a94:	d8a43c23          	sd	a0,-616(s0)
    7a98:	00001537          	lui	a0,0x1
    7a9c:	40a40533          	sub	a0,s0,a0
    7aa0:	f1053503          	ld	a0,-240(a0) # f10 <.LBB13_3+0xcf8>
    7aa4:	03850533          	mul	a0,a0,s8
    7aa8:	000015b7          	lui	a1,0x1
    7aac:	40b405b3          	sub	a1,s0,a1
    7ab0:	f085b583          	ld	a1,-248(a1) # f08 <.LBB13_3+0xcf0>
    7ab4:	017585b3          	add	a1,a1,s7
    7ab8:	00b50533          	add	a0,a0,a1
    7abc:	42155513          	srai	a0,a0,0x21
    7ac0:	00a025b3          	sgtz	a1,a0
    7ac4:	40b005b3          	neg	a1,a1
    7ac8:	00a5f533          	and	a0,a1,a0
    7acc:	01954463          	blt	a0,s9,7ad4 <.LBB13_580>
    7ad0:	0ff00513          	li	a0,255

0000000000007ad4 <.LBB13_580>:
    7ad4:	d4a43c23          	sd	a0,-680(s0)
    7ad8:	00001537          	lui	a0,0x1
    7adc:	40a40533          	sub	a0,s0,a0
    7ae0:	f2053503          	ld	a0,-224(a0) # f20 <.LBB13_3+0xd08>
    7ae4:	03850533          	mul	a0,a0,s8
    7ae8:	000015b7          	lui	a1,0x1
    7aec:	40b405b3          	sub	a1,s0,a1
    7af0:	f185b583          	ld	a1,-232(a1) # f18 <.LBB13_3+0xd00>
    7af4:	017585b3          	add	a1,a1,s7
    7af8:	00b50533          	add	a0,a0,a1
    7afc:	42155513          	srai	a0,a0,0x21
    7b00:	00a025b3          	sgtz	a1,a0
    7b04:	40b005b3          	neg	a1,a1
    7b08:	00a5f533          	and	a0,a1,a0
    7b0c:	01954463          	blt	a0,s9,7b14 <.LBB13_582>
    7b10:	0ff00513          	li	a0,255

0000000000007b14 <.LBB13_582>:
    7b14:	d0a43823          	sd	a0,-752(s0)
    7b18:	00001537          	lui	a0,0x1
    7b1c:	40a40533          	sub	a0,s0,a0
    7b20:	f3053503          	ld	a0,-208(a0) # f30 <.LBB13_3+0xd18>
    7b24:	03850533          	mul	a0,a0,s8
    7b28:	000015b7          	lui	a1,0x1
    7b2c:	40b405b3          	sub	a1,s0,a1
    7b30:	f285b583          	ld	a1,-216(a1) # f28 <.LBB13_3+0xd10>
    7b34:	017585b3          	add	a1,a1,s7
    7b38:	00b50533          	add	a0,a0,a1
    7b3c:	42155513          	srai	a0,a0,0x21
    7b40:	00a025b3          	sgtz	a1,a0
    7b44:	40b005b3          	neg	a1,a1
    7b48:	00a5f533          	and	a0,a1,a0
    7b4c:	01954463          	blt	a0,s9,7b54 <.LBB13_584>
    7b50:	0ff00513          	li	a0,255

0000000000007b54 <.LBB13_584>:
    7b54:	cca43823          	sd	a0,-816(s0)
    7b58:	00001537          	lui	a0,0x1
    7b5c:	40a40533          	sub	a0,s0,a0
    7b60:	f4053503          	ld	a0,-192(a0) # f40 <.LBB13_3+0xd28>
    7b64:	03850533          	mul	a0,a0,s8
    7b68:	000015b7          	lui	a1,0x1
    7b6c:	40b405b3          	sub	a1,s0,a1
    7b70:	f385b583          	ld	a1,-200(a1) # f38 <.LBB13_3+0xd20>
    7b74:	017585b3          	add	a1,a1,s7
    7b78:	00b50533          	add	a0,a0,a1
    7b7c:	42155513          	srai	a0,a0,0x21
    7b80:	00a025b3          	sgtz	a1,a0
    7b84:	40b005b3          	neg	a1,a1
    7b88:	00a5f533          	and	a0,a1,a0
    7b8c:	01954463          	blt	a0,s9,7b94 <.LBB13_586>
    7b90:	0ff00513          	li	a0,255

0000000000007b94 <.LBB13_586>:
    7b94:	c8a43823          	sd	a0,-880(s0)
    7b98:	00001537          	lui	a0,0x1
    7b9c:	40a40533          	sub	a0,s0,a0
    7ba0:	f5053503          	ld	a0,-176(a0) # f50 <.LBB13_3+0xd38>
    7ba4:	03850533          	mul	a0,a0,s8
    7ba8:	000015b7          	lui	a1,0x1
    7bac:	40b405b3          	sub	a1,s0,a1
    7bb0:	f485b583          	ld	a1,-184(a1) # f48 <.LBB13_3+0xd30>
    7bb4:	017585b3          	add	a1,a1,s7
    7bb8:	00b50533          	add	a0,a0,a1
    7bbc:	42155513          	srai	a0,a0,0x21
    7bc0:	00a025b3          	sgtz	a1,a0
    7bc4:	40b005b3          	neg	a1,a1
    7bc8:	00a5f533          	and	a0,a1,a0
    7bcc:	01954463          	blt	a0,s9,7bd4 <.LBB13_588>
    7bd0:	0ff00513          	li	a0,255

0000000000007bd4 <.LBB13_588>:
    7bd4:	c4a43823          	sd	a0,-944(s0)
    7bd8:	00001537          	lui	a0,0x1
    7bdc:	40a40533          	sub	a0,s0,a0
    7be0:	f6053503          	ld	a0,-160(a0) # f60 <.LBB13_3+0xd48>
    7be4:	03850533          	mul	a0,a0,s8
    7be8:	000015b7          	lui	a1,0x1
    7bec:	40b405b3          	sub	a1,s0,a1
    7bf0:	f585b583          	ld	a1,-168(a1) # f58 <.LBB13_3+0xd40>
    7bf4:	017585b3          	add	a1,a1,s7
    7bf8:	00b50533          	add	a0,a0,a1
    7bfc:	42155513          	srai	a0,a0,0x21
    7c00:	00a025b3          	sgtz	a1,a0
    7c04:	40b005b3          	neg	a1,a1
    7c08:	00a5f533          	and	a0,a1,a0
    7c0c:	01954463          	blt	a0,s9,7c14 <.LBB13_590>
    7c10:	0ff00513          	li	a0,255

0000000000007c14 <.LBB13_590>:
    7c14:	c0a43823          	sd	a0,-1008(s0)
    7c18:	00001537          	lui	a0,0x1
    7c1c:	40a40533          	sub	a0,s0,a0
    7c20:	f7053503          	ld	a0,-144(a0) # f70 <.LBB13_3+0xd58>
    7c24:	03850533          	mul	a0,a0,s8
    7c28:	000015b7          	lui	a1,0x1
    7c2c:	40b405b3          	sub	a1,s0,a1
    7c30:	f685b583          	ld	a1,-152(a1) # f68 <.LBB13_3+0xd50>
    7c34:	017585b3          	add	a1,a1,s7
    7c38:	00b50533          	add	a0,a0,a1
    7c3c:	42155513          	srai	a0,a0,0x21
    7c40:	00a025b3          	sgtz	a1,a0
    7c44:	40b005b3          	neg	a1,a1
    7c48:	00a5f533          	and	a0,a1,a0
    7c4c:	01954463          	blt	a0,s9,7c54 <.LBB13_592>
    7c50:	0ff00513          	li	a0,255

0000000000007c54 <.LBB13_592>:
    7c54:	c0a43423          	sd	a0,-1016(s0)
    7c58:	00001537          	lui	a0,0x1
    7c5c:	40a40533          	sub	a0,s0,a0
    7c60:	f8053503          	ld	a0,-128(a0) # f80 <.LBB13_3+0xd68>
    7c64:	03850533          	mul	a0,a0,s8
    7c68:	000015b7          	lui	a1,0x1
    7c6c:	40b405b3          	sub	a1,s0,a1
    7c70:	f785b583          	ld	a1,-136(a1) # f78 <.LBB13_3+0xd60>
    7c74:	017585b3          	add	a1,a1,s7
    7c78:	00b50533          	add	a0,a0,a1
    7c7c:	42155513          	srai	a0,a0,0x21
    7c80:	00a025b3          	sgtz	a1,a0
    7c84:	40b005b3          	neg	a1,a1
    7c88:	00a5f533          	and	a0,a1,a0
    7c8c:	01954463          	blt	a0,s9,7c94 <.LBB13_594>
    7c90:	0ff00513          	li	a0,255

0000000000007c94 <.LBB13_594>:
    7c94:	b8a43423          	sd	a0,-1144(s0)
    7c98:	00001537          	lui	a0,0x1
    7c9c:	40a40533          	sub	a0,s0,a0
    7ca0:	f9053503          	ld	a0,-112(a0) # f90 <.LBB13_3+0xd78>
    7ca4:	03850533          	mul	a0,a0,s8
    7ca8:	000015b7          	lui	a1,0x1
    7cac:	40b405b3          	sub	a1,s0,a1
    7cb0:	f885b583          	ld	a1,-120(a1) # f88 <.LBB13_3+0xd70>
    7cb4:	017585b3          	add	a1,a1,s7
    7cb8:	00b50533          	add	a0,a0,a1
    7cbc:	42155513          	srai	a0,a0,0x21
    7cc0:	00a025b3          	sgtz	a1,a0
    7cc4:	40b005b3          	neg	a1,a1
    7cc8:	00a5f533          	and	a0,a1,a0
    7ccc:	01954463          	blt	a0,s9,7cd4 <.LBB13_596>
    7cd0:	0ff00513          	li	a0,255

0000000000007cd4 <.LBB13_596>:
    7cd4:	b4a43423          	sd	a0,-1208(s0)
    7cd8:	00001537          	lui	a0,0x1
    7cdc:	40a40533          	sub	a0,s0,a0
    7ce0:	fa053503          	ld	a0,-96(a0) # fa0 <.LBB13_3+0xd88>
    7ce4:	03850533          	mul	a0,a0,s8
    7ce8:	000015b7          	lui	a1,0x1
    7cec:	40b405b3          	sub	a1,s0,a1
    7cf0:	f985b583          	ld	a1,-104(a1) # f98 <.LBB13_3+0xd80>
    7cf4:	017585b3          	add	a1,a1,s7
    7cf8:	00b50533          	add	a0,a0,a1
    7cfc:	42155513          	srai	a0,a0,0x21
    7d00:	00a025b3          	sgtz	a1,a0
    7d04:	40b005b3          	neg	a1,a1
    7d08:	00a5f533          	and	a0,a1,a0
    7d0c:	01954463          	blt	a0,s9,7d14 <.LBB13_598>
    7d10:	0ff00513          	li	a0,255

0000000000007d14 <.LBB13_598>:
    7d14:	b0a43023          	sd	a0,-1280(s0)
    7d18:	00001537          	lui	a0,0x1
    7d1c:	40a40533          	sub	a0,s0,a0
    7d20:	fb053503          	ld	a0,-80(a0) # fb0 <.LBB13_3+0xd98>
    7d24:	03850533          	mul	a0,a0,s8
    7d28:	000015b7          	lui	a1,0x1
    7d2c:	40b405b3          	sub	a1,s0,a1
    7d30:	fa85b583          	ld	a1,-88(a1) # fa8 <.LBB13_3+0xd90>
    7d34:	017585b3          	add	a1,a1,s7
    7d38:	00b50533          	add	a0,a0,a1
    7d3c:	42155513          	srai	a0,a0,0x21
    7d40:	00a025b3          	sgtz	a1,a0
    7d44:	40b005b3          	neg	a1,a1
    7d48:	00a5f533          	and	a0,a1,a0
    7d4c:	01954463          	blt	a0,s9,7d54 <.LBB13_600>
    7d50:	0ff00513          	li	a0,255

0000000000007d54 <.LBB13_600>:
    7d54:	aca43023          	sd	a0,-1344(s0)
    7d58:	00001537          	lui	a0,0x1
    7d5c:	40a40533          	sub	a0,s0,a0
    7d60:	fc053503          	ld	a0,-64(a0) # fc0 <.LBB13_3+0xda8>
    7d64:	03850533          	mul	a0,a0,s8
    7d68:	000015b7          	lui	a1,0x1
    7d6c:	40b405b3          	sub	a1,s0,a1
    7d70:	fb85b583          	ld	a1,-72(a1) # fb8 <.LBB13_3+0xda0>
    7d74:	017585b3          	add	a1,a1,s7
    7d78:	00b50533          	add	a0,a0,a1
    7d7c:	42155513          	srai	a0,a0,0x21
    7d80:	00a025b3          	sgtz	a1,a0
    7d84:	40b005b3          	neg	a1,a1
    7d88:	00a5f533          	and	a0,a1,a0
    7d8c:	01954463          	blt	a0,s9,7d94 <.LBB13_602>
    7d90:	0ff00513          	li	a0,255

0000000000007d94 <.LBB13_602>:
    7d94:	a8a43023          	sd	a0,-1408(s0)
    7d98:	00001537          	lui	a0,0x1
    7d9c:	40a40533          	sub	a0,s0,a0
    7da0:	fd053503          	ld	a0,-48(a0) # fd0 <.LBB13_3+0xdb8>
    7da4:	03850533          	mul	a0,a0,s8
    7da8:	000015b7          	lui	a1,0x1
    7dac:	40b405b3          	sub	a1,s0,a1
    7db0:	fc85b583          	ld	a1,-56(a1) # fc8 <.LBB13_3+0xdb0>
    7db4:	017585b3          	add	a1,a1,s7
    7db8:	00b50533          	add	a0,a0,a1
    7dbc:	42155513          	srai	a0,a0,0x21
    7dc0:	00a025b3          	sgtz	a1,a0
    7dc4:	40b005b3          	neg	a1,a1
    7dc8:	00a5f533          	and	a0,a1,a0
    7dcc:	01954463          	blt	a0,s9,7dd4 <.LBB13_604>
    7dd0:	0ff00513          	li	a0,255

0000000000007dd4 <.LBB13_604>:
    7dd4:	a2a43c23          	sd	a0,-1480(s0)
    7dd8:	00001537          	lui	a0,0x1
    7ddc:	40a40533          	sub	a0,s0,a0
    7de0:	fe053503          	ld	a0,-32(a0) # fe0 <.LBB13_3+0xdc8>
    7de4:	03850533          	mul	a0,a0,s8
    7de8:	000015b7          	lui	a1,0x1
    7dec:	40b405b3          	sub	a1,s0,a1
    7df0:	fd85b583          	ld	a1,-40(a1) # fd8 <.LBB13_3+0xdc0>
    7df4:	017585b3          	add	a1,a1,s7
    7df8:	00b50533          	add	a0,a0,a1
    7dfc:	42155513          	srai	a0,a0,0x21
    7e00:	00a025b3          	sgtz	a1,a0
    7e04:	40b005b3          	neg	a1,a1
    7e08:	00a5f533          	and	a0,a1,a0
    7e0c:	01954463          	blt	a0,s9,7e14 <.LBB13_606>
    7e10:	0ff00513          	li	a0,255

0000000000007e14 <.LBB13_606>:
    7e14:	9ea43c23          	sd	a0,-1544(s0)
    7e18:	00001537          	lui	a0,0x1
    7e1c:	40a40533          	sub	a0,s0,a0
    7e20:	ff053503          	ld	a0,-16(a0) # ff0 <.LBB13_3+0xdd8>
    7e24:	03850533          	mul	a0,a0,s8
    7e28:	000015b7          	lui	a1,0x1
    7e2c:	40b405b3          	sub	a1,s0,a1
    7e30:	fe85b583          	ld	a1,-24(a1) # fe8 <.LBB13_3+0xdd0>
    7e34:	017585b3          	add	a1,a1,s7
    7e38:	00b50533          	add	a0,a0,a1
    7e3c:	42155513          	srai	a0,a0,0x21
    7e40:	00a025b3          	sgtz	a1,a0
    7e44:	40b005b3          	neg	a1,a1
    7e48:	00a5f533          	and	a0,a1,a0
    7e4c:	01954463          	blt	a0,s9,7e54 <.LBB13_608>
    7e50:	0ff00513          	li	a0,255

0000000000007e54 <.LBB13_608>:
    7e54:	9aa43c23          	sd	a0,-1608(s0)
    7e58:	00001537          	lui	a0,0x1
    7e5c:	40a40533          	sub	a0,s0,a0
    7e60:	00053503          	ld	a0,0(a0) # 1000 <.LBB13_3+0xde8>
    7e64:	03850533          	mul	a0,a0,s8
    7e68:	000015b7          	lui	a1,0x1
    7e6c:	40b405b3          	sub	a1,s0,a1
    7e70:	ff85b583          	ld	a1,-8(a1) # ff8 <.LBB13_3+0xde0>
    7e74:	017585b3          	add	a1,a1,s7
    7e78:	00b50533          	add	a0,a0,a1
    7e7c:	42155513          	srai	a0,a0,0x21
    7e80:	00a025b3          	sgtz	a1,a0
    7e84:	40b005b3          	neg	a1,a1
    7e88:	00a5f533          	and	a0,a1,a0
    7e8c:	01954463          	blt	a0,s9,7e94 <.LBB13_610>
    7e90:	0ff00513          	li	a0,255

0000000000007e94 <.LBB13_610>:
    7e94:	96a43823          	sd	a0,-1680(s0)
    7e98:	00001537          	lui	a0,0x1
    7e9c:	40a40533          	sub	a0,s0,a0
    7ea0:	01053503          	ld	a0,16(a0) # 1010 <.LBB13_3+0xdf8>
    7ea4:	03850533          	mul	a0,a0,s8
    7ea8:	000015b7          	lui	a1,0x1
    7eac:	40b405b3          	sub	a1,s0,a1
    7eb0:	0085b583          	ld	a1,8(a1) # 1008 <.LBB13_3+0xdf0>
    7eb4:	017585b3          	add	a1,a1,s7
    7eb8:	00b50533          	add	a0,a0,a1
    7ebc:	42155513          	srai	a0,a0,0x21
    7ec0:	00a025b3          	sgtz	a1,a0
    7ec4:	40b005b3          	neg	a1,a1
    7ec8:	00a5f533          	and	a0,a1,a0
    7ecc:	01954463          	blt	a0,s9,7ed4 <.LBB13_612>
    7ed0:	0ff00513          	li	a0,255

0000000000007ed4 <.LBB13_612>:
    7ed4:	92a43823          	sd	a0,-1744(s0)
    7ed8:	00001537          	lui	a0,0x1
    7edc:	40a40533          	sub	a0,s0,a0
    7ee0:	02053503          	ld	a0,32(a0) # 1020 <.LBB13_3+0xe08>
    7ee4:	03850533          	mul	a0,a0,s8
    7ee8:	000015b7          	lui	a1,0x1
    7eec:	40b405b3          	sub	a1,s0,a1
    7ef0:	0185b583          	ld	a1,24(a1) # 1018 <.LBB13_3+0xe00>
    7ef4:	017585b3          	add	a1,a1,s7
    7ef8:	00b50533          	add	a0,a0,a1
    7efc:	42155513          	srai	a0,a0,0x21
    7f00:	00a025b3          	sgtz	a1,a0
    7f04:	40b005b3          	neg	a1,a1
    7f08:	00a5f533          	and	a0,a1,a0
    7f0c:	01954463          	blt	a0,s9,7f14 <.LBB13_614>
    7f10:	0ff00513          	li	a0,255

0000000000007f14 <.LBB13_614>:
    7f14:	8ea43823          	sd	a0,-1808(s0)
    7f18:	00001537          	lui	a0,0x1
    7f1c:	40a40533          	sub	a0,s0,a0
    7f20:	03053503          	ld	a0,48(a0) # 1030 <.LBB13_3+0xe18>
    7f24:	03850533          	mul	a0,a0,s8
    7f28:	000015b7          	lui	a1,0x1
    7f2c:	40b405b3          	sub	a1,s0,a1
    7f30:	0285b583          	ld	a1,40(a1) # 1028 <.LBB13_3+0xe10>
    7f34:	017585b3          	add	a1,a1,s7
    7f38:	00b50533          	add	a0,a0,a1
    7f3c:	42155513          	srai	a0,a0,0x21
    7f40:	00a025b3          	sgtz	a1,a0
    7f44:	40b005b3          	neg	a1,a1
    7f48:	00a5f533          	and	a0,a1,a0
    7f4c:	01954463          	blt	a0,s9,7f54 <.LBB13_616>
    7f50:	0ff00513          	li	a0,255

0000000000007f54 <.LBB13_616>:
    7f54:	8aa43423          	sd	a0,-1880(s0)
    7f58:	86843503          	ld	a0,-1944(s0)
    7f5c:	03850533          	mul	a0,a0,s8
    7f60:	000015b7          	lui	a1,0x1
    7f64:	40b405b3          	sub	a1,s0,a1
    7f68:	0385b583          	ld	a1,56(a1) # 1038 <.LBB13_3+0xe20>
    7f6c:	017585b3          	add	a1,a1,s7
    7f70:	00b50533          	add	a0,a0,a1
    7f74:	42155513          	srai	a0,a0,0x21
    7f78:	00a025b3          	sgtz	a1,a0
    7f7c:	40b005b3          	neg	a1,a1
    7f80:	00a5f533          	and	a0,a1,a0
    7f84:	01954463          	blt	a0,s9,7f8c <.LBB13_618>
    7f88:	0ff00513          	li	a0,255

0000000000007f8c <.LBB13_618>:
    7f8c:	86a43423          	sd	a0,-1944(s0)
    7f90:	00001537          	lui	a0,0x1
    7f94:	40a40533          	sub	a0,s0,a0
    7f98:	04853503          	ld	a0,72(a0) # 1048 <.LBB13_3+0xe30>
    7f9c:	03850533          	mul	a0,a0,s8
    7fa0:	000015b7          	lui	a1,0x1
    7fa4:	40b405b3          	sub	a1,s0,a1
    7fa8:	0405b583          	ld	a1,64(a1) # 1040 <.LBB13_3+0xe28>
    7fac:	017585b3          	add	a1,a1,s7
    7fb0:	00b50533          	add	a0,a0,a1
    7fb4:	42155513          	srai	a0,a0,0x21
    7fb8:	00a025b3          	sgtz	a1,a0
    7fbc:	40b005b3          	neg	a1,a1
    7fc0:	00a5f533          	and	a0,a1,a0
    7fc4:	01954463          	blt	a0,s9,7fcc <.LBB13_620>
    7fc8:	0ff00513          	li	a0,255

0000000000007fcc <.LBB13_620>:
    7fcc:	84a43023          	sd	a0,-1984(s0)
    7fd0:	00001537          	lui	a0,0x1
    7fd4:	40a40533          	sub	a0,s0,a0
    7fd8:	05853503          	ld	a0,88(a0) # 1058 <.LBB13_3+0xe40>
    7fdc:	03850533          	mul	a0,a0,s8
    7fe0:	000015b7          	lui	a1,0x1
    7fe4:	40b405b3          	sub	a1,s0,a1
    7fe8:	0505b583          	ld	a1,80(a1) # 1050 <.LBB13_3+0xe38>
    7fec:	017585b3          	add	a1,a1,s7
    7ff0:	00b50533          	add	a0,a0,a1
    7ff4:	42155513          	srai	a0,a0,0x21
    7ff8:	00a025b3          	sgtz	a1,a0
    7ffc:	40b005b3          	neg	a1,a1
    8000:	00a5f533          	and	a0,a1,a0
    8004:	01954463          	blt	a0,s9,800c <.LBB13_622>
    8008:	0ff00513          	li	a0,255

000000000000800c <.LBB13_622>:
    800c:	80a43023          	sd	a0,-2048(s0)
    8010:	00001537          	lui	a0,0x1
    8014:	40a40533          	sub	a0,s0,a0
    8018:	7a053503          	ld	a0,1952(a0) # 17a0 <.LBB13_5+0xf4>
    801c:	03850533          	mul	a0,a0,s8
    8020:	000015b7          	lui	a1,0x1
    8024:	40b405b3          	sub	a1,s0,a1
    8028:	0605b583          	ld	a1,96(a1) # 1060 <.LBB13_3+0xe48>
    802c:	017585b3          	add	a1,a1,s7
    8030:	00b50533          	add	a0,a0,a1
    8034:	42155513          	srai	a0,a0,0x21
    8038:	00a025b3          	sgtz	a1,a0
    803c:	40b005b3          	neg	a1,a1
    8040:	00a5f533          	and	a0,a1,a0
    8044:	01954463          	blt	a0,s9,804c <.LBB13_624>
    8048:	0ff00513          	li	a0,255

000000000000804c <.LBB13_624>:
    804c:	000015b7          	lui	a1,0x1
    8050:	40b405b3          	sub	a1,s0,a1
    8054:	7aa5b023          	sd	a0,1952(a1) # 17a0 <.LBB13_5+0xf4>
    8058:	00001537          	lui	a0,0x1
    805c:	40a40533          	sub	a0,s0,a0
    8060:	07053503          	ld	a0,112(a0) # 1070 <.LBB13_3+0xe58>
    8064:	03850533          	mul	a0,a0,s8
    8068:	000015b7          	lui	a1,0x1
    806c:	40b405b3          	sub	a1,s0,a1
    8070:	0685b583          	ld	a1,104(a1) # 1068 <.LBB13_3+0xe50>
    8074:	017585b3          	add	a1,a1,s7
    8078:	00b50533          	add	a0,a0,a1
    807c:	42155513          	srai	a0,a0,0x21
    8080:	00a025b3          	sgtz	a1,a0
    8084:	40b005b3          	neg	a1,a1
    8088:	00a5f533          	and	a0,a1,a0
    808c:	01954463          	blt	a0,s9,8094 <.LBB13_626>
    8090:	0ff00513          	li	a0,255

0000000000008094 <.LBB13_626>:
    8094:	000015b7          	lui	a1,0x1
    8098:	40b405b3          	sub	a1,s0,a1
    809c:	76a5b423          	sd	a0,1896(a1) # 1768 <.LBB13_5+0xbc>
    80a0:	00001537          	lui	a0,0x1
    80a4:	40a40533          	sub	a0,s0,a0
    80a8:	08053503          	ld	a0,128(a0) # 1080 <.LBB13_3+0xe68>
    80ac:	03850533          	mul	a0,a0,s8
    80b0:	000015b7          	lui	a1,0x1
    80b4:	40b405b3          	sub	a1,s0,a1
    80b8:	0785b583          	ld	a1,120(a1) # 1078 <.LBB13_3+0xe60>
    80bc:	017585b3          	add	a1,a1,s7
    80c0:	00b50533          	add	a0,a0,a1
    80c4:	42155513          	srai	a0,a0,0x21
    80c8:	00a025b3          	sgtz	a1,a0
    80cc:	40b005b3          	neg	a1,a1
    80d0:	00a5f533          	and	a0,a1,a0
    80d4:	01954463          	blt	a0,s9,80dc <.LBB13_628>
    80d8:	0ff00513          	li	a0,255

00000000000080dc <.LBB13_628>:
    80dc:	000015b7          	lui	a1,0x1
    80e0:	40b405b3          	sub	a1,s0,a1
    80e4:	76a5b023          	sd	a0,1888(a1) # 1760 <.LBB13_5+0xb4>
    80e8:	00001537          	lui	a0,0x1
    80ec:	40a40533          	sub	a0,s0,a0
    80f0:	09053503          	ld	a0,144(a0) # 1090 <.LBB13_3+0xe78>
    80f4:	03850533          	mul	a0,a0,s8
    80f8:	000015b7          	lui	a1,0x1
    80fc:	40b405b3          	sub	a1,s0,a1
    8100:	0885b583          	ld	a1,136(a1) # 1088 <.LBB13_3+0xe70>
    8104:	017585b3          	add	a1,a1,s7
    8108:	00b50533          	add	a0,a0,a1
    810c:	42155513          	srai	a0,a0,0x21
    8110:	00a025b3          	sgtz	a1,a0
    8114:	40b005b3          	neg	a1,a1
    8118:	00a5f533          	and	a0,a1,a0
    811c:	01954463          	blt	a0,s9,8124 <.LBB13_630>
    8120:	0ff00513          	li	a0,255

0000000000008124 <.LBB13_630>:
    8124:	000015b7          	lui	a1,0x1
    8128:	40b405b3          	sub	a1,s0,a1
    812c:	74a5bc23          	sd	a0,1880(a1) # 1758 <.LBB13_5+0xac>
    8130:	00001537          	lui	a0,0x1
    8134:	40a40533          	sub	a0,s0,a0
    8138:	0a053503          	ld	a0,160(a0) # 10a0 <.LBB13_3+0xe88>
    813c:	03850533          	mul	a0,a0,s8
    8140:	000015b7          	lui	a1,0x1
    8144:	40b405b3          	sub	a1,s0,a1
    8148:	0985b583          	ld	a1,152(a1) # 1098 <.LBB13_3+0xe80>
    814c:	017585b3          	add	a1,a1,s7
    8150:	00b50533          	add	a0,a0,a1
    8154:	42155513          	srai	a0,a0,0x21
    8158:	00a025b3          	sgtz	a1,a0
    815c:	40b005b3          	neg	a1,a1
    8160:	00a5f533          	and	a0,a1,a0
    8164:	01954463          	blt	a0,s9,816c <.LBB13_632>
    8168:	0ff00513          	li	a0,255

000000000000816c <.LBB13_632>:
    816c:	000015b7          	lui	a1,0x1
    8170:	40b405b3          	sub	a1,s0,a1
    8174:	74a5b823          	sd	a0,1872(a1) # 1750 <.LBB13_5+0xa4>
    8178:	00001537          	lui	a0,0x1
    817c:	40a40533          	sub	a0,s0,a0
    8180:	0b053503          	ld	a0,176(a0) # 10b0 <.LBB13_3+0xe98>
    8184:	03850533          	mul	a0,a0,s8
    8188:	000015b7          	lui	a1,0x1
    818c:	40b405b3          	sub	a1,s0,a1
    8190:	0a85b583          	ld	a1,168(a1) # 10a8 <.LBB13_3+0xe90>
    8194:	017585b3          	add	a1,a1,s7
    8198:	00b50533          	add	a0,a0,a1
    819c:	42155513          	srai	a0,a0,0x21
    81a0:	00a025b3          	sgtz	a1,a0
    81a4:	40b005b3          	neg	a1,a1
    81a8:	00a5f533          	and	a0,a1,a0
    81ac:	01954463          	blt	a0,s9,81b4 <.LBB13_634>
    81b0:	0ff00513          	li	a0,255

00000000000081b4 <.LBB13_634>:
    81b4:	000015b7          	lui	a1,0x1
    81b8:	40b405b3          	sub	a1,s0,a1
    81bc:	74a5b423          	sd	a0,1864(a1) # 1748 <.LBB13_5+0x9c>
    81c0:	00001537          	lui	a0,0x1
    81c4:	40a40533          	sub	a0,s0,a0
    81c8:	0c053503          	ld	a0,192(a0) # 10c0 <.LBB13_3+0xea8>
    81cc:	03850533          	mul	a0,a0,s8
    81d0:	000015b7          	lui	a1,0x1
    81d4:	40b405b3          	sub	a1,s0,a1
    81d8:	0b85b583          	ld	a1,184(a1) # 10b8 <.LBB13_3+0xea0>
    81dc:	017585b3          	add	a1,a1,s7
    81e0:	00b50533          	add	a0,a0,a1
    81e4:	42155513          	srai	a0,a0,0x21
    81e8:	00a025b3          	sgtz	a1,a0
    81ec:	40b005b3          	neg	a1,a1
    81f0:	00a5f533          	and	a0,a1,a0
    81f4:	01954463          	blt	a0,s9,81fc <.LBB13_636>
    81f8:	0ff00513          	li	a0,255

00000000000081fc <.LBB13_636>:
    81fc:	000015b7          	lui	a1,0x1
    8200:	40b405b3          	sub	a1,s0,a1
    8204:	74a5b023          	sd	a0,1856(a1) # 1740 <.LBB13_5+0x94>
    8208:	00001537          	lui	a0,0x1
    820c:	40a40533          	sub	a0,s0,a0
    8210:	0d053503          	ld	a0,208(a0) # 10d0 <.LBB13_3+0xeb8>
    8214:	03850533          	mul	a0,a0,s8
    8218:	000015b7          	lui	a1,0x1
    821c:	40b405b3          	sub	a1,s0,a1
    8220:	0c85b583          	ld	a1,200(a1) # 10c8 <.LBB13_3+0xeb0>
    8224:	017585b3          	add	a1,a1,s7
    8228:	00b50533          	add	a0,a0,a1
    822c:	42155513          	srai	a0,a0,0x21
    8230:	00a025b3          	sgtz	a1,a0
    8234:	40b005b3          	neg	a1,a1
    8238:	00a5f533          	and	a0,a1,a0
    823c:	01954463          	blt	a0,s9,8244 <.LBB13_638>
    8240:	0ff00513          	li	a0,255

0000000000008244 <.LBB13_638>:
    8244:	000015b7          	lui	a1,0x1
    8248:	40b405b3          	sub	a1,s0,a1
    824c:	72a5bc23          	sd	a0,1848(a1) # 1738 <.LBB13_5+0x8c>
    8250:	00001537          	lui	a0,0x1
    8254:	40a40533          	sub	a0,s0,a0
    8258:	0e053503          	ld	a0,224(a0) # 10e0 <.LBB13_3+0xec8>
    825c:	03850533          	mul	a0,a0,s8
    8260:	000015b7          	lui	a1,0x1
    8264:	40b405b3          	sub	a1,s0,a1
    8268:	0d85b583          	ld	a1,216(a1) # 10d8 <.LBB13_3+0xec0>
    826c:	017585b3          	add	a1,a1,s7
    8270:	00b50533          	add	a0,a0,a1
    8274:	42155513          	srai	a0,a0,0x21
    8278:	00a025b3          	sgtz	a1,a0
    827c:	40b005b3          	neg	a1,a1
    8280:	00a5f533          	and	a0,a1,a0
    8284:	01954463          	blt	a0,s9,828c <.LBB13_640>
    8288:	0ff00513          	li	a0,255

000000000000828c <.LBB13_640>:
    828c:	000015b7          	lui	a1,0x1
    8290:	40b405b3          	sub	a1,s0,a1
    8294:	72a5b823          	sd	a0,1840(a1) # 1730 <.LBB13_5+0x84>
    8298:	00001537          	lui	a0,0x1
    829c:	40a40533          	sub	a0,s0,a0
    82a0:	0f053503          	ld	a0,240(a0) # 10f0 <.LBB13_3+0xed8>
    82a4:	03850533          	mul	a0,a0,s8
    82a8:	000015b7          	lui	a1,0x1
    82ac:	40b405b3          	sub	a1,s0,a1
    82b0:	0e85b583          	ld	a1,232(a1) # 10e8 <.LBB13_3+0xed0>
    82b4:	017585b3          	add	a1,a1,s7
    82b8:	00b50533          	add	a0,a0,a1
    82bc:	42155513          	srai	a0,a0,0x21
    82c0:	00a025b3          	sgtz	a1,a0
    82c4:	40b005b3          	neg	a1,a1
    82c8:	00a5f533          	and	a0,a1,a0
    82cc:	01954463          	blt	a0,s9,82d4 <.LBB13_642>
    82d0:	0ff00513          	li	a0,255

00000000000082d4 <.LBB13_642>:
    82d4:	000015b7          	lui	a1,0x1
    82d8:	40b405b3          	sub	a1,s0,a1
    82dc:	72a5b423          	sd	a0,1832(a1) # 1728 <.LBB13_5+0x7c>
    82e0:	00001537          	lui	a0,0x1
    82e4:	40a40533          	sub	a0,s0,a0
    82e8:	10053503          	ld	a0,256(a0) # 1100 <.LBB13_3+0xee8>
    82ec:	03850533          	mul	a0,a0,s8
    82f0:	000015b7          	lui	a1,0x1
    82f4:	40b405b3          	sub	a1,s0,a1
    82f8:	0f85b583          	ld	a1,248(a1) # 10f8 <.LBB13_3+0xee0>
    82fc:	017585b3          	add	a1,a1,s7
    8300:	00b50533          	add	a0,a0,a1
    8304:	42155513          	srai	a0,a0,0x21
    8308:	00a025b3          	sgtz	a1,a0
    830c:	40b005b3          	neg	a1,a1
    8310:	00a5f533          	and	a0,a1,a0
    8314:	01954463          	blt	a0,s9,831c <.LBB13_644>
    8318:	0ff00513          	li	a0,255

000000000000831c <.LBB13_644>:
    831c:	000015b7          	lui	a1,0x1
    8320:	40b405b3          	sub	a1,s0,a1
    8324:	72a5b023          	sd	a0,1824(a1) # 1720 <.LBB13_5+0x74>
    8328:	00001537          	lui	a0,0x1
    832c:	40a40533          	sub	a0,s0,a0
    8330:	11053503          	ld	a0,272(a0) # 1110 <.LBB13_3+0xef8>
    8334:	03850533          	mul	a0,a0,s8
    8338:	000015b7          	lui	a1,0x1
    833c:	40b405b3          	sub	a1,s0,a1
    8340:	1085b583          	ld	a1,264(a1) # 1108 <.LBB13_3+0xef0>
    8344:	017585b3          	add	a1,a1,s7
    8348:	00b50533          	add	a0,a0,a1
    834c:	42155513          	srai	a0,a0,0x21
    8350:	00a025b3          	sgtz	a1,a0
    8354:	40b005b3          	neg	a1,a1
    8358:	00a5f533          	and	a0,a1,a0
    835c:	01954463          	blt	a0,s9,8364 <.LBB13_646>
    8360:	0ff00513          	li	a0,255

0000000000008364 <.LBB13_646>:
    8364:	000015b7          	lui	a1,0x1
    8368:	40b405b3          	sub	a1,s0,a1
    836c:	6ea5bc23          	sd	a0,1784(a1) # 16f8 <.LBB13_5+0x4c>
    8370:	00001537          	lui	a0,0x1
    8374:	40a40533          	sub	a0,s0,a0
    8378:	12053503          	ld	a0,288(a0) # 1120 <.LBB13_3+0xf08>
    837c:	03850533          	mul	a0,a0,s8
    8380:	000015b7          	lui	a1,0x1
    8384:	40b405b3          	sub	a1,s0,a1
    8388:	1185b583          	ld	a1,280(a1) # 1118 <.LBB13_3+0xf00>
    838c:	017585b3          	add	a1,a1,s7
    8390:	00b50533          	add	a0,a0,a1
    8394:	42155513          	srai	a0,a0,0x21
    8398:	00a025b3          	sgtz	a1,a0
    839c:	40b005b3          	neg	a1,a1
    83a0:	00a5f533          	and	a0,a1,a0
    83a4:	01954463          	blt	a0,s9,83ac <.LBB13_648>
    83a8:	0ff00513          	li	a0,255

00000000000083ac <.LBB13_648>:
    83ac:	000015b7          	lui	a1,0x1
    83b0:	40b405b3          	sub	a1,s0,a1
    83b4:	6ea5b823          	sd	a0,1776(a1) # 16f0 <.LBB13_5+0x44>
    83b8:	00001537          	lui	a0,0x1
    83bc:	40a40533          	sub	a0,s0,a0
    83c0:	13053503          	ld	a0,304(a0) # 1130 <.LBB13_3+0xf18>
    83c4:	03850533          	mul	a0,a0,s8
    83c8:	000015b7          	lui	a1,0x1
    83cc:	40b405b3          	sub	a1,s0,a1
    83d0:	1285b583          	ld	a1,296(a1) # 1128 <.LBB13_3+0xf10>
    83d4:	017585b3          	add	a1,a1,s7
    83d8:	00b50533          	add	a0,a0,a1
    83dc:	42155513          	srai	a0,a0,0x21
    83e0:	00a025b3          	sgtz	a1,a0
    83e4:	40b005b3          	neg	a1,a1
    83e8:	00a5f533          	and	a0,a1,a0
    83ec:	01954463          	blt	a0,s9,83f4 <.LBB13_650>
    83f0:	0ff00513          	li	a0,255

00000000000083f4 <.LBB13_650>:
    83f4:	000015b7          	lui	a1,0x1
    83f8:	40b405b3          	sub	a1,s0,a1
    83fc:	6ea5b423          	sd	a0,1768(a1) # 16e8 <.LBB13_5+0x3c>
    8400:	00001537          	lui	a0,0x1
    8404:	40a40533          	sub	a0,s0,a0
    8408:	14053503          	ld	a0,320(a0) # 1140 <.LBB13_3+0xf28>
    840c:	03850533          	mul	a0,a0,s8
    8410:	000015b7          	lui	a1,0x1
    8414:	40b405b3          	sub	a1,s0,a1
    8418:	1385b583          	ld	a1,312(a1) # 1138 <.LBB13_3+0xf20>
    841c:	017585b3          	add	a1,a1,s7
    8420:	00b50533          	add	a0,a0,a1
    8424:	42155513          	srai	a0,a0,0x21
    8428:	00a025b3          	sgtz	a1,a0
    842c:	40b005b3          	neg	a1,a1
    8430:	00a5f533          	and	a0,a1,a0
    8434:	01954463          	blt	a0,s9,843c <.LBB13_652>
    8438:	0ff00513          	li	a0,255

000000000000843c <.LBB13_652>:
    843c:	000015b7          	lui	a1,0x1
    8440:	40b405b3          	sub	a1,s0,a1
    8444:	6ea5b023          	sd	a0,1760(a1) # 16e0 <.LBB13_5+0x34>
    8448:	00001537          	lui	a0,0x1
    844c:	40a40533          	sub	a0,s0,a0
    8450:	15053503          	ld	a0,336(a0) # 1150 <.LBB13_3+0xf38>
    8454:	03850533          	mul	a0,a0,s8
    8458:	000015b7          	lui	a1,0x1
    845c:	40b405b3          	sub	a1,s0,a1
    8460:	1485b583          	ld	a1,328(a1) # 1148 <.LBB13_3+0xf30>
    8464:	017585b3          	add	a1,a1,s7
    8468:	00b50533          	add	a0,a0,a1
    846c:	42155513          	srai	a0,a0,0x21
    8470:	00a025b3          	sgtz	a1,a0
    8474:	40b005b3          	neg	a1,a1
    8478:	00a5f533          	and	a0,a1,a0
    847c:	01954463          	blt	a0,s9,8484 <.LBB13_654>
    8480:	0ff00513          	li	a0,255

0000000000008484 <.LBB13_654>:
    8484:	000015b7          	lui	a1,0x1
    8488:	40b405b3          	sub	a1,s0,a1
    848c:	6ca5bc23          	sd	a0,1752(a1) # 16d8 <.LBB13_5+0x2c>
    8490:	00001537          	lui	a0,0x1
    8494:	40a40533          	sub	a0,s0,a0
    8498:	16053503          	ld	a0,352(a0) # 1160 <.LBB13_3+0xf48>
    849c:	03850533          	mul	a0,a0,s8
    84a0:	000015b7          	lui	a1,0x1
    84a4:	40b405b3          	sub	a1,s0,a1
    84a8:	1585b583          	ld	a1,344(a1) # 1158 <.LBB13_3+0xf40>
    84ac:	017585b3          	add	a1,a1,s7
    84b0:	00b50533          	add	a0,a0,a1
    84b4:	42155513          	srai	a0,a0,0x21
    84b8:	00a025b3          	sgtz	a1,a0
    84bc:	40b005b3          	neg	a1,a1
    84c0:	00a5f533          	and	a0,a1,a0
    84c4:	01954463          	blt	a0,s9,84cc <.LBB13_656>
    84c8:	0ff00513          	li	a0,255

00000000000084cc <.LBB13_656>:
    84cc:	000015b7          	lui	a1,0x1
    84d0:	40b405b3          	sub	a1,s0,a1
    84d4:	6ca5b823          	sd	a0,1744(a1) # 16d0 <.LBB13_5+0x24>
    84d8:	00001537          	lui	a0,0x1
    84dc:	40a40533          	sub	a0,s0,a0
    84e0:	17053503          	ld	a0,368(a0) # 1170 <.LBB13_3+0xf58>
    84e4:	03850533          	mul	a0,a0,s8
    84e8:	000015b7          	lui	a1,0x1
    84ec:	40b405b3          	sub	a1,s0,a1
    84f0:	1685b583          	ld	a1,360(a1) # 1168 <.LBB13_3+0xf50>
    84f4:	017585b3          	add	a1,a1,s7
    84f8:	00b50533          	add	a0,a0,a1
    84fc:	42155513          	srai	a0,a0,0x21
    8500:	00a025b3          	sgtz	a1,a0
    8504:	40b005b3          	neg	a1,a1
    8508:	00a5f533          	and	a0,a1,a0
    850c:	01954463          	blt	a0,s9,8514 <.LBB13_658>
    8510:	0ff00513          	li	a0,255

0000000000008514 <.LBB13_658>:
    8514:	000015b7          	lui	a1,0x1
    8518:	40b405b3          	sub	a1,s0,a1
    851c:	6ca5b423          	sd	a0,1736(a1) # 16c8 <.LBB13_5+0x1c>
    8520:	00001537          	lui	a0,0x1
    8524:	40a40533          	sub	a0,s0,a0
    8528:	18053503          	ld	a0,384(a0) # 1180 <.LBB13_3+0xf68>
    852c:	03850533          	mul	a0,a0,s8
    8530:	000015b7          	lui	a1,0x1
    8534:	40b405b3          	sub	a1,s0,a1
    8538:	1785b583          	ld	a1,376(a1) # 1178 <.LBB13_3+0xf60>
    853c:	017585b3          	add	a1,a1,s7
    8540:	00b50533          	add	a0,a0,a1
    8544:	42155513          	srai	a0,a0,0x21
    8548:	00a025b3          	sgtz	a1,a0
    854c:	40b005b3          	neg	a1,a1
    8550:	00a5f533          	and	a0,a1,a0
    8554:	01954463          	blt	a0,s9,855c <.LBB13_660>
    8558:	0ff00513          	li	a0,255

000000000000855c <.LBB13_660>:
    855c:	000015b7          	lui	a1,0x1
    8560:	40b405b3          	sub	a1,s0,a1
    8564:	6ca5b023          	sd	a0,1728(a1) # 16c0 <.LBB13_5+0x14>
    8568:	00001537          	lui	a0,0x1
    856c:	40a40533          	sub	a0,s0,a0
    8570:	19053503          	ld	a0,400(a0) # 1190 <.LBB13_3+0xf78>
    8574:	03850533          	mul	a0,a0,s8
    8578:	000015b7          	lui	a1,0x1
    857c:	40b405b3          	sub	a1,s0,a1
    8580:	1885b583          	ld	a1,392(a1) # 1188 <.LBB13_3+0xf70>
    8584:	017585b3          	add	a1,a1,s7
    8588:	00b50533          	add	a0,a0,a1
    858c:	42155513          	srai	a0,a0,0x21
    8590:	00a025b3          	sgtz	a1,a0
    8594:	40b005b3          	neg	a1,a1
    8598:	00a5f533          	and	a0,a1,a0
    859c:	01954463          	blt	a0,s9,85a4 <.LBB13_662>
    85a0:	0ff00513          	li	a0,255

00000000000085a4 <.LBB13_662>:
    85a4:	000015b7          	lui	a1,0x1
    85a8:	40b405b3          	sub	a1,s0,a1
    85ac:	6aa5bc23          	sd	a0,1720(a1) # 16b8 <.LBB13_5+0xc>
    85b0:	00001537          	lui	a0,0x1
    85b4:	40a40533          	sub	a0,s0,a0
    85b8:	1a053503          	ld	a0,416(a0) # 11a0 <.LBB13_4>
    85bc:	03850533          	mul	a0,a0,s8
    85c0:	000015b7          	lui	a1,0x1
    85c4:	40b405b3          	sub	a1,s0,a1
    85c8:	1985b583          	ld	a1,408(a1) # 1198 <.LBB13_3+0xf80>
    85cc:	017585b3          	add	a1,a1,s7
    85d0:	00b50533          	add	a0,a0,a1
    85d4:	42155513          	srai	a0,a0,0x21
    85d8:	00a025b3          	sgtz	a1,a0
    85dc:	40b005b3          	neg	a1,a1
    85e0:	00a5f533          	and	a0,a1,a0
    85e4:	01954463          	blt	a0,s9,85ec <.LBB13_664>
    85e8:	0ff00513          	li	a0,255

00000000000085ec <.LBB13_664>:
    85ec:	000015b7          	lui	a1,0x1
    85f0:	40b405b3          	sub	a1,s0,a1
    85f4:	6aa5b823          	sd	a0,1712(a1) # 16b0 <.LBB13_5+0x4>
    85f8:	00001537          	lui	a0,0x1
    85fc:	40a40533          	sub	a0,s0,a0
    8600:	1b053503          	ld	a0,432(a0) # 11b0 <.LBB13_4+0x10>
    8604:	03850533          	mul	a0,a0,s8
    8608:	000015b7          	lui	a1,0x1
    860c:	40b405b3          	sub	a1,s0,a1
    8610:	1a85b583          	ld	a1,424(a1) # 11a8 <.LBB13_4+0x8>
    8614:	017585b3          	add	a1,a1,s7
    8618:	00b50533          	add	a0,a0,a1
    861c:	42155513          	srai	a0,a0,0x21
    8620:	00a025b3          	sgtz	a1,a0
    8624:	40b005b3          	neg	a1,a1
    8628:	00a5f533          	and	a0,a1,a0
    862c:	01954463          	blt	a0,s9,8634 <.LBB13_666>
    8630:	0ff00513          	li	a0,255

0000000000008634 <.LBB13_666>:
    8634:	000015b7          	lui	a1,0x1
    8638:	40b405b3          	sub	a1,s0,a1
    863c:	6aa5b423          	sd	a0,1704(a1) # 16a8 <.LBB13_4+0x508>
    8640:	00001537          	lui	a0,0x1
    8644:	40a40533          	sub	a0,s0,a0
    8648:	1c053503          	ld	a0,448(a0) # 11c0 <.LBB13_4+0x20>
    864c:	03850533          	mul	a0,a0,s8
    8650:	000015b7          	lui	a1,0x1
    8654:	40b405b3          	sub	a1,s0,a1
    8658:	1b85b583          	ld	a1,440(a1) # 11b8 <.LBB13_4+0x18>
    865c:	017585b3          	add	a1,a1,s7
    8660:	00b50533          	add	a0,a0,a1
    8664:	42155513          	srai	a0,a0,0x21
    8668:	00a025b3          	sgtz	a1,a0
    866c:	40b005b3          	neg	a1,a1
    8670:	00a5f533          	and	a0,a1,a0
    8674:	01954463          	blt	a0,s9,867c <.LBB13_668>
    8678:	0ff00513          	li	a0,255

000000000000867c <.LBB13_668>:
    867c:	000015b7          	lui	a1,0x1
    8680:	40b405b3          	sub	a1,s0,a1
    8684:	6aa5b023          	sd	a0,1696(a1) # 16a0 <.LBB13_4+0x500>
    8688:	00001537          	lui	a0,0x1
    868c:	40a40533          	sub	a0,s0,a0
    8690:	1d053503          	ld	a0,464(a0) # 11d0 <.LBB13_4+0x30>
    8694:	03850533          	mul	a0,a0,s8
    8698:	000015b7          	lui	a1,0x1
    869c:	40b405b3          	sub	a1,s0,a1
    86a0:	1c85b583          	ld	a1,456(a1) # 11c8 <.LBB13_4+0x28>
    86a4:	017585b3          	add	a1,a1,s7
    86a8:	00b50533          	add	a0,a0,a1
    86ac:	42155513          	srai	a0,a0,0x21
    86b0:	00a025b3          	sgtz	a1,a0
    86b4:	40b005b3          	neg	a1,a1
    86b8:	00a5f533          	and	a0,a1,a0
    86bc:	01954463          	blt	a0,s9,86c4 <.LBB13_670>
    86c0:	0ff00513          	li	a0,255

00000000000086c4 <.LBB13_670>:
    86c4:	000015b7          	lui	a1,0x1
    86c8:	40b405b3          	sub	a1,s0,a1
    86cc:	68a5bc23          	sd	a0,1688(a1) # 1698 <.LBB13_4+0x4f8>
    86d0:	00001537          	lui	a0,0x1
    86d4:	40a40533          	sub	a0,s0,a0
    86d8:	1e053503          	ld	a0,480(a0) # 11e0 <.LBB13_4+0x40>
    86dc:	03850533          	mul	a0,a0,s8
    86e0:	000015b7          	lui	a1,0x1
    86e4:	40b405b3          	sub	a1,s0,a1
    86e8:	1d85b583          	ld	a1,472(a1) # 11d8 <.LBB13_4+0x38>
    86ec:	017585b3          	add	a1,a1,s7
    86f0:	00b50533          	add	a0,a0,a1
    86f4:	42155513          	srai	a0,a0,0x21
    86f8:	00a025b3          	sgtz	a1,a0
    86fc:	40b005b3          	neg	a1,a1
    8700:	00a5f533          	and	a0,a1,a0
    8704:	01954463          	blt	a0,s9,870c <.LBB13_672>
    8708:	0ff00513          	li	a0,255

000000000000870c <.LBB13_672>:
    870c:	000015b7          	lui	a1,0x1
    8710:	40b405b3          	sub	a1,s0,a1
    8714:	68a5b823          	sd	a0,1680(a1) # 1690 <.LBB13_4+0x4f0>
    8718:	00001537          	lui	a0,0x1
    871c:	40a40533          	sub	a0,s0,a0
    8720:	1f053503          	ld	a0,496(a0) # 11f0 <.LBB13_4+0x50>
    8724:	03850533          	mul	a0,a0,s8
    8728:	000015b7          	lui	a1,0x1
    872c:	40b405b3          	sub	a1,s0,a1
    8730:	1e85b583          	ld	a1,488(a1) # 11e8 <.LBB13_4+0x48>
    8734:	017585b3          	add	a1,a1,s7
    8738:	00b50533          	add	a0,a0,a1
    873c:	42155513          	srai	a0,a0,0x21
    8740:	00a025b3          	sgtz	a1,a0
    8744:	40b005b3          	neg	a1,a1
    8748:	00a5f533          	and	a0,a1,a0
    874c:	01954463          	blt	a0,s9,8754 <.LBB13_674>
    8750:	0ff00513          	li	a0,255

0000000000008754 <.LBB13_674>:
    8754:	000015b7          	lui	a1,0x1
    8758:	40b405b3          	sub	a1,s0,a1
    875c:	68a5b423          	sd	a0,1672(a1) # 1688 <.LBB13_4+0x4e8>
    8760:	00001537          	lui	a0,0x1
    8764:	40a40533          	sub	a0,s0,a0
    8768:	20053503          	ld	a0,512(a0) # 1200 <.LBB13_4+0x60>
    876c:	03850533          	mul	a0,a0,s8
    8770:	000015b7          	lui	a1,0x1
    8774:	40b405b3          	sub	a1,s0,a1
    8778:	1f85b583          	ld	a1,504(a1) # 11f8 <.LBB13_4+0x58>
    877c:	017585b3          	add	a1,a1,s7
    8780:	00b50533          	add	a0,a0,a1
    8784:	42155513          	srai	a0,a0,0x21
    8788:	00a025b3          	sgtz	a1,a0
    878c:	40b005b3          	neg	a1,a1
    8790:	00a5f533          	and	a0,a1,a0
    8794:	01954463          	blt	a0,s9,879c <.LBB13_676>
    8798:	0ff00513          	li	a0,255

000000000000879c <.LBB13_676>:
    879c:	000015b7          	lui	a1,0x1
    87a0:	40b405b3          	sub	a1,s0,a1
    87a4:	68a5b023          	sd	a0,1664(a1) # 1680 <.LBB13_4+0x4e0>
    87a8:	00001537          	lui	a0,0x1
    87ac:	40a40533          	sub	a0,s0,a0
    87b0:	21053503          	ld	a0,528(a0) # 1210 <.LBB13_4+0x70>
    87b4:	03850533          	mul	a0,a0,s8
    87b8:	000015b7          	lui	a1,0x1
    87bc:	40b405b3          	sub	a1,s0,a1
    87c0:	2085b583          	ld	a1,520(a1) # 1208 <.LBB13_4+0x68>
    87c4:	017585b3          	add	a1,a1,s7
    87c8:	00b50533          	add	a0,a0,a1
    87cc:	42155513          	srai	a0,a0,0x21
    87d0:	00a025b3          	sgtz	a1,a0
    87d4:	40b005b3          	neg	a1,a1
    87d8:	00a5f533          	and	a0,a1,a0
    87dc:	01954463          	blt	a0,s9,87e4 <.LBB13_678>
    87e0:	0ff00513          	li	a0,255

00000000000087e4 <.LBB13_678>:
    87e4:	000015b7          	lui	a1,0x1
    87e8:	40b405b3          	sub	a1,s0,a1
    87ec:	66a5bc23          	sd	a0,1656(a1) # 1678 <.LBB13_4+0x4d8>
    87f0:	00001537          	lui	a0,0x1
    87f4:	40a40533          	sub	a0,s0,a0
    87f8:	22053503          	ld	a0,544(a0) # 1220 <.LBB13_4+0x80>
    87fc:	03850533          	mul	a0,a0,s8
    8800:	000015b7          	lui	a1,0x1
    8804:	40b405b3          	sub	a1,s0,a1
    8808:	2185b583          	ld	a1,536(a1) # 1218 <.LBB13_4+0x78>
    880c:	017585b3          	add	a1,a1,s7
    8810:	00b50533          	add	a0,a0,a1
    8814:	42155513          	srai	a0,a0,0x21
    8818:	00a025b3          	sgtz	a1,a0
    881c:	40b005b3          	neg	a1,a1
    8820:	00a5f533          	and	a0,a1,a0
    8824:	01954463          	blt	a0,s9,882c <.LBB13_680>
    8828:	0ff00513          	li	a0,255

000000000000882c <.LBB13_680>:
    882c:	000015b7          	lui	a1,0x1
    8830:	40b405b3          	sub	a1,s0,a1
    8834:	66a5b823          	sd	a0,1648(a1) # 1670 <.LBB13_4+0x4d0>
    8838:	00001537          	lui	a0,0x1
    883c:	40a40533          	sub	a0,s0,a0
    8840:	23053503          	ld	a0,560(a0) # 1230 <.LBB13_4+0x90>
    8844:	03850533          	mul	a0,a0,s8
    8848:	000015b7          	lui	a1,0x1
    884c:	40b405b3          	sub	a1,s0,a1
    8850:	2285b583          	ld	a1,552(a1) # 1228 <.LBB13_4+0x88>
    8854:	017585b3          	add	a1,a1,s7
    8858:	00b50533          	add	a0,a0,a1
    885c:	42155513          	srai	a0,a0,0x21
    8860:	00a025b3          	sgtz	a1,a0
    8864:	40b005b3          	neg	a1,a1
    8868:	00a5f533          	and	a0,a1,a0
    886c:	01954463          	blt	a0,s9,8874 <.LBB13_682>
    8870:	0ff00513          	li	a0,255

0000000000008874 <.LBB13_682>:
    8874:	000015b7          	lui	a1,0x1
    8878:	40b405b3          	sub	a1,s0,a1
    887c:	66a5b423          	sd	a0,1640(a1) # 1668 <.LBB13_4+0x4c8>
    8880:	00001537          	lui	a0,0x1
    8884:	40a40533          	sub	a0,s0,a0
    8888:	24053503          	ld	a0,576(a0) # 1240 <.LBB13_4+0xa0>
    888c:	03850533          	mul	a0,a0,s8
    8890:	000015b7          	lui	a1,0x1
    8894:	40b405b3          	sub	a1,s0,a1
    8898:	2385b583          	ld	a1,568(a1) # 1238 <.LBB13_4+0x98>
    889c:	017585b3          	add	a1,a1,s7
    88a0:	00b50533          	add	a0,a0,a1
    88a4:	42155513          	srai	a0,a0,0x21
    88a8:	00a025b3          	sgtz	a1,a0
    88ac:	40b005b3          	neg	a1,a1
    88b0:	00a5f533          	and	a0,a1,a0
    88b4:	01954463          	blt	a0,s9,88bc <.LBB13_684>
    88b8:	0ff00513          	li	a0,255

00000000000088bc <.LBB13_684>:
    88bc:	000015b7          	lui	a1,0x1
    88c0:	40b405b3          	sub	a1,s0,a1
    88c4:	66a5b023          	sd	a0,1632(a1) # 1660 <.LBB13_4+0x4c0>
    88c8:	00001537          	lui	a0,0x1
    88cc:	40a40533          	sub	a0,s0,a0
    88d0:	25053503          	ld	a0,592(a0) # 1250 <.LBB13_4+0xb0>
    88d4:	03850533          	mul	a0,a0,s8
    88d8:	000015b7          	lui	a1,0x1
    88dc:	40b405b3          	sub	a1,s0,a1
    88e0:	2485b583          	ld	a1,584(a1) # 1248 <.LBB13_4+0xa8>
    88e4:	017585b3          	add	a1,a1,s7
    88e8:	00b50533          	add	a0,a0,a1
    88ec:	42155513          	srai	a0,a0,0x21
    88f0:	00a025b3          	sgtz	a1,a0
    88f4:	40b005b3          	neg	a1,a1
    88f8:	00a5f533          	and	a0,a1,a0
    88fc:	01954463          	blt	a0,s9,8904 <.LBB13_686>
    8900:	0ff00513          	li	a0,255

0000000000008904 <.LBB13_686>:
    8904:	000015b7          	lui	a1,0x1
    8908:	40b405b3          	sub	a1,s0,a1
    890c:	64a5bc23          	sd	a0,1624(a1) # 1658 <.LBB13_4+0x4b8>
    8910:	00001537          	lui	a0,0x1
    8914:	40a40533          	sub	a0,s0,a0
    8918:	26053503          	ld	a0,608(a0) # 1260 <.LBB13_4+0xc0>
    891c:	03850533          	mul	a0,a0,s8
    8920:	000015b7          	lui	a1,0x1
    8924:	40b405b3          	sub	a1,s0,a1
    8928:	2585b583          	ld	a1,600(a1) # 1258 <.LBB13_4+0xb8>
    892c:	017585b3          	add	a1,a1,s7
    8930:	00b50533          	add	a0,a0,a1
    8934:	42155513          	srai	a0,a0,0x21
    8938:	00a025b3          	sgtz	a1,a0
    893c:	40b005b3          	neg	a1,a1
    8940:	00a5f533          	and	a0,a1,a0
    8944:	01954463          	blt	a0,s9,894c <.LBB13_688>
    8948:	0ff00513          	li	a0,255

000000000000894c <.LBB13_688>:
    894c:	000015b7          	lui	a1,0x1
    8950:	40b405b3          	sub	a1,s0,a1
    8954:	64a5b823          	sd	a0,1616(a1) # 1650 <.LBB13_4+0x4b0>
    8958:	00001537          	lui	a0,0x1
    895c:	40a40533          	sub	a0,s0,a0
    8960:	27053503          	ld	a0,624(a0) # 1270 <.LBB13_4+0xd0>
    8964:	03850533          	mul	a0,a0,s8
    8968:	000015b7          	lui	a1,0x1
    896c:	40b405b3          	sub	a1,s0,a1
    8970:	2685b583          	ld	a1,616(a1) # 1268 <.LBB13_4+0xc8>
    8974:	017585b3          	add	a1,a1,s7
    8978:	00b50533          	add	a0,a0,a1
    897c:	42155513          	srai	a0,a0,0x21
    8980:	00a025b3          	sgtz	a1,a0
    8984:	40b005b3          	neg	a1,a1
    8988:	00a5f533          	and	a0,a1,a0
    898c:	01954463          	blt	a0,s9,8994 <.LBB13_690>
    8990:	0ff00513          	li	a0,255

0000000000008994 <.LBB13_690>:
    8994:	000015b7          	lui	a1,0x1
    8998:	40b405b3          	sub	a1,s0,a1
    899c:	64a5b423          	sd	a0,1608(a1) # 1648 <.LBB13_4+0x4a8>
    89a0:	00001537          	lui	a0,0x1
    89a4:	40a40533          	sub	a0,s0,a0
    89a8:	28053503          	ld	a0,640(a0) # 1280 <.LBB13_4+0xe0>
    89ac:	03850533          	mul	a0,a0,s8
    89b0:	000015b7          	lui	a1,0x1
    89b4:	40b405b3          	sub	a1,s0,a1
    89b8:	2785b583          	ld	a1,632(a1) # 1278 <.LBB13_4+0xd8>
    89bc:	017585b3          	add	a1,a1,s7
    89c0:	00b50533          	add	a0,a0,a1
    89c4:	42155513          	srai	a0,a0,0x21
    89c8:	00a025b3          	sgtz	a1,a0
    89cc:	40b005b3          	neg	a1,a1
    89d0:	00a5f533          	and	a0,a1,a0
    89d4:	01954463          	blt	a0,s9,89dc <.LBB13_692>
    89d8:	0ff00513          	li	a0,255

00000000000089dc <.LBB13_692>:
    89dc:	000015b7          	lui	a1,0x1
    89e0:	40b405b3          	sub	a1,s0,a1
    89e4:	64a5b023          	sd	a0,1600(a1) # 1640 <.LBB13_4+0x4a0>
    89e8:	00001537          	lui	a0,0x1
    89ec:	40a40533          	sub	a0,s0,a0
    89f0:	29053503          	ld	a0,656(a0) # 1290 <.LBB13_4+0xf0>
    89f4:	03850533          	mul	a0,a0,s8
    89f8:	000015b7          	lui	a1,0x1
    89fc:	40b405b3          	sub	a1,s0,a1
    8a00:	2885b583          	ld	a1,648(a1) # 1288 <.LBB13_4+0xe8>
    8a04:	017585b3          	add	a1,a1,s7
    8a08:	00b50533          	add	a0,a0,a1
    8a0c:	42155513          	srai	a0,a0,0x21
    8a10:	00a025b3          	sgtz	a1,a0
    8a14:	40b005b3          	neg	a1,a1
    8a18:	00a5f533          	and	a0,a1,a0
    8a1c:	01954463          	blt	a0,s9,8a24 <.LBB13_694>
    8a20:	0ff00513          	li	a0,255

0000000000008a24 <.LBB13_694>:
    8a24:	000015b7          	lui	a1,0x1
    8a28:	40b405b3          	sub	a1,s0,a1
    8a2c:	28a5b823          	sd	a0,656(a1) # 1290 <.LBB13_4+0xf0>
    8a30:	00001537          	lui	a0,0x1
    8a34:	40a40533          	sub	a0,s0,a0
    8a38:	2a053503          	ld	a0,672(a0) # 12a0 <.LBB13_4+0x100>
    8a3c:	03850533          	mul	a0,a0,s8
    8a40:	000015b7          	lui	a1,0x1
    8a44:	40b405b3          	sub	a1,s0,a1
    8a48:	2985b583          	ld	a1,664(a1) # 1298 <.LBB13_4+0xf8>
    8a4c:	017585b3          	add	a1,a1,s7
    8a50:	00b50533          	add	a0,a0,a1
    8a54:	42155513          	srai	a0,a0,0x21
    8a58:	00a025b3          	sgtz	a1,a0
    8a5c:	40b005b3          	neg	a1,a1
    8a60:	00a5f533          	and	a0,a1,a0
    8a64:	01954463          	blt	a0,s9,8a6c <.LBB13_696>
    8a68:	0ff00513          	li	a0,255

0000000000008a6c <.LBB13_696>:
    8a6c:	000015b7          	lui	a1,0x1
    8a70:	40b405b3          	sub	a1,s0,a1
    8a74:	2aa5b023          	sd	a0,672(a1) # 12a0 <.LBB13_4+0x100>
    8a78:	00001537          	lui	a0,0x1
    8a7c:	40a40533          	sub	a0,s0,a0
    8a80:	2b053503          	ld	a0,688(a0) # 12b0 <.LBB13_4+0x110>
    8a84:	03850533          	mul	a0,a0,s8
    8a88:	000015b7          	lui	a1,0x1
    8a8c:	40b405b3          	sub	a1,s0,a1
    8a90:	2a85b583          	ld	a1,680(a1) # 12a8 <.LBB13_4+0x108>
    8a94:	017585b3          	add	a1,a1,s7
    8a98:	00b50533          	add	a0,a0,a1
    8a9c:	42155513          	srai	a0,a0,0x21
    8aa0:	00a025b3          	sgtz	a1,a0
    8aa4:	40b005b3          	neg	a1,a1
    8aa8:	00a5f533          	and	a0,a1,a0
    8aac:	01954463          	blt	a0,s9,8ab4 <.LBB13_698>
    8ab0:	0ff00513          	li	a0,255

0000000000008ab4 <.LBB13_698>:
    8ab4:	000015b7          	lui	a1,0x1
    8ab8:	40b405b3          	sub	a1,s0,a1
    8abc:	2aa5b823          	sd	a0,688(a1) # 12b0 <.LBB13_4+0x110>
    8ac0:	00001537          	lui	a0,0x1
    8ac4:	40a40533          	sub	a0,s0,a0
    8ac8:	2c053503          	ld	a0,704(a0) # 12c0 <.LBB13_4+0x120>
    8acc:	03850533          	mul	a0,a0,s8
    8ad0:	000015b7          	lui	a1,0x1
    8ad4:	40b405b3          	sub	a1,s0,a1
    8ad8:	2b85b583          	ld	a1,696(a1) # 12b8 <.LBB13_4+0x118>
    8adc:	017585b3          	add	a1,a1,s7
    8ae0:	00b50533          	add	a0,a0,a1
    8ae4:	42155513          	srai	a0,a0,0x21
    8ae8:	00a025b3          	sgtz	a1,a0
    8aec:	40b005b3          	neg	a1,a1
    8af0:	00a5f533          	and	a0,a1,a0
    8af4:	01954463          	blt	a0,s9,8afc <.LBB13_700>
    8af8:	0ff00513          	li	a0,255

0000000000008afc <.LBB13_700>:
    8afc:	000015b7          	lui	a1,0x1
    8b00:	40b405b3          	sub	a1,s0,a1
    8b04:	2ca5b023          	sd	a0,704(a1) # 12c0 <.LBB13_4+0x120>
    8b08:	00001537          	lui	a0,0x1
    8b0c:	40a40533          	sub	a0,s0,a0
    8b10:	2d053503          	ld	a0,720(a0) # 12d0 <.LBB13_4+0x130>
    8b14:	03850533          	mul	a0,a0,s8
    8b18:	000015b7          	lui	a1,0x1
    8b1c:	40b405b3          	sub	a1,s0,a1
    8b20:	2c85b583          	ld	a1,712(a1) # 12c8 <.LBB13_4+0x128>
    8b24:	017585b3          	add	a1,a1,s7
    8b28:	00b50533          	add	a0,a0,a1
    8b2c:	42155513          	srai	a0,a0,0x21
    8b30:	00a025b3          	sgtz	a1,a0
    8b34:	40b005b3          	neg	a1,a1
    8b38:	00a5f533          	and	a0,a1,a0
    8b3c:	01954463          	blt	a0,s9,8b44 <.LBB13_702>
    8b40:	0ff00513          	li	a0,255

0000000000008b44 <.LBB13_702>:
    8b44:	000015b7          	lui	a1,0x1
    8b48:	40b405b3          	sub	a1,s0,a1
    8b4c:	2ca5b823          	sd	a0,720(a1) # 12d0 <.LBB13_4+0x130>
    8b50:	00001537          	lui	a0,0x1
    8b54:	40a40533          	sub	a0,s0,a0
    8b58:	2e053503          	ld	a0,736(a0) # 12e0 <.LBB13_4+0x140>
    8b5c:	03850533          	mul	a0,a0,s8
    8b60:	000015b7          	lui	a1,0x1
    8b64:	40b405b3          	sub	a1,s0,a1
    8b68:	2d85b583          	ld	a1,728(a1) # 12d8 <.LBB13_4+0x138>
    8b6c:	017585b3          	add	a1,a1,s7
    8b70:	00b50533          	add	a0,a0,a1
    8b74:	42155513          	srai	a0,a0,0x21
    8b78:	00a025b3          	sgtz	a1,a0
    8b7c:	40b005b3          	neg	a1,a1
    8b80:	00a5f533          	and	a0,a1,a0
    8b84:	01954463          	blt	a0,s9,8b8c <.LBB13_704>
    8b88:	0ff00513          	li	a0,255

0000000000008b8c <.LBB13_704>:
    8b8c:	000015b7          	lui	a1,0x1
    8b90:	40b405b3          	sub	a1,s0,a1
    8b94:	2ea5b023          	sd	a0,736(a1) # 12e0 <.LBB13_4+0x140>
    8b98:	00001537          	lui	a0,0x1
    8b9c:	40a40533          	sub	a0,s0,a0
    8ba0:	2f053503          	ld	a0,752(a0) # 12f0 <.LBB13_4+0x150>
    8ba4:	03850533          	mul	a0,a0,s8
    8ba8:	000015b7          	lui	a1,0x1
    8bac:	40b405b3          	sub	a1,s0,a1
    8bb0:	2e85b583          	ld	a1,744(a1) # 12e8 <.LBB13_4+0x148>
    8bb4:	017585b3          	add	a1,a1,s7
    8bb8:	00b50533          	add	a0,a0,a1
    8bbc:	42155513          	srai	a0,a0,0x21
    8bc0:	00a025b3          	sgtz	a1,a0
    8bc4:	40b005b3          	neg	a1,a1
    8bc8:	00a5f533          	and	a0,a1,a0
    8bcc:	01954463          	blt	a0,s9,8bd4 <.LBB13_706>
    8bd0:	0ff00513          	li	a0,255

0000000000008bd4 <.LBB13_706>:
    8bd4:	000015b7          	lui	a1,0x1
    8bd8:	40b405b3          	sub	a1,s0,a1
    8bdc:	2ea5b823          	sd	a0,752(a1) # 12f0 <.LBB13_4+0x150>
    8be0:	00001537          	lui	a0,0x1
    8be4:	40a40533          	sub	a0,s0,a0
    8be8:	30053503          	ld	a0,768(a0) # 1300 <.LBB13_4+0x160>
    8bec:	03850533          	mul	a0,a0,s8
    8bf0:	000015b7          	lui	a1,0x1
    8bf4:	40b405b3          	sub	a1,s0,a1
    8bf8:	2f85b583          	ld	a1,760(a1) # 12f8 <.LBB13_4+0x158>
    8bfc:	017585b3          	add	a1,a1,s7
    8c00:	00b50533          	add	a0,a0,a1
    8c04:	42155513          	srai	a0,a0,0x21
    8c08:	00a025b3          	sgtz	a1,a0
    8c0c:	40b005b3          	neg	a1,a1
    8c10:	00a5f533          	and	a0,a1,a0
    8c14:	01954463          	blt	a0,s9,8c1c <.LBB13_708>
    8c18:	0ff00513          	li	a0,255

0000000000008c1c <.LBB13_708>:
    8c1c:	000015b7          	lui	a1,0x1
    8c20:	40b405b3          	sub	a1,s0,a1
    8c24:	30a5b023          	sd	a0,768(a1) # 1300 <.LBB13_4+0x160>
    8c28:	00001537          	lui	a0,0x1
    8c2c:	40a40533          	sub	a0,s0,a0
    8c30:	31053503          	ld	a0,784(a0) # 1310 <.LBB13_4+0x170>
    8c34:	03850533          	mul	a0,a0,s8
    8c38:	000015b7          	lui	a1,0x1
    8c3c:	40b405b3          	sub	a1,s0,a1
    8c40:	3085b583          	ld	a1,776(a1) # 1308 <.LBB13_4+0x168>
    8c44:	017585b3          	add	a1,a1,s7
    8c48:	00b50533          	add	a0,a0,a1
    8c4c:	42155513          	srai	a0,a0,0x21
    8c50:	00a025b3          	sgtz	a1,a0
    8c54:	40b005b3          	neg	a1,a1
    8c58:	00a5f533          	and	a0,a1,a0
    8c5c:	01954463          	blt	a0,s9,8c64 <.LBB13_710>
    8c60:	0ff00513          	li	a0,255

0000000000008c64 <.LBB13_710>:
    8c64:	000015b7          	lui	a1,0x1
    8c68:	40b405b3          	sub	a1,s0,a1
    8c6c:	30a5b823          	sd	a0,784(a1) # 1310 <.LBB13_4+0x170>
    8c70:	00001537          	lui	a0,0x1
    8c74:	40a40533          	sub	a0,s0,a0
    8c78:	32053503          	ld	a0,800(a0) # 1320 <.LBB13_4+0x180>
    8c7c:	03850533          	mul	a0,a0,s8
    8c80:	000015b7          	lui	a1,0x1
    8c84:	40b405b3          	sub	a1,s0,a1
    8c88:	3185b583          	ld	a1,792(a1) # 1318 <.LBB13_4+0x178>
    8c8c:	017585b3          	add	a1,a1,s7
    8c90:	00b50533          	add	a0,a0,a1
    8c94:	42155513          	srai	a0,a0,0x21
    8c98:	00a025b3          	sgtz	a1,a0
    8c9c:	40b005b3          	neg	a1,a1
    8ca0:	00a5f533          	and	a0,a1,a0
    8ca4:	01954463          	blt	a0,s9,8cac <.LBB13_712>
    8ca8:	0ff00513          	li	a0,255

0000000000008cac <.LBB13_712>:
    8cac:	000015b7          	lui	a1,0x1
    8cb0:	40b405b3          	sub	a1,s0,a1
    8cb4:	32a5b023          	sd	a0,800(a1) # 1320 <.LBB13_4+0x180>
    8cb8:	00001537          	lui	a0,0x1
    8cbc:	40a40533          	sub	a0,s0,a0
    8cc0:	33053503          	ld	a0,816(a0) # 1330 <.LBB13_4+0x190>
    8cc4:	03850533          	mul	a0,a0,s8
    8cc8:	000015b7          	lui	a1,0x1
    8ccc:	40b405b3          	sub	a1,s0,a1
    8cd0:	3285b583          	ld	a1,808(a1) # 1328 <.LBB13_4+0x188>
    8cd4:	017585b3          	add	a1,a1,s7
    8cd8:	00b50533          	add	a0,a0,a1
    8cdc:	42155513          	srai	a0,a0,0x21
    8ce0:	00a025b3          	sgtz	a1,a0
    8ce4:	40b005b3          	neg	a1,a1
    8ce8:	00a5f533          	and	a0,a1,a0
    8cec:	01954463          	blt	a0,s9,8cf4 <.LBB13_714>
    8cf0:	0ff00513          	li	a0,255

0000000000008cf4 <.LBB13_714>:
    8cf4:	000015b7          	lui	a1,0x1
    8cf8:	40b405b3          	sub	a1,s0,a1
    8cfc:	32a5b823          	sd	a0,816(a1) # 1330 <.LBB13_4+0x190>
    8d00:	00001537          	lui	a0,0x1
    8d04:	40a40533          	sub	a0,s0,a0
    8d08:	34053503          	ld	a0,832(a0) # 1340 <.LBB13_4+0x1a0>
    8d0c:	03850533          	mul	a0,a0,s8
    8d10:	000015b7          	lui	a1,0x1
    8d14:	40b405b3          	sub	a1,s0,a1
    8d18:	3385b583          	ld	a1,824(a1) # 1338 <.LBB13_4+0x198>
    8d1c:	017585b3          	add	a1,a1,s7
    8d20:	00b50533          	add	a0,a0,a1
    8d24:	42155513          	srai	a0,a0,0x21
    8d28:	00a025b3          	sgtz	a1,a0
    8d2c:	40b005b3          	neg	a1,a1
    8d30:	00a5f533          	and	a0,a1,a0
    8d34:	01954463          	blt	a0,s9,8d3c <.LBB13_716>
    8d38:	0ff00513          	li	a0,255

0000000000008d3c <.LBB13_716>:
    8d3c:	000015b7          	lui	a1,0x1
    8d40:	40b405b3          	sub	a1,s0,a1
    8d44:	34a5b023          	sd	a0,832(a1) # 1340 <.LBB13_4+0x1a0>
    8d48:	00001537          	lui	a0,0x1
    8d4c:	40a40533          	sub	a0,s0,a0
    8d50:	35053503          	ld	a0,848(a0) # 1350 <.LBB13_4+0x1b0>
    8d54:	03850533          	mul	a0,a0,s8
    8d58:	000015b7          	lui	a1,0x1
    8d5c:	40b405b3          	sub	a1,s0,a1
    8d60:	3485b583          	ld	a1,840(a1) # 1348 <.LBB13_4+0x1a8>
    8d64:	017585b3          	add	a1,a1,s7
    8d68:	00b50533          	add	a0,a0,a1
    8d6c:	42155513          	srai	a0,a0,0x21
    8d70:	00a025b3          	sgtz	a1,a0
    8d74:	40b005b3          	neg	a1,a1
    8d78:	00a5f533          	and	a0,a1,a0
    8d7c:	01954463          	blt	a0,s9,8d84 <.LBB13_718>
    8d80:	0ff00513          	li	a0,255

0000000000008d84 <.LBB13_718>:
    8d84:	000015b7          	lui	a1,0x1
    8d88:	40b405b3          	sub	a1,s0,a1
    8d8c:	34a5b823          	sd	a0,848(a1) # 1350 <.LBB13_4+0x1b0>
    8d90:	00001537          	lui	a0,0x1
    8d94:	40a40533          	sub	a0,s0,a0
    8d98:	36053503          	ld	a0,864(a0) # 1360 <.LBB13_4+0x1c0>
    8d9c:	03850533          	mul	a0,a0,s8
    8da0:	000015b7          	lui	a1,0x1
    8da4:	40b405b3          	sub	a1,s0,a1
    8da8:	3585b583          	ld	a1,856(a1) # 1358 <.LBB13_4+0x1b8>
    8dac:	017585b3          	add	a1,a1,s7
    8db0:	00b50533          	add	a0,a0,a1
    8db4:	42155513          	srai	a0,a0,0x21
    8db8:	00a025b3          	sgtz	a1,a0
    8dbc:	40b005b3          	neg	a1,a1
    8dc0:	00a5f533          	and	a0,a1,a0
    8dc4:	01954463          	blt	a0,s9,8dcc <.LBB13_720>
    8dc8:	0ff00513          	li	a0,255

0000000000008dcc <.LBB13_720>:
    8dcc:	000015b7          	lui	a1,0x1
    8dd0:	40b405b3          	sub	a1,s0,a1
    8dd4:	36a5b023          	sd	a0,864(a1) # 1360 <.LBB13_4+0x1c0>
    8dd8:	00001537          	lui	a0,0x1
    8ddc:	40a40533          	sub	a0,s0,a0
    8de0:	37053503          	ld	a0,880(a0) # 1370 <.LBB13_4+0x1d0>
    8de4:	03850533          	mul	a0,a0,s8
    8de8:	000015b7          	lui	a1,0x1
    8dec:	40b405b3          	sub	a1,s0,a1
    8df0:	3685b583          	ld	a1,872(a1) # 1368 <.LBB13_4+0x1c8>
    8df4:	017585b3          	add	a1,a1,s7
    8df8:	00b50533          	add	a0,a0,a1
    8dfc:	42155513          	srai	a0,a0,0x21
    8e00:	00a025b3          	sgtz	a1,a0
    8e04:	40b005b3          	neg	a1,a1
    8e08:	00a5f533          	and	a0,a1,a0
    8e0c:	01954463          	blt	a0,s9,8e14 <.LBB13_722>
    8e10:	0ff00513          	li	a0,255

0000000000008e14 <.LBB13_722>:
    8e14:	000015b7          	lui	a1,0x1
    8e18:	40b405b3          	sub	a1,s0,a1
    8e1c:	36a5b823          	sd	a0,880(a1) # 1370 <.LBB13_4+0x1d0>
    8e20:	00001537          	lui	a0,0x1
    8e24:	40a40533          	sub	a0,s0,a0
    8e28:	38053503          	ld	a0,896(a0) # 1380 <.LBB13_4+0x1e0>
    8e2c:	03850533          	mul	a0,a0,s8
    8e30:	000015b7          	lui	a1,0x1
    8e34:	40b405b3          	sub	a1,s0,a1
    8e38:	3785b583          	ld	a1,888(a1) # 1378 <.LBB13_4+0x1d8>
    8e3c:	017585b3          	add	a1,a1,s7
    8e40:	00b50533          	add	a0,a0,a1
    8e44:	42155513          	srai	a0,a0,0x21
    8e48:	00a025b3          	sgtz	a1,a0
    8e4c:	40b005b3          	neg	a1,a1
    8e50:	00a5f533          	and	a0,a1,a0
    8e54:	01954463          	blt	a0,s9,8e5c <.LBB13_724>
    8e58:	0ff00513          	li	a0,255

0000000000008e5c <.LBB13_724>:
    8e5c:	000015b7          	lui	a1,0x1
    8e60:	40b405b3          	sub	a1,s0,a1
    8e64:	38a5b023          	sd	a0,896(a1) # 1380 <.LBB13_4+0x1e0>
    8e68:	00001537          	lui	a0,0x1
    8e6c:	40a40533          	sub	a0,s0,a0
    8e70:	39053503          	ld	a0,912(a0) # 1390 <.LBB13_4+0x1f0>
    8e74:	03850533          	mul	a0,a0,s8
    8e78:	000015b7          	lui	a1,0x1
    8e7c:	40b405b3          	sub	a1,s0,a1
    8e80:	3885b583          	ld	a1,904(a1) # 1388 <.LBB13_4+0x1e8>
    8e84:	017585b3          	add	a1,a1,s7
    8e88:	00b50533          	add	a0,a0,a1
    8e8c:	42155513          	srai	a0,a0,0x21
    8e90:	00a025b3          	sgtz	a1,a0
    8e94:	40b005b3          	neg	a1,a1
    8e98:	00a5f533          	and	a0,a1,a0
    8e9c:	01954463          	blt	a0,s9,8ea4 <.LBB13_726>
    8ea0:	0ff00513          	li	a0,255

0000000000008ea4 <.LBB13_726>:
    8ea4:	000015b7          	lui	a1,0x1
    8ea8:	40b405b3          	sub	a1,s0,a1
    8eac:	38a5b823          	sd	a0,912(a1) # 1390 <.LBB13_4+0x1f0>
    8eb0:	00001537          	lui	a0,0x1
    8eb4:	40a40533          	sub	a0,s0,a0
    8eb8:	3a053503          	ld	a0,928(a0) # 13a0 <.LBB13_4+0x200>
    8ebc:	03850533          	mul	a0,a0,s8
    8ec0:	000015b7          	lui	a1,0x1
    8ec4:	40b405b3          	sub	a1,s0,a1
    8ec8:	3985b583          	ld	a1,920(a1) # 1398 <.LBB13_4+0x1f8>
    8ecc:	017585b3          	add	a1,a1,s7
    8ed0:	00b50533          	add	a0,a0,a1
    8ed4:	42155513          	srai	a0,a0,0x21
    8ed8:	00a025b3          	sgtz	a1,a0
    8edc:	40b005b3          	neg	a1,a1
    8ee0:	00a5f533          	and	a0,a1,a0
    8ee4:	01954463          	blt	a0,s9,8eec <.LBB13_728>
    8ee8:	0ff00513          	li	a0,255

0000000000008eec <.LBB13_728>:
    8eec:	000015b7          	lui	a1,0x1
    8ef0:	40b405b3          	sub	a1,s0,a1
    8ef4:	3aa5b023          	sd	a0,928(a1) # 13a0 <.LBB13_4+0x200>
    8ef8:	00001537          	lui	a0,0x1
    8efc:	40a40533          	sub	a0,s0,a0
    8f00:	3b053503          	ld	a0,944(a0) # 13b0 <.LBB13_4+0x210>
    8f04:	03850533          	mul	a0,a0,s8
    8f08:	000015b7          	lui	a1,0x1
    8f0c:	40b405b3          	sub	a1,s0,a1
    8f10:	3a85b583          	ld	a1,936(a1) # 13a8 <.LBB13_4+0x208>
    8f14:	017585b3          	add	a1,a1,s7
    8f18:	00b50533          	add	a0,a0,a1
    8f1c:	42155513          	srai	a0,a0,0x21
    8f20:	00a025b3          	sgtz	a1,a0
    8f24:	40b005b3          	neg	a1,a1
    8f28:	00a5f533          	and	a0,a1,a0
    8f2c:	01954463          	blt	a0,s9,8f34 <.LBB13_730>
    8f30:	0ff00513          	li	a0,255

0000000000008f34 <.LBB13_730>:
    8f34:	000015b7          	lui	a1,0x1
    8f38:	40b405b3          	sub	a1,s0,a1
    8f3c:	3aa5b823          	sd	a0,944(a1) # 13b0 <.LBB13_4+0x210>
    8f40:	00001537          	lui	a0,0x1
    8f44:	40a40533          	sub	a0,s0,a0
    8f48:	3c053503          	ld	a0,960(a0) # 13c0 <.LBB13_4+0x220>
    8f4c:	03850533          	mul	a0,a0,s8
    8f50:	000015b7          	lui	a1,0x1
    8f54:	40b405b3          	sub	a1,s0,a1
    8f58:	3b85b583          	ld	a1,952(a1) # 13b8 <.LBB13_4+0x218>
    8f5c:	017585b3          	add	a1,a1,s7
    8f60:	00b50533          	add	a0,a0,a1
    8f64:	42155513          	srai	a0,a0,0x21
    8f68:	00a025b3          	sgtz	a1,a0
    8f6c:	40b005b3          	neg	a1,a1
    8f70:	00a5f533          	and	a0,a1,a0
    8f74:	01954463          	blt	a0,s9,8f7c <.LBB13_732>
    8f78:	0ff00513          	li	a0,255

0000000000008f7c <.LBB13_732>:
    8f7c:	000015b7          	lui	a1,0x1
    8f80:	40b405b3          	sub	a1,s0,a1
    8f84:	3ca5b023          	sd	a0,960(a1) # 13c0 <.LBB13_4+0x220>
    8f88:	00001537          	lui	a0,0x1
    8f8c:	40a40533          	sub	a0,s0,a0
    8f90:	3d053503          	ld	a0,976(a0) # 13d0 <.LBB13_4+0x230>
    8f94:	03850533          	mul	a0,a0,s8
    8f98:	000015b7          	lui	a1,0x1
    8f9c:	40b405b3          	sub	a1,s0,a1
    8fa0:	3c85b583          	ld	a1,968(a1) # 13c8 <.LBB13_4+0x228>
    8fa4:	017585b3          	add	a1,a1,s7
    8fa8:	00b50533          	add	a0,a0,a1
    8fac:	42155513          	srai	a0,a0,0x21
    8fb0:	00a025b3          	sgtz	a1,a0
    8fb4:	40b005b3          	neg	a1,a1
    8fb8:	00a5f533          	and	a0,a1,a0
    8fbc:	01954463          	blt	a0,s9,8fc4 <.LBB13_734>
    8fc0:	0ff00513          	li	a0,255

0000000000008fc4 <.LBB13_734>:
    8fc4:	000015b7          	lui	a1,0x1
    8fc8:	40b405b3          	sub	a1,s0,a1
    8fcc:	3ca5b823          	sd	a0,976(a1) # 13d0 <.LBB13_4+0x230>
    8fd0:	00001537          	lui	a0,0x1
    8fd4:	40a40533          	sub	a0,s0,a0
    8fd8:	3e053503          	ld	a0,992(a0) # 13e0 <.LBB13_4+0x240>
    8fdc:	03850533          	mul	a0,a0,s8
    8fe0:	000015b7          	lui	a1,0x1
    8fe4:	40b405b3          	sub	a1,s0,a1
    8fe8:	3d85b583          	ld	a1,984(a1) # 13d8 <.LBB13_4+0x238>
    8fec:	017585b3          	add	a1,a1,s7
    8ff0:	00b50533          	add	a0,a0,a1
    8ff4:	42155513          	srai	a0,a0,0x21
    8ff8:	00a025b3          	sgtz	a1,a0
    8ffc:	40b005b3          	neg	a1,a1
    9000:	00a5f533          	and	a0,a1,a0
    9004:	01954463          	blt	a0,s9,900c <.LBB13_736>
    9008:	0ff00513          	li	a0,255

000000000000900c <.LBB13_736>:
    900c:	000015b7          	lui	a1,0x1
    9010:	40b405b3          	sub	a1,s0,a1
    9014:	3ea5b023          	sd	a0,992(a1) # 13e0 <.LBB13_4+0x240>
    9018:	00001537          	lui	a0,0x1
    901c:	40a40533          	sub	a0,s0,a0
    9020:	3f053503          	ld	a0,1008(a0) # 13f0 <.LBB13_4+0x250>
    9024:	03850533          	mul	a0,a0,s8
    9028:	000015b7          	lui	a1,0x1
    902c:	40b405b3          	sub	a1,s0,a1
    9030:	3e85b583          	ld	a1,1000(a1) # 13e8 <.LBB13_4+0x248>
    9034:	017585b3          	add	a1,a1,s7
    9038:	00b50533          	add	a0,a0,a1
    903c:	42155513          	srai	a0,a0,0x21
    9040:	00a025b3          	sgtz	a1,a0
    9044:	40b005b3          	neg	a1,a1
    9048:	00a5f533          	and	a0,a1,a0
    904c:	01954463          	blt	a0,s9,9054 <.LBB13_738>
    9050:	0ff00513          	li	a0,255

0000000000009054 <.LBB13_738>:
    9054:	000015b7          	lui	a1,0x1
    9058:	40b405b3          	sub	a1,s0,a1
    905c:	3ea5b823          	sd	a0,1008(a1) # 13f0 <.LBB13_4+0x250>
    9060:	00001537          	lui	a0,0x1
    9064:	40a40533          	sub	a0,s0,a0
    9068:	40053503          	ld	a0,1024(a0) # 1400 <.LBB13_4+0x260>
    906c:	03850533          	mul	a0,a0,s8
    9070:	000015b7          	lui	a1,0x1
    9074:	40b405b3          	sub	a1,s0,a1
    9078:	3f85b583          	ld	a1,1016(a1) # 13f8 <.LBB13_4+0x258>
    907c:	017585b3          	add	a1,a1,s7
    9080:	00b50533          	add	a0,a0,a1
    9084:	42155513          	srai	a0,a0,0x21
    9088:	00a025b3          	sgtz	a1,a0
    908c:	40b005b3          	neg	a1,a1
    9090:	00a5f533          	and	a0,a1,a0
    9094:	01954463          	blt	a0,s9,909c <.LBB13_740>
    9098:	0ff00513          	li	a0,255

000000000000909c <.LBB13_740>:
    909c:	000015b7          	lui	a1,0x1
    90a0:	40b405b3          	sub	a1,s0,a1
    90a4:	40a5b023          	sd	a0,1024(a1) # 1400 <.LBB13_4+0x260>
    90a8:	00001537          	lui	a0,0x1
    90ac:	40a40533          	sub	a0,s0,a0
    90b0:	41053503          	ld	a0,1040(a0) # 1410 <.LBB13_4+0x270>
    90b4:	03850533          	mul	a0,a0,s8
    90b8:	000015b7          	lui	a1,0x1
    90bc:	40b405b3          	sub	a1,s0,a1
    90c0:	4085b583          	ld	a1,1032(a1) # 1408 <.LBB13_4+0x268>
    90c4:	017585b3          	add	a1,a1,s7
    90c8:	00b50533          	add	a0,a0,a1
    90cc:	42155513          	srai	a0,a0,0x21
    90d0:	00a025b3          	sgtz	a1,a0
    90d4:	40b005b3          	neg	a1,a1
    90d8:	00a5f533          	and	a0,a1,a0
    90dc:	01954463          	blt	a0,s9,90e4 <.LBB13_742>
    90e0:	0ff00513          	li	a0,255

00000000000090e4 <.LBB13_742>:
    90e4:	000015b7          	lui	a1,0x1
    90e8:	40b405b3          	sub	a1,s0,a1
    90ec:	40a5b823          	sd	a0,1040(a1) # 1410 <.LBB13_4+0x270>
    90f0:	00001537          	lui	a0,0x1
    90f4:	40a40533          	sub	a0,s0,a0
    90f8:	42053503          	ld	a0,1056(a0) # 1420 <.LBB13_4+0x280>
    90fc:	03850533          	mul	a0,a0,s8
    9100:	000015b7          	lui	a1,0x1
    9104:	40b405b3          	sub	a1,s0,a1
    9108:	4185b583          	ld	a1,1048(a1) # 1418 <.LBB13_4+0x278>
    910c:	017585b3          	add	a1,a1,s7
    9110:	00b50533          	add	a0,a0,a1
    9114:	42155513          	srai	a0,a0,0x21
    9118:	00a025b3          	sgtz	a1,a0
    911c:	40b005b3          	neg	a1,a1
    9120:	00a5f533          	and	a0,a1,a0
    9124:	01954463          	blt	a0,s9,912c <.LBB13_744>
    9128:	0ff00513          	li	a0,255

000000000000912c <.LBB13_744>:
    912c:	000015b7          	lui	a1,0x1
    9130:	40b405b3          	sub	a1,s0,a1
    9134:	42a5b023          	sd	a0,1056(a1) # 1420 <.LBB13_4+0x280>
    9138:	00001537          	lui	a0,0x1
    913c:	40a40533          	sub	a0,s0,a0
    9140:	43053503          	ld	a0,1072(a0) # 1430 <.LBB13_4+0x290>
    9144:	03850533          	mul	a0,a0,s8
    9148:	000015b7          	lui	a1,0x1
    914c:	40b405b3          	sub	a1,s0,a1
    9150:	4285b583          	ld	a1,1064(a1) # 1428 <.LBB13_4+0x288>
    9154:	017585b3          	add	a1,a1,s7
    9158:	00b50533          	add	a0,a0,a1
    915c:	42155513          	srai	a0,a0,0x21
    9160:	00a025b3          	sgtz	a1,a0
    9164:	40b005b3          	neg	a1,a1
    9168:	00a5f533          	and	a0,a1,a0
    916c:	01954463          	blt	a0,s9,9174 <.LBB13_746>
    9170:	0ff00513          	li	a0,255

0000000000009174 <.LBB13_746>:
    9174:	000015b7          	lui	a1,0x1
    9178:	40b405b3          	sub	a1,s0,a1
    917c:	42a5b823          	sd	a0,1072(a1) # 1430 <.LBB13_4+0x290>
    9180:	00001537          	lui	a0,0x1
    9184:	40a40533          	sub	a0,s0,a0
    9188:	44053503          	ld	a0,1088(a0) # 1440 <.LBB13_4+0x2a0>
    918c:	03850533          	mul	a0,a0,s8
    9190:	000015b7          	lui	a1,0x1
    9194:	40b405b3          	sub	a1,s0,a1
    9198:	4385b583          	ld	a1,1080(a1) # 1438 <.LBB13_4+0x298>
    919c:	017585b3          	add	a1,a1,s7
    91a0:	00b50533          	add	a0,a0,a1
    91a4:	42155513          	srai	a0,a0,0x21
    91a8:	00a025b3          	sgtz	a1,a0
    91ac:	40b005b3          	neg	a1,a1
    91b0:	00a5f533          	and	a0,a1,a0
    91b4:	01954463          	blt	a0,s9,91bc <.LBB13_748>
    91b8:	0ff00513          	li	a0,255

00000000000091bc <.LBB13_748>:
    91bc:	000015b7          	lui	a1,0x1
    91c0:	40b405b3          	sub	a1,s0,a1
    91c4:	44a5b023          	sd	a0,1088(a1) # 1440 <.LBB13_4+0x2a0>
    91c8:	00001537          	lui	a0,0x1
    91cc:	40a40533          	sub	a0,s0,a0
    91d0:	45053503          	ld	a0,1104(a0) # 1450 <.LBB13_4+0x2b0>
    91d4:	03850533          	mul	a0,a0,s8
    91d8:	000015b7          	lui	a1,0x1
    91dc:	40b405b3          	sub	a1,s0,a1
    91e0:	4485b583          	ld	a1,1096(a1) # 1448 <.LBB13_4+0x2a8>
    91e4:	017585b3          	add	a1,a1,s7
    91e8:	00b50533          	add	a0,a0,a1
    91ec:	42155513          	srai	a0,a0,0x21
    91f0:	00a025b3          	sgtz	a1,a0
    91f4:	40b005b3          	neg	a1,a1
    91f8:	00a5f533          	and	a0,a1,a0
    91fc:	01954463          	blt	a0,s9,9204 <.LBB13_750>
    9200:	0ff00513          	li	a0,255

0000000000009204 <.LBB13_750>:
    9204:	000015b7          	lui	a1,0x1
    9208:	40b405b3          	sub	a1,s0,a1
    920c:	44a5b823          	sd	a0,1104(a1) # 1450 <.LBB13_4+0x2b0>
    9210:	00001537          	lui	a0,0x1
    9214:	40a40533          	sub	a0,s0,a0
    9218:	46053503          	ld	a0,1120(a0) # 1460 <.LBB13_4+0x2c0>
    921c:	03850533          	mul	a0,a0,s8
    9220:	000015b7          	lui	a1,0x1
    9224:	40b405b3          	sub	a1,s0,a1
    9228:	4585b583          	ld	a1,1112(a1) # 1458 <.LBB13_4+0x2b8>
    922c:	017585b3          	add	a1,a1,s7
    9230:	00b50533          	add	a0,a0,a1
    9234:	42155513          	srai	a0,a0,0x21
    9238:	00a025b3          	sgtz	a1,a0
    923c:	40b005b3          	neg	a1,a1
    9240:	00a5f533          	and	a0,a1,a0
    9244:	01954463          	blt	a0,s9,924c <.LBB13_752>
    9248:	0ff00513          	li	a0,255

000000000000924c <.LBB13_752>:
    924c:	000015b7          	lui	a1,0x1
    9250:	40b405b3          	sub	a1,s0,a1
    9254:	46a5b023          	sd	a0,1120(a1) # 1460 <.LBB13_4+0x2c0>
    9258:	00001537          	lui	a0,0x1
    925c:	40a40533          	sub	a0,s0,a0
    9260:	47053503          	ld	a0,1136(a0) # 1470 <.LBB13_4+0x2d0>
    9264:	03850533          	mul	a0,a0,s8
    9268:	000015b7          	lui	a1,0x1
    926c:	40b405b3          	sub	a1,s0,a1
    9270:	4685b583          	ld	a1,1128(a1) # 1468 <.LBB13_4+0x2c8>
    9274:	017585b3          	add	a1,a1,s7
    9278:	00b50533          	add	a0,a0,a1
    927c:	42155513          	srai	a0,a0,0x21
    9280:	00a025b3          	sgtz	a1,a0
    9284:	40b005b3          	neg	a1,a1
    9288:	00a5f533          	and	a0,a1,a0
    928c:	01954463          	blt	a0,s9,9294 <.LBB13_754>
    9290:	0ff00513          	li	a0,255

0000000000009294 <.LBB13_754>:
    9294:	000015b7          	lui	a1,0x1
    9298:	40b405b3          	sub	a1,s0,a1
    929c:	46a5b823          	sd	a0,1136(a1) # 1470 <.LBB13_4+0x2d0>
    92a0:	00001537          	lui	a0,0x1
    92a4:	40a40533          	sub	a0,s0,a0
    92a8:	48053503          	ld	a0,1152(a0) # 1480 <.LBB13_4+0x2e0>
    92ac:	03850533          	mul	a0,a0,s8
    92b0:	000015b7          	lui	a1,0x1
    92b4:	40b405b3          	sub	a1,s0,a1
    92b8:	4785b583          	ld	a1,1144(a1) # 1478 <.LBB13_4+0x2d8>
    92bc:	017585b3          	add	a1,a1,s7
    92c0:	00b50533          	add	a0,a0,a1
    92c4:	42155513          	srai	a0,a0,0x21
    92c8:	00a025b3          	sgtz	a1,a0
    92cc:	40b005b3          	neg	a1,a1
    92d0:	00a5f533          	and	a0,a1,a0
    92d4:	01954463          	blt	a0,s9,92dc <.LBB13_756>
    92d8:	0ff00513          	li	a0,255

00000000000092dc <.LBB13_756>:
    92dc:	000015b7          	lui	a1,0x1
    92e0:	40b405b3          	sub	a1,s0,a1
    92e4:	48a5b023          	sd	a0,1152(a1) # 1480 <.LBB13_4+0x2e0>
    92e8:	00001537          	lui	a0,0x1
    92ec:	40a40533          	sub	a0,s0,a0
    92f0:	49053503          	ld	a0,1168(a0) # 1490 <.LBB13_4+0x2f0>
    92f4:	03850533          	mul	a0,a0,s8
    92f8:	000015b7          	lui	a1,0x1
    92fc:	40b405b3          	sub	a1,s0,a1
    9300:	4885b583          	ld	a1,1160(a1) # 1488 <.LBB13_4+0x2e8>
    9304:	017585b3          	add	a1,a1,s7
    9308:	00b50533          	add	a0,a0,a1
    930c:	42155513          	srai	a0,a0,0x21
    9310:	00a025b3          	sgtz	a1,a0
    9314:	40b005b3          	neg	a1,a1
    9318:	00a5f533          	and	a0,a1,a0
    931c:	01954463          	blt	a0,s9,9324 <.LBB13_758>
    9320:	0ff00513          	li	a0,255

0000000000009324 <.LBB13_758>:
    9324:	000015b7          	lui	a1,0x1
    9328:	40b405b3          	sub	a1,s0,a1
    932c:	48a5b823          	sd	a0,1168(a1) # 1490 <.LBB13_4+0x2f0>
    9330:	00001537          	lui	a0,0x1
    9334:	40a40533          	sub	a0,s0,a0
    9338:	4a053503          	ld	a0,1184(a0) # 14a0 <.LBB13_4+0x300>
    933c:	03850533          	mul	a0,a0,s8
    9340:	000015b7          	lui	a1,0x1
    9344:	40b405b3          	sub	a1,s0,a1
    9348:	4985b583          	ld	a1,1176(a1) # 1498 <.LBB13_4+0x2f8>
    934c:	017585b3          	add	a1,a1,s7
    9350:	00b50533          	add	a0,a0,a1
    9354:	42155513          	srai	a0,a0,0x21
    9358:	00a025b3          	sgtz	a1,a0
    935c:	40b005b3          	neg	a1,a1
    9360:	00a5f533          	and	a0,a1,a0
    9364:	01954463          	blt	a0,s9,936c <.LBB13_760>
    9368:	0ff00513          	li	a0,255

000000000000936c <.LBB13_760>:
    936c:	000015b7          	lui	a1,0x1
    9370:	40b405b3          	sub	a1,s0,a1
    9374:	4aa5b023          	sd	a0,1184(a1) # 14a0 <.LBB13_4+0x300>
    9378:	00001537          	lui	a0,0x1
    937c:	40a40533          	sub	a0,s0,a0
    9380:	4b053503          	ld	a0,1200(a0) # 14b0 <.LBB13_4+0x310>
    9384:	03850533          	mul	a0,a0,s8
    9388:	000015b7          	lui	a1,0x1
    938c:	40b405b3          	sub	a1,s0,a1
    9390:	4a85b583          	ld	a1,1192(a1) # 14a8 <.LBB13_4+0x308>
    9394:	017585b3          	add	a1,a1,s7
    9398:	00b50533          	add	a0,a0,a1
    939c:	42155513          	srai	a0,a0,0x21
    93a0:	00a025b3          	sgtz	a1,a0
    93a4:	40b005b3          	neg	a1,a1
    93a8:	00a5f533          	and	a0,a1,a0
    93ac:	01954463          	blt	a0,s9,93b4 <.LBB13_762>
    93b0:	0ff00513          	li	a0,255

00000000000093b4 <.LBB13_762>:
    93b4:	000015b7          	lui	a1,0x1
    93b8:	40b405b3          	sub	a1,s0,a1
    93bc:	4aa5b823          	sd	a0,1200(a1) # 14b0 <.LBB13_4+0x310>
    93c0:	00001537          	lui	a0,0x1
    93c4:	40a40533          	sub	a0,s0,a0
    93c8:	4c053503          	ld	a0,1216(a0) # 14c0 <.LBB13_4+0x320>
    93cc:	03850533          	mul	a0,a0,s8
    93d0:	000015b7          	lui	a1,0x1
    93d4:	40b405b3          	sub	a1,s0,a1
    93d8:	4b85b583          	ld	a1,1208(a1) # 14b8 <.LBB13_4+0x318>
    93dc:	017585b3          	add	a1,a1,s7
    93e0:	00b50533          	add	a0,a0,a1
    93e4:	42155513          	srai	a0,a0,0x21
    93e8:	00a025b3          	sgtz	a1,a0
    93ec:	40b005b3          	neg	a1,a1
    93f0:	00a5f533          	and	a0,a1,a0
    93f4:	01954463          	blt	a0,s9,93fc <.LBB13_764>
    93f8:	0ff00513          	li	a0,255

00000000000093fc <.LBB13_764>:
    93fc:	000015b7          	lui	a1,0x1
    9400:	40b405b3          	sub	a1,s0,a1
    9404:	4ca5b023          	sd	a0,1216(a1) # 14c0 <.LBB13_4+0x320>
    9408:	00001537          	lui	a0,0x1
    940c:	40a40533          	sub	a0,s0,a0
    9410:	4d053503          	ld	a0,1232(a0) # 14d0 <.LBB13_4+0x330>
    9414:	03850533          	mul	a0,a0,s8
    9418:	000015b7          	lui	a1,0x1
    941c:	40b405b3          	sub	a1,s0,a1
    9420:	4c85b583          	ld	a1,1224(a1) # 14c8 <.LBB13_4+0x328>
    9424:	017585b3          	add	a1,a1,s7
    9428:	00b50533          	add	a0,a0,a1
    942c:	42155513          	srai	a0,a0,0x21
    9430:	00a025b3          	sgtz	a1,a0
    9434:	40b005b3          	neg	a1,a1
    9438:	00a5f533          	and	a0,a1,a0
    943c:	01954463          	blt	a0,s9,9444 <.LBB13_766>
    9440:	0ff00513          	li	a0,255

0000000000009444 <.LBB13_766>:
    9444:	000015b7          	lui	a1,0x1
    9448:	40b405b3          	sub	a1,s0,a1
    944c:	4ca5b823          	sd	a0,1232(a1) # 14d0 <.LBB13_4+0x330>
    9450:	00001537          	lui	a0,0x1
    9454:	40a40533          	sub	a0,s0,a0
    9458:	4e053503          	ld	a0,1248(a0) # 14e0 <.LBB13_4+0x340>
    945c:	03850533          	mul	a0,a0,s8
    9460:	000015b7          	lui	a1,0x1
    9464:	40b405b3          	sub	a1,s0,a1
    9468:	4d85b583          	ld	a1,1240(a1) # 14d8 <.LBB13_4+0x338>
    946c:	017585b3          	add	a1,a1,s7
    9470:	00b50533          	add	a0,a0,a1
    9474:	42155513          	srai	a0,a0,0x21
    9478:	00a025b3          	sgtz	a1,a0
    947c:	40b005b3          	neg	a1,a1
    9480:	00a5f533          	and	a0,a1,a0
    9484:	01954463          	blt	a0,s9,948c <.LBB13_768>
    9488:	0ff00513          	li	a0,255

000000000000948c <.LBB13_768>:
    948c:	000015b7          	lui	a1,0x1
    9490:	40b405b3          	sub	a1,s0,a1
    9494:	4ea5b023          	sd	a0,1248(a1) # 14e0 <.LBB13_4+0x340>
    9498:	00001537          	lui	a0,0x1
    949c:	40a40533          	sub	a0,s0,a0
    94a0:	4f053503          	ld	a0,1264(a0) # 14f0 <.LBB13_4+0x350>
    94a4:	03850533          	mul	a0,a0,s8
    94a8:	000015b7          	lui	a1,0x1
    94ac:	40b405b3          	sub	a1,s0,a1
    94b0:	4e85b583          	ld	a1,1256(a1) # 14e8 <.LBB13_4+0x348>
    94b4:	017585b3          	add	a1,a1,s7
    94b8:	00b50533          	add	a0,a0,a1
    94bc:	42155513          	srai	a0,a0,0x21
    94c0:	00a025b3          	sgtz	a1,a0
    94c4:	40b005b3          	neg	a1,a1
    94c8:	00a5f533          	and	a0,a1,a0
    94cc:	01954463          	blt	a0,s9,94d4 <.LBB13_770>
    94d0:	0ff00513          	li	a0,255

00000000000094d4 <.LBB13_770>:
    94d4:	000015b7          	lui	a1,0x1
    94d8:	40b405b3          	sub	a1,s0,a1
    94dc:	4ea5b823          	sd	a0,1264(a1) # 14f0 <.LBB13_4+0x350>
    94e0:	00001537          	lui	a0,0x1
    94e4:	40a40533          	sub	a0,s0,a0
    94e8:	50053503          	ld	a0,1280(a0) # 1500 <.LBB13_4+0x360>
    94ec:	03850533          	mul	a0,a0,s8
    94f0:	000015b7          	lui	a1,0x1
    94f4:	40b405b3          	sub	a1,s0,a1
    94f8:	4f85b583          	ld	a1,1272(a1) # 14f8 <.LBB13_4+0x358>
    94fc:	017585b3          	add	a1,a1,s7
    9500:	00b50533          	add	a0,a0,a1
    9504:	42155513          	srai	a0,a0,0x21
    9508:	00a025b3          	sgtz	a1,a0
    950c:	40b005b3          	neg	a1,a1
    9510:	00a5f533          	and	a0,a1,a0
    9514:	01954463          	blt	a0,s9,951c <.LBB13_772>
    9518:	0ff00513          	li	a0,255

000000000000951c <.LBB13_772>:
    951c:	000015b7          	lui	a1,0x1
    9520:	40b405b3          	sub	a1,s0,a1
    9524:	50a5b023          	sd	a0,1280(a1) # 1500 <.LBB13_4+0x360>
    9528:	00001537          	lui	a0,0x1
    952c:	40a40533          	sub	a0,s0,a0
    9530:	51053503          	ld	a0,1296(a0) # 1510 <.LBB13_4+0x370>
    9534:	03850533          	mul	a0,a0,s8
    9538:	000015b7          	lui	a1,0x1
    953c:	40b405b3          	sub	a1,s0,a1
    9540:	5085b583          	ld	a1,1288(a1) # 1508 <.LBB13_4+0x368>
    9544:	017585b3          	add	a1,a1,s7
    9548:	00b50533          	add	a0,a0,a1
    954c:	42155513          	srai	a0,a0,0x21
    9550:	00a025b3          	sgtz	a1,a0
    9554:	40b005b3          	neg	a1,a1
    9558:	00a5f533          	and	a0,a1,a0
    955c:	01954463          	blt	a0,s9,9564 <.LBB13_774>
    9560:	0ff00513          	li	a0,255

0000000000009564 <.LBB13_774>:
    9564:	000015b7          	lui	a1,0x1
    9568:	40b405b3          	sub	a1,s0,a1
    956c:	50a5b823          	sd	a0,1296(a1) # 1510 <.LBB13_4+0x370>
    9570:	00001537          	lui	a0,0x1
    9574:	40a40533          	sub	a0,s0,a0
    9578:	52053503          	ld	a0,1312(a0) # 1520 <.LBB13_4+0x380>
    957c:	03850533          	mul	a0,a0,s8
    9580:	000015b7          	lui	a1,0x1
    9584:	40b405b3          	sub	a1,s0,a1
    9588:	5185b583          	ld	a1,1304(a1) # 1518 <.LBB13_4+0x378>
    958c:	017585b3          	add	a1,a1,s7
    9590:	00b50533          	add	a0,a0,a1
    9594:	42155513          	srai	a0,a0,0x21
    9598:	00a025b3          	sgtz	a1,a0
    959c:	40b005b3          	neg	a1,a1
    95a0:	00a5f533          	and	a0,a1,a0
    95a4:	01954463          	blt	a0,s9,95ac <.LBB13_776>
    95a8:	0ff00513          	li	a0,255

00000000000095ac <.LBB13_776>:
    95ac:	000015b7          	lui	a1,0x1
    95b0:	40b405b3          	sub	a1,s0,a1
    95b4:	52a5b023          	sd	a0,1312(a1) # 1520 <.LBB13_4+0x380>
    95b8:	00001537          	lui	a0,0x1
    95bc:	40a40533          	sub	a0,s0,a0
    95c0:	53053503          	ld	a0,1328(a0) # 1530 <.LBB13_4+0x390>
    95c4:	03850533          	mul	a0,a0,s8
    95c8:	000015b7          	lui	a1,0x1
    95cc:	40b405b3          	sub	a1,s0,a1
    95d0:	5285b583          	ld	a1,1320(a1) # 1528 <.LBB13_4+0x388>
    95d4:	017585b3          	add	a1,a1,s7
    95d8:	00b50533          	add	a0,a0,a1
    95dc:	42155513          	srai	a0,a0,0x21
    95e0:	00a025b3          	sgtz	a1,a0
    95e4:	40b005b3          	neg	a1,a1
    95e8:	00a5f533          	and	a0,a1,a0
    95ec:	01954463          	blt	a0,s9,95f4 <.LBB13_778>
    95f0:	0ff00513          	li	a0,255

00000000000095f4 <.LBB13_778>:
    95f4:	000015b7          	lui	a1,0x1
    95f8:	40b405b3          	sub	a1,s0,a1
    95fc:	52a5b823          	sd	a0,1328(a1) # 1530 <.LBB13_4+0x390>
    9600:	00001537          	lui	a0,0x1
    9604:	40a40533          	sub	a0,s0,a0
    9608:	54053503          	ld	a0,1344(a0) # 1540 <.LBB13_4+0x3a0>
    960c:	03850533          	mul	a0,a0,s8
    9610:	000015b7          	lui	a1,0x1
    9614:	40b405b3          	sub	a1,s0,a1
    9618:	5385b583          	ld	a1,1336(a1) # 1538 <.LBB13_4+0x398>
    961c:	017585b3          	add	a1,a1,s7
    9620:	00b50533          	add	a0,a0,a1
    9624:	42155513          	srai	a0,a0,0x21
    9628:	00a025b3          	sgtz	a1,a0
    962c:	40b005b3          	neg	a1,a1
    9630:	00a5f533          	and	a0,a1,a0
    9634:	01954463          	blt	a0,s9,963c <.LBB13_780>
    9638:	0ff00513          	li	a0,255

000000000000963c <.LBB13_780>:
    963c:	000015b7          	lui	a1,0x1
    9640:	40b405b3          	sub	a1,s0,a1
    9644:	54a5b023          	sd	a0,1344(a1) # 1540 <.LBB13_4+0x3a0>
    9648:	00001537          	lui	a0,0x1
    964c:	40a40533          	sub	a0,s0,a0
    9650:	55053503          	ld	a0,1360(a0) # 1550 <.LBB13_4+0x3b0>
    9654:	03850533          	mul	a0,a0,s8
    9658:	000015b7          	lui	a1,0x1
    965c:	40b405b3          	sub	a1,s0,a1
    9660:	5485b583          	ld	a1,1352(a1) # 1548 <.LBB13_4+0x3a8>
    9664:	017585b3          	add	a1,a1,s7
    9668:	00b50533          	add	a0,a0,a1
    966c:	42155513          	srai	a0,a0,0x21
    9670:	00a025b3          	sgtz	a1,a0
    9674:	40b005b3          	neg	a1,a1
    9678:	00a5f533          	and	a0,a1,a0
    967c:	01954463          	blt	a0,s9,9684 <.LBB13_782>
    9680:	0ff00513          	li	a0,255

0000000000009684 <.LBB13_782>:
    9684:	000015b7          	lui	a1,0x1
    9688:	40b405b3          	sub	a1,s0,a1
    968c:	54a5b823          	sd	a0,1360(a1) # 1550 <.LBB13_4+0x3b0>
    9690:	00001537          	lui	a0,0x1
    9694:	40a40533          	sub	a0,s0,a0
    9698:	56053503          	ld	a0,1376(a0) # 1560 <.LBB13_4+0x3c0>
    969c:	03850533          	mul	a0,a0,s8
    96a0:	000015b7          	lui	a1,0x1
    96a4:	40b405b3          	sub	a1,s0,a1
    96a8:	5585b583          	ld	a1,1368(a1) # 1558 <.LBB13_4+0x3b8>
    96ac:	017585b3          	add	a1,a1,s7
    96b0:	00b50533          	add	a0,a0,a1
    96b4:	42155513          	srai	a0,a0,0x21
    96b8:	00a025b3          	sgtz	a1,a0
    96bc:	40b005b3          	neg	a1,a1
    96c0:	00a5f533          	and	a0,a1,a0
    96c4:	01954463          	blt	a0,s9,96cc <.LBB13_784>
    96c8:	0ff00513          	li	a0,255

00000000000096cc <.LBB13_784>:
    96cc:	000015b7          	lui	a1,0x1
    96d0:	40b405b3          	sub	a1,s0,a1
    96d4:	56a5b023          	sd	a0,1376(a1) # 1560 <.LBB13_4+0x3c0>
    96d8:	00001537          	lui	a0,0x1
    96dc:	40a40533          	sub	a0,s0,a0
    96e0:	57053503          	ld	a0,1392(a0) # 1570 <.LBB13_4+0x3d0>
    96e4:	03850533          	mul	a0,a0,s8
    96e8:	000015b7          	lui	a1,0x1
    96ec:	40b405b3          	sub	a1,s0,a1
    96f0:	5685b583          	ld	a1,1384(a1) # 1568 <.LBB13_4+0x3c8>
    96f4:	017585b3          	add	a1,a1,s7
    96f8:	00b50533          	add	a0,a0,a1
    96fc:	42155513          	srai	a0,a0,0x21
    9700:	00a025b3          	sgtz	a1,a0
    9704:	40b005b3          	neg	a1,a1
    9708:	00a5f533          	and	a0,a1,a0
    970c:	01954463          	blt	a0,s9,9714 <.LBB13_786>
    9710:	0ff00513          	li	a0,255

0000000000009714 <.LBB13_786>:
    9714:	000015b7          	lui	a1,0x1
    9718:	40b405b3          	sub	a1,s0,a1
    971c:	56a5b823          	sd	a0,1392(a1) # 1570 <.LBB13_4+0x3d0>
    9720:	00001537          	lui	a0,0x1
    9724:	40a40533          	sub	a0,s0,a0
    9728:	58053503          	ld	a0,1408(a0) # 1580 <.LBB13_4+0x3e0>
    972c:	03850533          	mul	a0,a0,s8
    9730:	000015b7          	lui	a1,0x1
    9734:	40b405b3          	sub	a1,s0,a1
    9738:	5785b583          	ld	a1,1400(a1) # 1578 <.LBB13_4+0x3d8>
    973c:	017585b3          	add	a1,a1,s7
    9740:	00b50533          	add	a0,a0,a1
    9744:	42155513          	srai	a0,a0,0x21
    9748:	00a025b3          	sgtz	a1,a0
    974c:	40b005b3          	neg	a1,a1
    9750:	00a5f533          	and	a0,a1,a0
    9754:	01954463          	blt	a0,s9,975c <.LBB13_788>
    9758:	0ff00513          	li	a0,255

000000000000975c <.LBB13_788>:
    975c:	000015b7          	lui	a1,0x1
    9760:	40b405b3          	sub	a1,s0,a1
    9764:	58a5b023          	sd	a0,1408(a1) # 1580 <.LBB13_4+0x3e0>
    9768:	00001537          	lui	a0,0x1
    976c:	40a40533          	sub	a0,s0,a0
    9770:	59053503          	ld	a0,1424(a0) # 1590 <.LBB13_4+0x3f0>
    9774:	03850533          	mul	a0,a0,s8
    9778:	000015b7          	lui	a1,0x1
    977c:	40b405b3          	sub	a1,s0,a1
    9780:	5885b583          	ld	a1,1416(a1) # 1588 <.LBB13_4+0x3e8>
    9784:	017585b3          	add	a1,a1,s7
    9788:	00b50533          	add	a0,a0,a1
    978c:	42155513          	srai	a0,a0,0x21
    9790:	00a025b3          	sgtz	a1,a0
    9794:	40b005b3          	neg	a1,a1
    9798:	00a5f533          	and	a0,a1,a0
    979c:	01954463          	blt	a0,s9,97a4 <.LBB13_790>
    97a0:	0ff00513          	li	a0,255

00000000000097a4 <.LBB13_790>:
    97a4:	000015b7          	lui	a1,0x1
    97a8:	40b405b3          	sub	a1,s0,a1
    97ac:	58a5b823          	sd	a0,1424(a1) # 1590 <.LBB13_4+0x3f0>
    97b0:	00001537          	lui	a0,0x1
    97b4:	40a40533          	sub	a0,s0,a0
    97b8:	5a053503          	ld	a0,1440(a0) # 15a0 <.LBB13_4+0x400>
    97bc:	03850533          	mul	a0,a0,s8
    97c0:	000015b7          	lui	a1,0x1
    97c4:	40b405b3          	sub	a1,s0,a1
    97c8:	5985b583          	ld	a1,1432(a1) # 1598 <.LBB13_4+0x3f8>
    97cc:	017585b3          	add	a1,a1,s7
    97d0:	00b50533          	add	a0,a0,a1
    97d4:	42155513          	srai	a0,a0,0x21
    97d8:	00a025b3          	sgtz	a1,a0
    97dc:	40b005b3          	neg	a1,a1
    97e0:	00a5f533          	and	a0,a1,a0
    97e4:	01954463          	blt	a0,s9,97ec <.LBB13_792>
    97e8:	0ff00513          	li	a0,255

00000000000097ec <.LBB13_792>:
    97ec:	000015b7          	lui	a1,0x1
    97f0:	40b405b3          	sub	a1,s0,a1
    97f4:	5aa5b023          	sd	a0,1440(a1) # 15a0 <.LBB13_4+0x400>
    97f8:	00001537          	lui	a0,0x1
    97fc:	40a40533          	sub	a0,s0,a0
    9800:	5b053503          	ld	a0,1456(a0) # 15b0 <.LBB13_4+0x410>
    9804:	03850533          	mul	a0,a0,s8
    9808:	000015b7          	lui	a1,0x1
    980c:	40b405b3          	sub	a1,s0,a1
    9810:	5a85b583          	ld	a1,1448(a1) # 15a8 <.LBB13_4+0x408>
    9814:	017585b3          	add	a1,a1,s7
    9818:	00b50533          	add	a0,a0,a1
    981c:	42155513          	srai	a0,a0,0x21
    9820:	00a025b3          	sgtz	a1,a0
    9824:	40b005b3          	neg	a1,a1
    9828:	00a5f533          	and	a0,a1,a0
    982c:	01954463          	blt	a0,s9,9834 <.LBB13_794>
    9830:	0ff00513          	li	a0,255

0000000000009834 <.LBB13_794>:
    9834:	000015b7          	lui	a1,0x1
    9838:	40b405b3          	sub	a1,s0,a1
    983c:	5aa5b823          	sd	a0,1456(a1) # 15b0 <.LBB13_4+0x410>
    9840:	00001537          	lui	a0,0x1
    9844:	40a40533          	sub	a0,s0,a0
    9848:	5c053503          	ld	a0,1472(a0) # 15c0 <.LBB13_4+0x420>
    984c:	03850533          	mul	a0,a0,s8
    9850:	000015b7          	lui	a1,0x1
    9854:	40b405b3          	sub	a1,s0,a1
    9858:	5b85b583          	ld	a1,1464(a1) # 15b8 <.LBB13_4+0x418>
    985c:	017585b3          	add	a1,a1,s7
    9860:	00b50533          	add	a0,a0,a1
    9864:	42155513          	srai	a0,a0,0x21
    9868:	00a025b3          	sgtz	a1,a0
    986c:	40b005b3          	neg	a1,a1
    9870:	00a5f533          	and	a0,a1,a0
    9874:	01954463          	blt	a0,s9,987c <.LBB13_796>
    9878:	0ff00513          	li	a0,255

000000000000987c <.LBB13_796>:
    987c:	000015b7          	lui	a1,0x1
    9880:	40b405b3          	sub	a1,s0,a1
    9884:	5ca5b023          	sd	a0,1472(a1) # 15c0 <.LBB13_4+0x420>
    9888:	00001537          	lui	a0,0x1
    988c:	40a40533          	sub	a0,s0,a0
    9890:	5d053503          	ld	a0,1488(a0) # 15d0 <.LBB13_4+0x430>
    9894:	03850533          	mul	a0,a0,s8
    9898:	000015b7          	lui	a1,0x1
    989c:	40b405b3          	sub	a1,s0,a1
    98a0:	5c85b583          	ld	a1,1480(a1) # 15c8 <.LBB13_4+0x428>
    98a4:	017585b3          	add	a1,a1,s7
    98a8:	00b50533          	add	a0,a0,a1
    98ac:	42155513          	srai	a0,a0,0x21
    98b0:	00a025b3          	sgtz	a1,a0
    98b4:	40b005b3          	neg	a1,a1
    98b8:	00a5f533          	and	a0,a1,a0
    98bc:	01954463          	blt	a0,s9,98c4 <.LBB13_798>
    98c0:	0ff00513          	li	a0,255

00000000000098c4 <.LBB13_798>:
    98c4:	000015b7          	lui	a1,0x1
    98c8:	40b405b3          	sub	a1,s0,a1
    98cc:	5ca5b823          	sd	a0,1488(a1) # 15d0 <.LBB13_4+0x430>
    98d0:	00001537          	lui	a0,0x1
    98d4:	40a40533          	sub	a0,s0,a0
    98d8:	5e053503          	ld	a0,1504(a0) # 15e0 <.LBB13_4+0x440>
    98dc:	03850533          	mul	a0,a0,s8
    98e0:	000015b7          	lui	a1,0x1
    98e4:	40b405b3          	sub	a1,s0,a1
    98e8:	5d85b583          	ld	a1,1496(a1) # 15d8 <.LBB13_4+0x438>
    98ec:	017585b3          	add	a1,a1,s7
    98f0:	00b50533          	add	a0,a0,a1
    98f4:	42155513          	srai	a0,a0,0x21
    98f8:	00a025b3          	sgtz	a1,a0
    98fc:	40b005b3          	neg	a1,a1
    9900:	00a5f533          	and	a0,a1,a0
    9904:	01954463          	blt	a0,s9,990c <.LBB13_800>
    9908:	0ff00513          	li	a0,255

000000000000990c <.LBB13_800>:
    990c:	000015b7          	lui	a1,0x1
    9910:	40b405b3          	sub	a1,s0,a1
    9914:	5ea5b023          	sd	a0,1504(a1) # 15e0 <.LBB13_4+0x440>
    9918:	00001537          	lui	a0,0x1
    991c:	40a40533          	sub	a0,s0,a0
    9920:	5f053503          	ld	a0,1520(a0) # 15f0 <.LBB13_4+0x450>
    9924:	03850533          	mul	a0,a0,s8
    9928:	000015b7          	lui	a1,0x1
    992c:	40b405b3          	sub	a1,s0,a1
    9930:	5e85b583          	ld	a1,1512(a1) # 15e8 <.LBB13_4+0x448>
    9934:	017585b3          	add	a1,a1,s7
    9938:	00b50533          	add	a0,a0,a1
    993c:	42155513          	srai	a0,a0,0x21
    9940:	00a025b3          	sgtz	a1,a0
    9944:	40b005b3          	neg	a1,a1
    9948:	00a5f533          	and	a0,a1,a0
    994c:	01954463          	blt	a0,s9,9954 <.LBB13_802>
    9950:	0ff00513          	li	a0,255

0000000000009954 <.LBB13_802>:
    9954:	000015b7          	lui	a1,0x1
    9958:	40b405b3          	sub	a1,s0,a1
    995c:	5ea5b823          	sd	a0,1520(a1) # 15f0 <.LBB13_4+0x450>
    9960:	00001537          	lui	a0,0x1
    9964:	40a40533          	sub	a0,s0,a0
    9968:	60053503          	ld	a0,1536(a0) # 1600 <.LBB13_4+0x460>
    996c:	03850533          	mul	a0,a0,s8
    9970:	000015b7          	lui	a1,0x1
    9974:	40b405b3          	sub	a1,s0,a1
    9978:	5f85b583          	ld	a1,1528(a1) # 15f8 <.LBB13_4+0x458>
    997c:	017585b3          	add	a1,a1,s7
    9980:	00b50533          	add	a0,a0,a1
    9984:	42155513          	srai	a0,a0,0x21
    9988:	00a025b3          	sgtz	a1,a0
    998c:	40b005b3          	neg	a1,a1
    9990:	00a5f533          	and	a0,a1,a0
    9994:	01954463          	blt	a0,s9,999c <.LBB13_804>
    9998:	0ff00513          	li	a0,255

000000000000999c <.LBB13_804>:
    999c:	000015b7          	lui	a1,0x1
    99a0:	40b405b3          	sub	a1,s0,a1
    99a4:	60a5b023          	sd	a0,1536(a1) # 1600 <.LBB13_4+0x460>
    99a8:	00001537          	lui	a0,0x1
    99ac:	40a40533          	sub	a0,s0,a0
    99b0:	61053503          	ld	a0,1552(a0) # 1610 <.LBB13_4+0x470>
    99b4:	03850533          	mul	a0,a0,s8
    99b8:	000015b7          	lui	a1,0x1
    99bc:	40b405b3          	sub	a1,s0,a1
    99c0:	6085b583          	ld	a1,1544(a1) # 1608 <.LBB13_4+0x468>
    99c4:	017585b3          	add	a1,a1,s7
    99c8:	00b50533          	add	a0,a0,a1
    99cc:	42155513          	srai	a0,a0,0x21
    99d0:	00a025b3          	sgtz	a1,a0
    99d4:	40b005b3          	neg	a1,a1
    99d8:	00a5f533          	and	a0,a1,a0
    99dc:	01954463          	blt	a0,s9,99e4 <.LBB13_806>
    99e0:	0ff00513          	li	a0,255

00000000000099e4 <.LBB13_806>:
    99e4:	000015b7          	lui	a1,0x1
    99e8:	40b405b3          	sub	a1,s0,a1
    99ec:	60a5b823          	sd	a0,1552(a1) # 1610 <.LBB13_4+0x470>
    99f0:	00001537          	lui	a0,0x1
    99f4:	40a40533          	sub	a0,s0,a0
    99f8:	70053503          	ld	a0,1792(a0) # 1700 <.LBB13_5+0x54>
    99fc:	03850533          	mul	a0,a0,s8
    9a00:	000015b7          	lui	a1,0x1
    9a04:	40b405b3          	sub	a1,s0,a1
    9a08:	6185b583          	ld	a1,1560(a1) # 1618 <.LBB13_4+0x478>
    9a0c:	017585b3          	add	a1,a1,s7
    9a10:	00b50533          	add	a0,a0,a1
    9a14:	42155513          	srai	a0,a0,0x21
    9a18:	00a025b3          	sgtz	a1,a0
    9a1c:	40b005b3          	neg	a1,a1
    9a20:	00a5f533          	and	a0,a1,a0
    9a24:	01954463          	blt	a0,s9,9a2c <.LBB13_808>
    9a28:	0ff00513          	li	a0,255

0000000000009a2c <.LBB13_808>:
    9a2c:	000015b7          	lui	a1,0x1
    9a30:	40b405b3          	sub	a1,s0,a1
    9a34:	70a5b023          	sd	a0,1792(a1) # 1700 <.LBB13_5+0x54>
    9a38:	00001537          	lui	a0,0x1
    9a3c:	40a40533          	sub	a0,s0,a0
    9a40:	71053503          	ld	a0,1808(a0) # 1710 <.LBB13_5+0x64>
    9a44:	03850533          	mul	a0,a0,s8
    9a48:	000015b7          	lui	a1,0x1
    9a4c:	40b405b3          	sub	a1,s0,a1
    9a50:	7085b583          	ld	a1,1800(a1) # 1708 <.LBB13_5+0x5c>
    9a54:	017585b3          	add	a1,a1,s7
    9a58:	00b50533          	add	a0,a0,a1
    9a5c:	42155513          	srai	a0,a0,0x21
    9a60:	00a025b3          	sgtz	a1,a0
    9a64:	40b005b3          	neg	a1,a1
    9a68:	00a5f533          	and	a0,a1,a0
    9a6c:	01954463          	blt	a0,s9,9a74 <.LBB13_810>
    9a70:	0ff00513          	li	a0,255

0000000000009a74 <.LBB13_810>:
    9a74:	000015b7          	lui	a1,0x1
    9a78:	40b405b3          	sub	a1,s0,a1
    9a7c:	70a5b823          	sd	a0,1808(a1) # 1710 <.LBB13_5+0x64>
    9a80:	00001537          	lui	a0,0x1
    9a84:	40a40533          	sub	a0,s0,a0
    9a88:	77053503          	ld	a0,1904(a0) # 1770 <.LBB13_5+0xc4>
    9a8c:	03850533          	mul	a0,a0,s8
    9a90:	000015b7          	lui	a1,0x1
    9a94:	40b405b3          	sub	a1,s0,a1
    9a98:	7185b583          	ld	a1,1816(a1) # 1718 <.LBB13_5+0x6c>
    9a9c:	017585b3          	add	a1,a1,s7
    9aa0:	00b50533          	add	a0,a0,a1
    9aa4:	42155513          	srai	a0,a0,0x21
    9aa8:	00a025b3          	sgtz	a1,a0
    9aac:	40b005b3          	neg	a1,a1
    9ab0:	00a5f533          	and	a0,a1,a0
    9ab4:	01954463          	blt	a0,s9,9abc <.LBB13_812>
    9ab8:	0ff00513          	li	a0,255

0000000000009abc <.LBB13_812>:
    9abc:	000015b7          	lui	a1,0x1
    9ac0:	40b405b3          	sub	a1,s0,a1
    9ac4:	76a5b823          	sd	a0,1904(a1) # 1770 <.LBB13_5+0xc4>
    9ac8:	00001537          	lui	a0,0x1
    9acc:	40a40533          	sub	a0,s0,a0
    9ad0:	78053503          	ld	a0,1920(a0) # 1780 <.LBB13_5+0xd4>
    9ad4:	03850533          	mul	a0,a0,s8
    9ad8:	000015b7          	lui	a1,0x1
    9adc:	40b405b3          	sub	a1,s0,a1
    9ae0:	7785b583          	ld	a1,1912(a1) # 1778 <.LBB13_5+0xcc>
    9ae4:	017585b3          	add	a1,a1,s7
    9ae8:	00b50533          	add	a0,a0,a1
    9aec:	42155513          	srai	a0,a0,0x21
    9af0:	00a025b3          	sgtz	a1,a0
    9af4:	40b005b3          	neg	a1,a1
    9af8:	00a5f533          	and	a0,a1,a0
    9afc:	01954463          	blt	a0,s9,9b04 <.LBB13_814>
    9b00:	0ff00513          	li	a0,255

0000000000009b04 <.LBB13_814>:
    9b04:	000015b7          	lui	a1,0x1
    9b08:	40b405b3          	sub	a1,s0,a1
    9b0c:	78a5b023          	sd	a0,1920(a1) # 1780 <.LBB13_5+0xd4>
    9b10:	00001537          	lui	a0,0x1
    9b14:	40a40533          	sub	a0,s0,a0
    9b18:	79053503          	ld	a0,1936(a0) # 1790 <.LBB13_5+0xe4>
    9b1c:	03850533          	mul	a0,a0,s8
    9b20:	000015b7          	lui	a1,0x1
    9b24:	40b405b3          	sub	a1,s0,a1
    9b28:	7885b583          	ld	a1,1928(a1) # 1788 <.LBB13_5+0xdc>
    9b2c:	017585b3          	add	a1,a1,s7
    9b30:	00b50533          	add	a0,a0,a1
    9b34:	42155513          	srai	a0,a0,0x21
    9b38:	00a025b3          	sgtz	a1,a0
    9b3c:	40b005b3          	neg	a1,a1
    9b40:	00a5f533          	and	a0,a1,a0
    9b44:	01954463          	blt	a0,s9,9b4c <.LBB13_816>
    9b48:	0ff00513          	li	a0,255

0000000000009b4c <.LBB13_816>:
    9b4c:	000015b7          	lui	a1,0x1
    9b50:	40b405b3          	sub	a1,s0,a1
    9b54:	78a5b823          	sd	a0,1936(a1) # 1790 <.LBB13_5+0xe4>
    9b58:	00001537          	lui	a0,0x1
    9b5c:	40a40533          	sub	a0,s0,a0
    9b60:	7a853503          	ld	a0,1960(a0) # 17a8 <.LBB13_5+0xfc>
    9b64:	03850533          	mul	a0,a0,s8
    9b68:	000015b7          	lui	a1,0x1
    9b6c:	40b405b3          	sub	a1,s0,a1
    9b70:	7985b583          	ld	a1,1944(a1) # 1798 <.LBB13_5+0xec>
    9b74:	017585b3          	add	a1,a1,s7
    9b78:	00b50533          	add	a0,a0,a1
    9b7c:	42155513          	srai	a0,a0,0x21
    9b80:	00a025b3          	sgtz	a1,a0
    9b84:	40b005b3          	neg	a1,a1
    9b88:	00a5f533          	and	a0,a1,a0
    9b8c:	01954463          	blt	a0,s9,9b94 <.LBB13_818>
    9b90:	0ff00513          	li	a0,255

0000000000009b94 <.LBB13_818>:
    9b94:	000015b7          	lui	a1,0x1
    9b98:	40b405b3          	sub	a1,s0,a1
    9b9c:	7aa5b423          	sd	a0,1960(a1) # 17a8 <.LBB13_5+0xfc>
    9ba0:	00001537          	lui	a0,0x1
    9ba4:	40a40533          	sub	a0,s0,a0
    9ba8:	7b853503          	ld	a0,1976(a0) # 17b8 <.LBB13_5+0x10c>
    9bac:	03850533          	mul	a0,a0,s8
    9bb0:	000015b7          	lui	a1,0x1
    9bb4:	40b405b3          	sub	a1,s0,a1
    9bb8:	7b05b583          	ld	a1,1968(a1) # 17b0 <.LBB13_5+0x104>
    9bbc:	017585b3          	add	a1,a1,s7
    9bc0:	00b50533          	add	a0,a0,a1
    9bc4:	42155513          	srai	a0,a0,0x21
    9bc8:	00a025b3          	sgtz	a1,a0
    9bcc:	40b005b3          	neg	a1,a1
    9bd0:	00a5f533          	and	a0,a1,a0
    9bd4:	01954463          	blt	a0,s9,9bdc <.LBB13_820>
    9bd8:	0ff00513          	li	a0,255

0000000000009bdc <.LBB13_820>:
    9bdc:	000015b7          	lui	a1,0x1
    9be0:	40b405b3          	sub	a1,s0,a1
    9be4:	7aa5bc23          	sd	a0,1976(a1) # 17b8 <.LBB13_5+0x10c>
    9be8:	00001537          	lui	a0,0x1
    9bec:	40a40533          	sub	a0,s0,a0
    9bf0:	7c853503          	ld	a0,1992(a0) # 17c8 <.LBB13_5+0x11c>
    9bf4:	03850533          	mul	a0,a0,s8
    9bf8:	000015b7          	lui	a1,0x1
    9bfc:	40b405b3          	sub	a1,s0,a1
    9c00:	7c05b583          	ld	a1,1984(a1) # 17c0 <.LBB13_5+0x114>
    9c04:	017585b3          	add	a1,a1,s7
    9c08:	00b50533          	add	a0,a0,a1
    9c0c:	42155513          	srai	a0,a0,0x21
    9c10:	00a025b3          	sgtz	a1,a0
    9c14:	40b005b3          	neg	a1,a1
    9c18:	00a5f533          	and	a0,a1,a0
    9c1c:	01954463          	blt	a0,s9,9c24 <.LBB13_822>
    9c20:	0ff00513          	li	a0,255

0000000000009c24 <.LBB13_822>:
    9c24:	000015b7          	lui	a1,0x1
    9c28:	40b405b3          	sub	a1,s0,a1
    9c2c:	7ca5b423          	sd	a0,1992(a1) # 17c8 <.LBB13_5+0x11c>
    9c30:	00001537          	lui	a0,0x1
    9c34:	40a40533          	sub	a0,s0,a0
    9c38:	7d853503          	ld	a0,2008(a0) # 17d8 <.LBB13_5+0x12c>
    9c3c:	03850533          	mul	a0,a0,s8
    9c40:	000015b7          	lui	a1,0x1
    9c44:	40b405b3          	sub	a1,s0,a1
    9c48:	7d05b583          	ld	a1,2000(a1) # 17d0 <.LBB13_5+0x124>
    9c4c:	017585b3          	add	a1,a1,s7
    9c50:	00b50533          	add	a0,a0,a1
    9c54:	42155513          	srai	a0,a0,0x21
    9c58:	00a025b3          	sgtz	a1,a0
    9c5c:	40b005b3          	neg	a1,a1
    9c60:	00a5f533          	and	a0,a1,a0
    9c64:	01954463          	blt	a0,s9,9c6c <.LBB13_824>
    9c68:	0ff00513          	li	a0,255

0000000000009c6c <.LBB13_824>:
    9c6c:	000015b7          	lui	a1,0x1
    9c70:	40b405b3          	sub	a1,s0,a1
    9c74:	7ca5bc23          	sd	a0,2008(a1) # 17d8 <.LBB13_5+0x12c>
    9c78:	00001537          	lui	a0,0x1
    9c7c:	40a40533          	sub	a0,s0,a0
    9c80:	7e853503          	ld	a0,2024(a0) # 17e8 <.LBB13_5+0x13c>
    9c84:	03850533          	mul	a0,a0,s8
    9c88:	000015b7          	lui	a1,0x1
    9c8c:	40b405b3          	sub	a1,s0,a1
    9c90:	7e05b583          	ld	a1,2016(a1) # 17e0 <.LBB13_5+0x134>
    9c94:	017585b3          	add	a1,a1,s7
    9c98:	00b50533          	add	a0,a0,a1
    9c9c:	42155513          	srai	a0,a0,0x21
    9ca0:	00a025b3          	sgtz	a1,a0
    9ca4:	40b005b3          	neg	a1,a1
    9ca8:	00a5f533          	and	a0,a1,a0
    9cac:	01954463          	blt	a0,s9,9cb4 <.LBB13_826>
    9cb0:	0ff00513          	li	a0,255

0000000000009cb4 <.LBB13_826>:
    9cb4:	000015b7          	lui	a1,0x1
    9cb8:	40b405b3          	sub	a1,s0,a1
    9cbc:	7ea5b423          	sd	a0,2024(a1) # 17e8 <.LBB13_5+0x13c>
    9cc0:	00001537          	lui	a0,0x1
    9cc4:	40a40533          	sub	a0,s0,a0
    9cc8:	7f853503          	ld	a0,2040(a0) # 17f8 <.LBB13_5+0x14c>
    9ccc:	03850533          	mul	a0,a0,s8
    9cd0:	000015b7          	lui	a1,0x1
    9cd4:	40b405b3          	sub	a1,s0,a1
    9cd8:	7f05b583          	ld	a1,2032(a1) # 17f0 <.LBB13_5+0x144>
    9cdc:	017585b3          	add	a1,a1,s7
    9ce0:	00b50533          	add	a0,a0,a1
    9ce4:	42155513          	srai	a0,a0,0x21
    9ce8:	00a025b3          	sgtz	a1,a0
    9cec:	40b005b3          	neg	a1,a1
    9cf0:	00a5f533          	and	a0,a1,a0
    9cf4:	01954463          	blt	a0,s9,9cfc <.LBB13_828>
    9cf8:	0ff00513          	li	a0,255

0000000000009cfc <.LBB13_828>:
    9cfc:	000015b7          	lui	a1,0x1
    9d00:	40b405b3          	sub	a1,s0,a1
    9d04:	7ea5bc23          	sd	a0,2040(a1) # 17f8 <.LBB13_5+0x14c>
    9d08:	81043503          	ld	a0,-2032(s0)
    9d0c:	03850533          	mul	a0,a0,s8
    9d10:	80843583          	ld	a1,-2040(s0)
    9d14:	017585b3          	add	a1,a1,s7
    9d18:	00b50533          	add	a0,a0,a1
    9d1c:	42155513          	srai	a0,a0,0x21
    9d20:	00a025b3          	sgtz	a1,a0
    9d24:	40b005b3          	neg	a1,a1
    9d28:	00a5f533          	and	a0,a1,a0
    9d2c:	01954463          	blt	a0,s9,9d34 <.LBB13_830>
    9d30:	0ff00513          	li	a0,255

0000000000009d34 <.LBB13_830>:
    9d34:	80a43823          	sd	a0,-2032(s0)
    9d38:	82043503          	ld	a0,-2016(s0)
    9d3c:	03850533          	mul	a0,a0,s8
    9d40:	81843583          	ld	a1,-2024(s0)
    9d44:	017585b3          	add	a1,a1,s7
    9d48:	00b50533          	add	a0,a0,a1
    9d4c:	42155513          	srai	a0,a0,0x21
    9d50:	00a025b3          	sgtz	a1,a0
    9d54:	40b005b3          	neg	a1,a1
    9d58:	00a5f533          	and	a0,a1,a0
    9d5c:	01954463          	blt	a0,s9,9d64 <.LBB13_832>
    9d60:	0ff00513          	li	a0,255

0000000000009d64 <.LBB13_832>:
    9d64:	82a43023          	sd	a0,-2016(s0)
    9d68:	83043503          	ld	a0,-2000(s0)
    9d6c:	03850533          	mul	a0,a0,s8
    9d70:	82843583          	ld	a1,-2008(s0)
    9d74:	017585b3          	add	a1,a1,s7
    9d78:	00b50533          	add	a0,a0,a1
    9d7c:	42155513          	srai	a0,a0,0x21
    9d80:	00a025b3          	sgtz	a1,a0
    9d84:	40b005b3          	neg	a1,a1
    9d88:	00a5f533          	and	a0,a1,a0
    9d8c:	01954463          	blt	a0,s9,9d94 <.LBB13_834>
    9d90:	0ff00513          	li	a0,255

0000000000009d94 <.LBB13_834>:
    9d94:	82a43823          	sd	a0,-2000(s0)
    9d98:	84843503          	ld	a0,-1976(s0)
    9d9c:	03850533          	mul	a0,a0,s8
    9da0:	83843583          	ld	a1,-1992(s0)
    9da4:	017585b3          	add	a1,a1,s7
    9da8:	00b50533          	add	a0,a0,a1
    9dac:	42155513          	srai	a0,a0,0x21
    9db0:	00a025b3          	sgtz	a1,a0
    9db4:	40b005b3          	neg	a1,a1
    9db8:	00a5f533          	and	a0,a1,a0
    9dbc:	01954463          	blt	a0,s9,9dc4 <.LBB13_836>
    9dc0:	0ff00513          	li	a0,255

0000000000009dc4 <.LBB13_836>:
    9dc4:	84a43423          	sd	a0,-1976(s0)
    9dc8:	85843503          	ld	a0,-1960(s0)
    9dcc:	03850533          	mul	a0,a0,s8
    9dd0:	85043583          	ld	a1,-1968(s0)
    9dd4:	017585b3          	add	a1,a1,s7
    9dd8:	00b50533          	add	a0,a0,a1
    9ddc:	42155513          	srai	a0,a0,0x21
    9de0:	00a025b3          	sgtz	a1,a0
    9de4:	40b005b3          	neg	a1,a1
    9de8:	00a5f533          	and	a0,a1,a0
    9dec:	01954463          	blt	a0,s9,9df4 <.LBB13_838>
    9df0:	0ff00513          	li	a0,255

0000000000009df4 <.LBB13_838>:
    9df4:	84a43c23          	sd	a0,-1960(s0)
    9df8:	87043503          	ld	a0,-1936(s0)
    9dfc:	03850533          	mul	a0,a0,s8
    9e00:	86043583          	ld	a1,-1952(s0)
    9e04:	017585b3          	add	a1,a1,s7
    9e08:	00b50533          	add	a0,a0,a1
    9e0c:	42155513          	srai	a0,a0,0x21
    9e10:	00a025b3          	sgtz	a1,a0
    9e14:	40b005b3          	neg	a1,a1
    9e18:	00a5f533          	and	a0,a1,a0
    9e1c:	01954463          	blt	a0,s9,9e24 <.LBB13_840>
    9e20:	0ff00513          	li	a0,255

0000000000009e24 <.LBB13_840>:
    9e24:	86a43823          	sd	a0,-1936(s0)
    9e28:	88043503          	ld	a0,-1920(s0)
    9e2c:	03850533          	mul	a0,a0,s8
    9e30:	87843583          	ld	a1,-1928(s0)
    9e34:	017585b3          	add	a1,a1,s7
    9e38:	00b50533          	add	a0,a0,a1
    9e3c:	42155513          	srai	a0,a0,0x21
    9e40:	00a025b3          	sgtz	a1,a0
    9e44:	40b005b3          	neg	a1,a1
    9e48:	00a5f533          	and	a0,a1,a0
    9e4c:	01954463          	blt	a0,s9,9e54 <.LBB13_842>
    9e50:	0ff00513          	li	a0,255

0000000000009e54 <.LBB13_842>:
    9e54:	88a43023          	sd	a0,-1920(s0)
    9e58:	89043503          	ld	a0,-1904(s0)
    9e5c:	03850533          	mul	a0,a0,s8
    9e60:	88843583          	ld	a1,-1912(s0)
    9e64:	017585b3          	add	a1,a1,s7
    9e68:	00b50533          	add	a0,a0,a1
    9e6c:	42155513          	srai	a0,a0,0x21
    9e70:	00a025b3          	sgtz	a1,a0
    9e74:	40b005b3          	neg	a1,a1
    9e78:	00a5f533          	and	a0,a1,a0
    9e7c:	01954463          	blt	a0,s9,9e84 <.LBB13_844>
    9e80:	0ff00513          	li	a0,255

0000000000009e84 <.LBB13_844>:
    9e84:	88a43823          	sd	a0,-1904(s0)
    9e88:	8a043503          	ld	a0,-1888(s0)
    9e8c:	03850533          	mul	a0,a0,s8
    9e90:	89843583          	ld	a1,-1896(s0)
    9e94:	017585b3          	add	a1,a1,s7
    9e98:	00b50533          	add	a0,a0,a1
    9e9c:	42155513          	srai	a0,a0,0x21
    9ea0:	00a025b3          	sgtz	a1,a0
    9ea4:	40b005b3          	neg	a1,a1
    9ea8:	00a5f533          	and	a0,a1,a0
    9eac:	01954463          	blt	a0,s9,9eb4 <.LBB13_846>
    9eb0:	0ff00513          	li	a0,255

0000000000009eb4 <.LBB13_846>:
    9eb4:	8aa43023          	sd	a0,-1888(s0)
    9eb8:	8b843503          	ld	a0,-1864(s0)
    9ebc:	03850533          	mul	a0,a0,s8
    9ec0:	8b043583          	ld	a1,-1872(s0)
    9ec4:	017585b3          	add	a1,a1,s7
    9ec8:	00b50533          	add	a0,a0,a1
    9ecc:	42155513          	srai	a0,a0,0x21
    9ed0:	00a025b3          	sgtz	a1,a0
    9ed4:	40b005b3          	neg	a1,a1
    9ed8:	00a5f533          	and	a0,a1,a0
    9edc:	01954463          	blt	a0,s9,9ee4 <.LBB13_848>
    9ee0:	0ff00513          	li	a0,255

0000000000009ee4 <.LBB13_848>:
    9ee4:	8aa43c23          	sd	a0,-1864(s0)
    9ee8:	8c843503          	ld	a0,-1848(s0)
    9eec:	03850533          	mul	a0,a0,s8
    9ef0:	8c043583          	ld	a1,-1856(s0)
    9ef4:	017585b3          	add	a1,a1,s7
    9ef8:	00b50533          	add	a0,a0,a1
    9efc:	42155513          	srai	a0,a0,0x21
    9f00:	00a025b3          	sgtz	a1,a0
    9f04:	40b005b3          	neg	a1,a1
    9f08:	00a5f533          	and	a0,a1,a0
    9f0c:	01954463          	blt	a0,s9,9f14 <.LBB13_850>
    9f10:	0ff00513          	li	a0,255

0000000000009f14 <.LBB13_850>:
    9f14:	8ca43423          	sd	a0,-1848(s0)
    9f18:	8d843503          	ld	a0,-1832(s0)
    9f1c:	03850533          	mul	a0,a0,s8
    9f20:	8d043583          	ld	a1,-1840(s0)
    9f24:	017585b3          	add	a1,a1,s7
    9f28:	00b50533          	add	a0,a0,a1
    9f2c:	42155513          	srai	a0,a0,0x21
    9f30:	00a025b3          	sgtz	a1,a0
    9f34:	40b005b3          	neg	a1,a1
    9f38:	00a5f533          	and	a0,a1,a0
    9f3c:	01954463          	blt	a0,s9,9f44 <.LBB13_852>
    9f40:	0ff00513          	li	a0,255

0000000000009f44 <.LBB13_852>:
    9f44:	8ca43c23          	sd	a0,-1832(s0)
    9f48:	8e843503          	ld	a0,-1816(s0)
    9f4c:	03850533          	mul	a0,a0,s8
    9f50:	8e043583          	ld	a1,-1824(s0)
    9f54:	017585b3          	add	a1,a1,s7
    9f58:	00b50533          	add	a0,a0,a1
    9f5c:	42155513          	srai	a0,a0,0x21
    9f60:	00a025b3          	sgtz	a1,a0
    9f64:	40b005b3          	neg	a1,a1
    9f68:	00a5f533          	and	a0,a1,a0
    9f6c:	01954463          	blt	a0,s9,9f74 <.LBB13_854>
    9f70:	0ff00513          	li	a0,255

0000000000009f74 <.LBB13_854>:
    9f74:	8ea43423          	sd	a0,-1816(s0)
    9f78:	90043503          	ld	a0,-1792(s0)
    9f7c:	03850533          	mul	a0,a0,s8
    9f80:	8f843583          	ld	a1,-1800(s0)
    9f84:	017585b3          	add	a1,a1,s7
    9f88:	00b50533          	add	a0,a0,a1
    9f8c:	42155513          	srai	a0,a0,0x21
    9f90:	00a025b3          	sgtz	a1,a0
    9f94:	40b005b3          	neg	a1,a1
    9f98:	00a5f533          	and	a0,a1,a0
    9f9c:	01954463          	blt	a0,s9,9fa4 <.LBB13_856>
    9fa0:	0ff00513          	li	a0,255

0000000000009fa4 <.LBB13_856>:
    9fa4:	90a43023          	sd	a0,-1792(s0)
    9fa8:	91043503          	ld	a0,-1776(s0)
    9fac:	03850533          	mul	a0,a0,s8
    9fb0:	90843583          	ld	a1,-1784(s0)
    9fb4:	017585b3          	add	a1,a1,s7
    9fb8:	00b50533          	add	a0,a0,a1
    9fbc:	42155513          	srai	a0,a0,0x21
    9fc0:	00a025b3          	sgtz	a1,a0
    9fc4:	40b005b3          	neg	a1,a1
    9fc8:	00a5f533          	and	a0,a1,a0
    9fcc:	01954463          	blt	a0,s9,9fd4 <.LBB13_858>
    9fd0:	0ff00513          	li	a0,255

0000000000009fd4 <.LBB13_858>:
    9fd4:	90a43823          	sd	a0,-1776(s0)
    9fd8:	92043503          	ld	a0,-1760(s0)
    9fdc:	03850533          	mul	a0,a0,s8
    9fe0:	91843583          	ld	a1,-1768(s0)
    9fe4:	017585b3          	add	a1,a1,s7
    9fe8:	00b50533          	add	a0,a0,a1
    9fec:	42155513          	srai	a0,a0,0x21
    9ff0:	00a025b3          	sgtz	a1,a0
    9ff4:	40b005b3          	neg	a1,a1
    9ff8:	00a5f533          	and	a0,a1,a0
    9ffc:	01954463          	blt	a0,s9,a004 <.LBB13_860>
    a000:	0ff00513          	li	a0,255

000000000000a004 <.LBB13_860>:
    a004:	92a43023          	sd	a0,-1760(s0)
    a008:	93843503          	ld	a0,-1736(s0)
    a00c:	03850533          	mul	a0,a0,s8
    a010:	92843583          	ld	a1,-1752(s0)
    a014:	017585b3          	add	a1,a1,s7
    a018:	00b50533          	add	a0,a0,a1
    a01c:	42155513          	srai	a0,a0,0x21
    a020:	00a025b3          	sgtz	a1,a0
    a024:	40b005b3          	neg	a1,a1
    a028:	00a5f533          	and	a0,a1,a0
    a02c:	01954463          	blt	a0,s9,a034 <.LBB13_862>
    a030:	0ff00513          	li	a0,255

000000000000a034 <.LBB13_862>:
    a034:	92a43c23          	sd	a0,-1736(s0)
    a038:	94843503          	ld	a0,-1720(s0)
    a03c:	03850533          	mul	a0,a0,s8
    a040:	94043583          	ld	a1,-1728(s0)
    a044:	017585b3          	add	a1,a1,s7
    a048:	00b50533          	add	a0,a0,a1
    a04c:	42155513          	srai	a0,a0,0x21
    a050:	00a025b3          	sgtz	a1,a0
    a054:	40b005b3          	neg	a1,a1
    a058:	00a5f533          	and	a0,a1,a0
    a05c:	01954463          	blt	a0,s9,a064 <.LBB13_864>
    a060:	0ff00513          	li	a0,255

000000000000a064 <.LBB13_864>:
    a064:	94a43423          	sd	a0,-1720(s0)
    a068:	95843503          	ld	a0,-1704(s0)
    a06c:	03850533          	mul	a0,a0,s8
    a070:	95043583          	ld	a1,-1712(s0)
    a074:	017585b3          	add	a1,a1,s7
    a078:	00b50533          	add	a0,a0,a1
    a07c:	42155513          	srai	a0,a0,0x21
    a080:	00a025b3          	sgtz	a1,a0
    a084:	40b005b3          	neg	a1,a1
    a088:	00a5f533          	and	a0,a1,a0
    a08c:	01954463          	blt	a0,s9,a094 <.LBB13_866>
    a090:	0ff00513          	li	a0,255

000000000000a094 <.LBB13_866>:
    a094:	94a43c23          	sd	a0,-1704(s0)
    a098:	96843503          	ld	a0,-1688(s0)
    a09c:	03850533          	mul	a0,a0,s8
    a0a0:	96043583          	ld	a1,-1696(s0)
    a0a4:	017585b3          	add	a1,a1,s7
    a0a8:	00b50533          	add	a0,a0,a1
    a0ac:	42155513          	srai	a0,a0,0x21
    a0b0:	00a025b3          	sgtz	a1,a0
    a0b4:	40b005b3          	neg	a1,a1
    a0b8:	00a5f533          	and	a0,a1,a0
    a0bc:	01954463          	blt	a0,s9,a0c4 <.LBB13_868>
    a0c0:	0ff00513          	li	a0,255

000000000000a0c4 <.LBB13_868>:
    a0c4:	96a43423          	sd	a0,-1688(s0)
    a0c8:	98043503          	ld	a0,-1664(s0)
    a0cc:	03850533          	mul	a0,a0,s8
    a0d0:	97843583          	ld	a1,-1672(s0)
    a0d4:	017585b3          	add	a1,a1,s7
    a0d8:	00b50533          	add	a0,a0,a1
    a0dc:	42155513          	srai	a0,a0,0x21
    a0e0:	00a025b3          	sgtz	a1,a0
    a0e4:	40b005b3          	neg	a1,a1
    a0e8:	00a5f533          	and	a0,a1,a0
    a0ec:	01954463          	blt	a0,s9,a0f4 <.LBB13_870>
    a0f0:	0ff00513          	li	a0,255

000000000000a0f4 <.LBB13_870>:
    a0f4:	98a43023          	sd	a0,-1664(s0)
    a0f8:	99043503          	ld	a0,-1648(s0)
    a0fc:	03850533          	mul	a0,a0,s8
    a100:	98843583          	ld	a1,-1656(s0)
    a104:	017585b3          	add	a1,a1,s7
    a108:	00b50533          	add	a0,a0,a1
    a10c:	42155513          	srai	a0,a0,0x21
    a110:	00a025b3          	sgtz	a1,a0
    a114:	40b005b3          	neg	a1,a1
    a118:	00a5f533          	and	a0,a1,a0
    a11c:	01954463          	blt	a0,s9,a124 <.LBB13_872>
    a120:	0ff00513          	li	a0,255

000000000000a124 <.LBB13_872>:
    a124:	98a43823          	sd	a0,-1648(s0)
    a128:	9a043503          	ld	a0,-1632(s0)
    a12c:	03850533          	mul	a0,a0,s8
    a130:	99843583          	ld	a1,-1640(s0)
    a134:	017585b3          	add	a1,a1,s7
    a138:	00b50533          	add	a0,a0,a1
    a13c:	42155513          	srai	a0,a0,0x21
    a140:	00a025b3          	sgtz	a1,a0
    a144:	40b005b3          	neg	a1,a1
    a148:	00a5f533          	and	a0,a1,a0
    a14c:	01954463          	blt	a0,s9,a154 <.LBB13_874>
    a150:	0ff00513          	li	a0,255

000000000000a154 <.LBB13_874>:
    a154:	9aa43023          	sd	a0,-1632(s0)
    a158:	9b043503          	ld	a0,-1616(s0)
    a15c:	03850533          	mul	a0,a0,s8
    a160:	9a843583          	ld	a1,-1624(s0)
    a164:	017585b3          	add	a1,a1,s7
    a168:	00b50533          	add	a0,a0,a1
    a16c:	42155513          	srai	a0,a0,0x21
    a170:	00a025b3          	sgtz	a1,a0
    a174:	40b005b3          	neg	a1,a1
    a178:	00a5f533          	and	a0,a1,a0
    a17c:	01954463          	blt	a0,s9,a184 <.LBB13_876>
    a180:	0ff00513          	li	a0,255

000000000000a184 <.LBB13_876>:
    a184:	9aa43823          	sd	a0,-1616(s0)
    a188:	9c843503          	ld	a0,-1592(s0)
    a18c:	03850533          	mul	a0,a0,s8
    a190:	9c043583          	ld	a1,-1600(s0)
    a194:	017585b3          	add	a1,a1,s7
    a198:	00b50533          	add	a0,a0,a1
    a19c:	42155513          	srai	a0,a0,0x21
    a1a0:	00a025b3          	sgtz	a1,a0
    a1a4:	40b005b3          	neg	a1,a1
    a1a8:	00a5f533          	and	a0,a1,a0
    a1ac:	01954463          	blt	a0,s9,a1b4 <.LBB13_878>
    a1b0:	0ff00513          	li	a0,255

000000000000a1b4 <.LBB13_878>:
    a1b4:	9ca43423          	sd	a0,-1592(s0)
    a1b8:	9d843503          	ld	a0,-1576(s0)
    a1bc:	03850533          	mul	a0,a0,s8
    a1c0:	9d043583          	ld	a1,-1584(s0)
    a1c4:	017585b3          	add	a1,a1,s7
    a1c8:	00b50533          	add	a0,a0,a1
    a1cc:	42155513          	srai	a0,a0,0x21
    a1d0:	00a025b3          	sgtz	a1,a0
    a1d4:	40b005b3          	neg	a1,a1
    a1d8:	00a5f533          	and	a0,a1,a0
    a1dc:	01954463          	blt	a0,s9,a1e4 <.LBB13_880>
    a1e0:	0ff00513          	li	a0,255

000000000000a1e4 <.LBB13_880>:
    a1e4:	9ca43c23          	sd	a0,-1576(s0)
    a1e8:	9e843503          	ld	a0,-1560(s0)
    a1ec:	03850533          	mul	a0,a0,s8
    a1f0:	9e043583          	ld	a1,-1568(s0)
    a1f4:	017585b3          	add	a1,a1,s7
    a1f8:	00b50533          	add	a0,a0,a1
    a1fc:	42155513          	srai	a0,a0,0x21
    a200:	00a025b3          	sgtz	a1,a0
    a204:	40b005b3          	neg	a1,a1
    a208:	00a5f533          	and	a0,a1,a0
    a20c:	01954463          	blt	a0,s9,a214 <.LBB13_882>
    a210:	0ff00513          	li	a0,255

000000000000a214 <.LBB13_882>:
    a214:	9ea43423          	sd	a0,-1560(s0)
    a218:	a0043503          	ld	a0,-1536(s0)
    a21c:	03850533          	mul	a0,a0,s8
    a220:	9f043583          	ld	a1,-1552(s0)
    a224:	017585b3          	add	a1,a1,s7
    a228:	00b50533          	add	a0,a0,a1
    a22c:	42155513          	srai	a0,a0,0x21
    a230:	00a025b3          	sgtz	a1,a0
    a234:	40b005b3          	neg	a1,a1
    a238:	00a5f533          	and	a0,a1,a0
    a23c:	01954463          	blt	a0,s9,a244 <.LBB13_884>
    a240:	0ff00513          	li	a0,255

000000000000a244 <.LBB13_884>:
    a244:	a0a43023          	sd	a0,-1536(s0)
    a248:	a1043503          	ld	a0,-1520(s0)
    a24c:	03850533          	mul	a0,a0,s8
    a250:	a0843583          	ld	a1,-1528(s0)
    a254:	017585b3          	add	a1,a1,s7
    a258:	00b50533          	add	a0,a0,a1
    a25c:	42155513          	srai	a0,a0,0x21
    a260:	00a025b3          	sgtz	a1,a0
    a264:	40b005b3          	neg	a1,a1
    a268:	00a5f533          	and	a0,a1,a0
    a26c:	01954463          	blt	a0,s9,a274 <.LBB13_886>
    a270:	0ff00513          	li	a0,255

000000000000a274 <.LBB13_886>:
    a274:	a0a43823          	sd	a0,-1520(s0)
    a278:	a2043503          	ld	a0,-1504(s0)
    a27c:	03850533          	mul	a0,a0,s8
    a280:	a1843583          	ld	a1,-1512(s0)
    a284:	017585b3          	add	a1,a1,s7
    a288:	00b50533          	add	a0,a0,a1
    a28c:	42155513          	srai	a0,a0,0x21
    a290:	00a025b3          	sgtz	a1,a0
    a294:	40b005b3          	neg	a1,a1
    a298:	00a5f533          	and	a0,a1,a0
    a29c:	01954463          	blt	a0,s9,a2a4 <.LBB13_888>
    a2a0:	0ff00513          	li	a0,255

000000000000a2a4 <.LBB13_888>:
    a2a4:	a2a43023          	sd	a0,-1504(s0)
    a2a8:	a3043503          	ld	a0,-1488(s0)
    a2ac:	03850533          	mul	a0,a0,s8
    a2b0:	a2843583          	ld	a1,-1496(s0)
    a2b4:	017585b3          	add	a1,a1,s7
    a2b8:	00b50533          	add	a0,a0,a1
    a2bc:	42155513          	srai	a0,a0,0x21
    a2c0:	00a025b3          	sgtz	a1,a0
    a2c4:	40b005b3          	neg	a1,a1
    a2c8:	00a5f533          	and	a0,a1,a0
    a2cc:	01954463          	blt	a0,s9,a2d4 <.LBB13_890>
    a2d0:	0ff00513          	li	a0,255

000000000000a2d4 <.LBB13_890>:
    a2d4:	a2a43823          	sd	a0,-1488(s0)
    a2d8:	a4843503          	ld	a0,-1464(s0)
    a2dc:	03850533          	mul	a0,a0,s8
    a2e0:	a4043583          	ld	a1,-1472(s0)
    a2e4:	017585b3          	add	a1,a1,s7
    a2e8:	00b50533          	add	a0,a0,a1
    a2ec:	42155513          	srai	a0,a0,0x21
    a2f0:	00a025b3          	sgtz	a1,a0
    a2f4:	40b005b3          	neg	a1,a1
    a2f8:	00a5f533          	and	a0,a1,a0
    a2fc:	01954463          	blt	a0,s9,a304 <.LBB13_892>
    a300:	0ff00513          	li	a0,255

000000000000a304 <.LBB13_892>:
    a304:	a4a43423          	sd	a0,-1464(s0)
    a308:	a5843503          	ld	a0,-1448(s0)
    a30c:	03850533          	mul	a0,a0,s8
    a310:	a5043583          	ld	a1,-1456(s0)
    a314:	017585b3          	add	a1,a1,s7
    a318:	00b50533          	add	a0,a0,a1
    a31c:	42155513          	srai	a0,a0,0x21
    a320:	00a025b3          	sgtz	a1,a0
    a324:	40b005b3          	neg	a1,a1
    a328:	00a5f533          	and	a0,a1,a0
    a32c:	01954463          	blt	a0,s9,a334 <.LBB13_894>
    a330:	0ff00513          	li	a0,255

000000000000a334 <.LBB13_894>:
    a334:	a4a43c23          	sd	a0,-1448(s0)
    a338:	a6843503          	ld	a0,-1432(s0)
    a33c:	03850533          	mul	a0,a0,s8
    a340:	a6043583          	ld	a1,-1440(s0)
    a344:	017585b3          	add	a1,a1,s7
    a348:	00b50533          	add	a0,a0,a1
    a34c:	42155513          	srai	a0,a0,0x21
    a350:	00a025b3          	sgtz	a1,a0
    a354:	40b005b3          	neg	a1,a1
    a358:	00a5f533          	and	a0,a1,a0
    a35c:	01954463          	blt	a0,s9,a364 <.LBB13_896>
    a360:	0ff00513          	li	a0,255

000000000000a364 <.LBB13_896>:
    a364:	a6a43423          	sd	a0,-1432(s0)
    a368:	a7843503          	ld	a0,-1416(s0)
    a36c:	03850533          	mul	a0,a0,s8
    a370:	a7043583          	ld	a1,-1424(s0)
    a374:	017585b3          	add	a1,a1,s7
    a378:	00b50533          	add	a0,a0,a1
    a37c:	42155513          	srai	a0,a0,0x21
    a380:	00a025b3          	sgtz	a1,a0
    a384:	40b005b3          	neg	a1,a1
    a388:	00a5f533          	and	a0,a1,a0
    a38c:	01954463          	blt	a0,s9,a394 <.LBB13_898>
    a390:	0ff00513          	li	a0,255

000000000000a394 <.LBB13_898>:
    a394:	a6a43c23          	sd	a0,-1416(s0)
    a398:	a9043503          	ld	a0,-1392(s0)
    a39c:	03850533          	mul	a0,a0,s8
    a3a0:	a8843583          	ld	a1,-1400(s0)
    a3a4:	017585b3          	add	a1,a1,s7
    a3a8:	00b50533          	add	a0,a0,a1
    a3ac:	42155513          	srai	a0,a0,0x21
    a3b0:	00a025b3          	sgtz	a1,a0
    a3b4:	40b005b3          	neg	a1,a1
    a3b8:	00a5f533          	and	a0,a1,a0
    a3bc:	01954463          	blt	a0,s9,a3c4 <.LBB13_900>
    a3c0:	0ff00513          	li	a0,255

000000000000a3c4 <.LBB13_900>:
    a3c4:	a8a43823          	sd	a0,-1392(s0)
    a3c8:	aa043503          	ld	a0,-1376(s0)
    a3cc:	03850533          	mul	a0,a0,s8
    a3d0:	a9843583          	ld	a1,-1384(s0)
    a3d4:	017585b3          	add	a1,a1,s7
    a3d8:	00b50533          	add	a0,a0,a1
    a3dc:	42155513          	srai	a0,a0,0x21
    a3e0:	00a025b3          	sgtz	a1,a0
    a3e4:	40b005b3          	neg	a1,a1
    a3e8:	00a5f533          	and	a0,a1,a0
    a3ec:	01954463          	blt	a0,s9,a3f4 <.LBB13_902>
    a3f0:	0ff00513          	li	a0,255

000000000000a3f4 <.LBB13_902>:
    a3f4:	aaa43023          	sd	a0,-1376(s0)
    a3f8:	ab043503          	ld	a0,-1360(s0)
    a3fc:	03850533          	mul	a0,a0,s8
    a400:	aa843583          	ld	a1,-1368(s0)
    a404:	017585b3          	add	a1,a1,s7
    a408:	00b50533          	add	a0,a0,a1
    a40c:	42155513          	srai	a0,a0,0x21
    a410:	00a025b3          	sgtz	a1,a0
    a414:	40b005b3          	neg	a1,a1
    a418:	00a5f533          	and	a0,a1,a0
    a41c:	01954463          	blt	a0,s9,a424 <.LBB13_904>
    a420:	0ff00513          	li	a0,255

000000000000a424 <.LBB13_904>:
    a424:	aaa43823          	sd	a0,-1360(s0)
    a428:	ac843503          	ld	a0,-1336(s0)
    a42c:	03850533          	mul	a0,a0,s8
    a430:	ab843583          	ld	a1,-1352(s0)
    a434:	017585b3          	add	a1,a1,s7
    a438:	00b50533          	add	a0,a0,a1
    a43c:	42155513          	srai	a0,a0,0x21
    a440:	00a025b3          	sgtz	a1,a0
    a444:	40b005b3          	neg	a1,a1
    a448:	00a5f533          	and	a0,a1,a0
    a44c:	01954463          	blt	a0,s9,a454 <.LBB13_906>
    a450:	0ff00513          	li	a0,255

000000000000a454 <.LBB13_906>:
    a454:	aca43423          	sd	a0,-1336(s0)
    a458:	ad843503          	ld	a0,-1320(s0)
    a45c:	03850533          	mul	a0,a0,s8
    a460:	ad043583          	ld	a1,-1328(s0)
    a464:	017585b3          	add	a1,a1,s7
    a468:	00b50533          	add	a0,a0,a1
    a46c:	42155513          	srai	a0,a0,0x21
    a470:	00a025b3          	sgtz	a1,a0
    a474:	40b005b3          	neg	a1,a1
    a478:	00a5f533          	and	a0,a1,a0
    a47c:	01954463          	blt	a0,s9,a484 <.LBB13_908>
    a480:	0ff00513          	li	a0,255

000000000000a484 <.LBB13_908>:
    a484:	aca43c23          	sd	a0,-1320(s0)
    a488:	ae843503          	ld	a0,-1304(s0)
    a48c:	03850533          	mul	a0,a0,s8
    a490:	ae043583          	ld	a1,-1312(s0)
    a494:	017585b3          	add	a1,a1,s7
    a498:	00b50533          	add	a0,a0,a1
    a49c:	42155513          	srai	a0,a0,0x21
    a4a0:	00a025b3          	sgtz	a1,a0
    a4a4:	40b005b3          	neg	a1,a1
    a4a8:	00a5f533          	and	a0,a1,a0
    a4ac:	01954463          	blt	a0,s9,a4b4 <.LBB13_910>
    a4b0:	0ff00513          	li	a0,255

000000000000a4b4 <.LBB13_910>:
    a4b4:	aea43423          	sd	a0,-1304(s0)
    a4b8:	af843503          	ld	a0,-1288(s0)
    a4bc:	03850533          	mul	a0,a0,s8
    a4c0:	af043583          	ld	a1,-1296(s0)
    a4c4:	017585b3          	add	a1,a1,s7
    a4c8:	00b50533          	add	a0,a0,a1
    a4cc:	42155513          	srai	a0,a0,0x21
    a4d0:	00a025b3          	sgtz	a1,a0
    a4d4:	40b005b3          	neg	a1,a1
    a4d8:	00a5f533          	and	a0,a1,a0
    a4dc:	01954463          	blt	a0,s9,a4e4 <.LBB13_912>
    a4e0:	0ff00513          	li	a0,255

000000000000a4e4 <.LBB13_912>:
    a4e4:	aea43c23          	sd	a0,-1288(s0)
    a4e8:	b1043503          	ld	a0,-1264(s0)
    a4ec:	03850533          	mul	a0,a0,s8
    a4f0:	b0843583          	ld	a1,-1272(s0)
    a4f4:	017585b3          	add	a1,a1,s7
    a4f8:	00b50533          	add	a0,a0,a1
    a4fc:	42155513          	srai	a0,a0,0x21
    a500:	00a025b3          	sgtz	a1,a0
    a504:	40b005b3          	neg	a1,a1
    a508:	00a5f533          	and	a0,a1,a0
    a50c:	01954463          	blt	a0,s9,a514 <.LBB13_914>
    a510:	0ff00513          	li	a0,255

000000000000a514 <.LBB13_914>:
    a514:	b0a43823          	sd	a0,-1264(s0)
    a518:	b2043503          	ld	a0,-1248(s0)
    a51c:	03850533          	mul	a0,a0,s8
    a520:	b1843583          	ld	a1,-1256(s0)
    a524:	017585b3          	add	a1,a1,s7
    a528:	00b50533          	add	a0,a0,a1
    a52c:	42155513          	srai	a0,a0,0x21
    a530:	00a025b3          	sgtz	a1,a0
    a534:	40b005b3          	neg	a1,a1
    a538:	00a5f533          	and	a0,a1,a0
    a53c:	01954463          	blt	a0,s9,a544 <.LBB13_916>
    a540:	0ff00513          	li	a0,255

000000000000a544 <.LBB13_916>:
    a544:	b2a43023          	sd	a0,-1248(s0)
    a548:	b3043503          	ld	a0,-1232(s0)
    a54c:	03850533          	mul	a0,a0,s8
    a550:	b2843583          	ld	a1,-1240(s0)
    a554:	017585b3          	add	a1,a1,s7
    a558:	00b50533          	add	a0,a0,a1
    a55c:	42155513          	srai	a0,a0,0x21
    a560:	00a025b3          	sgtz	a1,a0
    a564:	40b005b3          	neg	a1,a1
    a568:	00a5f533          	and	a0,a1,a0
    a56c:	01954463          	blt	a0,s9,a574 <.LBB13_918>
    a570:	0ff00513          	li	a0,255

000000000000a574 <.LBB13_918>:
    a574:	b2a43823          	sd	a0,-1232(s0)
    a578:	b4043503          	ld	a0,-1216(s0)
    a57c:	03850533          	mul	a0,a0,s8
    a580:	b3843583          	ld	a1,-1224(s0)
    a584:	017585b3          	add	a1,a1,s7
    a588:	00b50533          	add	a0,a0,a1
    a58c:	42155513          	srai	a0,a0,0x21
    a590:	00a025b3          	sgtz	a1,a0
    a594:	40b005b3          	neg	a1,a1
    a598:	00a5f533          	and	a0,a1,a0
    a59c:	01954463          	blt	a0,s9,a5a4 <.LBB13_920>
    a5a0:	0ff00513          	li	a0,255

000000000000a5a4 <.LBB13_920>:
    a5a4:	b4a43023          	sd	a0,-1216(s0)
    a5a8:	b5843503          	ld	a0,-1192(s0)
    a5ac:	03850533          	mul	a0,a0,s8
    a5b0:	b5043583          	ld	a1,-1200(s0)
    a5b4:	017585b3          	add	a1,a1,s7
    a5b8:	00b50533          	add	a0,a0,a1
    a5bc:	42155513          	srai	a0,a0,0x21
    a5c0:	00a025b3          	sgtz	a1,a0
    a5c4:	40b005b3          	neg	a1,a1
    a5c8:	00a5f533          	and	a0,a1,a0
    a5cc:	01954463          	blt	a0,s9,a5d4 <.LBB13_922>
    a5d0:	0ff00513          	li	a0,255

000000000000a5d4 <.LBB13_922>:
    a5d4:	b4a43c23          	sd	a0,-1192(s0)
    a5d8:	b6843503          	ld	a0,-1176(s0)
    a5dc:	03850533          	mul	a0,a0,s8
    a5e0:	b6043583          	ld	a1,-1184(s0)
    a5e4:	017585b3          	add	a1,a1,s7
    a5e8:	00b50533          	add	a0,a0,a1
    a5ec:	42155513          	srai	a0,a0,0x21
    a5f0:	00a025b3          	sgtz	a1,a0
    a5f4:	40b005b3          	neg	a1,a1
    a5f8:	00a5f533          	and	a0,a1,a0
    a5fc:	01954463          	blt	a0,s9,a604 <.LBB13_924>
    a600:	0ff00513          	li	a0,255

000000000000a604 <.LBB13_924>:
    a604:	b6a43423          	sd	a0,-1176(s0)
    a608:	b7843503          	ld	a0,-1160(s0)
    a60c:	03850533          	mul	a0,a0,s8
    a610:	b7043583          	ld	a1,-1168(s0)
    a614:	017585b3          	add	a1,a1,s7
    a618:	00b50533          	add	a0,a0,a1
    a61c:	42155513          	srai	a0,a0,0x21
    a620:	00a025b3          	sgtz	a1,a0
    a624:	40b005b3          	neg	a1,a1
    a628:	00a5f533          	and	a0,a1,a0
    a62c:	01954463          	blt	a0,s9,a634 <.LBB13_926>
    a630:	0ff00513          	li	a0,255

000000000000a634 <.LBB13_926>:
    a634:	b6a43c23          	sd	a0,-1160(s0)
    a638:	b9043503          	ld	a0,-1136(s0)
    a63c:	03850533          	mul	a0,a0,s8
    a640:	b8043583          	ld	a1,-1152(s0)
    a644:	017585b3          	add	a1,a1,s7
    a648:	00b50533          	add	a0,a0,a1
    a64c:	42155513          	srai	a0,a0,0x21
    a650:	00a025b3          	sgtz	a1,a0
    a654:	40b005b3          	neg	a1,a1
    a658:	00a5f533          	and	a0,a1,a0
    a65c:	01954463          	blt	a0,s9,a664 <.LBB13_928>
    a660:	0ff00513          	li	a0,255

000000000000a664 <.LBB13_928>:
    a664:	b8a43823          	sd	a0,-1136(s0)
    a668:	ba043503          	ld	a0,-1120(s0)
    a66c:	03850533          	mul	a0,a0,s8
    a670:	b9843583          	ld	a1,-1128(s0)
    a674:	017585b3          	add	a1,a1,s7
    a678:	00b50533          	add	a0,a0,a1
    a67c:	42155513          	srai	a0,a0,0x21
    a680:	00a025b3          	sgtz	a1,a0
    a684:	40b005b3          	neg	a1,a1
    a688:	00a5f533          	and	a0,a1,a0
    a68c:	01954463          	blt	a0,s9,a694 <.LBB13_930>
    a690:	0ff00513          	li	a0,255

000000000000a694 <.LBB13_930>:
    a694:	baa43023          	sd	a0,-1120(s0)
    a698:	bb043503          	ld	a0,-1104(s0)
    a69c:	03850533          	mul	a0,a0,s8
    a6a0:	ba843583          	ld	a1,-1112(s0)
    a6a4:	017585b3          	add	a1,a1,s7
    a6a8:	00b50533          	add	a0,a0,a1
    a6ac:	42155513          	srai	a0,a0,0x21
    a6b0:	00a025b3          	sgtz	a1,a0
    a6b4:	40b005b3          	neg	a1,a1
    a6b8:	00a5f533          	and	a0,a1,a0
    a6bc:	01954463          	blt	a0,s9,a6c4 <.LBB13_932>
    a6c0:	0ff00513          	li	a0,255

000000000000a6c4 <.LBB13_932>:
    a6c4:	baa43823          	sd	a0,-1104(s0)
    a6c8:	bc043503          	ld	a0,-1088(s0)
    a6cc:	03850533          	mul	a0,a0,s8
    a6d0:	bb843583          	ld	a1,-1096(s0)
    a6d4:	017585b3          	add	a1,a1,s7
    a6d8:	00b50533          	add	a0,a0,a1
    a6dc:	42155513          	srai	a0,a0,0x21
    a6e0:	00a025b3          	sgtz	a1,a0
    a6e4:	40b005b3          	neg	a1,a1
    a6e8:	00a5f533          	and	a0,a1,a0
    a6ec:	01954463          	blt	a0,s9,a6f4 <.LBB13_934>
    a6f0:	0ff00513          	li	a0,255

000000000000a6f4 <.LBB13_934>:
    a6f4:	bca43023          	sd	a0,-1088(s0)
    a6f8:	bd043503          	ld	a0,-1072(s0)
    a6fc:	03850533          	mul	a0,a0,s8
    a700:	bc843583          	ld	a1,-1080(s0)
    a704:	017585b3          	add	a1,a1,s7
    a708:	00b50533          	add	a0,a0,a1
    a70c:	42155513          	srai	a0,a0,0x21
    a710:	00a025b3          	sgtz	a1,a0
    a714:	40b005b3          	neg	a1,a1
    a718:	00a5f533          	and	a0,a1,a0
    a71c:	01954463          	blt	a0,s9,a724 <.LBB13_936>
    a720:	0ff00513          	li	a0,255

000000000000a724 <.LBB13_936>:
    a724:	bca43823          	sd	a0,-1072(s0)
    a728:	be043503          	ld	a0,-1056(s0)
    a72c:	03850533          	mul	a0,a0,s8
    a730:	bd843583          	ld	a1,-1064(s0)
    a734:	017585b3          	add	a1,a1,s7
    a738:	00b50533          	add	a0,a0,a1
    a73c:	42155513          	srai	a0,a0,0x21
    a740:	00a025b3          	sgtz	a1,a0
    a744:	40b005b3          	neg	a1,a1
    a748:	00a5f533          	and	a0,a1,a0
    a74c:	01954463          	blt	a0,s9,a754 <.LBB13_938>
    a750:	0ff00513          	li	a0,255

000000000000a754 <.LBB13_938>:
    a754:	bea43023          	sd	a0,-1056(s0)
    a758:	bf043503          	ld	a0,-1040(s0)
    a75c:	03850533          	mul	a0,a0,s8
    a760:	be843583          	ld	a1,-1048(s0)
    a764:	017585b3          	add	a1,a1,s7
    a768:	00b50533          	add	a0,a0,a1
    a76c:	42155513          	srai	a0,a0,0x21
    a770:	00a025b3          	sgtz	a1,a0
    a774:	40b005b3          	neg	a1,a1
    a778:	00a5f533          	and	a0,a1,a0
    a77c:	01954463          	blt	a0,s9,a784 <.LBB13_940>
    a780:	0ff00513          	li	a0,255

000000000000a784 <.LBB13_940>:
    a784:	bea43823          	sd	a0,-1040(s0)
    a788:	c0043503          	ld	a0,-1024(s0)
    a78c:	03850533          	mul	a0,a0,s8
    a790:	bf843583          	ld	a1,-1032(s0)
    a794:	017585b3          	add	a1,a1,s7
    a798:	00b50533          	add	a0,a0,a1
    a79c:	42155513          	srai	a0,a0,0x21
    a7a0:	00a025b3          	sgtz	a1,a0
    a7a4:	40b005b3          	neg	a1,a1
    a7a8:	00a5f533          	and	a0,a1,a0
    a7ac:	01954463          	blt	a0,s9,a7b4 <.LBB13_942>
    a7b0:	0ff00513          	li	a0,255

000000000000a7b4 <.LBB13_942>:
    a7b4:	c0a43023          	sd	a0,-1024(s0)
    a7b8:	c2043503          	ld	a0,-992(s0)
    a7bc:	03850533          	mul	a0,a0,s8
    a7c0:	c1843583          	ld	a1,-1000(s0)
    a7c4:	017585b3          	add	a1,a1,s7
    a7c8:	00b50533          	add	a0,a0,a1
    a7cc:	42155513          	srai	a0,a0,0x21
    a7d0:	00a025b3          	sgtz	a1,a0
    a7d4:	40b005b3          	neg	a1,a1
    a7d8:	00a5f533          	and	a0,a1,a0
    a7dc:	01954463          	blt	a0,s9,a7e4 <.LBB13_944>
    a7e0:	0ff00513          	li	a0,255

000000000000a7e4 <.LBB13_944>:
    a7e4:	c2a43023          	sd	a0,-992(s0)
    a7e8:	c3043503          	ld	a0,-976(s0)
    a7ec:	03850533          	mul	a0,a0,s8
    a7f0:	c2843583          	ld	a1,-984(s0)
    a7f4:	017585b3          	add	a1,a1,s7
    a7f8:	00b50533          	add	a0,a0,a1
    a7fc:	42155513          	srai	a0,a0,0x21
    a800:	00a025b3          	sgtz	a1,a0
    a804:	40b005b3          	neg	a1,a1
    a808:	00a5f533          	and	a0,a1,a0
    a80c:	01954463          	blt	a0,s9,a814 <.LBB13_946>
    a810:	0ff00513          	li	a0,255

000000000000a814 <.LBB13_946>:
    a814:	c2a43823          	sd	a0,-976(s0)
    a818:	c4043503          	ld	a0,-960(s0)
    a81c:	03850533          	mul	a0,a0,s8
    a820:	c3843583          	ld	a1,-968(s0)
    a824:	017585b3          	add	a1,a1,s7
    a828:	00b50533          	add	a0,a0,a1
    a82c:	42155513          	srai	a0,a0,0x21
    a830:	00a025b3          	sgtz	a1,a0
    a834:	40b005b3          	neg	a1,a1
    a838:	00a5f533          	and	a0,a1,a0
    a83c:	01954463          	blt	a0,s9,a844 <.LBB13_948>
    a840:	0ff00513          	li	a0,255

000000000000a844 <.LBB13_948>:
    a844:	c4a43023          	sd	a0,-960(s0)
    a848:	c5843503          	ld	a0,-936(s0)
    a84c:	03850533          	mul	a0,a0,s8
    a850:	c4843583          	ld	a1,-952(s0)
    a854:	017585b3          	add	a1,a1,s7
    a858:	00b50533          	add	a0,a0,a1
    a85c:	42155513          	srai	a0,a0,0x21
    a860:	00a025b3          	sgtz	a1,a0
    a864:	40b005b3          	neg	a1,a1
    a868:	00a5f533          	and	a0,a1,a0
    a86c:	01954463          	blt	a0,s9,a874 <.LBB13_950>
    a870:	0ff00513          	li	a0,255

000000000000a874 <.LBB13_950>:
    a874:	c4a43c23          	sd	a0,-936(s0)
    a878:	c6843503          	ld	a0,-920(s0)
    a87c:	03850533          	mul	a0,a0,s8
    a880:	c6043583          	ld	a1,-928(s0)
    a884:	017585b3          	add	a1,a1,s7
    a888:	00b50533          	add	a0,a0,a1
    a88c:	42155513          	srai	a0,a0,0x21
    a890:	00a025b3          	sgtz	a1,a0
    a894:	40b005b3          	neg	a1,a1
    a898:	00a5f533          	and	a0,a1,a0
    a89c:	01954463          	blt	a0,s9,a8a4 <.LBB13_952>
    a8a0:	0ff00513          	li	a0,255

000000000000a8a4 <.LBB13_952>:
    a8a4:	c6a43423          	sd	a0,-920(s0)
    a8a8:	c7843503          	ld	a0,-904(s0)
    a8ac:	03850533          	mul	a0,a0,s8
    a8b0:	c7043583          	ld	a1,-912(s0)
    a8b4:	017585b3          	add	a1,a1,s7
    a8b8:	00b50533          	add	a0,a0,a1
    a8bc:	42155513          	srai	a0,a0,0x21
    a8c0:	00a025b3          	sgtz	a1,a0
    a8c4:	40b005b3          	neg	a1,a1
    a8c8:	00a5f533          	and	a0,a1,a0
    a8cc:	01954463          	blt	a0,s9,a8d4 <.LBB13_954>
    a8d0:	0ff00513          	li	a0,255

000000000000a8d4 <.LBB13_954>:
    a8d4:	c6a43c23          	sd	a0,-904(s0)
    a8d8:	c8843503          	ld	a0,-888(s0)
    a8dc:	03850533          	mul	a0,a0,s8
    a8e0:	c8043583          	ld	a1,-896(s0)
    a8e4:	017585b3          	add	a1,a1,s7
    a8e8:	00b50533          	add	a0,a0,a1
    a8ec:	42155513          	srai	a0,a0,0x21
    a8f0:	00a025b3          	sgtz	a1,a0
    a8f4:	40b005b3          	neg	a1,a1
    a8f8:	00a5f533          	and	a0,a1,a0
    a8fc:	01954463          	blt	a0,s9,a904 <.LBB13_956>
    a900:	0ff00513          	li	a0,255

000000000000a904 <.LBB13_956>:
    a904:	c8a43423          	sd	a0,-888(s0)
    a908:	ca043503          	ld	a0,-864(s0)
    a90c:	03850533          	mul	a0,a0,s8
    a910:	c9843583          	ld	a1,-872(s0)
    a914:	017585b3          	add	a1,a1,s7
    a918:	00b50533          	add	a0,a0,a1
    a91c:	42155513          	srai	a0,a0,0x21
    a920:	00a025b3          	sgtz	a1,a0
    a924:	40b005b3          	neg	a1,a1
    a928:	00a5f533          	and	a0,a1,a0
    a92c:	01954463          	blt	a0,s9,a934 <.LBB13_958>
    a930:	0ff00513          	li	a0,255

000000000000a934 <.LBB13_958>:
    a934:	caa43023          	sd	a0,-864(s0)
    a938:	cb043503          	ld	a0,-848(s0)
    a93c:	03850533          	mul	a0,a0,s8
    a940:	ca843583          	ld	a1,-856(s0)
    a944:	017585b3          	add	a1,a1,s7
    a948:	00b50533          	add	a0,a0,a1
    a94c:	42155513          	srai	a0,a0,0x21
    a950:	00a025b3          	sgtz	a1,a0
    a954:	40b005b3          	neg	a1,a1
    a958:	00a5f533          	and	a0,a1,a0
    a95c:	01954463          	blt	a0,s9,a964 <.LBB13_960>
    a960:	0ff00513          	li	a0,255

000000000000a964 <.LBB13_960>:
    a964:	caa43823          	sd	a0,-848(s0)
    a968:	cc043503          	ld	a0,-832(s0)
    a96c:	03850533          	mul	a0,a0,s8
    a970:	cb843583          	ld	a1,-840(s0)
    a974:	017585b3          	add	a1,a1,s7
    a978:	00b50533          	add	a0,a0,a1
    a97c:	42155513          	srai	a0,a0,0x21
    a980:	00a025b3          	sgtz	a1,a0
    a984:	40b005b3          	neg	a1,a1
    a988:	00a5f533          	and	a0,a1,a0
    a98c:	01954463          	blt	a0,s9,a994 <.LBB13_962>
    a990:	0ff00513          	li	a0,255

000000000000a994 <.LBB13_962>:
    a994:	cca43023          	sd	a0,-832(s0)
    a998:	cd843503          	ld	a0,-808(s0)
    a99c:	03850533          	mul	a0,a0,s8
    a9a0:	cc843583          	ld	a1,-824(s0)
    a9a4:	017585b3          	add	a1,a1,s7
    a9a8:	00b50533          	add	a0,a0,a1
    a9ac:	42155513          	srai	a0,a0,0x21
    a9b0:	00a025b3          	sgtz	a1,a0
    a9b4:	40b005b3          	neg	a1,a1
    a9b8:	00a5f533          	and	a0,a1,a0
    a9bc:	01954463          	blt	a0,s9,a9c4 <.LBB13_964>
    a9c0:	0ff00513          	li	a0,255

000000000000a9c4 <.LBB13_964>:
    a9c4:	cca43c23          	sd	a0,-808(s0)
    a9c8:	ce843503          	ld	a0,-792(s0)
    a9cc:	03850533          	mul	a0,a0,s8
    a9d0:	ce043583          	ld	a1,-800(s0)
    a9d4:	017585b3          	add	a1,a1,s7
    a9d8:	00b50533          	add	a0,a0,a1
    a9dc:	42155513          	srai	a0,a0,0x21
    a9e0:	00a025b3          	sgtz	a1,a0
    a9e4:	40b005b3          	neg	a1,a1
    a9e8:	00a5f533          	and	a0,a1,a0
    a9ec:	01954463          	blt	a0,s9,a9f4 <.LBB13_966>
    a9f0:	0ff00513          	li	a0,255

000000000000a9f4 <.LBB13_966>:
    a9f4:	cea43423          	sd	a0,-792(s0)
    a9f8:	cf843503          	ld	a0,-776(s0)
    a9fc:	03850533          	mul	a0,a0,s8
    aa00:	cf043583          	ld	a1,-784(s0)
    aa04:	017585b3          	add	a1,a1,s7
    aa08:	00b50533          	add	a0,a0,a1
    aa0c:	42155513          	srai	a0,a0,0x21
    aa10:	00a025b3          	sgtz	a1,a0
    aa14:	40b005b3          	neg	a1,a1
    aa18:	00a5f533          	and	a0,a1,a0
    aa1c:	01954463          	blt	a0,s9,aa24 <.LBB13_968>
    aa20:	0ff00513          	li	a0,255

000000000000aa24 <.LBB13_968>:
    aa24:	cea43c23          	sd	a0,-776(s0)
    aa28:	d0843503          	ld	a0,-760(s0)
    aa2c:	03850533          	mul	a0,a0,s8
    aa30:	d0043583          	ld	a1,-768(s0)
    aa34:	017585b3          	add	a1,a1,s7
    aa38:	00b50533          	add	a0,a0,a1
    aa3c:	42155513          	srai	a0,a0,0x21
    aa40:	00a025b3          	sgtz	a1,a0
    aa44:	40b005b3          	neg	a1,a1
    aa48:	00a5f533          	and	a0,a1,a0
    aa4c:	01954463          	blt	a0,s9,aa54 <.LBB13_970>
    aa50:	0ff00513          	li	a0,255

000000000000aa54 <.LBB13_970>:
    aa54:	d0a43423          	sd	a0,-760(s0)
    aa58:	d2043503          	ld	a0,-736(s0)
    aa5c:	03850533          	mul	a0,a0,s8
    aa60:	d1843583          	ld	a1,-744(s0)
    aa64:	017585b3          	add	a1,a1,s7
    aa68:	00b50533          	add	a0,a0,a1
    aa6c:	42155513          	srai	a0,a0,0x21
    aa70:	00a025b3          	sgtz	a1,a0
    aa74:	40b005b3          	neg	a1,a1
    aa78:	00a5f533          	and	a0,a1,a0
    aa7c:	01954463          	blt	a0,s9,aa84 <.LBB13_972>
    aa80:	0ff00513          	li	a0,255

000000000000aa84 <.LBB13_972>:
    aa84:	d2a43023          	sd	a0,-736(s0)
    aa88:	d3043503          	ld	a0,-720(s0)
    aa8c:	03850533          	mul	a0,a0,s8
    aa90:	d2843583          	ld	a1,-728(s0)
    aa94:	017585b3          	add	a1,a1,s7
    aa98:	00b50533          	add	a0,a0,a1
    aa9c:	42155513          	srai	a0,a0,0x21
    aaa0:	00a025b3          	sgtz	a1,a0
    aaa4:	40b005b3          	neg	a1,a1
    aaa8:	00a5f533          	and	a0,a1,a0
    aaac:	01954463          	blt	a0,s9,aab4 <.LBB13_974>
    aab0:	0ff00513          	li	a0,255

000000000000aab4 <.LBB13_974>:
    aab4:	d2a43823          	sd	a0,-720(s0)
    aab8:	d4043503          	ld	a0,-704(s0)
    aabc:	03850533          	mul	a0,a0,s8
    aac0:	d3843583          	ld	a1,-712(s0)
    aac4:	017585b3          	add	a1,a1,s7
    aac8:	00b50533          	add	a0,a0,a1
    aacc:	42155513          	srai	a0,a0,0x21
    aad0:	00a025b3          	sgtz	a1,a0
    aad4:	40b005b3          	neg	a1,a1
    aad8:	00a5f533          	and	a0,a1,a0
    aadc:	01954463          	blt	a0,s9,aae4 <.LBB13_976>
    aae0:	0ff00513          	li	a0,255

000000000000aae4 <.LBB13_976>:
    aae4:	d4a43023          	sd	a0,-704(s0)
    aae8:	d5043503          	ld	a0,-688(s0)
    aaec:	03850533          	mul	a0,a0,s8
    aaf0:	d4843583          	ld	a1,-696(s0)
    aaf4:	017585b3          	add	a1,a1,s7
    aaf8:	00b50533          	add	a0,a0,a1
    aafc:	42155513          	srai	a0,a0,0x21
    ab00:	00a025b3          	sgtz	a1,a0
    ab04:	40b005b3          	neg	a1,a1
    ab08:	00a5f533          	and	a0,a1,a0
    ab0c:	01954463          	blt	a0,s9,ab14 <.LBB13_978>
    ab10:	0ff00513          	li	a0,255

000000000000ab14 <.LBB13_978>:
    ab14:	d4a43823          	sd	a0,-688(s0)
    ab18:	d6843503          	ld	a0,-664(s0)
    ab1c:	03850533          	mul	a0,a0,s8
    ab20:	d6043583          	ld	a1,-672(s0)
    ab24:	017585b3          	add	a1,a1,s7
    ab28:	00b50533          	add	a0,a0,a1
    ab2c:	42155513          	srai	a0,a0,0x21
    ab30:	00a025b3          	sgtz	a1,a0
    ab34:	40b005b3          	neg	a1,a1
    ab38:	00a5f533          	and	a0,a1,a0
    ab3c:	01954463          	blt	a0,s9,ab44 <.LBB13_980>
    ab40:	0ff00513          	li	a0,255

000000000000ab44 <.LBB13_980>:
    ab44:	d6a43423          	sd	a0,-664(s0)
    ab48:	d7843503          	ld	a0,-648(s0)
    ab4c:	03850533          	mul	a0,a0,s8
    ab50:	d7043583          	ld	a1,-656(s0)
    ab54:	017585b3          	add	a1,a1,s7
    ab58:	00b50533          	add	a0,a0,a1
    ab5c:	42155513          	srai	a0,a0,0x21
    ab60:	00a025b3          	sgtz	a1,a0
    ab64:	40b005b3          	neg	a1,a1
    ab68:	00a5f533          	and	a0,a1,a0
    ab6c:	01954463          	blt	a0,s9,ab74 <.LBB13_982>
    ab70:	0ff00513          	li	a0,255

000000000000ab74 <.LBB13_982>:
    ab74:	d6a43c23          	sd	a0,-648(s0)
    ab78:	d8843503          	ld	a0,-632(s0)
    ab7c:	03850533          	mul	a0,a0,s8
    ab80:	d8043583          	ld	a1,-640(s0)
    ab84:	017585b3          	add	a1,a1,s7
    ab88:	00b50533          	add	a0,a0,a1
    ab8c:	42155513          	srai	a0,a0,0x21
    ab90:	00a025b3          	sgtz	a1,a0
    ab94:	40b005b3          	neg	a1,a1
    ab98:	00a5f533          	and	a0,a1,a0
    ab9c:	01954463          	blt	a0,s9,aba4 <.LBB13_984>
    aba0:	0ff00513          	li	a0,255

000000000000aba4 <.LBB13_984>:
    aba4:	d8a43423          	sd	a0,-632(s0)
    aba8:	da043503          	ld	a0,-608(s0)
    abac:	03850533          	mul	a0,a0,s8
    abb0:	d9043583          	ld	a1,-624(s0)
    abb4:	017585b3          	add	a1,a1,s7
    abb8:	00b50533          	add	a0,a0,a1
    abbc:	42155513          	srai	a0,a0,0x21
    abc0:	00a025b3          	sgtz	a1,a0
    abc4:	40b005b3          	neg	a1,a1
    abc8:	00a5fdb3          	and	s11,a1,a0
    abcc:	019dc463          	blt	s11,s9,abd4 <.LBB13_986>
    abd0:	0ff00d93          	li	s11,255

000000000000abd4 <.LBB13_986>:
    abd4:	00060093          	mv	ra,a2
    abd8:	db043503          	ld	a0,-592(s0)
    abdc:	03850533          	mul	a0,a0,s8
    abe0:	da843583          	ld	a1,-600(s0)
    abe4:	017585b3          	add	a1,a1,s7
    abe8:	00b50533          	add	a0,a0,a1
    abec:	42155513          	srai	a0,a0,0x21
    abf0:	00a025b3          	sgtz	a1,a0
    abf4:	40b005b3          	neg	a1,a1
    abf8:	00a5f533          	and	a0,a1,a0
    abfc:	01954463          	blt	a0,s9,ac04 <.LBB13_988>
    ac00:	0ff00513          	li	a0,255

000000000000ac04 <.LBB13_988>:
    ac04:	dc043583          	ld	a1,-576(s0)
    ac08:	038585b3          	mul	a1,a1,s8
    ac0c:	db843603          	ld	a2,-584(s0)
    ac10:	01760633          	add	a2,a2,s7
    ac14:	00c585b3          	add	a1,a1,a2
    ac18:	4215d593          	srai	a1,a1,0x21
    ac1c:	00b02633          	sgtz	a2,a1
    ac20:	40c00633          	neg	a2,a2
    ac24:	00b675b3          	and	a1,a2,a1
    ac28:	0195c463          	blt	a1,s9,ac30 <.LBB13_990>
    ac2c:	0ff00593          	li	a1,255

000000000000ac30 <.LBB13_990>:
    ac30:	03868633          	mul	a2,a3,s8
    ac34:	dc843683          	ld	a3,-568(s0)
    ac38:	017686b3          	add	a3,a3,s7
    ac3c:	00d60633          	add	a2,a2,a3
    ac40:	42165613          	srai	a2,a2,0x21
    ac44:	00c026b3          	sgtz	a3,a2
    ac48:	40d006b3          	neg	a3,a3
    ac4c:	00c6f633          	and	a2,a3,a2
    ac50:	01964463          	blt	a2,s9,ac58 <.LBB13_992>
    ac54:	0ff00613          	li	a2,255

000000000000ac58 <.LBB13_992>:
    ac58:	038706b3          	mul	a3,a4,s8
    ac5c:	dd843703          	ld	a4,-552(s0)
    ac60:	01770733          	add	a4,a4,s7
    ac64:	00e686b3          	add	a3,a3,a4
    ac68:	4216d693          	srai	a3,a3,0x21
    ac6c:	00d02733          	sgtz	a4,a3
    ac70:	40e00733          	neg	a4,a4
    ac74:	00d776b3          	and	a3,a4,a3
    ac78:	0196c463          	blt	a3,s9,ac80 <.LBB13_994>
    ac7c:	0ff00693          	li	a3,255

000000000000ac80 <.LBB13_994>:
    ac80:	03878733          	mul	a4,a5,s8
    ac84:	de043783          	ld	a5,-544(s0)
    ac88:	017787b3          	add	a5,a5,s7
    ac8c:	00f70733          	add	a4,a4,a5
    ac90:	42175713          	srai	a4,a4,0x21
    ac94:	00e027b3          	sgtz	a5,a4
    ac98:	40f007b3          	neg	a5,a5
    ac9c:	00e7f733          	and	a4,a5,a4
    aca0:	01974463          	blt	a4,s9,aca8 <.LBB13_996>
    aca4:	0ff00713          	li	a4,255

000000000000aca8 <.LBB13_996>:
    aca8:	038807b3          	mul	a5,a6,s8
    acac:	de843803          	ld	a6,-536(s0)
    acb0:	01780833          	add	a6,a6,s7
    acb4:	010787b3          	add	a5,a5,a6
    acb8:	4217d793          	srai	a5,a5,0x21
    acbc:	00f02833          	sgtz	a6,a5
    acc0:	41000833          	neg	a6,a6
    acc4:	00f877b3          	and	a5,a6,a5
    acc8:	0197c463          	blt	a5,s9,acd0 <.LBB13_998>
    accc:	0ff00793          	li	a5,255

000000000000acd0 <.LBB13_998>:
    acd0:	df843803          	ld	a6,-520(s0)
    acd4:	03880833          	mul	a6,a6,s8
    acd8:	df043883          	ld	a7,-528(s0)
    acdc:	017888b3          	add	a7,a7,s7
    ace0:	01180833          	add	a6,a6,a7
    ace4:	42185813          	srai	a6,a6,0x21
    ace8:	010028b3          	sgtz	a7,a6
    acec:	411008b3          	neg	a7,a7
    acf0:	0108f833          	and	a6,a7,a6
    acf4:	01984463          	blt	a6,s9,acfc <.LBB13_1000>
    acf8:	0ff00813          	li	a6,255

000000000000acfc <.LBB13_1000>:
    acfc:	e1043883          	ld	a7,-496(s0)
    ad00:	038888b3          	mul	a7,a7,s8
    ad04:	e0843283          	ld	t0,-504(s0)
    ad08:	017282b3          	add	t0,t0,s7
    ad0c:	005888b3          	add	a7,a7,t0
    ad10:	4218d893          	srai	a7,a7,0x21
    ad14:	011022b3          	sgtz	t0,a7
    ad18:	405002b3          	neg	t0,t0
    ad1c:	0112f8b3          	and	a7,t0,a7
    ad20:	0198c463          	blt	a7,s9,ad28 <.LBB13_1002>
    ad24:	0ff00893          	li	a7,255

000000000000ad28 <.LBB13_1002>:
    ad28:	e2043283          	ld	t0,-480(s0)
    ad2c:	038282b3          	mul	t0,t0,s8
    ad30:	e1843303          	ld	t1,-488(s0)
    ad34:	01730333          	add	t1,t1,s7
    ad38:	006282b3          	add	t0,t0,t1
    ad3c:	4212d293          	srai	t0,t0,0x21
    ad40:	00502333          	sgtz	t1,t0
    ad44:	40600333          	neg	t1,t1
    ad48:	005372b3          	and	t0,t1,t0
    ad4c:	0192c463          	blt	t0,s9,ad54 <.LBB13_1004>
    ad50:	0ff00293          	li	t0,255

000000000000ad54 <.LBB13_1004>:
    ad54:	e3043303          	ld	t1,-464(s0)
    ad58:	03830333          	mul	t1,t1,s8
    ad5c:	e2843383          	ld	t2,-472(s0)
    ad60:	017383b3          	add	t2,t2,s7
    ad64:	00730333          	add	t1,t1,t2
    ad68:	42135313          	srai	t1,t1,0x21
    ad6c:	006023b3          	sgtz	t2,t1
    ad70:	407003b3          	neg	t2,t2
    ad74:	0063f333          	and	t1,t2,t1
    ad78:	01934463          	blt	t1,s9,ad80 <.LBB13_1006>
    ad7c:	0ff00313          	li	t1,255

000000000000ad80 <.LBB13_1006>:
    ad80:	e4843383          	ld	t2,-440(s0)
    ad84:	038383b3          	mul	t2,t2,s8
    ad88:	e3843e03          	ld	t3,-456(s0)
    ad8c:	017e0e33          	add	t3,t3,s7
    ad90:	01c383b3          	add	t2,t2,t3
    ad94:	4213d393          	srai	t2,t2,0x21
    ad98:	00702e33          	sgtz	t3,t2
    ad9c:	41c00e33          	neg	t3,t3
    ada0:	007e73b3          	and	t2,t3,t2
    ada4:	0193c463          	blt	t2,s9,adac <.LBB13_1008>
    ada8:	0ff00393          	li	t2,255

000000000000adac <.LBB13_1008>:
    adac:	e5843e03          	ld	t3,-424(s0)
    adb0:	038e0e33          	mul	t3,t3,s8
    adb4:	e5043e83          	ld	t4,-432(s0)
    adb8:	017e8eb3          	add	t4,t4,s7
    adbc:	01de0e33          	add	t3,t3,t4
    adc0:	421e5e13          	srai	t3,t3,0x21
    adc4:	01c02eb3          	sgtz	t4,t3
    adc8:	41d00eb3          	neg	t4,t4
    adcc:	01cefe33          	and	t3,t4,t3
    add0:	019e4463          	blt	t3,s9,add8 <.LBB13_1010>
    add4:	0ff00e13          	li	t3,255

000000000000add8 <.LBB13_1010>:
    add8:	e6843e83          	ld	t4,-408(s0)
    addc:	038e8eb3          	mul	t4,t4,s8
    ade0:	e6043f03          	ld	t5,-416(s0)
    ade4:	017f0f33          	add	t5,t5,s7
    ade8:	01ee8eb3          	add	t4,t4,t5
    adec:	421ede93          	srai	t4,t4,0x21
    adf0:	01d02f33          	sgtz	t5,t4
    adf4:	41e00f33          	neg	t5,t5
    adf8:	01df7eb3          	and	t4,t5,t4
    adfc:	019ec463          	blt	t4,s9,ae04 <.LBB13_1012>
    ae00:	0ff00e93          	li	t4,255

000000000000ae04 <.LBB13_1012>:
    ae04:	e7843f03          	ld	t5,-392(s0)
    ae08:	038f0f33          	mul	t5,t5,s8
    ae0c:	e7043f83          	ld	t6,-400(s0)
    ae10:	017f8fb3          	add	t6,t6,s7
    ae14:	01ff0f33          	add	t5,t5,t6
    ae18:	421f5f13          	srai	t5,t5,0x21
    ae1c:	01e02fb3          	sgtz	t6,t5
    ae20:	41f00fb3          	neg	t6,t6
    ae24:	01efff33          	and	t5,t6,t5
    ae28:	019f4463          	blt	t5,s9,ae30 <.LBB13_1014>
    ae2c:	0ff00f13          	li	t5,255

000000000000ae30 <.LBB13_1014>:
    ae30:	03848fb3          	mul	t6,s1,s8
    ae34:	e8843483          	ld	s1,-376(s0)
    ae38:	017484b3          	add	s1,s1,s7
    ae3c:	009f8fb3          	add	t6,t6,s1
    ae40:	421fdf93          	srai	t6,t6,0x21
    ae44:	01f024b3          	sgtz	s1,t6
    ae48:	409004b3          	neg	s1,s1
    ae4c:	01f4ffb3          	and	t6,s1,t6
    ae50:	019fc463          	blt	t6,s9,ae58 <.LBB13_1016>
    ae54:	0ff00f93          	li	t6,255

000000000000ae58 <.LBB13_1016>:
    ae58:	038904b3          	mul	s1,s2,s8
    ae5c:	e9043903          	ld	s2,-368(s0)
    ae60:	01790933          	add	s2,s2,s7
    ae64:	012484b3          	add	s1,s1,s2
    ae68:	4214d493          	srai	s1,s1,0x21
    ae6c:	00902933          	sgtz	s2,s1
    ae70:	41200933          	neg	s2,s2
    ae74:	009974b3          	and	s1,s2,s1
    ae78:	0194c463          	blt	s1,s9,ae80 <.LBB13_1018>
    ae7c:	0ff00493          	li	s1,255

000000000000ae80 <.LBB13_1018>:
    ae80:	00001937          	lui	s2,0x1
    ae84:	41240933          	sub	s2,s0,s2
    ae88:	d2093903          	ld	s2,-736(s2) # d20 <.LBB13_3+0xb08>
    ae8c:	03890933          	mul	s2,s2,s8
    ae90:	e9843983          	ld	s3,-360(s0)
    ae94:	017989b3          	add	s3,s3,s7
    ae98:	01390933          	add	s2,s2,s3
    ae9c:	42195913          	srai	s2,s2,0x21
    aea0:	012029b3          	sgtz	s3,s2
    aea4:	413009b3          	neg	s3,s3
    aea8:	0129f933          	and	s2,s3,s2
    aeac:	01994463          	blt	s2,s9,aeb4 <.LBB13_1020>
    aeb0:	0ff00913          	li	s2,255

000000000000aeb4 <.LBB13_1020>:
    aeb4:	038a09b3          	mul	s3,s4,s8
    aeb8:	ea043a03          	ld	s4,-352(s0)
    aebc:	017a0a33          	add	s4,s4,s7
    aec0:	014989b3          	add	s3,s3,s4
    aec4:	4219d993          	srai	s3,s3,0x21
    aec8:	01302a33          	sgtz	s4,s3
    aecc:	41400a33          	neg	s4,s4
    aed0:	013a79b3          	and	s3,s4,s3
    aed4:	0199c463          	blt	s3,s9,aedc <.LBB13_1022>
    aed8:	0ff00993          	li	s3,255

000000000000aedc <.LBB13_1022>:
    aedc:	038a8a33          	mul	s4,s5,s8
    aee0:	eb043a83          	ld	s5,-336(s0)
    aee4:	017a8ab3          	add	s5,s5,s7
    aee8:	015a0a33          	add	s4,s4,s5
    aeec:	421a5a13          	srai	s4,s4,0x21
    aef0:	01402ab3          	sgtz	s5,s4
    aef4:	41500ab3          	neg	s5,s5
    aef8:	014afa33          	and	s4,s5,s4
    aefc:	019a4463          	blt	s4,s9,af04 <.LBB13_1024>
    af00:	0ff00a13          	li	s4,255

000000000000af04 <.LBB13_1024>:
    af04:	038b0ab3          	mul	s5,s6,s8
    af08:	017d0b33          	add	s6,s10,s7
    af0c:	016a8ab3          	add	s5,s5,s6
    af10:	421ada93          	srai	s5,s5,0x21
    af14:	01502b33          	sgtz	s6,s5
    af18:	41600b33          	neg	s6,s6
    af1c:	015b7ab3          	and	s5,s6,s5
    af20:	019ac463          	blt	s5,s9,af28 <.LBB13_1026>
    af24:	0ff00a93          	li	s5,255

000000000000af28 <.LBB13_1026>:
    af28:	ec043b03          	ld	s6,-320(s0)
    af2c:	038b0b33          	mul	s6,s6,s8
    af30:	eb843d03          	ld	s10,-328(s0)
    af34:	017d0bb3          	add	s7,s10,s7
    af38:	017b0b33          	add	s6,s6,s7
    af3c:	421b5b13          	srai	s6,s6,0x21
    af40:	01602bb3          	sgtz	s7,s6
    af44:	41700bb3          	neg	s7,s7
    af48:	016bfb33          	and	s6,s7,s6
    af4c:	019b4463          	blt	s6,s9,af54 <.LBB13_1028>
    af50:	0ff00b13          	li	s6,255

000000000000af54 <.LBB13_1028>:
    af54:	ed043b83          	ld	s7,-304(s0)
    af58:	038b8bb3          	mul	s7,s7,s8
    af5c:	00001c37          	lui	s8,0x1
    af60:	41840c33          	sub	s8,s0,s8
    af64:	628c3c03          	ld	s8,1576(s8) # 1628 <.LBB13_4+0x488>
    af68:	01808c33          	add	s8,ra,s8
    af6c:	018b8bb3          	add	s7,s7,s8
    af70:	421bdb93          	srai	s7,s7,0x21
    af74:	01702c33          	sgtz	s8,s7
    af78:	41800c33          	neg	s8,s8
    af7c:	017c7bb3          	and	s7,s8,s7
    af80:	019bd463          	bge	s7,s9,af88 <.LBB13_1029>
    af84:	a94f506f          	j	218 <.LBB13_3>

000000000000af88 <.LBB13_1029>:
    af88:	0ff00b93          	li	s7,255
    af8c:	a8cf506f          	j	218 <.LBB13_3>

000000000000af90 <.LBB13_1030>:
    af90:	00000513          	li	a0,0
    af94:	7f010113          	addi	sp,sp,2032
    af98:	38010113          	addi	sp,sp,896
    af9c:	7e813083          	ld	ra,2024(sp)
    afa0:	7e013403          	ld	s0,2016(sp)
    afa4:	7d813483          	ld	s1,2008(sp)
    afa8:	7d013903          	ld	s2,2000(sp)
    afac:	7c813983          	ld	s3,1992(sp)
    afb0:	7c013a03          	ld	s4,1984(sp)
    afb4:	7b813a83          	ld	s5,1976(sp)
    afb8:	7b013b03          	ld	s6,1968(sp)
    afbc:	7a813b83          	ld	s7,1960(sp)
    afc0:	7a013c03          	ld	s8,1952(sp)
    afc4:	79813c83          	ld	s9,1944(sp)
    afc8:	79013d03          	ld	s10,1936(sp)
    afcc:	78813d83          	ld	s11,1928(sp)
    afd0:	7f010113          	addi	sp,sp,2032
    afd4:	00008067          	ret
