
code.o:     file format elf64-littleriscv


Disassembly of section .text.main_dispatch_113_matmul_49x160x576_i8xi8xi32:

0000000000000000 <main_dispatch_113_matmul_49x160x576_i8xi8xi32>:
       0:	f1501173          	csrrw	sp,0xf15,zero

0000000000000004 <.Lfunc_begin87>:
       4:	81010113          	addi	sp,sp,-2032
       8:	7e113423          	sd	ra,2024(sp)
       c:	7e813023          	sd	s0,2016(sp)
      10:	7c913c23          	sd	s1,2008(sp)
      14:	7d213823          	sd	s2,2000(sp)
      18:	7d313423          	sd	s3,1992(sp)
      1c:	7d413023          	sd	s4,1984(sp)
      20:	7b513c23          	sd	s5,1976(sp)
      24:	7b613823          	sd	s6,1968(sp)
      28:	7b713423          	sd	s7,1960(sp)
      2c:	7b813023          	sd	s8,1952(sp)
      30:	79913c23          	sd	s9,1944(sp)
      34:	79a13823          	sd	s10,1936(sp)
      38:	79b13423          	sd	s11,1928(sp)
      3c:	7f010413          	addi	s0,sp,2032
      40:	80010113          	addi	sp,sp,-2048
      44:	ae010113          	addi	sp,sp,-1312
      48:	0205b583          	ld	a1,32(a1)
      4c:	00000513          	li	a0,0
      50:	0005b783          	ld	a5,0(a1)
      54:	0001c637          	lui	a2,0x1c
      58:	9006061b          	addiw	a2,a2,-1792 # 1b900 <.LBB66_3576+0x4>
      5c:	0085b683          	ld	a3,8(a1)
      60:	00c78633          	add	a2,a5,a2
      64:	00001737          	lui	a4,0x1
      68:	40e40733          	sub	a4,s0,a4
      6c:	b6c73c23          	sd	a2,-1160(a4) # b78 <.LBB87_3+0x908>
      70:	000b0637          	lui	a2,0xb0
      74:	d006061b          	addiw	a2,a2,-768 # afd00 <.Lfunc_end80+0x87334>
      78:	00c683b3          	add	t2,a3,a2
      7c:	00017637          	lui	a2,0x17
      80:	3806071b          	addiw	a4,a2,896 # 17380 <.LBB27_2069+0x8>
      84:	00e68733          	add	a4,a3,a4
      88:	00001837          	lui	a6,0x1
      8c:	41040833          	sub	a6,s0,a6
      90:	b6e83423          	sd	a4,-1176(a6) # b68 <.LBB87_3+0x8f8>
      94:	0105b583          	ld	a1,16(a1)
      98:	000c6737          	lui	a4,0xc6
      9c:	5007071b          	addiw	a4,a4,1280 # c6500 <.Lfunc_end80+0x9db34>
      a0:	00e686b3          	add	a3,a3,a4
      a4:	00001737          	lui	a4,0x1
      a8:	40e40733          	sub	a4,s0,a4
      ac:	b6d73023          	sd	a3,-1184(a4) # b60 <.LBB87_3+0x8f0>
      b0:	10058593          	addi	a1,a1,256
      b4:	000016b7          	lui	a3,0x1
      b8:	40d406b3          	sub	a3,s0,a3
      bc:	b0b6b023          	sd	a1,-1280(a3) # b00 <.LBB87_3+0x890>
      c0:	0001d5b7          	lui	a1,0x1d
      c4:	8c05859b          	addiw	a1,a1,-1856 # 1c8c0 <.LBB98_3598+0x24>
      c8:	000016b7          	lui	a3,0x1
      cc:	40d406b3          	sub	a3,s0,a3
      d0:	b0f6b423          	sd	a5,-1272(a3) # b08 <.LBB87_3+0x898>
      d4:	00b785b3          	add	a1,a5,a1
      d8:	000016b7          	lui	a3,0x1
      dc:	40d406b3          	sub	a3,s0,a3
      e0:	b6b6b823          	sd	a1,-1168(a3) # b70 <.LBB87_3+0x900>
      e4:	8006059b          	addiw	a1,a2,-2048
      e8:	00001637          	lui	a2,0x1
      ec:	40c40633          	sub	a2,s0,a2
      f0:	b0b63c23          	sd	a1,-1256(a2) # b18 <.LBB87_3+0x8a8>
      f4:	6e0d35b7          	lui	a1,0x6e0d3
      f8:	d9b5859b          	addiw	a1,a1,-613 # 6e0d2d9b <.Lfunc_end80+0x6e0aa3cf>
      fc:	00001637          	lui	a2,0x1
     100:	40c40633          	sub	a2,s0,a2
     104:	64b63c23          	sd	a1,1624(a2) # 1658 <.LBB87_5+0x1d4>
     108:	00100593          	li	a1,1
     10c:	02759593          	slli	a1,a1,0x27
     110:	e4b43c23          	sd	a1,-424(s0)
     114:	00900593          	li	a1,9
     118:	00959593          	slli	a1,a1,0x9
     11c:	00001637          	lui	a2,0x1
     120:	40c40633          	sub	a2,s0,a2
     124:	aeb63823          	sd	a1,-1296(a2) # af0 <.LBB87_3+0x880>
     128:	000015b7          	lui	a1,0x1
     12c:	40b405b3          	sub	a1,s0,a1
     130:	b075b823          	sd	t2,-1264(a1) # b10 <.LBB87_3+0x8a0>
     134:	0700006f          	j	1a4 <.LBB87_2>

0000000000000138 <.LBB87_1>:
     138:	00001537          	lui	a0,0x1
     13c:	40a40533          	sub	a0,s0,a0
     140:	af853683          	ld	a3,-1288(a0) # af8 <.LBB87_3+0x888>
     144:	00868513          	addi	a0,a3,8
     148:	000015b7          	lui	a1,0x1
     14c:	40b405b3          	sub	a1,s0,a1
     150:	b785b583          	ld	a1,-1160(a1) # b78 <.LBB87_3+0x908>
     154:	00001637          	lui	a2,0x1
     158:	40c40633          	sub	a2,s0,a2
     15c:	af063603          	ld	a2,-1296(a2) # af0 <.LBB87_3+0x880>
     160:	00c585b3          	add	a1,a1,a2
     164:	00001737          	lui	a4,0x1
     168:	40e40733          	sub	a4,s0,a4
     16c:	b6b73c23          	sd	a1,-1160(a4) # b78 <.LBB87_3+0x908>
     170:	000015b7          	lui	a1,0x1
     174:	40b405b3          	sub	a1,s0,a1
     178:	b705b583          	ld	a1,-1168(a1) # b70 <.LBB87_3+0x900>
     17c:	00c585b3          	add	a1,a1,a2
     180:	00001637          	lui	a2,0x1
     184:	40c40633          	sub	a2,s0,a2
     188:	b6b63823          	sd	a1,-1168(a2) # b70 <.LBB87_3+0x900>
     18c:	000015b7          	lui	a1,0x1
     190:	40b405b3          	sub	a1,s0,a1
     194:	b105b383          	ld	t2,-1264(a1) # b10 <.LBB87_3+0x8a0>
     198:	02800593          	li	a1,40
     19c:	00b6e463          	bltu	a3,a1,1a4 <.LBB87_2>
     1a0:	59d0b06f          	j	bf3c <.LBB87_1542>

00000000000001a4 <.LBB87_2>:
     1a4:	00000593          	li	a1,0
     1a8:	00050693          	mv	a3,a0
     1ac:	00251513          	slli	a0,a0,0x2
     1b0:	00001637          	lui	a2,0x1
     1b4:	40c40633          	sub	a2,s0,a2
     1b8:	b0863603          	ld	a2,-1272(a2) # b08 <.LBB87_3+0x898>
     1bc:	00a60533          	add	a0,a2,a0
     1c0:	00001637          	lui	a2,0x1
     1c4:	40c40633          	sub	a2,s0,a2
     1c8:	64a63423          	sd	a0,1608(a2) # 1648 <.LBB87_5+0x1c4>
     1cc:	0a000513          	li	a0,160
     1d0:	00001637          	lui	a2,0x1
     1d4:	40c40633          	sub	a2,s0,a2
     1d8:	aed63c23          	sd	a3,-1288(a2) # af8 <.LBB87_3+0x888>
     1dc:	02a68533          	mul	a0,a3,a0
     1e0:	00001637          	lui	a2,0x1
     1e4:	40c40633          	sub	a2,s0,a2
     1e8:	b0063603          	ld	a2,-1280(a2) # b00 <.LBB87_3+0x890>
     1ec:	00a60533          	add	a0,a2,a0
     1f0:	0a050613          	addi	a2,a0,160
     1f4:	000016b7          	lui	a3,0x1
     1f8:	40d406b3          	sub	a3,s0,a3
     1fc:	b4c6b823          	sd	a2,-1200(a3) # b50 <.LBB87_3+0x8e0>
     200:	14050613          	addi	a2,a0,320
     204:	000016b7          	lui	a3,0x1
     208:	40d406b3          	sub	a3,s0,a3
     20c:	b4c6b423          	sd	a2,-1208(a3) # b48 <.LBB87_3+0x8d8>
     210:	1e050613          	addi	a2,a0,480
     214:	000016b7          	lui	a3,0x1
     218:	40d406b3          	sub	a3,s0,a3
     21c:	b4c6b023          	sd	a2,-1216(a3) # b40 <.LBB87_3+0x8d0>
     220:	28050613          	addi	a2,a0,640
     224:	000016b7          	lui	a3,0x1
     228:	40d406b3          	sub	a3,s0,a3
     22c:	b2c6bc23          	sd	a2,-1224(a3) # b38 <.LBB87_3+0x8c8>
     230:	32050613          	addi	a2,a0,800
     234:	000016b7          	lui	a3,0x1
     238:	40d406b3          	sub	a3,s0,a3
     23c:	b2c6b823          	sd	a2,-1232(a3) # b30 <.LBB87_3+0x8c0>
     240:	3c050613          	addi	a2,a0,960
     244:	000016b7          	lui	a3,0x1
     248:	40d406b3          	sub	a3,s0,a3
     24c:	b2c6b423          	sd	a2,-1240(a3) # b28 <.LBB87_3+0x8b8>
     250:	00001637          	lui	a2,0x1
     254:	40c40633          	sub	a2,s0,a2
     258:	b4a63c23          	sd	a0,-1192(a2) # b58 <.LBB87_3+0x8e8>
     25c:	46050513          	addi	a0,a0,1120
     260:	00001637          	lui	a2,0x1
     264:	40c40633          	sub	a2,s0,a2
     268:	b2a63023          	sd	a0,-1248(a2) # b20 <.LBB87_3+0x8b0>
     26c:	45d0006f          	j	ec8 <.LBB87_4>

0000000000000270 <.LBB87_3>:
     270:	94e43823          	sd	a4,-1712(s0)
     274:	d6043303          	ld	t1,-672(s0)
     278:	00430313          	addi	t1,t1,4
     27c:	00001537          	lui	a0,0x1
     280:	40a40533          	sub	a0,s0,a0
     284:	b5853703          	ld	a4,-1192(a0) # b58 <.LBB87_3+0x8e8>
     288:	00001537          	lui	a0,0x1
     28c:	40a40533          	sub	a0,s0,a0
     290:	65053503          	ld	a0,1616(a0) # 1650 <.LBB87_5+0x1cc>
     294:	00a70733          	add	a4,a4,a0
     298:	006701a3          	sb	t1,3(a4)
     29c:	e4843303          	ld	t1,-440(s0)
     2a0:	00430313          	addi	t1,t1,4
     2a4:	00670123          	sb	t1,2(a4)
     2a8:	e6043303          	ld	t1,-416(s0)
     2ac:	00430313          	addi	t1,t1,4
     2b0:	006700a3          	sb	t1,1(a4)
     2b4:	e7043303          	ld	t1,-400(s0)
     2b8:	00430313          	addi	t1,t1,4
     2bc:	00670023          	sb	t1,0(a4)
     2c0:	e8043303          	ld	t1,-384(s0)
     2c4:	00430313          	addi	t1,t1,4
     2c8:	00670223          	sb	t1,4(a4)
     2cc:	e9043303          	ld	t1,-368(s0)
     2d0:	00430313          	addi	t1,t1,4
     2d4:	006702a3          	sb	t1,5(a4)
     2d8:	ea043303          	ld	t1,-352(s0)
     2dc:	00430313          	addi	t1,t1,4
     2e0:	00670323          	sb	t1,6(a4)
     2e4:	eb043303          	ld	t1,-336(s0)
     2e8:	00430313          	addi	t1,t1,4
     2ec:	006703a3          	sb	t1,7(a4)
     2f0:	ec043303          	ld	t1,-320(s0)
     2f4:	00430313          	addi	t1,t1,4
     2f8:	00670423          	sb	t1,8(a4)
     2fc:	ed043303          	ld	t1,-304(s0)
     300:	00430313          	addi	t1,t1,4
     304:	006704a3          	sb	t1,9(a4)
     308:	ee043303          	ld	t1,-288(s0)
     30c:	00430313          	addi	t1,t1,4
     310:	00670523          	sb	t1,10(a4)
     314:	ee843303          	ld	t1,-280(s0)
     318:	00430313          	addi	t1,t1,4
     31c:	006705a3          	sb	t1,11(a4)
     320:	ef043303          	ld	t1,-272(s0)
     324:	00430313          	addi	t1,t1,4
     328:	00670623          	sb	t1,12(a4)
     32c:	ef843303          	ld	t1,-264(s0)
     330:	00430313          	addi	t1,t1,4
     334:	006706a3          	sb	t1,13(a4)
     338:	f0043303          	ld	t1,-256(s0)
     33c:	00430313          	addi	t1,t1,4
     340:	00670723          	sb	t1,14(a4)
     344:	f0843303          	ld	t1,-248(s0)
     348:	00430313          	addi	t1,t1,4
     34c:	006707a3          	sb	t1,15(a4)
     350:	f1043303          	ld	t1,-240(s0)
     354:	00430313          	addi	t1,t1,4
     358:	00670823          	sb	t1,16(a4)
     35c:	f1843303          	ld	t1,-232(s0)
     360:	00430313          	addi	t1,t1,4
     364:	006708a3          	sb	t1,17(a4)
     368:	f2043303          	ld	t1,-224(s0)
     36c:	00430313          	addi	t1,t1,4
     370:	00670923          	sb	t1,18(a4)
     374:	f2843303          	ld	t1,-216(s0)
     378:	00430313          	addi	t1,t1,4
     37c:	006709a3          	sb	t1,19(a4)
     380:	f3043303          	ld	t1,-208(s0)
     384:	00430313          	addi	t1,t1,4
     388:	00670a23          	sb	t1,20(a4)
     38c:	f3843303          	ld	t1,-200(s0)
     390:	00430313          	addi	t1,t1,4
     394:	00670aa3          	sb	t1,21(a4)
     398:	f4043303          	ld	t1,-192(s0)
     39c:	00430313          	addi	t1,t1,4
     3a0:	00670b23          	sb	t1,22(a4)
     3a4:	f4843303          	ld	t1,-184(s0)
     3a8:	00430313          	addi	t1,t1,4
     3ac:	00670ba3          	sb	t1,23(a4)
     3b0:	f5043303          	ld	t1,-176(s0)
     3b4:	00430313          	addi	t1,t1,4
     3b8:	00670c23          	sb	t1,24(a4)
     3bc:	f5843303          	ld	t1,-168(s0)
     3c0:	00430313          	addi	t1,t1,4
     3c4:	00670ca3          	sb	t1,25(a4)
     3c8:	f6043303          	ld	t1,-160(s0)
     3cc:	00430313          	addi	t1,t1,4
     3d0:	00670d23          	sb	t1,26(a4)
     3d4:	f6843303          	ld	t1,-152(s0)
     3d8:	00430313          	addi	t1,t1,4
     3dc:	00670da3          	sb	t1,27(a4)
     3e0:	f7043303          	ld	t1,-144(s0)
     3e4:	00430313          	addi	t1,t1,4
     3e8:	00670e23          	sb	t1,28(a4)
     3ec:	f7843303          	ld	t1,-136(s0)
     3f0:	00430313          	addi	t1,t1,4
     3f4:	00670ea3          	sb	t1,29(a4)
     3f8:	f8043303          	ld	t1,-128(s0)
     3fc:	00430313          	addi	t1,t1,4
     400:	00670f23          	sb	t1,30(a4)
     404:	f8843303          	ld	t1,-120(s0)
     408:	00430313          	addi	t1,t1,4
     40c:	00670fa3          	sb	t1,31(a4)
     410:	d3843303          	ld	t1,-712(s0)
     414:	00430313          	addi	t1,t1,4
     418:	00001737          	lui	a4,0x1
     41c:	40e40733          	sub	a4,s0,a4
     420:	b5073703          	ld	a4,-1200(a4) # b50 <.LBB87_3+0x8e0>
     424:	00a70733          	add	a4,a4,a0
     428:	006701a3          	sb	t1,3(a4)
     42c:	d4843303          	ld	t1,-696(s0)
     430:	00430313          	addi	t1,t1,4
     434:	00670123          	sb	t1,2(a4)
     438:	d5843303          	ld	t1,-680(s0)
     43c:	00430313          	addi	t1,t1,4
     440:	006700a3          	sb	t1,1(a4)
     444:	d7043303          	ld	t1,-656(s0)
     448:	00430313          	addi	t1,t1,4
     44c:	00670023          	sb	t1,0(a4)
     450:	d8043303          	ld	t1,-640(s0)
     454:	00430313          	addi	t1,t1,4
     458:	00670223          	sb	t1,4(a4)
     45c:	d9043303          	ld	t1,-624(s0)
     460:	00430313          	addi	t1,t1,4
     464:	006702a3          	sb	t1,5(a4)
     468:	da043303          	ld	t1,-608(s0)
     46c:	00430313          	addi	t1,t1,4
     470:	00670323          	sb	t1,6(a4)
     474:	db043303          	ld	t1,-592(s0)
     478:	00430313          	addi	t1,t1,4
     47c:	006703a3          	sb	t1,7(a4)
     480:	dc043303          	ld	t1,-576(s0)
     484:	00430313          	addi	t1,t1,4
     488:	00670423          	sb	t1,8(a4)
     48c:	dd043303          	ld	t1,-560(s0)
     490:	00430313          	addi	t1,t1,4
     494:	006704a3          	sb	t1,9(a4)
     498:	de043303          	ld	t1,-544(s0)
     49c:	00430313          	addi	t1,t1,4
     4a0:	00670523          	sb	t1,10(a4)
     4a4:	de843303          	ld	t1,-536(s0)
     4a8:	00430313          	addi	t1,t1,4
     4ac:	006705a3          	sb	t1,11(a4)
     4b0:	df043303          	ld	t1,-528(s0)
     4b4:	00430313          	addi	t1,t1,4
     4b8:	00670623          	sb	t1,12(a4)
     4bc:	df843303          	ld	t1,-520(s0)
     4c0:	00430313          	addi	t1,t1,4
     4c4:	006706a3          	sb	t1,13(a4)
     4c8:	e0043303          	ld	t1,-512(s0)
     4cc:	00430313          	addi	t1,t1,4
     4d0:	00670723          	sb	t1,14(a4)
     4d4:	e0843303          	ld	t1,-504(s0)
     4d8:	00430313          	addi	t1,t1,4
     4dc:	006707a3          	sb	t1,15(a4)
     4e0:	e1043303          	ld	t1,-496(s0)
     4e4:	00430313          	addi	t1,t1,4
     4e8:	00670823          	sb	t1,16(a4)
     4ec:	e1843303          	ld	t1,-488(s0)
     4f0:	00430313          	addi	t1,t1,4
     4f4:	006708a3          	sb	t1,17(a4)
     4f8:	e2043303          	ld	t1,-480(s0)
     4fc:	00430313          	addi	t1,t1,4
     500:	00670923          	sb	t1,18(a4)
     504:	e2843303          	ld	t1,-472(s0)
     508:	00430313          	addi	t1,t1,4
     50c:	006709a3          	sb	t1,19(a4)
     510:	e3043303          	ld	t1,-464(s0)
     514:	00430313          	addi	t1,t1,4
     518:	00670a23          	sb	t1,20(a4)
     51c:	e3843303          	ld	t1,-456(s0)
     520:	00430313          	addi	t1,t1,4
     524:	00670aa3          	sb	t1,21(a4)
     528:	e4043303          	ld	t1,-448(s0)
     52c:	00430313          	addi	t1,t1,4
     530:	00670b23          	sb	t1,22(a4)
     534:	e5043303          	ld	t1,-432(s0)
     538:	00430313          	addi	t1,t1,4
     53c:	00670ba3          	sb	t1,23(a4)
     540:	e6843303          	ld	t1,-408(s0)
     544:	00430313          	addi	t1,t1,4
     548:	00670c23          	sb	t1,24(a4)
     54c:	e7843303          	ld	t1,-392(s0)
     550:	00430313          	addi	t1,t1,4
     554:	00670ca3          	sb	t1,25(a4)
     558:	e8843303          	ld	t1,-376(s0)
     55c:	00430313          	addi	t1,t1,4
     560:	00670d23          	sb	t1,26(a4)
     564:	e9843303          	ld	t1,-360(s0)
     568:	00430313          	addi	t1,t1,4
     56c:	00670da3          	sb	t1,27(a4)
     570:	ea843303          	ld	t1,-344(s0)
     574:	00430313          	addi	t1,t1,4
     578:	00670e23          	sb	t1,28(a4)
     57c:	eb843303          	ld	t1,-328(s0)
     580:	00430313          	addi	t1,t1,4
     584:	00670ea3          	sb	t1,29(a4)
     588:	ec843303          	ld	t1,-312(s0)
     58c:	00430313          	addi	t1,t1,4
     590:	00670f23          	sb	t1,30(a4)
     594:	ed843303          	ld	t1,-296(s0)
     598:	00430313          	addi	t1,t1,4
     59c:	00670fa3          	sb	t1,31(a4)
     5a0:	c3843303          	ld	t1,-968(s0)
     5a4:	00430313          	addi	t1,t1,4
     5a8:	00001737          	lui	a4,0x1
     5ac:	40e40733          	sub	a4,s0,a4
     5b0:	b4873703          	ld	a4,-1208(a4) # b48 <.LBB87_3+0x8d8>
     5b4:	00a70733          	add	a4,a4,a0
     5b8:	006701a3          	sb	t1,3(a4)
     5bc:	c4843303          	ld	t1,-952(s0)
     5c0:	00430313          	addi	t1,t1,4
     5c4:	00670123          	sb	t1,2(a4)
     5c8:	c5843303          	ld	t1,-936(s0)
     5cc:	00430313          	addi	t1,t1,4
     5d0:	006700a3          	sb	t1,1(a4)
     5d4:	c6843303          	ld	t1,-920(s0)
     5d8:	00430313          	addi	t1,t1,4
     5dc:	00670023          	sb	t1,0(a4)
     5e0:	c7843303          	ld	t1,-904(s0)
     5e4:	00430313          	addi	t1,t1,4
     5e8:	00670223          	sb	t1,4(a4)
     5ec:	c8843303          	ld	t1,-888(s0)
     5f0:	00430313          	addi	t1,t1,4
     5f4:	006702a3          	sb	t1,5(a4)
     5f8:	c9843303          	ld	t1,-872(s0)
     5fc:	00430313          	addi	t1,t1,4
     600:	00670323          	sb	t1,6(a4)
     604:	ca843303          	ld	t1,-856(s0)
     608:	00430313          	addi	t1,t1,4
     60c:	006703a3          	sb	t1,7(a4)
     610:	cb843303          	ld	t1,-840(s0)
     614:	00430313          	addi	t1,t1,4
     618:	00670423          	sb	t1,8(a4)
     61c:	cc843303          	ld	t1,-824(s0)
     620:	00430313          	addi	t1,t1,4
     624:	006704a3          	sb	t1,9(a4)
     628:	cd843303          	ld	t1,-808(s0)
     62c:	00430313          	addi	t1,t1,4
     630:	00670523          	sb	t1,10(a4)
     634:	ce043303          	ld	t1,-800(s0)
     638:	00430313          	addi	t1,t1,4
     63c:	006705a3          	sb	t1,11(a4)
     640:	ce843303          	ld	t1,-792(s0)
     644:	00430313          	addi	t1,t1,4
     648:	00670623          	sb	t1,12(a4)
     64c:	cf043303          	ld	t1,-784(s0)
     650:	00430313          	addi	t1,t1,4
     654:	006706a3          	sb	t1,13(a4)
     658:	cf843303          	ld	t1,-776(s0)
     65c:	00430313          	addi	t1,t1,4
     660:	00670723          	sb	t1,14(a4)
     664:	d0043303          	ld	t1,-768(s0)
     668:	00430313          	addi	t1,t1,4
     66c:	006707a3          	sb	t1,15(a4)
     670:	d0843303          	ld	t1,-760(s0)
     674:	00430313          	addi	t1,t1,4
     678:	00670823          	sb	t1,16(a4)
     67c:	d1043303          	ld	t1,-752(s0)
     680:	00430313          	addi	t1,t1,4
     684:	006708a3          	sb	t1,17(a4)
     688:	d1843303          	ld	t1,-744(s0)
     68c:	00430313          	addi	t1,t1,4
     690:	00670923          	sb	t1,18(a4)
     694:	d2043303          	ld	t1,-736(s0)
     698:	00430313          	addi	t1,t1,4
     69c:	006709a3          	sb	t1,19(a4)
     6a0:	d2843303          	ld	t1,-728(s0)
     6a4:	00430313          	addi	t1,t1,4
     6a8:	00670a23          	sb	t1,20(a4)
     6ac:	d3043303          	ld	t1,-720(s0)
     6b0:	00430313          	addi	t1,t1,4
     6b4:	00670aa3          	sb	t1,21(a4)
     6b8:	d4043303          	ld	t1,-704(s0)
     6bc:	00430313          	addi	t1,t1,4
     6c0:	00670b23          	sb	t1,22(a4)
     6c4:	d5043303          	ld	t1,-688(s0)
     6c8:	00430313          	addi	t1,t1,4
     6cc:	00670ba3          	sb	t1,23(a4)
     6d0:	d6843303          	ld	t1,-664(s0)
     6d4:	00430313          	addi	t1,t1,4
     6d8:	00670c23          	sb	t1,24(a4)
     6dc:	d7843303          	ld	t1,-648(s0)
     6e0:	00430313          	addi	t1,t1,4
     6e4:	00670ca3          	sb	t1,25(a4)
     6e8:	d8843303          	ld	t1,-632(s0)
     6ec:	00430313          	addi	t1,t1,4
     6f0:	00670d23          	sb	t1,26(a4)
     6f4:	d9843303          	ld	t1,-616(s0)
     6f8:	00430313          	addi	t1,t1,4
     6fc:	00670da3          	sb	t1,27(a4)
     700:	da843303          	ld	t1,-600(s0)
     704:	00430313          	addi	t1,t1,4
     708:	00670e23          	sb	t1,28(a4)
     70c:	db843303          	ld	t1,-584(s0)
     710:	00430313          	addi	t1,t1,4
     714:	00670ea3          	sb	t1,29(a4)
     718:	dc843303          	ld	t1,-568(s0)
     71c:	00430313          	addi	t1,t1,4
     720:	00670f23          	sb	t1,30(a4)
     724:	dd843303          	ld	t1,-552(s0)
     728:	00430313          	addi	t1,t1,4
     72c:	00670fa3          	sb	t1,31(a4)
     730:	b3843303          	ld	t1,-1224(s0)
     734:	00430313          	addi	t1,t1,4
     738:	00001737          	lui	a4,0x1
     73c:	40e40733          	sub	a4,s0,a4
     740:	b4073703          	ld	a4,-1216(a4) # b40 <.LBB87_3+0x8d0>
     744:	00a70733          	add	a4,a4,a0
     748:	006701a3          	sb	t1,3(a4)
     74c:	b4843303          	ld	t1,-1208(s0)
     750:	00430313          	addi	t1,t1,4
     754:	00670123          	sb	t1,2(a4)
     758:	b5843303          	ld	t1,-1192(s0)
     75c:	00430313          	addi	t1,t1,4
     760:	006700a3          	sb	t1,1(a4)
     764:	b6843303          	ld	t1,-1176(s0)
     768:	00430313          	addi	t1,t1,4
     76c:	00670023          	sb	t1,0(a4)
     770:	b7843303          	ld	t1,-1160(s0)
     774:	00430313          	addi	t1,t1,4
     778:	00670223          	sb	t1,4(a4)
     77c:	b8843303          	ld	t1,-1144(s0)
     780:	00430313          	addi	t1,t1,4
     784:	006702a3          	sb	t1,5(a4)
     788:	b9843303          	ld	t1,-1128(s0)
     78c:	00430313          	addi	t1,t1,4
     790:	00670323          	sb	t1,6(a4)
     794:	ba843303          	ld	t1,-1112(s0)
     798:	00430313          	addi	t1,t1,4
     79c:	006703a3          	sb	t1,7(a4)
     7a0:	bb843303          	ld	t1,-1096(s0)
     7a4:	00430313          	addi	t1,t1,4
     7a8:	00670423          	sb	t1,8(a4)
     7ac:	bc843303          	ld	t1,-1080(s0)
     7b0:	00430313          	addi	t1,t1,4
     7b4:	006704a3          	sb	t1,9(a4)
     7b8:	bd843303          	ld	t1,-1064(s0)
     7bc:	00430313          	addi	t1,t1,4
     7c0:	00670523          	sb	t1,10(a4)
     7c4:	be043303          	ld	t1,-1056(s0)
     7c8:	00430313          	addi	t1,t1,4
     7cc:	006705a3          	sb	t1,11(a4)
     7d0:	be843303          	ld	t1,-1048(s0)
     7d4:	00430313          	addi	t1,t1,4
     7d8:	00670623          	sb	t1,12(a4)
     7dc:	bf043303          	ld	t1,-1040(s0)
     7e0:	00430313          	addi	t1,t1,4
     7e4:	006706a3          	sb	t1,13(a4)
     7e8:	bf843303          	ld	t1,-1032(s0)
     7ec:	00430313          	addi	t1,t1,4
     7f0:	00670723          	sb	t1,14(a4)
     7f4:	c0043303          	ld	t1,-1024(s0)
     7f8:	00430313          	addi	t1,t1,4
     7fc:	006707a3          	sb	t1,15(a4)
     800:	c0843303          	ld	t1,-1016(s0)
     804:	00430313          	addi	t1,t1,4
     808:	00670823          	sb	t1,16(a4)
     80c:	c1043303          	ld	t1,-1008(s0)
     810:	00430313          	addi	t1,t1,4
     814:	006708a3          	sb	t1,17(a4)
     818:	c1843303          	ld	t1,-1000(s0)
     81c:	00430313          	addi	t1,t1,4
     820:	00670923          	sb	t1,18(a4)
     824:	c2043303          	ld	t1,-992(s0)
     828:	00430313          	addi	t1,t1,4
     82c:	006709a3          	sb	t1,19(a4)
     830:	c2843303          	ld	t1,-984(s0)
     834:	00430313          	addi	t1,t1,4
     838:	00670a23          	sb	t1,20(a4)
     83c:	c3043303          	ld	t1,-976(s0)
     840:	00430313          	addi	t1,t1,4
     844:	00670aa3          	sb	t1,21(a4)
     848:	c4043303          	ld	t1,-960(s0)
     84c:	00430313          	addi	t1,t1,4
     850:	00670b23          	sb	t1,22(a4)
     854:	c5043303          	ld	t1,-944(s0)
     858:	00430313          	addi	t1,t1,4
     85c:	00670ba3          	sb	t1,23(a4)
     860:	c6043303          	ld	t1,-928(s0)
     864:	00430313          	addi	t1,t1,4
     868:	00670c23          	sb	t1,24(a4)
     86c:	c7043303          	ld	t1,-912(s0)
     870:	00430313          	addi	t1,t1,4
     874:	00670ca3          	sb	t1,25(a4)
     878:	c8043303          	ld	t1,-896(s0)
     87c:	00430313          	addi	t1,t1,4
     880:	00670d23          	sb	t1,26(a4)
     884:	c9043303          	ld	t1,-880(s0)
     888:	00430313          	addi	t1,t1,4
     88c:	00670da3          	sb	t1,27(a4)
     890:	ca043303          	ld	t1,-864(s0)
     894:	00430313          	addi	t1,t1,4
     898:	00670e23          	sb	t1,28(a4)
     89c:	cb043303          	ld	t1,-848(s0)
     8a0:	00430313          	addi	t1,t1,4
     8a4:	00670ea3          	sb	t1,29(a4)
     8a8:	cc043303          	ld	t1,-832(s0)
     8ac:	00430313          	addi	t1,t1,4
     8b0:	00670f23          	sb	t1,30(a4)
     8b4:	cd043303          	ld	t1,-816(s0)
     8b8:	00430313          	addi	t1,t1,4
     8bc:	00670fa3          	sb	t1,31(a4)
     8c0:	a3843303          	ld	t1,-1480(s0)
     8c4:	00430313          	addi	t1,t1,4
     8c8:	00001737          	lui	a4,0x1
     8cc:	40e40733          	sub	a4,s0,a4
     8d0:	b3873703          	ld	a4,-1224(a4) # b38 <.LBB87_3+0x8c8>
     8d4:	00a70733          	add	a4,a4,a0
     8d8:	006701a3          	sb	t1,3(a4)
     8dc:	a4843303          	ld	t1,-1464(s0)
     8e0:	00430313          	addi	t1,t1,4
     8e4:	00670123          	sb	t1,2(a4)
     8e8:	a5843303          	ld	t1,-1448(s0)
     8ec:	00430313          	addi	t1,t1,4
     8f0:	006700a3          	sb	t1,1(a4)
     8f4:	a6843303          	ld	t1,-1432(s0)
     8f8:	00430313          	addi	t1,t1,4
     8fc:	00670023          	sb	t1,0(a4)
     900:	a7843303          	ld	t1,-1416(s0)
     904:	00430313          	addi	t1,t1,4
     908:	00670223          	sb	t1,4(a4)
     90c:	a8843303          	ld	t1,-1400(s0)
     910:	00430313          	addi	t1,t1,4
     914:	006702a3          	sb	t1,5(a4)
     918:	a9843303          	ld	t1,-1384(s0)
     91c:	00430313          	addi	t1,t1,4
     920:	00670323          	sb	t1,6(a4)
     924:	aa843303          	ld	t1,-1368(s0)
     928:	00430313          	addi	t1,t1,4
     92c:	006703a3          	sb	t1,7(a4)
     930:	ab843303          	ld	t1,-1352(s0)
     934:	00430313          	addi	t1,t1,4
     938:	00670423          	sb	t1,8(a4)
     93c:	ac843303          	ld	t1,-1336(s0)
     940:	00430313          	addi	t1,t1,4
     944:	006704a3          	sb	t1,9(a4)
     948:	ad843303          	ld	t1,-1320(s0)
     94c:	00430313          	addi	t1,t1,4
     950:	00670523          	sb	t1,10(a4)
     954:	ae043303          	ld	t1,-1312(s0)
     958:	00430313          	addi	t1,t1,4
     95c:	006705a3          	sb	t1,11(a4)
     960:	ae843303          	ld	t1,-1304(s0)
     964:	00430313          	addi	t1,t1,4
     968:	00670623          	sb	t1,12(a4)
     96c:	af043303          	ld	t1,-1296(s0)
     970:	00430313          	addi	t1,t1,4
     974:	006706a3          	sb	t1,13(a4)
     978:	af843303          	ld	t1,-1288(s0)
     97c:	00430313          	addi	t1,t1,4
     980:	00670723          	sb	t1,14(a4)
     984:	b0043303          	ld	t1,-1280(s0)
     988:	00430313          	addi	t1,t1,4
     98c:	006707a3          	sb	t1,15(a4)
     990:	b0843303          	ld	t1,-1272(s0)
     994:	00430313          	addi	t1,t1,4
     998:	00670823          	sb	t1,16(a4)
     99c:	b1043303          	ld	t1,-1264(s0)
     9a0:	00430313          	addi	t1,t1,4
     9a4:	006708a3          	sb	t1,17(a4)
     9a8:	b1843303          	ld	t1,-1256(s0)
     9ac:	00430313          	addi	t1,t1,4
     9b0:	00670923          	sb	t1,18(a4)
     9b4:	b2043303          	ld	t1,-1248(s0)
     9b8:	00430313          	addi	t1,t1,4
     9bc:	006709a3          	sb	t1,19(a4)
     9c0:	b2843303          	ld	t1,-1240(s0)
     9c4:	00430313          	addi	t1,t1,4
     9c8:	00670a23          	sb	t1,20(a4)
     9cc:	b3043303          	ld	t1,-1232(s0)
     9d0:	00430313          	addi	t1,t1,4
     9d4:	00670aa3          	sb	t1,21(a4)
     9d8:	b4043303          	ld	t1,-1216(s0)
     9dc:	00430313          	addi	t1,t1,4
     9e0:	00670b23          	sb	t1,22(a4)
     9e4:	b5043303          	ld	t1,-1200(s0)
     9e8:	00430313          	addi	t1,t1,4
     9ec:	00670ba3          	sb	t1,23(a4)
     9f0:	b6043303          	ld	t1,-1184(s0)
     9f4:	00430313          	addi	t1,t1,4
     9f8:	00670c23          	sb	t1,24(a4)
     9fc:	b7043303          	ld	t1,-1168(s0)
     a00:	00430313          	addi	t1,t1,4
     a04:	00670ca3          	sb	t1,25(a4)
     a08:	b8043303          	ld	t1,-1152(s0)
     a0c:	00430313          	addi	t1,t1,4
     a10:	00670d23          	sb	t1,26(a4)
     a14:	b9043303          	ld	t1,-1136(s0)
     a18:	00430313          	addi	t1,t1,4
     a1c:	00670da3          	sb	t1,27(a4)
     a20:	ba043303          	ld	t1,-1120(s0)
     a24:	00430313          	addi	t1,t1,4
     a28:	00670e23          	sb	t1,28(a4)
     a2c:	bb043303          	ld	t1,-1104(s0)
     a30:	00430313          	addi	t1,t1,4
     a34:	00670ea3          	sb	t1,29(a4)
     a38:	bc043303          	ld	t1,-1088(s0)
     a3c:	00430313          	addi	t1,t1,4
     a40:	00670f23          	sb	t1,30(a4)
     a44:	bd043303          	ld	t1,-1072(s0)
     a48:	00430313          	addi	t1,t1,4
     a4c:	00670fa3          	sb	t1,31(a4)
     a50:	9b843303          	ld	t1,-1608(s0)
     a54:	00430313          	addi	t1,t1,4
     a58:	00001737          	lui	a4,0x1
     a5c:	40e40733          	sub	a4,s0,a4
     a60:	b3073703          	ld	a4,-1232(a4) # b30 <.LBB87_3+0x8c0>
     a64:	00a70733          	add	a4,a4,a0
     a68:	006701a3          	sb	t1,3(a4)
     a6c:	004d8313          	addi	t1,s11,4
     a70:	00670123          	sb	t1,2(a4)
     a74:	004c8313          	addi	t1,s9,4
     a78:	006700a3          	sb	t1,1(a4)
     a7c:	004b8313          	addi	t1,s7,4
     a80:	00670023          	sb	t1,0(a4)
     a84:	00428313          	addi	t1,t0,4
     a88:	00670223          	sb	t1,4(a4)
     a8c:	004e8313          	addi	t1,t4,4
     a90:	006702a3          	sb	t1,5(a4)
     a94:	00490313          	addi	t1,s2,4
     a98:	00670323          	sb	t1,6(a4)
     a9c:	00488313          	addi	t1,a7,4
     aa0:	006703a3          	sb	t1,7(a4)
     aa4:	004f8313          	addi	t1,t6,4
     aa8:	00670423          	sb	t1,8(a4)
     aac:	9c843303          	ld	t1,-1592(s0)
     ab0:	00430313          	addi	t1,t1,4
     ab4:	006704a3          	sb	t1,9(a4)
     ab8:	9d843303          	ld	t1,-1576(s0)
     abc:	00430313          	addi	t1,t1,4
     ac0:	00670523          	sb	t1,10(a4)
     ac4:	9e043303          	ld	t1,-1568(s0)
     ac8:	00430313          	addi	t1,t1,4
     acc:	006705a3          	sb	t1,11(a4)
     ad0:	9e843303          	ld	t1,-1560(s0)
     ad4:	00430313          	addi	t1,t1,4
     ad8:	00670623          	sb	t1,12(a4)
     adc:	9f043303          	ld	t1,-1552(s0)
     ae0:	00430313          	addi	t1,t1,4
     ae4:	006706a3          	sb	t1,13(a4)
     ae8:	9f843303          	ld	t1,-1544(s0)
     aec:	00430313          	addi	t1,t1,4
     af0:	00670723          	sb	t1,14(a4)
     af4:	a0043303          	ld	t1,-1536(s0)
     af8:	00430313          	addi	t1,t1,4
     afc:	006707a3          	sb	t1,15(a4)
     b00:	a0843303          	ld	t1,-1528(s0)
     b04:	00430313          	addi	t1,t1,4
     b08:	00670823          	sb	t1,16(a4)
     b0c:	a1043303          	ld	t1,-1520(s0)
     b10:	00430313          	addi	t1,t1,4
     b14:	006708a3          	sb	t1,17(a4)
     b18:	a1843303          	ld	t1,-1512(s0)
     b1c:	00430313          	addi	t1,t1,4
     b20:	00670923          	sb	t1,18(a4)
     b24:	a2043303          	ld	t1,-1504(s0)
     b28:	00430313          	addi	t1,t1,4
     b2c:	006709a3          	sb	t1,19(a4)
     b30:	a2843303          	ld	t1,-1496(s0)
     b34:	00430313          	addi	t1,t1,4
     b38:	00670a23          	sb	t1,20(a4)
     b3c:	a3043303          	ld	t1,-1488(s0)
     b40:	00430313          	addi	t1,t1,4
     b44:	00670aa3          	sb	t1,21(a4)
     b48:	a4043303          	ld	t1,-1472(s0)
     b4c:	00430313          	addi	t1,t1,4
     b50:	00670b23          	sb	t1,22(a4)
     b54:	a5043303          	ld	t1,-1456(s0)
     b58:	00430313          	addi	t1,t1,4
     b5c:	00670ba3          	sb	t1,23(a4)
     b60:	a6043303          	ld	t1,-1440(s0)
     b64:	00430313          	addi	t1,t1,4
     b68:	00670c23          	sb	t1,24(a4)
     b6c:	a7043303          	ld	t1,-1424(s0)
     b70:	00430313          	addi	t1,t1,4
     b74:	00670ca3          	sb	t1,25(a4)
     b78:	a8043303          	ld	t1,-1408(s0)
     b7c:	00430313          	addi	t1,t1,4
     b80:	00670d23          	sb	t1,26(a4)
     b84:	a9043303          	ld	t1,-1392(s0)
     b88:	00430313          	addi	t1,t1,4
     b8c:	00670da3          	sb	t1,27(a4)
     b90:	aa043303          	ld	t1,-1376(s0)
     b94:	00430313          	addi	t1,t1,4
     b98:	00670e23          	sb	t1,28(a4)
     b9c:	ab043303          	ld	t1,-1360(s0)
     ba0:	00430313          	addi	t1,t1,4
     ba4:	00670ea3          	sb	t1,29(a4)
     ba8:	ac043303          	ld	t1,-1344(s0)
     bac:	00430313          	addi	t1,t1,4
     bb0:	00670f23          	sb	t1,30(a4)
     bb4:	ad043303          	ld	t1,-1328(s0)
     bb8:	00430313          	addi	t1,t1,4
     bbc:	00670fa3          	sb	t1,31(a4)
     bc0:	8b843883          	ld	a7,-1864(s0)
     bc4:	00488893          	addi	a7,a7,4
     bc8:	00001737          	lui	a4,0x1
     bcc:	40e40733          	sub	a4,s0,a4
     bd0:	b2873703          	ld	a4,-1240(a4) # b28 <.LBB87_3+0x8b8>
     bd4:	00050293          	mv	t0,a0
     bd8:	00a70733          	add	a4,a4,a0
     bdc:	011701a3          	sb	a7,3(a4)
     be0:	8c843503          	ld	a0,-1848(s0)
     be4:	00450513          	addi	a0,a0,4
     be8:	00a70123          	sb	a0,2(a4)
     bec:	8d843503          	ld	a0,-1832(s0)
     bf0:	00450513          	addi	a0,a0,4
     bf4:	00a700a3          	sb	a0,1(a4)
     bf8:	8e843503          	ld	a0,-1816(s0)
     bfc:	00450513          	addi	a0,a0,4
     c00:	00a70023          	sb	a0,0(a4)
     c04:	8f843503          	ld	a0,-1800(s0)
     c08:	00450513          	addi	a0,a0,4
     c0c:	00a70223          	sb	a0,4(a4)
     c10:	90843503          	ld	a0,-1784(s0)
     c14:	00450513          	addi	a0,a0,4
     c18:	00a702a3          	sb	a0,5(a4)
     c1c:	91843503          	ld	a0,-1768(s0)
     c20:	00450513          	addi	a0,a0,4
     c24:	00a70323          	sb	a0,6(a4)
     c28:	92843503          	ld	a0,-1752(s0)
     c2c:	00450513          	addi	a0,a0,4
     c30:	00a703a3          	sb	a0,7(a4)
     c34:	93843503          	ld	a0,-1736(s0)
     c38:	00450513          	addi	a0,a0,4
     c3c:	00a70423          	sb	a0,8(a4)
     c40:	94843503          	ld	a0,-1720(s0)
     c44:	00450513          	addi	a0,a0,4
     c48:	00a704a3          	sb	a0,9(a4)
     c4c:	95843503          	ld	a0,-1704(s0)
     c50:	00450513          	addi	a0,a0,4
     c54:	00a70523          	sb	a0,10(a4)
     c58:	96043503          	ld	a0,-1696(s0)
     c5c:	00450513          	addi	a0,a0,4
     c60:	00a705a3          	sb	a0,11(a4)
     c64:	96843503          	ld	a0,-1688(s0)
     c68:	00450513          	addi	a0,a0,4
     c6c:	00a70623          	sb	a0,12(a4)
     c70:	97043503          	ld	a0,-1680(s0)
     c74:	00450513          	addi	a0,a0,4
     c78:	00a706a3          	sb	a0,13(a4)
     c7c:	97843503          	ld	a0,-1672(s0)
     c80:	00450513          	addi	a0,a0,4
     c84:	00a70723          	sb	a0,14(a4)
     c88:	98043503          	ld	a0,-1664(s0)
     c8c:	00450513          	addi	a0,a0,4
     c90:	00a707a3          	sb	a0,15(a4)
     c94:	98843503          	ld	a0,-1656(s0)
     c98:	00450513          	addi	a0,a0,4
     c9c:	00a70823          	sb	a0,16(a4)
     ca0:	99043503          	ld	a0,-1648(s0)
     ca4:	00450513          	addi	a0,a0,4
     ca8:	00a708a3          	sb	a0,17(a4)
     cac:	99843503          	ld	a0,-1640(s0)
     cb0:	00450513          	addi	a0,a0,4
     cb4:	00a70923          	sb	a0,18(a4)
     cb8:	9a043503          	ld	a0,-1632(s0)
     cbc:	00450513          	addi	a0,a0,4
     cc0:	00a709a3          	sb	a0,19(a4)
     cc4:	9a843503          	ld	a0,-1624(s0)
     cc8:	00450513          	addi	a0,a0,4
     ccc:	00a70a23          	sb	a0,20(a4)
     cd0:	9b043503          	ld	a0,-1616(s0)
     cd4:	00450513          	addi	a0,a0,4
     cd8:	00a70aa3          	sb	a0,21(a4)
     cdc:	00408513          	addi	a0,ra,4
     ce0:	00a70b23          	sb	a0,22(a4)
     ce4:	004d0513          	addi	a0,s10,4
     ce8:	00a70ba3          	sb	a0,23(a4)
     cec:	004c0513          	addi	a0,s8,4
     cf0:	00a70c23          	sb	a0,24(a4)
     cf4:	004a8513          	addi	a0,s5,4
     cf8:	00a70ca3          	sb	a0,25(a4)
     cfc:	004f0513          	addi	a0,t5,4
     d00:	00a70d23          	sb	a0,26(a4)
     d04:	004e0513          	addi	a0,t3,4
     d08:	00a70da3          	sb	a0,27(a4)
     d0c:	00438513          	addi	a0,t2,4
     d10:	00a70e23          	sb	a0,28(a4)
     d14:	84843503          	ld	a0,-1976(s0)
     d18:	00450513          	addi	a0,a0,4
     d1c:	00a70ea3          	sb	a0,29(a4)
     d20:	9c043503          	ld	a0,-1600(s0)
     d24:	00450513          	addi	a0,a0,4
     d28:	00a70f23          	sb	a0,30(a4)
     d2c:	9d043503          	ld	a0,-1584(s0)
     d30:	00450513          	addi	a0,a0,4
     d34:	00a70fa3          	sb	a0,31(a4)
     d38:	00498993          	addi	s3,s3,4
     d3c:	00001537          	lui	a0,0x1
     d40:	40a40533          	sub	a0,s0,a0
     d44:	b2053503          	ld	a0,-1248(a0) # b20 <.LBB87_3+0x8b0>
     d48:	00550533          	add	a0,a0,t0
     d4c:	00028713          	mv	a4,t0
     d50:	013501a3          	sb	s3,3(a0)
     d54:	00458093          	addi	ra,a1,4
     d58:	00150123          	sb	ra,2(a0)
     d5c:	00448493          	addi	s1,s1,4
     d60:	009500a3          	sb	s1,1(a0)
     d64:	004a0a13          	addi	s4,s4,4
     d68:	01450023          	sb	s4,0(a0)
     d6c:	00480813          	addi	a6,a6,4
     d70:	01050223          	sb	a6,4(a0)
     d74:	00478793          	addi	a5,a5,4
     d78:	00f502a3          	sb	a5,5(a0)
     d7c:	00468d93          	addi	s11,a3,4
     d80:	01b50323          	sb	s11,6(a0)
     d84:	004b0d13          	addi	s10,s6,4
     d88:	01a503a3          	sb	s10,7(a0)
     d8c:	00460c93          	addi	s9,a2,4
     d90:	01950423          	sb	s9,8(a0)
     d94:	85043c03          	ld	s8,-1968(s0)
     d98:	004c0c13          	addi	s8,s8,4
     d9c:	018504a3          	sb	s8,9(a0)
     da0:	85843b83          	ld	s7,-1960(s0)
     da4:	004b8b93          	addi	s7,s7,4
     da8:	01750523          	sb	s7,10(a0)
     dac:	86043b03          	ld	s6,-1952(s0)
     db0:	004b0b13          	addi	s6,s6,4
     db4:	016505a3          	sb	s6,11(a0)
     db8:	86843a83          	ld	s5,-1944(s0)
     dbc:	004a8a93          	addi	s5,s5,4
     dc0:	01550623          	sb	s5,12(a0)
     dc4:	87043283          	ld	t0,-1936(s0)
     dc8:	00428293          	addi	t0,t0,4
     dcc:	005506a3          	sb	t0,13(a0)
     dd0:	87843683          	ld	a3,-1928(s0)
     dd4:	00468693          	addi	a3,a3,4
     dd8:	00d50723          	sb	a3,14(a0)
     ddc:	88043603          	ld	a2,-1920(s0)
     de0:	00460613          	addi	a2,a2,4
     de4:	00c507a3          	sb	a2,15(a0)
     de8:	88843f03          	ld	t5,-1912(s0)
     dec:	004f0f13          	addi	t5,t5,4
     df0:	01e50823          	sb	t5,16(a0)
     df4:	89043583          	ld	a1,-1904(s0)
     df8:	00458593          	addi	a1,a1,4
     dfc:	00b508a3          	sb	a1,17(a0)
     e00:	89843e83          	ld	t4,-1896(s0)
     e04:	004e8e93          	addi	t4,t4,4
     e08:	01d50923          	sb	t4,18(a0)
     e0c:	8a043e03          	ld	t3,-1888(s0)
     e10:	004e0e13          	addi	t3,t3,4
     e14:	01c509a3          	sb	t3,19(a0)
     e18:	8a843903          	ld	s2,-1880(s0)
     e1c:	00490913          	addi	s2,s2,4
     e20:	01250a23          	sb	s2,20(a0)
     e24:	8b043383          	ld	t2,-1872(s0)
     e28:	00438393          	addi	t2,t2,4
     e2c:	00750aa3          	sb	t2,21(a0)
     e30:	8c043f83          	ld	t6,-1856(s0)
     e34:	004f8f93          	addi	t6,t6,4
     e38:	01f50b23          	sb	t6,22(a0)
     e3c:	8d043583          	ld	a1,-1840(s0)
     e40:	00458593          	addi	a1,a1,4
     e44:	00b50ba3          	sb	a1,23(a0)
     e48:	8e043583          	ld	a1,-1824(s0)
     e4c:	00458593          	addi	a1,a1,4
     e50:	00b50c23          	sb	a1,24(a0)
     e54:	8f043583          	ld	a1,-1808(s0)
     e58:	00458593          	addi	a1,a1,4
     e5c:	00b50ca3          	sb	a1,25(a0)
     e60:	90043583          	ld	a1,-1792(s0)
     e64:	00458593          	addi	a1,a1,4
     e68:	00b50d23          	sb	a1,26(a0)
     e6c:	91043583          	ld	a1,-1776(s0)
     e70:	00458593          	addi	a1,a1,4
     e74:	00b50da3          	sb	a1,27(a0)
     e78:	92043583          	ld	a1,-1760(s0)
     e7c:	00458593          	addi	a1,a1,4
     e80:	00b50e23          	sb	a1,28(a0)
     e84:	93043583          	ld	a1,-1744(s0)
     e88:	00458593          	addi	a1,a1,4
     e8c:	00b50ea3          	sb	a1,29(a0)
     e90:	94043583          	ld	a1,-1728(s0)
     e94:	00458593          	addi	a1,a1,4
     e98:	00b50f23          	sb	a1,30(a0)
     e9c:	95043583          	ld	a1,-1712(s0)
     ea0:	00458593          	addi	a1,a1,4
     ea4:	00b50fa3          	sb	a1,31(a0)
     ea8:	00070613          	mv	a2,a4
     eac:	02070593          	addi	a1,a4,32
     eb0:	00001537          	lui	a0,0x1
     eb4:	40a40533          	sub	a0,s0,a0
     eb8:	64053383          	ld	t2,1600(a0) # 1640 <.LBB87_5+0x1bc>
     ebc:	02038393          	addi	t2,t2,32
     ec0:	08000513          	li	a0,128
     ec4:	a6a77a63          	bgeu	a4,a0,138 <.LBB87_1>

0000000000000ec8 <.LBB87_4>:
     ec8:	00001537          	lui	a0,0x1
     ecc:	40a40533          	sub	a0,s0,a0
     ed0:	64b53823          	sd	a1,1616(a0) # 1650 <.LBB87_5+0x1cc>
     ed4:	00001537          	lui	a0,0x1
     ed8:	40a40533          	sub	a0,s0,a0
     edc:	b1853783          	ld	a5,-1256(a0) # b18 <.LBB87_3+0x8a8>
     ee0:	00001537          	lui	a0,0x1
     ee4:	40a40533          	sub	a0,s0,a0
     ee8:	b7053503          	ld	a0,-1168(a0) # b70 <.LBB87_3+0x900>
     eec:	f6a43823          	sd	a0,-144(s0)
     ef0:	00001537          	lui	a0,0x1
     ef4:	40a40533          	sub	a0,s0,a0
     ef8:	b7853f83          	ld	t6,-1160(a0) # b78 <.LBB87_3+0x908>
     efc:	00001537          	lui	a0,0x1
     f00:	40a40533          	sub	a0,s0,a0
     f04:	64753023          	sd	t2,1600(a0) # 1640 <.LBB87_5+0x1bc>
     f08:	00038493          	mv	s1,t2
     f0c:	00001537          	lui	a0,0x1
     f10:	40a40533          	sub	a0,s0,a0
     f14:	6c053423          	sd	zero,1736(a0) # 16c8 <.LBB87_5+0x244>
     f18:	00001537          	lui	a0,0x1
     f1c:	40a40533          	sub	a0,s0,a0
     f20:	6c053023          	sd	zero,1728(a0) # 16c0 <.LBB87_5+0x23c>
     f24:	00001537          	lui	a0,0x1
     f28:	40a40533          	sub	a0,s0,a0
     f2c:	6a053423          	sd	zero,1704(a0) # 16a8 <.LBB87_5+0x224>
     f30:	00001537          	lui	a0,0x1
     f34:	40a40533          	sub	a0,s0,a0
     f38:	6a053823          	sd	zero,1712(a0) # 16b0 <.LBB87_5+0x22c>
     f3c:	00001537          	lui	a0,0x1
     f40:	40a40533          	sub	a0,s0,a0
     f44:	6a053c23          	sd	zero,1720(a0) # 16b8 <.LBB87_5+0x234>
     f48:	00001537          	lui	a0,0x1
     f4c:	40a40533          	sub	a0,s0,a0
     f50:	6a053023          	sd	zero,1696(a0) # 16a0 <.LBB87_5+0x21c>
     f54:	00001537          	lui	a0,0x1
     f58:	40a40533          	sub	a0,s0,a0
     f5c:	68053c23          	sd	zero,1688(a0) # 1698 <.LBB87_5+0x214>
     f60:	00001537          	lui	a0,0x1
     f64:	40a40533          	sub	a0,s0,a0
     f68:	68053823          	sd	zero,1680(a0) # 1690 <.LBB87_5+0x20c>
     f6c:	00001537          	lui	a0,0x1
     f70:	40a40533          	sub	a0,s0,a0
     f74:	68053423          	sd	zero,1672(a0) # 1688 <.LBB87_5+0x204>
     f78:	00001537          	lui	a0,0x1
     f7c:	40a40533          	sub	a0,s0,a0
     f80:	6c053823          	sd	zero,1744(a0) # 16d0 <.LBB87_5+0x24c>
     f84:	00001537          	lui	a0,0x1
     f88:	40a40533          	sub	a0,s0,a0
     f8c:	6c053c23          	sd	zero,1752(a0) # 16d8 <.LBB87_5+0x254>
     f90:	00001537          	lui	a0,0x1
     f94:	40a40533          	sub	a0,s0,a0
     f98:	6e053023          	sd	zero,1760(a0) # 16e0 <.LBB87_5+0x25c>
     f9c:	00001537          	lui	a0,0x1
     fa0:	40a40533          	sub	a0,s0,a0
     fa4:	6e053423          	sd	zero,1768(a0) # 16e8 <.LBB87_5+0x264>
     fa8:	00001537          	lui	a0,0x1
     fac:	40a40533          	sub	a0,s0,a0
     fb0:	6e053823          	sd	zero,1776(a0) # 16f0 <.LBB87_5+0x26c>
     fb4:	00001537          	lui	a0,0x1
     fb8:	40a40533          	sub	a0,s0,a0
     fbc:	6e053c23          	sd	zero,1784(a0) # 16f8 <.LBB87_5+0x274>
     fc0:	00001537          	lui	a0,0x1
     fc4:	40a40533          	sub	a0,s0,a0
     fc8:	70053023          	sd	zero,1792(a0) # 1700 <.LBB87_5+0x27c>
     fcc:	00001537          	lui	a0,0x1
     fd0:	40a40533          	sub	a0,s0,a0
     fd4:	70053423          	sd	zero,1800(a0) # 1708 <.LBB87_5+0x284>
     fd8:	00001537          	lui	a0,0x1
     fdc:	40a40533          	sub	a0,s0,a0
     fe0:	70053823          	sd	zero,1808(a0) # 1710 <.LBB87_5+0x28c>
     fe4:	00001537          	lui	a0,0x1
     fe8:	40a40533          	sub	a0,s0,a0
     fec:	70053c23          	sd	zero,1816(a0) # 1718 <.LBB87_5+0x294>
     ff0:	00001537          	lui	a0,0x1
     ff4:	40a40533          	sub	a0,s0,a0
     ff8:	72053023          	sd	zero,1824(a0) # 1720 <.LBB87_5+0x29c>
     ffc:	00001537          	lui	a0,0x1
    1000:	40a40533          	sub	a0,s0,a0
    1004:	72053423          	sd	zero,1832(a0) # 1728 <.LBB87_5+0x2a4>
    1008:	00001537          	lui	a0,0x1
    100c:	40a40533          	sub	a0,s0,a0
    1010:	72053823          	sd	zero,1840(a0) # 1730 <.LBB87_5+0x2ac>
    1014:	00001537          	lui	a0,0x1
    1018:	40a40533          	sub	a0,s0,a0
    101c:	72053c23          	sd	zero,1848(a0) # 1738 <.LBB87_5+0x2b4>
    1020:	00001537          	lui	a0,0x1
    1024:	40a40533          	sub	a0,s0,a0
    1028:	74053023          	sd	zero,1856(a0) # 1740 <.LBB87_5+0x2bc>
    102c:	00001537          	lui	a0,0x1
    1030:	40a40533          	sub	a0,s0,a0
    1034:	74053423          	sd	zero,1864(a0) # 1748 <.LBB87_5+0x2c4>
    1038:	00001537          	lui	a0,0x1
    103c:	40a40533          	sub	a0,s0,a0
    1040:	74053823          	sd	zero,1872(a0) # 1750 <.LBB87_5+0x2cc>
    1044:	00001537          	lui	a0,0x1
    1048:	40a40533          	sub	a0,s0,a0
    104c:	74053c23          	sd	zero,1880(a0) # 1758 <.LBB87_5+0x2d4>
    1050:	00001537          	lui	a0,0x1
    1054:	40a40533          	sub	a0,s0,a0
    1058:	76053023          	sd	zero,1888(a0) # 1760 <.LBB87_5+0x2dc>
    105c:	00001537          	lui	a0,0x1
    1060:	40a40533          	sub	a0,s0,a0
    1064:	76053423          	sd	zero,1896(a0) # 1768 <.LBB87_5+0x2e4>
    1068:	00001537          	lui	a0,0x1
    106c:	40a40533          	sub	a0,s0,a0
    1070:	76053823          	sd	zero,1904(a0) # 1770 <.LBB87_5+0x2ec>
    1074:	00001537          	lui	a0,0x1
    1078:	40a40533          	sub	a0,s0,a0
    107c:	76053c23          	sd	zero,1912(a0) # 1778 <.LBB87_5+0x2f4>
    1080:	00001537          	lui	a0,0x1
    1084:	40a40533          	sub	a0,s0,a0
    1088:	78053023          	sd	zero,1920(a0) # 1780 <.LBB87_5+0x2fc>
    108c:	00001537          	lui	a0,0x1
    1090:	40a40533          	sub	a0,s0,a0
    1094:	7a053023          	sd	zero,1952(a0) # 17a0 <.LBB87_5+0x31c>
    1098:	00001537          	lui	a0,0x1
    109c:	40a40533          	sub	a0,s0,a0
    10a0:	78053c23          	sd	zero,1944(a0) # 1798 <.LBB87_5+0x314>
    10a4:	00001537          	lui	a0,0x1
    10a8:	40a40533          	sub	a0,s0,a0
    10ac:	78053823          	sd	zero,1936(a0) # 1790 <.LBB87_5+0x30c>
    10b0:	00001537          	lui	a0,0x1
    10b4:	40a40533          	sub	a0,s0,a0
    10b8:	78053423          	sd	zero,1928(a0) # 1788 <.LBB87_5+0x304>
    10bc:	00001537          	lui	a0,0x1
    10c0:	40a40533          	sub	a0,s0,a0
    10c4:	7a053423          	sd	zero,1960(a0) # 17a8 <.LBB87_5+0x324>
    10c8:	00001537          	lui	a0,0x1
    10cc:	40a40533          	sub	a0,s0,a0
    10d0:	7a053823          	sd	zero,1968(a0) # 17b0 <.LBB87_5+0x32c>
    10d4:	00001537          	lui	a0,0x1
    10d8:	40a40533          	sub	a0,s0,a0
    10dc:	7a053c23          	sd	zero,1976(a0) # 17b8 <.LBB87_5+0x334>
    10e0:	00001537          	lui	a0,0x1
    10e4:	40a40533          	sub	a0,s0,a0
    10e8:	7c053023          	sd	zero,1984(a0) # 17c0 <.LBB87_5+0x33c>
    10ec:	00001537          	lui	a0,0x1
    10f0:	40a40533          	sub	a0,s0,a0
    10f4:	7c053423          	sd	zero,1992(a0) # 17c8 <.LBB87_5+0x344>
    10f8:	00001537          	lui	a0,0x1
    10fc:	40a40533          	sub	a0,s0,a0
    1100:	7c053823          	sd	zero,2000(a0) # 17d0 <.LBB87_5+0x34c>
    1104:	00001537          	lui	a0,0x1
    1108:	40a40533          	sub	a0,s0,a0
    110c:	7c053c23          	sd	zero,2008(a0) # 17d8 <.LBB87_5+0x354>
    1110:	00001537          	lui	a0,0x1
    1114:	40a40533          	sub	a0,s0,a0
    1118:	7e053023          	sd	zero,2016(a0) # 17e0 <.LBB87_5+0x35c>
    111c:	00001537          	lui	a0,0x1
    1120:	40a40533          	sub	a0,s0,a0
    1124:	7e053423          	sd	zero,2024(a0) # 17e8 <.LBB87_5+0x364>
    1128:	00001537          	lui	a0,0x1
    112c:	40a40533          	sub	a0,s0,a0
    1130:	7e053823          	sd	zero,2032(a0) # 17f0 <.LBB87_5+0x36c>
    1134:	00001537          	lui	a0,0x1
    1138:	40a40533          	sub	a0,s0,a0
    113c:	7e053c23          	sd	zero,2040(a0) # 17f8 <.LBB87_5+0x374>
    1140:	80043023          	sd	zero,-2048(s0)
    1144:	80043423          	sd	zero,-2040(s0)
    1148:	80043823          	sd	zero,-2032(s0)
    114c:	80043c23          	sd	zero,-2024(s0)
    1150:	82043023          	sd	zero,-2016(s0)
    1154:	82043423          	sd	zero,-2008(s0)
    1158:	82043823          	sd	zero,-2000(s0)
    115c:	82043c23          	sd	zero,-1992(s0)
    1160:	84043023          	sd	zero,-1984(s0)
    1164:	84043423          	sd	zero,-1976(s0)
    1168:	84043823          	sd	zero,-1968(s0)
    116c:	84043c23          	sd	zero,-1960(s0)
    1170:	86043023          	sd	zero,-1952(s0)
    1174:	86043423          	sd	zero,-1944(s0)
    1178:	86043823          	sd	zero,-1936(s0)
    117c:	86043c23          	sd	zero,-1928(s0)
    1180:	88043023          	sd	zero,-1920(s0)
    1184:	8a043023          	sd	zero,-1888(s0)
    1188:	88043c23          	sd	zero,-1896(s0)
    118c:	88043823          	sd	zero,-1904(s0)
    1190:	88043423          	sd	zero,-1912(s0)
    1194:	8a043423          	sd	zero,-1880(s0)
    1198:	8a043823          	sd	zero,-1872(s0)
    119c:	8a043c23          	sd	zero,-1864(s0)
    11a0:	8c043023          	sd	zero,-1856(s0)
    11a4:	8c043423          	sd	zero,-1848(s0)
    11a8:	8c043823          	sd	zero,-1840(s0)
    11ac:	8c043c23          	sd	zero,-1832(s0)
    11b0:	8e043023          	sd	zero,-1824(s0)
    11b4:	8e043423          	sd	zero,-1816(s0)
    11b8:	8e043823          	sd	zero,-1808(s0)
    11bc:	8e043c23          	sd	zero,-1800(s0)
    11c0:	90043023          	sd	zero,-1792(s0)
    11c4:	90043423          	sd	zero,-1784(s0)
    11c8:	90043823          	sd	zero,-1776(s0)
    11cc:	90043c23          	sd	zero,-1768(s0)
    11d0:	92043023          	sd	zero,-1760(s0)
    11d4:	92043423          	sd	zero,-1752(s0)
    11d8:	92043823          	sd	zero,-1744(s0)
    11dc:	92043c23          	sd	zero,-1736(s0)
    11e0:	94043023          	sd	zero,-1728(s0)
    11e4:	94043423          	sd	zero,-1720(s0)
    11e8:	94043823          	sd	zero,-1712(s0)
    11ec:	94043c23          	sd	zero,-1704(s0)
    11f0:	96043023          	sd	zero,-1696(s0)
    11f4:	96043423          	sd	zero,-1688(s0)
    11f8:	96043823          	sd	zero,-1680(s0)
    11fc:	96043c23          	sd	zero,-1672(s0)
    1200:	98043023          	sd	zero,-1664(s0)
    1204:	9a043023          	sd	zero,-1632(s0)
    1208:	98043c23          	sd	zero,-1640(s0)
    120c:	98043823          	sd	zero,-1648(s0)
    1210:	98043423          	sd	zero,-1656(s0)
    1214:	9a043423          	sd	zero,-1624(s0)
    1218:	9a043823          	sd	zero,-1616(s0)
    121c:	9a043c23          	sd	zero,-1608(s0)
    1220:	9c043023          	sd	zero,-1600(s0)
    1224:	9c043423          	sd	zero,-1592(s0)
    1228:	9c043823          	sd	zero,-1584(s0)
    122c:	9c043c23          	sd	zero,-1576(s0)
    1230:	9e043023          	sd	zero,-1568(s0)
    1234:	9e043423          	sd	zero,-1560(s0)
    1238:	9e043823          	sd	zero,-1552(s0)
    123c:	9e043c23          	sd	zero,-1544(s0)
    1240:	a0043023          	sd	zero,-1536(s0)
    1244:	a0043423          	sd	zero,-1528(s0)
    1248:	a0043823          	sd	zero,-1520(s0)
    124c:	a0043c23          	sd	zero,-1512(s0)
    1250:	a2043023          	sd	zero,-1504(s0)
    1254:	a2043423          	sd	zero,-1496(s0)
    1258:	a2043823          	sd	zero,-1488(s0)
    125c:	a2043c23          	sd	zero,-1480(s0)
    1260:	a4043023          	sd	zero,-1472(s0)
    1264:	a4043423          	sd	zero,-1464(s0)
    1268:	a4043823          	sd	zero,-1456(s0)
    126c:	a4043c23          	sd	zero,-1448(s0)
    1270:	a6043023          	sd	zero,-1440(s0)
    1274:	a6043423          	sd	zero,-1432(s0)
    1278:	a6043823          	sd	zero,-1424(s0)
    127c:	a6043c23          	sd	zero,-1416(s0)
    1280:	a8043023          	sd	zero,-1408(s0)
    1284:	aa043023          	sd	zero,-1376(s0)
    1288:	a8043c23          	sd	zero,-1384(s0)
    128c:	a8043823          	sd	zero,-1392(s0)
    1290:	a8043423          	sd	zero,-1400(s0)
    1294:	aa043423          	sd	zero,-1368(s0)
    1298:	aa043823          	sd	zero,-1360(s0)
    129c:	aa043c23          	sd	zero,-1352(s0)
    12a0:	ac043023          	sd	zero,-1344(s0)
    12a4:	ac043423          	sd	zero,-1336(s0)
    12a8:	ac043823          	sd	zero,-1328(s0)
    12ac:	ac043c23          	sd	zero,-1320(s0)
    12b0:	ae043023          	sd	zero,-1312(s0)
    12b4:	ae043423          	sd	zero,-1304(s0)
    12b8:	ae043823          	sd	zero,-1296(s0)
    12bc:	ae043c23          	sd	zero,-1288(s0)
    12c0:	b0043023          	sd	zero,-1280(s0)
    12c4:	b0043423          	sd	zero,-1272(s0)
    12c8:	b0043823          	sd	zero,-1264(s0)
    12cc:	b0043c23          	sd	zero,-1256(s0)
    12d0:	b2043023          	sd	zero,-1248(s0)
    12d4:	b2043423          	sd	zero,-1240(s0)
    12d8:	b2043823          	sd	zero,-1232(s0)
    12dc:	b2043c23          	sd	zero,-1224(s0)
    12e0:	b4043023          	sd	zero,-1216(s0)
    12e4:	b4043423          	sd	zero,-1208(s0)
    12e8:	b4043823          	sd	zero,-1200(s0)
    12ec:	b4043c23          	sd	zero,-1192(s0)
    12f0:	b6043023          	sd	zero,-1184(s0)
    12f4:	b6043423          	sd	zero,-1176(s0)
    12f8:	b6043823          	sd	zero,-1168(s0)
    12fc:	b6043c23          	sd	zero,-1160(s0)
    1300:	b8043023          	sd	zero,-1152(s0)
    1304:	ba043023          	sd	zero,-1120(s0)
    1308:	b8043c23          	sd	zero,-1128(s0)
    130c:	b8043823          	sd	zero,-1136(s0)
    1310:	b8043423          	sd	zero,-1144(s0)
    1314:	ba043423          	sd	zero,-1112(s0)
    1318:	ba043823          	sd	zero,-1104(s0)
    131c:	ba043c23          	sd	zero,-1096(s0)
    1320:	bc043023          	sd	zero,-1088(s0)
    1324:	bc043423          	sd	zero,-1080(s0)
    1328:	bc043823          	sd	zero,-1072(s0)
    132c:	bc043c23          	sd	zero,-1064(s0)
    1330:	be043023          	sd	zero,-1056(s0)
    1334:	be043423          	sd	zero,-1048(s0)
    1338:	be043823          	sd	zero,-1040(s0)
    133c:	be043c23          	sd	zero,-1032(s0)
    1340:	c0043023          	sd	zero,-1024(s0)
    1344:	c0043423          	sd	zero,-1016(s0)
    1348:	c0043823          	sd	zero,-1008(s0)
    134c:	c0043c23          	sd	zero,-1000(s0)
    1350:	c2043023          	sd	zero,-992(s0)
    1354:	c2043423          	sd	zero,-984(s0)
    1358:	c2043823          	sd	zero,-976(s0)
    135c:	c2043c23          	sd	zero,-968(s0)
    1360:	c4043023          	sd	zero,-960(s0)
    1364:	c4043423          	sd	zero,-952(s0)
    1368:	c4043823          	sd	zero,-944(s0)
    136c:	c4043c23          	sd	zero,-936(s0)
    1370:	c6043023          	sd	zero,-928(s0)
    1374:	c6043423          	sd	zero,-920(s0)
    1378:	c6043823          	sd	zero,-912(s0)
    137c:	c6043c23          	sd	zero,-904(s0)
    1380:	c8043023          	sd	zero,-896(s0)
    1384:	ca043023          	sd	zero,-864(s0)
    1388:	c8043c23          	sd	zero,-872(s0)
    138c:	c8043823          	sd	zero,-880(s0)
    1390:	c8043423          	sd	zero,-888(s0)
    1394:	ca043423          	sd	zero,-856(s0)
    1398:	ca043823          	sd	zero,-848(s0)
    139c:	ca043c23          	sd	zero,-840(s0)
    13a0:	cc043023          	sd	zero,-832(s0)
    13a4:	cc043423          	sd	zero,-824(s0)
    13a8:	cc043823          	sd	zero,-816(s0)
    13ac:	cc043c23          	sd	zero,-808(s0)
    13b0:	ce043023          	sd	zero,-800(s0)
    13b4:	ce043423          	sd	zero,-792(s0)
    13b8:	ce043823          	sd	zero,-784(s0)
    13bc:	ce043c23          	sd	zero,-776(s0)
    13c0:	d0043023          	sd	zero,-768(s0)
    13c4:	d0043423          	sd	zero,-760(s0)
    13c8:	d0043823          	sd	zero,-752(s0)
    13cc:	d0043c23          	sd	zero,-744(s0)
    13d0:	d2043023          	sd	zero,-736(s0)
    13d4:	d2043423          	sd	zero,-728(s0)
    13d8:	d2043823          	sd	zero,-720(s0)
    13dc:	d2043c23          	sd	zero,-712(s0)
    13e0:	d4043023          	sd	zero,-704(s0)
    13e4:	d4043423          	sd	zero,-696(s0)
    13e8:	d4043823          	sd	zero,-688(s0)
    13ec:	d4043c23          	sd	zero,-680(s0)
    13f0:	d6043023          	sd	zero,-672(s0)
    13f4:	d6043423          	sd	zero,-664(s0)
    13f8:	d6043823          	sd	zero,-656(s0)
    13fc:	d6043c23          	sd	zero,-648(s0)
    1400:	d8043023          	sd	zero,-640(s0)
    1404:	da043023          	sd	zero,-608(s0)
    1408:	d8043c23          	sd	zero,-616(s0)
    140c:	d8043823          	sd	zero,-624(s0)
    1410:	d8043423          	sd	zero,-632(s0)
    1414:	da043423          	sd	zero,-600(s0)
    1418:	da043823          	sd	zero,-592(s0)
    141c:	da043c23          	sd	zero,-584(s0)
    1420:	dc043023          	sd	zero,-576(s0)
    1424:	dc043423          	sd	zero,-568(s0)
    1428:	dc043823          	sd	zero,-560(s0)
    142c:	dc043c23          	sd	zero,-552(s0)
    1430:	00000093          	li	ra,0
    1434:	00000d93          	li	s11,0
    1438:	00000d13          	li	s10,0
    143c:	00000c93          	li	s9,0
    1440:	00000c13          	li	s8,0
    1444:	00000b93          	li	s7,0
    1448:	00000b13          	li	s6,0
    144c:	00000a93          	li	s5,0
    1450:	00000f13          	li	t5,0
    1454:	00000713          	li	a4,0
    1458:	00000693          	li	a3,0
    145c:	00000613          	li	a2,0
    1460:	00000593          	li	a1,0
    1464:	00000513          	li	a0,0
    1468:	00000e93          	li	t4,0
    146c:	00000e13          	li	t3,0
    1470:	00000393          	li	t2,0
    1474:	00000313          	li	t1,0
    1478:	00000813          	li	a6,0
    147c:	00000293          	li	t0,0
    1480:	00000893          	li	a7,0

0000000000001484 <.LBB87_5>:
    1484:	f8943423          	sd	s1,-120(s0)
    1488:	f7f43423          	sd	t6,-152(s0)
    148c:	00001937          	lui	s2,0x1
    1490:	41240933          	sub	s2,s0,s2
    1494:	68f93023          	sd	a5,1664(s2) # 1680 <.LBB87_5+0x1fc>
    1498:	de143023          	sd	ra,-544(s0)
    149c:	dfb43423          	sd	s11,-536(s0)
    14a0:	dfa43823          	sd	s10,-528(s0)
    14a4:	df943c23          	sd	s9,-520(s0)
    14a8:	e1843023          	sd	s8,-512(s0)
    14ac:	e1743423          	sd	s7,-504(s0)
    14b0:	e1643823          	sd	s6,-496(s0)
    14b4:	e1543c23          	sd	s5,-488(s0)
    14b8:	f1e43023          	sd	t5,-256(s0)
    14bc:	f0e43423          	sd	a4,-248(s0)
    14c0:	f0d43823          	sd	a3,-240(s0)
    14c4:	f0c43c23          	sd	a2,-232(s0)
    14c8:	f2b43023          	sd	a1,-224(s0)
    14cc:	f2a43423          	sd	a0,-216(s0)
    14d0:	e3d43023          	sd	t4,-480(s0)
    14d4:	e3c43423          	sd	t3,-472(s0)
    14d8:	e2743823          	sd	t2,-464(s0)
    14dc:	e2643c23          	sd	t1,-456(s0)
    14e0:	e5043023          	sd	a6,-448(s0)
    14e4:	e4543423          	sd	t0,-440(s0)
    14e8:	e5143823          	sd	a7,-432(s0)
    14ec:	000f8503          	lb	a0,0(t6)
    14f0:	00248603          	lb	a2,2(s1)
    14f4:	f4c43823          	sd	a2,-176(s0)
    14f8:	00148683          	lb	a3,1(s1)
    14fc:	00048703          	lb	a4,0(s1)
    1500:	00348783          	lb	a5,3(s1)
    1504:	00448c83          	lb	s9,4(s1)
    1508:	00548a83          	lb	s5,5(s1)
    150c:	f3543823          	sd	s5,-208(s0)
    1510:	00648b03          	lb	s6,6(s1)
    1514:	00748d83          	lb	s11,7(s1)
    1518:	edb43823          	sd	s11,-304(s0)
    151c:	00848083          	lb	ra,8(s1)
    1520:	e8143023          	sd	ra,-384(s0)
    1524:	00948883          	lb	a7,9(s1)
    1528:	f9143023          	sd	a7,-128(s0)
    152c:	00a48283          	lb	t0,10(s1)
    1530:	000015b7          	lui	a1,0x1
    1534:	40b405b3          	sub	a1,s0,a1
    1538:	6655bc23          	sd	t0,1656(a1) # 1678 <.LBB87_5+0x1f4>
    153c:	00b48e03          	lb	t3,11(s1)
    1540:	e7c43c23          	sd	t3,-392(s0)
    1544:	00c48303          	lb	t1,12(s1)
    1548:	00d48f03          	lb	t5,13(s1)
    154c:	00e48983          	lb	s3,14(s1)
    1550:	ed343423          	sd	s3,-312(s0)
    1554:	00f48903          	lb	s2,15(s1)
    1558:	01048f83          	lb	t6,16(s1)
    155c:	01148383          	lb	t2,17(s1)
    1560:	ec743c23          	sd	t2,-296(s0)
    1564:	01248e83          	lb	t4,18(s1)
    1568:	e9d43423          	sd	t4,-376(s0)
    156c:	01348a03          	lb	s4,19(s1)
    1570:	01448d03          	lb	s10,20(s1)
    1574:	efa43823          	sd	s10,-272(s0)
    1578:	f8843583          	ld	a1,-120(s0)
    157c:	01558583          	lb	a1,21(a1)
    1580:	f6b43c23          	sd	a1,-136(s0)
    1584:	f8843583          	ld	a1,-120(s0)
    1588:	01658483          	lb	s1,22(a1)
    158c:	f6943023          	sd	s1,-160(s0)
    1590:	f8843583          	ld	a1,-120(s0)
    1594:	01758b83          	lb	s7,23(a1)
    1598:	ef743423          	sd	s7,-280(s0)
    159c:	f8843583          	ld	a1,-120(s0)
    15a0:	01858c03          	lb	s8,24(a1)
    15a4:	f5843c23          	sd	s8,-168(s0)
    15a8:	02c505b3          	mul	a1,a0,a2
    15ac:	00001637          	lui	a2,0x1
    15b0:	40c40633          	sub	a2,s0,a2
    15b4:	6a863603          	ld	a2,1704(a2) # 16a8 <.LBB87_5+0x224>
    15b8:	00c58633          	add	a2,a1,a2
    15bc:	000015b7          	lui	a1,0x1
    15c0:	40b405b3          	sub	a1,s0,a1
    15c4:	6ac5b423          	sd	a2,1704(a1) # 16a8 <.LBB87_5+0x224>
    15c8:	02d505b3          	mul	a1,a0,a3
    15cc:	00001637          	lui	a2,0x1
    15d0:	40c40633          	sub	a2,s0,a2
    15d4:	6c063603          	ld	a2,1728(a2) # 16c0 <.LBB87_5+0x23c>
    15d8:	00c58633          	add	a2,a1,a2
    15dc:	000015b7          	lui	a1,0x1
    15e0:	40b405b3          	sub	a1,s0,a1
    15e4:	6cc5b023          	sd	a2,1728(a1) # 16c0 <.LBB87_5+0x23c>
    15e8:	02e505b3          	mul	a1,a0,a4
    15ec:	00001637          	lui	a2,0x1
    15f0:	40c40633          	sub	a2,s0,a2
    15f4:	6c863603          	ld	a2,1736(a2) # 16c8 <.LBB87_5+0x244>
    15f8:	00c58633          	add	a2,a1,a2
    15fc:	000015b7          	lui	a1,0x1
    1600:	40b405b3          	sub	a1,s0,a1
    1604:	6cc5b423          	sd	a2,1736(a1) # 16c8 <.LBB87_5+0x244>
    1608:	02f505b3          	mul	a1,a0,a5
    160c:	f4f43423          	sd	a5,-184(s0)
    1610:	00001637          	lui	a2,0x1
    1614:	40c40633          	sub	a2,s0,a2
    1618:	6b063603          	ld	a2,1712(a2) # 16b0 <.LBB87_5+0x22c>
    161c:	00c58633          	add	a2,a1,a2
    1620:	000015b7          	lui	a1,0x1
    1624:	40b405b3          	sub	a1,s0,a1
    1628:	6ac5b823          	sd	a2,1712(a1) # 16b0 <.LBB87_5+0x22c>
    162c:	039505b3          	mul	a1,a0,s9
    1630:	f5943023          	sd	s9,-192(s0)
    1634:	00001637          	lui	a2,0x1
    1638:	40c40633          	sub	a2,s0,a2
    163c:	6b863603          	ld	a2,1720(a2) # 16b8 <.LBB87_5+0x234>
    1640:	00c58633          	add	a2,a1,a2
    1644:	000015b7          	lui	a1,0x1
    1648:	40b405b3          	sub	a1,s0,a1
    164c:	6ac5bc23          	sd	a2,1720(a1) # 16b8 <.LBB87_5+0x234>
    1650:	035505b3          	mul	a1,a0,s5
    1654:	00001637          	lui	a2,0x1
    1658:	40c40633          	sub	a2,s0,a2
    165c:	6a063603          	ld	a2,1696(a2) # 16a0 <.LBB87_5+0x21c>
    1660:	00c58633          	add	a2,a1,a2
    1664:	000015b7          	lui	a1,0x1
    1668:	40b405b3          	sub	a1,s0,a1
    166c:	6ac5b023          	sd	a2,1696(a1) # 16a0 <.LBB87_5+0x21c>
    1670:	036505b3          	mul	a1,a0,s6
    1674:	000b0a93          	mv	s5,s6
    1678:	00001637          	lui	a2,0x1
    167c:	40c40633          	sub	a2,s0,a2
    1680:	69863603          	ld	a2,1688(a2) # 1698 <.LBB87_5+0x214>
    1684:	00c58633          	add	a2,a1,a2
    1688:	000015b7          	lui	a1,0x1
    168c:	40b405b3          	sub	a1,s0,a1
    1690:	68c5bc23          	sd	a2,1688(a1) # 1698 <.LBB87_5+0x214>
    1694:	03b505b3          	mul	a1,a0,s11
    1698:	00001637          	lui	a2,0x1
    169c:	40c40633          	sub	a2,s0,a2
    16a0:	69063603          	ld	a2,1680(a2) # 1690 <.LBB87_5+0x20c>
    16a4:	00c58633          	add	a2,a1,a2
    16a8:	000015b7          	lui	a1,0x1
    16ac:	40b405b3          	sub	a1,s0,a1
    16b0:	68c5b823          	sd	a2,1680(a1) # 1690 <.LBB87_5+0x20c>
    16b4:	021505b3          	mul	a1,a0,ra
    16b8:	00001637          	lui	a2,0x1
    16bc:	40c40633          	sub	a2,s0,a2
    16c0:	68863603          	ld	a2,1672(a2) # 1688 <.LBB87_5+0x204>
    16c4:	00c58633          	add	a2,a1,a2
    16c8:	000015b7          	lui	a1,0x1
    16cc:	40b405b3          	sub	a1,s0,a1
    16d0:	68c5b423          	sd	a2,1672(a1) # 1688 <.LBB87_5+0x204>
    16d4:	031505b3          	mul	a1,a0,a7
    16d8:	00001637          	lui	a2,0x1
    16dc:	40c40633          	sub	a2,s0,a2
    16e0:	6d063603          	ld	a2,1744(a2) # 16d0 <.LBB87_5+0x24c>
    16e4:	00c58633          	add	a2,a1,a2
    16e8:	000015b7          	lui	a1,0x1
    16ec:	40b405b3          	sub	a1,s0,a1
    16f0:	6cc5b823          	sd	a2,1744(a1) # 16d0 <.LBB87_5+0x24c>
    16f4:	025505b3          	mul	a1,a0,t0
    16f8:	00001637          	lui	a2,0x1
    16fc:	40c40633          	sub	a2,s0,a2
    1700:	6d863603          	ld	a2,1752(a2) # 16d8 <.LBB87_5+0x254>
    1704:	00c58633          	add	a2,a1,a2
    1708:	000015b7          	lui	a1,0x1
    170c:	40b405b3          	sub	a1,s0,a1
    1710:	6cc5bc23          	sd	a2,1752(a1) # 16d8 <.LBB87_5+0x254>
    1714:	03c505b3          	mul	a1,a0,t3
    1718:	00001637          	lui	a2,0x1
    171c:	40c40633          	sub	a2,s0,a2
    1720:	6e063603          	ld	a2,1760(a2) # 16e0 <.LBB87_5+0x25c>
    1724:	00c58633          	add	a2,a1,a2
    1728:	000015b7          	lui	a1,0x1
    172c:	40b405b3          	sub	a1,s0,a1
    1730:	6ec5b023          	sd	a2,1760(a1) # 16e0 <.LBB87_5+0x25c>
    1734:	026505b3          	mul	a1,a0,t1
    1738:	00030093          	mv	ra,t1
    173c:	ea643423          	sd	t1,-344(s0)
    1740:	00001637          	lui	a2,0x1
    1744:	40c40633          	sub	a2,s0,a2
    1748:	6e863603          	ld	a2,1768(a2) # 16e8 <.LBB87_5+0x264>
    174c:	00c58633          	add	a2,a1,a2
    1750:	000015b7          	lui	a1,0x1
    1754:	40b405b3          	sub	a1,s0,a1
    1758:	6ec5b423          	sd	a2,1768(a1) # 16e8 <.LBB87_5+0x264>
    175c:	03e505b3          	mul	a1,a0,t5
    1760:	00001637          	lui	a2,0x1
    1764:	40c40633          	sub	a2,s0,a2
    1768:	6f063603          	ld	a2,1776(a2) # 16f0 <.LBB87_5+0x26c>
    176c:	00c58633          	add	a2,a1,a2
    1770:	000015b7          	lui	a1,0x1
    1774:	40b405b3          	sub	a1,s0,a1
    1778:	6ec5b823          	sd	a2,1776(a1) # 16f0 <.LBB87_5+0x26c>
    177c:	033505b3          	mul	a1,a0,s3
    1780:	00001637          	lui	a2,0x1
    1784:	40c40633          	sub	a2,s0,a2
    1788:	6f863603          	ld	a2,1784(a2) # 16f8 <.LBB87_5+0x274>
    178c:	00c58633          	add	a2,a1,a2
    1790:	000015b7          	lui	a1,0x1
    1794:	40b405b3          	sub	a1,s0,a1
    1798:	6ec5bc23          	sd	a2,1784(a1) # 16f8 <.LBB87_5+0x274>
    179c:	032505b3          	mul	a1,a0,s2
    17a0:	00090e13          	mv	t3,s2
    17a4:	e7243823          	sd	s2,-400(s0)
    17a8:	00001637          	lui	a2,0x1
    17ac:	40c40633          	sub	a2,s0,a2
    17b0:	70063603          	ld	a2,1792(a2) # 1700 <.LBB87_5+0x27c>
    17b4:	00c58633          	add	a2,a1,a2
    17b8:	000015b7          	lui	a1,0x1
    17bc:	40b405b3          	sub	a1,s0,a1
    17c0:	70c5b023          	sd	a2,1792(a1) # 1700 <.LBB87_5+0x27c>
    17c4:	000f8293          	mv	t0,t6
    17c8:	03f505b3          	mul	a1,a0,t6
    17cc:	00001637          	lui	a2,0x1
    17d0:	40c40633          	sub	a2,s0,a2
    17d4:	70863603          	ld	a2,1800(a2) # 1708 <.LBB87_5+0x284>
    17d8:	00c58633          	add	a2,a1,a2
    17dc:	000015b7          	lui	a1,0x1
    17e0:	40b405b3          	sub	a1,s0,a1
    17e4:	70c5b423          	sd	a2,1800(a1) # 1708 <.LBB87_5+0x284>
    17e8:	027505b3          	mul	a1,a0,t2
    17ec:	00001637          	lui	a2,0x1
    17f0:	40c40633          	sub	a2,s0,a2
    17f4:	71063603          	ld	a2,1808(a2) # 1710 <.LBB87_5+0x28c>
    17f8:	00c58633          	add	a2,a1,a2
    17fc:	000015b7          	lui	a1,0x1
    1800:	40b405b3          	sub	a1,s0,a1
    1804:	70c5b823          	sd	a2,1808(a1) # 1710 <.LBB87_5+0x28c>
    1808:	03d505b3          	mul	a1,a0,t4
    180c:	00001637          	lui	a2,0x1
    1810:	40c40633          	sub	a2,s0,a2
    1814:	71863603          	ld	a2,1816(a2) # 1718 <.LBB87_5+0x294>
    1818:	00c58633          	add	a2,a1,a2
    181c:	000015b7          	lui	a1,0x1
    1820:	40b405b3          	sub	a1,s0,a1
    1824:	70c5bc23          	sd	a2,1816(a1) # 1718 <.LBB87_5+0x294>
    1828:	000a0f93          	mv	t6,s4
    182c:	e7443423          	sd	s4,-408(s0)
    1830:	034505b3          	mul	a1,a0,s4
    1834:	00001637          	lui	a2,0x1
    1838:	40c40633          	sub	a2,s0,a2
    183c:	72063603          	ld	a2,1824(a2) # 1720 <.LBB87_5+0x29c>
    1840:	00c58633          	add	a2,a1,a2
    1844:	000015b7          	lui	a1,0x1
    1848:	40b405b3          	sub	a1,s0,a1
    184c:	72c5b023          	sd	a2,1824(a1) # 1720 <.LBB87_5+0x29c>
    1850:	03a505b3          	mul	a1,a0,s10
    1854:	00001637          	lui	a2,0x1
    1858:	40c40633          	sub	a2,s0,a2
    185c:	72863603          	ld	a2,1832(a2) # 1728 <.LBB87_5+0x2a4>
    1860:	00c58633          	add	a2,a1,a2
    1864:	000015b7          	lui	a1,0x1
    1868:	40b405b3          	sub	a1,s0,a1
    186c:	72c5b423          	sd	a2,1832(a1) # 1728 <.LBB87_5+0x2a4>
    1870:	f7843a03          	ld	s4,-136(s0)
    1874:	034505b3          	mul	a1,a0,s4
    1878:	00001637          	lui	a2,0x1
    187c:	40c40633          	sub	a2,s0,a2
    1880:	73063603          	ld	a2,1840(a2) # 1730 <.LBB87_5+0x2ac>
    1884:	00c58633          	add	a2,a1,a2
    1888:	000015b7          	lui	a1,0x1
    188c:	40b405b3          	sub	a1,s0,a1
    1890:	72c5b823          	sd	a2,1840(a1) # 1730 <.LBB87_5+0x2ac>
    1894:	029505b3          	mul	a1,a0,s1
    1898:	00001637          	lui	a2,0x1
    189c:	40c40633          	sub	a2,s0,a2
    18a0:	73863603          	ld	a2,1848(a2) # 1738 <.LBB87_5+0x2b4>
    18a4:	00c58633          	add	a2,a1,a2
    18a8:	000015b7          	lui	a1,0x1
    18ac:	40b405b3          	sub	a1,s0,a1
    18b0:	72c5bc23          	sd	a2,1848(a1) # 1738 <.LBB87_5+0x2b4>
    18b4:	037505b3          	mul	a1,a0,s7
    18b8:	00001637          	lui	a2,0x1
    18bc:	40c40633          	sub	a2,s0,a2
    18c0:	74063603          	ld	a2,1856(a2) # 1740 <.LBB87_5+0x2bc>
    18c4:	00c58633          	add	a2,a1,a2
    18c8:	000015b7          	lui	a1,0x1
    18cc:	40b405b3          	sub	a1,s0,a1
    18d0:	74c5b023          	sd	a2,1856(a1) # 1740 <.LBB87_5+0x2bc>
    18d4:	f8843583          	ld	a1,-120(s0)
    18d8:	01958303          	lb	t1,25(a1)
    18dc:	038505b3          	mul	a1,a0,s8
    18e0:	00001637          	lui	a2,0x1
    18e4:	40c40633          	sub	a2,s0,a2
    18e8:	74863603          	ld	a2,1864(a2) # 1748 <.LBB87_5+0x2c4>
    18ec:	00c58633          	add	a2,a1,a2
    18f0:	000015b7          	lui	a1,0x1
    18f4:	40b405b3          	sub	a1,s0,a1
    18f8:	74c5b423          	sd	a2,1864(a1) # 1748 <.LBB87_5+0x2c4>
    18fc:	f8843583          	ld	a1,-120(s0)
    1900:	01a58383          	lb	t2,26(a1)
    1904:	026505b3          	mul	a1,a0,t1
    1908:	ea643823          	sd	t1,-336(s0)
    190c:	00001637          	lui	a2,0x1
    1910:	40c40633          	sub	a2,s0,a2
    1914:	75063603          	ld	a2,1872(a2) # 1750 <.LBB87_5+0x2cc>
    1918:	00c58633          	add	a2,a1,a2
    191c:	000015b7          	lui	a1,0x1
    1920:	40b405b3          	sub	a1,s0,a1
    1924:	74c5b823          	sd	a2,1872(a1) # 1750 <.LBB87_5+0x2cc>
    1928:	f8843583          	ld	a1,-120(s0)
    192c:	01b58483          	lb	s1,27(a1)
    1930:	027505b3          	mul	a1,a0,t2
    1934:	ea743c23          	sd	t2,-328(s0)
    1938:	00001637          	lui	a2,0x1
    193c:	40c40633          	sub	a2,s0,a2
    1940:	75863603          	ld	a2,1880(a2) # 1758 <.LBB87_5+0x2d4>
    1944:	00c58633          	add	a2,a1,a2
    1948:	000015b7          	lui	a1,0x1
    194c:	40b405b3          	sub	a1,s0,a1
    1950:	74c5bc23          	sd	a2,1880(a1) # 1758 <.LBB87_5+0x2d4>
    1954:	f8843583          	ld	a1,-120(s0)
    1958:	01c58803          	lb	a6,28(a1)
    195c:	029505b3          	mul	a1,a0,s1
    1960:	ec943023          	sd	s1,-320(s0)
    1964:	00001637          	lui	a2,0x1
    1968:	40c40633          	sub	a2,s0,a2
    196c:	76063603          	ld	a2,1888(a2) # 1760 <.LBB87_5+0x2dc>
    1970:	00c58633          	add	a2,a1,a2
    1974:	000015b7          	lui	a1,0x1
    1978:	40b405b3          	sub	a1,s0,a1
    197c:	76c5b023          	sd	a2,1888(a1) # 1760 <.LBB87_5+0x2dc>
    1980:	f8843583          	ld	a1,-120(s0)
    1984:	01d58883          	lb	a7,29(a1)
    1988:	e9143823          	sd	a7,-368(s0)
    198c:	030505b3          	mul	a1,a0,a6
    1990:	e7043023          	sd	a6,-416(s0)
    1994:	00001637          	lui	a2,0x1
    1998:	40c40633          	sub	a2,s0,a2
    199c:	76863603          	ld	a2,1896(a2) # 1768 <.LBB87_5+0x2e4>
    19a0:	00c58633          	add	a2,a1,a2
    19a4:	000015b7          	lui	a1,0x1
    19a8:	40b405b3          	sub	a1,s0,a1
    19ac:	76c5b423          	sd	a2,1896(a1) # 1768 <.LBB87_5+0x2e4>
    19b0:	f8843583          	ld	a1,-120(s0)
    19b4:	01e58d03          	lb	s10,30(a1)
    19b8:	031505b3          	mul	a1,a0,a7
    19bc:	00001637          	lui	a2,0x1
    19c0:	40c40633          	sub	a2,s0,a2
    19c4:	77063603          	ld	a2,1904(a2) # 1770 <.LBB87_5+0x2ec>
    19c8:	00c58633          	add	a2,a1,a2
    19cc:	000015b7          	lui	a1,0x1
    19d0:	40b405b3          	sub	a1,s0,a1
    19d4:	76c5b823          	sd	a2,1904(a1) # 1770 <.LBB87_5+0x2ec>
    19d8:	f8843583          	ld	a1,-120(s0)
    19dc:	01f58583          	lb	a1,31(a1)
    19e0:	f2b43c23          	sd	a1,-200(s0)
    19e4:	f6843603          	ld	a2,-152(s0)
    19e8:	24060b03          	lb	s6,576(a2)
    19ec:	03a50db3          	mul	s11,a0,s10
    19f0:	00001637          	lui	a2,0x1
    19f4:	40c40633          	sub	a2,s0,a2
    19f8:	77863603          	ld	a2,1912(a2) # 1778 <.LBB87_5+0x2f4>
    19fc:	00cd8633          	add	a2,s11,a2
    1a00:	000018b7          	lui	a7,0x1
    1a04:	411408b3          	sub	a7,s0,a7
    1a08:	76c8bc23          	sd	a2,1912(a7) # 1778 <.LBB87_5+0x2f4>
    1a0c:	02b50533          	mul	a0,a0,a1
    1a10:	000015b7          	lui	a1,0x1
    1a14:	40b405b3          	sub	a1,s0,a1
    1a18:	7805b603          	ld	a2,1920(a1) # 1780 <.LBB87_5+0x2fc>
    1a1c:	00c50633          	add	a2,a0,a2
    1a20:	00001537          	lui	a0,0x1
    1a24:	40a40533          	sub	a0,s0,a0
    1a28:	78c53023          	sd	a2,1920(a0) # 1780 <.LBB87_5+0x2fc>
    1a2c:	eee43023          	sd	a4,-288(s0)
    1a30:	02eb0533          	mul	a0,s6,a4
    1a34:	000015b7          	lui	a1,0x1
    1a38:	40b405b3          	sub	a1,s0,a1
    1a3c:	7a05b603          	ld	a2,1952(a1) # 17a0 <.LBB87_5+0x31c>
    1a40:	00c50633          	add	a2,a0,a2
    1a44:	00001537          	lui	a0,0x1
    1a48:	40a40533          	sub	a0,s0,a0
    1a4c:	7ac53023          	sd	a2,1952(a0) # 17a0 <.LBB87_5+0x31c>
    1a50:	e8d43c23          	sd	a3,-360(s0)
    1a54:	02db0533          	mul	a0,s6,a3
    1a58:	000015b7          	lui	a1,0x1
    1a5c:	40b405b3          	sub	a1,s0,a1
    1a60:	7985b603          	ld	a2,1944(a1) # 1798 <.LBB87_5+0x314>
    1a64:	00c50633          	add	a2,a0,a2
    1a68:	00001537          	lui	a0,0x1
    1a6c:	40a40533          	sub	a0,s0,a0
    1a70:	78c53c23          	sd	a2,1944(a0) # 1798 <.LBB87_5+0x314>
    1a74:	f5043883          	ld	a7,-176(s0)
    1a78:	031b0533          	mul	a0,s6,a7
    1a7c:	000015b7          	lui	a1,0x1
    1a80:	40b405b3          	sub	a1,s0,a1
    1a84:	7905b603          	ld	a2,1936(a1) # 1790 <.LBB87_5+0x30c>
    1a88:	00c50633          	add	a2,a0,a2
    1a8c:	00001537          	lui	a0,0x1
    1a90:	40a40533          	sub	a0,s0,a0
    1a94:	78c53823          	sd	a2,1936(a0) # 1790 <.LBB87_5+0x30c>
    1a98:	02fb0533          	mul	a0,s6,a5
    1a9c:	000015b7          	lui	a1,0x1
    1aa0:	40b405b3          	sub	a1,s0,a1
    1aa4:	7885b603          	ld	a2,1928(a1) # 1788 <.LBB87_5+0x304>
    1aa8:	00c50633          	add	a2,a0,a2
    1aac:	00001537          	lui	a0,0x1
    1ab0:	40a40533          	sub	a0,s0,a0
    1ab4:	78c53423          	sd	a2,1928(a0) # 1788 <.LBB87_5+0x304>
    1ab8:	039b0533          	mul	a0,s6,s9
    1abc:	000015b7          	lui	a1,0x1
    1ac0:	40b405b3          	sub	a1,s0,a1
    1ac4:	7a85b603          	ld	a2,1960(a1) # 17a8 <.LBB87_5+0x324>
    1ac8:	00c50633          	add	a2,a0,a2
    1acc:	00001537          	lui	a0,0x1
    1ad0:	40a40533          	sub	a0,s0,a0
    1ad4:	7ac53423          	sd	a2,1960(a0) # 17a8 <.LBB87_5+0x324>
    1ad8:	f3043783          	ld	a5,-208(s0)
    1adc:	02fb0533          	mul	a0,s6,a5
    1ae0:	000015b7          	lui	a1,0x1
    1ae4:	40b405b3          	sub	a1,s0,a1
    1ae8:	7b05b603          	ld	a2,1968(a1) # 17b0 <.LBB87_5+0x32c>
    1aec:	00c50633          	add	a2,a0,a2
    1af0:	00001537          	lui	a0,0x1
    1af4:	40a40533          	sub	a0,s0,a0
    1af8:	7ac53823          	sd	a2,1968(a0) # 17b0 <.LBB87_5+0x32c>
    1afc:	000a8993          	mv	s3,s5
    1b00:	eb543023          	sd	s5,-352(s0)
    1b04:	035b0533          	mul	a0,s6,s5
    1b08:	000015b7          	lui	a1,0x1
    1b0c:	40b405b3          	sub	a1,s0,a1
    1b10:	7b85b603          	ld	a2,1976(a1) # 17b8 <.LBB87_5+0x334>
    1b14:	00c50633          	add	a2,a0,a2
    1b18:	00001537          	lui	a0,0x1
    1b1c:	40a40533          	sub	a0,s0,a0
    1b20:	7ac53c23          	sd	a2,1976(a0) # 17b8 <.LBB87_5+0x334>
    1b24:	ed043c83          	ld	s9,-304(s0)
    1b28:	039b0533          	mul	a0,s6,s9
    1b2c:	000015b7          	lui	a1,0x1
    1b30:	40b405b3          	sub	a1,s0,a1
    1b34:	7c05b603          	ld	a2,1984(a1) # 17c0 <.LBB87_5+0x33c>
    1b38:	00c50633          	add	a2,a0,a2
    1b3c:	00001537          	lui	a0,0x1
    1b40:	40a40533          	sub	a0,s0,a0
    1b44:	7cc53023          	sd	a2,1984(a0) # 17c0 <.LBB87_5+0x33c>
    1b48:	e8043a83          	ld	s5,-384(s0)
    1b4c:	035b0533          	mul	a0,s6,s5
    1b50:	000015b7          	lui	a1,0x1
    1b54:	40b405b3          	sub	a1,s0,a1
    1b58:	7c85b603          	ld	a2,1992(a1) # 17c8 <.LBB87_5+0x344>
    1b5c:	00c50633          	add	a2,a0,a2
    1b60:	00001537          	lui	a0,0x1
    1b64:	40a40533          	sub	a0,s0,a0
    1b68:	7cc53423          	sd	a2,1992(a0) # 17c8 <.LBB87_5+0x344>
    1b6c:	f8043503          	ld	a0,-128(s0)
    1b70:	02ab0533          	mul	a0,s6,a0
    1b74:	000015b7          	lui	a1,0x1
    1b78:	40b405b3          	sub	a1,s0,a1
    1b7c:	7d05b603          	ld	a2,2000(a1) # 17d0 <.LBB87_5+0x34c>
    1b80:	00c50633          	add	a2,a0,a2
    1b84:	00001537          	lui	a0,0x1
    1b88:	40a40533          	sub	a0,s0,a0
    1b8c:	7cc53823          	sd	a2,2000(a0) # 17d0 <.LBB87_5+0x34c>
    1b90:	00001537          	lui	a0,0x1
    1b94:	40a40533          	sub	a0,s0,a0
    1b98:	67853c03          	ld	s8,1656(a0) # 1678 <.LBB87_5+0x1f4>
    1b9c:	038b0533          	mul	a0,s6,s8
    1ba0:	000015b7          	lui	a1,0x1
    1ba4:	40b405b3          	sub	a1,s0,a1
    1ba8:	7d85b603          	ld	a2,2008(a1) # 17d8 <.LBB87_5+0x354>
    1bac:	00c50633          	add	a2,a0,a2
    1bb0:	00001537          	lui	a0,0x1
    1bb4:	40a40533          	sub	a0,s0,a0
    1bb8:	7cc53c23          	sd	a2,2008(a0) # 17d8 <.LBB87_5+0x354>
    1bbc:	e7843b83          	ld	s7,-392(s0)
    1bc0:	037b0533          	mul	a0,s6,s7
    1bc4:	000015b7          	lui	a1,0x1
    1bc8:	40b405b3          	sub	a1,s0,a1
    1bcc:	7e05b603          	ld	a2,2016(a1) # 17e0 <.LBB87_5+0x35c>
    1bd0:	00c50633          	add	a2,a0,a2
    1bd4:	00001537          	lui	a0,0x1
    1bd8:	40a40533          	sub	a0,s0,a0
    1bdc:	7ec53023          	sd	a2,2016(a0) # 17e0 <.LBB87_5+0x35c>
    1be0:	021b0533          	mul	a0,s6,ra
    1be4:	000015b7          	lui	a1,0x1
    1be8:	40b405b3          	sub	a1,s0,a1
    1bec:	7e85b603          	ld	a2,2024(a1) # 17e8 <.LBB87_5+0x364>
    1bf0:	00c50633          	add	a2,a0,a2
    1bf4:	00001537          	lui	a0,0x1
    1bf8:	40a40533          	sub	a0,s0,a0
    1bfc:	7ec53423          	sd	a2,2024(a0) # 17e8 <.LBB87_5+0x364>
    1c00:	03eb0533          	mul	a0,s6,t5
    1c04:	000f0913          	mv	s2,t5
    1c08:	000015b7          	lui	a1,0x1
    1c0c:	40b405b3          	sub	a1,s0,a1
    1c10:	7f05b603          	ld	a2,2032(a1) # 17f0 <.LBB87_5+0x36c>
    1c14:	00c50633          	add	a2,a0,a2
    1c18:	00001537          	lui	a0,0x1
    1c1c:	40a40533          	sub	a0,s0,a0
    1c20:	7ec53823          	sd	a2,2032(a0) # 17f0 <.LBB87_5+0x36c>
    1c24:	ec843e83          	ld	t4,-312(s0)
    1c28:	03db0533          	mul	a0,s6,t4
    1c2c:	000015b7          	lui	a1,0x1
    1c30:	40b405b3          	sub	a1,s0,a1
    1c34:	7f85b603          	ld	a2,2040(a1) # 17f8 <.LBB87_5+0x374>
    1c38:	00c50633          	add	a2,a0,a2
    1c3c:	00001537          	lui	a0,0x1
    1c40:	40a40533          	sub	a0,s0,a0
    1c44:	7ec53c23          	sd	a2,2040(a0) # 17f8 <.LBB87_5+0x374>
    1c48:	03cb0533          	mul	a0,s6,t3
    1c4c:	80043603          	ld	a2,-2048(s0)
    1c50:	00c50633          	add	a2,a0,a2
    1c54:	80c43023          	sd	a2,-2048(s0)
    1c58:	025b0533          	mul	a0,s6,t0
    1c5c:	00028f13          	mv	t5,t0
    1c60:	ee543c23          	sd	t0,-264(s0)
    1c64:	80843603          	ld	a2,-2040(s0)
    1c68:	00c50633          	add	a2,a0,a2
    1c6c:	80c43423          	sd	a2,-2040(s0)
    1c70:	ed843583          	ld	a1,-296(s0)
    1c74:	02bb0533          	mul	a0,s6,a1
    1c78:	81043603          	ld	a2,-2032(s0)
    1c7c:	00c50633          	add	a2,a0,a2
    1c80:	80c43823          	sd	a2,-2032(s0)
    1c84:	e8843283          	ld	t0,-376(s0)
    1c88:	025b0533          	mul	a0,s6,t0
    1c8c:	81843603          	ld	a2,-2024(s0)
    1c90:	00c50633          	add	a2,a0,a2
    1c94:	80c43c23          	sd	a2,-2024(s0)
    1c98:	03fb0533          	mul	a0,s6,t6
    1c9c:	82043603          	ld	a2,-2016(s0)
    1ca0:	00c50633          	add	a2,a0,a2
    1ca4:	82c43023          	sd	a2,-2016(s0)
    1ca8:	ef043f83          	ld	t6,-272(s0)
    1cac:	03fb0533          	mul	a0,s6,t6
    1cb0:	82843603          	ld	a2,-2008(s0)
    1cb4:	00c50633          	add	a2,a0,a2
    1cb8:	82c43423          	sd	a2,-2008(s0)
    1cbc:	034b0533          	mul	a0,s6,s4
    1cc0:	83043603          	ld	a2,-2000(s0)
    1cc4:	00c50633          	add	a2,a0,a2
    1cc8:	82c43823          	sd	a2,-2000(s0)
    1ccc:	f6043503          	ld	a0,-160(s0)
    1cd0:	02ab0533          	mul	a0,s6,a0
    1cd4:	83843603          	ld	a2,-1992(s0)
    1cd8:	00c50633          	add	a2,a0,a2
    1cdc:	82c43c23          	sd	a2,-1992(s0)
    1ce0:	ee843a03          	ld	s4,-280(s0)
    1ce4:	034b0533          	mul	a0,s6,s4
    1ce8:	84043603          	ld	a2,-1984(s0)
    1cec:	00c50633          	add	a2,a0,a2
    1cf0:	84c43023          	sd	a2,-1984(s0)
    1cf4:	f5843503          	ld	a0,-168(s0)
    1cf8:	02ab0533          	mul	a0,s6,a0
    1cfc:	84843603          	ld	a2,-1976(s0)
    1d00:	00c50633          	add	a2,a0,a2
    1d04:	84c43423          	sd	a2,-1976(s0)
    1d08:	026b0533          	mul	a0,s6,t1
    1d0c:	85043603          	ld	a2,-1968(s0)
    1d10:	00c50633          	add	a2,a0,a2
    1d14:	84c43823          	sd	a2,-1968(s0)
    1d18:	027b0533          	mul	a0,s6,t2
    1d1c:	85843603          	ld	a2,-1960(s0)
    1d20:	00c50633          	add	a2,a0,a2
    1d24:	84c43c23          	sd	a2,-1960(s0)
    1d28:	029b0533          	mul	a0,s6,s1
    1d2c:	86043603          	ld	a2,-1952(s0)
    1d30:	00c50633          	add	a2,a0,a2
    1d34:	86c43023          	sd	a2,-1952(s0)
    1d38:	030b0533          	mul	a0,s6,a6
    1d3c:	86843603          	ld	a2,-1944(s0)
    1d40:	00c50633          	add	a2,a0,a2
    1d44:	86c43423          	sd	a2,-1944(s0)
    1d48:	e9043083          	ld	ra,-368(s0)
    1d4c:	021b0533          	mul	a0,s6,ra
    1d50:	87043603          	ld	a2,-1936(s0)
    1d54:	00c50633          	add	a2,a0,a2
    1d58:	86c43823          	sd	a2,-1936(s0)
    1d5c:	f6843503          	ld	a0,-152(s0)
    1d60:	48050503          	lb	a0,1152(a0)
    1d64:	03ab0db3          	mul	s11,s6,s10
    1d68:	87843603          	ld	a2,-1928(s0)
    1d6c:	00cd8633          	add	a2,s11,a2
    1d70:	86c43c23          	sd	a2,-1928(s0)
    1d74:	f3843803          	ld	a6,-200(s0)
    1d78:	030b0b33          	mul	s6,s6,a6
    1d7c:	88043603          	ld	a2,-1920(s0)
    1d80:	00cb0633          	add	a2,s6,a2
    1d84:	88c43023          	sd	a2,-1920(s0)
    1d88:	02e50b33          	mul	s6,a0,a4
    1d8c:	8a043603          	ld	a2,-1888(s0)
    1d90:	00cb0633          	add	a2,s6,a2
    1d94:	8ac43023          	sd	a2,-1888(s0)
    1d98:	02d50b33          	mul	s6,a0,a3
    1d9c:	89843603          	ld	a2,-1896(s0)
    1da0:	00cb0633          	add	a2,s6,a2
    1da4:	88c43c23          	sd	a2,-1896(s0)
    1da8:	03150b33          	mul	s6,a0,a7
    1dac:	00088693          	mv	a3,a7
    1db0:	89043603          	ld	a2,-1904(s0)
    1db4:	00cb0633          	add	a2,s6,a2
    1db8:	88c43823          	sd	a2,-1904(s0)
    1dbc:	f4843303          	ld	t1,-184(s0)
    1dc0:	02650b33          	mul	s6,a0,t1
    1dc4:	88843603          	ld	a2,-1912(s0)
    1dc8:	00cb0633          	add	a2,s6,a2
    1dcc:	88c43423          	sd	a2,-1912(s0)
    1dd0:	f4043e03          	ld	t3,-192(s0)
    1dd4:	03c50b33          	mul	s6,a0,t3
    1dd8:	8a843603          	ld	a2,-1880(s0)
    1ddc:	00cb0633          	add	a2,s6,a2
    1de0:	8ac43423          	sd	a2,-1880(s0)
    1de4:	02f50b33          	mul	s6,a0,a5
    1de8:	8b043603          	ld	a2,-1872(s0)
    1dec:	00cb0633          	add	a2,s6,a2
    1df0:	8ac43823          	sd	a2,-1872(s0)
    1df4:	03350b33          	mul	s6,a0,s3
    1df8:	8b843603          	ld	a2,-1864(s0)
    1dfc:	00cb0633          	add	a2,s6,a2
    1e00:	8ac43c23          	sd	a2,-1864(s0)
    1e04:	000c8713          	mv	a4,s9
    1e08:	03950b33          	mul	s6,a0,s9
    1e0c:	8c043603          	ld	a2,-1856(s0)
    1e10:	00cb0633          	add	a2,s6,a2
    1e14:	8cc43023          	sd	a2,-1856(s0)
    1e18:	03550b33          	mul	s6,a0,s5
    1e1c:	8c843603          	ld	a2,-1848(s0)
    1e20:	00cb0633          	add	a2,s6,a2
    1e24:	8cc43423          	sd	a2,-1848(s0)
    1e28:	f8043c83          	ld	s9,-128(s0)
    1e2c:	03950b33          	mul	s6,a0,s9
    1e30:	8d043603          	ld	a2,-1840(s0)
    1e34:	00cb0633          	add	a2,s6,a2
    1e38:	8cc43823          	sd	a2,-1840(s0)
    1e3c:	03850b33          	mul	s6,a0,s8
    1e40:	8d843603          	ld	a2,-1832(s0)
    1e44:	00cb0633          	add	a2,s6,a2
    1e48:	8cc43c23          	sd	a2,-1832(s0)
    1e4c:	03750b33          	mul	s6,a0,s7
    1e50:	8e043603          	ld	a2,-1824(s0)
    1e54:	00cb0633          	add	a2,s6,a2
    1e58:	8ec43023          	sd	a2,-1824(s0)
    1e5c:	ea843883          	ld	a7,-344(s0)
    1e60:	03150b33          	mul	s6,a0,a7
    1e64:	8e843603          	ld	a2,-1816(s0)
    1e68:	00cb0633          	add	a2,s6,a2
    1e6c:	8ec43423          	sd	a2,-1816(s0)
    1e70:	03250b33          	mul	s6,a0,s2
    1e74:	8f043603          	ld	a2,-1808(s0)
    1e78:	00cb0633          	add	a2,s6,a2
    1e7c:	8ec43823          	sd	a2,-1808(s0)
    1e80:	000e8793          	mv	a5,t4
    1e84:	03d50b33          	mul	s6,a0,t4
    1e88:	8f843603          	ld	a2,-1800(s0)
    1e8c:	00cb0633          	add	a2,s6,a2
    1e90:	8ec43c23          	sd	a2,-1800(s0)
    1e94:	e7043483          	ld	s1,-400(s0)
    1e98:	02950b33          	mul	s6,a0,s1
    1e9c:	90043603          	ld	a2,-1792(s0)
    1ea0:	00cb0633          	add	a2,s6,a2
    1ea4:	90c43023          	sd	a2,-1792(s0)
    1ea8:	03e50b33          	mul	s6,a0,t5
    1eac:	90843603          	ld	a2,-1784(s0)
    1eb0:	00cb0633          	add	a2,s6,a2
    1eb4:	90c43423          	sd	a2,-1784(s0)
    1eb8:	02b50b33          	mul	s6,a0,a1
    1ebc:	00058993          	mv	s3,a1
    1ec0:	91043603          	ld	a2,-1776(s0)
    1ec4:	00cb0633          	add	a2,s6,a2
    1ec8:	90c43823          	sd	a2,-1776(s0)
    1ecc:	02550b33          	mul	s6,a0,t0
    1ed0:	00028393          	mv	t2,t0
    1ed4:	91843603          	ld	a2,-1768(s0)
    1ed8:	00cb0633          	add	a2,s6,a2
    1edc:	90c43c23          	sd	a2,-1768(s0)
    1ee0:	e6843f03          	ld	t5,-408(s0)
    1ee4:	03e50b33          	mul	s6,a0,t5
    1ee8:	92043603          	ld	a2,-1760(s0)
    1eec:	00cb0633          	add	a2,s6,a2
    1ef0:	92c43023          	sd	a2,-1760(s0)
    1ef4:	03f50b33          	mul	s6,a0,t6
    1ef8:	92843603          	ld	a2,-1752(s0)
    1efc:	00cb0633          	add	a2,s6,a2
    1f00:	92c43423          	sd	a2,-1752(s0)
    1f04:	f7843283          	ld	t0,-136(s0)
    1f08:	02550b33          	mul	s6,a0,t0
    1f0c:	93043603          	ld	a2,-1744(s0)
    1f10:	00cb0633          	add	a2,s6,a2
    1f14:	92c43823          	sd	a2,-1744(s0)
    1f18:	f6043583          	ld	a1,-160(s0)
    1f1c:	02b50b33          	mul	s6,a0,a1
    1f20:	93843603          	ld	a2,-1736(s0)
    1f24:	00cb0633          	add	a2,s6,a2
    1f28:	92c43c23          	sd	a2,-1736(s0)
    1f2c:	000a0e93          	mv	t4,s4
    1f30:	03450b33          	mul	s6,a0,s4
    1f34:	94043603          	ld	a2,-1728(s0)
    1f38:	00cb0633          	add	a2,s6,a2
    1f3c:	94c43023          	sd	a2,-1728(s0)
    1f40:	f5843a03          	ld	s4,-168(s0)
    1f44:	03450b33          	mul	s6,a0,s4
    1f48:	94843603          	ld	a2,-1720(s0)
    1f4c:	00cb0633          	add	a2,s6,a2
    1f50:	94c43423          	sd	a2,-1720(s0)
    1f54:	eb043603          	ld	a2,-336(s0)
    1f58:	02c50b33          	mul	s6,a0,a2
    1f5c:	95043603          	ld	a2,-1712(s0)
    1f60:	00cb0633          	add	a2,s6,a2
    1f64:	94c43823          	sd	a2,-1712(s0)
    1f68:	eb843603          	ld	a2,-328(s0)
    1f6c:	02c50b33          	mul	s6,a0,a2
    1f70:	95843603          	ld	a2,-1704(s0)
    1f74:	00cb0633          	add	a2,s6,a2
    1f78:	94c43c23          	sd	a2,-1704(s0)
    1f7c:	ec043603          	ld	a2,-320(s0)
    1f80:	02c50b33          	mul	s6,a0,a2
    1f84:	96043603          	ld	a2,-1696(s0)
    1f88:	00cb0633          	add	a2,s6,a2
    1f8c:	96c43023          	sd	a2,-1696(s0)
    1f90:	e6043a83          	ld	s5,-416(s0)
    1f94:	03550b33          	mul	s6,a0,s5
    1f98:	96843603          	ld	a2,-1688(s0)
    1f9c:	00cb0633          	add	a2,s6,a2
    1fa0:	96c43423          	sd	a2,-1688(s0)
    1fa4:	02150b33          	mul	s6,a0,ra
    1fa8:	97043603          	ld	a2,-1680(s0)
    1fac:	00cb0633          	add	a2,s6,a2
    1fb0:	96c43823          	sd	a2,-1680(s0)
    1fb4:	f6843603          	ld	a2,-152(s0)
    1fb8:	6c060b03          	lb	s6,1728(a2)
    1fbc:	03a50db3          	mul	s11,a0,s10
    1fc0:	00001637          	lui	a2,0x1
    1fc4:	40c40633          	sub	a2,s0,a2
    1fc8:	67a63823          	sd	s10,1648(a2) # 1670 <.LBB87_5+0x1ec>
    1fcc:	97843603          	ld	a2,-1672(s0)
    1fd0:	00cd8633          	add	a2,s11,a2
    1fd4:	96c43c23          	sd	a2,-1672(s0)
    1fd8:	03050533          	mul	a0,a0,a6
    1fdc:	98043603          	ld	a2,-1664(s0)
    1fe0:	00c50633          	add	a2,a0,a2
    1fe4:	98c43023          	sd	a2,-1664(s0)
    1fe8:	ee043503          	ld	a0,-288(s0)
    1fec:	02ab0533          	mul	a0,s6,a0
    1ff0:	9a043603          	ld	a2,-1632(s0)
    1ff4:	00c50633          	add	a2,a0,a2
    1ff8:	9ac43023          	sd	a2,-1632(s0)
    1ffc:	e9843803          	ld	a6,-360(s0)
    2000:	030b0533          	mul	a0,s6,a6
    2004:	99843603          	ld	a2,-1640(s0)
    2008:	00c50633          	add	a2,a0,a2
    200c:	98c43c23          	sd	a2,-1640(s0)
    2010:	02db0533          	mul	a0,s6,a3
    2014:	99043603          	ld	a2,-1648(s0)
    2018:	00c50633          	add	a2,a0,a2
    201c:	98c43823          	sd	a2,-1648(s0)
    2020:	026b0533          	mul	a0,s6,t1
    2024:	98843603          	ld	a2,-1656(s0)
    2028:	00c50633          	add	a2,a0,a2
    202c:	98c43423          	sd	a2,-1656(s0)
    2030:	03cb0533          	mul	a0,s6,t3
    2034:	9a843603          	ld	a2,-1624(s0)
    2038:	00c50633          	add	a2,a0,a2
    203c:	9ac43423          	sd	a2,-1624(s0)
    2040:	f3043683          	ld	a3,-208(s0)
    2044:	02db0533          	mul	a0,s6,a3
    2048:	9b043603          	ld	a2,-1616(s0)
    204c:	00c50633          	add	a2,a0,a2
    2050:	9ac43823          	sd	a2,-1616(s0)
    2054:	ea043e03          	ld	t3,-352(s0)
    2058:	03cb0533          	mul	a0,s6,t3
    205c:	9b843603          	ld	a2,-1608(s0)
    2060:	00c50633          	add	a2,a0,a2
    2064:	9ac43c23          	sd	a2,-1608(s0)
    2068:	02eb0533          	mul	a0,s6,a4
    206c:	9c043603          	ld	a2,-1600(s0)
    2070:	00c50633          	add	a2,a0,a2
    2074:	9cc43023          	sd	a2,-1600(s0)
    2078:	e8043703          	ld	a4,-384(s0)
    207c:	02eb0533          	mul	a0,s6,a4
    2080:	9c843603          	ld	a2,-1592(s0)
    2084:	00c50633          	add	a2,a0,a2
    2088:	9cc43423          	sd	a2,-1592(s0)
    208c:	039b0533          	mul	a0,s6,s9
    2090:	9d043603          	ld	a2,-1584(s0)
    2094:	00c50633          	add	a2,a0,a2
    2098:	9cc43823          	sd	a2,-1584(s0)
    209c:	038b0533          	mul	a0,s6,s8
    20a0:	9d843603          	ld	a2,-1576(s0)
    20a4:	00c50633          	add	a2,a0,a2
    20a8:	9cc43c23          	sd	a2,-1576(s0)
    20ac:	037b0533          	mul	a0,s6,s7
    20b0:	9e043603          	ld	a2,-1568(s0)
    20b4:	00c50633          	add	a2,a0,a2
    20b8:	9ec43023          	sd	a2,-1568(s0)
    20bc:	031b0533          	mul	a0,s6,a7
    20c0:	9e843603          	ld	a2,-1560(s0)
    20c4:	00c50633          	add	a2,a0,a2
    20c8:	9ec43423          	sd	a2,-1560(s0)
    20cc:	00090313          	mv	t1,s2
    20d0:	00001537          	lui	a0,0x1
    20d4:	40a40533          	sub	a0,s0,a0
    20d8:	67253423          	sd	s2,1640(a0) # 1668 <.LBB87_5+0x1e4>
    20dc:	032b0533          	mul	a0,s6,s2
    20e0:	9f043603          	ld	a2,-1552(s0)
    20e4:	00c50633          	add	a2,a0,a2
    20e8:	9ec43823          	sd	a2,-1552(s0)
    20ec:	02fb0533          	mul	a0,s6,a5
    20f0:	9f843603          	ld	a2,-1544(s0)
    20f4:	00c50633          	add	a2,a0,a2
    20f8:	9ec43c23          	sd	a2,-1544(s0)
    20fc:	00048893          	mv	a7,s1
    2100:	029b0533          	mul	a0,s6,s1
    2104:	a0043603          	ld	a2,-1536(s0)
    2108:	00c50633          	add	a2,a0,a2
    210c:	a0c43023          	sd	a2,-1536(s0)
    2110:	ef843503          	ld	a0,-264(s0)
    2114:	02ab0533          	mul	a0,s6,a0
    2118:	a0843603          	ld	a2,-1528(s0)
    211c:	00c50633          	add	a2,a0,a2
    2120:	a0c43423          	sd	a2,-1528(s0)
    2124:	033b0533          	mul	a0,s6,s3
    2128:	a1043603          	ld	a2,-1520(s0)
    212c:	00c50633          	add	a2,a0,a2
    2130:	a0c43823          	sd	a2,-1520(s0)
    2134:	027b0533          	mul	a0,s6,t2
    2138:	a1843603          	ld	a2,-1512(s0)
    213c:	00c50633          	add	a2,a0,a2
    2140:	a0c43c23          	sd	a2,-1512(s0)
    2144:	03eb0533          	mul	a0,s6,t5
    2148:	000f0793          	mv	a5,t5
    214c:	a2043603          	ld	a2,-1504(s0)
    2150:	00c50633          	add	a2,a0,a2
    2154:	a2c43023          	sd	a2,-1504(s0)
    2158:	03fb0533          	mul	a0,s6,t6
    215c:	a2843603          	ld	a2,-1496(s0)
    2160:	00c50633          	add	a2,a0,a2
    2164:	a2c43423          	sd	a2,-1496(s0)
    2168:	025b0533          	mul	a0,s6,t0
    216c:	a3043603          	ld	a2,-1488(s0)
    2170:	00c50633          	add	a2,a0,a2
    2174:	a2c43823          	sd	a2,-1488(s0)
    2178:	02bb0533          	mul	a0,s6,a1
    217c:	a3843603          	ld	a2,-1480(s0)
    2180:	00c50633          	add	a2,a0,a2
    2184:	a2c43c23          	sd	a2,-1480(s0)
    2188:	03db0533          	mul	a0,s6,t4
    218c:	a4043603          	ld	a2,-1472(s0)
    2190:	00c50633          	add	a2,a0,a2
    2194:	a4c43023          	sd	a2,-1472(s0)
    2198:	034b0533          	mul	a0,s6,s4
    219c:	a4843603          	ld	a2,-1464(s0)
    21a0:	00c50633          	add	a2,a0,a2
    21a4:	a4c43423          	sd	a2,-1464(s0)
    21a8:	eb043e83          	ld	t4,-336(s0)
    21ac:	03db0533          	mul	a0,s6,t4
    21b0:	a5043603          	ld	a2,-1456(s0)
    21b4:	00c50633          	add	a2,a0,a2
    21b8:	a4c43823          	sd	a2,-1456(s0)
    21bc:	eb843f03          	ld	t5,-328(s0)
    21c0:	03eb0533          	mul	a0,s6,t5
    21c4:	a5843603          	ld	a2,-1448(s0)
    21c8:	00c50633          	add	a2,a0,a2
    21cc:	a4c43c23          	sd	a2,-1448(s0)
    21d0:	ec043f83          	ld	t6,-320(s0)
    21d4:	03fb0533          	mul	a0,s6,t6
    21d8:	a6043603          	ld	a2,-1440(s0)
    21dc:	00c50633          	add	a2,a0,a2
    21e0:	a6c43023          	sd	a2,-1440(s0)
    21e4:	000a8c93          	mv	s9,s5
    21e8:	035b0533          	mul	a0,s6,s5
    21ec:	a6843603          	ld	a2,-1432(s0)
    21f0:	00c50633          	add	a2,a0,a2
    21f4:	a6c43423          	sd	a2,-1432(s0)
    21f8:	021b0533          	mul	a0,s6,ra
    21fc:	a7043603          	ld	a2,-1424(s0)
    2200:	00c50633          	add	a2,a0,a2
    2204:	a6c43823          	sd	a2,-1424(s0)
    2208:	f7043583          	ld	a1,-144(s0)
    220c:	94058503          	lb	a0,-1728(a1)
    2210:	00058093          	mv	ra,a1
    2214:	03ab0db3          	mul	s11,s6,s10
    2218:	a7843603          	ld	a2,-1416(s0)
    221c:	00cd8633          	add	a2,s11,a2
    2220:	a6c43c23          	sd	a2,-1416(s0)
    2224:	f3843d03          	ld	s10,-200(s0)
    2228:	03ab0b33          	mul	s6,s6,s10
    222c:	a8043603          	ld	a2,-1408(s0)
    2230:	00cb0633          	add	a2,s6,a2
    2234:	a8c43023          	sd	a2,-1408(s0)
    2238:	ee043a83          	ld	s5,-288(s0)
    223c:	03550b33          	mul	s6,a0,s5
    2240:	aa043603          	ld	a2,-1376(s0)
    2244:	00cb0633          	add	a2,s6,a2
    2248:	aac43023          	sd	a2,-1376(s0)
    224c:	03050b33          	mul	s6,a0,a6
    2250:	a9843603          	ld	a2,-1384(s0)
    2254:	00cb0633          	add	a2,s6,a2
    2258:	a8c43c23          	sd	a2,-1384(s0)
    225c:	f5043803          	ld	a6,-176(s0)
    2260:	03050b33          	mul	s6,a0,a6
    2264:	a9043603          	ld	a2,-1392(s0)
    2268:	00cb0633          	add	a2,s6,a2
    226c:	a8c43823          	sd	a2,-1392(s0)
    2270:	f4843383          	ld	t2,-184(s0)
    2274:	02750b33          	mul	s6,a0,t2
    2278:	a8843603          	ld	a2,-1400(s0)
    227c:	00cb0633          	add	a2,s6,a2
    2280:	a8c43423          	sd	a2,-1400(s0)
    2284:	f4043483          	ld	s1,-192(s0)
    2288:	02950b33          	mul	s6,a0,s1
    228c:	aa843603          	ld	a2,-1368(s0)
    2290:	00cb0633          	add	a2,s6,a2
    2294:	aac43423          	sd	a2,-1368(s0)
    2298:	02d50b33          	mul	s6,a0,a3
    229c:	ab043603          	ld	a2,-1360(s0)
    22a0:	00cb0633          	add	a2,s6,a2
    22a4:	aac43823          	sd	a2,-1360(s0)
    22a8:	03c50b33          	mul	s6,a0,t3
    22ac:	ab843603          	ld	a2,-1352(s0)
    22b0:	00cb0633          	add	a2,s6,a2
    22b4:	aac43c23          	sd	a2,-1352(s0)
    22b8:	ed043903          	ld	s2,-304(s0)
    22bc:	03250b33          	mul	s6,a0,s2
    22c0:	ac043603          	ld	a2,-1344(s0)
    22c4:	00cb0633          	add	a2,s6,a2
    22c8:	acc43023          	sd	a2,-1344(s0)
    22cc:	02e50b33          	mul	s6,a0,a4
    22d0:	ac843603          	ld	a2,-1336(s0)
    22d4:	00cb0633          	add	a2,s6,a2
    22d8:	acc43423          	sd	a2,-1336(s0)
    22dc:	f8043583          	ld	a1,-128(s0)
    22e0:	02b50b33          	mul	s6,a0,a1
    22e4:	ad043603          	ld	a2,-1328(s0)
    22e8:	00cb0633          	add	a2,s6,a2
    22ec:	acc43823          	sd	a2,-1328(s0)
    22f0:	03850b33          	mul	s6,a0,s8
    22f4:	ad843603          	ld	a2,-1320(s0)
    22f8:	00cb0633          	add	a2,s6,a2
    22fc:	acc43c23          	sd	a2,-1320(s0)
    2300:	03750b33          	mul	s6,a0,s7
    2304:	ae043603          	ld	a2,-1312(s0)
    2308:	00cb0633          	add	a2,s6,a2
    230c:	aec43023          	sd	a2,-1312(s0)
    2310:	ea843983          	ld	s3,-344(s0)
    2314:	03350b33          	mul	s6,a0,s3
    2318:	ae843603          	ld	a2,-1304(s0)
    231c:	00cb0633          	add	a2,s6,a2
    2320:	aec43423          	sd	a2,-1304(s0)
    2324:	02650b33          	mul	s6,a0,t1
    2328:	af043603          	ld	a2,-1296(s0)
    232c:	00cb0633          	add	a2,s6,a2
    2330:	aec43823          	sd	a2,-1296(s0)
    2334:	ec843e03          	ld	t3,-312(s0)
    2338:	03c50b33          	mul	s6,a0,t3
    233c:	af843603          	ld	a2,-1288(s0)
    2340:	00cb0633          	add	a2,s6,a2
    2344:	aec43c23          	sd	a2,-1288(s0)
    2348:	00088593          	mv	a1,a7
    234c:	03150b33          	mul	s6,a0,a7
    2350:	b0043603          	ld	a2,-1280(s0)
    2354:	00cb0633          	add	a2,s6,a2
    2358:	b0c43023          	sd	a2,-1280(s0)
    235c:	ef843883          	ld	a7,-264(s0)
    2360:	03150b33          	mul	s6,a0,a7
    2364:	b0843603          	ld	a2,-1272(s0)
    2368:	00cb0633          	add	a2,s6,a2
    236c:	b0c43423          	sd	a2,-1272(s0)
    2370:	ed843303          	ld	t1,-296(s0)
    2374:	02650b33          	mul	s6,a0,t1
    2378:	b1043603          	ld	a2,-1264(s0)
    237c:	00cb0633          	add	a2,s6,a2
    2380:	b0c43823          	sd	a2,-1264(s0)
    2384:	e8843283          	ld	t0,-376(s0)
    2388:	02550b33          	mul	s6,a0,t0
    238c:	b1843603          	ld	a2,-1256(s0)
    2390:	00cb0633          	add	a2,s6,a2
    2394:	b0c43c23          	sd	a2,-1256(s0)
    2398:	02f50b33          	mul	s6,a0,a5
    239c:	b2043603          	ld	a2,-1248(s0)
    23a0:	00cb0633          	add	a2,s6,a2
    23a4:	b2c43023          	sd	a2,-1248(s0)
    23a8:	ef043603          	ld	a2,-272(s0)
    23ac:	02c50b33          	mul	s6,a0,a2
    23b0:	b2843603          	ld	a2,-1240(s0)
    23b4:	00cb0633          	add	a2,s6,a2
    23b8:	b2c43423          	sd	a2,-1240(s0)
    23bc:	f7843603          	ld	a2,-136(s0)
    23c0:	02c50b33          	mul	s6,a0,a2
    23c4:	b3043603          	ld	a2,-1232(s0)
    23c8:	00cb0633          	add	a2,s6,a2
    23cc:	b2c43823          	sd	a2,-1232(s0)
    23d0:	f6043683          	ld	a3,-160(s0)
    23d4:	02d50b33          	mul	s6,a0,a3
    23d8:	b3843603          	ld	a2,-1224(s0)
    23dc:	00cb0633          	add	a2,s6,a2
    23e0:	b2c43c23          	sd	a2,-1224(s0)
    23e4:	ee843603          	ld	a2,-280(s0)
    23e8:	02c50b33          	mul	s6,a0,a2
    23ec:	b4043603          	ld	a2,-1216(s0)
    23f0:	00cb0633          	add	a2,s6,a2
    23f4:	b4c43023          	sd	a2,-1216(s0)
    23f8:	03450b33          	mul	s6,a0,s4
    23fc:	b4843603          	ld	a2,-1208(s0)
    2400:	00cb0633          	add	a2,s6,a2
    2404:	b4c43423          	sd	a2,-1208(s0)
    2408:	03d50b33          	mul	s6,a0,t4
    240c:	b5043603          	ld	a2,-1200(s0)
    2410:	00cb0633          	add	a2,s6,a2
    2414:	b4c43823          	sd	a2,-1200(s0)
    2418:	03e50b33          	mul	s6,a0,t5
    241c:	b5843603          	ld	a2,-1192(s0)
    2420:	00cb0633          	add	a2,s6,a2
    2424:	b4c43c23          	sd	a2,-1192(s0)
    2428:	03f50b33          	mul	s6,a0,t6
    242c:	b6043603          	ld	a2,-1184(s0)
    2430:	00cb0633          	add	a2,s6,a2
    2434:	b6c43023          	sd	a2,-1184(s0)
    2438:	03950b33          	mul	s6,a0,s9
    243c:	000c8f13          	mv	t5,s9
    2440:	b6843603          	ld	a2,-1176(s0)
    2444:	00cb0633          	add	a2,s6,a2
    2448:	b6c43423          	sd	a2,-1176(s0)
    244c:	e9043a03          	ld	s4,-368(s0)
    2450:	03450b33          	mul	s6,a0,s4
    2454:	b7043603          	ld	a2,-1168(s0)
    2458:	00cb0633          	add	a2,s6,a2
    245c:	b6c43823          	sd	a2,-1168(s0)
    2460:	b8008b03          	lb	s6,-1152(ra)
    2464:	f6143823          	sd	ra,-144(s0)
    2468:	00001637          	lui	a2,0x1
    246c:	40c40633          	sub	a2,s0,a2
    2470:	67063c83          	ld	s9,1648(a2) # 1670 <.LBB87_5+0x1ec>
    2474:	03950db3          	mul	s11,a0,s9
    2478:	b7843603          	ld	a2,-1160(s0)
    247c:	00cd8633          	add	a2,s11,a2
    2480:	b6c43c23          	sd	a2,-1160(s0)
    2484:	03a50533          	mul	a0,a0,s10
    2488:	b8043603          	ld	a2,-1152(s0)
    248c:	00c50633          	add	a2,a0,a2
    2490:	b8c43023          	sd	a2,-1152(s0)
    2494:	035b0533          	mul	a0,s6,s5
    2498:	000a8e93          	mv	t4,s5
    249c:	ba043603          	ld	a2,-1120(s0)
    24a0:	00c50633          	add	a2,a0,a2
    24a4:	bac43023          	sd	a2,-1120(s0)
    24a8:	e9843a83          	ld	s5,-360(s0)
    24ac:	035b0533          	mul	a0,s6,s5
    24b0:	b9843603          	ld	a2,-1128(s0)
    24b4:	00c50633          	add	a2,a0,a2
    24b8:	b8c43c23          	sd	a2,-1128(s0)
    24bc:	030b0533          	mul	a0,s6,a6
    24c0:	b9043603          	ld	a2,-1136(s0)
    24c4:	00c50633          	add	a2,a0,a2
    24c8:	b8c43823          	sd	a2,-1136(s0)
    24cc:	027b0533          	mul	a0,s6,t2
    24d0:	b8843603          	ld	a2,-1144(s0)
    24d4:	00c50633          	add	a2,a0,a2
    24d8:	b8c43423          	sd	a2,-1144(s0)
    24dc:	029b0533          	mul	a0,s6,s1
    24e0:	ba843603          	ld	a2,-1112(s0)
    24e4:	00c50633          	add	a2,a0,a2
    24e8:	bac43423          	sd	a2,-1112(s0)
    24ec:	f3043d03          	ld	s10,-208(s0)
    24f0:	03ab0533          	mul	a0,s6,s10
    24f4:	bb043603          	ld	a2,-1104(s0)
    24f8:	00c50633          	add	a2,a0,a2
    24fc:	bac43823          	sd	a2,-1104(s0)
    2500:	ea043783          	ld	a5,-352(s0)
    2504:	02fb0533          	mul	a0,s6,a5
    2508:	bb843603          	ld	a2,-1096(s0)
    250c:	00c50633          	add	a2,a0,a2
    2510:	bac43c23          	sd	a2,-1096(s0)
    2514:	032b0533          	mul	a0,s6,s2
    2518:	bc043603          	ld	a2,-1088(s0)
    251c:	00c50633          	add	a2,a0,a2
    2520:	bcc43023          	sd	a2,-1088(s0)
    2524:	02eb0533          	mul	a0,s6,a4
    2528:	bc843603          	ld	a2,-1080(s0)
    252c:	00c50633          	add	a2,a0,a2
    2530:	bcc43423          	sd	a2,-1080(s0)
    2534:	f8043903          	ld	s2,-128(s0)
    2538:	032b0533          	mul	a0,s6,s2
    253c:	bd043603          	ld	a2,-1072(s0)
    2540:	00c50633          	add	a2,a0,a2
    2544:	bcc43823          	sd	a2,-1072(s0)
    2548:	038b0533          	mul	a0,s6,s8
    254c:	bd843603          	ld	a2,-1064(s0)
    2550:	00c50633          	add	a2,a0,a2
    2554:	bcc43c23          	sd	a2,-1064(s0)
    2558:	037b0533          	mul	a0,s6,s7
    255c:	be043603          	ld	a2,-1056(s0)
    2560:	00c50633          	add	a2,a0,a2
    2564:	bec43023          	sd	a2,-1056(s0)
    2568:	033b0533          	mul	a0,s6,s3
    256c:	be843603          	ld	a2,-1048(s0)
    2570:	00c50633          	add	a2,a0,a2
    2574:	bec43423          	sd	a2,-1048(s0)
    2578:	00001537          	lui	a0,0x1
    257c:	40a40533          	sub	a0,s0,a0
    2580:	66853b83          	ld	s7,1640(a0) # 1668 <.LBB87_5+0x1e4>
    2584:	037b0533          	mul	a0,s6,s7
    2588:	bf043603          	ld	a2,-1040(s0)
    258c:	00c50633          	add	a2,a0,a2
    2590:	bec43823          	sd	a2,-1040(s0)
    2594:	03cb0533          	mul	a0,s6,t3
    2598:	bf843603          	ld	a2,-1032(s0)
    259c:	00c50633          	add	a2,a0,a2
    25a0:	bec43c23          	sd	a2,-1032(s0)
    25a4:	02bb0533          	mul	a0,s6,a1
    25a8:	c0043603          	ld	a2,-1024(s0)
    25ac:	00c50633          	add	a2,a0,a2
    25b0:	c0c43023          	sd	a2,-1024(s0)
    25b4:	031b0533          	mul	a0,s6,a7
    25b8:	00088e13          	mv	t3,a7
    25bc:	c0843603          	ld	a2,-1016(s0)
    25c0:	00c50633          	add	a2,a0,a2
    25c4:	c0c43423          	sd	a2,-1016(s0)
    25c8:	026b0533          	mul	a0,s6,t1
    25cc:	c1043603          	ld	a2,-1008(s0)
    25d0:	00c50633          	add	a2,a0,a2
    25d4:	c0c43823          	sd	a2,-1008(s0)
    25d8:	00028593          	mv	a1,t0
    25dc:	025b0533          	mul	a0,s6,t0
    25e0:	c1843603          	ld	a2,-1000(s0)
    25e4:	00c50633          	add	a2,a0,a2
    25e8:	c0c43c23          	sd	a2,-1000(s0)
    25ec:	e6843983          	ld	s3,-408(s0)
    25f0:	033b0533          	mul	a0,s6,s3
    25f4:	c2043603          	ld	a2,-992(s0)
    25f8:	00c50633          	add	a2,a0,a2
    25fc:	c2c43023          	sd	a2,-992(s0)
    2600:	ef043283          	ld	t0,-272(s0)
    2604:	025b0533          	mul	a0,s6,t0
    2608:	c2843603          	ld	a2,-984(s0)
    260c:	00c50633          	add	a2,a0,a2
    2610:	c2c43423          	sd	a2,-984(s0)
    2614:	f7843503          	ld	a0,-136(s0)
    2618:	02ab0533          	mul	a0,s6,a0
    261c:	c3043603          	ld	a2,-976(s0)
    2620:	00c50633          	add	a2,a0,a2
    2624:	c2c43823          	sd	a2,-976(s0)
    2628:	02db0533          	mul	a0,s6,a3
    262c:	c3843603          	ld	a2,-968(s0)
    2630:	00c50633          	add	a2,a0,a2
    2634:	c2c43c23          	sd	a2,-968(s0)
    2638:	ee843f83          	ld	t6,-280(s0)
    263c:	03fb0533          	mul	a0,s6,t6
    2640:	c4043603          	ld	a2,-960(s0)
    2644:	00c50633          	add	a2,a0,a2
    2648:	c4c43023          	sd	a2,-960(s0)
    264c:	f5843503          	ld	a0,-168(s0)
    2650:	02ab0533          	mul	a0,s6,a0
    2654:	c4843603          	ld	a2,-952(s0)
    2658:	00c50633          	add	a2,a0,a2
    265c:	c4c43423          	sd	a2,-952(s0)
    2660:	eb043803          	ld	a6,-336(s0)
    2664:	030b0533          	mul	a0,s6,a6
    2668:	c5043603          	ld	a2,-944(s0)
    266c:	00c50633          	add	a2,a0,a2
    2670:	c4c43823          	sd	a2,-944(s0)
    2674:	eb843383          	ld	t2,-328(s0)
    2678:	027b0533          	mul	a0,s6,t2
    267c:	c5843603          	ld	a2,-936(s0)
    2680:	00c50633          	add	a2,a0,a2
    2684:	c4c43c23          	sd	a2,-936(s0)
    2688:	ec043483          	ld	s1,-320(s0)
    268c:	029b0533          	mul	a0,s6,s1
    2690:	c6043603          	ld	a2,-928(s0)
    2694:	00c50633          	add	a2,a0,a2
    2698:	c6c43023          	sd	a2,-928(s0)
    269c:	03eb0533          	mul	a0,s6,t5
    26a0:	c6843603          	ld	a2,-920(s0)
    26a4:	00c50633          	add	a2,a0,a2
    26a8:	c6c43423          	sd	a2,-920(s0)
    26ac:	034b0533          	mul	a0,s6,s4
    26b0:	c7043603          	ld	a2,-912(s0)
    26b4:	00c50633          	add	a2,a0,a2
    26b8:	c6c43823          	sd	a2,-912(s0)
    26bc:	dc008503          	lb	a0,-576(ra)
    26c0:	039b0db3          	mul	s11,s6,s9
    26c4:	c7843603          	ld	a2,-904(s0)
    26c8:	00cd8633          	add	a2,s11,a2
    26cc:	c6c43c23          	sd	a2,-904(s0)
    26d0:	f3843603          	ld	a2,-200(s0)
    26d4:	02cb0b33          	mul	s6,s6,a2
    26d8:	c8043603          	ld	a2,-896(s0)
    26dc:	00cb0633          	add	a2,s6,a2
    26e0:	c8c43023          	sd	a2,-896(s0)
    26e4:	03d50b33          	mul	s6,a0,t4
    26e8:	ca043603          	ld	a2,-864(s0)
    26ec:	00cb0633          	add	a2,s6,a2
    26f0:	cac43023          	sd	a2,-864(s0)
    26f4:	03550b33          	mul	s6,a0,s5
    26f8:	c9843603          	ld	a2,-872(s0)
    26fc:	00cb0633          	add	a2,s6,a2
    2700:	c8c43c23          	sd	a2,-872(s0)
    2704:	f5043603          	ld	a2,-176(s0)
    2708:	02c50b33          	mul	s6,a0,a2
    270c:	c9043603          	ld	a2,-880(s0)
    2710:	00cb0633          	add	a2,s6,a2
    2714:	c8c43823          	sd	a2,-880(s0)
    2718:	f4843603          	ld	a2,-184(s0)
    271c:	02c50b33          	mul	s6,a0,a2
    2720:	c8843603          	ld	a2,-888(s0)
    2724:	00cb0633          	add	a2,s6,a2
    2728:	c8c43423          	sd	a2,-888(s0)
    272c:	f4043603          	ld	a2,-192(s0)
    2730:	02c50b33          	mul	s6,a0,a2
    2734:	ca843603          	ld	a2,-856(s0)
    2738:	00cb0633          	add	a2,s6,a2
    273c:	cac43423          	sd	a2,-856(s0)
    2740:	03a50b33          	mul	s6,a0,s10
    2744:	cb043603          	ld	a2,-848(s0)
    2748:	00cb0633          	add	a2,s6,a2
    274c:	cac43823          	sd	a2,-848(s0)
    2750:	02f50b33          	mul	s6,a0,a5
    2754:	cb843603          	ld	a2,-840(s0)
    2758:	00cb0633          	add	a2,s6,a2
    275c:	cac43c23          	sd	a2,-840(s0)
    2760:	ed043083          	ld	ra,-304(s0)
    2764:	02150b33          	mul	s6,a0,ra
    2768:	cc043603          	ld	a2,-832(s0)
    276c:	00cb0633          	add	a2,s6,a2
    2770:	ccc43023          	sd	a2,-832(s0)
    2774:	00070d13          	mv	s10,a4
    2778:	02e50b33          	mul	s6,a0,a4
    277c:	cc843603          	ld	a2,-824(s0)
    2780:	00cb0633          	add	a2,s6,a2
    2784:	ccc43423          	sd	a2,-824(s0)
    2788:	03250b33          	mul	s6,a0,s2
    278c:	cd043603          	ld	a2,-816(s0)
    2790:	00cb0633          	add	a2,s6,a2
    2794:	ccc43823          	sd	a2,-816(s0)
    2798:	03850b33          	mul	s6,a0,s8
    279c:	cd843603          	ld	a2,-808(s0)
    27a0:	00cb0633          	add	a2,s6,a2
    27a4:	ccc43c23          	sd	a2,-808(s0)
    27a8:	e7843a03          	ld	s4,-392(s0)
    27ac:	03450b33          	mul	s6,a0,s4
    27b0:	ce043603          	ld	a2,-800(s0)
    27b4:	00cb0633          	add	a2,s6,a2
    27b8:	cec43023          	sd	a2,-800(s0)
    27bc:	ea843303          	ld	t1,-344(s0)
    27c0:	02650b33          	mul	s6,a0,t1
    27c4:	ce843603          	ld	a2,-792(s0)
    27c8:	00cb0633          	add	a2,s6,a2
    27cc:	cec43423          	sd	a2,-792(s0)
    27d0:	000b8893          	mv	a7,s7
    27d4:	03750b33          	mul	s6,a0,s7
    27d8:	cf043603          	ld	a2,-784(s0)
    27dc:	00cb0633          	add	a2,s6,a2
    27e0:	cec43823          	sd	a2,-784(s0)
    27e4:	ec843783          	ld	a5,-312(s0)
    27e8:	02f50b33          	mul	s6,a0,a5
    27ec:	cf843603          	ld	a2,-776(s0)
    27f0:	00cb0633          	add	a2,s6,a2
    27f4:	cec43c23          	sd	a2,-776(s0)
    27f8:	e7043703          	ld	a4,-400(s0)
    27fc:	02e50b33          	mul	s6,a0,a4
    2800:	d0043603          	ld	a2,-768(s0)
    2804:	00cb0633          	add	a2,s6,a2
    2808:	d0c43023          	sd	a2,-768(s0)
    280c:	03c50b33          	mul	s6,a0,t3
    2810:	d0843603          	ld	a2,-760(s0)
    2814:	00cb0633          	add	a2,s6,a2
    2818:	d0c43423          	sd	a2,-760(s0)
    281c:	ed843683          	ld	a3,-296(s0)
    2820:	02d50b33          	mul	s6,a0,a3
    2824:	d1043603          	ld	a2,-752(s0)
    2828:	00cb0633          	add	a2,s6,a2
    282c:	d0c43823          	sd	a2,-752(s0)
    2830:	02b50b33          	mul	s6,a0,a1
    2834:	00058e13          	mv	t3,a1
    2838:	d1843603          	ld	a2,-744(s0)
    283c:	00cb0633          	add	a2,s6,a2
    2840:	d0c43c23          	sd	a2,-744(s0)
    2844:	03350b33          	mul	s6,a0,s3
    2848:	00098b93          	mv	s7,s3
    284c:	d2043603          	ld	a2,-736(s0)
    2850:	00cb0633          	add	a2,s6,a2
    2854:	d2c43023          	sd	a2,-736(s0)
    2858:	02550b33          	mul	s6,a0,t0
    285c:	d2843603          	ld	a2,-728(s0)
    2860:	00cb0633          	add	a2,s6,a2
    2864:	d2c43423          	sd	a2,-728(s0)
    2868:	f7843e83          	ld	t4,-136(s0)
    286c:	03d50b33          	mul	s6,a0,t4
    2870:	d3043603          	ld	a2,-720(s0)
    2874:	00cb0633          	add	a2,s6,a2
    2878:	d2c43823          	sd	a2,-720(s0)
    287c:	f6043f03          	ld	t5,-160(s0)
    2880:	03e50b33          	mul	s6,a0,t5
    2884:	d3843603          	ld	a2,-712(s0)
    2888:	00cb0633          	add	a2,s6,a2
    288c:	d2c43c23          	sd	a2,-712(s0)
    2890:	03f50b33          	mul	s6,a0,t6
    2894:	d4043603          	ld	a2,-704(s0)
    2898:	00cb0633          	add	a2,s6,a2
    289c:	d4c43023          	sd	a2,-704(s0)
    28a0:	f5843583          	ld	a1,-168(s0)
    28a4:	02b50b33          	mul	s6,a0,a1
    28a8:	d4843603          	ld	a2,-696(s0)
    28ac:	00cb0633          	add	a2,s6,a2
    28b0:	d4c43423          	sd	a2,-696(s0)
    28b4:	03050b33          	mul	s6,a0,a6
    28b8:	d5043603          	ld	a2,-688(s0)
    28bc:	00cb0633          	add	a2,s6,a2
    28c0:	d4c43823          	sd	a2,-688(s0)
    28c4:	02750b33          	mul	s6,a0,t2
    28c8:	d5843603          	ld	a2,-680(s0)
    28cc:	00cb0633          	add	a2,s6,a2
    28d0:	d4c43c23          	sd	a2,-680(s0)
    28d4:	02950b33          	mul	s6,a0,s1
    28d8:	d6043603          	ld	a2,-672(s0)
    28dc:	00cb0633          	add	a2,s6,a2
    28e0:	d6c43023          	sd	a2,-672(s0)
    28e4:	e6043903          	ld	s2,-416(s0)
    28e8:	03250b33          	mul	s6,a0,s2
    28ec:	d6843603          	ld	a2,-664(s0)
    28f0:	00cb0633          	add	a2,s6,a2
    28f4:	d6c43423          	sd	a2,-664(s0)
    28f8:	e9043a83          	ld	s5,-368(s0)
    28fc:	03550b33          	mul	s6,a0,s5
    2900:	d7043603          	ld	a2,-656(s0)
    2904:	00cb0633          	add	a2,s6,a2
    2908:	d6c43823          	sd	a2,-656(s0)
    290c:	f7043603          	ld	a2,-144(s0)
    2910:	00060b03          	lb	s6,0(a2)
    2914:	03950db3          	mul	s11,a0,s9
    2918:	d7843603          	ld	a2,-648(s0)
    291c:	00cd8633          	add	a2,s11,a2
    2920:	d6c43c23          	sd	a2,-648(s0)
    2924:	f3843983          	ld	s3,-200(s0)
    2928:	03350533          	mul	a0,a0,s3
    292c:	d8043603          	ld	a2,-640(s0)
    2930:	00c50633          	add	a2,a0,a2
    2934:	d8c43023          	sd	a2,-640(s0)
    2938:	033b0533          	mul	a0,s6,s3
    293c:	f2a43c23          	sd	a0,-200(s0)
    2940:	039b0533          	mul	a0,s6,s9
    2944:	00001637          	lui	a2,0x1
    2948:	40c40633          	sub	a2,s0,a2
    294c:	66a63823          	sd	a0,1648(a2) # 1670 <.LBB87_5+0x1ec>
    2950:	035b0533          	mul	a0,s6,s5
    2954:	e8a43823          	sd	a0,-368(s0)
    2958:	032b0533          	mul	a0,s6,s2
    295c:	e6a43023          	sd	a0,-416(s0)
    2960:	029b0533          	mul	a0,s6,s1
    2964:	00001637          	lui	a2,0x1
    2968:	40c40633          	sub	a2,s0,a2
    296c:	66a63023          	sd	a0,1632(a2) # 1660 <.LBB87_5+0x1dc>
    2970:	027b0533          	mul	a0,s6,t2
    2974:	eca43023          	sd	a0,-320(s0)
    2978:	030b0533          	mul	a0,s6,a6
    297c:	eaa43c23          	sd	a0,-328(s0)
    2980:	02bb0533          	mul	a0,s6,a1
    2984:	f4a43c23          	sd	a0,-168(s0)
    2988:	03fb0533          	mul	a0,s6,t6
    298c:	eea43423          	sd	a0,-280(s0)
    2990:	03eb09b3          	mul	s3,s6,t5
    2994:	03db0933          	mul	s2,s6,t4
    2998:	025b04b3          	mul	s1,s6,t0
    299c:	037b0fb3          	mul	t6,s6,s7
    29a0:	03cb0f33          	mul	t5,s6,t3
    29a4:	02db02b3          	mul	t0,s6,a3
    29a8:	ef843503          	ld	a0,-264(s0)
    29ac:	02ab0833          	mul	a6,s6,a0
    29b0:	02eb03b3          	mul	t2,s6,a4
    29b4:	02fb0e33          	mul	t3,s6,a5
    29b8:	031b0eb3          	mul	t4,s6,a7
    29bc:	026b0ab3          	mul	s5,s6,t1
    29c0:	034b0bb3          	mul	s7,s6,s4
    29c4:	038b0c33          	mul	s8,s6,s8
    29c8:	f8043503          	ld	a0,-128(s0)
    29cc:	02ab0cb3          	mul	s9,s6,a0
    29d0:	03ab0d33          	mul	s10,s6,s10
    29d4:	021b0db3          	mul	s11,s6,ra
    29d8:	ea043503          	ld	a0,-352(s0)
    29dc:	02ab0733          	mul	a4,s6,a0
    29e0:	f3043503          	ld	a0,-208(s0)
    29e4:	02ab00b3          	mul	ra,s6,a0
    29e8:	f4043503          	ld	a0,-192(s0)
    29ec:	02ab06b3          	mul	a3,s6,a0
    29f0:	f4843503          	ld	a0,-184(s0)
    29f4:	02ab0633          	mul	a2,s6,a0
    29f8:	f5043503          	ld	a0,-176(s0)
    29fc:	02ab05b3          	mul	a1,s6,a0
    2a00:	e9843503          	ld	a0,-360(s0)
    2a04:	02ab0533          	mul	a0,s6,a0
    2a08:	ee043783          	ld	a5,-288(s0)
    2a0c:	02fb0b33          	mul	s6,s6,a5
    2a10:	da043783          	ld	a5,-608(s0)
    2a14:	00fb07b3          	add	a5,s6,a5
    2a18:	daf43023          	sd	a5,-608(s0)
    2a1c:	e1043b03          	ld	s6,-496(s0)
    2a20:	d9843783          	ld	a5,-616(s0)
    2a24:	00f507b3          	add	a5,a0,a5
    2a28:	d8f43c23          	sd	a5,-616(s0)
    2a2c:	d9043503          	ld	a0,-624(s0)
    2a30:	00a58533          	add	a0,a1,a0
    2a34:	d8a43823          	sd	a0,-624(s0)
    2a38:	d8843503          	ld	a0,-632(s0)
    2a3c:	00a60533          	add	a0,a2,a0
    2a40:	d8a43423          	sd	a0,-632(s0)
    2a44:	da843503          	ld	a0,-600(s0)
    2a48:	00a68533          	add	a0,a3,a0
    2a4c:	daa43423          	sd	a0,-600(s0)
    2a50:	db043503          	ld	a0,-592(s0)
    2a54:	00a08533          	add	a0,ra,a0
    2a58:	daa43823          	sd	a0,-592(s0)
    2a5c:	de043083          	ld	ra,-544(s0)
    2a60:	db843503          	ld	a0,-584(s0)
    2a64:	00a70533          	add	a0,a4,a0
    2a68:	daa43c23          	sd	a0,-584(s0)
    2a6c:	dc043503          	ld	a0,-576(s0)
    2a70:	00ad8533          	add	a0,s11,a0
    2a74:	dca43023          	sd	a0,-576(s0)
    2a78:	de843d83          	ld	s11,-536(s0)
    2a7c:	dc843503          	ld	a0,-568(s0)
    2a80:	00ad0533          	add	a0,s10,a0
    2a84:	dca43423          	sd	a0,-568(s0)
    2a88:	df043d03          	ld	s10,-528(s0)
    2a8c:	dd043503          	ld	a0,-560(s0)
    2a90:	00ac8533          	add	a0,s9,a0
    2a94:	dca43823          	sd	a0,-560(s0)
    2a98:	df843c83          	ld	s9,-520(s0)
    2a9c:	dd843503          	ld	a0,-552(s0)
    2aa0:	00ac0533          	add	a0,s8,a0
    2aa4:	dca43c23          	sd	a0,-552(s0)
    2aa8:	e0043c03          	ld	s8,-512(s0)
    2aac:	001b80b3          	add	ra,s7,ra
    2ab0:	e0843b83          	ld	s7,-504(s0)
    2ab4:	01ba8db3          	add	s11,s5,s11
    2ab8:	e1843a83          	ld	s5,-488(s0)
    2abc:	01ae8d33          	add	s10,t4,s10
    2ac0:	e2043e83          	ld	t4,-480(s0)
    2ac4:	019e0cb3          	add	s9,t3,s9
    2ac8:	e2843e03          	ld	t3,-472(s0)
    2acc:	01838c33          	add	s8,t2,s8
    2ad0:	e3043383          	ld	t2,-464(s0)
    2ad4:	01780bb3          	add	s7,a6,s7
    2ad8:	01628b33          	add	s6,t0,s6
    2adc:	015f0ab3          	add	s5,t5,s5
    2ae0:	e3843303          	ld	t1,-456(s0)
    2ae4:	f0043503          	ld	a0,-256(s0)
    2ae8:	00af8533          	add	a0,t6,a0
    2aec:	f0a43023          	sd	a0,-256(s0)
    2af0:	f0043f03          	ld	t5,-256(s0)
    2af4:	f0843503          	ld	a0,-248(s0)
    2af8:	00a48533          	add	a0,s1,a0
    2afc:	f6843f83          	ld	t6,-152(s0)
    2b00:	f0a43423          	sd	a0,-248(s0)
    2b04:	f0843703          	ld	a4,-248(s0)
    2b08:	f1043503          	ld	a0,-240(s0)
    2b0c:	00a90533          	add	a0,s2,a0
    2b10:	f8843483          	ld	s1,-120(s0)
    2b14:	f0a43823          	sd	a0,-240(s0)
    2b18:	f1043683          	ld	a3,-240(s0)
    2b1c:	e4843283          	ld	t0,-440(s0)
    2b20:	e5043883          	ld	a7,-432(s0)
    2b24:	f1843503          	ld	a0,-232(s0)
    2b28:	00a98533          	add	a0,s3,a0
    2b2c:	f0a43c23          	sd	a0,-232(s0)
    2b30:	f1843603          	ld	a2,-232(s0)
    2b34:	f2043503          	ld	a0,-224(s0)
    2b38:	ee843583          	ld	a1,-280(s0)
    2b3c:	00a58533          	add	a0,a1,a0
    2b40:	f2a43023          	sd	a0,-224(s0)
    2b44:	f2043583          	ld	a1,-224(s0)
    2b48:	f2843503          	ld	a0,-216(s0)
    2b4c:	f5843783          	ld	a5,-168(s0)
    2b50:	00a78533          	add	a0,a5,a0
    2b54:	f2a43423          	sd	a0,-216(s0)
    2b58:	f2843503          	ld	a0,-216(s0)
    2b5c:	eb843783          	ld	a5,-328(s0)
    2b60:	01d78eb3          	add	t4,a5,t4
    2b64:	e4043803          	ld	a6,-448(s0)
    2b68:	ec043783          	ld	a5,-320(s0)
    2b6c:	01c78e33          	add	t3,a5,t3
    2b70:	000017b7          	lui	a5,0x1
    2b74:	40f407b3          	sub	a5,s0,a5
    2b78:	6807b783          	ld	a5,1664(a5) # 1680 <.LBB87_5+0x1fc>
    2b7c:	00001937          	lui	s2,0x1
    2b80:	41240933          	sub	s2,s0,s2
    2b84:	66093903          	ld	s2,1632(s2) # 1660 <.LBB87_5+0x1dc>
    2b88:	007903b3          	add	t2,s2,t2
    2b8c:	e6043903          	ld	s2,-416(s0)
    2b90:	00690333          	add	t1,s2,t1
    2b94:	e9043903          	ld	s2,-368(s0)
    2b98:	01090833          	add	a6,s2,a6
    2b9c:	00001937          	lui	s2,0x1
    2ba0:	41240933          	sub	s2,s0,s2
    2ba4:	67093903          	ld	s2,1648(s2) # 1670 <.LBB87_5+0x1ec>
    2ba8:	005902b3          	add	t0,s2,t0
    2bac:	f3843903          	ld	s2,-200(s0)
    2bb0:	011908b3          	add	a7,s2,a7
    2bb4:	0a048493          	addi	s1,s1,160
    2bb8:	f6078793          	addi	a5,a5,-160
    2bbc:	001f8f93          	addi	t6,t6,1
    2bc0:	f7043903          	ld	s2,-144(s0)
    2bc4:	00190913          	addi	s2,s2,1
    2bc8:	f7243823          	sd	s2,-144(s0)
    2bcc:	00078463          	beqz	a5,2bd4 <.LBB87_6>
    2bd0:	8b5fe06f          	j	1484 <.LBB87_5>

0000000000002bd4 <.LBB87_6>:
    2bd4:	00001537          	lui	a0,0x1
    2bd8:	40a40533          	sub	a0,s0,a0
    2bdc:	6a853a03          	ld	s4,1704(a0) # 16a8 <.LBB87_5+0x224>
    2be0:	00001537          	lui	a0,0x1
    2be4:	40a40533          	sub	a0,s0,a0
    2be8:	6a053983          	ld	s3,1696(a0) # 16a0 <.LBB87_5+0x21c>
    2bec:	00001537          	lui	a0,0x1
    2bf0:	40a40533          	sub	a0,s0,a0
    2bf4:	69853903          	ld	s2,1688(a0) # 1698 <.LBB87_5+0x214>
    2bf8:	00001537          	lui	a0,0x1
    2bfc:	40a40533          	sub	a0,s0,a0
    2c00:	69053483          	ld	s1,1680(a0) # 1690 <.LBB87_5+0x20c>
    2c04:	00001537          	lui	a0,0x1
    2c08:	40a40533          	sub	a0,s0,a0
    2c0c:	68853f83          	ld	t6,1672(a0) # 1688 <.LBB87_5+0x204>
    2c10:	00001537          	lui	a0,0x1
    2c14:	40a40533          	sub	a0,s0,a0
    2c18:	65053503          	ld	a0,1616(a0) # 1650 <.LBB87_5+0x1cc>
    2c1c:	00251513          	slli	a0,a0,0x2
    2c20:	000015b7          	lui	a1,0x1
    2c24:	40b405b3          	sub	a1,s0,a1
    2c28:	b685b603          	ld	a2,-1176(a1) # b68 <.LBB87_3+0x8f8>
    2c2c:	00a60633          	add	a2,a2,a0
    2c30:	000015b7          	lui	a1,0x1
    2c34:	40b405b3          	sub	a1,s0,a1
    2c38:	6485b583          	ld	a1,1608(a1) # 1648 <.LBB87_5+0x1c4>
    2c3c:	0005a583          	lw	a1,0(a1)
    2c40:	000016b7          	lui	a3,0x1
    2c44:	40d406b3          	sub	a3,s0,a3
    2c48:	b606b683          	ld	a3,-1184(a3) # b60 <.LBB87_3+0x8f0>
    2c4c:	00a68533          	add	a0,a3,a0
    2c50:	00c52683          	lw	a3,12(a0)
    2c54:	00c62783          	lw	a5,12(a2)
    2c58:	00c00713          	li	a4,12
    2c5c:	02e585b3          	mul	a1,a1,a4
    2c60:	00769713          	slli	a4,a3,0x7
    2c64:	eaf43423          	sd	a5,-344(s0)
    2c68:	000016b7          	lui	a3,0x1
    2c6c:	40d406b3          	sub	a3,s0,a3
    2c70:	6b06b683          	ld	a3,1712(a3) # 16b0 <.LBB87_5+0x22c>
    2c74:	00f686b3          	add	a3,a3,a5
    2c78:	eae43023          	sd	a4,-352(s0)
    2c7c:	00e686b3          	add	a3,a3,a4
    2c80:	fff287b7          	lui	a5,0xfff28
    2c84:	40f5873b          	subw	a4,a1,a5
    2c88:	40e6873b          	subw	a4,a3,a4
    2c8c:	400006b7          	lui	a3,0x40000
    2c90:	00001f37          	lui	t5,0x1
    2c94:	41e40f33          	sub	t5,s0,t5
    2c98:	68df3023          	sd	a3,1664(t5) # 1680 <.LBB87_5+0x1fc>
    2c9c:	00001f37          	lui	t5,0x1
    2ca0:	41e40f33          	sub	t5,s0,t5
    2ca4:	66ef3c23          	sd	a4,1656(t5) # 1678 <.LBB87_5+0x1f4>
    2ca8:	00075463          	bgez	a4,2cb0 <.LBB87_8>
    2cac:	c00006b7          	lui	a3,0xc0000

0000000000002cb0 <.LBB87_8>:
    2cb0:	00001737          	lui	a4,0x1
    2cb4:	40e40733          	sub	a4,s0,a4
    2cb8:	66d73823          	sd	a3,1648(a4) # 1670 <.LBB87_5+0x1ec>
    2cbc:	00852683          	lw	a3,8(a0)
    2cc0:	00862703          	lw	a4,8(a2)
    2cc4:	00769f13          	slli	t5,a3,0x7
    2cc8:	e8e43c23          	sd	a4,-360(s0)
    2ccc:	00ea06b3          	add	a3,s4,a4
    2cd0:	e9e43823          	sd	t5,-368(s0)
    2cd4:	01e686b3          	add	a3,a3,t5
    2cd8:	40f5873b          	subw	a4,a1,a5
    2cdc:	40e686bb          	subw	a3,a3,a4
    2ce0:	40000737          	lui	a4,0x40000
    2ce4:	00001f37          	lui	t5,0x1
    2ce8:	41e40f33          	sub	t5,s0,t5
    2cec:	66df3423          	sd	a3,1640(t5) # 1668 <.LBB87_5+0x1e4>
    2cf0:	00001f37          	lui	t5,0x1
    2cf4:	41e40f33          	sub	t5,s0,t5
    2cf8:	6b8f3a03          	ld	s4,1720(t5) # 16b8 <.LBB87_5+0x234>
    2cfc:	0006d463          	bgez	a3,2d04 <.LBB87_10>
    2d00:	c0000737          	lui	a4,0xc0000

0000000000002d04 <.LBB87_10>:
    2d04:	000016b7          	lui	a3,0x1
    2d08:	40d406b3          	sub	a3,s0,a3
    2d0c:	66e6b023          	sd	a4,1632(a3) # 1660 <.LBB87_5+0x1dc>
    2d10:	00452683          	lw	a3,4(a0)
    2d14:	00462703          	lw	a4,4(a2)
    2d18:	00769f13          	slli	t5,a3,0x7
    2d1c:	e8e43423          	sd	a4,-376(s0)
    2d20:	000016b7          	lui	a3,0x1
    2d24:	40d406b3          	sub	a3,s0,a3
    2d28:	6c06b683          	ld	a3,1728(a3) # 16c0 <.LBB87_5+0x23c>
    2d2c:	00e686b3          	add	a3,a3,a4
    2d30:	e9e43023          	sd	t5,-384(s0)
    2d34:	01e686b3          	add	a3,a3,t5
    2d38:	40f5873b          	subw	a4,a1,a5
    2d3c:	40e686bb          	subw	a3,a3,a4
    2d40:	40000737          	lui	a4,0x40000
    2d44:	00001f37          	lui	t5,0x1
    2d48:	41e40f33          	sub	t5,s0,t5
    2d4c:	62df3c23          	sd	a3,1592(t5) # 1638 <.LBB87_5+0x1b4>
    2d50:	0006d463          	bgez	a3,2d58 <.LBB87_12>
    2d54:	c0000737          	lui	a4,0xc0000

0000000000002d58 <.LBB87_12>:
    2d58:	000016b7          	lui	a3,0x1
    2d5c:	40d406b3          	sub	a3,s0,a3
    2d60:	62e6b823          	sd	a4,1584(a3) # 1630 <.LBB87_5+0x1ac>
    2d64:	00052683          	lw	a3,0(a0)
    2d68:	00062703          	lw	a4,0(a2)
    2d6c:	00769f13          	slli	t5,a3,0x7
    2d70:	e6e43c23          	sd	a4,-392(s0)
    2d74:	000016b7          	lui	a3,0x1
    2d78:	40d406b3          	sub	a3,s0,a3
    2d7c:	6c86b683          	ld	a3,1736(a3) # 16c8 <.LBB87_5+0x244>
    2d80:	00e686b3          	add	a3,a3,a4
    2d84:	e7e43823          	sd	t5,-400(s0)
    2d88:	01e686b3          	add	a3,a3,t5
    2d8c:	40f5873b          	subw	a4,a1,a5
    2d90:	40e686bb          	subw	a3,a3,a4
    2d94:	40000737          	lui	a4,0x40000
    2d98:	00001f37          	lui	t5,0x1
    2d9c:	41e40f33          	sub	t5,s0,t5
    2da0:	62df3423          	sd	a3,1576(t5) # 1628 <.LBB87_5+0x1a4>
    2da4:	0006d463          	bgez	a3,2dac <.LBB87_14>
    2da8:	c0000737          	lui	a4,0xc0000

0000000000002dac <.LBB87_14>:
    2dac:	000016b7          	lui	a3,0x1
    2db0:	40d406b3          	sub	a3,s0,a3
    2db4:	62e6b023          	sd	a4,1568(a3) # 1620 <.LBB87_5+0x19c>
    2db8:	01052683          	lw	a3,16(a0)
    2dbc:	01062703          	lw	a4,16(a2)
    2dc0:	00769f13          	slli	t5,a3,0x7
    2dc4:	e6e43423          	sd	a4,-408(s0)
    2dc8:	00ea06b3          	add	a3,s4,a4
    2dcc:	e7e43023          	sd	t5,-416(s0)
    2dd0:	01e686b3          	add	a3,a3,t5
    2dd4:	40f5873b          	subw	a4,a1,a5
    2dd8:	40e686bb          	subw	a3,a3,a4
    2ddc:	40000737          	lui	a4,0x40000
    2de0:	00001f37          	lui	t5,0x1
    2de4:	41e40f33          	sub	t5,s0,t5
    2de8:	60df3c23          	sd	a3,1560(t5) # 1618 <.LBB87_5+0x194>
    2dec:	0006d463          	bgez	a3,2df4 <.LBB87_16>
    2df0:	c0000737          	lui	a4,0xc0000

0000000000002df4 <.LBB87_16>:
    2df4:	000016b7          	lui	a3,0x1
    2df8:	40d406b3          	sub	a3,s0,a3
    2dfc:	60e6b823          	sd	a4,1552(a3) # 1610 <.LBB87_5+0x18c>
    2e00:	01452683          	lw	a3,20(a0)
    2e04:	01462703          	lw	a4,20(a2)
    2e08:	00769f13          	slli	t5,a3,0x7
    2e0c:	000016b7          	lui	a3,0x1
    2e10:	40d406b3          	sub	a3,s0,a3
    2e14:	6ce6b423          	sd	a4,1736(a3) # 16c8 <.LBB87_5+0x244>
    2e18:	00e986b3          	add	a3,s3,a4
    2e1c:	00001737          	lui	a4,0x1
    2e20:	40e40733          	sub	a4,s0,a4
    2e24:	6de73023          	sd	t5,1728(a4) # 16c0 <.LBB87_5+0x23c>
    2e28:	01e686b3          	add	a3,a3,t5
    2e2c:	40f5873b          	subw	a4,a1,a5
    2e30:	40e686bb          	subw	a3,a3,a4
    2e34:	40000737          	lui	a4,0x40000
    2e38:	00001f37          	lui	t5,0x1
    2e3c:	41e40f33          	sub	t5,s0,t5
    2e40:	60df3423          	sd	a3,1544(t5) # 1608 <.LBB87_5+0x184>
    2e44:	0006d463          	bgez	a3,2e4c <.LBB87_18>
    2e48:	c0000737          	lui	a4,0xc0000

0000000000002e4c <.LBB87_18>:
    2e4c:	000016b7          	lui	a3,0x1
    2e50:	40d406b3          	sub	a3,s0,a3
    2e54:	60e6b023          	sd	a4,1536(a3) # 1600 <.LBB87_5+0x17c>
    2e58:	01852683          	lw	a3,24(a0)
    2e5c:	01862703          	lw	a4,24(a2)
    2e60:	00769f13          	slli	t5,a3,0x7
    2e64:	000016b7          	lui	a3,0x1
    2e68:	40d406b3          	sub	a3,s0,a3
    2e6c:	6ae6bc23          	sd	a4,1720(a3) # 16b8 <.LBB87_5+0x234>
    2e70:	00e906b3          	add	a3,s2,a4
    2e74:	00001737          	lui	a4,0x1
    2e78:	40e40733          	sub	a4,s0,a4
    2e7c:	6be73823          	sd	t5,1712(a4) # 16b0 <.LBB87_5+0x22c>
    2e80:	01e686b3          	add	a3,a3,t5
    2e84:	40f5873b          	subw	a4,a1,a5
    2e88:	40e686bb          	subw	a3,a3,a4
    2e8c:	40000737          	lui	a4,0x40000
    2e90:	00001f37          	lui	t5,0x1
    2e94:	41e40f33          	sub	t5,s0,t5
    2e98:	5edf3c23          	sd	a3,1528(t5) # 15f8 <.LBB87_5+0x174>
    2e9c:	0006d463          	bgez	a3,2ea4 <.LBB87_20>
    2ea0:	c0000737          	lui	a4,0xc0000

0000000000002ea4 <.LBB87_20>:
    2ea4:	000016b7          	lui	a3,0x1
    2ea8:	40d406b3          	sub	a3,s0,a3
    2eac:	5ee6b823          	sd	a4,1520(a3) # 15f0 <.LBB87_5+0x16c>
    2eb0:	e5043023          	sd	a6,-448(s0)
    2eb4:	01c52683          	lw	a3,28(a0)
    2eb8:	01c62703          	lw	a4,28(a2)
    2ebc:	00769813          	slli	a6,a3,0x7
    2ec0:	000016b7          	lui	a3,0x1
    2ec4:	40d406b3          	sub	a3,s0,a3
    2ec8:	6ae6b423          	sd	a4,1704(a3) # 16a8 <.LBB87_5+0x224>
    2ecc:	00e486b3          	add	a3,s1,a4
    2ed0:	00001737          	lui	a4,0x1
    2ed4:	40e40733          	sub	a4,s0,a4
    2ed8:	6b073023          	sd	a6,1696(a4) # 16a0 <.LBB87_5+0x21c>
    2edc:	010686b3          	add	a3,a3,a6
    2ee0:	40f5873b          	subw	a4,a1,a5
    2ee4:	40e686bb          	subw	a3,a3,a4
    2ee8:	40000737          	lui	a4,0x40000
    2eec:	00001837          	lui	a6,0x1
    2ef0:	41040833          	sub	a6,s0,a6
    2ef4:	5ed83423          	sd	a3,1512(a6) # 15e8 <.LBB87_5+0x164>
    2ef8:	0006d463          	bgez	a3,2f00 <.LBB87_22>
    2efc:	c0000737          	lui	a4,0xc0000

0000000000002f00 <.LBB87_22>:
    2f00:	000016b7          	lui	a3,0x1
    2f04:	40d406b3          	sub	a3,s0,a3
    2f08:	5ee6b023          	sd	a4,1504(a3) # 15e0 <.LBB87_5+0x15c>
    2f0c:	de143023          	sd	ra,-544(s0)
    2f10:	dfb43423          	sd	s11,-536(s0)
    2f14:	dfa43823          	sd	s10,-528(s0)
    2f18:	df943c23          	sd	s9,-520(s0)
    2f1c:	e1843023          	sd	s8,-512(s0)
    2f20:	000b8f13          	mv	t5,s7
    2f24:	e1643823          	sd	s6,-496(s0)
    2f28:	e1543c23          	sd	s5,-488(s0)
    2f2c:	e3d43023          	sd	t4,-480(s0)
    2f30:	e3c43423          	sd	t3,-472(s0)
    2f34:	e2743823          	sd	t2,-464(s0)
    2f38:	e2643c23          	sd	t1,-456(s0)
    2f3c:	e4543423          	sd	t0,-440(s0)
    2f40:	e5143823          	sd	a7,-432(s0)
    2f44:	02052683          	lw	a3,32(a0)
    2f48:	02062703          	lw	a4,32(a2)
    2f4c:	00769813          	slli	a6,a3,0x7
    2f50:	000016b7          	lui	a3,0x1
    2f54:	40d406b3          	sub	a3,s0,a3
    2f58:	68e6bc23          	sd	a4,1688(a3) # 1698 <.LBB87_5+0x214>
    2f5c:	00ef86b3          	add	a3,t6,a4
    2f60:	00001737          	lui	a4,0x1
    2f64:	40e40733          	sub	a4,s0,a4
    2f68:	69073823          	sd	a6,1680(a4) # 1690 <.LBB87_5+0x20c>
    2f6c:	010686b3          	add	a3,a3,a6
    2f70:	fff28837          	lui	a6,0xfff28
    2f74:	40f5873b          	subw	a4,a1,a5
    2f78:	40e686bb          	subw	a3,a3,a4
    2f7c:	40000737          	lui	a4,0x40000
    2f80:	000017b7          	lui	a5,0x1
    2f84:	40f407b3          	sub	a5,s0,a5
    2f88:	5cd7bc23          	sd	a3,1496(a5) # 15d8 <.LBB87_5+0x154>
    2f8c:	0006d463          	bgez	a3,2f94 <.LBB87_24>
    2f90:	c0000737          	lui	a4,0xc0000

0000000000002f94 <.LBB87_24>:
    2f94:	000016b7          	lui	a3,0x1
    2f98:	40d406b3          	sub	a3,s0,a3
    2f9c:	5ce6b823          	sd	a4,1488(a3) # 15d0 <.LBB87_5+0x14c>
    2fa0:	07c62683          	lw	a3,124(a2)
    2fa4:	f8d43423          	sd	a3,-120(s0)
    2fa8:	07862683          	lw	a3,120(a2)
    2fac:	f8d43023          	sd	a3,-128(s0)
    2fb0:	07462683          	lw	a3,116(a2)
    2fb4:	f6d43c23          	sd	a3,-136(s0)
    2fb8:	07062683          	lw	a3,112(a2)
    2fbc:	f6d43823          	sd	a3,-144(s0)
    2fc0:	06c62683          	lw	a3,108(a2)
    2fc4:	f6d43423          	sd	a3,-152(s0)
    2fc8:	06862683          	lw	a3,104(a2)
    2fcc:	f6d43023          	sd	a3,-160(s0)
    2fd0:	06462683          	lw	a3,100(a2)
    2fd4:	f4d43c23          	sd	a3,-168(s0)
    2fd8:	06062683          	lw	a3,96(a2)
    2fdc:	f4d43823          	sd	a3,-176(s0)
    2fe0:	05c62683          	lw	a3,92(a2)
    2fe4:	f4d43423          	sd	a3,-184(s0)
    2fe8:	05862683          	lw	a3,88(a2)
    2fec:	f4d43023          	sd	a3,-192(s0)
    2ff0:	05462683          	lw	a3,84(a2)
    2ff4:	f2d43c23          	sd	a3,-200(s0)
    2ff8:	05062683          	lw	a3,80(a2)
    2ffc:	f2d43823          	sd	a3,-208(s0)
    3000:	04c62683          	lw	a3,76(a2)
    3004:	eed43c23          	sd	a3,-264(s0)
    3008:	04862683          	lw	a3,72(a2)
    300c:	eed43823          	sd	a3,-272(s0)
    3010:	04462683          	lw	a3,68(a2)
    3014:	eed43423          	sd	a3,-280(s0)
    3018:	04062683          	lw	a3,64(a2)
    301c:	eed43023          	sd	a3,-288(s0)
    3020:	03c62683          	lw	a3,60(a2)
    3024:	ecd43c23          	sd	a3,-296(s0)
    3028:	03862683          	lw	a3,56(a2)
    302c:	ecd43823          	sd	a3,-304(s0)
    3030:	03462683          	lw	a3,52(a2)
    3034:	ecd43423          	sd	a3,-312(s0)
    3038:	03062683          	lw	a3,48(a2)
    303c:	ecd43023          	sd	a3,-320(s0)
    3040:	02c62683          	lw	a3,44(a2)
    3044:	ead43c23          	sd	a3,-328(s0)
    3048:	02862683          	lw	a3,40(a2)
    304c:	ead43823          	sd	a3,-336(s0)
    3050:	02462283          	lw	t0,36(a2)
    3054:	07c52603          	lw	a2,124(a0)
    3058:	f8b43823          	sd	a1,-112(s0)
    305c:	000015b7          	lui	a1,0x1
    3060:	40b405b3          	sub	a1,s0,a1
    3064:	5ac5b023          	sd	a2,1440(a1) # 15a0 <.LBB87_5+0x11c>
    3068:	07852603          	lw	a2,120(a0)
    306c:	000015b7          	lui	a1,0x1
    3070:	40b405b3          	sub	a1,s0,a1
    3074:	58c5b423          	sd	a2,1416(a1) # 1588 <.LBB87_5+0x104>
    3078:	07452883          	lw	a7,116(a0)
    307c:	07052303          	lw	t1,112(a0)
    3080:	06c52383          	lw	t2,108(a0)
    3084:	06852e03          	lw	t3,104(a0)
    3088:	06452e83          	lw	t4,100(a0)
    308c:	06052603          	lw	a2,96(a0)
    3090:	05c52f83          	lw	t6,92(a0)
    3094:	05852483          	lw	s1,88(a0)
    3098:	05452903          	lw	s2,84(a0)
    309c:	05052983          	lw	s3,80(a0)
    30a0:	04c52a03          	lw	s4,76(a0)
    30a4:	04852a83          	lw	s5,72(a0)
    30a8:	04452b03          	lw	s6,68(a0)
    30ac:	04052b83          	lw	s7,64(a0)
    30b0:	03c52c03          	lw	s8,60(a0)
    30b4:	03852c83          	lw	s9,56(a0)
    30b8:	03452d03          	lw	s10,52(a0)
    30bc:	02452703          	lw	a4,36(a0)
    30c0:	03052d83          	lw	s11,48(a0)
    30c4:	02c52083          	lw	ra,44(a0)
    30c8:	02852783          	lw	a5,40(a0)
    30cc:	00771713          	slli	a4,a4,0x7
    30d0:	00001537          	lui	a0,0x1
    30d4:	40a40533          	sub	a0,s0,a0
    30d8:	68553423          	sd	t0,1672(a0) # 1688 <.LBB87_5+0x204>
    30dc:	00001537          	lui	a0,0x1
    30e0:	40a40533          	sub	a0,s0,a0
    30e4:	6d053503          	ld	a0,1744(a0) # 16d0 <.LBB87_5+0x24c>
    30e8:	00550533          	add	a0,a0,t0
    30ec:	000015b7          	lui	a1,0x1
    30f0:	40b405b3          	sub	a1,s0,a1
    30f4:	6ce5b823          	sd	a4,1744(a1) # 16d0 <.LBB87_5+0x24c>
    30f8:	00e50533          	add	a0,a0,a4
    30fc:	000015b7          	lui	a1,0x1
    3100:	40b405b3          	sub	a1,s0,a1
    3104:	6485b283          	ld	t0,1608(a1) # 1648 <.LBB87_5+0x1c4>
    3108:	0042a703          	lw	a4,4(t0)
    310c:	0082a683          	lw	a3,8(t0)
    3110:	000015b7          	lui	a1,0x1
    3114:	40b405b3          	sub	a1,s0,a1
    3118:	5cd5b423          	sd	a3,1480(a1) # 15c8 <.LBB87_5+0x144>
    311c:	00c2a683          	lw	a3,12(t0)
    3120:	000015b7          	lui	a1,0x1
    3124:	40b405b3          	sub	a1,s0,a1
    3128:	5cd5b023          	sd	a3,1472(a1) # 15c0 <.LBB87_5+0x13c>
    312c:	0102a683          	lw	a3,16(t0)
    3130:	000015b7          	lui	a1,0x1
    3134:	40b405b3          	sub	a1,s0,a1
    3138:	5ad5b423          	sd	a3,1448(a1) # 15a8 <.LBB87_5+0x124>
    313c:	0142a683          	lw	a3,20(t0)
    3140:	000015b7          	lui	a1,0x1
    3144:	40b405b3          	sub	a1,s0,a1
    3148:	5ad5bc23          	sd	a3,1464(a1) # 15b8 <.LBB87_5+0x134>
    314c:	0182a683          	lw	a3,24(t0)
    3150:	000015b7          	lui	a1,0x1
    3154:	40b405b3          	sub	a1,s0,a1
    3158:	5ad5b823          	sd	a3,1456(a1) # 15b0 <.LBB87_5+0x12c>
    315c:	f9043583          	ld	a1,-112(s0)
    3160:	01c2a283          	lw	t0,28(t0)
    3164:	000016b7          	lui	a3,0x1
    3168:	40d406b3          	sub	a3,s0,a3
    316c:	3e56b023          	sd	t0,992(a3) # 13e0 <.LBB87_4+0x518>
    3170:	410582bb          	subw	t0,a1,a6
    3174:	4055053b          	subw	a0,a0,t0
    3178:	400002b7          	lui	t0,0x40000
    317c:	000016b7          	lui	a3,0x1
    3180:	40d406b3          	sub	a3,s0,a3
    3184:	58a6bc23          	sd	a0,1432(a3) # 1598 <.LBB87_5+0x114>
    3188:	00055463          	bgez	a0,3190 <.LBB87_26>
    318c:	c00002b7          	lui	t0,0xc0000

0000000000003190 <.LBB87_26>:
    3190:	00001537          	lui	a0,0x1
    3194:	40a40533          	sub	a0,s0,a0
    3198:	58553823          	sd	t0,1424(a0) # 1590 <.LBB87_5+0x10c>
    319c:	00779793          	slli	a5,a5,0x7
    31a0:	eb043503          	ld	a0,-336(s0)
    31a4:	000016b7          	lui	a3,0x1
    31a8:	40d406b3          	sub	a3,s0,a3
    31ac:	6d86b683          	ld	a3,1752(a3) # 16d8 <.LBB87_5+0x254>
    31b0:	00a68533          	add	a0,a3,a0
    31b4:	00078293          	mv	t0,a5
    31b8:	00f50533          	add	a0,a0,a5
    31bc:	410587bb          	subw	a5,a1,a6
    31c0:	40f5053b          	subw	a0,a0,a5
    31c4:	400007b7          	lui	a5,0x40000
    31c8:	000016b7          	lui	a3,0x1
    31cc:	40d406b3          	sub	a3,s0,a3
    31d0:	54a6b023          	sd	a0,1344(a3) # 1540 <.LBB87_5+0xbc>
    31d4:	000016b7          	lui	a3,0x1
    31d8:	40d406b3          	sub	a3,s0,a3
    31dc:	7206b683          	ld	a3,1824(a3) # 1720 <.LBB87_5+0x29c>
    31e0:	00055463          	bgez	a0,31e8 <.LBB87_28>
    31e4:	c00007b7          	lui	a5,0xc0000

00000000000031e8 <.LBB87_28>:
    31e8:	f8c43823          	sd	a2,-112(s0)
    31ec:	00001537          	lui	a0,0x1
    31f0:	40a40533          	sub	a0,s0,a0
    31f4:	52f53c23          	sd	a5,1336(a0) # 1538 <.LBB87_5+0xb4>
    31f8:	00709793          	slli	a5,ra,0x7
    31fc:	eb843503          	ld	a0,-328(s0)
    3200:	00001637          	lui	a2,0x1
    3204:	40c40633          	sub	a2,s0,a2
    3208:	6e063083          	ld	ra,1760(a2) # 16e0 <.LBB87_5+0x25c>
    320c:	00a08533          	add	a0,ra,a0
    3210:	00078093          	mv	ra,a5
    3214:	00f50533          	add	a0,a0,a5
    3218:	410587bb          	subw	a5,a1,a6
    321c:	40f5053b          	subw	a0,a0,a5
    3220:	400007b7          	lui	a5,0x40000
    3224:	00001637          	lui	a2,0x1
    3228:	40c40633          	sub	a2,s0,a2
    322c:	4ea63023          	sd	a0,1248(a2) # 14e0 <.LBB87_5+0x5c>
    3230:	f9043603          	ld	a2,-112(s0)
    3234:	00055463          	bgez	a0,323c <.LBB87_30>
    3238:	c00007b7          	lui	a5,0xc0000

000000000000323c <.LBB87_30>:
    323c:	00001537          	lui	a0,0x1
    3240:	40a40533          	sub	a0,s0,a0
    3244:	4cf53823          	sd	a5,1232(a0) # 14d0 <.LBB87_5+0x4c>
    3248:	007d9793          	slli	a5,s11,0x7
    324c:	ec043503          	ld	a0,-320(s0)
    3250:	00001db7          	lui	s11,0x1
    3254:	41b40db3          	sub	s11,s0,s11
    3258:	6e8dbd83          	ld	s11,1768(s11) # 16e8 <.LBB87_5+0x264>
    325c:	00ad8533          	add	a0,s11,a0
    3260:	00078d93          	mv	s11,a5
    3264:	00f50533          	add	a0,a0,a5
    3268:	410587bb          	subw	a5,a1,a6
    326c:	40f5053b          	subw	a0,a0,a5
    3270:	400007b7          	lui	a5,0x40000
    3274:	00001837          	lui	a6,0x1
    3278:	41040833          	sub	a6,s0,a6
    327c:	48a83423          	sd	a0,1160(a6) # 1488 <.LBB87_5+0x4>
    3280:	00055463          	bgez	a0,3288 <.LBB87_32>
    3284:	c00007b7          	lui	a5,0xc0000

0000000000003288 <.LBB87_32>:
    3288:	00001537          	lui	a0,0x1
    328c:	40a40533          	sub	a0,s0,a0
    3290:	46f53823          	sd	a5,1136(a0) # 1470 <.LBB87_4+0x5a8>
    3294:	007d1d13          	slli	s10,s10,0x7
    3298:	ec843503          	ld	a0,-312(s0)
    329c:	000017b7          	lui	a5,0x1
    32a0:	40f407b3          	sub	a5,s0,a5
    32a4:	6f07b783          	ld	a5,1776(a5) # 16f0 <.LBB87_5+0x26c>
    32a8:	00a78533          	add	a0,a5,a0
    32ac:	000017b7          	lui	a5,0x1
    32b0:	40f407b3          	sub	a5,s0,a5
    32b4:	6fa7b823          	sd	s10,1776(a5) # 16f0 <.LBB87_5+0x26c>
    32b8:	01a50533          	add	a0,a0,s10
    32bc:	fff28d37          	lui	s10,0xfff28
    32c0:	41a587bb          	subw	a5,a1,s10
    32c4:	40f5053b          	subw	a0,a0,a5
    32c8:	400007b7          	lui	a5,0x40000
    32cc:	00001837          	lui	a6,0x1
    32d0:	41040833          	sub	a6,s0,a6
    32d4:	42a83423          	sd	a0,1064(a6) # 1428 <.LBB87_4+0x560>
    32d8:	00001837          	lui	a6,0x1
    32dc:	41040833          	sub	a6,s0,a6
    32e0:	70083803          	ld	a6,1792(a6) # 1700 <.LBB87_5+0x27c>
    32e4:	00055463          	bgez	a0,32ec <.LBB87_34>
    32e8:	c00007b7          	lui	a5,0xc0000

00000000000032ec <.LBB87_34>:
    32ec:	f8c43823          	sd	a2,-112(s0)
    32f0:	00001537          	lui	a0,0x1
    32f4:	40a40533          	sub	a0,s0,a0
    32f8:	40f53823          	sd	a5,1040(a0) # 1410 <.LBB87_4+0x548>
    32fc:	007c9793          	slli	a5,s9,0x7
    3300:	ed043503          	ld	a0,-304(s0)
    3304:	00001637          	lui	a2,0x1
    3308:	40c40633          	sub	a2,s0,a2
    330c:	6f863c83          	ld	s9,1784(a2) # 16f8 <.LBB87_5+0x274>
    3310:	00ac8533          	add	a0,s9,a0
    3314:	00078c93          	mv	s9,a5
    3318:	00f50533          	add	a0,a0,a5
    331c:	41a587bb          	subw	a5,a1,s10
    3320:	40f5053b          	subw	a0,a0,a5
    3324:	400007b7          	lui	a5,0x40000
    3328:	00001637          	lui	a2,0x1
    332c:	40c40633          	sub	a2,s0,a2
    3330:	3aa63823          	sd	a0,944(a2) # 13b0 <.LBB87_4+0x4e8>
    3334:	f9043603          	ld	a2,-112(s0)
    3338:	00055463          	bgez	a0,3340 <.LBB87_36>
    333c:	c00007b7          	lui	a5,0xc0000

0000000000003340 <.LBB87_36>:
    3340:	00001537          	lui	a0,0x1
    3344:	40a40533          	sub	a0,s0,a0
    3348:	3af53023          	sd	a5,928(a0) # 13a0 <.LBB87_4+0x4d8>
    334c:	007c1793          	slli	a5,s8,0x7
    3350:	ed843503          	ld	a0,-296(s0)
    3354:	00a80533          	add	a0,a6,a0
    3358:	00078c13          	mv	s8,a5
    335c:	00f50533          	add	a0,a0,a5
    3360:	41a587bb          	subw	a5,a1,s10
    3364:	40f5053b          	subw	a0,a0,a5
    3368:	400007b7          	lui	a5,0x40000
    336c:	00001837          	lui	a6,0x1
    3370:	41040833          	sub	a6,s0,a6
    3374:	34a83423          	sd	a0,840(a6) # 1348 <.LBB87_4+0x480>
    3378:	98043803          	ld	a6,-1664(s0)
    337c:	00055463          	bgez	a0,3384 <.LBB87_38>
    3380:	c00007b7          	lui	a5,0xc0000

0000000000003384 <.LBB87_38>:
    3384:	f8c43823          	sd	a2,-112(s0)
    3388:	00001537          	lui	a0,0x1
    338c:	40a40533          	sub	a0,s0,a0
    3390:	32f53823          	sd	a5,816(a0) # 1330 <.LBB87_4+0x468>
    3394:	007b9793          	slli	a5,s7,0x7
    3398:	ee043503          	ld	a0,-288(s0)
    339c:	00001637          	lui	a2,0x1
    33a0:	40c40633          	sub	a2,s0,a2
    33a4:	70863b83          	ld	s7,1800(a2) # 1708 <.LBB87_5+0x284>
    33a8:	00ab8533          	add	a0,s7,a0
    33ac:	00078b93          	mv	s7,a5
    33b0:	00f50533          	add	a0,a0,a5
    33b4:	41a587bb          	subw	a5,a1,s10
    33b8:	40f5053b          	subw	a0,a0,a5
    33bc:	400007b7          	lui	a5,0x40000
    33c0:	00001637          	lui	a2,0x1
    33c4:	40c40633          	sub	a2,s0,a2
    33c8:	2ca63c23          	sd	a0,728(a2) # 12d8 <.LBB87_4+0x410>
    33cc:	f9043603          	ld	a2,-112(s0)
    33d0:	00055463          	bgez	a0,33d8 <.LBB87_40>
    33d4:	c00007b7          	lui	a5,0xc0000

00000000000033d8 <.LBB87_40>:
    33d8:	00001537          	lui	a0,0x1
    33dc:	40a40533          	sub	a0,s0,a0
    33e0:	2cf53023          	sd	a5,704(a0) # 12c0 <.LBB87_4+0x3f8>
    33e4:	007b1793          	slli	a5,s6,0x7
    33e8:	ee843503          	ld	a0,-280(s0)
    33ec:	00001b37          	lui	s6,0x1
    33f0:	41640b33          	sub	s6,s0,s6
    33f4:	710b3b03          	ld	s6,1808(s6) # 1710 <.LBB87_5+0x28c>
    33f8:	00ab0533          	add	a0,s6,a0
    33fc:	00078b13          	mv	s6,a5
    3400:	00f50533          	add	a0,a0,a5
    3404:	41a587bb          	subw	a5,a1,s10
    3408:	40f5053b          	subw	a0,a0,a5
    340c:	400007b7          	lui	a5,0x40000
    3410:	e1e43423          	sd	t5,-504(s0)
    3414:	00001f37          	lui	t5,0x1
    3418:	41e40f33          	sub	t5,s0,t5
    341c:	24af3c23          	sd	a0,600(t5) # 1258 <.LBB87_4+0x390>
    3420:	00055463          	bgez	a0,3428 <.LBB87_42>
    3424:	c00007b7          	lui	a5,0xc0000

0000000000003428 <.LBB87_42>:
    3428:	00001537          	lui	a0,0x1
    342c:	40a40533          	sub	a0,s0,a0
    3430:	22f53c23          	sd	a5,568(a0) # 1238 <.LBB87_4+0x370>
    3434:	007a9a93          	slli	s5,s5,0x7
    3438:	ef043503          	ld	a0,-272(s0)
    343c:	000017b7          	lui	a5,0x1
    3440:	40f407b3          	sub	a5,s0,a5
    3444:	7187b783          	ld	a5,1816(a5) # 1718 <.LBB87_5+0x294>
    3448:	00a78533          	add	a0,a5,a0
    344c:	000a8f13          	mv	t5,s5
    3450:	01550533          	add	a0,a0,s5
    3454:	41a587bb          	subw	a5,a1,s10
    3458:	40f5053b          	subw	a0,a0,a5
    345c:	400007b7          	lui	a5,0x40000
    3460:	00001ab7          	lui	s5,0x1
    3464:	41540ab3          	sub	s5,s0,s5
    3468:	1caab823          	sd	a0,464(s5) # 11d0 <.LBB87_4+0x308>
    346c:	00055463          	bgez	a0,3474 <.LBB87_44>
    3470:	c00007b7          	lui	a5,0xc0000

0000000000003474 <.LBB87_44>:
    3474:	00001537          	lui	a0,0x1
    3478:	40a40533          	sub	a0,s0,a0
    347c:	1af53c23          	sd	a5,440(a0) # 11b8 <.LBB87_4+0x2f0>
    3480:	007a1793          	slli	a5,s4,0x7
    3484:	ef843503          	ld	a0,-264(s0)
    3488:	00a68533          	add	a0,a3,a0
    348c:	00078a13          	mv	s4,a5
    3490:	00f50533          	add	a0,a0,a5
    3494:	41a587bb          	subw	a5,a1,s10
    3498:	40f5053b          	subw	a0,a0,a5
    349c:	400007b7          	lui	a5,0x40000
    34a0:	000016b7          	lui	a3,0x1
    34a4:	40d406b3          	sub	a3,s0,a3
    34a8:	14a6b423          	sd	a0,328(a3) # 1148 <.LBB87_4+0x280>
    34ac:	000016b7          	lui	a3,0x1
    34b0:	40d406b3          	sub	a3,s0,a3
    34b4:	7606ba83          	ld	s5,1888(a3) # 1760 <.LBB87_5+0x2dc>
    34b8:	00055463          	bgez	a0,34c0 <.LBB87_46>
    34bc:	c00007b7          	lui	a5,0xc0000

00000000000034c0 <.LBB87_46>:
    34c0:	00001537          	lui	a0,0x1
    34c4:	40a40533          	sub	a0,s0,a0
    34c8:	12f53c23          	sd	a5,312(a0) # 1138 <.LBB87_4+0x270>
    34cc:	00799793          	slli	a5,s3,0x7
    34d0:	f3043503          	ld	a0,-208(s0)
    34d4:	000016b7          	lui	a3,0x1
    34d8:	40d406b3          	sub	a3,s0,a3
    34dc:	7286b983          	ld	s3,1832(a3) # 1728 <.LBB87_5+0x2a4>
    34e0:	00a98533          	add	a0,s3,a0
    34e4:	00078993          	mv	s3,a5
    34e8:	00f50533          	add	a0,a0,a5
    34ec:	41a587bb          	subw	a5,a1,s10
    34f0:	40f5053b          	subw	a0,a0,a5
    34f4:	400007b7          	lui	a5,0x40000
    34f8:	000016b7          	lui	a3,0x1
    34fc:	40d406b3          	sub	a3,s0,a3
    3500:	0ca6b423          	sd	a0,200(a3) # 10c8 <.LBB87_4+0x200>
    3504:	00055463          	bgez	a0,350c <.LBB87_48>
    3508:	c00007b7          	lui	a5,0xc0000

000000000000350c <.LBB87_48>:
    350c:	00001537          	lui	a0,0x1
    3510:	40a40533          	sub	a0,s0,a0
    3514:	0cf53023          	sd	a5,192(a0) # 10c0 <.LBB87_4+0x1f8>
    3518:	00791793          	slli	a5,s2,0x7
    351c:	f3843503          	ld	a0,-200(s0)
    3520:	000016b7          	lui	a3,0x1
    3524:	40d406b3          	sub	a3,s0,a3
    3528:	7306b903          	ld	s2,1840(a3) # 1730 <.LBB87_5+0x2ac>
    352c:	00a90533          	add	a0,s2,a0
    3530:	00078913          	mv	s2,a5
    3534:	00f50533          	add	a0,a0,a5
    3538:	41a587bb          	subw	a5,a1,s10
    353c:	40f5053b          	subw	a0,a0,a5
    3540:	400007b7          	lui	a5,0x40000
    3544:	000016b7          	lui	a3,0x1
    3548:	40d406b3          	sub	a3,s0,a3
    354c:	04a6b823          	sd	a0,80(a3) # 1050 <.LBB87_4+0x188>
    3550:	00055463          	bgez	a0,3558 <.LBB87_50>
    3554:	c00007b7          	lui	a5,0xc0000

0000000000003558 <.LBB87_50>:
    3558:	00001537          	lui	a0,0x1
    355c:	40a40533          	sub	a0,s0,a0
    3560:	04f53423          	sd	a5,72(a0) # 1048 <.LBB87_4+0x180>
    3564:	00749493          	slli	s1,s1,0x7
    3568:	f4043503          	ld	a0,-192(s0)
    356c:	000016b7          	lui	a3,0x1
    3570:	40d406b3          	sub	a3,s0,a3
    3574:	7386b783          	ld	a5,1848(a3) # 1738 <.LBB87_5+0x2b4>
    3578:	00a78533          	add	a0,a5,a0
    357c:	000016b7          	lui	a3,0x1
    3580:	40d406b3          	sub	a3,s0,a3
    3584:	7296bc23          	sd	s1,1848(a3) # 1738 <.LBB87_5+0x2b4>
    3588:	00950533          	add	a0,a0,s1
    358c:	41a587bb          	subw	a5,a1,s10
    3590:	40f5053b          	subw	a0,a0,a5
    3594:	400007b7          	lui	a5,0x40000
    3598:	000016b7          	lui	a3,0x1
    359c:	40d406b3          	sub	a3,s0,a3
    35a0:	fca6bc23          	sd	a0,-40(a3) # fd8 <.LBB87_4+0x110>
    35a4:	00055463          	bgez	a0,35ac <.LBB87_52>
    35a8:	c00007b7          	lui	a5,0xc0000

00000000000035ac <.LBB87_52>:
    35ac:	00001537          	lui	a0,0x1
    35b0:	40a40533          	sub	a0,s0,a0
    35b4:	fcf53823          	sd	a5,-48(a0) # fd0 <.LBB87_4+0x108>
    35b8:	007f9793          	slli	a5,t6,0x7
    35bc:	f4843503          	ld	a0,-184(s0)
    35c0:	000016b7          	lui	a3,0x1
    35c4:	40d406b3          	sub	a3,s0,a3
    35c8:	7406bf83          	ld	t6,1856(a3) # 1740 <.LBB87_5+0x2bc>
    35cc:	00af8533          	add	a0,t6,a0
    35d0:	000016b7          	lui	a3,0x1
    35d4:	40d406b3          	sub	a3,s0,a3
    35d8:	74f6b023          	sd	a5,1856(a3) # 1740 <.LBB87_5+0x2bc>
    35dc:	00f50533          	add	a0,a0,a5
    35e0:	41a587bb          	subw	a5,a1,s10
    35e4:	40f5053b          	subw	a0,a0,a5
    35e8:	400007b7          	lui	a5,0x40000
    35ec:	00c00493          	li	s1,12
    35f0:	000016b7          	lui	a3,0x1
    35f4:	40d406b3          	sub	a3,s0,a3
    35f8:	f6a6b023          	sd	a0,-160(a3) # f60 <.LBB87_4+0x98>
    35fc:	00055463          	bgez	a0,3604 <.LBB87_54>
    3600:	c00007b7          	lui	a5,0xc0000

0000000000003604 <.LBB87_54>:
    3604:	00001537          	lui	a0,0x1
    3608:	40a40533          	sub	a0,s0,a0
    360c:	f4f53c23          	sd	a5,-168(a0) # f58 <.LBB87_4+0x90>
    3610:	00761613          	slli	a2,a2,0x7
    3614:	f5043503          	ld	a0,-176(s0)
    3618:	000016b7          	lui	a3,0x1
    361c:	40d406b3          	sub	a3,s0,a3
    3620:	7486b783          	ld	a5,1864(a3) # 1748 <.LBB87_5+0x2c4>
    3624:	00a78533          	add	a0,a5,a0
    3628:	000016b7          	lui	a3,0x1
    362c:	40d406b3          	sub	a3,s0,a3
    3630:	74c6b423          	sd	a2,1864(a3) # 1748 <.LBB87_5+0x2c4>
    3634:	00c50533          	add	a0,a0,a2
    3638:	41a587bb          	subw	a5,a1,s10
    363c:	40f5053b          	subw	a0,a0,a5
    3640:	40000637          	lui	a2,0x40000
    3644:	000016b7          	lui	a3,0x1
    3648:	40d406b3          	sub	a3,s0,a3
    364c:	eea6b823          	sd	a0,-272(a3) # ef0 <.LBB87_4+0x28>
    3650:	000016b7          	lui	a3,0x1
    3654:	40d406b3          	sub	a3,s0,a3
    3658:	7686bf83          	ld	t6,1896(a3) # 1768 <.LBB87_5+0x2e4>
    365c:	00055463          	bgez	a0,3664 <.LBB87_56>
    3660:	c0000637          	lui	a2,0xc0000

0000000000003664 <.LBB87_56>:
    3664:	007e9e93          	slli	t4,t4,0x7
    3668:	f5843503          	ld	a0,-168(s0)
    366c:	000016b7          	lui	a3,0x1
    3670:	40d406b3          	sub	a3,s0,a3
    3674:	7506b783          	ld	a5,1872(a3) # 1750 <.LBB87_5+0x2cc>
    3678:	00a78533          	add	a0,a5,a0
    367c:	000016b7          	lui	a3,0x1
    3680:	40d406b3          	sub	a3,s0,a3
    3684:	75d6b823          	sd	t4,1872(a3) # 1750 <.LBB87_5+0x2cc>
    3688:	01d50533          	add	a0,a0,t4
    368c:	41a587bb          	subw	a5,a1,s10
    3690:	40f5053b          	subw	a0,a0,a5
    3694:	400007b7          	lui	a5,0x40000
    3698:	000016b7          	lui	a3,0x1
    369c:	40d406b3          	sub	a3,s0,a3
    36a0:	e6a6bc23          	sd	a0,-392(a3) # e78 <.LBB87_3+0xc08>
    36a4:	00055463          	bgez	a0,36ac <.LBB87_58>
    36a8:	c00007b7          	lui	a5,0xc0000

00000000000036ac <.LBB87_58>:
    36ac:	00001537          	lui	a0,0x1
    36b0:	40a40533          	sub	a0,s0,a0
    36b4:	e6f53823          	sd	a5,-400(a0) # e70 <.LBB87_3+0xc00>
    36b8:	007e1e13          	slli	t3,t3,0x7
    36bc:	f6043503          	ld	a0,-160(s0)
    36c0:	000016b7          	lui	a3,0x1
    36c4:	40d406b3          	sub	a3,s0,a3
    36c8:	7586b783          	ld	a5,1880(a3) # 1758 <.LBB87_5+0x2d4>
    36cc:	00a78533          	add	a0,a5,a0
    36d0:	000016b7          	lui	a3,0x1
    36d4:	40d406b3          	sub	a3,s0,a3
    36d8:	75c6bc23          	sd	t3,1880(a3) # 1758 <.LBB87_5+0x2d4>
    36dc:	01c50533          	add	a0,a0,t3
    36e0:	41a587bb          	subw	a5,a1,s10
    36e4:	40f5053b          	subw	a0,a0,a5
    36e8:	400007b7          	lui	a5,0x40000
    36ec:	b0043e83          	ld	t4,-1280(s0)
    36f0:	000016b7          	lui	a3,0x1
    36f4:	40d406b3          	sub	a3,s0,a3
    36f8:	e0a6b423          	sd	a0,-504(a3) # e08 <.LBB87_3+0xb98>
    36fc:	00055463          	bgez	a0,3704 <.LBB87_60>
    3700:	c00007b7          	lui	a5,0xc0000

0000000000003704 <.LBB87_60>:
    3704:	00001537          	lui	a0,0x1
    3708:	40a40533          	sub	a0,s0,a0
    370c:	e0f53023          	sd	a5,-512(a0) # e00 <.LBB87_3+0xb90>
    3710:	00739393          	slli	t2,t2,0x7
    3714:	f6843503          	ld	a0,-152(s0)
    3718:	00aa8533          	add	a0,s5,a0
    371c:	00038a93          	mv	s5,t2
    3720:	00750533          	add	a0,a0,t2
    3724:	41a587bb          	subw	a5,a1,s10
    3728:	40f5053b          	subw	a0,a0,a5
    372c:	400007b7          	lui	a5,0x40000
    3730:	000016b7          	lui	a3,0x1
    3734:	40d406b3          	sub	a3,s0,a3
    3738:	d8a6b823          	sd	a0,-624(a3) # d90 <.LBB87_3+0xb20>
    373c:	000016b7          	lui	a3,0x1
    3740:	40d406b3          	sub	a3,s0,a3
    3744:	7786be03          	ld	t3,1912(a3) # 1778 <.LBB87_5+0x2f4>
    3748:	00055463          	bgez	a0,3750 <.LBB87_62>
    374c:	c00007b7          	lui	a5,0xc0000

0000000000003750 <.LBB87_62>:
    3750:	00001537          	lui	a0,0x1
    3754:	40a40533          	sub	a0,s0,a0
    3758:	d8f53423          	sd	a5,-632(a0) # d88 <.LBB87_3+0xb18>
    375c:	00731313          	slli	t1,t1,0x7
    3760:	f7043503          	ld	a0,-144(s0)
    3764:	00af8533          	add	a0,t6,a0
    3768:	00030f93          	mv	t6,t1
    376c:	00650533          	add	a0,a0,t1
    3770:	41a587bb          	subw	a5,a1,s10
    3774:	40f5053b          	subw	a0,a0,a5
    3778:	400007b7          	lui	a5,0x40000
    377c:	000016b7          	lui	a3,0x1
    3780:	40d406b3          	sub	a3,s0,a3
    3784:	d0a6bc23          	sd	a0,-744(a3) # d18 <.LBB87_3+0xaa8>
    3788:	000016b7          	lui	a3,0x1
    378c:	40d406b3          	sub	a3,s0,a3
    3790:	7806b383          	ld	t2,1920(a3) # 1780 <.LBB87_5+0x2fc>
    3794:	00055463          	bgez	a0,379c <.LBB87_64>
    3798:	c00007b7          	lui	a5,0xc0000

000000000000379c <.LBB87_64>:
    379c:	00001537          	lui	a0,0x1
    37a0:	40a40533          	sub	a0,s0,a0
    37a4:	d0f53823          	sd	a5,-752(a0) # d10 <.LBB87_3+0xaa0>
    37a8:	00789793          	slli	a5,a7,0x7
    37ac:	f7843503          	ld	a0,-136(s0)
    37b0:	000016b7          	lui	a3,0x1
    37b4:	40d406b3          	sub	a3,s0,a3
    37b8:	7706b883          	ld	a7,1904(a3) # 1770 <.LBB87_5+0x2ec>
    37bc:	00a88533          	add	a0,a7,a0
    37c0:	00078893          	mv	a7,a5
    37c4:	00f50533          	add	a0,a0,a5
    37c8:	41a587bb          	subw	a5,a1,s10
    37cc:	40f5053b          	subw	a0,a0,a5
    37d0:	400007b7          	lui	a5,0x40000
    37d4:	c8843303          	ld	t1,-888(s0)
    37d8:	000016b7          	lui	a3,0x1
    37dc:	40d406b3          	sub	a3,s0,a3
    37e0:	caa6b423          	sd	a0,-856(a3) # ca8 <.LBB87_3+0xa38>
    37e4:	00055463          	bgez	a0,37ec <.LBB87_66>
    37e8:	c00007b7          	lui	a5,0xc0000

00000000000037ec <.LBB87_66>:
    37ec:	f8c43823          	sd	a2,-112(s0)
    37f0:	00001537          	lui	a0,0x1
    37f4:	40a40533          	sub	a0,s0,a0
    37f8:	caf53023          	sd	a5,-864(a0) # ca0 <.LBB87_3+0xa30>
    37fc:	00001537          	lui	a0,0x1
    3800:	40a40533          	sub	a0,s0,a0
    3804:	58853683          	ld	a3,1416(a0) # 1588 <.LBB87_5+0x104>
    3808:	00769693          	slli	a3,a3,0x7
    380c:	f8043503          	ld	a0,-128(s0)
    3810:	00ae0533          	add	a0,t3,a0
    3814:	00001637          	lui	a2,0x1
    3818:	40c40633          	sub	a2,s0,a2
    381c:	76d63c23          	sd	a3,1912(a2) # 1778 <.LBB87_5+0x2f4>
    3820:	00d50533          	add	a0,a0,a3
    3824:	41a586bb          	subw	a3,a1,s10
    3828:	40d5053b          	subw	a0,a0,a3
    382c:	400006b7          	lui	a3,0x40000
    3830:	a7843783          	ld	a5,-1416(s0)
    3834:	97843e03          	ld	t3,-1672(s0)
    3838:	00001637          	lui	a2,0x1
    383c:	40c40633          	sub	a2,s0,a2
    3840:	c6a63023          	sd	a0,-928(a2) # c60 <.LBB87_3+0x9f0>
    3844:	f9043603          	ld	a2,-112(s0)
    3848:	00055463          	bgez	a0,3850 <.LBB87_68>
    384c:	c00006b7          	lui	a3,0xc0000

0000000000003850 <.LBB87_68>:
    3850:	00001537          	lui	a0,0x1
    3854:	40a40533          	sub	a0,s0,a0
    3858:	c4d53c23          	sd	a3,-936(a0) # c58 <.LBB87_3+0x9e8>
    385c:	00001537          	lui	a0,0x1
    3860:	40a40533          	sub	a0,s0,a0
    3864:	eec53423          	sd	a2,-280(a0) # ee8 <.LBB87_4+0x20>
    3868:	00001537          	lui	a0,0x1
    386c:	40a40533          	sub	a0,s0,a0
    3870:	5a053603          	ld	a2,1440(a0) # 15a0 <.LBB87_5+0x11c>
    3874:	00761613          	slli	a2,a2,0x7
    3878:	f8843503          	ld	a0,-120(s0)
    387c:	00a38533          	add	a0,t2,a0
    3880:	00060693          	mv	a3,a2
    3884:	00c50533          	add	a0,a0,a2
    3888:	41a585bb          	subw	a1,a1,s10
    388c:	40b5053b          	subw	a0,a0,a1
    3890:	400005b7          	lui	a1,0x40000
    3894:	97043383          	ld	t2,-1680(s0)
    3898:	00001637          	lui	a2,0x1
    389c:	40c40633          	sub	a2,s0,a2
    38a0:	bca63023          	sd	a0,-1088(a2) # bc0 <.LBB87_3+0x950>
    38a4:	00055463          	bgez	a0,38ac <.LBB87_70>
    38a8:	c00005b7          	lui	a1,0xc0000

00000000000038ac <.LBB87_70>:
    38ac:	00001537          	lui	a0,0x1
    38b0:	40a40533          	sub	a0,s0,a0
    38b4:	bab53c23          	sd	a1,-1096(a0) # bb8 <.LBB87_3+0x948>
    38b8:	ea843503          	ld	a0,-344(s0)
    38bc:	000015b7          	lui	a1,0x1
    38c0:	40b405b3          	sub	a1,s0,a1
    38c4:	7885b583          	ld	a1,1928(a1) # 1788 <.LBB87_5+0x304>
    38c8:	00a58533          	add	a0,a1,a0
    38cc:	029705b3          	mul	a1,a4,s1
    38d0:	ea043603          	ld	a2,-352(s0)
    38d4:	00c50533          	add	a0,a0,a2
    38d8:	41a5863b          	subw	a2,a1,s10
    38dc:	40c5053b          	subw	a0,a0,a2
    38e0:	40000637          	lui	a2,0x40000
    38e4:	00001737          	lui	a4,0x1
    38e8:	40e40733          	sub	a4,s0,a4
    38ec:	78a73423          	sd	a0,1928(a4) # 1788 <.LBB87_5+0x304>
    38f0:	00055463          	bgez	a0,38f8 <.LBB87_72>
    38f4:	c0000637          	lui	a2,0xc0000

00000000000038f8 <.LBB87_72>:
    38f8:	00001537          	lui	a0,0x1
    38fc:	40a40533          	sub	a0,s0,a0
    3900:	78c53023          	sd	a2,1920(a0) # 1780 <.LBB87_5+0x2fc>
    3904:	e9843503          	ld	a0,-360(s0)
    3908:	00001637          	lui	a2,0x1
    390c:	40c40633          	sub	a2,s0,a2
    3910:	79063603          	ld	a2,1936(a2) # 1790 <.LBB87_5+0x30c>
    3914:	00a60533          	add	a0,a2,a0
    3918:	e9043603          	ld	a2,-368(s0)
    391c:	00c50533          	add	a0,a0,a2
    3920:	41a5863b          	subw	a2,a1,s10
    3924:	40c5053b          	subw	a0,a0,a2
    3928:	40000637          	lui	a2,0x40000
    392c:	00001737          	lui	a4,0x1
    3930:	40e40733          	sub	a4,s0,a4
    3934:	78a73823          	sd	a0,1936(a4) # 1790 <.LBB87_5+0x30c>
    3938:	88043703          	ld	a4,-1920(s0)
    393c:	00055463          	bgez	a0,3944 <.LBB87_74>
    3940:	c0000637          	lui	a2,0xc0000

0000000000003944 <.LBB87_74>:
    3944:	f8d43823          	sd	a3,-112(s0)
    3948:	00001537          	lui	a0,0x1
    394c:	40a40533          	sub	a0,s0,a0
    3950:	76c53823          	sd	a2,1904(a0) # 1770 <.LBB87_5+0x2ec>
    3954:	e8843503          	ld	a0,-376(s0)
    3958:	00001637          	lui	a2,0x1
    395c:	40c40633          	sub	a2,s0,a2
    3960:	79863603          	ld	a2,1944(a2) # 1798 <.LBB87_5+0x314>
    3964:	00a60533          	add	a0,a2,a0
    3968:	e8043603          	ld	a2,-384(s0)
    396c:	00c50533          	add	a0,a0,a2
    3970:	41a5863b          	subw	a2,a1,s10
    3974:	40c5053b          	subw	a0,a0,a2
    3978:	40000637          	lui	a2,0x40000
    397c:	000016b7          	lui	a3,0x1
    3980:	40d406b3          	sub	a3,s0,a3
    3984:	78a6bc23          	sd	a0,1944(a3) # 1798 <.LBB87_5+0x314>
    3988:	f9043683          	ld	a3,-112(s0)
    398c:	00055463          	bgez	a0,3994 <.LBB87_76>
    3990:	c0000637          	lui	a2,0xc0000

0000000000003994 <.LBB87_76>:
    3994:	f8d43823          	sd	a3,-112(s0)
    3998:	00001537          	lui	a0,0x1
    399c:	40a40533          	sub	a0,s0,a0
    39a0:	76c53423          	sd	a2,1896(a0) # 1768 <.LBB87_5+0x2e4>
    39a4:	e7843503          	ld	a0,-392(s0)
    39a8:	00001637          	lui	a2,0x1
    39ac:	40c40633          	sub	a2,s0,a2
    39b0:	7a063603          	ld	a2,1952(a2) # 17a0 <.LBB87_5+0x31c>
    39b4:	00a60533          	add	a0,a2,a0
    39b8:	e7043603          	ld	a2,-400(s0)
    39bc:	00c50533          	add	a0,a0,a2
    39c0:	41a5863b          	subw	a2,a1,s10
    39c4:	40c5053b          	subw	a0,a0,a2
    39c8:	40000637          	lui	a2,0x40000
    39cc:	000016b7          	lui	a3,0x1
    39d0:	40d406b3          	sub	a3,s0,a3
    39d4:	7aa6b023          	sd	a0,1952(a3) # 17a0 <.LBB87_5+0x31c>
    39d8:	f9043683          	ld	a3,-112(s0)
    39dc:	00055463          	bgez	a0,39e4 <.LBB87_78>
    39e0:	c0000637          	lui	a2,0xc0000

00000000000039e4 <.LBB87_78>:
    39e4:	f8d43823          	sd	a3,-112(s0)
    39e8:	00001537          	lui	a0,0x1
    39ec:	40a40533          	sub	a0,s0,a0
    39f0:	76c53023          	sd	a2,1888(a0) # 1760 <.LBB87_5+0x2dc>
    39f4:	e6843503          	ld	a0,-408(s0)
    39f8:	00001637          	lui	a2,0x1
    39fc:	40c40633          	sub	a2,s0,a2
    3a00:	7a863603          	ld	a2,1960(a2) # 17a8 <.LBB87_5+0x324>
    3a04:	00a60533          	add	a0,a2,a0
    3a08:	e6043603          	ld	a2,-416(s0)
    3a0c:	00c50533          	add	a0,a0,a2
    3a10:	41a5863b          	subw	a2,a1,s10
    3a14:	40c5053b          	subw	a0,a0,a2
    3a18:	40000637          	lui	a2,0x40000
    3a1c:	000016b7          	lui	a3,0x1
    3a20:	40d406b3          	sub	a3,s0,a3
    3a24:	7aa6b423          	sd	a0,1960(a3) # 17a8 <.LBB87_5+0x324>
    3a28:	f9043683          	ld	a3,-112(s0)
    3a2c:	00055463          	bgez	a0,3a34 <.LBB87_80>
    3a30:	c0000637          	lui	a2,0xc0000

0000000000003a34 <.LBB87_80>:
    3a34:	f8d43823          	sd	a3,-112(s0)
    3a38:	00001537          	lui	a0,0x1
    3a3c:	40a40533          	sub	a0,s0,a0
    3a40:	72c53823          	sd	a2,1840(a0) # 1730 <.LBB87_5+0x2ac>
    3a44:	00001537          	lui	a0,0x1
    3a48:	40a40533          	sub	a0,s0,a0
    3a4c:	6c853503          	ld	a0,1736(a0) # 16c8 <.LBB87_5+0x244>
    3a50:	00001637          	lui	a2,0x1
    3a54:	40c40633          	sub	a2,s0,a2
    3a58:	7b063603          	ld	a2,1968(a2) # 17b0 <.LBB87_5+0x32c>
    3a5c:	00a60533          	add	a0,a2,a0
    3a60:	00001637          	lui	a2,0x1
    3a64:	40c40633          	sub	a2,s0,a2
    3a68:	6c063603          	ld	a2,1728(a2) # 16c0 <.LBB87_5+0x23c>
    3a6c:	00c50533          	add	a0,a0,a2
    3a70:	41a5863b          	subw	a2,a1,s10
    3a74:	40c5053b          	subw	a0,a0,a2
    3a78:	40000637          	lui	a2,0x40000
    3a7c:	000016b7          	lui	a3,0x1
    3a80:	40d406b3          	sub	a3,s0,a3
    3a84:	7aa6b823          	sd	a0,1968(a3) # 17b0 <.LBB87_5+0x32c>
    3a88:	f9043683          	ld	a3,-112(s0)
    3a8c:	00055463          	bgez	a0,3a94 <.LBB87_82>
    3a90:	c0000637          	lui	a2,0xc0000

0000000000003a94 <.LBB87_82>:
    3a94:	f8d43823          	sd	a3,-112(s0)
    3a98:	00001537          	lui	a0,0x1
    3a9c:	40a40533          	sub	a0,s0,a0
    3aa0:	72c53423          	sd	a2,1832(a0) # 1728 <.LBB87_5+0x2a4>
    3aa4:	00001537          	lui	a0,0x1
    3aa8:	40a40533          	sub	a0,s0,a0
    3aac:	6b853503          	ld	a0,1720(a0) # 16b8 <.LBB87_5+0x234>
    3ab0:	00001637          	lui	a2,0x1
    3ab4:	40c40633          	sub	a2,s0,a2
    3ab8:	7b863603          	ld	a2,1976(a2) # 17b8 <.LBB87_5+0x334>
    3abc:	00a60533          	add	a0,a2,a0
    3ac0:	00001637          	lui	a2,0x1
    3ac4:	40c40633          	sub	a2,s0,a2
    3ac8:	6b063603          	ld	a2,1712(a2) # 16b0 <.LBB87_5+0x22c>
    3acc:	00c50533          	add	a0,a0,a2
    3ad0:	41a5863b          	subw	a2,a1,s10
    3ad4:	40c5053b          	subw	a0,a0,a2
    3ad8:	40000637          	lui	a2,0x40000
    3adc:	000016b7          	lui	a3,0x1
    3ae0:	40d406b3          	sub	a3,s0,a3
    3ae4:	7aa6bc23          	sd	a0,1976(a3) # 17b8 <.LBB87_5+0x334>
    3ae8:	f9043683          	ld	a3,-112(s0)
    3aec:	00055463          	bgez	a0,3af4 <.LBB87_84>
    3af0:	c0000637          	lui	a2,0xc0000

0000000000003af4 <.LBB87_84>:
    3af4:	f8d43823          	sd	a3,-112(s0)
    3af8:	00001537          	lui	a0,0x1
    3afc:	40a40533          	sub	a0,s0,a0
    3b00:	72c53023          	sd	a2,1824(a0) # 1720 <.LBB87_5+0x29c>
    3b04:	00001537          	lui	a0,0x1
    3b08:	40a40533          	sub	a0,s0,a0
    3b0c:	6a853503          	ld	a0,1704(a0) # 16a8 <.LBB87_5+0x224>
    3b10:	00001637          	lui	a2,0x1
    3b14:	40c40633          	sub	a2,s0,a2
    3b18:	7c063603          	ld	a2,1984(a2) # 17c0 <.LBB87_5+0x33c>
    3b1c:	00a60533          	add	a0,a2,a0
    3b20:	00001637          	lui	a2,0x1
    3b24:	40c40633          	sub	a2,s0,a2
    3b28:	6a063603          	ld	a2,1696(a2) # 16a0 <.LBB87_5+0x21c>
    3b2c:	00c50533          	add	a0,a0,a2
    3b30:	41a5863b          	subw	a2,a1,s10
    3b34:	40c5053b          	subw	a0,a0,a2
    3b38:	40000637          	lui	a2,0x40000
    3b3c:	000016b7          	lui	a3,0x1
    3b40:	40d406b3          	sub	a3,s0,a3
    3b44:	6ea6bc23          	sd	a0,1784(a3) # 16f8 <.LBB87_5+0x274>
    3b48:	f9043683          	ld	a3,-112(s0)
    3b4c:	00055463          	bgez	a0,3b54 <.LBB87_86>
    3b50:	c0000637          	lui	a2,0xc0000

0000000000003b54 <.LBB87_86>:
    3b54:	f8d43823          	sd	a3,-112(s0)
    3b58:	00001537          	lui	a0,0x1
    3b5c:	40a40533          	sub	a0,s0,a0
    3b60:	6ec53023          	sd	a2,1760(a0) # 16e0 <.LBB87_5+0x25c>
    3b64:	00001537          	lui	a0,0x1
    3b68:	40a40533          	sub	a0,s0,a0
    3b6c:	69853503          	ld	a0,1688(a0) # 1698 <.LBB87_5+0x214>
    3b70:	00001637          	lui	a2,0x1
    3b74:	40c40633          	sub	a2,s0,a2
    3b78:	7c863603          	ld	a2,1992(a2) # 17c8 <.LBB87_5+0x344>
    3b7c:	00a60533          	add	a0,a2,a0
    3b80:	00001637          	lui	a2,0x1
    3b84:	40c40633          	sub	a2,s0,a2
    3b88:	69063603          	ld	a2,1680(a2) # 1690 <.LBB87_5+0x20c>
    3b8c:	00c50533          	add	a0,a0,a2
    3b90:	41a5863b          	subw	a2,a1,s10
    3b94:	40c5053b          	subw	a0,a0,a2
    3b98:	40000637          	lui	a2,0x40000
    3b9c:	000016b7          	lui	a3,0x1
    3ba0:	40d406b3          	sub	a3,s0,a3
    3ba4:	58a6b423          	sd	a0,1416(a3) # 1588 <.LBB87_5+0x104>
    3ba8:	f9043683          	ld	a3,-112(s0)
    3bac:	00055463          	bgez	a0,3bb4 <.LBB87_88>
    3bb0:	c0000637          	lui	a2,0xc0000

0000000000003bb4 <.LBB87_88>:
    3bb4:	f8d43823          	sd	a3,-112(s0)
    3bb8:	00001537          	lui	a0,0x1
    3bbc:	40a40533          	sub	a0,s0,a0
    3bc0:	56c53c23          	sd	a2,1400(a0) # 1578 <.LBB87_5+0xf4>
    3bc4:	00001537          	lui	a0,0x1
    3bc8:	40a40533          	sub	a0,s0,a0
    3bcc:	68853503          	ld	a0,1672(a0) # 1688 <.LBB87_5+0x204>
    3bd0:	00001637          	lui	a2,0x1
    3bd4:	40c40633          	sub	a2,s0,a2
    3bd8:	7d063603          	ld	a2,2000(a2) # 17d0 <.LBB87_5+0x34c>
    3bdc:	00a60533          	add	a0,a2,a0
    3be0:	00001637          	lui	a2,0x1
    3be4:	40c40633          	sub	a2,s0,a2
    3be8:	6d063603          	ld	a2,1744(a2) # 16d0 <.LBB87_5+0x24c>
    3bec:	00c50533          	add	a0,a0,a2
    3bf0:	41a5863b          	subw	a2,a1,s10
    3bf4:	40c5053b          	subw	a0,a0,a2
    3bf8:	40000637          	lui	a2,0x40000
    3bfc:	000016b7          	lui	a3,0x1
    3c00:	40d406b3          	sub	a3,s0,a3
    3c04:	52a6b823          	sd	a0,1328(a3) # 1530 <.LBB87_5+0xac>
    3c08:	f9043683          	ld	a3,-112(s0)
    3c0c:	00055463          	bgez	a0,3c14 <.LBB87_90>
    3c10:	c0000637          	lui	a2,0xc0000

0000000000003c14 <.LBB87_90>:
    3c14:	f8d43823          	sd	a3,-112(s0)
    3c18:	00001537          	lui	a0,0x1
    3c1c:	40a40533          	sub	a0,s0,a0
    3c20:	52c53023          	sd	a2,1312(a0) # 1520 <.LBB87_5+0x9c>
    3c24:	eb043503          	ld	a0,-336(s0)
    3c28:	00001637          	lui	a2,0x1
    3c2c:	40c40633          	sub	a2,s0,a2
    3c30:	7d863603          	ld	a2,2008(a2) # 17d8 <.LBB87_5+0x354>
    3c34:	00a60533          	add	a0,a2,a0
    3c38:	00550533          	add	a0,a0,t0
    3c3c:	41a5863b          	subw	a2,a1,s10
    3c40:	40c5053b          	subw	a0,a0,a2
    3c44:	40000637          	lui	a2,0x40000
    3c48:	000016b7          	lui	a3,0x1
    3c4c:	40d406b3          	sub	a3,s0,a3
    3c50:	4ca6bc23          	sd	a0,1240(a3) # 14d8 <.LBB87_5+0x54>
    3c54:	f9043683          	ld	a3,-112(s0)
    3c58:	00055463          	bgez	a0,3c60 <.LBB87_92>
    3c5c:	c0000637          	lui	a2,0xc0000

0000000000003c60 <.LBB87_92>:
    3c60:	f8d43823          	sd	a3,-112(s0)
    3c64:	00001537          	lui	a0,0x1
    3c68:	40a40533          	sub	a0,s0,a0
    3c6c:	4cc53023          	sd	a2,1216(a0) # 14c0 <.LBB87_5+0x3c>
    3c70:	eb843503          	ld	a0,-328(s0)
    3c74:	00001637          	lui	a2,0x1
    3c78:	40c40633          	sub	a2,s0,a2
    3c7c:	7e063603          	ld	a2,2016(a2) # 17e0 <.LBB87_5+0x35c>
    3c80:	00a60533          	add	a0,a2,a0
    3c84:	00150533          	add	a0,a0,ra
    3c88:	41a5863b          	subw	a2,a1,s10
    3c8c:	40c5053b          	subw	a0,a0,a2
    3c90:	40000637          	lui	a2,0x40000
    3c94:	000016b7          	lui	a3,0x1
    3c98:	40d406b3          	sub	a3,s0,a3
    3c9c:	48a6b023          	sd	a0,1152(a3) # 1480 <.LBB87_4+0x5b8>
    3ca0:	f9043683          	ld	a3,-112(s0)
    3ca4:	00055463          	bgez	a0,3cac <.LBB87_94>
    3ca8:	c0000637          	lui	a2,0xc0000

0000000000003cac <.LBB87_94>:
    3cac:	f8d43823          	sd	a3,-112(s0)
    3cb0:	00001537          	lui	a0,0x1
    3cb4:	40a40533          	sub	a0,s0,a0
    3cb8:	46c53423          	sd	a2,1128(a0) # 1468 <.LBB87_4+0x5a0>
    3cbc:	ec043503          	ld	a0,-320(s0)
    3cc0:	00001637          	lui	a2,0x1
    3cc4:	40c40633          	sub	a2,s0,a2
    3cc8:	7e863603          	ld	a2,2024(a2) # 17e8 <.LBB87_5+0x364>
    3ccc:	00a60533          	add	a0,a2,a0
    3cd0:	01b50533          	add	a0,a0,s11
    3cd4:	41a5863b          	subw	a2,a1,s10
    3cd8:	40c5053b          	subw	a0,a0,a2
    3cdc:	40000637          	lui	a2,0x40000
    3ce0:	000016b7          	lui	a3,0x1
    3ce4:	40d406b3          	sub	a3,s0,a3
    3ce8:	42a6b823          	sd	a0,1072(a3) # 1430 <.LBB87_4+0x568>
    3cec:	f9043683          	ld	a3,-112(s0)
    3cf0:	00055463          	bgez	a0,3cf8 <.LBB87_96>
    3cf4:	c0000637          	lui	a2,0xc0000

0000000000003cf8 <.LBB87_96>:
    3cf8:	f8d43823          	sd	a3,-112(s0)
    3cfc:	00001537          	lui	a0,0x1
    3d00:	40a40533          	sub	a0,s0,a0
    3d04:	40c53c23          	sd	a2,1048(a0) # 1418 <.LBB87_4+0x550>
    3d08:	ec843503          	ld	a0,-312(s0)
    3d0c:	00001637          	lui	a2,0x1
    3d10:	40c40633          	sub	a2,s0,a2
    3d14:	7f063603          	ld	a2,2032(a2) # 17f0 <.LBB87_5+0x36c>
    3d18:	00a60533          	add	a0,a2,a0
    3d1c:	00001637          	lui	a2,0x1
    3d20:	40c40633          	sub	a2,s0,a2
    3d24:	6f063603          	ld	a2,1776(a2) # 16f0 <.LBB87_5+0x26c>
    3d28:	00c50533          	add	a0,a0,a2
    3d2c:	41a5863b          	subw	a2,a1,s10
    3d30:	40c5053b          	subw	a0,a0,a2
    3d34:	40000637          	lui	a2,0x40000
    3d38:	000016b7          	lui	a3,0x1
    3d3c:	40d406b3          	sub	a3,s0,a3
    3d40:	3ca6b423          	sd	a0,968(a3) # 13c8 <.LBB87_4+0x500>
    3d44:	f9043683          	ld	a3,-112(s0)
    3d48:	00055463          	bgez	a0,3d50 <.LBB87_98>
    3d4c:	c0000637          	lui	a2,0xc0000

0000000000003d50 <.LBB87_98>:
    3d50:	f8d43823          	sd	a3,-112(s0)
    3d54:	00001537          	lui	a0,0x1
    3d58:	40a40533          	sub	a0,s0,a0
    3d5c:	3ac53c23          	sd	a2,952(a0) # 13b8 <.LBB87_4+0x4f0>
    3d60:	ed043503          	ld	a0,-304(s0)
    3d64:	00001637          	lui	a2,0x1
    3d68:	40c40633          	sub	a2,s0,a2
    3d6c:	7f863603          	ld	a2,2040(a2) # 17f8 <.LBB87_5+0x374>
    3d70:	00a60533          	add	a0,a2,a0
    3d74:	01950533          	add	a0,a0,s9
    3d78:	41a5863b          	subw	a2,a1,s10
    3d7c:	40c5053b          	subw	a0,a0,a2
    3d80:	40000637          	lui	a2,0x40000
    3d84:	000016b7          	lui	a3,0x1
    3d88:	40d406b3          	sub	a3,s0,a3
    3d8c:	36a6b423          	sd	a0,872(a3) # 1368 <.LBB87_4+0x4a0>
    3d90:	f9043683          	ld	a3,-112(s0)
    3d94:	00055463          	bgez	a0,3d9c <.LBB87_100>
    3d98:	c0000637          	lui	a2,0xc0000

0000000000003d9c <.LBB87_100>:
    3d9c:	f8d43823          	sd	a3,-112(s0)
    3da0:	00001537          	lui	a0,0x1
    3da4:	40a40533          	sub	a0,s0,a0
    3da8:	34c53c23          	sd	a2,856(a0) # 1358 <.LBB87_4+0x490>
    3dac:	ed843503          	ld	a0,-296(s0)
    3db0:	80043603          	ld	a2,-2048(s0)
    3db4:	00a60533          	add	a0,a2,a0
    3db8:	01850533          	add	a0,a0,s8
    3dbc:	41a5863b          	subw	a2,a1,s10
    3dc0:	40c5053b          	subw	a0,a0,a2
    3dc4:	40000637          	lui	a2,0x40000
    3dc8:	000016b7          	lui	a3,0x1
    3dcc:	40d406b3          	sub	a3,s0,a3
    3dd0:	30a6b023          	sd	a0,768(a3) # 1300 <.LBB87_4+0x438>
    3dd4:	f9043683          	ld	a3,-112(s0)
    3dd8:	00055463          	bgez	a0,3de0 <.LBB87_102>
    3ddc:	c0000637          	lui	a2,0xc0000

0000000000003de0 <.LBB87_102>:
    3de0:	f8d43823          	sd	a3,-112(s0)
    3de4:	00001537          	lui	a0,0x1
    3de8:	40a40533          	sub	a0,s0,a0
    3dec:	2ec53823          	sd	a2,752(a0) # 12f0 <.LBB87_4+0x428>
    3df0:	ee043503          	ld	a0,-288(s0)
    3df4:	80843603          	ld	a2,-2040(s0)
    3df8:	00a60533          	add	a0,a2,a0
    3dfc:	01750533          	add	a0,a0,s7
    3e00:	41a5863b          	subw	a2,a1,s10
    3e04:	40c5053b          	subw	a0,a0,a2
    3e08:	40000637          	lui	a2,0x40000
    3e0c:	000016b7          	lui	a3,0x1
    3e10:	40d406b3          	sub	a3,s0,a3
    3e14:	28a6bc23          	sd	a0,664(a3) # 1298 <.LBB87_4+0x3d0>
    3e18:	f9043683          	ld	a3,-112(s0)
    3e1c:	00055463          	bgez	a0,3e24 <.LBB87_104>
    3e20:	c0000637          	lui	a2,0xc0000

0000000000003e24 <.LBB87_104>:
    3e24:	f8d43823          	sd	a3,-112(s0)
    3e28:	00001537          	lui	a0,0x1
    3e2c:	40a40533          	sub	a0,s0,a0
    3e30:	28c53423          	sd	a2,648(a0) # 1288 <.LBB87_4+0x3c0>
    3e34:	ee843503          	ld	a0,-280(s0)
    3e38:	81043603          	ld	a2,-2032(s0)
    3e3c:	00a60533          	add	a0,a2,a0
    3e40:	01650533          	add	a0,a0,s6
    3e44:	41a5863b          	subw	a2,a1,s10
    3e48:	40c5053b          	subw	a0,a0,a2
    3e4c:	40000637          	lui	a2,0x40000
    3e50:	000016b7          	lui	a3,0x1
    3e54:	40d406b3          	sub	a3,s0,a3
    3e58:	22a6b023          	sd	a0,544(a3) # 1220 <.LBB87_4+0x358>
    3e5c:	f9043683          	ld	a3,-112(s0)
    3e60:	00055463          	bgez	a0,3e68 <.LBB87_106>
    3e64:	c0000637          	lui	a2,0xc0000

0000000000003e68 <.LBB87_106>:
    3e68:	f8d43823          	sd	a3,-112(s0)
    3e6c:	00001537          	lui	a0,0x1
    3e70:	40a40533          	sub	a0,s0,a0
    3e74:	20c53823          	sd	a2,528(a0) # 1210 <.LBB87_4+0x348>
    3e78:	ef043503          	ld	a0,-272(s0)
    3e7c:	81843603          	ld	a2,-2024(s0)
    3e80:	00a60533          	add	a0,a2,a0
    3e84:	01e50533          	add	a0,a0,t5
    3e88:	41a5863b          	subw	a2,a1,s10
    3e8c:	40c5053b          	subw	a0,a0,a2
    3e90:	40000637          	lui	a2,0x40000
    3e94:	000016b7          	lui	a3,0x1
    3e98:	40d406b3          	sub	a3,s0,a3
    3e9c:	1aa6b423          	sd	a0,424(a3) # 11a8 <.LBB87_4+0x2e0>
    3ea0:	f9043683          	ld	a3,-112(s0)
    3ea4:	00055463          	bgez	a0,3eac <.LBB87_108>
    3ea8:	c0000637          	lui	a2,0xc0000

0000000000003eac <.LBB87_108>:
    3eac:	f8d43823          	sd	a3,-112(s0)
    3eb0:	00001537          	lui	a0,0x1
    3eb4:	40a40533          	sub	a0,s0,a0
    3eb8:	18c53c23          	sd	a2,408(a0) # 1198 <.LBB87_4+0x2d0>
    3ebc:	ef843503          	ld	a0,-264(s0)
    3ec0:	82043603          	ld	a2,-2016(s0)
    3ec4:	00a60533          	add	a0,a2,a0
    3ec8:	01450533          	add	a0,a0,s4
    3ecc:	41a5863b          	subw	a2,a1,s10
    3ed0:	40c5053b          	subw	a0,a0,a2
    3ed4:	40000637          	lui	a2,0x40000
    3ed8:	000016b7          	lui	a3,0x1
    3edc:	40d406b3          	sub	a3,s0,a3
    3ee0:	12a6b823          	sd	a0,304(a3) # 1130 <.LBB87_4+0x268>
    3ee4:	f9043683          	ld	a3,-112(s0)
    3ee8:	00055463          	bgez	a0,3ef0 <.LBB87_110>
    3eec:	c0000637          	lui	a2,0xc0000

0000000000003ef0 <.LBB87_110>:
    3ef0:	f8d43823          	sd	a3,-112(s0)
    3ef4:	00001537          	lui	a0,0x1
    3ef8:	40a40533          	sub	a0,s0,a0
    3efc:	12c53023          	sd	a2,288(a0) # 1120 <.LBB87_4+0x258>
    3f00:	f3043503          	ld	a0,-208(s0)
    3f04:	82843603          	ld	a2,-2008(s0)
    3f08:	00a60533          	add	a0,a2,a0
    3f0c:	01350533          	add	a0,a0,s3
    3f10:	41a5863b          	subw	a2,a1,s10
    3f14:	40c5053b          	subw	a0,a0,a2
    3f18:	40000637          	lui	a2,0x40000
    3f1c:	000016b7          	lui	a3,0x1
    3f20:	40d406b3          	sub	a3,s0,a3
    3f24:	0aa6bc23          	sd	a0,184(a3) # 10b8 <.LBB87_4+0x1f0>
    3f28:	f9043683          	ld	a3,-112(s0)
    3f2c:	00055463          	bgez	a0,3f34 <.LBB87_112>
    3f30:	c0000637          	lui	a2,0xc0000

0000000000003f34 <.LBB87_112>:
    3f34:	f8d43823          	sd	a3,-112(s0)
    3f38:	00001537          	lui	a0,0x1
    3f3c:	40a40533          	sub	a0,s0,a0
    3f40:	0ac53423          	sd	a2,168(a0) # 10a8 <.LBB87_4+0x1e0>
    3f44:	f3843503          	ld	a0,-200(s0)
    3f48:	83043603          	ld	a2,-2000(s0)
    3f4c:	00a60533          	add	a0,a2,a0
    3f50:	01250533          	add	a0,a0,s2
    3f54:	41a5863b          	subw	a2,a1,s10
    3f58:	40c5053b          	subw	a0,a0,a2
    3f5c:	40000637          	lui	a2,0x40000
    3f60:	000016b7          	lui	a3,0x1
    3f64:	40d406b3          	sub	a3,s0,a3
    3f68:	04a6b023          	sd	a0,64(a3) # 1040 <.LBB87_4+0x178>
    3f6c:	f9043683          	ld	a3,-112(s0)
    3f70:	00055463          	bgez	a0,3f78 <.LBB87_114>
    3f74:	c0000637          	lui	a2,0xc0000

0000000000003f78 <.LBB87_114>:
    3f78:	f8d43823          	sd	a3,-112(s0)
    3f7c:	00001537          	lui	a0,0x1
    3f80:	40a40533          	sub	a0,s0,a0
    3f84:	02c53823          	sd	a2,48(a0) # 1030 <.LBB87_4+0x168>
    3f88:	f4043503          	ld	a0,-192(s0)
    3f8c:	83843603          	ld	a2,-1992(s0)
    3f90:	00a60533          	add	a0,a2,a0
    3f94:	00001637          	lui	a2,0x1
    3f98:	40c40633          	sub	a2,s0,a2
    3f9c:	73863603          	ld	a2,1848(a2) # 1738 <.LBB87_5+0x2b4>
    3fa0:	00c50533          	add	a0,a0,a2
    3fa4:	41a5863b          	subw	a2,a1,s10
    3fa8:	40c5053b          	subw	a0,a0,a2
    3fac:	40000637          	lui	a2,0x40000
    3fb0:	000016b7          	lui	a3,0x1
    3fb4:	40d406b3          	sub	a3,s0,a3
    3fb8:	fca6b423          	sd	a0,-56(a3) # fc8 <.LBB87_4+0x100>
    3fbc:	f9043683          	ld	a3,-112(s0)
    3fc0:	00055463          	bgez	a0,3fc8 <.LBB87_116>
    3fc4:	c0000637          	lui	a2,0xc0000

0000000000003fc8 <.LBB87_116>:
    3fc8:	f8d43823          	sd	a3,-112(s0)
    3fcc:	00001537          	lui	a0,0x1
    3fd0:	40a40533          	sub	a0,s0,a0
    3fd4:	fac53c23          	sd	a2,-72(a0) # fb8 <.LBB87_4+0xf0>
    3fd8:	f4843503          	ld	a0,-184(s0)
    3fdc:	84043603          	ld	a2,-1984(s0)
    3fe0:	00a60533          	add	a0,a2,a0
    3fe4:	00001637          	lui	a2,0x1
    3fe8:	40c40633          	sub	a2,s0,a2
    3fec:	74063603          	ld	a2,1856(a2) # 1740 <.LBB87_5+0x2bc>
    3ff0:	00c50533          	add	a0,a0,a2
    3ff4:	41a5863b          	subw	a2,a1,s10
    3ff8:	40c5053b          	subw	a0,a0,a2
    3ffc:	40000637          	lui	a2,0x40000
    4000:	000016b7          	lui	a3,0x1
    4004:	40d406b3          	sub	a3,s0,a3
    4008:	f4a6b823          	sd	a0,-176(a3) # f50 <.LBB87_4+0x88>
    400c:	f9043683          	ld	a3,-112(s0)
    4010:	00055463          	bgez	a0,4018 <.LBB87_118>
    4014:	c0000637          	lui	a2,0xc0000

0000000000004018 <.LBB87_118>:
    4018:	f8d43823          	sd	a3,-112(s0)
    401c:	00001537          	lui	a0,0x1
    4020:	40a40533          	sub	a0,s0,a0
    4024:	f4c53023          	sd	a2,-192(a0) # f40 <.LBB87_4+0x78>
    4028:	f5043503          	ld	a0,-176(s0)
    402c:	84843603          	ld	a2,-1976(s0)
    4030:	00a60533          	add	a0,a2,a0
    4034:	00001637          	lui	a2,0x1
    4038:	40c40633          	sub	a2,s0,a2
    403c:	74863603          	ld	a2,1864(a2) # 1748 <.LBB87_5+0x2c4>
    4040:	00c50533          	add	a0,a0,a2
    4044:	41a5863b          	subw	a2,a1,s10
    4048:	40c5053b          	subw	a0,a0,a2
    404c:	40000637          	lui	a2,0x40000
    4050:	000016b7          	lui	a3,0x1
    4054:	40d406b3          	sub	a3,s0,a3
    4058:	eea6b023          	sd	a0,-288(a3) # ee0 <.LBB87_4+0x18>
    405c:	f9043683          	ld	a3,-112(s0)
    4060:	00055463          	bgez	a0,4068 <.LBB87_120>
    4064:	c0000637          	lui	a2,0xc0000

0000000000004068 <.LBB87_120>:
    4068:	f8d43823          	sd	a3,-112(s0)
    406c:	00001537          	lui	a0,0x1
    4070:	40a40533          	sub	a0,s0,a0
    4074:	ecc53823          	sd	a2,-304(a0) # ed0 <.LBB87_4+0x8>
    4078:	f5843503          	ld	a0,-168(s0)
    407c:	85043603          	ld	a2,-1968(s0)
    4080:	00a60533          	add	a0,a2,a0
    4084:	00001637          	lui	a2,0x1
    4088:	40c40633          	sub	a2,s0,a2
    408c:	75063603          	ld	a2,1872(a2) # 1750 <.LBB87_5+0x2cc>
    4090:	00c50533          	add	a0,a0,a2
    4094:	41a5863b          	subw	a2,a1,s10
    4098:	40c5053b          	subw	a0,a0,a2
    409c:	40000637          	lui	a2,0x40000
    40a0:	000016b7          	lui	a3,0x1
    40a4:	40d406b3          	sub	a3,s0,a3
    40a8:	e6a6b423          	sd	a0,-408(a3) # e68 <.LBB87_3+0xbf8>
    40ac:	f9043683          	ld	a3,-112(s0)
    40b0:	00055463          	bgez	a0,40b8 <.LBB87_122>
    40b4:	c0000637          	lui	a2,0xc0000

00000000000040b8 <.LBB87_122>:
    40b8:	f8d43823          	sd	a3,-112(s0)
    40bc:	00001537          	lui	a0,0x1
    40c0:	40a40533          	sub	a0,s0,a0
    40c4:	e4c53c23          	sd	a2,-424(a0) # e58 <.LBB87_3+0xbe8>
    40c8:	f6043503          	ld	a0,-160(s0)
    40cc:	85843603          	ld	a2,-1960(s0)
    40d0:	00a60533          	add	a0,a2,a0
    40d4:	00001637          	lui	a2,0x1
    40d8:	40c40633          	sub	a2,s0,a2
    40dc:	75863603          	ld	a2,1880(a2) # 1758 <.LBB87_5+0x2d4>
    40e0:	00c50533          	add	a0,a0,a2
    40e4:	41a5863b          	subw	a2,a1,s10
    40e8:	40c5053b          	subw	a0,a0,a2
    40ec:	40000637          	lui	a2,0x40000
    40f0:	000016b7          	lui	a3,0x1
    40f4:	40d406b3          	sub	a3,s0,a3
    40f8:	dea6bc23          	sd	a0,-520(a3) # df8 <.LBB87_3+0xb88>
    40fc:	f9043683          	ld	a3,-112(s0)
    4100:	00055463          	bgez	a0,4108 <.LBB87_124>
    4104:	c0000637          	lui	a2,0xc0000

0000000000004108 <.LBB87_124>:
    4108:	f8d43823          	sd	a3,-112(s0)
    410c:	00001537          	lui	a0,0x1
    4110:	40a40533          	sub	a0,s0,a0
    4114:	dec53423          	sd	a2,-536(a0) # de8 <.LBB87_3+0xb78>
    4118:	f6843503          	ld	a0,-152(s0)
    411c:	86043603          	ld	a2,-1952(s0)
    4120:	00a60533          	add	a0,a2,a0
    4124:	01550533          	add	a0,a0,s5
    4128:	41a5863b          	subw	a2,a1,s10
    412c:	40c5053b          	subw	a0,a0,a2
    4130:	40000637          	lui	a2,0x40000
    4134:	000016b7          	lui	a3,0x1
    4138:	40d406b3          	sub	a3,s0,a3
    413c:	d8a6b023          	sd	a0,-640(a3) # d80 <.LBB87_3+0xb10>
    4140:	f9043683          	ld	a3,-112(s0)
    4144:	00055463          	bgez	a0,414c <.LBB87_126>
    4148:	c0000637          	lui	a2,0xc0000

000000000000414c <.LBB87_126>:
    414c:	f8d43823          	sd	a3,-112(s0)
    4150:	00001537          	lui	a0,0x1
    4154:	40a40533          	sub	a0,s0,a0
    4158:	d6c53823          	sd	a2,-656(a0) # d70 <.LBB87_3+0xb00>
    415c:	f7043503          	ld	a0,-144(s0)
    4160:	86843603          	ld	a2,-1944(s0)
    4164:	00a60533          	add	a0,a2,a0
    4168:	01f50533          	add	a0,a0,t6
    416c:	41a5863b          	subw	a2,a1,s10
    4170:	40c5053b          	subw	a0,a0,a2
    4174:	40000637          	lui	a2,0x40000
    4178:	000016b7          	lui	a3,0x1
    417c:	40d406b3          	sub	a3,s0,a3
    4180:	d0a6b423          	sd	a0,-760(a3) # d08 <.LBB87_3+0xa98>
    4184:	f9043683          	ld	a3,-112(s0)
    4188:	00055463          	bgez	a0,4190 <.LBB87_128>
    418c:	c0000637          	lui	a2,0xc0000

0000000000004190 <.LBB87_128>:
    4190:	f8d43823          	sd	a3,-112(s0)
    4194:	00001537          	lui	a0,0x1
    4198:	40a40533          	sub	a0,s0,a0
    419c:	cec53c23          	sd	a2,-776(a0) # cf8 <.LBB87_3+0xa88>
    41a0:	f7843503          	ld	a0,-136(s0)
    41a4:	87043603          	ld	a2,-1936(s0)
    41a8:	00a60533          	add	a0,a2,a0
    41ac:	01150533          	add	a0,a0,a7
    41b0:	41a5863b          	subw	a2,a1,s10
    41b4:	40c5053b          	subw	a0,a0,a2
    41b8:	40000637          	lui	a2,0x40000
    41bc:	000016b7          	lui	a3,0x1
    41c0:	40d406b3          	sub	a3,s0,a3
    41c4:	c8a6bc23          	sd	a0,-872(a3) # c98 <.LBB87_3+0xa28>
    41c8:	f9043683          	ld	a3,-112(s0)
    41cc:	00055463          	bgez	a0,41d4 <.LBB87_130>
    41d0:	c0000637          	lui	a2,0xc0000

00000000000041d4 <.LBB87_130>:
    41d4:	f8d43823          	sd	a3,-112(s0)
    41d8:	00001537          	lui	a0,0x1
    41dc:	40a40533          	sub	a0,s0,a0
    41e0:	c8c53823          	sd	a2,-880(a0) # c90 <.LBB87_3+0xa20>
    41e4:	f8043503          	ld	a0,-128(s0)
    41e8:	87843603          	ld	a2,-1928(s0)
    41ec:	00a60533          	add	a0,a2,a0
    41f0:	00001637          	lui	a2,0x1
    41f4:	40c40633          	sub	a2,s0,a2
    41f8:	77863603          	ld	a2,1912(a2) # 1778 <.LBB87_5+0x2f4>
    41fc:	00c50533          	add	a0,a0,a2
    4200:	41a5863b          	subw	a2,a1,s10
    4204:	40c5053b          	subw	a0,a0,a2
    4208:	40000637          	lui	a2,0x40000
    420c:	000016b7          	lui	a3,0x1
    4210:	40d406b3          	sub	a3,s0,a3
    4214:	c4a6b823          	sd	a0,-944(a3) # c50 <.LBB87_3+0x9e0>
    4218:	f9043683          	ld	a3,-112(s0)
    421c:	00055463          	bgez	a0,4224 <.LBB87_132>
    4220:	c0000637          	lui	a2,0xc0000

0000000000004224 <.LBB87_132>:
    4224:	00001537          	lui	a0,0x1
    4228:	40a40533          	sub	a0,s0,a0
    422c:	c4c53423          	sd	a2,-952(a0) # c48 <.LBB87_3+0x9d8>
    4230:	f8843503          	ld	a0,-120(s0)
    4234:	00a70533          	add	a0,a4,a0
    4238:	00d50533          	add	a0,a0,a3
    423c:	41a585bb          	subw	a1,a1,s10
    4240:	40b5073b          	subw	a4,a0,a1
    4244:	40000537          	lui	a0,0x40000
    4248:	00075463          	bgez	a4,4250 <.LBB87_134>
    424c:	c0000537          	lui	a0,0xc0000

0000000000004250 <.LBB87_134>:
    4250:	000015b7          	lui	a1,0x1
    4254:	40b405b3          	sub	a1,s0,a1
    4258:	baa5b823          	sd	a0,-1104(a1) # bb0 <.LBB87_3+0x940>
    425c:	ea843583          	ld	a1,-344(s0)
    4260:	88843503          	ld	a0,-1912(s0)
    4264:	00b505b3          	add	a1,a0,a1
    4268:	00001537          	lui	a0,0x1
    426c:	40a40533          	sub	a0,s0,a0
    4270:	5c853503          	ld	a0,1480(a0) # 15c8 <.LBB87_5+0x144>
    4274:	02950533          	mul	a0,a0,s1
    4278:	ea043603          	ld	a2,-352(s0)
    427c:	00c585b3          	add	a1,a1,a2
    4280:	41a5063b          	subw	a2,a0,s10
    4284:	40c585bb          	subw	a1,a1,a2
    4288:	40000637          	lui	a2,0x40000
    428c:	88b43423          	sd	a1,-1912(s0)
    4290:	0005d463          	bgez	a1,4298 <.LBB87_136>
    4294:	c0000637          	lui	a2,0xc0000

0000000000004298 <.LBB87_136>:
    4298:	88c43023          	sd	a2,-1920(s0)
    429c:	e9843583          	ld	a1,-360(s0)
    42a0:	89043603          	ld	a2,-1904(s0)
    42a4:	00b605b3          	add	a1,a2,a1
    42a8:	e9043603          	ld	a2,-368(s0)
    42ac:	00c585b3          	add	a1,a1,a2
    42b0:	41a5063b          	subw	a2,a0,s10
    42b4:	40c585bb          	subw	a1,a1,a2
    42b8:	40000637          	lui	a2,0x40000
    42bc:	88b43823          	sd	a1,-1904(s0)
    42c0:	0005d463          	bgez	a1,42c8 <.LBB87_138>
    42c4:	c0000637          	lui	a2,0xc0000

00000000000042c8 <.LBB87_138>:
    42c8:	86c43c23          	sd	a2,-1928(s0)
    42cc:	e8843583          	ld	a1,-376(s0)
    42d0:	89843603          	ld	a2,-1896(s0)
    42d4:	00b605b3          	add	a1,a2,a1
    42d8:	e8043603          	ld	a2,-384(s0)
    42dc:	00c585b3          	add	a1,a1,a2
    42e0:	41a5063b          	subw	a2,a0,s10
    42e4:	40c585bb          	subw	a1,a1,a2
    42e8:	40000637          	lui	a2,0x40000
    42ec:	88b43c23          	sd	a1,-1896(s0)
    42f0:	0005d463          	bgez	a1,42f8 <.LBB87_140>
    42f4:	c0000637          	lui	a2,0xc0000

00000000000042f8 <.LBB87_140>:
    42f8:	86c43823          	sd	a2,-1936(s0)
    42fc:	e7843583          	ld	a1,-392(s0)
    4300:	8a043603          	ld	a2,-1888(s0)
    4304:	00b605b3          	add	a1,a2,a1
    4308:	e7043603          	ld	a2,-400(s0)
    430c:	00c585b3          	add	a1,a1,a2
    4310:	41a5063b          	subw	a2,a0,s10
    4314:	40c585bb          	subw	a1,a1,a2
    4318:	40000637          	lui	a2,0x40000
    431c:	8ab43023          	sd	a1,-1888(s0)
    4320:	0005d463          	bgez	a1,4328 <.LBB87_142>
    4324:	c0000637          	lui	a2,0xc0000

0000000000004328 <.LBB87_142>:
    4328:	86c43423          	sd	a2,-1944(s0)
    432c:	e6843583          	ld	a1,-408(s0)
    4330:	8a843603          	ld	a2,-1880(s0)
    4334:	00b605b3          	add	a1,a2,a1
    4338:	e6043603          	ld	a2,-416(s0)
    433c:	00c585b3          	add	a1,a1,a2
    4340:	41a5063b          	subw	a2,a0,s10
    4344:	40c585bb          	subw	a1,a1,a2
    4348:	40000637          	lui	a2,0x40000
    434c:	8ab43423          	sd	a1,-1880(s0)
    4350:	0005d463          	bgez	a1,4358 <.LBB87_144>
    4354:	c0000637          	lui	a2,0xc0000

0000000000004358 <.LBB87_144>:
    4358:	86c43023          	sd	a2,-1952(s0)
    435c:	000015b7          	lui	a1,0x1
    4360:	40b405b3          	sub	a1,s0,a1
    4364:	6c85b583          	ld	a1,1736(a1) # 16c8 <.LBB87_5+0x244>
    4368:	8b043603          	ld	a2,-1872(s0)
    436c:	00b605b3          	add	a1,a2,a1
    4370:	00001637          	lui	a2,0x1
    4374:	40c40633          	sub	a2,s0,a2
    4378:	6c063603          	ld	a2,1728(a2) # 16c0 <.LBB87_5+0x23c>
    437c:	00c585b3          	add	a1,a1,a2
    4380:	41a5063b          	subw	a2,a0,s10
    4384:	40c585bb          	subw	a1,a1,a2
    4388:	40000637          	lui	a2,0x40000
    438c:	8ab43823          	sd	a1,-1872(s0)
    4390:	0005d463          	bgez	a1,4398 <.LBB87_146>
    4394:	c0000637          	lui	a2,0xc0000

0000000000004398 <.LBB87_146>:
    4398:	84c43c23          	sd	a2,-1960(s0)
    439c:	f8d43823          	sd	a3,-112(s0)
    43a0:	000015b7          	lui	a1,0x1
    43a4:	40b405b3          	sub	a1,s0,a1
    43a8:	6b85b583          	ld	a1,1720(a1) # 16b8 <.LBB87_5+0x234>
    43ac:	8b843603          	ld	a2,-1864(s0)
    43b0:	00b605b3          	add	a1,a2,a1
    43b4:	00001637          	lui	a2,0x1
    43b8:	40c40633          	sub	a2,s0,a2
    43bc:	6b063603          	ld	a2,1712(a2) # 16b0 <.LBB87_5+0x22c>
    43c0:	00c585b3          	add	a1,a1,a2
    43c4:	41a5063b          	subw	a2,a0,s10
    43c8:	40c585bb          	subw	a1,a1,a2
    43cc:	40000637          	lui	a2,0x40000
    43d0:	000016b7          	lui	a3,0x1
    43d4:	40d406b3          	sub	a3,s0,a3
    43d8:	7eb6bc23          	sd	a1,2040(a3) # 17f8 <.LBB87_5+0x374>
    43dc:	f9043683          	ld	a3,-112(s0)
    43e0:	0005d463          	bgez	a1,43e8 <.LBB87_148>
    43e4:	c0000637          	lui	a2,0xc0000

00000000000043e8 <.LBB87_148>:
    43e8:	f8d43823          	sd	a3,-112(s0)
    43ec:	000015b7          	lui	a1,0x1
    43f0:	40b405b3          	sub	a1,s0,a1
    43f4:	7cc5bc23          	sd	a2,2008(a1) # 17d8 <.LBB87_5+0x354>
    43f8:	000015b7          	lui	a1,0x1
    43fc:	40b405b3          	sub	a1,s0,a1
    4400:	6a85b583          	ld	a1,1704(a1) # 16a8 <.LBB87_5+0x224>
    4404:	8c043603          	ld	a2,-1856(s0)
    4408:	00b605b3          	add	a1,a2,a1
    440c:	00001637          	lui	a2,0x1
    4410:	40c40633          	sub	a2,s0,a2
    4414:	6a063603          	ld	a2,1696(a2) # 16a0 <.LBB87_5+0x21c>
    4418:	00c585b3          	add	a1,a1,a2
    441c:	41a5063b          	subw	a2,a0,s10
    4420:	40c585bb          	subw	a1,a1,a2
    4424:	40000637          	lui	a2,0x40000
    4428:	000016b7          	lui	a3,0x1
    442c:	40d406b3          	sub	a3,s0,a3
    4430:	6eb6b423          	sd	a1,1768(a3) # 16e8 <.LBB87_5+0x264>
    4434:	f9043683          	ld	a3,-112(s0)
    4438:	0005d463          	bgez	a1,4440 <.LBB87_150>
    443c:	c0000637          	lui	a2,0xc0000

0000000000004440 <.LBB87_150>:
    4440:	f8d43823          	sd	a3,-112(s0)
    4444:	000015b7          	lui	a1,0x1
    4448:	40b405b3          	sub	a1,s0,a1
    444c:	5cc5b423          	sd	a2,1480(a1) # 15c8 <.LBB87_5+0x144>
    4450:	8c843583          	ld	a1,-1848(s0)
    4454:	00001637          	lui	a2,0x1
    4458:	40c40633          	sub	a2,s0,a2
    445c:	69863603          	ld	a2,1688(a2) # 1698 <.LBB87_5+0x214>
    4460:	00c585b3          	add	a1,a1,a2
    4464:	00001637          	lui	a2,0x1
    4468:	40c40633          	sub	a2,s0,a2
    446c:	69063603          	ld	a2,1680(a2) # 1690 <.LBB87_5+0x20c>
    4470:	00c585b3          	add	a1,a1,a2
    4474:	41a5063b          	subw	a2,a0,s10
    4478:	40c585bb          	subw	a1,a1,a2
    447c:	40000637          	lui	a2,0x40000
    4480:	000016b7          	lui	a3,0x1
    4484:	40d406b3          	sub	a3,s0,a3
    4488:	58b6b023          	sd	a1,1408(a3) # 1580 <.LBB87_5+0xfc>
    448c:	f9043683          	ld	a3,-112(s0)
    4490:	0005d463          	bgez	a1,4498 <.LBB87_152>
    4494:	c0000637          	lui	a2,0xc0000

0000000000004498 <.LBB87_152>:
    4498:	f8d43823          	sd	a3,-112(s0)
    449c:	000015b7          	lui	a1,0x1
    44a0:	40b405b3          	sub	a1,s0,a1
    44a4:	56c5b823          	sd	a2,1392(a1) # 1570 <.LBB87_5+0xec>
    44a8:	8d043583          	ld	a1,-1840(s0)
    44ac:	00001637          	lui	a2,0x1
    44b0:	40c40633          	sub	a2,s0,a2
    44b4:	68863603          	ld	a2,1672(a2) # 1688 <.LBB87_5+0x204>
    44b8:	00c585b3          	add	a1,a1,a2
    44bc:	00001637          	lui	a2,0x1
    44c0:	40c40633          	sub	a2,s0,a2
    44c4:	6d063603          	ld	a2,1744(a2) # 16d0 <.LBB87_5+0x24c>
    44c8:	00c585b3          	add	a1,a1,a2
    44cc:	41a5063b          	subw	a2,a0,s10
    44d0:	40c585bb          	subw	a1,a1,a2
    44d4:	40000637          	lui	a2,0x40000
    44d8:	000016b7          	lui	a3,0x1
    44dc:	40d406b3          	sub	a3,s0,a3
    44e0:	52b6b423          	sd	a1,1320(a3) # 1528 <.LBB87_5+0xa4>
    44e4:	f9043683          	ld	a3,-112(s0)
    44e8:	0005d463          	bgez	a1,44f0 <.LBB87_154>
    44ec:	c0000637          	lui	a2,0xc0000

00000000000044f0 <.LBB87_154>:
    44f0:	f8d43823          	sd	a3,-112(s0)
    44f4:	000015b7          	lui	a1,0x1
    44f8:	40b405b3          	sub	a1,s0,a1
    44fc:	50c5b823          	sd	a2,1296(a1) # 1510 <.LBB87_5+0x8c>
    4500:	8d843583          	ld	a1,-1832(s0)
    4504:	eb043603          	ld	a2,-336(s0)
    4508:	00c585b3          	add	a1,a1,a2
    450c:	005585b3          	add	a1,a1,t0
    4510:	41a5063b          	subw	a2,a0,s10
    4514:	40c585bb          	subw	a1,a1,a2
    4518:	40000637          	lui	a2,0x40000
    451c:	000016b7          	lui	a3,0x1
    4520:	40d406b3          	sub	a3,s0,a3
    4524:	4cb6b423          	sd	a1,1224(a3) # 14c8 <.LBB87_5+0x44>
    4528:	f9043683          	ld	a3,-112(s0)
    452c:	0005d463          	bgez	a1,4534 <.LBB87_156>
    4530:	c0000637          	lui	a2,0xc0000

0000000000004534 <.LBB87_156>:
    4534:	f8d43823          	sd	a3,-112(s0)
    4538:	000015b7          	lui	a1,0x1
    453c:	40b405b3          	sub	a1,s0,a1
    4540:	4ac5bc23          	sd	a2,1208(a1) # 14b8 <.LBB87_5+0x34>
    4544:	8e043583          	ld	a1,-1824(s0)
    4548:	eb843603          	ld	a2,-328(s0)
    454c:	00c585b3          	add	a1,a1,a2
    4550:	001585b3          	add	a1,a1,ra
    4554:	41a5063b          	subw	a2,a0,s10
    4558:	40c585bb          	subw	a1,a1,a2
    455c:	40000637          	lui	a2,0x40000
    4560:	000016b7          	lui	a3,0x1
    4564:	40d406b3          	sub	a3,s0,a3
    4568:	46b6bc23          	sd	a1,1144(a3) # 1478 <.LBB87_4+0x5b0>
    456c:	f9043683          	ld	a3,-112(s0)
    4570:	0005d463          	bgez	a1,4578 <.LBB87_158>
    4574:	c0000637          	lui	a2,0xc0000

0000000000004578 <.LBB87_158>:
    4578:	f8d43823          	sd	a3,-112(s0)
    457c:	000015b7          	lui	a1,0x1
    4580:	40b405b3          	sub	a1,s0,a1
    4584:	46c5b023          	sd	a2,1120(a1) # 1460 <.LBB87_4+0x598>
    4588:	8e843583          	ld	a1,-1816(s0)
    458c:	ec043603          	ld	a2,-320(s0)
    4590:	00c585b3          	add	a1,a1,a2
    4594:	01b585b3          	add	a1,a1,s11
    4598:	41a5063b          	subw	a2,a0,s10
    459c:	40c585bb          	subw	a1,a1,a2
    45a0:	40000637          	lui	a2,0x40000
    45a4:	000016b7          	lui	a3,0x1
    45a8:	40d406b3          	sub	a3,s0,a3
    45ac:	42b6b023          	sd	a1,1056(a3) # 1420 <.LBB87_4+0x558>
    45b0:	f9043683          	ld	a3,-112(s0)
    45b4:	0005d463          	bgez	a1,45bc <.LBB87_160>
    45b8:	c0000637          	lui	a2,0xc0000

00000000000045bc <.LBB87_160>:
    45bc:	f8d43823          	sd	a3,-112(s0)
    45c0:	000015b7          	lui	a1,0x1
    45c4:	40b405b3          	sub	a1,s0,a1
    45c8:	40c5b423          	sd	a2,1032(a1) # 1408 <.LBB87_4+0x540>
    45cc:	8f043583          	ld	a1,-1808(s0)
    45d0:	ec843603          	ld	a2,-312(s0)
    45d4:	00c585b3          	add	a1,a1,a2
    45d8:	00001637          	lui	a2,0x1
    45dc:	40c40633          	sub	a2,s0,a2
    45e0:	6f063603          	ld	a2,1776(a2) # 16f0 <.LBB87_5+0x26c>
    45e4:	00c585b3          	add	a1,a1,a2
    45e8:	41a5063b          	subw	a2,a0,s10
    45ec:	40c585bb          	subw	a1,a1,a2
    45f0:	40000637          	lui	a2,0x40000
    45f4:	000016b7          	lui	a3,0x1
    45f8:	40d406b3          	sub	a3,s0,a3
    45fc:	3cb6b023          	sd	a1,960(a3) # 13c0 <.LBB87_4+0x4f8>
    4600:	f9043683          	ld	a3,-112(s0)
    4604:	0005d463          	bgez	a1,460c <.LBB87_162>
    4608:	c0000637          	lui	a2,0xc0000

000000000000460c <.LBB87_162>:
    460c:	f8d43823          	sd	a3,-112(s0)
    4610:	000015b7          	lui	a1,0x1
    4614:	40b405b3          	sub	a1,s0,a1
    4618:	3ac5b423          	sd	a2,936(a1) # 13a8 <.LBB87_4+0x4e0>
    461c:	8f843583          	ld	a1,-1800(s0)
    4620:	ed043603          	ld	a2,-304(s0)
    4624:	00c585b3          	add	a1,a1,a2
    4628:	019585b3          	add	a1,a1,s9
    462c:	41a5063b          	subw	a2,a0,s10
    4630:	40c585bb          	subw	a1,a1,a2
    4634:	40000637          	lui	a2,0x40000
    4638:	000016b7          	lui	a3,0x1
    463c:	40d406b3          	sub	a3,s0,a3
    4640:	36b6b023          	sd	a1,864(a3) # 1360 <.LBB87_4+0x498>
    4644:	f9043683          	ld	a3,-112(s0)
    4648:	0005d463          	bgez	a1,4650 <.LBB87_164>
    464c:	c0000637          	lui	a2,0xc0000

0000000000004650 <.LBB87_164>:
    4650:	f8d43823          	sd	a3,-112(s0)
    4654:	000015b7          	lui	a1,0x1
    4658:	40b405b3          	sub	a1,s0,a1
    465c:	34c5b823          	sd	a2,848(a1) # 1350 <.LBB87_4+0x488>
    4660:	90043583          	ld	a1,-1792(s0)
    4664:	ed843603          	ld	a2,-296(s0)
    4668:	00c585b3          	add	a1,a1,a2
    466c:	018585b3          	add	a1,a1,s8
    4670:	41a5063b          	subw	a2,a0,s10
    4674:	40c585bb          	subw	a1,a1,a2
    4678:	40000637          	lui	a2,0x40000
    467c:	000016b7          	lui	a3,0x1
    4680:	40d406b3          	sub	a3,s0,a3
    4684:	2eb6bc23          	sd	a1,760(a3) # 12f8 <.LBB87_4+0x430>
    4688:	f9043683          	ld	a3,-112(s0)
    468c:	0005d463          	bgez	a1,4694 <.LBB87_166>
    4690:	c0000637          	lui	a2,0xc0000

0000000000004694 <.LBB87_166>:
    4694:	f8d43823          	sd	a3,-112(s0)
    4698:	000015b7          	lui	a1,0x1
    469c:	40b405b3          	sub	a1,s0,a1
    46a0:	2ec5b423          	sd	a2,744(a1) # 12e8 <.LBB87_4+0x420>
    46a4:	90843583          	ld	a1,-1784(s0)
    46a8:	ee043603          	ld	a2,-288(s0)
    46ac:	00c585b3          	add	a1,a1,a2
    46b0:	017585b3          	add	a1,a1,s7
    46b4:	41a5063b          	subw	a2,a0,s10
    46b8:	40c585bb          	subw	a1,a1,a2
    46bc:	40000637          	lui	a2,0x40000
    46c0:	000016b7          	lui	a3,0x1
    46c4:	40d406b3          	sub	a3,s0,a3
    46c8:	28b6b823          	sd	a1,656(a3) # 1290 <.LBB87_4+0x3c8>
    46cc:	f9043683          	ld	a3,-112(s0)
    46d0:	0005d463          	bgez	a1,46d8 <.LBB87_168>
    46d4:	c0000637          	lui	a2,0xc0000

00000000000046d8 <.LBB87_168>:
    46d8:	f8d43823          	sd	a3,-112(s0)
    46dc:	000015b7          	lui	a1,0x1
    46e0:	40b405b3          	sub	a1,s0,a1
    46e4:	26c5bc23          	sd	a2,632(a1) # 1278 <.LBB87_4+0x3b0>
    46e8:	91043583          	ld	a1,-1776(s0)
    46ec:	ee843603          	ld	a2,-280(s0)
    46f0:	00c585b3          	add	a1,a1,a2
    46f4:	016585b3          	add	a1,a1,s6
    46f8:	41a5063b          	subw	a2,a0,s10
    46fc:	40c585bb          	subw	a1,a1,a2
    4700:	40000637          	lui	a2,0x40000
    4704:	000016b7          	lui	a3,0x1
    4708:	40d406b3          	sub	a3,s0,a3
    470c:	20b6bc23          	sd	a1,536(a3) # 1218 <.LBB87_4+0x350>
    4710:	f9043683          	ld	a3,-112(s0)
    4714:	0005d463          	bgez	a1,471c <.LBB87_170>
    4718:	c0000637          	lui	a2,0xc0000

000000000000471c <.LBB87_170>:
    471c:	f8d43823          	sd	a3,-112(s0)
    4720:	000015b7          	lui	a1,0x1
    4724:	40b405b3          	sub	a1,s0,a1
    4728:	20c5b023          	sd	a2,512(a1) # 1200 <.LBB87_4+0x338>
    472c:	91843583          	ld	a1,-1768(s0)
    4730:	ef043603          	ld	a2,-272(s0)
    4734:	00c585b3          	add	a1,a1,a2
    4738:	01e585b3          	add	a1,a1,t5
    473c:	41a5063b          	subw	a2,a0,s10
    4740:	40c585bb          	subw	a1,a1,a2
    4744:	40000637          	lui	a2,0x40000
    4748:	000016b7          	lui	a3,0x1
    474c:	40d406b3          	sub	a3,s0,a3
    4750:	1ab6b023          	sd	a1,416(a3) # 11a0 <.LBB87_4+0x2d8>
    4754:	f9043683          	ld	a3,-112(s0)
    4758:	0005d463          	bgez	a1,4760 <.LBB87_172>
    475c:	c0000637          	lui	a2,0xc0000

0000000000004760 <.LBB87_172>:
    4760:	f8d43823          	sd	a3,-112(s0)
    4764:	000015b7          	lui	a1,0x1
    4768:	40b405b3          	sub	a1,s0,a1
    476c:	18c5b423          	sd	a2,392(a1) # 1188 <.LBB87_4+0x2c0>
    4770:	92043583          	ld	a1,-1760(s0)
    4774:	ef843603          	ld	a2,-264(s0)
    4778:	00c585b3          	add	a1,a1,a2
    477c:	014585b3          	add	a1,a1,s4
    4780:	41a5063b          	subw	a2,a0,s10
    4784:	40c585bb          	subw	a1,a1,a2
    4788:	40000637          	lui	a2,0x40000
    478c:	000016b7          	lui	a3,0x1
    4790:	40d406b3          	sub	a3,s0,a3
    4794:	12b6b423          	sd	a1,296(a3) # 1128 <.LBB87_4+0x260>
    4798:	f9043683          	ld	a3,-112(s0)
    479c:	0005d463          	bgez	a1,47a4 <.LBB87_174>
    47a0:	c0000637          	lui	a2,0xc0000

00000000000047a4 <.LBB87_174>:
    47a4:	f8d43823          	sd	a3,-112(s0)
    47a8:	000015b7          	lui	a1,0x1
    47ac:	40b405b3          	sub	a1,s0,a1
    47b0:	10c5b823          	sd	a2,272(a1) # 1110 <.LBB87_4+0x248>
    47b4:	92843583          	ld	a1,-1752(s0)
    47b8:	f3043603          	ld	a2,-208(s0)
    47bc:	00c585b3          	add	a1,a1,a2
    47c0:	013585b3          	add	a1,a1,s3
    47c4:	41a5063b          	subw	a2,a0,s10
    47c8:	40c585bb          	subw	a1,a1,a2
    47cc:	40000637          	lui	a2,0x40000
    47d0:	000016b7          	lui	a3,0x1
    47d4:	40d406b3          	sub	a3,s0,a3
    47d8:	0ab6b823          	sd	a1,176(a3) # 10b0 <.LBB87_4+0x1e8>
    47dc:	f9043683          	ld	a3,-112(s0)
    47e0:	0005d463          	bgez	a1,47e8 <.LBB87_176>
    47e4:	c0000637          	lui	a2,0xc0000

00000000000047e8 <.LBB87_176>:
    47e8:	f8d43823          	sd	a3,-112(s0)
    47ec:	000015b7          	lui	a1,0x1
    47f0:	40b405b3          	sub	a1,s0,a1
    47f4:	08c5bc23          	sd	a2,152(a1) # 1098 <.LBB87_4+0x1d0>
    47f8:	93043583          	ld	a1,-1744(s0)
    47fc:	f3843603          	ld	a2,-200(s0)
    4800:	00c585b3          	add	a1,a1,a2
    4804:	012585b3          	add	a1,a1,s2
    4808:	41a5063b          	subw	a2,a0,s10
    480c:	40c585bb          	subw	a1,a1,a2
    4810:	40000637          	lui	a2,0x40000
    4814:	000016b7          	lui	a3,0x1
    4818:	40d406b3          	sub	a3,s0,a3
    481c:	02b6bc23          	sd	a1,56(a3) # 1038 <.LBB87_4+0x170>
    4820:	f9043683          	ld	a3,-112(s0)
    4824:	0005d463          	bgez	a1,482c <.LBB87_178>
    4828:	c0000637          	lui	a2,0xc0000

000000000000482c <.LBB87_178>:
    482c:	f8d43823          	sd	a3,-112(s0)
    4830:	000015b7          	lui	a1,0x1
    4834:	40b405b3          	sub	a1,s0,a1
    4838:	02c5b023          	sd	a2,32(a1) # 1020 <.LBB87_4+0x158>
    483c:	93843583          	ld	a1,-1736(s0)
    4840:	f4043603          	ld	a2,-192(s0)
    4844:	00c585b3          	add	a1,a1,a2
    4848:	00001637          	lui	a2,0x1
    484c:	40c40633          	sub	a2,s0,a2
    4850:	73863603          	ld	a2,1848(a2) # 1738 <.LBB87_5+0x2b4>
    4854:	00c585b3          	add	a1,a1,a2
    4858:	41a5063b          	subw	a2,a0,s10
    485c:	40c585bb          	subw	a1,a1,a2
    4860:	40000637          	lui	a2,0x40000
    4864:	000016b7          	lui	a3,0x1
    4868:	40d406b3          	sub	a3,s0,a3
    486c:	fcb6b023          	sd	a1,-64(a3) # fc0 <.LBB87_4+0xf8>
    4870:	f9043683          	ld	a3,-112(s0)
    4874:	0005d463          	bgez	a1,487c <.LBB87_180>
    4878:	c0000637          	lui	a2,0xc0000

000000000000487c <.LBB87_180>:
    487c:	f8d43823          	sd	a3,-112(s0)
    4880:	000015b7          	lui	a1,0x1
    4884:	40b405b3          	sub	a1,s0,a1
    4888:	fac5b423          	sd	a2,-88(a1) # fa8 <.LBB87_4+0xe0>
    488c:	94043583          	ld	a1,-1728(s0)
    4890:	f4843603          	ld	a2,-184(s0)
    4894:	00c585b3          	add	a1,a1,a2
    4898:	00001637          	lui	a2,0x1
    489c:	40c40633          	sub	a2,s0,a2
    48a0:	74063603          	ld	a2,1856(a2) # 1740 <.LBB87_5+0x2bc>
    48a4:	00c585b3          	add	a1,a1,a2
    48a8:	41a5063b          	subw	a2,a0,s10
    48ac:	40c585bb          	subw	a1,a1,a2
    48b0:	40000637          	lui	a2,0x40000
    48b4:	000016b7          	lui	a3,0x1
    48b8:	40d406b3          	sub	a3,s0,a3
    48bc:	f4b6b423          	sd	a1,-184(a3) # f48 <.LBB87_4+0x80>
    48c0:	f9043683          	ld	a3,-112(s0)
    48c4:	0005d463          	bgez	a1,48cc <.LBB87_182>
    48c8:	c0000637          	lui	a2,0xc0000

00000000000048cc <.LBB87_182>:
    48cc:	f8d43823          	sd	a3,-112(s0)
    48d0:	000015b7          	lui	a1,0x1
    48d4:	40b405b3          	sub	a1,s0,a1
    48d8:	f2c5b823          	sd	a2,-208(a1) # f30 <.LBB87_4+0x68>
    48dc:	94843583          	ld	a1,-1720(s0)
    48e0:	f5043603          	ld	a2,-176(s0)
    48e4:	00c585b3          	add	a1,a1,a2
    48e8:	00001637          	lui	a2,0x1
    48ec:	40c40633          	sub	a2,s0,a2
    48f0:	74863603          	ld	a2,1864(a2) # 1748 <.LBB87_5+0x2c4>
    48f4:	00c585b3          	add	a1,a1,a2
    48f8:	41a5063b          	subw	a2,a0,s10
    48fc:	40c585bb          	subw	a1,a1,a2
    4900:	40000637          	lui	a2,0x40000
    4904:	000016b7          	lui	a3,0x1
    4908:	40d406b3          	sub	a3,s0,a3
    490c:	ecb6bc23          	sd	a1,-296(a3) # ed8 <.LBB87_4+0x10>
    4910:	f9043683          	ld	a3,-112(s0)
    4914:	0005d463          	bgez	a1,491c <.LBB87_184>
    4918:	c0000637          	lui	a2,0xc0000

000000000000491c <.LBB87_184>:
    491c:	f8d43823          	sd	a3,-112(s0)
    4920:	000015b7          	lui	a1,0x1
    4924:	40b405b3          	sub	a1,s0,a1
    4928:	ecc5b023          	sd	a2,-320(a1) # ec0 <.LBB87_3+0xc50>
    492c:	95043583          	ld	a1,-1712(s0)
    4930:	f5843603          	ld	a2,-168(s0)
    4934:	00c585b3          	add	a1,a1,a2
    4938:	00001637          	lui	a2,0x1
    493c:	40c40633          	sub	a2,s0,a2
    4940:	75063603          	ld	a2,1872(a2) # 1750 <.LBB87_5+0x2cc>
    4944:	00c585b3          	add	a1,a1,a2
    4948:	41a5063b          	subw	a2,a0,s10
    494c:	40c585bb          	subw	a1,a1,a2
    4950:	40000637          	lui	a2,0x40000
    4954:	000016b7          	lui	a3,0x1
    4958:	40d406b3          	sub	a3,s0,a3
    495c:	e6b6b023          	sd	a1,-416(a3) # e60 <.LBB87_3+0xbf0>
    4960:	f9043683          	ld	a3,-112(s0)
    4964:	0005d463          	bgez	a1,496c <.LBB87_186>
    4968:	c0000637          	lui	a2,0xc0000

000000000000496c <.LBB87_186>:
    496c:	f8d43823          	sd	a3,-112(s0)
    4970:	000015b7          	lui	a1,0x1
    4974:	40b405b3          	sub	a1,s0,a1
    4978:	e4c5b423          	sd	a2,-440(a1) # e48 <.LBB87_3+0xbd8>
    497c:	95843583          	ld	a1,-1704(s0)
    4980:	f6043603          	ld	a2,-160(s0)
    4984:	00c585b3          	add	a1,a1,a2
    4988:	00001637          	lui	a2,0x1
    498c:	40c40633          	sub	a2,s0,a2
    4990:	75863603          	ld	a2,1880(a2) # 1758 <.LBB87_5+0x2d4>
    4994:	00c585b3          	add	a1,a1,a2
    4998:	41a5063b          	subw	a2,a0,s10
    499c:	40c585bb          	subw	a1,a1,a2
    49a0:	40000637          	lui	a2,0x40000
    49a4:	000016b7          	lui	a3,0x1
    49a8:	40d406b3          	sub	a3,s0,a3
    49ac:	deb6b823          	sd	a1,-528(a3) # df0 <.LBB87_3+0xb80>
    49b0:	f9043683          	ld	a3,-112(s0)
    49b4:	0005d463          	bgez	a1,49bc <.LBB87_188>
    49b8:	c0000637          	lui	a2,0xc0000

00000000000049bc <.LBB87_188>:
    49bc:	f8d43823          	sd	a3,-112(s0)
    49c0:	000015b7          	lui	a1,0x1
    49c4:	40b405b3          	sub	a1,s0,a1
    49c8:	dcc5bc23          	sd	a2,-552(a1) # dd8 <.LBB87_3+0xb68>
    49cc:	96043583          	ld	a1,-1696(s0)
    49d0:	f6843603          	ld	a2,-152(s0)
    49d4:	00c585b3          	add	a1,a1,a2
    49d8:	015585b3          	add	a1,a1,s5
    49dc:	41a5063b          	subw	a2,a0,s10
    49e0:	40c585bb          	subw	a1,a1,a2
    49e4:	40000637          	lui	a2,0x40000
    49e8:	000016b7          	lui	a3,0x1
    49ec:	40d406b3          	sub	a3,s0,a3
    49f0:	d6b6bc23          	sd	a1,-648(a3) # d78 <.LBB87_3+0xb08>
    49f4:	f9043683          	ld	a3,-112(s0)
    49f8:	0005d463          	bgez	a1,4a00 <.LBB87_190>
    49fc:	c0000637          	lui	a2,0xc0000

0000000000004a00 <.LBB87_190>:
    4a00:	f8d43823          	sd	a3,-112(s0)
    4a04:	000015b7          	lui	a1,0x1
    4a08:	40b405b3          	sub	a1,s0,a1
    4a0c:	d6c5b023          	sd	a2,-672(a1) # d60 <.LBB87_3+0xaf0>
    4a10:	96843583          	ld	a1,-1688(s0)
    4a14:	f7043603          	ld	a2,-144(s0)
    4a18:	00c585b3          	add	a1,a1,a2
    4a1c:	01f585b3          	add	a1,a1,t6
    4a20:	41a5063b          	subw	a2,a0,s10
    4a24:	40c585bb          	subw	a1,a1,a2
    4a28:	40000637          	lui	a2,0x40000
    4a2c:	000016b7          	lui	a3,0x1
    4a30:	40d406b3          	sub	a3,s0,a3
    4a34:	d0b6b023          	sd	a1,-768(a3) # d00 <.LBB87_3+0xa90>
    4a38:	f9043683          	ld	a3,-112(s0)
    4a3c:	0005d463          	bgez	a1,4a44 <.LBB87_192>
    4a40:	c0000637          	lui	a2,0xc0000

0000000000004a44 <.LBB87_192>:
    4a44:	000015b7          	lui	a1,0x1
    4a48:	40b405b3          	sub	a1,s0,a1
    4a4c:	cec5b423          	sd	a2,-792(a1) # ce8 <.LBB87_3+0xa78>
    4a50:	f7843583          	ld	a1,-136(s0)
    4a54:	00b385b3          	add	a1,t2,a1
    4a58:	011585b3          	add	a1,a1,a7
    4a5c:	41a5063b          	subw	a2,a0,s10
    4a60:	40c5863b          	subw	a2,a1,a2
    4a64:	400005b7          	lui	a1,0x40000
    4a68:	000013b7          	lui	t2,0x1
    4a6c:	407403b3          	sub	t2,s0,t2
    4a70:	c0c3b023          	sd	a2,-1024(t2) # c00 <.LBB87_3+0x990>
    4a74:	00065463          	bgez	a2,4a7c <.LBB87_194>
    4a78:	c00005b7          	lui	a1,0xc0000

0000000000004a7c <.LBB87_194>:
    4a7c:	00001637          	lui	a2,0x1
    4a80:	40c40633          	sub	a2,s0,a2
    4a84:	c8b63423          	sd	a1,-888(a2) # c88 <.LBB87_3+0xa18>
    4a88:	f8043583          	ld	a1,-128(s0)
    4a8c:	00be05b3          	add	a1,t3,a1
    4a90:	00001637          	lui	a2,0x1
    4a94:	40c40633          	sub	a2,s0,a2
    4a98:	77863e03          	ld	t3,1912(a2) # 1778 <.LBB87_5+0x2f4>
    4a9c:	01c585b3          	add	a1,a1,t3
    4aa0:	41a5063b          	subw	a2,a0,s10
    4aa4:	40c5863b          	subw	a2,a1,a2
    4aa8:	400005b7          	lui	a1,0x40000
    4aac:	000013b7          	lui	t2,0x1
    4ab0:	407403b3          	sub	t2,s0,t2
    4ab4:	bac3b023          	sd	a2,-1120(t2) # ba0 <.LBB87_3+0x930>
    4ab8:	00065463          	bgez	a2,4ac0 <.LBB87_196>
    4abc:	c00005b7          	lui	a1,0xc0000

0000000000004ac0 <.LBB87_196>:
    4ac0:	00001637          	lui	a2,0x1
    4ac4:	40c40633          	sub	a2,s0,a2
    4ac8:	c4b63023          	sd	a1,-960(a2) # c40 <.LBB87_3+0x9d0>
    4acc:	f8843583          	ld	a1,-120(s0)
    4ad0:	00b805b3          	add	a1,a6,a1
    4ad4:	00d585b3          	add	a1,a1,a3
    4ad8:	41a5053b          	subw	a0,a0,s10
    4adc:	40a5863b          	subw	a2,a1,a0
    4ae0:	40000537          	lui	a0,0x40000
    4ae4:	98843583          	ld	a1,-1656(s0)
    4ae8:	00001837          	lui	a6,0x1
    4aec:	41040833          	sub	a6,s0,a6
    4af0:	b8c83823          	sd	a2,-1136(a6) # b90 <.LBB87_3+0x920>
    4af4:	00065463          	bgez	a2,4afc <.LBB87_198>
    4af8:	c0000537          	lui	a0,0xc0000

0000000000004afc <.LBB87_198>:
    4afc:	00001637          	lui	a2,0x1
    4b00:	40c40633          	sub	a2,s0,a2
    4b04:	baa63423          	sd	a0,-1112(a2) # ba8 <.LBB87_3+0x938>
    4b08:	ea843503          	ld	a0,-344(s0)
    4b0c:	00a585b3          	add	a1,a1,a0
    4b10:	00001537          	lui	a0,0x1
    4b14:	40a40533          	sub	a0,s0,a0
    4b18:	5c053503          	ld	a0,1472(a0) # 15c0 <.LBB87_5+0x13c>
    4b1c:	02950533          	mul	a0,a0,s1
    4b20:	ea043603          	ld	a2,-352(s0)
    4b24:	00c585b3          	add	a1,a1,a2
    4b28:	41a5063b          	subw	a2,a0,s10
    4b2c:	40c585bb          	subw	a1,a1,a2
    4b30:	40000637          	lui	a2,0x40000
    4b34:	98b43423          	sd	a1,-1656(s0)
    4b38:	0005d463          	bgez	a1,4b40 <.LBB87_200>
    4b3c:	c0000637          	lui	a2,0xc0000

0000000000004b40 <.LBB87_200>:
    4b40:	98c43023          	sd	a2,-1664(s0)
    4b44:	99043583          	ld	a1,-1648(s0)
    4b48:	e9843603          	ld	a2,-360(s0)
    4b4c:	00c585b3          	add	a1,a1,a2
    4b50:	e9043603          	ld	a2,-368(s0)
    4b54:	00c585b3          	add	a1,a1,a2
    4b58:	41a5063b          	subw	a2,a0,s10
    4b5c:	40c585bb          	subw	a1,a1,a2
    4b60:	40000637          	lui	a2,0x40000
    4b64:	98b43823          	sd	a1,-1648(s0)
    4b68:	0005d463          	bgez	a1,4b70 <.LBB87_202>
    4b6c:	c0000637          	lui	a2,0xc0000

0000000000004b70 <.LBB87_202>:
    4b70:	96c43c23          	sd	a2,-1672(s0)
    4b74:	99843583          	ld	a1,-1640(s0)
    4b78:	e8843603          	ld	a2,-376(s0)
    4b7c:	00c585b3          	add	a1,a1,a2
    4b80:	e8043603          	ld	a2,-384(s0)
    4b84:	00c585b3          	add	a1,a1,a2
    4b88:	41a5063b          	subw	a2,a0,s10
    4b8c:	40c585bb          	subw	a1,a1,a2
    4b90:	40000637          	lui	a2,0x40000
    4b94:	98b43c23          	sd	a1,-1640(s0)
    4b98:	0005d463          	bgez	a1,4ba0 <.LBB87_204>
    4b9c:	c0000637          	lui	a2,0xc0000

0000000000004ba0 <.LBB87_204>:
    4ba0:	96c43823          	sd	a2,-1680(s0)
    4ba4:	9a043583          	ld	a1,-1632(s0)
    4ba8:	e7843603          	ld	a2,-392(s0)
    4bac:	00c585b3          	add	a1,a1,a2
    4bb0:	e7043603          	ld	a2,-400(s0)
    4bb4:	00c585b3          	add	a1,a1,a2
    4bb8:	41a5063b          	subw	a2,a0,s10
    4bbc:	40c585bb          	subw	a1,a1,a2
    4bc0:	40000637          	lui	a2,0x40000
    4bc4:	96b43423          	sd	a1,-1688(s0)
    4bc8:	0005d463          	bgez	a1,4bd0 <.LBB87_206>
    4bcc:	c0000637          	lui	a2,0xc0000

0000000000004bd0 <.LBB87_206>:
    4bd0:	96c43023          	sd	a2,-1696(s0)
    4bd4:	9a843583          	ld	a1,-1624(s0)
    4bd8:	e6843603          	ld	a2,-408(s0)
    4bdc:	00c585b3          	add	a1,a1,a2
    4be0:	e6043603          	ld	a2,-416(s0)
    4be4:	00c585b3          	add	a1,a1,a2
    4be8:	41a5063b          	subw	a2,a0,s10
    4bec:	40c585bb          	subw	a1,a1,a2
    4bf0:	40000637          	lui	a2,0x40000
    4bf4:	92b43c23          	sd	a1,-1736(s0)
    4bf8:	0005d463          	bgez	a1,4c00 <.LBB87_208>
    4bfc:	c0000637          	lui	a2,0xc0000

0000000000004c00 <.LBB87_208>:
    4c00:	92c43423          	sd	a2,-1752(s0)
    4c04:	9b043583          	ld	a1,-1616(s0)
    4c08:	00001637          	lui	a2,0x1
    4c0c:	40c40633          	sub	a2,s0,a2
    4c10:	6c863603          	ld	a2,1736(a2) # 16c8 <.LBB87_5+0x244>
    4c14:	00c585b3          	add	a1,a1,a2
    4c18:	00001637          	lui	a2,0x1
    4c1c:	40c40633          	sub	a2,s0,a2
    4c20:	6c063603          	ld	a2,1728(a2) # 16c0 <.LBB87_5+0x23c>
    4c24:	00c585b3          	add	a1,a1,a2
    4c28:	41a5063b          	subw	a2,a0,s10
    4c2c:	40c585bb          	subw	a1,a1,a2
    4c30:	40000637          	lui	a2,0x40000
    4c34:	8cb43c23          	sd	a1,-1832(s0)
    4c38:	0005d463          	bgez	a1,4c40 <.LBB87_210>
    4c3c:	c0000637          	lui	a2,0xc0000

0000000000004c40 <.LBB87_210>:
    4c40:	8cc43823          	sd	a2,-1840(s0)
    4c44:	9b843583          	ld	a1,-1608(s0)
    4c48:	00001637          	lui	a2,0x1
    4c4c:	40c40633          	sub	a2,s0,a2
    4c50:	6b863603          	ld	a2,1720(a2) # 16b8 <.LBB87_5+0x234>
    4c54:	00c585b3          	add	a1,a1,a2
    4c58:	00001637          	lui	a2,0x1
    4c5c:	40c40633          	sub	a2,s0,a2
    4c60:	6b063603          	ld	a2,1712(a2) # 16b0 <.LBB87_5+0x22c>
    4c64:	00c585b3          	add	a1,a1,a2
    4c68:	41a5063b          	subw	a2,a0,s10
    4c6c:	40c585bb          	subw	a1,a1,a2
    4c70:	40000637          	lui	a2,0x40000
    4c74:	00001837          	lui	a6,0x1
    4c78:	41040833          	sub	a6,s0,a6
    4c7c:	7eb83023          	sd	a1,2016(a6) # 17e0 <.LBB87_5+0x35c>
    4c80:	0005d463          	bgez	a1,4c88 <.LBB87_212>
    4c84:	c0000637          	lui	a2,0xc0000

0000000000004c88 <.LBB87_212>:
    4c88:	000015b7          	lui	a1,0x1
    4c8c:	40b405b3          	sub	a1,s0,a1
    4c90:	7cc5b823          	sd	a2,2000(a1) # 17d0 <.LBB87_5+0x34c>
    4c94:	9c043583          	ld	a1,-1600(s0)
    4c98:	00001637          	lui	a2,0x1
    4c9c:	40c40633          	sub	a2,s0,a2
    4ca0:	6a863603          	ld	a2,1704(a2) # 16a8 <.LBB87_5+0x224>
    4ca4:	00c585b3          	add	a1,a1,a2
    4ca8:	00001637          	lui	a2,0x1
    4cac:	40c40633          	sub	a2,s0,a2
    4cb0:	6a063603          	ld	a2,1696(a2) # 16a0 <.LBB87_5+0x21c>
    4cb4:	00c585b3          	add	a1,a1,a2
    4cb8:	41a5063b          	subw	a2,a0,s10
    4cbc:	40c585bb          	subw	a1,a1,a2
    4cc0:	40000637          	lui	a2,0x40000
    4cc4:	00001837          	lui	a6,0x1
    4cc8:	41040833          	sub	a6,s0,a6
    4ccc:	6cb83c23          	sd	a1,1752(a6) # 16d8 <.LBB87_5+0x254>
    4cd0:	0005d463          	bgez	a1,4cd8 <.LBB87_214>
    4cd4:	c0000637          	lui	a2,0xc0000

0000000000004cd8 <.LBB87_214>:
    4cd8:	000015b7          	lui	a1,0x1
    4cdc:	40b405b3          	sub	a1,s0,a1
    4ce0:	5cc5b023          	sd	a2,1472(a1) # 15c0 <.LBB87_5+0x13c>
    4ce4:	9c843583          	ld	a1,-1592(s0)
    4ce8:	00001637          	lui	a2,0x1
    4cec:	40c40633          	sub	a2,s0,a2
    4cf0:	69863603          	ld	a2,1688(a2) # 1698 <.LBB87_5+0x214>
    4cf4:	00c585b3          	add	a1,a1,a2
    4cf8:	00001637          	lui	a2,0x1
    4cfc:	40c40633          	sub	a2,s0,a2
    4d00:	69063603          	ld	a2,1680(a2) # 1690 <.LBB87_5+0x20c>
    4d04:	00c585b3          	add	a1,a1,a2
    4d08:	41a5063b          	subw	a2,a0,s10
    4d0c:	40c585bb          	subw	a1,a1,a2
    4d10:	40000637          	lui	a2,0x40000
    4d14:	9cb43423          	sd	a1,-1592(s0)
    4d18:	0005d463          	bgez	a1,4d20 <.LBB87_216>
    4d1c:	c0000637          	lui	a2,0xc0000

0000000000004d20 <.LBB87_216>:
    4d20:	000015b7          	lui	a1,0x1
    4d24:	40b405b3          	sub	a1,s0,a1
    4d28:	56c5b423          	sd	a2,1384(a1) # 1568 <.LBB87_5+0xe4>
    4d2c:	9d043583          	ld	a1,-1584(s0)
    4d30:	00001637          	lui	a2,0x1
    4d34:	40c40633          	sub	a2,s0,a2
    4d38:	68863603          	ld	a2,1672(a2) # 1688 <.LBB87_5+0x204>
    4d3c:	00c585b3          	add	a1,a1,a2
    4d40:	00001637          	lui	a2,0x1
    4d44:	40c40633          	sub	a2,s0,a2
    4d48:	6d063603          	ld	a2,1744(a2) # 16d0 <.LBB87_5+0x24c>
    4d4c:	00c585b3          	add	a1,a1,a2
    4d50:	41a5063b          	subw	a2,a0,s10
    4d54:	40c585bb          	subw	a1,a1,a2
    4d58:	40000637          	lui	a2,0x40000
    4d5c:	00001837          	lui	a6,0x1
    4d60:	41040833          	sub	a6,s0,a6
    4d64:	50b83c23          	sd	a1,1304(a6) # 1518 <.LBB87_5+0x94>
    4d68:	0005d463          	bgez	a1,4d70 <.LBB87_218>
    4d6c:	c0000637          	lui	a2,0xc0000

0000000000004d70 <.LBB87_218>:
    4d70:	000015b7          	lui	a1,0x1
    4d74:	40b405b3          	sub	a1,s0,a1
    4d78:	50c5b423          	sd	a2,1288(a1) # 1508 <.LBB87_5+0x84>
    4d7c:	9d843583          	ld	a1,-1576(s0)
    4d80:	eb043603          	ld	a2,-336(s0)
    4d84:	00c585b3          	add	a1,a1,a2
    4d88:	005585b3          	add	a1,a1,t0
    4d8c:	41a5063b          	subw	a2,a0,s10
    4d90:	40c585bb          	subw	a1,a1,a2
    4d94:	40000637          	lui	a2,0x40000
    4d98:	9cb43c23          	sd	a1,-1576(s0)
    4d9c:	0005d463          	bgez	a1,4da4 <.LBB87_220>
    4da0:	c0000637          	lui	a2,0xc0000

0000000000004da4 <.LBB87_220>:
    4da4:	000015b7          	lui	a1,0x1
    4da8:	40b405b3          	sub	a1,s0,a1
    4dac:	4ac5b823          	sd	a2,1200(a1) # 14b0 <.LBB87_5+0x2c>
    4db0:	9e043583          	ld	a1,-1568(s0)
    4db4:	eb843603          	ld	a2,-328(s0)
    4db8:	00c585b3          	add	a1,a1,a2
    4dbc:	001585b3          	add	a1,a1,ra
    4dc0:	41a5063b          	subw	a2,a0,s10
    4dc4:	40c585bb          	subw	a1,a1,a2
    4dc8:	40000637          	lui	a2,0x40000
    4dcc:	9eb43023          	sd	a1,-1568(s0)
    4dd0:	0005d463          	bgez	a1,4dd8 <.LBB87_222>
    4dd4:	c0000637          	lui	a2,0xc0000

0000000000004dd8 <.LBB87_222>:
    4dd8:	000015b7          	lui	a1,0x1
    4ddc:	40b405b3          	sub	a1,s0,a1
    4de0:	44c5bc23          	sd	a2,1112(a1) # 1458 <.LBB87_4+0x590>
    4de4:	9e843583          	ld	a1,-1560(s0)
    4de8:	ec043603          	ld	a2,-320(s0)
    4dec:	00c585b3          	add	a1,a1,a2
    4df0:	01b585b3          	add	a1,a1,s11
    4df4:	41a5063b          	subw	a2,a0,s10
    4df8:	40c585bb          	subw	a1,a1,a2
    4dfc:	40000637          	lui	a2,0x40000
    4e00:	9eb43423          	sd	a1,-1560(s0)
    4e04:	0005d463          	bgez	a1,4e0c <.LBB87_224>
    4e08:	c0000637          	lui	a2,0xc0000

0000000000004e0c <.LBB87_224>:
    4e0c:	000015b7          	lui	a1,0x1
    4e10:	40b405b3          	sub	a1,s0,a1
    4e14:	40c5b023          	sd	a2,1024(a1) # 1400 <.LBB87_4+0x538>
    4e18:	9f043583          	ld	a1,-1552(s0)
    4e1c:	ec843603          	ld	a2,-312(s0)
    4e20:	00c585b3          	add	a1,a1,a2
    4e24:	00001637          	lui	a2,0x1
    4e28:	40c40633          	sub	a2,s0,a2
    4e2c:	6f063603          	ld	a2,1776(a2) # 16f0 <.LBB87_5+0x26c>
    4e30:	00c585b3          	add	a1,a1,a2
    4e34:	41a5063b          	subw	a2,a0,s10
    4e38:	40c585bb          	subw	a1,a1,a2
    4e3c:	40000637          	lui	a2,0x40000
    4e40:	9eb43823          	sd	a1,-1552(s0)
    4e44:	0005d463          	bgez	a1,4e4c <.LBB87_226>
    4e48:	c0000637          	lui	a2,0xc0000

0000000000004e4c <.LBB87_226>:
    4e4c:	000015b7          	lui	a1,0x1
    4e50:	40b405b3          	sub	a1,s0,a1
    4e54:	38c5bc23          	sd	a2,920(a1) # 1398 <.LBB87_4+0x4d0>
    4e58:	9f843583          	ld	a1,-1544(s0)
    4e5c:	ed043603          	ld	a2,-304(s0)
    4e60:	00c585b3          	add	a1,a1,a2
    4e64:	019585b3          	add	a1,a1,s9
    4e68:	41a5063b          	subw	a2,a0,s10
    4e6c:	40c585bb          	subw	a1,a1,a2
    4e70:	40000637          	lui	a2,0x40000
    4e74:	9eb43c23          	sd	a1,-1544(s0)
    4e78:	0005d463          	bgez	a1,4e80 <.LBB87_228>
    4e7c:	c0000637          	lui	a2,0xc0000

0000000000004e80 <.LBB87_228>:
    4e80:	000015b7          	lui	a1,0x1
    4e84:	40b405b3          	sub	a1,s0,a1
    4e88:	34c5b023          	sd	a2,832(a1) # 1340 <.LBB87_4+0x478>
    4e8c:	a0043583          	ld	a1,-1536(s0)
    4e90:	ed843603          	ld	a2,-296(s0)
    4e94:	00c585b3          	add	a1,a1,a2
    4e98:	018585b3          	add	a1,a1,s8
    4e9c:	41a5063b          	subw	a2,a0,s10
    4ea0:	40c585bb          	subw	a1,a1,a2
    4ea4:	40000637          	lui	a2,0x40000
    4ea8:	a0b43023          	sd	a1,-1536(s0)
    4eac:	0005d463          	bgez	a1,4eb4 <.LBB87_230>
    4eb0:	c0000637          	lui	a2,0xc0000

0000000000004eb4 <.LBB87_230>:
    4eb4:	000015b7          	lui	a1,0x1
    4eb8:	40b405b3          	sub	a1,s0,a1
    4ebc:	2ec5b023          	sd	a2,736(a1) # 12e0 <.LBB87_4+0x418>
    4ec0:	a0843583          	ld	a1,-1528(s0)
    4ec4:	ee043603          	ld	a2,-288(s0)
    4ec8:	00c585b3          	add	a1,a1,a2
    4ecc:	017585b3          	add	a1,a1,s7
    4ed0:	41a5063b          	subw	a2,a0,s10
    4ed4:	40c585bb          	subw	a1,a1,a2
    4ed8:	40000637          	lui	a2,0x40000
    4edc:	00001837          	lui	a6,0x1
    4ee0:	41040833          	sub	a6,s0,a6
    4ee4:	28b83023          	sd	a1,640(a6) # 1280 <.LBB87_4+0x3b8>
    4ee8:	0005d463          	bgez	a1,4ef0 <.LBB87_232>
    4eec:	c0000637          	lui	a2,0xc0000

0000000000004ef0 <.LBB87_232>:
    4ef0:	000015b7          	lui	a1,0x1
    4ef4:	40b405b3          	sub	a1,s0,a1
    4ef8:	26c5b823          	sd	a2,624(a1) # 1270 <.LBB87_4+0x3a8>
    4efc:	a1043583          	ld	a1,-1520(s0)
    4f00:	ee843603          	ld	a2,-280(s0)
    4f04:	00c585b3          	add	a1,a1,a2
    4f08:	016585b3          	add	a1,a1,s6
    4f0c:	41a5063b          	subw	a2,a0,s10
    4f10:	40c585bb          	subw	a1,a1,a2
    4f14:	40000637          	lui	a2,0x40000
    4f18:	00001837          	lui	a6,0x1
    4f1c:	41040833          	sub	a6,s0,a6
    4f20:	20b83423          	sd	a1,520(a6) # 1208 <.LBB87_4+0x340>
    4f24:	0005d463          	bgez	a1,4f2c <.LBB87_234>
    4f28:	c0000637          	lui	a2,0xc0000

0000000000004f2c <.LBB87_234>:
    4f2c:	000015b7          	lui	a1,0x1
    4f30:	40b405b3          	sub	a1,s0,a1
    4f34:	1ec5bc23          	sd	a2,504(a1) # 11f8 <.LBB87_4+0x330>
    4f38:	a1843583          	ld	a1,-1512(s0)
    4f3c:	ef043603          	ld	a2,-272(s0)
    4f40:	00c585b3          	add	a1,a1,a2
    4f44:	01e585b3          	add	a1,a1,t5
    4f48:	41a5063b          	subw	a2,a0,s10
    4f4c:	40c585bb          	subw	a1,a1,a2
    4f50:	40000637          	lui	a2,0x40000
    4f54:	00001837          	lui	a6,0x1
    4f58:	41040833          	sub	a6,s0,a6
    4f5c:	18b83823          	sd	a1,400(a6) # 1190 <.LBB87_4+0x2c8>
    4f60:	0005d463          	bgez	a1,4f68 <.LBB87_236>
    4f64:	c0000637          	lui	a2,0xc0000

0000000000004f68 <.LBB87_236>:
    4f68:	000015b7          	lui	a1,0x1
    4f6c:	40b405b3          	sub	a1,s0,a1
    4f70:	18c5b023          	sd	a2,384(a1) # 1180 <.LBB87_4+0x2b8>
    4f74:	a2043583          	ld	a1,-1504(s0)
    4f78:	ef843603          	ld	a2,-264(s0)
    4f7c:	00c585b3          	add	a1,a1,a2
    4f80:	014585b3          	add	a1,a1,s4
    4f84:	41a5063b          	subw	a2,a0,s10
    4f88:	40c585bb          	subw	a1,a1,a2
    4f8c:	40000637          	lui	a2,0x40000
    4f90:	00001837          	lui	a6,0x1
    4f94:	41040833          	sub	a6,s0,a6
    4f98:	10b83c23          	sd	a1,280(a6) # 1118 <.LBB87_4+0x250>
    4f9c:	0005d463          	bgez	a1,4fa4 <.LBB87_238>
    4fa0:	c0000637          	lui	a2,0xc0000

0000000000004fa4 <.LBB87_238>:
    4fa4:	000015b7          	lui	a1,0x1
    4fa8:	40b405b3          	sub	a1,s0,a1
    4fac:	10c5b423          	sd	a2,264(a1) # 1108 <.LBB87_4+0x240>
    4fb0:	a2843583          	ld	a1,-1496(s0)
    4fb4:	f3043603          	ld	a2,-208(s0)
    4fb8:	00c585b3          	add	a1,a1,a2
    4fbc:	013585b3          	add	a1,a1,s3
    4fc0:	41a5063b          	subw	a2,a0,s10
    4fc4:	40c585bb          	subw	a1,a1,a2
    4fc8:	40000637          	lui	a2,0x40000
    4fcc:	00001837          	lui	a6,0x1
    4fd0:	41040833          	sub	a6,s0,a6
    4fd4:	0ab83023          	sd	a1,160(a6) # 10a0 <.LBB87_4+0x1d8>
    4fd8:	0005d463          	bgez	a1,4fe0 <.LBB87_240>
    4fdc:	c0000637          	lui	a2,0xc0000

0000000000004fe0 <.LBB87_240>:
    4fe0:	000015b7          	lui	a1,0x1
    4fe4:	40b405b3          	sub	a1,s0,a1
    4fe8:	08c5b823          	sd	a2,144(a1) # 1090 <.LBB87_4+0x1c8>
    4fec:	a3043583          	ld	a1,-1488(s0)
    4ff0:	f3843603          	ld	a2,-200(s0)
    4ff4:	00c585b3          	add	a1,a1,a2
    4ff8:	012585b3          	add	a1,a1,s2
    4ffc:	41a5063b          	subw	a2,a0,s10
    5000:	40c585bb          	subw	a1,a1,a2
    5004:	40000637          	lui	a2,0x40000
    5008:	00001837          	lui	a6,0x1
    500c:	41040833          	sub	a6,s0,a6
    5010:	02b83423          	sd	a1,40(a6) # 1028 <.LBB87_4+0x160>
    5014:	0005d463          	bgez	a1,501c <.LBB87_242>
    5018:	c0000637          	lui	a2,0xc0000

000000000000501c <.LBB87_242>:
    501c:	000015b7          	lui	a1,0x1
    5020:	40b405b3          	sub	a1,s0,a1
    5024:	00c5bc23          	sd	a2,24(a1) # 1018 <.LBB87_4+0x150>
    5028:	a3843583          	ld	a1,-1480(s0)
    502c:	f4043603          	ld	a2,-192(s0)
    5030:	00c585b3          	add	a1,a1,a2
    5034:	00001637          	lui	a2,0x1
    5038:	40c40633          	sub	a2,s0,a2
    503c:	73863603          	ld	a2,1848(a2) # 1738 <.LBB87_5+0x2b4>
    5040:	00c585b3          	add	a1,a1,a2
    5044:	41a5063b          	subw	a2,a0,s10
    5048:	40c585bb          	subw	a1,a1,a2
    504c:	40000637          	lui	a2,0x40000
    5050:	00001837          	lui	a6,0x1
    5054:	41040833          	sub	a6,s0,a6
    5058:	fab83823          	sd	a1,-80(a6) # fb0 <.LBB87_4+0xe8>
    505c:	0005d463          	bgez	a1,5064 <.LBB87_244>
    5060:	c0000637          	lui	a2,0xc0000

0000000000005064 <.LBB87_244>:
    5064:	000015b7          	lui	a1,0x1
    5068:	40b405b3          	sub	a1,s0,a1
    506c:	f8c5bc23          	sd	a2,-104(a1) # f98 <.LBB87_4+0xd0>
    5070:	f4843583          	ld	a1,-184(s0)
    5074:	a4043603          	ld	a2,-1472(s0)
    5078:	00b605b3          	add	a1,a2,a1
    507c:	00001637          	lui	a2,0x1
    5080:	40c40633          	sub	a2,s0,a2
    5084:	74063603          	ld	a2,1856(a2) # 1740 <.LBB87_5+0x2bc>
    5088:	00c585b3          	add	a1,a1,a2
    508c:	41a5063b          	subw	a2,a0,s10
    5090:	40c585bb          	subw	a1,a1,a2
    5094:	40000637          	lui	a2,0x40000
    5098:	00001837          	lui	a6,0x1
    509c:	41040833          	sub	a6,s0,a6
    50a0:	f2b83c23          	sd	a1,-200(a6) # f38 <.LBB87_4+0x70>
    50a4:	0005d463          	bgez	a1,50ac <.LBB87_246>
    50a8:	c0000637          	lui	a2,0xc0000

00000000000050ac <.LBB87_246>:
    50ac:	000015b7          	lui	a1,0x1
    50b0:	40b405b3          	sub	a1,s0,a1
    50b4:	f2c5b423          	sd	a2,-216(a1) # f28 <.LBB87_4+0x60>
    50b8:	a4843583          	ld	a1,-1464(s0)
    50bc:	f5043603          	ld	a2,-176(s0)
    50c0:	00c585b3          	add	a1,a1,a2
    50c4:	00001637          	lui	a2,0x1
    50c8:	40c40633          	sub	a2,s0,a2
    50cc:	74863603          	ld	a2,1864(a2) # 1748 <.LBB87_5+0x2c4>
    50d0:	00c585b3          	add	a1,a1,a2
    50d4:	41a5063b          	subw	a2,a0,s10
    50d8:	40c585bb          	subw	a1,a1,a2
    50dc:	40000637          	lui	a2,0x40000
    50e0:	00001837          	lui	a6,0x1
    50e4:	41040833          	sub	a6,s0,a6
    50e8:	ecb83423          	sd	a1,-312(a6) # ec8 <.LBB87_4>
    50ec:	0005d463          	bgez	a1,50f4 <.LBB87_248>
    50f0:	c0000637          	lui	a2,0xc0000

00000000000050f4 <.LBB87_248>:
    50f4:	000015b7          	lui	a1,0x1
    50f8:	40b405b3          	sub	a1,s0,a1
    50fc:	eac5b823          	sd	a2,-336(a1) # eb0 <.LBB87_3+0xc40>
    5100:	f5843583          	ld	a1,-168(s0)
    5104:	a5043603          	ld	a2,-1456(s0)
    5108:	00b605b3          	add	a1,a2,a1
    510c:	00001637          	lui	a2,0x1
    5110:	40c40633          	sub	a2,s0,a2
    5114:	75063603          	ld	a2,1872(a2) # 1750 <.LBB87_5+0x2cc>
    5118:	00c585b3          	add	a1,a1,a2
    511c:	41a5063b          	subw	a2,a0,s10
    5120:	40c585bb          	subw	a1,a1,a2
    5124:	40000637          	lui	a2,0x40000
    5128:	00001837          	lui	a6,0x1
    512c:	41040833          	sub	a6,s0,a6
    5130:	e4b83823          	sd	a1,-432(a6) # e50 <.LBB87_3+0xbe0>
    5134:	0005d463          	bgez	a1,513c <.LBB87_250>
    5138:	c0000637          	lui	a2,0xc0000

000000000000513c <.LBB87_250>:
    513c:	000015b7          	lui	a1,0x1
    5140:	40b405b3          	sub	a1,s0,a1
    5144:	e4c5b023          	sd	a2,-448(a1) # e40 <.LBB87_3+0xbd0>
    5148:	a5843583          	ld	a1,-1448(s0)
    514c:	f6043603          	ld	a2,-160(s0)
    5150:	00c585b3          	add	a1,a1,a2
    5154:	00001637          	lui	a2,0x1
    5158:	40c40633          	sub	a2,s0,a2
    515c:	75863603          	ld	a2,1880(a2) # 1758 <.LBB87_5+0x2d4>
    5160:	00c585b3          	add	a1,a1,a2
    5164:	41a5063b          	subw	a2,a0,s10
    5168:	40c585bb          	subw	a1,a1,a2
    516c:	40000637          	lui	a2,0x40000
    5170:	00001837          	lui	a6,0x1
    5174:	41040833          	sub	a6,s0,a6
    5178:	deb83023          	sd	a1,-544(a6) # de0 <.LBB87_3+0xb70>
    517c:	0005d463          	bgez	a1,5184 <.LBB87_252>
    5180:	c0000637          	lui	a2,0xc0000

0000000000005184 <.LBB87_252>:
    5184:	000015b7          	lui	a1,0x1
    5188:	40b405b3          	sub	a1,s0,a1
    518c:	dcc5b423          	sd	a2,-568(a1) # dc8 <.LBB87_3+0xb58>
    5190:	a6043583          	ld	a1,-1440(s0)
    5194:	f6843603          	ld	a2,-152(s0)
    5198:	00c585b3          	add	a1,a1,a2
    519c:	015585b3          	add	a1,a1,s5
    51a0:	41a5063b          	subw	a2,a0,s10
    51a4:	40c585bb          	subw	a1,a1,a2
    51a8:	40000637          	lui	a2,0x40000
    51ac:	00001837          	lui	a6,0x1
    51b0:	41040833          	sub	a6,s0,a6
    51b4:	d6b83423          	sd	a1,-664(a6) # d68 <.LBB87_3+0xaf8>
    51b8:	0005d463          	bgez	a1,51c0 <.LBB87_254>
    51bc:	c0000637          	lui	a2,0xc0000

00000000000051c0 <.LBB87_254>:
    51c0:	000015b7          	lui	a1,0x1
    51c4:	40b405b3          	sub	a1,s0,a1
    51c8:	d4c5bc23          	sd	a2,-680(a1) # d58 <.LBB87_3+0xae8>
    51cc:	a6843583          	ld	a1,-1432(s0)
    51d0:	f7043603          	ld	a2,-144(s0)
    51d4:	00c585b3          	add	a1,a1,a2
    51d8:	01f585b3          	add	a1,a1,t6
    51dc:	41a5063b          	subw	a2,a0,s10
    51e0:	40c585bb          	subw	a1,a1,a2
    51e4:	40000637          	lui	a2,0x40000
    51e8:	00001837          	lui	a6,0x1
    51ec:	41040833          	sub	a6,s0,a6
    51f0:	ceb83823          	sd	a1,-784(a6) # cf0 <.LBB87_3+0xa80>
    51f4:	0005d463          	bgez	a1,51fc <.LBB87_256>
    51f8:	c0000637          	lui	a2,0xc0000

00000000000051fc <.LBB87_256>:
    51fc:	000015b7          	lui	a1,0x1
    5200:	40b405b3          	sub	a1,s0,a1
    5204:	ccc5bc23          	sd	a2,-808(a1) # cd8 <.LBB87_3+0xa68>
    5208:	f7843583          	ld	a1,-136(s0)
    520c:	a7043603          	ld	a2,-1424(s0)
    5210:	00b605b3          	add	a1,a2,a1
    5214:	011585b3          	add	a1,a1,a7
    5218:	41a5063b          	subw	a2,a0,s10
    521c:	40c5863b          	subw	a2,a1,a2
    5220:	400005b7          	lui	a1,0x40000
    5224:	00001837          	lui	a6,0x1
    5228:	41040833          	sub	a6,s0,a6
    522c:	c0c83823          	sd	a2,-1008(a6) # c10 <.LBB87_3+0x9a0>
    5230:	00065463          	bgez	a2,5238 <.LBB87_258>
    5234:	c00005b7          	lui	a1,0xc0000

0000000000005238 <.LBB87_258>:
    5238:	00001637          	lui	a2,0x1
    523c:	40c40633          	sub	a2,s0,a2
    5240:	c8b63023          	sd	a1,-896(a2) # c80 <.LBB87_3+0xa10>
    5244:	f8043583          	ld	a1,-128(s0)
    5248:	00b785b3          	add	a1,a5,a1
    524c:	01c585b3          	add	a1,a1,t3
    5250:	41a507bb          	subw	a5,a0,s10
    5254:	40f5863b          	subw	a2,a1,a5
    5258:	400005b7          	lui	a1,0x40000
    525c:	000017b7          	lui	a5,0x1
    5260:	40f407b3          	sub	a5,s0,a5
    5264:	bec7b023          	sd	a2,-1056(a5) # be0 <.LBB87_3+0x970>
    5268:	00065463          	bgez	a2,5270 <.LBB87_260>
    526c:	c00005b7          	lui	a1,0xc0000

0000000000005270 <.LBB87_260>:
    5270:	00001637          	lui	a2,0x1
    5274:	40c40633          	sub	a2,s0,a2
    5278:	c2b63c23          	sd	a1,-968(a2) # c38 <.LBB87_3+0x9c8>
    527c:	f8843583          	ld	a1,-120(s0)
    5280:	a8043603          	ld	a2,-1408(s0)
    5284:	00b605b3          	add	a1,a2,a1
    5288:	00d585b3          	add	a1,a1,a3
    528c:	41a5053b          	subw	a0,a0,s10
    5290:	40a5863b          	subw	a2,a1,a0
    5294:	40000537          	lui	a0,0x40000
    5298:	a8843583          	ld	a1,-1400(s0)
    529c:	00065463          	bgez	a2,52a4 <.LBB87_262>
    52a0:	c0000537          	lui	a0,0xc0000

00000000000052a4 <.LBB87_262>:
    52a4:	000017b7          	lui	a5,0x1
    52a8:	40f407b3          	sub	a5,s0,a5
    52ac:	b8a7bc23          	sd	a0,-1128(a5) # b98 <.LBB87_3+0x928>
    52b0:	ea843503          	ld	a0,-344(s0)
    52b4:	00a585b3          	add	a1,a1,a0
    52b8:	00001537          	lui	a0,0x1
    52bc:	40a40533          	sub	a0,s0,a0
    52c0:	5a853503          	ld	a0,1448(a0) # 15a8 <.LBB87_5+0x124>
    52c4:	02950533          	mul	a0,a0,s1
    52c8:	ea043783          	ld	a5,-352(s0)
    52cc:	00f585b3          	add	a1,a1,a5
    52d0:	41a507bb          	subw	a5,a0,s10
    52d4:	40f585bb          	subw	a1,a1,a5
    52d8:	400007b7          	lui	a5,0x40000
    52dc:	a8b43023          	sd	a1,-1408(s0)
    52e0:	0005d463          	bgez	a1,52e8 <.LBB87_264>
    52e4:	c00007b7          	lui	a5,0xc0000

00000000000052e8 <.LBB87_264>:
    52e8:	a6f43823          	sd	a5,-1424(s0)
    52ec:	a9043583          	ld	a1,-1392(s0)
    52f0:	e9843783          	ld	a5,-360(s0)
    52f4:	00f585b3          	add	a1,a1,a5
    52f8:	e9043783          	ld	a5,-368(s0)
    52fc:	00f585b3          	add	a1,a1,a5
    5300:	41a507bb          	subw	a5,a0,s10
    5304:	40f585bb          	subw	a1,a1,a5
    5308:	400007b7          	lui	a5,0x40000
    530c:	a8b43823          	sd	a1,-1392(s0)
    5310:	0005d463          	bgez	a1,5318 <.LBB87_266>
    5314:	c00007b7          	lui	a5,0xc0000

0000000000005318 <.LBB87_266>:
    5318:	a6f43023          	sd	a5,-1440(s0)
    531c:	a9843583          	ld	a1,-1384(s0)
    5320:	e8843783          	ld	a5,-376(s0)
    5324:	00f585b3          	add	a1,a1,a5
    5328:	e8043783          	ld	a5,-384(s0)
    532c:	00f585b3          	add	a1,a1,a5
    5330:	41a507bb          	subw	a5,a0,s10
    5334:	40f585bb          	subw	a1,a1,a5
    5338:	400007b7          	lui	a5,0x40000
    533c:	a4b43c23          	sd	a1,-1448(s0)
    5340:	0005d463          	bgez	a1,5348 <.LBB87_268>
    5344:	c00007b7          	lui	a5,0xc0000

0000000000005348 <.LBB87_268>:
    5348:	a4f43823          	sd	a5,-1456(s0)
    534c:	aa043583          	ld	a1,-1376(s0)
    5350:	e7843783          	ld	a5,-392(s0)
    5354:	00f585b3          	add	a1,a1,a5
    5358:	e7043783          	ld	a5,-400(s0)
    535c:	00f585b3          	add	a1,a1,a5
    5360:	41a507bb          	subw	a5,a0,s10
    5364:	40f585bb          	subw	a1,a1,a5
    5368:	400007b7          	lui	a5,0x40000
    536c:	aab43023          	sd	a1,-1376(s0)
    5370:	0005d463          	bgez	a1,5378 <.LBB87_270>
    5374:	c00007b7          	lui	a5,0xc0000

0000000000005378 <.LBB87_270>:
    5378:	a6f43423          	sd	a5,-1432(s0)
    537c:	aa843583          	ld	a1,-1368(s0)
    5380:	e6843783          	ld	a5,-408(s0)
    5384:	00f585b3          	add	a1,a1,a5
    5388:	e6043783          	ld	a5,-416(s0)
    538c:	00f585b3          	add	a1,a1,a5
    5390:	41a507bb          	subw	a5,a0,s10
    5394:	40f585bb          	subw	a1,a1,a5
    5398:	400007b7          	lui	a5,0x40000
    539c:	a6b43c23          	sd	a1,-1416(s0)
    53a0:	0005d463          	bgez	a1,53a8 <.LBB87_272>
    53a4:	c00007b7          	lui	a5,0xc0000

00000000000053a8 <.LBB87_272>:
    53a8:	a4f43423          	sd	a5,-1464(s0)
    53ac:	ab043583          	ld	a1,-1360(s0)
    53b0:	000017b7          	lui	a5,0x1
    53b4:	40f407b3          	sub	a5,s0,a5
    53b8:	6c87b783          	ld	a5,1736(a5) # 16c8 <.LBB87_5+0x244>
    53bc:	00f585b3          	add	a1,a1,a5
    53c0:	000017b7          	lui	a5,0x1
    53c4:	40f407b3          	sub	a5,s0,a5
    53c8:	6c07b783          	ld	a5,1728(a5) # 16c0 <.LBB87_5+0x23c>
    53cc:	00f585b3          	add	a1,a1,a5
    53d0:	41a507bb          	subw	a5,a0,s10
    53d4:	40f585bb          	subw	a1,a1,a5
    53d8:	400007b7          	lui	a5,0x40000
    53dc:	aab43823          	sd	a1,-1360(s0)
    53e0:	0005d463          	bgez	a1,53e8 <.LBB87_274>
    53e4:	c00007b7          	lui	a5,0xc0000

00000000000053e8 <.LBB87_274>:
