
code.o:     file format elf64-littleriscv


Disassembly of section .text.main_dispatch_13_matmul_12544x96x16_i8xi8xi32:

0000000000000000 <main_dispatch_13_matmul_12544x96x16_i8xi8xi32>:
       0:	f1501173          	csrrw	sp,0xf15,zero

0000000000000004 <.Lfunc_begin13>:
       4:	81010113          	addi	sp,sp,-2032
       8:	7e113423          	sd	ra,2024(sp)
       c:	7e813023          	sd	s0,2016(sp)
      10:	7c913c23          	sd	s1,2008(sp)
      14:	7d213823          	sd	s2,2000(sp)
      18:	7d313423          	sd	s3,1992(sp)
      1c:	7d413023          	sd	s4,1984(sp)
      20:	7b513c23          	sd	s5,1976(sp)
      24:	7b613823          	sd	s6,1968(sp)
      28:	7b713423          	sd	s7,1960(sp)
      2c:	7b813023          	sd	s8,1952(sp)
      30:	79913c23          	sd	s9,1944(sp)
      34:	79a13823          	sd	s10,1936(sp)
      38:	79b13423          	sd	s11,1928(sp)
      3c:	7f010413          	addi	s0,sp,2032
      40:	80010113          	addi	sp,sp,-2048
      44:	c9010113          	addi	sp,sp,-880
      48:	0205b503          	ld	a0,32(a1)
      4c:	00000713          	li	a4,0
      50:	00853583          	ld	a1,8(a0)
      54:	00053683          	ld	a3,0(a0)
      58:	00021637          	lui	a2,0x21
      5c:	4806061b          	addiw	a2,a2,1152 # 21480 <.LBB60_4219+0x4>
      60:	00c58633          	add	a2,a1,a2
      64:	000017b7          	lui	a5,0x1
      68:	40f407b3          	sub	a5,s0,a5
      6c:	cac7b423          	sd	a2,-856(a5) # ca8 <.LBB13_3+0xa8c>
      70:	00020637          	lui	a2,0x20
      74:	d006061b          	addiw	a2,a2,-768 # 1fd00 <.LBB63_3954>
      78:	00c58633          	add	a2,a1,a2
      7c:	000017b7          	lui	a5,0x1
      80:	40f407b3          	sub	a5,s0,a5
      84:	ccc7b823          	sd	a2,-816(a5) # cd0 <.LBB13_3+0xab4>
      88:	00022637          	lui	a2,0x22
      8c:	a806061b          	addiw	a2,a2,-1408 # 21a80 <.LBB60_4314>
      90:	01053503          	ld	a0,16(a0)
      94:	00c585b3          	add	a1,a1,a2
      98:	00001637          	lui	a2,0x1
      9c:	40c40633          	sub	a2,s0,a2
      a0:	ccb63423          	sd	a1,-824(a2) # cc8 <.LBB13_3+0xaac>
      a4:	0003d5b7          	lui	a1,0x3d
      a8:	4005859b          	addiw	a1,a1,1024 # 3d400 <.Lfunc_end80+0x14a34>
      ac:	00b50533          	add	a0,a0,a1
      b0:	000015b7          	lui	a1,0x1
      b4:	40b405b3          	sub	a1,s0,a1
      b8:	caa5b023          	sd	a0,-864(a1) # ca0 <.LBB13_3+0xa84>
      bc:	0000c537          	lui	a0,0xc
      c0:	4705051b          	addiw	a0,a0,1136 # c470 <.LBB27_624>
      c4:	000015b7          	lui	a1,0x1
      c8:	40b405b3          	sub	a1,s0,a1
      cc:	cad5b823          	sd	a3,-848(a1) # cb0 <.LBB13_3+0xa94>
      d0:	00a68533          	add	a0,a3,a0
      d4:	000015b7          	lui	a1,0x1
      d8:	40b405b3          	sub	a1,s0,a1
      dc:	d0a5bc23          	sd	a0,-744(a1) # d18 <.LBB13_3+0xafc>
      e0:	4b42d537          	lui	a0,0x4b42d
      e4:	c975051b          	addiw	a0,a0,-873 # 4b42cc97 <.Lfunc_end80+0x4b4042cb>
      e8:	000015b7          	lui	a1,0x1
      ec:	40b405b3          	sub	a1,s0,a1
      f0:	cca5b023          	sd	a0,-832(a1) # cc0 <.LBB13_3+0xaa4>
      f4:	00100513          	li	a0,1
      f8:	02051513          	slli	a0,a0,0x20
      fc:	000015b7          	lui	a1,0x1
     100:	40b405b3          	sub	a1,s0,a1
     104:	62a5b423          	sd	a0,1576(a1) # 1628 <.LBB13_4+0x484>
     108:	0400006f          	j	148 <.LBB13_2>

000000000000010c <.LBB13_1>:
     10c:	00001537          	lui	a0,0x1
     110:	40a40533          	sub	a0,s0,a0
     114:	cb853583          	ld	a1,-840(a0) # cb8 <.LBB13_3+0xa9c>
     118:	0035d513          	srli	a0,a1,0x3
     11c:	00858713          	addi	a4,a1,8
     120:	000015b7          	lui	a1,0x1
     124:	40b405b3          	sub	a1,s0,a1
     128:	d185b603          	ld	a2,-744(a1) # d18 <.LBB13_3+0xafc>
     12c:	08060613          	addi	a2,a2,128
     130:	000015b7          	lui	a1,0x1
     134:	40b405b3          	sub	a1,s0,a1
     138:	d0c5bc23          	sd	a2,-744(a1) # d18 <.LBB13_3+0xafc>
     13c:	61f00593          	li	a1,1567
     140:	00b56463          	bltu	a0,a1,148 <.LBB13_2>
     144:	6510a06f          	j	af94 <.LBB13_1030>

0000000000000148 <.LBB13_2>:
     148:	00000513          	li	a0,0
     14c:	00271593          	slli	a1,a4,0x2
     150:	00001637          	lui	a2,0x1
     154:	40c40633          	sub	a2,s0,a2
     158:	cb063603          	ld	a2,-848(a2) # cb0 <.LBB13_3+0xa94>
     15c:	00b605b3          	add	a1,a2,a1
     160:	00001637          	lui	a2,0x1
     164:	40c40633          	sub	a2,s0,a2
     168:	62b63823          	sd	a1,1584(a2) # 1630 <.LBB13_4+0x48c>
     16c:	000015b7          	lui	a1,0x1
     170:	40b405b3          	sub	a1,s0,a1
     174:	cae5bc23          	sd	a4,-840(a1) # cb8 <.LBB13_3+0xa9c>
     178:	06000593          	li	a1,96
     17c:	02b705b3          	mul	a1,a4,a1
     180:	00001637          	lui	a2,0x1
     184:	40c40633          	sub	a2,s0,a2
     188:	ca063603          	ld	a2,-864(a2) # ca0 <.LBB13_3+0xa84>
     18c:	00b605b3          	add	a1,a2,a1
     190:	06058613          	addi	a2,a1,96
     194:	000016b7          	lui	a3,0x1
     198:	40d406b3          	sub	a3,s0,a3
     19c:	d0c6b423          	sd	a2,-760(a3) # d08 <.LBB13_3+0xaec>
     1a0:	0c058613          	addi	a2,a1,192
     1a4:	000016b7          	lui	a3,0x1
     1a8:	40d406b3          	sub	a3,s0,a3
     1ac:	d0c6b023          	sd	a2,-768(a3) # d00 <.LBB13_3+0xae4>
     1b0:	12058613          	addi	a2,a1,288
     1b4:	000016b7          	lui	a3,0x1
     1b8:	40d406b3          	sub	a3,s0,a3
     1bc:	cec6bc23          	sd	a2,-776(a3) # cf8 <.LBB13_3+0xadc>
     1c0:	18058613          	addi	a2,a1,384
     1c4:	000016b7          	lui	a3,0x1
     1c8:	40d406b3          	sub	a3,s0,a3
     1cc:	cec6b823          	sd	a2,-784(a3) # cf0 <.LBB13_3+0xad4>
     1d0:	1e058613          	addi	a2,a1,480
     1d4:	000016b7          	lui	a3,0x1
     1d8:	40d406b3          	sub	a3,s0,a3
     1dc:	cec6b423          	sd	a2,-792(a3) # ce8 <.LBB13_3+0xacc>
     1e0:	24058613          	addi	a2,a1,576
     1e4:	000016b7          	lui	a3,0x1
     1e8:	40d406b3          	sub	a3,s0,a3
     1ec:	cec6b023          	sd	a2,-800(a3) # ce0 <.LBB13_3+0xac4>
     1f0:	00001637          	lui	a2,0x1
     1f4:	40c40633          	sub	a2,s0,a2
     1f8:	d0b63823          	sd	a1,-752(a2) # d10 <.LBB13_3+0xaf4>
     1fc:	2a058593          	addi	a1,a1,672
     200:	00001637          	lui	a2,0x1
     204:	40c40633          	sub	a2,s0,a2
     208:	ccb63c23          	sd	a1,-808(a2) # cd8 <.LBB13_3+0xabc>
     20c:	000015b7          	lui	a1,0x1
     210:	40b405b3          	sub	a1,s0,a1
     214:	ca85b603          	ld	a2,-856(a1) # ca8 <.LBB13_3+0xa8c>
     218:	78d0006f          	j	11a4 <.LBB13_4>

000000000000021c <.LBB13_3>:
     21c:	ee843c03          	ld	s8,-280(s0)
     220:	080c4c93          	xori	s9,s8,128
     224:	00001c37          	lui	s8,0x1
     228:	41840c33          	sub	s8,s0,s8
     22c:	d10c3c03          	ld	s8,-752(s8) # d10 <.LBB13_3+0xaf4>
     230:	00001d37          	lui	s10,0x1
     234:	41a40d33          	sub	s10,s0,s10
     238:	638d3d03          	ld	s10,1592(s10) # 1638 <.LBB13_4+0x494>
     23c:	01ac0c33          	add	s8,s8,s10
     240:	019c01a3          	sb	s9,3(s8)
     244:	f8843c83          	ld	s9,-120(s0)
     248:	080ccc93          	xori	s9,s9,128
     24c:	019c0123          	sb	s9,2(s8)
     250:	f8043c83          	ld	s9,-128(s0)
     254:	080ccc93          	xori	s9,s9,128
     258:	019c00a3          	sb	s9,1(s8)
     25c:	f7843c83          	ld	s9,-136(s0)
     260:	080ccc93          	xori	s9,s9,128
     264:	019c0023          	sb	s9,0(s8)
     268:	f7043c83          	ld	s9,-144(s0)
     26c:	080ccc93          	xori	s9,s9,128
     270:	019c0223          	sb	s9,4(s8)
     274:	f6843c83          	ld	s9,-152(s0)
     278:	080ccc93          	xori	s9,s9,128
     27c:	019c02a3          	sb	s9,5(s8)
     280:	f6043c83          	ld	s9,-160(s0)
     284:	080ccc93          	xori	s9,s9,128
     288:	019c0323          	sb	s9,6(s8)
     28c:	f5843c83          	ld	s9,-168(s0)
     290:	080ccc93          	xori	s9,s9,128
     294:	019c03a3          	sb	s9,7(s8)
     298:	f5043c83          	ld	s9,-176(s0)
     29c:	080ccc93          	xori	s9,s9,128
     2a0:	019c0423          	sb	s9,8(s8)
     2a4:	f4843c83          	ld	s9,-184(s0)
     2a8:	080ccc93          	xori	s9,s9,128
     2ac:	019c04a3          	sb	s9,9(s8)
     2b0:	f4043c83          	ld	s9,-192(s0)
     2b4:	080ccc93          	xori	s9,s9,128
     2b8:	019c0523          	sb	s9,10(s8)
     2bc:	f3843c83          	ld	s9,-200(s0)
     2c0:	080ccc93          	xori	s9,s9,128
     2c4:	019c05a3          	sb	s9,11(s8)
     2c8:	f3043c83          	ld	s9,-208(s0)
     2cc:	080ccc93          	xori	s9,s9,128
     2d0:	019c0623          	sb	s9,12(s8)
     2d4:	f2843c83          	ld	s9,-216(s0)
     2d8:	080ccc93          	xori	s9,s9,128
     2dc:	019c06a3          	sb	s9,13(s8)
     2e0:	f2043c83          	ld	s9,-224(s0)
     2e4:	080ccc93          	xori	s9,s9,128
     2e8:	019c0723          	sb	s9,14(s8)
     2ec:	f1843c83          	ld	s9,-232(s0)
     2f0:	080ccc93          	xori	s9,s9,128
     2f4:	019c07a3          	sb	s9,15(s8)
     2f8:	f1043c83          	ld	s9,-240(s0)
     2fc:	080ccc93          	xori	s9,s9,128
     300:	019c0823          	sb	s9,16(s8)
     304:	f0843c83          	ld	s9,-248(s0)
     308:	080ccc93          	xori	s9,s9,128
     30c:	019c08a3          	sb	s9,17(s8)
     310:	f0043c83          	ld	s9,-256(s0)
     314:	080ccc93          	xori	s9,s9,128
     318:	019c0923          	sb	s9,18(s8)
     31c:	ef843c83          	ld	s9,-264(s0)
     320:	080ccc93          	xori	s9,s9,128
     324:	019c09a3          	sb	s9,19(s8)
     328:	ef043c83          	ld	s9,-272(s0)
     32c:	080ccc93          	xori	s9,s9,128
     330:	019c0a23          	sb	s9,20(s8)
     334:	ee043c83          	ld	s9,-288(s0)
     338:	080ccc93          	xori	s9,s9,128
     33c:	019c0aa3          	sb	s9,21(s8)
     340:	ed843c83          	ld	s9,-296(s0)
     344:	080ccc93          	xori	s9,s9,128
     348:	019c0b23          	sb	s9,22(s8)
     34c:	ec843c83          	ld	s9,-312(s0)
     350:	080ccc93          	xori	s9,s9,128
     354:	019c0ba3          	sb	s9,23(s8)
     358:	ea843c83          	ld	s9,-344(s0)
     35c:	080ccc93          	xori	s9,s9,128
     360:	019c0c23          	sb	s9,24(s8)
     364:	e8043c83          	ld	s9,-384(s0)
     368:	080ccc93          	xori	s9,s9,128
     36c:	019c0ca3          	sb	s9,25(s8)
     370:	e4043c83          	ld	s9,-448(s0)
     374:	080ccc93          	xori	s9,s9,128
     378:	019c0d23          	sb	s9,26(s8)
     37c:	e0043c83          	ld	s9,-512(s0)
     380:	080ccc93          	xori	s9,s9,128
     384:	019c0da3          	sb	s9,27(s8)
     388:	dd043c83          	ld	s9,-560(s0)
     38c:	080ccc93          	xori	s9,s9,128
     390:	019c0e23          	sb	s9,28(s8)
     394:	d9843c83          	ld	s9,-616(s0)
     398:	080ccc93          	xori	s9,s9,128
     39c:	019c0ea3          	sb	s9,29(s8)
     3a0:	d5843c83          	ld	s9,-680(s0)
     3a4:	080ccc93          	xori	s9,s9,128
     3a8:	019c0f23          	sb	s9,30(s8)
     3ac:	d1043c83          	ld	s9,-752(s0)
     3b0:	080ccc93          	xori	s9,s9,128
     3b4:	019c0fa3          	sb	s9,31(s8)
     3b8:	cd043c03          	ld	s8,-816(s0)
     3bc:	080c4c93          	xori	s9,s8,128
     3c0:	00001c37          	lui	s8,0x1
     3c4:	41840c33          	sub	s8,s0,s8
     3c8:	d08c3c03          	ld	s8,-760(s8) # d08 <.LBB13_3+0xaec>
     3cc:	01ac0c33          	add	s8,s8,s10
     3d0:	019c01a3          	sb	s9,3(s8)
     3d4:	c9043c83          	ld	s9,-880(s0)
     3d8:	080ccc93          	xori	s9,s9,128
     3dc:	019c0123          	sb	s9,2(s8)
     3e0:	c5043c83          	ld	s9,-944(s0)
     3e4:	080ccc93          	xori	s9,s9,128
     3e8:	019c00a3          	sb	s9,1(s8)
     3ec:	c1043c83          	ld	s9,-1008(s0)
     3f0:	080ccc93          	xori	s9,s9,128
     3f4:	019c0023          	sb	s9,0(s8)
     3f8:	c0843c83          	ld	s9,-1016(s0)
     3fc:	080ccc93          	xori	s9,s9,128
     400:	019c0223          	sb	s9,4(s8)
     404:	b8843c83          	ld	s9,-1144(s0)
     408:	080ccc93          	xori	s9,s9,128
     40c:	019c02a3          	sb	s9,5(s8)
     410:	b4843c83          	ld	s9,-1208(s0)
     414:	080ccc93          	xori	s9,s9,128
     418:	019c0323          	sb	s9,6(s8)
     41c:	b0043c83          	ld	s9,-1280(s0)
     420:	080ccc93          	xori	s9,s9,128
     424:	019c03a3          	sb	s9,7(s8)
     428:	ac043c83          	ld	s9,-1344(s0)
     42c:	080ccc93          	xori	s9,s9,128
     430:	019c0423          	sb	s9,8(s8)
     434:	a8043c83          	ld	s9,-1408(s0)
     438:	080ccc93          	xori	s9,s9,128
     43c:	019c04a3          	sb	s9,9(s8)
     440:	a3843c83          	ld	s9,-1480(s0)
     444:	080ccc93          	xori	s9,s9,128
     448:	019c0523          	sb	s9,10(s8)
     44c:	9f843c83          	ld	s9,-1544(s0)
     450:	080ccc93          	xori	s9,s9,128
     454:	019c05a3          	sb	s9,11(s8)
     458:	9b843c83          	ld	s9,-1608(s0)
     45c:	080ccc93          	xori	s9,s9,128
     460:	019c0623          	sb	s9,12(s8)
     464:	97043c83          	ld	s9,-1680(s0)
     468:	080ccc93          	xori	s9,s9,128
     46c:	019c06a3          	sb	s9,13(s8)
     470:	93043c83          	ld	s9,-1744(s0)
     474:	080ccc93          	xori	s9,s9,128
     478:	019c0723          	sb	s9,14(s8)
     47c:	8f043c83          	ld	s9,-1808(s0)
     480:	080ccc93          	xori	s9,s9,128
     484:	019c07a3          	sb	s9,15(s8)
     488:	8a843c83          	ld	s9,-1880(s0)
     48c:	080ccc93          	xori	s9,s9,128
     490:	019c0823          	sb	s9,16(s8)
     494:	86843c83          	ld	s9,-1944(s0)
     498:	080ccc93          	xori	s9,s9,128
     49c:	019c08a3          	sb	s9,17(s8)
     4a0:	84043c83          	ld	s9,-1984(s0)
     4a4:	080ccc93          	xori	s9,s9,128
     4a8:	019c0923          	sb	s9,18(s8)
     4ac:	80043c83          	ld	s9,-2048(s0)
     4b0:	080ccc93          	xori	s9,s9,128
     4b4:	019c09a3          	sb	s9,19(s8)
     4b8:	00001cb7          	lui	s9,0x1
     4bc:	41940cb3          	sub	s9,s0,s9
     4c0:	7a0cbc83          	ld	s9,1952(s9) # 17a0 <.LBB13_5+0xf0>
     4c4:	080ccc93          	xori	s9,s9,128
     4c8:	019c0a23          	sb	s9,20(s8)
     4cc:	00001cb7          	lui	s9,0x1
     4d0:	41940cb3          	sub	s9,s0,s9
     4d4:	768cbc83          	ld	s9,1896(s9) # 1768 <.LBB13_5+0xb8>
     4d8:	080ccc93          	xori	s9,s9,128
     4dc:	019c0aa3          	sb	s9,21(s8)
     4e0:	00001cb7          	lui	s9,0x1
     4e4:	41940cb3          	sub	s9,s0,s9
     4e8:	760cbc83          	ld	s9,1888(s9) # 1760 <.LBB13_5+0xb0>
     4ec:	080ccc93          	xori	s9,s9,128
     4f0:	019c0b23          	sb	s9,22(s8)
     4f4:	00001cb7          	lui	s9,0x1
     4f8:	41940cb3          	sub	s9,s0,s9
     4fc:	758cbc83          	ld	s9,1880(s9) # 1758 <.LBB13_5+0xa8>
     500:	080ccc93          	xori	s9,s9,128
     504:	019c0ba3          	sb	s9,23(s8)
     508:	00001cb7          	lui	s9,0x1
     50c:	41940cb3          	sub	s9,s0,s9
     510:	750cbc83          	ld	s9,1872(s9) # 1750 <.LBB13_5+0xa0>
     514:	080ccc93          	xori	s9,s9,128
     518:	019c0c23          	sb	s9,24(s8)
     51c:	00001cb7          	lui	s9,0x1
     520:	41940cb3          	sub	s9,s0,s9
     524:	748cbc83          	ld	s9,1864(s9) # 1748 <.LBB13_5+0x98>
     528:	080ccc93          	xori	s9,s9,128
     52c:	019c0ca3          	sb	s9,25(s8)
     530:	00001cb7          	lui	s9,0x1
     534:	41940cb3          	sub	s9,s0,s9
     538:	740cbc83          	ld	s9,1856(s9) # 1740 <.LBB13_5+0x90>
     53c:	080ccc93          	xori	s9,s9,128
     540:	019c0d23          	sb	s9,26(s8)
     544:	00001cb7          	lui	s9,0x1
     548:	41940cb3          	sub	s9,s0,s9
     54c:	738cbc83          	ld	s9,1848(s9) # 1738 <.LBB13_5+0x88>
     550:	080ccc93          	xori	s9,s9,128
     554:	019c0da3          	sb	s9,27(s8)
     558:	00001cb7          	lui	s9,0x1
     55c:	41940cb3          	sub	s9,s0,s9
     560:	730cbc83          	ld	s9,1840(s9) # 1730 <.LBB13_5+0x80>
     564:	080ccc93          	xori	s9,s9,128
     568:	019c0e23          	sb	s9,28(s8)
     56c:	00001cb7          	lui	s9,0x1
     570:	41940cb3          	sub	s9,s0,s9
     574:	728cbc83          	ld	s9,1832(s9) # 1728 <.LBB13_5+0x78>
     578:	080ccc93          	xori	s9,s9,128
     57c:	019c0ea3          	sb	s9,29(s8)
     580:	00001cb7          	lui	s9,0x1
     584:	41940cb3          	sub	s9,s0,s9
     588:	720cbc83          	ld	s9,1824(s9) # 1720 <.LBB13_5+0x70>
     58c:	080ccc93          	xori	s9,s9,128
     590:	019c0f23          	sb	s9,30(s8)
     594:	00001cb7          	lui	s9,0x1
     598:	41940cb3          	sub	s9,s0,s9
     59c:	6f8cbc83          	ld	s9,1784(s9) # 16f8 <.LBB13_5+0x48>
     5a0:	080ccc93          	xori	s9,s9,128
     5a4:	019c0fa3          	sb	s9,31(s8)
     5a8:	00001c37          	lui	s8,0x1
     5ac:	41840c33          	sub	s8,s0,s8
     5b0:	6f0c3c03          	ld	s8,1776(s8) # 16f0 <.LBB13_5+0x40>
     5b4:	080c4c93          	xori	s9,s8,128
     5b8:	00001c37          	lui	s8,0x1
     5bc:	41840c33          	sub	s8,s0,s8
     5c0:	d00c3c03          	ld	s8,-768(s8) # d00 <.LBB13_3+0xae4>
     5c4:	01ac0c33          	add	s8,s8,s10
     5c8:	019c01a3          	sb	s9,3(s8)
     5cc:	00001cb7          	lui	s9,0x1
     5d0:	41940cb3          	sub	s9,s0,s9
     5d4:	6e8cbc83          	ld	s9,1768(s9) # 16e8 <.LBB13_5+0x38>
     5d8:	080ccc93          	xori	s9,s9,128
     5dc:	019c0123          	sb	s9,2(s8)
     5e0:	00001cb7          	lui	s9,0x1
     5e4:	41940cb3          	sub	s9,s0,s9
     5e8:	6e0cbc83          	ld	s9,1760(s9) # 16e0 <.LBB13_5+0x30>
     5ec:	080ccc93          	xori	s9,s9,128
     5f0:	019c00a3          	sb	s9,1(s8)
     5f4:	00001cb7          	lui	s9,0x1
     5f8:	41940cb3          	sub	s9,s0,s9
     5fc:	6d8cbc83          	ld	s9,1752(s9) # 16d8 <.LBB13_5+0x28>
     600:	080ccc93          	xori	s9,s9,128
     604:	019c0023          	sb	s9,0(s8)
     608:	00001cb7          	lui	s9,0x1
     60c:	41940cb3          	sub	s9,s0,s9
     610:	6d0cbc83          	ld	s9,1744(s9) # 16d0 <.LBB13_5+0x20>
     614:	080ccc93          	xori	s9,s9,128
     618:	019c0223          	sb	s9,4(s8)
     61c:	00001cb7          	lui	s9,0x1
     620:	41940cb3          	sub	s9,s0,s9
     624:	6c8cbc83          	ld	s9,1736(s9) # 16c8 <.LBB13_5+0x18>
     628:	080ccc93          	xori	s9,s9,128
     62c:	019c02a3          	sb	s9,5(s8)
     630:	00001cb7          	lui	s9,0x1
     634:	41940cb3          	sub	s9,s0,s9
     638:	6c0cbc83          	ld	s9,1728(s9) # 16c0 <.LBB13_5+0x10>
     63c:	080ccc93          	xori	s9,s9,128
     640:	019c0323          	sb	s9,6(s8)
     644:	00001cb7          	lui	s9,0x1
     648:	41940cb3          	sub	s9,s0,s9
     64c:	6b8cbc83          	ld	s9,1720(s9) # 16b8 <.LBB13_5+0x8>
     650:	080ccc93          	xori	s9,s9,128
     654:	019c03a3          	sb	s9,7(s8)
     658:	00001cb7          	lui	s9,0x1
     65c:	41940cb3          	sub	s9,s0,s9
     660:	6b0cbc83          	ld	s9,1712(s9) # 16b0 <.LBB13_5>
     664:	080ccc93          	xori	s9,s9,128
     668:	019c0423          	sb	s9,8(s8)
     66c:	00001cb7          	lui	s9,0x1
     670:	41940cb3          	sub	s9,s0,s9
     674:	6a8cbc83          	ld	s9,1704(s9) # 16a8 <.LBB13_4+0x504>
     678:	080ccc93          	xori	s9,s9,128
     67c:	019c04a3          	sb	s9,9(s8)
     680:	00001cb7          	lui	s9,0x1
     684:	41940cb3          	sub	s9,s0,s9
     688:	6a0cbc83          	ld	s9,1696(s9) # 16a0 <.LBB13_4+0x4fc>
     68c:	080ccc93          	xori	s9,s9,128
     690:	019c0523          	sb	s9,10(s8)
     694:	00001cb7          	lui	s9,0x1
     698:	41940cb3          	sub	s9,s0,s9
     69c:	698cbc83          	ld	s9,1688(s9) # 1698 <.LBB13_4+0x4f4>
     6a0:	080ccc93          	xori	s9,s9,128
     6a4:	019c05a3          	sb	s9,11(s8)
     6a8:	00001cb7          	lui	s9,0x1
     6ac:	41940cb3          	sub	s9,s0,s9
     6b0:	690cbc83          	ld	s9,1680(s9) # 1690 <.LBB13_4+0x4ec>
     6b4:	080ccc93          	xori	s9,s9,128
     6b8:	019c0623          	sb	s9,12(s8)
     6bc:	00001cb7          	lui	s9,0x1
     6c0:	41940cb3          	sub	s9,s0,s9
     6c4:	688cbc83          	ld	s9,1672(s9) # 1688 <.LBB13_4+0x4e4>
     6c8:	080ccc93          	xori	s9,s9,128
     6cc:	019c06a3          	sb	s9,13(s8)
     6d0:	00001cb7          	lui	s9,0x1
     6d4:	41940cb3          	sub	s9,s0,s9
     6d8:	680cbc83          	ld	s9,1664(s9) # 1680 <.LBB13_4+0x4dc>
     6dc:	080ccc93          	xori	s9,s9,128
     6e0:	019c0723          	sb	s9,14(s8)
     6e4:	00001cb7          	lui	s9,0x1
     6e8:	41940cb3          	sub	s9,s0,s9
     6ec:	678cbc83          	ld	s9,1656(s9) # 1678 <.LBB13_4+0x4d4>
     6f0:	080ccc93          	xori	s9,s9,128
     6f4:	019c07a3          	sb	s9,15(s8)
     6f8:	00001cb7          	lui	s9,0x1
     6fc:	41940cb3          	sub	s9,s0,s9
     700:	670cbc83          	ld	s9,1648(s9) # 1670 <.LBB13_4+0x4cc>
     704:	080ccc93          	xori	s9,s9,128
     708:	019c0823          	sb	s9,16(s8)
     70c:	00001cb7          	lui	s9,0x1
     710:	41940cb3          	sub	s9,s0,s9
     714:	668cbc83          	ld	s9,1640(s9) # 1668 <.LBB13_4+0x4c4>
     718:	080ccc93          	xori	s9,s9,128
     71c:	019c08a3          	sb	s9,17(s8)
     720:	00001cb7          	lui	s9,0x1
     724:	41940cb3          	sub	s9,s0,s9
     728:	660cbc83          	ld	s9,1632(s9) # 1660 <.LBB13_4+0x4bc>
     72c:	080ccc93          	xori	s9,s9,128
     730:	019c0923          	sb	s9,18(s8)
     734:	00001cb7          	lui	s9,0x1
     738:	41940cb3          	sub	s9,s0,s9
     73c:	658cbc83          	ld	s9,1624(s9) # 1658 <.LBB13_4+0x4b4>
     740:	080ccc93          	xori	s9,s9,128
     744:	019c09a3          	sb	s9,19(s8)
     748:	00001cb7          	lui	s9,0x1
     74c:	41940cb3          	sub	s9,s0,s9
     750:	650cbc83          	ld	s9,1616(s9) # 1650 <.LBB13_4+0x4ac>
     754:	080ccc93          	xori	s9,s9,128
     758:	019c0a23          	sb	s9,20(s8)
     75c:	00001cb7          	lui	s9,0x1
     760:	41940cb3          	sub	s9,s0,s9
     764:	648cbc83          	ld	s9,1608(s9) # 1648 <.LBB13_4+0x4a4>
     768:	080ccc93          	xori	s9,s9,128
     76c:	019c0aa3          	sb	s9,21(s8)
     770:	00001cb7          	lui	s9,0x1
     774:	41940cb3          	sub	s9,s0,s9
     778:	640cbc83          	ld	s9,1600(s9) # 1640 <.LBB13_4+0x49c>
     77c:	080ccc93          	xori	s9,s9,128
     780:	019c0b23          	sb	s9,22(s8)
     784:	00001cb7          	lui	s9,0x1
     788:	41940cb3          	sub	s9,s0,s9
     78c:	290cbc83          	ld	s9,656(s9) # 1290 <.LBB13_4+0xec>
     790:	080ccc93          	xori	s9,s9,128
     794:	019c0ba3          	sb	s9,23(s8)
     798:	00001cb7          	lui	s9,0x1
     79c:	41940cb3          	sub	s9,s0,s9
     7a0:	2a0cbc83          	ld	s9,672(s9) # 12a0 <.LBB13_4+0xfc>
     7a4:	080ccc93          	xori	s9,s9,128
     7a8:	019c0c23          	sb	s9,24(s8)
     7ac:	00001cb7          	lui	s9,0x1
     7b0:	41940cb3          	sub	s9,s0,s9
     7b4:	2b0cbc83          	ld	s9,688(s9) # 12b0 <.LBB13_4+0x10c>
     7b8:	080ccc93          	xori	s9,s9,128
     7bc:	019c0ca3          	sb	s9,25(s8)
     7c0:	00001cb7          	lui	s9,0x1
     7c4:	41940cb3          	sub	s9,s0,s9
     7c8:	2c0cbc83          	ld	s9,704(s9) # 12c0 <.LBB13_4+0x11c>
     7cc:	080ccc93          	xori	s9,s9,128
     7d0:	019c0d23          	sb	s9,26(s8)
     7d4:	00001cb7          	lui	s9,0x1
     7d8:	41940cb3          	sub	s9,s0,s9
     7dc:	2d0cbc83          	ld	s9,720(s9) # 12d0 <.LBB13_4+0x12c>
     7e0:	080ccc93          	xori	s9,s9,128
     7e4:	019c0da3          	sb	s9,27(s8)
     7e8:	00001cb7          	lui	s9,0x1
     7ec:	41940cb3          	sub	s9,s0,s9
     7f0:	2e0cbc83          	ld	s9,736(s9) # 12e0 <.LBB13_4+0x13c>
     7f4:	080ccc93          	xori	s9,s9,128
     7f8:	019c0e23          	sb	s9,28(s8)
     7fc:	00001cb7          	lui	s9,0x1
     800:	41940cb3          	sub	s9,s0,s9
     804:	2f0cbc83          	ld	s9,752(s9) # 12f0 <.LBB13_4+0x14c>
     808:	080ccc93          	xori	s9,s9,128
     80c:	019c0ea3          	sb	s9,29(s8)
     810:	00001cb7          	lui	s9,0x1
     814:	41940cb3          	sub	s9,s0,s9
     818:	300cbc83          	ld	s9,768(s9) # 1300 <.LBB13_4+0x15c>
     81c:	080ccc93          	xori	s9,s9,128
     820:	019c0f23          	sb	s9,30(s8)
     824:	00001cb7          	lui	s9,0x1
     828:	41940cb3          	sub	s9,s0,s9
     82c:	310cbc83          	ld	s9,784(s9) # 1310 <.LBB13_4+0x16c>
     830:	080ccc93          	xori	s9,s9,128
     834:	019c0fa3          	sb	s9,31(s8)
     838:	00001c37          	lui	s8,0x1
     83c:	41840c33          	sub	s8,s0,s8
     840:	320c3c03          	ld	s8,800(s8) # 1320 <.LBB13_4+0x17c>
     844:	080c4c93          	xori	s9,s8,128
     848:	00001c37          	lui	s8,0x1
     84c:	41840c33          	sub	s8,s0,s8
     850:	cf8c3c03          	ld	s8,-776(s8) # cf8 <.LBB13_3+0xadc>
     854:	01ac0c33          	add	s8,s8,s10
     858:	019c01a3          	sb	s9,3(s8)
     85c:	00001cb7          	lui	s9,0x1
     860:	41940cb3          	sub	s9,s0,s9
     864:	330cbc83          	ld	s9,816(s9) # 1330 <.LBB13_4+0x18c>
     868:	080ccc93          	xori	s9,s9,128
     86c:	019c0123          	sb	s9,2(s8)
     870:	00001cb7          	lui	s9,0x1
     874:	41940cb3          	sub	s9,s0,s9
     878:	340cbc83          	ld	s9,832(s9) # 1340 <.LBB13_4+0x19c>
     87c:	080ccc93          	xori	s9,s9,128
     880:	019c00a3          	sb	s9,1(s8)
     884:	00001cb7          	lui	s9,0x1
     888:	41940cb3          	sub	s9,s0,s9
     88c:	350cbc83          	ld	s9,848(s9) # 1350 <.LBB13_4+0x1ac>
     890:	080ccc93          	xori	s9,s9,128
     894:	019c0023          	sb	s9,0(s8)
     898:	00001cb7          	lui	s9,0x1
     89c:	41940cb3          	sub	s9,s0,s9
     8a0:	360cbc83          	ld	s9,864(s9) # 1360 <.LBB13_4+0x1bc>
     8a4:	080ccc93          	xori	s9,s9,128
     8a8:	019c0223          	sb	s9,4(s8)
     8ac:	00001cb7          	lui	s9,0x1
     8b0:	41940cb3          	sub	s9,s0,s9
     8b4:	370cbc83          	ld	s9,880(s9) # 1370 <.LBB13_4+0x1cc>
     8b8:	080ccc93          	xori	s9,s9,128
     8bc:	019c02a3          	sb	s9,5(s8)
     8c0:	00001cb7          	lui	s9,0x1
     8c4:	41940cb3          	sub	s9,s0,s9
     8c8:	380cbc83          	ld	s9,896(s9) # 1380 <.LBB13_4+0x1dc>
     8cc:	080ccc93          	xori	s9,s9,128
     8d0:	019c0323          	sb	s9,6(s8)
     8d4:	00001cb7          	lui	s9,0x1
     8d8:	41940cb3          	sub	s9,s0,s9
     8dc:	390cbc83          	ld	s9,912(s9) # 1390 <.LBB13_4+0x1ec>
     8e0:	080ccc93          	xori	s9,s9,128
     8e4:	019c03a3          	sb	s9,7(s8)
     8e8:	00001cb7          	lui	s9,0x1
     8ec:	41940cb3          	sub	s9,s0,s9
     8f0:	3a0cbc83          	ld	s9,928(s9) # 13a0 <.LBB13_4+0x1fc>
     8f4:	080ccc93          	xori	s9,s9,128
     8f8:	019c0423          	sb	s9,8(s8)
     8fc:	00001cb7          	lui	s9,0x1
     900:	41940cb3          	sub	s9,s0,s9
     904:	3b0cbc83          	ld	s9,944(s9) # 13b0 <.LBB13_4+0x20c>
     908:	080ccc93          	xori	s9,s9,128
     90c:	019c04a3          	sb	s9,9(s8)
     910:	00001cb7          	lui	s9,0x1
     914:	41940cb3          	sub	s9,s0,s9
     918:	3c0cbc83          	ld	s9,960(s9) # 13c0 <.LBB13_4+0x21c>
     91c:	080ccc93          	xori	s9,s9,128
     920:	019c0523          	sb	s9,10(s8)
     924:	00001cb7          	lui	s9,0x1
     928:	41940cb3          	sub	s9,s0,s9
     92c:	3d0cbc83          	ld	s9,976(s9) # 13d0 <.LBB13_4+0x22c>
     930:	080ccc93          	xori	s9,s9,128
     934:	019c05a3          	sb	s9,11(s8)
     938:	00001cb7          	lui	s9,0x1
     93c:	41940cb3          	sub	s9,s0,s9
     940:	3e0cbc83          	ld	s9,992(s9) # 13e0 <.LBB13_4+0x23c>
     944:	080ccc93          	xori	s9,s9,128
     948:	019c0623          	sb	s9,12(s8)
     94c:	00001cb7          	lui	s9,0x1
     950:	41940cb3          	sub	s9,s0,s9
     954:	3f0cbc83          	ld	s9,1008(s9) # 13f0 <.LBB13_4+0x24c>
     958:	080ccc93          	xori	s9,s9,128
     95c:	019c06a3          	sb	s9,13(s8)
     960:	00001cb7          	lui	s9,0x1
     964:	41940cb3          	sub	s9,s0,s9
     968:	400cbc83          	ld	s9,1024(s9) # 1400 <.LBB13_4+0x25c>
     96c:	080ccc93          	xori	s9,s9,128
     970:	019c0723          	sb	s9,14(s8)
     974:	00001cb7          	lui	s9,0x1
     978:	41940cb3          	sub	s9,s0,s9
     97c:	410cbc83          	ld	s9,1040(s9) # 1410 <.LBB13_4+0x26c>
     980:	080ccc93          	xori	s9,s9,128
     984:	019c07a3          	sb	s9,15(s8)
     988:	00001cb7          	lui	s9,0x1
     98c:	41940cb3          	sub	s9,s0,s9
     990:	420cbc83          	ld	s9,1056(s9) # 1420 <.LBB13_4+0x27c>
     994:	080ccc93          	xori	s9,s9,128
     998:	019c0823          	sb	s9,16(s8)
     99c:	00001cb7          	lui	s9,0x1
     9a0:	41940cb3          	sub	s9,s0,s9
     9a4:	430cbc83          	ld	s9,1072(s9) # 1430 <.LBB13_4+0x28c>
     9a8:	080ccc93          	xori	s9,s9,128
     9ac:	019c08a3          	sb	s9,17(s8)
     9b0:	00001cb7          	lui	s9,0x1
     9b4:	41940cb3          	sub	s9,s0,s9
     9b8:	440cbc83          	ld	s9,1088(s9) # 1440 <.LBB13_4+0x29c>
     9bc:	080ccc93          	xori	s9,s9,128
     9c0:	019c0923          	sb	s9,18(s8)
     9c4:	00001cb7          	lui	s9,0x1
     9c8:	41940cb3          	sub	s9,s0,s9
     9cc:	450cbc83          	ld	s9,1104(s9) # 1450 <.LBB13_4+0x2ac>
     9d0:	080ccc93          	xori	s9,s9,128
     9d4:	019c09a3          	sb	s9,19(s8)
     9d8:	00001cb7          	lui	s9,0x1
     9dc:	41940cb3          	sub	s9,s0,s9
     9e0:	460cbc83          	ld	s9,1120(s9) # 1460 <.LBB13_4+0x2bc>
     9e4:	080ccc93          	xori	s9,s9,128
     9e8:	019c0a23          	sb	s9,20(s8)
     9ec:	00001cb7          	lui	s9,0x1
     9f0:	41940cb3          	sub	s9,s0,s9
     9f4:	470cbc83          	ld	s9,1136(s9) # 1470 <.LBB13_4+0x2cc>
     9f8:	080ccc93          	xori	s9,s9,128
     9fc:	019c0aa3          	sb	s9,21(s8)
     a00:	00001cb7          	lui	s9,0x1
     a04:	41940cb3          	sub	s9,s0,s9
     a08:	480cbc83          	ld	s9,1152(s9) # 1480 <.LBB13_4+0x2dc>
     a0c:	080ccc93          	xori	s9,s9,128
     a10:	019c0b23          	sb	s9,22(s8)
     a14:	00001cb7          	lui	s9,0x1
     a18:	41940cb3          	sub	s9,s0,s9
     a1c:	490cbc83          	ld	s9,1168(s9) # 1490 <.LBB13_4+0x2ec>
     a20:	080ccc93          	xori	s9,s9,128
     a24:	019c0ba3          	sb	s9,23(s8)
     a28:	00001cb7          	lui	s9,0x1
     a2c:	41940cb3          	sub	s9,s0,s9
     a30:	4a0cbc83          	ld	s9,1184(s9) # 14a0 <.LBB13_4+0x2fc>
     a34:	080ccc93          	xori	s9,s9,128
     a38:	019c0c23          	sb	s9,24(s8)
     a3c:	00001cb7          	lui	s9,0x1
     a40:	41940cb3          	sub	s9,s0,s9
     a44:	4b0cbc83          	ld	s9,1200(s9) # 14b0 <.LBB13_4+0x30c>
     a48:	080ccc93          	xori	s9,s9,128
     a4c:	019c0ca3          	sb	s9,25(s8)
     a50:	00001cb7          	lui	s9,0x1
     a54:	41940cb3          	sub	s9,s0,s9
     a58:	4c0cbc83          	ld	s9,1216(s9) # 14c0 <.LBB13_4+0x31c>
     a5c:	080ccc93          	xori	s9,s9,128
     a60:	019c0d23          	sb	s9,26(s8)
     a64:	00001cb7          	lui	s9,0x1
     a68:	41940cb3          	sub	s9,s0,s9
     a6c:	4d0cbc83          	ld	s9,1232(s9) # 14d0 <.LBB13_4+0x32c>
     a70:	080ccc93          	xori	s9,s9,128
     a74:	019c0da3          	sb	s9,27(s8)
     a78:	00001cb7          	lui	s9,0x1
     a7c:	41940cb3          	sub	s9,s0,s9
     a80:	4e0cbc83          	ld	s9,1248(s9) # 14e0 <.LBB13_4+0x33c>
     a84:	080ccc93          	xori	s9,s9,128
     a88:	019c0e23          	sb	s9,28(s8)
     a8c:	00001cb7          	lui	s9,0x1
     a90:	41940cb3          	sub	s9,s0,s9
     a94:	4f0cbc83          	ld	s9,1264(s9) # 14f0 <.LBB13_4+0x34c>
     a98:	080ccc93          	xori	s9,s9,128
     a9c:	019c0ea3          	sb	s9,29(s8)
     aa0:	00001cb7          	lui	s9,0x1
     aa4:	41940cb3          	sub	s9,s0,s9
     aa8:	500cbc83          	ld	s9,1280(s9) # 1500 <.LBB13_4+0x35c>
     aac:	080ccc93          	xori	s9,s9,128
     ab0:	019c0f23          	sb	s9,30(s8)
     ab4:	00001cb7          	lui	s9,0x1
     ab8:	41940cb3          	sub	s9,s0,s9
     abc:	510cbc83          	ld	s9,1296(s9) # 1510 <.LBB13_4+0x36c>
     ac0:	080ccc93          	xori	s9,s9,128
     ac4:	019c0fa3          	sb	s9,31(s8)
     ac8:	00001c37          	lui	s8,0x1
     acc:	41840c33          	sub	s8,s0,s8
     ad0:	520c3c03          	ld	s8,1312(s8) # 1520 <.LBB13_4+0x37c>
     ad4:	080c4c93          	xori	s9,s8,128
     ad8:	00001c37          	lui	s8,0x1
     adc:	41840c33          	sub	s8,s0,s8
     ae0:	cf0c3c03          	ld	s8,-784(s8) # cf0 <.LBB13_3+0xad4>
     ae4:	01ac0c33          	add	s8,s8,s10
     ae8:	019c01a3          	sb	s9,3(s8)
     aec:	00001cb7          	lui	s9,0x1
     af0:	41940cb3          	sub	s9,s0,s9
     af4:	530cbc83          	ld	s9,1328(s9) # 1530 <.LBB13_4+0x38c>
     af8:	080ccc93          	xori	s9,s9,128
     afc:	019c0123          	sb	s9,2(s8)
     b00:	00001cb7          	lui	s9,0x1
     b04:	41940cb3          	sub	s9,s0,s9
     b08:	540cbc83          	ld	s9,1344(s9) # 1540 <.LBB13_4+0x39c>
     b0c:	080ccc93          	xori	s9,s9,128
     b10:	019c00a3          	sb	s9,1(s8)
     b14:	00001cb7          	lui	s9,0x1
     b18:	41940cb3          	sub	s9,s0,s9
     b1c:	550cbc83          	ld	s9,1360(s9) # 1550 <.LBB13_4+0x3ac>
     b20:	080ccc93          	xori	s9,s9,128
     b24:	019c0023          	sb	s9,0(s8)
     b28:	00001cb7          	lui	s9,0x1
     b2c:	41940cb3          	sub	s9,s0,s9
     b30:	560cbc83          	ld	s9,1376(s9) # 1560 <.LBB13_4+0x3bc>
     b34:	080ccc93          	xori	s9,s9,128
     b38:	019c0223          	sb	s9,4(s8)
     b3c:	00001cb7          	lui	s9,0x1
     b40:	41940cb3          	sub	s9,s0,s9
     b44:	570cbc83          	ld	s9,1392(s9) # 1570 <.LBB13_4+0x3cc>
     b48:	080ccc93          	xori	s9,s9,128
     b4c:	019c02a3          	sb	s9,5(s8)
     b50:	00001cb7          	lui	s9,0x1
     b54:	41940cb3          	sub	s9,s0,s9
     b58:	580cbc83          	ld	s9,1408(s9) # 1580 <.LBB13_4+0x3dc>
     b5c:	080ccc93          	xori	s9,s9,128
     b60:	019c0323          	sb	s9,6(s8)
     b64:	00001cb7          	lui	s9,0x1
     b68:	41940cb3          	sub	s9,s0,s9
     b6c:	590cbc83          	ld	s9,1424(s9) # 1590 <.LBB13_4+0x3ec>
     b70:	080ccc93          	xori	s9,s9,128
     b74:	019c03a3          	sb	s9,7(s8)
     b78:	00001cb7          	lui	s9,0x1
     b7c:	41940cb3          	sub	s9,s0,s9
     b80:	5a0cbc83          	ld	s9,1440(s9) # 15a0 <.LBB13_4+0x3fc>
     b84:	080ccc93          	xori	s9,s9,128
     b88:	019c0423          	sb	s9,8(s8)
     b8c:	00001cb7          	lui	s9,0x1
     b90:	41940cb3          	sub	s9,s0,s9
     b94:	5b0cbc83          	ld	s9,1456(s9) # 15b0 <.LBB13_4+0x40c>
     b98:	080ccc93          	xori	s9,s9,128
     b9c:	019c04a3          	sb	s9,9(s8)
     ba0:	00001cb7          	lui	s9,0x1
     ba4:	41940cb3          	sub	s9,s0,s9
     ba8:	5c0cbc83          	ld	s9,1472(s9) # 15c0 <.LBB13_4+0x41c>
     bac:	080ccc93          	xori	s9,s9,128
     bb0:	019c0523          	sb	s9,10(s8)
     bb4:	00001cb7          	lui	s9,0x1
     bb8:	41940cb3          	sub	s9,s0,s9
     bbc:	5d0cbc83          	ld	s9,1488(s9) # 15d0 <.LBB13_4+0x42c>
     bc0:	080ccc93          	xori	s9,s9,128
     bc4:	019c05a3          	sb	s9,11(s8)
     bc8:	00001cb7          	lui	s9,0x1
     bcc:	41940cb3          	sub	s9,s0,s9
     bd0:	5e0cbc83          	ld	s9,1504(s9) # 15e0 <.LBB13_4+0x43c>
     bd4:	080ccc93          	xori	s9,s9,128
     bd8:	019c0623          	sb	s9,12(s8)
     bdc:	00001cb7          	lui	s9,0x1
     be0:	41940cb3          	sub	s9,s0,s9
     be4:	5f0cbc83          	ld	s9,1520(s9) # 15f0 <.LBB13_4+0x44c>
     be8:	080ccc93          	xori	s9,s9,128
     bec:	019c06a3          	sb	s9,13(s8)
     bf0:	00001cb7          	lui	s9,0x1
     bf4:	41940cb3          	sub	s9,s0,s9
     bf8:	600cbc83          	ld	s9,1536(s9) # 1600 <.LBB13_4+0x45c>
     bfc:	080ccc93          	xori	s9,s9,128
     c00:	019c0723          	sb	s9,14(s8)
     c04:	00001cb7          	lui	s9,0x1
     c08:	41940cb3          	sub	s9,s0,s9
     c0c:	610cbc83          	ld	s9,1552(s9) # 1610 <.LBB13_4+0x46c>
     c10:	080ccc93          	xori	s9,s9,128
     c14:	019c07a3          	sb	s9,15(s8)
     c18:	00001cb7          	lui	s9,0x1
     c1c:	41940cb3          	sub	s9,s0,s9
     c20:	700cbc83          	ld	s9,1792(s9) # 1700 <.LBB13_5+0x50>
     c24:	080ccc93          	xori	s9,s9,128
     c28:	019c0823          	sb	s9,16(s8)
     c2c:	00001cb7          	lui	s9,0x1
     c30:	41940cb3          	sub	s9,s0,s9
     c34:	710cbc83          	ld	s9,1808(s9) # 1710 <.LBB13_5+0x60>
     c38:	080ccc93          	xori	s9,s9,128
     c3c:	019c08a3          	sb	s9,17(s8)
     c40:	00001cb7          	lui	s9,0x1
     c44:	41940cb3          	sub	s9,s0,s9
     c48:	770cbc83          	ld	s9,1904(s9) # 1770 <.LBB13_5+0xc0>
     c4c:	080ccc93          	xori	s9,s9,128
     c50:	019c0923          	sb	s9,18(s8)
     c54:	00001cb7          	lui	s9,0x1
     c58:	41940cb3          	sub	s9,s0,s9
     c5c:	780cbc83          	ld	s9,1920(s9) # 1780 <.LBB13_5+0xd0>
     c60:	080ccc93          	xori	s9,s9,128
     c64:	019c09a3          	sb	s9,19(s8)
     c68:	00001cb7          	lui	s9,0x1
     c6c:	41940cb3          	sub	s9,s0,s9
     c70:	790cbc83          	ld	s9,1936(s9) # 1790 <.LBB13_5+0xe0>
     c74:	080ccc93          	xori	s9,s9,128
     c78:	019c0a23          	sb	s9,20(s8)
     c7c:	00001cb7          	lui	s9,0x1
     c80:	41940cb3          	sub	s9,s0,s9
     c84:	7a8cbc83          	ld	s9,1960(s9) # 17a8 <.LBB13_5+0xf8>
     c88:	080ccc93          	xori	s9,s9,128
     c8c:	019c0aa3          	sb	s9,21(s8)
     c90:	00001cb7          	lui	s9,0x1
     c94:	41940cb3          	sub	s9,s0,s9
     c98:	7b8cbc83          	ld	s9,1976(s9) # 17b8 <.LBB13_5+0x108>
     c9c:	080ccc93          	xori	s9,s9,128
     ca0:	019c0b23          	sb	s9,22(s8)
     ca4:	00001cb7          	lui	s9,0x1
     ca8:	41940cb3          	sub	s9,s0,s9
     cac:	7c8cbc83          	ld	s9,1992(s9) # 17c8 <.LBB13_5+0x118>
     cb0:	080ccc93          	xori	s9,s9,128
     cb4:	019c0ba3          	sb	s9,23(s8)
     cb8:	00001cb7          	lui	s9,0x1
     cbc:	41940cb3          	sub	s9,s0,s9
     cc0:	7d8cbc83          	ld	s9,2008(s9) # 17d8 <.LBB13_5+0x128>
     cc4:	080ccc93          	xori	s9,s9,128
     cc8:	019c0c23          	sb	s9,24(s8)
     ccc:	00001cb7          	lui	s9,0x1
     cd0:	41940cb3          	sub	s9,s0,s9
     cd4:	7e8cbc83          	ld	s9,2024(s9) # 17e8 <.LBB13_5+0x138>
     cd8:	080ccc93          	xori	s9,s9,128
     cdc:	019c0ca3          	sb	s9,25(s8)
     ce0:	00001cb7          	lui	s9,0x1
     ce4:	41940cb3          	sub	s9,s0,s9
     ce8:	7f8cbc83          	ld	s9,2040(s9) # 17f8 <.LBB13_5+0x148>
     cec:	080ccc93          	xori	s9,s9,128
     cf0:	019c0d23          	sb	s9,26(s8)
     cf4:	81043c83          	ld	s9,-2032(s0)
     cf8:	080ccc93          	xori	s9,s9,128
     cfc:	019c0da3          	sb	s9,27(s8)
     d00:	82043c83          	ld	s9,-2016(s0)
     d04:	080ccc93          	xori	s9,s9,128
     d08:	019c0e23          	sb	s9,28(s8)
     d0c:	83043c83          	ld	s9,-2000(s0)
     d10:	080ccc93          	xori	s9,s9,128
     d14:	019c0ea3          	sb	s9,29(s8)
     d18:	84843c83          	ld	s9,-1976(s0)
     d1c:	080ccc93          	xori	s9,s9,128
     d20:	019c0f23          	sb	s9,30(s8)
     d24:	85843c83          	ld	s9,-1960(s0)
     d28:	080ccc93          	xori	s9,s9,128
     d2c:	019c0fa3          	sb	s9,31(s8)
     d30:	87043c03          	ld	s8,-1936(s0)
     d34:	080c4c93          	xori	s9,s8,128
     d38:	00001c37          	lui	s8,0x1
     d3c:	41840c33          	sub	s8,s0,s8
     d40:	ce8c3c03          	ld	s8,-792(s8) # ce8 <.LBB13_3+0xacc>
     d44:	01ac0c33          	add	s8,s8,s10
     d48:	019c01a3          	sb	s9,3(s8)
     d4c:	88043c83          	ld	s9,-1920(s0)
     d50:	080ccc93          	xori	s9,s9,128
     d54:	019c0123          	sb	s9,2(s8)
     d58:	89043c83          	ld	s9,-1904(s0)
     d5c:	080ccc93          	xori	s9,s9,128
     d60:	019c00a3          	sb	s9,1(s8)
     d64:	8a043c83          	ld	s9,-1888(s0)
     d68:	080ccc93          	xori	s9,s9,128
     d6c:	019c0023          	sb	s9,0(s8)
     d70:	8b843c83          	ld	s9,-1864(s0)
     d74:	080ccc93          	xori	s9,s9,128
     d78:	019c0223          	sb	s9,4(s8)
     d7c:	8c843c83          	ld	s9,-1848(s0)
     d80:	080ccc93          	xori	s9,s9,128
     d84:	019c02a3          	sb	s9,5(s8)
     d88:	8d843c83          	ld	s9,-1832(s0)
     d8c:	080ccc93          	xori	s9,s9,128
     d90:	019c0323          	sb	s9,6(s8)
     d94:	8e843c83          	ld	s9,-1816(s0)
     d98:	080ccc93          	xori	s9,s9,128
     d9c:	019c03a3          	sb	s9,7(s8)
     da0:	90043c83          	ld	s9,-1792(s0)
     da4:	080ccc93          	xori	s9,s9,128
     da8:	019c0423          	sb	s9,8(s8)
     dac:	91043c83          	ld	s9,-1776(s0)
     db0:	080ccc93          	xori	s9,s9,128
     db4:	019c04a3          	sb	s9,9(s8)
     db8:	92043c83          	ld	s9,-1760(s0)
     dbc:	080ccc93          	xori	s9,s9,128
     dc0:	019c0523          	sb	s9,10(s8)
     dc4:	93843c83          	ld	s9,-1736(s0)
     dc8:	080ccc93          	xori	s9,s9,128
     dcc:	019c05a3          	sb	s9,11(s8)
     dd0:	94843c83          	ld	s9,-1720(s0)
     dd4:	080ccc93          	xori	s9,s9,128
     dd8:	019c0623          	sb	s9,12(s8)
     ddc:	95843c83          	ld	s9,-1704(s0)
     de0:	080ccc93          	xori	s9,s9,128
     de4:	019c06a3          	sb	s9,13(s8)
     de8:	96843c83          	ld	s9,-1688(s0)
     dec:	080ccc93          	xori	s9,s9,128
     df0:	019c0723          	sb	s9,14(s8)
     df4:	98043c83          	ld	s9,-1664(s0)
     df8:	080ccc93          	xori	s9,s9,128
     dfc:	019c07a3          	sb	s9,15(s8)
     e00:	99043c83          	ld	s9,-1648(s0)
     e04:	080ccc93          	xori	s9,s9,128
     e08:	019c0823          	sb	s9,16(s8)
     e0c:	9a043c83          	ld	s9,-1632(s0)
     e10:	080ccc93          	xori	s9,s9,128
     e14:	019c08a3          	sb	s9,17(s8)
     e18:	9b043c83          	ld	s9,-1616(s0)
     e1c:	080ccc93          	xori	s9,s9,128
     e20:	019c0923          	sb	s9,18(s8)
     e24:	9c843c83          	ld	s9,-1592(s0)
     e28:	080ccc93          	xori	s9,s9,128
     e2c:	019c09a3          	sb	s9,19(s8)
     e30:	9d843c83          	ld	s9,-1576(s0)
     e34:	080ccc93          	xori	s9,s9,128
     e38:	019c0a23          	sb	s9,20(s8)
     e3c:	9e843c83          	ld	s9,-1560(s0)
     e40:	080ccc93          	xori	s9,s9,128
     e44:	019c0aa3          	sb	s9,21(s8)
     e48:	a0043c83          	ld	s9,-1536(s0)
     e4c:	080ccc93          	xori	s9,s9,128
     e50:	019c0b23          	sb	s9,22(s8)
     e54:	a1043c83          	ld	s9,-1520(s0)
     e58:	080ccc93          	xori	s9,s9,128
     e5c:	019c0ba3          	sb	s9,23(s8)
     e60:	a2043c83          	ld	s9,-1504(s0)
     e64:	080ccc93          	xori	s9,s9,128
     e68:	019c0c23          	sb	s9,24(s8)
     e6c:	a3043c83          	ld	s9,-1488(s0)
     e70:	080ccc93          	xori	s9,s9,128
     e74:	019c0ca3          	sb	s9,25(s8)
     e78:	a4843c83          	ld	s9,-1464(s0)
     e7c:	080ccc93          	xori	s9,s9,128
     e80:	019c0d23          	sb	s9,26(s8)
     e84:	a5843c83          	ld	s9,-1448(s0)
     e88:	080ccc93          	xori	s9,s9,128
     e8c:	019c0da3          	sb	s9,27(s8)
     e90:	a6843c83          	ld	s9,-1432(s0)
     e94:	080ccc93          	xori	s9,s9,128
     e98:	019c0e23          	sb	s9,28(s8)
     e9c:	a7843c83          	ld	s9,-1416(s0)
     ea0:	080ccc93          	xori	s9,s9,128
     ea4:	019c0ea3          	sb	s9,29(s8)
     ea8:	a9043c83          	ld	s9,-1392(s0)
     eac:	080ccc93          	xori	s9,s9,128
     eb0:	019c0f23          	sb	s9,30(s8)
     eb4:	aa043c83          	ld	s9,-1376(s0)
     eb8:	080ccc93          	xori	s9,s9,128
     ebc:	019c0fa3          	sb	s9,31(s8)
     ec0:	ab043c03          	ld	s8,-1360(s0)
     ec4:	080c4c93          	xori	s9,s8,128
     ec8:	00001c37          	lui	s8,0x1
     ecc:	41840c33          	sub	s8,s0,s8
     ed0:	ce0c3c03          	ld	s8,-800(s8) # ce0 <.LBB13_3+0xac4>
     ed4:	01ac0c33          	add	s8,s8,s10
     ed8:	019c01a3          	sb	s9,3(s8)
     edc:	ac843c83          	ld	s9,-1336(s0)
     ee0:	080ccc93          	xori	s9,s9,128
     ee4:	019c0123          	sb	s9,2(s8)
     ee8:	ad843c83          	ld	s9,-1320(s0)
     eec:	080ccc93          	xori	s9,s9,128
     ef0:	019c00a3          	sb	s9,1(s8)
     ef4:	ae843c83          	ld	s9,-1304(s0)
     ef8:	080ccc93          	xori	s9,s9,128
     efc:	019c0023          	sb	s9,0(s8)
     f00:	af843c83          	ld	s9,-1288(s0)
     f04:	080ccc93          	xori	s9,s9,128
     f08:	019c0223          	sb	s9,4(s8)
     f0c:	b1043c83          	ld	s9,-1264(s0)
     f10:	080ccc93          	xori	s9,s9,128
     f14:	019c02a3          	sb	s9,5(s8)
     f18:	b2043c83          	ld	s9,-1248(s0)
     f1c:	080ccc93          	xori	s9,s9,128
     f20:	019c0323          	sb	s9,6(s8)
     f24:	b3043c83          	ld	s9,-1232(s0)
     f28:	080ccc93          	xori	s9,s9,128
     f2c:	019c03a3          	sb	s9,7(s8)
     f30:	b4043c83          	ld	s9,-1216(s0)
     f34:	080ccc93          	xori	s9,s9,128
     f38:	019c0423          	sb	s9,8(s8)
     f3c:	b5843c83          	ld	s9,-1192(s0)
     f40:	080ccc93          	xori	s9,s9,128
     f44:	019c04a3          	sb	s9,9(s8)
     f48:	b6843c83          	ld	s9,-1176(s0)
     f4c:	080ccc93          	xori	s9,s9,128
     f50:	019c0523          	sb	s9,10(s8)
     f54:	b7843c83          	ld	s9,-1160(s0)
     f58:	080ccc93          	xori	s9,s9,128
     f5c:	019c05a3          	sb	s9,11(s8)
     f60:	b9043c83          	ld	s9,-1136(s0)
     f64:	080ccc93          	xori	s9,s9,128
     f68:	019c0623          	sb	s9,12(s8)
     f6c:	ba043c83          	ld	s9,-1120(s0)
     f70:	080ccc93          	xori	s9,s9,128
     f74:	019c06a3          	sb	s9,13(s8)
     f78:	bb043c83          	ld	s9,-1104(s0)
     f7c:	080ccc93          	xori	s9,s9,128
     f80:	019c0723          	sb	s9,14(s8)
     f84:	bc043c83          	ld	s9,-1088(s0)
     f88:	080ccc93          	xori	s9,s9,128
     f8c:	019c07a3          	sb	s9,15(s8)
     f90:	bd043c83          	ld	s9,-1072(s0)
     f94:	080ccc93          	xori	s9,s9,128
     f98:	019c0823          	sb	s9,16(s8)
     f9c:	be043c83          	ld	s9,-1056(s0)
     fa0:	080ccc93          	xori	s9,s9,128
     fa4:	019c08a3          	sb	s9,17(s8)
     fa8:	bf043c83          	ld	s9,-1040(s0)
     fac:	080ccc93          	xori	s9,s9,128
     fb0:	019c0923          	sb	s9,18(s8)
     fb4:	c0043c83          	ld	s9,-1024(s0)
     fb8:	080ccc93          	xori	s9,s9,128
     fbc:	019c09a3          	sb	s9,19(s8)
     fc0:	c2043c83          	ld	s9,-992(s0)
     fc4:	080ccc93          	xori	s9,s9,128
     fc8:	019c0a23          	sb	s9,20(s8)
     fcc:	c3043c83          	ld	s9,-976(s0)
     fd0:	080ccc93          	xori	s9,s9,128
     fd4:	019c0aa3          	sb	s9,21(s8)
     fd8:	c4043c83          	ld	s9,-960(s0)
     fdc:	080ccc93          	xori	s9,s9,128
     fe0:	019c0b23          	sb	s9,22(s8)
     fe4:	c5843c83          	ld	s9,-936(s0)
     fe8:	080ccc93          	xori	s9,s9,128
     fec:	019c0ba3          	sb	s9,23(s8)
     ff0:	c6843c83          	ld	s9,-920(s0)
     ff4:	080ccc93          	xori	s9,s9,128
     ff8:	019c0c23          	sb	s9,24(s8)
     ffc:	c7843c83          	ld	s9,-904(s0)
    1000:	080ccc93          	xori	s9,s9,128
    1004:	019c0ca3          	sb	s9,25(s8)
    1008:	c8843c83          	ld	s9,-888(s0)
    100c:	080ccc93          	xori	s9,s9,128
    1010:	019c0d23          	sb	s9,26(s8)
    1014:	ca043c83          	ld	s9,-864(s0)
    1018:	080ccc93          	xori	s9,s9,128
    101c:	019c0da3          	sb	s9,27(s8)
    1020:	cb043c83          	ld	s9,-848(s0)
    1024:	080ccc93          	xori	s9,s9,128
    1028:	019c0e23          	sb	s9,28(s8)
    102c:	cc043c83          	ld	s9,-832(s0)
    1030:	080ccc93          	xori	s9,s9,128
    1034:	019c0ea3          	sb	s9,29(s8)
    1038:	cd843c83          	ld	s9,-808(s0)
    103c:	080ccc93          	xori	s9,s9,128
    1040:	019c0f23          	sb	s9,30(s8)
    1044:	ce843c83          	ld	s9,-792(s0)
    1048:	080ccc93          	xori	s9,s9,128
    104c:	019c0fa3          	sb	s9,31(s8)
    1050:	cf843c03          	ld	s8,-776(s0)
    1054:	080c4c93          	xori	s9,s8,128
    1058:	00001c37          	lui	s8,0x1
    105c:	41840c33          	sub	s8,s0,s8
    1060:	cd8c3c03          	ld	s8,-808(s8) # cd8 <.LBB13_3+0xabc>
    1064:	01ac0c33          	add	s8,s8,s10
    1068:	019c01a3          	sb	s9,3(s8)
    106c:	d0843c83          	ld	s9,-760(s0)
    1070:	080ccc93          	xori	s9,s9,128
    1074:	019c0123          	sb	s9,2(s8)
    1078:	d2043c83          	ld	s9,-736(s0)
    107c:	080ccc93          	xori	s9,s9,128
    1080:	019c00a3          	sb	s9,1(s8)
    1084:	d3043c83          	ld	s9,-720(s0)
    1088:	080ccc93          	xori	s9,s9,128
    108c:	019c0023          	sb	s9,0(s8)
    1090:	d4043c83          	ld	s9,-704(s0)
    1094:	080ccc93          	xori	s9,s9,128
    1098:	019c0223          	sb	s9,4(s8)
    109c:	d5043c83          	ld	s9,-688(s0)
    10a0:	080ccc93          	xori	s9,s9,128
    10a4:	019c02a3          	sb	s9,5(s8)
    10a8:	d6843c83          	ld	s9,-664(s0)
    10ac:	080ccc93          	xori	s9,s9,128
    10b0:	019c0323          	sb	s9,6(s8)
    10b4:	d7843c83          	ld	s9,-648(s0)
    10b8:	080ccc93          	xori	s9,s9,128
    10bc:	019c03a3          	sb	s9,7(s8)
    10c0:	d8843c83          	ld	s9,-632(s0)
    10c4:	080ccc93          	xori	s9,s9,128
    10c8:	019c0423          	sb	s9,8(s8)
    10cc:	080dcc93          	xori	s9,s11,128
    10d0:	019c04a3          	sb	s9,9(s8)
    10d4:	08054513          	xori	a0,a0,128
    10d8:	00ac0523          	sb	a0,10(s8)
    10dc:	0805c513          	xori	a0,a1,128
    10e0:	00ac05a3          	sb	a0,11(s8)
    10e4:	08064513          	xori	a0,a2,128
    10e8:	00ac0623          	sb	a0,12(s8)
    10ec:	0806c513          	xori	a0,a3,128
    10f0:	00ac06a3          	sb	a0,13(s8)
    10f4:	08074513          	xori	a0,a4,128
    10f8:	00ac0723          	sb	a0,14(s8)
    10fc:	0807c513          	xori	a0,a5,128
    1100:	00ac07a3          	sb	a0,15(s8)
    1104:	08084513          	xori	a0,a6,128
    1108:	00ac0823          	sb	a0,16(s8)
    110c:	0808c513          	xori	a0,a7,128
    1110:	00ac08a3          	sb	a0,17(s8)
    1114:	0802c513          	xori	a0,t0,128
    1118:	00ac0923          	sb	a0,18(s8)
    111c:	08034513          	xori	a0,t1,128
    1120:	00ac09a3          	sb	a0,19(s8)
    1124:	0803c513          	xori	a0,t2,128
    1128:	00ac0a23          	sb	a0,20(s8)
    112c:	080e4513          	xori	a0,t3,128
    1130:	00ac0aa3          	sb	a0,21(s8)
    1134:	080ec513          	xori	a0,t4,128
    1138:	00ac0b23          	sb	a0,22(s8)
    113c:	080f4513          	xori	a0,t5,128
    1140:	00ac0ba3          	sb	a0,23(s8)
    1144:	080fc513          	xori	a0,t6,128
    1148:	00ac0c23          	sb	a0,24(s8)
    114c:	0804c513          	xori	a0,s1,128
    1150:	00ac0ca3          	sb	a0,25(s8)
    1154:	08094513          	xori	a0,s2,128
    1158:	00ac0d23          	sb	a0,26(s8)
    115c:	0809c513          	xori	a0,s3,128
    1160:	00ac0da3          	sb	a0,27(s8)
    1164:	080a4513          	xori	a0,s4,128
    1168:	00ac0e23          	sb	a0,28(s8)
    116c:	080ac513          	xori	a0,s5,128
    1170:	00ac0ea3          	sb	a0,29(s8)
    1174:	080b4513          	xori	a0,s6,128
    1178:	00ac0f23          	sb	a0,30(s8)
    117c:	080bc513          	xori	a0,s7,128
    1180:	00ac0fa3          	sb	a0,31(s8)
    1184:	020d0513          	addi	a0,s10,32
    1188:	000015b7          	lui	a1,0x1
    118c:	40b405b3          	sub	a1,s0,a1
    1190:	6205b603          	ld	a2,1568(a1) # 1620 <.LBB13_4+0x47c>
    1194:	02060613          	addi	a2,a2,32
    1198:	04000593          	li	a1,64
    119c:	00bd6463          	bltu	s10,a1,11a4 <.LBB13_4>
    11a0:	f6dfe06f          	j	10c <.LBB13_1>

00000000000011a4 <.LBB13_4>:
    11a4:	000015b7          	lui	a1,0x1
    11a8:	40b405b3          	sub	a1,s0,a1
    11ac:	62a5bc23          	sd	a0,1592(a1) # 1638 <.LBB13_4+0x494>
    11b0:	60000513          	li	a0,1536
    11b4:	000015b7          	lui	a1,0x1
    11b8:	40b405b3          	sub	a1,s0,a1
    11bc:	d185b783          	ld	a5,-744(a1) # d18 <.LBB13_3+0xafc>
    11c0:	000015b7          	lui	a1,0x1
    11c4:	40b405b3          	sub	a1,s0,a1
    11c8:	62c5b023          	sd	a2,1568(a1) # 1620 <.LBB13_4+0x47c>
    11cc:	00060493          	mv	s1,a2
    11d0:	000015b7          	lui	a1,0x1
    11d4:	40b405b3          	sub	a1,s0,a1
    11d8:	7405b023          	sd	zero,1856(a1) # 1740 <.LBB13_5+0x90>
    11dc:	000015b7          	lui	a1,0x1
    11e0:	40b405b3          	sub	a1,s0,a1
    11e4:	7205bc23          	sd	zero,1848(a1) # 1738 <.LBB13_5+0x88>
    11e8:	000015b7          	lui	a1,0x1
    11ec:	40b405b3          	sub	a1,s0,a1
    11f0:	7205b823          	sd	zero,1840(a1) # 1730 <.LBB13_5+0x80>
    11f4:	000015b7          	lui	a1,0x1
    11f8:	40b405b3          	sub	a1,s0,a1
    11fc:	7405b423          	sd	zero,1864(a1) # 1748 <.LBB13_5+0x98>
    1200:	000015b7          	lui	a1,0x1
    1204:	40b405b3          	sub	a1,s0,a1
    1208:	7205b423          	sd	zero,1832(a1) # 1728 <.LBB13_5+0x78>
    120c:	000015b7          	lui	a1,0x1
    1210:	40b405b3          	sub	a1,s0,a1
    1214:	7405b823          	sd	zero,1872(a1) # 1750 <.LBB13_5+0xa0>
    1218:	000015b7          	lui	a1,0x1
    121c:	40b405b3          	sub	a1,s0,a1
    1220:	7405bc23          	sd	zero,1880(a1) # 1758 <.LBB13_5+0xa8>
    1224:	000015b7          	lui	a1,0x1
    1228:	40b405b3          	sub	a1,s0,a1
    122c:	7605b023          	sd	zero,1888(a1) # 1760 <.LBB13_5+0xb0>
    1230:	000015b7          	lui	a1,0x1
    1234:	40b405b3          	sub	a1,s0,a1
    1238:	7205b023          	sd	zero,1824(a1) # 1720 <.LBB13_5+0x70>
    123c:	000015b7          	lui	a1,0x1
    1240:	40b405b3          	sub	a1,s0,a1
    1244:	7605b423          	sd	zero,1896(a1) # 1768 <.LBB13_5+0xb8>
    1248:	000015b7          	lui	a1,0x1
    124c:	40b405b3          	sub	a1,s0,a1
    1250:	7605b823          	sd	zero,1904(a1) # 1770 <.LBB13_5+0xc0>
    1254:	000015b7          	lui	a1,0x1
    1258:	40b405b3          	sub	a1,s0,a1
    125c:	7605bc23          	sd	zero,1912(a1) # 1778 <.LBB13_5+0xc8>
    1260:	000015b7          	lui	a1,0x1
    1264:	40b405b3          	sub	a1,s0,a1
    1268:	7805b023          	sd	zero,1920(a1) # 1780 <.LBB13_5+0xd0>
    126c:	000015b7          	lui	a1,0x1
    1270:	40b405b3          	sub	a1,s0,a1
    1274:	7805b423          	sd	zero,1928(a1) # 1788 <.LBB13_5+0xd8>
    1278:	000015b7          	lui	a1,0x1
    127c:	40b405b3          	sub	a1,s0,a1
    1280:	7805b823          	sd	zero,1936(a1) # 1790 <.LBB13_5+0xe0>
    1284:	000015b7          	lui	a1,0x1
    1288:	40b405b3          	sub	a1,s0,a1
    128c:	7805bc23          	sd	zero,1944(a1) # 1798 <.LBB13_5+0xe8>
    1290:	000015b7          	lui	a1,0x1
    1294:	40b405b3          	sub	a1,s0,a1
    1298:	7a05b023          	sd	zero,1952(a1) # 17a0 <.LBB13_5+0xf0>
    129c:	000015b7          	lui	a1,0x1
    12a0:	40b405b3          	sub	a1,s0,a1
    12a4:	7a05b423          	sd	zero,1960(a1) # 17a8 <.LBB13_5+0xf8>
    12a8:	000015b7          	lui	a1,0x1
    12ac:	40b405b3          	sub	a1,s0,a1
    12b0:	7a05b823          	sd	zero,1968(a1) # 17b0 <.LBB13_5+0x100>
    12b4:	000015b7          	lui	a1,0x1
    12b8:	40b405b3          	sub	a1,s0,a1
    12bc:	7a05bc23          	sd	zero,1976(a1) # 17b8 <.LBB13_5+0x108>
    12c0:	000015b7          	lui	a1,0x1
    12c4:	40b405b3          	sub	a1,s0,a1
    12c8:	7c05b023          	sd	zero,1984(a1) # 17c0 <.LBB13_5+0x110>
    12cc:	000015b7          	lui	a1,0x1
    12d0:	40b405b3          	sub	a1,s0,a1
    12d4:	7c05b423          	sd	zero,1992(a1) # 17c8 <.LBB13_5+0x118>
    12d8:	00000693          	li	a3,0
    12dc:	00000713          	li	a4,0
    12e0:	00000313          	li	t1,0
    12e4:	000015b7          	lui	a1,0x1
    12e8:	40b405b3          	sub	a1,s0,a1
    12ec:	7c05b823          	sd	zero,2000(a1) # 17d0 <.LBB13_5+0x120>
    12f0:	000015b7          	lui	a1,0x1
    12f4:	40b405b3          	sub	a1,s0,a1
    12f8:	7c05bc23          	sd	zero,2008(a1) # 17d8 <.LBB13_5+0x128>
    12fc:	000015b7          	lui	a1,0x1
    1300:	40b405b3          	sub	a1,s0,a1
    1304:	7e05b023          	sd	zero,2016(a1) # 17e0 <.LBB13_5+0x130>
    1308:	000015b7          	lui	a1,0x1
    130c:	40b405b3          	sub	a1,s0,a1
    1310:	7e05b423          	sd	zero,2024(a1) # 17e8 <.LBB13_5+0x138>
    1314:	00000b93          	li	s7,0
    1318:	000015b7          	lui	a1,0x1
    131c:	40b405b3          	sub	a1,s0,a1
    1320:	7e05b823          	sd	zero,2032(a1) # 17f0 <.LBB13_5+0x140>
    1324:	000015b7          	lui	a1,0x1
    1328:	40b405b3          	sub	a1,s0,a1
    132c:	7e05bc23          	sd	zero,2040(a1) # 17f8 <.LBB13_5+0x148>
    1330:	82043023          	sd	zero,-2016(s0)
    1334:	80043c23          	sd	zero,-2024(s0)
    1338:	80043823          	sd	zero,-2032(s0)
    133c:	80043423          	sd	zero,-2040(s0)
    1340:	82043423          	sd	zero,-2008(s0)
    1344:	82043823          	sd	zero,-2000(s0)
    1348:	82043c23          	sd	zero,-1992(s0)
    134c:	84043423          	sd	zero,-1976(s0)
    1350:	84043823          	sd	zero,-1968(s0)
    1354:	84043c23          	sd	zero,-1960(s0)
    1358:	86043023          	sd	zero,-1952(s0)
    135c:	86043423          	sd	zero,-1944(s0)
    1360:	86043823          	sd	zero,-1936(s0)
    1364:	86043c23          	sd	zero,-1928(s0)
    1368:	88043023          	sd	zero,-1920(s0)
    136c:	88043423          	sd	zero,-1912(s0)
    1370:	88043823          	sd	zero,-1904(s0)
    1374:	88043c23          	sd	zero,-1896(s0)
    1378:	8a043023          	sd	zero,-1888(s0)
    137c:	8a043423          	sd	zero,-1880(s0)
    1380:	8a043823          	sd	zero,-1872(s0)
    1384:	8a043c23          	sd	zero,-1864(s0)
    1388:	8c043023          	sd	zero,-1856(s0)
    138c:	8c043423          	sd	zero,-1848(s0)
    1390:	8c043823          	sd	zero,-1840(s0)
    1394:	8c043c23          	sd	zero,-1832(s0)
    1398:	8e043023          	sd	zero,-1824(s0)
    139c:	8e043423          	sd	zero,-1816(s0)
    13a0:	8e043823          	sd	zero,-1808(s0)
    13a4:	8e043c23          	sd	zero,-1800(s0)
    13a8:	90043023          	sd	zero,-1792(s0)
    13ac:	90043423          	sd	zero,-1784(s0)
    13b0:	92043423          	sd	zero,-1752(s0)
    13b4:	92043023          	sd	zero,-1760(s0)
    13b8:	90043c23          	sd	zero,-1768(s0)
    13bc:	90043823          	sd	zero,-1776(s0)
    13c0:	92043823          	sd	zero,-1744(s0)
    13c4:	92043c23          	sd	zero,-1736(s0)
    13c8:	94043023          	sd	zero,-1728(s0)
    13cc:	94043423          	sd	zero,-1720(s0)
    13d0:	94043823          	sd	zero,-1712(s0)
    13d4:	94043c23          	sd	zero,-1704(s0)
    13d8:	96043023          	sd	zero,-1696(s0)
    13dc:	96043423          	sd	zero,-1688(s0)
    13e0:	96043823          	sd	zero,-1680(s0)
    13e4:	96043c23          	sd	zero,-1672(s0)
    13e8:	98043023          	sd	zero,-1664(s0)
    13ec:	98043423          	sd	zero,-1656(s0)
    13f0:	98043823          	sd	zero,-1648(s0)
    13f4:	98043c23          	sd	zero,-1640(s0)
    13f8:	9a043023          	sd	zero,-1632(s0)
    13fc:	9a043423          	sd	zero,-1624(s0)
    1400:	9a043823          	sd	zero,-1616(s0)
    1404:	9a043c23          	sd	zero,-1608(s0)
    1408:	9c043023          	sd	zero,-1600(s0)
    140c:	9c043423          	sd	zero,-1592(s0)
    1410:	9c043823          	sd	zero,-1584(s0)
    1414:	9c043c23          	sd	zero,-1576(s0)
    1418:	9e043023          	sd	zero,-1568(s0)
    141c:	9e043423          	sd	zero,-1560(s0)
    1420:	9e043823          	sd	zero,-1552(s0)
    1424:	9e043c23          	sd	zero,-1544(s0)
    1428:	a0043023          	sd	zero,-1536(s0)
    142c:	a0043423          	sd	zero,-1528(s0)
    1430:	a2043423          	sd	zero,-1496(s0)
    1434:	a2043023          	sd	zero,-1504(s0)
    1438:	a0043c23          	sd	zero,-1512(s0)
    143c:	a0043823          	sd	zero,-1520(s0)
    1440:	a2043823          	sd	zero,-1488(s0)
    1444:	a2043c23          	sd	zero,-1480(s0)
    1448:	a4043023          	sd	zero,-1472(s0)
    144c:	a4043423          	sd	zero,-1464(s0)
    1450:	a4043823          	sd	zero,-1456(s0)
    1454:	a4043c23          	sd	zero,-1448(s0)
    1458:	a6043023          	sd	zero,-1440(s0)
    145c:	a6043423          	sd	zero,-1432(s0)
    1460:	a6043823          	sd	zero,-1424(s0)
    1464:	a6043c23          	sd	zero,-1416(s0)
    1468:	a8043023          	sd	zero,-1408(s0)
    146c:	a8043423          	sd	zero,-1400(s0)
    1470:	a8043823          	sd	zero,-1392(s0)
    1474:	a8043c23          	sd	zero,-1384(s0)
    1478:	aa043023          	sd	zero,-1376(s0)
    147c:	aa043423          	sd	zero,-1368(s0)
    1480:	aa043823          	sd	zero,-1360(s0)
    1484:	aa043c23          	sd	zero,-1352(s0)
    1488:	ac043023          	sd	zero,-1344(s0)
    148c:	ac043423          	sd	zero,-1336(s0)
    1490:	ac043823          	sd	zero,-1328(s0)
    1494:	ac043c23          	sd	zero,-1320(s0)
    1498:	ae043023          	sd	zero,-1312(s0)
    149c:	ae043423          	sd	zero,-1304(s0)
    14a0:	ae043823          	sd	zero,-1296(s0)
    14a4:	ae043c23          	sd	zero,-1288(s0)
    14a8:	b0043023          	sd	zero,-1280(s0)
    14ac:	b0043423          	sd	zero,-1272(s0)
    14b0:	b2043423          	sd	zero,-1240(s0)
    14b4:	b2043023          	sd	zero,-1248(s0)
    14b8:	b0043c23          	sd	zero,-1256(s0)
    14bc:	b0043823          	sd	zero,-1264(s0)
    14c0:	b2043823          	sd	zero,-1232(s0)
    14c4:	b2043c23          	sd	zero,-1224(s0)
    14c8:	b4043023          	sd	zero,-1216(s0)
    14cc:	b4043423          	sd	zero,-1208(s0)
    14d0:	b4043823          	sd	zero,-1200(s0)
    14d4:	b4043c23          	sd	zero,-1192(s0)
    14d8:	b6043023          	sd	zero,-1184(s0)
    14dc:	b6043423          	sd	zero,-1176(s0)
    14e0:	b6043823          	sd	zero,-1168(s0)
    14e4:	b6043c23          	sd	zero,-1160(s0)
    14e8:	b8043023          	sd	zero,-1152(s0)
    14ec:	b8043423          	sd	zero,-1144(s0)
    14f0:	b8043823          	sd	zero,-1136(s0)
    14f4:	b8043c23          	sd	zero,-1128(s0)
    14f8:	ba043023          	sd	zero,-1120(s0)
    14fc:	ba043423          	sd	zero,-1112(s0)
    1500:	ba043823          	sd	zero,-1104(s0)
    1504:	ba043c23          	sd	zero,-1096(s0)
    1508:	bc043023          	sd	zero,-1088(s0)
    150c:	bc043423          	sd	zero,-1080(s0)
    1510:	bc043823          	sd	zero,-1072(s0)
    1514:	bc043c23          	sd	zero,-1064(s0)
    1518:	be043023          	sd	zero,-1056(s0)
    151c:	be043423          	sd	zero,-1048(s0)
    1520:	be043823          	sd	zero,-1040(s0)
    1524:	be043c23          	sd	zero,-1032(s0)
    1528:	c0043023          	sd	zero,-1024(s0)
    152c:	80043023          	sd	zero,-2048(s0)
    1530:	c2043423          	sd	zero,-984(s0)
    1534:	c2043023          	sd	zero,-992(s0)
    1538:	c0043c23          	sd	zero,-1000(s0)
    153c:	c0043823          	sd	zero,-1008(s0)
    1540:	c2043823          	sd	zero,-976(s0)
    1544:	c2043c23          	sd	zero,-968(s0)
    1548:	c4043023          	sd	zero,-960(s0)
    154c:	c4043423          	sd	zero,-952(s0)
    1550:	c4043823          	sd	zero,-944(s0)
    1554:	c4043c23          	sd	zero,-936(s0)
    1558:	c6043023          	sd	zero,-928(s0)
    155c:	c6043423          	sd	zero,-920(s0)
    1560:	c6043823          	sd	zero,-912(s0)
    1564:	c6043c23          	sd	zero,-904(s0)
    1568:	c8043023          	sd	zero,-896(s0)
    156c:	c8043423          	sd	zero,-888(s0)
    1570:	c8043823          	sd	zero,-880(s0)
    1574:	c8043c23          	sd	zero,-872(s0)
    1578:	ca043023          	sd	zero,-864(s0)
    157c:	ca043423          	sd	zero,-856(s0)
    1580:	ca043823          	sd	zero,-848(s0)
    1584:	ca043c23          	sd	zero,-840(s0)
    1588:	cc043023          	sd	zero,-832(s0)
    158c:	cc043423          	sd	zero,-824(s0)
    1590:	cc043823          	sd	zero,-816(s0)
    1594:	cc043c23          	sd	zero,-808(s0)
    1598:	ce043023          	sd	zero,-800(s0)
    159c:	ce043423          	sd	zero,-792(s0)
    15a0:	ce043823          	sd	zero,-784(s0)
    15a4:	ce043c23          	sd	zero,-776(s0)
    15a8:	d0043023          	sd	zero,-768(s0)
    15ac:	d0043423          	sd	zero,-760(s0)
    15b0:	d2043423          	sd	zero,-728(s0)
    15b4:	d2043023          	sd	zero,-736(s0)
    15b8:	d0043c23          	sd	zero,-744(s0)
    15bc:	d0043823          	sd	zero,-752(s0)
    15c0:	d2043823          	sd	zero,-720(s0)
    15c4:	d2043c23          	sd	zero,-712(s0)
    15c8:	d4043023          	sd	zero,-704(s0)
    15cc:	d4043423          	sd	zero,-696(s0)
    15d0:	d4043823          	sd	zero,-688(s0)
    15d4:	d4043c23          	sd	zero,-680(s0)
    15d8:	d6043023          	sd	zero,-672(s0)
    15dc:	d6043423          	sd	zero,-664(s0)
    15e0:	d6043823          	sd	zero,-656(s0)
    15e4:	d6043c23          	sd	zero,-648(s0)
    15e8:	d8043023          	sd	zero,-640(s0)
    15ec:	d8043423          	sd	zero,-632(s0)
    15f0:	d8043823          	sd	zero,-624(s0)
    15f4:	d8043c23          	sd	zero,-616(s0)
    15f8:	da043023          	sd	zero,-608(s0)
    15fc:	da043423          	sd	zero,-600(s0)
    1600:	da043823          	sd	zero,-592(s0)
    1604:	da043c23          	sd	zero,-584(s0)
    1608:	dc043023          	sd	zero,-576(s0)
    160c:	dc043423          	sd	zero,-568(s0)
    1610:	dc043823          	sd	zero,-560(s0)
    1614:	dc043c23          	sd	zero,-552(s0)
    1618:	de043023          	sd	zero,-544(s0)
    161c:	de043423          	sd	zero,-536(s0)
    1620:	de043823          	sd	zero,-528(s0)
    1624:	de043c23          	sd	zero,-520(s0)
    1628:	e0043023          	sd	zero,-512(s0)
    162c:	e0043423          	sd	zero,-504(s0)
    1630:	e2043423          	sd	zero,-472(s0)
    1634:	e2043023          	sd	zero,-480(s0)
    1638:	e0043c23          	sd	zero,-488(s0)
    163c:	e0043823          	sd	zero,-496(s0)
    1640:	e2043823          	sd	zero,-464(s0)
    1644:	e2043c23          	sd	zero,-456(s0)
    1648:	e4043023          	sd	zero,-448(s0)
    164c:	84043023          	sd	zero,-1984(s0)
    1650:	c0043423          	sd	zero,-1016(s0)
    1654:	00000613          	li	a2,0
    1658:	e4043423          	sd	zero,-440(s0)
    165c:	e4043823          	sd	zero,-432(s0)
    1660:	00000593          	li	a1,0
    1664:	e6043423          	sd	zero,-408(s0)
    1668:	e4043c23          	sd	zero,-424(s0)
    166c:	e6043023          	sd	zero,-416(s0)
    1670:	00000093          	li	ra,0
    1674:	00000d93          	li	s11,0
    1678:	00000c93          	li	s9,0
    167c:	00000b13          	li	s6,0
    1680:	00000a93          	li	s5,0
    1684:	00000a13          	li	s4,0
    1688:	e6043823          	sd	zero,-400(s0)
    168c:	00000913          	li	s2,0
    1690:	00000f93          	li	t6,0
    1694:	00000f13          	li	t5,0
    1698:	00000e93          	li	t4,0
    169c:	00000e13          	li	t3,0
    16a0:	00000393          	li	t2,0
    16a4:	00000993          	li	s3,0
    16a8:	00000293          	li	t0,0
    16ac:	00000893          	li	a7,0

00000000000016b0 <.LBB13_5>:
    16b0:	f8943423          	sd	s1,-120(s0)
    16b4:	f8f43023          	sd	a5,-128(s0)
    16b8:	00001837          	lui	a6,0x1
    16bc:	41040833          	sub	a6,s0,a6
    16c0:	68a83423          	sd	a0,1672(a6) # 1688 <.LBB13_4+0x4e4>
    16c4:	f2c43023          	sd	a2,-224(s0)
    16c8:	f2b43423          	sd	a1,-216(s0)
    16cc:	00001537          	lui	a0,0x1
    16d0:	40a40533          	sub	a0,s0,a0
    16d4:	68153823          	sd	ra,1680(a0) # 1690 <.LBB13_4+0x4ec>
    16d8:	00001537          	lui	a0,0x1
    16dc:	40a40533          	sub	a0,s0,a0
    16e0:	69b53c23          	sd	s11,1688(a0) # 1698 <.LBB13_4+0x4f4>
    16e4:	00001537          	lui	a0,0x1
    16e8:	40a40533          	sub	a0,s0,a0
    16ec:	6b953023          	sd	s9,1696(a0) # 16a0 <.LBB13_4+0x4fc>
    16f0:	00001537          	lui	a0,0x1
    16f4:	40a40533          	sub	a0,s0,a0
    16f8:	6b653423          	sd	s6,1704(a0) # 16a8 <.LBB13_4+0x504>
    16fc:	00001537          	lui	a0,0x1
    1700:	40a40533          	sub	a0,s0,a0
    1704:	6b553823          	sd	s5,1712(a0) # 16b0 <.LBB13_5>
    1708:	00001537          	lui	a0,0x1
    170c:	40a40533          	sub	a0,s0,a0
    1710:	6b453c23          	sd	s4,1720(a0) # 16b8 <.LBB13_5+0x8>
    1714:	00001537          	lui	a0,0x1
    1718:	40a40533          	sub	a0,s0,a0
    171c:	6d253023          	sd	s2,1728(a0) # 16c0 <.LBB13_5+0x10>
    1720:	f1f43c23          	sd	t6,-232(s0)
    1724:	00001537          	lui	a0,0x1
    1728:	40a40533          	sub	a0,s0,a0
    172c:	6de53423          	sd	t5,1736(a0) # 16c8 <.LBB13_5+0x18>
    1730:	00001537          	lui	a0,0x1
    1734:	40a40533          	sub	a0,s0,a0
    1738:	6dd53823          	sd	t4,1744(a0) # 16d0 <.LBB13_5+0x20>
    173c:	00001537          	lui	a0,0x1
    1740:	40a40533          	sub	a0,s0,a0
    1744:	6dc53c23          	sd	t3,1752(a0) # 16d8 <.LBB13_5+0x28>
    1748:	00001537          	lui	a0,0x1
    174c:	40a40533          	sub	a0,s0,a0
    1750:	6e753023          	sd	t2,1760(a0) # 16e0 <.LBB13_5+0x30>
    1754:	00001537          	lui	a0,0x1
    1758:	40a40533          	sub	a0,s0,a0
    175c:	6f353423          	sd	s3,1768(a0) # 16e8 <.LBB13_5+0x38>
    1760:	00001537          	lui	a0,0x1
    1764:	40a40533          	sub	a0,s0,a0
    1768:	6e553823          	sd	t0,1776(a0) # 16f0 <.LBB13_5+0x40>
    176c:	00001537          	lui	a0,0x1
    1770:	40a40533          	sub	a0,s0,a0
    1774:	6f153c23          	sd	a7,1784(a0) # 16f8 <.LBB13_5+0x48>
    1778:	f9078503          	lb	a0,-112(a5)
    177c:	00248603          	lb	a2,2(s1)
    1780:	f2c43c23          	sd	a2,-200(s0)
    1784:	00148783          	lb	a5,1(s1)
    1788:	eaf43823          	sd	a5,-336(s0)
    178c:	00048903          	lb	s2,0(s1)
    1790:	00348983          	lb	s3,3(s1)
    1794:	f3343823          	sd	s3,-208(s0)
    1798:	00448c83          	lb	s9,4(s1)
    179c:	f7943c23          	sd	s9,-136(s0)
    17a0:	00548c03          	lb	s8,5(s1)
    17a4:	f7843823          	sd	s8,-144(s0)
    17a8:	00068893          	mv	a7,a3
    17ac:	00648683          	lb	a3,6(s1)
    17b0:	f4d43023          	sd	a3,-192(s0)
    17b4:	00070293          	mv	t0,a4
    17b8:	00748703          	lb	a4,7(s1)
    17bc:	00848803          	lb	a6,8(s1)
    17c0:	00948d03          	lb	s10,9(s1)
    17c4:	eba43c23          	sd	s10,-328(s0)
    17c8:	00a48383          	lb	t2,10(s1)
    17cc:	00b48a03          	lb	s4,11(s1)
    17d0:	ed443023          	sd	s4,-320(s0)
    17d4:	00c48b03          	lb	s6,12(s1)
    17d8:	00d48083          	lb	ra,13(s1)
    17dc:	00e48d83          	lb	s11,14(s1)
    17e0:	00f48e03          	lb	t3,15(s1)
    17e4:	e9c43c23          	sd	t3,-360(s0)
    17e8:	01048e83          	lb	t4,16(s1)
    17ec:	edd43423          	sd	t4,-312(s0)
    17f0:	01148f03          	lb	t5,17(s1)
    17f4:	ede43823          	sd	t5,-304(s0)
    17f8:	01248583          	lb	a1,18(s1)
    17fc:	f4b43c23          	sd	a1,-168(s0)
    1800:	01348a83          	lb	s5,19(s1)
    1804:	01448f83          	lb	t6,20(s1)
    1808:	f1f43823          	sd	t6,-240(s0)
    180c:	01548583          	lb	a1,21(s1)
    1810:	eeb43023          	sd	a1,-288(s0)
    1814:	01648583          	lb	a1,22(s1)
    1818:	f6b43023          	sd	a1,-160(s0)
    181c:	01748583          	lb	a1,23(s1)
    1820:	eab43023          	sd	a1,-352(s0)
    1824:	f8843583          	ld	a1,-120(s0)
    1828:	01858483          	lb	s1,24(a1)
    182c:	f4943423          	sd	s1,-184(s0)
    1830:	02c505b3          	mul	a1,a0,a2
    1834:	00001637          	lui	a2,0x1
    1838:	40c40633          	sub	a2,s0,a2
    183c:	73063603          	ld	a2,1840(a2) # 1730 <.LBB13_5+0x80>
    1840:	00c58633          	add	a2,a1,a2
    1844:	000015b7          	lui	a1,0x1
    1848:	40b405b3          	sub	a1,s0,a1
    184c:	72c5b823          	sd	a2,1840(a1) # 1730 <.LBB13_5+0x80>
    1850:	02f505b3          	mul	a1,a0,a5
    1854:	00001637          	lui	a2,0x1
    1858:	40c40633          	sub	a2,s0,a2
    185c:	73863603          	ld	a2,1848(a2) # 1738 <.LBB13_5+0x88>
    1860:	00c58633          	add	a2,a1,a2
    1864:	000015b7          	lui	a1,0x1
    1868:	40b405b3          	sub	a1,s0,a1
    186c:	72c5bc23          	sd	a2,1848(a1) # 1738 <.LBB13_5+0x88>
    1870:	032505b3          	mul	a1,a0,s2
    1874:	00001637          	lui	a2,0x1
    1878:	40c40633          	sub	a2,s0,a2
    187c:	74063603          	ld	a2,1856(a2) # 1740 <.LBB13_5+0x90>
    1880:	00c58633          	add	a2,a1,a2
    1884:	000015b7          	lui	a1,0x1
    1888:	40b405b3          	sub	a1,s0,a1
    188c:	74c5b023          	sd	a2,1856(a1) # 1740 <.LBB13_5+0x90>
    1890:	033505b3          	mul	a1,a0,s3
    1894:	00001637          	lui	a2,0x1
    1898:	40c40633          	sub	a2,s0,a2
    189c:	74863603          	ld	a2,1864(a2) # 1748 <.LBB13_5+0x98>
    18a0:	00c58633          	add	a2,a1,a2
    18a4:	000015b7          	lui	a1,0x1
    18a8:	40b405b3          	sub	a1,s0,a1
    18ac:	74c5b423          	sd	a2,1864(a1) # 1748 <.LBB13_5+0x98>
    18b0:	039505b3          	mul	a1,a0,s9
    18b4:	00001637          	lui	a2,0x1
    18b8:	40c40633          	sub	a2,s0,a2
    18bc:	72863603          	ld	a2,1832(a2) # 1728 <.LBB13_5+0x78>
    18c0:	00c58633          	add	a2,a1,a2
    18c4:	000015b7          	lui	a1,0x1
    18c8:	40b405b3          	sub	a1,s0,a1
    18cc:	72c5b423          	sd	a2,1832(a1) # 1728 <.LBB13_5+0x78>
    18d0:	038505b3          	mul	a1,a0,s8
    18d4:	00001637          	lui	a2,0x1
    18d8:	40c40633          	sub	a2,s0,a2
    18dc:	75063603          	ld	a2,1872(a2) # 1750 <.LBB13_5+0xa0>
    18e0:	00c58633          	add	a2,a1,a2
    18e4:	000015b7          	lui	a1,0x1
    18e8:	40b405b3          	sub	a1,s0,a1
    18ec:	74c5b823          	sd	a2,1872(a1) # 1750 <.LBB13_5+0xa0>
    18f0:	02d505b3          	mul	a1,a0,a3
    18f4:	00001637          	lui	a2,0x1
    18f8:	40c40633          	sub	a2,s0,a2
    18fc:	75863603          	ld	a2,1880(a2) # 1758 <.LBB13_5+0xa8>
    1900:	00c58633          	add	a2,a1,a2
    1904:	000015b7          	lui	a1,0x1
    1908:	40b405b3          	sub	a1,s0,a1
    190c:	74c5bc23          	sd	a2,1880(a1) # 1758 <.LBB13_5+0xa8>
    1910:	02e505b3          	mul	a1,a0,a4
    1914:	00001637          	lui	a2,0x1
    1918:	40c40633          	sub	a2,s0,a2
    191c:	76063603          	ld	a2,1888(a2) # 1760 <.LBB13_5+0xb0>
    1920:	00c58633          	add	a2,a1,a2
    1924:	000015b7          	lui	a1,0x1
    1928:	40b405b3          	sub	a1,s0,a1
    192c:	76c5b023          	sd	a2,1888(a1) # 1760 <.LBB13_5+0xb0>
    1930:	030505b3          	mul	a1,a0,a6
    1934:	00001637          	lui	a2,0x1
    1938:	40c40633          	sub	a2,s0,a2
    193c:	72063603          	ld	a2,1824(a2) # 1720 <.LBB13_5+0x70>
    1940:	00c58633          	add	a2,a1,a2
    1944:	000015b7          	lui	a1,0x1
    1948:	40b405b3          	sub	a1,s0,a1
    194c:	72c5b023          	sd	a2,1824(a1) # 1720 <.LBB13_5+0x70>
    1950:	03a505b3          	mul	a1,a0,s10
    1954:	00001637          	lui	a2,0x1
    1958:	40c40633          	sub	a2,s0,a2
    195c:	76863603          	ld	a2,1896(a2) # 1768 <.LBB13_5+0xb8>
    1960:	00c58633          	add	a2,a1,a2
    1964:	000015b7          	lui	a1,0x1
    1968:	40b405b3          	sub	a1,s0,a1
    196c:	76c5b423          	sd	a2,1896(a1) # 1768 <.LBB13_5+0xb8>
    1970:	027505b3          	mul	a1,a0,t2
    1974:	00038d13          	mv	s10,t2
    1978:	e6743c23          	sd	t2,-392(s0)
    197c:	00001637          	lui	a2,0x1
    1980:	40c40633          	sub	a2,s0,a2
    1984:	77063603          	ld	a2,1904(a2) # 1770 <.LBB13_5+0xc0>
    1988:	00c58633          	add	a2,a1,a2
    198c:	000015b7          	lui	a1,0x1
    1990:	40b405b3          	sub	a1,s0,a1
    1994:	76c5b823          	sd	a2,1904(a1) # 1770 <.LBB13_5+0xc0>
    1998:	034505b3          	mul	a1,a0,s4
    199c:	00001637          	lui	a2,0x1
    19a0:	40c40633          	sub	a2,s0,a2
    19a4:	77863603          	ld	a2,1912(a2) # 1778 <.LBB13_5+0xc8>
    19a8:	00c58633          	add	a2,a1,a2
    19ac:	000015b7          	lui	a1,0x1
    19b0:	40b405b3          	sub	a1,s0,a1
    19b4:	76c5bc23          	sd	a2,1912(a1) # 1778 <.LBB13_5+0xc8>
    19b8:	036505b3          	mul	a1,a0,s6
    19bc:	000b0a13          	mv	s4,s6
    19c0:	00001637          	lui	a2,0x1
    19c4:	40c40633          	sub	a2,s0,a2
    19c8:	69663023          	sd	s6,1664(a2) # 1680 <.LBB13_4+0x4dc>
    19cc:	00001637          	lui	a2,0x1
    19d0:	40c40633          	sub	a2,s0,a2
    19d4:	78063603          	ld	a2,1920(a2) # 1780 <.LBB13_5+0xd0>
    19d8:	00c58633          	add	a2,a1,a2
    19dc:	000015b7          	lui	a1,0x1
    19e0:	40b405b3          	sub	a1,s0,a1
    19e4:	78c5b023          	sd	a2,1920(a1) # 1780 <.LBB13_5+0xd0>
    19e8:	021505b3          	mul	a1,a0,ra
    19ec:	00001637          	lui	a2,0x1
    19f0:	40c40633          	sub	a2,s0,a2
    19f4:	78863603          	ld	a2,1928(a2) # 1788 <.LBB13_5+0xd8>
    19f8:	00c58633          	add	a2,a1,a2
    19fc:	000015b7          	lui	a1,0x1
    1a00:	40b405b3          	sub	a1,s0,a1
    1a04:	78c5b423          	sd	a2,1928(a1) # 1788 <.LBB13_5+0xd8>
    1a08:	03b505b3          	mul	a1,a0,s11
    1a0c:	00001637          	lui	a2,0x1
    1a10:	40c40633          	sub	a2,s0,a2
    1a14:	79063603          	ld	a2,1936(a2) # 1790 <.LBB13_5+0xe0>
    1a18:	00c58633          	add	a2,a1,a2
    1a1c:	000015b7          	lui	a1,0x1
    1a20:	40b405b3          	sub	a1,s0,a1
    1a24:	78c5b823          	sd	a2,1936(a1) # 1790 <.LBB13_5+0xe0>
    1a28:	03c505b3          	mul	a1,a0,t3
    1a2c:	00001637          	lui	a2,0x1
    1a30:	40c40633          	sub	a2,s0,a2
    1a34:	79863603          	ld	a2,1944(a2) # 1798 <.LBB13_5+0xe8>
    1a38:	00c58633          	add	a2,a1,a2
    1a3c:	000015b7          	lui	a1,0x1
    1a40:	40b405b3          	sub	a1,s0,a1
    1a44:	78c5bc23          	sd	a2,1944(a1) # 1798 <.LBB13_5+0xe8>
    1a48:	03d505b3          	mul	a1,a0,t4
    1a4c:	00001637          	lui	a2,0x1
    1a50:	40c40633          	sub	a2,s0,a2
    1a54:	7a063603          	ld	a2,1952(a2) # 17a0 <.LBB13_5+0xf0>
    1a58:	00c58633          	add	a2,a1,a2
    1a5c:	000015b7          	lui	a1,0x1
    1a60:	40b405b3          	sub	a1,s0,a1
    1a64:	7ac5b023          	sd	a2,1952(a1) # 17a0 <.LBB13_5+0xf0>
    1a68:	03e505b3          	mul	a1,a0,t5
    1a6c:	00001637          	lui	a2,0x1
    1a70:	40c40633          	sub	a2,s0,a2
    1a74:	7a863603          	ld	a2,1960(a2) # 17a8 <.LBB13_5+0xf8>
    1a78:	00c58633          	add	a2,a1,a2
    1a7c:	000015b7          	lui	a1,0x1
    1a80:	40b405b3          	sub	a1,s0,a1
    1a84:	7ac5b423          	sd	a2,1960(a1) # 17a8 <.LBB13_5+0xf8>
    1a88:	f5843783          	ld	a5,-168(s0)
    1a8c:	02f505b3          	mul	a1,a0,a5
    1a90:	00001637          	lui	a2,0x1
    1a94:	40c40633          	sub	a2,s0,a2
    1a98:	7b063603          	ld	a2,1968(a2) # 17b0 <.LBB13_5+0x100>
    1a9c:	00c58633          	add	a2,a1,a2
    1aa0:	000015b7          	lui	a1,0x1
    1aa4:	40b405b3          	sub	a1,s0,a1
    1aa8:	7ac5b823          	sd	a2,1968(a1) # 17b0 <.LBB13_5+0x100>
    1aac:	035505b3          	mul	a1,a0,s5
    1ab0:	00001637          	lui	a2,0x1
    1ab4:	40c40633          	sub	a2,s0,a2
    1ab8:	7b863603          	ld	a2,1976(a2) # 17b8 <.LBB13_5+0x108>
    1abc:	00c58633          	add	a2,a1,a2
    1ac0:	000015b7          	lui	a1,0x1
    1ac4:	40b405b3          	sub	a1,s0,a1
    1ac8:	7ac5bc23          	sd	a2,1976(a1) # 17b8 <.LBB13_5+0x108>
    1acc:	03f505b3          	mul	a1,a0,t6
    1ad0:	00001637          	lui	a2,0x1
    1ad4:	40c40633          	sub	a2,s0,a2
    1ad8:	7c063603          	ld	a2,1984(a2) # 17c0 <.LBB13_5+0x110>
    1adc:	00c58633          	add	a2,a1,a2
    1ae0:	000015b7          	lui	a1,0x1
    1ae4:	40b405b3          	sub	a1,s0,a1
    1ae8:	7cc5b023          	sd	a2,1984(a1) # 17c0 <.LBB13_5+0x110>
    1aec:	ee043583          	ld	a1,-288(s0)
    1af0:	02b505b3          	mul	a1,a0,a1
    1af4:	00001637          	lui	a2,0x1
    1af8:	40c40633          	sub	a2,s0,a2
    1afc:	7c863603          	ld	a2,1992(a2) # 17c8 <.LBB13_5+0x118>
    1b00:	00c58633          	add	a2,a1,a2
    1b04:	000015b7          	lui	a1,0x1
    1b08:	40b405b3          	sub	a1,s0,a1
    1b0c:	7cc5b423          	sd	a2,1992(a1) # 17c8 <.LBB13_5+0x118>
    1b10:	f6043583          	ld	a1,-160(s0)
    1b14:	02b505b3          	mul	a1,a0,a1
    1b18:	011588b3          	add	a7,a1,a7
    1b1c:	000015b7          	lui	a1,0x1
    1b20:	40b405b3          	sub	a1,s0,a1
    1b24:	7115b023          	sd	a7,1792(a1) # 1700 <.LBB13_5+0x50>
    1b28:	ea043c83          	ld	s9,-352(s0)
    1b2c:	039505b3          	mul	a1,a0,s9
    1b30:	005582b3          	add	t0,a1,t0
    1b34:	000015b7          	lui	a1,0x1
    1b38:	40b405b3          	sub	a1,s0,a1
    1b3c:	7055b423          	sd	t0,1800(a1) # 1708 <.LBB13_5+0x58>
    1b40:	f8843583          	ld	a1,-120(s0)
    1b44:	01958603          	lb	a2,25(a1)
    1b48:	e8c43823          	sd	a2,-368(s0)
    1b4c:	029505b3          	mul	a1,a0,s1
    1b50:	00658333          	add	t1,a1,t1
    1b54:	000015b7          	lui	a1,0x1
    1b58:	40b405b3          	sub	a1,s0,a1
    1b5c:	7065b823          	sd	t1,1808(a1) # 1710 <.LBB13_5+0x60>
    1b60:	f8843583          	ld	a1,-120(s0)
    1b64:	01a58683          	lb	a3,26(a1)
    1b68:	f6d43423          	sd	a3,-152(s0)
    1b6c:	02c505b3          	mul	a1,a0,a2
    1b70:	00001637          	lui	a2,0x1
    1b74:	40c40633          	sub	a2,s0,a2
    1b78:	7d063603          	ld	a2,2000(a2) # 17d0 <.LBB13_5+0x120>
    1b7c:	00c58633          	add	a2,a1,a2
    1b80:	000015b7          	lui	a1,0x1
    1b84:	40b405b3          	sub	a1,s0,a1
    1b88:	7cc5b823          	sd	a2,2000(a1) # 17d0 <.LBB13_5+0x120>
    1b8c:	f8843583          	ld	a1,-120(s0)
    1b90:	01b58303          	lb	t1,27(a1)
    1b94:	02d505b3          	mul	a1,a0,a3
    1b98:	00001637          	lui	a2,0x1
    1b9c:	40c40633          	sub	a2,s0,a2
    1ba0:	7d863603          	ld	a2,2008(a2) # 17d8 <.LBB13_5+0x128>
    1ba4:	00c58633          	add	a2,a1,a2
    1ba8:	000015b7          	lui	a1,0x1
    1bac:	40b405b3          	sub	a1,s0,a1
    1bb0:	7cc5bc23          	sd	a2,2008(a1) # 17d8 <.LBB13_5+0x128>
    1bb4:	f8843583          	ld	a1,-120(s0)
    1bb8:	01c58683          	lb	a3,28(a1)
    1bbc:	ead43423          	sd	a3,-344(s0)
    1bc0:	026505b3          	mul	a1,a0,t1
    1bc4:	00001637          	lui	a2,0x1
    1bc8:	40c40633          	sub	a2,s0,a2
    1bcc:	7e063603          	ld	a2,2016(a2) # 17e0 <.LBB13_5+0x130>
    1bd0:	00c58633          	add	a2,a1,a2
    1bd4:	000015b7          	lui	a1,0x1
    1bd8:	40b405b3          	sub	a1,s0,a1
    1bdc:	7ec5b023          	sd	a2,2016(a1) # 17e0 <.LBB13_5+0x130>
    1be0:	f8843583          	ld	a1,-120(s0)
    1be4:	01d58f83          	lb	t6,29(a1)
    1be8:	02d505b3          	mul	a1,a0,a3
    1bec:	00001637          	lui	a2,0x1
    1bf0:	40c40633          	sub	a2,s0,a2
    1bf4:	7e863603          	ld	a2,2024(a2) # 17e8 <.LBB13_5+0x138>
    1bf8:	00c58633          	add	a2,a1,a2
    1bfc:	000015b7          	lui	a1,0x1
    1c00:	40b405b3          	sub	a1,s0,a1
    1c04:	7ec5b423          	sd	a2,2024(a1) # 17e8 <.LBB13_5+0x138>
    1c08:	f8843583          	ld	a1,-120(s0)
    1c0c:	01e58683          	lb	a3,30(a1)
    1c10:	eed43423          	sd	a3,-280(s0)
    1c14:	03f505b3          	mul	a1,a0,t6
    1c18:	e9f43023          	sd	t6,-384(s0)
    1c1c:	01758bb3          	add	s7,a1,s7
    1c20:	000015b7          	lui	a1,0x1
    1c24:	40b405b3          	sub	a1,s0,a1
    1c28:	7175bc23          	sd	s7,1816(a1) # 1718 <.LBB13_5+0x68>
    1c2c:	f8843583          	ld	a1,-120(s0)
    1c30:	01f58583          	lb	a1,31(a1)
    1c34:	eeb43823          	sd	a1,-272(s0)
    1c38:	f8043603          	ld	a2,-128(s0)
    1c3c:	fa060983          	lb	s3,-96(a2)
    1c40:	02d50c33          	mul	s8,a0,a3
    1c44:	00001637          	lui	a2,0x1
    1c48:	40c40633          	sub	a2,s0,a2
    1c4c:	7f063603          	ld	a2,2032(a2) # 17f0 <.LBB13_5+0x140>
    1c50:	00cc0633          	add	a2,s8,a2
    1c54:	000016b7          	lui	a3,0x1
    1c58:	40d406b3          	sub	a3,s0,a3
    1c5c:	7ec6b823          	sd	a2,2032(a3) # 17f0 <.LBB13_5+0x140>
    1c60:	02b50533          	mul	a0,a0,a1
    1c64:	000015b7          	lui	a1,0x1
    1c68:	40b405b3          	sub	a1,s0,a1
    1c6c:	7f85b603          	ld	a2,2040(a1) # 17f8 <.LBB13_5+0x148>
    1c70:	00c50633          	add	a2,a0,a2
    1c74:	00001537          	lui	a0,0x1
    1c78:	40a40533          	sub	a0,s0,a0
    1c7c:	7ec53c23          	sd	a2,2040(a0) # 17f8 <.LBB13_5+0x148>
    1c80:	00090b13          	mv	s6,s2
    1c84:	e9243423          	sd	s2,-376(s0)
    1c88:	03298533          	mul	a0,s3,s2
    1c8c:	82043603          	ld	a2,-2016(s0)
    1c90:	00c50633          	add	a2,a0,a2
    1c94:	82c43023          	sd	a2,-2016(s0)
    1c98:	eb043483          	ld	s1,-336(s0)
    1c9c:	02998533          	mul	a0,s3,s1
    1ca0:	81843603          	ld	a2,-2024(s0)
    1ca4:	00c50633          	add	a2,a0,a2
    1ca8:	80c43c23          	sd	a2,-2024(s0)
    1cac:	f3843f03          	ld	t5,-200(s0)
    1cb0:	03e98533          	mul	a0,s3,t5
    1cb4:	81043603          	ld	a2,-2032(s0)
    1cb8:	00c50633          	add	a2,a0,a2
    1cbc:	80c43823          	sd	a2,-2032(s0)
    1cc0:	f3043e03          	ld	t3,-208(s0)
    1cc4:	03c98533          	mul	a0,s3,t3
    1cc8:	80843603          	ld	a2,-2040(s0)
    1ccc:	00c50633          	add	a2,a0,a2
    1cd0:	80c43423          	sd	a2,-2040(s0)
    1cd4:	f7843903          	ld	s2,-136(s0)
    1cd8:	03298533          	mul	a0,s3,s2
    1cdc:	82843603          	ld	a2,-2008(s0)
    1ce0:	00c50633          	add	a2,a0,a2
    1ce4:	82c43423          	sd	a2,-2008(s0)
    1ce8:	f7043883          	ld	a7,-144(s0)
    1cec:	03198533          	mul	a0,s3,a7
    1cf0:	83043603          	ld	a2,-2000(s0)
    1cf4:	00c50633          	add	a2,a0,a2
    1cf8:	82c43823          	sd	a2,-2000(s0)
    1cfc:	f4043683          	ld	a3,-192(s0)
    1d00:	02d98533          	mul	a0,s3,a3
    1d04:	83843603          	ld	a2,-1992(s0)
    1d08:	00c50633          	add	a2,a0,a2
    1d0c:	82c43c23          	sd	a2,-1992(s0)
    1d10:	f4e43823          	sd	a4,-176(s0)
    1d14:	02e98533          	mul	a0,s3,a4
    1d18:	84843603          	ld	a2,-1976(s0)
    1d1c:	00c50633          	add	a2,a0,a2
    1d20:	84c43423          	sd	a2,-1976(s0)
    1d24:	ef043c23          	sd	a6,-264(s0)
    1d28:	03098533          	mul	a0,s3,a6
    1d2c:	85043603          	ld	a2,-1968(s0)
    1d30:	00c50633          	add	a2,a0,a2
    1d34:	84c43823          	sd	a2,-1968(s0)
    1d38:	eb843383          	ld	t2,-328(s0)
    1d3c:	02798533          	mul	a0,s3,t2
    1d40:	85843603          	ld	a2,-1960(s0)
    1d44:	00c50633          	add	a2,a0,a2
    1d48:	84c43c23          	sd	a2,-1960(s0)
    1d4c:	03a98533          	mul	a0,s3,s10
    1d50:	86043603          	ld	a2,-1952(s0)
    1d54:	00c50633          	add	a2,a0,a2
    1d58:	86c43023          	sd	a2,-1952(s0)
    1d5c:	ec043e83          	ld	t4,-320(s0)
    1d60:	03d98533          	mul	a0,s3,t4
    1d64:	86843603          	ld	a2,-1944(s0)
    1d68:	00c50633          	add	a2,a0,a2
    1d6c:	86c43423          	sd	a2,-1944(s0)
    1d70:	03498533          	mul	a0,s3,s4
    1d74:	87043603          	ld	a2,-1936(s0)
    1d78:	00c50633          	add	a2,a0,a2
    1d7c:	86c43823          	sd	a2,-1936(s0)
    1d80:	f0143023          	sd	ra,-256(s0)
    1d84:	02198533          	mul	a0,s3,ra
    1d88:	87843603          	ld	a2,-1928(s0)
    1d8c:	00c50633          	add	a2,a0,a2
    1d90:	86c43c23          	sd	a2,-1928(s0)
    1d94:	f1b43423          	sd	s11,-248(s0)
    1d98:	03b98533          	mul	a0,s3,s11
    1d9c:	88043603          	ld	a2,-1920(s0)
    1da0:	00c50633          	add	a2,a0,a2
    1da4:	88c43023          	sd	a2,-1920(s0)
    1da8:	e9843a03          	ld	s4,-360(s0)
    1dac:	03498533          	mul	a0,s3,s4
    1db0:	88843603          	ld	a2,-1912(s0)
    1db4:	00c50633          	add	a2,a0,a2
    1db8:	88c43423          	sd	a2,-1912(s0)
    1dbc:	ec843583          	ld	a1,-312(s0)
    1dc0:	02b98533          	mul	a0,s3,a1
    1dc4:	89043603          	ld	a2,-1904(s0)
    1dc8:	00c50633          	add	a2,a0,a2
    1dcc:	88c43823          	sd	a2,-1904(s0)
    1dd0:	ed043b83          	ld	s7,-304(s0)
    1dd4:	03798533          	mul	a0,s3,s7
    1dd8:	89843603          	ld	a2,-1896(s0)
    1ddc:	00c50633          	add	a2,a0,a2
    1de0:	88c43c23          	sd	a2,-1896(s0)
    1de4:	02f98533          	mul	a0,s3,a5
    1de8:	00078d13          	mv	s10,a5
    1dec:	8a043603          	ld	a2,-1888(s0)
    1df0:	00c50633          	add	a2,a0,a2
    1df4:	8ac43023          	sd	a2,-1888(s0)
    1df8:	000a8293          	mv	t0,s5
    1dfc:	03598533          	mul	a0,s3,s5
    1e00:	8a843603          	ld	a2,-1880(s0)
    1e04:	00c50633          	add	a2,a0,a2
    1e08:	8ac43423          	sd	a2,-1880(s0)
    1e0c:	f1043503          	ld	a0,-240(s0)
    1e10:	02a98533          	mul	a0,s3,a0
    1e14:	8b043603          	ld	a2,-1872(s0)
    1e18:	00c50633          	add	a2,a0,a2
    1e1c:	8ac43823          	sd	a2,-1872(s0)
    1e20:	ee043783          	ld	a5,-288(s0)
    1e24:	02f98533          	mul	a0,s3,a5
    1e28:	8b843603          	ld	a2,-1864(s0)
    1e2c:	00c50633          	add	a2,a0,a2
    1e30:	8ac43c23          	sd	a2,-1864(s0)
    1e34:	f6043503          	ld	a0,-160(s0)
    1e38:	02a98533          	mul	a0,s3,a0
    1e3c:	8c043603          	ld	a2,-1856(s0)
    1e40:	00c50633          	add	a2,a0,a2
    1e44:	8cc43023          	sd	a2,-1856(s0)
    1e48:	03998533          	mul	a0,s3,s9
    1e4c:	8c843603          	ld	a2,-1848(s0)
    1e50:	00c50633          	add	a2,a0,a2
    1e54:	8cc43423          	sd	a2,-1848(s0)
    1e58:	f4843503          	ld	a0,-184(s0)
    1e5c:	02a98533          	mul	a0,s3,a0
    1e60:	8d043603          	ld	a2,-1840(s0)
    1e64:	00c50633          	add	a2,a0,a2
    1e68:	8cc43823          	sd	a2,-1840(s0)
    1e6c:	e9043c83          	ld	s9,-368(s0)
    1e70:	03998533          	mul	a0,s3,s9
    1e74:	8d843603          	ld	a2,-1832(s0)
    1e78:	00c50633          	add	a2,a0,a2
    1e7c:	8cc43c23          	sd	a2,-1832(s0)
    1e80:	f6843503          	ld	a0,-152(s0)
    1e84:	02a98533          	mul	a0,s3,a0
    1e88:	8e043603          	ld	a2,-1824(s0)
    1e8c:	00c50633          	add	a2,a0,a2
    1e90:	8ec43023          	sd	a2,-1824(s0)
    1e94:	02698533          	mul	a0,s3,t1
    1e98:	00030a93          	mv	s5,t1
    1e9c:	ec643c23          	sd	t1,-296(s0)
    1ea0:	8e843603          	ld	a2,-1816(s0)
    1ea4:	00c50633          	add	a2,a0,a2
    1ea8:	8ec43423          	sd	a2,-1816(s0)
    1eac:	ea843303          	ld	t1,-344(s0)
    1eb0:	02698533          	mul	a0,s3,t1
    1eb4:	8f043603          	ld	a2,-1808(s0)
    1eb8:	00c50633          	add	a2,a0,a2
    1ebc:	8ec43823          	sd	a2,-1808(s0)
    1ec0:	03f98533          	mul	a0,s3,t6
    1ec4:	8f843603          	ld	a2,-1800(s0)
    1ec8:	00c50633          	add	a2,a0,a2
    1ecc:	8ec43c23          	sd	a2,-1800(s0)
    1ed0:	f8043503          	ld	a0,-128(s0)
    1ed4:	fb050503          	lb	a0,-80(a0)
    1ed8:	ee843603          	ld	a2,-280(s0)
    1edc:	02c98c33          	mul	s8,s3,a2
    1ee0:	90043603          	ld	a2,-1792(s0)
    1ee4:	00cc0633          	add	a2,s8,a2
    1ee8:	90c43023          	sd	a2,-1792(s0)
    1eec:	ef043603          	ld	a2,-272(s0)
    1ef0:	02c989b3          	mul	s3,s3,a2
    1ef4:	90843603          	ld	a2,-1784(s0)
    1ef8:	00c98633          	add	a2,s3,a2
    1efc:	90c43423          	sd	a2,-1784(s0)
    1f00:	036509b3          	mul	s3,a0,s6
    1f04:	92843603          	ld	a2,-1752(s0)
    1f08:	00c98633          	add	a2,s3,a2
    1f0c:	92c43423          	sd	a2,-1752(s0)
    1f10:	029509b3          	mul	s3,a0,s1
    1f14:	92043603          	ld	a2,-1760(s0)
    1f18:	00c98633          	add	a2,s3,a2
    1f1c:	92c43023          	sd	a2,-1760(s0)
    1f20:	03e509b3          	mul	s3,a0,t5
    1f24:	91843603          	ld	a2,-1768(s0)
    1f28:	00c98633          	add	a2,s3,a2
    1f2c:	90c43c23          	sd	a2,-1768(s0)
    1f30:	03c509b3          	mul	s3,a0,t3
    1f34:	91043603          	ld	a2,-1776(s0)
    1f38:	00c98633          	add	a2,s3,a2
    1f3c:	90c43823          	sd	a2,-1776(s0)
    1f40:	032509b3          	mul	s3,a0,s2
    1f44:	93043603          	ld	a2,-1744(s0)
    1f48:	00c98633          	add	a2,s3,a2
    1f4c:	92c43823          	sd	a2,-1744(s0)
    1f50:	031509b3          	mul	s3,a0,a7
    1f54:	93843603          	ld	a2,-1736(s0)
    1f58:	00c98633          	add	a2,s3,a2
    1f5c:	92c43c23          	sd	a2,-1736(s0)
    1f60:	02d509b3          	mul	s3,a0,a3
    1f64:	94043603          	ld	a2,-1728(s0)
    1f68:	00c98633          	add	a2,s3,a2
    1f6c:	94c43023          	sd	a2,-1728(s0)
    1f70:	02e509b3          	mul	s3,a0,a4
    1f74:	94843603          	ld	a2,-1720(s0)
    1f78:	00c98633          	add	a2,s3,a2
    1f7c:	94c43423          	sd	a2,-1720(s0)
    1f80:	030509b3          	mul	s3,a0,a6
    1f84:	95043603          	ld	a2,-1712(s0)
    1f88:	00c98633          	add	a2,s3,a2
    1f8c:	94c43823          	sd	a2,-1712(s0)
    1f90:	027509b3          	mul	s3,a0,t2
    1f94:	00038f13          	mv	t5,t2
    1f98:	95843603          	ld	a2,-1704(s0)
    1f9c:	00c98633          	add	a2,s3,a2
    1fa0:	94c43c23          	sd	a2,-1704(s0)
    1fa4:	e7843e03          	ld	t3,-392(s0)
    1fa8:	03c509b3          	mul	s3,a0,t3
    1fac:	96043603          	ld	a2,-1696(s0)
    1fb0:	00c98633          	add	a2,s3,a2
    1fb4:	96c43023          	sd	a2,-1696(s0)
    1fb8:	03d509b3          	mul	s3,a0,t4
    1fbc:	96843603          	ld	a2,-1688(s0)
    1fc0:	00c98633          	add	a2,s3,a2
    1fc4:	96c43423          	sd	a2,-1688(s0)
    1fc8:	00001637          	lui	a2,0x1
    1fcc:	40c40633          	sub	a2,s0,a2
    1fd0:	68063b03          	ld	s6,1664(a2) # 1680 <.LBB13_4+0x4dc>
    1fd4:	036509b3          	mul	s3,a0,s6
    1fd8:	97043603          	ld	a2,-1680(s0)
    1fdc:	00c98633          	add	a2,s3,a2
    1fe0:	96c43823          	sd	a2,-1680(s0)
    1fe4:	021509b3          	mul	s3,a0,ra
    1fe8:	97843603          	ld	a2,-1672(s0)
    1fec:	00c98633          	add	a2,s3,a2
    1ff0:	96c43c23          	sd	a2,-1672(s0)
    1ff4:	03b509b3          	mul	s3,a0,s11
    1ff8:	98043603          	ld	a2,-1664(s0)
    1ffc:	00c98633          	add	a2,s3,a2
    2000:	98c43023          	sd	a2,-1664(s0)
    2004:	034509b3          	mul	s3,a0,s4
    2008:	98843603          	ld	a2,-1656(s0)
    200c:	00c98633          	add	a2,s3,a2
    2010:	98c43423          	sd	a2,-1656(s0)
    2014:	02b509b3          	mul	s3,a0,a1
    2018:	99043603          	ld	a2,-1648(s0)
    201c:	00c98633          	add	a2,s3,a2
    2020:	98c43823          	sd	a2,-1648(s0)
    2024:	037509b3          	mul	s3,a0,s7
    2028:	99843603          	ld	a2,-1640(s0)
    202c:	00c98633          	add	a2,s3,a2
    2030:	98c43c23          	sd	a2,-1640(s0)
    2034:	03a509b3          	mul	s3,a0,s10
    2038:	9a043603          	ld	a2,-1632(s0)
    203c:	00c98633          	add	a2,s3,a2
    2040:	9ac43023          	sd	a2,-1632(s0)
    2044:	025509b3          	mul	s3,a0,t0
    2048:	00028913          	mv	s2,t0
    204c:	000015b7          	lui	a1,0x1
    2050:	40b405b3          	sub	a1,s0,a1
    2054:	6655bc23          	sd	t0,1656(a1) # 1678 <.LBB13_4+0x4d4>
    2058:	9a843603          	ld	a2,-1624(s0)
    205c:	00c98633          	add	a2,s3,a2
    2060:	9ac43423          	sd	a2,-1624(s0)
    2064:	f1043383          	ld	t2,-240(s0)
    2068:	027509b3          	mul	s3,a0,t2
    206c:	9b043603          	ld	a2,-1616(s0)
    2070:	00c98633          	add	a2,s3,a2
    2074:	9ac43823          	sd	a2,-1616(s0)
    2078:	02f509b3          	mul	s3,a0,a5
    207c:	00078293          	mv	t0,a5
    2080:	9b843603          	ld	a2,-1608(s0)
    2084:	00c98633          	add	a2,s3,a2
    2088:	9ac43c23          	sd	a2,-1608(s0)
    208c:	f6043703          	ld	a4,-160(s0)
    2090:	02e509b3          	mul	s3,a0,a4
    2094:	9c043603          	ld	a2,-1600(s0)
    2098:	00c98633          	add	a2,s3,a2
    209c:	9cc43023          	sd	a2,-1600(s0)
    20a0:	ea043f83          	ld	t6,-352(s0)
    20a4:	03f509b3          	mul	s3,a0,t6
    20a8:	9c843603          	ld	a2,-1592(s0)
    20ac:	00c98633          	add	a2,s3,a2
    20b0:	9cc43423          	sd	a2,-1592(s0)
    20b4:	f4843683          	ld	a3,-184(s0)
    20b8:	02d509b3          	mul	s3,a0,a3
    20bc:	9d043603          	ld	a2,-1584(s0)
    20c0:	00c98633          	add	a2,s3,a2
    20c4:	9cc43823          	sd	a2,-1584(s0)
    20c8:	000c8d13          	mv	s10,s9
    20cc:	039509b3          	mul	s3,a0,s9
    20d0:	9d843603          	ld	a2,-1576(s0)
    20d4:	00c98633          	add	a2,s3,a2
    20d8:	9cc43c23          	sd	a2,-1576(s0)
    20dc:	f6843c83          	ld	s9,-152(s0)
    20e0:	039509b3          	mul	s3,a0,s9
    20e4:	9e043603          	ld	a2,-1568(s0)
    20e8:	00c98633          	add	a2,s3,a2
    20ec:	9ec43023          	sd	a2,-1568(s0)
    20f0:	035509b3          	mul	s3,a0,s5
    20f4:	9e843603          	ld	a2,-1560(s0)
    20f8:	00c98633          	add	a2,s3,a2
    20fc:	9ec43423          	sd	a2,-1560(s0)
    2100:	00030793          	mv	a5,t1
    2104:	026509b3          	mul	s3,a0,t1
    2108:	9f043603          	ld	a2,-1552(s0)
    210c:	00c98633          	add	a2,s3,a2
    2110:	9ec43823          	sd	a2,-1552(s0)
    2114:	e8043803          	ld	a6,-384(s0)
    2118:	030509b3          	mul	s3,a0,a6
    211c:	9f843603          	ld	a2,-1544(s0)
    2120:	00c98633          	add	a2,s3,a2
    2124:	9ec43c23          	sd	a2,-1544(s0)
    2128:	f8043603          	ld	a2,-128(s0)
    212c:	fc060983          	lb	s3,-64(a2)
    2130:	ee843d83          	ld	s11,-280(s0)
    2134:	03b50c33          	mul	s8,a0,s11
    2138:	a0043603          	ld	a2,-1536(s0)
    213c:	00cc0633          	add	a2,s8,a2
    2140:	a0c43023          	sd	a2,-1536(s0)
    2144:	ef043083          	ld	ra,-272(s0)
    2148:	02150533          	mul	a0,a0,ra
    214c:	a0843603          	ld	a2,-1528(s0)
    2150:	00c50633          	add	a2,a0,a2
    2154:	a0c43423          	sd	a2,-1528(s0)
    2158:	e8843883          	ld	a7,-376(s0)
    215c:	03198533          	mul	a0,s3,a7
    2160:	a2843603          	ld	a2,-1496(s0)
    2164:	00c50633          	add	a2,a0,a2
    2168:	a2c43423          	sd	a2,-1496(s0)
    216c:	02998533          	mul	a0,s3,s1
    2170:	a2043603          	ld	a2,-1504(s0)
    2174:	00c50633          	add	a2,a0,a2
    2178:	a2c43023          	sd	a2,-1504(s0)
    217c:	f3843583          	ld	a1,-200(s0)
    2180:	02b98533          	mul	a0,s3,a1
    2184:	a1843603          	ld	a2,-1512(s0)
    2188:	00c50633          	add	a2,a0,a2
    218c:	a0c43c23          	sd	a2,-1512(s0)
    2190:	f3043b83          	ld	s7,-208(s0)
    2194:	03798533          	mul	a0,s3,s7
    2198:	a1043603          	ld	a2,-1520(s0)
    219c:	00c50633          	add	a2,a0,a2
    21a0:	a0c43823          	sd	a2,-1520(s0)
    21a4:	f7843503          	ld	a0,-136(s0)
    21a8:	02a98533          	mul	a0,s3,a0
    21ac:	a3043603          	ld	a2,-1488(s0)
    21b0:	00c50633          	add	a2,a0,a2
    21b4:	a2c43823          	sd	a2,-1488(s0)
    21b8:	f7043503          	ld	a0,-144(s0)
    21bc:	02a98533          	mul	a0,s3,a0
    21c0:	a3843603          	ld	a2,-1480(s0)
    21c4:	00c50633          	add	a2,a0,a2
    21c8:	a2c43c23          	sd	a2,-1480(s0)
    21cc:	f4043a83          	ld	s5,-192(s0)
    21d0:	03598533          	mul	a0,s3,s5
    21d4:	a4043603          	ld	a2,-1472(s0)
    21d8:	00c50633          	add	a2,a0,a2
    21dc:	a4c43023          	sd	a2,-1472(s0)
    21e0:	f5043503          	ld	a0,-176(s0)
    21e4:	02a98533          	mul	a0,s3,a0
    21e8:	a4843603          	ld	a2,-1464(s0)
    21ec:	00c50633          	add	a2,a0,a2
    21f0:	a4c43423          	sd	a2,-1464(s0)
    21f4:	ef843503          	ld	a0,-264(s0)
    21f8:	02a98533          	mul	a0,s3,a0
    21fc:	a5043603          	ld	a2,-1456(s0)
    2200:	00c50633          	add	a2,a0,a2
    2204:	a4c43823          	sd	a2,-1456(s0)
    2208:	03e98533          	mul	a0,s3,t5
    220c:	a5843603          	ld	a2,-1448(s0)
    2210:	00c50633          	add	a2,a0,a2
    2214:	a4c43c23          	sd	a2,-1448(s0)
    2218:	03c98533          	mul	a0,s3,t3
    221c:	a6043603          	ld	a2,-1440(s0)
    2220:	00c50633          	add	a2,a0,a2
    2224:	a6c43023          	sd	a2,-1440(s0)
    2228:	03d98533          	mul	a0,s3,t4
    222c:	a6843603          	ld	a2,-1432(s0)
    2230:	00c50633          	add	a2,a0,a2
    2234:	a6c43423          	sd	a2,-1432(s0)
    2238:	03698533          	mul	a0,s3,s6
    223c:	a7043603          	ld	a2,-1424(s0)
    2240:	00c50633          	add	a2,a0,a2
    2244:	a6c43823          	sd	a2,-1424(s0)
    2248:	f0043503          	ld	a0,-256(s0)
    224c:	02a98533          	mul	a0,s3,a0
    2250:	a7843603          	ld	a2,-1416(s0)
    2254:	00c50633          	add	a2,a0,a2
    2258:	a6c43c23          	sd	a2,-1416(s0)
    225c:	f0843503          	ld	a0,-248(s0)
    2260:	02a98533          	mul	a0,s3,a0
    2264:	a8043603          	ld	a2,-1408(s0)
    2268:	00c50633          	add	a2,a0,a2
    226c:	a8c43023          	sd	a2,-1408(s0)
    2270:	03498533          	mul	a0,s3,s4
    2274:	a8843603          	ld	a2,-1400(s0)
    2278:	00c50633          	add	a2,a0,a2
    227c:	a8c43423          	sd	a2,-1400(s0)
    2280:	ec843f03          	ld	t5,-312(s0)
    2284:	03e98533          	mul	a0,s3,t5
    2288:	a9043603          	ld	a2,-1392(s0)
    228c:	00c50633          	add	a2,a0,a2
    2290:	a8c43823          	sd	a2,-1392(s0)
    2294:	ed043303          	ld	t1,-304(s0)
    2298:	02698533          	mul	a0,s3,t1
    229c:	a9843603          	ld	a2,-1384(s0)
    22a0:	00c50633          	add	a2,a0,a2
    22a4:	a8c43c23          	sd	a2,-1384(s0)
    22a8:	f5843503          	ld	a0,-168(s0)
    22ac:	02a98533          	mul	a0,s3,a0
    22b0:	aa043603          	ld	a2,-1376(s0)
    22b4:	00c50633          	add	a2,a0,a2
    22b8:	aac43023          	sd	a2,-1376(s0)
    22bc:	03298533          	mul	a0,s3,s2
    22c0:	aa843603          	ld	a2,-1368(s0)
    22c4:	00c50633          	add	a2,a0,a2
    22c8:	aac43423          	sd	a2,-1368(s0)
    22cc:	02798533          	mul	a0,s3,t2
    22d0:	ab043603          	ld	a2,-1360(s0)
    22d4:	00c50633          	add	a2,a0,a2
    22d8:	aac43823          	sd	a2,-1360(s0)
    22dc:	02598533          	mul	a0,s3,t0
    22e0:	ab843603          	ld	a2,-1352(s0)
    22e4:	00c50633          	add	a2,a0,a2
    22e8:	aac43c23          	sd	a2,-1352(s0)
    22ec:	02e98533          	mul	a0,s3,a4
    22f0:	00070913          	mv	s2,a4
    22f4:	ac043603          	ld	a2,-1344(s0)
    22f8:	00c50633          	add	a2,a0,a2
    22fc:	acc43023          	sd	a2,-1344(s0)
    2300:	03f98533          	mul	a0,s3,t6
    2304:	ac843603          	ld	a2,-1336(s0)
    2308:	00c50633          	add	a2,a0,a2
    230c:	acc43423          	sd	a2,-1336(s0)
    2310:	02d98533          	mul	a0,s3,a3
    2314:	ad043603          	ld	a2,-1328(s0)
    2318:	00c50633          	add	a2,a0,a2
    231c:	acc43823          	sd	a2,-1328(s0)
    2320:	03a98533          	mul	a0,s3,s10
    2324:	ad843603          	ld	a2,-1320(s0)
    2328:	00c50633          	add	a2,a0,a2
    232c:	acc43c23          	sd	a2,-1320(s0)
    2330:	03998533          	mul	a0,s3,s9
    2334:	ae043603          	ld	a2,-1312(s0)
    2338:	00c50633          	add	a2,a0,a2
    233c:	aec43023          	sd	a2,-1312(s0)
    2340:	ed843c83          	ld	s9,-296(s0)
    2344:	03998533          	mul	a0,s3,s9
    2348:	ae843603          	ld	a2,-1304(s0)
    234c:	00c50633          	add	a2,a0,a2
    2350:	aec43423          	sd	a2,-1304(s0)
    2354:	02f98533          	mul	a0,s3,a5
    2358:	af043603          	ld	a2,-1296(s0)
    235c:	00c50633          	add	a2,a0,a2
    2360:	aec43823          	sd	a2,-1296(s0)
    2364:	03098533          	mul	a0,s3,a6
    2368:	af843603          	ld	a2,-1288(s0)
    236c:	00c50633          	add	a2,a0,a2
    2370:	aec43c23          	sd	a2,-1288(s0)
    2374:	f8043503          	ld	a0,-128(s0)
    2378:	fd050503          	lb	a0,-48(a0)
    237c:	03b98c33          	mul	s8,s3,s11
    2380:	b0043603          	ld	a2,-1280(s0)
    2384:	00cc0633          	add	a2,s8,a2
    2388:	b0c43023          	sd	a2,-1280(s0)
    238c:	021989b3          	mul	s3,s3,ra
    2390:	b0843603          	ld	a2,-1272(s0)
    2394:	00c98633          	add	a2,s3,a2
    2398:	b0c43423          	sd	a2,-1272(s0)
    239c:	031509b3          	mul	s3,a0,a7
    23a0:	b2843603          	ld	a2,-1240(s0)
    23a4:	00c98633          	add	a2,s3,a2
    23a8:	b2c43423          	sd	a2,-1240(s0)
    23ac:	029509b3          	mul	s3,a0,s1
    23b0:	b2043603          	ld	a2,-1248(s0)
    23b4:	00c98633          	add	a2,s3,a2
    23b8:	b2c43023          	sd	a2,-1248(s0)
    23bc:	02b509b3          	mul	s3,a0,a1
    23c0:	b1843603          	ld	a2,-1256(s0)
    23c4:	00c98633          	add	a2,s3,a2
    23c8:	b0c43c23          	sd	a2,-1256(s0)
    23cc:	037509b3          	mul	s3,a0,s7
    23d0:	b1043603          	ld	a2,-1264(s0)
    23d4:	00c98633          	add	a2,s3,a2
    23d8:	b0c43823          	sd	a2,-1264(s0)
    23dc:	f7843683          	ld	a3,-136(s0)
    23e0:	02d509b3          	mul	s3,a0,a3
    23e4:	b3043603          	ld	a2,-1232(s0)
    23e8:	00c98633          	add	a2,s3,a2
    23ec:	b2c43823          	sd	a2,-1232(s0)
    23f0:	f7043783          	ld	a5,-144(s0)
    23f4:	02f509b3          	mul	s3,a0,a5
    23f8:	b3843603          	ld	a2,-1224(s0)
    23fc:	00c98633          	add	a2,s3,a2
    2400:	b2c43c23          	sd	a2,-1224(s0)
    2404:	035509b3          	mul	s3,a0,s5
    2408:	b4043603          	ld	a2,-1216(s0)
    240c:	00c98633          	add	a2,s3,a2
    2410:	b4c43023          	sd	a2,-1216(s0)
    2414:	f5043583          	ld	a1,-176(s0)
    2418:	02b509b3          	mul	s3,a0,a1
    241c:	b4843603          	ld	a2,-1208(s0)
    2420:	00c98633          	add	a2,s3,a2
    2424:	b4c43423          	sd	a2,-1208(s0)
    2428:	ef843703          	ld	a4,-264(s0)
    242c:	02e509b3          	mul	s3,a0,a4
    2430:	b5043603          	ld	a2,-1200(s0)
    2434:	00c98633          	add	a2,s3,a2
    2438:	b4c43823          	sd	a2,-1200(s0)
    243c:	eb843483          	ld	s1,-328(s0)
    2440:	029509b3          	mul	s3,a0,s1
    2444:	b5843603          	ld	a2,-1192(s0)
    2448:	00c98633          	add	a2,s3,a2
    244c:	b4c43c23          	sd	a2,-1192(s0)
    2450:	03c509b3          	mul	s3,a0,t3
    2454:	b6043603          	ld	a2,-1184(s0)
    2458:	00c98633          	add	a2,s3,a2
    245c:	b6c43023          	sd	a2,-1184(s0)
    2460:	03d509b3          	mul	s3,a0,t4
    2464:	b6843603          	ld	a2,-1176(s0)
    2468:	00c98633          	add	a2,s3,a2
    246c:	b6c43423          	sd	a2,-1176(s0)
    2470:	036509b3          	mul	s3,a0,s6
    2474:	b7043603          	ld	a2,-1168(s0)
    2478:	00c98633          	add	a2,s3,a2
    247c:	b6c43823          	sd	a2,-1168(s0)
    2480:	f0043583          	ld	a1,-256(s0)
    2484:	02b509b3          	mul	s3,a0,a1
    2488:	b7843603          	ld	a2,-1160(s0)
    248c:	00c98633          	add	a2,s3,a2
    2490:	b6c43c23          	sd	a2,-1160(s0)
    2494:	f0843803          	ld	a6,-248(s0)
    2498:	030509b3          	mul	s3,a0,a6
    249c:	b8043603          	ld	a2,-1152(s0)
    24a0:	00c98633          	add	a2,s3,a2
    24a4:	b8c43023          	sd	a2,-1152(s0)
    24a8:	034509b3          	mul	s3,a0,s4
    24ac:	b8843603          	ld	a2,-1144(s0)
    24b0:	00c98633          	add	a2,s3,a2
    24b4:	b8c43423          	sd	a2,-1144(s0)
    24b8:	03e509b3          	mul	s3,a0,t5
    24bc:	b9043603          	ld	a2,-1136(s0)
    24c0:	00c98633          	add	a2,s3,a2
    24c4:	b8c43823          	sd	a2,-1136(s0)
    24c8:	026509b3          	mul	s3,a0,t1
    24cc:	b9843603          	ld	a2,-1128(s0)
    24d0:	00c98633          	add	a2,s3,a2
    24d4:	b8c43c23          	sd	a2,-1128(s0)
    24d8:	f5843e03          	ld	t3,-168(s0)
    24dc:	03c509b3          	mul	s3,a0,t3
    24e0:	ba043603          	ld	a2,-1120(s0)
    24e4:	00c98633          	add	a2,s3,a2
    24e8:	bac43023          	sd	a2,-1120(s0)
    24ec:	00001637          	lui	a2,0x1
    24f0:	40c40633          	sub	a2,s0,a2
    24f4:	67863e83          	ld	t4,1656(a2) # 1678 <.LBB13_4+0x4d4>
    24f8:	03d509b3          	mul	s3,a0,t4
    24fc:	ba843603          	ld	a2,-1112(s0)
    2500:	00c98633          	add	a2,s3,a2
    2504:	bac43423          	sd	a2,-1112(s0)
    2508:	027509b3          	mul	s3,a0,t2
    250c:	bb043603          	ld	a2,-1104(s0)
    2510:	00c98633          	add	a2,s3,a2
    2514:	bac43823          	sd	a2,-1104(s0)
    2518:	025509b3          	mul	s3,a0,t0
    251c:	bb843603          	ld	a2,-1096(s0)
    2520:	00c98633          	add	a2,s3,a2
    2524:	bac43c23          	sd	a2,-1096(s0)
    2528:	032509b3          	mul	s3,a0,s2
    252c:	bc043603          	ld	a2,-1088(s0)
    2530:	00c98633          	add	a2,s3,a2
    2534:	bcc43023          	sd	a2,-1088(s0)
    2538:	03f509b3          	mul	s3,a0,t6
    253c:	bc843603          	ld	a2,-1080(s0)
    2540:	00c98633          	add	a2,s3,a2
    2544:	bcc43423          	sd	a2,-1080(s0)
    2548:	f4843f03          	ld	t5,-184(s0)
    254c:	03e509b3          	mul	s3,a0,t5
    2550:	bd043603          	ld	a2,-1072(s0)
    2554:	00c98633          	add	a2,s3,a2
    2558:	bcc43823          	sd	a2,-1072(s0)
    255c:	03a509b3          	mul	s3,a0,s10
    2560:	bd843603          	ld	a2,-1064(s0)
    2564:	00c98633          	add	a2,s3,a2
    2568:	bcc43c23          	sd	a2,-1064(s0)
    256c:	f6843283          	ld	t0,-152(s0)
    2570:	025509b3          	mul	s3,a0,t0
    2574:	be043603          	ld	a2,-1056(s0)
    2578:	00c98633          	add	a2,s3,a2
    257c:	bec43023          	sd	a2,-1056(s0)
    2580:	039509b3          	mul	s3,a0,s9
    2584:	be843603          	ld	a2,-1048(s0)
    2588:	00c98633          	add	a2,s3,a2
    258c:	bec43423          	sd	a2,-1048(s0)
    2590:	ea843383          	ld	t2,-344(s0)
    2594:	027509b3          	mul	s3,a0,t2
    2598:	bf043603          	ld	a2,-1040(s0)
    259c:	00c98633          	add	a2,s3,a2
    25a0:	bec43823          	sd	a2,-1040(s0)
    25a4:	e8043303          	ld	t1,-384(s0)
    25a8:	026509b3          	mul	s3,a0,t1
    25ac:	bf843603          	ld	a2,-1032(s0)
    25b0:	00c98633          	add	a2,s3,a2
    25b4:	bec43c23          	sd	a2,-1032(s0)
    25b8:	f8043603          	ld	a2,-128(s0)
    25bc:	fe060983          	lb	s3,-32(a2)
    25c0:	000d8c93          	mv	s9,s11
    25c4:	03b50c33          	mul	s8,a0,s11
    25c8:	c0043603          	ld	a2,-1024(s0)
    25cc:	00cc0633          	add	a2,s8,a2
    25d0:	c0c43023          	sd	a2,-1024(s0)
    25d4:	02150533          	mul	a0,a0,ra
    25d8:	80043603          	ld	a2,-2048(s0)
    25dc:	00c50633          	add	a2,a0,a2
    25e0:	80c43023          	sd	a2,-2048(s0)
    25e4:	00088b93          	mv	s7,a7
    25e8:	03198533          	mul	a0,s3,a7
    25ec:	c2843603          	ld	a2,-984(s0)
    25f0:	00c50633          	add	a2,a0,a2
    25f4:	c2c43423          	sd	a2,-984(s0)
    25f8:	eb043d03          	ld	s10,-336(s0)
    25fc:	03a98533          	mul	a0,s3,s10
    2600:	c2043603          	ld	a2,-992(s0)
    2604:	00c50633          	add	a2,a0,a2
    2608:	c2c43023          	sd	a2,-992(s0)
    260c:	f3843d83          	ld	s11,-200(s0)
    2610:	03b98533          	mul	a0,s3,s11
    2614:	c1843603          	ld	a2,-1000(s0)
    2618:	00c50633          	add	a2,a0,a2
    261c:	c0c43c23          	sd	a2,-1000(s0)
    2620:	f3043883          	ld	a7,-208(s0)
    2624:	03198533          	mul	a0,s3,a7
    2628:	c1043603          	ld	a2,-1008(s0)
    262c:	00c50633          	add	a2,a0,a2
    2630:	c0c43823          	sd	a2,-1008(s0)
    2634:	02d98533          	mul	a0,s3,a3
    2638:	c3043603          	ld	a2,-976(s0)
    263c:	00c50633          	add	a2,a0,a2
    2640:	c2c43823          	sd	a2,-976(s0)
    2644:	02f98533          	mul	a0,s3,a5
    2648:	c3843603          	ld	a2,-968(s0)
    264c:	00c50633          	add	a2,a0,a2
    2650:	c2c43c23          	sd	a2,-968(s0)
    2654:	03598533          	mul	a0,s3,s5
    2658:	c4043603          	ld	a2,-960(s0)
    265c:	00c50633          	add	a2,a0,a2
    2660:	c4c43023          	sd	a2,-960(s0)
    2664:	f5043a03          	ld	s4,-176(s0)
    2668:	03498533          	mul	a0,s3,s4
    266c:	c4843603          	ld	a2,-952(s0)
    2670:	00c50633          	add	a2,a0,a2
    2674:	c4c43423          	sd	a2,-952(s0)
    2678:	02e98533          	mul	a0,s3,a4
    267c:	c5043603          	ld	a2,-944(s0)
    2680:	00c50633          	add	a2,a0,a2
    2684:	c4c43823          	sd	a2,-944(s0)
    2688:	02998533          	mul	a0,s3,s1
    268c:	c5843603          	ld	a2,-936(s0)
    2690:	00c50633          	add	a2,a0,a2
    2694:	c4c43c23          	sd	a2,-936(s0)
    2698:	e7843703          	ld	a4,-392(s0)
    269c:	02e98533          	mul	a0,s3,a4
    26a0:	c6043603          	ld	a2,-928(s0)
    26a4:	00c50633          	add	a2,a0,a2
    26a8:	c6c43023          	sd	a2,-928(s0)
    26ac:	ec043683          	ld	a3,-320(s0)
    26b0:	02d98533          	mul	a0,s3,a3
    26b4:	c6843603          	ld	a2,-920(s0)
    26b8:	00c50633          	add	a2,a0,a2
    26bc:	c6c43423          	sd	a2,-920(s0)
    26c0:	03698533          	mul	a0,s3,s6
    26c4:	000b0793          	mv	a5,s6
    26c8:	c7043603          	ld	a2,-912(s0)
    26cc:	00c50633          	add	a2,a0,a2
    26d0:	c6c43823          	sd	a2,-912(s0)
    26d4:	02b98533          	mul	a0,s3,a1
    26d8:	c7843603          	ld	a2,-904(s0)
    26dc:	00c50633          	add	a2,a0,a2
    26e0:	c6c43c23          	sd	a2,-904(s0)
    26e4:	03098533          	mul	a0,s3,a6
    26e8:	c8043603          	ld	a2,-896(s0)
    26ec:	00c50633          	add	a2,a0,a2
    26f0:	c8c43023          	sd	a2,-896(s0)
    26f4:	e9843a83          	ld	s5,-360(s0)
    26f8:	03598533          	mul	a0,s3,s5
    26fc:	c8843603          	ld	a2,-888(s0)
    2700:	00c50633          	add	a2,a0,a2
    2704:	c8c43423          	sd	a2,-888(s0)
    2708:	ec843f83          	ld	t6,-312(s0)
    270c:	03f98533          	mul	a0,s3,t6
    2710:	c9043603          	ld	a2,-880(s0)
    2714:	00c50633          	add	a2,a0,a2
    2718:	c8c43823          	sd	a2,-880(s0)
    271c:	ed043b03          	ld	s6,-304(s0)
    2720:	03698533          	mul	a0,s3,s6
    2724:	c9843603          	ld	a2,-872(s0)
    2728:	00c50633          	add	a2,a0,a2
    272c:	c8c43c23          	sd	a2,-872(s0)
    2730:	03c98533          	mul	a0,s3,t3
    2734:	ca043603          	ld	a2,-864(s0)
    2738:	00c50633          	add	a2,a0,a2
    273c:	cac43023          	sd	a2,-864(s0)
    2740:	03d98533          	mul	a0,s3,t4
    2744:	ca843603          	ld	a2,-856(s0)
    2748:	00c50633          	add	a2,a0,a2
    274c:	cac43423          	sd	a2,-856(s0)
    2750:	f1043583          	ld	a1,-240(s0)
    2754:	02b98533          	mul	a0,s3,a1
    2758:	cb043603          	ld	a2,-848(s0)
    275c:	00c50633          	add	a2,a0,a2
    2760:	cac43823          	sd	a2,-848(s0)
    2764:	ee043e03          	ld	t3,-288(s0)
    2768:	03c98533          	mul	a0,s3,t3
    276c:	cb843603          	ld	a2,-840(s0)
    2770:	00c50633          	add	a2,a0,a2
    2774:	cac43c23          	sd	a2,-840(s0)
    2778:	03298533          	mul	a0,s3,s2
    277c:	cc043603          	ld	a2,-832(s0)
    2780:	00c50633          	add	a2,a0,a2
    2784:	ccc43023          	sd	a2,-832(s0)
    2788:	ea043903          	ld	s2,-352(s0)
    278c:	03298533          	mul	a0,s3,s2
    2790:	cc843603          	ld	a2,-824(s0)
    2794:	00c50633          	add	a2,a0,a2
    2798:	ccc43423          	sd	a2,-824(s0)
    279c:	03e98533          	mul	a0,s3,t5
    27a0:	cd043603          	ld	a2,-816(s0)
    27a4:	00c50633          	add	a2,a0,a2
    27a8:	ccc43823          	sd	a2,-816(s0)
    27ac:	e9043483          	ld	s1,-368(s0)
    27b0:	02998533          	mul	a0,s3,s1
    27b4:	cd843603          	ld	a2,-808(s0)
    27b8:	00c50633          	add	a2,a0,a2
    27bc:	ccc43c23          	sd	a2,-808(s0)
    27c0:	02598533          	mul	a0,s3,t0
    27c4:	ce043603          	ld	a2,-800(s0)
    27c8:	00c50633          	add	a2,a0,a2
    27cc:	cec43023          	sd	a2,-800(s0)
    27d0:	ed843503          	ld	a0,-296(s0)
    27d4:	02a98533          	mul	a0,s3,a0
    27d8:	ce843603          	ld	a2,-792(s0)
    27dc:	00c50633          	add	a2,a0,a2
    27e0:	cec43423          	sd	a2,-792(s0)
    27e4:	02798533          	mul	a0,s3,t2
    27e8:	cf043603          	ld	a2,-784(s0)
    27ec:	00c50633          	add	a2,a0,a2
    27f0:	cec43823          	sd	a2,-784(s0)
    27f4:	02698533          	mul	a0,s3,t1
    27f8:	cf843603          	ld	a2,-776(s0)
    27fc:	00c50633          	add	a2,a0,a2
    2800:	cec43c23          	sd	a2,-776(s0)
    2804:	f8043503          	ld	a0,-128(s0)
    2808:	ff050503          	lb	a0,-16(a0)
    280c:	03998c33          	mul	s8,s3,s9
    2810:	d0043603          	ld	a2,-768(s0)
    2814:	00cc0633          	add	a2,s8,a2
    2818:	d0c43023          	sd	a2,-768(s0)
    281c:	021989b3          	mul	s3,s3,ra
    2820:	d0843603          	ld	a2,-760(s0)
    2824:	00c98633          	add	a2,s3,a2
    2828:	d0c43423          	sd	a2,-760(s0)
    282c:	037509b3          	mul	s3,a0,s7
    2830:	d2843603          	ld	a2,-728(s0)
    2834:	00c98633          	add	a2,s3,a2
    2838:	d2c43423          	sd	a2,-728(s0)
    283c:	03a509b3          	mul	s3,a0,s10
    2840:	d2043603          	ld	a2,-736(s0)
    2844:	00c98633          	add	a2,s3,a2
    2848:	d2c43023          	sd	a2,-736(s0)
    284c:	03b509b3          	mul	s3,a0,s11
    2850:	d1843603          	ld	a2,-744(s0)
    2854:	00c98633          	add	a2,s3,a2
    2858:	d0c43c23          	sd	a2,-744(s0)
    285c:	031509b3          	mul	s3,a0,a7
    2860:	d1043603          	ld	a2,-752(s0)
    2864:	00c98633          	add	a2,s3,a2
    2868:	d0c43823          	sd	a2,-752(s0)
    286c:	f7843603          	ld	a2,-136(s0)
    2870:	02c509b3          	mul	s3,a0,a2
    2874:	d3043603          	ld	a2,-720(s0)
    2878:	00c98633          	add	a2,s3,a2
    287c:	d2c43823          	sd	a2,-720(s0)
    2880:	f7043603          	ld	a2,-144(s0)
    2884:	02c509b3          	mul	s3,a0,a2
    2888:	d3843603          	ld	a2,-712(s0)
    288c:	00c98633          	add	a2,s3,a2
    2890:	d2c43c23          	sd	a2,-712(s0)
    2894:	f4043603          	ld	a2,-192(s0)
    2898:	02c509b3          	mul	s3,a0,a2
    289c:	d4043603          	ld	a2,-704(s0)
    28a0:	00c98633          	add	a2,s3,a2
    28a4:	d4c43023          	sd	a2,-704(s0)
    28a8:	034509b3          	mul	s3,a0,s4
    28ac:	d4843603          	ld	a2,-696(s0)
    28b0:	00c98633          	add	a2,s3,a2
    28b4:	d4c43423          	sd	a2,-696(s0)
    28b8:	ef843083          	ld	ra,-264(s0)
    28bc:	021509b3          	mul	s3,a0,ra
    28c0:	d5043603          	ld	a2,-688(s0)
    28c4:	00c98633          	add	a2,s3,a2
    28c8:	d4c43823          	sd	a2,-688(s0)
    28cc:	eb843c83          	ld	s9,-328(s0)
    28d0:	039509b3          	mul	s3,a0,s9
    28d4:	d5843603          	ld	a2,-680(s0)
    28d8:	00c98633          	add	a2,s3,a2
    28dc:	d4c43c23          	sd	a2,-680(s0)
    28e0:	00070b93          	mv	s7,a4
    28e4:	02e509b3          	mul	s3,a0,a4
    28e8:	d6043603          	ld	a2,-672(s0)
    28ec:	00c98633          	add	a2,s3,a2
    28f0:	d6c43023          	sd	a2,-672(s0)
    28f4:	02d509b3          	mul	s3,a0,a3
    28f8:	d6843603          	ld	a2,-664(s0)
    28fc:	00c98633          	add	a2,s3,a2
    2900:	d6c43423          	sd	a2,-664(s0)
    2904:	00078393          	mv	t2,a5
    2908:	02f509b3          	mul	s3,a0,a5
    290c:	d7043603          	ld	a2,-656(s0)
    2910:	00c98633          	add	a2,s3,a2
    2914:	d6c43823          	sd	a2,-656(s0)
    2918:	f0043803          	ld	a6,-256(s0)
    291c:	030509b3          	mul	s3,a0,a6
    2920:	d7843603          	ld	a2,-648(s0)
    2924:	00c98633          	add	a2,s3,a2
    2928:	d6c43c23          	sd	a2,-648(s0)
    292c:	f0843783          	ld	a5,-248(s0)
    2930:	02f509b3          	mul	s3,a0,a5
    2934:	d8043603          	ld	a2,-640(s0)
    2938:	00c98633          	add	a2,s3,a2
    293c:	d8c43023          	sd	a2,-640(s0)
    2940:	000a8713          	mv	a4,s5
    2944:	035509b3          	mul	s3,a0,s5
    2948:	d8843603          	ld	a2,-632(s0)
    294c:	00c98633          	add	a2,s3,a2
    2950:	d8c43423          	sd	a2,-632(s0)
    2954:	03f509b3          	mul	s3,a0,t6
    2958:	000f8f13          	mv	t5,t6
    295c:	d9043603          	ld	a2,-624(s0)
    2960:	00c98633          	add	a2,s3,a2
    2964:	d8c43823          	sd	a2,-624(s0)
    2968:	000b0693          	mv	a3,s6
    296c:	036509b3          	mul	s3,a0,s6
    2970:	d9843603          	ld	a2,-616(s0)
    2974:	00c98633          	add	a2,s3,a2
    2978:	d8c43c23          	sd	a2,-616(s0)
    297c:	f5843b03          	ld	s6,-168(s0)
    2980:	036509b3          	mul	s3,a0,s6
    2984:	da043603          	ld	a2,-608(s0)
    2988:	00c98633          	add	a2,s3,a2
    298c:	dac43023          	sd	a2,-608(s0)
    2990:	03d509b3          	mul	s3,a0,t4
    2994:	da843603          	ld	a2,-600(s0)
    2998:	00c98633          	add	a2,s3,a2
    299c:	dac43423          	sd	a2,-600(s0)
    29a0:	02b509b3          	mul	s3,a0,a1
    29a4:	00058a93          	mv	s5,a1
    29a8:	db043603          	ld	a2,-592(s0)
    29ac:	00c98633          	add	a2,s3,a2
    29b0:	dac43823          	sd	a2,-592(s0)
    29b4:	03c509b3          	mul	s3,a0,t3
    29b8:	db843603          	ld	a2,-584(s0)
    29bc:	00c98633          	add	a2,s3,a2
    29c0:	dac43c23          	sd	a2,-584(s0)
    29c4:	f6043883          	ld	a7,-160(s0)
    29c8:	031509b3          	mul	s3,a0,a7
    29cc:	dc043603          	ld	a2,-576(s0)
    29d0:	00c98633          	add	a2,s3,a2
    29d4:	dcc43023          	sd	a2,-576(s0)
    29d8:	00090293          	mv	t0,s2
    29dc:	032509b3          	mul	s3,a0,s2
    29e0:	dc843603          	ld	a2,-568(s0)
    29e4:	00c98633          	add	a2,s3,a2
    29e8:	dcc43423          	sd	a2,-568(s0)
    29ec:	f4843f83          	ld	t6,-184(s0)
    29f0:	03f509b3          	mul	s3,a0,t6
    29f4:	dd043603          	ld	a2,-560(s0)
    29f8:	00c98633          	add	a2,s3,a2
    29fc:	dcc43823          	sd	a2,-560(s0)
    2a00:	029509b3          	mul	s3,a0,s1
    2a04:	dd843603          	ld	a2,-552(s0)
    2a08:	00c98633          	add	a2,s3,a2
    2a0c:	dcc43c23          	sd	a2,-552(s0)
    2a10:	f6843a03          	ld	s4,-152(s0)
    2a14:	034509b3          	mul	s3,a0,s4
    2a18:	de043603          	ld	a2,-544(s0)
    2a1c:	00c98633          	add	a2,s3,a2
    2a20:	dec43023          	sd	a2,-544(s0)
    2a24:	ed843d03          	ld	s10,-296(s0)
    2a28:	03a509b3          	mul	s3,a0,s10
    2a2c:	de843603          	ld	a2,-536(s0)
    2a30:	00c98633          	add	a2,s3,a2
    2a34:	dec43423          	sd	a2,-536(s0)
    2a38:	ea843583          	ld	a1,-344(s0)
    2a3c:	02b509b3          	mul	s3,a0,a1
    2a40:	df043603          	ld	a2,-528(s0)
    2a44:	00c98633          	add	a2,s3,a2
    2a48:	dec43823          	sd	a2,-528(s0)
    2a4c:	026509b3          	mul	s3,a0,t1
    2a50:	df843603          	ld	a2,-520(s0)
    2a54:	00c98633          	add	a2,s3,a2
    2a58:	dec43c23          	sd	a2,-520(s0)
    2a5c:	f8043603          	ld	a2,-128(s0)
    2a60:	00060983          	lb	s3,0(a2)
    2a64:	ee843d83          	ld	s11,-280(s0)
    2a68:	03b50c33          	mul	s8,a0,s11
    2a6c:	e0043603          	ld	a2,-512(s0)
    2a70:	00cc0633          	add	a2,s8,a2
    2a74:	e0c43023          	sd	a2,-512(s0)
    2a78:	ef043c03          	ld	s8,-272(s0)
    2a7c:	03850533          	mul	a0,a0,s8
    2a80:	e0843603          	ld	a2,-504(s0)
    2a84:	00c50633          	add	a2,a0,a2
    2a88:	e0c43423          	sd	a2,-504(s0)
    2a8c:	03898533          	mul	a0,s3,s8
    2a90:	eea43823          	sd	a0,-272(s0)
    2a94:	03b98533          	mul	a0,s3,s11
    2a98:	eea43423          	sd	a0,-280(s0)
    2a9c:	02698533          	mul	a0,s3,t1
    2aa0:	e8a43023          	sd	a0,-384(s0)
    2aa4:	02b98533          	mul	a0,s3,a1
    2aa8:	eaa43423          	sd	a0,-344(s0)
    2aac:	03a98533          	mul	a0,s3,s10
    2ab0:	eca43c23          	sd	a0,-296(s0)
    2ab4:	03498533          	mul	a0,s3,s4
    2ab8:	f6a43423          	sd	a0,-152(s0)
    2abc:	02998533          	mul	a0,s3,s1
    2ac0:	e8a43823          	sd	a0,-368(s0)
    2ac4:	03f98533          	mul	a0,s3,t6
    2ac8:	f4a43423          	sd	a0,-184(s0)
    2acc:	032984b3          	mul	s1,s3,s2
    2ad0:	03198fb3          	mul	t6,s3,a7
    2ad4:	03c982b3          	mul	t0,s3,t3
    2ad8:	035988b3          	mul	a7,s3,s5
    2adc:	03d98333          	mul	t1,s3,t4
    2ae0:	03698e33          	mul	t3,s3,s6
    2ae4:	02d98eb3          	mul	t4,s3,a3
    2ae8:	03e98f33          	mul	t5,s3,t5
    2aec:	02e98933          	mul	s2,s3,a4
    2af0:	02f98a33          	mul	s4,s3,a5
    2af4:	03098ab3          	mul	s5,s3,a6
    2af8:	02798c33          	mul	s8,s3,t2
    2afc:	ec043503          	ld	a0,-320(s0)
    2b00:	02a98d33          	mul	s10,s3,a0
    2b04:	03798b33          	mul	s6,s3,s7
    2b08:	03998bb3          	mul	s7,s3,s9
    2b0c:	02198db3          	mul	s11,s3,ra
    2b10:	f5043503          	ld	a0,-176(s0)
    2b14:	02a980b3          	mul	ra,s3,a0
    2b18:	f4043503          	ld	a0,-192(s0)
    2b1c:	02a98733          	mul	a4,s3,a0
    2b20:	f7043503          	ld	a0,-144(s0)
    2b24:	02a98cb3          	mul	s9,s3,a0
    2b28:	f7843503          	ld	a0,-136(s0)
    2b2c:	02a986b3          	mul	a3,s3,a0
    2b30:	f3043503          	ld	a0,-208(s0)
    2b34:	02a98633          	mul	a2,s3,a0
    2b38:	f3843503          	ld	a0,-200(s0)
    2b3c:	02a985b3          	mul	a1,s3,a0
    2b40:	eb043503          	ld	a0,-336(s0)
    2b44:	02a98533          	mul	a0,s3,a0
    2b48:	e8843783          	ld	a5,-376(s0)
    2b4c:	02f989b3          	mul	s3,s3,a5
    2b50:	e2843783          	ld	a5,-472(s0)
    2b54:	00f987b3          	add	a5,s3,a5
    2b58:	e2f43423          	sd	a5,-472(s0)
    2b5c:	e2043783          	ld	a5,-480(s0)
    2b60:	00f507b3          	add	a5,a0,a5
    2b64:	e2f43023          	sd	a5,-480(s0)
    2b68:	e1843503          	ld	a0,-488(s0)
    2b6c:	00a58533          	add	a0,a1,a0
    2b70:	e0a43c23          	sd	a0,-488(s0)
    2b74:	e1043503          	ld	a0,-496(s0)
    2b78:	00a60533          	add	a0,a2,a0
    2b7c:	e0a43823          	sd	a0,-496(s0)
    2b80:	e3043503          	ld	a0,-464(s0)
    2b84:	00a68533          	add	a0,a3,a0
    2b88:	e2a43823          	sd	a0,-464(s0)
    2b8c:	e3843503          	ld	a0,-456(s0)
    2b90:	00ac8533          	add	a0,s9,a0
    2b94:	e2a43c23          	sd	a0,-456(s0)
    2b98:	00001537          	lui	a0,0x1
    2b9c:	40a40533          	sub	a0,s0,a0
    2ba0:	6a053c83          	ld	s9,1696(a0) # 16a0 <.LBB13_4+0x4fc>
    2ba4:	e4043503          	ld	a0,-448(s0)
    2ba8:	00a70533          	add	a0,a4,a0
    2bac:	e4a43023          	sd	a0,-448(s0)
    2bb0:	84043503          	ld	a0,-1984(s0)
    2bb4:	00a08533          	add	a0,ra,a0
    2bb8:	84a43023          	sd	a0,-1984(s0)
    2bbc:	00001537          	lui	a0,0x1
    2bc0:	40a40533          	sub	a0,s0,a0
    2bc4:	69053083          	ld	ra,1680(a0) # 1690 <.LBB13_4+0x4ec>
    2bc8:	c0843503          	ld	a0,-1016(s0)
    2bcc:	00ad8533          	add	a0,s11,a0
    2bd0:	c0a43423          	sd	a0,-1016(s0)
    2bd4:	00001537          	lui	a0,0x1
    2bd8:	40a40533          	sub	a0,s0,a0
    2bdc:	69853d83          	ld	s11,1688(a0) # 1698 <.LBB13_4+0x4f4>
    2be0:	f2043503          	ld	a0,-224(s0)
    2be4:	00ab8533          	add	a0,s7,a0
    2be8:	f2a43023          	sd	a0,-224(s0)
    2bec:	f2043603          	ld	a2,-224(s0)
    2bf0:	e4843503          	ld	a0,-440(s0)
    2bf4:	00ab0533          	add	a0,s6,a0
    2bf8:	e4a43423          	sd	a0,-440(s0)
    2bfc:	00001537          	lui	a0,0x1
    2c00:	40a40533          	sub	a0,s0,a0
    2c04:	6a853b03          	ld	s6,1704(a0) # 16a8 <.LBB13_4+0x504>
    2c08:	e5043503          	ld	a0,-432(s0)
    2c0c:	00ad0533          	add	a0,s10,a0
    2c10:	e4a43823          	sd	a0,-432(s0)
    2c14:	f2843503          	ld	a0,-216(s0)
    2c18:	00ac0533          	add	a0,s8,a0
    2c1c:	000015b7          	lui	a1,0x1
    2c20:	40b405b3          	sub	a1,s0,a1
    2c24:	7185bb83          	ld	s7,1816(a1) # 1718 <.LBB13_5+0x68>
    2c28:	f2a43423          	sd	a0,-216(s0)
    2c2c:	f2843583          	ld	a1,-216(s0)
    2c30:	e6843503          	ld	a0,-408(s0)
    2c34:	00aa8533          	add	a0,s5,a0
    2c38:	e6a43423          	sd	a0,-408(s0)
    2c3c:	00001537          	lui	a0,0x1
    2c40:	40a40533          	sub	a0,s0,a0
    2c44:	6b053a83          	ld	s5,1712(a0) # 16b0 <.LBB13_5>
    2c48:	e5843503          	ld	a0,-424(s0)
    2c4c:	00aa0533          	add	a0,s4,a0
    2c50:	e4a43c23          	sd	a0,-424(s0)
    2c54:	00001537          	lui	a0,0x1
    2c58:	40a40533          	sub	a0,s0,a0
    2c5c:	6b853a03          	ld	s4,1720(a0) # 16b8 <.LBB13_5+0x8>
    2c60:	e6043503          	ld	a0,-416(s0)
    2c64:	00a90533          	add	a0,s2,a0
    2c68:	e6a43023          	sd	a0,-416(s0)
    2c6c:	00001537          	lui	a0,0x1
    2c70:	40a40533          	sub	a0,s0,a0
    2c74:	6c053903          	ld	s2,1728(a0) # 16c0 <.LBB13_5+0x10>
    2c78:	001f00b3          	add	ra,t5,ra
    2c7c:	00001537          	lui	a0,0x1
    2c80:	40a40533          	sub	a0,s0,a0
    2c84:	6c853f03          	ld	t5,1736(a0) # 16c8 <.LBB13_5+0x18>
    2c88:	01be8db3          	add	s11,t4,s11
    2c8c:	00001537          	lui	a0,0x1
    2c90:	40a40533          	sub	a0,s0,a0
    2c94:	6d053e83          	ld	t4,1744(a0) # 16d0 <.LBB13_5+0x20>
    2c98:	019e0cb3          	add	s9,t3,s9
    2c9c:	00001537          	lui	a0,0x1
    2ca0:	40a40533          	sub	a0,s0,a0
    2ca4:	6d853e03          	ld	t3,1752(a0) # 16d8 <.LBB13_5+0x28>
    2ca8:	01630b33          	add	s6,t1,s6
    2cac:	00001537          	lui	a0,0x1
    2cb0:	40a40533          	sub	a0,s0,a0
    2cb4:	6e853983          	ld	s3,1768(a0) # 16e8 <.LBB13_5+0x38>
    2cb8:	01588ab3          	add	s5,a7,s5
    2cbc:	00001537          	lui	a0,0x1
    2cc0:	40a40533          	sub	a0,s0,a0
    2cc4:	6e053383          	ld	t2,1760(a0) # 16e0 <.LBB13_5+0x30>
    2cc8:	01428a33          	add	s4,t0,s4
    2ccc:	00001537          	lui	a0,0x1
    2cd0:	40a40533          	sub	a0,s0,a0
    2cd4:	6f053283          	ld	t0,1776(a0) # 16f0 <.LBB13_5+0x40>
    2cd8:	e7043503          	ld	a0,-400(s0)
    2cdc:	00af8533          	add	a0,t6,a0
    2ce0:	e6a43823          	sd	a0,-400(s0)
    2ce4:	00001537          	lui	a0,0x1
    2ce8:	40a40533          	sub	a0,s0,a0
    2cec:	6f853883          	ld	a7,1784(a0) # 16f8 <.LBB13_5+0x48>
    2cf0:	01248933          	add	s2,s1,s2
    2cf4:	f1843503          	ld	a0,-232(s0)
    2cf8:	f4843683          	ld	a3,-184(s0)
    2cfc:	00a68533          	add	a0,a3,a0
    2d00:	f8843483          	ld	s1,-120(s0)
    2d04:	f0a43c23          	sd	a0,-232(s0)
    2d08:	00001537          	lui	a0,0x1
    2d0c:	40a40533          	sub	a0,s0,a0
    2d10:	68853503          	ld	a0,1672(a0) # 1688 <.LBB13_4+0x4e4>
    2d14:	f1843f83          	ld	t6,-232(s0)
    2d18:	e9043683          	ld	a3,-368(s0)
    2d1c:	01e68f33          	add	t5,a3,t5
    2d20:	000016b7          	lui	a3,0x1
    2d24:	40d406b3          	sub	a3,s0,a3
    2d28:	7006b683          	ld	a3,1792(a3) # 1700 <.LBB13_5+0x50>
    2d2c:	00001737          	lui	a4,0x1
    2d30:	40e40733          	sub	a4,s0,a4
    2d34:	70873703          	ld	a4,1800(a4) # 1708 <.LBB13_5+0x58>
    2d38:	000017b7          	lui	a5,0x1
    2d3c:	40f407b3          	sub	a5,s0,a5
    2d40:	7107b303          	ld	t1,1808(a5) # 1710 <.LBB13_5+0x60>
    2d44:	f6843783          	ld	a5,-152(s0)
    2d48:	01d78eb3          	add	t4,a5,t4
    2d4c:	f8043783          	ld	a5,-128(s0)
    2d50:	ed843803          	ld	a6,-296(s0)
    2d54:	01c80e33          	add	t3,a6,t3
    2d58:	ea843803          	ld	a6,-344(s0)
    2d5c:	007803b3          	add	t2,a6,t2
    2d60:	e8043803          	ld	a6,-384(s0)
    2d64:	013809b3          	add	s3,a6,s3
    2d68:	ee843803          	ld	a6,-280(s0)
    2d6c:	005802b3          	add	t0,a6,t0
    2d70:	ef043803          	ld	a6,-272(s0)
    2d74:	011808b3          	add	a7,a6,a7
    2d78:	fa050513          	addi	a0,a0,-96
    2d7c:	06048493          	addi	s1,s1,96
    2d80:	00178793          	addi	a5,a5,1
    2d84:	00050463          	beqz	a0,2d8c <.LBB13_6>
    2d88:	929fe06f          	j	16b0 <.LBB13_5>

0000000000002d8c <.LBB13_6>:
    2d8c:	00001537          	lui	a0,0x1
    2d90:	40a40533          	sub	a0,s0,a0
    2d94:	73053483          	ld	s1,1840(a0) # 1730 <.LBB13_5+0x80>
    2d98:	00001537          	lui	a0,0x1
    2d9c:	40a40533          	sub	a0,s0,a0
    2da0:	73853c03          	ld	s8,1848(a0) # 1738 <.LBB13_5+0x88>
    2da4:	00001537          	lui	a0,0x1
    2da8:	40a40533          	sub	a0,s0,a0
    2dac:	74053b83          	ld	s7,1856(a0) # 1740 <.LBB13_5+0x90>
    2db0:	00001537          	lui	a0,0x1
    2db4:	40a40533          	sub	a0,s0,a0
    2db8:	72853d03          	ld	s10,1832(a0) # 1728 <.LBB13_5+0x78>
    2dbc:	00001537          	lui	a0,0x1
    2dc0:	40a40533          	sub	a0,s0,a0
    2dc4:	72053803          	ld	a6,1824(a0) # 1720 <.LBB13_5+0x70>
    2dc8:	00001537          	lui	a0,0x1
    2dcc:	40a40533          	sub	a0,s0,a0
    2dd0:	63853503          	ld	a0,1592(a0) # 1638 <.LBB13_4+0x494>
    2dd4:	00251513          	slli	a0,a0,0x2
    2dd8:	000015b7          	lui	a1,0x1
    2ddc:	40b405b3          	sub	a1,s0,a1
    2de0:	cd05b583          	ld	a1,-816(a1) # cd0 <.LBB13_3+0xab4>
    2de4:	00a585b3          	add	a1,a1,a0
    2de8:	00c5a683          	lw	a3,12(a1)
    2dec:	00001637          	lui	a2,0x1
    2df0:	40c40633          	sub	a2,s0,a2
    2df4:	63063603          	ld	a2,1584(a2) # 1630 <.LBB13_4+0x48c>
    2df8:	00062703          	lw	a4,0(a2)
    2dfc:	00001637          	lui	a2,0x1
    2e00:	40c40633          	sub	a2,s0,a2
    2e04:	cc863603          	ld	a2,-824(a2) # cc8 <.LBB13_3+0xaac>
    2e08:	00a60533          	add	a0,a2,a0
    2e0c:	00c52783          	lw	a5,12(a0)
    2e10:	00001637          	lui	a2,0x1
    2e14:	40c40633          	sub	a2,s0,a2
    2e18:	6ed63023          	sd	a3,1760(a2) # 16e0 <.LBB13_5+0x30>
    2e1c:	00001637          	lui	a2,0x1
    2e20:	40c40633          	sub	a2,s0,a2
    2e24:	74863603          	ld	a2,1864(a2) # 1748 <.LBB13_5+0x98>
    2e28:	00d60633          	add	a2,a2,a3
    2e2c:	000016b7          	lui	a3,0x1
    2e30:	40d406b3          	sub	a3,s0,a3
    2e34:	6cf6bc23          	sd	a5,1752(a3) # 16d8 <.LBB13_5+0x28>
    2e38:	40f706bb          	subw	a3,a4,a5
    2e3c:	00d60633          	add	a2,a2,a3
    2e40:	ff06061b          	addiw	a2,a2,-16
    2e44:	400006b7          	lui	a3,0x40000
    2e48:	000017b7          	lui	a5,0x1
    2e4c:	40f407b3          	sub	a5,s0,a5
    2e50:	e4c7b423          	sd	a2,-440(a5) # e48 <.LBB13_3+0xc2c>
    2e54:	00065463          	bgez	a2,2e5c <.LBB13_8>
    2e58:	c00006b7          	lui	a3,0xc0000

0000000000002e5c <.LBB13_8>:
    2e5c:	00001637          	lui	a2,0x1
    2e60:	40c40633          	sub	a2,s0,a2
    2e64:	e2d63423          	sd	a3,-472(a2) # e28 <.LBB13_3+0xc0c>
    2e68:	0085a603          	lw	a2,8(a1)
    2e6c:	00852683          	lw	a3,8(a0)
    2e70:	000017b7          	lui	a5,0x1
    2e74:	40f407b3          	sub	a5,s0,a5
    2e78:	6cc7b823          	sd	a2,1744(a5) # 16d0 <.LBB13_5+0x20>
    2e7c:	00c48633          	add	a2,s1,a2
    2e80:	000017b7          	lui	a5,0x1
    2e84:	40f407b3          	sub	a5,s0,a5
    2e88:	6cd7b423          	sd	a3,1736(a5) # 16c8 <.LBB13_5+0x18>
    2e8c:	40d706bb          	subw	a3,a4,a3
    2e90:	00d60633          	add	a2,a2,a3
    2e94:	ff06061b          	addiw	a2,a2,-16
    2e98:	400006b7          	lui	a3,0x40000
    2e9c:	000017b7          	lui	a5,0x1
    2ea0:	40f407b3          	sub	a5,s0,a5
    2ea4:	e6c7b023          	sd	a2,-416(a5) # e60 <.LBB13_3+0xc44>
    2ea8:	00065463          	bgez	a2,2eb0 <.LBB13_10>
    2eac:	c00006b7          	lui	a3,0xc0000

0000000000002eb0 <.LBB13_10>:
    2eb0:	00001637          	lui	a2,0x1
    2eb4:	40c40633          	sub	a2,s0,a2
    2eb8:	e4d63023          	sd	a3,-448(a2) # e40 <.LBB13_3+0xc24>
    2ebc:	0045a603          	lw	a2,4(a1)
    2ec0:	00452683          	lw	a3,4(a0)
    2ec4:	000017b7          	lui	a5,0x1
    2ec8:	40f407b3          	sub	a5,s0,a5
    2ecc:	6cc7b023          	sd	a2,1728(a5) # 16c0 <.LBB13_5+0x10>
    2ed0:	00cc0633          	add	a2,s8,a2
    2ed4:	000017b7          	lui	a5,0x1
    2ed8:	40f407b3          	sub	a5,s0,a5
    2edc:	6ad7bc23          	sd	a3,1720(a5) # 16b8 <.LBB13_5+0x8>
    2ee0:	40d706bb          	subw	a3,a4,a3
    2ee4:	00d60633          	add	a2,a2,a3
    2ee8:	ff06061b          	addiw	a2,a2,-16
    2eec:	400006b7          	lui	a3,0x40000
    2ef0:	000017b7          	lui	a5,0x1
    2ef4:	40f407b3          	sub	a5,s0,a5
    2ef8:	e6c7bc23          	sd	a2,-392(a5) # e78 <.LBB13_3+0xc5c>
    2efc:	00065463          	bgez	a2,2f04 <.LBB13_12>
    2f00:	c00006b7          	lui	a3,0xc0000

0000000000002f04 <.LBB13_12>:
    2f04:	00001637          	lui	a2,0x1
    2f08:	40c40633          	sub	a2,s0,a2
    2f0c:	e4d63c23          	sd	a3,-424(a2) # e58 <.LBB13_3+0xc3c>
    2f10:	0005a783          	lw	a5,0(a1)
    2f14:	00052683          	lw	a3,0(a0)
    2f18:	00fb8633          	add	a2,s7,a5
    2f1c:	00001337          	lui	t1,0x1
    2f20:	40640333          	sub	t1,s0,t1
    2f24:	6ad33823          	sd	a3,1712(t1) # 16b0 <.LBB13_5>
    2f28:	40d706bb          	subw	a3,a4,a3
    2f2c:	00d60633          	add	a2,a2,a3
    2f30:	ff06061b          	addiw	a2,a2,-16
    2f34:	400006b7          	lui	a3,0x40000
    2f38:	00001337          	lui	t1,0x1
    2f3c:	40640333          	sub	t1,s0,t1
    2f40:	cc033c03          	ld	s8,-832(t1) # cc0 <.LBB13_3+0xaa4>
    2f44:	00001337          	lui	t1,0x1
    2f48:	40640333          	sub	t1,s0,t1
    2f4c:	62833b83          	ld	s7,1576(t1) # 1628 <.LBB13_4+0x484>
    2f50:	00001337          	lui	t1,0x1
    2f54:	40640333          	sub	t1,s0,t1
    2f58:	e8c33423          	sd	a2,-376(t1) # e88 <.LBB13_3+0xc6c>
    2f5c:	00065463          	bgez	a2,2f64 <.LBB13_14>
    2f60:	c00006b7          	lui	a3,0xc0000

0000000000002f64 <.LBB13_14>:
    2f64:	00001637          	lui	a2,0x1
    2f68:	40c40633          	sub	a2,s0,a2
    2f6c:	e6d63423          	sd	a3,-408(a2) # e68 <.LBB13_3+0xc4c>
    2f70:	0105a603          	lw	a2,16(a1)
    2f74:	01052683          	lw	a3,16(a0)
    2f78:	00001337          	lui	t1,0x1
    2f7c:	40640333          	sub	t1,s0,t1
    2f80:	6ac33423          	sd	a2,1704(t1) # 16a8 <.LBB13_4+0x504>
    2f84:	00cd0633          	add	a2,s10,a2
    2f88:	00001337          	lui	t1,0x1
    2f8c:	40640333          	sub	t1,s0,t1
    2f90:	6ad33023          	sd	a3,1696(t1) # 16a0 <.LBB13_4+0x4fc>
    2f94:	40d706bb          	subw	a3,a4,a3
    2f98:	00d60633          	add	a2,a2,a3
    2f9c:	ff06061b          	addiw	a2,a2,-16
    2fa0:	400006b7          	lui	a3,0x40000
    2fa4:	00001337          	lui	t1,0x1
    2fa8:	40640333          	sub	t1,s0,t1
    2fac:	eac33023          	sd	a2,-352(t1) # ea0 <.LBB13_3+0xc84>
    2fb0:	00065463          	bgez	a2,2fb8 <.LBB13_16>
    2fb4:	c00006b7          	lui	a3,0xc0000

0000000000002fb8 <.LBB13_16>:
    2fb8:	00001637          	lui	a2,0x1
    2fbc:	40c40633          	sub	a2,s0,a2
    2fc0:	e8d63023          	sd	a3,-384(a2) # e80 <.LBB13_3+0xc64>
    2fc4:	0145a603          	lw	a2,20(a1)
    2fc8:	01452683          	lw	a3,20(a0)
    2fcc:	00001337          	lui	t1,0x1
    2fd0:	40640333          	sub	t1,s0,t1
    2fd4:	68c33c23          	sd	a2,1688(t1) # 1698 <.LBB13_4+0x4f4>
    2fd8:	00001337          	lui	t1,0x1
    2fdc:	40640333          	sub	t1,s0,t1
    2fe0:	75033483          	ld	s1,1872(t1) # 1750 <.LBB13_5+0xa0>
    2fe4:	00c48633          	add	a2,s1,a2
    2fe8:	00001337          	lui	t1,0x1
    2fec:	40640333          	sub	t1,s0,t1
    2ff0:	68d33823          	sd	a3,1680(t1) # 1690 <.LBB13_4+0x4ec>
    2ff4:	40d706bb          	subw	a3,a4,a3
    2ff8:	00d60633          	add	a2,a2,a3
    2ffc:	ff06061b          	addiw	a2,a2,-16
    3000:	400006b7          	lui	a3,0x40000
    3004:	00001337          	lui	t1,0x1
    3008:	40640333          	sub	t1,s0,t1
    300c:	eac33c23          	sd	a2,-328(t1) # eb8 <.LBB13_3+0xc9c>
    3010:	00065463          	bgez	a2,3018 <.LBB13_18>
    3014:	c00006b7          	lui	a3,0xc0000

0000000000003018 <.LBB13_18>:
    3018:	00001637          	lui	a2,0x1
    301c:	40c40633          	sub	a2,s0,a2
    3020:	e8d63c23          	sd	a3,-360(a2) # e98 <.LBB13_3+0xc7c>
    3024:	0185a603          	lw	a2,24(a1)
    3028:	01852683          	lw	a3,24(a0)
    302c:	00001337          	lui	t1,0x1
    3030:	40640333          	sub	t1,s0,t1
    3034:	68c33423          	sd	a2,1672(t1) # 1688 <.LBB13_4+0x4e4>
    3038:	00001337          	lui	t1,0x1
    303c:	40640333          	sub	t1,s0,t1
    3040:	75833483          	ld	s1,1880(t1) # 1758 <.LBB13_5+0xa8>
    3044:	00c48633          	add	a2,s1,a2
    3048:	00001337          	lui	t1,0x1
    304c:	40640333          	sub	t1,s0,t1
    3050:	68d33023          	sd	a3,1664(t1) # 1680 <.LBB13_4+0x4dc>
    3054:	40d706bb          	subw	a3,a4,a3
    3058:	00d60633          	add	a2,a2,a3
    305c:	ff06061b          	addiw	a2,a2,-16
    3060:	400006b7          	lui	a3,0x40000
    3064:	00001337          	lui	t1,0x1
    3068:	40640333          	sub	t1,s0,t1
    306c:	ecc33423          	sd	a2,-312(t1) # ec8 <.LBB13_3+0xcac>
    3070:	00065463          	bgez	a2,3078 <.LBB13_20>
    3074:	c00006b7          	lui	a3,0xc0000

0000000000003078 <.LBB13_20>:
    3078:	00001637          	lui	a2,0x1
    307c:	40c40633          	sub	a2,s0,a2
    3080:	ead63423          	sd	a3,-344(a2) # ea8 <.LBB13_3+0xc8c>
    3084:	01c5a603          	lw	a2,28(a1)
    3088:	01c52683          	lw	a3,28(a0)
    308c:	00001337          	lui	t1,0x1
    3090:	40640333          	sub	t1,s0,t1
    3094:	66c33c23          	sd	a2,1656(t1) # 1678 <.LBB13_4+0x4d4>
    3098:	00001337          	lui	t1,0x1
    309c:	40640333          	sub	t1,s0,t1
    30a0:	76033483          	ld	s1,1888(t1) # 1760 <.LBB13_5+0xb0>
    30a4:	00c48633          	add	a2,s1,a2
    30a8:	00001337          	lui	t1,0x1
    30ac:	40640333          	sub	t1,s0,t1
    30b0:	66d33823          	sd	a3,1648(t1) # 1670 <.LBB13_4+0x4cc>
    30b4:	40d706bb          	subw	a3,a4,a3
    30b8:	00d60633          	add	a2,a2,a3
    30bc:	ff06061b          	addiw	a2,a2,-16
    30c0:	400006b7          	lui	a3,0x40000
    30c4:	00001337          	lui	t1,0x1
    30c8:	40640333          	sub	t1,s0,t1
    30cc:	eec33023          	sd	a2,-288(t1) # ee0 <.LBB13_3+0xcc4>
    30d0:	00065463          	bgez	a2,30d8 <.LBB13_22>
    30d4:	c00006b7          	lui	a3,0xc0000

00000000000030d8 <.LBB13_22>:
    30d8:	00001637          	lui	a2,0x1
    30dc:	40c40633          	sub	a2,s0,a2
    30e0:	64f63023          	sd	a5,1600(a2) # 1640 <.LBB13_4+0x49c>
    30e4:	00001637          	lui	a2,0x1
    30e8:	40c40633          	sub	a2,s0,a2
    30ec:	ecd63023          	sd	a3,-320(a2) # ec0 <.LBB13_3+0xca4>
    30f0:	0205a603          	lw	a2,32(a1)
    30f4:	02052683          	lw	a3,32(a0)
    30f8:	000017b7          	lui	a5,0x1
    30fc:	40f407b3          	sub	a5,s0,a5
    3100:	66c7b423          	sd	a2,1640(a5) # 1668 <.LBB13_4+0x4c4>
    3104:	00c80633          	add	a2,a6,a2
    3108:	000017b7          	lui	a5,0x1
    310c:	40f407b3          	sub	a5,s0,a5
    3110:	66d7b023          	sd	a3,1632(a5) # 1660 <.LBB13_4+0x4bc>
    3114:	40d706bb          	subw	a3,a4,a3
    3118:	00d60633          	add	a2,a2,a3
    311c:	ff06061b          	addiw	a2,a2,-16
    3120:	400006b7          	lui	a3,0x40000
    3124:	000017b7          	lui	a5,0x1
    3128:	40f407b3          	sub	a5,s0,a5
    312c:	eec7b823          	sd	a2,-272(a5) # ef0 <.LBB13_3+0xcd4>
    3130:	00065463          	bgez	a2,3138 <.LBB13_24>
    3134:	c00006b7          	lui	a3,0xc0000

0000000000003138 <.LBB13_24>:
    3138:	00001637          	lui	a2,0x1
    313c:	40c40633          	sub	a2,s0,a2
    3140:	ecd63c23          	sd	a3,-296(a2) # ed8 <.LBB13_3+0xcbc>
    3144:	0245a783          	lw	a5,36(a1)
    3148:	0285a603          	lw	a2,40(a1)
    314c:	000016b7          	lui	a3,0x1
    3150:	40d406b3          	sub	a3,s0,a3
    3154:	72c6b823          	sd	a2,1840(a3) # 1730 <.LBB13_5+0x80>
    3158:	02c5a603          	lw	a2,44(a1)
    315c:	000016b7          	lui	a3,0x1
    3160:	40d406b3          	sub	a3,s0,a3
    3164:	64c6b423          	sd	a2,1608(a3) # 1648 <.LBB13_4+0x4a4>
    3168:	0305a603          	lw	a2,48(a1)
    316c:	000016b7          	lui	a3,0x1
    3170:	40d406b3          	sub	a3,s0,a3
    3174:	74c6b423          	sd	a2,1864(a3) # 1748 <.LBB13_5+0x98>
    3178:	0345a603          	lw	a2,52(a1)
    317c:	000016b7          	lui	a3,0x1
    3180:	40d406b3          	sub	a3,s0,a3
    3184:	74c6b823          	sd	a2,1872(a3) # 1750 <.LBB13_5+0xa0>
    3188:	0385a603          	lw	a2,56(a1)
    318c:	000016b7          	lui	a3,0x1
    3190:	40d406b3          	sub	a3,s0,a3
    3194:	76c6b023          	sd	a2,1888(a3) # 1760 <.LBB13_5+0xb0>
    3198:	03c5a603          	lw	a2,60(a1)
    319c:	e8c43023          	sd	a2,-384(s0)
    31a0:	0405a603          	lw	a2,64(a1)
    31a4:	e8c43823          	sd	a2,-368(s0)
    31a8:	0445a603          	lw	a2,68(a1)
    31ac:	eac43023          	sd	a2,-352(s0)
    31b0:	0485a603          	lw	a2,72(a1)
    31b4:	eac43823          	sd	a2,-336(s0)
    31b8:	04c5a603          	lw	a2,76(a1)
    31bc:	eac43c23          	sd	a2,-328(s0)
    31c0:	0505a603          	lw	a2,80(a1)
    31c4:	ecc43423          	sd	a2,-312(s0)
    31c8:	0545a603          	lw	a2,84(a1)
    31cc:	ecc43c23          	sd	a2,-296(s0)
    31d0:	0585a603          	lw	a2,88(a1)
    31d4:	eec43423          	sd	a2,-280(s0)
    31d8:	05c5a603          	lw	a2,92(a1)
    31dc:	eec43c23          	sd	a2,-264(s0)
    31e0:	0605a603          	lw	a2,96(a1)
    31e4:	f0c43023          	sd	a2,-256(s0)
    31e8:	0645a603          	lw	a2,100(a1)
    31ec:	f0c43823          	sd	a2,-240(s0)
    31f0:	0685a603          	lw	a2,104(a1)
    31f4:	f2c43c23          	sd	a2,-200(s0)
    31f8:	06c5a603          	lw	a2,108(a1)
    31fc:	f4c43423          	sd	a2,-184(s0)
    3200:	0705a603          	lw	a2,112(a1)
    3204:	f4c43c23          	sd	a2,-168(s0)
    3208:	0745a603          	lw	a2,116(a1)
    320c:	f6c43423          	sd	a2,-152(s0)
    3210:	0785a603          	lw	a2,120(a1)
    3214:	f6c43823          	sd	a2,-144(s0)
    3218:	07c5a583          	lw	a1,124(a1)
    321c:	f8b43023          	sd	a1,-128(s0)
    3220:	07c52583          	lw	a1,124(a0)
    3224:	f6b43c23          	sd	a1,-136(s0)
    3228:	07852583          	lw	a1,120(a0)
    322c:	f6b43023          	sd	a1,-160(s0)
    3230:	07452583          	lw	a1,116(a0)
    3234:	f4b43823          	sd	a1,-176(s0)
    3238:	07052583          	lw	a1,112(a0)
    323c:	f4b43023          	sd	a1,-192(s0)
    3240:	06c52583          	lw	a1,108(a0)
    3244:	f2b43823          	sd	a1,-208(s0)
    3248:	06852583          	lw	a1,104(a0)
    324c:	f0b43423          	sd	a1,-248(s0)
    3250:	06452583          	lw	a1,100(a0)
    3254:	eeb43823          	sd	a1,-272(s0)
    3258:	06052583          	lw	a1,96(a0)
    325c:	eeb43023          	sd	a1,-288(s0)
    3260:	05c52583          	lw	a1,92(a0)
    3264:	ecb43823          	sd	a1,-304(s0)
    3268:	05852583          	lw	a1,88(a0)
    326c:	ecb43023          	sd	a1,-320(s0)
    3270:	05452583          	lw	a1,84(a0)
    3274:	eab43423          	sd	a1,-344(s0)
    3278:	05052583          	lw	a1,80(a0)
    327c:	e8b43c23          	sd	a1,-360(s0)
    3280:	04c52583          	lw	a1,76(a0)
    3284:	e8b43423          	sd	a1,-376(s0)
    3288:	04852583          	lw	a1,72(a0)
    328c:	e6b43c23          	sd	a1,-392(s0)
    3290:	04452583          	lw	a1,68(a0)
    3294:	00001637          	lui	a2,0x1
    3298:	40c40633          	sub	a2,s0,a2
    329c:	74b63c23          	sd	a1,1880(a2) # 1758 <.LBB13_5+0xa8>
    32a0:	04052583          	lw	a1,64(a0)
    32a4:	00001637          	lui	a2,0x1
    32a8:	40c40633          	sub	a2,s0,a2
    32ac:	74b63023          	sd	a1,1856(a2) # 1740 <.LBB13_5+0x90>
    32b0:	03c52583          	lw	a1,60(a0)
    32b4:	00001637          	lui	a2,0x1
    32b8:	40c40633          	sub	a2,s0,a2
    32bc:	72b63c23          	sd	a1,1848(a2) # 1738 <.LBB13_5+0x88>
    32c0:	03852583          	lw	a1,56(a0)
    32c4:	00001637          	lui	a2,0x1
    32c8:	40c40633          	sub	a2,s0,a2
    32cc:	72b63423          	sd	a1,1832(a2) # 1728 <.LBB13_5+0x78>
    32d0:	03452583          	lw	a1,52(a0)
    32d4:	00001637          	lui	a2,0x1
    32d8:	40c40633          	sub	a2,s0,a2
    32dc:	72b63023          	sd	a1,1824(a2) # 1720 <.LBB13_5+0x70>
    32e0:	03052583          	lw	a1,48(a0)
    32e4:	00001637          	lui	a2,0x1
    32e8:	40c40633          	sub	a2,s0,a2
    32ec:	6eb63c23          	sd	a1,1784(a2) # 16f8 <.LBB13_5+0x48>
    32f0:	02c52583          	lw	a1,44(a0)
    32f4:	00001637          	lui	a2,0x1
    32f8:	40c40633          	sub	a2,s0,a2
    32fc:	6eb63823          	sd	a1,1776(a2) # 16f0 <.LBB13_5+0x40>
    3300:	02852583          	lw	a1,40(a0)
    3304:	00001637          	lui	a2,0x1
    3308:	40c40633          	sub	a2,s0,a2
    330c:	6eb63423          	sd	a1,1768(a2) # 16e8 <.LBB13_5+0x38>
    3310:	02452803          	lw	a6,36(a0)
    3314:	00001537          	lui	a0,0x1
    3318:	40a40533          	sub	a0,s0,a0
    331c:	64f53c23          	sd	a5,1624(a0) # 1658 <.LBB13_4+0x4b4>
    3320:	00001537          	lui	a0,0x1
    3324:	40a40533          	sub	a0,s0,a0
    3328:	76853503          	ld	a0,1896(a0) # 1768 <.LBB13_5+0xb8>
    332c:	00f507b3          	add	a5,a0,a5
    3330:	00001537          	lui	a0,0x1
    3334:	40a40533          	sub	a0,s0,a0
    3338:	63053683          	ld	a3,1584(a0) # 1630 <.LBB13_4+0x48c>
    333c:	01c6a503          	lw	a0,28(a3)
    3340:	f8a43423          	sd	a0,-120(s0)
    3344:	0186a503          	lw	a0,24(a3)
    3348:	000015b7          	lui	a1,0x1
    334c:	40b405b3          	sub	a1,s0,a1
    3350:	64a5b823          	sd	a0,1616(a1) # 1650 <.LBB13_4+0x4ac>
    3354:	0146a503          	lw	a0,20(a3)
    3358:	000015b7          	lui	a1,0x1
    335c:	40b405b3          	sub	a1,s0,a1
    3360:	d2a5b023          	sd	a0,-736(a1) # d20 <.LBB13_3+0xb04>
    3364:	0106a503          	lw	a0,16(a3)
    3368:	00c6a583          	lw	a1,12(a3)
    336c:	0086a603          	lw	a2,8(a3)
    3370:	0046a683          	lw	a3,4(a3)
    3374:	00001337          	lui	t1,0x1
    3378:	40640333          	sub	t1,s0,t1
    337c:	77033423          	sd	a6,1896(t1) # 1768 <.LBB13_5+0xb8>
    3380:	4107083b          	subw	a6,a4,a6
    3384:	010787b3          	add	a5,a5,a6
    3388:	ff07879b          	addiw	a5,a5,-16
    338c:	40000837          	lui	a6,0x40000
    3390:	00001337          	lui	t1,0x1
    3394:	40640333          	sub	t1,s0,t1
    3398:	d2f33823          	sd	a5,-720(t1) # d30 <.LBB13_3+0xb14>
    339c:	0007d463          	bgez	a5,33a4 <.LBB13_26>
    33a0:	c0000837          	lui	a6,0xc0000

00000000000033a4 <.LBB13_26>:
    33a4:	000017b7          	lui	a5,0x1
    33a8:	40f407b3          	sub	a5,s0,a5
    33ac:	d307b423          	sd	a6,-728(a5) # d28 <.LBB13_3+0xb0c>
    33b0:	000017b7          	lui	a5,0x1
    33b4:	40f407b3          	sub	a5,s0,a5
    33b8:	7307b783          	ld	a5,1840(a5) # 1730 <.LBB13_5+0x80>
    33bc:	00001837          	lui	a6,0x1
    33c0:	41040833          	sub	a6,s0,a6
    33c4:	77083803          	ld	a6,1904(a6) # 1770 <.LBB13_5+0xc0>
    33c8:	00f807b3          	add	a5,a6,a5
    33cc:	00001837          	lui	a6,0x1
    33d0:	41040833          	sub	a6,s0,a6
    33d4:	6e883803          	ld	a6,1768(a6) # 16e8 <.LBB13_5+0x38>
    33d8:	4107083b          	subw	a6,a4,a6
    33dc:	010787b3          	add	a5,a5,a6
    33e0:	ff07879b          	addiw	a5,a5,-16
    33e4:	40000837          	lui	a6,0x40000
    33e8:	00001337          	lui	t1,0x1
    33ec:	40640333          	sub	t1,s0,t1
    33f0:	d4f33023          	sd	a5,-704(t1) # d40 <.LBB13_3+0xb24>
    33f4:	0007d463          	bgez	a5,33fc <.LBB13_28>
    33f8:	c0000837          	lui	a6,0xc0000

00000000000033fc <.LBB13_28>:
    33fc:	000017b7          	lui	a5,0x1
    3400:	40f407b3          	sub	a5,s0,a5
    3404:	d307bc23          	sd	a6,-712(a5) # d38 <.LBB13_3+0xb1c>
    3408:	000017b7          	lui	a5,0x1
    340c:	40f407b3          	sub	a5,s0,a5
    3410:	6487b783          	ld	a5,1608(a5) # 1648 <.LBB13_4+0x4a4>
    3414:	00001837          	lui	a6,0x1
    3418:	41040833          	sub	a6,s0,a6
    341c:	77883803          	ld	a6,1912(a6) # 1778 <.LBB13_5+0xc8>
    3420:	00f807b3          	add	a5,a6,a5
    3424:	00001837          	lui	a6,0x1
    3428:	41040833          	sub	a6,s0,a6
    342c:	6f083803          	ld	a6,1776(a6) # 16f0 <.LBB13_5+0x40>
    3430:	4107083b          	subw	a6,a4,a6
    3434:	010787b3          	add	a5,a5,a6
    3438:	ff07879b          	addiw	a5,a5,-16
    343c:	40000837          	lui	a6,0x40000
    3440:	00001337          	lui	t1,0x1
    3444:	40640333          	sub	t1,s0,t1
    3448:	d4f33823          	sd	a5,-688(t1) # d50 <.LBB13_3+0xb34>
    344c:	0007d463          	bgez	a5,3454 <.LBB13_30>
    3450:	c0000837          	lui	a6,0xc0000

0000000000003454 <.LBB13_30>:
    3454:	000017b7          	lui	a5,0x1
    3458:	40f407b3          	sub	a5,s0,a5
    345c:	d507b423          	sd	a6,-696(a5) # d48 <.LBB13_3+0xb2c>
    3460:	000017b7          	lui	a5,0x1
    3464:	40f407b3          	sub	a5,s0,a5
    3468:	7487b783          	ld	a5,1864(a5) # 1748 <.LBB13_5+0x98>
    346c:	00001837          	lui	a6,0x1
    3470:	41040833          	sub	a6,s0,a6
    3474:	78083803          	ld	a6,1920(a6) # 1780 <.LBB13_5+0xd0>
    3478:	00f807b3          	add	a5,a6,a5
    347c:	00001837          	lui	a6,0x1
    3480:	41040833          	sub	a6,s0,a6
    3484:	6f883803          	ld	a6,1784(a6) # 16f8 <.LBB13_5+0x48>
    3488:	4107083b          	subw	a6,a4,a6
    348c:	010787b3          	add	a5,a5,a6
    3490:	ff07879b          	addiw	a5,a5,-16
    3494:	40000837          	lui	a6,0x40000
    3498:	00001337          	lui	t1,0x1
    349c:	40640333          	sub	t1,s0,t1
    34a0:	d6f33023          	sd	a5,-672(t1) # d60 <.LBB13_3+0xb44>
    34a4:	0007d463          	bgez	a5,34ac <.LBB13_32>
    34a8:	c0000837          	lui	a6,0xc0000

00000000000034ac <.LBB13_32>:
    34ac:	000017b7          	lui	a5,0x1
    34b0:	40f407b3          	sub	a5,s0,a5
    34b4:	d507bc23          	sd	a6,-680(a5) # d58 <.LBB13_3+0xb3c>
    34b8:	000017b7          	lui	a5,0x1
    34bc:	40f407b3          	sub	a5,s0,a5
    34c0:	7507b783          	ld	a5,1872(a5) # 1750 <.LBB13_5+0xa0>
    34c4:	00001837          	lui	a6,0x1
    34c8:	41040833          	sub	a6,s0,a6
    34cc:	78883803          	ld	a6,1928(a6) # 1788 <.LBB13_5+0xd8>
    34d0:	00f807b3          	add	a5,a6,a5
    34d4:	00001837          	lui	a6,0x1
    34d8:	41040833          	sub	a6,s0,a6
    34dc:	72083803          	ld	a6,1824(a6) # 1720 <.LBB13_5+0x70>
    34e0:	4107083b          	subw	a6,a4,a6
    34e4:	010787b3          	add	a5,a5,a6
    34e8:	ff07879b          	addiw	a5,a5,-16
    34ec:	40000837          	lui	a6,0x40000
    34f0:	00001337          	lui	t1,0x1
    34f4:	40640333          	sub	t1,s0,t1
    34f8:	d6f33823          	sd	a5,-656(t1) # d70 <.LBB13_3+0xb54>
    34fc:	0007d463          	bgez	a5,3504 <.LBB13_34>
    3500:	c0000837          	lui	a6,0xc0000

0000000000003504 <.LBB13_34>:
    3504:	000017b7          	lui	a5,0x1
    3508:	40f407b3          	sub	a5,s0,a5
    350c:	d707b423          	sd	a6,-664(a5) # d68 <.LBB13_3+0xb4c>
    3510:	000017b7          	lui	a5,0x1
    3514:	40f407b3          	sub	a5,s0,a5
    3518:	7607b783          	ld	a5,1888(a5) # 1760 <.LBB13_5+0xb0>
    351c:	00001837          	lui	a6,0x1
    3520:	41040833          	sub	a6,s0,a6
    3524:	79083803          	ld	a6,1936(a6) # 1790 <.LBB13_5+0xe0>
    3528:	00f807b3          	add	a5,a6,a5
    352c:	00001837          	lui	a6,0x1
    3530:	41040833          	sub	a6,s0,a6
    3534:	72883803          	ld	a6,1832(a6) # 1728 <.LBB13_5+0x78>
    3538:	4107083b          	subw	a6,a4,a6
    353c:	010787b3          	add	a5,a5,a6
    3540:	ff07879b          	addiw	a5,a5,-16
    3544:	40000837          	lui	a6,0x40000
    3548:	00001337          	lui	t1,0x1
    354c:	40640333          	sub	t1,s0,t1
    3550:	d8f33023          	sd	a5,-640(t1) # d80 <.LBB13_3+0xb64>
    3554:	0007d463          	bgez	a5,355c <.LBB13_36>
    3558:	c0000837          	lui	a6,0xc0000

000000000000355c <.LBB13_36>:
    355c:	000017b7          	lui	a5,0x1
    3560:	40f407b3          	sub	a5,s0,a5
    3564:	d707bc23          	sd	a6,-648(a5) # d78 <.LBB13_3+0xb5c>
    3568:	e8043783          	ld	a5,-384(s0)
    356c:	00001837          	lui	a6,0x1
    3570:	41040833          	sub	a6,s0,a6
    3574:	79883803          	ld	a6,1944(a6) # 1798 <.LBB13_5+0xe8>
    3578:	00f807b3          	add	a5,a6,a5
    357c:	00001837          	lui	a6,0x1
    3580:	41040833          	sub	a6,s0,a6
    3584:	73883803          	ld	a6,1848(a6) # 1738 <.LBB13_5+0x88>
    3588:	4107083b          	subw	a6,a4,a6
    358c:	010787b3          	add	a5,a5,a6
    3590:	ff07879b          	addiw	a5,a5,-16
    3594:	40000837          	lui	a6,0x40000
    3598:	00001337          	lui	t1,0x1
    359c:	40640333          	sub	t1,s0,t1
    35a0:	d8f33823          	sd	a5,-624(t1) # d90 <.LBB13_3+0xb74>
    35a4:	0007d463          	bgez	a5,35ac <.LBB13_38>
    35a8:	c0000837          	lui	a6,0xc0000

00000000000035ac <.LBB13_38>:
    35ac:	000017b7          	lui	a5,0x1
    35b0:	40f407b3          	sub	a5,s0,a5
    35b4:	d907b423          	sd	a6,-632(a5) # d88 <.LBB13_3+0xb6c>
    35b8:	e9043783          	ld	a5,-368(s0)
    35bc:	00001837          	lui	a6,0x1
    35c0:	41040833          	sub	a6,s0,a6
    35c4:	7a083803          	ld	a6,1952(a6) # 17a0 <.LBB13_5+0xf0>
    35c8:	00f807b3          	add	a5,a6,a5
    35cc:	00001837          	lui	a6,0x1
    35d0:	41040833          	sub	a6,s0,a6
    35d4:	74083803          	ld	a6,1856(a6) # 1740 <.LBB13_5+0x90>
    35d8:	4107083b          	subw	a6,a4,a6
    35dc:	010787b3          	add	a5,a5,a6
    35e0:	ff07879b          	addiw	a5,a5,-16
    35e4:	40000837          	lui	a6,0x40000
    35e8:	00001337          	lui	t1,0x1
    35ec:	40640333          	sub	t1,s0,t1
    35f0:	daf33023          	sd	a5,-608(t1) # da0 <.LBB13_3+0xb84>
    35f4:	0007d463          	bgez	a5,35fc <.LBB13_40>
    35f8:	c0000837          	lui	a6,0xc0000

00000000000035fc <.LBB13_40>:
    35fc:	000017b7          	lui	a5,0x1
    3600:	40f407b3          	sub	a5,s0,a5
    3604:	d907bc23          	sd	a6,-616(a5) # d98 <.LBB13_3+0xb7c>
    3608:	ea043783          	ld	a5,-352(s0)
    360c:	00001837          	lui	a6,0x1
    3610:	41040833          	sub	a6,s0,a6
    3614:	7a883803          	ld	a6,1960(a6) # 17a8 <.LBB13_5+0xf8>
    3618:	00f807b3          	add	a5,a6,a5
    361c:	00001837          	lui	a6,0x1
    3620:	41040833          	sub	a6,s0,a6
    3624:	75883803          	ld	a6,1880(a6) # 1758 <.LBB13_5+0xa8>
    3628:	4107083b          	subw	a6,a4,a6
    362c:	010787b3          	add	a5,a5,a6
    3630:	ff07879b          	addiw	a5,a5,-16
    3634:	40000837          	lui	a6,0x40000
    3638:	00001337          	lui	t1,0x1
    363c:	40640333          	sub	t1,s0,t1
    3640:	daf33823          	sd	a5,-592(t1) # db0 <.LBB13_3+0xb94>
    3644:	0007d463          	bgez	a5,364c <.LBB13_42>
    3648:	c0000837          	lui	a6,0xc0000

000000000000364c <.LBB13_42>:
    364c:	000017b7          	lui	a5,0x1
    3650:	40f407b3          	sub	a5,s0,a5
    3654:	db07b423          	sd	a6,-600(a5) # da8 <.LBB13_3+0xb8c>
    3658:	eb043783          	ld	a5,-336(s0)
    365c:	00001837          	lui	a6,0x1
    3660:	41040833          	sub	a6,s0,a6
    3664:	7b083803          	ld	a6,1968(a6) # 17b0 <.LBB13_5+0x100>
    3668:	00f807b3          	add	a5,a6,a5
    366c:	e7843803          	ld	a6,-392(s0)
    3670:	4107083b          	subw	a6,a4,a6
    3674:	010787b3          	add	a5,a5,a6
    3678:	ff07879b          	addiw	a5,a5,-16
    367c:	40000837          	lui	a6,0x40000
    3680:	00001337          	lui	t1,0x1
    3684:	40640333          	sub	t1,s0,t1
    3688:	dcf33023          	sd	a5,-576(t1) # dc0 <.LBB13_3+0xba4>
    368c:	0007d463          	bgez	a5,3694 <.LBB13_44>
    3690:	c0000837          	lui	a6,0xc0000

0000000000003694 <.LBB13_44>:
    3694:	000017b7          	lui	a5,0x1
    3698:	40f407b3          	sub	a5,s0,a5
    369c:	db07bc23          	sd	a6,-584(a5) # db8 <.LBB13_3+0xb9c>
    36a0:	eb843783          	ld	a5,-328(s0)
    36a4:	00001837          	lui	a6,0x1
    36a8:	41040833          	sub	a6,s0,a6
    36ac:	7b883803          	ld	a6,1976(a6) # 17b8 <.LBB13_5+0x108>
    36b0:	00f807b3          	add	a5,a6,a5
    36b4:	e8843803          	ld	a6,-376(s0)
    36b8:	4107083b          	subw	a6,a4,a6
    36bc:	010787b3          	add	a5,a5,a6
    36c0:	ff07879b          	addiw	a5,a5,-16
    36c4:	40000837          	lui	a6,0x40000
    36c8:	00001337          	lui	t1,0x1
    36cc:	40640333          	sub	t1,s0,t1
    36d0:	dcf33823          	sd	a5,-560(t1) # dd0 <.LBB13_3+0xbb4>
    36d4:	0007d463          	bgez	a5,36dc <.LBB13_46>
    36d8:	c0000837          	lui	a6,0xc0000

00000000000036dc <.LBB13_46>:
    36dc:	000017b7          	lui	a5,0x1
    36e0:	40f407b3          	sub	a5,s0,a5
    36e4:	dd07b423          	sd	a6,-568(a5) # dc8 <.LBB13_3+0xbac>
    36e8:	ec843783          	ld	a5,-312(s0)
    36ec:	00001837          	lui	a6,0x1
    36f0:	41040833          	sub	a6,s0,a6
    36f4:	7c083803          	ld	a6,1984(a6) # 17c0 <.LBB13_5+0x110>
    36f8:	00f807b3          	add	a5,a6,a5
    36fc:	e9843803          	ld	a6,-360(s0)
    3700:	4107083b          	subw	a6,a4,a6
    3704:	010787b3          	add	a5,a5,a6
    3708:	ff07879b          	addiw	a5,a5,-16
    370c:	40000837          	lui	a6,0x40000
    3710:	00001337          	lui	t1,0x1
    3714:	40640333          	sub	t1,s0,t1
    3718:	def33023          	sd	a5,-544(t1) # de0 <.LBB13_3+0xbc4>
    371c:	0007d463          	bgez	a5,3724 <.LBB13_48>
    3720:	c0000837          	lui	a6,0xc0000

0000000000003724 <.LBB13_48>:
    3724:	000017b7          	lui	a5,0x1
    3728:	40f407b3          	sub	a5,s0,a5
    372c:	dd07bc23          	sd	a6,-552(a5) # dd8 <.LBB13_3+0xbbc>
    3730:	ed843783          	ld	a5,-296(s0)
    3734:	00001837          	lui	a6,0x1
    3738:	41040833          	sub	a6,s0,a6
    373c:	7c883803          	ld	a6,1992(a6) # 17c8 <.LBB13_5+0x118>
    3740:	00f807b3          	add	a5,a6,a5
    3744:	ea843803          	ld	a6,-344(s0)
    3748:	4107083b          	subw	a6,a4,a6
    374c:	010787b3          	add	a5,a5,a6
    3750:	ff07879b          	addiw	a5,a5,-16
    3754:	40000837          	lui	a6,0x40000
    3758:	00001337          	lui	t1,0x1
    375c:	40640333          	sub	t1,s0,t1
    3760:	def33823          	sd	a5,-528(t1) # df0 <.LBB13_3+0xbd4>
    3764:	0007d463          	bgez	a5,376c <.LBB13_50>
    3768:	c0000837          	lui	a6,0xc0000

000000000000376c <.LBB13_50>:
    376c:	000017b7          	lui	a5,0x1
    3770:	40f407b3          	sub	a5,s0,a5
    3774:	df07b423          	sd	a6,-536(a5) # de8 <.LBB13_3+0xbcc>
    3778:	ee843783          	ld	a5,-280(s0)
    377c:	00001837          	lui	a6,0x1
    3780:	41040833          	sub	a6,s0,a6
    3784:	70083803          	ld	a6,1792(a6) # 1700 <.LBB13_5+0x50>
    3788:	00f807b3          	add	a5,a6,a5
    378c:	ec043803          	ld	a6,-320(s0)
    3790:	4107083b          	subw	a6,a4,a6
    3794:	010787b3          	add	a5,a5,a6
    3798:	ff07879b          	addiw	a5,a5,-16
    379c:	40000837          	lui	a6,0x40000
    37a0:	00001337          	lui	t1,0x1
    37a4:	40640333          	sub	t1,s0,t1
    37a8:	e0f33023          	sd	a5,-512(t1) # e00 <.LBB13_3+0xbe4>
    37ac:	0007d463          	bgez	a5,37b4 <.LBB13_52>
    37b0:	c0000837          	lui	a6,0xc0000

00000000000037b4 <.LBB13_52>:
    37b4:	000017b7          	lui	a5,0x1
    37b8:	40f407b3          	sub	a5,s0,a5
    37bc:	df07bc23          	sd	a6,-520(a5) # df8 <.LBB13_3+0xbdc>
    37c0:	ef843783          	ld	a5,-264(s0)
    37c4:	00001837          	lui	a6,0x1
    37c8:	41040833          	sub	a6,s0,a6
    37cc:	70883803          	ld	a6,1800(a6) # 1708 <.LBB13_5+0x58>
    37d0:	00f807b3          	add	a5,a6,a5
    37d4:	ed043803          	ld	a6,-304(s0)
    37d8:	4107083b          	subw	a6,a4,a6
    37dc:	010787b3          	add	a5,a5,a6
    37e0:	ff07879b          	addiw	a5,a5,-16
    37e4:	40000837          	lui	a6,0x40000
    37e8:	00001337          	lui	t1,0x1
    37ec:	40640333          	sub	t1,s0,t1
    37f0:	e0f33823          	sd	a5,-496(t1) # e10 <.LBB13_3+0xbf4>
    37f4:	0007d463          	bgez	a5,37fc <.LBB13_54>
    37f8:	c0000837          	lui	a6,0xc0000

00000000000037fc <.LBB13_54>:
    37fc:	000017b7          	lui	a5,0x1
    3800:	40f407b3          	sub	a5,s0,a5
    3804:	e107b423          	sd	a6,-504(a5) # e08 <.LBB13_3+0xbec>
    3808:	f0043783          	ld	a5,-256(s0)
    380c:	00001837          	lui	a6,0x1
    3810:	41040833          	sub	a6,s0,a6
    3814:	71083803          	ld	a6,1808(a6) # 1710 <.LBB13_5+0x60>
    3818:	00f807b3          	add	a5,a6,a5
    381c:	ee043803          	ld	a6,-288(s0)
    3820:	4107083b          	subw	a6,a4,a6
    3824:	010787b3          	add	a5,a5,a6
    3828:	ff07879b          	addiw	a5,a5,-16
    382c:	40000837          	lui	a6,0x40000
    3830:	00001337          	lui	t1,0x1
    3834:	40640333          	sub	t1,s0,t1
    3838:	e2f33023          	sd	a5,-480(t1) # e20 <.LBB13_3+0xc04>
    383c:	0007d463          	bgez	a5,3844 <.LBB13_56>
    3840:	c0000837          	lui	a6,0xc0000

0000000000003844 <.LBB13_56>:
    3844:	000017b7          	lui	a5,0x1
    3848:	40f407b3          	sub	a5,s0,a5
    384c:	e107bc23          	sd	a6,-488(a5) # e18 <.LBB13_3+0xbfc>
    3850:	f1043783          	ld	a5,-240(s0)
    3854:	00001837          	lui	a6,0x1
    3858:	41040833          	sub	a6,s0,a6
    385c:	7d083803          	ld	a6,2000(a6) # 17d0 <.LBB13_5+0x120>
    3860:	00f807b3          	add	a5,a6,a5
    3864:	ef043803          	ld	a6,-272(s0)
    3868:	4107083b          	subw	a6,a4,a6
    386c:	010787b3          	add	a5,a5,a6
    3870:	ff07879b          	addiw	a5,a5,-16
    3874:	40000837          	lui	a6,0x40000
    3878:	00001337          	lui	t1,0x1
    387c:	40640333          	sub	t1,s0,t1
    3880:	e2f33c23          	sd	a5,-456(t1) # e38 <.LBB13_3+0xc1c>
    3884:	0007d463          	bgez	a5,388c <.LBB13_58>
    3888:	c0000837          	lui	a6,0xc0000

000000000000388c <.LBB13_58>:
    388c:	000017b7          	lui	a5,0x1
    3890:	40f407b3          	sub	a5,s0,a5
    3894:	e307b823          	sd	a6,-464(a5) # e30 <.LBB13_3+0xc14>
    3898:	f3843783          	ld	a5,-200(s0)
    389c:	00001837          	lui	a6,0x1
    38a0:	41040833          	sub	a6,s0,a6
    38a4:	7d883803          	ld	a6,2008(a6) # 17d8 <.LBB13_5+0x128>
    38a8:	00f807b3          	add	a5,a6,a5
    38ac:	f0843803          	ld	a6,-248(s0)
    38b0:	4107083b          	subw	a6,a4,a6
    38b4:	010787b3          	add	a5,a5,a6
    38b8:	ff07879b          	addiw	a5,a5,-16
    38bc:	40000837          	lui	a6,0x40000
    38c0:	00001337          	lui	t1,0x1
    38c4:	40640333          	sub	t1,s0,t1
    38c8:	e6f33823          	sd	a5,-400(t1) # e70 <.LBB13_3+0xc54>
    38cc:	0007d463          	bgez	a5,38d4 <.LBB13_60>
    38d0:	c0000837          	lui	a6,0xc0000

00000000000038d4 <.LBB13_60>:
    38d4:	000017b7          	lui	a5,0x1
    38d8:	40f407b3          	sub	a5,s0,a5
    38dc:	e507b823          	sd	a6,-432(a5) # e50 <.LBB13_3+0xc34>
    38e0:	f4843783          	ld	a5,-184(s0)
    38e4:	00001837          	lui	a6,0x1
    38e8:	41040833          	sub	a6,s0,a6
    38ec:	7e083803          	ld	a6,2016(a6) # 17e0 <.LBB13_5+0x130>
    38f0:	00f807b3          	add	a5,a6,a5
    38f4:	f3043803          	ld	a6,-208(s0)
    38f8:	4107083b          	subw	a6,a4,a6
    38fc:	010787b3          	add	a5,a5,a6
    3900:	ff07879b          	addiw	a5,a5,-16
    3904:	40000837          	lui	a6,0x40000
    3908:	00001337          	lui	t1,0x1
    390c:	40640333          	sub	t1,s0,t1
    3910:	eaf33823          	sd	a5,-336(t1) # eb0 <.LBB13_3+0xc94>
    3914:	0007d463          	bgez	a5,391c <.LBB13_62>
    3918:	c0000837          	lui	a6,0xc0000

000000000000391c <.LBB13_62>:
    391c:	000017b7          	lui	a5,0x1
    3920:	40f407b3          	sub	a5,s0,a5
    3924:	e907b823          	sd	a6,-368(a5) # e90 <.LBB13_3+0xc74>
    3928:	f5843783          	ld	a5,-168(s0)
    392c:	00001837          	lui	a6,0x1
    3930:	41040833          	sub	a6,s0,a6
    3934:	7e883803          	ld	a6,2024(a6) # 17e8 <.LBB13_5+0x138>
    3938:	00f807b3          	add	a5,a6,a5
    393c:	f4043803          	ld	a6,-192(s0)
    3940:	4107083b          	subw	a6,a4,a6
    3944:	010787b3          	add	a5,a5,a6
    3948:	ff07879b          	addiw	a5,a5,-16
    394c:	40000837          	lui	a6,0x40000
    3950:	00001337          	lui	t1,0x1
    3954:	40640333          	sub	t1,s0,t1
    3958:	eef33423          	sd	a5,-280(t1) # ee8 <.LBB13_3+0xccc>
    395c:	0007d463          	bgez	a5,3964 <.LBB13_64>
    3960:	c0000837          	lui	a6,0xc0000

0000000000003964 <.LBB13_64>:
    3964:	000017b7          	lui	a5,0x1
    3968:	40f407b3          	sub	a5,s0,a5
    396c:	ed07b823          	sd	a6,-304(a5) # ed0 <.LBB13_3+0xcb4>
    3970:	f6843783          	ld	a5,-152(s0)
    3974:	00001837          	lui	a6,0x1
    3978:	41040833          	sub	a6,s0,a6
    397c:	71883803          	ld	a6,1816(a6) # 1718 <.LBB13_5+0x68>
    3980:	00f807b3          	add	a5,a6,a5
    3984:	f5043803          	ld	a6,-176(s0)
    3988:	4107083b          	subw	a6,a4,a6
    398c:	010787b3          	add	a5,a5,a6
    3990:	ff07879b          	addiw	a5,a5,-16
    3994:	40000837          	lui	a6,0x40000
    3998:	00001337          	lui	t1,0x1
    399c:	40640333          	sub	t1,s0,t1
    39a0:	f0f33023          	sd	a5,-256(t1) # f00 <.LBB13_3+0xce4>
    39a4:	0007d463          	bgez	a5,39ac <.LBB13_66>
    39a8:	c0000837          	lui	a6,0xc0000

00000000000039ac <.LBB13_66>:
    39ac:	000017b7          	lui	a5,0x1
    39b0:	40f407b3          	sub	a5,s0,a5
    39b4:	ef07bc23          	sd	a6,-264(a5) # ef8 <.LBB13_3+0xcdc>
    39b8:	f7043783          	ld	a5,-144(s0)
    39bc:	00001837          	lui	a6,0x1
    39c0:	41040833          	sub	a6,s0,a6
    39c4:	7f083803          	ld	a6,2032(a6) # 17f0 <.LBB13_5+0x140>
    39c8:	00f807b3          	add	a5,a6,a5
    39cc:	f6043803          	ld	a6,-160(s0)
    39d0:	4107083b          	subw	a6,a4,a6
    39d4:	010787b3          	add	a5,a5,a6
    39d8:	ff07879b          	addiw	a5,a5,-16
    39dc:	40000837          	lui	a6,0x40000
    39e0:	00001337          	lui	t1,0x1
    39e4:	40640333          	sub	t1,s0,t1
    39e8:	f0f33823          	sd	a5,-240(t1) # f10 <.LBB13_3+0xcf4>
    39ec:	0007d463          	bgez	a5,39f4 <.LBB13_68>
    39f0:	c0000837          	lui	a6,0xc0000

00000000000039f4 <.LBB13_68>:
    39f4:	000017b7          	lui	a5,0x1
    39f8:	40f407b3          	sub	a5,s0,a5
    39fc:	f107b423          	sd	a6,-248(a5) # f08 <.LBB13_3+0xcec>
    3a00:	f8043783          	ld	a5,-128(s0)
    3a04:	00001837          	lui	a6,0x1
    3a08:	41040833          	sub	a6,s0,a6
    3a0c:	7f883803          	ld	a6,2040(a6) # 17f8 <.LBB13_5+0x148>
    3a10:	00f807b3          	add	a5,a6,a5
    3a14:	f7843803          	ld	a6,-136(s0)
    3a18:	4107073b          	subw	a4,a4,a6
    3a1c:	00e78733          	add	a4,a5,a4
    3a20:	ff07071b          	addiw	a4,a4,-16
    3a24:	400007b7          	lui	a5,0x40000
    3a28:	00001837          	lui	a6,0x1
    3a2c:	41040833          	sub	a6,s0,a6
    3a30:	f2e83023          	sd	a4,-224(a6) # f20 <.LBB13_3+0xd04>
    3a34:	00075463          	bgez	a4,3a3c <.LBB13_70>
    3a38:	c00007b7          	lui	a5,0xc0000

0000000000003a3c <.LBB13_70>:
    3a3c:	00001737          	lui	a4,0x1
    3a40:	40e40733          	sub	a4,s0,a4
    3a44:	f0f73c23          	sd	a5,-232(a4) # f18 <.LBB13_3+0xcfc>
    3a48:	00001737          	lui	a4,0x1
    3a4c:	40e40733          	sub	a4,s0,a4
    3a50:	6e073703          	ld	a4,1760(a4) # 16e0 <.LBB13_5+0x30>
    3a54:	80843783          	ld	a5,-2040(s0)
    3a58:	00e78733          	add	a4,a5,a4
    3a5c:	000017b7          	lui	a5,0x1
    3a60:	40f407b3          	sub	a5,s0,a5
    3a64:	6d87b783          	ld	a5,1752(a5) # 16d8 <.LBB13_5+0x28>
    3a68:	40f687bb          	subw	a5,a3,a5
    3a6c:	00f70733          	add	a4,a4,a5
    3a70:	ff07071b          	addiw	a4,a4,-16
    3a74:	400007b7          	lui	a5,0x40000
    3a78:	80043483          	ld	s1,-2048(s0)
    3a7c:	00001837          	lui	a6,0x1
    3a80:	41040833          	sub	a6,s0,a6
    3a84:	f2e83823          	sd	a4,-208(a6) # f30 <.LBB13_3+0xd14>
    3a88:	00001837          	lui	a6,0x1
    3a8c:	41040833          	sub	a6,s0,a6
    3a90:	64883803          	ld	a6,1608(a6) # 1648 <.LBB13_4+0x4a4>
    3a94:	00075463          	bgez	a4,3a9c <.LBB13_72>
    3a98:	c00007b7          	lui	a5,0xc0000

0000000000003a9c <.LBB13_72>:
    3a9c:	00001737          	lui	a4,0x1
    3aa0:	40e40733          	sub	a4,s0,a4
    3aa4:	f2f73423          	sd	a5,-216(a4) # f28 <.LBB13_3+0xd0c>
    3aa8:	00001737          	lui	a4,0x1
    3aac:	40e40733          	sub	a4,s0,a4
    3ab0:	6d073703          	ld	a4,1744(a4) # 16d0 <.LBB13_5+0x20>
    3ab4:	81043783          	ld	a5,-2032(s0)
    3ab8:	00e78733          	add	a4,a5,a4
    3abc:	000017b7          	lui	a5,0x1
    3ac0:	40f407b3          	sub	a5,s0,a5
    3ac4:	6c87b783          	ld	a5,1736(a5) # 16c8 <.LBB13_5+0x18>
    3ac8:	40f687bb          	subw	a5,a3,a5
    3acc:	00f70733          	add	a4,a4,a5
    3ad0:	ff07071b          	addiw	a4,a4,-16
    3ad4:	400007b7          	lui	a5,0x40000
    3ad8:	c0043d03          	ld	s10,-1024(s0)
    3adc:	00001337          	lui	t1,0x1
    3ae0:	40640333          	sub	t1,s0,t1
    3ae4:	f4e33023          	sd	a4,-192(t1) # f40 <.LBB13_3+0xd24>
    3ae8:	00075463          	bgez	a4,3af0 <.LBB13_74>
    3aec:	c00007b7          	lui	a5,0xc0000

0000000000003af0 <.LBB13_74>:
    3af0:	00001737          	lui	a4,0x1
    3af4:	40e40733          	sub	a4,s0,a4
    3af8:	f2f73c23          	sd	a5,-200(a4) # f38 <.LBB13_3+0xd1c>
    3afc:	00001737          	lui	a4,0x1
    3b00:	40e40733          	sub	a4,s0,a4
    3b04:	6c073703          	ld	a4,1728(a4) # 16c0 <.LBB13_5+0x10>
    3b08:	81843783          	ld	a5,-2024(s0)
    3b0c:	00e78733          	add	a4,a5,a4
    3b10:	000017b7          	lui	a5,0x1
    3b14:	40f407b3          	sub	a5,s0,a5
    3b18:	6b87b783          	ld	a5,1720(a5) # 16b8 <.LBB13_5+0x8>
    3b1c:	40f687bb          	subw	a5,a3,a5
    3b20:	00f70733          	add	a4,a4,a5
    3b24:	ff07071b          	addiw	a4,a4,-16
    3b28:	400007b7          	lui	a5,0x40000
    3b2c:	00001337          	lui	t1,0x1
    3b30:	40640333          	sub	t1,s0,t1
    3b34:	f4e33823          	sd	a4,-176(t1) # f50 <.LBB13_3+0xd34>
    3b38:	00075463          	bgez	a4,3b40 <.LBB13_76>
    3b3c:	c00007b7          	lui	a5,0xc0000

0000000000003b40 <.LBB13_76>:
    3b40:	00001737          	lui	a4,0x1
    3b44:	40e40733          	sub	a4,s0,a4
    3b48:	f4f73423          	sd	a5,-184(a4) # f48 <.LBB13_3+0xd2c>
    3b4c:	00001737          	lui	a4,0x1
    3b50:	40e40733          	sub	a4,s0,a4
    3b54:	64073703          	ld	a4,1600(a4) # 1640 <.LBB13_4+0x49c>
    3b58:	82043783          	ld	a5,-2016(s0)
    3b5c:	00e78733          	add	a4,a5,a4
    3b60:	000017b7          	lui	a5,0x1
    3b64:	40f407b3          	sub	a5,s0,a5
    3b68:	6b07b783          	ld	a5,1712(a5) # 16b0 <.LBB13_5>
    3b6c:	40f687bb          	subw	a5,a3,a5
    3b70:	00f70733          	add	a4,a4,a5
    3b74:	ff07071b          	addiw	a4,a4,-16
    3b78:	400007b7          	lui	a5,0x40000
    3b7c:	00001337          	lui	t1,0x1
    3b80:	40640333          	sub	t1,s0,t1
    3b84:	f6e33023          	sd	a4,-160(t1) # f60 <.LBB13_3+0xd44>
    3b88:	00075463          	bgez	a4,3b90 <.LBB13_78>
    3b8c:	c00007b7          	lui	a5,0xc0000

0000000000003b90 <.LBB13_78>:
    3b90:	00001737          	lui	a4,0x1
    3b94:	40e40733          	sub	a4,s0,a4
    3b98:	f4f73c23          	sd	a5,-168(a4) # f58 <.LBB13_3+0xd3c>
    3b9c:	00001737          	lui	a4,0x1
    3ba0:	40e40733          	sub	a4,s0,a4
    3ba4:	6a873703          	ld	a4,1704(a4) # 16a8 <.LBB13_4+0x504>
    3ba8:	82843783          	ld	a5,-2008(s0)
    3bac:	00e78733          	add	a4,a5,a4
    3bb0:	000017b7          	lui	a5,0x1
    3bb4:	40f407b3          	sub	a5,s0,a5
    3bb8:	6a07b783          	ld	a5,1696(a5) # 16a0 <.LBB13_4+0x4fc>
    3bbc:	40f687bb          	subw	a5,a3,a5
    3bc0:	00f70733          	add	a4,a4,a5
    3bc4:	ff07071b          	addiw	a4,a4,-16
    3bc8:	400007b7          	lui	a5,0x40000
    3bcc:	00001337          	lui	t1,0x1
    3bd0:	40640333          	sub	t1,s0,t1
    3bd4:	f6e33823          	sd	a4,-144(t1) # f70 <.LBB13_3+0xd54>
    3bd8:	00075463          	bgez	a4,3be0 <.LBB13_80>
    3bdc:	c00007b7          	lui	a5,0xc0000

0000000000003be0 <.LBB13_80>:
    3be0:	00001737          	lui	a4,0x1
    3be4:	40e40733          	sub	a4,s0,a4
    3be8:	f6f73423          	sd	a5,-152(a4) # f68 <.LBB13_3+0xd4c>
    3bec:	00001737          	lui	a4,0x1
    3bf0:	40e40733          	sub	a4,s0,a4
    3bf4:	69873703          	ld	a4,1688(a4) # 1698 <.LBB13_4+0x4f4>
    3bf8:	83043783          	ld	a5,-2000(s0)
    3bfc:	00e78733          	add	a4,a5,a4
    3c00:	000017b7          	lui	a5,0x1
    3c04:	40f407b3          	sub	a5,s0,a5
    3c08:	6907b783          	ld	a5,1680(a5) # 1690 <.LBB13_4+0x4ec>
    3c0c:	40f687bb          	subw	a5,a3,a5
    3c10:	00f70733          	add	a4,a4,a5
    3c14:	ff07071b          	addiw	a4,a4,-16
    3c18:	400007b7          	lui	a5,0x40000
    3c1c:	00001337          	lui	t1,0x1
    3c20:	40640333          	sub	t1,s0,t1
    3c24:	f8e33023          	sd	a4,-128(t1) # f80 <.LBB13_3+0xd64>
    3c28:	00075463          	bgez	a4,3c30 <.LBB13_82>
    3c2c:	c00007b7          	lui	a5,0xc0000

0000000000003c30 <.LBB13_82>:
    3c30:	00001737          	lui	a4,0x1
    3c34:	40e40733          	sub	a4,s0,a4
    3c38:	f6f73c23          	sd	a5,-136(a4) # f78 <.LBB13_3+0xd5c>
    3c3c:	00001737          	lui	a4,0x1
    3c40:	40e40733          	sub	a4,s0,a4
    3c44:	68873703          	ld	a4,1672(a4) # 1688 <.LBB13_4+0x4e4>
    3c48:	83843783          	ld	a5,-1992(s0)
    3c4c:	00e78733          	add	a4,a5,a4
    3c50:	000017b7          	lui	a5,0x1
    3c54:	40f407b3          	sub	a5,s0,a5
    3c58:	6807b783          	ld	a5,1664(a5) # 1680 <.LBB13_4+0x4dc>
    3c5c:	40f687bb          	subw	a5,a3,a5
    3c60:	00f70733          	add	a4,a4,a5
    3c64:	ff07071b          	addiw	a4,a4,-16
    3c68:	400007b7          	lui	a5,0x40000
    3c6c:	00001337          	lui	t1,0x1
    3c70:	40640333          	sub	t1,s0,t1
    3c74:	f8e33823          	sd	a4,-112(t1) # f90 <.LBB13_3+0xd74>
    3c78:	00075463          	bgez	a4,3c80 <.LBB13_84>
    3c7c:	c00007b7          	lui	a5,0xc0000

0000000000003c80 <.LBB13_84>:
    3c80:	00001737          	lui	a4,0x1
    3c84:	40e40733          	sub	a4,s0,a4
    3c88:	f8f73423          	sd	a5,-120(a4) # f88 <.LBB13_3+0xd6c>
    3c8c:	00001737          	lui	a4,0x1
    3c90:	40e40733          	sub	a4,s0,a4
    3c94:	67873703          	ld	a4,1656(a4) # 1678 <.LBB13_4+0x4d4>
    3c98:	84843783          	ld	a5,-1976(s0)
    3c9c:	00e78733          	add	a4,a5,a4
    3ca0:	000017b7          	lui	a5,0x1
    3ca4:	40f407b3          	sub	a5,s0,a5
    3ca8:	6707b783          	ld	a5,1648(a5) # 1670 <.LBB13_4+0x4cc>
    3cac:	40f687bb          	subw	a5,a3,a5
    3cb0:	00f70733          	add	a4,a4,a5
    3cb4:	ff07071b          	addiw	a4,a4,-16
    3cb8:	400007b7          	lui	a5,0x40000
    3cbc:	00001337          	lui	t1,0x1
    3cc0:	40640333          	sub	t1,s0,t1
    3cc4:	fae33023          	sd	a4,-96(t1) # fa0 <.LBB13_3+0xd84>
    3cc8:	00075463          	bgez	a4,3cd0 <.LBB13_86>
    3ccc:	c00007b7          	lui	a5,0xc0000

0000000000003cd0 <.LBB13_86>:
    3cd0:	00001737          	lui	a4,0x1
    3cd4:	40e40733          	sub	a4,s0,a4
    3cd8:	f8f73c23          	sd	a5,-104(a4) # f98 <.LBB13_3+0xd7c>
    3cdc:	00001737          	lui	a4,0x1
    3ce0:	40e40733          	sub	a4,s0,a4
    3ce4:	66873703          	ld	a4,1640(a4) # 1668 <.LBB13_4+0x4c4>
    3ce8:	85043783          	ld	a5,-1968(s0)
    3cec:	00e78733          	add	a4,a5,a4
    3cf0:	000017b7          	lui	a5,0x1
    3cf4:	40f407b3          	sub	a5,s0,a5
    3cf8:	6607b783          	ld	a5,1632(a5) # 1660 <.LBB13_4+0x4bc>
    3cfc:	40f687bb          	subw	a5,a3,a5
    3d00:	00f70733          	add	a4,a4,a5
    3d04:	ff07071b          	addiw	a4,a4,-16
    3d08:	400007b7          	lui	a5,0x40000
    3d0c:	00001337          	lui	t1,0x1
    3d10:	40640333          	sub	t1,s0,t1
    3d14:	fae33823          	sd	a4,-80(t1) # fb0 <.LBB13_3+0xd94>
    3d18:	00075463          	bgez	a4,3d20 <.LBB13_88>
    3d1c:	c00007b7          	lui	a5,0xc0000

0000000000003d20 <.LBB13_88>:
    3d20:	00001737          	lui	a4,0x1
    3d24:	40e40733          	sub	a4,s0,a4
    3d28:	faf73423          	sd	a5,-88(a4) # fa8 <.LBB13_3+0xd8c>
    3d2c:	00001737          	lui	a4,0x1
    3d30:	40e40733          	sub	a4,s0,a4
    3d34:	65873703          	ld	a4,1624(a4) # 1658 <.LBB13_4+0x4b4>
    3d38:	85843783          	ld	a5,-1960(s0)
    3d3c:	00e78733          	add	a4,a5,a4
    3d40:	000017b7          	lui	a5,0x1
    3d44:	40f407b3          	sub	a5,s0,a5
    3d48:	7687b783          	ld	a5,1896(a5) # 1768 <.LBB13_5+0xb8>
    3d4c:	40f687bb          	subw	a5,a3,a5
    3d50:	00f70733          	add	a4,a4,a5
    3d54:	ff07071b          	addiw	a4,a4,-16
    3d58:	400007b7          	lui	a5,0x40000
    3d5c:	00001337          	lui	t1,0x1
    3d60:	40640333          	sub	t1,s0,t1
    3d64:	fce33023          	sd	a4,-64(t1) # fc0 <.LBB13_3+0xda4>
    3d68:	00075463          	bgez	a4,3d70 <.LBB13_90>
    3d6c:	c00007b7          	lui	a5,0xc0000

0000000000003d70 <.LBB13_90>:
    3d70:	00001737          	lui	a4,0x1
    3d74:	40e40733          	sub	a4,s0,a4
    3d78:	faf73c23          	sd	a5,-72(a4) # fb8 <.LBB13_3+0xd9c>
    3d7c:	00001737          	lui	a4,0x1
    3d80:	40e40733          	sub	a4,s0,a4
    3d84:	73073703          	ld	a4,1840(a4) # 1730 <.LBB13_5+0x80>
    3d88:	86043783          	ld	a5,-1952(s0)
    3d8c:	00e78733          	add	a4,a5,a4
    3d90:	000017b7          	lui	a5,0x1
    3d94:	40f407b3          	sub	a5,s0,a5
    3d98:	6e87b783          	ld	a5,1768(a5) # 16e8 <.LBB13_5+0x38>
    3d9c:	40f687bb          	subw	a5,a3,a5
    3da0:	00f70733          	add	a4,a4,a5
    3da4:	ff07071b          	addiw	a4,a4,-16
    3da8:	400007b7          	lui	a5,0x40000
    3dac:	00001337          	lui	t1,0x1
    3db0:	40640333          	sub	t1,s0,t1
    3db4:	fce33823          	sd	a4,-48(t1) # fd0 <.LBB13_3+0xdb4>
    3db8:	00075463          	bgez	a4,3dc0 <.LBB13_92>
    3dbc:	c00007b7          	lui	a5,0xc0000

0000000000003dc0 <.LBB13_92>:
    3dc0:	00001737          	lui	a4,0x1
    3dc4:	40e40733          	sub	a4,s0,a4
    3dc8:	fcf73423          	sd	a5,-56(a4) # fc8 <.LBB13_3+0xdac>
    3dcc:	86843703          	ld	a4,-1944(s0)
    3dd0:	01070733          	add	a4,a4,a6
    3dd4:	000017b7          	lui	a5,0x1
    3dd8:	40f407b3          	sub	a5,s0,a5
    3ddc:	6f07b783          	ld	a5,1776(a5) # 16f0 <.LBB13_5+0x40>
    3de0:	40f687bb          	subw	a5,a3,a5
    3de4:	00f70733          	add	a4,a4,a5
    3de8:	ff07071b          	addiw	a4,a4,-16
    3dec:	400007b7          	lui	a5,0x40000
    3df0:	00001337          	lui	t1,0x1
    3df4:	40640333          	sub	t1,s0,t1
    3df8:	fee33023          	sd	a4,-32(t1) # fe0 <.LBB13_3+0xdc4>
    3dfc:	00075463          	bgez	a4,3e04 <.LBB13_94>
    3e00:	c00007b7          	lui	a5,0xc0000

0000000000003e04 <.LBB13_94>:
    3e04:	00001737          	lui	a4,0x1
    3e08:	40e40733          	sub	a4,s0,a4
    3e0c:	fcf73c23          	sd	a5,-40(a4) # fd8 <.LBB13_3+0xdbc>
    3e10:	00001737          	lui	a4,0x1
    3e14:	40e40733          	sub	a4,s0,a4
    3e18:	74873703          	ld	a4,1864(a4) # 1748 <.LBB13_5+0x98>
    3e1c:	87043783          	ld	a5,-1936(s0)
    3e20:	00e78733          	add	a4,a5,a4
    3e24:	000017b7          	lui	a5,0x1
    3e28:	40f407b3          	sub	a5,s0,a5
    3e2c:	6f87b783          	ld	a5,1784(a5) # 16f8 <.LBB13_5+0x48>
    3e30:	40f687bb          	subw	a5,a3,a5
    3e34:	00f70733          	add	a4,a4,a5
    3e38:	ff07071b          	addiw	a4,a4,-16
    3e3c:	400007b7          	lui	a5,0x40000
    3e40:	00001337          	lui	t1,0x1
    3e44:	40640333          	sub	t1,s0,t1
    3e48:	fee33823          	sd	a4,-16(t1) # ff0 <.LBB13_3+0xdd4>
    3e4c:	00075463          	bgez	a4,3e54 <.LBB13_96>
    3e50:	c00007b7          	lui	a5,0xc0000

0000000000003e54 <.LBB13_96>:
    3e54:	00001737          	lui	a4,0x1
    3e58:	40e40733          	sub	a4,s0,a4
    3e5c:	fef73423          	sd	a5,-24(a4) # fe8 <.LBB13_3+0xdcc>
    3e60:	00001737          	lui	a4,0x1
    3e64:	40e40733          	sub	a4,s0,a4
    3e68:	75073703          	ld	a4,1872(a4) # 1750 <.LBB13_5+0xa0>
    3e6c:	87843783          	ld	a5,-1928(s0)
    3e70:	00e78733          	add	a4,a5,a4
    3e74:	000017b7          	lui	a5,0x1
    3e78:	40f407b3          	sub	a5,s0,a5
    3e7c:	7207b783          	ld	a5,1824(a5) # 1720 <.LBB13_5+0x70>
    3e80:	40f687bb          	subw	a5,a3,a5
    3e84:	00f70733          	add	a4,a4,a5
    3e88:	ff07071b          	addiw	a4,a4,-16
    3e8c:	400007b7          	lui	a5,0x40000
    3e90:	00001337          	lui	t1,0x1
    3e94:	40640333          	sub	t1,s0,t1
    3e98:	00e33023          	sd	a4,0(t1) # 1000 <.LBB13_3+0xde4>
    3e9c:	00075463          	bgez	a4,3ea4 <.LBB13_98>
    3ea0:	c00007b7          	lui	a5,0xc0000

0000000000003ea4 <.LBB13_98>:
    3ea4:	00001737          	lui	a4,0x1
    3ea8:	40e40733          	sub	a4,s0,a4
    3eac:	fef73c23          	sd	a5,-8(a4) # ff8 <.LBB13_3+0xddc>
    3eb0:	00001737          	lui	a4,0x1
    3eb4:	40e40733          	sub	a4,s0,a4
    3eb8:	76073703          	ld	a4,1888(a4) # 1760 <.LBB13_5+0xb0>
    3ebc:	88043783          	ld	a5,-1920(s0)
    3ec0:	00e78733          	add	a4,a5,a4
    3ec4:	000017b7          	lui	a5,0x1
    3ec8:	40f407b3          	sub	a5,s0,a5
    3ecc:	7287b783          	ld	a5,1832(a5) # 1728 <.LBB13_5+0x78>
    3ed0:	40f687bb          	subw	a5,a3,a5
    3ed4:	00f70733          	add	a4,a4,a5
    3ed8:	ff07071b          	addiw	a4,a4,-16
    3edc:	400007b7          	lui	a5,0x40000
    3ee0:	00001337          	lui	t1,0x1
    3ee4:	40640333          	sub	t1,s0,t1
    3ee8:	00e33823          	sd	a4,16(t1) # 1010 <.LBB13_3+0xdf4>
    3eec:	00075463          	bgez	a4,3ef4 <.LBB13_100>
    3ef0:	c00007b7          	lui	a5,0xc0000

0000000000003ef4 <.LBB13_100>:
    3ef4:	00001737          	lui	a4,0x1
    3ef8:	40e40733          	sub	a4,s0,a4
    3efc:	00f73423          	sd	a5,8(a4) # 1008 <.LBB13_3+0xdec>
    3f00:	e8043703          	ld	a4,-384(s0)
    3f04:	88843783          	ld	a5,-1912(s0)
    3f08:	00e78733          	add	a4,a5,a4
    3f0c:	000017b7          	lui	a5,0x1
    3f10:	40f407b3          	sub	a5,s0,a5
    3f14:	7387b783          	ld	a5,1848(a5) # 1738 <.LBB13_5+0x88>
    3f18:	40f687bb          	subw	a5,a3,a5
    3f1c:	00f70733          	add	a4,a4,a5
    3f20:	ff07071b          	addiw	a4,a4,-16
    3f24:	400007b7          	lui	a5,0x40000
    3f28:	00001337          	lui	t1,0x1
    3f2c:	40640333          	sub	t1,s0,t1
    3f30:	02e33023          	sd	a4,32(t1) # 1020 <.LBB13_3+0xe04>
    3f34:	00075463          	bgez	a4,3f3c <.LBB13_102>
    3f38:	c00007b7          	lui	a5,0xc0000

0000000000003f3c <.LBB13_102>:
    3f3c:	00001737          	lui	a4,0x1
    3f40:	40e40733          	sub	a4,s0,a4
    3f44:	00f73c23          	sd	a5,24(a4) # 1018 <.LBB13_3+0xdfc>
    3f48:	e9043703          	ld	a4,-368(s0)
    3f4c:	89043783          	ld	a5,-1904(s0)
    3f50:	00e78733          	add	a4,a5,a4
    3f54:	000017b7          	lui	a5,0x1
    3f58:	40f407b3          	sub	a5,s0,a5
    3f5c:	7407b783          	ld	a5,1856(a5) # 1740 <.LBB13_5+0x90>
    3f60:	40f687bb          	subw	a5,a3,a5
    3f64:	00f70733          	add	a4,a4,a5
    3f68:	ff07071b          	addiw	a4,a4,-16
    3f6c:	400007b7          	lui	a5,0x40000
    3f70:	00001337          	lui	t1,0x1
    3f74:	40640333          	sub	t1,s0,t1
    3f78:	02e33823          	sd	a4,48(t1) # 1030 <.LBB13_3+0xe14>
    3f7c:	00075463          	bgez	a4,3f84 <.LBB13_104>
    3f80:	c00007b7          	lui	a5,0xc0000

0000000000003f84 <.LBB13_104>:
    3f84:	00001737          	lui	a4,0x1
    3f88:	40e40733          	sub	a4,s0,a4
    3f8c:	02f73423          	sd	a5,40(a4) # 1028 <.LBB13_3+0xe0c>
    3f90:	ea043703          	ld	a4,-352(s0)
    3f94:	89843783          	ld	a5,-1896(s0)
    3f98:	00e78733          	add	a4,a5,a4
    3f9c:	000017b7          	lui	a5,0x1
    3fa0:	40f407b3          	sub	a5,s0,a5
    3fa4:	7587b783          	ld	a5,1880(a5) # 1758 <.LBB13_5+0xa8>
    3fa8:	40f687bb          	subw	a5,a3,a5
    3fac:	00f70733          	add	a4,a4,a5
    3fb0:	ff07071b          	addiw	a4,a4,-16
    3fb4:	400007b7          	lui	a5,0x40000
    3fb8:	86e43423          	sd	a4,-1944(s0)
    3fbc:	00075463          	bgez	a4,3fc4 <.LBB13_106>
    3fc0:	c00007b7          	lui	a5,0xc0000

0000000000003fc4 <.LBB13_106>:
    3fc4:	00001737          	lui	a4,0x1
    3fc8:	40e40733          	sub	a4,s0,a4
    3fcc:	02f73c23          	sd	a5,56(a4) # 1038 <.LBB13_3+0xe1c>
    3fd0:	eb043703          	ld	a4,-336(s0)
    3fd4:	8a043783          	ld	a5,-1888(s0)
    3fd8:	00e78733          	add	a4,a5,a4
    3fdc:	e7843783          	ld	a5,-392(s0)
    3fe0:	40f687bb          	subw	a5,a3,a5
    3fe4:	00f70733          	add	a4,a4,a5
    3fe8:	ff07071b          	addiw	a4,a4,-16
    3fec:	400007b7          	lui	a5,0x40000
    3ff0:	00001337          	lui	t1,0x1
    3ff4:	40640333          	sub	t1,s0,t1
    3ff8:	04e33423          	sd	a4,72(t1) # 1048 <.LBB13_3+0xe2c>
    3ffc:	00075463          	bgez	a4,4004 <.LBB13_108>
    4000:	c00007b7          	lui	a5,0xc0000

0000000000004004 <.LBB13_108>:
    4004:	00001737          	lui	a4,0x1
    4008:	40e40733          	sub	a4,s0,a4
    400c:	04f73023          	sd	a5,64(a4) # 1040 <.LBB13_3+0xe24>
    4010:	eb843703          	ld	a4,-328(s0)
    4014:	8a843783          	ld	a5,-1880(s0)
    4018:	00e78733          	add	a4,a5,a4
    401c:	e8843783          	ld	a5,-376(s0)
    4020:	40f687bb          	subw	a5,a3,a5
    4024:	00f70733          	add	a4,a4,a5
    4028:	ff07071b          	addiw	a4,a4,-16
    402c:	400007b7          	lui	a5,0x40000
    4030:	00001337          	lui	t1,0x1
    4034:	40640333          	sub	t1,s0,t1
    4038:	04e33c23          	sd	a4,88(t1) # 1058 <.LBB13_3+0xe3c>
    403c:	00075463          	bgez	a4,4044 <.LBB13_110>
    4040:	c00007b7          	lui	a5,0xc0000

0000000000004044 <.LBB13_110>:
    4044:	00001737          	lui	a4,0x1
    4048:	40e40733          	sub	a4,s0,a4
    404c:	04f73823          	sd	a5,80(a4) # 1050 <.LBB13_3+0xe34>
    4050:	ec843703          	ld	a4,-312(s0)
    4054:	8b043783          	ld	a5,-1872(s0)
    4058:	00e78733          	add	a4,a5,a4
    405c:	e9843783          	ld	a5,-360(s0)
    4060:	40f687bb          	subw	a5,a3,a5
    4064:	00f70733          	add	a4,a4,a5
    4068:	ff07071b          	addiw	a4,a4,-16
    406c:	400007b7          	lui	a5,0x40000
    4070:	00001337          	lui	t1,0x1
    4074:	40640333          	sub	t1,s0,t1
    4078:	7ae33023          	sd	a4,1952(t1) # 17a0 <.LBB13_5+0xf0>
    407c:	00075463          	bgez	a4,4084 <.LBB13_112>
    4080:	c00007b7          	lui	a5,0xc0000

0000000000004084 <.LBB13_112>:
    4084:	00001737          	lui	a4,0x1
    4088:	40e40733          	sub	a4,s0,a4
    408c:	06f73023          	sd	a5,96(a4) # 1060 <.LBB13_3+0xe44>
    4090:	ed843703          	ld	a4,-296(s0)
    4094:	8b843783          	ld	a5,-1864(s0)
    4098:	00e78733          	add	a4,a5,a4
    409c:	ea843783          	ld	a5,-344(s0)
    40a0:	40f687bb          	subw	a5,a3,a5
    40a4:	00f70733          	add	a4,a4,a5
    40a8:	ff07071b          	addiw	a4,a4,-16
    40ac:	400007b7          	lui	a5,0x40000
    40b0:	00001337          	lui	t1,0x1
    40b4:	40640333          	sub	t1,s0,t1
    40b8:	06e33823          	sd	a4,112(t1) # 1070 <.LBB13_3+0xe54>
    40bc:	00075463          	bgez	a4,40c4 <.LBB13_114>
    40c0:	c00007b7          	lui	a5,0xc0000

00000000000040c4 <.LBB13_114>:
    40c4:	00001737          	lui	a4,0x1
    40c8:	40e40733          	sub	a4,s0,a4
    40cc:	06f73423          	sd	a5,104(a4) # 1068 <.LBB13_3+0xe4c>
    40d0:	ee843703          	ld	a4,-280(s0)
    40d4:	8c043783          	ld	a5,-1856(s0)
    40d8:	00e78733          	add	a4,a5,a4
    40dc:	ec043783          	ld	a5,-320(s0)
    40e0:	40f687bb          	subw	a5,a3,a5
    40e4:	00f70733          	add	a4,a4,a5
    40e8:	ff07071b          	addiw	a4,a4,-16
    40ec:	400007b7          	lui	a5,0x40000
    40f0:	00001337          	lui	t1,0x1
    40f4:	40640333          	sub	t1,s0,t1
    40f8:	08e33023          	sd	a4,128(t1) # 1080 <.LBB13_3+0xe64>
    40fc:	00075463          	bgez	a4,4104 <.LBB13_116>
    4100:	c00007b7          	lui	a5,0xc0000

0000000000004104 <.LBB13_116>:
    4104:	00001737          	lui	a4,0x1
    4108:	40e40733          	sub	a4,s0,a4
    410c:	06f73c23          	sd	a5,120(a4) # 1078 <.LBB13_3+0xe5c>
    4110:	ef843703          	ld	a4,-264(s0)
    4114:	8c843783          	ld	a5,-1848(s0)
    4118:	00e78733          	add	a4,a5,a4
    411c:	ed043783          	ld	a5,-304(s0)
    4120:	40f687bb          	subw	a5,a3,a5
    4124:	00f70733          	add	a4,a4,a5
    4128:	ff07071b          	addiw	a4,a4,-16
    412c:	400007b7          	lui	a5,0x40000
    4130:	00001337          	lui	t1,0x1
    4134:	40640333          	sub	t1,s0,t1
    4138:	08e33823          	sd	a4,144(t1) # 1090 <.LBB13_3+0xe74>
    413c:	00075463          	bgez	a4,4144 <.LBB13_118>
    4140:	c00007b7          	lui	a5,0xc0000

0000000000004144 <.LBB13_118>:
    4144:	00001737          	lui	a4,0x1
    4148:	40e40733          	sub	a4,s0,a4
    414c:	08f73423          	sd	a5,136(a4) # 1088 <.LBB13_3+0xe6c>
    4150:	f0043703          	ld	a4,-256(s0)
    4154:	8d043783          	ld	a5,-1840(s0)
    4158:	00e78733          	add	a4,a5,a4
    415c:	ee043783          	ld	a5,-288(s0)
    4160:	40f687bb          	subw	a5,a3,a5
    4164:	00f70733          	add	a4,a4,a5
    4168:	ff07071b          	addiw	a4,a4,-16
    416c:	400007b7          	lui	a5,0x40000
    4170:	00001337          	lui	t1,0x1
    4174:	40640333          	sub	t1,s0,t1
    4178:	0ae33023          	sd	a4,160(t1) # 10a0 <.LBB13_3+0xe84>
    417c:	00075463          	bgez	a4,4184 <.LBB13_120>
    4180:	c00007b7          	lui	a5,0xc0000

0000000000004184 <.LBB13_120>:
    4184:	00001737          	lui	a4,0x1
    4188:	40e40733          	sub	a4,s0,a4
    418c:	08f73c23          	sd	a5,152(a4) # 1098 <.LBB13_3+0xe7c>
    4190:	f1043703          	ld	a4,-240(s0)
    4194:	8d843783          	ld	a5,-1832(s0)
    4198:	00e78733          	add	a4,a5,a4
    419c:	ef043783          	ld	a5,-272(s0)
    41a0:	40f687bb          	subw	a5,a3,a5
    41a4:	00f70733          	add	a4,a4,a5
    41a8:	ff07071b          	addiw	a4,a4,-16
    41ac:	400007b7          	lui	a5,0x40000
    41b0:	00001337          	lui	t1,0x1
    41b4:	40640333          	sub	t1,s0,t1
    41b8:	0ae33823          	sd	a4,176(t1) # 10b0 <.LBB13_3+0xe94>
    41bc:	00075463          	bgez	a4,41c4 <.LBB13_122>
    41c0:	c00007b7          	lui	a5,0xc0000

00000000000041c4 <.LBB13_122>:
    41c4:	00001737          	lui	a4,0x1
    41c8:	40e40733          	sub	a4,s0,a4
    41cc:	0af73423          	sd	a5,168(a4) # 10a8 <.LBB13_3+0xe8c>
    41d0:	f3843703          	ld	a4,-200(s0)
    41d4:	8e043783          	ld	a5,-1824(s0)
    41d8:	00e78733          	add	a4,a5,a4
    41dc:	f0843783          	ld	a5,-248(s0)
    41e0:	40f687bb          	subw	a5,a3,a5
    41e4:	00f70733          	add	a4,a4,a5
    41e8:	ff07071b          	addiw	a4,a4,-16
    41ec:	400007b7          	lui	a5,0x40000
    41f0:	00001337          	lui	t1,0x1
    41f4:	40640333          	sub	t1,s0,t1
    41f8:	0ce33023          	sd	a4,192(t1) # 10c0 <.LBB13_3+0xea4>
    41fc:	00075463          	bgez	a4,4204 <.LBB13_124>
    4200:	c00007b7          	lui	a5,0xc0000

0000000000004204 <.LBB13_124>:
    4204:	00001737          	lui	a4,0x1
    4208:	40e40733          	sub	a4,s0,a4
    420c:	0af73c23          	sd	a5,184(a4) # 10b8 <.LBB13_3+0xe9c>
    4210:	f4843703          	ld	a4,-184(s0)
    4214:	8e843783          	ld	a5,-1816(s0)
    4218:	00e78733          	add	a4,a5,a4
    421c:	f3043783          	ld	a5,-208(s0)
    4220:	40f687bb          	subw	a5,a3,a5
    4224:	00f70733          	add	a4,a4,a5
    4228:	ff07071b          	addiw	a4,a4,-16
    422c:	400007b7          	lui	a5,0x40000
    4230:	00001337          	lui	t1,0x1
    4234:	40640333          	sub	t1,s0,t1
    4238:	0ce33823          	sd	a4,208(t1) # 10d0 <.LBB13_3+0xeb4>
    423c:	00075463          	bgez	a4,4244 <.LBB13_126>
    4240:	c00007b7          	lui	a5,0xc0000

0000000000004244 <.LBB13_126>:
    4244:	00001737          	lui	a4,0x1
    4248:	40e40733          	sub	a4,s0,a4
    424c:	0cf73423          	sd	a5,200(a4) # 10c8 <.LBB13_3+0xeac>
    4250:	f5843703          	ld	a4,-168(s0)
    4254:	8f043783          	ld	a5,-1808(s0)
    4258:	00e78733          	add	a4,a5,a4
    425c:	f4043783          	ld	a5,-192(s0)
    4260:	40f687bb          	subw	a5,a3,a5
    4264:	00f70733          	add	a4,a4,a5
    4268:	ff07071b          	addiw	a4,a4,-16
    426c:	400007b7          	lui	a5,0x40000
    4270:	00001337          	lui	t1,0x1
    4274:	40640333          	sub	t1,s0,t1
    4278:	0ee33023          	sd	a4,224(t1) # 10e0 <.LBB13_3+0xec4>
    427c:	00075463          	bgez	a4,4284 <.LBB13_128>
    4280:	c00007b7          	lui	a5,0xc0000

0000000000004284 <.LBB13_128>:
    4284:	00001737          	lui	a4,0x1
    4288:	40e40733          	sub	a4,s0,a4
    428c:	0cf73c23          	sd	a5,216(a4) # 10d8 <.LBB13_3+0xebc>
    4290:	f6843703          	ld	a4,-152(s0)
    4294:	8f843783          	ld	a5,-1800(s0)
    4298:	00e78733          	add	a4,a5,a4
    429c:	f5043783          	ld	a5,-176(s0)
    42a0:	40f687bb          	subw	a5,a3,a5
    42a4:	00f70733          	add	a4,a4,a5
    42a8:	ff07071b          	addiw	a4,a4,-16
    42ac:	400007b7          	lui	a5,0x40000
    42b0:	00001337          	lui	t1,0x1
    42b4:	40640333          	sub	t1,s0,t1
    42b8:	0ee33823          	sd	a4,240(t1) # 10f0 <.LBB13_3+0xed4>
    42bc:	00075463          	bgez	a4,42c4 <.LBB13_130>
    42c0:	c00007b7          	lui	a5,0xc0000

00000000000042c4 <.LBB13_130>:
    42c4:	00001737          	lui	a4,0x1
    42c8:	40e40733          	sub	a4,s0,a4
    42cc:	0ef73423          	sd	a5,232(a4) # 10e8 <.LBB13_3+0xecc>
    42d0:	f7043703          	ld	a4,-144(s0)
    42d4:	90043783          	ld	a5,-1792(s0)
    42d8:	00e78733          	add	a4,a5,a4
    42dc:	f6043783          	ld	a5,-160(s0)
    42e0:	40f687bb          	subw	a5,a3,a5
    42e4:	00f70733          	add	a4,a4,a5
    42e8:	ff07071b          	addiw	a4,a4,-16
    42ec:	400007b7          	lui	a5,0x40000
    42f0:	00001337          	lui	t1,0x1
    42f4:	40640333          	sub	t1,s0,t1
    42f8:	10e33023          	sd	a4,256(t1) # 1100 <.LBB13_3+0xee4>
    42fc:	00075463          	bgez	a4,4304 <.LBB13_132>
    4300:	c00007b7          	lui	a5,0xc0000

0000000000004304 <.LBB13_132>:
    4304:	00001737          	lui	a4,0x1
    4308:	40e40733          	sub	a4,s0,a4
    430c:	0ef73c23          	sd	a5,248(a4) # 10f8 <.LBB13_3+0xedc>
    4310:	f8043703          	ld	a4,-128(s0)
    4314:	90843783          	ld	a5,-1784(s0)
    4318:	00e78733          	add	a4,a5,a4
    431c:	f7843783          	ld	a5,-136(s0)
    4320:	40f686bb          	subw	a3,a3,a5
    4324:	00d706b3          	add	a3,a4,a3
    4328:	ff06869b          	addiw	a3,a3,-16
    432c:	40000737          	lui	a4,0x40000
    4330:	000017b7          	lui	a5,0x1
    4334:	40f407b3          	sub	a5,s0,a5
    4338:	10d7b823          	sd	a3,272(a5) # 1110 <.LBB13_3+0xef4>
    433c:	0006d463          	bgez	a3,4344 <.LBB13_134>
    4340:	c0000737          	lui	a4,0xc0000

0000000000004344 <.LBB13_134>:
    4344:	000016b7          	lui	a3,0x1
    4348:	40d406b3          	sub	a3,s0,a3
    434c:	10e6b423          	sd	a4,264(a3) # 1108 <.LBB13_3+0xeec>
    4350:	000016b7          	lui	a3,0x1
    4354:	40d406b3          	sub	a3,s0,a3
    4358:	6e06b683          	ld	a3,1760(a3) # 16e0 <.LBB13_5+0x30>
    435c:	91043703          	ld	a4,-1776(s0)
    4360:	00d706b3          	add	a3,a4,a3
    4364:	00001737          	lui	a4,0x1
    4368:	40e40733          	sub	a4,s0,a4
    436c:	6d873703          	ld	a4,1752(a4) # 16d8 <.LBB13_5+0x28>
    4370:	40e6073b          	subw	a4,a2,a4
    4374:	00e686b3          	add	a3,a3,a4
    4378:	ff06869b          	addiw	a3,a3,-16
    437c:	40000737          	lui	a4,0x40000
    4380:	000017b7          	lui	a5,0x1
    4384:	40f407b3          	sub	a5,s0,a5
    4388:	12d7b023          	sd	a3,288(a5) # 1120 <.LBB13_3+0xf04>
    438c:	000017b7          	lui	a5,0x1
    4390:	40f407b3          	sub	a5,s0,a5
    4394:	6407b783          	ld	a5,1600(a5) # 1640 <.LBB13_4+0x49c>
    4398:	0006d463          	bgez	a3,43a0 <.LBB13_136>
    439c:	c0000737          	lui	a4,0xc0000

00000000000043a0 <.LBB13_136>:
    43a0:	000016b7          	lui	a3,0x1
    43a4:	40d406b3          	sub	a3,s0,a3
    43a8:	10e6bc23          	sd	a4,280(a3) # 1118 <.LBB13_3+0xefc>
    43ac:	000016b7          	lui	a3,0x1
    43b0:	40d406b3          	sub	a3,s0,a3
    43b4:	6d06b683          	ld	a3,1744(a3) # 16d0 <.LBB13_5+0x20>
    43b8:	91843703          	ld	a4,-1768(s0)
    43bc:	00d706b3          	add	a3,a4,a3
    43c0:	00001737          	lui	a4,0x1
    43c4:	40e40733          	sub	a4,s0,a4
    43c8:	6c873703          	ld	a4,1736(a4) # 16c8 <.LBB13_5+0x18>
    43cc:	40e6073b          	subw	a4,a2,a4
    43d0:	00e686b3          	add	a3,a3,a4
    43d4:	ff06869b          	addiw	a3,a3,-16
    43d8:	40000737          	lui	a4,0x40000
    43dc:	00001337          	lui	t1,0x1
    43e0:	40640333          	sub	t1,s0,t1
    43e4:	12d33823          	sd	a3,304(t1) # 1130 <.LBB13_3+0xf14>
    43e8:	0006d463          	bgez	a3,43f0 <.LBB13_138>
    43ec:	c0000737          	lui	a4,0xc0000

00000000000043f0 <.LBB13_138>:
    43f0:	000016b7          	lui	a3,0x1
    43f4:	40d406b3          	sub	a3,s0,a3
    43f8:	12e6b423          	sd	a4,296(a3) # 1128 <.LBB13_3+0xf0c>
    43fc:	000016b7          	lui	a3,0x1
    4400:	40d406b3          	sub	a3,s0,a3
    4404:	6c06b683          	ld	a3,1728(a3) # 16c0 <.LBB13_5+0x10>
    4408:	92043703          	ld	a4,-1760(s0)
    440c:	00d706b3          	add	a3,a4,a3
    4410:	00001737          	lui	a4,0x1
    4414:	40e40733          	sub	a4,s0,a4
    4418:	6b873703          	ld	a4,1720(a4) # 16b8 <.LBB13_5+0x8>
    441c:	40e6073b          	subw	a4,a2,a4
    4420:	00e686b3          	add	a3,a3,a4
    4424:	ff06869b          	addiw	a3,a3,-16
    4428:	40000737          	lui	a4,0x40000
    442c:	00001337          	lui	t1,0x1
    4430:	40640333          	sub	t1,s0,t1
    4434:	14d33023          	sd	a3,320(t1) # 1140 <.LBB13_3+0xf24>
    4438:	0006d463          	bgez	a3,4440 <.LBB13_140>
    443c:	c0000737          	lui	a4,0xc0000

0000000000004440 <.LBB13_140>:
    4440:	000016b7          	lui	a3,0x1
    4444:	40d406b3          	sub	a3,s0,a3
    4448:	12e6bc23          	sd	a4,312(a3) # 1138 <.LBB13_3+0xf1c>
    444c:	92843683          	ld	a3,-1752(s0)
    4450:	00f686b3          	add	a3,a3,a5
    4454:	00001737          	lui	a4,0x1
    4458:	40e40733          	sub	a4,s0,a4
    445c:	6b073703          	ld	a4,1712(a4) # 16b0 <.LBB13_5>
    4460:	40e6073b          	subw	a4,a2,a4
    4464:	00e686b3          	add	a3,a3,a4
    4468:	ff06869b          	addiw	a3,a3,-16
    446c:	40000737          	lui	a4,0x40000
    4470:	00001337          	lui	t1,0x1
    4474:	40640333          	sub	t1,s0,t1
    4478:	14d33823          	sd	a3,336(t1) # 1150 <.LBB13_3+0xf34>
    447c:	0006d463          	bgez	a3,4484 <.LBB13_142>
    4480:	c0000737          	lui	a4,0xc0000

0000000000004484 <.LBB13_142>:
    4484:	000016b7          	lui	a3,0x1
    4488:	40d406b3          	sub	a3,s0,a3
    448c:	14e6b423          	sd	a4,328(a3) # 1148 <.LBB13_3+0xf2c>
    4490:	000016b7          	lui	a3,0x1
    4494:	40d406b3          	sub	a3,s0,a3
    4498:	6a86b683          	ld	a3,1704(a3) # 16a8 <.LBB13_4+0x504>
    449c:	93043703          	ld	a4,-1744(s0)
    44a0:	00d706b3          	add	a3,a4,a3
    44a4:	00001737          	lui	a4,0x1
    44a8:	40e40733          	sub	a4,s0,a4
    44ac:	6a073703          	ld	a4,1696(a4) # 16a0 <.LBB13_4+0x4fc>
    44b0:	40e6073b          	subw	a4,a2,a4
    44b4:	00e686b3          	add	a3,a3,a4
    44b8:	ff06869b          	addiw	a3,a3,-16
    44bc:	40000737          	lui	a4,0x40000
    44c0:	00001337          	lui	t1,0x1
    44c4:	40640333          	sub	t1,s0,t1
    44c8:	16d33023          	sd	a3,352(t1) # 1160 <.LBB13_3+0xf44>
    44cc:	0006d463          	bgez	a3,44d4 <.LBB13_144>
    44d0:	c0000737          	lui	a4,0xc0000

00000000000044d4 <.LBB13_144>:
    44d4:	000016b7          	lui	a3,0x1
    44d8:	40d406b3          	sub	a3,s0,a3
    44dc:	14e6bc23          	sd	a4,344(a3) # 1158 <.LBB13_3+0xf3c>
    44e0:	000016b7          	lui	a3,0x1
    44e4:	40d406b3          	sub	a3,s0,a3
    44e8:	6986b683          	ld	a3,1688(a3) # 1698 <.LBB13_4+0x4f4>
    44ec:	93843703          	ld	a4,-1736(s0)
    44f0:	00d706b3          	add	a3,a4,a3
    44f4:	00001737          	lui	a4,0x1
    44f8:	40e40733          	sub	a4,s0,a4
    44fc:	69073703          	ld	a4,1680(a4) # 1690 <.LBB13_4+0x4ec>
    4500:	40e6073b          	subw	a4,a2,a4
    4504:	00e686b3          	add	a3,a3,a4
    4508:	ff06869b          	addiw	a3,a3,-16
    450c:	40000737          	lui	a4,0x40000
    4510:	00001337          	lui	t1,0x1
    4514:	40640333          	sub	t1,s0,t1
    4518:	16d33823          	sd	a3,368(t1) # 1170 <.LBB13_3+0xf54>
    451c:	0006d463          	bgez	a3,4524 <.LBB13_146>
    4520:	c0000737          	lui	a4,0xc0000

0000000000004524 <.LBB13_146>:
    4524:	000016b7          	lui	a3,0x1
    4528:	40d406b3          	sub	a3,s0,a3
    452c:	16e6b423          	sd	a4,360(a3) # 1168 <.LBB13_3+0xf4c>
    4530:	000016b7          	lui	a3,0x1
    4534:	40d406b3          	sub	a3,s0,a3
    4538:	6886b683          	ld	a3,1672(a3) # 1688 <.LBB13_4+0x4e4>
    453c:	94043703          	ld	a4,-1728(s0)
    4540:	00d706b3          	add	a3,a4,a3
    4544:	00001737          	lui	a4,0x1
    4548:	40e40733          	sub	a4,s0,a4
    454c:	68073703          	ld	a4,1664(a4) # 1680 <.LBB13_4+0x4dc>
    4550:	40e6073b          	subw	a4,a2,a4
    4554:	00e686b3          	add	a3,a3,a4
    4558:	ff06869b          	addiw	a3,a3,-16
    455c:	40000737          	lui	a4,0x40000
    4560:	00001337          	lui	t1,0x1
    4564:	40640333          	sub	t1,s0,t1
    4568:	18d33023          	sd	a3,384(t1) # 1180 <.LBB13_3+0xf64>
    456c:	0006d463          	bgez	a3,4574 <.LBB13_148>
    4570:	c0000737          	lui	a4,0xc0000

0000000000004574 <.LBB13_148>:
    4574:	000016b7          	lui	a3,0x1
    4578:	40d406b3          	sub	a3,s0,a3
    457c:	16e6bc23          	sd	a4,376(a3) # 1178 <.LBB13_3+0xf5c>
    4580:	000016b7          	lui	a3,0x1
    4584:	40d406b3          	sub	a3,s0,a3
    4588:	6786b683          	ld	a3,1656(a3) # 1678 <.LBB13_4+0x4d4>
    458c:	94843703          	ld	a4,-1720(s0)
    4590:	00d706b3          	add	a3,a4,a3
    4594:	00001737          	lui	a4,0x1
    4598:	40e40733          	sub	a4,s0,a4
    459c:	67073703          	ld	a4,1648(a4) # 1670 <.LBB13_4+0x4cc>
    45a0:	40e6073b          	subw	a4,a2,a4
    45a4:	00e686b3          	add	a3,a3,a4
    45a8:	ff06869b          	addiw	a3,a3,-16
    45ac:	40000737          	lui	a4,0x40000
    45b0:	00001337          	lui	t1,0x1
    45b4:	40640333          	sub	t1,s0,t1
    45b8:	18d33823          	sd	a3,400(t1) # 1190 <.LBB13_3+0xf74>
    45bc:	0006d463          	bgez	a3,45c4 <.LBB13_150>
    45c0:	c0000737          	lui	a4,0xc0000

00000000000045c4 <.LBB13_150>:
    45c4:	000016b7          	lui	a3,0x1
    45c8:	40d406b3          	sub	a3,s0,a3
    45cc:	18e6b423          	sd	a4,392(a3) # 1188 <.LBB13_3+0xf6c>
    45d0:	000016b7          	lui	a3,0x1
    45d4:	40d406b3          	sub	a3,s0,a3
    45d8:	6686b683          	ld	a3,1640(a3) # 1668 <.LBB13_4+0x4c4>
    45dc:	95043703          	ld	a4,-1712(s0)
    45e0:	00d706b3          	add	a3,a4,a3
    45e4:	00001737          	lui	a4,0x1
    45e8:	40e40733          	sub	a4,s0,a4
    45ec:	66073703          	ld	a4,1632(a4) # 1660 <.LBB13_4+0x4bc>
    45f0:	40e6073b          	subw	a4,a2,a4
    45f4:	00e686b3          	add	a3,a3,a4
    45f8:	ff06869b          	addiw	a3,a3,-16
    45fc:	40000737          	lui	a4,0x40000
    4600:	00001337          	lui	t1,0x1
    4604:	40640333          	sub	t1,s0,t1
    4608:	1ad33023          	sd	a3,416(t1) # 11a0 <.LBB13_3+0xf84>
    460c:	0006d463          	bgez	a3,4614 <.LBB13_152>
    4610:	c0000737          	lui	a4,0xc0000

0000000000004614 <.LBB13_152>:
    4614:	000016b7          	lui	a3,0x1
    4618:	40d406b3          	sub	a3,s0,a3
    461c:	18e6bc23          	sd	a4,408(a3) # 1198 <.LBB13_3+0xf7c>
    4620:	95843683          	ld	a3,-1704(s0)
    4624:	00001737          	lui	a4,0x1
    4628:	40e40733          	sub	a4,s0,a4
    462c:	65873703          	ld	a4,1624(a4) # 1658 <.LBB13_4+0x4b4>
    4630:	00e686b3          	add	a3,a3,a4
    4634:	00001737          	lui	a4,0x1
    4638:	40e40733          	sub	a4,s0,a4
    463c:	76873703          	ld	a4,1896(a4) # 1768 <.LBB13_5+0xb8>
    4640:	40e6073b          	subw	a4,a2,a4
    4644:	00e686b3          	add	a3,a3,a4
    4648:	ff06869b          	addiw	a3,a3,-16
    464c:	40000737          	lui	a4,0x40000
    4650:	00001337          	lui	t1,0x1
    4654:	40640333          	sub	t1,s0,t1
    4658:	1ad33823          	sd	a3,432(t1) # 11b0 <.LBB13_4+0xc>
    465c:	0006d463          	bgez	a3,4664 <.LBB13_154>
    4660:	c0000737          	lui	a4,0xc0000

0000000000004664 <.LBB13_154>:
    4664:	000016b7          	lui	a3,0x1
    4668:	40d406b3          	sub	a3,s0,a3
    466c:	1ae6b423          	sd	a4,424(a3) # 11a8 <.LBB13_4+0x4>
    4670:	96043683          	ld	a3,-1696(s0)
    4674:	00001737          	lui	a4,0x1
    4678:	40e40733          	sub	a4,s0,a4
    467c:	73073703          	ld	a4,1840(a4) # 1730 <.LBB13_5+0x80>
    4680:	00e686b3          	add	a3,a3,a4
    4684:	00001737          	lui	a4,0x1
    4688:	40e40733          	sub	a4,s0,a4
    468c:	6e873703          	ld	a4,1768(a4) # 16e8 <.LBB13_5+0x38>
    4690:	40e6073b          	subw	a4,a2,a4
    4694:	00e686b3          	add	a3,a3,a4
    4698:	ff06869b          	addiw	a3,a3,-16
    469c:	40000737          	lui	a4,0x40000
    46a0:	00001337          	lui	t1,0x1
    46a4:	40640333          	sub	t1,s0,t1
    46a8:	1cd33023          	sd	a3,448(t1) # 11c0 <.LBB13_4+0x1c>
    46ac:	0006d463          	bgez	a3,46b4 <.LBB13_156>
    46b0:	c0000737          	lui	a4,0xc0000

00000000000046b4 <.LBB13_156>:
    46b4:	000016b7          	lui	a3,0x1
    46b8:	40d406b3          	sub	a3,s0,a3
    46bc:	1ae6bc23          	sd	a4,440(a3) # 11b8 <.LBB13_4+0x14>
    46c0:	96843683          	ld	a3,-1688(s0)
    46c4:	010686b3          	add	a3,a3,a6
    46c8:	00001737          	lui	a4,0x1
    46cc:	40e40733          	sub	a4,s0,a4
    46d0:	6f073703          	ld	a4,1776(a4) # 16f0 <.LBB13_5+0x40>
    46d4:	40e6073b          	subw	a4,a2,a4
    46d8:	00e686b3          	add	a3,a3,a4
    46dc:	ff06869b          	addiw	a3,a3,-16
    46e0:	40000737          	lui	a4,0x40000
    46e4:	00001337          	lui	t1,0x1
    46e8:	40640333          	sub	t1,s0,t1
    46ec:	1cd33823          	sd	a3,464(t1) # 11d0 <.LBB13_4+0x2c>
    46f0:	0006d463          	bgez	a3,46f8 <.LBB13_158>
    46f4:	c0000737          	lui	a4,0xc0000

00000000000046f8 <.LBB13_158>:
    46f8:	000016b7          	lui	a3,0x1
    46fc:	40d406b3          	sub	a3,s0,a3
    4700:	1ce6b423          	sd	a4,456(a3) # 11c8 <.LBB13_4+0x24>
    4704:	97043683          	ld	a3,-1680(s0)
    4708:	00001737          	lui	a4,0x1
    470c:	40e40733          	sub	a4,s0,a4
    4710:	74873703          	ld	a4,1864(a4) # 1748 <.LBB13_5+0x98>
    4714:	00e686b3          	add	a3,a3,a4
    4718:	00001737          	lui	a4,0x1
    471c:	40e40733          	sub	a4,s0,a4
    4720:	6f873703          	ld	a4,1784(a4) # 16f8 <.LBB13_5+0x48>
    4724:	40e6073b          	subw	a4,a2,a4
    4728:	00e686b3          	add	a3,a3,a4
    472c:	ff06869b          	addiw	a3,a3,-16
    4730:	40000737          	lui	a4,0x40000
    4734:	00001337          	lui	t1,0x1
    4738:	40640333          	sub	t1,s0,t1
    473c:	1ed33023          	sd	a3,480(t1) # 11e0 <.LBB13_4+0x3c>
    4740:	0006d463          	bgez	a3,4748 <.LBB13_160>
    4744:	c0000737          	lui	a4,0xc0000

0000000000004748 <.LBB13_160>:
    4748:	000016b7          	lui	a3,0x1
    474c:	40d406b3          	sub	a3,s0,a3
    4750:	1ce6bc23          	sd	a4,472(a3) # 11d8 <.LBB13_4+0x34>
    4754:	97843683          	ld	a3,-1672(s0)
    4758:	00001737          	lui	a4,0x1
    475c:	40e40733          	sub	a4,s0,a4
    4760:	75073703          	ld	a4,1872(a4) # 1750 <.LBB13_5+0xa0>
    4764:	00e686b3          	add	a3,a3,a4
    4768:	00001737          	lui	a4,0x1
    476c:	40e40733          	sub	a4,s0,a4
    4770:	72073703          	ld	a4,1824(a4) # 1720 <.LBB13_5+0x70>
    4774:	40e6073b          	subw	a4,a2,a4
    4778:	00e686b3          	add	a3,a3,a4
    477c:	ff06869b          	addiw	a3,a3,-16
    4780:	40000737          	lui	a4,0x40000
    4784:	00001337          	lui	t1,0x1
    4788:	40640333          	sub	t1,s0,t1
    478c:	1ed33823          	sd	a3,496(t1) # 11f0 <.LBB13_4+0x4c>
    4790:	0006d463          	bgez	a3,4798 <.LBB13_162>
    4794:	c0000737          	lui	a4,0xc0000

0000000000004798 <.LBB13_162>:
    4798:	000016b7          	lui	a3,0x1
    479c:	40d406b3          	sub	a3,s0,a3
    47a0:	1ee6b423          	sd	a4,488(a3) # 11e8 <.LBB13_4+0x44>
    47a4:	98043683          	ld	a3,-1664(s0)
    47a8:	00001737          	lui	a4,0x1
    47ac:	40e40733          	sub	a4,s0,a4
    47b0:	76073703          	ld	a4,1888(a4) # 1760 <.LBB13_5+0xb0>
    47b4:	00e686b3          	add	a3,a3,a4
    47b8:	00001737          	lui	a4,0x1
    47bc:	40e40733          	sub	a4,s0,a4
    47c0:	72873703          	ld	a4,1832(a4) # 1728 <.LBB13_5+0x78>
    47c4:	40e6073b          	subw	a4,a2,a4
    47c8:	00e686b3          	add	a3,a3,a4
    47cc:	ff06869b          	addiw	a3,a3,-16
    47d0:	40000737          	lui	a4,0x40000
    47d4:	00001337          	lui	t1,0x1
    47d8:	40640333          	sub	t1,s0,t1
    47dc:	20d33023          	sd	a3,512(t1) # 1200 <.LBB13_4+0x5c>
    47e0:	0006d463          	bgez	a3,47e8 <.LBB13_164>
    47e4:	c0000737          	lui	a4,0xc0000

00000000000047e8 <.LBB13_164>:
    47e8:	000016b7          	lui	a3,0x1
    47ec:	40d406b3          	sub	a3,s0,a3
    47f0:	1ee6bc23          	sd	a4,504(a3) # 11f8 <.LBB13_4+0x54>
    47f4:	98843683          	ld	a3,-1656(s0)
    47f8:	e8043703          	ld	a4,-384(s0)
    47fc:	00e686b3          	add	a3,a3,a4
    4800:	00001737          	lui	a4,0x1
    4804:	40e40733          	sub	a4,s0,a4
    4808:	73873703          	ld	a4,1848(a4) # 1738 <.LBB13_5+0x88>
    480c:	40e6073b          	subw	a4,a2,a4
    4810:	00e686b3          	add	a3,a3,a4
    4814:	ff06869b          	addiw	a3,a3,-16
    4818:	40000737          	lui	a4,0x40000
    481c:	00001337          	lui	t1,0x1
    4820:	40640333          	sub	t1,s0,t1
    4824:	20d33823          	sd	a3,528(t1) # 1210 <.LBB13_4+0x6c>
    4828:	0006d463          	bgez	a3,4830 <.LBB13_166>
    482c:	c0000737          	lui	a4,0xc0000

0000000000004830 <.LBB13_166>:
    4830:	000016b7          	lui	a3,0x1
    4834:	40d406b3          	sub	a3,s0,a3
    4838:	20e6b423          	sd	a4,520(a3) # 1208 <.LBB13_4+0x64>
    483c:	99043683          	ld	a3,-1648(s0)
    4840:	e9043703          	ld	a4,-368(s0)
    4844:	00e686b3          	add	a3,a3,a4
    4848:	00001737          	lui	a4,0x1
    484c:	40e40733          	sub	a4,s0,a4
    4850:	74073703          	ld	a4,1856(a4) # 1740 <.LBB13_5+0x90>
    4854:	40e6073b          	subw	a4,a2,a4
    4858:	00e686b3          	add	a3,a3,a4
    485c:	ff06869b          	addiw	a3,a3,-16
    4860:	40000737          	lui	a4,0x40000
    4864:	00001337          	lui	t1,0x1
    4868:	40640333          	sub	t1,s0,t1
    486c:	22d33023          	sd	a3,544(t1) # 1220 <.LBB13_4+0x7c>
    4870:	0006d463          	bgez	a3,4878 <.LBB13_168>
    4874:	c0000737          	lui	a4,0xc0000

0000000000004878 <.LBB13_168>:
    4878:	000016b7          	lui	a3,0x1
    487c:	40d406b3          	sub	a3,s0,a3
    4880:	20e6bc23          	sd	a4,536(a3) # 1218 <.LBB13_4+0x74>
    4884:	99843683          	ld	a3,-1640(s0)
    4888:	ea043703          	ld	a4,-352(s0)
    488c:	00e686b3          	add	a3,a3,a4
    4890:	00001737          	lui	a4,0x1
    4894:	40e40733          	sub	a4,s0,a4
    4898:	75873703          	ld	a4,1880(a4) # 1758 <.LBB13_5+0xa8>
    489c:	40e6073b          	subw	a4,a2,a4
    48a0:	00e686b3          	add	a3,a3,a4
    48a4:	ff06869b          	addiw	a3,a3,-16
    48a8:	40000737          	lui	a4,0x40000
    48ac:	00001337          	lui	t1,0x1
    48b0:	40640333          	sub	t1,s0,t1
    48b4:	22d33823          	sd	a3,560(t1) # 1230 <.LBB13_4+0x8c>
    48b8:	0006d463          	bgez	a3,48c0 <.LBB13_170>
    48bc:	c0000737          	lui	a4,0xc0000

00000000000048c0 <.LBB13_170>:
    48c0:	000016b7          	lui	a3,0x1
    48c4:	40d406b3          	sub	a3,s0,a3
    48c8:	22e6b423          	sd	a4,552(a3) # 1228 <.LBB13_4+0x84>
    48cc:	9a043683          	ld	a3,-1632(s0)
    48d0:	eb043703          	ld	a4,-336(s0)
    48d4:	00e686b3          	add	a3,a3,a4
    48d8:	e7843703          	ld	a4,-392(s0)
    48dc:	40e6073b          	subw	a4,a2,a4
    48e0:	00e686b3          	add	a3,a3,a4
    48e4:	ff06869b          	addiw	a3,a3,-16
    48e8:	40000737          	lui	a4,0x40000
    48ec:	00001337          	lui	t1,0x1
    48f0:	40640333          	sub	t1,s0,t1
    48f4:	24d33023          	sd	a3,576(t1) # 1240 <.LBB13_4+0x9c>
    48f8:	0006d463          	bgez	a3,4900 <.LBB13_172>
    48fc:	c0000737          	lui	a4,0xc0000

0000000000004900 <.LBB13_172>:
    4900:	000016b7          	lui	a3,0x1
    4904:	40d406b3          	sub	a3,s0,a3
    4908:	22e6bc23          	sd	a4,568(a3) # 1238 <.LBB13_4+0x94>
    490c:	9a843683          	ld	a3,-1624(s0)
    4910:	eb843703          	ld	a4,-328(s0)
    4914:	00e686b3          	add	a3,a3,a4
    4918:	e8843703          	ld	a4,-376(s0)
    491c:	40e6073b          	subw	a4,a2,a4
    4920:	00e686b3          	add	a3,a3,a4
    4924:	ff06869b          	addiw	a3,a3,-16
    4928:	40000737          	lui	a4,0x40000
    492c:	00001337          	lui	t1,0x1
    4930:	40640333          	sub	t1,s0,t1
    4934:	24d33823          	sd	a3,592(t1) # 1250 <.LBB13_4+0xac>
    4938:	0006d463          	bgez	a3,4940 <.LBB13_174>
    493c:	c0000737          	lui	a4,0xc0000

0000000000004940 <.LBB13_174>:
    4940:	000016b7          	lui	a3,0x1
    4944:	40d406b3          	sub	a3,s0,a3
    4948:	24e6b423          	sd	a4,584(a3) # 1248 <.LBB13_4+0xa4>
    494c:	9b043683          	ld	a3,-1616(s0)
    4950:	ec843703          	ld	a4,-312(s0)
    4954:	00e686b3          	add	a3,a3,a4
    4958:	e9843703          	ld	a4,-360(s0)
    495c:	40e6073b          	subw	a4,a2,a4
    4960:	00e686b3          	add	a3,a3,a4
    4964:	ff06869b          	addiw	a3,a3,-16
    4968:	40000737          	lui	a4,0x40000
    496c:	00001337          	lui	t1,0x1
    4970:	40640333          	sub	t1,s0,t1
    4974:	26d33023          	sd	a3,608(t1) # 1260 <.LBB13_4+0xbc>
    4978:	0006d463          	bgez	a3,4980 <.LBB13_176>
    497c:	c0000737          	lui	a4,0xc0000

0000000000004980 <.LBB13_176>:
    4980:	000016b7          	lui	a3,0x1
    4984:	40d406b3          	sub	a3,s0,a3
    4988:	24e6bc23          	sd	a4,600(a3) # 1258 <.LBB13_4+0xb4>
    498c:	9b843683          	ld	a3,-1608(s0)
    4990:	ed843703          	ld	a4,-296(s0)
    4994:	00e686b3          	add	a3,a3,a4
    4998:	ea843703          	ld	a4,-344(s0)
    499c:	40e6073b          	subw	a4,a2,a4
    49a0:	00e686b3          	add	a3,a3,a4
    49a4:	ff06869b          	addiw	a3,a3,-16
    49a8:	40000737          	lui	a4,0x40000
    49ac:	00001337          	lui	t1,0x1
    49b0:	40640333          	sub	t1,s0,t1
    49b4:	26d33823          	sd	a3,624(t1) # 1270 <.LBB13_4+0xcc>
    49b8:	0006d463          	bgez	a3,49c0 <.LBB13_178>
    49bc:	c0000737          	lui	a4,0xc0000

00000000000049c0 <.LBB13_178>:
    49c0:	000016b7          	lui	a3,0x1
    49c4:	40d406b3          	sub	a3,s0,a3
    49c8:	26e6b423          	sd	a4,616(a3) # 1268 <.LBB13_4+0xc4>
    49cc:	9c043683          	ld	a3,-1600(s0)
    49d0:	ee843703          	ld	a4,-280(s0)
    49d4:	00e686b3          	add	a3,a3,a4
    49d8:	ec043703          	ld	a4,-320(s0)
    49dc:	40e6073b          	subw	a4,a2,a4
    49e0:	00e686b3          	add	a3,a3,a4
    49e4:	ff06869b          	addiw	a3,a3,-16
    49e8:	40000737          	lui	a4,0x40000
    49ec:	00001337          	lui	t1,0x1
    49f0:	40640333          	sub	t1,s0,t1
    49f4:	28d33023          	sd	a3,640(t1) # 1280 <.LBB13_4+0xdc>
    49f8:	0006d463          	bgez	a3,4a00 <.LBB13_180>
    49fc:	c0000737          	lui	a4,0xc0000

0000000000004a00 <.LBB13_180>:
    4a00:	000016b7          	lui	a3,0x1
    4a04:	40d406b3          	sub	a3,s0,a3
    4a08:	26e6bc23          	sd	a4,632(a3) # 1278 <.LBB13_4+0xd4>
    4a0c:	9c843683          	ld	a3,-1592(s0)
    4a10:	ef843703          	ld	a4,-264(s0)
    4a14:	00e686b3          	add	a3,a3,a4
    4a18:	ed043703          	ld	a4,-304(s0)
    4a1c:	40e6073b          	subw	a4,a2,a4
    4a20:	00e686b3          	add	a3,a3,a4
    4a24:	ff06869b          	addiw	a3,a3,-16
    4a28:	40000737          	lui	a4,0x40000
    4a2c:	00001337          	lui	t1,0x1
    4a30:	40640333          	sub	t1,s0,t1
    4a34:	28d33823          	sd	a3,656(t1) # 1290 <.LBB13_4+0xec>
    4a38:	0006d463          	bgez	a3,4a40 <.LBB13_182>
    4a3c:	c0000737          	lui	a4,0xc0000

0000000000004a40 <.LBB13_182>:
    4a40:	000016b7          	lui	a3,0x1
    4a44:	40d406b3          	sub	a3,s0,a3
    4a48:	28e6b423          	sd	a4,648(a3) # 1288 <.LBB13_4+0xe4>
    4a4c:	9d043683          	ld	a3,-1584(s0)
    4a50:	f0043703          	ld	a4,-256(s0)
    4a54:	00e686b3          	add	a3,a3,a4
    4a58:	ee043703          	ld	a4,-288(s0)
    4a5c:	40e6073b          	subw	a4,a2,a4
    4a60:	00e686b3          	add	a3,a3,a4
    4a64:	ff06869b          	addiw	a3,a3,-16
    4a68:	40000737          	lui	a4,0x40000
    4a6c:	00001337          	lui	t1,0x1
    4a70:	40640333          	sub	t1,s0,t1
    4a74:	2ad33023          	sd	a3,672(t1) # 12a0 <.LBB13_4+0xfc>
    4a78:	0006d463          	bgez	a3,4a80 <.LBB13_184>
    4a7c:	c0000737          	lui	a4,0xc0000

0000000000004a80 <.LBB13_184>:
    4a80:	000016b7          	lui	a3,0x1
    4a84:	40d406b3          	sub	a3,s0,a3
    4a88:	28e6bc23          	sd	a4,664(a3) # 1298 <.LBB13_4+0xf4>
    4a8c:	9d843683          	ld	a3,-1576(s0)
    4a90:	f1043703          	ld	a4,-240(s0)
    4a94:	00e686b3          	add	a3,a3,a4
    4a98:	ef043703          	ld	a4,-272(s0)
    4a9c:	40e6073b          	subw	a4,a2,a4
    4aa0:	00e686b3          	add	a3,a3,a4
    4aa4:	ff06869b          	addiw	a3,a3,-16
    4aa8:	40000737          	lui	a4,0x40000
    4aac:	00001337          	lui	t1,0x1
    4ab0:	40640333          	sub	t1,s0,t1
    4ab4:	2ad33823          	sd	a3,688(t1) # 12b0 <.LBB13_4+0x10c>
    4ab8:	0006d463          	bgez	a3,4ac0 <.LBB13_186>
    4abc:	c0000737          	lui	a4,0xc0000

0000000000004ac0 <.LBB13_186>:
    4ac0:	000016b7          	lui	a3,0x1
    4ac4:	40d406b3          	sub	a3,s0,a3
    4ac8:	2ae6b423          	sd	a4,680(a3) # 12a8 <.LBB13_4+0x104>
    4acc:	9e043683          	ld	a3,-1568(s0)
    4ad0:	f3843703          	ld	a4,-200(s0)
    4ad4:	00e686b3          	add	a3,a3,a4
    4ad8:	f0843703          	ld	a4,-248(s0)
    4adc:	40e6073b          	subw	a4,a2,a4
    4ae0:	00e686b3          	add	a3,a3,a4
    4ae4:	ff06869b          	addiw	a3,a3,-16
    4ae8:	40000737          	lui	a4,0x40000
    4aec:	00001337          	lui	t1,0x1
    4af0:	40640333          	sub	t1,s0,t1
    4af4:	2cd33023          	sd	a3,704(t1) # 12c0 <.LBB13_4+0x11c>
    4af8:	0006d463          	bgez	a3,4b00 <.LBB13_188>
    4afc:	c0000737          	lui	a4,0xc0000

0000000000004b00 <.LBB13_188>:
    4b00:	000016b7          	lui	a3,0x1
    4b04:	40d406b3          	sub	a3,s0,a3
    4b08:	2ae6bc23          	sd	a4,696(a3) # 12b8 <.LBB13_4+0x114>
    4b0c:	9e843683          	ld	a3,-1560(s0)
    4b10:	f4843703          	ld	a4,-184(s0)
    4b14:	00e686b3          	add	a3,a3,a4
    4b18:	f3043703          	ld	a4,-208(s0)
    4b1c:	40e6073b          	subw	a4,a2,a4
    4b20:	00e686b3          	add	a3,a3,a4
    4b24:	ff06869b          	addiw	a3,a3,-16
    4b28:	40000737          	lui	a4,0x40000
    4b2c:	00001337          	lui	t1,0x1
    4b30:	40640333          	sub	t1,s0,t1
    4b34:	2cd33823          	sd	a3,720(t1) # 12d0 <.LBB13_4+0x12c>
    4b38:	0006d463          	bgez	a3,4b40 <.LBB13_190>
    4b3c:	c0000737          	lui	a4,0xc0000

0000000000004b40 <.LBB13_190>:
    4b40:	000016b7          	lui	a3,0x1
    4b44:	40d406b3          	sub	a3,s0,a3
    4b48:	2ce6b423          	sd	a4,712(a3) # 12c8 <.LBB13_4+0x124>
    4b4c:	9f043683          	ld	a3,-1552(s0)
    4b50:	f5843703          	ld	a4,-168(s0)
    4b54:	00e686b3          	add	a3,a3,a4
    4b58:	f4043703          	ld	a4,-192(s0)
    4b5c:	40e6073b          	subw	a4,a2,a4
    4b60:	00e686b3          	add	a3,a3,a4
    4b64:	ff06869b          	addiw	a3,a3,-16
    4b68:	40000737          	lui	a4,0x40000
    4b6c:	00001337          	lui	t1,0x1
    4b70:	40640333          	sub	t1,s0,t1
    4b74:	2ed33023          	sd	a3,736(t1) # 12e0 <.LBB13_4+0x13c>
    4b78:	0006d463          	bgez	a3,4b80 <.LBB13_192>
    4b7c:	c0000737          	lui	a4,0xc0000

0000000000004b80 <.LBB13_192>:
    4b80:	000016b7          	lui	a3,0x1
    4b84:	40d406b3          	sub	a3,s0,a3
    4b88:	2ce6bc23          	sd	a4,728(a3) # 12d8 <.LBB13_4+0x134>
    4b8c:	9f843683          	ld	a3,-1544(s0)
    4b90:	f6843703          	ld	a4,-152(s0)
    4b94:	00e686b3          	add	a3,a3,a4
    4b98:	f5043703          	ld	a4,-176(s0)
    4b9c:	40e6073b          	subw	a4,a2,a4
    4ba0:	00e686b3          	add	a3,a3,a4
    4ba4:	ff06869b          	addiw	a3,a3,-16
    4ba8:	40000737          	lui	a4,0x40000
    4bac:	00001337          	lui	t1,0x1
    4bb0:	40640333          	sub	t1,s0,t1
    4bb4:	2ed33823          	sd	a3,752(t1) # 12f0 <.LBB13_4+0x14c>
    4bb8:	0006d463          	bgez	a3,4bc0 <.LBB13_194>
    4bbc:	c0000737          	lui	a4,0xc0000

0000000000004bc0 <.LBB13_194>:
    4bc0:	000016b7          	lui	a3,0x1
    4bc4:	40d406b3          	sub	a3,s0,a3
    4bc8:	2ee6b423          	sd	a4,744(a3) # 12e8 <.LBB13_4+0x144>
    4bcc:	a0043683          	ld	a3,-1536(s0)
    4bd0:	f7043703          	ld	a4,-144(s0)
    4bd4:	00e686b3          	add	a3,a3,a4
    4bd8:	f6043703          	ld	a4,-160(s0)
    4bdc:	40e6073b          	subw	a4,a2,a4
    4be0:	00e686b3          	add	a3,a3,a4
    4be4:	ff06869b          	addiw	a3,a3,-16
    4be8:	40000737          	lui	a4,0x40000
    4bec:	00001337          	lui	t1,0x1
    4bf0:	40640333          	sub	t1,s0,t1
    4bf4:	30d33023          	sd	a3,768(t1) # 1300 <.LBB13_4+0x15c>
    4bf8:	0006d463          	bgez	a3,4c00 <.LBB13_196>
    4bfc:	c0000737          	lui	a4,0xc0000

0000000000004c00 <.LBB13_196>:
    4c00:	000016b7          	lui	a3,0x1
    4c04:	40d406b3          	sub	a3,s0,a3
    4c08:	2ee6bc23          	sd	a4,760(a3) # 12f8 <.LBB13_4+0x154>
    4c0c:	a0843683          	ld	a3,-1528(s0)
    4c10:	f8043703          	ld	a4,-128(s0)
    4c14:	00e686b3          	add	a3,a3,a4
    4c18:	f7843703          	ld	a4,-136(s0)
    4c1c:	40e6063b          	subw	a2,a2,a4
    4c20:	00c68633          	add	a2,a3,a2
    4c24:	ff06061b          	addiw	a2,a2,-16
    4c28:	400006b7          	lui	a3,0x40000
    4c2c:	00001737          	lui	a4,0x1
    4c30:	40e40733          	sub	a4,s0,a4
    4c34:	30c73823          	sd	a2,784(a4) # 1310 <.LBB13_4+0x16c>
    4c38:	00065463          	bgez	a2,4c40 <.LBB13_198>
    4c3c:	c00006b7          	lui	a3,0xc0000

0000000000004c40 <.LBB13_198>:
    4c40:	00001637          	lui	a2,0x1
    4c44:	40c40633          	sub	a2,s0,a2
    4c48:	30d63423          	sd	a3,776(a2) # 1308 <.LBB13_4+0x164>
    4c4c:	a1043603          	ld	a2,-1520(s0)
    4c50:	000016b7          	lui	a3,0x1
    4c54:	40d406b3          	sub	a3,s0,a3
    4c58:	6e06b683          	ld	a3,1760(a3) # 16e0 <.LBB13_5+0x30>
    4c5c:	00d60633          	add	a2,a2,a3
    4c60:	000016b7          	lui	a3,0x1
    4c64:	40d406b3          	sub	a3,s0,a3
    4c68:	6d86b683          	ld	a3,1752(a3) # 16d8 <.LBB13_5+0x28>
    4c6c:	40d586bb          	subw	a3,a1,a3
    4c70:	00d60633          	add	a2,a2,a3
    4c74:	ff06061b          	addiw	a2,a2,-16
    4c78:	400006b7          	lui	a3,0x40000
    4c7c:	00001737          	lui	a4,0x1
    4c80:	40e40733          	sub	a4,s0,a4
    4c84:	32c73023          	sd	a2,800(a4) # 1320 <.LBB13_4+0x17c>
    4c88:	00001737          	lui	a4,0x1
    4c8c:	40e40733          	sub	a4,s0,a4
    4c90:	d2073703          	ld	a4,-736(a4) # d20 <.LBB13_3+0xb04>
    4c94:	00065463          	bgez	a2,4c9c <.LBB13_200>
    4c98:	c00006b7          	lui	a3,0xc0000

0000000000004c9c <.LBB13_200>:
    4c9c:	00001637          	lui	a2,0x1
    4ca0:	40c40633          	sub	a2,s0,a2
    4ca4:	30d63c23          	sd	a3,792(a2) # 1318 <.LBB13_4+0x174>
    4ca8:	a1843603          	ld	a2,-1512(s0)
    4cac:	000016b7          	lui	a3,0x1
    4cb0:	40d406b3          	sub	a3,s0,a3
    4cb4:	6d06b683          	ld	a3,1744(a3) # 16d0 <.LBB13_5+0x20>
    4cb8:	00d60633          	add	a2,a2,a3
    4cbc:	000016b7          	lui	a3,0x1
    4cc0:	40d406b3          	sub	a3,s0,a3
    4cc4:	6c86b683          	ld	a3,1736(a3) # 16c8 <.LBB13_5+0x18>
    4cc8:	40d586bb          	subw	a3,a1,a3
    4ccc:	00d60633          	add	a2,a2,a3
    4cd0:	ff06061b          	addiw	a2,a2,-16
    4cd4:	400006b7          	lui	a3,0x40000
    4cd8:	00001337          	lui	t1,0x1
    4cdc:	40640333          	sub	t1,s0,t1
    4ce0:	32c33823          	sd	a2,816(t1) # 1330 <.LBB13_4+0x18c>
    4ce4:	00065463          	bgez	a2,4cec <.LBB13_202>
    4ce8:	c00006b7          	lui	a3,0xc0000

0000000000004cec <.LBB13_202>:
    4cec:	00001637          	lui	a2,0x1
    4cf0:	40c40633          	sub	a2,s0,a2
    4cf4:	32d63423          	sd	a3,808(a2) # 1328 <.LBB13_4+0x184>
    4cf8:	a2043603          	ld	a2,-1504(s0)
    4cfc:	000016b7          	lui	a3,0x1
    4d00:	40d406b3          	sub	a3,s0,a3
    4d04:	6c06b683          	ld	a3,1728(a3) # 16c0 <.LBB13_5+0x10>
    4d08:	00d60633          	add	a2,a2,a3
    4d0c:	000016b7          	lui	a3,0x1
    4d10:	40d406b3          	sub	a3,s0,a3
    4d14:	6b86b683          	ld	a3,1720(a3) # 16b8 <.LBB13_5+0x8>
    4d18:	40d586bb          	subw	a3,a1,a3
    4d1c:	00d60633          	add	a2,a2,a3
    4d20:	ff06061b          	addiw	a2,a2,-16
    4d24:	400006b7          	lui	a3,0x40000
    4d28:	00001337          	lui	t1,0x1
    4d2c:	40640333          	sub	t1,s0,t1
    4d30:	34c33023          	sd	a2,832(t1) # 1340 <.LBB13_4+0x19c>
    4d34:	00065463          	bgez	a2,4d3c <.LBB13_204>
    4d38:	c00006b7          	lui	a3,0xc0000

0000000000004d3c <.LBB13_204>:
    4d3c:	00001637          	lui	a2,0x1
    4d40:	40c40633          	sub	a2,s0,a2
    4d44:	32d63c23          	sd	a3,824(a2) # 1338 <.LBB13_4+0x194>
    4d48:	a2843603          	ld	a2,-1496(s0)
    4d4c:	00f60633          	add	a2,a2,a5
    4d50:	000016b7          	lui	a3,0x1
    4d54:	40d406b3          	sub	a3,s0,a3
    4d58:	6b06b683          	ld	a3,1712(a3) # 16b0 <.LBB13_5>
    4d5c:	40d586bb          	subw	a3,a1,a3
    4d60:	00d60633          	add	a2,a2,a3
    4d64:	ff06061b          	addiw	a2,a2,-16
    4d68:	400006b7          	lui	a3,0x40000
    4d6c:	00001337          	lui	t1,0x1
    4d70:	40640333          	sub	t1,s0,t1
    4d74:	34c33823          	sd	a2,848(t1) # 1350 <.LBB13_4+0x1ac>
    4d78:	00065463          	bgez	a2,4d80 <.LBB13_206>
    4d7c:	c00006b7          	lui	a3,0xc0000

0000000000004d80 <.LBB13_206>:
    4d80:	00001637          	lui	a2,0x1
    4d84:	40c40633          	sub	a2,s0,a2
    4d88:	34d63423          	sd	a3,840(a2) # 1348 <.LBB13_4+0x1a4>
    4d8c:	a3043603          	ld	a2,-1488(s0)
    4d90:	000016b7          	lui	a3,0x1
    4d94:	40d406b3          	sub	a3,s0,a3
    4d98:	6a86b683          	ld	a3,1704(a3) # 16a8 <.LBB13_4+0x504>
    4d9c:	00d60633          	add	a2,a2,a3
    4da0:	000016b7          	lui	a3,0x1
    4da4:	40d406b3          	sub	a3,s0,a3
    4da8:	6a06b683          	ld	a3,1696(a3) # 16a0 <.LBB13_4+0x4fc>
    4dac:	40d586bb          	subw	a3,a1,a3
    4db0:	00d60633          	add	a2,a2,a3
    4db4:	ff06061b          	addiw	a2,a2,-16
    4db8:	400006b7          	lui	a3,0x40000
    4dbc:	00001337          	lui	t1,0x1
    4dc0:	40640333          	sub	t1,s0,t1
    4dc4:	36c33023          	sd	a2,864(t1) # 1360 <.LBB13_4+0x1bc>
    4dc8:	00065463          	bgez	a2,4dd0 <.LBB13_208>
    4dcc:	c00006b7          	lui	a3,0xc0000

0000000000004dd0 <.LBB13_208>:
    4dd0:	00001637          	lui	a2,0x1
    4dd4:	40c40633          	sub	a2,s0,a2
    4dd8:	34d63c23          	sd	a3,856(a2) # 1358 <.LBB13_4+0x1b4>
    4ddc:	a3843603          	ld	a2,-1480(s0)
    4de0:	000016b7          	lui	a3,0x1
    4de4:	40d406b3          	sub	a3,s0,a3
    4de8:	6986b683          	ld	a3,1688(a3) # 1698 <.LBB13_4+0x4f4>
    4dec:	00d60633          	add	a2,a2,a3
    4df0:	000016b7          	lui	a3,0x1
    4df4:	40d406b3          	sub	a3,s0,a3
    4df8:	6906b683          	ld	a3,1680(a3) # 1690 <.LBB13_4+0x4ec>
    4dfc:	40d586bb          	subw	a3,a1,a3
    4e00:	00d60633          	add	a2,a2,a3
    4e04:	ff06061b          	addiw	a2,a2,-16
    4e08:	400006b7          	lui	a3,0x40000
    4e0c:	00001337          	lui	t1,0x1
    4e10:	40640333          	sub	t1,s0,t1
    4e14:	36c33823          	sd	a2,880(t1) # 1370 <.LBB13_4+0x1cc>
    4e18:	00065463          	bgez	a2,4e20 <.LBB13_210>
    4e1c:	c00006b7          	lui	a3,0xc0000

0000000000004e20 <.LBB13_210>:
    4e20:	00001637          	lui	a2,0x1
    4e24:	40c40633          	sub	a2,s0,a2
    4e28:	36d63423          	sd	a3,872(a2) # 1368 <.LBB13_4+0x1c4>
    4e2c:	a4043603          	ld	a2,-1472(s0)
    4e30:	000016b7          	lui	a3,0x1
    4e34:	40d406b3          	sub	a3,s0,a3
    4e38:	6886b683          	ld	a3,1672(a3) # 1688 <.LBB13_4+0x4e4>
    4e3c:	00d60633          	add	a2,a2,a3
    4e40:	000016b7          	lui	a3,0x1
    4e44:	40d406b3          	sub	a3,s0,a3
    4e48:	6806b683          	ld	a3,1664(a3) # 1680 <.LBB13_4+0x4dc>
    4e4c:	40d586bb          	subw	a3,a1,a3
    4e50:	00d60633          	add	a2,a2,a3
    4e54:	ff06061b          	addiw	a2,a2,-16
    4e58:	400006b7          	lui	a3,0x40000
    4e5c:	00001337          	lui	t1,0x1
    4e60:	40640333          	sub	t1,s0,t1
    4e64:	38c33023          	sd	a2,896(t1) # 1380 <.LBB13_4+0x1dc>
    4e68:	00065463          	bgez	a2,4e70 <.LBB13_212>
    4e6c:	c00006b7          	lui	a3,0xc0000

0000000000004e70 <.LBB13_212>:
    4e70:	00001637          	lui	a2,0x1
    4e74:	40c40633          	sub	a2,s0,a2
    4e78:	36d63c23          	sd	a3,888(a2) # 1378 <.LBB13_4+0x1d4>
    4e7c:	a4843603          	ld	a2,-1464(s0)
    4e80:	000016b7          	lui	a3,0x1
    4e84:	40d406b3          	sub	a3,s0,a3
    4e88:	6786b683          	ld	a3,1656(a3) # 1678 <.LBB13_4+0x4d4>
    4e8c:	00d60633          	add	a2,a2,a3
    4e90:	000016b7          	lui	a3,0x1
    4e94:	40d406b3          	sub	a3,s0,a3
    4e98:	6706b683          	ld	a3,1648(a3) # 1670 <.LBB13_4+0x4cc>
    4e9c:	40d586bb          	subw	a3,a1,a3
    4ea0:	00d60633          	add	a2,a2,a3
    4ea4:	ff06061b          	addiw	a2,a2,-16
    4ea8:	400006b7          	lui	a3,0x40000
    4eac:	00001337          	lui	t1,0x1
    4eb0:	40640333          	sub	t1,s0,t1
    4eb4:	38c33823          	sd	a2,912(t1) # 1390 <.LBB13_4+0x1ec>
    4eb8:	00065463          	bgez	a2,4ec0 <.LBB13_214>
    4ebc:	c00006b7          	lui	a3,0xc0000

0000000000004ec0 <.LBB13_214>:
    4ec0:	00001637          	lui	a2,0x1
    4ec4:	40c40633          	sub	a2,s0,a2
    4ec8:	38d63423          	sd	a3,904(a2) # 1388 <.LBB13_4+0x1e4>
    4ecc:	a5043603          	ld	a2,-1456(s0)
    4ed0:	000016b7          	lui	a3,0x1
    4ed4:	40d406b3          	sub	a3,s0,a3
    4ed8:	6686b683          	ld	a3,1640(a3) # 1668 <.LBB13_4+0x4c4>
    4edc:	00d60633          	add	a2,a2,a3
    4ee0:	000016b7          	lui	a3,0x1
    4ee4:	40d406b3          	sub	a3,s0,a3
    4ee8:	6606b683          	ld	a3,1632(a3) # 1660 <.LBB13_4+0x4bc>
    4eec:	40d586bb          	subw	a3,a1,a3
    4ef0:	00d60633          	add	a2,a2,a3
    4ef4:	ff06061b          	addiw	a2,a2,-16
    4ef8:	400006b7          	lui	a3,0x40000
    4efc:	00001337          	lui	t1,0x1
    4f00:	40640333          	sub	t1,s0,t1
    4f04:	3ac33023          	sd	a2,928(t1) # 13a0 <.LBB13_4+0x1fc>
    4f08:	00065463          	bgez	a2,4f10 <.LBB13_216>
    4f0c:	c00006b7          	lui	a3,0xc0000

0000000000004f10 <.LBB13_216>:
    4f10:	00001637          	lui	a2,0x1
    4f14:	40c40633          	sub	a2,s0,a2
    4f18:	38d63c23          	sd	a3,920(a2) # 1398 <.LBB13_4+0x1f4>
    4f1c:	a5843603          	ld	a2,-1448(s0)
    4f20:	000016b7          	lui	a3,0x1
    4f24:	40d406b3          	sub	a3,s0,a3
    4f28:	6586b683          	ld	a3,1624(a3) # 1658 <.LBB13_4+0x4b4>
    4f2c:	00d60633          	add	a2,a2,a3
    4f30:	000016b7          	lui	a3,0x1
    4f34:	40d406b3          	sub	a3,s0,a3
    4f38:	7686b683          	ld	a3,1896(a3) # 1768 <.LBB13_5+0xb8>
    4f3c:	40d586bb          	subw	a3,a1,a3
    4f40:	00d60633          	add	a2,a2,a3
    4f44:	ff06061b          	addiw	a2,a2,-16
    4f48:	400006b7          	lui	a3,0x40000
    4f4c:	00001337          	lui	t1,0x1
    4f50:	40640333          	sub	t1,s0,t1
    4f54:	3ac33823          	sd	a2,944(t1) # 13b0 <.LBB13_4+0x20c>
    4f58:	00065463          	bgez	a2,4f60 <.LBB13_218>
    4f5c:	c00006b7          	lui	a3,0xc0000

0000000000004f60 <.LBB13_218>:
    4f60:	00001637          	lui	a2,0x1
    4f64:	40c40633          	sub	a2,s0,a2
    4f68:	3ad63423          	sd	a3,936(a2) # 13a8 <.LBB13_4+0x204>
    4f6c:	a6043603          	ld	a2,-1440(s0)
    4f70:	000016b7          	lui	a3,0x1
    4f74:	40d406b3          	sub	a3,s0,a3
    4f78:	7306b683          	ld	a3,1840(a3) # 1730 <.LBB13_5+0x80>
    4f7c:	00d60633          	add	a2,a2,a3
    4f80:	000016b7          	lui	a3,0x1
    4f84:	40d406b3          	sub	a3,s0,a3
    4f88:	6e86b683          	ld	a3,1768(a3) # 16e8 <.LBB13_5+0x38>
    4f8c:	40d586bb          	subw	a3,a1,a3
    4f90:	00d60633          	add	a2,a2,a3
    4f94:	ff06061b          	addiw	a2,a2,-16
    4f98:	400006b7          	lui	a3,0x40000
    4f9c:	00001337          	lui	t1,0x1
    4fa0:	40640333          	sub	t1,s0,t1
    4fa4:	3cc33023          	sd	a2,960(t1) # 13c0 <.LBB13_4+0x21c>
    4fa8:	00065463          	bgez	a2,4fb0 <.LBB13_220>
    4fac:	c00006b7          	lui	a3,0xc0000

0000000000004fb0 <.LBB13_220>:
    4fb0:	00001637          	lui	a2,0x1
    4fb4:	40c40633          	sub	a2,s0,a2
    4fb8:	3ad63c23          	sd	a3,952(a2) # 13b8 <.LBB13_4+0x214>
    4fbc:	a6843603          	ld	a2,-1432(s0)
    4fc0:	01060633          	add	a2,a2,a6
    4fc4:	000016b7          	lui	a3,0x1
    4fc8:	40d406b3          	sub	a3,s0,a3
    4fcc:	6f06b683          	ld	a3,1776(a3) # 16f0 <.LBB13_5+0x40>
    4fd0:	40d586bb          	subw	a3,a1,a3
    4fd4:	00d60633          	add	a2,a2,a3
    4fd8:	ff06061b          	addiw	a2,a2,-16
    4fdc:	400006b7          	lui	a3,0x40000
    4fe0:	00001337          	lui	t1,0x1
    4fe4:	40640333          	sub	t1,s0,t1
    4fe8:	3cc33823          	sd	a2,976(t1) # 13d0 <.LBB13_4+0x22c>
    4fec:	00065463          	bgez	a2,4ff4 <.LBB13_222>
    4ff0:	c00006b7          	lui	a3,0xc0000

0000000000004ff4 <.LBB13_222>:
    4ff4:	00001637          	lui	a2,0x1
    4ff8:	40c40633          	sub	a2,s0,a2
    4ffc:	3cd63423          	sd	a3,968(a2) # 13c8 <.LBB13_4+0x224>
    5000:	a7043603          	ld	a2,-1424(s0)
    5004:	000016b7          	lui	a3,0x1
    5008:	40d406b3          	sub	a3,s0,a3
    500c:	7486b683          	ld	a3,1864(a3) # 1748 <.LBB13_5+0x98>
    5010:	00d60633          	add	a2,a2,a3
    5014:	000016b7          	lui	a3,0x1
    5018:	40d406b3          	sub	a3,s0,a3
    501c:	6f86b683          	ld	a3,1784(a3) # 16f8 <.LBB13_5+0x48>
    5020:	40d586bb          	subw	a3,a1,a3
    5024:	00d60633          	add	a2,a2,a3
    5028:	ff06061b          	addiw	a2,a2,-16
    502c:	400006b7          	lui	a3,0x40000
    5030:	00001337          	lui	t1,0x1
    5034:	40640333          	sub	t1,s0,t1
    5038:	3ec33023          	sd	a2,992(t1) # 13e0 <.LBB13_4+0x23c>
    503c:	00065463          	bgez	a2,5044 <.LBB13_224>
    5040:	c00006b7          	lui	a3,0xc0000

0000000000005044 <.LBB13_224>:
    5044:	00001637          	lui	a2,0x1
    5048:	40c40633          	sub	a2,s0,a2
    504c:	3cd63c23          	sd	a3,984(a2) # 13d8 <.LBB13_4+0x234>
    5050:	a7843603          	ld	a2,-1416(s0)
    5054:	000016b7          	lui	a3,0x1
    5058:	40d406b3          	sub	a3,s0,a3
    505c:	7506b683          	ld	a3,1872(a3) # 1750 <.LBB13_5+0xa0>
    5060:	00d60633          	add	a2,a2,a3
    5064:	000016b7          	lui	a3,0x1
    5068:	40d406b3          	sub	a3,s0,a3
    506c:	7206b683          	ld	a3,1824(a3) # 1720 <.LBB13_5+0x70>
    5070:	40d586bb          	subw	a3,a1,a3
    5074:	00d60633          	add	a2,a2,a3
    5078:	ff06061b          	addiw	a2,a2,-16
    507c:	400006b7          	lui	a3,0x40000
    5080:	00001337          	lui	t1,0x1
    5084:	40640333          	sub	t1,s0,t1
    5088:	3ec33823          	sd	a2,1008(t1) # 13f0 <.LBB13_4+0x24c>
    508c:	00065463          	bgez	a2,5094 <.LBB13_226>
    5090:	c00006b7          	lui	a3,0xc0000

0000000000005094 <.LBB13_226>:
    5094:	00001637          	lui	a2,0x1
    5098:	40c40633          	sub	a2,s0,a2
    509c:	3ed63423          	sd	a3,1000(a2) # 13e8 <.LBB13_4+0x244>
    50a0:	a8043603          	ld	a2,-1408(s0)
    50a4:	000016b7          	lui	a3,0x1
    50a8:	40d406b3          	sub	a3,s0,a3
    50ac:	7606b683          	ld	a3,1888(a3) # 1760 <.LBB13_5+0xb0>
    50b0:	00d60633          	add	a2,a2,a3
    50b4:	000016b7          	lui	a3,0x1
    50b8:	40d406b3          	sub	a3,s0,a3
    50bc:	7286b683          	ld	a3,1832(a3) # 1728 <.LBB13_5+0x78>
    50c0:	40d586bb          	subw	a3,a1,a3
    50c4:	00d60633          	add	a2,a2,a3
    50c8:	ff06061b          	addiw	a2,a2,-16
    50cc:	400006b7          	lui	a3,0x40000
    50d0:	00001337          	lui	t1,0x1
    50d4:	40640333          	sub	t1,s0,t1
    50d8:	40c33023          	sd	a2,1024(t1) # 1400 <.LBB13_4+0x25c>
    50dc:	00065463          	bgez	a2,50e4 <.LBB13_228>
    50e0:	c00006b7          	lui	a3,0xc0000

00000000000050e4 <.LBB13_228>:
    50e4:	00001637          	lui	a2,0x1
    50e8:	40c40633          	sub	a2,s0,a2
    50ec:	3ed63c23          	sd	a3,1016(a2) # 13f8 <.LBB13_4+0x254>
    50f0:	a8843603          	ld	a2,-1400(s0)
    50f4:	e8043683          	ld	a3,-384(s0)
    50f8:	00d60633          	add	a2,a2,a3
    50fc:	000016b7          	lui	a3,0x1
    5100:	40d406b3          	sub	a3,s0,a3
    5104:	7386b683          	ld	a3,1848(a3) # 1738 <.LBB13_5+0x88>
    5108:	40d586bb          	subw	a3,a1,a3
    510c:	00d60633          	add	a2,a2,a3
    5110:	ff06061b          	addiw	a2,a2,-16
    5114:	400006b7          	lui	a3,0x40000
    5118:	00001337          	lui	t1,0x1
    511c:	40640333          	sub	t1,s0,t1
    5120:	40c33823          	sd	a2,1040(t1) # 1410 <.LBB13_4+0x26c>
    5124:	00065463          	bgez	a2,512c <.LBB13_230>
    5128:	c00006b7          	lui	a3,0xc0000

000000000000512c <.LBB13_230>:
    512c:	00001637          	lui	a2,0x1
    5130:	40c40633          	sub	a2,s0,a2
    5134:	40d63423          	sd	a3,1032(a2) # 1408 <.LBB13_4+0x264>
    5138:	a9043603          	ld	a2,-1392(s0)
    513c:	e9043683          	ld	a3,-368(s0)
    5140:	00d60633          	add	a2,a2,a3
    5144:	000016b7          	lui	a3,0x1
    5148:	40d406b3          	sub	a3,s0,a3
    514c:	7406b683          	ld	a3,1856(a3) # 1740 <.LBB13_5+0x90>
    5150:	40d586bb          	subw	a3,a1,a3
    5154:	00d60633          	add	a2,a2,a3
    5158:	ff06061b          	addiw	a2,a2,-16
    515c:	400006b7          	lui	a3,0x40000
    5160:	00001337          	lui	t1,0x1
    5164:	40640333          	sub	t1,s0,t1
    5168:	42c33023          	sd	a2,1056(t1) # 1420 <.LBB13_4+0x27c>
    516c:	00065463          	bgez	a2,5174 <.LBB13_232>
    5170:	c00006b7          	lui	a3,0xc0000

0000000000005174 <.LBB13_232>:
    5174:	00001637          	lui	a2,0x1
    5178:	40c40633          	sub	a2,s0,a2
    517c:	40d63c23          	sd	a3,1048(a2) # 1418 <.LBB13_4+0x274>
    5180:	a9843603          	ld	a2,-1384(s0)
    5184:	ea043683          	ld	a3,-352(s0)
    5188:	00d60633          	add	a2,a2,a3
    518c:	000016b7          	lui	a3,0x1
    5190:	40d406b3          	sub	a3,s0,a3
    5194:	7586b683          	ld	a3,1880(a3) # 1758 <.LBB13_5+0xa8>
    5198:	40d586bb          	subw	a3,a1,a3
    519c:	00d60633          	add	a2,a2,a3
    51a0:	ff06061b          	addiw	a2,a2,-16
    51a4:	400006b7          	lui	a3,0x40000
    51a8:	00001337          	lui	t1,0x1
    51ac:	40640333          	sub	t1,s0,t1
    51b0:	42c33823          	sd	a2,1072(t1) # 1430 <.LBB13_4+0x28c>
    51b4:	00065463          	bgez	a2,51bc <.LBB13_234>
    51b8:	c00006b7          	lui	a3,0xc0000

00000000000051bc <.LBB13_234>:
    51bc:	00001637          	lui	a2,0x1
    51c0:	40c40633          	sub	a2,s0,a2
    51c4:	42d63423          	sd	a3,1064(a2) # 1428 <.LBB13_4+0x284>
    51c8:	aa043603          	ld	a2,-1376(s0)
    51cc:	eb043683          	ld	a3,-336(s0)
    51d0:	00d60633          	add	a2,a2,a3
    51d4:	e7843683          	ld	a3,-392(s0)
    51d8:	40d586bb          	subw	a3,a1,a3
    51dc:	00d60633          	add	a2,a2,a3
    51e0:	ff06061b          	addiw	a2,a2,-16
    51e4:	400006b7          	lui	a3,0x40000
    51e8:	00001337          	lui	t1,0x1
    51ec:	40640333          	sub	t1,s0,t1
    51f0:	44c33023          	sd	a2,1088(t1) # 1440 <.LBB13_4+0x29c>
    51f4:	00065463          	bgez	a2,51fc <.LBB13_236>
    51f8:	c00006b7          	lui	a3,0xc0000

00000000000051fc <.LBB13_236>:
    51fc:	00001637          	lui	a2,0x1
    5200:	40c40633          	sub	a2,s0,a2
    5204:	42d63c23          	sd	a3,1080(a2) # 1438 <.LBB13_4+0x294>
    5208:	aa843603          	ld	a2,-1368(s0)
    520c:	eb843683          	ld	a3,-328(s0)
    5210:	00d60633          	add	a2,a2,a3
    5214:	e8843683          	ld	a3,-376(s0)
    5218:	40d586bb          	subw	a3,a1,a3
    521c:	00d60633          	add	a2,a2,a3
    5220:	ff06061b          	addiw	a2,a2,-16
    5224:	400006b7          	lui	a3,0x40000
    5228:	00001337          	lui	t1,0x1
    522c:	40640333          	sub	t1,s0,t1
    5230:	44c33823          	sd	a2,1104(t1) # 1450 <.LBB13_4+0x2ac>
    5234:	00065463          	bgez	a2,523c <.LBB13_238>
    5238:	c00006b7          	lui	a3,0xc0000

000000000000523c <.LBB13_238>:
    523c:	00001637          	lui	a2,0x1
    5240:	40c40633          	sub	a2,s0,a2
    5244:	44d63423          	sd	a3,1096(a2) # 1448 <.LBB13_4+0x2a4>
    5248:	ab043603          	ld	a2,-1360(s0)
    524c:	ec843683          	ld	a3,-312(s0)
    5250:	00d60633          	add	a2,a2,a3
    5254:	e9843683          	ld	a3,-360(s0)
    5258:	40d586bb          	subw	a3,a1,a3
    525c:	00d60633          	add	a2,a2,a3
    5260:	ff06061b          	addiw	a2,a2,-16
    5264:	400006b7          	lui	a3,0x40000
    5268:	00001337          	lui	t1,0x1
    526c:	40640333          	sub	t1,s0,t1
    5270:	46c33023          	sd	a2,1120(t1) # 1460 <.LBB13_4+0x2bc>
    5274:	00065463          	bgez	a2,527c <.LBB13_240>
    5278:	c00006b7          	lui	a3,0xc0000

000000000000527c <.LBB13_240>:
    527c:	00001637          	lui	a2,0x1
    5280:	40c40633          	sub	a2,s0,a2
    5284:	44d63c23          	sd	a3,1112(a2) # 1458 <.LBB13_4+0x2b4>
    5288:	ab843603          	ld	a2,-1352(s0)
    528c:	ed843683          	ld	a3,-296(s0)
    5290:	00d60633          	add	a2,a2,a3
    5294:	ea843683          	ld	a3,-344(s0)
    5298:	40d586bb          	subw	a3,a1,a3
    529c:	00d60633          	add	a2,a2,a3
    52a0:	ff06061b          	addiw	a2,a2,-16
    52a4:	400006b7          	lui	a3,0x40000
    52a8:	00001337          	lui	t1,0x1
    52ac:	40640333          	sub	t1,s0,t1
    52b0:	46c33823          	sd	a2,1136(t1) # 1470 <.LBB13_4+0x2cc>
    52b4:	00065463          	bgez	a2,52bc <.LBB13_242>
    52b8:	c00006b7          	lui	a3,0xc0000

00000000000052bc <.LBB13_242>:
    52bc:	00001637          	lui	a2,0x1
    52c0:	40c40633          	sub	a2,s0,a2
    52c4:	46d63423          	sd	a3,1128(a2) # 1468 <.LBB13_4+0x2c4>
    52c8:	ac043603          	ld	a2,-1344(s0)
    52cc:	ee843683          	ld	a3,-280(s0)
    52d0:	00d60633          	add	a2,a2,a3
    52d4:	ec043683          	ld	a3,-320(s0)
    52d8:	40d586bb          	subw	a3,a1,a3
    52dc:	00d60633          	add	a2,a2,a3
    52e0:	ff06061b          	addiw	a2,a2,-16
    52e4:	400006b7          	lui	a3,0x40000
    52e8:	00001337          	lui	t1,0x1
    52ec:	40640333          	sub	t1,s0,t1
    52f0:	48c33023          	sd	a2,1152(t1) # 1480 <.LBB13_4+0x2dc>
    52f4:	00065463          	bgez	a2,52fc <.LBB13_244>
    52f8:	c00006b7          	lui	a3,0xc0000

00000000000052fc <.LBB13_244>:
    52fc:	00001637          	lui	a2,0x1
    5300:	40c40633          	sub	a2,s0,a2
    5304:	46d63c23          	sd	a3,1144(a2) # 1478 <.LBB13_4+0x2d4>
    5308:	ac843603          	ld	a2,-1336(s0)
    530c:	ef843683          	ld	a3,-264(s0)
    5310:	00d60633          	add	a2,a2,a3
    5314:	ed043683          	ld	a3,-304(s0)
    5318:	40d586bb          	subw	a3,a1,a3
    531c:	00d60633          	add	a2,a2,a3
    5320:	ff06061b          	addiw	a2,a2,-16
    5324:	400006b7          	lui	a3,0x40000
    5328:	00001337          	lui	t1,0x1
