
code.o:     file format elf64-littleriscv


Disassembly of section .text.main_dispatch_99_matmul_196x576x96_i8xi8xi32:

0000000000000000 <main_dispatch_99_matmul_196x576x96_i8xi8xi32>:
       0:	f1501173          	csrrw	sp,0xf15,zero

0000000000000004 <.Lfunc_begin78>:
       4:	81010113          	addi	sp,sp,-2032
       8:	7e113423          	sd	ra,2024(sp)
       c:	7e813023          	sd	s0,2016(sp)
      10:	7c913c23          	sd	s1,2008(sp)
      14:	7d213823          	sd	s2,2000(sp)
      18:	7d313423          	sd	s3,1992(sp)
      1c:	7d413023          	sd	s4,1984(sp)
      20:	7b513c23          	sd	s5,1976(sp)
      24:	7b613823          	sd	s6,1968(sp)
      28:	7b713423          	sd	s7,1960(sp)
      2c:	7b813023          	sd	s8,1952(sp)
      30:	79913c23          	sd	s9,1944(sp)
      34:	79a13823          	sd	s10,1936(sp)
      38:	79b13423          	sd	s11,1928(sp)
      3c:	7f010413          	addi	s0,sp,2032
      40:	80010113          	addi	sp,sp,-2048
      44:	cd010113          	addi	sp,sp,-816
      48:	0205b583          	ld	a1,32(a1)
      4c:	0005b683          	ld	a3,0(a1)
      50:	00000713          	li	a4,0
      54:	00000513          	li	a0,0
      58:	0085b603          	ld	a2,8(a1)
      5c:	000017b7          	lui	a5,0x1
      60:	40f407b3          	sub	a5,s0,a5
      64:	d0d7b423          	sd	a3,-760(a5) # d08 <.LBB78_3+0xab0>
      68:	34068693          	addi	a3,a3,832
      6c:	000017b7          	lui	a5,0x1
      70:	40f407b3          	sub	a5,s0,a5
      74:	d6d7b423          	sd	a3,-664(a5) # d68 <.LBB78_3+0xb10>
      78:	000856b7          	lui	a3,0x85
      7c:	f806869b          	addiw	a3,a3,-128 # 84f80 <.Lfunc_end80+0x5c5b4>
      80:	00d60eb3          	add	t4,a2,a3
      84:	000196b7          	lui	a3,0x19
      88:	2806869b          	addiw	a3,a3,640 # 19280 <.LBB60_3004>
      8c:	00d606b3          	add	a3,a2,a3
      90:	000017b7          	lui	a5,0x1
      94:	40f407b3          	sub	a5,s0,a5
      98:	d6d7b023          	sd	a3,-672(a5) # d60 <.LBB78_3+0xb08>
      9c:	000926b7          	lui	a3,0x92
      a0:	7806869b          	addiw	a3,a3,1920 # 92780 <.Lfunc_end80+0x69db4>
      a4:	0105b583          	ld	a1,16(a1)
      a8:	00d60633          	add	a2,a2,a3
      ac:	000016b7          	lui	a3,0x1
      b0:	40d406b3          	sub	a3,s0,a3
      b4:	d4c6bc23          	sd	a2,-680(a3) # d58 <.LBB78_3+0xb00>
      b8:	00005637          	lui	a2,0x5
      bc:	cc06061b          	addiw	a2,a2,-832 # 4cc0 <.LBB78_214+0x18>
      c0:	00c585b3          	add	a1,a1,a2
      c4:	00001637          	lui	a2,0x1
      c8:	40c40633          	sub	a2,s0,a2
      cc:	ceb63c23          	sd	a1,-776(a2) # cf8 <.LBB78_3+0xaa0>
      d0:	6ffce5b7          	lui	a1,0x6ffce
      d4:	8365859b          	addiw	a1,a1,-1994 # 6ffcd836 <.Lfunc_end80+0x6ffa4e6a>
      d8:	00001637          	lui	a2,0x1
      dc:	40c40633          	sub	a2,s0,a2
      e0:	d0b63823          	sd	a1,-752(a2) # d10 <.LBB78_3+0xab8>
      e4:	00100593          	li	a1,1
      e8:	02459593          	slli	a1,a1,0x24
      ec:	00001637          	lui	a2,0x1
      f0:	40c40633          	sub	a2,s0,a2
      f4:	66b63023          	sd	a1,1632(a2) # 1660 <.LBB78_4+0x4ac>
      f8:	000015b7          	lui	a1,0x1
      fc:	40b405b3          	sub	a1,s0,a1
     100:	d1d5b023          	sd	t4,-768(a1) # d00 <.LBB78_3+0xaa8>
     104:	0580006f          	j	15c <.LBB78_2>

0000000000000108 <.LBB78_1>:
     108:	00001537          	lui	a0,0x1
     10c:	40a40533          	sub	a0,s0,a0
     110:	ce853603          	ld	a2,-792(a0) # ce8 <.LBB78_3+0xa90>
     114:	00860513          	addi	a0,a2,8
     118:	000015b7          	lui	a1,0x1
     11c:	40b405b3          	sub	a1,s0,a1
     120:	d685b583          	ld	a1,-664(a1) # d68 <.LBB78_3+0xb10>
     124:	30058593          	addi	a1,a1,768
     128:	000016b7          	lui	a3,0x1
     12c:	40d406b3          	sub	a3,s0,a3
     130:	d6b6b423          	sd	a1,-664(a3) # d68 <.LBB78_3+0xb10>
     134:	000015b7          	lui	a1,0x1
     138:	40b405b3          	sub	a1,s0,a1
     13c:	cf05b703          	ld	a4,-784(a1) # cf0 <.LBB78_3+0xa98>
     140:	00170713          	addi	a4,a4,1
     144:	000015b7          	lui	a1,0x1
     148:	40b405b3          	sub	a1,s0,a1
     14c:	d005be83          	ld	t4,-768(a1) # d00 <.LBB78_3+0xaa8>
     150:	0b800593          	li	a1,184
     154:	00b66463          	bltu	a2,a1,15c <.LBB78_2>
     158:	0110a06f          	j	a968 <.LBB78_1030>

000000000000015c <.LBB78_2>:
     15c:	00000593          	li	a1,0
     160:	00050693          	mv	a3,a0
     164:	00001537          	lui	a0,0x1
     168:	40a40533          	sub	a0,s0,a0
     16c:	cee53823          	sd	a4,-784(a0) # cf0 <.LBB78_3+0xa98>
     170:	30000513          	li	a0,768
     174:	02a70533          	mul	a0,a4,a0
     178:	00001637          	lui	a2,0x1
     17c:	40c40633          	sub	a2,s0,a2
     180:	d0863603          	ld	a2,-760(a2) # d08 <.LBB78_3+0xab0>
     184:	00c50533          	add	a0,a0,a2
     188:	3a050713          	addi	a4,a0,928
     18c:	00269513          	slli	a0,a3,0x2
     190:	00a60533          	add	a0,a2,a0
     194:	00001637          	lui	a2,0x1
     198:	40c40633          	sub	a2,s0,a2
     19c:	66a63423          	sd	a0,1640(a2) # 1668 <.LBB78_4+0x4b4>
     1a0:	24000513          	li	a0,576
     1a4:	00001637          	lui	a2,0x1
     1a8:	40c40633          	sub	a2,s0,a2
     1ac:	ced63423          	sd	a3,-792(a2) # ce8 <.LBB78_3+0xa90>
     1b0:	02a68533          	mul	a0,a3,a0
     1b4:	00001637          	lui	a2,0x1
     1b8:	40c40633          	sub	a2,s0,a2
     1bc:	cf863603          	ld	a2,-776(a2) # cf8 <.LBB78_3+0xaa0>
     1c0:	00a60533          	add	a0,a2,a0
     1c4:	24050613          	addi	a2,a0,576
     1c8:	000016b7          	lui	a3,0x1
     1cc:	40d406b3          	sub	a3,s0,a3
     1d0:	d4c6b423          	sd	a2,-696(a3) # d48 <.LBB78_3+0xaf0>
     1d4:	48050613          	addi	a2,a0,1152
     1d8:	000016b7          	lui	a3,0x1
     1dc:	40d406b3          	sub	a3,s0,a3
     1e0:	d4c6b023          	sd	a2,-704(a3) # d40 <.LBB78_3+0xae8>
     1e4:	6c050613          	addi	a2,a0,1728
     1e8:	000016b7          	lui	a3,0x1
     1ec:	40d406b3          	sub	a3,s0,a3
     1f0:	d2c6bc23          	sd	a2,-712(a3) # d38 <.LBB78_3+0xae0>
     1f4:	00001637          	lui	a2,0x1
     1f8:	40c40633          	sub	a2,s0,a2
     1fc:	d4a63823          	sd	a0,-688(a2) # d50 <.LBB78_3+0xaf8>
     200:	7ff50513          	addi	a0,a0,2047
     204:	10150613          	addi	a2,a0,257
     208:	000016b7          	lui	a3,0x1
     20c:	40d406b3          	sub	a3,s0,a3
     210:	d2c6b823          	sd	a2,-720(a3) # d30 <.LBB78_3+0xad8>
     214:	34150613          	addi	a2,a0,833
     218:	000016b7          	lui	a3,0x1
     21c:	40d406b3          	sub	a3,s0,a3
     220:	d2c6b423          	sd	a2,-728(a3) # d28 <.LBB78_3+0xad0>
     224:	58150613          	addi	a2,a0,1409
     228:	000016b7          	lui	a3,0x1
     22c:	40d406b3          	sub	a3,s0,a3
     230:	d2c6b023          	sd	a2,-736(a3) # d20 <.LBB78_3+0xac8>
     234:	7c150513          	addi	a0,a0,1985
     238:	00001637          	lui	a2,0x1
     23c:	40c40633          	sub	a2,s0,a2
     240:	d0a63c23          	sd	a0,-744(a2) # d18 <.LBB78_3+0xac0>
     244:	000e8813          	mv	a6,t4
     248:	00001537          	lui	a0,0x1
     24c:	40a40533          	sub	a0,s0,a0
     250:	66e53c23          	sd	a4,1656(a0) # 1678 <.LBB78_4+0x4c4>
     254:	7610006f          	j	11b4 <.LBB78_4>

0000000000000258 <.LBB78_3>:
     258:	080dc093          	xori	ra,s11,128
     25c:	00001c37          	lui	s8,0x1
     260:	41840c33          	sub	s8,s0,s8
     264:	d50c3c03          	ld	s8,-688(s8) # d50 <.LBB78_3+0xaf8>
     268:	00001d37          	lui	s10,0x1
     26c:	41a40d33          	sub	s10,s0,s10
     270:	670d3d83          	ld	s11,1648(s10) # 1670 <.LBB78_4+0x4bc>
     274:	01bc0c33          	add	s8,s8,s11
     278:	001c0223          	sb	ra,4(s8)
     27c:	f8843083          	ld	ra,-120(s0)
     280:	0800c093          	xori	ra,ra,128
     284:	001c01a3          	sb	ra,3(s8)
     288:	f8043083          	ld	ra,-128(s0)
     28c:	0800c093          	xori	ra,ra,128
     290:	001c0123          	sb	ra,2(s8)
     294:	f7843083          	ld	ra,-136(s0)
     298:	0800c093          	xori	ra,ra,128
     29c:	001c00a3          	sb	ra,1(s8)
     2a0:	f7043083          	ld	ra,-144(s0)
     2a4:	0800c093          	xori	ra,ra,128
     2a8:	001c0023          	sb	ra,0(s8)
     2ac:	f6843083          	ld	ra,-152(s0)
     2b0:	0800c093          	xori	ra,ra,128
     2b4:	001c02a3          	sb	ra,5(s8)
     2b8:	f6043083          	ld	ra,-160(s0)
     2bc:	0800c093          	xori	ra,ra,128
     2c0:	001c0323          	sb	ra,6(s8)
     2c4:	f5843083          	ld	ra,-168(s0)
     2c8:	0800c093          	xori	ra,ra,128
     2cc:	001c03a3          	sb	ra,7(s8)
     2d0:	f5043083          	ld	ra,-176(s0)
     2d4:	0800c093          	xori	ra,ra,128
     2d8:	001c0423          	sb	ra,8(s8)
     2dc:	f4843083          	ld	ra,-184(s0)
     2e0:	0800c093          	xori	ra,ra,128
     2e4:	001c04a3          	sb	ra,9(s8)
     2e8:	f4043083          	ld	ra,-192(s0)
     2ec:	0800c093          	xori	ra,ra,128
     2f0:	001c0523          	sb	ra,10(s8)
     2f4:	f3843083          	ld	ra,-200(s0)
     2f8:	0800c093          	xori	ra,ra,128
     2fc:	001c05a3          	sb	ra,11(s8)
     300:	f3043083          	ld	ra,-208(s0)
     304:	0800c093          	xori	ra,ra,128
     308:	001c0623          	sb	ra,12(s8)
     30c:	f2843083          	ld	ra,-216(s0)
     310:	0800c093          	xori	ra,ra,128
     314:	001c06a3          	sb	ra,13(s8)
     318:	f2043083          	ld	ra,-224(s0)
     31c:	0800c093          	xori	ra,ra,128
     320:	001c0723          	sb	ra,14(s8)
     324:	f1843083          	ld	ra,-232(s0)
     328:	0800c093          	xori	ra,ra,128
     32c:	001c07a3          	sb	ra,15(s8)
     330:	f1043083          	ld	ra,-240(s0)
     334:	0800c093          	xori	ra,ra,128
     338:	001c0823          	sb	ra,16(s8)
     33c:	f0843083          	ld	ra,-248(s0)
     340:	0800c093          	xori	ra,ra,128
     344:	001c08a3          	sb	ra,17(s8)
     348:	f0043083          	ld	ra,-256(s0)
     34c:	0800c093          	xori	ra,ra,128
     350:	001c0923          	sb	ra,18(s8)
     354:	ef843083          	ld	ra,-264(s0)
     358:	0800c093          	xori	ra,ra,128
     35c:	001c09a3          	sb	ra,19(s8)
     360:	ef043083          	ld	ra,-272(s0)
     364:	0800c093          	xori	ra,ra,128
     368:	001c0a23          	sb	ra,20(s8)
     36c:	ee043d03          	ld	s10,-288(s0)
     370:	080d4093          	xori	ra,s10,128
     374:	001c0aa3          	sb	ra,21(s8)
     378:	ed843d03          	ld	s10,-296(s0)
     37c:	080d4093          	xori	ra,s10,128
     380:	001c0b23          	sb	ra,22(s8)
     384:	ed043d03          	ld	s10,-304(s0)
     388:	080d4093          	xori	ra,s10,128
     38c:	001c0ba3          	sb	ra,23(s8)
     390:	eb043d03          	ld	s10,-336(s0)
     394:	080d4093          	xori	ra,s10,128
     398:	001c0c23          	sb	ra,24(s8)
     39c:	e9043d03          	ld	s10,-368(s0)
     3a0:	080d4093          	xori	ra,s10,128
     3a4:	001c0ca3          	sb	ra,25(s8)
     3a8:	e7043d03          	ld	s10,-400(s0)
     3ac:	080d4093          	xori	ra,s10,128
     3b0:	001c0d23          	sb	ra,26(s8)
     3b4:	e5843d03          	ld	s10,-424(s0)
     3b8:	080d4093          	xori	ra,s10,128
     3bc:	001c0da3          	sb	ra,27(s8)
     3c0:	e4043d03          	ld	s10,-448(s0)
     3c4:	080d4093          	xori	ra,s10,128
     3c8:	001c0e23          	sb	ra,28(s8)
     3cc:	e3843d03          	ld	s10,-456(s0)
     3d0:	080d4093          	xori	ra,s10,128
     3d4:	001c0ea3          	sb	ra,29(s8)
     3d8:	e3043d03          	ld	s10,-464(s0)
     3dc:	080d4093          	xori	ra,s10,128
     3e0:	001c0f23          	sb	ra,30(s8)
     3e4:	e2843d03          	ld	s10,-472(s0)
     3e8:	080d4093          	xori	ra,s10,128
     3ec:	001c0fa3          	sb	ra,31(s8)
     3f0:	e2043c03          	ld	s8,-480(s0)
     3f4:	080c4093          	xori	ra,s8,128
     3f8:	00001c37          	lui	s8,0x1
     3fc:	41840c33          	sub	s8,s0,s8
     400:	d48c3c03          	ld	s8,-696(s8) # d48 <.LBB78_3+0xaf0>
     404:	01bc0c33          	add	s8,s8,s11
     408:	001c0223          	sb	ra,4(s8)
     40c:	e1843d03          	ld	s10,-488(s0)
     410:	080d4093          	xori	ra,s10,128
     414:	001c01a3          	sb	ra,3(s8)
     418:	e1043d03          	ld	s10,-496(s0)
     41c:	080d4093          	xori	ra,s10,128
     420:	001c0123          	sb	ra,2(s8)
     424:	e0843d03          	ld	s10,-504(s0)
     428:	080d4093          	xori	ra,s10,128
     42c:	001c00a3          	sb	ra,1(s8)
     430:	e0043d03          	ld	s10,-512(s0)
     434:	080d4093          	xori	ra,s10,128
     438:	001c0023          	sb	ra,0(s8)
     43c:	c6043d03          	ld	s10,-928(s0)
     440:	080d4093          	xori	ra,s10,128
     444:	001c02a3          	sb	ra,5(s8)
     448:	c2843d03          	ld	s10,-984(s0)
     44c:	080d4093          	xori	ra,s10,128
     450:	001c0323          	sb	ra,6(s8)
     454:	bf843d03          	ld	s10,-1032(s0)
     458:	080d4093          	xori	ra,s10,128
     45c:	001c03a3          	sb	ra,7(s8)
     460:	bc843d03          	ld	s10,-1080(s0)
     464:	080d4093          	xori	ra,s10,128
     468:	001c0423          	sb	ra,8(s8)
     46c:	b9043d03          	ld	s10,-1136(s0)
     470:	080d4093          	xori	ra,s10,128
     474:	001c04a3          	sb	ra,9(s8)
     478:	b5843d03          	ld	s10,-1192(s0)
     47c:	080d4093          	xori	ra,s10,128
     480:	001c0523          	sb	ra,10(s8)
     484:	b2843d03          	ld	s10,-1240(s0)
     488:	080d4093          	xori	ra,s10,128
     48c:	001c05a3          	sb	ra,11(s8)
     490:	af843d03          	ld	s10,-1288(s0)
     494:	080d4093          	xori	ra,s10,128
     498:	001c0623          	sb	ra,12(s8)
     49c:	ac043d03          	ld	s10,-1344(s0)
     4a0:	080d4093          	xori	ra,s10,128
     4a4:	001c06a3          	sb	ra,13(s8)
     4a8:	a8843d03          	ld	s10,-1400(s0)
     4ac:	080d4093          	xori	ra,s10,128
     4b0:	001c0723          	sb	ra,14(s8)
     4b4:	a5043d03          	ld	s10,-1456(s0)
     4b8:	080d4093          	xori	ra,s10,128
     4bc:	001c07a3          	sb	ra,15(s8)
     4c0:	a2043d03          	ld	s10,-1504(s0)
     4c4:	080d4093          	xori	ra,s10,128
     4c8:	001c0823          	sb	ra,16(s8)
     4cc:	9f043d03          	ld	s10,-1552(s0)
     4d0:	080d4093          	xori	ra,s10,128
     4d4:	001c08a3          	sb	ra,17(s8)
     4d8:	9b843d03          	ld	s10,-1608(s0)
     4dc:	080d4093          	xori	ra,s10,128
     4e0:	001c0923          	sb	ra,18(s8)
     4e4:	98043d03          	ld	s10,-1664(s0)
     4e8:	080d4093          	xori	ra,s10,128
     4ec:	001c09a3          	sb	ra,19(s8)
     4f0:	95043d03          	ld	s10,-1712(s0)
     4f4:	080d4093          	xori	ra,s10,128
     4f8:	001c0a23          	sb	ra,20(s8)
     4fc:	92043d03          	ld	s10,-1760(s0)
     500:	080d4093          	xori	ra,s10,128
     504:	001c0aa3          	sb	ra,21(s8)
     508:	8e843d03          	ld	s10,-1816(s0)
     50c:	080d4093          	xori	ra,s10,128
     510:	001c0b23          	sb	ra,22(s8)
     514:	8b043d03          	ld	s10,-1872(s0)
     518:	080d4093          	xori	ra,s10,128
     51c:	001c0ba3          	sb	ra,23(s8)
     520:	88043d03          	ld	s10,-1920(s0)
     524:	080d4093          	xori	ra,s10,128
     528:	001c0c23          	sb	ra,24(s8)
     52c:	85043d03          	ld	s10,-1968(s0)
     530:	080d4093          	xori	ra,s10,128
     534:	001c0ca3          	sb	ra,25(s8)
     538:	81843d03          	ld	s10,-2024(s0)
     53c:	080d4093          	xori	ra,s10,128
     540:	001c0d23          	sb	ra,26(s8)
     544:	00001d37          	lui	s10,0x1
     548:	41a40d33          	sub	s10,s0,s10
     54c:	7e0d3d03          	ld	s10,2016(s10) # 17e0 <.LBB78_5+0x94>
     550:	080d4093          	xori	ra,s10,128
     554:	001c0da3          	sb	ra,27(s8)
     558:	00001d37          	lui	s10,0x1
     55c:	41a40d33          	sub	s10,s0,s10
     560:	7a8d3d03          	ld	s10,1960(s10) # 17a8 <.LBB78_5+0x5c>
     564:	080d4093          	xori	ra,s10,128
     568:	001c0e23          	sb	ra,28(s8)
     56c:	00001d37          	lui	s10,0x1
     570:	41a40d33          	sub	s10,s0,s10
     574:	778d3d03          	ld	s10,1912(s10) # 1778 <.LBB78_5+0x2c>
     578:	080d4093          	xori	ra,s10,128
     57c:	001c0ea3          	sb	ra,29(s8)
     580:	00001d37          	lui	s10,0x1
     584:	41a40d33          	sub	s10,s0,s10
     588:	770d3d03          	ld	s10,1904(s10) # 1770 <.LBB78_5+0x24>
     58c:	080d4093          	xori	ra,s10,128
     590:	001c0f23          	sb	ra,30(s8)
     594:	00001d37          	lui	s10,0x1
     598:	41a40d33          	sub	s10,s0,s10
     59c:	718d3d03          	ld	s10,1816(s10) # 1718 <.LBB78_4+0x564>
     5a0:	080d4093          	xori	ra,s10,128
     5a4:	001c0fa3          	sb	ra,31(s8)
     5a8:	00001c37          	lui	s8,0x1
     5ac:	41840c33          	sub	s8,s0,s8
     5b0:	710c3c03          	ld	s8,1808(s8) # 1710 <.LBB78_4+0x55c>
     5b4:	080c4093          	xori	ra,s8,128
     5b8:	00001c37          	lui	s8,0x1
     5bc:	41840c33          	sub	s8,s0,s8
     5c0:	d40c3c03          	ld	s8,-704(s8) # d40 <.LBB78_3+0xae8>
     5c4:	01bc0c33          	add	s8,s8,s11
     5c8:	001c0223          	sb	ra,4(s8)
     5cc:	00001d37          	lui	s10,0x1
     5d0:	41a40d33          	sub	s10,s0,s10
     5d4:	6e8d3d03          	ld	s10,1768(s10) # 16e8 <.LBB78_4+0x534>
     5d8:	080d4093          	xori	ra,s10,128
     5dc:	001c01a3          	sb	ra,3(s8)
     5e0:	00001d37          	lui	s10,0x1
     5e4:	41a40d33          	sub	s10,s0,s10
     5e8:	6e0d3d03          	ld	s10,1760(s10) # 16e0 <.LBB78_4+0x52c>
     5ec:	080d4093          	xori	ra,s10,128
     5f0:	001c0123          	sb	ra,2(s8)
     5f4:	00001d37          	lui	s10,0x1
     5f8:	41a40d33          	sub	s10,s0,s10
     5fc:	6d8d3d03          	ld	s10,1752(s10) # 16d8 <.LBB78_4+0x524>
     600:	080d4093          	xori	ra,s10,128
     604:	001c00a3          	sb	ra,1(s8)
     608:	00001d37          	lui	s10,0x1
     60c:	41a40d33          	sub	s10,s0,s10
     610:	6d0d3d03          	ld	s10,1744(s10) # 16d0 <.LBB78_4+0x51c>
     614:	080d4093          	xori	ra,s10,128
     618:	001c0023          	sb	ra,0(s8)
     61c:	00001d37          	lui	s10,0x1
     620:	41a40d33          	sub	s10,s0,s10
     624:	6c8d3d03          	ld	s10,1736(s10) # 16c8 <.LBB78_4+0x514>
     628:	080d4093          	xori	ra,s10,128
     62c:	001c02a3          	sb	ra,5(s8)
     630:	00001d37          	lui	s10,0x1
     634:	41a40d33          	sub	s10,s0,s10
     638:	6c0d3d03          	ld	s10,1728(s10) # 16c0 <.LBB78_4+0x50c>
     63c:	080d4093          	xori	ra,s10,128
     640:	001c0323          	sb	ra,6(s8)
     644:	00001d37          	lui	s10,0x1
     648:	41a40d33          	sub	s10,s0,s10
     64c:	6b8d3d03          	ld	s10,1720(s10) # 16b8 <.LBB78_4+0x504>
     650:	080d4093          	xori	ra,s10,128
     654:	001c03a3          	sb	ra,7(s8)
     658:	00001d37          	lui	s10,0x1
     65c:	41a40d33          	sub	s10,s0,s10
     660:	6b0d3d03          	ld	s10,1712(s10) # 16b0 <.LBB78_4+0x4fc>
     664:	080d4093          	xori	ra,s10,128
     668:	001c0423          	sb	ra,8(s8)
     66c:	00001d37          	lui	s10,0x1
     670:	41a40d33          	sub	s10,s0,s10
     674:	6a8d3d03          	ld	s10,1704(s10) # 16a8 <.LBB78_4+0x4f4>
     678:	080d4093          	xori	ra,s10,128
     67c:	001c04a3          	sb	ra,9(s8)
     680:	00001d37          	lui	s10,0x1
     684:	41a40d33          	sub	s10,s0,s10
     688:	6a0d3d03          	ld	s10,1696(s10) # 16a0 <.LBB78_4+0x4ec>
     68c:	080d4093          	xori	ra,s10,128
     690:	001c0523          	sb	ra,10(s8)
     694:	00001d37          	lui	s10,0x1
     698:	41a40d33          	sub	s10,s0,s10
     69c:	698d3d03          	ld	s10,1688(s10) # 1698 <.LBB78_4+0x4e4>
     6a0:	080d4093          	xori	ra,s10,128
     6a4:	001c05a3          	sb	ra,11(s8)
     6a8:	00001d37          	lui	s10,0x1
     6ac:	41a40d33          	sub	s10,s0,s10
     6b0:	440d3d03          	ld	s10,1088(s10) # 1440 <.LBB78_4+0x28c>
     6b4:	080d4093          	xori	ra,s10,128
     6b8:	001c0623          	sb	ra,12(s8)
     6bc:	00001d37          	lui	s10,0x1
     6c0:	41a40d33          	sub	s10,s0,s10
     6c4:	410d3d03          	ld	s10,1040(s10) # 1410 <.LBB78_4+0x25c>
     6c8:	080d4093          	xori	ra,s10,128
     6cc:	001c06a3          	sb	ra,13(s8)
     6d0:	00001d37          	lui	s10,0x1
     6d4:	41a40d33          	sub	s10,s0,s10
     6d8:	3e0d3d03          	ld	s10,992(s10) # 13e0 <.LBB78_4+0x22c>
     6dc:	080d4093          	xori	ra,s10,128
     6e0:	001c0723          	sb	ra,14(s8)
     6e4:	00001d37          	lui	s10,0x1
     6e8:	41a40d33          	sub	s10,s0,s10
     6ec:	3a8d3d03          	ld	s10,936(s10) # 13a8 <.LBB78_4+0x1f4>
     6f0:	080d4093          	xori	ra,s10,128
     6f4:	001c07a3          	sb	ra,15(s8)
     6f8:	00001d37          	lui	s10,0x1
     6fc:	41a40d33          	sub	s10,s0,s10
     700:	370d3d03          	ld	s10,880(s10) # 1370 <.LBB78_4+0x1bc>
     704:	080d4093          	xori	ra,s10,128
     708:	001c0823          	sb	ra,16(s8)
     70c:	00001d37          	lui	s10,0x1
     710:	41a40d33          	sub	s10,s0,s10
     714:	338d3d03          	ld	s10,824(s10) # 1338 <.LBB78_4+0x184>
     718:	080d4093          	xori	ra,s10,128
     71c:	001c08a3          	sb	ra,17(s8)
     720:	00001d37          	lui	s10,0x1
     724:	41a40d33          	sub	s10,s0,s10
     728:	308d3d03          	ld	s10,776(s10) # 1308 <.LBB78_4+0x154>
     72c:	080d4093          	xori	ra,s10,128
     730:	001c0923          	sb	ra,18(s8)
     734:	00001d37          	lui	s10,0x1
     738:	41a40d33          	sub	s10,s0,s10
     73c:	2d8d3d03          	ld	s10,728(s10) # 12d8 <.LBB78_4+0x124>
     740:	080d4093          	xori	ra,s10,128
     744:	001c09a3          	sb	ra,19(s8)
     748:	00001d37          	lui	s10,0x1
     74c:	41a40d33          	sub	s10,s0,s10
     750:	2a0d3d03          	ld	s10,672(s10) # 12a0 <.LBB78_4+0xec>
     754:	080d4093          	xori	ra,s10,128
     758:	001c0a23          	sb	ra,20(s8)
     75c:	00001d37          	lui	s10,0x1
     760:	41a40d33          	sub	s10,s0,s10
     764:	288d3d03          	ld	s10,648(s10) # 1288 <.LBB78_4+0xd4>
     768:	080d4093          	xori	ra,s10,128
     76c:	001c0aa3          	sb	ra,21(s8)
     770:	00001d37          	lui	s10,0x1
     774:	41a40d33          	sub	s10,s0,s10
     778:	298d3d03          	ld	s10,664(s10) # 1298 <.LBB78_4+0xe4>
     77c:	080d4093          	xori	ra,s10,128
     780:	001c0b23          	sb	ra,22(s8)
     784:	00001d37          	lui	s10,0x1
     788:	41a40d33          	sub	s10,s0,s10
     78c:	2b0d3d03          	ld	s10,688(s10) # 12b0 <.LBB78_4+0xfc>
     790:	080d4093          	xori	ra,s10,128
     794:	001c0ba3          	sb	ra,23(s8)
     798:	00001d37          	lui	s10,0x1
     79c:	41a40d33          	sub	s10,s0,s10
     7a0:	2c0d3d03          	ld	s10,704(s10) # 12c0 <.LBB78_4+0x10c>
     7a4:	080d4093          	xori	ra,s10,128
     7a8:	001c0c23          	sb	ra,24(s8)
     7ac:	00001d37          	lui	s10,0x1
     7b0:	41a40d33          	sub	s10,s0,s10
     7b4:	2d0d3d03          	ld	s10,720(s10) # 12d0 <.LBB78_4+0x11c>
     7b8:	080d4093          	xori	ra,s10,128
     7bc:	001c0ca3          	sb	ra,25(s8)
     7c0:	00001d37          	lui	s10,0x1
     7c4:	41a40d33          	sub	s10,s0,s10
     7c8:	2e8d3d03          	ld	s10,744(s10) # 12e8 <.LBB78_4+0x134>
     7cc:	080d4093          	xori	ra,s10,128
     7d0:	001c0d23          	sb	ra,26(s8)
     7d4:	00001d37          	lui	s10,0x1
     7d8:	41a40d33          	sub	s10,s0,s10
     7dc:	2f8d3d03          	ld	s10,760(s10) # 12f8 <.LBB78_4+0x144>
     7e0:	080d4093          	xori	ra,s10,128
     7e4:	001c0da3          	sb	ra,27(s8)
     7e8:	00001d37          	lui	s10,0x1
     7ec:	41a40d33          	sub	s10,s0,s10
     7f0:	310d3d03          	ld	s10,784(s10) # 1310 <.LBB78_4+0x15c>
     7f4:	080d4093          	xori	ra,s10,128
     7f8:	001c0e23          	sb	ra,28(s8)
     7fc:	00001d37          	lui	s10,0x1
     800:	41a40d33          	sub	s10,s0,s10
     804:	320d3d03          	ld	s10,800(s10) # 1320 <.LBB78_4+0x16c>
     808:	080d4093          	xori	ra,s10,128
     80c:	001c0ea3          	sb	ra,29(s8)
     810:	00001d37          	lui	s10,0x1
     814:	41a40d33          	sub	s10,s0,s10
     818:	330d3d03          	ld	s10,816(s10) # 1330 <.LBB78_4+0x17c>
     81c:	080d4093          	xori	ra,s10,128
     820:	001c0f23          	sb	ra,30(s8)
     824:	00001d37          	lui	s10,0x1
     828:	41a40d33          	sub	s10,s0,s10
     82c:	348d3d03          	ld	s10,840(s10) # 1348 <.LBB78_4+0x194>
     830:	080d4093          	xori	ra,s10,128
     834:	001c0fa3          	sb	ra,31(s8)
     838:	00001c37          	lui	s8,0x1
     83c:	41840c33          	sub	s8,s0,s8
     840:	358c3c03          	ld	s8,856(s8) # 1358 <.LBB78_4+0x1a4>
     844:	080c4093          	xori	ra,s8,128
     848:	00001c37          	lui	s8,0x1
     84c:	41840c33          	sub	s8,s0,s8
     850:	d38c3c03          	ld	s8,-712(s8) # d38 <.LBB78_3+0xae0>
     854:	01bc0c33          	add	s8,s8,s11
     858:	001c0223          	sb	ra,4(s8)
     85c:	00001d37          	lui	s10,0x1
     860:	41a40d33          	sub	s10,s0,s10
     864:	368d3d03          	ld	s10,872(s10) # 1368 <.LBB78_4+0x1b4>
     868:	080d4093          	xori	ra,s10,128
     86c:	001c01a3          	sb	ra,3(s8)
     870:	00001d37          	lui	s10,0x1
     874:	41a40d33          	sub	s10,s0,s10
     878:	380d3d03          	ld	s10,896(s10) # 1380 <.LBB78_4+0x1cc>
     87c:	080d4093          	xori	ra,s10,128
     880:	001c0123          	sb	ra,2(s8)
     884:	00001d37          	lui	s10,0x1
     888:	41a40d33          	sub	s10,s0,s10
     88c:	390d3d03          	ld	s10,912(s10) # 1390 <.LBB78_4+0x1dc>
     890:	080d4093          	xori	ra,s10,128
     894:	001c00a3          	sb	ra,1(s8)
     898:	00001d37          	lui	s10,0x1
     89c:	41a40d33          	sub	s10,s0,s10
     8a0:	3a0d3d03          	ld	s10,928(s10) # 13a0 <.LBB78_4+0x1ec>
     8a4:	080d4093          	xori	ra,s10,128
     8a8:	001c0023          	sb	ra,0(s8)
     8ac:	00001d37          	lui	s10,0x1
     8b0:	41a40d33          	sub	s10,s0,s10
     8b4:	3b8d3d03          	ld	s10,952(s10) # 13b8 <.LBB78_4+0x204>
     8b8:	080d4093          	xori	ra,s10,128
     8bc:	001c02a3          	sb	ra,5(s8)
     8c0:	00001d37          	lui	s10,0x1
     8c4:	41a40d33          	sub	s10,s0,s10
     8c8:	3c8d3d03          	ld	s10,968(s10) # 13c8 <.LBB78_4+0x214>
     8cc:	080d4093          	xori	ra,s10,128
     8d0:	001c0323          	sb	ra,6(s8)
     8d4:	00001d37          	lui	s10,0x1
     8d8:	41a40d33          	sub	s10,s0,s10
     8dc:	3d8d3d03          	ld	s10,984(s10) # 13d8 <.LBB78_4+0x224>
     8e0:	080d4093          	xori	ra,s10,128
     8e4:	001c03a3          	sb	ra,7(s8)
     8e8:	00001d37          	lui	s10,0x1
     8ec:	41a40d33          	sub	s10,s0,s10
     8f0:	3f0d3d03          	ld	s10,1008(s10) # 13f0 <.LBB78_4+0x23c>
     8f4:	080d4093          	xori	ra,s10,128
     8f8:	001c0423          	sb	ra,8(s8)
     8fc:	00001d37          	lui	s10,0x1
     900:	41a40d33          	sub	s10,s0,s10
     904:	400d3d03          	ld	s10,1024(s10) # 1400 <.LBB78_4+0x24c>
     908:	080d4093          	xori	ra,s10,128
     90c:	001c04a3          	sb	ra,9(s8)
     910:	00001d37          	lui	s10,0x1
     914:	41a40d33          	sub	s10,s0,s10
     918:	418d3d03          	ld	s10,1048(s10) # 1418 <.LBB78_4+0x264>
     91c:	080d4093          	xori	ra,s10,128
     920:	001c0523          	sb	ra,10(s8)
     924:	00001d37          	lui	s10,0x1
     928:	41a40d33          	sub	s10,s0,s10
     92c:	428d3d03          	ld	s10,1064(s10) # 1428 <.LBB78_4+0x274>
     930:	080d4093          	xori	ra,s10,128
     934:	001c05a3          	sb	ra,11(s8)
     938:	00001d37          	lui	s10,0x1
     93c:	41a40d33          	sub	s10,s0,s10
     940:	438d3d03          	ld	s10,1080(s10) # 1438 <.LBB78_4+0x284>
     944:	080d4093          	xori	ra,s10,128
     948:	001c0623          	sb	ra,12(s8)
     94c:	00001d37          	lui	s10,0x1
     950:	41a40d33          	sub	s10,s0,s10
     954:	450d3d03          	ld	s10,1104(s10) # 1450 <.LBB78_4+0x29c>
     958:	080d4093          	xori	ra,s10,128
     95c:	001c06a3          	sb	ra,13(s8)
     960:	00001d37          	lui	s10,0x1
     964:	41a40d33          	sub	s10,s0,s10
     968:	460d3d03          	ld	s10,1120(s10) # 1460 <.LBB78_4+0x2ac>
     96c:	080d4093          	xori	ra,s10,128
     970:	001c0723          	sb	ra,14(s8)
     974:	00001d37          	lui	s10,0x1
     978:	41a40d33          	sub	s10,s0,s10
     97c:	470d3d03          	ld	s10,1136(s10) # 1470 <.LBB78_4+0x2bc>
     980:	080d4093          	xori	ra,s10,128
     984:	001c07a3          	sb	ra,15(s8)
     988:	00001d37          	lui	s10,0x1
     98c:	41a40d33          	sub	s10,s0,s10
     990:	480d3d03          	ld	s10,1152(s10) # 1480 <.LBB78_4+0x2cc>
     994:	080d4093          	xori	ra,s10,128
     998:	001c0823          	sb	ra,16(s8)
     99c:	00001d37          	lui	s10,0x1
     9a0:	41a40d33          	sub	s10,s0,s10
     9a4:	490d3d03          	ld	s10,1168(s10) # 1490 <.LBB78_4+0x2dc>
     9a8:	080d4093          	xori	ra,s10,128
     9ac:	001c08a3          	sb	ra,17(s8)
     9b0:	00001d37          	lui	s10,0x1
     9b4:	41a40d33          	sub	s10,s0,s10
     9b8:	4a0d3d03          	ld	s10,1184(s10) # 14a0 <.LBB78_4+0x2ec>
     9bc:	080d4093          	xori	ra,s10,128
     9c0:	001c0923          	sb	ra,18(s8)
     9c4:	00001d37          	lui	s10,0x1
     9c8:	41a40d33          	sub	s10,s0,s10
     9cc:	4b0d3d03          	ld	s10,1200(s10) # 14b0 <.LBB78_4+0x2fc>
     9d0:	080d4093          	xori	ra,s10,128
     9d4:	001c09a3          	sb	ra,19(s8)
     9d8:	00001d37          	lui	s10,0x1
     9dc:	41a40d33          	sub	s10,s0,s10
     9e0:	4c0d3d03          	ld	s10,1216(s10) # 14c0 <.LBB78_4+0x30c>
     9e4:	080d4093          	xori	ra,s10,128
     9e8:	001c0a23          	sb	ra,20(s8)
     9ec:	00001d37          	lui	s10,0x1
     9f0:	41a40d33          	sub	s10,s0,s10
     9f4:	4d0d3d03          	ld	s10,1232(s10) # 14d0 <.LBB78_4+0x31c>
     9f8:	080d4093          	xori	ra,s10,128
     9fc:	001c0aa3          	sb	ra,21(s8)
     a00:	00001d37          	lui	s10,0x1
     a04:	41a40d33          	sub	s10,s0,s10
     a08:	4e0d3d03          	ld	s10,1248(s10) # 14e0 <.LBB78_4+0x32c>
     a0c:	080d4093          	xori	ra,s10,128
     a10:	001c0b23          	sb	ra,22(s8)
     a14:	00001d37          	lui	s10,0x1
     a18:	41a40d33          	sub	s10,s0,s10
     a1c:	4f0d3d03          	ld	s10,1264(s10) # 14f0 <.LBB78_4+0x33c>
     a20:	080d4093          	xori	ra,s10,128
     a24:	001c0ba3          	sb	ra,23(s8)
     a28:	00001d37          	lui	s10,0x1
     a2c:	41a40d33          	sub	s10,s0,s10
     a30:	500d3d03          	ld	s10,1280(s10) # 1500 <.LBB78_4+0x34c>
     a34:	080d4093          	xori	ra,s10,128
     a38:	001c0c23          	sb	ra,24(s8)
     a3c:	00001d37          	lui	s10,0x1
     a40:	41a40d33          	sub	s10,s0,s10
     a44:	510d3d03          	ld	s10,1296(s10) # 1510 <.LBB78_4+0x35c>
     a48:	080d4093          	xori	ra,s10,128
     a4c:	001c0ca3          	sb	ra,25(s8)
     a50:	00001d37          	lui	s10,0x1
     a54:	41a40d33          	sub	s10,s0,s10
     a58:	520d3d03          	ld	s10,1312(s10) # 1520 <.LBB78_4+0x36c>
     a5c:	080d4093          	xori	ra,s10,128
     a60:	001c0d23          	sb	ra,26(s8)
     a64:	00001d37          	lui	s10,0x1
     a68:	41a40d33          	sub	s10,s0,s10
     a6c:	530d3d03          	ld	s10,1328(s10) # 1530 <.LBB78_4+0x37c>
     a70:	080d4093          	xori	ra,s10,128
     a74:	001c0da3          	sb	ra,27(s8)
     a78:	00001d37          	lui	s10,0x1
     a7c:	41a40d33          	sub	s10,s0,s10
     a80:	540d3d03          	ld	s10,1344(s10) # 1540 <.LBB78_4+0x38c>
     a84:	080d4093          	xori	ra,s10,128
     a88:	001c0e23          	sb	ra,28(s8)
     a8c:	00001d37          	lui	s10,0x1
     a90:	41a40d33          	sub	s10,s0,s10
     a94:	550d3d03          	ld	s10,1360(s10) # 1550 <.LBB78_4+0x39c>
     a98:	080d4093          	xori	ra,s10,128
     a9c:	001c0ea3          	sb	ra,29(s8)
     aa0:	00001d37          	lui	s10,0x1
     aa4:	41a40d33          	sub	s10,s0,s10
     aa8:	560d3d03          	ld	s10,1376(s10) # 1560 <.LBB78_4+0x3ac>
     aac:	080d4093          	xori	ra,s10,128
     ab0:	001c0f23          	sb	ra,30(s8)
     ab4:	00001d37          	lui	s10,0x1
     ab8:	41a40d33          	sub	s10,s0,s10
     abc:	570d3d03          	ld	s10,1392(s10) # 1570 <.LBB78_4+0x3bc>
     ac0:	080d4093          	xori	ra,s10,128
     ac4:	001c0fa3          	sb	ra,31(s8)
     ac8:	00001c37          	lui	s8,0x1
     acc:	41840c33          	sub	s8,s0,s8
     ad0:	580c3c03          	ld	s8,1408(s8) # 1580 <.LBB78_4+0x3cc>
     ad4:	080c4093          	xori	ra,s8,128
     ad8:	00001c37          	lui	s8,0x1
     adc:	41840c33          	sub	s8,s0,s8
     ae0:	d30c3c03          	ld	s8,-720(s8) # d30 <.LBB78_3+0xad8>
     ae4:	01bc0c33          	add	s8,s8,s11
     ae8:	001c0223          	sb	ra,4(s8)
     aec:	00001d37          	lui	s10,0x1
     af0:	41a40d33          	sub	s10,s0,s10
     af4:	590d3d03          	ld	s10,1424(s10) # 1590 <.LBB78_4+0x3dc>
     af8:	080d4093          	xori	ra,s10,128
     afc:	001c01a3          	sb	ra,3(s8)
     b00:	00001d37          	lui	s10,0x1
     b04:	41a40d33          	sub	s10,s0,s10
     b08:	5a0d3d03          	ld	s10,1440(s10) # 15a0 <.LBB78_4+0x3ec>
     b0c:	080d4093          	xori	ra,s10,128
     b10:	001c0123          	sb	ra,2(s8)
     b14:	00001d37          	lui	s10,0x1
     b18:	41a40d33          	sub	s10,s0,s10
     b1c:	5b0d3d03          	ld	s10,1456(s10) # 15b0 <.LBB78_4+0x3fc>
     b20:	080d4093          	xori	ra,s10,128
     b24:	001c00a3          	sb	ra,1(s8)
     b28:	00001d37          	lui	s10,0x1
     b2c:	41a40d33          	sub	s10,s0,s10
     b30:	5c0d3d03          	ld	s10,1472(s10) # 15c0 <.LBB78_4+0x40c>
     b34:	080d4093          	xori	ra,s10,128
     b38:	001c0023          	sb	ra,0(s8)
     b3c:	00001d37          	lui	s10,0x1
     b40:	41a40d33          	sub	s10,s0,s10
     b44:	5d0d3d03          	ld	s10,1488(s10) # 15d0 <.LBB78_4+0x41c>
     b48:	080d4093          	xori	ra,s10,128
     b4c:	001c02a3          	sb	ra,5(s8)
     b50:	00001d37          	lui	s10,0x1
     b54:	41a40d33          	sub	s10,s0,s10
     b58:	5e0d3d03          	ld	s10,1504(s10) # 15e0 <.LBB78_4+0x42c>
     b5c:	080d4093          	xori	ra,s10,128
     b60:	001c0323          	sb	ra,6(s8)
     b64:	00001d37          	lui	s10,0x1
     b68:	41a40d33          	sub	s10,s0,s10
     b6c:	5f0d3d03          	ld	s10,1520(s10) # 15f0 <.LBB78_4+0x43c>
     b70:	080d4093          	xori	ra,s10,128
     b74:	001c03a3          	sb	ra,7(s8)
     b78:	00001d37          	lui	s10,0x1
     b7c:	41a40d33          	sub	s10,s0,s10
     b80:	600d3d03          	ld	s10,1536(s10) # 1600 <.LBB78_4+0x44c>
     b84:	080d4093          	xori	ra,s10,128
     b88:	001c0423          	sb	ra,8(s8)
     b8c:	00001d37          	lui	s10,0x1
     b90:	41a40d33          	sub	s10,s0,s10
     b94:	610d3d03          	ld	s10,1552(s10) # 1610 <.LBB78_4+0x45c>
     b98:	080d4093          	xori	ra,s10,128
     b9c:	001c04a3          	sb	ra,9(s8)
     ba0:	00001d37          	lui	s10,0x1
     ba4:	41a40d33          	sub	s10,s0,s10
     ba8:	620d3d03          	ld	s10,1568(s10) # 1620 <.LBB78_4+0x46c>
     bac:	080d4093          	xori	ra,s10,128
     bb0:	001c0523          	sb	ra,10(s8)
     bb4:	00001d37          	lui	s10,0x1
     bb8:	41a40d33          	sub	s10,s0,s10
     bbc:	630d3d03          	ld	s10,1584(s10) # 1630 <.LBB78_4+0x47c>
     bc0:	080d4093          	xori	ra,s10,128
     bc4:	001c05a3          	sb	ra,11(s8)
     bc8:	00001d37          	lui	s10,0x1
     bcc:	41a40d33          	sub	s10,s0,s10
     bd0:	640d3d03          	ld	s10,1600(s10) # 1640 <.LBB78_4+0x48c>
     bd4:	080d4093          	xori	ra,s10,128
     bd8:	001c0623          	sb	ra,12(s8)
     bdc:	00001d37          	lui	s10,0x1
     be0:	41a40d33          	sub	s10,s0,s10
     be4:	650d3d03          	ld	s10,1616(s10) # 1650 <.LBB78_4+0x49c>
     be8:	080d4093          	xori	ra,s10,128
     bec:	001c06a3          	sb	ra,13(s8)
     bf0:	00001d37          	lui	s10,0x1
     bf4:	41a40d33          	sub	s10,s0,s10
     bf8:	688d3d03          	ld	s10,1672(s10) # 1688 <.LBB78_4+0x4d4>
     bfc:	080d4093          	xori	ra,s10,128
     c00:	001c0723          	sb	ra,14(s8)
     c04:	00001d37          	lui	s10,0x1
     c08:	41a40d33          	sub	s10,s0,s10
     c0c:	6f0d3d03          	ld	s10,1776(s10) # 16f0 <.LBB78_4+0x53c>
     c10:	080d4093          	xori	ra,s10,128
     c14:	001c07a3          	sb	ra,15(s8)
     c18:	00001d37          	lui	s10,0x1
     c1c:	41a40d33          	sub	s10,s0,s10
     c20:	700d3d03          	ld	s10,1792(s10) # 1700 <.LBB78_4+0x54c>
     c24:	080d4093          	xori	ra,s10,128
     c28:	001c0823          	sb	ra,16(s8)
     c2c:	00001d37          	lui	s10,0x1
     c30:	41a40d33          	sub	s10,s0,s10
     c34:	720d3d03          	ld	s10,1824(s10) # 1720 <.LBB78_4+0x56c>
     c38:	080d4093          	xori	ra,s10,128
     c3c:	001c08a3          	sb	ra,17(s8)
     c40:	00001d37          	lui	s10,0x1
     c44:	41a40d33          	sub	s10,s0,s10
     c48:	730d3d03          	ld	s10,1840(s10) # 1730 <.LBB78_4+0x57c>
     c4c:	080d4093          	xori	ra,s10,128
     c50:	001c0923          	sb	ra,18(s8)
     c54:	00001d37          	lui	s10,0x1
     c58:	41a40d33          	sub	s10,s0,s10
     c5c:	740d3d03          	ld	s10,1856(s10) # 1740 <.LBB78_4+0x58c>
     c60:	080d4093          	xori	ra,s10,128
     c64:	001c09a3          	sb	ra,19(s8)
     c68:	00001d37          	lui	s10,0x1
     c6c:	41a40d33          	sub	s10,s0,s10
     c70:	750d3d03          	ld	s10,1872(s10) # 1750 <.LBB78_5+0x4>
     c74:	080d4093          	xori	ra,s10,128
     c78:	001c0a23          	sb	ra,20(s8)
     c7c:	00001d37          	lui	s10,0x1
     c80:	41a40d33          	sub	s10,s0,s10
     c84:	760d3d03          	ld	s10,1888(s10) # 1760 <.LBB78_5+0x14>
     c88:	080d4093          	xori	ra,s10,128
     c8c:	001c0aa3          	sb	ra,21(s8)
     c90:	00001d37          	lui	s10,0x1
     c94:	41a40d33          	sub	s10,s0,s10
     c98:	780d3d03          	ld	s10,1920(s10) # 1780 <.LBB78_5+0x34>
     c9c:	080d4093          	xori	ra,s10,128
     ca0:	001c0b23          	sb	ra,22(s8)
     ca4:	00001d37          	lui	s10,0x1
     ca8:	41a40d33          	sub	s10,s0,s10
     cac:	790d3d03          	ld	s10,1936(s10) # 1790 <.LBB78_5+0x44>
     cb0:	080d4093          	xori	ra,s10,128
     cb4:	001c0ba3          	sb	ra,23(s8)
     cb8:	00001d37          	lui	s10,0x1
     cbc:	41a40d33          	sub	s10,s0,s10
     cc0:	7a0d3d03          	ld	s10,1952(s10) # 17a0 <.LBB78_5+0x54>
     cc4:	080d4093          	xori	ra,s10,128
     cc8:	001c0c23          	sb	ra,24(s8)
     ccc:	00001d37          	lui	s10,0x1
     cd0:	41a40d33          	sub	s10,s0,s10
     cd4:	7b8d3d03          	ld	s10,1976(s10) # 17b8 <.LBB78_5+0x6c>
     cd8:	080d4093          	xori	ra,s10,128
     cdc:	001c0ca3          	sb	ra,25(s8)
     ce0:	00001d37          	lui	s10,0x1
     ce4:	41a40d33          	sub	s10,s0,s10
     ce8:	7c8d3d03          	ld	s10,1992(s10) # 17c8 <.LBB78_5+0x7c>
     cec:	080d4093          	xori	ra,s10,128
     cf0:	001c0d23          	sb	ra,26(s8)
     cf4:	00001d37          	lui	s10,0x1
     cf8:	41a40d33          	sub	s10,s0,s10
     cfc:	7d8d3d03          	ld	s10,2008(s10) # 17d8 <.LBB78_5+0x8c>
     d00:	080d4093          	xori	ra,s10,128
     d04:	001c0da3          	sb	ra,27(s8)
     d08:	00001d37          	lui	s10,0x1
     d0c:	41a40d33          	sub	s10,s0,s10
     d10:	7f0d3d03          	ld	s10,2032(s10) # 17f0 <.LBB78_5+0xa4>
     d14:	080d4093          	xori	ra,s10,128
     d18:	001c0e23          	sb	ra,28(s8)
     d1c:	80043d03          	ld	s10,-2048(s0)
     d20:	080d4093          	xori	ra,s10,128
     d24:	001c0ea3          	sb	ra,29(s8)
     d28:	81043d03          	ld	s10,-2032(s0)
     d2c:	080d4093          	xori	ra,s10,128
     d30:	001c0f23          	sb	ra,30(s8)
     d34:	82843d03          	ld	s10,-2008(s0)
     d38:	080d4093          	xori	ra,s10,128
     d3c:	001c0fa3          	sb	ra,31(s8)
     d40:	83843c03          	ld	s8,-1992(s0)
     d44:	080c4093          	xori	ra,s8,128
     d48:	00001c37          	lui	s8,0x1
     d4c:	41840c33          	sub	s8,s0,s8
     d50:	d28c3c03          	ld	s8,-728(s8) # d28 <.LBB78_3+0xad0>
     d54:	01bc0c33          	add	s8,s8,s11
     d58:	001c0223          	sb	ra,4(s8)
     d5c:	84843d03          	ld	s10,-1976(s0)
     d60:	080d4093          	xori	ra,s10,128
     d64:	001c01a3          	sb	ra,3(s8)
     d68:	86043d03          	ld	s10,-1952(s0)
     d6c:	080d4093          	xori	ra,s10,128
     d70:	001c0123          	sb	ra,2(s8)
     d74:	87043d03          	ld	s10,-1936(s0)
     d78:	080d4093          	xori	ra,s10,128
     d7c:	001c00a3          	sb	ra,1(s8)
     d80:	88843d03          	ld	s10,-1912(s0)
     d84:	080d4093          	xori	ra,s10,128
     d88:	001c0023          	sb	ra,0(s8)
     d8c:	89843d03          	ld	s10,-1896(s0)
     d90:	080d4093          	xori	ra,s10,128
     d94:	001c02a3          	sb	ra,5(s8)
     d98:	8a843d03          	ld	s10,-1880(s0)
     d9c:	080d4093          	xori	ra,s10,128
     da0:	001c0323          	sb	ra,6(s8)
     da4:	8c043d03          	ld	s10,-1856(s0)
     da8:	080d4093          	xori	ra,s10,128
     dac:	001c03a3          	sb	ra,7(s8)
     db0:	8d043d03          	ld	s10,-1840(s0)
     db4:	080d4093          	xori	ra,s10,128
     db8:	001c0423          	sb	ra,8(s8)
     dbc:	8e043d03          	ld	s10,-1824(s0)
     dc0:	080d4093          	xori	ra,s10,128
     dc4:	001c04a3          	sb	ra,9(s8)
     dc8:	8f843d03          	ld	s10,-1800(s0)
     dcc:	080d4093          	xori	ra,s10,128
     dd0:	001c0523          	sb	ra,10(s8)
     dd4:	90843d03          	ld	s10,-1784(s0)
     dd8:	080d4093          	xori	ra,s10,128
     ddc:	001c05a3          	sb	ra,11(s8)
     de0:	91843d03          	ld	s10,-1768(s0)
     de4:	080d4093          	xori	ra,s10,128
     de8:	001c0623          	sb	ra,12(s8)
     dec:	93043d03          	ld	s10,-1744(s0)
     df0:	080d4093          	xori	ra,s10,128
     df4:	001c06a3          	sb	ra,13(s8)
     df8:	94043d03          	ld	s10,-1728(s0)
     dfc:	080d4093          	xori	ra,s10,128
     e00:	001c0723          	sb	ra,14(s8)
     e04:	95843d03          	ld	s10,-1704(s0)
     e08:	080d4093          	xori	ra,s10,128
     e0c:	001c07a3          	sb	ra,15(s8)
     e10:	96843d03          	ld	s10,-1688(s0)
     e14:	080d4093          	xori	ra,s10,128
     e18:	001c0823          	sb	ra,16(s8)
     e1c:	97843d03          	ld	s10,-1672(s0)
     e20:	080d4093          	xori	ra,s10,128
     e24:	001c08a3          	sb	ra,17(s8)
     e28:	99043d03          	ld	s10,-1648(s0)
     e2c:	080d4093          	xori	ra,s10,128
     e30:	001c0923          	sb	ra,18(s8)
     e34:	9a043d03          	ld	s10,-1632(s0)
     e38:	080d4093          	xori	ra,s10,128
     e3c:	001c09a3          	sb	ra,19(s8)
     e40:	9b043d03          	ld	s10,-1616(s0)
     e44:	080d4093          	xori	ra,s10,128
     e48:	001c0a23          	sb	ra,20(s8)
     e4c:	9c843d03          	ld	s10,-1592(s0)
     e50:	080d4093          	xori	ra,s10,128
     e54:	001c0aa3          	sb	ra,21(s8)
     e58:	9d843d03          	ld	s10,-1576(s0)
     e5c:	080d4093          	xori	ra,s10,128
     e60:	001c0b23          	sb	ra,22(s8)
     e64:	9e843d03          	ld	s10,-1560(s0)
     e68:	080d4093          	xori	ra,s10,128
     e6c:	001c0ba3          	sb	ra,23(s8)
     e70:	a0043d03          	ld	s10,-1536(s0)
     e74:	080d4093          	xori	ra,s10,128
     e78:	001c0c23          	sb	ra,24(s8)
     e7c:	a1043d03          	ld	s10,-1520(s0)
     e80:	080d4093          	xori	ra,s10,128
     e84:	001c0ca3          	sb	ra,25(s8)
     e88:	a2843d03          	ld	s10,-1496(s0)
     e8c:	080d4093          	xori	ra,s10,128
     e90:	001c0d23          	sb	ra,26(s8)
     e94:	a3843d03          	ld	s10,-1480(s0)
     e98:	080d4093          	xori	ra,s10,128
     e9c:	001c0da3          	sb	ra,27(s8)
     ea0:	a4843d03          	ld	s10,-1464(s0)
     ea4:	080d4093          	xori	ra,s10,128
     ea8:	001c0e23          	sb	ra,28(s8)
     eac:	a6043d03          	ld	s10,-1440(s0)
     eb0:	080d4093          	xori	ra,s10,128
     eb4:	001c0ea3          	sb	ra,29(s8)
     eb8:	a7043d03          	ld	s10,-1424(s0)
     ebc:	080d4093          	xori	ra,s10,128
     ec0:	001c0f23          	sb	ra,30(s8)
     ec4:	a8043d03          	ld	s10,-1408(s0)
     ec8:	080d4093          	xori	ra,s10,128
     ecc:	001c0fa3          	sb	ra,31(s8)
     ed0:	a9843c03          	ld	s8,-1384(s0)
     ed4:	080c4093          	xori	ra,s8,128
     ed8:	00001c37          	lui	s8,0x1
     edc:	41840c33          	sub	s8,s0,s8
     ee0:	d20c3c03          	ld	s8,-736(s8) # d20 <.LBB78_3+0xac8>
     ee4:	01bc0c33          	add	s8,s8,s11
     ee8:	001c0223          	sb	ra,4(s8)
     eec:	aa843d03          	ld	s10,-1368(s0)
     ef0:	080d4093          	xori	ra,s10,128
     ef4:	001c01a3          	sb	ra,3(s8)
     ef8:	ab843d03          	ld	s10,-1352(s0)
     efc:	080d4093          	xori	ra,s10,128
     f00:	001c0123          	sb	ra,2(s8)
     f04:	ad043d03          	ld	s10,-1328(s0)
     f08:	080d4093          	xori	ra,s10,128
     f0c:	001c00a3          	sb	ra,1(s8)
     f10:	ae043d03          	ld	s10,-1312(s0)
     f14:	080d4093          	xori	ra,s10,128
     f18:	001c0023          	sb	ra,0(s8)
     f1c:	af043d03          	ld	s10,-1296(s0)
     f20:	080d4093          	xori	ra,s10,128
     f24:	001c02a3          	sb	ra,5(s8)
     f28:	b0843d03          	ld	s10,-1272(s0)
     f2c:	080d4093          	xori	ra,s10,128
     f30:	001c0323          	sb	ra,6(s8)
     f34:	b1843d03          	ld	s10,-1256(s0)
     f38:	080d4093          	xori	ra,s10,128
     f3c:	001c03a3          	sb	ra,7(s8)
     f40:	b3043d03          	ld	s10,-1232(s0)
     f44:	080d4093          	xori	ra,s10,128
     f48:	001c0423          	sb	ra,8(s8)
     f4c:	b4043d03          	ld	s10,-1216(s0)
     f50:	080d4093          	xori	ra,s10,128
     f54:	001c04a3          	sb	ra,9(s8)
     f58:	b5043d03          	ld	s10,-1200(s0)
     f5c:	080d4093          	xori	ra,s10,128
     f60:	001c0523          	sb	ra,10(s8)
     f64:	b6843d03          	ld	s10,-1176(s0)
     f68:	080d4093          	xori	ra,s10,128
     f6c:	001c05a3          	sb	ra,11(s8)
     f70:	b7843d03          	ld	s10,-1160(s0)
     f74:	080d4093          	xori	ra,s10,128
     f78:	001c0623          	sb	ra,12(s8)
     f7c:	b8843d03          	ld	s10,-1144(s0)
     f80:	080d4093          	xori	ra,s10,128
     f84:	001c06a3          	sb	ra,13(s8)
     f88:	ba043d03          	ld	s10,-1120(s0)
     f8c:	080d4093          	xori	ra,s10,128
     f90:	001c0723          	sb	ra,14(s8)
     f94:	bb043d03          	ld	s10,-1104(s0)
     f98:	080d4093          	xori	ra,s10,128
     f9c:	001c07a3          	sb	ra,15(s8)
     fa0:	bc043d03          	ld	s10,-1088(s0)
     fa4:	080d4093          	xori	ra,s10,128
     fa8:	001c0823          	sb	ra,16(s8)
     fac:	bd843d03          	ld	s10,-1064(s0)
     fb0:	080d4093          	xori	ra,s10,128
     fb4:	001c08a3          	sb	ra,17(s8)
     fb8:	be843d03          	ld	s10,-1048(s0)
     fbc:	080d4093          	xori	ra,s10,128
     fc0:	001c0923          	sb	ra,18(s8)
     fc4:	c0043d03          	ld	s10,-1024(s0)
     fc8:	080d4093          	xori	ra,s10,128
     fcc:	001c09a3          	sb	ra,19(s8)
     fd0:	c1043d03          	ld	s10,-1008(s0)
     fd4:	080d4093          	xori	ra,s10,128
     fd8:	001c0a23          	sb	ra,20(s8)
     fdc:	c2043d03          	ld	s10,-992(s0)
     fe0:	080d4093          	xori	ra,s10,128
     fe4:	001c0aa3          	sb	ra,21(s8)
     fe8:	c3843d03          	ld	s10,-968(s0)
     fec:	080d4093          	xori	ra,s10,128
     ff0:	001c0b23          	sb	ra,22(s8)
     ff4:	c4843d03          	ld	s10,-952(s0)
     ff8:	080d4093          	xori	ra,s10,128
     ffc:	001c0ba3          	sb	ra,23(s8)
    1000:	c5843d03          	ld	s10,-936(s0)
    1004:	080d4093          	xori	ra,s10,128
    1008:	001c0c23          	sb	ra,24(s8)
    100c:	c7043d03          	ld	s10,-912(s0)
    1010:	080d4093          	xori	ra,s10,128
    1014:	001c0ca3          	sb	ra,25(s8)
    1018:	c8043d03          	ld	s10,-896(s0)
    101c:	080d4093          	xori	ra,s10,128
    1020:	001c0d23          	sb	ra,26(s8)
    1024:	c9043d03          	ld	s10,-880(s0)
    1028:	080d4093          	xori	ra,s10,128
    102c:	001c0da3          	sb	ra,27(s8)
    1030:	ca043d03          	ld	s10,-864(s0)
    1034:	080d4093          	xori	ra,s10,128
    1038:	001c0e23          	sb	ra,28(s8)
    103c:	cb043d03          	ld	s10,-848(s0)
    1040:	080d4093          	xori	ra,s10,128
    1044:	001c0ea3          	sb	ra,29(s8)
    1048:	cc043d03          	ld	s10,-832(s0)
    104c:	080d4093          	xori	ra,s10,128
    1050:	001c0f23          	sb	ra,30(s8)
    1054:	cd043d03          	ld	s10,-816(s0)
    1058:	080d4093          	xori	ra,s10,128
    105c:	001c0fa3          	sb	ra,31(s8)
    1060:	ce043c03          	ld	s8,-800(s0)
    1064:	080c4093          	xori	ra,s8,128
    1068:	00001c37          	lui	s8,0x1
    106c:	41840c33          	sub	s8,s0,s8
    1070:	d18c3c03          	ld	s8,-744(s8) # d18 <.LBB78_3+0xac0>
    1074:	01bc0c33          	add	s8,s8,s11
    1078:	001c0223          	sb	ra,4(s8)
    107c:	cf043d03          	ld	s10,-784(s0)
    1080:	080d4093          	xori	ra,s10,128
    1084:	001c01a3          	sb	ra,3(s8)
    1088:	d0043d03          	ld	s10,-768(s0)
    108c:	080d4093          	xori	ra,s10,128
    1090:	001c0123          	sb	ra,2(s8)
    1094:	d1043d03          	ld	s10,-752(s0)
    1098:	080d4093          	xori	ra,s10,128
    109c:	001c00a3          	sb	ra,1(s8)
    10a0:	d2043d03          	ld	s10,-736(s0)
    10a4:	080d4093          	xori	ra,s10,128
    10a8:	001c0023          	sb	ra,0(s8)
    10ac:	d3043d03          	ld	s10,-720(s0)
    10b0:	080d4093          	xori	ra,s10,128
    10b4:	001c02a3          	sb	ra,5(s8)
    10b8:	d4043d03          	ld	s10,-704(s0)
    10bc:	080d4093          	xori	ra,s10,128
    10c0:	001c0323          	sb	ra,6(s8)
    10c4:	d5043d03          	ld	s10,-688(s0)
    10c8:	080d4d13          	xori	s10,s10,128
    10cc:	01ac03a3          	sb	s10,7(s8)
    10d0:	d6043d03          	ld	s10,-672(s0)
    10d4:	080d4d13          	xori	s10,s10,128
    10d8:	01ac0423          	sb	s10,8(s8)
    10dc:	080ccc93          	xori	s9,s9,128
    10e0:	019c04a3          	sb	s9,9(s8)
    10e4:	08054513          	xori	a0,a0,128
    10e8:	00ac0523          	sb	a0,10(s8)
    10ec:	0805c513          	xori	a0,a1,128
    10f0:	00ac05a3          	sb	a0,11(s8)
    10f4:	08064513          	xori	a0,a2,128
    10f8:	00ac0623          	sb	a0,12(s8)
    10fc:	0806c513          	xori	a0,a3,128
    1100:	00ac06a3          	sb	a0,13(s8)
    1104:	08074513          	xori	a0,a4,128
    1108:	00ac0723          	sb	a0,14(s8)
    110c:	0807c513          	xori	a0,a5,128
    1110:	00ac07a3          	sb	a0,15(s8)
    1114:	08084513          	xori	a0,a6,128
    1118:	00ac0823          	sb	a0,16(s8)
    111c:	0808c513          	xori	a0,a7,128
    1120:	00ac08a3          	sb	a0,17(s8)
    1124:	0802c513          	xori	a0,t0,128
    1128:	00ac0923          	sb	a0,18(s8)
    112c:	08034513          	xori	a0,t1,128
    1130:	00ac09a3          	sb	a0,19(s8)
    1134:	0803c513          	xori	a0,t2,128
    1138:	00ac0a23          	sb	a0,20(s8)
    113c:	080e4513          	xori	a0,t3,128
    1140:	00ac0aa3          	sb	a0,21(s8)
    1144:	080ec513          	xori	a0,t4,128
    1148:	00ac0b23          	sb	a0,22(s8)
    114c:	080f4513          	xori	a0,t5,128
    1150:	00ac0ba3          	sb	a0,23(s8)
    1154:	080fc513          	xori	a0,t6,128
    1158:	00ac0c23          	sb	a0,24(s8)
    115c:	0804c513          	xori	a0,s1,128
    1160:	00ac0ca3          	sb	a0,25(s8)
    1164:	08094513          	xori	a0,s2,128
    1168:	00ac0d23          	sb	a0,26(s8)
    116c:	0809c513          	xori	a0,s3,128
    1170:	00ac0da3          	sb	a0,27(s8)
    1174:	080a4513          	xori	a0,s4,128
    1178:	00ac0e23          	sb	a0,28(s8)
    117c:	080ac513          	xori	a0,s5,128
    1180:	00ac0ea3          	sb	a0,29(s8)
    1184:	080b4513          	xori	a0,s6,128
    1188:	00ac0f23          	sb	a0,30(s8)
    118c:	080bc513          	xori	a0,s7,128
    1190:	00ac0fa3          	sb	a0,31(s8)
    1194:	020d8593          	addi	a1,s11,32
    1198:	00001537          	lui	a0,0x1
    119c:	40a40533          	sub	a0,s0,a0
    11a0:	65853803          	ld	a6,1624(a0) # 1658 <.LBB78_4+0x4a4>
    11a4:	02080813          	addi	a6,a6,32
    11a8:	22000513          	li	a0,544
    11ac:	00ade463          	bltu	s11,a0,11b4 <.LBB78_4>
    11b0:	f59fe06f          	j	108 <.LBB78_1>

00000000000011b4 <.LBB78_4>:
    11b4:	00001537          	lui	a0,0x1
    11b8:	40a40533          	sub	a0,s0,a0
    11bc:	66b53823          	sd	a1,1648(a0) # 1670 <.LBB78_4+0x4bc>
    11c0:	00001537          	lui	a0,0x1
    11c4:	40a40533          	sub	a0,s0,a0
    11c8:	65053c23          	sd	a6,1624(a0) # 1658 <.LBB78_4+0x4a4>
    11cc:	00080313          	mv	t1,a6
    11d0:	00001537          	lui	a0,0x1
    11d4:	40a40533          	sub	a0,s0,a0
    11d8:	d6853583          	ld	a1,-664(a0) # d68 <.LBB78_3+0xb10>
    11dc:	00001537          	lui	a0,0x1
    11e0:	40a40533          	sub	a0,s0,a0
    11e4:	6c053023          	sd	zero,1728(a0) # 16c0 <.LBB78_4+0x50c>
    11e8:	00001537          	lui	a0,0x1
    11ec:	40a40533          	sub	a0,s0,a0
    11f0:	6a053c23          	sd	zero,1720(a0) # 16b8 <.LBB78_4+0x504>
    11f4:	00001537          	lui	a0,0x1
    11f8:	40a40533          	sub	a0,s0,a0
    11fc:	6a053823          	sd	zero,1712(a0) # 16b0 <.LBB78_4+0x4fc>
    1200:	00001537          	lui	a0,0x1
    1204:	40a40533          	sub	a0,s0,a0
    1208:	6a053423          	sd	zero,1704(a0) # 16a8 <.LBB78_4+0x4f4>
    120c:	00001537          	lui	a0,0x1
    1210:	40a40533          	sub	a0,s0,a0
    1214:	6c053423          	sd	zero,1736(a0) # 16c8 <.LBB78_4+0x514>
    1218:	00001537          	lui	a0,0x1
    121c:	40a40533          	sub	a0,s0,a0
    1220:	6a053023          	sd	zero,1696(a0) # 16a0 <.LBB78_4+0x4ec>
    1224:	00001537          	lui	a0,0x1
    1228:	40a40533          	sub	a0,s0,a0
    122c:	68053c23          	sd	zero,1688(a0) # 1698 <.LBB78_4+0x4e4>
    1230:	00001537          	lui	a0,0x1
    1234:	40a40533          	sub	a0,s0,a0
    1238:	68053823          	sd	zero,1680(a0) # 1690 <.LBB78_4+0x4dc>
    123c:	00001537          	lui	a0,0x1
    1240:	40a40533          	sub	a0,s0,a0
    1244:	6c053823          	sd	zero,1744(a0) # 16d0 <.LBB78_4+0x51c>
    1248:	00001537          	lui	a0,0x1
    124c:	40a40533          	sub	a0,s0,a0
    1250:	6c053c23          	sd	zero,1752(a0) # 16d8 <.LBB78_4+0x524>
    1254:	00001537          	lui	a0,0x1
    1258:	40a40533          	sub	a0,s0,a0
    125c:	6e053023          	sd	zero,1760(a0) # 16e0 <.LBB78_4+0x52c>
    1260:	00001537          	lui	a0,0x1
    1264:	40a40533          	sub	a0,s0,a0
    1268:	6e053423          	sd	zero,1768(a0) # 16e8 <.LBB78_4+0x534>
    126c:	00001537          	lui	a0,0x1
    1270:	40a40533          	sub	a0,s0,a0
    1274:	6e053823          	sd	zero,1776(a0) # 16f0 <.LBB78_4+0x53c>
    1278:	00001537          	lui	a0,0x1
    127c:	40a40533          	sub	a0,s0,a0
    1280:	6e053c23          	sd	zero,1784(a0) # 16f8 <.LBB78_4+0x544>
    1284:	00001537          	lui	a0,0x1
    1288:	40a40533          	sub	a0,s0,a0
    128c:	70053023          	sd	zero,1792(a0) # 1700 <.LBB78_4+0x54c>
    1290:	00001537          	lui	a0,0x1
    1294:	40a40533          	sub	a0,s0,a0
    1298:	70053423          	sd	zero,1800(a0) # 1708 <.LBB78_4+0x554>
    129c:	00001537          	lui	a0,0x1
    12a0:	40a40533          	sub	a0,s0,a0
    12a4:	70053823          	sd	zero,1808(a0) # 1710 <.LBB78_4+0x55c>
    12a8:	00001537          	lui	a0,0x1
    12ac:	40a40533          	sub	a0,s0,a0
    12b0:	70053c23          	sd	zero,1816(a0) # 1718 <.LBB78_4+0x564>
    12b4:	00001537          	lui	a0,0x1
    12b8:	40a40533          	sub	a0,s0,a0
    12bc:	72053023          	sd	zero,1824(a0) # 1720 <.LBB78_4+0x56c>
    12c0:	00001537          	lui	a0,0x1
    12c4:	40a40533          	sub	a0,s0,a0
    12c8:	72053423          	sd	zero,1832(a0) # 1728 <.LBB78_4+0x574>
    12cc:	00001537          	lui	a0,0x1
    12d0:	40a40533          	sub	a0,s0,a0
    12d4:	72053823          	sd	zero,1840(a0) # 1730 <.LBB78_4+0x57c>
    12d8:	00001537          	lui	a0,0x1
    12dc:	40a40533          	sub	a0,s0,a0
    12e0:	72053c23          	sd	zero,1848(a0) # 1738 <.LBB78_4+0x584>
    12e4:	00001537          	lui	a0,0x1
    12e8:	40a40533          	sub	a0,s0,a0
    12ec:	74053023          	sd	zero,1856(a0) # 1740 <.LBB78_4+0x58c>
    12f0:	00001537          	lui	a0,0x1
    12f4:	40a40533          	sub	a0,s0,a0
    12f8:	74053423          	sd	zero,1864(a0) # 1748 <.LBB78_4+0x594>
    12fc:	00001537          	lui	a0,0x1
    1300:	40a40533          	sub	a0,s0,a0
    1304:	74053823          	sd	zero,1872(a0) # 1750 <.LBB78_5+0x4>
    1308:	00001537          	lui	a0,0x1
    130c:	40a40533          	sub	a0,s0,a0
    1310:	74053c23          	sd	zero,1880(a0) # 1758 <.LBB78_5+0xc>
    1314:	00001537          	lui	a0,0x1
    1318:	40a40533          	sub	a0,s0,a0
    131c:	76053023          	sd	zero,1888(a0) # 1760 <.LBB78_5+0x14>
    1320:	00001537          	lui	a0,0x1
    1324:	40a40533          	sub	a0,s0,a0
    1328:	76053423          	sd	zero,1896(a0) # 1768 <.LBB78_5+0x1c>
    132c:	00001537          	lui	a0,0x1
    1330:	40a40533          	sub	a0,s0,a0
    1334:	76053823          	sd	zero,1904(a0) # 1770 <.LBB78_5+0x24>
    1338:	00000093          	li	ra,0
    133c:	00001537          	lui	a0,0x1
    1340:	40a40533          	sub	a0,s0,a0
    1344:	76053c23          	sd	zero,1912(a0) # 1778 <.LBB78_5+0x2c>
    1348:	00001537          	lui	a0,0x1
    134c:	40a40533          	sub	a0,s0,a0
    1350:	78053023          	sd	zero,1920(a0) # 1780 <.LBB78_5+0x34>
    1354:	00001537          	lui	a0,0x1
    1358:	40a40533          	sub	a0,s0,a0
    135c:	7a053423          	sd	zero,1960(a0) # 17a8 <.LBB78_5+0x5c>
    1360:	00001537          	lui	a0,0x1
    1364:	40a40533          	sub	a0,s0,a0
    1368:	7a053023          	sd	zero,1952(a0) # 17a0 <.LBB78_5+0x54>
    136c:	00001537          	lui	a0,0x1
    1370:	40a40533          	sub	a0,s0,a0
    1374:	78053c23          	sd	zero,1944(a0) # 1798 <.LBB78_5+0x4c>
    1378:	00001537          	lui	a0,0x1
    137c:	40a40533          	sub	a0,s0,a0
    1380:	78053823          	sd	zero,1936(a0) # 1790 <.LBB78_5+0x44>
    1384:	00001537          	lui	a0,0x1
    1388:	40a40533          	sub	a0,s0,a0
    138c:	78053423          	sd	zero,1928(a0) # 1788 <.LBB78_5+0x3c>
    1390:	00001537          	lui	a0,0x1
    1394:	40a40533          	sub	a0,s0,a0
    1398:	7a053823          	sd	zero,1968(a0) # 17b0 <.LBB78_5+0x64>
    139c:	00001537          	lui	a0,0x1
    13a0:	40a40533          	sub	a0,s0,a0
    13a4:	7a053c23          	sd	zero,1976(a0) # 17b8 <.LBB78_5+0x6c>
    13a8:	00001537          	lui	a0,0x1
    13ac:	40a40533          	sub	a0,s0,a0
    13b0:	7c053023          	sd	zero,1984(a0) # 17c0 <.LBB78_5+0x74>
    13b4:	00001537          	lui	a0,0x1
    13b8:	40a40533          	sub	a0,s0,a0
    13bc:	7c053423          	sd	zero,1992(a0) # 17c8 <.LBB78_5+0x7c>
    13c0:	00001537          	lui	a0,0x1
    13c4:	40a40533          	sub	a0,s0,a0
    13c8:	7c053823          	sd	zero,2000(a0) # 17d0 <.LBB78_5+0x84>
    13cc:	00001537          	lui	a0,0x1
    13d0:	40a40533          	sub	a0,s0,a0
    13d4:	7c053c23          	sd	zero,2008(a0) # 17d8 <.LBB78_5+0x8c>
    13d8:	00001537          	lui	a0,0x1
    13dc:	40a40533          	sub	a0,s0,a0
    13e0:	7e053023          	sd	zero,2016(a0) # 17e0 <.LBB78_5+0x94>
    13e4:	00001537          	lui	a0,0x1
    13e8:	40a40533          	sub	a0,s0,a0
    13ec:	7e053423          	sd	zero,2024(a0) # 17e8 <.LBB78_5+0x9c>
    13f0:	00001537          	lui	a0,0x1
    13f4:	40a40533          	sub	a0,s0,a0
    13f8:	7e053823          	sd	zero,2032(a0) # 17f0 <.LBB78_5+0xa4>
    13fc:	00001537          	lui	a0,0x1
    1400:	40a40533          	sub	a0,s0,a0
    1404:	7e053c23          	sd	zero,2040(a0) # 17f8 <.LBB78_5+0xac>
    1408:	80043023          	sd	zero,-2048(s0)
    140c:	80043423          	sd	zero,-2040(s0)
    1410:	80043823          	sd	zero,-2032(s0)
    1414:	80043c23          	sd	zero,-2024(s0)
    1418:	82043023          	sd	zero,-2016(s0)
    141c:	82043423          	sd	zero,-2008(s0)
    1420:	82043823          	sd	zero,-2000(s0)
    1424:	82043c23          	sd	zero,-1992(s0)
    1428:	84043023          	sd	zero,-1984(s0)
    142c:	84043423          	sd	zero,-1976(s0)
    1430:	84043823          	sd	zero,-1968(s0)
    1434:	84043c23          	sd	zero,-1960(s0)
    1438:	86043023          	sd	zero,-1952(s0)
    143c:	86043423          	sd	zero,-1944(s0)
    1440:	86043823          	sd	zero,-1936(s0)
    1444:	86043c23          	sd	zero,-1928(s0)
    1448:	88043023          	sd	zero,-1920(s0)
    144c:	8a043423          	sd	zero,-1880(s0)
    1450:	8a043023          	sd	zero,-1888(s0)
    1454:	88043c23          	sd	zero,-1896(s0)
    1458:	88043823          	sd	zero,-1904(s0)
    145c:	88043423          	sd	zero,-1912(s0)
    1460:	8a043823          	sd	zero,-1872(s0)
    1464:	8a043c23          	sd	zero,-1864(s0)
    1468:	8c043023          	sd	zero,-1856(s0)
    146c:	8c043423          	sd	zero,-1848(s0)
    1470:	8c043823          	sd	zero,-1840(s0)
    1474:	8c043c23          	sd	zero,-1832(s0)
    1478:	8e043023          	sd	zero,-1824(s0)
    147c:	8e043423          	sd	zero,-1816(s0)
    1480:	8e043823          	sd	zero,-1808(s0)
    1484:	8e043c23          	sd	zero,-1800(s0)
    1488:	90043023          	sd	zero,-1792(s0)
    148c:	90043423          	sd	zero,-1784(s0)
    1490:	90043823          	sd	zero,-1776(s0)
    1494:	90043c23          	sd	zero,-1768(s0)
    1498:	92043023          	sd	zero,-1760(s0)
    149c:	92043423          	sd	zero,-1752(s0)
    14a0:	92043823          	sd	zero,-1744(s0)
    14a4:	92043c23          	sd	zero,-1736(s0)
    14a8:	94043023          	sd	zero,-1728(s0)
    14ac:	94043423          	sd	zero,-1720(s0)
    14b0:	94043823          	sd	zero,-1712(s0)
    14b4:	94043c23          	sd	zero,-1704(s0)
    14b8:	96043023          	sd	zero,-1696(s0)
    14bc:	96043423          	sd	zero,-1688(s0)
    14c0:	96043823          	sd	zero,-1680(s0)
    14c4:	96043c23          	sd	zero,-1672(s0)
    14c8:	98043023          	sd	zero,-1664(s0)
    14cc:	9a043423          	sd	zero,-1624(s0)
    14d0:	9a043023          	sd	zero,-1632(s0)
    14d4:	98043c23          	sd	zero,-1640(s0)
    14d8:	98043823          	sd	zero,-1648(s0)
    14dc:	98043423          	sd	zero,-1656(s0)
    14e0:	9a043823          	sd	zero,-1616(s0)
    14e4:	9a043c23          	sd	zero,-1608(s0)
    14e8:	9c043023          	sd	zero,-1600(s0)
    14ec:	9c043423          	sd	zero,-1592(s0)
    14f0:	9c043823          	sd	zero,-1584(s0)
    14f4:	9c043c23          	sd	zero,-1576(s0)
    14f8:	9e043023          	sd	zero,-1568(s0)
    14fc:	9e043423          	sd	zero,-1560(s0)
    1500:	9e043823          	sd	zero,-1552(s0)
    1504:	9e043c23          	sd	zero,-1544(s0)
    1508:	a0043023          	sd	zero,-1536(s0)
    150c:	a0043423          	sd	zero,-1528(s0)
    1510:	a0043823          	sd	zero,-1520(s0)
    1514:	a0043c23          	sd	zero,-1512(s0)
    1518:	a2043023          	sd	zero,-1504(s0)
    151c:	a2043423          	sd	zero,-1496(s0)
    1520:	a2043823          	sd	zero,-1488(s0)
    1524:	a2043c23          	sd	zero,-1480(s0)
    1528:	a4043023          	sd	zero,-1472(s0)
    152c:	a4043423          	sd	zero,-1464(s0)
    1530:	a4043823          	sd	zero,-1456(s0)
    1534:	a4043c23          	sd	zero,-1448(s0)
    1538:	a6043023          	sd	zero,-1440(s0)
    153c:	a6043423          	sd	zero,-1432(s0)
    1540:	a6043823          	sd	zero,-1424(s0)
    1544:	a6043c23          	sd	zero,-1416(s0)
    1548:	a8043023          	sd	zero,-1408(s0)
    154c:	aa043423          	sd	zero,-1368(s0)
    1550:	aa043023          	sd	zero,-1376(s0)
    1554:	a8043c23          	sd	zero,-1384(s0)
    1558:	a8043823          	sd	zero,-1392(s0)
    155c:	a8043423          	sd	zero,-1400(s0)
    1560:	aa043823          	sd	zero,-1360(s0)
    1564:	aa043c23          	sd	zero,-1352(s0)
    1568:	ac043023          	sd	zero,-1344(s0)
    156c:	ac043423          	sd	zero,-1336(s0)
    1570:	ac043823          	sd	zero,-1328(s0)
    1574:	ac043c23          	sd	zero,-1320(s0)
    1578:	ae043023          	sd	zero,-1312(s0)
    157c:	ae043423          	sd	zero,-1304(s0)
    1580:	ae043823          	sd	zero,-1296(s0)
    1584:	ae043c23          	sd	zero,-1288(s0)
    1588:	b0043023          	sd	zero,-1280(s0)
    158c:	b0043423          	sd	zero,-1272(s0)
    1590:	b0043823          	sd	zero,-1264(s0)
    1594:	b0043c23          	sd	zero,-1256(s0)
    1598:	b2043023          	sd	zero,-1248(s0)
    159c:	b2043423          	sd	zero,-1240(s0)
    15a0:	b2043823          	sd	zero,-1232(s0)
    15a4:	b2043c23          	sd	zero,-1224(s0)
    15a8:	b4043023          	sd	zero,-1216(s0)
    15ac:	b4043423          	sd	zero,-1208(s0)
    15b0:	b4043823          	sd	zero,-1200(s0)
    15b4:	b4043c23          	sd	zero,-1192(s0)
    15b8:	b6043023          	sd	zero,-1184(s0)
    15bc:	b6043423          	sd	zero,-1176(s0)
    15c0:	b6043823          	sd	zero,-1168(s0)
    15c4:	b6043c23          	sd	zero,-1160(s0)
    15c8:	b8043023          	sd	zero,-1152(s0)
    15cc:	ba043423          	sd	zero,-1112(s0)
    15d0:	ba043023          	sd	zero,-1120(s0)
    15d4:	b8043c23          	sd	zero,-1128(s0)
    15d8:	b8043823          	sd	zero,-1136(s0)
    15dc:	b8043423          	sd	zero,-1144(s0)
    15e0:	ba043823          	sd	zero,-1104(s0)
    15e4:	ba043c23          	sd	zero,-1096(s0)
    15e8:	bc043023          	sd	zero,-1088(s0)
    15ec:	bc043423          	sd	zero,-1080(s0)
    15f0:	bc043823          	sd	zero,-1072(s0)
    15f4:	bc043c23          	sd	zero,-1064(s0)
    15f8:	be043023          	sd	zero,-1056(s0)
    15fc:	be043423          	sd	zero,-1048(s0)
    1600:	be043823          	sd	zero,-1040(s0)
    1604:	be043c23          	sd	zero,-1032(s0)
    1608:	c0043023          	sd	zero,-1024(s0)
    160c:	c0043423          	sd	zero,-1016(s0)
    1610:	c0043823          	sd	zero,-1008(s0)
    1614:	c0043c23          	sd	zero,-1000(s0)
    1618:	c2043023          	sd	zero,-992(s0)
    161c:	c2043423          	sd	zero,-984(s0)
    1620:	c2043823          	sd	zero,-976(s0)
    1624:	c2043c23          	sd	zero,-968(s0)
    1628:	c4043023          	sd	zero,-960(s0)
    162c:	c4043423          	sd	zero,-952(s0)
    1630:	c4043823          	sd	zero,-944(s0)
    1634:	c4043c23          	sd	zero,-936(s0)
    1638:	c6043023          	sd	zero,-928(s0)
    163c:	c6043423          	sd	zero,-920(s0)
    1640:	c6043823          	sd	zero,-912(s0)
    1644:	c6043c23          	sd	zero,-904(s0)
    1648:	c8043023          	sd	zero,-896(s0)
    164c:	ca043423          	sd	zero,-856(s0)
    1650:	ca043023          	sd	zero,-864(s0)
    1654:	c8043c23          	sd	zero,-872(s0)
    1658:	c8043823          	sd	zero,-880(s0)
    165c:	c8043423          	sd	zero,-888(s0)
    1660:	ca043823          	sd	zero,-848(s0)
    1664:	ca043c23          	sd	zero,-840(s0)
    1668:	cc043023          	sd	zero,-832(s0)
    166c:	cc043423          	sd	zero,-824(s0)
    1670:	cc043823          	sd	zero,-816(s0)
    1674:	cc043c23          	sd	zero,-808(s0)
    1678:	ce043023          	sd	zero,-800(s0)
    167c:	ce043423          	sd	zero,-792(s0)
    1680:	ce043823          	sd	zero,-784(s0)
    1684:	ce043c23          	sd	zero,-776(s0)
    1688:	d0043023          	sd	zero,-768(s0)
    168c:	d0043423          	sd	zero,-760(s0)
    1690:	d0043823          	sd	zero,-752(s0)
    1694:	d0043c23          	sd	zero,-744(s0)
    1698:	d2043023          	sd	zero,-736(s0)
    169c:	d2043423          	sd	zero,-728(s0)
    16a0:	d2043823          	sd	zero,-720(s0)
    16a4:	d2043c23          	sd	zero,-712(s0)
    16a8:	d4043023          	sd	zero,-704(s0)
    16ac:	d4043423          	sd	zero,-696(s0)
    16b0:	d4043823          	sd	zero,-688(s0)
    16b4:	d4043c23          	sd	zero,-680(s0)
    16b8:	d6043023          	sd	zero,-672(s0)
    16bc:	d6043423          	sd	zero,-664(s0)
    16c0:	d6043823          	sd	zero,-656(s0)
    16c4:	d6043c23          	sd	zero,-648(s0)
    16c8:	d8043023          	sd	zero,-640(s0)
    16cc:	da043423          	sd	zero,-600(s0)
    16d0:	da043023          	sd	zero,-608(s0)
    16d4:	d8043c23          	sd	zero,-616(s0)
    16d8:	d8043823          	sd	zero,-624(s0)
    16dc:	d8043423          	sd	zero,-632(s0)
    16e0:	da043823          	sd	zero,-592(s0)
    16e4:	da043c23          	sd	zero,-584(s0)
    16e8:	00000d93          	li	s11,0
    16ec:	00000d13          	li	s10,0
    16f0:	00000c93          	li	s9,0
    16f4:	00000c13          	li	s8,0
    16f8:	00000b93          	li	s7,0
    16fc:	dc043423          	sd	zero,-568(s0)
    1700:	dc043823          	sd	zero,-560(s0)
    1704:	00000993          	li	s3,0
    1708:	00000913          	li	s2,0
    170c:	00000493          	li	s1,0
    1710:	00000f93          	li	t6,0
    1714:	00000f13          	li	t5,0
    1718:	00000793          	li	a5,0
    171c:	00000e13          	li	t3,0
    1720:	00000393          	li	t2,0
    1724:	00000693          	li	a3,0
    1728:	00000613          	li	a2,0
    172c:	00000513          	li	a0,0
    1730:	00000813          	li	a6,0
    1734:	00000293          	li	t0,0
    1738:	00000893          	li	a7,0
    173c:	e2043423          	sd	zero,-472(s0)
    1740:	e2043823          	sd	zero,-464(s0)
    1744:	e2043c23          	sd	zero,-456(s0)
    1748:	e4043023          	sd	zero,-448(s0)

000000000000174c <.LBB78_5>:
    174c:	f8b43423          	sd	a1,-120(s0)
    1750:	edb43823          	sd	s11,-304(s0)
    1754:	eda43c23          	sd	s10,-296(s0)
    1758:	ef943023          	sd	s9,-288(s0)
    175c:	ef843423          	sd	s8,-280(s0)
    1760:	dd743023          	sd	s7,-576(s0)
    1764:	dd343c23          	sd	s3,-552(s0)
    1768:	df243023          	sd	s2,-544(s0)
    176c:	de943423          	sd	s1,-536(s0)
    1770:	dff43823          	sd	t6,-528(s0)
    1774:	dfe43c23          	sd	t5,-520(s0)
    1778:	eef43823          	sd	a5,-272(s0)
    177c:	e1c43023          	sd	t3,-512(s0)
    1780:	e0743423          	sd	t2,-504(s0)
    1784:	eed43c23          	sd	a3,-264(s0)
    1788:	f0c43023          	sd	a2,-256(s0)
    178c:	f0a43423          	sd	a0,-248(s0)
    1790:	e1043823          	sd	a6,-496(s0)
    1794:	e0543c23          	sd	t0,-488(s0)
    1798:	e3143023          	sd	a7,-480(s0)
    179c:	00058503          	lb	a0,0(a1)
    17a0:	00030f13          	mv	t5,t1
    17a4:	00230603          	lb	a2,2(t1)
    17a8:	f2c43423          	sd	a2,-216(s0)
    17ac:	00130703          	lb	a4,1(t1)
    17b0:	f2e43023          	sd	a4,-224(s0)
    17b4:	00030683          	lb	a3,0(t1)
    17b8:	f8d43023          	sd	a3,-128(s0)
    17bc:	00330783          	lb	a5,3(t1)
    17c0:	f0f43c23          	sd	a5,-232(s0)
    17c4:	00430b83          	lb	s7,4(t1)
    17c8:	f1743823          	sd	s7,-240(s0)
    17cc:	00530c03          	lb	s8,5(t1)
    17d0:	00630d03          	lb	s10,6(t1)
    17d4:	f5a43423          	sd	s10,-184(s0)
    17d8:	00730d83          	lb	s11,7(t1)
    17dc:	e9b43823          	sd	s11,-368(s0)
    17e0:	00008e93          	mv	t4,ra
    17e4:	00830083          	lb	ra,8(t1)
    17e8:	f6143823          	sd	ra,-144(s0)
    17ec:	00930803          	lb	a6,9(t1)
    17f0:	f5043c23          	sd	a6,-168(s0)
    17f4:	00a30883          	lb	a7,10(t1)
    17f8:	00b30983          	lb	s3,11(t1)
    17fc:	00c30903          	lb	s2,12(t1)
    1800:	00d30483          	lb	s1,13(t1)
    1804:	00e30283          	lb	t0,14(t1)
    1808:	ea543023          	sd	t0,-352(s0)
    180c:	00f30303          	lb	t1,15(t1)
    1810:	010f0383          	lb	t2,16(t5)
    1814:	f4743823          	sd	t2,-176(s0)
    1818:	011f0a83          	lb	s5,17(t5)
    181c:	012f0e03          	lb	t3,18(t5)
    1820:	e5c43823          	sd	t3,-432(s0)
    1824:	013f0a03          	lb	s4,19(t5)
    1828:	f7443023          	sd	s4,-160(s0)
    182c:	014f0f83          	lb	t6,20(t5)
    1830:	015f0b03          	lb	s6,21(t5)
    1834:	eb643c23          	sd	s6,-328(s0)
    1838:	016f0c83          	lb	s9,22(t5)
    183c:	017f0583          	lb	a1,23(t5)
    1840:	f4b43023          	sd	a1,-192(s0)
    1844:	018f0583          	lb	a1,24(t5)
    1848:	f6b43c23          	sd	a1,-136(s0)
    184c:	02c505b3          	mul	a1,a0,a2
    1850:	00001637          	lui	a2,0x1
    1854:	40c40633          	sub	a2,s0,a2
    1858:	6b063603          	ld	a2,1712(a2) # 16b0 <.LBB78_4+0x4fc>
    185c:	00c58633          	add	a2,a1,a2
    1860:	000015b7          	lui	a1,0x1
    1864:	40b405b3          	sub	a1,s0,a1
    1868:	6ac5b823          	sd	a2,1712(a1) # 16b0 <.LBB78_4+0x4fc>
    186c:	02e505b3          	mul	a1,a0,a4
    1870:	00001637          	lui	a2,0x1
    1874:	40c40633          	sub	a2,s0,a2
    1878:	6b863603          	ld	a2,1720(a2) # 16b8 <.LBB78_4+0x504>
    187c:	00c58633          	add	a2,a1,a2
    1880:	000015b7          	lui	a1,0x1
    1884:	40b405b3          	sub	a1,s0,a1
    1888:	6ac5bc23          	sd	a2,1720(a1) # 16b8 <.LBB78_4+0x504>
    188c:	02d505b3          	mul	a1,a0,a3
    1890:	00001637          	lui	a2,0x1
    1894:	40c40633          	sub	a2,s0,a2
    1898:	6c063603          	ld	a2,1728(a2) # 16c0 <.LBB78_4+0x50c>
    189c:	00c58633          	add	a2,a1,a2
    18a0:	000015b7          	lui	a1,0x1
    18a4:	40b405b3          	sub	a1,s0,a1
    18a8:	6cc5b023          	sd	a2,1728(a1) # 16c0 <.LBB78_4+0x50c>
    18ac:	02f505b3          	mul	a1,a0,a5
    18b0:	00001637          	lui	a2,0x1
    18b4:	40c40633          	sub	a2,s0,a2
    18b8:	6a863603          	ld	a2,1704(a2) # 16a8 <.LBB78_4+0x4f4>
    18bc:	00c58633          	add	a2,a1,a2
    18c0:	000015b7          	lui	a1,0x1
    18c4:	40b405b3          	sub	a1,s0,a1
    18c8:	6ac5b423          	sd	a2,1704(a1) # 16a8 <.LBB78_4+0x4f4>
    18cc:	037505b3          	mul	a1,a0,s7
    18d0:	00001637          	lui	a2,0x1
    18d4:	40c40633          	sub	a2,s0,a2
    18d8:	6c863603          	ld	a2,1736(a2) # 16c8 <.LBB78_4+0x514>
    18dc:	00c58633          	add	a2,a1,a2
    18e0:	000015b7          	lui	a1,0x1
    18e4:	40b405b3          	sub	a1,s0,a1
    18e8:	6cc5b423          	sd	a2,1736(a1) # 16c8 <.LBB78_4+0x514>
    18ec:	038505b3          	mul	a1,a0,s8
    18f0:	00001637          	lui	a2,0x1
    18f4:	40c40633          	sub	a2,s0,a2
    18f8:	6a063603          	ld	a2,1696(a2) # 16a0 <.LBB78_4+0x4ec>
    18fc:	00c58633          	add	a2,a1,a2
    1900:	000015b7          	lui	a1,0x1
    1904:	40b405b3          	sub	a1,s0,a1
    1908:	6ac5b023          	sd	a2,1696(a1) # 16a0 <.LBB78_4+0x4ec>
    190c:	03a505b3          	mul	a1,a0,s10
    1910:	00001637          	lui	a2,0x1
    1914:	40c40633          	sub	a2,s0,a2
    1918:	69863603          	ld	a2,1688(a2) # 1698 <.LBB78_4+0x4e4>
    191c:	00c58633          	add	a2,a1,a2
    1920:	000015b7          	lui	a1,0x1
    1924:	40b405b3          	sub	a1,s0,a1
    1928:	68c5bc23          	sd	a2,1688(a1) # 1698 <.LBB78_4+0x4e4>
    192c:	03b505b3          	mul	a1,a0,s11
    1930:	00001637          	lui	a2,0x1
    1934:	40c40633          	sub	a2,s0,a2
    1938:	69063603          	ld	a2,1680(a2) # 1690 <.LBB78_4+0x4dc>
    193c:	00c58633          	add	a2,a1,a2
    1940:	000015b7          	lui	a1,0x1
    1944:	40b405b3          	sub	a1,s0,a1
    1948:	68c5b823          	sd	a2,1680(a1) # 1690 <.LBB78_4+0x4dc>
    194c:	021505b3          	mul	a1,a0,ra
    1950:	00001637          	lui	a2,0x1
    1954:	40c40633          	sub	a2,s0,a2
    1958:	6d063603          	ld	a2,1744(a2) # 16d0 <.LBB78_4+0x51c>
    195c:	00c58633          	add	a2,a1,a2
    1960:	000015b7          	lui	a1,0x1
    1964:	40b405b3          	sub	a1,s0,a1
    1968:	6cc5b823          	sd	a2,1744(a1) # 16d0 <.LBB78_4+0x51c>
    196c:	030505b3          	mul	a1,a0,a6
    1970:	00001637          	lui	a2,0x1
    1974:	40c40633          	sub	a2,s0,a2
    1978:	6d863603          	ld	a2,1752(a2) # 16d8 <.LBB78_4+0x524>
    197c:	00c58633          	add	a2,a1,a2
    1980:	000015b7          	lui	a1,0x1
    1984:	40b405b3          	sub	a1,s0,a1
    1988:	6cc5bc23          	sd	a2,1752(a1) # 16d8 <.LBB78_4+0x524>
    198c:	031505b3          	mul	a1,a0,a7
    1990:	00001637          	lui	a2,0x1
    1994:	40c40633          	sub	a2,s0,a2
    1998:	6e063603          	ld	a2,1760(a2) # 16e0 <.LBB78_4+0x52c>
    199c:	00c58633          	add	a2,a1,a2
    19a0:	000015b7          	lui	a1,0x1
    19a4:	40b405b3          	sub	a1,s0,a1
    19a8:	6ec5b023          	sd	a2,1760(a1) # 16e0 <.LBB78_4+0x52c>
    19ac:	033505b3          	mul	a1,a0,s3
    19b0:	00001637          	lui	a2,0x1
    19b4:	40c40633          	sub	a2,s0,a2
    19b8:	6e863603          	ld	a2,1768(a2) # 16e8 <.LBB78_4+0x534>
    19bc:	00c58633          	add	a2,a1,a2
    19c0:	000015b7          	lui	a1,0x1
    19c4:	40b405b3          	sub	a1,s0,a1
    19c8:	6ec5b423          	sd	a2,1768(a1) # 16e8 <.LBB78_4+0x534>
    19cc:	032505b3          	mul	a1,a0,s2
    19d0:	00001637          	lui	a2,0x1
    19d4:	40c40633          	sub	a2,s0,a2
    19d8:	6f063603          	ld	a2,1776(a2) # 16f0 <.LBB78_4+0x53c>
    19dc:	00c58633          	add	a2,a1,a2
    19e0:	000015b7          	lui	a1,0x1
    19e4:	40b405b3          	sub	a1,s0,a1
    19e8:	6ec5b823          	sd	a2,1776(a1) # 16f0 <.LBB78_4+0x53c>
    19ec:	029505b3          	mul	a1,a0,s1
    19f0:	00001637          	lui	a2,0x1
    19f4:	40c40633          	sub	a2,s0,a2
    19f8:	6f863603          	ld	a2,1784(a2) # 16f8 <.LBB78_4+0x544>
    19fc:	00c58633          	add	a2,a1,a2
    1a00:	000015b7          	lui	a1,0x1
    1a04:	40b405b3          	sub	a1,s0,a1
    1a08:	6ec5bc23          	sd	a2,1784(a1) # 16f8 <.LBB78_4+0x544>
    1a0c:	025505b3          	mul	a1,a0,t0
    1a10:	00001637          	lui	a2,0x1
    1a14:	40c40633          	sub	a2,s0,a2
    1a18:	70063603          	ld	a2,1792(a2) # 1700 <.LBB78_4+0x54c>
    1a1c:	00c58633          	add	a2,a1,a2
    1a20:	000015b7          	lui	a1,0x1
    1a24:	40b405b3          	sub	a1,s0,a1
    1a28:	70c5b023          	sd	a2,1792(a1) # 1700 <.LBB78_4+0x54c>
    1a2c:	026505b3          	mul	a1,a0,t1
    1a30:	00030d93          	mv	s11,t1
    1a34:	e6643423          	sd	t1,-408(s0)
    1a38:	00001637          	lui	a2,0x1
    1a3c:	40c40633          	sub	a2,s0,a2
    1a40:	70863603          	ld	a2,1800(a2) # 1708 <.LBB78_4+0x554>
    1a44:	00c58633          	add	a2,a1,a2
    1a48:	000015b7          	lui	a1,0x1
    1a4c:	40b405b3          	sub	a1,s0,a1
    1a50:	70c5b423          	sd	a2,1800(a1) # 1708 <.LBB78_4+0x554>
    1a54:	027505b3          	mul	a1,a0,t2
    1a58:	00001637          	lui	a2,0x1
    1a5c:	40c40633          	sub	a2,s0,a2
    1a60:	71063603          	ld	a2,1808(a2) # 1710 <.LBB78_4+0x55c>
    1a64:	00c58633          	add	a2,a1,a2
    1a68:	000015b7          	lui	a1,0x1
    1a6c:	40b405b3          	sub	a1,s0,a1
    1a70:	70c5b823          	sd	a2,1808(a1) # 1710 <.LBB78_4+0x55c>
    1a74:	035505b3          	mul	a1,a0,s5
    1a78:	000a8793          	mv	a5,s5
    1a7c:	eb543423          	sd	s5,-344(s0)
    1a80:	00001637          	lui	a2,0x1
    1a84:	40c40633          	sub	a2,s0,a2
    1a88:	71863603          	ld	a2,1816(a2) # 1718 <.LBB78_4+0x564>
    1a8c:	00c58633          	add	a2,a1,a2
    1a90:	000015b7          	lui	a1,0x1
    1a94:	40b405b3          	sub	a1,s0,a1
    1a98:	70c5bc23          	sd	a2,1816(a1) # 1718 <.LBB78_4+0x564>
    1a9c:	03c505b3          	mul	a1,a0,t3
    1aa0:	00001637          	lui	a2,0x1
    1aa4:	40c40633          	sub	a2,s0,a2
    1aa8:	72063603          	ld	a2,1824(a2) # 1720 <.LBB78_4+0x56c>
    1aac:	00c58633          	add	a2,a1,a2
    1ab0:	000015b7          	lui	a1,0x1
    1ab4:	40b405b3          	sub	a1,s0,a1
    1ab8:	72c5b023          	sd	a2,1824(a1) # 1720 <.LBB78_4+0x56c>
    1abc:	034505b3          	mul	a1,a0,s4
    1ac0:	00001637          	lui	a2,0x1
    1ac4:	40c40633          	sub	a2,s0,a2
    1ac8:	72863603          	ld	a2,1832(a2) # 1728 <.LBB78_4+0x574>
    1acc:	00c58633          	add	a2,a1,a2
    1ad0:	000015b7          	lui	a1,0x1
    1ad4:	40b405b3          	sub	a1,s0,a1
    1ad8:	72c5b423          	sd	a2,1832(a1) # 1728 <.LBB78_4+0x574>
    1adc:	03f505b3          	mul	a1,a0,t6
    1ae0:	000f8a13          	mv	s4,t6
    1ae4:	f7f43423          	sd	t6,-152(s0)
    1ae8:	00001637          	lui	a2,0x1
    1aec:	40c40633          	sub	a2,s0,a2
    1af0:	73063603          	ld	a2,1840(a2) # 1730 <.LBB78_4+0x57c>
    1af4:	00c58633          	add	a2,a1,a2
    1af8:	000015b7          	lui	a1,0x1
    1afc:	40b405b3          	sub	a1,s0,a1
    1b00:	72c5b823          	sd	a2,1840(a1) # 1730 <.LBB78_4+0x57c>
    1b04:	036505b3          	mul	a1,a0,s6
    1b08:	00001637          	lui	a2,0x1
    1b0c:	40c40633          	sub	a2,s0,a2
    1b10:	73863603          	ld	a2,1848(a2) # 1738 <.LBB78_4+0x584>
    1b14:	00c58633          	add	a2,a1,a2
    1b18:	000015b7          	lui	a1,0x1
    1b1c:	40b405b3          	sub	a1,s0,a1
    1b20:	72c5bc23          	sd	a2,1848(a1) # 1738 <.LBB78_4+0x584>
    1b24:	039505b3          	mul	a1,a0,s9
    1b28:	000c8b13          	mv	s6,s9
    1b2c:	00001637          	lui	a2,0x1
    1b30:	40c40633          	sub	a2,s0,a2
    1b34:	74063603          	ld	a2,1856(a2) # 1740 <.LBB78_4+0x58c>
    1b38:	00c58633          	add	a2,a1,a2
    1b3c:	000015b7          	lui	a1,0x1
    1b40:	40b405b3          	sub	a1,s0,a1
    1b44:	74c5b023          	sd	a2,1856(a1) # 1740 <.LBB78_4+0x58c>
    1b48:	f4043583          	ld	a1,-192(s0)
    1b4c:	02b505b3          	mul	a1,a0,a1
    1b50:	00001637          	lui	a2,0x1
    1b54:	40c40633          	sub	a2,s0,a2
    1b58:	74863603          	ld	a2,1864(a2) # 1748 <.LBB78_4+0x594>
    1b5c:	00c58633          	add	a2,a1,a2
    1b60:	000015b7          	lui	a1,0x1
    1b64:	40b405b3          	sub	a1,s0,a1
    1b68:	74c5b423          	sd	a2,1864(a1) # 1748 <.LBB78_4+0x594>
    1b6c:	019f0683          	lb	a3,25(t5)
    1b70:	f2d43823          	sd	a3,-208(s0)
    1b74:	f7843583          	ld	a1,-136(s0)
    1b78:	02b505b3          	mul	a1,a0,a1
    1b7c:	00001637          	lui	a2,0x1
    1b80:	40c40633          	sub	a2,s0,a2
    1b84:	75063603          	ld	a2,1872(a2) # 1750 <.LBB78_5+0x4>
    1b88:	00c58633          	add	a2,a1,a2
    1b8c:	000015b7          	lui	a1,0x1
    1b90:	40b405b3          	sub	a1,s0,a1
    1b94:	74c5b823          	sd	a2,1872(a1) # 1750 <.LBB78_5+0x4>
    1b98:	01af0703          	lb	a4,26(t5)
    1b9c:	f2e43c23          	sd	a4,-200(s0)
    1ba0:	02d505b3          	mul	a1,a0,a3
    1ba4:	00001637          	lui	a2,0x1
    1ba8:	40c40633          	sub	a2,s0,a2
    1bac:	75863603          	ld	a2,1880(a2) # 1758 <.LBB78_5+0xc>
    1bb0:	00c58633          	add	a2,a1,a2
    1bb4:	000015b7          	lui	a1,0x1
    1bb8:	40b405b3          	sub	a1,s0,a1
    1bbc:	74c5bc23          	sd	a2,1880(a1) # 1758 <.LBB78_5+0xc>
    1bc0:	01bf0683          	lb	a3,27(t5)
    1bc4:	ecd43423          	sd	a3,-312(s0)
    1bc8:	02e505b3          	mul	a1,a0,a4
    1bcc:	00001637          	lui	a2,0x1
    1bd0:	40c40633          	sub	a2,s0,a2
    1bd4:	76063603          	ld	a2,1888(a2) # 1760 <.LBB78_5+0x14>
    1bd8:	00c58633          	add	a2,a1,a2
    1bdc:	000015b7          	lui	a1,0x1
    1be0:	40b405b3          	sub	a1,s0,a1
    1be4:	76c5b023          	sd	a2,1888(a1) # 1760 <.LBB78_5+0x14>
    1be8:	01cf0703          	lb	a4,28(t5)
    1bec:	e8e43423          	sd	a4,-376(s0)
    1bf0:	02d505b3          	mul	a1,a0,a3
    1bf4:	00001637          	lui	a2,0x1
    1bf8:	40c40633          	sub	a2,s0,a2
    1bfc:	76863603          	ld	a2,1896(a2) # 1768 <.LBB78_5+0x1c>
    1c00:	00c58633          	add	a2,a1,a2
    1c04:	000015b7          	lui	a1,0x1
    1c08:	40b405b3          	sub	a1,s0,a1
    1c0c:	76c5b423          	sd	a2,1896(a1) # 1768 <.LBB78_5+0x1c>
    1c10:	01df0603          	lb	a2,29(t5)
    1c14:	ecc43023          	sd	a2,-320(s0)
    1c18:	02e505b3          	mul	a1,a0,a4
    1c1c:	000016b7          	lui	a3,0x1
    1c20:	40d406b3          	sub	a3,s0,a3
    1c24:	7706bb83          	ld	s7,1904(a3) # 1770 <.LBB78_5+0x24>
    1c28:	01758bb3          	add	s7,a1,s7
    1c2c:	000015b7          	lui	a1,0x1
    1c30:	40b405b3          	sub	a1,s0,a1
    1c34:	7775b823          	sd	s7,1904(a1) # 1770 <.LBB78_5+0x24>
    1c38:	01ef0683          	lb	a3,30(t5)
    1c3c:	e8d43c23          	sd	a3,-360(s0)
    1c40:	02c505b3          	mul	a1,a0,a2
    1c44:	01d58eb3          	add	t4,a1,t4
    1c48:	000015b7          	lui	a1,0x1
    1c4c:	40b405b3          	sub	a1,s0,a1
    1c50:	69d5b423          	sd	t4,1672(a1) # 1688 <.LBB78_4+0x4d4>
    1c54:	01ff0e83          	lb	t4,31(t5)
    1c58:	f8843b83          	ld	s7,-120(s0)
    1c5c:	060b8b83          	lb	s7,96(s7)
    1c60:	02d500b3          	mul	ra,a0,a3
    1c64:	000015b7          	lui	a1,0x1
    1c68:	40b405b3          	sub	a1,s0,a1
    1c6c:	7785bd03          	ld	s10,1912(a1) # 1778 <.LBB78_5+0x2c>
    1c70:	01a08d33          	add	s10,ra,s10
    1c74:	000015b7          	lui	a1,0x1
    1c78:	40b405b3          	sub	a1,s0,a1
    1c7c:	77a5bc23          	sd	s10,1912(a1) # 1778 <.LBB78_5+0x2c>
    1c80:	03d50533          	mul	a0,a0,t4
    1c84:	e9d43023          	sd	t4,-384(s0)
    1c88:	000015b7          	lui	a1,0x1
    1c8c:	40b405b3          	sub	a1,s0,a1
    1c90:	7805bd03          	ld	s10,1920(a1) # 1780 <.LBB78_5+0x34>
    1c94:	01a50d33          	add	s10,a0,s10
    1c98:	00001537          	lui	a0,0x1
    1c9c:	40a40533          	sub	a0,s0,a0
    1ca0:	79a53023          	sd	s10,1920(a0) # 1780 <.LBB78_5+0x34>
    1ca4:	f8043803          	ld	a6,-128(s0)
    1ca8:	030b8533          	mul	a0,s7,a6
    1cac:	000015b7          	lui	a1,0x1
    1cb0:	40b405b3          	sub	a1,s0,a1
    1cb4:	7a85bd03          	ld	s10,1960(a1) # 17a8 <.LBB78_5+0x5c>
    1cb8:	01a50d33          	add	s10,a0,s10
    1cbc:	00001537          	lui	a0,0x1
    1cc0:	40a40533          	sub	a0,s0,a0
    1cc4:	7ba53423          	sd	s10,1960(a0) # 17a8 <.LBB78_5+0x5c>
    1cc8:	f2043f83          	ld	t6,-224(s0)
    1ccc:	03fb8533          	mul	a0,s7,t6
    1cd0:	000015b7          	lui	a1,0x1
    1cd4:	40b405b3          	sub	a1,s0,a1
    1cd8:	7a05bd03          	ld	s10,1952(a1) # 17a0 <.LBB78_5+0x54>
    1cdc:	01a50d33          	add	s10,a0,s10
    1ce0:	00001537          	lui	a0,0x1
    1ce4:	40a40533          	sub	a0,s0,a0
    1ce8:	7ba53023          	sd	s10,1952(a0) # 17a0 <.LBB78_5+0x54>
    1cec:	f2843283          	ld	t0,-216(s0)
    1cf0:	025b8533          	mul	a0,s7,t0
    1cf4:	000015b7          	lui	a1,0x1
    1cf8:	40b405b3          	sub	a1,s0,a1
    1cfc:	7985bd03          	ld	s10,1944(a1) # 1798 <.LBB78_5+0x4c>
    1d00:	01a50d33          	add	s10,a0,s10
    1d04:	00001537          	lui	a0,0x1
    1d08:	40a40533          	sub	a0,s0,a0
    1d0c:	79a53c23          	sd	s10,1944(a0) # 1798 <.LBB78_5+0x4c>
    1d10:	f1843303          	ld	t1,-232(s0)
    1d14:	026b8533          	mul	a0,s7,t1
    1d18:	000015b7          	lui	a1,0x1
    1d1c:	40b405b3          	sub	a1,s0,a1
    1d20:	7905bd03          	ld	s10,1936(a1) # 1790 <.LBB78_5+0x44>
    1d24:	01a50d33          	add	s10,a0,s10
    1d28:	00001537          	lui	a0,0x1
    1d2c:	40a40533          	sub	a0,s0,a0
    1d30:	79a53823          	sd	s10,1936(a0) # 1790 <.LBB78_5+0x44>
    1d34:	f1043e03          	ld	t3,-240(s0)
    1d38:	03cb8533          	mul	a0,s7,t3
    1d3c:	000015b7          	lui	a1,0x1
    1d40:	40b405b3          	sub	a1,s0,a1
    1d44:	7885bd03          	ld	s10,1928(a1) # 1788 <.LBB78_5+0x3c>
    1d48:	01a50d33          	add	s10,a0,s10
    1d4c:	00001537          	lui	a0,0x1
    1d50:	40a40533          	sub	a0,s0,a0
    1d54:	79a53423          	sd	s10,1928(a0) # 1788 <.LBB78_5+0x3c>
    1d58:	e7843823          	sd	s8,-400(s0)
    1d5c:	038b8533          	mul	a0,s7,s8
    1d60:	000015b7          	lui	a1,0x1
    1d64:	40b405b3          	sub	a1,s0,a1
    1d68:	7b05bd03          	ld	s10,1968(a1) # 17b0 <.LBB78_5+0x64>
    1d6c:	01a50d33          	add	s10,a0,s10
    1d70:	00001537          	lui	a0,0x1
    1d74:	40a40533          	sub	a0,s0,a0
    1d78:	7ba53823          	sd	s10,1968(a0) # 17b0 <.LBB78_5+0x64>
    1d7c:	f4843503          	ld	a0,-184(s0)
    1d80:	02ab8533          	mul	a0,s7,a0
    1d84:	000015b7          	lui	a1,0x1
    1d88:	40b405b3          	sub	a1,s0,a1
    1d8c:	7b85bd03          	ld	s10,1976(a1) # 17b8 <.LBB78_5+0x6c>
    1d90:	01a50d33          	add	s10,a0,s10
    1d94:	00001537          	lui	a0,0x1
    1d98:	40a40533          	sub	a0,s0,a0
    1d9c:	7ba53c23          	sd	s10,1976(a0) # 17b8 <.LBB78_5+0x6c>
    1da0:	e9043383          	ld	t2,-368(s0)
    1da4:	027b8533          	mul	a0,s7,t2
    1da8:	000015b7          	lui	a1,0x1
    1dac:	40b405b3          	sub	a1,s0,a1
    1db0:	7c05bd03          	ld	s10,1984(a1) # 17c0 <.LBB78_5+0x74>
    1db4:	01a50d33          	add	s10,a0,s10
    1db8:	00001537          	lui	a0,0x1
    1dbc:	40a40533          	sub	a0,s0,a0
    1dc0:	7da53023          	sd	s10,1984(a0) # 17c0 <.LBB78_5+0x74>
    1dc4:	f7043603          	ld	a2,-144(s0)
    1dc8:	02cb8533          	mul	a0,s7,a2
    1dcc:	000015b7          	lui	a1,0x1
    1dd0:	40b405b3          	sub	a1,s0,a1
    1dd4:	7c85bd03          	ld	s10,1992(a1) # 17c8 <.LBB78_5+0x7c>
    1dd8:	01a50d33          	add	s10,a0,s10
    1ddc:	00001537          	lui	a0,0x1
    1de0:	40a40533          	sub	a0,s0,a0
    1de4:	7da53423          	sd	s10,1992(a0) # 17c8 <.LBB78_5+0x7c>
    1de8:	f5843c83          	ld	s9,-168(s0)
    1dec:	039b8533          	mul	a0,s7,s9
    1df0:	000015b7          	lui	a1,0x1
    1df4:	40b405b3          	sub	a1,s0,a1
    1df8:	7d05bd03          	ld	s10,2000(a1) # 17d0 <.LBB78_5+0x84>
    1dfc:	01a50d33          	add	s10,a0,s10
    1e00:	00001537          	lui	a0,0x1
    1e04:	40a40533          	sub	a0,s0,a0
    1e08:	7da53823          	sd	s10,2000(a0) # 17d0 <.LBB78_5+0x84>
    1e0c:	e7143c23          	sd	a7,-392(s0)
    1e10:	031b8533          	mul	a0,s7,a7
    1e14:	000015b7          	lui	a1,0x1
    1e18:	40b405b3          	sub	a1,s0,a1
    1e1c:	7d85bd03          	ld	s10,2008(a1) # 17d8 <.LBB78_5+0x8c>
    1e20:	01a50d33          	add	s10,a0,s10
    1e24:	00001537          	lui	a0,0x1
    1e28:	40a40533          	sub	a0,s0,a0
    1e2c:	7da53c23          	sd	s10,2008(a0) # 17d8 <.LBB78_5+0x8c>
    1e30:	033b8533          	mul	a0,s7,s3
    1e34:	000015b7          	lui	a1,0x1
    1e38:	40b405b3          	sub	a1,s0,a1
    1e3c:	7e05bd03          	ld	s10,2016(a1) # 17e0 <.LBB78_5+0x94>
    1e40:	01a50d33          	add	s10,a0,s10
    1e44:	00001537          	lui	a0,0x1
    1e48:	40a40533          	sub	a0,s0,a0
    1e4c:	7fa53023          	sd	s10,2016(a0) # 17e0 <.LBB78_5+0x94>
    1e50:	032b8533          	mul	a0,s7,s2
    1e54:	000015b7          	lui	a1,0x1
    1e58:	40b405b3          	sub	a1,s0,a1
    1e5c:	7e85bd03          	ld	s10,2024(a1) # 17e8 <.LBB78_5+0x9c>
    1e60:	01a50d33          	add	s10,a0,s10
    1e64:	00001537          	lui	a0,0x1
    1e68:	40a40533          	sub	a0,s0,a0
    1e6c:	7fa53423          	sd	s10,2024(a0) # 17e8 <.LBB78_5+0x9c>
    1e70:	029b8533          	mul	a0,s7,s1
    1e74:	000015b7          	lui	a1,0x1
    1e78:	40b405b3          	sub	a1,s0,a1
    1e7c:	7f05bd03          	ld	s10,2032(a1) # 17f0 <.LBB78_5+0xa4>
    1e80:	01a50d33          	add	s10,a0,s10
    1e84:	00001537          	lui	a0,0x1
    1e88:	40a40533          	sub	a0,s0,a0
    1e8c:	7fa53823          	sd	s10,2032(a0) # 17f0 <.LBB78_5+0xa4>
    1e90:	ea043a83          	ld	s5,-352(s0)
    1e94:	035b8533          	mul	a0,s7,s5
    1e98:	000015b7          	lui	a1,0x1
    1e9c:	40b405b3          	sub	a1,s0,a1
    1ea0:	7f85bd03          	ld	s10,2040(a1) # 17f8 <.LBB78_5+0xac>
    1ea4:	01a50d33          	add	s10,a0,s10
    1ea8:	00001537          	lui	a0,0x1
    1eac:	40a40533          	sub	a0,s0,a0
    1eb0:	7fa53c23          	sd	s10,2040(a0) # 17f8 <.LBB78_5+0xac>
    1eb4:	03bb8533          	mul	a0,s7,s11
    1eb8:	80043d03          	ld	s10,-2048(s0)
    1ebc:	01a50d33          	add	s10,a0,s10
    1ec0:	81a43023          	sd	s10,-2048(s0)
    1ec4:	f5043503          	ld	a0,-176(s0)
    1ec8:	02ab8533          	mul	a0,s7,a0
    1ecc:	80843d03          	ld	s10,-2040(s0)
    1ed0:	01a50d33          	add	s10,a0,s10
    1ed4:	81a43423          	sd	s10,-2040(s0)
    1ed8:	02fb8533          	mul	a0,s7,a5
    1edc:	81043d03          	ld	s10,-2032(s0)
    1ee0:	01a50d33          	add	s10,a0,s10
    1ee4:	81a43823          	sd	s10,-2032(s0)
    1ee8:	e5043d83          	ld	s11,-432(s0)
    1eec:	03bb8533          	mul	a0,s7,s11
    1ef0:	81843d03          	ld	s10,-2024(s0)
    1ef4:	01a50d33          	add	s10,a0,s10
    1ef8:	81a43c23          	sd	s10,-2024(s0)
    1efc:	f6043503          	ld	a0,-160(s0)
    1f00:	02ab8533          	mul	a0,s7,a0
    1f04:	82043d03          	ld	s10,-2016(s0)
    1f08:	01a50d33          	add	s10,a0,s10
    1f0c:	83a43023          	sd	s10,-2016(s0)
    1f10:	034b8533          	mul	a0,s7,s4
    1f14:	82843d03          	ld	s10,-2008(s0)
    1f18:	01a50d33          	add	s10,a0,s10
    1f1c:	83a43423          	sd	s10,-2008(s0)
    1f20:	eb843583          	ld	a1,-328(s0)
    1f24:	02bb8533          	mul	a0,s7,a1
    1f28:	83043d03          	ld	s10,-2000(s0)
    1f2c:	01a50d33          	add	s10,a0,s10
    1f30:	83a43823          	sd	s10,-2000(s0)
    1f34:	e5643423          	sd	s6,-440(s0)
    1f38:	036b8533          	mul	a0,s7,s6
    1f3c:	83843d03          	ld	s10,-1992(s0)
    1f40:	01a50d33          	add	s10,a0,s10
    1f44:	83a43c23          	sd	s10,-1992(s0)
    1f48:	f4043703          	ld	a4,-192(s0)
    1f4c:	02eb8533          	mul	a0,s7,a4
    1f50:	84043d03          	ld	s10,-1984(s0)
    1f54:	01a50d33          	add	s10,a0,s10
    1f58:	85a43023          	sd	s10,-1984(s0)
    1f5c:	f7843503          	ld	a0,-136(s0)
    1f60:	02ab8533          	mul	a0,s7,a0
    1f64:	84843d03          	ld	s10,-1976(s0)
    1f68:	01a50d33          	add	s10,a0,s10
    1f6c:	85a43423          	sd	s10,-1976(s0)
    1f70:	f3043683          	ld	a3,-208(s0)
    1f74:	02db8533          	mul	a0,s7,a3
    1f78:	85043d03          	ld	s10,-1968(s0)
    1f7c:	01a50d33          	add	s10,a0,s10
    1f80:	85a43823          	sd	s10,-1968(s0)
    1f84:	f3843783          	ld	a5,-200(s0)
    1f88:	02fb8533          	mul	a0,s7,a5
    1f8c:	85843d03          	ld	s10,-1960(s0)
    1f90:	01a50d33          	add	s10,a0,s10
    1f94:	85a43c23          	sd	s10,-1960(s0)
    1f98:	ec843503          	ld	a0,-312(s0)
    1f9c:	02ab8533          	mul	a0,s7,a0
    1fa0:	86043d03          	ld	s10,-1952(s0)
    1fa4:	01a50d33          	add	s10,a0,s10
    1fa8:	87a43023          	sd	s10,-1952(s0)
    1fac:	e8843a03          	ld	s4,-376(s0)
    1fb0:	034b8533          	mul	a0,s7,s4
    1fb4:	86843d03          	ld	s10,-1944(s0)
    1fb8:	01a50d33          	add	s10,a0,s10
    1fbc:	87a43423          	sd	s10,-1944(s0)
    1fc0:	ec043503          	ld	a0,-320(s0)
    1fc4:	02ab8533          	mul	a0,s7,a0
    1fc8:	87043d03          	ld	s10,-1936(s0)
    1fcc:	01a50d33          	add	s10,a0,s10
    1fd0:	87a43823          	sd	s10,-1936(s0)
    1fd4:	f8843503          	ld	a0,-120(s0)
    1fd8:	0c050503          	lb	a0,192(a0)
    1fdc:	e9843d03          	ld	s10,-360(s0)
    1fe0:	03ab80b3          	mul	ra,s7,s10
    1fe4:	87843d03          	ld	s10,-1928(s0)
    1fe8:	01a08d33          	add	s10,ra,s10
    1fec:	87a43c23          	sd	s10,-1928(s0)
    1ff0:	03db8bb3          	mul	s7,s7,t4
    1ff4:	88043d03          	ld	s10,-1920(s0)
    1ff8:	01ab8d33          	add	s10,s7,s10
    1ffc:	89a43023          	sd	s10,-1920(s0)
    2000:	03050bb3          	mul	s7,a0,a6
    2004:	8a843d03          	ld	s10,-1880(s0)
    2008:	01ab8d33          	add	s10,s7,s10
    200c:	8ba43423          	sd	s10,-1880(s0)
    2010:	03f50bb3          	mul	s7,a0,t6
    2014:	8a043d03          	ld	s10,-1888(s0)
    2018:	01ab8d33          	add	s10,s7,s10
    201c:	8ba43023          	sd	s10,-1888(s0)
    2020:	02550bb3          	mul	s7,a0,t0
    2024:	89843d03          	ld	s10,-1896(s0)
    2028:	01ab8d33          	add	s10,s7,s10
    202c:	89a43c23          	sd	s10,-1896(s0)
    2030:	02650bb3          	mul	s7,a0,t1
    2034:	89043d03          	ld	s10,-1904(s0)
    2038:	01ab8d33          	add	s10,s7,s10
    203c:	89a43823          	sd	s10,-1904(s0)
    2040:	03c50bb3          	mul	s7,a0,t3
    2044:	88843d03          	ld	s10,-1912(s0)
    2048:	01ab8d33          	add	s10,s7,s10
    204c:	89a43423          	sd	s10,-1912(s0)
    2050:	03850bb3          	mul	s7,a0,s8
    2054:	8b043d03          	ld	s10,-1872(s0)
    2058:	01ab8d33          	add	s10,s7,s10
    205c:	8ba43823          	sd	s10,-1872(s0)
    2060:	f4843c03          	ld	s8,-184(s0)
    2064:	03850bb3          	mul	s7,a0,s8
    2068:	8b843d03          	ld	s10,-1864(s0)
    206c:	01ab8d33          	add	s10,s7,s10
    2070:	8ba43c23          	sd	s10,-1864(s0)
    2074:	02750bb3          	mul	s7,a0,t2
    2078:	8c043d03          	ld	s10,-1856(s0)
    207c:	01ab8d33          	add	s10,s7,s10
    2080:	8da43023          	sd	s10,-1856(s0)
    2084:	02c50bb3          	mul	s7,a0,a2
    2088:	8c843d03          	ld	s10,-1848(s0)
    208c:	01ab8d33          	add	s10,s7,s10
    2090:	8da43423          	sd	s10,-1848(s0)
    2094:	03950bb3          	mul	s7,a0,s9
    2098:	000c8393          	mv	t2,s9
    209c:	8d043d03          	ld	s10,-1840(s0)
    20a0:	01ab8d33          	add	s10,s7,s10
    20a4:	8da43823          	sd	s10,-1840(s0)
    20a8:	03150bb3          	mul	s7,a0,a7
    20ac:	8d843d03          	ld	s10,-1832(s0)
    20b0:	01ab8d33          	add	s10,s7,s10
    20b4:	8da43c23          	sd	s10,-1832(s0)
    20b8:	eb343823          	sd	s3,-336(s0)
    20bc:	03350bb3          	mul	s7,a0,s3
    20c0:	8e043d03          	ld	s10,-1824(s0)
    20c4:	01ab8d33          	add	s10,s7,s10
    20c8:	8fa43023          	sd	s10,-1824(s0)
    20cc:	e7243023          	sd	s2,-416(s0)
    20d0:	03250bb3          	mul	s7,a0,s2
    20d4:	8e843d03          	ld	s10,-1816(s0)
    20d8:	01ab8d33          	add	s10,s7,s10
    20dc:	8fa43423          	sd	s10,-1816(s0)
    20e0:	02950bb3          	mul	s7,a0,s1
    20e4:	8f043d03          	ld	s10,-1808(s0)
    20e8:	01ab8d33          	add	s10,s7,s10
    20ec:	8fa43823          	sd	s10,-1808(s0)
    20f0:	000a8e93          	mv	t4,s5
    20f4:	03550bb3          	mul	s7,a0,s5
    20f8:	8f843d03          	ld	s10,-1800(s0)
    20fc:	01ab8d33          	add	s10,s7,s10
    2100:	8fa43c23          	sd	s10,-1800(s0)
    2104:	e6843e03          	ld	t3,-408(s0)
    2108:	03c50bb3          	mul	s7,a0,t3
    210c:	90043d03          	ld	s10,-1792(s0)
    2110:	01ab8d33          	add	s10,s7,s10
    2114:	91a43023          	sd	s10,-1792(s0)
    2118:	f5043283          	ld	t0,-176(s0)
    211c:	02550bb3          	mul	s7,a0,t0
    2120:	90843d03          	ld	s10,-1784(s0)
    2124:	01ab8d33          	add	s10,s7,s10
    2128:	91a43423          	sd	s10,-1784(s0)
    212c:	ea843603          	ld	a2,-344(s0)
    2130:	02c50bb3          	mul	s7,a0,a2
    2134:	91043d03          	ld	s10,-1776(s0)
    2138:	01ab8d33          	add	s10,s7,s10
    213c:	91a43823          	sd	s10,-1776(s0)
    2140:	03b50bb3          	mul	s7,a0,s11
    2144:	000d8f93          	mv	t6,s11
    2148:	91843d03          	ld	s10,-1768(s0)
    214c:	01ab8d33          	add	s10,s7,s10
    2150:	91a43c23          	sd	s10,-1768(s0)
    2154:	f6043603          	ld	a2,-160(s0)
    2158:	02c50bb3          	mul	s7,a0,a2
    215c:	92043d03          	ld	s10,-1760(s0)
    2160:	01ab8d33          	add	s10,s7,s10
    2164:	93a43023          	sd	s10,-1760(s0)
    2168:	f6843603          	ld	a2,-152(s0)
    216c:	02c50bb3          	mul	s7,a0,a2
    2170:	92843d03          	ld	s10,-1752(s0)
    2174:	01ab8d33          	add	s10,s7,s10
    2178:	93a43423          	sd	s10,-1752(s0)
    217c:	02b50bb3          	mul	s7,a0,a1
    2180:	93043d03          	ld	s10,-1744(s0)
    2184:	01ab8d33          	add	s10,s7,s10
    2188:	93a43823          	sd	s10,-1744(s0)
    218c:	03650bb3          	mul	s7,a0,s6
    2190:	93843d03          	ld	s10,-1736(s0)
    2194:	01ab8d33          	add	s10,s7,s10
    2198:	93a43c23          	sd	s10,-1736(s0)
    219c:	02e50bb3          	mul	s7,a0,a4
    21a0:	00070d93          	mv	s11,a4
    21a4:	94043d03          	ld	s10,-1728(s0)
    21a8:	01ab8d33          	add	s10,s7,s10
    21ac:	95a43023          	sd	s10,-1728(s0)
    21b0:	f7843803          	ld	a6,-136(s0)
    21b4:	03050bb3          	mul	s7,a0,a6
    21b8:	94843d03          	ld	s10,-1720(s0)
    21bc:	01ab8d33          	add	s10,s7,s10
    21c0:	95a43423          	sd	s10,-1720(s0)
    21c4:	02d50bb3          	mul	s7,a0,a3
    21c8:	95043d03          	ld	s10,-1712(s0)
    21cc:	01ab8d33          	add	s10,s7,s10
    21d0:	95a43823          	sd	s10,-1712(s0)
    21d4:	02f50bb3          	mul	s7,a0,a5
    21d8:	95843d03          	ld	s10,-1704(s0)
    21dc:	01ab8d33          	add	s10,s7,s10
    21e0:	95a43c23          	sd	s10,-1704(s0)
    21e4:	ec843683          	ld	a3,-312(s0)
    21e8:	02d50bb3          	mul	s7,a0,a3
    21ec:	96043d03          	ld	s10,-1696(s0)
    21f0:	01ab8d33          	add	s10,s7,s10
    21f4:	97a43023          	sd	s10,-1696(s0)
    21f8:	03450bb3          	mul	s7,a0,s4
    21fc:	96843d03          	ld	s10,-1688(s0)
    2200:	01ab8d33          	add	s10,s7,s10
    2204:	97a43423          	sd	s10,-1688(s0)
    2208:	ec043703          	ld	a4,-320(s0)
    220c:	02e50bb3          	mul	s7,a0,a4
    2210:	97043d03          	ld	s10,-1680(s0)
    2214:	01ab8d33          	add	s10,s7,s10
    2218:	97a43823          	sd	s10,-1680(s0)
    221c:	f8843b83          	ld	s7,-120(s0)
    2220:	120b8b83          	lb	s7,288(s7)
    2224:	e9843c83          	ld	s9,-360(s0)
    2228:	039500b3          	mul	ra,a0,s9
    222c:	97843d03          	ld	s10,-1672(s0)
    2230:	01a08d33          	add	s10,ra,s10
    2234:	97a43c23          	sd	s10,-1672(s0)
    2238:	e8043303          	ld	t1,-384(s0)
    223c:	02650533          	mul	a0,a0,t1
    2240:	98043d03          	ld	s10,-1664(s0)
    2244:	01a50d33          	add	s10,a0,s10
    2248:	99a43023          	sd	s10,-1664(s0)
    224c:	f8043503          	ld	a0,-128(s0)
    2250:	02ab8533          	mul	a0,s7,a0
    2254:	9a843d03          	ld	s10,-1624(s0)
    2258:	01a50d33          	add	s10,a0,s10
    225c:	9ba43423          	sd	s10,-1624(s0)
    2260:	f2043583          	ld	a1,-224(s0)
    2264:	02bb8533          	mul	a0,s7,a1
    2268:	9a043d03          	ld	s10,-1632(s0)
    226c:	01a50d33          	add	s10,a0,s10
    2270:	9ba43023          	sd	s10,-1632(s0)
    2274:	f2843a83          	ld	s5,-216(s0)
    2278:	035b8533          	mul	a0,s7,s5
    227c:	99843d03          	ld	s10,-1640(s0)
    2280:	01a50d33          	add	s10,a0,s10
    2284:	99a43c23          	sd	s10,-1640(s0)
    2288:	f1843883          	ld	a7,-232(s0)
    228c:	031b8533          	mul	a0,s7,a7
    2290:	99043d03          	ld	s10,-1648(s0)
    2294:	01a50d33          	add	s10,a0,s10
    2298:	99a43823          	sd	s10,-1648(s0)
    229c:	f1043603          	ld	a2,-240(s0)
    22a0:	02cb8533          	mul	a0,s7,a2
    22a4:	98843d03          	ld	s10,-1656(s0)
    22a8:	01a50d33          	add	s10,a0,s10
    22ac:	99a43423          	sd	s10,-1656(s0)
    22b0:	e7043b03          	ld	s6,-400(s0)
    22b4:	036b8533          	mul	a0,s7,s6
    22b8:	9b043d03          	ld	s10,-1616(s0)
    22bc:	01a50d33          	add	s10,a0,s10
    22c0:	9ba43823          	sd	s10,-1616(s0)
    22c4:	038b8533          	mul	a0,s7,s8
    22c8:	9b843d03          	ld	s10,-1608(s0)
    22cc:	01a50d33          	add	s10,a0,s10
    22d0:	9ba43c23          	sd	s10,-1608(s0)
    22d4:	e9043c03          	ld	s8,-368(s0)
    22d8:	038b8533          	mul	a0,s7,s8
    22dc:	9c043d03          	ld	s10,-1600(s0)
    22e0:	01a50d33          	add	s10,a0,s10
    22e4:	9da43023          	sd	s10,-1600(s0)
    22e8:	f7043503          	ld	a0,-144(s0)
    22ec:	02ab8533          	mul	a0,s7,a0
    22f0:	9c843d03          	ld	s10,-1592(s0)
    22f4:	01a50d33          	add	s10,a0,s10
    22f8:	9da43423          	sd	s10,-1592(s0)
    22fc:	027b8533          	mul	a0,s7,t2
    2300:	9d043d03          	ld	s10,-1584(s0)
    2304:	01a50d33          	add	s10,a0,s10
    2308:	9da43823          	sd	s10,-1584(s0)
    230c:	e7843783          	ld	a5,-392(s0)
    2310:	02fb8533          	mul	a0,s7,a5
    2314:	9d843d03          	ld	s10,-1576(s0)
    2318:	01a50d33          	add	s10,a0,s10
    231c:	9da43c23          	sd	s10,-1576(s0)
    2320:	033b8533          	mul	a0,s7,s3
    2324:	9e043d03          	ld	s10,-1568(s0)
    2328:	01a50d33          	add	s10,a0,s10
    232c:	9fa43023          	sd	s10,-1568(s0)
    2330:	032b8533          	mul	a0,s7,s2
    2334:	9e843d03          	ld	s10,-1560(s0)
    2338:	01a50d33          	add	s10,a0,s10
    233c:	9fa43423          	sd	s10,-1560(s0)
    2340:	029b8533          	mul	a0,s7,s1
    2344:	e4943c23          	sd	s1,-424(s0)
    2348:	9f043d03          	ld	s10,-1552(s0)
    234c:	01a50d33          	add	s10,a0,s10
    2350:	9fa43823          	sd	s10,-1552(s0)
    2354:	03db8533          	mul	a0,s7,t4
    2358:	000e8913          	mv	s2,t4
    235c:	9f843d03          	ld	s10,-1544(s0)
    2360:	01a50d33          	add	s10,a0,s10
    2364:	9fa43c23          	sd	s10,-1544(s0)
    2368:	03cb8533          	mul	a0,s7,t3
    236c:	a0043d03          	ld	s10,-1536(s0)
    2370:	01a50d33          	add	s10,a0,s10
    2374:	a1a43023          	sd	s10,-1536(s0)
    2378:	025b8533          	mul	a0,s7,t0
    237c:	a0843d03          	ld	s10,-1528(s0)
    2380:	01a50d33          	add	s10,a0,s10
    2384:	a1a43423          	sd	s10,-1528(s0)
    2388:	ea843383          	ld	t2,-344(s0)
    238c:	027b8533          	mul	a0,s7,t2
    2390:	a1043d03          	ld	s10,-1520(s0)
    2394:	01a50d33          	add	s10,a0,s10
    2398:	a1a43823          	sd	s10,-1520(s0)
    239c:	03fb8533          	mul	a0,s7,t6
    23a0:	a1843d03          	ld	s10,-1512(s0)
    23a4:	01a50d33          	add	s10,a0,s10
    23a8:	a1a43c23          	sd	s10,-1512(s0)
    23ac:	f6043e83          	ld	t4,-160(s0)
    23b0:	03db8533          	mul	a0,s7,t4
    23b4:	a2043d03          	ld	s10,-1504(s0)
    23b8:	01a50d33          	add	s10,a0,s10
    23bc:	a3a43023          	sd	s10,-1504(s0)
    23c0:	f6843f83          	ld	t6,-152(s0)
    23c4:	03fb8533          	mul	a0,s7,t6
    23c8:	a2843d03          	ld	s10,-1496(s0)
    23cc:	01a50d33          	add	s10,a0,s10
    23d0:	a3a43423          	sd	s10,-1496(s0)
    23d4:	eb843503          	ld	a0,-328(s0)
    23d8:	02ab8533          	mul	a0,s7,a0
    23dc:	a3043d03          	ld	s10,-1488(s0)
    23e0:	01a50d33          	add	s10,a0,s10
    23e4:	a3a43823          	sd	s10,-1488(s0)
    23e8:	e4843e03          	ld	t3,-440(s0)
    23ec:	03cb8533          	mul	a0,s7,t3
    23f0:	a3843d03          	ld	s10,-1480(s0)
    23f4:	01a50d33          	add	s10,a0,s10
    23f8:	a3a43c23          	sd	s10,-1480(s0)
    23fc:	03bb8533          	mul	a0,s7,s11
    2400:	a4043d03          	ld	s10,-1472(s0)
    2404:	01a50d33          	add	s10,a0,s10
    2408:	a5a43023          	sd	s10,-1472(s0)
    240c:	030b8533          	mul	a0,s7,a6
    2410:	a4843d03          	ld	s10,-1464(s0)
    2414:	01a50d33          	add	s10,a0,s10
    2418:	a5a43423          	sd	s10,-1464(s0)
    241c:	f3043a03          	ld	s4,-208(s0)
    2420:	034b8533          	mul	a0,s7,s4
    2424:	a5043d03          	ld	s10,-1456(s0)
    2428:	01a50d33          	add	s10,a0,s10
    242c:	a5a43823          	sd	s10,-1456(s0)
    2430:	f3843983          	ld	s3,-200(s0)
    2434:	033b8533          	mul	a0,s7,s3
    2438:	a5843d03          	ld	s10,-1448(s0)
    243c:	01a50d33          	add	s10,a0,s10
    2440:	a5a43c23          	sd	s10,-1448(s0)
    2444:	02db8533          	mul	a0,s7,a3
    2448:	00068d93          	mv	s11,a3
    244c:	a6043d03          	ld	s10,-1440(s0)
    2450:	01a50d33          	add	s10,a0,s10
    2454:	a7a43023          	sd	s10,-1440(s0)
    2458:	e8843283          	ld	t0,-376(s0)
    245c:	025b8533          	mul	a0,s7,t0
    2460:	a6843d03          	ld	s10,-1432(s0)
    2464:	01a50d33          	add	s10,a0,s10
    2468:	a7a43423          	sd	s10,-1432(s0)
    246c:	02eb8533          	mul	a0,s7,a4
    2470:	a7043d03          	ld	s10,-1424(s0)
    2474:	01a50d33          	add	s10,a0,s10
    2478:	a7a43823          	sd	s10,-1424(s0)
    247c:	f8843503          	ld	a0,-120(s0)
    2480:	18050503          	lb	a0,384(a0)
    2484:	039b80b3          	mul	ra,s7,s9
    2488:	000c8693          	mv	a3,s9
    248c:	a7843d03          	ld	s10,-1416(s0)
    2490:	01a08d33          	add	s10,ra,s10
    2494:	a7a43c23          	sd	s10,-1416(s0)
    2498:	026b8bb3          	mul	s7,s7,t1
    249c:	a8043d03          	ld	s10,-1408(s0)
    24a0:	01ab8d33          	add	s10,s7,s10
    24a4:	a9a43023          	sd	s10,-1408(s0)
    24a8:	f8043803          	ld	a6,-128(s0)
    24ac:	03050bb3          	mul	s7,a0,a6
    24b0:	aa843d03          	ld	s10,-1368(s0)
    24b4:	01ab8d33          	add	s10,s7,s10
    24b8:	aba43423          	sd	s10,-1368(s0)
    24bc:	02b50bb3          	mul	s7,a0,a1
    24c0:	aa043d03          	ld	s10,-1376(s0)
    24c4:	01ab8d33          	add	s10,s7,s10
    24c8:	aba43023          	sd	s10,-1376(s0)
    24cc:	03550bb3          	mul	s7,a0,s5
    24d0:	a9843d03          	ld	s10,-1384(s0)
    24d4:	01ab8d33          	add	s10,s7,s10
    24d8:	a9a43c23          	sd	s10,-1384(s0)
    24dc:	03150bb3          	mul	s7,a0,a7
    24e0:	a9043d03          	ld	s10,-1392(s0)
    24e4:	01ab8d33          	add	s10,s7,s10
    24e8:	a9a43823          	sd	s10,-1392(s0)
    24ec:	02c50bb3          	mul	s7,a0,a2
    24f0:	a8843d03          	ld	s10,-1400(s0)
    24f4:	01ab8d33          	add	s10,s7,s10
    24f8:	a9a43423          	sd	s10,-1400(s0)
    24fc:	03650bb3          	mul	s7,a0,s6
    2500:	ab043d03          	ld	s10,-1360(s0)
    2504:	01ab8d33          	add	s10,s7,s10
    2508:	aba43823          	sd	s10,-1360(s0)
    250c:	f4843303          	ld	t1,-184(s0)
    2510:	02650bb3          	mul	s7,a0,t1
    2514:	ab843d03          	ld	s10,-1352(s0)
    2518:	01ab8d33          	add	s10,s7,s10
    251c:	aba43c23          	sd	s10,-1352(s0)
    2520:	03850bb3          	mul	s7,a0,s8
    2524:	000c0b13          	mv	s6,s8
    2528:	ac043d03          	ld	s10,-1344(s0)
    252c:	01ab8d33          	add	s10,s7,s10
    2530:	ada43023          	sd	s10,-1344(s0)
    2534:	f7043583          	ld	a1,-144(s0)
    2538:	02b50bb3          	mul	s7,a0,a1
    253c:	ac843d03          	ld	s10,-1336(s0)
    2540:	01ab8d33          	add	s10,s7,s10
    2544:	ada43423          	sd	s10,-1336(s0)
    2548:	f5843603          	ld	a2,-168(s0)
    254c:	02c50bb3          	mul	s7,a0,a2
    2550:	ad043d03          	ld	s10,-1328(s0)
    2554:	01ab8d33          	add	s10,s7,s10
    2558:	ada43823          	sd	s10,-1328(s0)
    255c:	02f50bb3          	mul	s7,a0,a5
    2560:	ad843d03          	ld	s10,-1320(s0)
    2564:	01ab8d33          	add	s10,s7,s10
    2568:	ada43c23          	sd	s10,-1320(s0)
    256c:	eb043603          	ld	a2,-336(s0)
    2570:	02c50bb3          	mul	s7,a0,a2
    2574:	ae043d03          	ld	s10,-1312(s0)
    2578:	01ab8d33          	add	s10,s7,s10
    257c:	afa43023          	sd	s10,-1312(s0)
    2580:	e6043603          	ld	a2,-416(s0)
    2584:	02c50bb3          	mul	s7,a0,a2
    2588:	ae843d03          	ld	s10,-1304(s0)
    258c:	01ab8d33          	add	s10,s7,s10
    2590:	afa43423          	sd	s10,-1304(s0)
    2594:	02950bb3          	mul	s7,a0,s1
    2598:	af043d03          	ld	s10,-1296(s0)
    259c:	01ab8d33          	add	s10,s7,s10
    25a0:	afa43823          	sd	s10,-1296(s0)
    25a4:	03250bb3          	mul	s7,a0,s2
    25a8:	af843d03          	ld	s10,-1288(s0)
    25ac:	01ab8d33          	add	s10,s7,s10
    25b0:	afa43c23          	sd	s10,-1288(s0)
    25b4:	e6843483          	ld	s1,-408(s0)
    25b8:	02950bb3          	mul	s7,a0,s1
    25bc:	b0043d03          	ld	s10,-1280(s0)
    25c0:	01ab8d33          	add	s10,s7,s10
    25c4:	b1a43023          	sd	s10,-1280(s0)
    25c8:	f5043c83          	ld	s9,-176(s0)
    25cc:	03950bb3          	mul	s7,a0,s9
    25d0:	b0843d03          	ld	s10,-1272(s0)
    25d4:	01ab8d33          	add	s10,s7,s10
    25d8:	b1a43423          	sd	s10,-1272(s0)
    25dc:	02750bb3          	mul	s7,a0,t2
    25e0:	b1043d03          	ld	s10,-1264(s0)
    25e4:	01ab8d33          	add	s10,s7,s10
    25e8:	b1a43823          	sd	s10,-1264(s0)
    25ec:	e5043383          	ld	t2,-432(s0)
    25f0:	02750bb3          	mul	s7,a0,t2
    25f4:	b1843d03          	ld	s10,-1256(s0)
    25f8:	01ab8d33          	add	s10,s7,s10
    25fc:	b1a43c23          	sd	s10,-1256(s0)
    2600:	03d50bb3          	mul	s7,a0,t4
    2604:	b2043d03          	ld	s10,-1248(s0)
    2608:	01ab8d33          	add	s10,s7,s10
    260c:	b3a43023          	sd	s10,-1248(s0)
    2610:	03f50bb3          	mul	s7,a0,t6
    2614:	b2843d03          	ld	s10,-1240(s0)
    2618:	01ab8d33          	add	s10,s7,s10
    261c:	b3a43423          	sd	s10,-1240(s0)
    2620:	eb843883          	ld	a7,-328(s0)
    2624:	03150bb3          	mul	s7,a0,a7
    2628:	b3043d03          	ld	s10,-1232(s0)
    262c:	01ab8d33          	add	s10,s7,s10
    2630:	b3a43823          	sd	s10,-1232(s0)
    2634:	000e0f93          	mv	t6,t3
    2638:	03c50bb3          	mul	s7,a0,t3
    263c:	b3843d03          	ld	s10,-1224(s0)
    2640:	01ab8d33          	add	s10,s7,s10
    2644:	b3a43c23          	sd	s10,-1224(s0)
    2648:	f4043a83          	ld	s5,-192(s0)
    264c:	03550bb3          	mul	s7,a0,s5
    2650:	b4043d03          	ld	s10,-1216(s0)
    2654:	01ab8d33          	add	s10,s7,s10
    2658:	b5a43023          	sd	s10,-1216(s0)
    265c:	f7843e83          	ld	t4,-136(s0)
    2660:	03d50bb3          	mul	s7,a0,t4
    2664:	b4843d03          	ld	s10,-1208(s0)
    2668:	01ab8d33          	add	s10,s7,s10
    266c:	b5a43423          	sd	s10,-1208(s0)
    2670:	03450bb3          	mul	s7,a0,s4
    2674:	b5043d03          	ld	s10,-1200(s0)
    2678:	01ab8d33          	add	s10,s7,s10
    267c:	b5a43823          	sd	s10,-1200(s0)
    2680:	03350bb3          	mul	s7,a0,s3
    2684:	b5843d03          	ld	s10,-1192(s0)
    2688:	01ab8d33          	add	s10,s7,s10
    268c:	b5a43c23          	sd	s10,-1192(s0)
    2690:	03b50bb3          	mul	s7,a0,s11
    2694:	b6043d03          	ld	s10,-1184(s0)
    2698:	01ab8d33          	add	s10,s7,s10
    269c:	b7a43023          	sd	s10,-1184(s0)
    26a0:	00028713          	mv	a4,t0
    26a4:	02550bb3          	mul	s7,a0,t0
    26a8:	b6843d03          	ld	s10,-1176(s0)
    26ac:	01ab8d33          	add	s10,s7,s10
    26b0:	b7a43423          	sd	s10,-1176(s0)
    26b4:	ec043603          	ld	a2,-320(s0)
    26b8:	02c50bb3          	mul	s7,a0,a2
    26bc:	b7043d03          	ld	s10,-1168(s0)
    26c0:	01ab8d33          	add	s10,s7,s10
    26c4:	b7a43823          	sd	s10,-1168(s0)
    26c8:	f8843b83          	ld	s7,-120(s0)
    26cc:	1e0b8b83          	lb	s7,480(s7)
    26d0:	00068c13          	mv	s8,a3
    26d4:	02d500b3          	mul	ra,a0,a3
    26d8:	b7843d03          	ld	s10,-1160(s0)
    26dc:	01a08d33          	add	s10,ra,s10
    26e0:	b7a43c23          	sd	s10,-1160(s0)
    26e4:	e8043283          	ld	t0,-384(s0)
    26e8:	02550533          	mul	a0,a0,t0
    26ec:	b8043d03          	ld	s10,-1152(s0)
    26f0:	01a50d33          	add	s10,a0,s10
    26f4:	b9a43023          	sd	s10,-1152(s0)
    26f8:	030b8533          	mul	a0,s7,a6
    26fc:	ba843d03          	ld	s10,-1112(s0)
    2700:	01a50d33          	add	s10,a0,s10
    2704:	bba43423          	sd	s10,-1112(s0)
    2708:	f2043783          	ld	a5,-224(s0)
    270c:	02fb8533          	mul	a0,s7,a5
    2710:	ba043d03          	ld	s10,-1120(s0)
    2714:	01a50d33          	add	s10,a0,s10
    2718:	bba43023          	sd	s10,-1120(s0)
    271c:	f2843903          	ld	s2,-216(s0)
    2720:	032b8533          	mul	a0,s7,s2
    2724:	b9843d03          	ld	s10,-1128(s0)
    2728:	01a50d33          	add	s10,a0,s10
    272c:	b9a43c23          	sd	s10,-1128(s0)
    2730:	f1843983          	ld	s3,-232(s0)
    2734:	033b8533          	mul	a0,s7,s3
    2738:	b9043d03          	ld	s10,-1136(s0)
    273c:	01a50d33          	add	s10,a0,s10
    2740:	b9a43823          	sd	s10,-1136(s0)
    2744:	f1043803          	ld	a6,-240(s0)
    2748:	030b8533          	mul	a0,s7,a6
    274c:	b8843d03          	ld	s10,-1144(s0)
    2750:	01a50d33          	add	s10,a0,s10
    2754:	b9a43423          	sd	s10,-1144(s0)
    2758:	e7043683          	ld	a3,-400(s0)
    275c:	02db8533          	mul	a0,s7,a3
    2760:	bb043d03          	ld	s10,-1104(s0)
    2764:	01a50d33          	add	s10,a0,s10
    2768:	bba43823          	sd	s10,-1104(s0)
    276c:	026b8533          	mul	a0,s7,t1
    2770:	bb843d03          	ld	s10,-1096(s0)
    2774:	01a50d33          	add	s10,a0,s10
    2778:	bba43c23          	sd	s10,-1096(s0)
    277c:	036b8533          	mul	a0,s7,s6
    2780:	bc043d03          	ld	s10,-1088(s0)
    2784:	01a50d33          	add	s10,a0,s10
    2788:	bda43023          	sd	s10,-1088(s0)
    278c:	02bb8533          	mul	a0,s7,a1
    2790:	bc843d03          	ld	s10,-1080(s0)
    2794:	01a50d33          	add	s10,a0,s10
    2798:	bda43423          	sd	s10,-1080(s0)
    279c:	f5843a03          	ld	s4,-168(s0)
    27a0:	034b8533          	mul	a0,s7,s4
    27a4:	bd043d03          	ld	s10,-1072(s0)
    27a8:	01a50d33          	add	s10,a0,s10
    27ac:	bda43823          	sd	s10,-1072(s0)
    27b0:	e7843b03          	ld	s6,-392(s0)
    27b4:	036b8533          	mul	a0,s7,s6
    27b8:	bd843d03          	ld	s10,-1064(s0)
    27bc:	01a50d33          	add	s10,a0,s10
    27c0:	bda43c23          	sd	s10,-1064(s0)
    27c4:	eb043e03          	ld	t3,-336(s0)
    27c8:	03cb8533          	mul	a0,s7,t3
    27cc:	be043d03          	ld	s10,-1056(s0)
    27d0:	01a50d33          	add	s10,a0,s10
    27d4:	bfa43023          	sd	s10,-1056(s0)
    27d8:	e6043583          	ld	a1,-416(s0)
    27dc:	02bb8533          	mul	a0,s7,a1
    27e0:	be843d03          	ld	s10,-1048(s0)
    27e4:	01a50d33          	add	s10,a0,s10
    27e8:	bfa43423          	sd	s10,-1048(s0)
    27ec:	e5843503          	ld	a0,-424(s0)
    27f0:	02ab8533          	mul	a0,s7,a0
    27f4:	bf043d03          	ld	s10,-1040(s0)
    27f8:	01a50d33          	add	s10,a0,s10
    27fc:	bfa43823          	sd	s10,-1040(s0)
    2800:	ea043503          	ld	a0,-352(s0)
    2804:	02ab8533          	mul	a0,s7,a0
    2808:	bf843d03          	ld	s10,-1032(s0)
    280c:	01a50d33          	add	s10,a0,s10
    2810:	bfa43c23          	sd	s10,-1032(s0)
    2814:	029b8533          	mul	a0,s7,s1
    2818:	c0043d03          	ld	s10,-1024(s0)
    281c:	01a50d33          	add	s10,a0,s10
    2820:	c1a43023          	sd	s10,-1024(s0)
    2824:	039b8533          	mul	a0,s7,s9
    2828:	c0843d03          	ld	s10,-1016(s0)
    282c:	01a50d33          	add	s10,a0,s10
    2830:	c1a43423          	sd	s10,-1016(s0)
    2834:	ea843483          	ld	s1,-344(s0)
    2838:	029b8533          	mul	a0,s7,s1
    283c:	c1043d03          	ld	s10,-1008(s0)
    2840:	01a50d33          	add	s10,a0,s10
    2844:	c1a43823          	sd	s10,-1008(s0)
    2848:	027b8533          	mul	a0,s7,t2
    284c:	c1843d03          	ld	s10,-1000(s0)
    2850:	01a50d33          	add	s10,a0,s10
    2854:	c1a43c23          	sd	s10,-1000(s0)
    2858:	f6043c83          	ld	s9,-160(s0)
    285c:	039b8533          	mul	a0,s7,s9
    2860:	c2043d03          	ld	s10,-992(s0)
    2864:	01a50d33          	add	s10,a0,s10
    2868:	c3a43023          	sd	s10,-992(s0)
    286c:	f6843503          	ld	a0,-152(s0)
    2870:	02ab8533          	mul	a0,s7,a0
    2874:	c2843d03          	ld	s10,-984(s0)
    2878:	01a50d33          	add	s10,a0,s10
    287c:	c3a43423          	sd	s10,-984(s0)
    2880:	031b8533          	mul	a0,s7,a7
    2884:	c3043d03          	ld	s10,-976(s0)
    2888:	01a50d33          	add	s10,a0,s10
    288c:	c3a43823          	sd	s10,-976(s0)
    2890:	03fb8533          	mul	a0,s7,t6
    2894:	c3843d03          	ld	s10,-968(s0)
    2898:	01a50d33          	add	s10,a0,s10
    289c:	c3a43c23          	sd	s10,-968(s0)
    28a0:	035b8533          	mul	a0,s7,s5
    28a4:	c4043d03          	ld	s10,-960(s0)
    28a8:	01a50d33          	add	s10,a0,s10
    28ac:	c5a43023          	sd	s10,-960(s0)
    28b0:	03db8533          	mul	a0,s7,t4
    28b4:	c4843d03          	ld	s10,-952(s0)
    28b8:	01a50d33          	add	s10,a0,s10
    28bc:	c5a43423          	sd	s10,-952(s0)
    28c0:	f3043503          	ld	a0,-208(s0)
    28c4:	02ab8533          	mul	a0,s7,a0
    28c8:	c5043d03          	ld	s10,-944(s0)
    28cc:	01a50d33          	add	s10,a0,s10
    28d0:	c5a43823          	sd	s10,-944(s0)
    28d4:	f3843503          	ld	a0,-200(s0)
    28d8:	02ab8533          	mul	a0,s7,a0
    28dc:	c5843d03          	ld	s10,-936(s0)
    28e0:	01a50d33          	add	s10,a0,s10
    28e4:	c5a43c23          	sd	s10,-936(s0)
    28e8:	03bb8533          	mul	a0,s7,s11
    28ec:	c6043d03          	ld	s10,-928(s0)
    28f0:	01a50d33          	add	s10,a0,s10
    28f4:	c7a43023          	sd	s10,-928(s0)
    28f8:	02eb8533          	mul	a0,s7,a4
    28fc:	c6843d03          	ld	s10,-920(s0)
    2900:	01a50d33          	add	s10,a0,s10
    2904:	c7a43423          	sd	s10,-920(s0)
    2908:	02cb8533          	mul	a0,s7,a2
    290c:	c7043d03          	ld	s10,-912(s0)
    2910:	01a50d33          	add	s10,a0,s10
    2914:	c7a43823          	sd	s10,-912(s0)
    2918:	f8843503          	ld	a0,-120(s0)
    291c:	24050503          	lb	a0,576(a0)
    2920:	038b80b3          	mul	ra,s7,s8
    2924:	c7843d03          	ld	s10,-904(s0)
    2928:	01a08d33          	add	s10,ra,s10
    292c:	c7a43c23          	sd	s10,-904(s0)
    2930:	025b8bb3          	mul	s7,s7,t0
    2934:	c8043d03          	ld	s10,-896(s0)
    2938:	01ab8d33          	add	s10,s7,s10
    293c:	c9a43023          	sd	s10,-896(s0)
    2940:	f8043703          	ld	a4,-128(s0)
    2944:	02e50bb3          	mul	s7,a0,a4
    2948:	ca843d03          	ld	s10,-856(s0)
    294c:	01ab8d33          	add	s10,s7,s10
    2950:	cba43423          	sd	s10,-856(s0)
    2954:	02f50bb3          	mul	s7,a0,a5
    2958:	ca043d03          	ld	s10,-864(s0)
    295c:	01ab8d33          	add	s10,s7,s10
    2960:	cba43023          	sd	s10,-864(s0)
    2964:	03250bb3          	mul	s7,a0,s2
    2968:	c9843d03          	ld	s10,-872(s0)
    296c:	01ab8d33          	add	s10,s7,s10
    2970:	c9a43c23          	sd	s10,-872(s0)
    2974:	03350bb3          	mul	s7,a0,s3
    2978:	c9043d03          	ld	s10,-880(s0)
    297c:	01ab8d33          	add	s10,s7,s10
    2980:	c9a43823          	sd	s10,-880(s0)
    2984:	03050bb3          	mul	s7,a0,a6
    2988:	c8843d03          	ld	s10,-888(s0)
    298c:	01ab8d33          	add	s10,s7,s10
    2990:	c9a43423          	sd	s10,-888(s0)
    2994:	02d50bb3          	mul	s7,a0,a3
    2998:	cb043d03          	ld	s10,-848(s0)
    299c:	01ab8d33          	add	s10,s7,s10
    29a0:	cba43823          	sd	s10,-848(s0)
    29a4:	02650bb3          	mul	s7,a0,t1
    29a8:	cb843d03          	ld	s10,-840(s0)
    29ac:	01ab8d33          	add	s10,s7,s10
    29b0:	cba43c23          	sd	s10,-840(s0)
    29b4:	e9043c03          	ld	s8,-368(s0)
    29b8:	03850bb3          	mul	s7,a0,s8
    29bc:	cc043d03          	ld	s10,-832(s0)
    29c0:	01ab8d33          	add	s10,s7,s10
    29c4:	cda43023          	sd	s10,-832(s0)
    29c8:	f7043a83          	ld	s5,-144(s0)
    29cc:	03550bb3          	mul	s7,a0,s5
    29d0:	cc843d03          	ld	s10,-824(s0)
    29d4:	01ab8d33          	add	s10,s7,s10
    29d8:	cda43423          	sd	s10,-824(s0)
    29dc:	03450bb3          	mul	s7,a0,s4
    29e0:	cd043d03          	ld	s10,-816(s0)
    29e4:	01ab8d33          	add	s10,s7,s10
    29e8:	cda43823          	sd	s10,-816(s0)
    29ec:	03650bb3          	mul	s7,a0,s6
    29f0:	cd843d03          	ld	s10,-808(s0)
    29f4:	01ab8d33          	add	s10,s7,s10
    29f8:	cda43c23          	sd	s10,-808(s0)
    29fc:	03c50bb3          	mul	s7,a0,t3
    2a00:	ce043d03          	ld	s10,-800(s0)
    2a04:	01ab8d33          	add	s10,s7,s10
    2a08:	cfa43023          	sd	s10,-800(s0)
    2a0c:	02b50bb3          	mul	s7,a0,a1
    2a10:	00058d93          	mv	s11,a1
    2a14:	ce843d03          	ld	s10,-792(s0)
    2a18:	01ab8d33          	add	s10,s7,s10
    2a1c:	cfa43423          	sd	s10,-792(s0)
    2a20:	e5843903          	ld	s2,-424(s0)
    2a24:	03250bb3          	mul	s7,a0,s2
    2a28:	cf043d03          	ld	s10,-784(s0)
    2a2c:	01ab8d33          	add	s10,s7,s10
    2a30:	cfa43823          	sd	s10,-784(s0)
    2a34:	ea043983          	ld	s3,-352(s0)
    2a38:	03350bb3          	mul	s7,a0,s3
    2a3c:	cf843d03          	ld	s10,-776(s0)
    2a40:	01ab8d33          	add	s10,s7,s10
    2a44:	cfa43c23          	sd	s10,-776(s0)
    2a48:	e6843f83          	ld	t6,-408(s0)
    2a4c:	03f50bb3          	mul	s7,a0,t6
    2a50:	d0043d03          	ld	s10,-768(s0)
    2a54:	01ab8d33          	add	s10,s7,s10
    2a58:	d1a43023          	sd	s10,-768(s0)
    2a5c:	f5043e83          	ld	t4,-176(s0)
    2a60:	03d50bb3          	mul	s7,a0,t4
    2a64:	d0843d03          	ld	s10,-760(s0)
    2a68:	01ab8d33          	add	s10,s7,s10
    2a6c:	d1a43423          	sd	s10,-760(s0)
    2a70:	00048e13          	mv	t3,s1
    2a74:	02950bb3          	mul	s7,a0,s1
    2a78:	d1043d03          	ld	s10,-752(s0)
    2a7c:	01ab8d33          	add	s10,s7,s10
    2a80:	d1a43823          	sd	s10,-752(s0)
    2a84:	00038493          	mv	s1,t2
    2a88:	02750bb3          	mul	s7,a0,t2
    2a8c:	d1843d03          	ld	s10,-744(s0)
    2a90:	01ab8d33          	add	s10,s7,s10
    2a94:	d1a43c23          	sd	s10,-744(s0)
    2a98:	000c8393          	mv	t2,s9
    2a9c:	03950bb3          	mul	s7,a0,s9
    2aa0:	d2043d03          	ld	s10,-736(s0)
    2aa4:	01ab8d33          	add	s10,s7,s10
    2aa8:	d3a43023          	sd	s10,-736(s0)
    2aac:	f6843283          	ld	t0,-152(s0)
    2ab0:	02550bb3          	mul	s7,a0,t0
    2ab4:	d2843d03          	ld	s10,-728(s0)
    2ab8:	01ab8d33          	add	s10,s7,s10
    2abc:	d3a43423          	sd	s10,-728(s0)
    2ac0:	00088c93          	mv	s9,a7
    2ac4:	03150bb3          	mul	s7,a0,a7
    2ac8:	d3043d03          	ld	s10,-720(s0)
    2acc:	01ab8d33          	add	s10,s7,s10
    2ad0:	d3a43823          	sd	s10,-720(s0)
    2ad4:	e4843883          	ld	a7,-440(s0)
    2ad8:	03150bb3          	mul	s7,a0,a7
    2adc:	d3843d03          	ld	s10,-712(s0)
    2ae0:	01ab8d33          	add	s10,s7,s10
    2ae4:	d3a43c23          	sd	s10,-712(s0)
    2ae8:	f4043803          	ld	a6,-192(s0)
    2aec:	03050bb3          	mul	s7,a0,a6
    2af0:	d4043d03          	ld	s10,-704(s0)
    2af4:	01ab8d33          	add	s10,s7,s10
    2af8:	d5a43023          	sd	s10,-704(s0)
    2afc:	f7843703          	ld	a4,-136(s0)
    2b00:	02e50bb3          	mul	s7,a0,a4
    2b04:	d4843d03          	ld	s10,-696(s0)
    2b08:	01ab8d33          	add	s10,s7,s10
    2b0c:	d5a43423          	sd	s10,-696(s0)
    2b10:	f3043b03          	ld	s6,-208(s0)
    2b14:	03650bb3          	mul	s7,a0,s6
    2b18:	d5043d03          	ld	s10,-688(s0)
    2b1c:	01ab8d33          	add	s10,s7,s10
    2b20:	d5a43823          	sd	s10,-688(s0)
    2b24:	f3843a03          	ld	s4,-200(s0)
    2b28:	03450bb3          	mul	s7,a0,s4
    2b2c:	d5843d03          	ld	s10,-680(s0)
    2b30:	01ab8d33          	add	s10,s7,s10
    2b34:	d5a43c23          	sd	s10,-680(s0)
    2b38:	ec843303          	ld	t1,-312(s0)
    2b3c:	02650bb3          	mul	s7,a0,t1
    2b40:	d6043d03          	ld	s10,-672(s0)
    2b44:	01ab8d33          	add	s10,s7,s10
    2b48:	d7a43023          	sd	s10,-672(s0)
    2b4c:	e8843683          	ld	a3,-376(s0)
    2b50:	02d50bb3          	mul	s7,a0,a3
    2b54:	d6843d03          	ld	s10,-664(s0)
    2b58:	01ab8d33          	add	s10,s7,s10
    2b5c:	d7a43423          	sd	s10,-664(s0)
    2b60:	02c50bb3          	mul	s7,a0,a2
    2b64:	d7043d03          	ld	s10,-656(s0)
    2b68:	01ab8d33          	add	s10,s7,s10
    2b6c:	d7a43823          	sd	s10,-656(s0)
    2b70:	f8843b83          	ld	s7,-120(s0)
    2b74:	2a0b8b83          	lb	s7,672(s7)
    2b78:	e9843583          	ld	a1,-360(s0)
    2b7c:	02b500b3          	mul	ra,a0,a1
    2b80:	d7843d03          	ld	s10,-648(s0)
    2b84:	01a08d33          	add	s10,ra,s10
    2b88:	d7a43c23          	sd	s10,-648(s0)
    2b8c:	e8043783          	ld	a5,-384(s0)
    2b90:	02f50533          	mul	a0,a0,a5
    2b94:	d8043d03          	ld	s10,-640(s0)
    2b98:	01a50d33          	add	s10,a0,s10
    2b9c:	d9a43023          	sd	s10,-640(s0)
    2ba0:	02fb8533          	mul	a0,s7,a5
    2ba4:	e8a43023          	sd	a0,-384(s0)
    2ba8:	02bb8533          	mul	a0,s7,a1
    2bac:	e8a43c23          	sd	a0,-360(s0)
    2bb0:	02cb8533          	mul	a0,s7,a2
    2bb4:	eca43023          	sd	a0,-320(s0)
    2bb8:	02db8533          	mul	a0,s7,a3
    2bbc:	e8a43423          	sd	a0,-376(s0)
    2bc0:	026b8533          	mul	a0,s7,t1
    2bc4:	eca43423          	sd	a0,-312(s0)
    2bc8:	000f0313          	mv	t1,t5
    2bcc:	034b8533          	mul	a0,s7,s4
    2bd0:	000015b7          	lui	a1,0x1
    2bd4:	40b405b3          	sub	a1,s0,a1
    2bd8:	68a5b023          	sd	a0,1664(a1) # 1680 <.LBB78_4+0x4cc>
    2bdc:	036b8533          	mul	a0,s7,s6
    2be0:	f2a43c23          	sd	a0,-200(s0)
    2be4:	02eb8533          	mul	a0,s7,a4
    2be8:	f6a43c23          	sd	a0,-136(s0)
    2bec:	030b8533          	mul	a0,s7,a6
    2bf0:	f4a43023          	sd	a0,-192(s0)
    2bf4:	031b8533          	mul	a0,s7,a7
    2bf8:	f2a43823          	sd	a0,-208(s0)
    2bfc:	039b8533          	mul	a0,s7,s9
    2c00:	eaa43c23          	sd	a0,-328(s0)
    2c04:	025b8533          	mul	a0,s7,t0
    2c08:	f6a43423          	sd	a0,-152(s0)
    2c0c:	027b8b33          	mul	s6,s7,t2
    2c10:	029b8a33          	mul	s4,s7,s1
    2c14:	03cb88b3          	mul	a7,s7,t3
    2c18:	03db82b3          	mul	t0,s7,t4
    2c1c:	03fb8833          	mul	a6,s7,t6
    2c20:	033b8f33          	mul	t5,s7,s3
    2c24:	032b84b3          	mul	s1,s7,s2
    2c28:	03bb8933          	mul	s2,s7,s11
    2c2c:	eb043503          	ld	a0,-336(s0)
    2c30:	02ab89b3          	mul	s3,s7,a0
    2c34:	e7843503          	ld	a0,-392(s0)
    2c38:	02ab83b3          	mul	t2,s7,a0
    2c3c:	f5843503          	ld	a0,-168(s0)
    2c40:	02ab8cb3          	mul	s9,s7,a0
    2c44:	035b8d33          	mul	s10,s7,s5
    2c48:	038b80b3          	mul	ra,s7,s8
    2c4c:	f4843503          	ld	a0,-184(s0)
    2c50:	02ab8533          	mul	a0,s7,a0
    2c54:	e7043583          	ld	a1,-400(s0)
    2c58:	02bb8db3          	mul	s11,s7,a1
    2c5c:	f1043583          	ld	a1,-240(s0)
    2c60:	02bb8633          	mul	a2,s7,a1
    2c64:	f1843583          	ld	a1,-232(s0)
    2c68:	02bb86b3          	mul	a3,s7,a1
    2c6c:	f2843583          	ld	a1,-216(s0)
    2c70:	02bb8733          	mul	a4,s7,a1
    2c74:	f2043583          	ld	a1,-224(s0)
    2c78:	02bb87b3          	mul	a5,s7,a1
    2c7c:	f8843583          	ld	a1,-120(s0)
    2c80:	00158593          	addi	a1,a1,1
    2c84:	f8b43423          	sd	a1,-120(s0)
    2c88:	f8043583          	ld	a1,-128(s0)
    2c8c:	02bb8bb3          	mul	s7,s7,a1
    2c90:	da843583          	ld	a1,-600(s0)
    2c94:	00bb85b3          	add	a1,s7,a1
    2c98:	dab43423          	sd	a1,-600(s0)
    2c9c:	dc043b83          	ld	s7,-576(s0)
    2ca0:	da043583          	ld	a1,-608(s0)
    2ca4:	00b785b3          	add	a1,a5,a1
    2ca8:	dab43023          	sd	a1,-608(s0)
    2cac:	d9843583          	ld	a1,-616(s0)
    2cb0:	00b705b3          	add	a1,a4,a1
    2cb4:	d8b43c23          	sd	a1,-616(s0)
    2cb8:	d9043583          	ld	a1,-624(s0)
    2cbc:	00b685b3          	add	a1,a3,a1
    2cc0:	d8b43823          	sd	a1,-624(s0)
    2cc4:	d8843583          	ld	a1,-632(s0)
    2cc8:	00b605b3          	add	a1,a2,a1
    2ccc:	d8b43423          	sd	a1,-632(s0)
    2cd0:	db043583          	ld	a1,-592(s0)
    2cd4:	00bd85b3          	add	a1,s11,a1
    2cd8:	dab43823          	sd	a1,-592(s0)
    2cdc:	db843583          	ld	a1,-584(s0)
    2ce0:	00b505b3          	add	a1,a0,a1
    2ce4:	dab43c23          	sd	a1,-584(s0)
    2ce8:	ed043503          	ld	a0,-304(s0)
    2cec:	00a08533          	add	a0,ra,a0
    2cf0:	000015b7          	lui	a1,0x1
    2cf4:	40b405b3          	sub	a1,s0,a1
    2cf8:	6885b083          	ld	ra,1672(a1) # 1688 <.LBB78_4+0x4d4>
    2cfc:	eca43823          	sd	a0,-304(s0)
    2d00:	ed043d83          	ld	s11,-304(s0)
    2d04:	ed843503          	ld	a0,-296(s0)
    2d08:	00ad0533          	add	a0,s10,a0
    2d0c:	eca43c23          	sd	a0,-296(s0)
    2d10:	ed843d03          	ld	s10,-296(s0)
    2d14:	ee043503          	ld	a0,-288(s0)
    2d18:	00ac8533          	add	a0,s9,a0
    2d1c:	eea43023          	sd	a0,-288(s0)
    2d20:	ee043c83          	ld	s9,-288(s0)
    2d24:	ee843503          	ld	a0,-280(s0)
    2d28:	00a38533          	add	a0,t2,a0
    2d2c:	eea43423          	sd	a0,-280(s0)
    2d30:	ee843c03          	ld	s8,-280(s0)
    2d34:	01798bb3          	add	s7,s3,s7
    2d38:	dd843983          	ld	s3,-552(s0)
    2d3c:	dc843503          	ld	a0,-568(s0)
    2d40:	00a90533          	add	a0,s2,a0
    2d44:	dca43423          	sd	a0,-568(s0)
    2d48:	de043903          	ld	s2,-544(s0)
    2d4c:	dd043503          	ld	a0,-560(s0)
    2d50:	00a48533          	add	a0,s1,a0
    2d54:	dca43823          	sd	a0,-560(s0)
    2d58:	de843483          	ld	s1,-536(s0)
    2d5c:	013f09b3          	add	s3,t5,s3
    2d60:	df843f03          	ld	t5,-520(s0)
    2d64:	01280933          	add	s2,a6,s2
    2d68:	e0043e03          	ld	t3,-512(s0)
    2d6c:	009284b3          	add	s1,t0,s1
    2d70:	df043f83          	ld	t6,-528(s0)
    2d74:	01f88fb3          	add	t6,a7,t6
    2d78:	e0843383          	ld	t2,-504(s0)
    2d7c:	01ea0f33          	add	t5,s4,t5
    2d80:	e1043803          	ld	a6,-496(s0)
    2d84:	ef043503          	ld	a0,-272(s0)
    2d88:	00ab0533          	add	a0,s6,a0
    2d8c:	eea43823          	sd	a0,-272(s0)
    2d90:	ef043783          	ld	a5,-272(s0)
    2d94:	f6843503          	ld	a0,-152(s0)
    2d98:	01c50e33          	add	t3,a0,t3
    2d9c:	e1843283          	ld	t0,-488(s0)
    2da0:	eb843503          	ld	a0,-328(s0)
    2da4:	007503b3          	add	t2,a0,t2
    2da8:	e2043883          	ld	a7,-480(s0)
    2dac:	00001537          	lui	a0,0x1
    2db0:	40a40533          	sub	a0,s0,a0
    2db4:	67853703          	ld	a4,1656(a0) # 1678 <.LBB78_4+0x4c4>
    2db8:	ef843503          	ld	a0,-264(s0)
    2dbc:	f3043583          	ld	a1,-208(s0)
    2dc0:	00a58533          	add	a0,a1,a0
    2dc4:	eea43c23          	sd	a0,-264(s0)
    2dc8:	ef843683          	ld	a3,-264(s0)
    2dcc:	f0043503          	ld	a0,-256(s0)
    2dd0:	f4043583          	ld	a1,-192(s0)
    2dd4:	00a58533          	add	a0,a1,a0
    2dd8:	f0a43023          	sd	a0,-256(s0)
    2ddc:	f0043603          	ld	a2,-256(s0)
    2de0:	f0843503          	ld	a0,-248(s0)
    2de4:	f7843583          	ld	a1,-136(s0)
    2de8:	00a58533          	add	a0,a1,a0
    2dec:	f0a43423          	sd	a0,-248(s0)
    2df0:	f0843503          	ld	a0,-248(s0)
    2df4:	f3843583          	ld	a1,-200(s0)
    2df8:	01058833          	add	a6,a1,a6
    2dfc:	f8843583          	ld	a1,-120(s0)
    2e00:	00001eb7          	lui	t4,0x1
    2e04:	41d40eb3          	sub	t4,s0,t4
    2e08:	680ebe83          	ld	t4,1664(t4) # 1680 <.LBB78_4+0x4cc>
    2e0c:	005e82b3          	add	t0,t4,t0
    2e10:	ec843e83          	ld	t4,-312(s0)
    2e14:	011e88b3          	add	a7,t4,a7
    2e18:	e2843e83          	ld	t4,-472(s0)
    2e1c:	e8843a03          	ld	s4,-376(s0)
    2e20:	01da0eb3          	add	t4,s4,t4
    2e24:	e3d43423          	sd	t4,-472(s0)
    2e28:	e3043e83          	ld	t4,-464(s0)
    2e2c:	ec043a03          	ld	s4,-320(s0)
    2e30:	01da0eb3          	add	t4,s4,t4
    2e34:	e3d43823          	sd	t4,-464(s0)
    2e38:	e3843e83          	ld	t4,-456(s0)
    2e3c:	e9843a03          	ld	s4,-360(s0)
    2e40:	01da0eb3          	add	t4,s4,t4
    2e44:	e3d43c23          	sd	t4,-456(s0)
    2e48:	e4043e83          	ld	t4,-448(s0)
    2e4c:	e8043a03          	ld	s4,-384(s0)
    2e50:	01da0eb3          	add	t4,s4,t4
    2e54:	e5d43023          	sd	t4,-448(s0)
    2e58:	24030313          	addi	t1,t1,576
    2e5c:	00e58463          	beq	a1,a4,2e64 <.LBB78_6>
    2e60:	8edfe06f          	j	174c <.LBB78_5>

0000000000002e64 <.LBB78_6>:
    2e64:	00001537          	lui	a0,0x1
    2e68:	40a40533          	sub	a0,s0,a0
    2e6c:	6a853b03          	ld	s6,1704(a0) # 16a8 <.LBB78_4+0x4f4>
    2e70:	00001537          	lui	a0,0x1
    2e74:	40a40533          	sub	a0,s0,a0
    2e78:	6b053c03          	ld	s8,1712(a0) # 16b0 <.LBB78_4+0x4fc>
    2e7c:	00001537          	lui	a0,0x1
    2e80:	40a40533          	sub	a0,s0,a0
    2e84:	6b853c83          	ld	s9,1720(a0) # 16b8 <.LBB78_4+0x504>
    2e88:	00001537          	lui	a0,0x1
    2e8c:	40a40533          	sub	a0,s0,a0
    2e90:	6c053083          	ld	ra,1728(a0) # 16c0 <.LBB78_4+0x50c>
    2e94:	00001537          	lui	a0,0x1
    2e98:	40a40533          	sub	a0,s0,a0
    2e9c:	6a053a83          	ld	s5,1696(a0) # 16a0 <.LBB78_4+0x4ec>
    2ea0:	00001537          	lui	a0,0x1
    2ea4:	40a40533          	sub	a0,s0,a0
    2ea8:	69853a03          	ld	s4,1688(a0) # 1698 <.LBB78_4+0x4e4>
    2eac:	00001537          	lui	a0,0x1
    2eb0:	40a40533          	sub	a0,s0,a0
    2eb4:	69053e83          	ld	t4,1680(a0) # 1690 <.LBB78_4+0x4dc>
    2eb8:	00001537          	lui	a0,0x1
    2ebc:	40a40533          	sub	a0,s0,a0
    2ec0:	67053583          	ld	a1,1648(a0) # 1670 <.LBB78_4+0x4bc>
    2ec4:	00259593          	slli	a1,a1,0x2
    2ec8:	00001537          	lui	a0,0x1
    2ecc:	40a40533          	sub	a0,s0,a0
    2ed0:	d6053503          	ld	a0,-672(a0) # d60 <.LBB78_3+0xb08>
    2ed4:	00b50533          	add	a0,a0,a1
    2ed8:	00001637          	lui	a2,0x1
    2edc:	40c40633          	sub	a2,s0,a2
    2ee0:	66863603          	ld	a2,1640(a2) # 1668 <.LBB78_4+0x4b4>
    2ee4:	00062603          	lw	a2,0(a2)
    2ee8:	000016b7          	lui	a3,0x1
    2eec:	40d406b3          	sub	a3,s0,a3
    2ef0:	d586b683          	ld	a3,-680(a3) # d58 <.LBB78_3+0xb00>
    2ef4:	00b685b3          	add	a1,a3,a1
    2ef8:	0105a683          	lw	a3,16(a1)
    2efc:	01052303          	lw	t1,16(a0)
    2f00:	00a00713          	li	a4,10
    2f04:	02e607b3          	mul	a5,a2,a4
    2f08:	c4068693          	addi	a3,a3,-960
    2f0c:	e8643823          	sd	t1,-368(s0)
    2f10:	00001637          	lui	a2,0x1
    2f14:	40c40633          	sub	a2,s0,a2
    2f18:	6c863603          	ld	a2,1736(a2) # 16c8 <.LBB78_4+0x514>
    2f1c:	00660633          	add	a2,a2,t1
    2f20:	e8d43423          	sd	a3,-376(s0)
    2f24:	00c68633          	add	a2,a3,a2
    2f28:	40f6063b          	subw	a2,a2,a5
    2f2c:	400006b7          	lui	a3,0x40000
    2f30:	00001737          	lui	a4,0x1
    2f34:	40e40733          	sub	a4,s0,a4
    2f38:	f4c73423          	sd	a2,-184(a4) # f48 <.LBB78_3+0xcf0>
    2f3c:	00065463          	bgez	a2,2f44 <.LBB78_8>
    2f40:	c00006b7          	lui	a3,0xc0000

0000000000002f44 <.LBB78_8>:
    2f44:	00001637          	lui	a2,0x1
    2f48:	40c40633          	sub	a2,s0,a2
    2f4c:	ead63c23          	sd	a3,-328(a2) # eb8 <.LBB78_3+0xc60>
    2f50:	00c5a603          	lw	a2,12(a1)
    2f54:	00c52683          	lw	a3,12(a0)
    2f58:	c4060713          	addi	a4,a2,-960
    2f5c:	e8d43023          	sd	a3,-384(s0)
    2f60:	00db0633          	add	a2,s6,a3
    2f64:	e6e43c23          	sd	a4,-392(s0)
    2f68:	00c70633          	add	a2,a4,a2
    2f6c:	40f6063b          	subw	a2,a2,a5
    2f70:	400006b7          	lui	a3,0x40000
    2f74:	00001737          	lui	a4,0x1
    2f78:	40e40733          	sub	a4,s0,a4
    2f7c:	f4c73023          	sd	a2,-192(a4) # f40 <.LBB78_3+0xce8>
    2f80:	000e8d13          	mv	s10,t4
    2f84:	000a0d93          	mv	s11,s4
    2f88:	000a8b13          	mv	s6,s5
    2f8c:	00065463          	bgez	a2,2f94 <.LBB78_10>
    2f90:	c00006b7          	lui	a3,0xc0000

0000000000002f94 <.LBB78_10>:
    2f94:	0085a603          	lw	a2,8(a1)
    2f98:	00852703          	lw	a4,8(a0)
    2f9c:	c4060313          	addi	t1,a2,-960
    2fa0:	e6e43823          	sd	a4,-400(s0)
    2fa4:	00ec0633          	add	a2,s8,a4
    2fa8:	e6643423          	sd	t1,-408(s0)
    2fac:	00c30633          	add	a2,t1,a2
    2fb0:	40f6063b          	subw	a2,a2,a5
    2fb4:	40000737          	lui	a4,0x40000
    2fb8:	00001337          	lui	t1,0x1
    2fbc:	40640333          	sub	t1,s0,t1
    2fc0:	f2c33c23          	sd	a2,-200(t1) # f38 <.LBB78_3+0xce0>
    2fc4:	00065463          	bgez	a2,2fcc <.LBB78_12>
    2fc8:	c0000737          	lui	a4,0xc0000

0000000000002fcc <.LBB78_12>:
    2fcc:	0045a603          	lw	a2,4(a1)
    2fd0:	00452303          	lw	t1,4(a0)
    2fd4:	c4060e93          	addi	t4,a2,-960
    2fd8:	e6643023          	sd	t1,-416(s0)
    2fdc:	006c8633          	add	a2,s9,t1
    2fe0:	e5d43c23          	sd	t4,-424(s0)
    2fe4:	00ce8633          	add	a2,t4,a2
    2fe8:	40f6063b          	subw	a2,a2,a5
    2fec:	40000337          	lui	t1,0x40000
    2ff0:	00001eb7          	lui	t4,0x1
    2ff4:	41d40eb3          	sub	t4,s0,t4
    2ff8:	f2ceb823          	sd	a2,-208(t4) # f30 <.LBB78_3+0xcd8>
    2ffc:	00065463          	bgez	a2,3004 <.LBB78_14>
    3000:	c0000337          	lui	t1,0xc0000

0000000000003004 <.LBB78_14>:
    3004:	0005a603          	lw	a2,0(a1)
    3008:	00052e83          	lw	t4,0(a0)
    300c:	c4060a13          	addi	s4,a2,-960
    3010:	e5d43823          	sd	t4,-432(s0)
    3014:	01d08633          	add	a2,ra,t4
    3018:	e5443423          	sd	s4,-440(s0)
    301c:	00ca0633          	add	a2,s4,a2
    3020:	40f6063b          	subw	a2,a2,a5
    3024:	40000eb7          	lui	t4,0x40000
    3028:	00001a37          	lui	s4,0x1
    302c:	41440a33          	sub	s4,s0,s4
    3030:	f2ca3423          	sd	a2,-216(s4) # f28 <.LBB78_3+0xcd0>
    3034:	00065463          	bgez	a2,303c <.LBB78_16>
    3038:	c0000eb7          	lui	t4,0xc0000

000000000000303c <.LBB78_16>:
    303c:	0145a603          	lw	a2,20(a1)
    3040:	01452a03          	lw	s4,20(a0)
    3044:	c4060a93          	addi	s5,a2,-960
    3048:	00001637          	lui	a2,0x1
    304c:	40c40633          	sub	a2,s0,a2
    3050:	6d463423          	sd	s4,1736(a2) # 16c8 <.LBB78_4+0x514>
    3054:	014b0633          	add	a2,s6,s4
    3058:	00001a37          	lui	s4,0x1
    305c:	41440a33          	sub	s4,s0,s4
    3060:	6d5a3023          	sd	s5,1728(s4) # 16c0 <.LBB78_4+0x50c>
    3064:	00ca8633          	add	a2,s5,a2
    3068:	40f6063b          	subw	a2,a2,a5
    306c:	40000a37          	lui	s4,0x40000
    3070:	00001ab7          	lui	s5,0x1
    3074:	41540ab3          	sub	s5,s0,s5
    3078:	f2cab023          	sd	a2,-224(s5) # f20 <.LBB78_3+0xcc8>
    307c:	00065463          	bgez	a2,3084 <.LBB78_18>
    3080:	c0000a37          	lui	s4,0xc0000

0000000000003084 <.LBB78_18>:
    3084:	0185a603          	lw	a2,24(a1)
    3088:	01852a83          	lw	s5,24(a0)
    308c:	c4060b13          	addi	s6,a2,-960
    3090:	00001637          	lui	a2,0x1
    3094:	40c40633          	sub	a2,s0,a2
    3098:	6b563c23          	sd	s5,1720(a2) # 16b8 <.LBB78_4+0x504>
    309c:	015d8633          	add	a2,s11,s5
    30a0:	00001ab7          	lui	s5,0x1
    30a4:	41540ab3          	sub	s5,s0,s5
    30a8:	6b6ab423          	sd	s6,1704(s5) # 16a8 <.LBB78_4+0x4f4>
    30ac:	00cb0633          	add	a2,s6,a2
    30b0:	40f6063b          	subw	a2,a2,a5
    30b4:	40000ab7          	lui	s5,0x40000
    30b8:	00001b37          	lui	s6,0x1
    30bc:	41640b33          	sub	s6,s0,s6
    30c0:	f0cb3c23          	sd	a2,-232(s6) # f18 <.LBB78_3+0xcc0>
    30c4:	00065463          	bgez	a2,30cc <.LBB78_20>
    30c8:	c0000ab7          	lui	s5,0xc0000

00000000000030cc <.LBB78_20>:
    30cc:	00001637          	lui	a2,0x1
    30d0:	40c40633          	sub	a2,s0,a2
    30d4:	ee663823          	sd	t1,-272(a2) # ef0 <.LBB78_3+0xc98>
    30d8:	00001637          	lui	a2,0x1
    30dc:	40c40633          	sub	a2,s0,a2
    30e0:	f0d63023          	sd	a3,-256(a2) # f00 <.LBB78_3+0xca8>
    30e4:	01c5a603          	lw	a2,28(a1)
    30e8:	01c52683          	lw	a3,28(a0)
    30ec:	c4060313          	addi	t1,a2,-960
    30f0:	00001637          	lui	a2,0x1
    30f4:	40c40633          	sub	a2,s0,a2
    30f8:	6ad63023          	sd	a3,1696(a2) # 16a0 <.LBB78_4+0x4ec>
    30fc:	00dd0633          	add	a2,s10,a3
    3100:	000016b7          	lui	a3,0x1
    3104:	40d406b3          	sub	a3,s0,a3
    3108:	6866bc23          	sd	t1,1688(a3) # 1698 <.LBB78_4+0x4e4>
    310c:	00c30633          	add	a2,t1,a2
    3110:	40f6063b          	subw	a2,a2,a5
    3114:	400006b7          	lui	a3,0x40000
    3118:	00001337          	lui	t1,0x1
    311c:	40640333          	sub	t1,s0,t1
    3120:	f0c33823          	sd	a2,-240(t1) # f10 <.LBB78_3+0xcb8>
    3124:	00001337          	lui	t1,0x1
    3128:	40640333          	sub	t1,s0,t1
    312c:	6d033c03          	ld	s8,1744(t1) # 16d0 <.LBB78_4+0x51c>
    3130:	00001337          	lui	t1,0x1
    3134:	40640333          	sub	t1,s0,t1
    3138:	6d833c83          	ld	s9,1752(t1) # 16d8 <.LBB78_4+0x524>
    313c:	00065463          	bgez	a2,3144 <.LBB78_22>
    3140:	c00006b7          	lui	a3,0xc0000

0000000000003144 <.LBB78_22>:
    3144:	00001637          	lui	a2,0x1
    3148:	40c40633          	sub	a2,s0,a2
    314c:	ecd63823          	sd	a3,-304(a2) # ed0 <.LBB78_3+0xc78>
    3150:	00001637          	lui	a2,0x1
    3154:	40c40633          	sub	a2,s0,a2
    3158:	ed563c23          	sd	s5,-296(a2) # ed8 <.LBB78_3+0xc80>
    315c:	00001637          	lui	a2,0x1
    3160:	40c40633          	sub	a2,s0,a2
    3164:	ef463023          	sd	s4,-288(a2) # ee0 <.LBB78_3+0xc88>
    3168:	00001637          	lui	a2,0x1
    316c:	40c40633          	sub	a2,s0,a2
    3170:	efd63423          	sd	t4,-280(a2) # ee8 <.LBB78_3+0xc90>
    3174:	00001637          	lui	a2,0x1
    3178:	40c40633          	sub	a2,s0,a2
    317c:	eee63c23          	sd	a4,-264(a2) # ef8 <.LBB78_3+0xca0>
    3180:	dd743023          	sd	s7,-576(s0)
    3184:	dd343c23          	sd	s3,-552(s0)
    3188:	00090313          	mv	t1,s2
    318c:	de943423          	sd	s1,-536(s0)
    3190:	dff43823          	sd	t6,-528(s0)
    3194:	dfe43c23          	sd	t5,-520(s0)
    3198:	e1c43023          	sd	t3,-512(s0)
    319c:	e0743423          	sd	t2,-504(s0)
    31a0:	e1043823          	sd	a6,-496(s0)
    31a4:	e0543c23          	sd	t0,-488(s0)
    31a8:	e3143023          	sd	a7,-480(s0)
    31ac:	0245a603          	lw	a2,36(a1)
    31b0:	0205a683          	lw	a3,32(a1)
    31b4:	c4060613          	addi	a2,a2,-960
    31b8:	02052703          	lw	a4,32(a0)
    31bc:	c4068893          	addi	a7,a3,-960 # ffffffffbffffc40 <.Lfunc_end80+0xffffffffbffd7274>
    31c0:	02452683          	lw	a3,36(a0)
    31c4:	ead43c23          	sd	a3,-328(s0)
    31c8:	000016b7          	lui	a3,0x1
    31cc:	40d406b3          	sub	a3,s0,a3
    31d0:	6ac6b823          	sd	a2,1712(a3) # 16b0 <.LBB78_4+0x4fc>
    31d4:	019606b3          	add	a3,a2,s9
    31d8:	00001637          	lui	a2,0x1
    31dc:	40c40633          	sub	a2,s0,a2
    31e0:	6ce63c23          	sd	a4,1752(a2) # 16d8 <.LBB78_4+0x524>
    31e4:	00ec0633          	add	a2,s8,a4
    31e8:	00001737          	lui	a4,0x1
    31ec:	40e40733          	sub	a4,s0,a4
    31f0:	6d173823          	sd	a7,1744(a4) # 16d0 <.LBB78_4+0x51c>
    31f4:	00c88633          	add	a2,a7,a2
    31f8:	40f6063b          	subw	a2,a2,a5
    31fc:	40000737          	lui	a4,0x40000
    3200:	00001837          	lui	a6,0x1
    3204:	41040833          	sub	a6,s0,a6
    3208:	eac83423          	sd	a2,-344(a6) # ea8 <.LBB78_3+0xc50>
    320c:	00065463          	bgez	a2,3214 <.LBB78_24>
    3210:	c0000737          	lui	a4,0xc0000

0000000000003214 <.LBB78_24>:
    3214:	00001637          	lui	a2,0x1
    3218:	40c40633          	sub	a2,s0,a2
    321c:	e8e63c23          	sd	a4,-360(a2) # e98 <.LBB78_3+0xc40>
    3220:	0285a703          	lw	a4,40(a1)
    3224:	02c5a603          	lw	a2,44(a1)
    3228:	0305a083          	lw	ra,48(a1)
    322c:	0345ad83          	lw	s11,52(a1)
    3230:	0385ad03          	lw	s10,56(a1)
    3234:	03c5ac83          	lw	s9,60(a1)
    3238:	0405ac03          	lw	s8,64(a1)
    323c:	0445ab83          	lw	s7,68(a1)
    3240:	0485ab03          	lw	s6,72(a1)
    3244:	04c5aa83          	lw	s5,76(a1)
    3248:	0505aa03          	lw	s4,80(a1)
    324c:	0545a983          	lw	s3,84(a1)
    3250:	0585a903          	lw	s2,88(a1)
    3254:	05c5a483          	lw	s1,92(a1)
    3258:	0605af83          	lw	t6,96(a1)
    325c:	0645af03          	lw	t5,100(a1)
    3260:	0685ae83          	lw	t4,104(a1)
    3264:	06c5ae03          	lw	t3,108(a1)
    3268:	0705a383          	lw	t2,112(a1)
    326c:	0745a883          	lw	a7,116(a1)
    3270:	0785a803          	lw	a6,120(a1)
    3274:	000012b7          	lui	t0,0x1
    3278:	405402b3          	sub	t0,s0,t0
    327c:	6502b023          	sd	a6,1600(t0) # 1640 <.LBB78_4+0x48c>
    3280:	07c5a583          	lw	a1,124(a1)
    3284:	00001837          	lui	a6,0x1
    3288:	41040833          	sub	a6,s0,a6
    328c:	64b83423          	sd	a1,1608(a6) # 1648 <.LBB78_4+0x494>
    3290:	02852583          	lw	a1,40(a0)
    3294:	e8b43c23          	sd	a1,-360(s0)
    3298:	02c52583          	lw	a1,44(a0)
    329c:	eab43023          	sd	a1,-352(s0)
    32a0:	03052583          	lw	a1,48(a0)
    32a4:	eab43423          	sd	a1,-344(s0)
    32a8:	03452583          	lw	a1,52(a0)
    32ac:	eab43823          	sd	a1,-336(s0)
    32b0:	03852583          	lw	a1,56(a0)
    32b4:	ecb43023          	sd	a1,-320(s0)
    32b8:	03c52583          	lw	a1,60(a0)
    32bc:	ecb43423          	sd	a1,-312(s0)
    32c0:	04052583          	lw	a1,64(a0)
    32c4:	f0b43823          	sd	a1,-240(s0)
    32c8:	04452583          	lw	a1,68(a0)
    32cc:	f0b43c23          	sd	a1,-232(s0)
    32d0:	04852583          	lw	a1,72(a0)
    32d4:	f2b43023          	sd	a1,-224(s0)
    32d8:	04c52583          	lw	a1,76(a0)
    32dc:	f2b43423          	sd	a1,-216(s0)
    32e0:	05052583          	lw	a1,80(a0)
    32e4:	f2b43823          	sd	a1,-208(s0)
    32e8:	05452583          	lw	a1,84(a0)
    32ec:	f2b43c23          	sd	a1,-200(s0)
    32f0:	05852583          	lw	a1,88(a0)
    32f4:	f4b43023          	sd	a1,-192(s0)
    32f8:	05c52583          	lw	a1,92(a0)
    32fc:	f4b43423          	sd	a1,-184(s0)
    3300:	06052583          	lw	a1,96(a0)
    3304:	f4b43823          	sd	a1,-176(s0)
    3308:	06452583          	lw	a1,100(a0)
    330c:	f4b43c23          	sd	a1,-168(s0)
    3310:	06852583          	lw	a1,104(a0)
    3314:	f6b43023          	sd	a1,-160(s0)
    3318:	06c52583          	lw	a1,108(a0)
    331c:	f6b43423          	sd	a1,-152(s0)
    3320:	07052583          	lw	a1,112(a0)
    3324:	f6b43823          	sd	a1,-144(s0)
    3328:	07452583          	lw	a1,116(a0)
    332c:	f6b43c23          	sd	a1,-136(s0)
    3330:	07852583          	lw	a1,120(a0)
    3334:	f8b43023          	sd	a1,-128(s0)
    3338:	07c52503          	lw	a0,124(a0)
    333c:	f8a43423          	sd	a0,-120(s0)
    3340:	00001537          	lui	a0,0x1
    3344:	40a40533          	sub	a0,s0,a0
    3348:	66853583          	ld	a1,1640(a0) # 1668 <.LBB78_4+0x4b4>
    334c:	0045a283          	lw	t0,4(a1)
    3350:	0085a503          	lw	a0,8(a1)
    3354:	00001837          	lui	a6,0x1
    3358:	41040833          	sub	a6,s0,a6
    335c:	64a83823          	sd	a0,1616(a6) # 1650 <.LBB78_4+0x49c>
    3360:	00c5a503          	lw	a0,12(a1)
    3364:	00001837          	lui	a6,0x1
    3368:	41040833          	sub	a6,s0,a6
    336c:	68a83023          	sd	a0,1664(a6) # 1680 <.LBB78_4+0x4cc>
    3370:	0105a503          	lw	a0,16(a1)
    3374:	00001837          	lui	a6,0x1
    3378:	41040833          	sub	a6,s0,a6
    337c:	68a83823          	sd	a0,1680(a6) # 1690 <.LBB78_4+0x4dc>
    3380:	0145a503          	lw	a0,20(a1)
    3384:	00001837          	lui	a6,0x1
    3388:	41040833          	sub	a6,s0,a6
    338c:	d8a83423          	sd	a0,-632(a6) # d88 <.LBB78_3+0xb30>
    3390:	0185a503          	lw	a0,24(a1)
    3394:	00001837          	lui	a6,0x1
    3398:	41040833          	sub	a6,s0,a6
    339c:	d8a83823          	sd	a0,-624(a6) # d90 <.LBB78_3+0xb38>
    33a0:	01c5a583          	lw	a1,28(a1)
    33a4:	00001537          	lui	a0,0x1
    33a8:	40a40533          	sub	a0,s0,a0
    33ac:	d8b53c23          	sd	a1,-616(a0) # d98 <.LBB78_3+0xb40>
    33b0:	eb843583          	ld	a1,-328(s0)
    33b4:	00b686b3          	add	a3,a3,a1
    33b8:	40f686bb          	subw	a3,a3,a5
    33bc:	400005b7          	lui	a1,0x40000
    33c0:	00001537          	lui	a0,0x1
    33c4:	40a40533          	sub	a0,s0,a0
    33c8:	dad53423          	sd	a3,-600(a0) # da8 <.LBB78_3+0xb50>
    33cc:	0006d463          	bgez	a3,33d4 <.LBB78_26>
    33d0:	c00005b7          	lui	a1,0xc0000

00000000000033d4 <.LBB78_26>:
    33d4:	00001537          	lui	a0,0x1
    33d8:	40a40533          	sub	a0,s0,a0
    33dc:	dab53023          	sd	a1,-608(a0) # da0 <.LBB78_3+0xb48>
    33e0:	c4070593          	addi	a1,a4,-960 # ffffffffbffffc40 <.Lfunc_end80+0xffffffffbffd7274>
    33e4:	e9843683          	ld	a3,-360(s0)
    33e8:	00001537          	lui	a0,0x1
    33ec:	40a40533          	sub	a0,s0,a0
    33f0:	6e053703          	ld	a4,1760(a0) # 16e0 <.LBB78_4+0x52c>
    33f4:	00d706b3          	add	a3,a4,a3
    33f8:	00001537          	lui	a0,0x1
    33fc:	40a40533          	sub	a0,s0,a0
    3400:	6eb53023          	sd	a1,1760(a0) # 16e0 <.LBB78_4+0x52c>
    3404:	00d586b3          	add	a3,a1,a3
    3408:	40f686bb          	subw	a3,a3,a5
    340c:	400005b7          	lui	a1,0x40000
    3410:	00001537          	lui	a0,0x1
    3414:	40a40533          	sub	a0,s0,a0
    3418:	dad53c23          	sd	a3,-584(a0) # db8 <.LBB78_3+0xb60>
    341c:	0006d463          	bgez	a3,3424 <.LBB78_28>
    3420:	c00005b7          	lui	a1,0xc0000

0000000000003424 <.LBB78_28>:
    3424:	00001537          	lui	a0,0x1
    3428:	40a40533          	sub	a0,s0,a0
    342c:	dab53823          	sd	a1,-592(a0) # db0 <.LBB78_3+0xb58>
    3430:	c4060593          	addi	a1,a2,-960
    3434:	ea043603          	ld	a2,-352(s0)
    3438:	00001537          	lui	a0,0x1
    343c:	40a40533          	sub	a0,s0,a0
    3440:	6e853683          	ld	a3,1768(a0) # 16e8 <.LBB78_4+0x534>
    3444:	00c68633          	add	a2,a3,a2
    3448:	00001537          	lui	a0,0x1
    344c:	40a40533          	sub	a0,s0,a0
    3450:	6eb53423          	sd	a1,1768(a0) # 16e8 <.LBB78_4+0x534>
    3454:	00c58633          	add	a2,a1,a2
    3458:	40f6063b          	subw	a2,a2,a5
    345c:	400005b7          	lui	a1,0x40000
    3460:	00001537          	lui	a0,0x1
    3464:	40a40533          	sub	a0,s0,a0
    3468:	dcc53423          	sd	a2,-568(a0) # dc8 <.LBB78_3+0xb70>
    346c:	88843703          	ld	a4,-1912(s0)
    3470:	00065463          	bgez	a2,3478 <.LBB78_30>
    3474:	c00005b7          	lui	a1,0xc0000

0000000000003478 <.LBB78_30>:
    3478:	00001537          	lui	a0,0x1
    347c:	40a40533          	sub	a0,s0,a0
    3480:	dcb53023          	sd	a1,-576(a0) # dc0 <.LBB78_3+0xb68>
    3484:	c4008593          	addi	a1,ra,-960
    3488:	ea843603          	ld	a2,-344(s0)
    348c:	00001537          	lui	a0,0x1
    3490:	40a40533          	sub	a0,s0,a0
    3494:	6f053683          	ld	a3,1776(a0) # 16f0 <.LBB78_4+0x53c>
    3498:	00c68633          	add	a2,a3,a2
    349c:	00058093          	mv	ra,a1
    34a0:	00c58633          	add	a2,a1,a2
    34a4:	40f6063b          	subw	a2,a2,a5
    34a8:	400005b7          	lui	a1,0x40000
    34ac:	00001537          	lui	a0,0x1
    34b0:	40a40533          	sub	a0,s0,a0
    34b4:	dcc53c23          	sd	a2,-552(a0) # dd8 <.LBB78_3+0xb80>
    34b8:	00001537          	lui	a0,0x1
    34bc:	40a40533          	sub	a0,s0,a0
    34c0:	78853683          	ld	a3,1928(a0) # 1788 <.LBB78_5+0x3c>
    34c4:	00065463          	bgez	a2,34cc <.LBB78_32>
    34c8:	c00005b7          	lui	a1,0xc0000

00000000000034cc <.LBB78_32>:
    34cc:	00001537          	lui	a0,0x1
    34d0:	40a40533          	sub	a0,s0,a0
    34d4:	dcb53823          	sd	a1,-560(a0) # dd0 <.LBB78_3+0xb78>
    34d8:	c40d8593          	addi	a1,s11,-960
    34dc:	eb043603          	ld	a2,-336(s0)
    34e0:	00001537          	lui	a0,0x1
    34e4:	40a40533          	sub	a0,s0,a0
    34e8:	6f853d83          	ld	s11,1784(a0) # 16f8 <.LBB78_4+0x544>
    34ec:	00cd8633          	add	a2,s11,a2
    34f0:	00058d93          	mv	s11,a1
    34f4:	00c58633          	add	a2,a1,a2
    34f8:	40f6063b          	subw	a2,a2,a5
    34fc:	400005b7          	lui	a1,0x40000
    3500:	00001537          	lui	a0,0x1
    3504:	40a40533          	sub	a0,s0,a0
    3508:	dec53423          	sd	a2,-536(a0) # de8 <.LBB78_3+0xb90>
    350c:	00065463          	bgez	a2,3514 <.LBB78_34>
    3510:	c00005b7          	lui	a1,0xc0000

0000000000003514 <.LBB78_34>:
    3514:	00001537          	lui	a0,0x1
    3518:	40a40533          	sub	a0,s0,a0
    351c:	deb53023          	sd	a1,-544(a0) # de0 <.LBB78_3+0xb88>
    3520:	c40d0593          	addi	a1,s10,-960
    3524:	ec043603          	ld	a2,-320(s0)
    3528:	00001537          	lui	a0,0x1
    352c:	40a40533          	sub	a0,s0,a0
    3530:	70053d03          	ld	s10,1792(a0) # 1700 <.LBB78_4+0x54c>
    3534:	00cd0633          	add	a2,s10,a2
    3538:	00058d13          	mv	s10,a1
    353c:	00c58633          	add	a2,a1,a2
    3540:	40f6063b          	subw	a2,a2,a5
    3544:	400005b7          	lui	a1,0x40000
    3548:	00001537          	lui	a0,0x1
    354c:	40a40533          	sub	a0,s0,a0
    3550:	dec53c23          	sd	a2,-520(a0) # df8 <.LBB78_3+0xba0>
    3554:	00065463          	bgez	a2,355c <.LBB78_36>
    3558:	c00005b7          	lui	a1,0xc0000

000000000000355c <.LBB78_36>:
    355c:	00001537          	lui	a0,0x1
    3560:	40a40533          	sub	a0,s0,a0
    3564:	deb53823          	sd	a1,-528(a0) # df0 <.LBB78_3+0xb98>
    3568:	c40c8593          	addi	a1,s9,-960
    356c:	ec843603          	ld	a2,-312(s0)
    3570:	00001537          	lui	a0,0x1
    3574:	40a40533          	sub	a0,s0,a0
    3578:	70853c83          	ld	s9,1800(a0) # 1708 <.LBB78_4+0x554>
    357c:	00cc8633          	add	a2,s9,a2
    3580:	00058c93          	mv	s9,a1
    3584:	00c58633          	add	a2,a1,a2
    3588:	40f6063b          	subw	a2,a2,a5
    358c:	400005b7          	lui	a1,0x40000
    3590:	00001537          	lui	a0,0x1
    3594:	40a40533          	sub	a0,s0,a0
    3598:	e0c53423          	sd	a2,-504(a0) # e08 <.LBB78_3+0xbb0>
    359c:	00065463          	bgez	a2,35a4 <.LBB78_38>
    35a0:	c00005b7          	lui	a1,0xc0000

00000000000035a4 <.LBB78_38>:
    35a4:	00001537          	lui	a0,0x1
    35a8:	40a40533          	sub	a0,s0,a0
    35ac:	e0b53023          	sd	a1,-512(a0) # e00 <.LBB78_3+0xba8>
    35b0:	c40c0593          	addi	a1,s8,-960
    35b4:	f1043603          	ld	a2,-240(s0)
    35b8:	00001537          	lui	a0,0x1
    35bc:	40a40533          	sub	a0,s0,a0
    35c0:	71053c03          	ld	s8,1808(a0) # 1710 <.LBB78_4+0x55c>
    35c4:	00cc0633          	add	a2,s8,a2
    35c8:	00001537          	lui	a0,0x1
    35cc:	40a40533          	sub	a0,s0,a0
    35d0:	70b53823          	sd	a1,1808(a0) # 1710 <.LBB78_4+0x55c>
    35d4:	00c58633          	add	a2,a1,a2
    35d8:	40f6063b          	subw	a2,a2,a5
    35dc:	400005b7          	lui	a1,0x40000
    35e0:	00001537          	lui	a0,0x1
    35e4:	40a40533          	sub	a0,s0,a0
    35e8:	e0c53c23          	sd	a2,-488(a0) # e18 <.LBB78_3+0xbc0>
    35ec:	00065463          	bgez	a2,35f4 <.LBB78_40>
    35f0:	c00005b7          	lui	a1,0xc0000

00000000000035f4 <.LBB78_40>:
    35f4:	00001537          	lui	a0,0x1
    35f8:	40a40533          	sub	a0,s0,a0
    35fc:	e0b53823          	sd	a1,-496(a0) # e10 <.LBB78_3+0xbb8>
    3600:	c40b8593          	addi	a1,s7,-960
    3604:	f1843603          	ld	a2,-232(s0)
    3608:	00001537          	lui	a0,0x1
    360c:	40a40533          	sub	a0,s0,a0
    3610:	71853b83          	ld	s7,1816(a0) # 1718 <.LBB78_4+0x564>
    3614:	00cb8633          	add	a2,s7,a2
    3618:	00001537          	lui	a0,0x1
    361c:	40a40533          	sub	a0,s0,a0
    3620:	70b53c23          	sd	a1,1816(a0) # 1718 <.LBB78_4+0x564>
    3624:	00c58633          	add	a2,a1,a2
    3628:	40f6063b          	subw	a2,a2,a5
    362c:	400005b7          	lui	a1,0x40000
    3630:	00001537          	lui	a0,0x1
    3634:	40a40533          	sub	a0,s0,a0
    3638:	d1053c03          	ld	s8,-752(a0) # d10 <.LBB78_3+0xab8>
    363c:	00001537          	lui	a0,0x1
    3640:	40a40533          	sub	a0,s0,a0
    3644:	e2c53423          	sd	a2,-472(a0) # e28 <.LBB78_3+0xbd0>
    3648:	00065463          	bgez	a2,3650 <.LBB78_42>
    364c:	c00005b7          	lui	a1,0xc0000

0000000000003650 <.LBB78_42>:
    3650:	00001537          	lui	a0,0x1
    3654:	40a40533          	sub	a0,s0,a0
    3658:	e2b53023          	sd	a1,-480(a0) # e20 <.LBB78_3+0xbc8>
    365c:	c40b0593          	addi	a1,s6,-960
    3660:	f2043603          	ld	a2,-224(s0)
    3664:	00001537          	lui	a0,0x1
    3668:	40a40533          	sub	a0,s0,a0
    366c:	72053b03          	ld	s6,1824(a0) # 1720 <.LBB78_4+0x56c>
    3670:	00cb0633          	add	a2,s6,a2
    3674:	00058b13          	mv	s6,a1
    3678:	00c58633          	add	a2,a1,a2
    367c:	40f6063b          	subw	a2,a2,a5
    3680:	400005b7          	lui	a1,0x40000
    3684:	00001537          	lui	a0,0x1
    3688:	40a40533          	sub	a0,s0,a0
    368c:	66053b83          	ld	s7,1632(a0) # 1660 <.LBB78_4+0x4ac>
    3690:	00001537          	lui	a0,0x1
    3694:	40a40533          	sub	a0,s0,a0
    3698:	e2c53c23          	sd	a2,-456(a0) # e38 <.LBB78_3+0xbe0>
    369c:	00065463          	bgez	a2,36a4 <.LBB78_44>
    36a0:	c00005b7          	lui	a1,0xc0000

00000000000036a4 <.LBB78_44>:
    36a4:	00001537          	lui	a0,0x1
    36a8:	40a40533          	sub	a0,s0,a0
    36ac:	e2b53823          	sd	a1,-464(a0) # e30 <.LBB78_3+0xbd8>
    36b0:	c40a8593          	addi	a1,s5,-960 # ffffffffbffffc40 <.Lfunc_end80+0xffffffffbffd7274>
    36b4:	f2843603          	ld	a2,-216(s0)
    36b8:	00001537          	lui	a0,0x1
    36bc:	40a40533          	sub	a0,s0,a0
    36c0:	72853a83          	ld	s5,1832(a0) # 1728 <.LBB78_4+0x574>
    36c4:	00ca8633          	add	a2,s5,a2
    36c8:	00058a93          	mv	s5,a1
    36cc:	00c58633          	add	a2,a1,a2
    36d0:	40f6063b          	subw	a2,a2,a5
    36d4:	400005b7          	lui	a1,0x40000
    36d8:	00001537          	lui	a0,0x1
    36dc:	40a40533          	sub	a0,s0,a0
    36e0:	e4c53423          	sd	a2,-440(a0) # e48 <.LBB78_3+0xbf0>
    36e4:	00065463          	bgez	a2,36ec <.LBB78_46>
    36e8:	c00005b7          	lui	a1,0xc0000

00000000000036ec <.LBB78_46>:
    36ec:	00001537          	lui	a0,0x1
    36f0:	40a40533          	sub	a0,s0,a0
    36f4:	e4b53023          	sd	a1,-448(a0) # e40 <.LBB78_3+0xbe8>
    36f8:	c40a0593          	addi	a1,s4,-960 # ffffffffbffffc40 <.Lfunc_end80+0xffffffffbffd7274>
    36fc:	f3043603          	ld	a2,-208(s0)
    3700:	00001537          	lui	a0,0x1
    3704:	40a40533          	sub	a0,s0,a0
    3708:	73053a03          	ld	s4,1840(a0) # 1730 <.LBB78_4+0x57c>
    370c:	00ca0633          	add	a2,s4,a2
    3710:	00058a13          	mv	s4,a1
    3714:	00c58633          	add	a2,a1,a2
    3718:	40f6063b          	subw	a2,a2,a5
    371c:	400005b7          	lui	a1,0x40000
    3720:	00001537          	lui	a0,0x1
    3724:	40a40533          	sub	a0,s0,a0
    3728:	e4c53c23          	sd	a2,-424(a0) # e58 <.LBB78_3+0xc00>
    372c:	00065463          	bgez	a2,3734 <.LBB78_48>
    3730:	c00005b7          	lui	a1,0xc0000

0000000000003734 <.LBB78_48>:
    3734:	00001537          	lui	a0,0x1
    3738:	40a40533          	sub	a0,s0,a0
    373c:	e4b53823          	sd	a1,-432(a0) # e50 <.LBB78_3+0xbf8>
    3740:	c4098593          	addi	a1,s3,-960
    3744:	f3843603          	ld	a2,-200(s0)
    3748:	00001537          	lui	a0,0x1
    374c:	40a40533          	sub	a0,s0,a0
    3750:	73853983          	ld	s3,1848(a0) # 1738 <.LBB78_4+0x584>
    3754:	00c98633          	add	a2,s3,a2
    3758:	00058993          	mv	s3,a1
    375c:	00c58633          	add	a2,a1,a2
    3760:	40f6063b          	subw	a2,a2,a5
    3764:	400005b7          	lui	a1,0x40000
    3768:	00001537          	lui	a0,0x1
    376c:	40a40533          	sub	a0,s0,a0
    3770:	e6c53423          	sd	a2,-408(a0) # e68 <.LBB78_3+0xc10>
    3774:	00065463          	bgez	a2,377c <.LBB78_50>
    3778:	c00005b7          	lui	a1,0xc0000

000000000000377c <.LBB78_50>:
    377c:	00001537          	lui	a0,0x1
    3780:	40a40533          	sub	a0,s0,a0
    3784:	e6b53023          	sd	a1,-416(a0) # e60 <.LBB78_3+0xc08>
    3788:	c4090593          	addi	a1,s2,-960
    378c:	f4043603          	ld	a2,-192(s0)
    3790:	00001537          	lui	a0,0x1
    3794:	40a40533          	sub	a0,s0,a0
    3798:	74053903          	ld	s2,1856(a0) # 1740 <.LBB78_4+0x58c>
    379c:	00c90633          	add	a2,s2,a2
    37a0:	00058913          	mv	s2,a1
    37a4:	00c58633          	add	a2,a1,a2
    37a8:	40f6063b          	subw	a2,a2,a5
    37ac:	400005b7          	lui	a1,0x40000
    37b0:	00001537          	lui	a0,0x1
    37b4:	40a40533          	sub	a0,s0,a0
    37b8:	e6c53c23          	sd	a2,-392(a0) # e78 <.LBB78_3+0xc20>
    37bc:	00065463          	bgez	a2,37c4 <.LBB78_52>
    37c0:	c00005b7          	lui	a1,0xc0000

00000000000037c4 <.LBB78_52>:
    37c4:	00001537          	lui	a0,0x1
    37c8:	40a40533          	sub	a0,s0,a0
    37cc:	e6b53823          	sd	a1,-400(a0) # e70 <.LBB78_3+0xc18>
    37d0:	c4048593          	addi	a1,s1,-960
    37d4:	f4843603          	ld	a2,-184(s0)
    37d8:	00001537          	lui	a0,0x1
    37dc:	40a40533          	sub	a0,s0,a0
    37e0:	74853483          	ld	s1,1864(a0) # 1748 <.LBB78_4+0x594>
    37e4:	00c48633          	add	a2,s1,a2
    37e8:	00058493          	mv	s1,a1
    37ec:	00c58633          	add	a2,a1,a2
    37f0:	40f6063b          	subw	a2,a2,a5
    37f4:	400005b7          	lui	a1,0x40000
    37f8:	de643023          	sd	t1,-544(s0)
    37fc:	00001537          	lui	a0,0x1
    3800:	40a40533          	sub	a0,s0,a0
    3804:	e8c53423          	sd	a2,-376(a0) # e88 <.LBB78_3+0xc30>
    3808:	00065463          	bgez	a2,3810 <.LBB78_54>
    380c:	c00005b7          	lui	a1,0xc0000

0000000000003810 <.LBB78_54>:
    3810:	00001537          	lui	a0,0x1
    3814:	40a40533          	sub	a0,s0,a0
    3818:	e8b53023          	sd	a1,-384(a0) # e80 <.LBB78_3+0xc28>
    381c:	c40f8593          	addi	a1,t6,-960
    3820:	f5043603          	ld	a2,-176(s0)
    3824:	00001537          	lui	a0,0x1
    3828:	40a40533          	sub	a0,s0,a0
    382c:	75053803          	ld	a6,1872(a0) # 1750 <.LBB78_5+0x4>
    3830:	00c80633          	add	a2,a6,a2
    3834:	00058f93          	mv	t6,a1
    3838:	00c58633          	add	a2,a1,a2
    383c:	40f6063b          	subw	a2,a2,a5
    3840:	400005b7          	lui	a1,0x40000
    3844:	00001537          	lui	a0,0x1
    3848:	40a40533          	sub	a0,s0,a0
    384c:	eac53023          	sd	a2,-352(a0) # ea0 <.LBB78_3+0xc48>
    3850:	00001537          	lui	a0,0x1
    3854:	40a40533          	sub	a0,s0,a0
    3858:	78053803          	ld	a6,1920(a0) # 1780 <.LBB78_5+0x34>
    385c:	00065463          	bgez	a2,3864 <.LBB78_56>
    3860:	c00005b7          	lui	a1,0xc0000

0000000000003864 <.LBB78_56>:
    3864:	00001537          	lui	a0,0x1
    3868:	40a40533          	sub	a0,s0,a0
    386c:	e8b53823          	sd	a1,-368(a0) # e90 <.LBB78_3+0xc38>
    3870:	c40f0593          	addi	a1,t5,-960
    3874:	f5843603          	ld	a2,-168(s0)
    3878:	00001537          	lui	a0,0x1
    387c:	40a40533          	sub	a0,s0,a0
    3880:	75853f03          	ld	t5,1880(a0) # 1758 <.LBB78_5+0xc>
    3884:	00cf0633          	add	a2,t5,a2
    3888:	00058f13          	mv	t5,a1
    388c:	00c58633          	add	a2,a1,a2
    3890:	40f6063b          	subw	a2,a2,a5
    3894:	400005b7          	lui	a1,0x40000
    3898:	00001537          	lui	a0,0x1
    389c:	40a40533          	sub	a0,s0,a0
    38a0:	ecc53023          	sd	a2,-320(a0) # ec0 <.LBB78_3+0xc68>
    38a4:	00065463          	bgez	a2,38ac <.LBB78_58>
    38a8:	c00005b7          	lui	a1,0xc0000

00000000000038ac <.LBB78_58>:
    38ac:	00001537          	lui	a0,0x1
    38b0:	40a40533          	sub	a0,s0,a0
    38b4:	eab53823          	sd	a1,-336(a0) # eb0 <.LBB78_3+0xc58>
    38b8:	c40e8593          	addi	a1,t4,-960 # ffffffffbffffc40 <.Lfunc_end80+0xffffffffbffd7274>
    38bc:	f6043603          	ld	a2,-160(s0)
    38c0:	00001537          	lui	a0,0x1
    38c4:	40a40533          	sub	a0,s0,a0
    38c8:	76053e83          	ld	t4,1888(a0) # 1760 <.LBB78_5+0x14>
    38cc:	00ce8633          	add	a2,t4,a2
    38d0:	00058e93          	mv	t4,a1
    38d4:	00c58633          	add	a2,a1,a2
    38d8:	40f6063b          	subw	a2,a2,a5
    38dc:	400005b7          	lui	a1,0x40000
    38e0:	00001537          	lui	a0,0x1
    38e4:	40a40533          	sub	a0,s0,a0
    38e8:	f0c53423          	sd	a2,-248(a0) # f08 <.LBB78_3+0xcb0>
    38ec:	00065463          	bgez	a2,38f4 <.LBB78_60>
    38f0:	c00005b7          	lui	a1,0xc0000

00000000000038f4 <.LBB78_60>:
    38f4:	00001537          	lui	a0,0x1
    38f8:	40a40533          	sub	a0,s0,a0
    38fc:	ecb53423          	sd	a1,-312(a0) # ec8 <.LBB78_3+0xc70>
    3900:	c40e0593          	addi	a1,t3,-960
    3904:	f6843603          	ld	a2,-152(s0)
    3908:	00001537          	lui	a0,0x1
    390c:	40a40533          	sub	a0,s0,a0
    3910:	76853e03          	ld	t3,1896(a0) # 1768 <.LBB78_5+0x1c>
    3914:	00ce0633          	add	a2,t3,a2
    3918:	00058e13          	mv	t3,a1
    391c:	00c58633          	add	a2,a1,a2
    3920:	40f6063b          	subw	a2,a2,a5
    3924:	400005b7          	lui	a1,0x40000
    3928:	00001537          	lui	a0,0x1
    392c:	40a40533          	sub	a0,s0,a0
    3930:	f4c53c23          	sd	a2,-168(a0) # f58 <.LBB78_3+0xd00>
    3934:	00065463          	bgez	a2,393c <.LBB78_62>
    3938:	c00005b7          	lui	a1,0xc0000

000000000000393c <.LBB78_62>:
    393c:	00001537          	lui	a0,0x1
    3940:	40a40533          	sub	a0,s0,a0
    3944:	f4b53823          	sd	a1,-176(a0) # f50 <.LBB78_3+0xcf8>
    3948:	c4038593          	addi	a1,t2,-960
    394c:	f7043603          	ld	a2,-144(s0)
    3950:	00001537          	lui	a0,0x1
    3954:	40a40533          	sub	a0,s0,a0
    3958:	77053383          	ld	t2,1904(a0) # 1770 <.LBB78_5+0x24>
    395c:	00c38633          	add	a2,t2,a2
    3960:	00001537          	lui	a0,0x1
    3964:	40a40533          	sub	a0,s0,a0
    3968:	76b53823          	sd	a1,1904(a0) # 1770 <.LBB78_5+0x24>
    396c:	00c58633          	add	a2,a1,a2
    3970:	40f6063b          	subw	a2,a2,a5
    3974:	400005b7          	lui	a1,0x40000
    3978:	00001537          	lui	a0,0x1
    397c:	40a40533          	sub	a0,s0,a0
    3980:	f6c53423          	sd	a2,-152(a0) # f68 <.LBB78_3+0xd10>
    3984:	00065463          	bgez	a2,398c <.LBB78_64>
    3988:	c00005b7          	lui	a1,0xc0000

000000000000398c <.LBB78_64>:
    398c:	00001537          	lui	a0,0x1
    3990:	40a40533          	sub	a0,s0,a0
    3994:	f6b53023          	sd	a1,-160(a0) # f60 <.LBB78_3+0xd08>
    3998:	c4088593          	addi	a1,a7,-960
    399c:	f7843603          	ld	a2,-136(s0)
    39a0:	00001537          	lui	a0,0x1
    39a4:	40a40533          	sub	a0,s0,a0
    39a8:	68853303          	ld	t1,1672(a0) # 1688 <.LBB78_4+0x4d4>
    39ac:	00c30633          	add	a2,t1,a2
    39b0:	00058313          	mv	t1,a1
    39b4:	00c58633          	add	a2,a1,a2
    39b8:	40f6063b          	subw	a2,a2,a5
    39bc:	400005b7          	lui	a1,0x40000
    39c0:	00001537          	lui	a0,0x1
    39c4:	40a40533          	sub	a0,s0,a0
    39c8:	f6c53c23          	sd	a2,-136(a0) # f78 <.LBB78_3+0xd20>
    39cc:	00001537          	lui	a0,0x1
    39d0:	40a40533          	sub	a0,s0,a0
    39d4:	77853383          	ld	t2,1912(a0) # 1778 <.LBB78_5+0x2c>
    39d8:	00065463          	bgez	a2,39e0 <.LBB78_66>
    39dc:	c00005b7          	lui	a1,0xc0000

00000000000039e0 <.LBB78_66>:
    39e0:	00001537          	lui	a0,0x1
    39e4:	40a40533          	sub	a0,s0,a0
    39e8:	f6b53823          	sd	a1,-144(a0) # f70 <.LBB78_3+0xd18>
    39ec:	00001537          	lui	a0,0x1
    39f0:	40a40533          	sub	a0,s0,a0
    39f4:	64053503          	ld	a0,1600(a0) # 1640 <.LBB78_4+0x48c>
    39f8:	c4050593          	addi	a1,a0,-960
    39fc:	f8043603          	ld	a2,-128(s0)
    3a00:	00c38633          	add	a2,t2,a2
    3a04:	00058893          	mv	a7,a1
    3a08:	00c58633          	add	a2,a1,a2
    3a0c:	40f6063b          	subw	a2,a2,a5
    3a10:	400005b7          	lui	a1,0x40000
    3a14:	00001537          	lui	a0,0x1
    3a18:	40a40533          	sub	a0,s0,a0
    3a1c:	f8c53423          	sd	a2,-120(a0) # f88 <.LBB78_3+0xd30>
    3a20:	00065463          	bgez	a2,3a28 <.LBB78_68>
    3a24:	c00005b7          	lui	a1,0xc0000

0000000000003a28 <.LBB78_68>:
    3a28:	00001537          	lui	a0,0x1
    3a2c:	40a40533          	sub	a0,s0,a0
    3a30:	f8b53023          	sd	a1,-128(a0) # f80 <.LBB78_3+0xd28>
    3a34:	00001537          	lui	a0,0x1
    3a38:	40a40533          	sub	a0,s0,a0
    3a3c:	64853503          	ld	a0,1608(a0) # 1648 <.LBB78_4+0x494>
    3a40:	c4050593          	addi	a1,a0,-960
    3a44:	f8843603          	ld	a2,-120(s0)
    3a48:	00c80633          	add	a2,a6,a2
    3a4c:	00058393          	mv	t2,a1
    3a50:	00c58633          	add	a2,a1,a2
    3a54:	40f6063b          	subw	a2,a2,a5
    3a58:	400005b7          	lui	a1,0x40000
    3a5c:	00001537          	lui	a0,0x1
    3a60:	40a40533          	sub	a0,s0,a0
    3a64:	f8c53c23          	sd	a2,-104(a0) # f98 <.LBB78_3+0xd40>
    3a68:	00065463          	bgez	a2,3a70 <.LBB78_70>
    3a6c:	c00005b7          	lui	a1,0xc0000

0000000000003a70 <.LBB78_70>:
    3a70:	00001537          	lui	a0,0x1
    3a74:	40a40533          	sub	a0,s0,a0
    3a78:	f8b53823          	sd	a1,-112(a0) # f90 <.LBB78_3+0xd38>
    3a7c:	e8843603          	ld	a2,-376(s0)
    3a80:	00d60633          	add	a2,a2,a3
    3a84:	00a00813          	li	a6,10
    3a88:	030287b3          	mul	a5,t0,a6
    3a8c:	e9043683          	ld	a3,-368(s0)
    3a90:	40f686bb          	subw	a3,a3,a5
    3a94:	00d6063b          	addw	a2,a2,a3
    3a98:	400005b7          	lui	a1,0x40000
    3a9c:	00001537          	lui	a0,0x1
    3aa0:	40a40533          	sub	a0,s0,a0
    3aa4:	fac53423          	sd	a2,-88(a0) # fa8 <.LBB78_3+0xd50>
    3aa8:	00065463          	bgez	a2,3ab0 <.LBB78_72>
    3aac:	c00005b7          	lui	a1,0xc0000

0000000000003ab0 <.LBB78_72>:
    3ab0:	00001537          	lui	a0,0x1
    3ab4:	40a40533          	sub	a0,s0,a0
    3ab8:	fab53023          	sd	a1,-96(a0) # fa0 <.LBB78_3+0xd48>
    3abc:	e7843603          	ld	a2,-392(s0)
    3ac0:	00001537          	lui	a0,0x1
    3ac4:	40a40533          	sub	a0,s0,a0
    3ac8:	79053583          	ld	a1,1936(a0) # 1790 <.LBB78_5+0x44>
    3acc:	00b60633          	add	a2,a2,a1
    3ad0:	e8043683          	ld	a3,-384(s0)
    3ad4:	40f686bb          	subw	a3,a3,a5
    3ad8:	00d6063b          	addw	a2,a2,a3
    3adc:	400005b7          	lui	a1,0x40000
    3ae0:	e1843283          	ld	t0,-488(s0)
    3ae4:	00001537          	lui	a0,0x1
    3ae8:	40a40533          	sub	a0,s0,a0
    3aec:	fac53c23          	sd	a2,-72(a0) # fb8 <.LBB78_3+0xd60>
    3af0:	00065463          	bgez	a2,3af8 <.LBB78_74>
    3af4:	c00005b7          	lui	a1,0xc0000

0000000000003af8 <.LBB78_74>:
    3af8:	00001537          	lui	a0,0x1
    3afc:	40a40533          	sub	a0,s0,a0
    3b00:	fab53823          	sd	a1,-80(a0) # fb0 <.LBB78_3+0xd58>
    3b04:	e6843603          	ld	a2,-408(s0)
    3b08:	00001537          	lui	a0,0x1
    3b0c:	40a40533          	sub	a0,s0,a0
    3b10:	79853583          	ld	a1,1944(a0) # 1798 <.LBB78_5+0x4c>
    3b14:	00b60633          	add	a2,a2,a1
    3b18:	e7043683          	ld	a3,-400(s0)
    3b1c:	40f686bb          	subw	a3,a3,a5
    3b20:	00d6063b          	addw	a2,a2,a3
    3b24:	400005b7          	lui	a1,0x40000
    3b28:	00001537          	lui	a0,0x1
    3b2c:	40a40533          	sub	a0,s0,a0
    3b30:	fcc53423          	sd	a2,-56(a0) # fc8 <.LBB78_3+0xd70>
    3b34:	00065463          	bgez	a2,3b3c <.LBB78_76>
    3b38:	c00005b7          	lui	a1,0xc0000

0000000000003b3c <.LBB78_76>:
    3b3c:	00001537          	lui	a0,0x1
    3b40:	40a40533          	sub	a0,s0,a0
    3b44:	fcb53023          	sd	a1,-64(a0) # fc0 <.LBB78_3+0xd68>
    3b48:	e5843603          	ld	a2,-424(s0)
    3b4c:	00001537          	lui	a0,0x1
    3b50:	40a40533          	sub	a0,s0,a0
    3b54:	7a053583          	ld	a1,1952(a0) # 17a0 <.LBB78_5+0x54>
    3b58:	00b60633          	add	a2,a2,a1
    3b5c:	e6043683          	ld	a3,-416(s0)
    3b60:	40f686bb          	subw	a3,a3,a5
    3b64:	00d6063b          	addw	a2,a2,a3
    3b68:	400005b7          	lui	a1,0x40000
    3b6c:	00001537          	lui	a0,0x1
    3b70:	40a40533          	sub	a0,s0,a0
    3b74:	fcc53c23          	sd	a2,-40(a0) # fd8 <.LBB78_3+0xd80>
    3b78:	00065463          	bgez	a2,3b80 <.LBB78_78>
    3b7c:	c00005b7          	lui	a1,0xc0000

0000000000003b80 <.LBB78_78>:
    3b80:	00001537          	lui	a0,0x1
    3b84:	40a40533          	sub	a0,s0,a0
    3b88:	fcb53823          	sd	a1,-48(a0) # fd0 <.LBB78_3+0xd78>
    3b8c:	e4843603          	ld	a2,-440(s0)
    3b90:	00001537          	lui	a0,0x1
    3b94:	40a40533          	sub	a0,s0,a0
    3b98:	7a853583          	ld	a1,1960(a0) # 17a8 <.LBB78_5+0x5c>
    3b9c:	00b60633          	add	a2,a2,a1
    3ba0:	e5043683          	ld	a3,-432(s0)
    3ba4:	40f686bb          	subw	a3,a3,a5
    3ba8:	00d6063b          	addw	a2,a2,a3
    3bac:	400005b7          	lui	a1,0x40000
    3bb0:	00001537          	lui	a0,0x1
    3bb4:	40a40533          	sub	a0,s0,a0
    3bb8:	fec53423          	sd	a2,-24(a0) # fe8 <.LBB78_3+0xd90>
    3bbc:	00065463          	bgez	a2,3bc4 <.LBB78_80>
    3bc0:	c00005b7          	lui	a1,0xc0000

0000000000003bc4 <.LBB78_80>:
    3bc4:	00001537          	lui	a0,0x1
    3bc8:	40a40533          	sub	a0,s0,a0
    3bcc:	feb53023          	sd	a1,-32(a0) # fe0 <.LBB78_3+0xd88>
    3bd0:	00001537          	lui	a0,0x1
    3bd4:	40a40533          	sub	a0,s0,a0
    3bd8:	6c053603          	ld	a2,1728(a0) # 16c0 <.LBB78_4+0x50c>
    3bdc:	00001537          	lui	a0,0x1
    3be0:	40a40533          	sub	a0,s0,a0
    3be4:	7b053583          	ld	a1,1968(a0) # 17b0 <.LBB78_5+0x64>
    3be8:	00b60633          	add	a2,a2,a1
    3bec:	00001537          	lui	a0,0x1
    3bf0:	40a40533          	sub	a0,s0,a0
    3bf4:	6c853683          	ld	a3,1736(a0) # 16c8 <.LBB78_4+0x514>
    3bf8:	40f686bb          	subw	a3,a3,a5
    3bfc:	00d6063b          	addw	a2,a2,a3
    3c00:	400005b7          	lui	a1,0x40000
    3c04:	00001537          	lui	a0,0x1
    3c08:	40a40533          	sub	a0,s0,a0
    3c0c:	fec53c23          	sd	a2,-8(a0) # ff8 <.LBB78_3+0xda0>
    3c10:	00065463          	bgez	a2,3c18 <.LBB78_82>
    3c14:	c00005b7          	lui	a1,0xc0000

0000000000003c18 <.LBB78_82>:
    3c18:	00001537          	lui	a0,0x1
    3c1c:	40a40533          	sub	a0,s0,a0
    3c20:	feb53823          	sd	a1,-16(a0) # ff0 <.LBB78_3+0xd98>
    3c24:	00001537          	lui	a0,0x1
    3c28:	40a40533          	sub	a0,s0,a0
    3c2c:	6a853603          	ld	a2,1704(a0) # 16a8 <.LBB78_4+0x4f4>
    3c30:	00001537          	lui	a0,0x1
    3c34:	40a40533          	sub	a0,s0,a0
    3c38:	7b853583          	ld	a1,1976(a0) # 17b8 <.LBB78_5+0x6c>
    3c3c:	00b60633          	add	a2,a2,a1
    3c40:	00001537          	lui	a0,0x1
    3c44:	40a40533          	sub	a0,s0,a0
    3c48:	6b853683          	ld	a3,1720(a0) # 16b8 <.LBB78_4+0x504>
    3c4c:	40f686bb          	subw	a3,a3,a5
    3c50:	00d6063b          	addw	a2,a2,a3
    3c54:	400005b7          	lui	a1,0x40000
    3c58:	00001537          	lui	a0,0x1
    3c5c:	40a40533          	sub	a0,s0,a0
    3c60:	00c53423          	sd	a2,8(a0) # 1008 <.LBB78_3+0xdb0>
    3c64:	00065463          	bgez	a2,3c6c <.LBB78_84>
    3c68:	c00005b7          	lui	a1,0xc0000

0000000000003c6c <.LBB78_84>:
    3c6c:	00001537          	lui	a0,0x1
    3c70:	40a40533          	sub	a0,s0,a0
    3c74:	00b53023          	sd	a1,0(a0) # 1000 <.LBB78_3+0xda8>
    3c78:	00001537          	lui	a0,0x1
    3c7c:	40a40533          	sub	a0,s0,a0
    3c80:	69853603          	ld	a2,1688(a0) # 1698 <.LBB78_4+0x4e4>
    3c84:	00001537          	lui	a0,0x1
    3c88:	40a40533          	sub	a0,s0,a0
    3c8c:	7c053583          	ld	a1,1984(a0) # 17c0 <.LBB78_5+0x74>
    3c90:	00b60633          	add	a2,a2,a1
    3c94:	00001537          	lui	a0,0x1
    3c98:	40a40533          	sub	a0,s0,a0
    3c9c:	6a053683          	ld	a3,1696(a0) # 16a0 <.LBB78_4+0x4ec>
    3ca0:	40f686bb          	subw	a3,a3,a5
    3ca4:	00d6063b          	addw	a2,a2,a3
    3ca8:	400005b7          	lui	a1,0x40000
    3cac:	00001537          	lui	a0,0x1
    3cb0:	40a40533          	sub	a0,s0,a0
    3cb4:	00c53c23          	sd	a2,24(a0) # 1018 <.LBB78_3+0xdc0>
    3cb8:	00065463          	bgez	a2,3cc0 <.LBB78_86>
    3cbc:	c00005b7          	lui	a1,0xc0000

0000000000003cc0 <.LBB78_86>:
    3cc0:	00001537          	lui	a0,0x1
    3cc4:	40a40533          	sub	a0,s0,a0
    3cc8:	00b53823          	sd	a1,16(a0) # 1010 <.LBB78_3+0xdb8>
    3ccc:	00001537          	lui	a0,0x1
    3cd0:	40a40533          	sub	a0,s0,a0
    3cd4:	6d053603          	ld	a2,1744(a0) # 16d0 <.LBB78_4+0x51c>
    3cd8:	00001537          	lui	a0,0x1
    3cdc:	40a40533          	sub	a0,s0,a0
    3ce0:	7c853583          	ld	a1,1992(a0) # 17c8 <.LBB78_5+0x7c>
    3ce4:	00b60633          	add	a2,a2,a1
    3ce8:	00001537          	lui	a0,0x1
    3cec:	40a40533          	sub	a0,s0,a0
    3cf0:	6d853683          	ld	a3,1752(a0) # 16d8 <.LBB78_4+0x524>
    3cf4:	40f686bb          	subw	a3,a3,a5
    3cf8:	00d6063b          	addw	a2,a2,a3
    3cfc:	400005b7          	lui	a1,0x40000
    3d00:	00001537          	lui	a0,0x1
    3d04:	40a40533          	sub	a0,s0,a0
    3d08:	02c53423          	sd	a2,40(a0) # 1028 <.LBB78_3+0xdd0>
    3d0c:	00065463          	bgez	a2,3d14 <.LBB78_88>
    3d10:	c00005b7          	lui	a1,0xc0000

0000000000003d14 <.LBB78_88>:
    3d14:	00001537          	lui	a0,0x1
    3d18:	40a40533          	sub	a0,s0,a0
    3d1c:	02b53023          	sd	a1,32(a0) # 1020 <.LBB78_3+0xdc8>
    3d20:	00001537          	lui	a0,0x1
    3d24:	40a40533          	sub	a0,s0,a0
    3d28:	6b053603          	ld	a2,1712(a0) # 16b0 <.LBB78_4+0x4fc>
    3d2c:	00001537          	lui	a0,0x1
    3d30:	40a40533          	sub	a0,s0,a0
    3d34:	7d053583          	ld	a1,2000(a0) # 17d0 <.LBB78_5+0x84>
    3d38:	00b60633          	add	a2,a2,a1
    3d3c:	eb843683          	ld	a3,-328(s0)
    3d40:	40f686bb          	subw	a3,a3,a5
    3d44:	00d6063b          	addw	a2,a2,a3
    3d48:	400005b7          	lui	a1,0x40000
    3d4c:	00001537          	lui	a0,0x1
    3d50:	40a40533          	sub	a0,s0,a0
    3d54:	02c53c23          	sd	a2,56(a0) # 1038 <.LBB78_3+0xde0>
    3d58:	00065463          	bgez	a2,3d60 <.LBB78_90>
    3d5c:	c00005b7          	lui	a1,0xc0000

0000000000003d60 <.LBB78_90>:
    3d60:	00001537          	lui	a0,0x1
    3d64:	40a40533          	sub	a0,s0,a0
    3d68:	02b53823          	sd	a1,48(a0) # 1030 <.LBB78_3+0xdd8>
    3d6c:	00001537          	lui	a0,0x1
    3d70:	40a40533          	sub	a0,s0,a0
    3d74:	7d853603          	ld	a2,2008(a0) # 17d8 <.LBB78_5+0x8c>
    3d78:	00001537          	lui	a0,0x1
    3d7c:	40a40533          	sub	a0,s0,a0
    3d80:	6e053583          	ld	a1,1760(a0) # 16e0 <.LBB78_4+0x52c>
    3d84:	00c58633          	add	a2,a1,a2
    3d88:	e9843683          	ld	a3,-360(s0)
    3d8c:	40f686bb          	subw	a3,a3,a5
    3d90:	00d6063b          	addw	a2,a2,a3
    3d94:	400005b7          	lui	a1,0x40000
    3d98:	00001537          	lui	a0,0x1
    3d9c:	40a40533          	sub	a0,s0,a0
    3da0:	04c53423          	sd	a2,72(a0) # 1048 <.LBB78_3+0xdf0>
    3da4:	00065463          	bgez	a2,3dac <.LBB78_92>
    3da8:	c00005b7          	lui	a1,0xc0000

0000000000003dac <.LBB78_92>:
    3dac:	00001537          	lui	a0,0x1
    3db0:	40a40533          	sub	a0,s0,a0
    3db4:	04b53023          	sd	a1,64(a0) # 1040 <.LBB78_3+0xde8>
    3db8:	00001537          	lui	a0,0x1
    3dbc:	40a40533          	sub	a0,s0,a0
    3dc0:	7e053603          	ld	a2,2016(a0) # 17e0 <.LBB78_5+0x94>
    3dc4:	00001537          	lui	a0,0x1
    3dc8:	40a40533          	sub	a0,s0,a0
    3dcc:	6e853583          	ld	a1,1768(a0) # 16e8 <.LBB78_4+0x534>
    3dd0:	00c58633          	add	a2,a1,a2
    3dd4:	ea043683          	ld	a3,-352(s0)
    3dd8:	40f686bb          	subw	a3,a3,a5
    3ddc:	00d6063b          	addw	a2,a2,a3
    3de0:	400005b7          	lui	a1,0x40000
    3de4:	00001537          	lui	a0,0x1
    3de8:	40a40533          	sub	a0,s0,a0
    3dec:	04c53c23          	sd	a2,88(a0) # 1058 <.LBB78_3+0xe00>
    3df0:	00065463          	bgez	a2,3df8 <.LBB78_94>
    3df4:	c00005b7          	lui	a1,0xc0000

0000000000003df8 <.LBB78_94>:
    3df8:	00001537          	lui	a0,0x1
    3dfc:	40a40533          	sub	a0,s0,a0
    3e00:	04b53823          	sd	a1,80(a0) # 1050 <.LBB78_3+0xdf8>
    3e04:	00001537          	lui	a0,0x1
    3e08:	40a40533          	sub	a0,s0,a0
    3e0c:	7e853603          	ld	a2,2024(a0) # 17e8 <.LBB78_5+0x9c>
    3e10:	00c08633          	add	a2,ra,a2
    3e14:	ea843683          	ld	a3,-344(s0)
    3e18:	40f686bb          	subw	a3,a3,a5
    3e1c:	00d6063b          	addw	a2,a2,a3
    3e20:	400005b7          	lui	a1,0x40000
    3e24:	00001537          	lui	a0,0x1
    3e28:	40a40533          	sub	a0,s0,a0
    3e2c:	06c53423          	sd	a2,104(a0) # 1068 <.LBB78_3+0xe10>
    3e30:	00065463          	bgez	a2,3e38 <.LBB78_96>
    3e34:	c00005b7          	lui	a1,0xc0000

0000000000003e38 <.LBB78_96>:
    3e38:	00001537          	lui	a0,0x1
    3e3c:	40a40533          	sub	a0,s0,a0
    3e40:	06b53023          	sd	a1,96(a0) # 1060 <.LBB78_3+0xe08>
    3e44:	00001537          	lui	a0,0x1
    3e48:	40a40533          	sub	a0,s0,a0
    3e4c:	7f053603          	ld	a2,2032(a0) # 17f0 <.LBB78_5+0xa4>
    3e50:	00cd8633          	add	a2,s11,a2
    3e54:	eb043683          	ld	a3,-336(s0)
    3e58:	40f686bb          	subw	a3,a3,a5
    3e5c:	00d6063b          	addw	a2,a2,a3
    3e60:	400005b7          	lui	a1,0x40000
    3e64:	00001537          	lui	a0,0x1
    3e68:	40a40533          	sub	a0,s0,a0
    3e6c:	06c53c23          	sd	a2,120(a0) # 1078 <.LBB78_3+0xe20>
    3e70:	00065463          	bgez	a2,3e78 <.LBB78_98>
    3e74:	c00005b7          	lui	a1,0xc0000

0000000000003e78 <.LBB78_98>:
    3e78:	00001537          	lui	a0,0x1
    3e7c:	40a40533          	sub	a0,s0,a0
    3e80:	06b53823          	sd	a1,112(a0) # 1070 <.LBB78_3+0xe18>
    3e84:	00001537          	lui	a0,0x1
    3e88:	40a40533          	sub	a0,s0,a0
    3e8c:	7f853603          	ld	a2,2040(a0) # 17f8 <.LBB78_5+0xac>
    3e90:	00cd0633          	add	a2,s10,a2
    3e94:	ec043683          	ld	a3,-320(s0)
    3e98:	40f686bb          	subw	a3,a3,a5
    3e9c:	00d6063b          	addw	a2,a2,a3
    3ea0:	400005b7          	lui	a1,0x40000
    3ea4:	00001537          	lui	a0,0x1
    3ea8:	40a40533          	sub	a0,s0,a0
    3eac:	08c53423          	sd	a2,136(a0) # 1088 <.LBB78_3+0xe30>
    3eb0:	00065463          	bgez	a2,3eb8 <.LBB78_100>
    3eb4:	c00005b7          	lui	a1,0xc0000

0000000000003eb8 <.LBB78_100>:
    3eb8:	00001537          	lui	a0,0x1
    3ebc:	40a40533          	sub	a0,s0,a0
    3ec0:	08b53023          	sd	a1,128(a0) # 1080 <.LBB78_3+0xe28>
    3ec4:	80043603          	ld	a2,-2048(s0)
    3ec8:	00cc8633          	add	a2,s9,a2
    3ecc:	ec843683          	ld	a3,-312(s0)
    3ed0:	40f686bb          	subw	a3,a3,a5
    3ed4:	00d6063b          	addw	a2,a2,a3
    3ed8:	400005b7          	lui	a1,0x40000
    3edc:	00001537          	lui	a0,0x1
    3ee0:	40a40533          	sub	a0,s0,a0
    3ee4:	08c53c23          	sd	a2,152(a0) # 1098 <.LBB78_3+0xe40>
    3ee8:	00065463          	bgez	a2,3ef0 <.LBB78_102>
    3eec:	c00005b7          	lui	a1,0xc0000

0000000000003ef0 <.LBB78_102>:
    3ef0:	00001537          	lui	a0,0x1
    3ef4:	40a40533          	sub	a0,s0,a0
    3ef8:	08b53823          	sd	a1,144(a0) # 1090 <.LBB78_3+0xe38>
    3efc:	80843603          	ld	a2,-2040(s0)
    3f00:	00001537          	lui	a0,0x1
    3f04:	40a40533          	sub	a0,s0,a0
    3f08:	71053583          	ld	a1,1808(a0) # 1710 <.LBB78_4+0x55c>
    3f0c:	00c58633          	add	a2,a1,a2
    3f10:	f1043683          	ld	a3,-240(s0)
    3f14:	40f686bb          	subw	a3,a3,a5
    3f18:	00d6063b          	addw	a2,a2,a3
    3f1c:	400005b7          	lui	a1,0x40000
    3f20:	00001537          	lui	a0,0x1
    3f24:	40a40533          	sub	a0,s0,a0
    3f28:	0ac53423          	sd	a2,168(a0) # 10a8 <.LBB78_3+0xe50>
    3f2c:	00065463          	bgez	a2,3f34 <.LBB78_104>
    3f30:	c00005b7          	lui	a1,0xc0000

0000000000003f34 <.LBB78_104>:
    3f34:	00001537          	lui	a0,0x1
    3f38:	40a40533          	sub	a0,s0,a0
    3f3c:	0ab53023          	sd	a1,160(a0) # 10a0 <.LBB78_3+0xe48>
    3f40:	81043603          	ld	a2,-2032(s0)
    3f44:	00001537          	lui	a0,0x1
    3f48:	40a40533          	sub	a0,s0,a0
    3f4c:	71853583          	ld	a1,1816(a0) # 1718 <.LBB78_4+0x564>
    3f50:	00c58633          	add	a2,a1,a2
    3f54:	f1843683          	ld	a3,-232(s0)
    3f58:	40f686bb          	subw	a3,a3,a5
    3f5c:	00d6063b          	addw	a2,a2,a3
    3f60:	400005b7          	lui	a1,0x40000
    3f64:	00001537          	lui	a0,0x1
    3f68:	40a40533          	sub	a0,s0,a0
    3f6c:	0ac53c23          	sd	a2,184(a0) # 10b8 <.LBB78_3+0xe60>
    3f70:	00065463          	bgez	a2,3f78 <.LBB78_106>
    3f74:	c00005b7          	lui	a1,0xc0000

0000000000003f78 <.LBB78_106>:
    3f78:	00001537          	lui	a0,0x1
    3f7c:	40a40533          	sub	a0,s0,a0
    3f80:	0ab53823          	sd	a1,176(a0) # 10b0 <.LBB78_3+0xe58>
    3f84:	81843603          	ld	a2,-2024(s0)
    3f88:	00cb0633          	add	a2,s6,a2
    3f8c:	f2043683          	ld	a3,-224(s0)
    3f90:	40f686bb          	subw	a3,a3,a5
    3f94:	00d6063b          	addw	a2,a2,a3
    3f98:	400005b7          	lui	a1,0x40000
    3f9c:	00001537          	lui	a0,0x1
    3fa0:	40a40533          	sub	a0,s0,a0
    3fa4:	0cc53423          	sd	a2,200(a0) # 10c8 <.LBB78_3+0xe70>
    3fa8:	00065463          	bgez	a2,3fb0 <.LBB78_108>
    3fac:	c00005b7          	lui	a1,0xc0000

0000000000003fb0 <.LBB78_108>:
    3fb0:	00001537          	lui	a0,0x1
    3fb4:	40a40533          	sub	a0,s0,a0
    3fb8:	0cb53023          	sd	a1,192(a0) # 10c0 <.LBB78_3+0xe68>
    3fbc:	82043603          	ld	a2,-2016(s0)
    3fc0:	00ca8633          	add	a2,s5,a2
    3fc4:	f2843683          	ld	a3,-216(s0)
    3fc8:	40f686bb          	subw	a3,a3,a5
    3fcc:	00d6063b          	addw	a2,a2,a3
    3fd0:	400005b7          	lui	a1,0x40000
    3fd4:	00001537          	lui	a0,0x1
    3fd8:	40a40533          	sub	a0,s0,a0
    3fdc:	0cc53c23          	sd	a2,216(a0) # 10d8 <.LBB78_3+0xe80>
    3fe0:	00065463          	bgez	a2,3fe8 <.LBB78_110>
    3fe4:	c00005b7          	lui	a1,0xc0000

0000000000003fe8 <.LBB78_110>:
    3fe8:	00001537          	lui	a0,0x1
    3fec:	40a40533          	sub	a0,s0,a0
    3ff0:	0cb53823          	sd	a1,208(a0) # 10d0 <.LBB78_3+0xe78>
    3ff4:	82843603          	ld	a2,-2008(s0)
    3ff8:	00ca0633          	add	a2,s4,a2
    3ffc:	f3043683          	ld	a3,-208(s0)
    4000:	40f686bb          	subw	a3,a3,a5
    4004:	00d6063b          	addw	a2,a2,a3
    4008:	400005b7          	lui	a1,0x40000
    400c:	00001537          	lui	a0,0x1
    4010:	40a40533          	sub	a0,s0,a0
    4014:	0ec53423          	sd	a2,232(a0) # 10e8 <.LBB78_3+0xe90>
    4018:	00065463          	bgez	a2,4020 <.LBB78_112>
    401c:	c00005b7          	lui	a1,0xc0000

0000000000004020 <.LBB78_112>:
    4020:	00001537          	lui	a0,0x1
    4024:	40a40533          	sub	a0,s0,a0
    4028:	0eb53023          	sd	a1,224(a0) # 10e0 <.LBB78_3+0xe88>
    402c:	83043603          	ld	a2,-2000(s0)
    4030:	00c98633          	add	a2,s3,a2
    4034:	f3843683          	ld	a3,-200(s0)
    4038:	40f686bb          	subw	a3,a3,a5
    403c:	00d6063b          	addw	a2,a2,a3
    4040:	400005b7          	lui	a1,0x40000
    4044:	00001537          	lui	a0,0x1
    4048:	40a40533          	sub	a0,s0,a0
    404c:	0ec53c23          	sd	a2,248(a0) # 10f8 <.LBB78_3+0xea0>
    4050:	00065463          	bgez	a2,4058 <.LBB78_114>
    4054:	c00005b7          	lui	a1,0xc0000

0000000000004058 <.LBB78_114>:
    4058:	00001537          	lui	a0,0x1
    405c:	40a40533          	sub	a0,s0,a0
    4060:	0eb53823          	sd	a1,240(a0) # 10f0 <.LBB78_3+0xe98>
    4064:	83843603          	ld	a2,-1992(s0)
    4068:	00c90633          	add	a2,s2,a2
    406c:	f4043683          	ld	a3,-192(s0)
    4070:	40f686bb          	subw	a3,a3,a5
    4074:	00d6063b          	addw	a2,a2,a3
    4078:	400005b7          	lui	a1,0x40000
    407c:	00001537          	lui	a0,0x1
    4080:	40a40533          	sub	a0,s0,a0
    4084:	10c53423          	sd	a2,264(a0) # 1108 <.LBB78_3+0xeb0>
    4088:	00065463          	bgez	a2,4090 <.LBB78_116>
    408c:	c00005b7          	lui	a1,0xc0000

0000000000004090 <.LBB78_116>:
    4090:	00001537          	lui	a0,0x1
    4094:	40a40533          	sub	a0,s0,a0
    4098:	10b53023          	sd	a1,256(a0) # 1100 <.LBB78_3+0xea8>
    409c:	84043603          	ld	a2,-1984(s0)
    40a0:	00c48633          	add	a2,s1,a2
    40a4:	f4843683          	ld	a3,-184(s0)
    40a8:	40f686bb          	subw	a3,a3,a5
    40ac:	00d6063b          	addw	a2,a2,a3
    40b0:	400005b7          	lui	a1,0x40000
    40b4:	00001537          	lui	a0,0x1
    40b8:	40a40533          	sub	a0,s0,a0
    40bc:	10c53c23          	sd	a2,280(a0) # 1118 <.LBB78_3+0xec0>
    40c0:	00065463          	bgez	a2,40c8 <.LBB78_118>
    40c4:	c00005b7          	lui	a1,0xc0000

00000000000040c8 <.LBB78_118>:
    40c8:	00001537          	lui	a0,0x1
    40cc:	40a40533          	sub	a0,s0,a0
    40d0:	10b53823          	sd	a1,272(a0) # 1110 <.LBB78_3+0xeb8>
    40d4:	84843603          	ld	a2,-1976(s0)
    40d8:	00cf8633          	add	a2,t6,a2
    40dc:	f5043683          	ld	a3,-176(s0)
    40e0:	40f686bb          	subw	a3,a3,a5
    40e4:	00d6063b          	addw	a2,a2,a3
    40e8:	400005b7          	lui	a1,0x40000
    40ec:	00001537          	lui	a0,0x1
    40f0:	40a40533          	sub	a0,s0,a0
    40f4:	12c53423          	sd	a2,296(a0) # 1128 <.LBB78_3+0xed0>
    40f8:	00065463          	bgez	a2,4100 <.LBB78_120>
    40fc:	c00005b7          	lui	a1,0xc0000

0000000000004100 <.LBB78_120>:
    4100:	00001537          	lui	a0,0x1
    4104:	40a40533          	sub	a0,s0,a0
    4108:	12b53023          	sd	a1,288(a0) # 1120 <.LBB78_3+0xec8>
    410c:	85043603          	ld	a2,-1968(s0)
    4110:	00cf0633          	add	a2,t5,a2
    4114:	f5843683          	ld	a3,-168(s0)
    4118:	40f686bb          	subw	a3,a3,a5
    411c:	00d6063b          	addw	a2,a2,a3
    4120:	400005b7          	lui	a1,0x40000
    4124:	84c43823          	sd	a2,-1968(s0)
    4128:	00065463          	bgez	a2,4130 <.LBB78_122>
    412c:	c00005b7          	lui	a1,0xc0000

0000000000004130 <.LBB78_122>:
    4130:	00001537          	lui	a0,0x1
    4134:	40a40533          	sub	a0,s0,a0
    4138:	12b53823          	sd	a1,304(a0) # 1130 <.LBB78_3+0xed8>
    413c:	85843603          	ld	a2,-1960(s0)
    4140:	00ce8633          	add	a2,t4,a2
    4144:	f6043683          	ld	a3,-160(s0)
    4148:	40f686bb          	subw	a3,a3,a5
    414c:	00d6063b          	addw	a2,a2,a3
    4150:	400005b7          	lui	a1,0x40000
    4154:	80c43c23          	sd	a2,-2024(s0)
    4158:	00065463          	bgez	a2,4160 <.LBB78_124>
    415c:	c00005b7          	lui	a1,0xc0000

0000000000004160 <.LBB78_124>:
    4160:	00001537          	lui	a0,0x1
    4164:	40a40533          	sub	a0,s0,a0
    4168:	12b53c23          	sd	a1,312(a0) # 1138 <.LBB78_3+0xee0>
    416c:	86043603          	ld	a2,-1952(s0)
    4170:	00ce0633          	add	a2,t3,a2
    4174:	f6843683          	ld	a3,-152(s0)
    4178:	40f686bb          	subw	a3,a3,a5
    417c:	00d6063b          	addw	a2,a2,a3
    4180:	400005b7          	lui	a1,0x40000
    4184:	00001537          	lui	a0,0x1
    4188:	40a40533          	sub	a0,s0,a0
    418c:	7ec53023          	sd	a2,2016(a0) # 17e0 <.LBB78_5+0x94>
    4190:	00065463          	bgez	a2,4198 <.LBB78_126>
    4194:	c00005b7          	lui	a1,0xc0000

0000000000004198 <.LBB78_126>:
    4198:	00001537          	lui	a0,0x1
    419c:	40a40533          	sub	a0,s0,a0
    41a0:	14b53023          	sd	a1,320(a0) # 1140 <.LBB78_3+0xee8>
    41a4:	86843603          	ld	a2,-1944(s0)
    41a8:	00001537          	lui	a0,0x1
    41ac:	40a40533          	sub	a0,s0,a0
    41b0:	77053583          	ld	a1,1904(a0) # 1770 <.LBB78_5+0x24>
    41b4:	00c58633          	add	a2,a1,a2
    41b8:	f7043683          	ld	a3,-144(s0)
    41bc:	40f686bb          	subw	a3,a3,a5
    41c0:	00d6063b          	addw	a2,a2,a3
    41c4:	400005b7          	lui	a1,0x40000
    41c8:	00001537          	lui	a0,0x1
    41cc:	40a40533          	sub	a0,s0,a0
    41d0:	7ac53423          	sd	a2,1960(a0) # 17a8 <.LBB78_5+0x5c>
    41d4:	00065463          	bgez	a2,41dc <.LBB78_128>
    41d8:	c00005b7          	lui	a1,0xc0000

00000000000041dc <.LBB78_128>:
    41dc:	00001537          	lui	a0,0x1
    41e0:	40a40533          	sub	a0,s0,a0
    41e4:	14b53423          	sd	a1,328(a0) # 1148 <.LBB78_3+0xef0>
    41e8:	87043603          	ld	a2,-1936(s0)
    41ec:	00c30633          	add	a2,t1,a2
    41f0:	f7843683          	ld	a3,-136(s0)
    41f4:	40f686bb          	subw	a3,a3,a5
    41f8:	00d6063b          	addw	a2,a2,a3
    41fc:	400005b7          	lui	a1,0x40000
    4200:	00001537          	lui	a0,0x1
    4204:	40a40533          	sub	a0,s0,a0
    4208:	76c53c23          	sd	a2,1912(a0) # 1778 <.LBB78_5+0x2c>
    420c:	00065463          	bgez	a2,4214 <.LBB78_130>
    4210:	c00005b7          	lui	a1,0xc0000

0000000000004214 <.LBB78_130>:
    4214:	00001537          	lui	a0,0x1
    4218:	40a40533          	sub	a0,s0,a0
    421c:	14b53823          	sd	a1,336(a0) # 1150 <.LBB78_3+0xef8>
    4220:	87843603          	ld	a2,-1928(s0)
    4224:	00c88633          	add	a2,a7,a2
    4228:	f8043683          	ld	a3,-128(s0)
    422c:	40f686bb          	subw	a3,a3,a5
    4230:	00d6063b          	addw	a2,a2,a3
    4234:	400005b7          	lui	a1,0x40000
    4238:	00001537          	lui	a0,0x1
    423c:	40a40533          	sub	a0,s0,a0
    4240:	16c53023          	sd	a2,352(a0) # 1160 <.LBB78_3+0xf08>
    4244:	00065463          	bgez	a2,424c <.LBB78_132>
    4248:	c00005b7          	lui	a1,0xc0000

000000000000424c <.LBB78_132>:
    424c:	00001537          	lui	a0,0x1
    4250:	40a40533          	sub	a0,s0,a0
    4254:	14b53c23          	sd	a1,344(a0) # 1158 <.LBB78_3+0xf00>
    4258:	88043603          	ld	a2,-1920(s0)
    425c:	00c38633          	add	a2,t2,a2
    4260:	f8843683          	ld	a3,-120(s0)
    4264:	40f686bb          	subw	a3,a3,a5
    4268:	00d6063b          	addw	a2,a2,a3
    426c:	400005b7          	lui	a1,0x40000
    4270:	00001537          	lui	a0,0x1
    4274:	40a40533          	sub	a0,s0,a0
    4278:	16c53823          	sd	a2,368(a0) # 1170 <.LBB78_3+0xf18>
    427c:	00065463          	bgez	a2,4284 <.LBB78_134>
    4280:	c00005b7          	lui	a1,0xc0000

0000000000004284 <.LBB78_134>:
    4284:	00001537          	lui	a0,0x1
    4288:	40a40533          	sub	a0,s0,a0
    428c:	16b53423          	sd	a1,360(a0) # 1168 <.LBB78_3+0xf10>
    4290:	e8843603          	ld	a2,-376(s0)
    4294:	00e60633          	add	a2,a2,a4
    4298:	00001537          	lui	a0,0x1
    429c:	40a40533          	sub	a0,s0,a0
    42a0:	65053503          	ld	a0,1616(a0) # 1650 <.LBB78_4+0x49c>
    42a4:	03050733          	mul	a4,a0,a6
    42a8:	e9043503          	ld	a0,-368(s0)
    42ac:	40e5053b          	subw	a0,a0,a4
    42b0:	00a6053b          	addw	a0,a2,a0
    42b4:	400005b7          	lui	a1,0x40000
    42b8:	e3043783          	ld	a5,-464(s0)
    42bc:	00001637          	lui	a2,0x1
    42c0:	40c40633          	sub	a2,s0,a2
    42c4:	18a63023          	sd	a0,384(a2) # 1180 <.LBB78_3+0xf28>
    42c8:	98843683          	ld	a3,-1656(s0)
    42cc:	00055463          	bgez	a0,42d4 <.LBB78_136>
    42d0:	c00005b7          	lui	a1,0xc0000

00000000000042d4 <.LBB78_136>:
    42d4:	00001537          	lui	a0,0x1
    42d8:	40a40533          	sub	a0,s0,a0
    42dc:	16b53c23          	sd	a1,376(a0) # 1178 <.LBB78_3+0xf20>
    42e0:	89043503          	ld	a0,-1904(s0)
    42e4:	e7843583          	ld	a1,-392(s0)
    42e8:	00a58533          	add	a0,a1,a0
    42ec:	e8043603          	ld	a2,-384(s0)
    42f0:	40e6063b          	subw	a2,a2,a4
    42f4:	00c5053b          	addw	a0,a0,a2
    42f8:	400005b7          	lui	a1,0x40000
    42fc:	00001637          	lui	a2,0x1
    4300:	40c40633          	sub	a2,s0,a2
    4304:	18a63823          	sd	a0,400(a2) # 1190 <.LBB78_3+0xf38>
    4308:	00055463          	bgez	a0,4310 <.LBB78_138>
    430c:	c00005b7          	lui	a1,0xc0000

0000000000004310 <.LBB78_138>:
    4310:	00001537          	lui	a0,0x1
    4314:	40a40533          	sub	a0,s0,a0
    4318:	18b53423          	sd	a1,392(a0) # 1188 <.LBB78_3+0xf30>
    431c:	89843503          	ld	a0,-1896(s0)
    4320:	e6843583          	ld	a1,-408(s0)
    4324:	00a58533          	add	a0,a1,a0
    4328:	e7043603          	ld	a2,-400(s0)
    432c:	40e6063b          	subw	a2,a2,a4
    4330:	00c5053b          	addw	a0,a0,a2
    4334:	400005b7          	lui	a1,0x40000
    4338:	00001637          	lui	a2,0x1
    433c:	40c40633          	sub	a2,s0,a2
    4340:	1aa63023          	sd	a0,416(a2) # 11a0 <.LBB78_3+0xf48>
    4344:	00055463          	bgez	a0,434c <.LBB78_140>
    4348:	c00005b7          	lui	a1,0xc0000

000000000000434c <.LBB78_140>:
    434c:	00001537          	lui	a0,0x1
    4350:	40a40533          	sub	a0,s0,a0
    4354:	18b53c23          	sd	a1,408(a0) # 1198 <.LBB78_3+0xf40>
    4358:	8a043503          	ld	a0,-1888(s0)
    435c:	e5843583          	ld	a1,-424(s0)
    4360:	00a58533          	add	a0,a1,a0
    4364:	e6043603          	ld	a2,-416(s0)
    4368:	40e6063b          	subw	a2,a2,a4
    436c:	00c5053b          	addw	a0,a0,a2
    4370:	400005b7          	lui	a1,0x40000
    4374:	00001637          	lui	a2,0x1
    4378:	40c40633          	sub	a2,s0,a2
    437c:	1aa63823          	sd	a0,432(a2) # 11b0 <.LBB78_3+0xf58>
    4380:	00055463          	bgez	a0,4388 <.LBB78_142>
    4384:	c00005b7          	lui	a1,0xc0000

0000000000004388 <.LBB78_142>:
    4388:	00001537          	lui	a0,0x1
    438c:	40a40533          	sub	a0,s0,a0
    4390:	1ab53423          	sd	a1,424(a0) # 11a8 <.LBB78_3+0xf50>
    4394:	8a843503          	ld	a0,-1880(s0)
    4398:	e4843583          	ld	a1,-440(s0)
    439c:	00a58533          	add	a0,a1,a0
    43a0:	e5043603          	ld	a2,-432(s0)
    43a4:	40e6063b          	subw	a2,a2,a4
    43a8:	00c5053b          	addw	a0,a0,a2
    43ac:	400005b7          	lui	a1,0x40000
    43b0:	00001637          	lui	a2,0x1
    43b4:	40c40633          	sub	a2,s0,a2
    43b8:	1ca63023          	sd	a0,448(a2) # 11c0 <.LBB78_4+0xc>
    43bc:	00055463          	bgez	a0,43c4 <.LBB78_144>
    43c0:	c00005b7          	lui	a1,0xc0000

00000000000043c4 <.LBB78_144>:
    43c4:	00001537          	lui	a0,0x1
    43c8:	40a40533          	sub	a0,s0,a0
    43cc:	1ab53c23          	sd	a1,440(a0) # 11b8 <.LBB78_4+0x4>
    43d0:	8b043503          	ld	a0,-1872(s0)
    43d4:	000015b7          	lui	a1,0x1
    43d8:	40b405b3          	sub	a1,s0,a1
    43dc:	6c05b583          	ld	a1,1728(a1) # 16c0 <.LBB78_4+0x50c>
    43e0:	00a58533          	add	a0,a1,a0
    43e4:	000015b7          	lui	a1,0x1
    43e8:	40b405b3          	sub	a1,s0,a1
    43ec:	6c85b603          	ld	a2,1736(a1) # 16c8 <.LBB78_4+0x514>
    43f0:	40e6063b          	subw	a2,a2,a4
    43f4:	00c5053b          	addw	a0,a0,a2
    43f8:	400005b7          	lui	a1,0x40000
    43fc:	00001637          	lui	a2,0x1
    4400:	40c40633          	sub	a2,s0,a2
    4404:	1ca63823          	sd	a0,464(a2) # 11d0 <.LBB78_4+0x1c>
    4408:	00055463          	bgez	a0,4410 <.LBB78_146>
    440c:	c00005b7          	lui	a1,0xc0000

0000000000004410 <.LBB78_146>:
    4410:	00001537          	lui	a0,0x1
    4414:	40a40533          	sub	a0,s0,a0
    4418:	1cb53423          	sd	a1,456(a0) # 11c8 <.LBB78_4+0x14>
    441c:	8b843503          	ld	a0,-1864(s0)
    4420:	000015b7          	lui	a1,0x1
    4424:	40b405b3          	sub	a1,s0,a1
    4428:	6a85b583          	ld	a1,1704(a1) # 16a8 <.LBB78_4+0x4f4>
    442c:	00a58533          	add	a0,a1,a0
    4430:	000015b7          	lui	a1,0x1
    4434:	40b405b3          	sub	a1,s0,a1
    4438:	6b85b603          	ld	a2,1720(a1) # 16b8 <.LBB78_4+0x504>
    443c:	40e6063b          	subw	a2,a2,a4
    4440:	00c5053b          	addw	a0,a0,a2
    4444:	400005b7          	lui	a1,0x40000
    4448:	00001637          	lui	a2,0x1
    444c:	40c40633          	sub	a2,s0,a2
    4450:	1ea63023          	sd	a0,480(a2) # 11e0 <.LBB78_4+0x2c>
    4454:	00055463          	bgez	a0,445c <.LBB78_148>
    4458:	c00005b7          	lui	a1,0xc0000

000000000000445c <.LBB78_148>:
    445c:	00001537          	lui	a0,0x1
    4460:	40a40533          	sub	a0,s0,a0
    4464:	1cb53c23          	sd	a1,472(a0) # 11d8 <.LBB78_4+0x24>
    4468:	8c043503          	ld	a0,-1856(s0)
    446c:	000015b7          	lui	a1,0x1
    4470:	40b405b3          	sub	a1,s0,a1
    4474:	6985b583          	ld	a1,1688(a1) # 1698 <.LBB78_4+0x4e4>
    4478:	00a58533          	add	a0,a1,a0
    447c:	000015b7          	lui	a1,0x1
    4480:	40b405b3          	sub	a1,s0,a1
    4484:	6a05b603          	ld	a2,1696(a1) # 16a0 <.LBB78_4+0x4ec>
    4488:	40e6063b          	subw	a2,a2,a4
    448c:	00c5053b          	addw	a0,a0,a2
    4490:	400005b7          	lui	a1,0x40000
    4494:	00001637          	lui	a2,0x1
    4498:	40c40633          	sub	a2,s0,a2
    449c:	1ea63823          	sd	a0,496(a2) # 11f0 <.LBB78_4+0x3c>
    44a0:	00055463          	bgez	a0,44a8 <.LBB78_150>
    44a4:	c00005b7          	lui	a1,0xc0000

00000000000044a8 <.LBB78_150>:
    44a8:	00001537          	lui	a0,0x1
    44ac:	40a40533          	sub	a0,s0,a0
    44b0:	1eb53423          	sd	a1,488(a0) # 11e8 <.LBB78_4+0x34>
    44b4:	8c843503          	ld	a0,-1848(s0)
    44b8:	000015b7          	lui	a1,0x1
    44bc:	40b405b3          	sub	a1,s0,a1
    44c0:	6d05b583          	ld	a1,1744(a1) # 16d0 <.LBB78_4+0x51c>
    44c4:	00a58533          	add	a0,a1,a0
    44c8:	000015b7          	lui	a1,0x1
    44cc:	40b405b3          	sub	a1,s0,a1
    44d0:	6d85b603          	ld	a2,1752(a1) # 16d8 <.LBB78_4+0x524>
    44d4:	40e6063b          	subw	a2,a2,a4
    44d8:	00c5053b          	addw	a0,a0,a2
    44dc:	400005b7          	lui	a1,0x40000
    44e0:	00001637          	lui	a2,0x1
    44e4:	40c40633          	sub	a2,s0,a2
    44e8:	20a63023          	sd	a0,512(a2) # 1200 <.LBB78_4+0x4c>
    44ec:	00055463          	bgez	a0,44f4 <.LBB78_152>
    44f0:	c00005b7          	lui	a1,0xc0000

00000000000044f4 <.LBB78_152>:
    44f4:	00001537          	lui	a0,0x1
    44f8:	40a40533          	sub	a0,s0,a0
    44fc:	1eb53c23          	sd	a1,504(a0) # 11f8 <.LBB78_4+0x44>
    4500:	8d043503          	ld	a0,-1840(s0)
    4504:	000015b7          	lui	a1,0x1
    4508:	40b405b3          	sub	a1,s0,a1
    450c:	6b05b583          	ld	a1,1712(a1) # 16b0 <.LBB78_4+0x4fc>
    4510:	00a58533          	add	a0,a1,a0
    4514:	eb843603          	ld	a2,-328(s0)
    4518:	40e6063b          	subw	a2,a2,a4
    451c:	00c5053b          	addw	a0,a0,a2
    4520:	400005b7          	lui	a1,0x40000
    4524:	00001637          	lui	a2,0x1
    4528:	40c40633          	sub	a2,s0,a2
    452c:	20a63823          	sd	a0,528(a2) # 1210 <.LBB78_4+0x5c>
    4530:	00055463          	bgez	a0,4538 <.LBB78_154>
    4534:	c00005b7          	lui	a1,0xc0000

0000000000004538 <.LBB78_154>:
    4538:	00001537          	lui	a0,0x1
    453c:	40a40533          	sub	a0,s0,a0
    4540:	20b53423          	sd	a1,520(a0) # 1208 <.LBB78_4+0x54>
    4544:	8d843503          	ld	a0,-1832(s0)
    4548:	000015b7          	lui	a1,0x1
    454c:	40b405b3          	sub	a1,s0,a1
    4550:	6e05b583          	ld	a1,1760(a1) # 16e0 <.LBB78_4+0x52c>
    4554:	00a58533          	add	a0,a1,a0
    4558:	e9843603          	ld	a2,-360(s0)
    455c:	40e6063b          	subw	a2,a2,a4
    4560:	00c5053b          	addw	a0,a0,a2
    4564:	400005b7          	lui	a1,0x40000
    4568:	00001637          	lui	a2,0x1
    456c:	40c40633          	sub	a2,s0,a2
    4570:	22a63023          	sd	a0,544(a2) # 1220 <.LBB78_4+0x6c>
    4574:	00055463          	bgez	a0,457c <.LBB78_156>
    4578:	c00005b7          	lui	a1,0xc0000

000000000000457c <.LBB78_156>:
    457c:	00001537          	lui	a0,0x1
    4580:	40a40533          	sub	a0,s0,a0
    4584:	20b53c23          	sd	a1,536(a0) # 1218 <.LBB78_4+0x64>
    4588:	8e043503          	ld	a0,-1824(s0)
    458c:	000015b7          	lui	a1,0x1
    4590:	40b405b3          	sub	a1,s0,a1
    4594:	6e85b583          	ld	a1,1768(a1) # 16e8 <.LBB78_4+0x534>
    4598:	00a58533          	add	a0,a1,a0
    459c:	ea043603          	ld	a2,-352(s0)
    45a0:	40e6063b          	subw	a2,a2,a4
    45a4:	00c5053b          	addw	a0,a0,a2
    45a8:	400005b7          	lui	a1,0x40000
    45ac:	00001637          	lui	a2,0x1
    45b0:	40c40633          	sub	a2,s0,a2
    45b4:	22a63823          	sd	a0,560(a2) # 1230 <.LBB78_4+0x7c>
    45b8:	00055463          	bgez	a0,45c0 <.LBB78_158>
    45bc:	c00005b7          	lui	a1,0xc0000

00000000000045c0 <.LBB78_158>:
    45c0:	00001537          	lui	a0,0x1
    45c4:	40a40533          	sub	a0,s0,a0
    45c8:	22b53423          	sd	a1,552(a0) # 1228 <.LBB78_4+0x74>
    45cc:	8e843503          	ld	a0,-1816(s0)
    45d0:	00a08533          	add	a0,ra,a0
    45d4:	ea843603          	ld	a2,-344(s0)
    45d8:	40e6063b          	subw	a2,a2,a4
    45dc:	00c5053b          	addw	a0,a0,a2
    45e0:	400005b7          	lui	a1,0x40000
    45e4:	00001637          	lui	a2,0x1
    45e8:	40c40633          	sub	a2,s0,a2
    45ec:	44a63023          	sd	a0,1088(a2) # 1440 <.LBB78_4+0x28c>
    45f0:	00055463          	bgez	a0,45f8 <.LBB78_160>
    45f4:	c00005b7          	lui	a1,0xc0000

00000000000045f8 <.LBB78_160>:
    45f8:	00001537          	lui	a0,0x1
    45fc:	40a40533          	sub	a0,s0,a0
    4600:	22b53c23          	sd	a1,568(a0) # 1238 <.LBB78_4+0x84>
    4604:	8f043503          	ld	a0,-1808(s0)
    4608:	00ad8533          	add	a0,s11,a0
    460c:	eb043603          	ld	a2,-336(s0)
    4610:	40e6063b          	subw	a2,a2,a4
    4614:	00c5053b          	addw	a0,a0,a2
    4618:	400005b7          	lui	a1,0x40000
    461c:	00001637          	lui	a2,0x1
    4620:	40c40633          	sub	a2,s0,a2
    4624:	40a63823          	sd	a0,1040(a2) # 1410 <.LBB78_4+0x25c>
    4628:	00055463          	bgez	a0,4630 <.LBB78_162>
    462c:	c00005b7          	lui	a1,0xc0000

0000000000004630 <.LBB78_162>:
    4630:	00001537          	lui	a0,0x1
    4634:	40a40533          	sub	a0,s0,a0
    4638:	24b53023          	sd	a1,576(a0) # 1240 <.LBB78_4+0x8c>
    463c:	8f843503          	ld	a0,-1800(s0)
    4640:	00ad0533          	add	a0,s10,a0
    4644:	ec043603          	ld	a2,-320(s0)
    4648:	40e6063b          	subw	a2,a2,a4
    464c:	00c5053b          	addw	a0,a0,a2
    4650:	400005b7          	lui	a1,0x40000
    4654:	00001637          	lui	a2,0x1
    4658:	40c40633          	sub	a2,s0,a2
    465c:	3ea63023          	sd	a0,992(a2) # 13e0 <.LBB78_4+0x22c>
    4660:	00055463          	bgez	a0,4668 <.LBB78_164>
    4664:	c00005b7          	lui	a1,0xc0000

0000000000004668 <.LBB78_164>:
    4668:	00001537          	lui	a0,0x1
    466c:	40a40533          	sub	a0,s0,a0
    4670:	24b53423          	sd	a1,584(a0) # 1248 <.LBB78_4+0x94>
    4674:	90043503          	ld	a0,-1792(s0)
    4678:	00ac8533          	add	a0,s9,a0
    467c:	ec843603          	ld	a2,-312(s0)
    4680:	40e6063b          	subw	a2,a2,a4
    4684:	00c5053b          	addw	a0,a0,a2
    4688:	400005b7          	lui	a1,0x40000
    468c:	00001637          	lui	a2,0x1
    4690:	40c40633          	sub	a2,s0,a2
    4694:	3aa63423          	sd	a0,936(a2) # 13a8 <.LBB78_4+0x1f4>
    4698:	00055463          	bgez	a0,46a0 <.LBB78_166>
    469c:	c00005b7          	lui	a1,0xc0000

00000000000046a0 <.LBB78_166>:
    46a0:	00001537          	lui	a0,0x1
    46a4:	40a40533          	sub	a0,s0,a0
    46a8:	24b53823          	sd	a1,592(a0) # 1250 <.LBB78_4+0x9c>
    46ac:	90843503          	ld	a0,-1784(s0)
    46b0:	000015b7          	lui	a1,0x1
    46b4:	40b405b3          	sub	a1,s0,a1
    46b8:	7105b583          	ld	a1,1808(a1) # 1710 <.LBB78_4+0x55c>
    46bc:	00a58533          	add	a0,a1,a0
    46c0:	f1043603          	ld	a2,-240(s0)
    46c4:	40e6063b          	subw	a2,a2,a4
    46c8:	00c5053b          	addw	a0,a0,a2
    46cc:	400005b7          	lui	a1,0x40000
    46d0:	00001637          	lui	a2,0x1
    46d4:	40c40633          	sub	a2,s0,a2
    46d8:	36a63823          	sd	a0,880(a2) # 1370 <.LBB78_4+0x1bc>
    46dc:	00055463          	bgez	a0,46e4 <.LBB78_168>
    46e0:	c00005b7          	lui	a1,0xc0000

00000000000046e4 <.LBB78_168>:
    46e4:	00001537          	lui	a0,0x1
    46e8:	40a40533          	sub	a0,s0,a0
    46ec:	24b53c23          	sd	a1,600(a0) # 1258 <.LBB78_4+0xa4>
    46f0:	91043503          	ld	a0,-1776(s0)
    46f4:	000015b7          	lui	a1,0x1
    46f8:	40b405b3          	sub	a1,s0,a1
    46fc:	7185b583          	ld	a1,1816(a1) # 1718 <.LBB78_4+0x564>
    4700:	00a58533          	add	a0,a1,a0
    4704:	f1843603          	ld	a2,-232(s0)
    4708:	40e6063b          	subw	a2,a2,a4
    470c:	00c5053b          	addw	a0,a0,a2
    4710:	400005b7          	lui	a1,0x40000
    4714:	00001637          	lui	a2,0x1
    4718:	40c40633          	sub	a2,s0,a2
    471c:	32a63c23          	sd	a0,824(a2) # 1338 <.LBB78_4+0x184>
    4720:	00055463          	bgez	a0,4728 <.LBB78_170>
    4724:	c00005b7          	lui	a1,0xc0000

0000000000004728 <.LBB78_170>:
    4728:	00001537          	lui	a0,0x1
    472c:	40a40533          	sub	a0,s0,a0
    4730:	26b53023          	sd	a1,608(a0) # 1260 <.LBB78_4+0xac>
    4734:	91843503          	ld	a0,-1768(s0)
    4738:	00ab0533          	add	a0,s6,a0
    473c:	f2043603          	ld	a2,-224(s0)
    4740:	40e6063b          	subw	a2,a2,a4
    4744:	00c5053b          	addw	a0,a0,a2
    4748:	400005b7          	lui	a1,0x40000
    474c:	00001637          	lui	a2,0x1
    4750:	40c40633          	sub	a2,s0,a2
    4754:	30a63423          	sd	a0,776(a2) # 1308 <.LBB78_4+0x154>
    4758:	00055463          	bgez	a0,4760 <.LBB78_172>
    475c:	c00005b7          	lui	a1,0xc0000

0000000000004760 <.LBB78_172>:
    4760:	00001537          	lui	a0,0x1
    4764:	40a40533          	sub	a0,s0,a0
    4768:	26b53423          	sd	a1,616(a0) # 1268 <.LBB78_4+0xb4>
    476c:	92043503          	ld	a0,-1760(s0)
    4770:	00aa8533          	add	a0,s5,a0
    4774:	f2843603          	ld	a2,-216(s0)
    4778:	40e6063b          	subw	a2,a2,a4
    477c:	00c5053b          	addw	a0,a0,a2
    4780:	400005b7          	lui	a1,0x40000
    4784:	00001637          	lui	a2,0x1
    4788:	40c40633          	sub	a2,s0,a2
    478c:	2ca63c23          	sd	a0,728(a2) # 12d8 <.LBB78_4+0x124>
    4790:	00055463          	bgez	a0,4798 <.LBB78_174>
    4794:	c00005b7          	lui	a1,0xc0000

0000000000004798 <.LBB78_174>:
    4798:	00001537          	lui	a0,0x1
    479c:	40a40533          	sub	a0,s0,a0
    47a0:	26b53823          	sd	a1,624(a0) # 1270 <.LBB78_4+0xbc>
    47a4:	92843503          	ld	a0,-1752(s0)
    47a8:	00aa0533          	add	a0,s4,a0
    47ac:	f3043603          	ld	a2,-208(s0)
    47b0:	40e6063b          	subw	a2,a2,a4
    47b4:	00c5053b          	addw	a0,a0,a2
    47b8:	400005b7          	lui	a1,0x40000
    47bc:	00001637          	lui	a2,0x1
    47c0:	40c40633          	sub	a2,s0,a2
    47c4:	2aa63023          	sd	a0,672(a2) # 12a0 <.LBB78_4+0xec>
    47c8:	00055463          	bgez	a0,47d0 <.LBB78_176>
    47cc:	c00005b7          	lui	a1,0xc0000

00000000000047d0 <.LBB78_176>:
    47d0:	00001537          	lui	a0,0x1
    47d4:	40a40533          	sub	a0,s0,a0
    47d8:	26b53c23          	sd	a1,632(a0) # 1278 <.LBB78_4+0xc4>
    47dc:	93043503          	ld	a0,-1744(s0)
    47e0:	00a98533          	add	a0,s3,a0
    47e4:	f3843603          	ld	a2,-200(s0)
    47e8:	40e6063b          	subw	a2,a2,a4
    47ec:	00c5053b          	addw	a0,a0,a2
    47f0:	400005b7          	lui	a1,0x40000
    47f4:	00001637          	lui	a2,0x1
    47f8:	40c40633          	sub	a2,s0,a2
    47fc:	28a63423          	sd	a0,648(a2) # 1288 <.LBB78_4+0xd4>
    4800:	00055463          	bgez	a0,4808 <.LBB78_178>
    4804:	c00005b7          	lui	a1,0xc0000

0000000000004808 <.LBB78_178>:
    4808:	00001537          	lui	a0,0x1
    480c:	40a40533          	sub	a0,s0,a0
    4810:	28b53023          	sd	a1,640(a0) # 1280 <.LBB78_4+0xcc>
    4814:	93843503          	ld	a0,-1736(s0)
    4818:	00a90533          	add	a0,s2,a0
    481c:	f4043603          	ld	a2,-192(s0)
    4820:	40e6063b          	subw	a2,a2,a4
    4824:	00c5053b          	addw	a0,a0,a2
    4828:	400005b7          	lui	a1,0x40000
    482c:	00001637          	lui	a2,0x1
    4830:	40c40633          	sub	a2,s0,a2
    4834:	28a63c23          	sd	a0,664(a2) # 1298 <.LBB78_4+0xe4>
    4838:	00055463          	bgez	a0,4840 <.LBB78_180>
    483c:	c00005b7          	lui	a1,0xc0000

0000000000004840 <.LBB78_180>:
    4840:	00001537          	lui	a0,0x1
    4844:	40a40533          	sub	a0,s0,a0
    4848:	28b53823          	sd	a1,656(a0) # 1290 <.LBB78_4+0xdc>
    484c:	94043503          	ld	a0,-1728(s0)
    4850:	00a48533          	add	a0,s1,a0
    4854:	f4843603          	ld	a2,-184(s0)
    4858:	40e6063b          	subw	a2,a2,a4
    485c:	00c5053b          	addw	a0,a0,a2
    4860:	400005b7          	lui	a1,0x40000
    4864:	00001637          	lui	a2,0x1
    4868:	40c40633          	sub	a2,s0,a2
    486c:	2aa63823          	sd	a0,688(a2) # 12b0 <.LBB78_4+0xfc>
    4870:	00055463          	bgez	a0,4878 <.LBB78_182>
    4874:	c00005b7          	lui	a1,0xc0000

0000000000004878 <.LBB78_182>:
    4878:	00001537          	lui	a0,0x1
    487c:	40a40533          	sub	a0,s0,a0
    4880:	2ab53423          	sd	a1,680(a0) # 12a8 <.LBB78_4+0xf4>
    4884:	94843503          	ld	a0,-1720(s0)
    4888:	00af8533          	add	a0,t6,a0
    488c:	f5043603          	ld	a2,-176(s0)
    4890:	40e6063b          	subw	a2,a2,a4
    4894:	00c5053b          	addw	a0,a0,a2
    4898:	400005b7          	lui	a1,0x40000
    489c:	00001637          	lui	a2,0x1
    48a0:	40c40633          	sub	a2,s0,a2
    48a4:	2ca63023          	sd	a0,704(a2) # 12c0 <.LBB78_4+0x10c>
    48a8:	00055463          	bgez	a0,48b0 <.LBB78_184>
    48ac:	c00005b7          	lui	a1,0xc0000

00000000000048b0 <.LBB78_184>:
    48b0:	00001537          	lui	a0,0x1
    48b4:	40a40533          	sub	a0,s0,a0
    48b8:	2ab53c23          	sd	a1,696(a0) # 12b8 <.LBB78_4+0x104>
    48bc:	95043503          	ld	a0,-1712(s0)
    48c0:	00af0533          	add	a0,t5,a0
    48c4:	f5843603          	ld	a2,-168(s0)
    48c8:	40e6063b          	subw	a2,a2,a4
    48cc:	00c5053b          	addw	a0,a0,a2
    48d0:	400005b7          	lui	a1,0x40000
    48d4:	00001637          	lui	a2,0x1
    48d8:	40c40633          	sub	a2,s0,a2
    48dc:	2ca63823          	sd	a0,720(a2) # 12d0 <.LBB78_4+0x11c>
    48e0:	00055463          	bgez	a0,48e8 <.LBB78_186>
    48e4:	c00005b7          	lui	a1,0xc0000

00000000000048e8 <.LBB78_186>:
    48e8:	00001537          	lui	a0,0x1
    48ec:	40a40533          	sub	a0,s0,a0
    48f0:	2cb53423          	sd	a1,712(a0) # 12c8 <.LBB78_4+0x114>
    48f4:	95843503          	ld	a0,-1704(s0)
    48f8:	00ae8533          	add	a0,t4,a0
    48fc:	f6043603          	ld	a2,-160(s0)
    4900:	40e6063b          	subw	a2,a2,a4
    4904:	00c5053b          	addw	a0,a0,a2
    4908:	400005b7          	lui	a1,0x40000
    490c:	00001637          	lui	a2,0x1
    4910:	40c40633          	sub	a2,s0,a2
    4914:	2ea63423          	sd	a0,744(a2) # 12e8 <.LBB78_4+0x134>
    4918:	00055463          	bgez	a0,4920 <.LBB78_188>
    491c:	c00005b7          	lui	a1,0xc0000

0000000000004920 <.LBB78_188>:
    4920:	00001537          	lui	a0,0x1
    4924:	40a40533          	sub	a0,s0,a0
    4928:	2eb53023          	sd	a1,736(a0) # 12e0 <.LBB78_4+0x12c>
    492c:	96043503          	ld	a0,-1696(s0)
    4930:	00ae0533          	add	a0,t3,a0
    4934:	f6843603          	ld	a2,-152(s0)
    4938:	40e6063b          	subw	a2,a2,a4
    493c:	00c5053b          	addw	a0,a0,a2
    4940:	400005b7          	lui	a1,0x40000
    4944:	00001637          	lui	a2,0x1
    4948:	40c40633          	sub	a2,s0,a2
    494c:	2ea63c23          	sd	a0,760(a2) # 12f8 <.LBB78_4+0x144>
    4950:	00055463          	bgez	a0,4958 <.LBB78_190>
    4954:	c00005b7          	lui	a1,0xc0000

0000000000004958 <.LBB78_190>:
    4958:	00001537          	lui	a0,0x1
    495c:	40a40533          	sub	a0,s0,a0
    4960:	2eb53823          	sd	a1,752(a0) # 12f0 <.LBB78_4+0x13c>
    4964:	96843503          	ld	a0,-1688(s0)
    4968:	000015b7          	lui	a1,0x1
    496c:	40b405b3          	sub	a1,s0,a1
    4970:	7705b583          	ld	a1,1904(a1) # 1770 <.LBB78_5+0x24>
    4974:	00a58533          	add	a0,a1,a0
    4978:	f7043603          	ld	a2,-144(s0)
    497c:	40e6063b          	subw	a2,a2,a4
    4980:	00c5053b          	addw	a0,a0,a2
    4984:	400005b7          	lui	a1,0x40000
    4988:	00001637          	lui	a2,0x1
    498c:	40c40633          	sub	a2,s0,a2
    4990:	30a63823          	sd	a0,784(a2) # 1310 <.LBB78_4+0x15c>
    4994:	00055463          	bgez	a0,499c <.LBB78_192>
    4998:	c00005b7          	lui	a1,0xc0000

000000000000499c <.LBB78_192>:
    499c:	00001537          	lui	a0,0x1
    49a0:	40a40533          	sub	a0,s0,a0
    49a4:	30b53023          	sd	a1,768(a0) # 1300 <.LBB78_4+0x14c>
    49a8:	97043503          	ld	a0,-1680(s0)
    49ac:	00a30533          	add	a0,t1,a0
    49b0:	f7843603          	ld	a2,-136(s0)
    49b4:	40e6063b          	subw	a2,a2,a4
    49b8:	00c5053b          	addw	a0,a0,a2
    49bc:	400005b7          	lui	a1,0x40000
    49c0:	00001637          	lui	a2,0x1
    49c4:	40c40633          	sub	a2,s0,a2
    49c8:	32a63023          	sd	a0,800(a2) # 1320 <.LBB78_4+0x16c>
    49cc:	00055463          	bgez	a0,49d4 <.LBB78_194>
    49d0:	c00005b7          	lui	a1,0xc0000

00000000000049d4 <.LBB78_194>:
    49d4:	00001537          	lui	a0,0x1
    49d8:	40a40533          	sub	a0,s0,a0
    49dc:	30b53c23          	sd	a1,792(a0) # 1318 <.LBB78_4+0x164>
    49e0:	97843503          	ld	a0,-1672(s0)
    49e4:	00a88533          	add	a0,a7,a0
    49e8:	f8043603          	ld	a2,-128(s0)
    49ec:	40e6063b          	subw	a2,a2,a4
    49f0:	00c5053b          	addw	a0,a0,a2
    49f4:	400005b7          	lui	a1,0x40000
    49f8:	00001637          	lui	a2,0x1
    49fc:	40c40633          	sub	a2,s0,a2
    4a00:	32a63823          	sd	a0,816(a2) # 1330 <.LBB78_4+0x17c>
    4a04:	00055463          	bgez	a0,4a0c <.LBB78_196>
    4a08:	c00005b7          	lui	a1,0xc0000

0000000000004a0c <.LBB78_196>:
    4a0c:	00001537          	lui	a0,0x1
    4a10:	40a40533          	sub	a0,s0,a0
    4a14:	32b53423          	sd	a1,808(a0) # 1328 <.LBB78_4+0x174>
    4a18:	98043503          	ld	a0,-1664(s0)
    4a1c:	00a38533          	add	a0,t2,a0
    4a20:	f8843603          	ld	a2,-120(s0)
    4a24:	40e6063b          	subw	a2,a2,a4
    4a28:	00c5053b          	addw	a0,a0,a2
    4a2c:	400005b7          	lui	a1,0x40000
    4a30:	00001637          	lui	a2,0x1
    4a34:	40c40633          	sub	a2,s0,a2
    4a38:	34a63423          	sd	a0,840(a2) # 1348 <.LBB78_4+0x194>
    4a3c:	00055463          	bgez	a0,4a44 <.LBB78_198>
    4a40:	c00005b7          	lui	a1,0xc0000

0000000000004a44 <.LBB78_198>:
    4a44:	f8f43823          	sd	a5,-112(s0)
    4a48:	00001537          	lui	a0,0x1
    4a4c:	40a40533          	sub	a0,s0,a0
    4a50:	34b53023          	sd	a1,832(a0) # 1340 <.LBB78_4+0x18c>
    4a54:	e8843503          	ld	a0,-376(s0)
    4a58:	00d50533          	add	a0,a0,a3
    4a5c:	000015b7          	lui	a1,0x1
    4a60:	40b405b3          	sub	a1,s0,a1
    4a64:	6805b583          	ld	a1,1664(a1) # 1680 <.LBB78_4+0x4cc>
    4a68:	030586b3          	mul	a3,a1,a6
    4a6c:	e9043583          	ld	a1,-368(s0)
    4a70:	40d585bb          	subw	a1,a1,a3
    4a74:	00b5053b          	addw	a0,a0,a1
    4a78:	400005b7          	lui	a1,0x40000
    4a7c:	e3843703          	ld	a4,-456(s0)
    4a80:	a8843603          	ld	a2,-1400(s0)
    4a84:	000017b7          	lui	a5,0x1
    4a88:	40f407b3          	sub	a5,s0,a5
    4a8c:	34a7bc23          	sd	a0,856(a5) # 1358 <.LBB78_4+0x1a4>
    4a90:	f9043783          	ld	a5,-112(s0)
    4a94:	00055463          	bgez	a0,4a9c <.LBB78_200>
    4a98:	c00005b7          	lui	a1,0xc0000

0000000000004a9c <.LBB78_200>:
    4a9c:	f8c43823          	sd	a2,-112(s0)
    4aa0:	00001537          	lui	a0,0x1
    4aa4:	40a40533          	sub	a0,s0,a0
    4aa8:	34b53823          	sd	a1,848(a0) # 1350 <.LBB78_4+0x19c>
    4aac:	99043503          	ld	a0,-1648(s0)
    4ab0:	e7843583          	ld	a1,-392(s0)
    4ab4:	00a58533          	add	a0,a1,a0
    4ab8:	e8043583          	ld	a1,-384(s0)
    4abc:	40d585bb          	subw	a1,a1,a3
    4ac0:	00b5053b          	addw	a0,a0,a1
    4ac4:	400005b7          	lui	a1,0x40000
    4ac8:	00001637          	lui	a2,0x1
    4acc:	40c40633          	sub	a2,s0,a2
    4ad0:	36a63423          	sd	a0,872(a2) # 1368 <.LBB78_4+0x1b4>
    4ad4:	f9043603          	ld	a2,-112(s0)
    4ad8:	00055463          	bgez	a0,4ae0 <.LBB78_202>
    4adc:	c00005b7          	lui	a1,0xc0000

0000000000004ae0 <.LBB78_202>:
    4ae0:	f8c43823          	sd	a2,-112(s0)
    4ae4:	00001537          	lui	a0,0x1
    4ae8:	40a40533          	sub	a0,s0,a0
    4aec:	36b53023          	sd	a1,864(a0) # 1360 <.LBB78_4+0x1ac>
    4af0:	99843503          	ld	a0,-1640(s0)
    4af4:	e6843583          	ld	a1,-408(s0)
    4af8:	00a58533          	add	a0,a1,a0
    4afc:	e7043583          	ld	a1,-400(s0)
    4b00:	40d585bb          	subw	a1,a1,a3
    4b04:	00b5053b          	addw	a0,a0,a1
    4b08:	400005b7          	lui	a1,0x40000
    4b0c:	00001637          	lui	a2,0x1
    4b10:	40c40633          	sub	a2,s0,a2
    4b14:	38a63023          	sd	a0,896(a2) # 1380 <.LBB78_4+0x1cc>
    4b18:	f9043603          	ld	a2,-112(s0)
    4b1c:	00055463          	bgez	a0,4b24 <.LBB78_204>
    4b20:	c00005b7          	lui	a1,0xc0000

0000000000004b24 <.LBB78_204>:
    4b24:	f8c43823          	sd	a2,-112(s0)
    4b28:	00001537          	lui	a0,0x1
    4b2c:	40a40533          	sub	a0,s0,a0
    4b30:	36b53c23          	sd	a1,888(a0) # 1378 <.LBB78_4+0x1c4>
    4b34:	9a043503          	ld	a0,-1632(s0)
    4b38:	e5843583          	ld	a1,-424(s0)
    4b3c:	00a58533          	add	a0,a1,a0
    4b40:	e6043583          	ld	a1,-416(s0)
    4b44:	40d585bb          	subw	a1,a1,a3
    4b48:	00b5053b          	addw	a0,a0,a1
    4b4c:	400005b7          	lui	a1,0x40000
    4b50:	00001637          	lui	a2,0x1
    4b54:	40c40633          	sub	a2,s0,a2
    4b58:	38a63823          	sd	a0,912(a2) # 1390 <.LBB78_4+0x1dc>
    4b5c:	f9043603          	ld	a2,-112(s0)
    4b60:	00055463          	bgez	a0,4b68 <.LBB78_206>
    4b64:	c00005b7          	lui	a1,0xc0000

0000000000004b68 <.LBB78_206>:
    4b68:	f8c43823          	sd	a2,-112(s0)
    4b6c:	00001537          	lui	a0,0x1
    4b70:	40a40533          	sub	a0,s0,a0
    4b74:	38b53423          	sd	a1,904(a0) # 1388 <.LBB78_4+0x1d4>
    4b78:	9a843503          	ld	a0,-1624(s0)
    4b7c:	e4843583          	ld	a1,-440(s0)
    4b80:	00a58533          	add	a0,a1,a0
    4b84:	e5043583          	ld	a1,-432(s0)
    4b88:	40d585bb          	subw	a1,a1,a3
    4b8c:	00b5053b          	addw	a0,a0,a1
    4b90:	400005b7          	lui	a1,0x40000
    4b94:	00001637          	lui	a2,0x1
    4b98:	40c40633          	sub	a2,s0,a2
    4b9c:	3aa63023          	sd	a0,928(a2) # 13a0 <.LBB78_4+0x1ec>
    4ba0:	f9043603          	ld	a2,-112(s0)
    4ba4:	00055463          	bgez	a0,4bac <.LBB78_208>
    4ba8:	c00005b7          	lui	a1,0xc0000

0000000000004bac <.LBB78_208>:
    4bac:	f8c43823          	sd	a2,-112(s0)
    4bb0:	00001537          	lui	a0,0x1
    4bb4:	40a40533          	sub	a0,s0,a0
    4bb8:	38b53c23          	sd	a1,920(a0) # 1398 <.LBB78_4+0x1e4>
    4bbc:	9b043503          	ld	a0,-1616(s0)
    4bc0:	000015b7          	lui	a1,0x1
    4bc4:	40b405b3          	sub	a1,s0,a1
    4bc8:	6c05b583          	ld	a1,1728(a1) # 16c0 <.LBB78_4+0x50c>
    4bcc:	00a58533          	add	a0,a1,a0
    4bd0:	000015b7          	lui	a1,0x1
    4bd4:	40b405b3          	sub	a1,s0,a1
    4bd8:	6c85b583          	ld	a1,1736(a1) # 16c8 <.LBB78_4+0x514>
    4bdc:	40d585bb          	subw	a1,a1,a3
    4be0:	00b5053b          	addw	a0,a0,a1
    4be4:	400005b7          	lui	a1,0x40000
    4be8:	00001637          	lui	a2,0x1
    4bec:	40c40633          	sub	a2,s0,a2
    4bf0:	3aa63c23          	sd	a0,952(a2) # 13b8 <.LBB78_4+0x204>
    4bf4:	f9043603          	ld	a2,-112(s0)
    4bf8:	00055463          	bgez	a0,4c00 <.LBB78_210>
    4bfc:	c00005b7          	lui	a1,0xc0000

0000000000004c00 <.LBB78_210>:
    4c00:	f8c43823          	sd	a2,-112(s0)
    4c04:	00001537          	lui	a0,0x1
    4c08:	40a40533          	sub	a0,s0,a0
    4c0c:	3ab53823          	sd	a1,944(a0) # 13b0 <.LBB78_4+0x1fc>
    4c10:	9b843503          	ld	a0,-1608(s0)
    4c14:	000015b7          	lui	a1,0x1
    4c18:	40b405b3          	sub	a1,s0,a1
    4c1c:	6a85b583          	ld	a1,1704(a1) # 16a8 <.LBB78_4+0x4f4>
    4c20:	00a58533          	add	a0,a1,a0
    4c24:	000015b7          	lui	a1,0x1
    4c28:	40b405b3          	sub	a1,s0,a1
    4c2c:	6b85b583          	ld	a1,1720(a1) # 16b8 <.LBB78_4+0x504>
    4c30:	40d585bb          	subw	a1,a1,a3
    4c34:	00b5053b          	addw	a0,a0,a1
    4c38:	400005b7          	lui	a1,0x40000
    4c3c:	00001637          	lui	a2,0x1
    4c40:	40c40633          	sub	a2,s0,a2
    4c44:	3ca63423          	sd	a0,968(a2) # 13c8 <.LBB78_4+0x214>
    4c48:	f9043603          	ld	a2,-112(s0)
    4c4c:	00055463          	bgez	a0,4c54 <.LBB78_212>
    4c50:	c00005b7          	lui	a1,0xc0000

0000000000004c54 <.LBB78_212>:
    4c54:	f8c43823          	sd	a2,-112(s0)
    4c58:	00001537          	lui	a0,0x1
    4c5c:	40a40533          	sub	a0,s0,a0
    4c60:	3cb53023          	sd	a1,960(a0) # 13c0 <.LBB78_4+0x20c>
    4c64:	9c043503          	ld	a0,-1600(s0)
    4c68:	000015b7          	lui	a1,0x1
    4c6c:	40b405b3          	sub	a1,s0,a1
    4c70:	6985b583          	ld	a1,1688(a1) # 1698 <.LBB78_4+0x4e4>
    4c74:	00a58533          	add	a0,a1,a0
    4c78:	000015b7          	lui	a1,0x1
    4c7c:	40b405b3          	sub	a1,s0,a1
    4c80:	6a05b583          	ld	a1,1696(a1) # 16a0 <.LBB78_4+0x4ec>
    4c84:	40d585bb          	subw	a1,a1,a3
    4c88:	00b5053b          	addw	a0,a0,a1
    4c8c:	400005b7          	lui	a1,0x40000
    4c90:	00001637          	lui	a2,0x1
    4c94:	40c40633          	sub	a2,s0,a2
    4c98:	3ca63c23          	sd	a0,984(a2) # 13d8 <.LBB78_4+0x224>
    4c9c:	f9043603          	ld	a2,-112(s0)
    4ca0:	00055463          	bgez	a0,4ca8 <.LBB78_214>
    4ca4:	c00005b7          	lui	a1,0xc0000

0000000000004ca8 <.LBB78_214>:
    4ca8:	f8c43823          	sd	a2,-112(s0)
    4cac:	00001537          	lui	a0,0x1
    4cb0:	40a40533          	sub	a0,s0,a0
    4cb4:	3cb53823          	sd	a1,976(a0) # 13d0 <.LBB78_4+0x21c>
    4cb8:	9c843503          	ld	a0,-1592(s0)
    4cbc:	000015b7          	lui	a1,0x1
    4cc0:	40b405b3          	sub	a1,s0,a1
    4cc4:	6d05b583          	ld	a1,1744(a1) # 16d0 <.LBB78_4+0x51c>
    4cc8:	00a58533          	add	a0,a1,a0
    4ccc:	000015b7          	lui	a1,0x1
    4cd0:	40b405b3          	sub	a1,s0,a1
    4cd4:	6d85b583          	ld	a1,1752(a1) # 16d8 <.LBB78_4+0x524>
    4cd8:	40d585bb          	subw	a1,a1,a3
    4cdc:	00b5053b          	addw	a0,a0,a1
    4ce0:	400005b7          	lui	a1,0x40000
    4ce4:	00001637          	lui	a2,0x1
    4ce8:	40c40633          	sub	a2,s0,a2
    4cec:	3ea63823          	sd	a0,1008(a2) # 13f0 <.LBB78_4+0x23c>
    4cf0:	f9043603          	ld	a2,-112(s0)
    4cf4:	00055463          	bgez	a0,4cfc <.LBB78_216>
    4cf8:	c00005b7          	lui	a1,0xc0000

0000000000004cfc <.LBB78_216>:
    4cfc:	f8c43823          	sd	a2,-112(s0)
    4d00:	00001537          	lui	a0,0x1
    4d04:	40a40533          	sub	a0,s0,a0
    4d08:	3eb53423          	sd	a1,1000(a0) # 13e8 <.LBB78_4+0x234>
    4d0c:	9d043503          	ld	a0,-1584(s0)
    4d10:	000015b7          	lui	a1,0x1
    4d14:	40b405b3          	sub	a1,s0,a1
    4d18:	6b05b583          	ld	a1,1712(a1) # 16b0 <.LBB78_4+0x4fc>
    4d1c:	00a58533          	add	a0,a1,a0
    4d20:	eb843583          	ld	a1,-328(s0)
    4d24:	40d585bb          	subw	a1,a1,a3
    4d28:	00b5053b          	addw	a0,a0,a1
    4d2c:	400005b7          	lui	a1,0x40000
    4d30:	00001637          	lui	a2,0x1
    4d34:	40c40633          	sub	a2,s0,a2
    4d38:	40a63023          	sd	a0,1024(a2) # 1400 <.LBB78_4+0x24c>
    4d3c:	f9043603          	ld	a2,-112(s0)
    4d40:	00055463          	bgez	a0,4d48 <.LBB78_218>
    4d44:	c00005b7          	lui	a1,0xc0000

0000000000004d48 <.LBB78_218>:
    4d48:	f8c43823          	sd	a2,-112(s0)
    4d4c:	00001537          	lui	a0,0x1
    4d50:	40a40533          	sub	a0,s0,a0
    4d54:	3eb53c23          	sd	a1,1016(a0) # 13f8 <.LBB78_4+0x244>
    4d58:	9d843503          	ld	a0,-1576(s0)
    4d5c:	000015b7          	lui	a1,0x1
    4d60:	40b405b3          	sub	a1,s0,a1
    4d64:	6e05b583          	ld	a1,1760(a1) # 16e0 <.LBB78_4+0x52c>
    4d68:	00a58533          	add	a0,a1,a0
    4d6c:	e9843583          	ld	a1,-360(s0)
    4d70:	40d585bb          	subw	a1,a1,a3
    4d74:	00b5053b          	addw	a0,a0,a1
    4d78:	400005b7          	lui	a1,0x40000
    4d7c:	00001637          	lui	a2,0x1
    4d80:	40c40633          	sub	a2,s0,a2
    4d84:	40a63c23          	sd	a0,1048(a2) # 1418 <.LBB78_4+0x264>
    4d88:	f9043603          	ld	a2,-112(s0)
    4d8c:	00055463          	bgez	a0,4d94 <.LBB78_220>
    4d90:	c00005b7          	lui	a1,0xc0000

0000000000004d94 <.LBB78_220>:
    4d94:	f8c43823          	sd	a2,-112(s0)
    4d98:	00001537          	lui	a0,0x1
    4d9c:	40a40533          	sub	a0,s0,a0
    4da0:	40b53423          	sd	a1,1032(a0) # 1408 <.LBB78_4+0x254>
    4da4:	9e043503          	ld	a0,-1568(s0)
    4da8:	000015b7          	lui	a1,0x1
    4dac:	40b405b3          	sub	a1,s0,a1
    4db0:	6e85b583          	ld	a1,1768(a1) # 16e8 <.LBB78_4+0x534>
    4db4:	00a58533          	add	a0,a1,a0
    4db8:	ea043583          	ld	a1,-352(s0)
    4dbc:	40d585bb          	subw	a1,a1,a3
    4dc0:	00b5053b          	addw	a0,a0,a1
    4dc4:	400005b7          	lui	a1,0x40000
    4dc8:	00001637          	lui	a2,0x1
    4dcc:	40c40633          	sub	a2,s0,a2
    4dd0:	42a63423          	sd	a0,1064(a2) # 1428 <.LBB78_4+0x274>
    4dd4:	f9043603          	ld	a2,-112(s0)
    4dd8:	00055463          	bgez	a0,4de0 <.LBB78_222>
    4ddc:	c00005b7          	lui	a1,0xc0000

0000000000004de0 <.LBB78_222>:
    4de0:	f8c43823          	sd	a2,-112(s0)
    4de4:	00001537          	lui	a0,0x1
    4de8:	40a40533          	sub	a0,s0,a0
    4dec:	42b53023          	sd	a1,1056(a0) # 1420 <.LBB78_4+0x26c>
    4df0:	9e843503          	ld	a0,-1560(s0)
    4df4:	00a08533          	add	a0,ra,a0
    4df8:	ea843583          	ld	a1,-344(s0)
    4dfc:	40d585bb          	subw	a1,a1,a3
    4e00:	00b5053b          	addw	a0,a0,a1
    4e04:	400005b7          	lui	a1,0x40000
    4e08:	00001637          	lui	a2,0x1
    4e0c:	40c40633          	sub	a2,s0,a2
    4e10:	42a63c23          	sd	a0,1080(a2) # 1438 <.LBB78_4+0x284>
    4e14:	f9043603          	ld	a2,-112(s0)
    4e18:	00055463          	bgez	a0,4e20 <.LBB78_224>
    4e1c:	c00005b7          	lui	a1,0xc0000

0000000000004e20 <.LBB78_224>:
    4e20:	f8c43823          	sd	a2,-112(s0)
    4e24:	00001537          	lui	a0,0x1
    4e28:	40a40533          	sub	a0,s0,a0
    4e2c:	42b53823          	sd	a1,1072(a0) # 1430 <.LBB78_4+0x27c>
    4e30:	9f043503          	ld	a0,-1552(s0)
    4e34:	00ad8533          	add	a0,s11,a0
    4e38:	eb043583          	ld	a1,-336(s0)
    4e3c:	40d585bb          	subw	a1,a1,a3
    4e40:	00b5053b          	addw	a0,a0,a1
    4e44:	400005b7          	lui	a1,0x40000
    4e48:	00001637          	lui	a2,0x1
    4e4c:	40c40633          	sub	a2,s0,a2
    4e50:	44a63823          	sd	a0,1104(a2) # 1450 <.LBB78_4+0x29c>
    4e54:	f9043603          	ld	a2,-112(s0)
    4e58:	00055463          	bgez	a0,4e60 <.LBB78_226>
    4e5c:	c00005b7          	lui	a1,0xc0000

0000000000004e60 <.LBB78_226>:
    4e60:	f8c43823          	sd	a2,-112(s0)
    4e64:	00001537          	lui	a0,0x1
    4e68:	40a40533          	sub	a0,s0,a0
    4e6c:	44b53423          	sd	a1,1096(a0) # 1448 <.LBB78_4+0x294>
    4e70:	9f843503          	ld	a0,-1544(s0)
    4e74:	00ad0533          	add	a0,s10,a0
    4e78:	ec043583          	ld	a1,-320(s0)
    4e7c:	40d585bb          	subw	a1,a1,a3
    4e80:	00b5053b          	addw	a0,a0,a1
    4e84:	400005b7          	lui	a1,0x40000
    4e88:	00001637          	lui	a2,0x1
    4e8c:	40c40633          	sub	a2,s0,a2
    4e90:	46a63023          	sd	a0,1120(a2) # 1460 <.LBB78_4+0x2ac>
    4e94:	f9043603          	ld	a2,-112(s0)
    4e98:	00055463          	bgez	a0,4ea0 <.LBB78_228>
    4e9c:	c00005b7          	lui	a1,0xc0000

0000000000004ea0 <.LBB78_228>:
    4ea0:	f8c43823          	sd	a2,-112(s0)
    4ea4:	00001537          	lui	a0,0x1
    4ea8:	40a40533          	sub	a0,s0,a0
    4eac:	44b53c23          	sd	a1,1112(a0) # 1458 <.LBB78_4+0x2a4>
    4eb0:	a0043503          	ld	a0,-1536(s0)
    4eb4:	00ac8533          	add	a0,s9,a0
    4eb8:	ec843583          	ld	a1,-312(s0)
    4ebc:	40d585bb          	subw	a1,a1,a3
    4ec0:	00b5053b          	addw	a0,a0,a1
    4ec4:	400005b7          	lui	a1,0x40000
    4ec8:	00001637          	lui	a2,0x1
    4ecc:	40c40633          	sub	a2,s0,a2
    4ed0:	46a63823          	sd	a0,1136(a2) # 1470 <.LBB78_4+0x2bc>
    4ed4:	f9043603          	ld	a2,-112(s0)
    4ed8:	00055463          	bgez	a0,4ee0 <.LBB78_230>
    4edc:	c00005b7          	lui	a1,0xc0000

0000000000004ee0 <.LBB78_230>:
    4ee0:	f8c43823          	sd	a2,-112(s0)
    4ee4:	00001537          	lui	a0,0x1
    4ee8:	40a40533          	sub	a0,s0,a0
    4eec:	46b53423          	sd	a1,1128(a0) # 1468 <.LBB78_4+0x2b4>
    4ef0:	a0843503          	ld	a0,-1528(s0)
    4ef4:	000015b7          	lui	a1,0x1
    4ef8:	40b405b3          	sub	a1,s0,a1
    4efc:	7105b583          	ld	a1,1808(a1) # 1710 <.LBB78_4+0x55c>
    4f00:	00a58533          	add	a0,a1,a0
    4f04:	f1043583          	ld	a1,-240(s0)
    4f08:	40d585bb          	subw	a1,a1,a3
    4f0c:	00b5053b          	addw	a0,a0,a1
    4f10:	400005b7          	lui	a1,0x40000
    4f14:	00001637          	lui	a2,0x1
    4f18:	40c40633          	sub	a2,s0,a2
    4f1c:	48a63023          	sd	a0,1152(a2) # 1480 <.LBB78_4+0x2cc>
    4f20:	f9043603          	ld	a2,-112(s0)
    4f24:	00055463          	bgez	a0,4f2c <.LBB78_232>
    4f28:	c00005b7          	lui	a1,0xc0000

0000000000004f2c <.LBB78_232>:
    4f2c:	f8c43823          	sd	a2,-112(s0)
    4f30:	00001537          	lui	a0,0x1
    4f34:	40a40533          	sub	a0,s0,a0
    4f38:	46b53c23          	sd	a1,1144(a0) # 1478 <.LBB78_4+0x2c4>
    4f3c:	a1043503          	ld	a0,-1520(s0)
    4f40:	000015b7          	lui	a1,0x1
    4f44:	40b405b3          	sub	a1,s0,a1
    4f48:	7185b583          	ld	a1,1816(a1) # 1718 <.LBB78_4+0x564>
    4f4c:	00a58533          	add	a0,a1,a0
    4f50:	f1843583          	ld	a1,-232(s0)
    4f54:	40d585bb          	subw	a1,a1,a3
    4f58:	00b5053b          	addw	a0,a0,a1
    4f5c:	400005b7          	lui	a1,0x40000
    4f60:	00001637          	lui	a2,0x1
    4f64:	40c40633          	sub	a2,s0,a2
    4f68:	48a63823          	sd	a0,1168(a2) # 1490 <.LBB78_4+0x2dc>
    4f6c:	f9043603          	ld	a2,-112(s0)
    4f70:	00055463          	bgez	a0,4f78 <.LBB78_234>
    4f74:	c00005b7          	lui	a1,0xc0000

0000000000004f78 <.LBB78_234>:
    4f78:	f8c43823          	sd	a2,-112(s0)
    4f7c:	00001537          	lui	a0,0x1
    4f80:	40a40533          	sub	a0,s0,a0
    4f84:	48b53423          	sd	a1,1160(a0) # 1488 <.LBB78_4+0x2d4>
    4f88:	a1843503          	ld	a0,-1512(s0)
    4f8c:	00ab0533          	add	a0,s6,a0
    4f90:	f2043583          	ld	a1,-224(s0)
    4f94:	40d585bb          	subw	a1,a1,a3
    4f98:	00b5053b          	addw	a0,a0,a1
    4f9c:	400005b7          	lui	a1,0x40000
    4fa0:	00001637          	lui	a2,0x1
    4fa4:	40c40633          	sub	a2,s0,a2
    4fa8:	4aa63023          	sd	a0,1184(a2) # 14a0 <.LBB78_4+0x2ec>
    4fac:	f9043603          	ld	a2,-112(s0)
    4fb0:	00055463          	bgez	a0,4fb8 <.LBB78_236>
    4fb4:	c00005b7          	lui	a1,0xc0000

0000000000004fb8 <.LBB78_236>:
    4fb8:	f8c43823          	sd	a2,-112(s0)
    4fbc:	00001537          	lui	a0,0x1
    4fc0:	40a40533          	sub	a0,s0,a0
    4fc4:	48b53c23          	sd	a1,1176(a0) # 1498 <.LBB78_4+0x2e4>
    4fc8:	a2043503          	ld	a0,-1504(s0)
    4fcc:	00aa8533          	add	a0,s5,a0
    4fd0:	f2843583          	ld	a1,-216(s0)
    4fd4:	40d585bb          	subw	a1,a1,a3
    4fd8:	00b5053b          	addw	a0,a0,a1
    4fdc:	400005b7          	lui	a1,0x40000
    4fe0:	00001637          	lui	a2,0x1
    4fe4:	40c40633          	sub	a2,s0,a2
    4fe8:	4aa63823          	sd	a0,1200(a2) # 14b0 <.LBB78_4+0x2fc>
    4fec:	f9043603          	ld	a2,-112(s0)
    4ff0:	00055463          	bgez	a0,4ff8 <.LBB78_238>
    4ff4:	c00005b7          	lui	a1,0xc0000

0000000000004ff8 <.LBB78_238>:
    4ff8:	f8c43823          	sd	a2,-112(s0)
    4ffc:	00001537          	lui	a0,0x1
    5000:	40a40533          	sub	a0,s0,a0
    5004:	4ab53423          	sd	a1,1192(a0) # 14a8 <.LBB78_4+0x2f4>
    5008:	a2843503          	ld	a0,-1496(s0)
    500c:	00aa0533          	add	a0,s4,a0
    5010:	f3043583          	ld	a1,-208(s0)
    5014:	40d585bb          	subw	a1,a1,a3
    5018:	00b5053b          	addw	a0,a0,a1
    501c:	400005b7          	lui	a1,0x40000
    5020:	00001637          	lui	a2,0x1
    5024:	40c40633          	sub	a2,s0,a2
    5028:	4ca63023          	sd	a0,1216(a2) # 14c0 <.LBB78_4+0x30c>
    502c:	f9043603          	ld	a2,-112(s0)
    5030:	00055463          	bgez	a0,5038 <.LBB78_240>
    5034:	c00005b7          	lui	a1,0xc0000

0000000000005038 <.LBB78_240>:
    5038:	f8c43823          	sd	a2,-112(s0)
    503c:	00001537          	lui	a0,0x1
    5040:	40a40533          	sub	a0,s0,a0
    5044:	4ab53c23          	sd	a1,1208(a0) # 14b8 <.LBB78_4+0x304>
    5048:	a3043503          	ld	a0,-1488(s0)
    504c:	00a98533          	add	a0,s3,a0
    5050:	f3843583          	ld	a1,-200(s0)
    5054:	40d585bb          	subw	a1,a1,a3
    5058:	00b5053b          	addw	a0,a0,a1
    505c:	400005b7          	lui	a1,0x40000
    5060:	00001637          	lui	a2,0x1
    5064:	40c40633          	sub	a2,s0,a2
    5068:	4ca63823          	sd	a0,1232(a2) # 14d0 <.LBB78_4+0x31c>
    506c:	f9043603          	ld	a2,-112(s0)
    5070:	00055463          	bgez	a0,5078 <.LBB78_242>
    5074:	c00005b7          	lui	a1,0xc0000

0000000000005078 <.LBB78_242>:
    5078:	f8c43823          	sd	a2,-112(s0)
    507c:	00001537          	lui	a0,0x1
    5080:	40a40533          	sub	a0,s0,a0
    5084:	4cb53423          	sd	a1,1224(a0) # 14c8 <.LBB78_4+0x314>
    5088:	a3843503          	ld	a0,-1480(s0)
    508c:	00a90533          	add	a0,s2,a0
    5090:	f4043583          	ld	a1,-192(s0)
    5094:	40d585bb          	subw	a1,a1,a3
    5098:	00b5053b          	addw	a0,a0,a1
    509c:	400005b7          	lui	a1,0x40000
    50a0:	00001637          	lui	a2,0x1
    50a4:	40c40633          	sub	a2,s0,a2
    50a8:	4ea63023          	sd	a0,1248(a2) # 14e0 <.LBB78_4+0x32c>
    50ac:	f9043603          	ld	a2,-112(s0)
    50b0:	00055463          	bgez	a0,50b8 <.LBB78_244>
    50b4:	c00005b7          	lui	a1,0xc0000

00000000000050b8 <.LBB78_244>:
    50b8:	f8c43823          	sd	a2,-112(s0)
    50bc:	00001537          	lui	a0,0x1
    50c0:	40a40533          	sub	a0,s0,a0
    50c4:	4cb53c23          	sd	a1,1240(a0) # 14d8 <.LBB78_4+0x324>
    50c8:	a4043503          	ld	a0,-1472(s0)
    50cc:	00a48533          	add	a0,s1,a0
    50d0:	f4843583          	ld	a1,-184(s0)
    50d4:	40d585bb          	subw	a1,a1,a3
    50d8:	00b5053b          	addw	a0,a0,a1
    50dc:	400005b7          	lui	a1,0x40000
    50e0:	00001637          	lui	a2,0x1
    50e4:	40c40633          	sub	a2,s0,a2
    50e8:	4ea63823          	sd	a0,1264(a2) # 14f0 <.LBB78_4+0x33c>
    50ec:	f9043603          	ld	a2,-112(s0)
    50f0:	00055463          	bgez	a0,50f8 <.LBB78_246>
    50f4:	c00005b7          	lui	a1,0xc0000

00000000000050f8 <.LBB78_246>:
    50f8:	f8c43823          	sd	a2,-112(s0)
    50fc:	00001537          	lui	a0,0x1
    5100:	40a40533          	sub	a0,s0,a0
    5104:	4eb53423          	sd	a1,1256(a0) # 14e8 <.LBB78_4+0x334>
    5108:	a4843503          	ld	a0,-1464(s0)
    510c:	00af8533          	add	a0,t6,a0
    5110:	f5043583          	ld	a1,-176(s0)
    5114:	40d585bb          	subw	a1,a1,a3
    5118:	00b5053b          	addw	a0,a0,a1
    511c:	400005b7          	lui	a1,0x40000
    5120:	00001637          	lui	a2,0x1
    5124:	40c40633          	sub	a2,s0,a2
    5128:	50a63023          	sd	a0,1280(a2) # 1500 <.LBB78_4+0x34c>
    512c:	f9043603          	ld	a2,-112(s0)
    5130:	00055463          	bgez	a0,5138 <.LBB78_248>
    5134:	c00005b7          	lui	a1,0xc0000

0000000000005138 <.LBB78_248>:
    5138:	f8c43823          	sd	a2,-112(s0)
    513c:	00001537          	lui	a0,0x1
    5140:	40a40533          	sub	a0,s0,a0
    5144:	4eb53c23          	sd	a1,1272(a0) # 14f8 <.LBB78_4+0x344>
    5148:	a5043503          	ld	a0,-1456(s0)
    514c:	00af0533          	add	a0,t5,a0
    5150:	f5843583          	ld	a1,-168(s0)
    5154:	40d585bb          	subw	a1,a1,a3
    5158:	00b5053b          	addw	a0,a0,a1
    515c:	400005b7          	lui	a1,0x40000
    5160:	00001637          	lui	a2,0x1
    5164:	40c40633          	sub	a2,s0,a2
    5168:	50a63823          	sd	a0,1296(a2) # 1510 <.LBB78_4+0x35c>
    516c:	f9043603          	ld	a2,-112(s0)
    5170:	00055463          	bgez	a0,5178 <.LBB78_250>
    5174:	c00005b7          	lui	a1,0xc0000

0000000000005178 <.LBB78_250>:
    5178:	f8c43823          	sd	a2,-112(s0)
    517c:	00001537          	lui	a0,0x1
    5180:	40a40533          	sub	a0,s0,a0
    5184:	50b53423          	sd	a1,1288(a0) # 1508 <.LBB78_4+0x354>
    5188:	a5843503          	ld	a0,-1448(s0)
    518c:	00ae8533          	add	a0,t4,a0
    5190:	f6043583          	ld	a1,-160(s0)
    5194:	40d585bb          	subw	a1,a1,a3
    5198:	00b5053b          	addw	a0,a0,a1
    519c:	400005b7          	lui	a1,0x40000
    51a0:	00001637          	lui	a2,0x1
    51a4:	40c40633          	sub	a2,s0,a2
    51a8:	52a63023          	sd	a0,1312(a2) # 1520 <.LBB78_4+0x36c>
    51ac:	f9043603          	ld	a2,-112(s0)
    51b0:	00055463          	bgez	a0,51b8 <.LBB78_252>
    51b4:	c00005b7          	lui	a1,0xc0000

00000000000051b8 <.LBB78_252>:
    51b8:	f8c43823          	sd	a2,-112(s0)
    51bc:	00001537          	lui	a0,0x1
    51c0:	40a40533          	sub	a0,s0,a0
    51c4:	50b53c23          	sd	a1,1304(a0) # 1518 <.LBB78_4+0x364>
    51c8:	a6043503          	ld	a0,-1440(s0)
    51cc:	00ae0533          	add	a0,t3,a0
    51d0:	f6843583          	ld	a1,-152(s0)
    51d4:	40d585bb          	subw	a1,a1,a3
    51d8:	00b5053b          	addw	a0,a0,a1
    51dc:	400005b7          	lui	a1,0x40000
    51e0:	00001637          	lui	a2,0x1
    51e4:	40c40633          	sub	a2,s0,a2
    51e8:	52a63823          	sd	a0,1328(a2) # 1530 <.LBB78_4+0x37c>
    51ec:	f9043603          	ld	a2,-112(s0)
    51f0:	00055463          	bgez	a0,51f8 <.LBB78_254>
    51f4:	c00005b7          	lui	a1,0xc0000

00000000000051f8 <.LBB78_254>:
    51f8:	f8c43823          	sd	a2,-112(s0)
    51fc:	00001537          	lui	a0,0x1
    5200:	40a40533          	sub	a0,s0,a0
    5204:	52b53423          	sd	a1,1320(a0) # 1528 <.LBB78_4+0x374>
    5208:	a6843503          	ld	a0,-1432(s0)
    520c:	000015b7          	lui	a1,0x1
    5210:	40b405b3          	sub	a1,s0,a1
    5214:	7705b583          	ld	a1,1904(a1) # 1770 <.LBB78_5+0x24>
    5218:	00a58533          	add	a0,a1,a0
    521c:	f7043583          	ld	a1,-144(s0)
    5220:	40d585bb          	subw	a1,a1,a3
    5224:	00b5053b          	addw	a0,a0,a1
    5228:	400005b7          	lui	a1,0x40000
    522c:	00001637          	lui	a2,0x1
    5230:	40c40633          	sub	a2,s0,a2
    5234:	54a63023          	sd	a0,1344(a2) # 1540 <.LBB78_4+0x38c>
    5238:	f9043603          	ld	a2,-112(s0)
    523c:	00055463          	bgez	a0,5244 <.LBB78_256>
    5240:	c00005b7          	lui	a1,0xc0000

0000000000005244 <.LBB78_256>:
    5244:	f8c43823          	sd	a2,-112(s0)
    5248:	00001537          	lui	a0,0x1
    524c:	40a40533          	sub	a0,s0,a0
    5250:	52b53c23          	sd	a1,1336(a0) # 1538 <.LBB78_4+0x384>
    5254:	a7043503          	ld	a0,-1424(s0)
    5258:	00a30533          	add	a0,t1,a0
    525c:	f7843583          	ld	a1,-136(s0)
    5260:	40d585bb          	subw	a1,a1,a3
    5264:	00b5053b          	addw	a0,a0,a1
    5268:	400005b7          	lui	a1,0x40000
    526c:	00001637          	lui	a2,0x1
    5270:	40c40633          	sub	a2,s0,a2
    5274:	54a63823          	sd	a0,1360(a2) # 1550 <.LBB78_4+0x39c>
    5278:	f9043603          	ld	a2,-112(s0)
    527c:	00055463          	bgez	a0,5284 <.LBB78_258>
    5280:	c00005b7          	lui	a1,0xc0000

0000000000005284 <.LBB78_258>:
    5284:	f8c43823          	sd	a2,-112(s0)
    5288:	00001537          	lui	a0,0x1
    528c:	40a40533          	sub	a0,s0,a0
    5290:	54b53423          	sd	a1,1352(a0) # 1548 <.LBB78_4+0x394>
    5294:	a7843503          	ld	a0,-1416(s0)
    5298:	00a88533          	add	a0,a7,a0
    529c:	f8043583          	ld	a1,-128(s0)
    52a0:	40d585bb          	subw	a1,a1,a3
