
code.o:     file format elf64-littleriscv


Disassembly of section .text.main_dispatch_7_depthwise_conv_2d_nhwc_hwc_1x112x112x32x3x3_i8xi8xi32:

0000000000000000 <main_dispatch_7_depthwise_conv_2d_nhwc_hwc_1x112x112x32x3x3_i8xi8xi32>:
   0:	e6010113          	addi	sp,sp,-416
   4:	18113c23          	sd	ra,408(sp)
   8:	18813823          	sd	s0,400(sp)
   c:	18913423          	sd	s1,392(sp)
  10:	19213023          	sd	s2,384(sp)
  14:	17313c23          	sd	s3,376(sp)
  18:	17413823          	sd	s4,368(sp)
  1c:	17513423          	sd	s5,360(sp)
  20:	17613023          	sd	s6,352(sp)
  24:	15713c23          	sd	s7,344(sp)
  28:	15813823          	sd	s8,336(sp)
  2c:	15913423          	sd	s9,328(sp)
  30:	15a13023          	sd	s10,320(sp)
  34:	13b13c23          	sd	s11,312(sp)
  38:	1a010413          	addi	s0,sp,416
  3c:	0205b503          	ld	a0,32(a1)
  40:	00000693          	li	a3,0
  44:	00053583          	ld	a1,0(a0)
  48:	00853603          	ld	a2,8(a0)
  4c:	01053503          	ld	a0,16(a0)
  50:	e6a43023          	sd	a0,-416(s0)
  54:	00234537          	lui	a0,0x234
  58:	de05051b          	addiw	a0,a0,-544 # 233de0 <.Lfunc_end80+0x20b418>
  5c:	00a58733          	add	a4,a1,a0
  60:	00010537          	lui	a0,0x10
  64:	a805051b          	addiw	a0,a0,-1408 # fa80 <.LBB60_1847>
  68:	00a60533          	add	a0,a2,a0
  6c:	e6a43c23          	sd	a0,-392(s0)

0000000000000070 <.LBB7_1>:
  70:	00000513          	li	a0,0
  74:	00b69593          	slli	a1,a3,0xb
  78:	e6d43823          	sd	a3,-400(s0)
  7c:	00e69613          	slli	a2,a3,0xe
  80:	40b60633          	sub	a2,a2,a1
  84:	e6043583          	ld	a1,-416(s0)
  88:	00c585b3          	add	a1,a1,a2
  8c:	e8b43023          	sd	a1,-384(s0)
  90:	e6e43423          	sd	a4,-408(s0)

0000000000000094 <.LBB7_2>:
  94:	00000593          	li	a1,0
  98:	e8a43423          	sd	a0,-376(s0)
  9c:	00751513          	slli	a0,a0,0x7
  a0:	e8043603          	ld	a2,-384(s0)
  a4:	00a60533          	add	a0,a2,a0
  a8:	08050613          	addi	a2,a0,128
  ac:	eac43423          	sd	a2,-344(s0)
  b0:	10050613          	addi	a2,a0,256
  b4:	eac43023          	sd	a2,-352(s0)
  b8:	eaa43823          	sd	a0,-336(s0)
  bc:	18050513          	addi	a0,a0,384
  c0:	e8a43c23          	sd	a0,-360(s0)
  c4:	e7843303          	ld	t1,-392(s0)
  c8:	e8e43823          	sd	a4,-368(s0)
  cc:	00070a93          	mv	s5,a4

00000000000000d0 <.LBB7_3>:
  d0:	00000f13          	li	t5,0
  d4:	00000c93          	li	s9,0
  d8:	00000a13          	li	s4,0
  dc:	00000493          	li	s1,0
  e0:	00000993          	li	s3,0
  e4:	00000893          	li	a7,0
  e8:	00000093          	li	ra,0
  ec:	00000e13          	li	t3,0
  f0:	00000713          	li	a4,0
  f4:	00000d93          	li	s11,0
  f8:	00000913          	li	s2,0
  fc:	00000b13          	li	s6,0
 100:	00000693          	li	a3,0
 104:	00000b93          	li	s7,0
 108:	00000c13          	li	s8,0
 10c:	00000793          	li	a5,0
 110:	eab43c23          	sd	a1,-328(s0)
 114:	ffd00513          	li	a0,-3
 118:	ec643423          	sd	t1,-312(s0)
 11c:	ed543023          	sd	s5,-320(s0)

0000000000000120 <.LBB7_4>:
 120:	f0f43823          	sd	a5,-240(s0)
 124:	f8a43823          	sd	a0,-112(s0)
 128:	fa2a8803          	lb	a6,-94(s5)
 12c:	00070d13          	mv	s10,a4
 130:	fa1a8703          	lb	a4,-95(s5)
 134:	00068293          	mv	t0,a3
 138:	fa0a8683          	lb	a3,-96(s5)
 13c:	fa3a8603          	lb	a2,-93(s5)
 140:	fc0a8503          	lb	a0,-64(s5)
 144:	fc1a8783          	lb	a5,-63(s5)
 148:	fc230f83          	lb	t6,-62(t1)
 14c:	fc2a8e83          	lb	t4,-62(s5)
 150:	fc3a8383          	lb	t2,-61(s5)
 154:	fc130583          	lb	a1,-63(t1)
 158:	030f8833          	mul	a6,t6,a6
 15c:	01480833          	add	a6,a6,s4
 160:	f9043423          	sd	a6,-120(s0)
 164:	fc030803          	lb	a6,-64(t1)
 168:	02e58733          	mul	a4,a1,a4
 16c:	01970733          	add	a4,a4,s9
 170:	f8e43023          	sd	a4,-128(s0)
 174:	fc330703          	lb	a4,-61(t1)
 178:	02d806b3          	mul	a3,a6,a3
 17c:	01e686b3          	add	a3,a3,t5
 180:	f6d43c23          	sd	a3,-136(s0)
 184:	fe0a8f03          	lb	t5,-32(s5)
 188:	02c70633          	mul	a2,a4,a2
 18c:	00960633          	add	a2,a2,s1
 190:	f6c43823          	sd	a2,-144(s0)
 194:	02a80633          	mul	a2,a6,a0
 198:	00050a13          	mv	s4,a0
 19c:	01360633          	add	a2,a2,s3
 1a0:	f6c43423          	sd	a2,-152(s0)
 1a4:	02f58633          	mul	a2,a1,a5
 1a8:	01160633          	add	a2,a2,a7
 1ac:	f6c43023          	sd	a2,-160(s0)
 1b0:	03df8533          	mul	a0,t6,t4
 1b4:	00150533          	add	a0,a0,ra
 1b8:	f4a43c23          	sd	a0,-168(s0)
 1bc:	02770533          	mul	a0,a4,t2
 1c0:	01c50533          	add	a0,a0,t3
 1c4:	f4a43823          	sd	a0,-176(s0)
 1c8:	fe1a8483          	lb	s1,-31(s5)
 1cc:	03e80533          	mul	a0,a6,t5
 1d0:	01a50533          	add	a0,a0,s10
 1d4:	f4a43423          	sd	a0,-184(s0)
 1d8:	fe2a8983          	lb	s3,-30(s5)
 1dc:	02958533          	mul	a0,a1,s1
 1e0:	01b50533          	add	a0,a0,s11
 1e4:	f4a43023          	sd	a0,-192(s0)
 1e8:	fe3a8603          	lb	a2,-29(s5)
 1ec:	033f8533          	mul	a0,t6,s3
 1f0:	01250533          	add	a0,a0,s2
 1f4:	f2a43c23          	sd	a0,-200(s0)
 1f8:	000a8903          	lb	s2,0(s5)
 1fc:	02c70533          	mul	a0,a4,a2
 200:	01650533          	add	a0,a0,s6
 204:	f2a43823          	sd	a0,-208(s0)
 208:	001a8503          	lb	a0,1(s5)
 20c:	032806b3          	mul	a3,a6,s2
 210:	005686b3          	add	a3,a3,t0
 214:	f2d43423          	sd	a3,-216(s0)
 218:	002a8e03          	lb	t3,2(s5)
 21c:	02a585b3          	mul	a1,a1,a0
 220:	017585b3          	add	a1,a1,s7
 224:	f2b43023          	sd	a1,-224(s0)
 228:	003a8683          	lb	a3,3(s5)
 22c:	03cf85b3          	mul	a1,t6,t3
 230:	fe330b03          	lb	s6,-29(t1)
 234:	018585b3          	add	a1,a1,s8
 238:	f0b43c23          	sd	a1,-232(s0)
 23c:	02d705b3          	mul	a1,a4,a3
 240:	f1043703          	ld	a4,-240(s0)
 244:	00e585b3          	add	a1,a1,a4
 248:	f0b43823          	sd	a1,-240(s0)
 24c:	027b05b3          	mul	a1,s6,t2
 250:	eeb43823          	sd	a1,-272(s0)
 254:	023a8703          	lb	a4,35(s5)
 258:	00330383          	lb	t2,3(t1)
 25c:	02cb05b3          	mul	a1,s6,a2
 260:	eeb43c23          	sd	a1,-264(s0)
 264:	02db05b3          	mul	a1,s6,a3
 268:	f0b43023          	sd	a1,-256(s0)
 26c:	02eb05b3          	mul	a1,s6,a4
 270:	f0b43423          	sd	a1,-248(s0)
 274:	02c385b3          	mul	a1,t2,a2
 278:	ecb43823          	sd	a1,-304(s0)
 27c:	043a8b83          	lb	s7,67(s5)
 280:	fe230c03          	lb	s8,-30(t1)
 284:	02d385b3          	mul	a1,t2,a3
 288:	ecb43c23          	sd	a1,-296(s0)
 28c:	02e385b3          	mul	a1,t2,a4
 290:	eeb43023          	sd	a1,-288(s0)
 294:	037385b3          	mul	a1,t2,s7
 298:	eeb43423          	sd	a1,-280(s0)
 29c:	03dc03b3          	mul	t2,s8,t4
 2a0:	022a8b83          	lb	s7,34(s5)
 2a4:	00230e83          	lb	t4,2(t1)
 2a8:	033c0fb3          	mul	t6,s8,s3
 2ac:	03cc0b33          	mul	s6,s8,t3
 2b0:	037c0c33          	mul	s8,s8,s7
 2b4:	033e89b3          	mul	s3,t4,s3
 2b8:	042a8c83          	lb	s9,66(s5)
 2bc:	fe130d03          	lb	s10,-31(t1)
 2c0:	03ce8e33          	mul	t3,t4,t3
 2c4:	037e8bb3          	mul	s7,t4,s7
 2c8:	039e8eb3          	mul	t4,t4,s9
 2cc:	02fd0cb3          	mul	s9,s10,a5
 2d0:	021a8d83          	lb	s11,33(s5)
 2d4:	00130083          	lb	ra,1(t1)
 2d8:	029d08b3          	mul	a7,s10,s1
 2dc:	02ad0833          	mul	a6,s10,a0
 2e0:	03bd0d33          	mul	s10,s10,s11
 2e4:	029084b3          	mul	s1,ra,s1
 2e8:	041a8283          	lb	t0,65(s5)
 2ec:	fe030783          	lb	a5,-32(t1)
 2f0:	02a08733          	mul	a4,ra,a0
 2f4:	03b08db3          	mul	s11,ra,s11
 2f8:	025082b3          	mul	t0,ra,t0
 2fc:	034780b3          	mul	ra,a5,s4
 300:	020a8503          	lb	a0,32(s5)
 304:	00030a03          	lb	s4,0(t1)
 308:	03e78633          	mul	a2,a5,t5
 30c:	032786b3          	mul	a3,a5,s2
 310:	02a787b3          	mul	a5,a5,a0
 314:	040a8583          	lb	a1,64(s5)
 318:	03ea0f33          	mul	t5,s4,t5
 31c:	032a0933          	mul	s2,s4,s2
 320:	02aa0533          	mul	a0,s4,a0
 324:	02ba05b3          	mul	a1,s4,a1
 328:	013383b3          	add	t2,t2,s3
 32c:	f8843a03          	ld	s4,-120(s0)
 330:	007a0a33          	add	s4,s4,t2
 334:	009c84b3          	add	s1,s9,s1
 338:	f8043c83          	ld	s9,-128(s0)
 33c:	009c8cb3          	add	s9,s9,s1
 340:	01e08f33          	add	t5,ra,t5
 344:	f7843383          	ld	t2,-136(s0)
 348:	01e38f33          	add	t5,t2,t5
 34c:	ef043483          	ld	s1,-272(s0)
 350:	ed043383          	ld	t2,-304(s0)
 354:	007484b3          	add	s1,s1,t2
 358:	f7043383          	ld	t2,-144(s0)
 35c:	009384b3          	add	s1,t2,s1
 360:	01260633          	add	a2,a2,s2
 364:	f6843983          	ld	s3,-152(s0)
 368:	00c989b3          	add	s3,s3,a2
 36c:	00e88733          	add	a4,a7,a4
 370:	f6043883          	ld	a7,-160(s0)
 374:	00e888b3          	add	a7,a7,a4
 378:	01cf8e33          	add	t3,t6,t3
 37c:	f5843083          	ld	ra,-168(s0)
 380:	01c080b3          	add	ra,ra,t3
 384:	ef843e03          	ld	t3,-264(s0)
 388:	ed843603          	ld	a2,-296(s0)
 38c:	00ce0e33          	add	t3,t3,a2
 390:	f5043603          	ld	a2,-176(s0)
 394:	01c60e33          	add	t3,a2,t3
 398:	00a68533          	add	a0,a3,a0
 39c:	f4843703          	ld	a4,-184(s0)
 3a0:	00a70733          	add	a4,a4,a0
 3a4:	01b80833          	add	a6,a6,s11
 3a8:	f4043d83          	ld	s11,-192(s0)
 3ac:	010d8db3          	add	s11,s11,a6
 3b0:	017b0933          	add	s2,s6,s7
 3b4:	f3843503          	ld	a0,-200(s0)
 3b8:	01250933          	add	s2,a0,s2
 3bc:	f0043b03          	ld	s6,-256(s0)
 3c0:	ee043503          	ld	a0,-288(s0)
 3c4:	00ab0b33          	add	s6,s6,a0
 3c8:	f3043503          	ld	a0,-208(s0)
 3cc:	01650b33          	add	s6,a0,s6
 3d0:	00b785b3          	add	a1,a5,a1
 3d4:	f2843683          	ld	a3,-216(s0)
 3d8:	00b686b3          	add	a3,a3,a1
 3dc:	005d02b3          	add	t0,s10,t0
 3e0:	f2043b83          	ld	s7,-224(s0)
 3e4:	005b8bb3          	add	s7,s7,t0
 3e8:	01dc0eb3          	add	t4,s8,t4
 3ec:	f1843c03          	ld	s8,-232(s0)
 3f0:	01dc0c33          	add	s8,s8,t4
 3f4:	f0843503          	ld	a0,-248(s0)
 3f8:	ee843583          	ld	a1,-280(s0)
 3fc:	00b50533          	add	a0,a0,a1
 400:	f1043783          	ld	a5,-240(s0)
 404:	00a787b3          	add	a5,a5,a0
 408:	7ffa8513          	addi	a0,s5,2047
 40c:	64150a93          	addi	s5,a0,1601
 410:	f9043503          	ld	a0,-112(s0)
 414:	00150513          	addi	a0,a0,1
 418:	06030313          	addi	t1,t1,96
 41c:	d00512e3          	bnez	a0,120 <.LBB7_4>
 420:	eb843603          	ld	a2,-328(s0)
 424:	00261513          	slli	a0,a2,0x2
 428:	eb043583          	ld	a1,-336(s0)
 42c:	00a585b3          	add	a1,a1,a0
 430:	0145a423          	sw	s4,8(a1)
 434:	0195a223          	sw	s9,4(a1)
 438:	01e5a023          	sw	t5,0(a1)
 43c:	0095a623          	sw	s1,12(a1)
 440:	ea843583          	ld	a1,-344(s0)
 444:	00a585b3          	add	a1,a1,a0
 448:	0015a423          	sw	ra,8(a1)
 44c:	0115a223          	sw	a7,4(a1)
 450:	0135a023          	sw	s3,0(a1)
 454:	01c5a623          	sw	t3,12(a1)
 458:	ea043583          	ld	a1,-352(s0)
 45c:	00a585b3          	add	a1,a1,a0
 460:	0125a423          	sw	s2,8(a1)
 464:	01b5a223          	sw	s11,4(a1)
 468:	00e5a023          	sw	a4,0(a1)
 46c:	0165a623          	sw	s6,12(a1)
 470:	e9843583          	ld	a1,-360(s0)
 474:	00a58533          	add	a0,a1,a0
 478:	01852423          	sw	s8,8(a0)
 47c:	01752223          	sw	s7,4(a0)
 480:	00d52023          	sw	a3,0(a0)
 484:	00f52623          	sw	a5,12(a0)
 488:	00460593          	addi	a1,a2,4
 48c:	ec043a83          	ld	s5,-320(s0)
 490:	004a8a93          	addi	s5,s5,4
 494:	ec843303          	ld	t1,-312(s0)
 498:	00430313          	addi	t1,t1,4
 49c:	01c00513          	li	a0,28
 4a0:	c2a668e3          	bltu	a2,a0,d0 <.LBB7_3>
 4a4:	e8843603          	ld	a2,-376(s0)
 4a8:	00460513          	addi	a0,a2,4
 4ac:	e9043703          	ld	a4,-368(s0)
 4b0:	08070713          	addi	a4,a4,128
 4b4:	06c00593          	li	a1,108
 4b8:	bcb66ee3          	bltu	a2,a1,94 <.LBB7_2>
 4bc:	e7043683          	ld	a3,-400(s0)
 4c0:	00168693          	addi	a3,a3,1
 4c4:	e6843503          	ld	a0,-408(s0)
 4c8:	7ff50513          	addi	a0,a0,2047
 4cc:	64150713          	addi	a4,a0,1601
 4d0:	07000513          	li	a0,112
 4d4:	b8a69ee3          	bne	a3,a0,70 <.LBB7_1>
 4d8:	00000513          	li	a0,0
 4dc:	19813083          	ld	ra,408(sp)
 4e0:	19013403          	ld	s0,400(sp)
 4e4:	18813483          	ld	s1,392(sp)
 4e8:	18013903          	ld	s2,384(sp)
 4ec:	17813983          	ld	s3,376(sp)
 4f0:	17013a03          	ld	s4,368(sp)
 4f4:	16813a83          	ld	s5,360(sp)
 4f8:	16013b03          	ld	s6,352(sp)
 4fc:	15813b83          	ld	s7,344(sp)
 500:	15013c03          	ld	s8,336(sp)
 504:	14813c83          	ld	s9,328(sp)
 508:	14013d03          	ld	s10,320(sp)
 50c:	13813d83          	ld	s11,312(sp)
 510:	1a010113          	addi	sp,sp,416
 514:	00008067          	ret
