
code.o:     file format elf64-littleriscv


Disassembly of section .text.main_dispatch_105_matmul_196x96x576_i8xi8xi32:

0000000000000000 <main_dispatch_105_matmul_196x96x576_i8xi8xi32>:
       0:	81010113          	addi	sp,sp,-2032
       4:	7e113423          	sd	ra,2024(sp)
       8:	7e813023          	sd	s0,2016(sp)
       c:	7c913c23          	sd	s1,2008(sp)
      10:	7d213823          	sd	s2,2000(sp)
      14:	7d313423          	sd	s3,1992(sp)
      18:	7d413023          	sd	s4,1984(sp)
      1c:	7b513c23          	sd	s5,1976(sp)
      20:	7b613823          	sd	s6,1968(sp)
      24:	7b713423          	sd	s7,1960(sp)
      28:	7b813023          	sd	s8,1952(sp)
      2c:	79913c23          	sd	s9,1944(sp)
      30:	79a13823          	sd	s10,1936(sp)
      34:	79b13423          	sd	s11,1928(sp)
      38:	7f010413          	addi	s0,sp,2032
      3c:	00002537          	lui	a0,0x2
      40:	8405051b          	addiw	a0,a0,-1984 # 1840 <.LBB80_5+0x38c>
      44:	40a10133          	sub	sp,sp,a0
      48:	0205b583          	ld	a1,32(a1)
      4c:	00000513          	li	a0,0
      50:	0005b703          	ld	a4,0(a1)
      54:	00005637          	lui	a2,0x5
      58:	cc06061b          	addiw	a2,a2,-832 # 4cc0 <.LBB80_94+0x24>
      5c:	0085b683          	ld	a3,8(a1)
      60:	00c70633          	add	a2,a4,a2
      64:	000027b7          	lui	a5,0x2
      68:	40f407b3          	sub	a5,s0,a5
      6c:	06c7b823          	sd	a2,112(a5) # 2070 <.LBB80_5+0xbbc>
      70:	00094637          	lui	a2,0x94
      74:	9806061b          	addiw	a2,a2,-1664 # 93980 <.Lfunc_end80+0x6afb8>
      78:	00c68933          	add	s2,a3,a2
      7c:	00019637          	lui	a2,0x19
      80:	8006061b          	addiw	a2,a2,-2048 # 18800 <.LBB80_2749+0x18>
      84:	00c68633          	add	a2,a3,a2
      88:	000027b7          	lui	a5,0x2
      8c:	40f407b3          	sub	a5,s0,a5
      90:	06c7b023          	sd	a2,96(a5) # 2060 <.LBB80_5+0xbac>
      94:	000a1637          	lui	a2,0xa1
      98:	1806061b          	addiw	a2,a2,384 # a1180 <.Lfunc_end80+0x787b8>
      9c:	00c68633          	add	a2,a3,a2
      a0:	000026b7          	lui	a3,0x2
      a4:	40d406b3          	sub	a3,s0,a3
      a8:	04c6bc23          	sd	a2,88(a3) # 2058 <.LBB80_5+0xba4>
      ac:	0105b583          	ld	a1,16(a1)
      b0:	34070613          	addi	a2,a4,832
      b4:	000026b7          	lui	a3,0x2
      b8:	40d406b3          	sub	a3,s0,a3
      bc:	04c6b823          	sd	a2,80(a3) # 2050 <.LBB80_5+0xb9c>
      c0:	00020637          	lui	a2,0x20
      c4:	5c06061b          	addiw	a2,a2,1472 # 205c0 <.LBB80_3930+0x34>
      c8:	00c585b3          	add	a1,a1,a2
      cc:	00002637          	lui	a2,0x2
      d0:	40c40633          	sub	a2,s0,a2
      d4:	04b63423          	sd	a1,72(a2) # 2048 <.LBB80_5+0xb94>
      d8:	000065b7          	lui	a1,0x6
      dc:	c805859b          	addiw	a1,a1,-896 # 5c80 <.LBB80_214+0x2c>
      e0:	00002637          	lui	a2,0x2
      e4:	40c40633          	sub	a2,s0,a2
      e8:	fee63423          	sd	a4,-24(a2) # 1fe8 <.LBB80_5+0xb34>
      ec:	00b705b3          	add	a1,a4,a1
      f0:	00002637          	lui	a2,0x2
      f4:	40c40633          	sub	a2,s0,a2
      f8:	06b63423          	sd	a1,104(a2) # 2068 <.LBB80_5+0xbb4>
      fc:	01b00593          	li	a1,27
     100:	00b59593          	slli	a1,a1,0xb
     104:	00002637          	lui	a2,0x2
     108:	40c40633          	sub	a2,s0,a2
     10c:	00b63023          	sd	a1,0(a2) # 2000 <.LBB80_5+0xb4c>
     110:	634e05b7          	lui	a1,0x634e0
     114:	a925859b          	addiw	a1,a1,-1390 # 634dfa92 <.Lfunc_end80+0x634b70ca>
     118:	00002637          	lui	a2,0x2
     11c:	40c40633          	sub	a2,s0,a2
     120:	feb63c23          	sd	a1,-8(a2) # 1ff8 <.LBB80_5+0xb44>
     124:	3c8cb5b7          	lui	a1,0x3c8cb
     128:	77f5859b          	addiw	a1,a1,1919 # 3c8cb77f <.Lfunc_end80+0x3c8a2db7>
     12c:	01559593          	slli	a1,a1,0x15
     130:	00001637          	lui	a2,0x1
     134:	40c40633          	sub	a2,s0,a2
     138:	66b63423          	sd	a1,1640(a2) # 1668 <.LBB80_5+0x1b4>
     13c:	00300593          	li	a1,3
     140:	01e59593          	slli	a1,a1,0x1e
     144:	00002637          	lui	a2,0x2
     148:	40c40633          	sub	a2,s0,a2
     14c:	feb63823          	sd	a1,-16(a2) # 1ff0 <.LBB80_5+0xb3c>
     150:	661cc5b7          	lui	a1,0x661cc
     154:	de65859b          	addiw	a1,a1,-538 # 661cbde6 <.Lfunc_end80+0x661a341e>
     158:	f8b43423          	sd	a1,-120(s0)
     15c:	00900593          	li	a1,9
     160:	00959593          	slli	a1,a1,0x9
     164:	00002637          	lui	a2,0x2
     168:	40c40633          	sub	a2,s0,a2
     16c:	fcb63823          	sd	a1,-48(a2) # 1fd0 <.LBB80_5+0xb1c>
     170:	000025b7          	lui	a1,0x2
     174:	40b405b3          	sub	a1,s0,a1
     178:	ff25b023          	sd	s2,-32(a1) # 1fe0 <.LBB80_5+0xb2c>
     17c:	0700006f          	j	1ec <.LBB80_2>

0000000000000180 <.LBB80_1>:
     180:	00002537          	lui	a0,0x2
     184:	40a40533          	sub	a0,s0,a0
     188:	fd853683          	ld	a3,-40(a0) # 1fd8 <.LBB80_5+0xb24>
     18c:	00868513          	addi	a0,a3,8
     190:	000025b7          	lui	a1,0x2
     194:	40b405b3          	sub	a1,s0,a1
     198:	0705b583          	ld	a1,112(a1) # 2070 <.LBB80_5+0xbbc>
     19c:	00002637          	lui	a2,0x2
     1a0:	40c40633          	sub	a2,s0,a2
     1a4:	fd063603          	ld	a2,-48(a2) # 1fd0 <.LBB80_5+0xb1c>
     1a8:	00c585b3          	add	a1,a1,a2
     1ac:	00002737          	lui	a4,0x2
     1b0:	40e40733          	sub	a4,s0,a4
     1b4:	06b73823          	sd	a1,112(a4) # 2070 <.LBB80_5+0xbbc>
     1b8:	000025b7          	lui	a1,0x2
     1bc:	40b405b3          	sub	a1,s0,a1
     1c0:	0685b583          	ld	a1,104(a1) # 2068 <.LBB80_5+0xbb4>
     1c4:	00c585b3          	add	a1,a1,a2
     1c8:	00002637          	lui	a2,0x2
     1cc:	40c40633          	sub	a2,s0,a2
     1d0:	06b63423          	sd	a1,104(a2) # 2068 <.LBB80_5+0xbb4>
     1d4:	000025b7          	lui	a1,0x2
     1d8:	40b405b3          	sub	a1,s0,a1
     1dc:	fe05b903          	ld	s2,-32(a1) # 1fe0 <.LBB80_5+0xb2c>
     1e0:	0b800593          	li	a1,184
     1e4:	00b6e463          	bltu	a3,a1,1ec <.LBB80_2>
     1e8:	78d1b06f          	j	1c174 <.LBB80_3590>

00000000000001ec <.LBB80_2>:
     1ec:	00000593          	li	a1,0
     1f0:	00050693          	mv	a3,a0
     1f4:	00251513          	slli	a0,a0,0x2
     1f8:	00002637          	lui	a2,0x2
     1fc:	40c40633          	sub	a2,s0,a2
     200:	fe863603          	ld	a2,-24(a2) # 1fe8 <.LBB80_5+0xb34>
     204:	00a60533          	add	a0,a2,a0
     208:	00001637          	lui	a2,0x1
     20c:	40c40633          	sub	a2,s0,a2
     210:	8ca63823          	sd	a0,-1840(a2) # 8d0 <.LBB80_3+0x628>
     214:	06000513          	li	a0,96
     218:	00002637          	lui	a2,0x2
     21c:	40c40633          	sub	a2,s0,a2
     220:	fcd63c23          	sd	a3,-40(a2) # 1fd8 <.LBB80_5+0xb24>
     224:	02a68533          	mul	a0,a3,a0
     228:	06050613          	addi	a2,a0,96
     22c:	000026b7          	lui	a3,0x2
     230:	40d406b3          	sub	a3,s0,a3
     234:	02c6bc23          	sd	a2,56(a3) # 2038 <.LBB80_5+0xb84>
     238:	0c050613          	addi	a2,a0,192
     23c:	000026b7          	lui	a3,0x2
     240:	40d406b3          	sub	a3,s0,a3
     244:	02c6b823          	sd	a2,48(a3) # 2030 <.LBB80_5+0xb7c>
     248:	12050613          	addi	a2,a0,288
     24c:	000026b7          	lui	a3,0x2
     250:	40d406b3          	sub	a3,s0,a3
     254:	02c6b423          	sd	a2,40(a3) # 2028 <.LBB80_5+0xb74>
     258:	18050613          	addi	a2,a0,384
     25c:	000026b7          	lui	a3,0x2
     260:	40d406b3          	sub	a3,s0,a3
     264:	02c6b023          	sd	a2,32(a3) # 2020 <.LBB80_5+0xb6c>
     268:	1e050613          	addi	a2,a0,480
     26c:	000026b7          	lui	a3,0x2
     270:	40d406b3          	sub	a3,s0,a3
     274:	00c6bc23          	sd	a2,24(a3) # 2018 <.LBB80_5+0xb64>
     278:	24050613          	addi	a2,a0,576
     27c:	000026b7          	lui	a3,0x2
     280:	40d406b3          	sub	a3,s0,a3
     284:	00c6b823          	sd	a2,16(a3) # 2010 <.LBB80_5+0xb5c>
     288:	00002637          	lui	a2,0x2
     28c:	40c40633          	sub	a2,s0,a2
     290:	04a63023          	sd	a0,64(a2) # 2040 <.LBB80_5+0xb8c>
     294:	2a050513          	addi	a0,a0,672
     298:	00002637          	lui	a2,0x2
     29c:	40c40633          	sub	a2,s0,a2
     2a0:	00a63423          	sd	a0,8(a2) # 2008 <.LBB80_5+0xb54>
     2a4:	45d0006f          	j	f00 <.LBB80_4>

00000000000002a8 <.LBB80_3>:
     2a8:	8c543c23          	sd	t0,-1832(s0)
     2ac:	ffed0c13          	addi	s8,s10,-2
     2b0:	000022b7          	lui	t0,0x2
     2b4:	405402b3          	sub	t0,s0,t0
     2b8:	0482bd03          	ld	s10,72(t0) # 2048 <.LBB80_5+0xb94>
     2bc:	000012b7          	lui	t0,0x1
     2c0:	405402b3          	sub	t0,s0,t0
     2c4:	8882b283          	ld	t0,-1912(t0) # 888 <.LBB80_3+0x5e0>
     2c8:	005d02b3          	add	t0,s10,t0
     2cc:	018281a3          	sb	s8,3(t0)
     2d0:	e4843c03          	ld	s8,-440(s0)
     2d4:	ffec0c13          	addi	s8,s8,-2
     2d8:	01828123          	sb	s8,2(t0)
     2dc:	e5843c03          	ld	s8,-424(s0)
     2e0:	ffec0c13          	addi	s8,s8,-2
     2e4:	018280a3          	sb	s8,1(t0)
     2e8:	e6843c03          	ld	s8,-408(s0)
     2ec:	ffec0c13          	addi	s8,s8,-2
     2f0:	01828023          	sb	s8,0(t0)
     2f4:	e7843c03          	ld	s8,-392(s0)
     2f8:	ffec0c13          	addi	s8,s8,-2
     2fc:	01828223          	sb	s8,4(t0)
     300:	e8843c03          	ld	s8,-376(s0)
     304:	ffec0c13          	addi	s8,s8,-2
     308:	018282a3          	sb	s8,5(t0)
     30c:	e9843c03          	ld	s8,-360(s0)
     310:	ffec0c13          	addi	s8,s8,-2
     314:	01828323          	sb	s8,6(t0)
     318:	ea843c03          	ld	s8,-344(s0)
     31c:	ffec0c13          	addi	s8,s8,-2
     320:	018283a3          	sb	s8,7(t0)
     324:	eb843c03          	ld	s8,-328(s0)
     328:	ffec0c13          	addi	s8,s8,-2
     32c:	01828423          	sb	s8,8(t0)
     330:	ec843c03          	ld	s8,-312(s0)
     334:	ffec0c13          	addi	s8,s8,-2
     338:	018284a3          	sb	s8,9(t0)
     33c:	ed843c03          	ld	s8,-296(s0)
     340:	ffec0c13          	addi	s8,s8,-2
     344:	01828523          	sb	s8,10(t0)
     348:	ee043c03          	ld	s8,-288(s0)
     34c:	ffec0c13          	addi	s8,s8,-2
     350:	018285a3          	sb	s8,11(t0)
     354:	ee843c03          	ld	s8,-280(s0)
     358:	ffec0c13          	addi	s8,s8,-2
     35c:	01828623          	sb	s8,12(t0)
     360:	ef043c03          	ld	s8,-272(s0)
     364:	ffec0c13          	addi	s8,s8,-2
     368:	018286a3          	sb	s8,13(t0)
     36c:	ef843c03          	ld	s8,-264(s0)
     370:	ffec0c13          	addi	s8,s8,-2
     374:	01828723          	sb	s8,14(t0)
     378:	f0043c03          	ld	s8,-256(s0)
     37c:	ffec0c13          	addi	s8,s8,-2
     380:	018287a3          	sb	s8,15(t0)
     384:	f0843c03          	ld	s8,-248(s0)
     388:	ffec0c13          	addi	s8,s8,-2
     38c:	01828823          	sb	s8,16(t0)
     390:	f1043c03          	ld	s8,-240(s0)
     394:	ffec0c13          	addi	s8,s8,-2
     398:	018288a3          	sb	s8,17(t0)
     39c:	f1843c03          	ld	s8,-232(s0)
     3a0:	ffec0c13          	addi	s8,s8,-2
     3a4:	01828923          	sb	s8,18(t0)
     3a8:	f2043c03          	ld	s8,-224(s0)
     3ac:	ffec0c13          	addi	s8,s8,-2
     3b0:	018289a3          	sb	s8,19(t0)
     3b4:	f2843c03          	ld	s8,-216(s0)
     3b8:	ffec0c13          	addi	s8,s8,-2
     3bc:	01828a23          	sb	s8,20(t0)
     3c0:	f3043c03          	ld	s8,-208(s0)
     3c4:	ffec0c13          	addi	s8,s8,-2
     3c8:	01828aa3          	sb	s8,21(t0)
     3cc:	f3843c03          	ld	s8,-200(s0)
     3d0:	ffec0c13          	addi	s8,s8,-2
     3d4:	01828b23          	sb	s8,22(t0)
     3d8:	f4043c03          	ld	s8,-192(s0)
     3dc:	ffec0c13          	addi	s8,s8,-2
     3e0:	01828ba3          	sb	s8,23(t0)
     3e4:	f4843c03          	ld	s8,-184(s0)
     3e8:	ffec0c13          	addi	s8,s8,-2
     3ec:	01828c23          	sb	s8,24(t0)
     3f0:	f5043c03          	ld	s8,-176(s0)
     3f4:	ffec0c13          	addi	s8,s8,-2
     3f8:	01828ca3          	sb	s8,25(t0)
     3fc:	f5843c03          	ld	s8,-168(s0)
     400:	ffec0c13          	addi	s8,s8,-2
     404:	01828d23          	sb	s8,26(t0)
     408:	f6043c03          	ld	s8,-160(s0)
     40c:	ffec0c13          	addi	s8,s8,-2
     410:	01828da3          	sb	s8,27(t0)
     414:	f6843c03          	ld	s8,-152(s0)
     418:	ffec0c13          	addi	s8,s8,-2
     41c:	01828e23          	sb	s8,28(t0)
     420:	f7043c03          	ld	s8,-144(s0)
     424:	ffec0c13          	addi	s8,s8,-2
     428:	01828ea3          	sb	s8,29(t0)
     42c:	f7843c03          	ld	s8,-136(s0)
     430:	ffec0c13          	addi	s8,s8,-2
     434:	01828f23          	sb	s8,30(t0)
     438:	f8043c03          	ld	s8,-128(s0)
     43c:	ffec0c13          	addi	s8,s8,-2
     440:	01828fa3          	sb	s8,31(t0)
     444:	d4043c03          	ld	s8,-704(s0)
     448:	ffec0c13          	addi	s8,s8,-2
     44c:	000012b7          	lui	t0,0x1
     450:	405402b3          	sub	t0,s0,t0
     454:	8902b283          	ld	t0,-1904(t0) # 890 <.LBB80_3+0x5e8>
     458:	005d02b3          	add	t0,s10,t0
     45c:	01828fa3          	sb	s8,31(t0)
     460:	d5043c03          	ld	s8,-688(s0)
     464:	ffec0c13          	addi	s8,s8,-2
     468:	01828f23          	sb	s8,30(t0)
     46c:	d6043c03          	ld	s8,-672(s0)
     470:	ffec0c13          	addi	s8,s8,-2
     474:	01828ea3          	sb	s8,29(t0)
     478:	d7043c03          	ld	s8,-656(s0)
     47c:	ffec0c13          	addi	s8,s8,-2
     480:	01828e23          	sb	s8,28(t0)
     484:	d8043c03          	ld	s8,-640(s0)
     488:	ffec0c13          	addi	s8,s8,-2
     48c:	01828da3          	sb	s8,27(t0)
     490:	d9043c03          	ld	s8,-624(s0)
     494:	ffec0c13          	addi	s8,s8,-2
     498:	01828d23          	sb	s8,26(t0)
     49c:	da043c03          	ld	s8,-608(s0)
     4a0:	ffec0c13          	addi	s8,s8,-2
     4a4:	01828ca3          	sb	s8,25(t0)
     4a8:	db043c03          	ld	s8,-592(s0)
     4ac:	ffec0c13          	addi	s8,s8,-2
     4b0:	01828c23          	sb	s8,24(t0)
     4b4:	dc043c03          	ld	s8,-576(s0)
     4b8:	ffec0c13          	addi	s8,s8,-2
     4bc:	01828ba3          	sb	s8,23(t0)
     4c0:	dd043c03          	ld	s8,-560(s0)
     4c4:	ffec0c13          	addi	s8,s8,-2
     4c8:	01828b23          	sb	s8,22(t0)
     4cc:	de043c03          	ld	s8,-544(s0)
     4d0:	ffec0c13          	addi	s8,s8,-2
     4d4:	01828aa3          	sb	s8,21(t0)
     4d8:	de843c03          	ld	s8,-536(s0)
     4dc:	ffec0c13          	addi	s8,s8,-2
     4e0:	01828a23          	sb	s8,20(t0)
     4e4:	df043c03          	ld	s8,-528(s0)
     4e8:	ffec0c13          	addi	s8,s8,-2
     4ec:	018289a3          	sb	s8,19(t0)
     4f0:	df843c03          	ld	s8,-520(s0)
     4f4:	ffec0c13          	addi	s8,s8,-2
     4f8:	01828923          	sb	s8,18(t0)
     4fc:	e0043c03          	ld	s8,-512(s0)
     500:	ffec0c13          	addi	s8,s8,-2
     504:	018288a3          	sb	s8,17(t0)
     508:	e0843c03          	ld	s8,-504(s0)
     50c:	ffec0c13          	addi	s8,s8,-2
     510:	01828823          	sb	s8,16(t0)
     514:	e1043c03          	ld	s8,-496(s0)
     518:	ffec0c13          	addi	s8,s8,-2
     51c:	018287a3          	sb	s8,15(t0)
     520:	e1843c03          	ld	s8,-488(s0)
     524:	ffec0c13          	addi	s8,s8,-2
     528:	01828723          	sb	s8,14(t0)
     52c:	e2043c03          	ld	s8,-480(s0)
     530:	ffec0c13          	addi	s8,s8,-2
     534:	018286a3          	sb	s8,13(t0)
     538:	e2843c03          	ld	s8,-472(s0)
     53c:	ffec0c13          	addi	s8,s8,-2
     540:	01828623          	sb	s8,12(t0)
     544:	e3043c03          	ld	s8,-464(s0)
     548:	ffec0c13          	addi	s8,s8,-2
     54c:	018285a3          	sb	s8,11(t0)
     550:	e3843c03          	ld	s8,-456(s0)
     554:	ffec0c13          	addi	s8,s8,-2
     558:	01828523          	sb	s8,10(t0)
     55c:	e4043c03          	ld	s8,-448(s0)
     560:	ffec0c13          	addi	s8,s8,-2
     564:	018284a3          	sb	s8,9(t0)
     568:	e5043c03          	ld	s8,-432(s0)
     56c:	ffec0c13          	addi	s8,s8,-2
     570:	01828423          	sb	s8,8(t0)
     574:	e6043c03          	ld	s8,-416(s0)
     578:	ffec0c13          	addi	s8,s8,-2
     57c:	018283a3          	sb	s8,7(t0)
     580:	e7043c03          	ld	s8,-400(s0)
     584:	ffec0c13          	addi	s8,s8,-2
     588:	01828323          	sb	s8,6(t0)
     58c:	e8043c03          	ld	s8,-384(s0)
     590:	ffec0c13          	addi	s8,s8,-2
     594:	018282a3          	sb	s8,5(t0)
     598:	e9043c03          	ld	s8,-368(s0)
     59c:	ffec0c13          	addi	s8,s8,-2
     5a0:	01828223          	sb	s8,4(t0)
     5a4:	ea043c03          	ld	s8,-352(s0)
     5a8:	ffec0c13          	addi	s8,s8,-2
     5ac:	018281a3          	sb	s8,3(t0)
     5b0:	eb043c03          	ld	s8,-336(s0)
     5b4:	ffec0c13          	addi	s8,s8,-2
     5b8:	01828123          	sb	s8,2(t0)
     5bc:	ec043c03          	ld	s8,-320(s0)
     5c0:	ffec0c13          	addi	s8,s8,-2
     5c4:	018280a3          	sb	s8,1(t0)
     5c8:	ed043c03          	ld	s8,-304(s0)
     5cc:	ffec0c13          	addi	s8,s8,-2
     5d0:	01828023          	sb	s8,0(t0)
     5d4:	c4043c03          	ld	s8,-960(s0)
     5d8:	ffec0c13          	addi	s8,s8,-2
     5dc:	000012b7          	lui	t0,0x1
     5e0:	405402b3          	sub	t0,s0,t0
     5e4:	8982b283          	ld	t0,-1896(t0) # 898 <.LBB80_3+0x5f0>
     5e8:	005d02b3          	add	t0,s10,t0
     5ec:	01828fa3          	sb	s8,31(t0)
     5f0:	c5043c03          	ld	s8,-944(s0)
     5f4:	ffec0c13          	addi	s8,s8,-2
     5f8:	01828f23          	sb	s8,30(t0)
     5fc:	c6043c03          	ld	s8,-928(s0)
     600:	ffec0c13          	addi	s8,s8,-2
     604:	01828ea3          	sb	s8,29(t0)
     608:	c7043c03          	ld	s8,-912(s0)
     60c:	ffec0c13          	addi	s8,s8,-2
     610:	01828e23          	sb	s8,28(t0)
     614:	c8043c03          	ld	s8,-896(s0)
     618:	ffec0c13          	addi	s8,s8,-2
     61c:	01828da3          	sb	s8,27(t0)
     620:	c9043c03          	ld	s8,-880(s0)
     624:	ffec0c13          	addi	s8,s8,-2
     628:	01828d23          	sb	s8,26(t0)
     62c:	ca043c03          	ld	s8,-864(s0)
     630:	ffec0c13          	addi	s8,s8,-2
     634:	01828ca3          	sb	s8,25(t0)
     638:	cb043c03          	ld	s8,-848(s0)
     63c:	ffec0c13          	addi	s8,s8,-2
     640:	01828c23          	sb	s8,24(t0)
     644:	cc043c03          	ld	s8,-832(s0)
     648:	ffec0c13          	addi	s8,s8,-2
     64c:	01828ba3          	sb	s8,23(t0)
     650:	cd043c03          	ld	s8,-816(s0)
     654:	ffec0c13          	addi	s8,s8,-2
     658:	01828b23          	sb	s8,22(t0)
     65c:	ce043c03          	ld	s8,-800(s0)
     660:	ffec0c13          	addi	s8,s8,-2
     664:	01828aa3          	sb	s8,21(t0)
     668:	ce843c03          	ld	s8,-792(s0)
     66c:	ffec0c13          	addi	s8,s8,-2
     670:	01828a23          	sb	s8,20(t0)
     674:	cf043c03          	ld	s8,-784(s0)
     678:	ffec0c13          	addi	s8,s8,-2
     67c:	018289a3          	sb	s8,19(t0)
     680:	cf843c03          	ld	s8,-776(s0)
     684:	ffec0c13          	addi	s8,s8,-2
     688:	01828923          	sb	s8,18(t0)
     68c:	d0043c03          	ld	s8,-768(s0)
     690:	ffec0c13          	addi	s8,s8,-2
     694:	018288a3          	sb	s8,17(t0)
     698:	d0843c03          	ld	s8,-760(s0)
     69c:	ffec0c13          	addi	s8,s8,-2
     6a0:	01828823          	sb	s8,16(t0)
     6a4:	d1043c03          	ld	s8,-752(s0)
     6a8:	ffec0c13          	addi	s8,s8,-2
     6ac:	018287a3          	sb	s8,15(t0)
     6b0:	d1843c03          	ld	s8,-744(s0)
     6b4:	ffec0c13          	addi	s8,s8,-2
     6b8:	01828723          	sb	s8,14(t0)
     6bc:	d2043c03          	ld	s8,-736(s0)
     6c0:	ffec0c13          	addi	s8,s8,-2
     6c4:	018286a3          	sb	s8,13(t0)
     6c8:	d2843c03          	ld	s8,-728(s0)
     6cc:	ffec0c13          	addi	s8,s8,-2
     6d0:	01828623          	sb	s8,12(t0)
     6d4:	d3043c03          	ld	s8,-720(s0)
     6d8:	ffec0c13          	addi	s8,s8,-2
     6dc:	018285a3          	sb	s8,11(t0)
     6e0:	d3843c03          	ld	s8,-712(s0)
     6e4:	ffec0c13          	addi	s8,s8,-2
     6e8:	01828523          	sb	s8,10(t0)
     6ec:	d4843c03          	ld	s8,-696(s0)
     6f0:	ffec0c13          	addi	s8,s8,-2
     6f4:	018284a3          	sb	s8,9(t0)
     6f8:	d5843c03          	ld	s8,-680(s0)
     6fc:	ffec0c13          	addi	s8,s8,-2
     700:	01828423          	sb	s8,8(t0)
     704:	d6843c03          	ld	s8,-664(s0)
     708:	ffec0c13          	addi	s8,s8,-2
     70c:	018283a3          	sb	s8,7(t0)
     710:	d7843c03          	ld	s8,-648(s0)
     714:	ffec0c13          	addi	s8,s8,-2
     718:	01828323          	sb	s8,6(t0)
     71c:	d8843c03          	ld	s8,-632(s0)
     720:	ffec0c13          	addi	s8,s8,-2
     724:	018282a3          	sb	s8,5(t0)
     728:	d9843c03          	ld	s8,-616(s0)
     72c:	ffec0c13          	addi	s8,s8,-2
     730:	01828223          	sb	s8,4(t0)
     734:	da843c03          	ld	s8,-600(s0)
     738:	ffec0c13          	addi	s8,s8,-2
     73c:	018281a3          	sb	s8,3(t0)
     740:	db843c03          	ld	s8,-584(s0)
     744:	ffec0c13          	addi	s8,s8,-2
     748:	01828123          	sb	s8,2(t0)
     74c:	dc843c03          	ld	s8,-568(s0)
     750:	ffec0c13          	addi	s8,s8,-2
     754:	018280a3          	sb	s8,1(t0)
     758:	dd843c03          	ld	s8,-552(s0)
     75c:	ffec0c13          	addi	s8,s8,-2
     760:	01828023          	sb	s8,0(t0)
     764:	b4043c03          	ld	s8,-1216(s0)
     768:	ffec0c13          	addi	s8,s8,-2
     76c:	000012b7          	lui	t0,0x1
     770:	405402b3          	sub	t0,s0,t0
     774:	8a02b283          	ld	t0,-1888(t0) # 8a0 <.LBB80_3+0x5f8>
     778:	005d02b3          	add	t0,s10,t0
     77c:	01828fa3          	sb	s8,31(t0)
     780:	b5043c03          	ld	s8,-1200(s0)
     784:	ffec0c13          	addi	s8,s8,-2
     788:	01828f23          	sb	s8,30(t0)
     78c:	b6043c03          	ld	s8,-1184(s0)
     790:	ffec0c13          	addi	s8,s8,-2
     794:	01828ea3          	sb	s8,29(t0)
     798:	b7043c03          	ld	s8,-1168(s0)
     79c:	ffec0c13          	addi	s8,s8,-2
     7a0:	01828e23          	sb	s8,28(t0)
     7a4:	b8043c03          	ld	s8,-1152(s0)
     7a8:	ffec0c13          	addi	s8,s8,-2
     7ac:	01828da3          	sb	s8,27(t0)
     7b0:	b9043c03          	ld	s8,-1136(s0)
     7b4:	ffec0c13          	addi	s8,s8,-2
     7b8:	01828d23          	sb	s8,26(t0)
     7bc:	ba043c03          	ld	s8,-1120(s0)
     7c0:	ffec0c13          	addi	s8,s8,-2
     7c4:	01828ca3          	sb	s8,25(t0)
     7c8:	bb043c03          	ld	s8,-1104(s0)
     7cc:	ffec0c13          	addi	s8,s8,-2
     7d0:	01828c23          	sb	s8,24(t0)
     7d4:	bc043c03          	ld	s8,-1088(s0)
     7d8:	ffec0c13          	addi	s8,s8,-2
     7dc:	01828ba3          	sb	s8,23(t0)
     7e0:	bd043c03          	ld	s8,-1072(s0)
     7e4:	ffec0c13          	addi	s8,s8,-2
     7e8:	01828b23          	sb	s8,22(t0)
     7ec:	be043c03          	ld	s8,-1056(s0)
     7f0:	ffec0c13          	addi	s8,s8,-2
     7f4:	01828aa3          	sb	s8,21(t0)
     7f8:	be843c03          	ld	s8,-1048(s0)
     7fc:	ffec0c13          	addi	s8,s8,-2
     800:	01828a23          	sb	s8,20(t0)
     804:	bf043c03          	ld	s8,-1040(s0)
     808:	ffec0c13          	addi	s8,s8,-2
     80c:	018289a3          	sb	s8,19(t0)
     810:	bf843c03          	ld	s8,-1032(s0)
     814:	ffec0c13          	addi	s8,s8,-2
     818:	01828923          	sb	s8,18(t0)
     81c:	c0043c03          	ld	s8,-1024(s0)
     820:	ffec0c13          	addi	s8,s8,-2
     824:	018288a3          	sb	s8,17(t0)
     828:	c0843c03          	ld	s8,-1016(s0)
     82c:	ffec0c13          	addi	s8,s8,-2
     830:	01828823          	sb	s8,16(t0)
     834:	c1043c03          	ld	s8,-1008(s0)
     838:	ffec0c13          	addi	s8,s8,-2
     83c:	018287a3          	sb	s8,15(t0)
     840:	c1843c03          	ld	s8,-1000(s0)
     844:	ffec0c13          	addi	s8,s8,-2
     848:	01828723          	sb	s8,14(t0)
     84c:	c2043c03          	ld	s8,-992(s0)
     850:	ffec0c13          	addi	s8,s8,-2
     854:	018286a3          	sb	s8,13(t0)
     858:	c2843c03          	ld	s8,-984(s0)
     85c:	ffec0c13          	addi	s8,s8,-2
     860:	01828623          	sb	s8,12(t0)
     864:	c3043c03          	ld	s8,-976(s0)
     868:	ffec0c13          	addi	s8,s8,-2
     86c:	018285a3          	sb	s8,11(t0)
     870:	c3843c03          	ld	s8,-968(s0)
     874:	ffec0c13          	addi	s8,s8,-2
     878:	01828523          	sb	s8,10(t0)
     87c:	c4843c03          	ld	s8,-952(s0)
     880:	ffec0c13          	addi	s8,s8,-2
     884:	018284a3          	sb	s8,9(t0)
     888:	c5843c03          	ld	s8,-936(s0)
     88c:	ffec0c13          	addi	s8,s8,-2
     890:	01828423          	sb	s8,8(t0)
     894:	c6843c03          	ld	s8,-920(s0)
     898:	ffec0c13          	addi	s8,s8,-2
     89c:	018283a3          	sb	s8,7(t0)
     8a0:	c7843c03          	ld	s8,-904(s0)
     8a4:	ffec0c13          	addi	s8,s8,-2
     8a8:	01828323          	sb	s8,6(t0)
     8ac:	c8843c03          	ld	s8,-888(s0)
     8b0:	ffec0c13          	addi	s8,s8,-2
     8b4:	018282a3          	sb	s8,5(t0)
     8b8:	c9843c03          	ld	s8,-872(s0)
     8bc:	ffec0c13          	addi	s8,s8,-2
     8c0:	01828223          	sb	s8,4(t0)
     8c4:	ca843c03          	ld	s8,-856(s0)
     8c8:	ffec0c13          	addi	s8,s8,-2
     8cc:	018281a3          	sb	s8,3(t0)
     8d0:	cb843c03          	ld	s8,-840(s0)
     8d4:	ffec0c13          	addi	s8,s8,-2
     8d8:	01828123          	sb	s8,2(t0)
     8dc:	cc843c03          	ld	s8,-824(s0)
     8e0:	ffec0c13          	addi	s8,s8,-2
     8e4:	018280a3          	sb	s8,1(t0)
     8e8:	cd843c03          	ld	s8,-808(s0)
     8ec:	ffec0c13          	addi	s8,s8,-2
     8f0:	01828023          	sb	s8,0(t0)
     8f4:	a4043c03          	ld	s8,-1472(s0)
     8f8:	ffec0c13          	addi	s8,s8,-2
     8fc:	000012b7          	lui	t0,0x1
     900:	405402b3          	sub	t0,s0,t0
     904:	8a82b283          	ld	t0,-1880(t0) # 8a8 <.LBB80_3+0x600>
     908:	005d02b3          	add	t0,s10,t0
     90c:	01828fa3          	sb	s8,31(t0)
     910:	a5043c03          	ld	s8,-1456(s0)
     914:	ffec0c13          	addi	s8,s8,-2
     918:	01828f23          	sb	s8,30(t0)
     91c:	a6043c03          	ld	s8,-1440(s0)
     920:	ffec0c13          	addi	s8,s8,-2
     924:	01828ea3          	sb	s8,29(t0)
     928:	a7043c03          	ld	s8,-1424(s0)
     92c:	ffec0c13          	addi	s8,s8,-2
     930:	01828e23          	sb	s8,28(t0)
     934:	a8043c03          	ld	s8,-1408(s0)
     938:	ffec0c13          	addi	s8,s8,-2
     93c:	01828da3          	sb	s8,27(t0)
     940:	a9043c03          	ld	s8,-1392(s0)
     944:	ffec0c13          	addi	s8,s8,-2
     948:	01828d23          	sb	s8,26(t0)
     94c:	aa043c03          	ld	s8,-1376(s0)
     950:	ffec0c13          	addi	s8,s8,-2
     954:	01828ca3          	sb	s8,25(t0)
     958:	ab043c03          	ld	s8,-1360(s0)
     95c:	ffec0c13          	addi	s8,s8,-2
     960:	01828c23          	sb	s8,24(t0)
     964:	ac043c03          	ld	s8,-1344(s0)
     968:	ffec0c13          	addi	s8,s8,-2
     96c:	01828ba3          	sb	s8,23(t0)
     970:	ad043c03          	ld	s8,-1328(s0)
     974:	ffec0c13          	addi	s8,s8,-2
     978:	01828b23          	sb	s8,22(t0)
     97c:	ae043c03          	ld	s8,-1312(s0)
     980:	ffec0c13          	addi	s8,s8,-2
     984:	01828aa3          	sb	s8,21(t0)
     988:	ae843c03          	ld	s8,-1304(s0)
     98c:	ffec0c13          	addi	s8,s8,-2
     990:	01828a23          	sb	s8,20(t0)
     994:	af043c03          	ld	s8,-1296(s0)
     998:	ffec0c13          	addi	s8,s8,-2
     99c:	018289a3          	sb	s8,19(t0)
     9a0:	af843c03          	ld	s8,-1288(s0)
     9a4:	ffec0c13          	addi	s8,s8,-2
     9a8:	01828923          	sb	s8,18(t0)
     9ac:	b0043c03          	ld	s8,-1280(s0)
     9b0:	ffec0c13          	addi	s8,s8,-2
     9b4:	018288a3          	sb	s8,17(t0)
     9b8:	b0843c03          	ld	s8,-1272(s0)
     9bc:	ffec0c13          	addi	s8,s8,-2
     9c0:	01828823          	sb	s8,16(t0)
     9c4:	b1043c03          	ld	s8,-1264(s0)
     9c8:	ffec0c13          	addi	s8,s8,-2
     9cc:	018287a3          	sb	s8,15(t0)
     9d0:	b1843c03          	ld	s8,-1256(s0)
     9d4:	ffec0c13          	addi	s8,s8,-2
     9d8:	01828723          	sb	s8,14(t0)
     9dc:	b2043c03          	ld	s8,-1248(s0)
     9e0:	ffec0c13          	addi	s8,s8,-2
     9e4:	018286a3          	sb	s8,13(t0)
     9e8:	b2843c03          	ld	s8,-1240(s0)
     9ec:	ffec0c13          	addi	s8,s8,-2
     9f0:	01828623          	sb	s8,12(t0)
     9f4:	b3043c03          	ld	s8,-1232(s0)
     9f8:	ffec0c13          	addi	s8,s8,-2
     9fc:	018285a3          	sb	s8,11(t0)
     a00:	b3843c03          	ld	s8,-1224(s0)
     a04:	ffec0c13          	addi	s8,s8,-2
     a08:	01828523          	sb	s8,10(t0)
     a0c:	b4843c03          	ld	s8,-1208(s0)
     a10:	ffec0c13          	addi	s8,s8,-2
     a14:	018284a3          	sb	s8,9(t0)
     a18:	b5843c03          	ld	s8,-1192(s0)
     a1c:	ffec0c13          	addi	s8,s8,-2
     a20:	01828423          	sb	s8,8(t0)
     a24:	b6843c03          	ld	s8,-1176(s0)
     a28:	ffec0c13          	addi	s8,s8,-2
     a2c:	018283a3          	sb	s8,7(t0)
     a30:	b7843c03          	ld	s8,-1160(s0)
     a34:	ffec0c13          	addi	s8,s8,-2
     a38:	01828323          	sb	s8,6(t0)
     a3c:	b8843c03          	ld	s8,-1144(s0)
     a40:	ffec0c13          	addi	s8,s8,-2
     a44:	018282a3          	sb	s8,5(t0)
     a48:	b9843c03          	ld	s8,-1128(s0)
     a4c:	ffec0c13          	addi	s8,s8,-2
     a50:	01828223          	sb	s8,4(t0)
     a54:	ba843c03          	ld	s8,-1112(s0)
     a58:	ffec0c13          	addi	s8,s8,-2
     a5c:	018281a3          	sb	s8,3(t0)
     a60:	bb843c03          	ld	s8,-1096(s0)
     a64:	ffec0c13          	addi	s8,s8,-2
     a68:	01828123          	sb	s8,2(t0)
     a6c:	bc843c03          	ld	s8,-1080(s0)
     a70:	ffec0c13          	addi	s8,s8,-2
     a74:	018280a3          	sb	s8,1(t0)
     a78:	bd843c03          	ld	s8,-1064(s0)
     a7c:	ffec0c13          	addi	s8,s8,-2
     a80:	01828023          	sb	s8,0(t0)
     a84:	94043c03          	ld	s8,-1728(s0)
     a88:	ffec0c13          	addi	s8,s8,-2
     a8c:	000012b7          	lui	t0,0x1
     a90:	405402b3          	sub	t0,s0,t0
     a94:	8b02b283          	ld	t0,-1872(t0) # 8b0 <.LBB80_3+0x608>
     a98:	005d02b3          	add	t0,s10,t0
     a9c:	01828fa3          	sb	s8,31(t0)
     aa0:	95043c03          	ld	s8,-1712(s0)
     aa4:	ffec0c13          	addi	s8,s8,-2
     aa8:	01828f23          	sb	s8,30(t0)
     aac:	96043c03          	ld	s8,-1696(s0)
     ab0:	ffec0c13          	addi	s8,s8,-2
     ab4:	01828ea3          	sb	s8,29(t0)
     ab8:	97043c03          	ld	s8,-1680(s0)
     abc:	ffec0c13          	addi	s8,s8,-2
     ac0:	01828e23          	sb	s8,28(t0)
     ac4:	98043c03          	ld	s8,-1664(s0)
     ac8:	ffec0c13          	addi	s8,s8,-2
     acc:	01828da3          	sb	s8,27(t0)
     ad0:	99043c03          	ld	s8,-1648(s0)
     ad4:	ffec0c13          	addi	s8,s8,-2
     ad8:	01828d23          	sb	s8,26(t0)
     adc:	9a043c03          	ld	s8,-1632(s0)
     ae0:	ffec0c13          	addi	s8,s8,-2
     ae4:	01828ca3          	sb	s8,25(t0)
     ae8:	9b043c03          	ld	s8,-1616(s0)
     aec:	ffec0c13          	addi	s8,s8,-2
     af0:	01828c23          	sb	s8,24(t0)
     af4:	9c043c03          	ld	s8,-1600(s0)
     af8:	ffec0c13          	addi	s8,s8,-2
     afc:	01828ba3          	sb	s8,23(t0)
     b00:	9d043c03          	ld	s8,-1584(s0)
     b04:	ffec0c13          	addi	s8,s8,-2
     b08:	01828b23          	sb	s8,22(t0)
     b0c:	9e043c03          	ld	s8,-1568(s0)
     b10:	ffec0c13          	addi	s8,s8,-2
     b14:	01828aa3          	sb	s8,21(t0)
     b18:	9e843c03          	ld	s8,-1560(s0)
     b1c:	ffec0c13          	addi	s8,s8,-2
     b20:	01828a23          	sb	s8,20(t0)
     b24:	9f043c03          	ld	s8,-1552(s0)
     b28:	ffec0c13          	addi	s8,s8,-2
     b2c:	018289a3          	sb	s8,19(t0)
     b30:	9f843c03          	ld	s8,-1544(s0)
     b34:	ffec0c13          	addi	s8,s8,-2
     b38:	01828923          	sb	s8,18(t0)
     b3c:	a0043c03          	ld	s8,-1536(s0)
     b40:	ffec0c13          	addi	s8,s8,-2
     b44:	018288a3          	sb	s8,17(t0)
     b48:	a0843c03          	ld	s8,-1528(s0)
     b4c:	ffec0c13          	addi	s8,s8,-2
     b50:	01828823          	sb	s8,16(t0)
     b54:	a1043c03          	ld	s8,-1520(s0)
     b58:	ffec0c13          	addi	s8,s8,-2
     b5c:	018287a3          	sb	s8,15(t0)
     b60:	a1843c03          	ld	s8,-1512(s0)
     b64:	ffec0c13          	addi	s8,s8,-2
     b68:	01828723          	sb	s8,14(t0)
     b6c:	a2043c03          	ld	s8,-1504(s0)
     b70:	ffec0c13          	addi	s8,s8,-2
     b74:	018286a3          	sb	s8,13(t0)
     b78:	a2843c03          	ld	s8,-1496(s0)
     b7c:	ffec0c13          	addi	s8,s8,-2
     b80:	01828623          	sb	s8,12(t0)
     b84:	a3043c03          	ld	s8,-1488(s0)
     b88:	ffec0c13          	addi	s8,s8,-2
     b8c:	018285a3          	sb	s8,11(t0)
     b90:	a3843c03          	ld	s8,-1480(s0)
     b94:	ffec0c13          	addi	s8,s8,-2
     b98:	01828523          	sb	s8,10(t0)
     b9c:	a4843c03          	ld	s8,-1464(s0)
     ba0:	ffec0c13          	addi	s8,s8,-2
     ba4:	018284a3          	sb	s8,9(t0)
     ba8:	a5843c03          	ld	s8,-1448(s0)
     bac:	ffec0c13          	addi	s8,s8,-2
     bb0:	01828423          	sb	s8,8(t0)
     bb4:	a6843c03          	ld	s8,-1432(s0)
     bb8:	ffec0c13          	addi	s8,s8,-2
     bbc:	018283a3          	sb	s8,7(t0)
     bc0:	a7843c03          	ld	s8,-1416(s0)
     bc4:	ffec0c13          	addi	s8,s8,-2
     bc8:	01828323          	sb	s8,6(t0)
     bcc:	a8843c03          	ld	s8,-1400(s0)
     bd0:	ffec0c13          	addi	s8,s8,-2
     bd4:	018282a3          	sb	s8,5(t0)
     bd8:	a9843c03          	ld	s8,-1384(s0)
     bdc:	ffec0c13          	addi	s8,s8,-2
     be0:	01828223          	sb	s8,4(t0)
     be4:	aa843c03          	ld	s8,-1368(s0)
     be8:	ffec0c13          	addi	s8,s8,-2
     bec:	018281a3          	sb	s8,3(t0)
     bf0:	ab843c03          	ld	s8,-1352(s0)
     bf4:	ffec0c13          	addi	s8,s8,-2
     bf8:	01828123          	sb	s8,2(t0)
     bfc:	ac843c03          	ld	s8,-1336(s0)
     c00:	ffec0c13          	addi	s8,s8,-2
     c04:	018280a3          	sb	s8,1(t0)
     c08:	ad843c03          	ld	s8,-1320(s0)
     c0c:	ffec0c13          	addi	s8,s8,-2
     c10:	01828023          	sb	s8,0(t0)
     c14:	ffeb0b13          	addi	s6,s6,-2
     c18:	000012b7          	lui	t0,0x1
     c1c:	405402b3          	sub	t0,s0,t0
     c20:	8b82b283          	ld	t0,-1864(t0) # 8b8 <.LBB80_3+0x610>
     c24:	005d02b3          	add	t0,s10,t0
     c28:	01628fa3          	sb	s6,31(t0)
     c2c:	85043b03          	ld	s6,-1968(s0)
     c30:	ffeb0b13          	addi	s6,s6,-2
     c34:	01628f23          	sb	s6,30(t0)
     c38:	86043b03          	ld	s6,-1952(s0)
     c3c:	ffeb0b13          	addi	s6,s6,-2
     c40:	01628ea3          	sb	s6,29(t0)
     c44:	87043b03          	ld	s6,-1936(s0)
     c48:	ffeb0b13          	addi	s6,s6,-2
     c4c:	01628e23          	sb	s6,28(t0)
     c50:	88043b03          	ld	s6,-1920(s0)
     c54:	ffeb0b13          	addi	s6,s6,-2
     c58:	01628da3          	sb	s6,27(t0)
     c5c:	89043b03          	ld	s6,-1904(s0)
     c60:	ffeb0b13          	addi	s6,s6,-2
     c64:	01628d23          	sb	s6,26(t0)
     c68:	8a043b03          	ld	s6,-1888(s0)
     c6c:	ffeb0b13          	addi	s6,s6,-2
     c70:	01628ca3          	sb	s6,25(t0)
     c74:	8b043b03          	ld	s6,-1872(s0)
     c78:	ffeb0b13          	addi	s6,s6,-2
     c7c:	01628c23          	sb	s6,24(t0)
     c80:	8c043b03          	ld	s6,-1856(s0)
     c84:	ffeb0b13          	addi	s6,s6,-2
     c88:	01628ba3          	sb	s6,23(t0)
     c8c:	8d043b03          	ld	s6,-1840(s0)
     c90:	ffeb0b13          	addi	s6,s6,-2
     c94:	01628b23          	sb	s6,22(t0)
     c98:	8e043b03          	ld	s6,-1824(s0)
     c9c:	ffeb0b13          	addi	s6,s6,-2
     ca0:	01628aa3          	sb	s6,21(t0)
     ca4:	8e843b03          	ld	s6,-1816(s0)
     ca8:	ffeb0b13          	addi	s6,s6,-2
     cac:	01628a23          	sb	s6,20(t0)
     cb0:	8f043b03          	ld	s6,-1808(s0)
     cb4:	ffeb0b13          	addi	s6,s6,-2
     cb8:	016289a3          	sb	s6,19(t0)
     cbc:	8f843b03          	ld	s6,-1800(s0)
     cc0:	ffeb0b13          	addi	s6,s6,-2
     cc4:	01628923          	sb	s6,18(t0)
     cc8:	90043b03          	ld	s6,-1792(s0)
     ccc:	ffeb0b13          	addi	s6,s6,-2
     cd0:	016288a3          	sb	s6,17(t0)
     cd4:	90843b03          	ld	s6,-1784(s0)
     cd8:	ffeb0b13          	addi	s6,s6,-2
     cdc:	01628823          	sb	s6,16(t0)
     ce0:	91043b03          	ld	s6,-1776(s0)
     ce4:	ffeb0b13          	addi	s6,s6,-2
     ce8:	016287a3          	sb	s6,15(t0)
     cec:	91843b03          	ld	s6,-1768(s0)
     cf0:	ffeb0b13          	addi	s6,s6,-2
     cf4:	01628723          	sb	s6,14(t0)
     cf8:	92043b03          	ld	s6,-1760(s0)
     cfc:	ffeb0b13          	addi	s6,s6,-2
     d00:	016286a3          	sb	s6,13(t0)
     d04:	92843b03          	ld	s6,-1752(s0)
     d08:	ffeb0b13          	addi	s6,s6,-2
     d0c:	01628623          	sb	s6,12(t0)
     d10:	93043b03          	ld	s6,-1744(s0)
     d14:	ffeb0b13          	addi	s6,s6,-2
     d18:	016285a3          	sb	s6,11(t0)
     d1c:	93843b03          	ld	s6,-1736(s0)
     d20:	ffeb0b13          	addi	s6,s6,-2
     d24:	01628523          	sb	s6,10(t0)
     d28:	94843b03          	ld	s6,-1720(s0)
     d2c:	ffeb0b13          	addi	s6,s6,-2
     d30:	016284a3          	sb	s6,9(t0)
     d34:	95843b03          	ld	s6,-1704(s0)
     d38:	ffeb0b13          	addi	s6,s6,-2
     d3c:	01628423          	sb	s6,8(t0)
     d40:	96843b03          	ld	s6,-1688(s0)
     d44:	ffeb0b13          	addi	s6,s6,-2
     d48:	016283a3          	sb	s6,7(t0)
     d4c:	97843b03          	ld	s6,-1672(s0)
     d50:	ffeb0b13          	addi	s6,s6,-2
     d54:	01628323          	sb	s6,6(t0)
     d58:	98843b03          	ld	s6,-1656(s0)
     d5c:	ffeb0b13          	addi	s6,s6,-2
     d60:	016282a3          	sb	s6,5(t0)
     d64:	99843b03          	ld	s6,-1640(s0)
     d68:	ffeb0b13          	addi	s6,s6,-2
     d6c:	01628223          	sb	s6,4(t0)
     d70:	9a843b03          	ld	s6,-1624(s0)
     d74:	ffeb0b13          	addi	s6,s6,-2
     d78:	016281a3          	sb	s6,3(t0)
     d7c:	9b843b03          	ld	s6,-1608(s0)
     d80:	ffeb0b13          	addi	s6,s6,-2
     d84:	01628123          	sb	s6,2(t0)
     d88:	9c843b03          	ld	s6,-1592(s0)
     d8c:	ffeb0b13          	addi	s6,s6,-2
     d90:	016280a3          	sb	s6,1(t0)
     d94:	9d843b03          	ld	s6,-1576(s0)
     d98:	ffeb0b13          	addi	s6,s6,-2
     d9c:	01628023          	sb	s6,0(t0)
     da0:	ffea8a93          	addi	s5,s5,-2
     da4:	000012b7          	lui	t0,0x1
     da8:	405402b3          	sub	t0,s0,t0
     dac:	8c02b283          	ld	t0,-1856(t0) # 8c0 <.LBB80_3+0x618>
     db0:	005d02b3          	add	t0,s10,t0
     db4:	01528fa3          	sb	s5,31(t0)
     db8:	ffe08093          	addi	ra,ra,-2
     dbc:	00128f23          	sb	ra,30(t0)
     dc0:	ffed8d93          	addi	s11,s11,-2
     dc4:	01b28ea3          	sb	s11,29(t0)
     dc8:	ffec8c93          	addi	s9,s9,-2
     dcc:	01928e23          	sb	s9,28(t0)
     dd0:	ffef0f13          	addi	t5,t5,-2
     dd4:	01e28da3          	sb	t5,27(t0)
     dd8:	ffe38393          	addi	t2,t2,-2
     ddc:	00728d23          	sb	t2,26(t0)
     de0:	ffef8f93          	addi	t6,t6,-2
     de4:	01f28ca3          	sb	t6,25(t0)
     de8:	ffe30313          	addi	t1,t1,-2
     dec:	00628c23          	sb	t1,24(t0)
     df0:	ffe48493          	addi	s1,s1,-2
     df4:	00928ba3          	sb	s1,23(t0)
     df8:	ffea0a13          	addi	s4,s4,-2
     dfc:	01428b23          	sb	s4,22(t0)
     e00:	ffee8e93          	addi	t4,t4,-2
     e04:	01d28aa3          	sb	t4,21(t0)
     e08:	ffe88893          	addi	a7,a7,-2
     e0c:	01128a23          	sb	a7,20(t0)
     e10:	ffe98993          	addi	s3,s3,-2
     e14:	013289a3          	sb	s3,19(t0)
     e18:	ffe80813          	addi	a6,a6,-2
     e1c:	01028923          	sb	a6,18(t0)
     e20:	ffe90913          	addi	s2,s2,-2
     e24:	012288a3          	sb	s2,17(t0)
     e28:	ffee0e13          	addi	t3,t3,-2
     e2c:	01c28823          	sb	t3,16(t0)
     e30:	ffe78793          	addi	a5,a5,-2
     e34:	00f287a3          	sb	a5,15(t0)
     e38:	ffe70713          	addi	a4,a4,-2
     e3c:	00e28723          	sb	a4,14(t0)
     e40:	ffe68693          	addi	a3,a3,-2
     e44:	00d286a3          	sb	a3,13(t0)
     e48:	ffe60613          	addi	a2,a2,-2
     e4c:	00c28623          	sb	a2,12(t0)
     e50:	ffe58593          	addi	a1,a1,-2
     e54:	00b285a3          	sb	a1,11(t0)
     e58:	ffe50513          	addi	a0,a0,-2
     e5c:	00a28523          	sb	a0,10(t0)
     e60:	84843b83          	ld	s7,-1976(s0)
     e64:	ffeb8b93          	addi	s7,s7,-2
     e68:	017284a3          	sb	s7,9(t0)
     e6c:	85843503          	ld	a0,-1960(s0)
     e70:	ffe50513          	addi	a0,a0,-2
     e74:	00a28423          	sb	a0,8(t0)
     e78:	86843503          	ld	a0,-1944(s0)
     e7c:	ffe50513          	addi	a0,a0,-2
     e80:	00a283a3          	sb	a0,7(t0)
     e84:	87843503          	ld	a0,-1928(s0)
     e88:	ffe50513          	addi	a0,a0,-2
     e8c:	00a28323          	sb	a0,6(t0)
     e90:	88843503          	ld	a0,-1912(s0)
     e94:	ffe50513          	addi	a0,a0,-2
     e98:	00a282a3          	sb	a0,5(t0)
     e9c:	89843503          	ld	a0,-1896(s0)
     ea0:	ffe50513          	addi	a0,a0,-2
     ea4:	00a28223          	sb	a0,4(t0)
     ea8:	8a843503          	ld	a0,-1880(s0)
     eac:	ffe50513          	addi	a0,a0,-2
     eb0:	00a281a3          	sb	a0,3(t0)
     eb4:	8b843503          	ld	a0,-1864(s0)
     eb8:	ffe50513          	addi	a0,a0,-2
     ebc:	00a28123          	sb	a0,2(t0)
     ec0:	8c843503          	ld	a0,-1848(s0)
     ec4:	ffe50513          	addi	a0,a0,-2
     ec8:	00a280a3          	sb	a0,1(t0)
     ecc:	8d843503          	ld	a0,-1832(s0)
     ed0:	ffe50513          	addi	a0,a0,-2
     ed4:	00a28023          	sb	a0,0(t0)
     ed8:	00001537          	lui	a0,0x1
     edc:	40a40533          	sub	a0,s0,a0
     ee0:	66053603          	ld	a2,1632(a0) # 1660 <.LBB80_5+0x1ac>
     ee4:	02060593          	addi	a1,a2,32
     ee8:	00001537          	lui	a0,0x1
     eec:	40a40533          	sub	a0,s0,a0
     ef0:	8c853903          	ld	s2,-1848(a0) # 8c8 <.LBB80_3+0x620>
     ef4:	02090913          	addi	s2,s2,32
     ef8:	04000513          	li	a0,64
     efc:	a8a67263          	bgeu	a2,a0,180 <.LBB80_1>

0000000000000f00 <.LBB80_4>:
     f00:	00001537          	lui	a0,0x1
     f04:	40a40533          	sub	a0,s0,a0
     f08:	66b53023          	sd	a1,1632(a0) # 1660 <.LBB80_5+0x1ac>
     f0c:	00002537          	lui	a0,0x2
     f10:	40a40533          	sub	a0,s0,a0
     f14:	00053f03          	ld	t5,0(a0) # 2000 <.LBB80_5+0xb4c>
     f18:	00002537          	lui	a0,0x2
     f1c:	40a40533          	sub	a0,s0,a0
     f20:	06853503          	ld	a0,104(a0) # 2068 <.LBB80_5+0xbb4>
     f24:	f6a43823          	sd	a0,-144(s0)
     f28:	00002537          	lui	a0,0x2
     f2c:	40a40533          	sub	a0,s0,a0
     f30:	07053a83          	ld	s5,112(a0) # 2070 <.LBB80_5+0xbbc>
     f34:	00001537          	lui	a0,0x1
     f38:	40a40533          	sub	a0,s0,a0
     f3c:	8d253423          	sd	s2,-1848(a0) # 8c8 <.LBB80_3+0x620>
     f40:	00090b93          	mv	s7,s2
     f44:	00001537          	lui	a0,0x1
     f48:	40a40533          	sub	a0,s0,a0
     f4c:	76053423          	sd	zero,1896(a0) # 1768 <.LBB80_5+0x2b4>
     f50:	00001537          	lui	a0,0x1
     f54:	40a40533          	sub	a0,s0,a0
     f58:	76053823          	sd	zero,1904(a0) # 1770 <.LBB80_5+0x2bc>
     f5c:	00001537          	lui	a0,0x1
     f60:	40a40533          	sub	a0,s0,a0
     f64:	78053023          	sd	zero,1920(a0) # 1780 <.LBB80_5+0x2cc>
     f68:	00001537          	lui	a0,0x1
     f6c:	40a40533          	sub	a0,s0,a0
     f70:	78053c23          	sd	zero,1944(a0) # 1798 <.LBB80_5+0x2e4>
     f74:	00001537          	lui	a0,0x1
     f78:	40a40533          	sub	a0,s0,a0
     f7c:	76053023          	sd	zero,1888(a0) # 1760 <.LBB80_5+0x2ac>
     f80:	00000b13          	li	s6,0
     f84:	00001537          	lui	a0,0x1
     f88:	40a40533          	sub	a0,s0,a0
     f8c:	74053c23          	sd	zero,1880(a0) # 1758 <.LBB80_5+0x2a4>
     f90:	00001537          	lui	a0,0x1
     f94:	40a40533          	sub	a0,s0,a0
     f98:	74053823          	sd	zero,1872(a0) # 1750 <.LBB80_5+0x29c>
     f9c:	00001537          	lui	a0,0x1
     fa0:	40a40533          	sub	a0,s0,a0
     fa4:	74053423          	sd	zero,1864(a0) # 1748 <.LBB80_5+0x294>
     fa8:	00001537          	lui	a0,0x1
     fac:	40a40533          	sub	a0,s0,a0
     fb0:	74053023          	sd	zero,1856(a0) # 1740 <.LBB80_5+0x28c>
     fb4:	00001537          	lui	a0,0x1
     fb8:	40a40533          	sub	a0,s0,a0
     fbc:	72053c23          	sd	zero,1848(a0) # 1738 <.LBB80_5+0x284>
     fc0:	00001537          	lui	a0,0x1
     fc4:	40a40533          	sub	a0,s0,a0
     fc8:	72053823          	sd	zero,1840(a0) # 1730 <.LBB80_5+0x27c>
     fcc:	00001537          	lui	a0,0x1
     fd0:	40a40533          	sub	a0,s0,a0
     fd4:	72053423          	sd	zero,1832(a0) # 1728 <.LBB80_5+0x274>
     fd8:	00001537          	lui	a0,0x1
     fdc:	40a40533          	sub	a0,s0,a0
     fe0:	72053023          	sd	zero,1824(a0) # 1720 <.LBB80_5+0x26c>
     fe4:	00001537          	lui	a0,0x1
     fe8:	40a40533          	sub	a0,s0,a0
     fec:	70053c23          	sd	zero,1816(a0) # 1718 <.LBB80_5+0x264>
     ff0:	00001537          	lui	a0,0x1
     ff4:	40a40533          	sub	a0,s0,a0
     ff8:	70053823          	sd	zero,1808(a0) # 1710 <.LBB80_5+0x25c>
     ffc:	00001537          	lui	a0,0x1
    1000:	40a40533          	sub	a0,s0,a0
    1004:	70053423          	sd	zero,1800(a0) # 1708 <.LBB80_5+0x254>
    1008:	00001537          	lui	a0,0x1
    100c:	40a40533          	sub	a0,s0,a0
    1010:	70053023          	sd	zero,1792(a0) # 1700 <.LBB80_5+0x24c>
    1014:	00001537          	lui	a0,0x1
    1018:	40a40533          	sub	a0,s0,a0
    101c:	6e053c23          	sd	zero,1784(a0) # 16f8 <.LBB80_5+0x244>
    1020:	00001537          	lui	a0,0x1
    1024:	40a40533          	sub	a0,s0,a0
    1028:	6e053823          	sd	zero,1776(a0) # 16f0 <.LBB80_5+0x23c>
    102c:	00001537          	lui	a0,0x1
    1030:	40a40533          	sub	a0,s0,a0
    1034:	6e053423          	sd	zero,1768(a0) # 16e8 <.LBB80_5+0x234>
    1038:	00001537          	lui	a0,0x1
    103c:	40a40533          	sub	a0,s0,a0
    1040:	6e053023          	sd	zero,1760(a0) # 16e0 <.LBB80_5+0x22c>
    1044:	00001537          	lui	a0,0x1
    1048:	40a40533          	sub	a0,s0,a0
    104c:	6a053023          	sd	zero,1696(a0) # 16a0 <.LBB80_5+0x1ec>
    1050:	00001537          	lui	a0,0x1
    1054:	40a40533          	sub	a0,s0,a0
    1058:	68053c23          	sd	zero,1688(a0) # 1698 <.LBB80_5+0x1e4>
    105c:	00001537          	lui	a0,0x1
    1060:	40a40533          	sub	a0,s0,a0
    1064:	6c053c23          	sd	zero,1752(a0) # 16d8 <.LBB80_5+0x224>
    1068:	00001537          	lui	a0,0x1
    106c:	40a40533          	sub	a0,s0,a0
    1070:	6c053823          	sd	zero,1744(a0) # 16d0 <.LBB80_5+0x21c>
    1074:	00001537          	lui	a0,0x1
    1078:	40a40533          	sub	a0,s0,a0
    107c:	6c053423          	sd	zero,1736(a0) # 16c8 <.LBB80_5+0x214>
    1080:	00001537          	lui	a0,0x1
    1084:	40a40533          	sub	a0,s0,a0
    1088:	6c053023          	sd	zero,1728(a0) # 16c0 <.LBB80_5+0x20c>
    108c:	00001537          	lui	a0,0x1
    1090:	40a40533          	sub	a0,s0,a0
    1094:	6a053c23          	sd	zero,1720(a0) # 16b8 <.LBB80_5+0x204>
    1098:	00001537          	lui	a0,0x1
    109c:	40a40533          	sub	a0,s0,a0
    10a0:	6a053823          	sd	zero,1712(a0) # 16b0 <.LBB80_5+0x1fc>
    10a4:	00001537          	lui	a0,0x1
    10a8:	40a40533          	sub	a0,s0,a0
    10ac:	68053823          	sd	zero,1680(a0) # 1690 <.LBB80_5+0x1dc>
    10b0:	00001537          	lui	a0,0x1
    10b4:	40a40533          	sub	a0,s0,a0
    10b8:	6a053423          	sd	zero,1704(a0) # 16a8 <.LBB80_5+0x1f4>
    10bc:	00001537          	lui	a0,0x1
    10c0:	40a40533          	sub	a0,s0,a0
    10c4:	76053c23          	sd	zero,1912(a0) # 1778 <.LBB80_5+0x2c4>
    10c8:	00001537          	lui	a0,0x1
    10cc:	40a40533          	sub	a0,s0,a0
    10d0:	78053423          	sd	zero,1928(a0) # 1788 <.LBB80_5+0x2d4>
    10d4:	00001537          	lui	a0,0x1
    10d8:	40a40533          	sub	a0,s0,a0
    10dc:	78053823          	sd	zero,1936(a0) # 1790 <.LBB80_5+0x2dc>
    10e0:	00001537          	lui	a0,0x1
    10e4:	40a40533          	sub	a0,s0,a0
    10e8:	7a053023          	sd	zero,1952(a0) # 17a0 <.LBB80_5+0x2ec>
    10ec:	00001537          	lui	a0,0x1
    10f0:	40a40533          	sub	a0,s0,a0
    10f4:	7a053423          	sd	zero,1960(a0) # 17a8 <.LBB80_5+0x2f4>
    10f8:	00001537          	lui	a0,0x1
    10fc:	40a40533          	sub	a0,s0,a0
    1100:	7a053823          	sd	zero,1968(a0) # 17b0 <.LBB80_5+0x2fc>
    1104:	00001537          	lui	a0,0x1
    1108:	40a40533          	sub	a0,s0,a0
    110c:	7a053c23          	sd	zero,1976(a0) # 17b8 <.LBB80_5+0x304>
    1110:	00001537          	lui	a0,0x1
    1114:	40a40533          	sub	a0,s0,a0
    1118:	7c053023          	sd	zero,1984(a0) # 17c0 <.LBB80_5+0x30c>
    111c:	00001537          	lui	a0,0x1
    1120:	40a40533          	sub	a0,s0,a0
    1124:	7c053423          	sd	zero,1992(a0) # 17c8 <.LBB80_5+0x314>
    1128:	00001537          	lui	a0,0x1
    112c:	40a40533          	sub	a0,s0,a0
    1130:	7c053823          	sd	zero,2000(a0) # 17d0 <.LBB80_5+0x31c>
    1134:	00001537          	lui	a0,0x1
    1138:	40a40533          	sub	a0,s0,a0
    113c:	7c053c23          	sd	zero,2008(a0) # 17d8 <.LBB80_5+0x324>
    1140:	00001537          	lui	a0,0x1
    1144:	40a40533          	sub	a0,s0,a0
    1148:	7e053023          	sd	zero,2016(a0) # 17e0 <.LBB80_5+0x32c>
    114c:	00001537          	lui	a0,0x1
    1150:	40a40533          	sub	a0,s0,a0
    1154:	7e053423          	sd	zero,2024(a0) # 17e8 <.LBB80_5+0x334>
    1158:	00001537          	lui	a0,0x1
    115c:	40a40533          	sub	a0,s0,a0
    1160:	7e053823          	sd	zero,2032(a0) # 17f0 <.LBB80_5+0x33c>
    1164:	00001537          	lui	a0,0x1
    1168:	40a40533          	sub	a0,s0,a0
    116c:	7e053c23          	sd	zero,2040(a0) # 17f8 <.LBB80_5+0x344>
    1170:	80043023          	sd	zero,-2048(s0)
    1174:	80043423          	sd	zero,-2040(s0)
    1178:	80043823          	sd	zero,-2032(s0)
    117c:	80043c23          	sd	zero,-2024(s0)
    1180:	82043023          	sd	zero,-2016(s0)
    1184:	82043423          	sd	zero,-2008(s0)
    1188:	82043823          	sd	zero,-2000(s0)
    118c:	82043c23          	sd	zero,-1992(s0)
    1190:	84043023          	sd	zero,-1984(s0)
    1194:	84043423          	sd	zero,-1976(s0)
    1198:	84043823          	sd	zero,-1968(s0)
    119c:	84043c23          	sd	zero,-1960(s0)
    11a0:	86043023          	sd	zero,-1952(s0)
    11a4:	86043423          	sd	zero,-1944(s0)
    11a8:	86043823          	sd	zero,-1936(s0)
    11ac:	86043c23          	sd	zero,-1928(s0)
    11b0:	88043023          	sd	zero,-1920(s0)
    11b4:	88043423          	sd	zero,-1912(s0)
    11b8:	88043823          	sd	zero,-1904(s0)
    11bc:	88043c23          	sd	zero,-1896(s0)
    11c0:	8a043023          	sd	zero,-1888(s0)
    11c4:	8a043423          	sd	zero,-1880(s0)
    11c8:	8a043823          	sd	zero,-1872(s0)
    11cc:	8a043c23          	sd	zero,-1864(s0)
    11d0:	8c043023          	sd	zero,-1856(s0)
    11d4:	8c043423          	sd	zero,-1848(s0)
    11d8:	8c043823          	sd	zero,-1840(s0)
    11dc:	8c043c23          	sd	zero,-1832(s0)
    11e0:	8e043023          	sd	zero,-1824(s0)
    11e4:	8e043423          	sd	zero,-1816(s0)
    11e8:	8e043823          	sd	zero,-1808(s0)
    11ec:	8e043c23          	sd	zero,-1800(s0)
    11f0:	90043023          	sd	zero,-1792(s0)
    11f4:	90043423          	sd	zero,-1784(s0)
    11f8:	90043823          	sd	zero,-1776(s0)
    11fc:	90043c23          	sd	zero,-1768(s0)
    1200:	92043023          	sd	zero,-1760(s0)
    1204:	92043423          	sd	zero,-1752(s0)
    1208:	92043823          	sd	zero,-1744(s0)
    120c:	92043c23          	sd	zero,-1736(s0)
    1210:	94043023          	sd	zero,-1728(s0)
    1214:	94043423          	sd	zero,-1720(s0)
    1218:	94043823          	sd	zero,-1712(s0)
    121c:	94043c23          	sd	zero,-1704(s0)
    1220:	96043023          	sd	zero,-1696(s0)
    1224:	96043423          	sd	zero,-1688(s0)
    1228:	96043823          	sd	zero,-1680(s0)
    122c:	96043c23          	sd	zero,-1672(s0)
    1230:	98043023          	sd	zero,-1664(s0)
    1234:	98043423          	sd	zero,-1656(s0)
    1238:	98043823          	sd	zero,-1648(s0)
    123c:	98043c23          	sd	zero,-1640(s0)
    1240:	9a043023          	sd	zero,-1632(s0)
    1244:	9a043423          	sd	zero,-1624(s0)
    1248:	9a043823          	sd	zero,-1616(s0)
    124c:	9a043c23          	sd	zero,-1608(s0)
    1250:	9c043023          	sd	zero,-1600(s0)
    1254:	9c043423          	sd	zero,-1592(s0)
    1258:	9c043823          	sd	zero,-1584(s0)
    125c:	9c043c23          	sd	zero,-1576(s0)
    1260:	9e043023          	sd	zero,-1568(s0)
    1264:	9e043423          	sd	zero,-1560(s0)
    1268:	9e043823          	sd	zero,-1552(s0)
    126c:	9e043c23          	sd	zero,-1544(s0)
    1270:	a0043023          	sd	zero,-1536(s0)
    1274:	a0043423          	sd	zero,-1528(s0)
    1278:	a0043823          	sd	zero,-1520(s0)
    127c:	a0043c23          	sd	zero,-1512(s0)
    1280:	a2043023          	sd	zero,-1504(s0)
    1284:	a2043423          	sd	zero,-1496(s0)
    1288:	a2043823          	sd	zero,-1488(s0)
    128c:	a2043c23          	sd	zero,-1480(s0)
    1290:	a4043023          	sd	zero,-1472(s0)
    1294:	a4043423          	sd	zero,-1464(s0)
    1298:	a4043823          	sd	zero,-1456(s0)
    129c:	a4043c23          	sd	zero,-1448(s0)
    12a0:	a6043023          	sd	zero,-1440(s0)
    12a4:	a6043423          	sd	zero,-1432(s0)
    12a8:	a6043823          	sd	zero,-1424(s0)
    12ac:	a6043c23          	sd	zero,-1416(s0)
    12b0:	a8043023          	sd	zero,-1408(s0)
    12b4:	a8043423          	sd	zero,-1400(s0)
    12b8:	a8043823          	sd	zero,-1392(s0)
    12bc:	a8043c23          	sd	zero,-1384(s0)
    12c0:	aa043023          	sd	zero,-1376(s0)
    12c4:	aa043423          	sd	zero,-1368(s0)
    12c8:	aa043823          	sd	zero,-1360(s0)
    12cc:	aa043c23          	sd	zero,-1352(s0)
    12d0:	ac043023          	sd	zero,-1344(s0)
    12d4:	ac043423          	sd	zero,-1336(s0)
    12d8:	ac043823          	sd	zero,-1328(s0)
    12dc:	ac043c23          	sd	zero,-1320(s0)
    12e0:	ae043023          	sd	zero,-1312(s0)
    12e4:	ae043423          	sd	zero,-1304(s0)
    12e8:	ae043823          	sd	zero,-1296(s0)
    12ec:	ae043c23          	sd	zero,-1288(s0)
    12f0:	b0043023          	sd	zero,-1280(s0)
    12f4:	b0043423          	sd	zero,-1272(s0)
    12f8:	b0043823          	sd	zero,-1264(s0)
    12fc:	b0043c23          	sd	zero,-1256(s0)
    1300:	b2043023          	sd	zero,-1248(s0)
    1304:	b2043423          	sd	zero,-1240(s0)
    1308:	b2043823          	sd	zero,-1232(s0)
    130c:	b2043c23          	sd	zero,-1224(s0)
    1310:	b4043023          	sd	zero,-1216(s0)
    1314:	b4043423          	sd	zero,-1208(s0)
    1318:	b4043823          	sd	zero,-1200(s0)
    131c:	b4043c23          	sd	zero,-1192(s0)
    1320:	b6043023          	sd	zero,-1184(s0)
    1324:	b6043423          	sd	zero,-1176(s0)
    1328:	b6043823          	sd	zero,-1168(s0)
    132c:	b6043c23          	sd	zero,-1160(s0)
    1330:	b8043023          	sd	zero,-1152(s0)
    1334:	b8043423          	sd	zero,-1144(s0)
    1338:	b8043823          	sd	zero,-1136(s0)
    133c:	b8043c23          	sd	zero,-1128(s0)
    1340:	ba043023          	sd	zero,-1120(s0)
    1344:	ba043423          	sd	zero,-1112(s0)
    1348:	ba043823          	sd	zero,-1104(s0)
    134c:	ba043c23          	sd	zero,-1096(s0)
    1350:	bc043023          	sd	zero,-1088(s0)
    1354:	bc043423          	sd	zero,-1080(s0)
    1358:	bc043823          	sd	zero,-1072(s0)
    135c:	bc043c23          	sd	zero,-1064(s0)
    1360:	be043023          	sd	zero,-1056(s0)
    1364:	be043423          	sd	zero,-1048(s0)
    1368:	be043823          	sd	zero,-1040(s0)
    136c:	be043c23          	sd	zero,-1032(s0)
    1370:	c0043023          	sd	zero,-1024(s0)
    1374:	c0043423          	sd	zero,-1016(s0)
    1378:	c0043823          	sd	zero,-1008(s0)
    137c:	c0043c23          	sd	zero,-1000(s0)
    1380:	c2043023          	sd	zero,-992(s0)
    1384:	c2043423          	sd	zero,-984(s0)
    1388:	c2043823          	sd	zero,-976(s0)
    138c:	c2043c23          	sd	zero,-968(s0)
    1390:	c4043023          	sd	zero,-960(s0)
    1394:	c4043423          	sd	zero,-952(s0)
    1398:	c4043823          	sd	zero,-944(s0)
    139c:	c4043c23          	sd	zero,-936(s0)
    13a0:	c6043023          	sd	zero,-928(s0)
    13a4:	c6043423          	sd	zero,-920(s0)
    13a8:	c6043823          	sd	zero,-912(s0)
    13ac:	c6043c23          	sd	zero,-904(s0)
    13b0:	c8043023          	sd	zero,-896(s0)
    13b4:	c8043423          	sd	zero,-888(s0)
    13b8:	c8043823          	sd	zero,-880(s0)
    13bc:	c8043c23          	sd	zero,-872(s0)
    13c0:	ca043023          	sd	zero,-864(s0)
    13c4:	ca043423          	sd	zero,-856(s0)
    13c8:	ca043823          	sd	zero,-848(s0)
    13cc:	ca043c23          	sd	zero,-840(s0)
    13d0:	cc043023          	sd	zero,-832(s0)
    13d4:	cc043423          	sd	zero,-824(s0)
    13d8:	cc043823          	sd	zero,-816(s0)
    13dc:	cc043c23          	sd	zero,-808(s0)
    13e0:	ce043023          	sd	zero,-800(s0)
    13e4:	ce043423          	sd	zero,-792(s0)
    13e8:	ce043823          	sd	zero,-784(s0)
    13ec:	ce043c23          	sd	zero,-776(s0)
    13f0:	d0043023          	sd	zero,-768(s0)
    13f4:	d0043423          	sd	zero,-760(s0)
    13f8:	d0043823          	sd	zero,-752(s0)
    13fc:	d0043c23          	sd	zero,-744(s0)
    1400:	d2043023          	sd	zero,-736(s0)
    1404:	d2043423          	sd	zero,-728(s0)
    1408:	d2043823          	sd	zero,-720(s0)
    140c:	d2043c23          	sd	zero,-712(s0)
    1410:	d4043023          	sd	zero,-704(s0)
    1414:	d4043423          	sd	zero,-696(s0)
    1418:	d4043823          	sd	zero,-688(s0)
    141c:	d4043c23          	sd	zero,-680(s0)
    1420:	d6043023          	sd	zero,-672(s0)
    1424:	d6043423          	sd	zero,-664(s0)
    1428:	d6043823          	sd	zero,-656(s0)
    142c:	d6043c23          	sd	zero,-648(s0)
    1430:	d8043023          	sd	zero,-640(s0)
    1434:	d8043423          	sd	zero,-632(s0)
    1438:	d8043823          	sd	zero,-624(s0)
    143c:	d8043c23          	sd	zero,-616(s0)
    1440:	da043023          	sd	zero,-608(s0)
    1444:	da043423          	sd	zero,-600(s0)
    1448:	da043823          	sd	zero,-592(s0)
    144c:	da043c23          	sd	zero,-584(s0)
    1450:	dc043023          	sd	zero,-576(s0)
    1454:	00000d13          	li	s10,0
    1458:	dc043423          	sd	zero,-568(s0)
    145c:	00000093          	li	ra,0
    1460:	00000d93          	li	s11,0
    1464:	00000c93          	li	s9,0
    1468:	de043423          	sd	zero,-536(s0)
    146c:	00000a13          	li	s4,0
    1470:	00000993          	li	s3,0
    1474:	00000913          	li	s2,0
    1478:	00000493          	li	s1,0
    147c:	00000f93          	li	t6,0
    1480:	00000e93          	li	t4,0
    1484:	00000e13          	li	t3,0
    1488:	00000693          	li	a3,0
    148c:	00000613          	li	a2,0
    1490:	00000593          	li	a1,0
    1494:	00000513          	li	a0,0
    1498:	00000393          	li	t2,0
    149c:	00000313          	li	t1,0
    14a0:	00000293          	li	t0,0
    14a4:	00000893          	li	a7,0
    14a8:	00000813          	li	a6,0
    14ac:	00000793          	li	a5,0
    14b0:	00000713          	li	a4,0

00000000000014b4 <.LBB80_5>:
    14b4:	efa43c23          	sd	s10,-264(s0)
    14b8:	00001c37          	lui	s8,0x1
    14bc:	41840c33          	sub	s8,s0,s8
    14c0:	677c3c23          	sd	s7,1656(s8) # 1678 <.LBB80_5+0x1c4>
    14c4:	f7543423          	sd	s5,-152(s0)
    14c8:	00001c37          	lui	s8,0x1
    14cc:	41840c33          	sub	s8,s0,s8
    14d0:	69ec3023          	sd	t5,1664(s8) # 1680 <.LBB80_5+0x1cc>
    14d4:	dc143823          	sd	ra,-560(s0)
    14d8:	ddb43c23          	sd	s11,-552(s0)
    14dc:	df943023          	sd	s9,-544(s0)
    14e0:	df443823          	sd	s4,-528(s0)
    14e4:	df343c23          	sd	s3,-520(s0)
    14e8:	e1243023          	sd	s2,-512(s0)
    14ec:	e0943423          	sd	s1,-504(s0)
    14f0:	e1f43823          	sd	t6,-496(s0)
    14f4:	e1d43c23          	sd	t4,-488(s0)
    14f8:	e3c43023          	sd	t3,-480(s0)
    14fc:	f0d43023          	sd	a3,-256(s0)
    1500:	f0c43423          	sd	a2,-248(s0)
    1504:	f0b43823          	sd	a1,-240(s0)
    1508:	f0a43c23          	sd	a0,-232(s0)
    150c:	e2743423          	sd	t2,-472(s0)
    1510:	e2643823          	sd	t1,-464(s0)
    1514:	e2543c23          	sd	t0,-456(s0)
    1518:	e5143023          	sd	a7,-448(s0)
    151c:	e5043423          	sd	a6,-440(s0)
    1520:	e4f43823          	sd	a5,-432(s0)
    1524:	e4e43c23          	sd	a4,-424(s0)
    1528:	000a8503          	lb	a0,0(s5)
    152c:	002b8583          	lb	a1,2(s7)
    1530:	f2b43423          	sd	a1,-216(s0)
    1534:	001b8683          	lb	a3,1(s7)
    1538:	f2d43023          	sd	a3,-224(s0)
    153c:	000b8703          	lb	a4,0(s7)
    1540:	eae43423          	sd	a4,-344(s0)
    1544:	003b8783          	lb	a5,3(s7)
    1548:	f6f43c23          	sd	a5,-136(s0)
    154c:	004b8803          	lb	a6,4(s7)
    1550:	f3043823          	sd	a6,-208(s0)
    1554:	005b8d83          	lb	s11,5(s7)
    1558:	f9b43023          	sd	s11,-128(s0)
    155c:	006b8083          	lb	ra,6(s7)
    1560:	007b8883          	lb	a7,7(s7)
    1564:	eb143c23          	sd	a7,-328(s0)
    1568:	008b8d03          	lb	s10,8(s7)
    156c:	009b8603          	lb	a2,9(s7)
    1570:	f2c43c23          	sd	a2,-200(s0)
    1574:	00ab8983          	lb	s3,10(s7)
    1578:	e7343c23          	sd	s3,-392(s0)
    157c:	00bb8603          	lb	a2,11(s7)
    1580:	e6c43023          	sd	a2,-416(s0)
    1584:	00cb8283          	lb	t0,12(s7)
    1588:	e8543023          	sd	t0,-384(s0)
    158c:	00db8303          	lb	t1,13(s7)
    1590:	e8643423          	sd	t1,-376(s0)
    1594:	00eb8383          	lb	t2,14(s7)
    1598:	ec743423          	sd	t2,-312(s0)
    159c:	00fb8e03          	lb	t3,15(s7)
    15a0:	e9c43823          	sd	t3,-368(s0)
    15a4:	010b8e83          	lb	t4,16(s7)
    15a8:	011b8f03          	lb	t5,17(s7)
    15ac:	012b8f83          	lb	t6,18(s7)
    15b0:	eff43023          	sd	t6,-288(s0)
    15b4:	013b8483          	lb	s1,19(s7)
    15b8:	ea943823          	sd	s1,-336(s0)
    15bc:	014b8c83          	lb	s9,20(s7)
    15c0:	ef943423          	sd	s9,-280(s0)
    15c4:	015b8c03          	lb	s8,21(s7)
    15c8:	016b8a83          	lb	s5,22(s7)
    15cc:	ef543823          	sd	s5,-272(s0)
    15d0:	017b8903          	lb	s2,23(s7)
    15d4:	ed243023          	sd	s2,-320(s0)
    15d8:	018b8a03          	lb	s4,24(s7)
    15dc:	f5443423          	sd	s4,-184(s0)
    15e0:	02b505b3          	mul	a1,a0,a1
    15e4:	00001637          	lui	a2,0x1
    15e8:	40c40633          	sub	a2,s0,a2
    15ec:	78063603          	ld	a2,1920(a2) # 1780 <.LBB80_5+0x2cc>
    15f0:	00c58633          	add	a2,a1,a2
    15f4:	000015b7          	lui	a1,0x1
    15f8:	40b405b3          	sub	a1,s0,a1
    15fc:	78c5b023          	sd	a2,1920(a1) # 1780 <.LBB80_5+0x2cc>
    1600:	02d505b3          	mul	a1,a0,a3
    1604:	00001637          	lui	a2,0x1
    1608:	40c40633          	sub	a2,s0,a2
    160c:	77063603          	ld	a2,1904(a2) # 1770 <.LBB80_5+0x2bc>
    1610:	00c58633          	add	a2,a1,a2
    1614:	000015b7          	lui	a1,0x1
    1618:	40b405b3          	sub	a1,s0,a1
    161c:	76c5b823          	sd	a2,1904(a1) # 1770 <.LBB80_5+0x2bc>
    1620:	02e505b3          	mul	a1,a0,a4
    1624:	00001637          	lui	a2,0x1
    1628:	40c40633          	sub	a2,s0,a2
    162c:	76863603          	ld	a2,1896(a2) # 1768 <.LBB80_5+0x2b4>
    1630:	00c58633          	add	a2,a1,a2
    1634:	000015b7          	lui	a1,0x1
    1638:	40b405b3          	sub	a1,s0,a1
    163c:	76c5b423          	sd	a2,1896(a1) # 1768 <.LBB80_5+0x2b4>
    1640:	02f505b3          	mul	a1,a0,a5
    1644:	00001637          	lui	a2,0x1
    1648:	40c40633          	sub	a2,s0,a2
    164c:	79863603          	ld	a2,1944(a2) # 1798 <.LBB80_5+0x2e4>
    1650:	00c58633          	add	a2,a1,a2
    1654:	000015b7          	lui	a1,0x1
    1658:	40b405b3          	sub	a1,s0,a1
    165c:	78c5bc23          	sd	a2,1944(a1) # 1798 <.LBB80_5+0x2e4>
    1660:	030505b3          	mul	a1,a0,a6
    1664:	00001637          	lui	a2,0x1
    1668:	40c40633          	sub	a2,s0,a2
    166c:	76063603          	ld	a2,1888(a2) # 1760 <.LBB80_5+0x2ac>
    1670:	00c58633          	add	a2,a1,a2
    1674:	000015b7          	lui	a1,0x1
    1678:	40b405b3          	sub	a1,s0,a1
    167c:	76c5b023          	sd	a2,1888(a1) # 1760 <.LBB80_5+0x2ac>
    1680:	03b505b3          	mul	a1,a0,s11
    1684:	01658b33          	add	s6,a1,s6
    1688:	000015b7          	lui	a1,0x1
    168c:	40b405b3          	sub	a1,s0,a1
    1690:	6965b423          	sd	s6,1672(a1) # 1688 <.LBB80_5+0x1d4>
    1694:	021505b3          	mul	a1,a0,ra
    1698:	00008693          	mv	a3,ra
    169c:	f4143023          	sd	ra,-192(s0)
    16a0:	00001637          	lui	a2,0x1
    16a4:	40c40633          	sub	a2,s0,a2
    16a8:	75863603          	ld	a2,1880(a2) # 1758 <.LBB80_5+0x2a4>
    16ac:	00c58633          	add	a2,a1,a2
    16b0:	000015b7          	lui	a1,0x1
    16b4:	40b405b3          	sub	a1,s0,a1
    16b8:	74c5bc23          	sd	a2,1880(a1) # 1758 <.LBB80_5+0x2a4>
    16bc:	031505b3          	mul	a1,a0,a7
    16c0:	00001637          	lui	a2,0x1
    16c4:	40c40633          	sub	a2,s0,a2
    16c8:	75063603          	ld	a2,1872(a2) # 1750 <.LBB80_5+0x29c>
    16cc:	00c58633          	add	a2,a1,a2
    16d0:	000015b7          	lui	a1,0x1
    16d4:	40b405b3          	sub	a1,s0,a1
    16d8:	74c5b823          	sd	a2,1872(a1) # 1750 <.LBB80_5+0x29c>
    16dc:	03a505b3          	mul	a1,a0,s10
    16e0:	00001637          	lui	a2,0x1
    16e4:	40c40633          	sub	a2,s0,a2
    16e8:	74863603          	ld	a2,1864(a2) # 1748 <.LBB80_5+0x294>
    16ec:	00c58633          	add	a2,a1,a2
    16f0:	000015b7          	lui	a1,0x1
    16f4:	40b405b3          	sub	a1,s0,a1
    16f8:	74c5b423          	sd	a2,1864(a1) # 1748 <.LBB80_5+0x294>
    16fc:	f3843783          	ld	a5,-200(s0)
    1700:	02f505b3          	mul	a1,a0,a5
    1704:	00001637          	lui	a2,0x1
    1708:	40c40633          	sub	a2,s0,a2
    170c:	74063603          	ld	a2,1856(a2) # 1740 <.LBB80_5+0x28c>
    1710:	00c58633          	add	a2,a1,a2
    1714:	000015b7          	lui	a1,0x1
    1718:	40b405b3          	sub	a1,s0,a1
    171c:	74c5b023          	sd	a2,1856(a1) # 1740 <.LBB80_5+0x28c>
    1720:	033505b3          	mul	a1,a0,s3
    1724:	00001637          	lui	a2,0x1
    1728:	40c40633          	sub	a2,s0,a2
    172c:	73863603          	ld	a2,1848(a2) # 1738 <.LBB80_5+0x284>
    1730:	00c58633          	add	a2,a1,a2
    1734:	000015b7          	lui	a1,0x1
    1738:	40b405b3          	sub	a1,s0,a1
    173c:	72c5bc23          	sd	a2,1848(a1) # 1738 <.LBB80_5+0x284>
    1740:	e6043983          	ld	s3,-416(s0)
    1744:	033505b3          	mul	a1,a0,s3
    1748:	00001637          	lui	a2,0x1
    174c:	40c40633          	sub	a2,s0,a2
    1750:	73063603          	ld	a2,1840(a2) # 1730 <.LBB80_5+0x27c>
    1754:	00c58633          	add	a2,a1,a2
    1758:	000015b7          	lui	a1,0x1
    175c:	40b405b3          	sub	a1,s0,a1
    1760:	72c5b823          	sd	a2,1840(a1) # 1730 <.LBB80_5+0x27c>
    1764:	025505b3          	mul	a1,a0,t0
    1768:	00001637          	lui	a2,0x1
    176c:	40c40633          	sub	a2,s0,a2
    1770:	72863603          	ld	a2,1832(a2) # 1728 <.LBB80_5+0x274>
    1774:	00c58633          	add	a2,a1,a2
    1778:	000015b7          	lui	a1,0x1
    177c:	40b405b3          	sub	a1,s0,a1
    1780:	72c5b423          	sd	a2,1832(a1) # 1728 <.LBB80_5+0x274>
    1784:	026505b3          	mul	a1,a0,t1
    1788:	00001637          	lui	a2,0x1
    178c:	40c40633          	sub	a2,s0,a2
    1790:	72063603          	ld	a2,1824(a2) # 1720 <.LBB80_5+0x26c>
    1794:	00c58633          	add	a2,a1,a2
    1798:	000015b7          	lui	a1,0x1
    179c:	40b405b3          	sub	a1,s0,a1
    17a0:	72c5b023          	sd	a2,1824(a1) # 1720 <.LBB80_5+0x26c>
    17a4:	027505b3          	mul	a1,a0,t2
    17a8:	00001637          	lui	a2,0x1
    17ac:	40c40633          	sub	a2,s0,a2
    17b0:	71863603          	ld	a2,1816(a2) # 1718 <.LBB80_5+0x264>
    17b4:	00c58633          	add	a2,a1,a2
    17b8:	000015b7          	lui	a1,0x1
    17bc:	40b405b3          	sub	a1,s0,a1
    17c0:	70c5bc23          	sd	a2,1816(a1) # 1718 <.LBB80_5+0x264>
    17c4:	03c505b3          	mul	a1,a0,t3
    17c8:	00001637          	lui	a2,0x1
    17cc:	40c40633          	sub	a2,s0,a2
    17d0:	71063603          	ld	a2,1808(a2) # 1710 <.LBB80_5+0x25c>
    17d4:	00c58633          	add	a2,a1,a2
    17d8:	000015b7          	lui	a1,0x1
    17dc:	40b405b3          	sub	a1,s0,a1
    17e0:	70c5b823          	sd	a2,1808(a1) # 1710 <.LBB80_5+0x25c>
    17e4:	03d505b3          	mul	a1,a0,t4
    17e8:	000e8e13          	mv	t3,t4
    17ec:	00001637          	lui	a2,0x1
    17f0:	40c40633          	sub	a2,s0,a2
    17f4:	70863603          	ld	a2,1800(a2) # 1708 <.LBB80_5+0x254>
    17f8:	00c58633          	add	a2,a1,a2
    17fc:	000015b7          	lui	a1,0x1
    1800:	40b405b3          	sub	a1,s0,a1
    1804:	70c5b423          	sd	a2,1800(a1) # 1708 <.LBB80_5+0x254>
    1808:	03e505b3          	mul	a1,a0,t5
    180c:	000f0313          	mv	t1,t5
    1810:	00001637          	lui	a2,0x1
    1814:	40c40633          	sub	a2,s0,a2
    1818:	70063603          	ld	a2,1792(a2) # 1700 <.LBB80_5+0x24c>
    181c:	00c58633          	add	a2,a1,a2
    1820:	000015b7          	lui	a1,0x1
    1824:	40b405b3          	sub	a1,s0,a1
    1828:	70c5b023          	sd	a2,1792(a1) # 1700 <.LBB80_5+0x24c>
    182c:	03f505b3          	mul	a1,a0,t6
    1830:	00001637          	lui	a2,0x1
    1834:	40c40633          	sub	a2,s0,a2
    1838:	6f863603          	ld	a2,1784(a2) # 16f8 <.LBB80_5+0x244>
    183c:	00c58633          	add	a2,a1,a2
    1840:	000015b7          	lui	a1,0x1
    1844:	40b405b3          	sub	a1,s0,a1
    1848:	6ec5bc23          	sd	a2,1784(a1) # 16f8 <.LBB80_5+0x244>
    184c:	029505b3          	mul	a1,a0,s1
    1850:	00001637          	lui	a2,0x1
    1854:	40c40633          	sub	a2,s0,a2
    1858:	6f063603          	ld	a2,1776(a2) # 16f0 <.LBB80_5+0x23c>
    185c:	00c58633          	add	a2,a1,a2
    1860:	000015b7          	lui	a1,0x1
    1864:	40b405b3          	sub	a1,s0,a1
    1868:	6ec5b823          	sd	a2,1776(a1) # 16f0 <.LBB80_5+0x23c>
    186c:	039505b3          	mul	a1,a0,s9
    1870:	00001637          	lui	a2,0x1
    1874:	40c40633          	sub	a2,s0,a2
    1878:	6e863603          	ld	a2,1768(a2) # 16e8 <.LBB80_5+0x234>
    187c:	00c58633          	add	a2,a1,a2
    1880:	000015b7          	lui	a1,0x1
    1884:	40b405b3          	sub	a1,s0,a1
    1888:	6ec5b423          	sd	a2,1768(a1) # 16e8 <.LBB80_5+0x234>
    188c:	038505b3          	mul	a1,a0,s8
    1890:	00001637          	lui	a2,0x1
    1894:	40c40633          	sub	a2,s0,a2
    1898:	6e063603          	ld	a2,1760(a2) # 16e0 <.LBB80_5+0x22c>
    189c:	00c58633          	add	a2,a1,a2
    18a0:	000015b7          	lui	a1,0x1
    18a4:	40b405b3          	sub	a1,s0,a1
    18a8:	6ec5b023          	sd	a2,1760(a1) # 16e0 <.LBB80_5+0x22c>
    18ac:	035505b3          	mul	a1,a0,s5
    18b0:	00001637          	lui	a2,0x1
    18b4:	40c40633          	sub	a2,s0,a2
    18b8:	6a063603          	ld	a2,1696(a2) # 16a0 <.LBB80_5+0x1ec>
    18bc:	00c58633          	add	a2,a1,a2
    18c0:	000015b7          	lui	a1,0x1
    18c4:	40b405b3          	sub	a1,s0,a1
    18c8:	6ac5b023          	sd	a2,1696(a1) # 16a0 <.LBB80_5+0x1ec>
    18cc:	032505b3          	mul	a1,a0,s2
    18d0:	00001637          	lui	a2,0x1
    18d4:	40c40633          	sub	a2,s0,a2
    18d8:	69863603          	ld	a2,1688(a2) # 1698 <.LBB80_5+0x1e4>
    18dc:	00c58633          	add	a2,a1,a2
    18e0:	000015b7          	lui	a1,0x1
    18e4:	40b405b3          	sub	a1,s0,a1
    18e8:	68c5bc23          	sd	a2,1688(a1) # 1698 <.LBB80_5+0x1e4>
    18ec:	019b8703          	lb	a4,25(s7)
    18f0:	f6e43023          	sd	a4,-160(s0)
    18f4:	034505b3          	mul	a1,a0,s4
    18f8:	00001637          	lui	a2,0x1
    18fc:	40c40633          	sub	a2,s0,a2
    1900:	6d863603          	ld	a2,1752(a2) # 16d8 <.LBB80_5+0x224>
    1904:	00c58633          	add	a2,a1,a2
    1908:	000015b7          	lui	a1,0x1
    190c:	40b405b3          	sub	a1,s0,a1
    1910:	6cc5bc23          	sd	a2,1752(a1) # 16d8 <.LBB80_5+0x224>
    1914:	01ab8803          	lb	a6,26(s7)
    1918:	f5043c23          	sd	a6,-168(s0)
    191c:	02e505b3          	mul	a1,a0,a4
    1920:	00001637          	lui	a2,0x1
    1924:	40c40633          	sub	a2,s0,a2
    1928:	6d063603          	ld	a2,1744(a2) # 16d0 <.LBB80_5+0x21c>
    192c:	00c58633          	add	a2,a1,a2
    1930:	000015b7          	lui	a1,0x1
    1934:	40b405b3          	sub	a1,s0,a1
    1938:	6cc5b823          	sd	a2,1744(a1) # 16d0 <.LBB80_5+0x21c>
    193c:	01bb8703          	lb	a4,27(s7)
    1940:	f4e43823          	sd	a4,-176(s0)
    1944:	030505b3          	mul	a1,a0,a6
    1948:	00001637          	lui	a2,0x1
    194c:	40c40633          	sub	a2,s0,a2
    1950:	6c863603          	ld	a2,1736(a2) # 16c8 <.LBB80_5+0x214>
    1954:	00c58633          	add	a2,a1,a2
    1958:	000015b7          	lui	a1,0x1
    195c:	40b405b3          	sub	a1,s0,a1
    1960:	6cc5b423          	sd	a2,1736(a1) # 16c8 <.LBB80_5+0x214>
    1964:	01cb8803          	lb	a6,28(s7)
    1968:	02e505b3          	mul	a1,a0,a4
    196c:	00001637          	lui	a2,0x1
    1970:	40c40633          	sub	a2,s0,a2
    1974:	6c063603          	ld	a2,1728(a2) # 16c0 <.LBB80_5+0x20c>
    1978:	00c58633          	add	a2,a1,a2
    197c:	000015b7          	lui	a1,0x1
    1980:	40b405b3          	sub	a1,s0,a1
    1984:	6cc5b023          	sd	a2,1728(a1) # 16c0 <.LBB80_5+0x20c>
    1988:	01db8f03          	lb	t5,29(s7)
    198c:	030505b3          	mul	a1,a0,a6
    1990:	00080093          	mv	ra,a6
    1994:	00001637          	lui	a2,0x1
    1998:	40c40633          	sub	a2,s0,a2
    199c:	6b863603          	ld	a2,1720(a2) # 16b8 <.LBB80_5+0x204>
    19a0:	00c58633          	add	a2,a1,a2
    19a4:	000015b7          	lui	a1,0x1
    19a8:	40b405b3          	sub	a1,s0,a1
    19ac:	6ac5bc23          	sd	a2,1720(a1) # 16b8 <.LBB80_5+0x204>
    19b0:	01eb8c83          	lb	s9,30(s7)
    19b4:	03e505b3          	mul	a1,a0,t5
    19b8:	ebe43023          	sd	t5,-352(s0)
    19bc:	00001637          	lui	a2,0x1
    19c0:	40c40633          	sub	a2,s0,a2
    19c4:	6b063603          	ld	a2,1712(a2) # 16b0 <.LBB80_5+0x1fc>
    19c8:	00c58633          	add	a2,a1,a2
    19cc:	000015b7          	lui	a1,0x1
    19d0:	40b405b3          	sub	a1,s0,a1
    19d4:	6ac5b823          	sd	a2,1712(a1) # 16b0 <.LBB80_5+0x1fc>
    19d8:	01fb8583          	lb	a1,31(s7)
    19dc:	f6843603          	ld	a2,-152(s0)
    19e0:	24060b83          	lb	s7,576(a2)
    19e4:	03950db3          	mul	s11,a0,s9
    19e8:	00001637          	lui	a2,0x1
    19ec:	40c40633          	sub	a2,s0,a2
    19f0:	69063603          	ld	a2,1680(a2) # 1690 <.LBB80_5+0x1dc>
    19f4:	00cd8633          	add	a2,s11,a2
    19f8:	00001737          	lui	a4,0x1
    19fc:	40e40733          	sub	a4,s0,a4
    1a00:	68c73823          	sd	a2,1680(a4) # 1690 <.LBB80_5+0x1dc>
    1a04:	02b50533          	mul	a0,a0,a1
    1a08:	00058b13          	mv	s6,a1
    1a0c:	e6b43423          	sd	a1,-408(s0)
    1a10:	000015b7          	lui	a1,0x1
    1a14:	40b405b3          	sub	a1,s0,a1
    1a18:	6a85b603          	ld	a2,1704(a1) # 16a8 <.LBB80_5+0x1f4>
    1a1c:	00c50633          	add	a2,a0,a2
    1a20:	00001537          	lui	a0,0x1
    1a24:	40a40533          	sub	a0,s0,a0
    1a28:	6ac53423          	sd	a2,1704(a0) # 16a8 <.LBB80_5+0x1f4>
    1a2c:	ea843883          	ld	a7,-344(s0)
    1a30:	031b8533          	mul	a0,s7,a7
    1a34:	000015b7          	lui	a1,0x1
    1a38:	40b405b3          	sub	a1,s0,a1
    1a3c:	7785b603          	ld	a2,1912(a1) # 1778 <.LBB80_5+0x2c4>
    1a40:	00c50633          	add	a2,a0,a2
    1a44:	00001537          	lui	a0,0x1
    1a48:	40a40533          	sub	a0,s0,a0
    1a4c:	76c53c23          	sd	a2,1912(a0) # 1778 <.LBB80_5+0x2c4>
    1a50:	f2043803          	ld	a6,-224(s0)
    1a54:	030b8533          	mul	a0,s7,a6
    1a58:	000015b7          	lui	a1,0x1
    1a5c:	40b405b3          	sub	a1,s0,a1
    1a60:	7885b603          	ld	a2,1928(a1) # 1788 <.LBB80_5+0x2d4>
    1a64:	00c50633          	add	a2,a0,a2
    1a68:	00001537          	lui	a0,0x1
    1a6c:	40a40533          	sub	a0,s0,a0
    1a70:	78c53423          	sd	a2,1928(a0) # 1788 <.LBB80_5+0x2d4>
    1a74:	f2843383          	ld	t2,-216(s0)
    1a78:	027b8533          	mul	a0,s7,t2
    1a7c:	000015b7          	lui	a1,0x1
    1a80:	40b405b3          	sub	a1,s0,a1
    1a84:	7905b603          	ld	a2,1936(a1) # 1790 <.LBB80_5+0x2dc>
    1a88:	00c50633          	add	a2,a0,a2
    1a8c:	00001537          	lui	a0,0x1
    1a90:	40a40533          	sub	a0,s0,a0
    1a94:	78c53823          	sd	a2,1936(a0) # 1790 <.LBB80_5+0x2dc>
    1a98:	f7843503          	ld	a0,-136(s0)
    1a9c:	02ab8533          	mul	a0,s7,a0
    1aa0:	000015b7          	lui	a1,0x1
    1aa4:	40b405b3          	sub	a1,s0,a1
    1aa8:	7a05b603          	ld	a2,1952(a1) # 17a0 <.LBB80_5+0x2ec>
    1aac:	00c50633          	add	a2,a0,a2
    1ab0:	00001537          	lui	a0,0x1
    1ab4:	40a40533          	sub	a0,s0,a0
    1ab8:	7ac53023          	sd	a2,1952(a0) # 17a0 <.LBB80_5+0x2ec>
    1abc:	f3043283          	ld	t0,-208(s0)
    1ac0:	025b8533          	mul	a0,s7,t0
    1ac4:	000015b7          	lui	a1,0x1
    1ac8:	40b405b3          	sub	a1,s0,a1
    1acc:	7a85b603          	ld	a2,1960(a1) # 17a8 <.LBB80_5+0x2f4>
    1ad0:	00c50633          	add	a2,a0,a2
    1ad4:	00001537          	lui	a0,0x1
    1ad8:	40a40533          	sub	a0,s0,a0
    1adc:	7ac53423          	sd	a2,1960(a0) # 17a8 <.LBB80_5+0x2f4>
    1ae0:	f8043703          	ld	a4,-128(s0)
    1ae4:	02eb8533          	mul	a0,s7,a4
    1ae8:	000015b7          	lui	a1,0x1
    1aec:	40b405b3          	sub	a1,s0,a1
    1af0:	7b05b603          	ld	a2,1968(a1) # 17b0 <.LBB80_5+0x2fc>
    1af4:	00c50633          	add	a2,a0,a2
    1af8:	00001537          	lui	a0,0x1
    1afc:	40a40533          	sub	a0,s0,a0
    1b00:	7ac53823          	sd	a2,1968(a0) # 17b0 <.LBB80_5+0x2fc>
    1b04:	02db8533          	mul	a0,s7,a3
    1b08:	000015b7          	lui	a1,0x1
    1b0c:	40b405b3          	sub	a1,s0,a1
    1b10:	7b85b603          	ld	a2,1976(a1) # 17b8 <.LBB80_5+0x304>
    1b14:	00c50633          	add	a2,a0,a2
    1b18:	00001537          	lui	a0,0x1
    1b1c:	40a40533          	sub	a0,s0,a0
    1b20:	7ac53c23          	sd	a2,1976(a0) # 17b8 <.LBB80_5+0x304>
    1b24:	eb843683          	ld	a3,-328(s0)
    1b28:	02db8533          	mul	a0,s7,a3
    1b2c:	000015b7          	lui	a1,0x1
    1b30:	40b405b3          	sub	a1,s0,a1
    1b34:	7c05b603          	ld	a2,1984(a1) # 17c0 <.LBB80_5+0x30c>
    1b38:	00c50633          	add	a2,a0,a2
    1b3c:	00001537          	lui	a0,0x1
    1b40:	40a40533          	sub	a0,s0,a0
    1b44:	7cc53023          	sd	a2,1984(a0) # 17c0 <.LBB80_5+0x30c>
    1b48:	03ab8533          	mul	a0,s7,s10
    1b4c:	000015b7          	lui	a1,0x1
    1b50:	40b405b3          	sub	a1,s0,a1
    1b54:	7c85b603          	ld	a2,1992(a1) # 17c8 <.LBB80_5+0x314>
    1b58:	00c50633          	add	a2,a0,a2
    1b5c:	00001537          	lui	a0,0x1
    1b60:	40a40533          	sub	a0,s0,a0
    1b64:	7cc53423          	sd	a2,1992(a0) # 17c8 <.LBB80_5+0x314>
    1b68:	02fb8533          	mul	a0,s7,a5
    1b6c:	000015b7          	lui	a1,0x1
    1b70:	40b405b3          	sub	a1,s0,a1
    1b74:	7d05b603          	ld	a2,2000(a1) # 17d0 <.LBB80_5+0x31c>
    1b78:	00c50633          	add	a2,a0,a2
    1b7c:	00001537          	lui	a0,0x1
    1b80:	40a40533          	sub	a0,s0,a0
    1b84:	7cc53823          	sd	a2,2000(a0) # 17d0 <.LBB80_5+0x31c>
    1b88:	e7843a03          	ld	s4,-392(s0)
    1b8c:	034b8533          	mul	a0,s7,s4
    1b90:	000015b7          	lui	a1,0x1
    1b94:	40b405b3          	sub	a1,s0,a1
    1b98:	7d85b603          	ld	a2,2008(a1) # 17d8 <.LBB80_5+0x324>
    1b9c:	00c50633          	add	a2,a0,a2
    1ba0:	00001537          	lui	a0,0x1
    1ba4:	40a40533          	sub	a0,s0,a0
    1ba8:	7cc53c23          	sd	a2,2008(a0) # 17d8 <.LBB80_5+0x324>
    1bac:	033b8533          	mul	a0,s7,s3
    1bb0:	000015b7          	lui	a1,0x1
    1bb4:	40b405b3          	sub	a1,s0,a1
    1bb8:	7e05b603          	ld	a2,2016(a1) # 17e0 <.LBB80_5+0x32c>
    1bbc:	00c50633          	add	a2,a0,a2
    1bc0:	00001537          	lui	a0,0x1
    1bc4:	40a40533          	sub	a0,s0,a0
    1bc8:	7ec53023          	sd	a2,2016(a0) # 17e0 <.LBB80_5+0x32c>
    1bcc:	e8043903          	ld	s2,-384(s0)
    1bd0:	032b8533          	mul	a0,s7,s2
    1bd4:	000015b7          	lui	a1,0x1
    1bd8:	40b405b3          	sub	a1,s0,a1
    1bdc:	7e85b603          	ld	a2,2024(a1) # 17e8 <.LBB80_5+0x334>
    1be0:	00c50633          	add	a2,a0,a2
    1be4:	00001537          	lui	a0,0x1
    1be8:	40a40533          	sub	a0,s0,a0
    1bec:	7ec53423          	sd	a2,2024(a0) # 17e8 <.LBB80_5+0x334>
    1bf0:	e8843483          	ld	s1,-376(s0)
    1bf4:	029b8533          	mul	a0,s7,s1
    1bf8:	000015b7          	lui	a1,0x1
    1bfc:	40b405b3          	sub	a1,s0,a1
    1c00:	7f05b603          	ld	a2,2032(a1) # 17f0 <.LBB80_5+0x33c>
    1c04:	00c50633          	add	a2,a0,a2
    1c08:	00001537          	lui	a0,0x1
    1c0c:	40a40533          	sub	a0,s0,a0
    1c10:	7ec53823          	sd	a2,2032(a0) # 17f0 <.LBB80_5+0x33c>
    1c14:	ec843f83          	ld	t6,-312(s0)
    1c18:	03fb8533          	mul	a0,s7,t6
    1c1c:	000015b7          	lui	a1,0x1
    1c20:	40b405b3          	sub	a1,s0,a1
    1c24:	7f85b603          	ld	a2,2040(a1) # 17f8 <.LBB80_5+0x344>
    1c28:	00c50633          	add	a2,a0,a2
    1c2c:	00001537          	lui	a0,0x1
    1c30:	40a40533          	sub	a0,s0,a0
    1c34:	7ec53c23          	sd	a2,2040(a0) # 17f8 <.LBB80_5+0x344>
    1c38:	e9043e83          	ld	t4,-368(s0)
    1c3c:	03db8533          	mul	a0,s7,t4
    1c40:	80043603          	ld	a2,-2048(s0)
    1c44:	00c50633          	add	a2,a0,a2
    1c48:	80c43023          	sd	a2,-2048(s0)
    1c4c:	e9c43c23          	sd	t3,-360(s0)
    1c50:	03cb8533          	mul	a0,s7,t3
    1c54:	80843603          	ld	a2,-2040(s0)
    1c58:	00c50633          	add	a2,a0,a2
    1c5c:	80c43423          	sd	a2,-2040(s0)
    1c60:	ec643823          	sd	t1,-304(s0)
    1c64:	026b8533          	mul	a0,s7,t1
    1c68:	81043603          	ld	a2,-2032(s0)
    1c6c:	00c50633          	add	a2,a0,a2
    1c70:	80c43823          	sd	a2,-2032(s0)
    1c74:	ee043503          	ld	a0,-288(s0)
    1c78:	02ab8533          	mul	a0,s7,a0
    1c7c:	81843603          	ld	a2,-2024(s0)
    1c80:	00c50633          	add	a2,a0,a2
    1c84:	80c43c23          	sd	a2,-2024(s0)
    1c88:	eb043a83          	ld	s5,-336(s0)
    1c8c:	035b8533          	mul	a0,s7,s5
    1c90:	82043603          	ld	a2,-2016(s0)
    1c94:	00c50633          	add	a2,a0,a2
    1c98:	82c43023          	sd	a2,-2016(s0)
    1c9c:	ee843503          	ld	a0,-280(s0)
    1ca0:	02ab8533          	mul	a0,s7,a0
    1ca4:	82843603          	ld	a2,-2008(s0)
    1ca8:	00c50633          	add	a2,a0,a2
    1cac:	82c43423          	sd	a2,-2008(s0)
    1cb0:	ed843c23          	sd	s8,-296(s0)
    1cb4:	038b8533          	mul	a0,s7,s8
    1cb8:	83043603          	ld	a2,-2000(s0)
    1cbc:	00c50633          	add	a2,a0,a2
    1cc0:	82c43823          	sd	a2,-2000(s0)
    1cc4:	ef043503          	ld	a0,-272(s0)
    1cc8:	02ab8533          	mul	a0,s7,a0
    1ccc:	83843603          	ld	a2,-1992(s0)
    1cd0:	00c50633          	add	a2,a0,a2
    1cd4:	82c43c23          	sd	a2,-1992(s0)
    1cd8:	ec043783          	ld	a5,-320(s0)
    1cdc:	02fb8533          	mul	a0,s7,a5
    1ce0:	84043603          	ld	a2,-1984(s0)
    1ce4:	00c50633          	add	a2,a0,a2
    1ce8:	84c43023          	sd	a2,-1984(s0)
    1cec:	f4843583          	ld	a1,-184(s0)
    1cf0:	02bb8533          	mul	a0,s7,a1
    1cf4:	84843603          	ld	a2,-1976(s0)
    1cf8:	00c50633          	add	a2,a0,a2
    1cfc:	84c43423          	sd	a2,-1976(s0)
    1d00:	f6043503          	ld	a0,-160(s0)
    1d04:	02ab8533          	mul	a0,s7,a0
    1d08:	85043603          	ld	a2,-1968(s0)
    1d0c:	00c50633          	add	a2,a0,a2
    1d10:	84c43823          	sd	a2,-1968(s0)
    1d14:	f5843503          	ld	a0,-168(s0)
    1d18:	02ab8533          	mul	a0,s7,a0
    1d1c:	85843603          	ld	a2,-1960(s0)
    1d20:	00c50633          	add	a2,a0,a2
    1d24:	84c43c23          	sd	a2,-1960(s0)
    1d28:	f5043503          	ld	a0,-176(s0)
    1d2c:	02ab8533          	mul	a0,s7,a0
    1d30:	86043603          	ld	a2,-1952(s0)
    1d34:	00c50633          	add	a2,a0,a2
    1d38:	86c43023          	sd	a2,-1952(s0)
    1d3c:	021b8533          	mul	a0,s7,ra
    1d40:	e6143823          	sd	ra,-400(s0)
    1d44:	86843603          	ld	a2,-1944(s0)
    1d48:	00c50633          	add	a2,a0,a2
    1d4c:	86c43423          	sd	a2,-1944(s0)
    1d50:	03eb8533          	mul	a0,s7,t5
    1d54:	87043603          	ld	a2,-1936(s0)
    1d58:	00c50633          	add	a2,a0,a2
    1d5c:	86c43823          	sd	a2,-1936(s0)
    1d60:	f6843503          	ld	a0,-152(s0)
    1d64:	48050503          	lb	a0,1152(a0)
    1d68:	039b8db3          	mul	s11,s7,s9
    1d6c:	87843603          	ld	a2,-1928(s0)
    1d70:	00cd8633          	add	a2,s11,a2
    1d74:	86c43c23          	sd	a2,-1928(s0)
    1d78:	036b8bb3          	mul	s7,s7,s6
    1d7c:	88043603          	ld	a2,-1920(s0)
    1d80:	00cb8633          	add	a2,s7,a2
    1d84:	88c43023          	sd	a2,-1920(s0)
    1d88:	03150bb3          	mul	s7,a0,a7
    1d8c:	88843603          	ld	a2,-1912(s0)
    1d90:	00cb8633          	add	a2,s7,a2
    1d94:	88c43423          	sd	a2,-1912(s0)
    1d98:	03050bb3          	mul	s7,a0,a6
    1d9c:	89043603          	ld	a2,-1904(s0)
    1da0:	00cb8633          	add	a2,s7,a2
    1da4:	88c43823          	sd	a2,-1904(s0)
    1da8:	02750bb3          	mul	s7,a0,t2
    1dac:	89843603          	ld	a2,-1896(s0)
    1db0:	00cb8633          	add	a2,s7,a2
    1db4:	88c43c23          	sd	a2,-1896(s0)
    1db8:	f7843883          	ld	a7,-136(s0)
    1dbc:	03150bb3          	mul	s7,a0,a7
    1dc0:	8a043603          	ld	a2,-1888(s0)
    1dc4:	00cb8633          	add	a2,s7,a2
    1dc8:	8ac43023          	sd	a2,-1888(s0)
    1dcc:	02550bb3          	mul	s7,a0,t0
    1dd0:	8a843603          	ld	a2,-1880(s0)
    1dd4:	00cb8633          	add	a2,s7,a2
    1dd8:	8ac43423          	sd	a2,-1880(s0)
    1ddc:	02e50bb3          	mul	s7,a0,a4
    1de0:	8b043603          	ld	a2,-1872(s0)
    1de4:	00cb8633          	add	a2,s7,a2
    1de8:	8ac43823          	sd	a2,-1872(s0)
    1dec:	f4043f03          	ld	t5,-192(s0)
    1df0:	03e50bb3          	mul	s7,a0,t5
    1df4:	8b843603          	ld	a2,-1864(s0)
    1df8:	00cb8633          	add	a2,s7,a2
    1dfc:	8ac43c23          	sd	a2,-1864(s0)
    1e00:	02d50bb3          	mul	s7,a0,a3
    1e04:	8c043603          	ld	a2,-1856(s0)
    1e08:	00cb8633          	add	a2,s7,a2
    1e0c:	8cc43023          	sd	a2,-1856(s0)
    1e10:	03a50bb3          	mul	s7,a0,s10
    1e14:	8c843603          	ld	a2,-1848(s0)
    1e18:	00cb8633          	add	a2,s7,a2
    1e1c:	8cc43423          	sd	a2,-1848(s0)
    1e20:	f3843703          	ld	a4,-200(s0)
    1e24:	02e50bb3          	mul	s7,a0,a4
    1e28:	8d043603          	ld	a2,-1840(s0)
    1e2c:	00cb8633          	add	a2,s7,a2
    1e30:	8cc43823          	sd	a2,-1840(s0)
    1e34:	03450bb3          	mul	s7,a0,s4
    1e38:	8d843603          	ld	a2,-1832(s0)
    1e3c:	00cb8633          	add	a2,s7,a2
    1e40:	8cc43c23          	sd	a2,-1832(s0)
    1e44:	03350bb3          	mul	s7,a0,s3
    1e48:	8e043603          	ld	a2,-1824(s0)
    1e4c:	00cb8633          	add	a2,s7,a2
    1e50:	8ec43023          	sd	a2,-1824(s0)
    1e54:	03250bb3          	mul	s7,a0,s2
    1e58:	8e843603          	ld	a2,-1816(s0)
    1e5c:	00cb8633          	add	a2,s7,a2
    1e60:	8ec43423          	sd	a2,-1816(s0)
    1e64:	02950bb3          	mul	s7,a0,s1
    1e68:	8f043603          	ld	a2,-1808(s0)
    1e6c:	00cb8633          	add	a2,s7,a2
    1e70:	8ec43823          	sd	a2,-1808(s0)
    1e74:	03f50bb3          	mul	s7,a0,t6
    1e78:	8f843603          	ld	a2,-1800(s0)
    1e7c:	00cb8633          	add	a2,s7,a2
    1e80:	8ec43c23          	sd	a2,-1800(s0)
    1e84:	03d50bb3          	mul	s7,a0,t4
    1e88:	90043603          	ld	a2,-1792(s0)
    1e8c:	00cb8633          	add	a2,s7,a2
    1e90:	90c43023          	sd	a2,-1792(s0)
    1e94:	03c50bb3          	mul	s7,a0,t3
    1e98:	90843603          	ld	a2,-1784(s0)
    1e9c:	00cb8633          	add	a2,s7,a2
    1ea0:	90c43423          	sd	a2,-1784(s0)
    1ea4:	02650bb3          	mul	s7,a0,t1
    1ea8:	91043603          	ld	a2,-1776(s0)
    1eac:	00cb8633          	add	a2,s7,a2
    1eb0:	90c43823          	sd	a2,-1776(s0)
    1eb4:	ee043383          	ld	t2,-288(s0)
    1eb8:	02750bb3          	mul	s7,a0,t2
    1ebc:	91843603          	ld	a2,-1768(s0)
    1ec0:	00cb8633          	add	a2,s7,a2
    1ec4:	90c43c23          	sd	a2,-1768(s0)
    1ec8:	03550bb3          	mul	s7,a0,s5
    1ecc:	92043603          	ld	a2,-1760(s0)
    1ed0:	00cb8633          	add	a2,s7,a2
    1ed4:	92c43023          	sd	a2,-1760(s0)
    1ed8:	ee843b03          	ld	s6,-280(s0)
    1edc:	03650bb3          	mul	s7,a0,s6
    1ee0:	92843603          	ld	a2,-1752(s0)
    1ee4:	00cb8633          	add	a2,s7,a2
    1ee8:	92c43423          	sd	a2,-1752(s0)
    1eec:	03850bb3          	mul	s7,a0,s8
    1ef0:	93043603          	ld	a2,-1744(s0)
    1ef4:	00cb8633          	add	a2,s7,a2
    1ef8:	92c43823          	sd	a2,-1744(s0)
    1efc:	ef043a83          	ld	s5,-272(s0)
    1f00:	03550bb3          	mul	s7,a0,s5
    1f04:	93843603          	ld	a2,-1736(s0)
    1f08:	00cb8633          	add	a2,s7,a2
    1f0c:	92c43c23          	sd	a2,-1736(s0)
    1f10:	02f50bb3          	mul	s7,a0,a5
    1f14:	94043603          	ld	a2,-1728(s0)
    1f18:	00cb8633          	add	a2,s7,a2
    1f1c:	94c43023          	sd	a2,-1728(s0)
    1f20:	02b50bb3          	mul	s7,a0,a1
    1f24:	94843603          	ld	a2,-1720(s0)
    1f28:	00cb8633          	add	a2,s7,a2
    1f2c:	94c43423          	sd	a2,-1720(s0)
    1f30:	f6043783          	ld	a5,-160(s0)
    1f34:	02f50bb3          	mul	s7,a0,a5
    1f38:	95043603          	ld	a2,-1712(s0)
    1f3c:	00cb8633          	add	a2,s7,a2
    1f40:	94c43823          	sd	a2,-1712(s0)
    1f44:	f5843803          	ld	a6,-168(s0)
    1f48:	03050bb3          	mul	s7,a0,a6
    1f4c:	95843603          	ld	a2,-1704(s0)
    1f50:	00cb8633          	add	a2,s7,a2
    1f54:	94c43c23          	sd	a2,-1704(s0)
    1f58:	f5043c03          	ld	s8,-176(s0)
    1f5c:	03850bb3          	mul	s7,a0,s8
    1f60:	96043603          	ld	a2,-1696(s0)
    1f64:	00cb8633          	add	a2,s7,a2
    1f68:	96c43023          	sd	a2,-1696(s0)
    1f6c:	02150bb3          	mul	s7,a0,ra
    1f70:	96843603          	ld	a2,-1688(s0)
    1f74:	00cb8633          	add	a2,s7,a2
    1f78:	96c43423          	sd	a2,-1688(s0)
    1f7c:	ea043583          	ld	a1,-352(s0)
    1f80:	02b50bb3          	mul	s7,a0,a1
    1f84:	97043603          	ld	a2,-1680(s0)
    1f88:	00cb8633          	add	a2,s7,a2
    1f8c:	96c43823          	sd	a2,-1680(s0)
    1f90:	f6843603          	ld	a2,-152(s0)
    1f94:	6c060b83          	lb	s7,1728(a2)
    1f98:	03950db3          	mul	s11,a0,s9
    1f9c:	97843603          	ld	a2,-1672(s0)
    1fa0:	00cd8633          	add	a2,s11,a2
    1fa4:	96c43c23          	sd	a2,-1672(s0)
    1fa8:	e6843303          	ld	t1,-408(s0)
    1fac:	02650533          	mul	a0,a0,t1
    1fb0:	98043603          	ld	a2,-1664(s0)
    1fb4:	00c50633          	add	a2,a0,a2
    1fb8:	98c43023          	sd	a2,-1664(s0)
    1fbc:	ea843e03          	ld	t3,-344(s0)
    1fc0:	03cb8533          	mul	a0,s7,t3
    1fc4:	98843603          	ld	a2,-1656(s0)
    1fc8:	00c50633          	add	a2,a0,a2
    1fcc:	98c43423          	sd	a2,-1656(s0)
    1fd0:	f2043683          	ld	a3,-224(s0)
    1fd4:	02db8533          	mul	a0,s7,a3
    1fd8:	99043603          	ld	a2,-1648(s0)
    1fdc:	00c50633          	add	a2,a0,a2
    1fe0:	98c43823          	sd	a2,-1648(s0)
    1fe4:	f2843583          	ld	a1,-216(s0)
    1fe8:	02bb8533          	mul	a0,s7,a1
    1fec:	99843603          	ld	a2,-1640(s0)
    1ff0:	00c50633          	add	a2,a0,a2
    1ff4:	98c43c23          	sd	a2,-1640(s0)
    1ff8:	031b8533          	mul	a0,s7,a7
    1ffc:	9a043603          	ld	a2,-1632(s0)
    2000:	00c50633          	add	a2,a0,a2
    2004:	9ac43023          	sd	a2,-1632(s0)
    2008:	025b8533          	mul	a0,s7,t0
    200c:	9a843603          	ld	a2,-1624(s0)
    2010:	00c50633          	add	a2,a0,a2
    2014:	9ac43423          	sd	a2,-1624(s0)
    2018:	f8043503          	ld	a0,-128(s0)
    201c:	02ab8533          	mul	a0,s7,a0
    2020:	9b043603          	ld	a2,-1616(s0)
    2024:	00c50633          	add	a2,a0,a2
    2028:	9ac43823          	sd	a2,-1616(s0)
    202c:	03eb8533          	mul	a0,s7,t5
    2030:	9b843603          	ld	a2,-1608(s0)
    2034:	00c50633          	add	a2,a0,a2
    2038:	9ac43c23          	sd	a2,-1608(s0)
    203c:	eb843283          	ld	t0,-328(s0)
    2040:	025b8533          	mul	a0,s7,t0
    2044:	9c043603          	ld	a2,-1600(s0)
    2048:	00c50633          	add	a2,a0,a2
    204c:	9cc43023          	sd	a2,-1600(s0)
    2050:	03ab8533          	mul	a0,s7,s10
    2054:	9c843603          	ld	a2,-1592(s0)
    2058:	00c50633          	add	a2,a0,a2
    205c:	9cc43423          	sd	a2,-1592(s0)
    2060:	02eb8533          	mul	a0,s7,a4
    2064:	9d043603          	ld	a2,-1584(s0)
    2068:	00c50633          	add	a2,a0,a2
    206c:	9cc43823          	sd	a2,-1584(s0)
    2070:	034b8533          	mul	a0,s7,s4
    2074:	9d843603          	ld	a2,-1576(s0)
    2078:	00c50633          	add	a2,a0,a2
    207c:	9cc43c23          	sd	a2,-1576(s0)
    2080:	033b8533          	mul	a0,s7,s3
    2084:	9e043603          	ld	a2,-1568(s0)
    2088:	00c50633          	add	a2,a0,a2
    208c:	9ec43023          	sd	a2,-1568(s0)
    2090:	032b8533          	mul	a0,s7,s2
    2094:	9e843603          	ld	a2,-1560(s0)
    2098:	00c50633          	add	a2,a0,a2
    209c:	9ec43423          	sd	a2,-1560(s0)
    20a0:	029b8533          	mul	a0,s7,s1
    20a4:	9f043603          	ld	a2,-1552(s0)
    20a8:	00c50633          	add	a2,a0,a2
    20ac:	9ec43823          	sd	a2,-1552(s0)
    20b0:	03fb8533          	mul	a0,s7,t6
    20b4:	9f843603          	ld	a2,-1544(s0)
    20b8:	00c50633          	add	a2,a0,a2
    20bc:	9ec43c23          	sd	a2,-1544(s0)
    20c0:	03db8533          	mul	a0,s7,t4
    20c4:	a0043603          	ld	a2,-1536(s0)
    20c8:	00c50633          	add	a2,a0,a2
    20cc:	a0c43023          	sd	a2,-1536(s0)
    20d0:	e9843503          	ld	a0,-360(s0)
    20d4:	02ab8533          	mul	a0,s7,a0
    20d8:	a0843603          	ld	a2,-1528(s0)
    20dc:	00c50633          	add	a2,a0,a2
    20e0:	a0c43423          	sd	a2,-1528(s0)
    20e4:	ed043883          	ld	a7,-304(s0)
    20e8:	031b8533          	mul	a0,s7,a7
    20ec:	a1043603          	ld	a2,-1520(s0)
    20f0:	00c50633          	add	a2,a0,a2
    20f4:	a0c43823          	sd	a2,-1520(s0)
    20f8:	027b8533          	mul	a0,s7,t2
    20fc:	a1843603          	ld	a2,-1512(s0)
    2100:	00c50633          	add	a2,a0,a2
    2104:	a0c43c23          	sd	a2,-1512(s0)
    2108:	eb043f03          	ld	t5,-336(s0)
    210c:	03eb8533          	mul	a0,s7,t5
    2110:	a2043603          	ld	a2,-1504(s0)
    2114:	00c50633          	add	a2,a0,a2
    2118:	a2c43023          	sd	a2,-1504(s0)
    211c:	000b0393          	mv	t2,s6
    2120:	036b8533          	mul	a0,s7,s6
    2124:	a2843603          	ld	a2,-1496(s0)
    2128:	00c50633          	add	a2,a0,a2
    212c:	a2c43423          	sd	a2,-1496(s0)
    2130:	ed843503          	ld	a0,-296(s0)
    2134:	02ab8533          	mul	a0,s7,a0
    2138:	a3043603          	ld	a2,-1488(s0)
    213c:	00c50633          	add	a2,a0,a2
    2140:	a2c43823          	sd	a2,-1488(s0)
    2144:	000a8093          	mv	ra,s5
    2148:	035b8533          	mul	a0,s7,s5
    214c:	a3843603          	ld	a2,-1480(s0)
    2150:	00c50633          	add	a2,a0,a2
    2154:	a2c43c23          	sd	a2,-1480(s0)
    2158:	ec043703          	ld	a4,-320(s0)
    215c:	02eb8533          	mul	a0,s7,a4
    2160:	a4043603          	ld	a2,-1472(s0)
    2164:	00c50633          	add	a2,a0,a2
    2168:	a4c43023          	sd	a2,-1472(s0)
    216c:	f4843503          	ld	a0,-184(s0)
    2170:	02ab8533          	mul	a0,s7,a0
    2174:	a4843603          	ld	a2,-1464(s0)
    2178:	00c50633          	add	a2,a0,a2
    217c:	a4c43423          	sd	a2,-1464(s0)
    2180:	02fb8533          	mul	a0,s7,a5
    2184:	a5043603          	ld	a2,-1456(s0)
    2188:	00c50633          	add	a2,a0,a2
    218c:	a4c43823          	sd	a2,-1456(s0)
    2190:	030b8533          	mul	a0,s7,a6
    2194:	a5843603          	ld	a2,-1448(s0)
    2198:	00c50633          	add	a2,a0,a2
    219c:	a4c43c23          	sd	a2,-1448(s0)
    21a0:	038b8533          	mul	a0,s7,s8
    21a4:	a6043603          	ld	a2,-1440(s0)
    21a8:	00c50633          	add	a2,a0,a2
    21ac:	a6c43023          	sd	a2,-1440(s0)
    21b0:	e7043b03          	ld	s6,-400(s0)
    21b4:	036b8533          	mul	a0,s7,s6
    21b8:	a6843603          	ld	a2,-1432(s0)
    21bc:	00c50633          	add	a2,a0,a2
    21c0:	a6c43423          	sd	a2,-1432(s0)
    21c4:	ea043a83          	ld	s5,-352(s0)
    21c8:	035b8533          	mul	a0,s7,s5
    21cc:	a7043603          	ld	a2,-1424(s0)
    21d0:	00c50633          	add	a2,a0,a2
    21d4:	a6c43823          	sd	a2,-1424(s0)
    21d8:	f7043503          	ld	a0,-144(s0)
    21dc:	94050503          	lb	a0,-1728(a0)
    21e0:	000c8c13          	mv	s8,s9
    21e4:	039b8db3          	mul	s11,s7,s9
    21e8:	a7843603          	ld	a2,-1416(s0)
    21ec:	00cd8633          	add	a2,s11,a2
    21f0:	a6c43c23          	sd	a2,-1416(s0)
    21f4:	026b8bb3          	mul	s7,s7,t1
    21f8:	a8043603          	ld	a2,-1408(s0)
    21fc:	00cb8633          	add	a2,s7,a2
    2200:	a8c43023          	sd	a2,-1408(s0)
    2204:	03c50bb3          	mul	s7,a0,t3
    2208:	000e0313          	mv	t1,t3
    220c:	a8843603          	ld	a2,-1400(s0)
    2210:	00cb8633          	add	a2,s7,a2
    2214:	a8c43423          	sd	a2,-1400(s0)
    2218:	02d50bb3          	mul	s7,a0,a3
    221c:	a9043603          	ld	a2,-1392(s0)
    2220:	00cb8633          	add	a2,s7,a2
    2224:	a8c43823          	sd	a2,-1392(s0)
    2228:	02b50bb3          	mul	s7,a0,a1
    222c:	a9843603          	ld	a2,-1384(s0)
    2230:	00cb8633          	add	a2,s7,a2
    2234:	a8c43c23          	sd	a2,-1384(s0)
    2238:	f7843c83          	ld	s9,-136(s0)
    223c:	03950bb3          	mul	s7,a0,s9
    2240:	aa043603          	ld	a2,-1376(s0)
    2244:	00cb8633          	add	a2,s7,a2
    2248:	aac43023          	sd	a2,-1376(s0)
    224c:	f3043783          	ld	a5,-208(s0)
    2250:	02f50bb3          	mul	s7,a0,a5
    2254:	aa843603          	ld	a2,-1368(s0)
    2258:	00cb8633          	add	a2,s7,a2
    225c:	aac43423          	sd	a2,-1368(s0)
    2260:	f8043683          	ld	a3,-128(s0)
    2264:	02d50bb3          	mul	s7,a0,a3
    2268:	ab043603          	ld	a2,-1360(s0)
    226c:	00cb8633          	add	a2,s7,a2
    2270:	aac43823          	sd	a2,-1360(s0)
    2274:	f4043583          	ld	a1,-192(s0)
    2278:	02b50bb3          	mul	s7,a0,a1
    227c:	ab843603          	ld	a2,-1352(s0)
    2280:	00cb8633          	add	a2,s7,a2
    2284:	aac43c23          	sd	a2,-1352(s0)
    2288:	02550bb3          	mul	s7,a0,t0
    228c:	ac043603          	ld	a2,-1344(s0)
    2290:	00cb8633          	add	a2,s7,a2
    2294:	acc43023          	sd	a2,-1344(s0)
    2298:	03a50bb3          	mul	s7,a0,s10
    229c:	ac843603          	ld	a2,-1336(s0)
    22a0:	00cb8633          	add	a2,s7,a2
    22a4:	acc43423          	sd	a2,-1336(s0)
    22a8:	f3843583          	ld	a1,-200(s0)
    22ac:	02b50bb3          	mul	s7,a0,a1
    22b0:	ad043603          	ld	a2,-1328(s0)
    22b4:	00cb8633          	add	a2,s7,a2
    22b8:	acc43823          	sd	a2,-1328(s0)
    22bc:	03450bb3          	mul	s7,a0,s4
    22c0:	ad843603          	ld	a2,-1320(s0)
    22c4:	00cb8633          	add	a2,s7,a2
    22c8:	acc43c23          	sd	a2,-1320(s0)
    22cc:	03350bb3          	mul	s7,a0,s3
    22d0:	ae043603          	ld	a2,-1312(s0)
    22d4:	00cb8633          	add	a2,s7,a2
    22d8:	aec43023          	sd	a2,-1312(s0)
    22dc:	03250bb3          	mul	s7,a0,s2
    22e0:	ae843603          	ld	a2,-1304(s0)
    22e4:	00cb8633          	add	a2,s7,a2
    22e8:	aec43423          	sd	a2,-1304(s0)
    22ec:	02950bb3          	mul	s7,a0,s1
    22f0:	af043603          	ld	a2,-1296(s0)
    22f4:	00cb8633          	add	a2,s7,a2
    22f8:	aec43823          	sd	a2,-1296(s0)
    22fc:	03f50bb3          	mul	s7,a0,t6
    2300:	af843603          	ld	a2,-1288(s0)
    2304:	00cb8633          	add	a2,s7,a2
    2308:	aec43c23          	sd	a2,-1288(s0)
    230c:	03d50bb3          	mul	s7,a0,t4
    2310:	b0043603          	ld	a2,-1280(s0)
    2314:	00cb8633          	add	a2,s7,a2
    2318:	b0c43023          	sd	a2,-1280(s0)
    231c:	e9843803          	ld	a6,-360(s0)
    2320:	03050bb3          	mul	s7,a0,a6
    2324:	b0843603          	ld	a2,-1272(s0)
    2328:	00cb8633          	add	a2,s7,a2
    232c:	b0c43423          	sd	a2,-1272(s0)
    2330:	03150bb3          	mul	s7,a0,a7
    2334:	b1043603          	ld	a2,-1264(s0)
    2338:	00cb8633          	add	a2,s7,a2
    233c:	b0c43823          	sd	a2,-1264(s0)
    2340:	ee043f83          	ld	t6,-288(s0)
    2344:	03f50bb3          	mul	s7,a0,t6
    2348:	b1843603          	ld	a2,-1256(s0)
    234c:	00cb8633          	add	a2,s7,a2
    2350:	b0c43c23          	sd	a2,-1256(s0)
    2354:	03e50bb3          	mul	s7,a0,t5
    2358:	b2043603          	ld	a2,-1248(s0)
    235c:	00cb8633          	add	a2,s7,a2
    2360:	b2c43023          	sd	a2,-1248(s0)
    2364:	02750bb3          	mul	s7,a0,t2
    2368:	b2843603          	ld	a2,-1240(s0)
    236c:	00cb8633          	add	a2,s7,a2
    2370:	b2c43423          	sd	a2,-1240(s0)
    2374:	ed843583          	ld	a1,-296(s0)
    2378:	02b50bb3          	mul	s7,a0,a1
    237c:	b3043603          	ld	a2,-1232(s0)
    2380:	00cb8633          	add	a2,s7,a2
    2384:	b2c43823          	sd	a2,-1232(s0)
    2388:	00008f13          	mv	t5,ra
    238c:	02150bb3          	mul	s7,a0,ra
    2390:	b3843603          	ld	a2,-1224(s0)
    2394:	00cb8633          	add	a2,s7,a2
    2398:	b2c43c23          	sd	a2,-1224(s0)
    239c:	02e50bb3          	mul	s7,a0,a4
    23a0:	b4043603          	ld	a2,-1216(s0)
    23a4:	00cb8633          	add	a2,s7,a2
    23a8:	b4c43023          	sd	a2,-1216(s0)
    23ac:	f4843883          	ld	a7,-184(s0)
    23b0:	03150bb3          	mul	s7,a0,a7
    23b4:	b4843603          	ld	a2,-1208(s0)
    23b8:	00cb8633          	add	a2,s7,a2
    23bc:	b4c43423          	sd	a2,-1208(s0)
    23c0:	f6043603          	ld	a2,-160(s0)
    23c4:	02c50bb3          	mul	s7,a0,a2
    23c8:	b5043603          	ld	a2,-1200(s0)
    23cc:	00cb8633          	add	a2,s7,a2
    23d0:	b4c43823          	sd	a2,-1200(s0)
    23d4:	f5843283          	ld	t0,-168(s0)
    23d8:	02550bb3          	mul	s7,a0,t0
    23dc:	b5843603          	ld	a2,-1192(s0)
    23e0:	00cb8633          	add	a2,s7,a2
    23e4:	b4c43c23          	sd	a2,-1192(s0)
    23e8:	f5043083          	ld	ra,-176(s0)
    23ec:	02150bb3          	mul	s7,a0,ra
    23f0:	b6043603          	ld	a2,-1184(s0)
    23f4:	00cb8633          	add	a2,s7,a2
    23f8:	b6c43023          	sd	a2,-1184(s0)
    23fc:	03650bb3          	mul	s7,a0,s6
    2400:	b6843603          	ld	a2,-1176(s0)
    2404:	00cb8633          	add	a2,s7,a2
    2408:	b6c43423          	sd	a2,-1176(s0)
    240c:	03550bb3          	mul	s7,a0,s5
    2410:	b7043603          	ld	a2,-1168(s0)
    2414:	00cb8633          	add	a2,s7,a2
    2418:	b6c43823          	sd	a2,-1168(s0)
    241c:	f7043e03          	ld	t3,-144(s0)
    2420:	b80e0b83          	lb	s7,-1152(t3)
    2424:	000c0b13          	mv	s6,s8
    2428:	03850db3          	mul	s11,a0,s8
    242c:	b7843603          	ld	a2,-1160(s0)
    2430:	00cd8633          	add	a2,s11,a2
    2434:	b6c43c23          	sd	a2,-1160(s0)
    2438:	e6843a83          	ld	s5,-408(s0)
    243c:	03550533          	mul	a0,a0,s5
    2440:	b8043603          	ld	a2,-1152(s0)
    2444:	00c50633          	add	a2,a0,a2
    2448:	b8c43023          	sd	a2,-1152(s0)
    244c:	026b8533          	mul	a0,s7,t1
    2450:	00030493          	mv	s1,t1
    2454:	b8843603          	ld	a2,-1144(s0)
    2458:	00c50633          	add	a2,a0,a2
    245c:	b8c43423          	sd	a2,-1144(s0)
    2460:	f2043703          	ld	a4,-224(s0)
    2464:	02eb8533          	mul	a0,s7,a4
    2468:	b9043603          	ld	a2,-1136(s0)
    246c:	00c50633          	add	a2,a0,a2
    2470:	b8c43823          	sd	a2,-1136(s0)
    2474:	f2843303          	ld	t1,-216(s0)
    2478:	026b8533          	mul	a0,s7,t1
    247c:	b9843603          	ld	a2,-1128(s0)
    2480:	00c50633          	add	a2,a0,a2
    2484:	b8c43c23          	sd	a2,-1128(s0)
    2488:	039b8533          	mul	a0,s7,s9
    248c:	ba043603          	ld	a2,-1120(s0)
    2490:	00c50633          	add	a2,a0,a2
    2494:	bac43023          	sd	a2,-1120(s0)
    2498:	02fb8533          	mul	a0,s7,a5
    249c:	ba843603          	ld	a2,-1112(s0)
    24a0:	00c50633          	add	a2,a0,a2
    24a4:	bac43423          	sd	a2,-1112(s0)
    24a8:	02db8533          	mul	a0,s7,a3
    24ac:	bb043603          	ld	a2,-1104(s0)
    24b0:	00c50633          	add	a2,a0,a2
    24b4:	bac43823          	sd	a2,-1104(s0)
    24b8:	f4043c83          	ld	s9,-192(s0)
    24bc:	039b8533          	mul	a0,s7,s9
    24c0:	bb843603          	ld	a2,-1096(s0)
    24c4:	00c50633          	add	a2,a0,a2
    24c8:	bac43c23          	sd	a2,-1096(s0)
    24cc:	eb843c03          	ld	s8,-328(s0)
    24d0:	038b8533          	mul	a0,s7,s8
    24d4:	bc043603          	ld	a2,-1088(s0)
    24d8:	00c50633          	add	a2,a0,a2
    24dc:	bcc43023          	sd	a2,-1088(s0)
    24e0:	03ab8533          	mul	a0,s7,s10
    24e4:	bc843603          	ld	a2,-1080(s0)
    24e8:	00c50633          	add	a2,a0,a2
    24ec:	bcc43423          	sd	a2,-1080(s0)
    24f0:	f3843683          	ld	a3,-200(s0)
    24f4:	02db8533          	mul	a0,s7,a3
    24f8:	bd043603          	ld	a2,-1072(s0)
    24fc:	00c50633          	add	a2,a0,a2
    2500:	bcc43823          	sd	a2,-1072(s0)
    2504:	034b8533          	mul	a0,s7,s4
    2508:	bd843603          	ld	a2,-1064(s0)
    250c:	00c50633          	add	a2,a0,a2
    2510:	bcc43c23          	sd	a2,-1064(s0)
    2514:	033b8533          	mul	a0,s7,s3
    2518:	be043603          	ld	a2,-1056(s0)
    251c:	00c50633          	add	a2,a0,a2
    2520:	bec43023          	sd	a2,-1056(s0)
    2524:	032b8533          	mul	a0,s7,s2
    2528:	be843603          	ld	a2,-1048(s0)
    252c:	00c50633          	add	a2,a0,a2
    2530:	bec43423          	sd	a2,-1048(s0)
    2534:	e8843903          	ld	s2,-376(s0)
    2538:	032b8533          	mul	a0,s7,s2
    253c:	bf043603          	ld	a2,-1040(s0)
    2540:	00c50633          	add	a2,a0,a2
    2544:	bec43823          	sd	a2,-1040(s0)
    2548:	ec843503          	ld	a0,-312(s0)
    254c:	02ab8533          	mul	a0,s7,a0
    2550:	bf843603          	ld	a2,-1032(s0)
    2554:	00c50633          	add	a2,a0,a2
    2558:	bec43c23          	sd	a2,-1032(s0)
    255c:	03db8533          	mul	a0,s7,t4
    2560:	c0043603          	ld	a2,-1024(s0)
    2564:	00c50633          	add	a2,a0,a2
    2568:	c0c43023          	sd	a2,-1024(s0)
    256c:	030b8533          	mul	a0,s7,a6
    2570:	00080e93          	mv	t4,a6
    2574:	c0843603          	ld	a2,-1016(s0)
    2578:	00c50633          	add	a2,a0,a2
    257c:	c0c43423          	sd	a2,-1016(s0)
    2580:	ed043503          	ld	a0,-304(s0)
    2584:	02ab8533          	mul	a0,s7,a0
    2588:	c1043603          	ld	a2,-1008(s0)
    258c:	00c50633          	add	a2,a0,a2
    2590:	c0c43823          	sd	a2,-1008(s0)
    2594:	03fb8533          	mul	a0,s7,t6
    2598:	000f8813          	mv	a6,t6
    259c:	c1843603          	ld	a2,-1000(s0)
    25a0:	00c50633          	add	a2,a0,a2
    25a4:	c0c43c23          	sd	a2,-1000(s0)
    25a8:	eb043f83          	ld	t6,-336(s0)
    25ac:	03fb8533          	mul	a0,s7,t6
    25b0:	c2043603          	ld	a2,-992(s0)
    25b4:	00c50633          	add	a2,a0,a2
    25b8:	c2c43023          	sd	a2,-992(s0)
    25bc:	027b8533          	mul	a0,s7,t2
    25c0:	c2843603          	ld	a2,-984(s0)
    25c4:	00c50633          	add	a2,a0,a2
    25c8:	c2c43423          	sd	a2,-984(s0)
    25cc:	02bb8533          	mul	a0,s7,a1
    25d0:	c3043603          	ld	a2,-976(s0)
    25d4:	00c50633          	add	a2,a0,a2
    25d8:	c2c43823          	sd	a2,-976(s0)
    25dc:	03eb8533          	mul	a0,s7,t5
    25e0:	c3843603          	ld	a2,-968(s0)
    25e4:	00c50633          	add	a2,a0,a2
    25e8:	c2c43c23          	sd	a2,-968(s0)
    25ec:	ec043f03          	ld	t5,-320(s0)
    25f0:	03eb8533          	mul	a0,s7,t5
    25f4:	c4043603          	ld	a2,-960(s0)
    25f8:	00c50633          	add	a2,a0,a2
    25fc:	c4c43023          	sd	a2,-960(s0)
    2600:	031b8533          	mul	a0,s7,a7
    2604:	c4843603          	ld	a2,-952(s0)
    2608:	00c50633          	add	a2,a0,a2
    260c:	c4c43423          	sd	a2,-952(s0)
    2610:	f6043583          	ld	a1,-160(s0)
    2614:	02bb8533          	mul	a0,s7,a1
    2618:	c5043603          	ld	a2,-944(s0)
    261c:	00c50633          	add	a2,a0,a2
    2620:	c4c43823          	sd	a2,-944(s0)
    2624:	025b8533          	mul	a0,s7,t0
    2628:	c5843603          	ld	a2,-936(s0)
    262c:	00c50633          	add	a2,a0,a2
    2630:	c4c43c23          	sd	a2,-936(s0)
    2634:	021b8533          	mul	a0,s7,ra
    2638:	c6043603          	ld	a2,-928(s0)
    263c:	00c50633          	add	a2,a0,a2
    2640:	c6c43023          	sd	a2,-928(s0)
    2644:	e7043783          	ld	a5,-400(s0)
    2648:	02fb8533          	mul	a0,s7,a5
    264c:	c6843603          	ld	a2,-920(s0)
    2650:	00c50633          	add	a2,a0,a2
    2654:	c6c43423          	sd	a2,-920(s0)
    2658:	ea043883          	ld	a7,-352(s0)
    265c:	031b8533          	mul	a0,s7,a7
    2660:	c7043603          	ld	a2,-912(s0)
    2664:	00c50633          	add	a2,a0,a2
    2668:	c6c43823          	sd	a2,-912(s0)
    266c:	dc0e0503          	lb	a0,-576(t3)
    2670:	036b8db3          	mul	s11,s7,s6
    2674:	c7843603          	ld	a2,-904(s0)
    2678:	00cd8633          	add	a2,s11,a2
    267c:	c6c43c23          	sd	a2,-904(s0)
    2680:	035b8bb3          	mul	s7,s7,s5
    2684:	c8043603          	ld	a2,-896(s0)
    2688:	00cb8633          	add	a2,s7,a2
    268c:	c8c43023          	sd	a2,-896(s0)
    2690:	02950bb3          	mul	s7,a0,s1
    2694:	c8843603          	ld	a2,-888(s0)
    2698:	00cb8633          	add	a2,s7,a2
    269c:	c8c43423          	sd	a2,-888(s0)
    26a0:	02e50bb3          	mul	s7,a0,a4
    26a4:	c9043603          	ld	a2,-880(s0)
    26a8:	00cb8633          	add	a2,s7,a2
    26ac:	c8c43823          	sd	a2,-880(s0)
    26b0:	02650bb3          	mul	s7,a0,t1
    26b4:	c9843603          	ld	a2,-872(s0)
    26b8:	00cb8633          	add	a2,s7,a2
    26bc:	c8c43c23          	sd	a2,-872(s0)
    26c0:	f7843603          	ld	a2,-136(s0)
    26c4:	02c50bb3          	mul	s7,a0,a2
    26c8:	ca043603          	ld	a2,-864(s0)
    26cc:	00cb8633          	add	a2,s7,a2
    26d0:	cac43023          	sd	a2,-864(s0)
    26d4:	f3043603          	ld	a2,-208(s0)
    26d8:	02c50bb3          	mul	s7,a0,a2
    26dc:	ca843603          	ld	a2,-856(s0)
    26e0:	00cb8633          	add	a2,s7,a2
    26e4:	cac43423          	sd	a2,-856(s0)
    26e8:	f8043603          	ld	a2,-128(s0)
    26ec:	02c50bb3          	mul	s7,a0,a2
    26f0:	cb043603          	ld	a2,-848(s0)
    26f4:	00cb8633          	add	a2,s7,a2
    26f8:	cac43823          	sd	a2,-848(s0)
    26fc:	03950bb3          	mul	s7,a0,s9
    2700:	cb843603          	ld	a2,-840(s0)
    2704:	00cb8633          	add	a2,s7,a2
    2708:	cac43c23          	sd	a2,-840(s0)
    270c:	000c0093          	mv	ra,s8
    2710:	03850bb3          	mul	s7,a0,s8
    2714:	cc043603          	ld	a2,-832(s0)
    2718:	00cb8633          	add	a2,s7,a2
    271c:	ccc43023          	sd	a2,-832(s0)
    2720:	03a50bb3          	mul	s7,a0,s10
    2724:	cc843603          	ld	a2,-824(s0)
    2728:	00cb8633          	add	a2,s7,a2
    272c:	ccc43423          	sd	a2,-824(s0)
    2730:	00068c93          	mv	s9,a3
    2734:	02d50bb3          	mul	s7,a0,a3
    2738:	cd043603          	ld	a2,-816(s0)
    273c:	00cb8633          	add	a2,s7,a2
    2740:	ccc43823          	sd	a2,-816(s0)
    2744:	03450bb3          	mul	s7,a0,s4
    2748:	cd843603          	ld	a2,-808(s0)
    274c:	00cb8633          	add	a2,s7,a2
    2750:	ccc43c23          	sd	a2,-808(s0)
    2754:	03350bb3          	mul	s7,a0,s3
    2758:	ce043603          	ld	a2,-800(s0)
    275c:	00cb8633          	add	a2,s7,a2
    2760:	cec43023          	sd	a2,-800(s0)
    2764:	e8043a03          	ld	s4,-384(s0)
    2768:	03450bb3          	mul	s7,a0,s4
    276c:	ce843603          	ld	a2,-792(s0)
    2770:	00cb8633          	add	a2,s7,a2
    2774:	cec43423          	sd	a2,-792(s0)
    2778:	00090993          	mv	s3,s2
    277c:	03250bb3          	mul	s7,a0,s2
    2780:	cf043603          	ld	a2,-784(s0)
    2784:	00cb8633          	add	a2,s7,a2
    2788:	cec43823          	sd	a2,-784(s0)
    278c:	ec843483          	ld	s1,-312(s0)
    2790:	02950bb3          	mul	s7,a0,s1
    2794:	cf843603          	ld	a2,-776(s0)
    2798:	00cb8633          	add	a2,s7,a2
    279c:	cec43c23          	sd	a2,-776(s0)
    27a0:	e9043903          	ld	s2,-368(s0)
    27a4:	03250bb3          	mul	s7,a0,s2
    27a8:	d0043603          	ld	a2,-768(s0)
    27ac:	00cb8633          	add	a2,s7,a2
    27b0:	d0c43023          	sd	a2,-768(s0)
    27b4:	03d50bb3          	mul	s7,a0,t4
    27b8:	d0843603          	ld	a2,-760(s0)
    27bc:	00cb8633          	add	a2,s7,a2
    27c0:	d0c43423          	sd	a2,-760(s0)
    27c4:	ed043383          	ld	t2,-304(s0)
    27c8:	02750bb3          	mul	s7,a0,t2
    27cc:	d1043603          	ld	a2,-752(s0)
    27d0:	00cb8633          	add	a2,s7,a2
    27d4:	d0c43823          	sd	a2,-752(s0)
    27d8:	00080e13          	mv	t3,a6
    27dc:	03050bb3          	mul	s7,a0,a6
    27e0:	d1843603          	ld	a2,-744(s0)
    27e4:	00cb8633          	add	a2,s7,a2
    27e8:	d0c43c23          	sd	a2,-744(s0)
    27ec:	000f8313          	mv	t1,t6
    27f0:	03f50bb3          	mul	s7,a0,t6
    27f4:	d2043603          	ld	a2,-736(s0)
    27f8:	00cb8633          	add	a2,s7,a2
    27fc:	d2c43023          	sd	a2,-736(s0)
    2800:	ee843f83          	ld	t6,-280(s0)
    2804:	03f50bb3          	mul	s7,a0,t6
    2808:	d2843603          	ld	a2,-728(s0)
    280c:	00cb8633          	add	a2,s7,a2
    2810:	d2c43423          	sd	a2,-728(s0)
    2814:	ed843803          	ld	a6,-296(s0)
    2818:	03050bb3          	mul	s7,a0,a6
    281c:	d3043603          	ld	a2,-720(s0)
    2820:	00cb8633          	add	a2,s7,a2
    2824:	d2c43823          	sd	a2,-720(s0)
    2828:	ef043703          	ld	a4,-272(s0)
    282c:	02e50bb3          	mul	s7,a0,a4
    2830:	d3843603          	ld	a2,-712(s0)
    2834:	00cb8633          	add	a2,s7,a2
    2838:	d2c43c23          	sd	a2,-712(s0)
    283c:	03e50bb3          	mul	s7,a0,t5
    2840:	d4043603          	ld	a2,-704(s0)
    2844:	00cb8633          	add	a2,s7,a2
    2848:	d4c43023          	sd	a2,-704(s0)
    284c:	f4843283          	ld	t0,-184(s0)
    2850:	02550bb3          	mul	s7,a0,t0
    2854:	d4843603          	ld	a2,-696(s0)
    2858:	00cb8633          	add	a2,s7,a2
    285c:	d4c43423          	sd	a2,-696(s0)
    2860:	00058693          	mv	a3,a1
    2864:	02b50bb3          	mul	s7,a0,a1
    2868:	d5043603          	ld	a2,-688(s0)
    286c:	00cb8633          	add	a2,s7,a2
    2870:	d4c43823          	sd	a2,-688(s0)
    2874:	f5843583          	ld	a1,-168(s0)
    2878:	02b50bb3          	mul	s7,a0,a1
    287c:	d5843603          	ld	a2,-680(s0)
    2880:	00cb8633          	add	a2,s7,a2
    2884:	d4c43c23          	sd	a2,-680(s0)
    2888:	f5043c03          	ld	s8,-176(s0)
    288c:	03850bb3          	mul	s7,a0,s8
    2890:	d6043603          	ld	a2,-672(s0)
    2894:	00cb8633          	add	a2,s7,a2
    2898:	d6c43023          	sd	a2,-672(s0)
    289c:	02f50bb3          	mul	s7,a0,a5
    28a0:	d6843603          	ld	a2,-664(s0)
    28a4:	00cb8633          	add	a2,s7,a2
    28a8:	d6c43423          	sd	a2,-664(s0)
    28ac:	03150bb3          	mul	s7,a0,a7
    28b0:	d7043603          	ld	a2,-656(s0)
    28b4:	00cb8633          	add	a2,s7,a2
    28b8:	d6c43823          	sd	a2,-656(s0)
    28bc:	f7043603          	ld	a2,-144(s0)
    28c0:	00060b83          	lb	s7,0(a2)
    28c4:	03650db3          	mul	s11,a0,s6
    28c8:	d7843603          	ld	a2,-648(s0)
    28cc:	00cd8633          	add	a2,s11,a2
    28d0:	d6c43c23          	sd	a2,-648(s0)
    28d4:	03550533          	mul	a0,a0,s5
    28d8:	d8043603          	ld	a2,-640(s0)
    28dc:	00c50633          	add	a2,a0,a2
    28e0:	d8c43023          	sd	a2,-640(s0)
    28e4:	035b8533          	mul	a0,s7,s5
    28e8:	e6a43423          	sd	a0,-408(s0)
    28ec:	036b8533          	mul	a0,s7,s6
    28f0:	00001637          	lui	a2,0x1
    28f4:	40c40633          	sub	a2,s0,a2
    28f8:	66a63823          	sd	a0,1648(a2) # 1670 <.LBB80_5+0x1bc>
    28fc:	031b8533          	mul	a0,s7,a7
    2900:	eaa43023          	sd	a0,-352(s0)
    2904:	02fb8533          	mul	a0,s7,a5
    2908:	e6a43823          	sd	a0,-400(s0)
    290c:	038b8533          	mul	a0,s7,s8
    2910:	f4a43823          	sd	a0,-176(s0)
    2914:	02bb8533          	mul	a0,s7,a1
    2918:	f4a43c23          	sd	a0,-168(s0)
    291c:	02db8533          	mul	a0,s7,a3
    2920:	f6a43023          	sd	a0,-160(s0)
    2924:	025b8533          	mul	a0,s7,t0
    2928:	f4a43423          	sd	a0,-184(s0)
    292c:	03eb8ab3          	mul	s5,s7,t5
    2930:	02eb8b33          	mul	s6,s7,a4
    2934:	030b8c33          	mul	s8,s7,a6
    2938:	03fb8f33          	mul	t5,s7,t6
    293c:	026b8333          	mul	t1,s7,t1
    2940:	03cb82b3          	mul	t0,s7,t3
    2944:	027b88b3          	mul	a7,s7,t2
    2948:	03db8e33          	mul	t3,s7,t4
    294c:	032b8833          	mul	a6,s7,s2
    2950:	029b8fb3          	mul	t6,s7,s1
    2954:	033b84b3          	mul	s1,s7,s3
    2958:	034b8933          	mul	s2,s7,s4
    295c:	e6043503          	ld	a0,-416(s0)
    2960:	02ab89b3          	mul	s3,s7,a0
    2964:	e7843503          	ld	a0,-392(s0)
    2968:	02ab8a33          	mul	s4,s7,a0
    296c:	039b8cb3          	mul	s9,s7,s9
    2970:	03ab8d33          	mul	s10,s7,s10
    2974:	021b8db3          	mul	s11,s7,ra
    2978:	f4043503          	ld	a0,-192(s0)
    297c:	02ab8733          	mul	a4,s7,a0
    2980:	f8043503          	ld	a0,-128(s0)
    2984:	02ab80b3          	mul	ra,s7,a0
    2988:	f3043503          	ld	a0,-208(s0)
    298c:	02ab86b3          	mul	a3,s7,a0
    2990:	f7843503          	ld	a0,-136(s0)
    2994:	02ab8633          	mul	a2,s7,a0
    2998:	f2843503          	ld	a0,-216(s0)
    299c:	02ab85b3          	mul	a1,s7,a0
    29a0:	f2043503          	ld	a0,-224(s0)
    29a4:	02ab8533          	mul	a0,s7,a0
    29a8:	ea843783          	ld	a5,-344(s0)
    29ac:	02fb8bb3          	mul	s7,s7,a5
    29b0:	d8843783          	ld	a5,-632(s0)
    29b4:	00fb87b3          	add	a5,s7,a5
    29b8:	d8f43423          	sd	a5,-632(s0)
    29bc:	000017b7          	lui	a5,0x1
    29c0:	40f407b3          	sub	a5,s0,a5
    29c4:	6787bb83          	ld	s7,1656(a5) # 1678 <.LBB80_5+0x1c4>
    29c8:	d9043783          	ld	a5,-624(s0)
    29cc:	00f507b3          	add	a5,a0,a5
    29d0:	d8f43823          	sd	a5,-624(s0)
    29d4:	d9843503          	ld	a0,-616(s0)
    29d8:	00a58533          	add	a0,a1,a0
    29dc:	d8a43c23          	sd	a0,-616(s0)
    29e0:	da043503          	ld	a0,-608(s0)
    29e4:	00a60533          	add	a0,a2,a0
    29e8:	daa43023          	sd	a0,-608(s0)
    29ec:	da843503          	ld	a0,-600(s0)
    29f0:	00a68533          	add	a0,a3,a0
    29f4:	daa43423          	sd	a0,-600(s0)
    29f8:	db043503          	ld	a0,-592(s0)
    29fc:	00a08533          	add	a0,ra,a0
    2a00:	daa43823          	sd	a0,-592(s0)
    2a04:	dd043083          	ld	ra,-560(s0)
    2a08:	db843503          	ld	a0,-584(s0)
    2a0c:	00a70533          	add	a0,a4,a0
    2a10:	daa43c23          	sd	a0,-584(s0)
    2a14:	e5843703          	ld	a4,-424(s0)
    2a18:	dc043503          	ld	a0,-576(s0)
    2a1c:	00ad8533          	add	a0,s11,a0
    2a20:	dca43023          	sd	a0,-576(s0)
    2a24:	dd843d83          	ld	s11,-552(s0)
    2a28:	ef843503          	ld	a0,-264(s0)
    2a2c:	00ad0533          	add	a0,s10,a0
    2a30:	eea43c23          	sd	a0,-264(s0)
    2a34:	ef843d03          	ld	s10,-264(s0)
    2a38:	dc843503          	ld	a0,-568(s0)
    2a3c:	00ac8533          	add	a0,s9,a0
    2a40:	dca43423          	sd	a0,-568(s0)
    2a44:	de043c83          	ld	s9,-544(s0)
    2a48:	001a00b3          	add	ra,s4,ra
    2a4c:	df043a03          	ld	s4,-528(s0)
    2a50:	01b98db3          	add	s11,s3,s11
    2a54:	df843983          	ld	s3,-520(s0)
    2a58:	01990cb3          	add	s9,s2,s9
    2a5c:	e0043903          	ld	s2,-512(s0)
    2a60:	de843503          	ld	a0,-536(s0)
    2a64:	00a48533          	add	a0,s1,a0
    2a68:	dea43423          	sd	a0,-536(s0)
    2a6c:	e0843483          	ld	s1,-504(s0)
    2a70:	014f8a33          	add	s4,t6,s4
    2a74:	e1043f83          	ld	t6,-496(s0)
    2a78:	013809b3          	add	s3,a6,s3
    2a7c:	e1843e83          	ld	t4,-488(s0)
    2a80:	012e0933          	add	s2,t3,s2
    2a84:	e2043e03          	ld	t3,-480(s0)
    2a88:	009884b3          	add	s1,a7,s1
    2a8c:	e4043883          	ld	a7,-448(s0)
    2a90:	01f28fb3          	add	t6,t0,t6
    2a94:	e3843283          	ld	t0,-456(s0)
    2a98:	01d30eb3          	add	t4,t1,t4
    2a9c:	e3043303          	ld	t1,-464(s0)
    2aa0:	01cf0e33          	add	t3,t5,t3
    2aa4:	e2843383          	ld	t2,-472(s0)
    2aa8:	f0043503          	ld	a0,-256(s0)
    2aac:	00ac0533          	add	a0,s8,a0
    2ab0:	f0a43023          	sd	a0,-256(s0)
    2ab4:	f0043683          	ld	a3,-256(s0)
    2ab8:	f0843503          	ld	a0,-248(s0)
    2abc:	00ab0533          	add	a0,s6,a0
    2ac0:	000015b7          	lui	a1,0x1
    2ac4:	40b405b3          	sub	a1,s0,a1
    2ac8:	6885bb03          	ld	s6,1672(a1) # 1688 <.LBB80_5+0x1d4>
    2acc:	f0a43423          	sd	a0,-248(s0)
    2ad0:	f0843603          	ld	a2,-248(s0)
    2ad4:	f1043503          	ld	a0,-240(s0)
    2ad8:	00aa8533          	add	a0,s5,a0
    2adc:	000015b7          	lui	a1,0x1
    2ae0:	40b405b3          	sub	a1,s0,a1
    2ae4:	6805bf03          	ld	t5,1664(a1) # 1680 <.LBB80_5+0x1cc>
    2ae8:	f0a43823          	sd	a0,-240(s0)
    2aec:	f1043583          	ld	a1,-240(s0)
    2af0:	f1843503          	ld	a0,-232(s0)
    2af4:	f4843783          	ld	a5,-184(s0)
    2af8:	00a78533          	add	a0,a5,a0
    2afc:	f6843a83          	ld	s5,-152(s0)
    2b00:	f0a43c23          	sd	a0,-232(s0)
    2b04:	f1843503          	ld	a0,-232(s0)
    2b08:	f6043783          	ld	a5,-160(s0)
    2b0c:	007783b3          	add	t2,a5,t2
    2b10:	e4843803          	ld	a6,-440(s0)
    2b14:	f5843783          	ld	a5,-168(s0)
    2b18:	00678333          	add	t1,a5,t1
    2b1c:	e5043783          	ld	a5,-432(s0)
    2b20:	f5043c03          	ld	s8,-176(s0)
    2b24:	005c02b3          	add	t0,s8,t0
    2b28:	e7043c03          	ld	s8,-400(s0)
    2b2c:	011c08b3          	add	a7,s8,a7
    2b30:	ea043c03          	ld	s8,-352(s0)
    2b34:	010c0833          	add	a6,s8,a6
    2b38:	00001c37          	lui	s8,0x1
    2b3c:	41840c33          	sub	s8,s0,s8
    2b40:	670c3c03          	ld	s8,1648(s8) # 1670 <.LBB80_5+0x1bc>
    2b44:	00fc07b3          	add	a5,s8,a5
    2b48:	e6843c03          	ld	s8,-408(s0)
    2b4c:	00ec0733          	add	a4,s8,a4
    2b50:	060b8b93          	addi	s7,s7,96
    2b54:	fa0f0f13          	addi	t5,t5,-96
    2b58:	001a8a93          	addi	s5,s5,1
    2b5c:	f7043c03          	ld	s8,-144(s0)
    2b60:	001c0c13          	addi	s8,s8,1
    2b64:	f7843823          	sd	s8,-144(s0)
    2b68:	000f0463          	beqz	t5,2b70 <.LBB80_6>
    2b6c:	949fe06f          	j	14b4 <.LBB80_5>

0000000000002b70 <.LBB80_6>:
    2b70:	00001537          	lui	a0,0x1
    2b74:	40a40533          	sub	a0,s0,a0
    2b78:	69053b03          	ld	s6,1680(a0) # 1690 <.LBB80_5+0x1dc>
    2b7c:	00001537          	lui	a0,0x1
    2b80:	40a40533          	sub	a0,s0,a0
    2b84:	69853c03          	ld	s8,1688(a0) # 1698 <.LBB80_5+0x1e4>
    2b88:	00001537          	lui	a0,0x1
    2b8c:	40a40533          	sub	a0,s0,a0
    2b90:	6a053a83          	ld	s5,1696(a0) # 16a0 <.LBB80_5+0x1ec>
    2b94:	00001537          	lui	a0,0x1
    2b98:	40a40533          	sub	a0,s0,a0
    2b9c:	66053d03          	ld	s10,1632(a0) # 1660 <.LBB80_5+0x1ac>
    2ba0:	002d1d13          	slli	s10,s10,0x2
    2ba4:	00002537          	lui	a0,0x2
    2ba8:	40a40533          	sub	a0,s0,a0
    2bac:	06053583          	ld	a1,96(a0) # 2060 <.LBB80_5+0xbac>
    2bb0:	01a585b3          	add	a1,a1,s10
    2bb4:	00001537          	lui	a0,0x1
    2bb8:	40a40533          	sub	a0,s0,a0
    2bbc:	8d053503          	ld	a0,-1840(a0) # 8d0 <.LBB80_3+0x628>
    2bc0:	00052503          	lw	a0,0(a0)
    2bc4:	00002637          	lui	a2,0x2
    2bc8:	40c40633          	sub	a2,s0,a2
    2bcc:	05863603          	ld	a2,88(a2) # 2058 <.LBB80_5+0xba4>
    2bd0:	01a60d33          	add	s10,a2,s10
    2bd4:	07cd2603          	lw	a2,124(s10)
    2bd8:	07c5af03          	lw	t5,124(a1)
    2bdc:	01a00693          	li	a3,26
    2be0:	02d50bb3          	mul	s7,a0,a3
    2be4:	00761613          	slli	a2,a2,0x7
    2be8:	ebe43423          	sd	t5,-344(s0)
    2bec:	00001537          	lui	a0,0x1
    2bf0:	40a40533          	sub	a0,s0,a0
    2bf4:	6a853503          	ld	a0,1704(a0) # 16a8 <.LBB80_5+0x1f4>
    2bf8:	01e50533          	add	a0,a0,t5
    2bfc:	eac43023          	sd	a2,-352(s0)
    2c00:	00c50533          	add	a0,a0,a2
    2c04:	ffe2c6b7          	lui	a3,0xffe2c
    2c08:	40db863b          	subw	a2,s7,a3
    2c0c:	40c5063b          	subw	a2,a0,a2
    2c10:	40000537          	lui	a0,0x40000
    2c14:	00001f37          	lui	t5,0x1
    2c18:	41e40f33          	sub	t5,s0,t5
    2c1c:	e6af3423          	sd	a0,-408(t5) # e68 <.LBB80_3+0xbc0>
    2c20:	00001f37          	lui	t5,0x1
    2c24:	41e40f33          	sub	t5,s0,t5
    2c28:	e6cf3023          	sd	a2,-416(t5) # e60 <.LBB80_3+0xbb8>
    2c2c:	00065463          	bgez	a2,2c34 <.LBB80_8>
    2c30:	c0000537          	lui	a0,0xc0000

0000000000002c34 <.LBB80_8>:
    2c34:	00001637          	lui	a2,0x1
    2c38:	40c40633          	sub	a2,s0,a2
    2c3c:	e4a63c23          	sd	a0,-424(a2) # e58 <.LBB80_3+0xbb0>
    2c40:	078d2503          	lw	a0,120(s10)
    2c44:	0785a603          	lw	a2,120(a1)
    2c48:	00751f13          	slli	t5,a0,0x7
    2c4c:	e8c43c23          	sd	a2,-360(s0)
    2c50:	00cb0533          	add	a0,s6,a2
    2c54:	e9e43823          	sd	t5,-368(s0)
    2c58:	01e50533          	add	a0,a0,t5
    2c5c:	40db863b          	subw	a2,s7,a3
    2c60:	40c5053b          	subw	a0,a0,a2
    2c64:	40000637          	lui	a2,0x40000
    2c68:	00001f37          	lui	t5,0x1
    2c6c:	41e40f33          	sub	t5,s0,t5
    2c70:	e4af3823          	sd	a0,-432(t5) # e50 <.LBB80_3+0xba8>
    2c74:	000a8b13          	mv	s6,s5
    2c78:	00055463          	bgez	a0,2c80 <.LBB80_10>
    2c7c:	c0000637          	lui	a2,0xc0000

0000000000002c80 <.LBB80_10>:
    2c80:	00001537          	lui	a0,0x1
    2c84:	40a40533          	sub	a0,s0,a0
    2c88:	e4c53423          	sd	a2,-440(a0) # e48 <.LBB80_3+0xba0>
    2c8c:	074d2503          	lw	a0,116(s10)
    2c90:	0745a603          	lw	a2,116(a1)
    2c94:	00751f13          	slli	t5,a0,0x7
    2c98:	e8c43423          	sd	a2,-376(s0)
    2c9c:	00001537          	lui	a0,0x1
    2ca0:	40a40533          	sub	a0,s0,a0
    2ca4:	6b053503          	ld	a0,1712(a0) # 16b0 <.LBB80_5+0x1fc>
    2ca8:	00c50533          	add	a0,a0,a2
    2cac:	e9e43023          	sd	t5,-384(s0)
    2cb0:	01e50533          	add	a0,a0,t5
    2cb4:	40db863b          	subw	a2,s7,a3
    2cb8:	40c5053b          	subw	a0,a0,a2
    2cbc:	40000637          	lui	a2,0x40000
    2cc0:	00001f37          	lui	t5,0x1
    2cc4:	41e40f33          	sub	t5,s0,t5
    2cc8:	e4af3023          	sd	a0,-448(t5) # e40 <.LBB80_3+0xb98>
    2ccc:	00001f37          	lui	t5,0x1
    2cd0:	41e40f33          	sub	t5,s0,t5
    2cd4:	6d8f3a83          	ld	s5,1752(t5) # 16d8 <.LBB80_5+0x224>
    2cd8:	00055463          	bgez	a0,2ce0 <.LBB80_12>
    2cdc:	c0000637          	lui	a2,0xc0000

0000000000002ce0 <.LBB80_12>:
    2ce0:	00001537          	lui	a0,0x1
    2ce4:	40a40533          	sub	a0,s0,a0
    2ce8:	e2c53c23          	sd	a2,-456(a0) # e38 <.LBB80_3+0xb90>
    2cec:	070d2503          	lw	a0,112(s10)
    2cf0:	0705a603          	lw	a2,112(a1)
    2cf4:	00751f13          	slli	t5,a0,0x7
    2cf8:	e6c43c23          	sd	a2,-392(s0)
    2cfc:	00001537          	lui	a0,0x1
    2d00:	40a40533          	sub	a0,s0,a0
    2d04:	6b853503          	ld	a0,1720(a0) # 16b8 <.LBB80_5+0x204>
    2d08:	00c50533          	add	a0,a0,a2
    2d0c:	e7e43823          	sd	t5,-400(s0)
    2d10:	01e50533          	add	a0,a0,t5
    2d14:	40db863b          	subw	a2,s7,a3
    2d18:	40c5053b          	subw	a0,a0,a2
    2d1c:	40000637          	lui	a2,0x40000
    2d20:	00001f37          	lui	t5,0x1
    2d24:	41e40f33          	sub	t5,s0,t5
    2d28:	e2af3823          	sd	a0,-464(t5) # e30 <.LBB80_3+0xb88>
    2d2c:	00055463          	bgez	a0,2d34 <.LBB80_14>
    2d30:	c0000637          	lui	a2,0xc0000

0000000000002d34 <.LBB80_14>:
    2d34:	00001537          	lui	a0,0x1
    2d38:	40a40533          	sub	a0,s0,a0
    2d3c:	e2c53423          	sd	a2,-472(a0) # e28 <.LBB80_3+0xb80>
    2d40:	06cd2503          	lw	a0,108(s10)
    2d44:	06c5a603          	lw	a2,108(a1)
    2d48:	00751f13          	slli	t5,a0,0x7
    2d4c:	e6c43423          	sd	a2,-408(s0)
    2d50:	00001537          	lui	a0,0x1
    2d54:	40a40533          	sub	a0,s0,a0
    2d58:	6c053503          	ld	a0,1728(a0) # 16c0 <.LBB80_5+0x20c>
    2d5c:	00c50533          	add	a0,a0,a2
    2d60:	e7e43023          	sd	t5,-416(s0)
    2d64:	01e50533          	add	a0,a0,t5
    2d68:	40db863b          	subw	a2,s7,a3
    2d6c:	40c5053b          	subw	a0,a0,a2
    2d70:	40000637          	lui	a2,0x40000
    2d74:	00001f37          	lui	t5,0x1
    2d78:	41e40f33          	sub	t5,s0,t5
    2d7c:	e2af3023          	sd	a0,-480(t5) # e20 <.LBB80_3+0xb78>
    2d80:	00055463          	bgez	a0,2d88 <.LBB80_16>
    2d84:	c0000637          	lui	a2,0xc0000

0000000000002d88 <.LBB80_16>:
    2d88:	00001537          	lui	a0,0x1
    2d8c:	40a40533          	sub	a0,s0,a0
    2d90:	e0c53c23          	sd	a2,-488(a0) # e18 <.LBB80_3+0xb70>
    2d94:	068d2503          	lw	a0,104(s10)
    2d98:	0685a603          	lw	a2,104(a1)
    2d9c:	00751f13          	slli	t5,a0,0x7
    2da0:	00001537          	lui	a0,0x1
    2da4:	40a40533          	sub	a0,s0,a0
    2da8:	6cc53023          	sd	a2,1728(a0) # 16c0 <.LBB80_5+0x20c>
    2dac:	00001537          	lui	a0,0x1
    2db0:	40a40533          	sub	a0,s0,a0
    2db4:	6c853503          	ld	a0,1736(a0) # 16c8 <.LBB80_5+0x214>
    2db8:	00c50533          	add	a0,a0,a2
    2dbc:	00001637          	lui	a2,0x1
    2dc0:	40c40633          	sub	a2,s0,a2
    2dc4:	6de63423          	sd	t5,1736(a2) # 16c8 <.LBB80_5+0x214>
    2dc8:	01e50533          	add	a0,a0,t5
    2dcc:	40db863b          	subw	a2,s7,a3
    2dd0:	40c5053b          	subw	a0,a0,a2
    2dd4:	40000637          	lui	a2,0x40000
    2dd8:	00001f37          	lui	t5,0x1
    2ddc:	41e40f33          	sub	t5,s0,t5
    2de0:	e0af3823          	sd	a0,-496(t5) # e10 <.LBB80_3+0xb68>
    2de4:	00055463          	bgez	a0,2dec <.LBB80_18>
    2de8:	c0000637          	lui	a2,0xc0000

0000000000002dec <.LBB80_18>:
    2dec:	00001537          	lui	a0,0x1
    2df0:	40a40533          	sub	a0,s0,a0
    2df4:	e0c53423          	sd	a2,-504(a0) # e08 <.LBB80_3+0xb60>
    2df8:	064d2503          	lw	a0,100(s10)
    2dfc:	0645a603          	lw	a2,100(a1)
    2e00:	00751f13          	slli	t5,a0,0x7
    2e04:	00001537          	lui	a0,0x1
    2e08:	40a40533          	sub	a0,s0,a0
    2e0c:	6ac53c23          	sd	a2,1720(a0) # 16b8 <.LBB80_5+0x204>
    2e10:	00001537          	lui	a0,0x1
    2e14:	40a40533          	sub	a0,s0,a0
    2e18:	6d053503          	ld	a0,1744(a0) # 16d0 <.LBB80_5+0x21c>
    2e1c:	00c50533          	add	a0,a0,a2
    2e20:	00001637          	lui	a2,0x1
    2e24:	40c40633          	sub	a2,s0,a2
    2e28:	6de63823          	sd	t5,1744(a2) # 16d0 <.LBB80_5+0x21c>
    2e2c:	01e50533          	add	a0,a0,t5
    2e30:	40db863b          	subw	a2,s7,a3
    2e34:	40c5053b          	subw	a0,a0,a2
    2e38:	40000637          	lui	a2,0x40000
    2e3c:	00001f37          	lui	t5,0x1
    2e40:	41e40f33          	sub	t5,s0,t5
    2e44:	e0af3023          	sd	a0,-512(t5) # e00 <.LBB80_3+0xb58>
    2e48:	00055463          	bgez	a0,2e50 <.LBB80_20>
    2e4c:	c0000637          	lui	a2,0xc0000

0000000000002e50 <.LBB80_20>:
    2e50:	00001537          	lui	a0,0x1
    2e54:	40a40533          	sub	a0,s0,a0
    2e58:	dec53c23          	sd	a2,-520(a0) # df8 <.LBB80_3+0xb50>
    2e5c:	e1d43c23          	sd	t4,-488(s0)
    2e60:	e2743423          	sd	t2,-472(s0)
    2e64:	e2643823          	sd	t1,-464(s0)
    2e68:	e2543c23          	sd	t0,-456(s0)
    2e6c:	e5143023          	sd	a7,-448(s0)
    2e70:	e5043423          	sd	a6,-440(s0)
    2e74:	e4f43823          	sd	a5,-432(s0)
    2e78:	e4e43c23          	sd	a4,-424(s0)
    2e7c:	060d2503          	lw	a0,96(s10)
    2e80:	0605a603          	lw	a2,96(a1)
    2e84:	00751713          	slli	a4,a0,0x7
    2e88:	00001537          	lui	a0,0x1
    2e8c:	40a40533          	sub	a0,s0,a0
    2e90:	6ac53823          	sd	a2,1712(a0) # 16b0 <.LBB80_5+0x1fc>
    2e94:	00ca8533          	add	a0,s5,a2
    2e98:	00001637          	lui	a2,0x1
    2e9c:	40c40633          	sub	a2,s0,a2
    2ea0:	6ce63c23          	sd	a4,1752(a2) # 16d8 <.LBB80_5+0x224>
    2ea4:	00e50533          	add	a0,a0,a4
    2ea8:	40db863b          	subw	a2,s7,a3
    2eac:	40c5053b          	subw	a0,a0,a2
    2eb0:	40000637          	lui	a2,0x40000
    2eb4:	000016b7          	lui	a3,0x1
    2eb8:	40d406b3          	sub	a3,s0,a3
    2ebc:	dea6b823          	sd	a0,-528(a3) # df0 <.LBB80_3+0xb48>
    2ec0:	00055463          	bgez	a0,2ec8 <.LBB80_22>
    2ec4:	c0000637          	lui	a2,0xc0000

0000000000002ec8 <.LBB80_22>:
    2ec8:	00001537          	lui	a0,0x1
    2ecc:	40a40533          	sub	a0,s0,a0
    2ed0:	dec53423          	sd	a2,-536(a0) # de8 <.LBB80_3+0xb40>
    2ed4:	dc143823          	sd	ra,-560(s0)
    2ed8:	ddb43c23          	sd	s11,-552(s0)
    2edc:	df943023          	sd	s9,-544(s0)
    2ee0:	df443823          	sd	s4,-528(s0)
    2ee4:	df343c23          	sd	s3,-520(s0)
    2ee8:	e1243023          	sd	s2,-512(s0)
    2eec:	e0943423          	sd	s1,-504(s0)
    2ef0:	e1f43823          	sd	t6,-496(s0)
    2ef4:	e3c43023          	sd	t3,-480(s0)
    2ef8:	0585ae83          	lw	t4,88(a1)
    2efc:	05c5ae03          	lw	t3,92(a1)
    2f00:	058d2603          	lw	a2,88(s10)
    2f04:	05cd2783          	lw	a5,92(s10)
    2f08:	00002537          	lui	a0,0x2
    2f0c:	40a40533          	sub	a0,s0,a0
    2f10:	04053503          	ld	a0,64(a0) # 2040 <.LBB80_5+0xb8c>
    2f14:	000016b7          	lui	a3,0x1
    2f18:	40d406b3          	sub	a3,s0,a3
    2f1c:	6606b303          	ld	t1,1632(a3) # 1660 <.LBB80_5+0x1ac>
    2f20:	00a30533          	add	a0,t1,a0
    2f24:	000026b7          	lui	a3,0x2
    2f28:	40d406b3          	sub	a3,s0,a3
    2f2c:	0506b683          	ld	a3,80(a3) # 2050 <.LBB80_5+0xb9c>
    2f30:	00001737          	lui	a4,0x1
    2f34:	40e40733          	sub	a4,s0,a4
    2f38:	88a73423          	sd	a0,-1912(a4) # 888 <.LBB80_3+0x5e0>
    2f3c:	00a68ab3          	add	s5,a3,a0
    2f40:	00002537          	lui	a0,0x2
    2f44:	40a40533          	sub	a0,s0,a0
    2f48:	03853503          	ld	a0,56(a0) # 2038 <.LBB80_5+0xb84>
    2f4c:	00a30533          	add	a0,t1,a0
    2f50:	00001737          	lui	a4,0x1
    2f54:	40e40733          	sub	a4,s0,a4
    2f58:	88a73823          	sd	a0,-1904(a4) # 890 <.LBB80_3+0x5e8>
    2f5c:	00a68f33          	add	t5,a3,a0
    2f60:	00002537          	lui	a0,0x2
    2f64:	40a40533          	sub	a0,s0,a0
    2f68:	03053503          	ld	a0,48(a0) # 2030 <.LBB80_5+0xb7c>
    2f6c:	00a30533          	add	a0,t1,a0
    2f70:	00001737          	lui	a4,0x1
    2f74:	40e40733          	sub	a4,s0,a4
    2f78:	88a73c23          	sd	a0,-1896(a4) # 898 <.LBB80_3+0x5f0>
    2f7c:	00a683b3          	add	t2,a3,a0
    2f80:	00002537          	lui	a0,0x2
    2f84:	40a40533          	sub	a0,s0,a0
    2f88:	02853503          	ld	a0,40(a0) # 2028 <.LBB80_5+0xb74>
    2f8c:	00650533          	add	a0,a0,t1
    2f90:	00001737          	lui	a4,0x1
    2f94:	40e40733          	sub	a4,s0,a4
    2f98:	8aa73023          	sd	a0,-1888(a4) # 8a0 <.LBB80_3+0x5f8>
    2f9c:	00a682b3          	add	t0,a3,a0
    2fa0:	00002537          	lui	a0,0x2
    2fa4:	40a40533          	sub	a0,s0,a0
    2fa8:	02053503          	ld	a0,32(a0) # 2020 <.LBB80_5+0xb6c>
    2fac:	00650533          	add	a0,a0,t1
    2fb0:	00001737          	lui	a4,0x1
    2fb4:	40e40733          	sub	a4,s0,a4
    2fb8:	8aa73423          	sd	a0,-1880(a4) # 8a8 <.LBB80_3+0x600>
    2fbc:	00a688b3          	add	a7,a3,a0
    2fc0:	00002537          	lui	a0,0x2
    2fc4:	40a40533          	sub	a0,s0,a0
    2fc8:	01853503          	ld	a0,24(a0) # 2018 <.LBB80_5+0xb64>
    2fcc:	00650533          	add	a0,a0,t1
    2fd0:	00001737          	lui	a4,0x1
    2fd4:	40e40733          	sub	a4,s0,a4
    2fd8:	8aa73823          	sd	a0,-1872(a4) # 8b0 <.LBB80_3+0x608>
    2fdc:	00a68733          	add	a4,a3,a0
    2fe0:	00002537          	lui	a0,0x2
    2fe4:	40a40533          	sub	a0,s0,a0
    2fe8:	01053503          	ld	a0,16(a0) # 2010 <.LBB80_5+0xb5c>
    2fec:	00650533          	add	a0,a0,t1
    2ff0:	00001837          	lui	a6,0x1
    2ff4:	41040833          	sub	a6,s0,a6
    2ff8:	8aa83c23          	sd	a0,-1864(a6) # 8b8 <.LBB80_3+0x610>
    2ffc:	00a68533          	add	a0,a3,a0
    3000:	00002837          	lui	a6,0x2
    3004:	41040833          	sub	a6,s0,a6
    3008:	00883803          	ld	a6,8(a6) # 2008 <.LBB80_5+0xb54>
    300c:	00680833          	add	a6,a6,t1
    3010:	00001337          	lui	t1,0x1
    3014:	40640333          	sub	t1,s0,t1
    3018:	8d033023          	sd	a6,-1856(t1) # 8c0 <.LBB80_3+0x618>
    301c:	010686b3          	add	a3,a3,a6
    3020:	00779813          	slli	a6,a5,0x7
    3024:	00761313          	slli	t1,a2,0x7
    3028:	00001637          	lui	a2,0x1
    302c:	40c40633          	sub	a2,s0,a2
    3030:	6bc63423          	sd	t3,1704(a2) # 16a8 <.LBB80_5+0x1f4>
    3034:	01cc0633          	add	a2,s8,t3
    3038:	000017b7          	lui	a5,0x1
    303c:	40f407b3          	sub	a5,s0,a5
    3040:	69d7bc23          	sd	t4,1688(a5) # 1698 <.LBB80_5+0x1e4>
    3044:	01db07b3          	add	a5,s6,t4
    3048:	00001e37          	lui	t3,0x1
    304c:	41c40e33          	sub	t3,s0,t3
    3050:	686e3823          	sd	t1,1680(t3) # 1690 <.LBB80_5+0x1dc>
    3054:	006787b3          	add	a5,a5,t1
    3058:	00001337          	lui	t1,0x1
    305c:	40640333          	sub	t1,s0,t1
    3060:	6b033023          	sd	a6,1696(t1) # 16a0 <.LBB80_5+0x1ec>
    3064:	01060633          	add	a2,a2,a6
    3068:	ffe2c337          	lui	t1,0xffe2c
    306c:	406b883b          	subw	a6,s7,t1
    3070:	4106083b          	subw	a6,a2,a6
    3074:	ffe2ceb7          	lui	t4,0xffe2c
    3078:	406b863b          	subw	a2,s7,t1
    307c:	40c787bb          	subw	a5,a5,a2
    3080:	00001637          	lui	a2,0x1
    3084:	40c40633          	sub	a2,s0,a2
    3088:	e6f63823          	sd	a5,-400(a2) # e70 <.LBB80_3+0xbc8>
    308c:	40000637          	lui	a2,0x40000
    3090:	000017b7          	lui	a5,0x1
    3094:	40f407b3          	sub	a5,s0,a5
    3098:	df07b023          	sd	a6,-544(a5) # de0 <.LBB80_3+0xb38>
    309c:	00085463          	bgez	a6,30a4 <.LBB80_24>
    30a0:	c0000637          	lui	a2,0xc0000

00000000000030a4 <.LBB80_24>:
    30a4:	000017b7          	lui	a5,0x1
    30a8:	40f407b3          	sub	a5,s0,a5
    30ac:	dcc7bc23          	sd	a2,-552(a5) # dd8 <.LBB80_3+0xb30>
    30b0:	0545a603          	lw	a2,84(a1)
    30b4:	f8c43023          	sd	a2,-128(s0)
    30b8:	00c5a603          	lw	a2,12(a1)
    30bc:	ecc43423          	sd	a2,-312(s0)
    30c0:	0085a603          	lw	a2,8(a1)
    30c4:	ecc43023          	sd	a2,-320(s0)
    30c8:	0045a603          	lw	a2,4(a1)
    30cc:	eac43c23          	sd	a2,-328(s0)
    30d0:	0005a603          	lw	a2,0(a1)
    30d4:	eac43823          	sd	a2,-336(s0)
    30d8:	0105a603          	lw	a2,16(a1)
    30dc:	ecc43823          	sd	a2,-304(s0)
    30e0:	0145a603          	lw	a2,20(a1)
    30e4:	ecc43c23          	sd	a2,-296(s0)
    30e8:	0185a603          	lw	a2,24(a1)
    30ec:	eec43023          	sd	a2,-288(s0)
    30f0:	01c5a603          	lw	a2,28(a1)
    30f4:	eec43423          	sd	a2,-280(s0)
    30f8:	0205a603          	lw	a2,32(a1)
    30fc:	eec43823          	sd	a2,-272(s0)
    3100:	0245a603          	lw	a2,36(a1)
    3104:	f2c43023          	sd	a2,-224(s0)
    3108:	0285a603          	lw	a2,40(a1)
    310c:	f2c43423          	sd	a2,-216(s0)
    3110:	02c5a603          	lw	a2,44(a1)
    3114:	f2c43823          	sd	a2,-208(s0)
    3118:	0305a603          	lw	a2,48(a1)
    311c:	f2c43c23          	sd	a2,-200(s0)
    3120:	0345a603          	lw	a2,52(a1)
    3124:	f4c43023          	sd	a2,-192(s0)
    3128:	0385a603          	lw	a2,56(a1)
    312c:	f4c43423          	sd	a2,-184(s0)
    3130:	03c5a603          	lw	a2,60(a1)
    3134:	f4c43823          	sd	a2,-176(s0)
    3138:	0405a603          	lw	a2,64(a1)
    313c:	f4c43c23          	sd	a2,-168(s0)
    3140:	0445a603          	lw	a2,68(a1)
    3144:	f6c43023          	sd	a2,-160(s0)
    3148:	0485a603          	lw	a2,72(a1)
    314c:	f6c43423          	sd	a2,-152(s0)
    3150:	04c5a603          	lw	a2,76(a1)
    3154:	f6c43823          	sd	a2,-144(s0)
    3158:	0505a583          	lw	a1,80(a1)
    315c:	f6b43c23          	sd	a1,-136(s0)
    3160:	054d2c83          	lw	s9,84(s10)
    3164:	00cd2583          	lw	a1,12(s10)
    3168:	f8a43823          	sd	a0,-112(s0)
    316c:	00001537          	lui	a0,0x1
    3170:	40a40533          	sub	a0,s0,a0
    3174:	dcb53423          	sd	a1,-568(a0) # dc8 <.LBB80_3+0xb20>
    3178:	008d2583          	lw	a1,8(s10)
    317c:	00001537          	lui	a0,0x1
    3180:	40a40533          	sub	a0,s0,a0
    3184:	dab53c23          	sd	a1,-584(a0) # db8 <.LBB80_3+0xb10>
    3188:	004d2583          	lw	a1,4(s10)
    318c:	00001537          	lui	a0,0x1
    3190:	40a40533          	sub	a0,s0,a0
    3194:	dab53423          	sd	a1,-600(a0) # da8 <.LBB80_3+0xb00>
    3198:	000d2583          	lw	a1,0(s10)
    319c:	00001537          	lui	a0,0x1
    31a0:	40a40533          	sub	a0,s0,a0
    31a4:	dab53023          	sd	a1,-608(a0) # da0 <.LBB80_3+0xaf8>
    31a8:	010d2583          	lw	a1,16(s10)
    31ac:	00001537          	lui	a0,0x1
    31b0:	40a40533          	sub	a0,s0,a0
    31b4:	d8b53c23          	sd	a1,-616(a0) # d98 <.LBB80_3+0xaf0>
    31b8:	014d2583          	lw	a1,20(s10)
    31bc:	00001537          	lui	a0,0x1
    31c0:	40a40533          	sub	a0,s0,a0
    31c4:	d8b53823          	sd	a1,-624(a0) # d90 <.LBB80_3+0xae8>
    31c8:	018d2583          	lw	a1,24(s10)
    31cc:	01cd2d83          	lw	s11,28(s10)
    31d0:	020d2083          	lw	ra,32(s10)
    31d4:	024d2b03          	lw	s6,36(s10)
    31d8:	028d2983          	lw	s3,40(s10)
    31dc:	02cd2e03          	lw	t3,44(s10)
    31e0:	030d2783          	lw	a5,48(s10)
    31e4:	034d2803          	lw	a6,52(s10)
    31e8:	038d2303          	lw	t1,56(s10)
    31ec:	03cd2f83          	lw	t6,60(s10)
    31f0:	040d2483          	lw	s1,64(s10)
    31f4:	044d2903          	lw	s2,68(s10)
    31f8:	048d2a03          	lw	s4,72(s10)
    31fc:	04cd2c03          	lw	s8,76(s10)
    3200:	050d2d03          	lw	s10,80(s10)
    3204:	003a8603          	lb	a2,3(s5)
    3208:	00001537          	lui	a0,0x1
    320c:	40a40533          	sub	a0,s0,a0
    3210:	e6c53c23          	sd	a2,-392(a0) # e78 <.LBB80_3+0xbd0>
    3214:	002a8603          	lb	a2,2(s5)
    3218:	00001537          	lui	a0,0x1
    321c:	40a40533          	sub	a0,s0,a0
    3220:	e8c53023          	sd	a2,-384(a0) # e80 <.LBB80_3+0xbd8>
    3224:	001a8603          	lb	a2,1(s5)
    3228:	00001537          	lui	a0,0x1
    322c:	40a40533          	sub	a0,s0,a0
    3230:	e8c53423          	sd	a2,-376(a0) # e88 <.LBB80_3+0xbe0>
    3234:	000a8603          	lb	a2,0(s5)
    3238:	00001537          	lui	a0,0x1
    323c:	40a40533          	sub	a0,s0,a0
    3240:	e8c53823          	sd	a2,-368(a0) # e90 <.LBB80_3+0xbe8>
    3244:	004a8603          	lb	a2,4(s5)
    3248:	00001537          	lui	a0,0x1
    324c:	40a40533          	sub	a0,s0,a0
    3250:	e8c53c23          	sd	a2,-360(a0) # e98 <.LBB80_3+0xbf0>
    3254:	005a8603          	lb	a2,5(s5)
    3258:	00001537          	lui	a0,0x1
    325c:	40a40533          	sub	a0,s0,a0
    3260:	eac53023          	sd	a2,-352(a0) # ea0 <.LBB80_3+0xbf8>
    3264:	006a8603          	lb	a2,6(s5)
    3268:	00001537          	lui	a0,0x1
    326c:	40a40533          	sub	a0,s0,a0
    3270:	eac53423          	sd	a2,-344(a0) # ea8 <.LBB80_3+0xc00>
    3274:	007a8603          	lb	a2,7(s5)
    3278:	00001537          	lui	a0,0x1
    327c:	40a40533          	sub	a0,s0,a0
    3280:	eac53823          	sd	a2,-336(a0) # eb0 <.LBB80_3+0xc08>
    3284:	008a8603          	lb	a2,8(s5)
    3288:	00001537          	lui	a0,0x1
    328c:	40a40533          	sub	a0,s0,a0
    3290:	eac53c23          	sd	a2,-328(a0) # eb8 <.LBB80_3+0xc10>
    3294:	009a8603          	lb	a2,9(s5)
    3298:	00001537          	lui	a0,0x1
    329c:	40a40533          	sub	a0,s0,a0
    32a0:	ecc53023          	sd	a2,-320(a0) # ec0 <.LBB80_3+0xc18>
    32a4:	00aa8603          	lb	a2,10(s5)
    32a8:	00001537          	lui	a0,0x1
    32ac:	40a40533          	sub	a0,s0,a0
    32b0:	ecc53423          	sd	a2,-312(a0) # ec8 <.LBB80_3+0xc20>
    32b4:	00ba8603          	lb	a2,11(s5)
    32b8:	00001537          	lui	a0,0x1
    32bc:	40a40533          	sub	a0,s0,a0
    32c0:	ecc53823          	sd	a2,-304(a0) # ed0 <.LBB80_3+0xc28>
    32c4:	00ca8603          	lb	a2,12(s5)
    32c8:	00001537          	lui	a0,0x1
    32cc:	40a40533          	sub	a0,s0,a0
    32d0:	ecc53c23          	sd	a2,-296(a0) # ed8 <.LBB80_3+0xc30>
    32d4:	00da8603          	lb	a2,13(s5)
    32d8:	00001537          	lui	a0,0x1
    32dc:	40a40533          	sub	a0,s0,a0
    32e0:	eec53023          	sd	a2,-288(a0) # ee0 <.LBB80_3+0xc38>
    32e4:	00ea8603          	lb	a2,14(s5)
    32e8:	00001537          	lui	a0,0x1
    32ec:	40a40533          	sub	a0,s0,a0
    32f0:	eec53423          	sd	a2,-280(a0) # ee8 <.LBB80_3+0xc40>
    32f4:	00fa8603          	lb	a2,15(s5)
    32f8:	00001537          	lui	a0,0x1
    32fc:	40a40533          	sub	a0,s0,a0
    3300:	eec53823          	sd	a2,-272(a0) # ef0 <.LBB80_3+0xc48>
    3304:	010a8603          	lb	a2,16(s5)
    3308:	00001537          	lui	a0,0x1
    330c:	40a40533          	sub	a0,s0,a0
    3310:	eec53c23          	sd	a2,-264(a0) # ef8 <.LBB80_3+0xc50>
    3314:	011a8603          	lb	a2,17(s5)
    3318:	00001537          	lui	a0,0x1
    331c:	40a40533          	sub	a0,s0,a0
    3320:	f0c53023          	sd	a2,-256(a0) # f00 <.LBB80_4>
    3324:	012a8603          	lb	a2,18(s5)
    3328:	00001537          	lui	a0,0x1
    332c:	40a40533          	sub	a0,s0,a0
    3330:	f0c53423          	sd	a2,-248(a0) # f08 <.LBB80_4+0x8>
    3334:	013a8603          	lb	a2,19(s5)
    3338:	00001537          	lui	a0,0x1
    333c:	40a40533          	sub	a0,s0,a0
    3340:	f0c53823          	sd	a2,-240(a0) # f10 <.LBB80_4+0x10>
    3344:	014a8603          	lb	a2,20(s5)
    3348:	00001537          	lui	a0,0x1
    334c:	40a40533          	sub	a0,s0,a0
    3350:	f0c53c23          	sd	a2,-232(a0) # f18 <.LBB80_4+0x18>
    3354:	015a8603          	lb	a2,21(s5)
    3358:	00001537          	lui	a0,0x1
    335c:	40a40533          	sub	a0,s0,a0
    3360:	f2c53023          	sd	a2,-224(a0) # f20 <.LBB80_4+0x20>
    3364:	016a8603          	lb	a2,22(s5)
    3368:	00001537          	lui	a0,0x1
    336c:	40a40533          	sub	a0,s0,a0
    3370:	f2c53423          	sd	a2,-216(a0) # f28 <.LBB80_4+0x28>
    3374:	017a8603          	lb	a2,23(s5)
    3378:	00001537          	lui	a0,0x1
    337c:	40a40533          	sub	a0,s0,a0
    3380:	f2c53823          	sd	a2,-208(a0) # f30 <.LBB80_4+0x30>
    3384:	018a8603          	lb	a2,24(s5)
    3388:	00001537          	lui	a0,0x1
    338c:	40a40533          	sub	a0,s0,a0
    3390:	f2c53c23          	sd	a2,-200(a0) # f38 <.LBB80_4+0x38>
    3394:	019a8603          	lb	a2,25(s5)
    3398:	00001537          	lui	a0,0x1
    339c:	40a40533          	sub	a0,s0,a0
    33a0:	f4c53023          	sd	a2,-192(a0) # f40 <.LBB80_4+0x40>
    33a4:	01aa8603          	lb	a2,26(s5)
    33a8:	00001537          	lui	a0,0x1
    33ac:	40a40533          	sub	a0,s0,a0
    33b0:	f4c53423          	sd	a2,-184(a0) # f48 <.LBB80_4+0x48>
    33b4:	01ba8603          	lb	a2,27(s5)
    33b8:	00001537          	lui	a0,0x1
    33bc:	40a40533          	sub	a0,s0,a0
    33c0:	f4c53823          	sd	a2,-176(a0) # f50 <.LBB80_4+0x50>
    33c4:	01ca8603          	lb	a2,28(s5)
    33c8:	00001537          	lui	a0,0x1
    33cc:	40a40533          	sub	a0,s0,a0
    33d0:	f4c53c23          	sd	a2,-168(a0) # f58 <.LBB80_4+0x58>
    33d4:	01da8603          	lb	a2,29(s5)
    33d8:	00001537          	lui	a0,0x1
    33dc:	40a40533          	sub	a0,s0,a0
    33e0:	f6c53023          	sd	a2,-160(a0) # f60 <.LBB80_4+0x60>
    33e4:	01ea8603          	lb	a2,30(s5)
    33e8:	00001537          	lui	a0,0x1
    33ec:	40a40533          	sub	a0,s0,a0
    33f0:	f6c53423          	sd	a2,-152(a0) # f68 <.LBB80_4+0x68>
    33f4:	f9043503          	ld	a0,-112(s0)
    33f8:	01fa8a83          	lb	s5,31(s5)
    33fc:	00001637          	lui	a2,0x1
    3400:	40c40633          	sub	a2,s0,a2
    3404:	f7563823          	sd	s5,-144(a2) # f70 <.LBB80_4+0x70>
    3408:	01ff0a83          	lb	s5,31(t5)
    340c:	00001637          	lui	a2,0x1
    3410:	40c40633          	sub	a2,s0,a2
    3414:	f7563c23          	sd	s5,-136(a2) # f78 <.LBB80_4+0x78>
    3418:	01ef0a83          	lb	s5,30(t5)
    341c:	00001637          	lui	a2,0x1
    3420:	40c40633          	sub	a2,s0,a2
    3424:	f9563023          	sd	s5,-128(a2) # f80 <.LBB80_4+0x80>
    3428:	01df0a83          	lb	s5,29(t5)
    342c:	00001637          	lui	a2,0x1
    3430:	40c40633          	sub	a2,s0,a2
    3434:	f9563423          	sd	s5,-120(a2) # f88 <.LBB80_4+0x88>
    3438:	01cf0a83          	lb	s5,28(t5)
    343c:	00001637          	lui	a2,0x1
    3440:	40c40633          	sub	a2,s0,a2
    3444:	f9563823          	sd	s5,-112(a2) # f90 <.LBB80_4+0x90>
    3448:	01bf0a83          	lb	s5,27(t5)
    344c:	00001637          	lui	a2,0x1
    3450:	40c40633          	sub	a2,s0,a2
    3454:	f9563c23          	sd	s5,-104(a2) # f98 <.LBB80_4+0x98>
    3458:	01af0a83          	lb	s5,26(t5)
    345c:	00001637          	lui	a2,0x1
    3460:	40c40633          	sub	a2,s0,a2
    3464:	fb563023          	sd	s5,-96(a2) # fa0 <.LBB80_4+0xa0>
    3468:	019f0a83          	lb	s5,25(t5)
    346c:	00001637          	lui	a2,0x1
    3470:	40c40633          	sub	a2,s0,a2
    3474:	fb563423          	sd	s5,-88(a2) # fa8 <.LBB80_4+0xa8>
    3478:	018f0a83          	lb	s5,24(t5)
    347c:	00001637          	lui	a2,0x1
    3480:	40c40633          	sub	a2,s0,a2
    3484:	fb563823          	sd	s5,-80(a2) # fb0 <.LBB80_4+0xb0>
    3488:	017f0a83          	lb	s5,23(t5)
    348c:	00001637          	lui	a2,0x1
    3490:	40c40633          	sub	a2,s0,a2
    3494:	fb563c23          	sd	s5,-72(a2) # fb8 <.LBB80_4+0xb8>
    3498:	016f0a83          	lb	s5,22(t5)
    349c:	00001637          	lui	a2,0x1
    34a0:	40c40633          	sub	a2,s0,a2
    34a4:	fd563023          	sd	s5,-64(a2) # fc0 <.LBB80_4+0xc0>
    34a8:	015f0a83          	lb	s5,21(t5)
    34ac:	00001637          	lui	a2,0x1
    34b0:	40c40633          	sub	a2,s0,a2
    34b4:	fd563423          	sd	s5,-56(a2) # fc8 <.LBB80_4+0xc8>
    34b8:	014f0a83          	lb	s5,20(t5)
    34bc:	00001637          	lui	a2,0x1
    34c0:	40c40633          	sub	a2,s0,a2
    34c4:	fd563823          	sd	s5,-48(a2) # fd0 <.LBB80_4+0xd0>
    34c8:	013f0a83          	lb	s5,19(t5)
    34cc:	00001637          	lui	a2,0x1
    34d0:	40c40633          	sub	a2,s0,a2
    34d4:	fd563c23          	sd	s5,-40(a2) # fd8 <.LBB80_4+0xd8>
    34d8:	012f0a83          	lb	s5,18(t5)
    34dc:	00001637          	lui	a2,0x1
    34e0:	40c40633          	sub	a2,s0,a2
    34e4:	ff563023          	sd	s5,-32(a2) # fe0 <.LBB80_4+0xe0>
    34e8:	011f0a83          	lb	s5,17(t5)
    34ec:	00001637          	lui	a2,0x1
    34f0:	40c40633          	sub	a2,s0,a2
    34f4:	ff563423          	sd	s5,-24(a2) # fe8 <.LBB80_4+0xe8>
    34f8:	010f0a83          	lb	s5,16(t5)
    34fc:	00001637          	lui	a2,0x1
    3500:	40c40633          	sub	a2,s0,a2
    3504:	ff563823          	sd	s5,-16(a2) # ff0 <.LBB80_4+0xf0>
    3508:	00ff0a83          	lb	s5,15(t5)
    350c:	00001637          	lui	a2,0x1
    3510:	40c40633          	sub	a2,s0,a2
    3514:	ff563c23          	sd	s5,-8(a2) # ff8 <.LBB80_4+0xf8>
    3518:	00ef0a83          	lb	s5,14(t5)
    351c:	00001637          	lui	a2,0x1
    3520:	40c40633          	sub	a2,s0,a2
    3524:	01563023          	sd	s5,0(a2) # 1000 <.LBB80_4+0x100>
    3528:	00df0a83          	lb	s5,13(t5)
    352c:	00001637          	lui	a2,0x1
    3530:	40c40633          	sub	a2,s0,a2
    3534:	01563423          	sd	s5,8(a2) # 1008 <.LBB80_4+0x108>
    3538:	00cf0a83          	lb	s5,12(t5)
    353c:	00001637          	lui	a2,0x1
    3540:	40c40633          	sub	a2,s0,a2
    3544:	01563823          	sd	s5,16(a2) # 1010 <.LBB80_4+0x110>
    3548:	00bf0a83          	lb	s5,11(t5)
    354c:	00001637          	lui	a2,0x1
    3550:	40c40633          	sub	a2,s0,a2
    3554:	01563c23          	sd	s5,24(a2) # 1018 <.LBB80_4+0x118>
    3558:	00af0a83          	lb	s5,10(t5)
    355c:	00001637          	lui	a2,0x1
    3560:	40c40633          	sub	a2,s0,a2
    3564:	03563023          	sd	s5,32(a2) # 1020 <.LBB80_4+0x120>
    3568:	009f0a83          	lb	s5,9(t5)
    356c:	00001637          	lui	a2,0x1
    3570:	40c40633          	sub	a2,s0,a2
    3574:	03563423          	sd	s5,40(a2) # 1028 <.LBB80_4+0x128>
    3578:	008f0a83          	lb	s5,8(t5)
    357c:	00001637          	lui	a2,0x1
    3580:	40c40633          	sub	a2,s0,a2
    3584:	03563823          	sd	s5,48(a2) # 1030 <.LBB80_4+0x130>
    3588:	007f0a83          	lb	s5,7(t5)
    358c:	00001637          	lui	a2,0x1
    3590:	40c40633          	sub	a2,s0,a2
    3594:	03563c23          	sd	s5,56(a2) # 1038 <.LBB80_4+0x138>
    3598:	006f0a83          	lb	s5,6(t5)
    359c:	00001637          	lui	a2,0x1
    35a0:	40c40633          	sub	a2,s0,a2
    35a4:	05563023          	sd	s5,64(a2) # 1040 <.LBB80_4+0x140>
    35a8:	005f0a83          	lb	s5,5(t5)
    35ac:	00001637          	lui	a2,0x1
    35b0:	40c40633          	sub	a2,s0,a2
    35b4:	05563423          	sd	s5,72(a2) # 1048 <.LBB80_4+0x148>
    35b8:	004f0a83          	lb	s5,4(t5)
    35bc:	00001637          	lui	a2,0x1
    35c0:	40c40633          	sub	a2,s0,a2
    35c4:	05563823          	sd	s5,80(a2) # 1050 <.LBB80_4+0x150>
    35c8:	003f0a83          	lb	s5,3(t5)
    35cc:	00001637          	lui	a2,0x1
    35d0:	40c40633          	sub	a2,s0,a2
    35d4:	05563c23          	sd	s5,88(a2) # 1058 <.LBB80_4+0x158>
    35d8:	002f0a83          	lb	s5,2(t5)
    35dc:	00001637          	lui	a2,0x1
    35e0:	40c40633          	sub	a2,s0,a2
    35e4:	07563023          	sd	s5,96(a2) # 1060 <.LBB80_4+0x160>
    35e8:	001f0a83          	lb	s5,1(t5)
    35ec:	00001637          	lui	a2,0x1
    35f0:	40c40633          	sub	a2,s0,a2
    35f4:	07563423          	sd	s5,104(a2) # 1068 <.LBB80_4+0x168>
    35f8:	000f0f03          	lb	t5,0(t5)
    35fc:	00001637          	lui	a2,0x1
    3600:	40c40633          	sub	a2,s0,a2
    3604:	07e63823          	sd	t5,112(a2) # 1070 <.LBB80_4+0x170>
    3608:	01f38f03          	lb	t5,31(t2)
    360c:	00001637          	lui	a2,0x1
    3610:	40c40633          	sub	a2,s0,a2
    3614:	07e63c23          	sd	t5,120(a2) # 1078 <.LBB80_4+0x178>
    3618:	01e38f03          	lb	t5,30(t2)
    361c:	00001637          	lui	a2,0x1
    3620:	40c40633          	sub	a2,s0,a2
    3624:	09e63023          	sd	t5,128(a2) # 1080 <.LBB80_4+0x180>
    3628:	01d38f03          	lb	t5,29(t2)
    362c:	00001637          	lui	a2,0x1
    3630:	40c40633          	sub	a2,s0,a2
    3634:	09e63423          	sd	t5,136(a2) # 1088 <.LBB80_4+0x188>
    3638:	01c38f03          	lb	t5,28(t2)
    363c:	00001637          	lui	a2,0x1
    3640:	40c40633          	sub	a2,s0,a2
    3644:	09e63823          	sd	t5,144(a2) # 1090 <.LBB80_4+0x190>
    3648:	01b38f03          	lb	t5,27(t2)
    364c:	00001637          	lui	a2,0x1
    3650:	40c40633          	sub	a2,s0,a2
    3654:	09e63c23          	sd	t5,152(a2) # 1098 <.LBB80_4+0x198>
    3658:	01a38f03          	lb	t5,26(t2)
    365c:	00001637          	lui	a2,0x1
    3660:	40c40633          	sub	a2,s0,a2
    3664:	0be63023          	sd	t5,160(a2) # 10a0 <.LBB80_4+0x1a0>
    3668:	01938f03          	lb	t5,25(t2)
    366c:	00001637          	lui	a2,0x1
    3670:	40c40633          	sub	a2,s0,a2
    3674:	0be63423          	sd	t5,168(a2) # 10a8 <.LBB80_4+0x1a8>
    3678:	01838f03          	lb	t5,24(t2)
    367c:	00001637          	lui	a2,0x1
    3680:	40c40633          	sub	a2,s0,a2
    3684:	0be63823          	sd	t5,176(a2) # 10b0 <.LBB80_4+0x1b0>
    3688:	01738f03          	lb	t5,23(t2)
    368c:	00001637          	lui	a2,0x1
    3690:	40c40633          	sub	a2,s0,a2
    3694:	0be63c23          	sd	t5,184(a2) # 10b8 <.LBB80_4+0x1b8>
    3698:	01638f03          	lb	t5,22(t2)
    369c:	00001637          	lui	a2,0x1
    36a0:	40c40633          	sub	a2,s0,a2
    36a4:	0de63023          	sd	t5,192(a2) # 10c0 <.LBB80_4+0x1c0>
    36a8:	01538f03          	lb	t5,21(t2)
    36ac:	00001637          	lui	a2,0x1
    36b0:	40c40633          	sub	a2,s0,a2
    36b4:	0de63423          	sd	t5,200(a2) # 10c8 <.LBB80_4+0x1c8>
    36b8:	01438f03          	lb	t5,20(t2)
    36bc:	00001637          	lui	a2,0x1
    36c0:	40c40633          	sub	a2,s0,a2
    36c4:	0de63823          	sd	t5,208(a2) # 10d0 <.LBB80_4+0x1d0>
    36c8:	01338f03          	lb	t5,19(t2)
    36cc:	00001637          	lui	a2,0x1
    36d0:	40c40633          	sub	a2,s0,a2
    36d4:	0de63c23          	sd	t5,216(a2) # 10d8 <.LBB80_4+0x1d8>
    36d8:	01238f03          	lb	t5,18(t2)
    36dc:	00001637          	lui	a2,0x1
    36e0:	40c40633          	sub	a2,s0,a2
    36e4:	0fe63023          	sd	t5,224(a2) # 10e0 <.LBB80_4+0x1e0>
    36e8:	01138f03          	lb	t5,17(t2)
    36ec:	00001637          	lui	a2,0x1
    36f0:	40c40633          	sub	a2,s0,a2
    36f4:	0fe63423          	sd	t5,232(a2) # 10e8 <.LBB80_4+0x1e8>
    36f8:	01038f03          	lb	t5,16(t2)
    36fc:	00001637          	lui	a2,0x1
    3700:	40c40633          	sub	a2,s0,a2
    3704:	0fe63823          	sd	t5,240(a2) # 10f0 <.LBB80_4+0x1f0>
    3708:	00f38f03          	lb	t5,15(t2)
    370c:	00001637          	lui	a2,0x1
    3710:	40c40633          	sub	a2,s0,a2
    3714:	0fe63c23          	sd	t5,248(a2) # 10f8 <.LBB80_4+0x1f8>
    3718:	00e38f03          	lb	t5,14(t2)
    371c:	00001637          	lui	a2,0x1
    3720:	40c40633          	sub	a2,s0,a2
    3724:	11e63023          	sd	t5,256(a2) # 1100 <.LBB80_4+0x200>
    3728:	00d38f03          	lb	t5,13(t2)
    372c:	00001637          	lui	a2,0x1
    3730:	40c40633          	sub	a2,s0,a2
    3734:	11e63423          	sd	t5,264(a2) # 1108 <.LBB80_4+0x208>
    3738:	00c38f03          	lb	t5,12(t2)
    373c:	00001637          	lui	a2,0x1
    3740:	40c40633          	sub	a2,s0,a2
    3744:	11e63823          	sd	t5,272(a2) # 1110 <.LBB80_4+0x210>
    3748:	00b38f03          	lb	t5,11(t2)
    374c:	00001637          	lui	a2,0x1
    3750:	40c40633          	sub	a2,s0,a2
    3754:	11e63c23          	sd	t5,280(a2) # 1118 <.LBB80_4+0x218>
    3758:	00a38f03          	lb	t5,10(t2)
    375c:	00001637          	lui	a2,0x1
    3760:	40c40633          	sub	a2,s0,a2
    3764:	13e63023          	sd	t5,288(a2) # 1120 <.LBB80_4+0x220>
    3768:	00938f03          	lb	t5,9(t2)
    376c:	00001637          	lui	a2,0x1
    3770:	40c40633          	sub	a2,s0,a2
    3774:	13e63423          	sd	t5,296(a2) # 1128 <.LBB80_4+0x228>
    3778:	00838f03          	lb	t5,8(t2)
    377c:	00001637          	lui	a2,0x1
    3780:	40c40633          	sub	a2,s0,a2
    3784:	13e63823          	sd	t5,304(a2) # 1130 <.LBB80_4+0x230>
    3788:	00738f03          	lb	t5,7(t2)
    378c:	00001637          	lui	a2,0x1
    3790:	40c40633          	sub	a2,s0,a2
    3794:	13e63c23          	sd	t5,312(a2) # 1138 <.LBB80_4+0x238>
    3798:	00638f03          	lb	t5,6(t2)
    379c:	00001637          	lui	a2,0x1
    37a0:	40c40633          	sub	a2,s0,a2
    37a4:	15e63023          	sd	t5,320(a2) # 1140 <.LBB80_4+0x240>
    37a8:	00538f03          	lb	t5,5(t2)
    37ac:	00001637          	lui	a2,0x1
    37b0:	40c40633          	sub	a2,s0,a2
    37b4:	15e63423          	sd	t5,328(a2) # 1148 <.LBB80_4+0x248>
    37b8:	00438f03          	lb	t5,4(t2)
    37bc:	00001637          	lui	a2,0x1
    37c0:	40c40633          	sub	a2,s0,a2
    37c4:	15e63823          	sd	t5,336(a2) # 1150 <.LBB80_4+0x250>
    37c8:	00338f03          	lb	t5,3(t2)
    37cc:	00001637          	lui	a2,0x1
    37d0:	40c40633          	sub	a2,s0,a2
    37d4:	15e63c23          	sd	t5,344(a2) # 1158 <.LBB80_4+0x258>
    37d8:	00238f03          	lb	t5,2(t2)
    37dc:	00001637          	lui	a2,0x1
    37e0:	40c40633          	sub	a2,s0,a2
    37e4:	17e63023          	sd	t5,352(a2) # 1160 <.LBB80_4+0x260>
    37e8:	00138f03          	lb	t5,1(t2)
    37ec:	00001637          	lui	a2,0x1
    37f0:	40c40633          	sub	a2,s0,a2
    37f4:	17e63423          	sd	t5,360(a2) # 1168 <.LBB80_4+0x268>
    37f8:	00038383          	lb	t2,0(t2)
    37fc:	00001637          	lui	a2,0x1
    3800:	40c40633          	sub	a2,s0,a2
    3804:	16763823          	sd	t2,368(a2) # 1170 <.LBB80_4+0x270>
    3808:	01f28383          	lb	t2,31(t0)
    380c:	00001637          	lui	a2,0x1
    3810:	40c40633          	sub	a2,s0,a2
    3814:	16763c23          	sd	t2,376(a2) # 1178 <.LBB80_4+0x278>
    3818:	01e28383          	lb	t2,30(t0)
    381c:	00001637          	lui	a2,0x1
    3820:	40c40633          	sub	a2,s0,a2
    3824:	18763023          	sd	t2,384(a2) # 1180 <.LBB80_4+0x280>
    3828:	01d28383          	lb	t2,29(t0)
    382c:	00001637          	lui	a2,0x1
    3830:	40c40633          	sub	a2,s0,a2
    3834:	18763423          	sd	t2,392(a2) # 1188 <.LBB80_4+0x288>
    3838:	01c28383          	lb	t2,28(t0)
    383c:	00001637          	lui	a2,0x1
    3840:	40c40633          	sub	a2,s0,a2
    3844:	18763823          	sd	t2,400(a2) # 1190 <.LBB80_4+0x290>
    3848:	01b28383          	lb	t2,27(t0)
    384c:	00001637          	lui	a2,0x1
    3850:	40c40633          	sub	a2,s0,a2
    3854:	18763c23          	sd	t2,408(a2) # 1198 <.LBB80_4+0x298>
    3858:	01a28383          	lb	t2,26(t0)
    385c:	00001637          	lui	a2,0x1
    3860:	40c40633          	sub	a2,s0,a2
    3864:	1a763023          	sd	t2,416(a2) # 11a0 <.LBB80_4+0x2a0>
    3868:	01928383          	lb	t2,25(t0)
    386c:	00001637          	lui	a2,0x1
    3870:	40c40633          	sub	a2,s0,a2
    3874:	1a763423          	sd	t2,424(a2) # 11a8 <.LBB80_4+0x2a8>
    3878:	01828383          	lb	t2,24(t0)
    387c:	00001637          	lui	a2,0x1
    3880:	40c40633          	sub	a2,s0,a2
    3884:	1a763823          	sd	t2,432(a2) # 11b0 <.LBB80_4+0x2b0>
    3888:	01728383          	lb	t2,23(t0)
    388c:	00001637          	lui	a2,0x1
    3890:	40c40633          	sub	a2,s0,a2
    3894:	1a763c23          	sd	t2,440(a2) # 11b8 <.LBB80_4+0x2b8>
    3898:	01628383          	lb	t2,22(t0)
    389c:	00001637          	lui	a2,0x1
    38a0:	40c40633          	sub	a2,s0,a2
    38a4:	1c763023          	sd	t2,448(a2) # 11c0 <.LBB80_4+0x2c0>
    38a8:	01528383          	lb	t2,21(t0)
    38ac:	00001637          	lui	a2,0x1
    38b0:	40c40633          	sub	a2,s0,a2
    38b4:	1c763423          	sd	t2,456(a2) # 11c8 <.LBB80_4+0x2c8>
    38b8:	01428383          	lb	t2,20(t0)
    38bc:	00001637          	lui	a2,0x1
    38c0:	40c40633          	sub	a2,s0,a2
    38c4:	1c763823          	sd	t2,464(a2) # 11d0 <.LBB80_4+0x2d0>
    38c8:	01328383          	lb	t2,19(t0)
    38cc:	00001637          	lui	a2,0x1
    38d0:	40c40633          	sub	a2,s0,a2
    38d4:	1c763c23          	sd	t2,472(a2) # 11d8 <.LBB80_4+0x2d8>
    38d8:	01228383          	lb	t2,18(t0)
    38dc:	00001637          	lui	a2,0x1
    38e0:	40c40633          	sub	a2,s0,a2
    38e4:	1e763023          	sd	t2,480(a2) # 11e0 <.LBB80_4+0x2e0>
    38e8:	01128383          	lb	t2,17(t0)
    38ec:	00001637          	lui	a2,0x1
    38f0:	40c40633          	sub	a2,s0,a2
    38f4:	1e763423          	sd	t2,488(a2) # 11e8 <.LBB80_4+0x2e8>
    38f8:	01028383          	lb	t2,16(t0)
    38fc:	00001637          	lui	a2,0x1
    3900:	40c40633          	sub	a2,s0,a2
    3904:	1e763823          	sd	t2,496(a2) # 11f0 <.LBB80_4+0x2f0>
    3908:	00f28383          	lb	t2,15(t0)
    390c:	00001637          	lui	a2,0x1
    3910:	40c40633          	sub	a2,s0,a2
    3914:	1e763c23          	sd	t2,504(a2) # 11f8 <.LBB80_4+0x2f8>
    3918:	00e28383          	lb	t2,14(t0)
    391c:	00001637          	lui	a2,0x1
    3920:	40c40633          	sub	a2,s0,a2
    3924:	20763023          	sd	t2,512(a2) # 1200 <.LBB80_4+0x300>
    3928:	00d28383          	lb	t2,13(t0)
    392c:	00001637          	lui	a2,0x1
    3930:	40c40633          	sub	a2,s0,a2
    3934:	20763423          	sd	t2,520(a2) # 1208 <.LBB80_4+0x308>
    3938:	00c28383          	lb	t2,12(t0)
    393c:	00001637          	lui	a2,0x1
    3940:	40c40633          	sub	a2,s0,a2
    3944:	20763823          	sd	t2,528(a2) # 1210 <.LBB80_4+0x310>
    3948:	00b28383          	lb	t2,11(t0)
    394c:	00001637          	lui	a2,0x1
    3950:	40c40633          	sub	a2,s0,a2
    3954:	20763c23          	sd	t2,536(a2) # 1218 <.LBB80_4+0x318>
    3958:	00a28383          	lb	t2,10(t0)
    395c:	00001637          	lui	a2,0x1
    3960:	40c40633          	sub	a2,s0,a2
    3964:	22763023          	sd	t2,544(a2) # 1220 <.LBB80_4+0x320>
    3968:	00928383          	lb	t2,9(t0)
    396c:	00001637          	lui	a2,0x1
    3970:	40c40633          	sub	a2,s0,a2
    3974:	22763423          	sd	t2,552(a2) # 1228 <.LBB80_4+0x328>
    3978:	00828383          	lb	t2,8(t0)
    397c:	00001637          	lui	a2,0x1
    3980:	40c40633          	sub	a2,s0,a2
    3984:	22763823          	sd	t2,560(a2) # 1230 <.LBB80_4+0x330>
    3988:	00728383          	lb	t2,7(t0)
    398c:	00001637          	lui	a2,0x1
    3990:	40c40633          	sub	a2,s0,a2
    3994:	22763c23          	sd	t2,568(a2) # 1238 <.LBB80_4+0x338>
    3998:	00628383          	lb	t2,6(t0)
    399c:	00001637          	lui	a2,0x1
    39a0:	40c40633          	sub	a2,s0,a2
    39a4:	24763023          	sd	t2,576(a2) # 1240 <.LBB80_4+0x340>
    39a8:	00528383          	lb	t2,5(t0)
    39ac:	00001637          	lui	a2,0x1
    39b0:	40c40633          	sub	a2,s0,a2
    39b4:	24763423          	sd	t2,584(a2) # 1248 <.LBB80_4+0x348>
    39b8:	00428383          	lb	t2,4(t0)
    39bc:	00001637          	lui	a2,0x1
    39c0:	40c40633          	sub	a2,s0,a2
    39c4:	24763823          	sd	t2,592(a2) # 1250 <.LBB80_4+0x350>
    39c8:	00328383          	lb	t2,3(t0)
    39cc:	00001637          	lui	a2,0x1
    39d0:	40c40633          	sub	a2,s0,a2
    39d4:	24763c23          	sd	t2,600(a2) # 1258 <.LBB80_4+0x358>
    39d8:	00228383          	lb	t2,2(t0)
    39dc:	00001637          	lui	a2,0x1
    39e0:	40c40633          	sub	a2,s0,a2
    39e4:	26763023          	sd	t2,608(a2) # 1260 <.LBB80_4+0x360>
    39e8:	00128383          	lb	t2,1(t0)
    39ec:	00001637          	lui	a2,0x1
    39f0:	40c40633          	sub	a2,s0,a2
    39f4:	26763423          	sd	t2,616(a2) # 1268 <.LBB80_4+0x368>
    39f8:	00028283          	lb	t0,0(t0)
    39fc:	00001637          	lui	a2,0x1
    3a00:	40c40633          	sub	a2,s0,a2
    3a04:	26563823          	sd	t0,624(a2) # 1270 <.LBB80_4+0x370>
    3a08:	01f88283          	lb	t0,31(a7)
    3a0c:	00001637          	lui	a2,0x1
    3a10:	40c40633          	sub	a2,s0,a2
    3a14:	26563c23          	sd	t0,632(a2) # 1278 <.LBB80_4+0x378>
    3a18:	01e88283          	lb	t0,30(a7)
    3a1c:	00001637          	lui	a2,0x1
    3a20:	40c40633          	sub	a2,s0,a2
    3a24:	28563023          	sd	t0,640(a2) # 1280 <.LBB80_4+0x380>
    3a28:	01d88283          	lb	t0,29(a7)
    3a2c:	00001637          	lui	a2,0x1
    3a30:	40c40633          	sub	a2,s0,a2
    3a34:	28563423          	sd	t0,648(a2) # 1288 <.LBB80_4+0x388>
    3a38:	01c88283          	lb	t0,28(a7)
    3a3c:	00001637          	lui	a2,0x1
    3a40:	40c40633          	sub	a2,s0,a2
    3a44:	28563823          	sd	t0,656(a2) # 1290 <.LBB80_4+0x390>
    3a48:	01b88283          	lb	t0,27(a7)
    3a4c:	00001637          	lui	a2,0x1
    3a50:	40c40633          	sub	a2,s0,a2
    3a54:	28563c23          	sd	t0,664(a2) # 1298 <.LBB80_4+0x398>
    3a58:	01a88283          	lb	t0,26(a7)
    3a5c:	00001637          	lui	a2,0x1
    3a60:	40c40633          	sub	a2,s0,a2
    3a64:	2a563023          	sd	t0,672(a2) # 12a0 <.LBB80_4+0x3a0>
    3a68:	01988283          	lb	t0,25(a7)
    3a6c:	00001637          	lui	a2,0x1
    3a70:	40c40633          	sub	a2,s0,a2
    3a74:	2a563423          	sd	t0,680(a2) # 12a8 <.LBB80_4+0x3a8>
    3a78:	01888283          	lb	t0,24(a7)
    3a7c:	00001637          	lui	a2,0x1
    3a80:	40c40633          	sub	a2,s0,a2
    3a84:	2a563823          	sd	t0,688(a2) # 12b0 <.LBB80_4+0x3b0>
    3a88:	01788283          	lb	t0,23(a7)
    3a8c:	00001637          	lui	a2,0x1
    3a90:	40c40633          	sub	a2,s0,a2
    3a94:	2a563c23          	sd	t0,696(a2) # 12b8 <.LBB80_4+0x3b8>
    3a98:	01688283          	lb	t0,22(a7)
    3a9c:	00001637          	lui	a2,0x1
    3aa0:	40c40633          	sub	a2,s0,a2
    3aa4:	2c563023          	sd	t0,704(a2) # 12c0 <.LBB80_4+0x3c0>
    3aa8:	01588283          	lb	t0,21(a7)
    3aac:	00001637          	lui	a2,0x1
    3ab0:	40c40633          	sub	a2,s0,a2
    3ab4:	2c563423          	sd	t0,712(a2) # 12c8 <.LBB80_4+0x3c8>
    3ab8:	01488283          	lb	t0,20(a7)
    3abc:	00001637          	lui	a2,0x1
    3ac0:	40c40633          	sub	a2,s0,a2
    3ac4:	2c563823          	sd	t0,720(a2) # 12d0 <.LBB80_4+0x3d0>
    3ac8:	01388283          	lb	t0,19(a7)
    3acc:	00001637          	lui	a2,0x1
    3ad0:	40c40633          	sub	a2,s0,a2
    3ad4:	2c563c23          	sd	t0,728(a2) # 12d8 <.LBB80_4+0x3d8>
    3ad8:	01288283          	lb	t0,18(a7)
    3adc:	00001637          	lui	a2,0x1
    3ae0:	40c40633          	sub	a2,s0,a2
    3ae4:	2e563023          	sd	t0,736(a2) # 12e0 <.LBB80_4+0x3e0>
    3ae8:	01188283          	lb	t0,17(a7)
    3aec:	00001637          	lui	a2,0x1
    3af0:	40c40633          	sub	a2,s0,a2
    3af4:	2e563423          	sd	t0,744(a2) # 12e8 <.LBB80_4+0x3e8>
    3af8:	01088283          	lb	t0,16(a7)
    3afc:	00001637          	lui	a2,0x1
    3b00:	40c40633          	sub	a2,s0,a2
    3b04:	2e563823          	sd	t0,752(a2) # 12f0 <.LBB80_4+0x3f0>
    3b08:	00f88283          	lb	t0,15(a7)
    3b0c:	00001637          	lui	a2,0x1
    3b10:	40c40633          	sub	a2,s0,a2
    3b14:	2e563c23          	sd	t0,760(a2) # 12f8 <.LBB80_4+0x3f8>
    3b18:	00e88283          	lb	t0,14(a7)
    3b1c:	00001637          	lui	a2,0x1
    3b20:	40c40633          	sub	a2,s0,a2
    3b24:	30563023          	sd	t0,768(a2) # 1300 <.LBB80_4+0x400>
    3b28:	00d88283          	lb	t0,13(a7)
    3b2c:	00001637          	lui	a2,0x1
    3b30:	40c40633          	sub	a2,s0,a2
    3b34:	30563423          	sd	t0,776(a2) # 1308 <.LBB80_4+0x408>
    3b38:	00c88283          	lb	t0,12(a7)
    3b3c:	00001637          	lui	a2,0x1
    3b40:	40c40633          	sub	a2,s0,a2
    3b44:	30563823          	sd	t0,784(a2) # 1310 <.LBB80_4+0x410>
    3b48:	00b88283          	lb	t0,11(a7)
    3b4c:	00001637          	lui	a2,0x1
    3b50:	40c40633          	sub	a2,s0,a2
    3b54:	30563c23          	sd	t0,792(a2) # 1318 <.LBB80_4+0x418>
    3b58:	00a88283          	lb	t0,10(a7)
    3b5c:	00001637          	lui	a2,0x1
    3b60:	40c40633          	sub	a2,s0,a2
    3b64:	32563023          	sd	t0,800(a2) # 1320 <.LBB80_4+0x420>
    3b68:	00988283          	lb	t0,9(a7)
    3b6c:	00001637          	lui	a2,0x1
    3b70:	40c40633          	sub	a2,s0,a2
    3b74:	32563423          	sd	t0,808(a2) # 1328 <.LBB80_4+0x428>
    3b78:	00888283          	lb	t0,8(a7)
    3b7c:	00001637          	lui	a2,0x1
    3b80:	40c40633          	sub	a2,s0,a2
    3b84:	32563823          	sd	t0,816(a2) # 1330 <.LBB80_4+0x430>
    3b88:	00788283          	lb	t0,7(a7)
    3b8c:	00001637          	lui	a2,0x1
    3b90:	40c40633          	sub	a2,s0,a2
    3b94:	32563c23          	sd	t0,824(a2) # 1338 <.LBB80_4+0x438>
    3b98:	00688283          	lb	t0,6(a7)
    3b9c:	00001637          	lui	a2,0x1
    3ba0:	40c40633          	sub	a2,s0,a2
    3ba4:	34563023          	sd	t0,832(a2) # 1340 <.LBB80_4+0x440>
    3ba8:	00588283          	lb	t0,5(a7)
    3bac:	00001637          	lui	a2,0x1
    3bb0:	40c40633          	sub	a2,s0,a2
    3bb4:	34563423          	sd	t0,840(a2) # 1348 <.LBB80_4+0x448>
    3bb8:	00488283          	lb	t0,4(a7)
    3bbc:	00001637          	lui	a2,0x1
    3bc0:	40c40633          	sub	a2,s0,a2
    3bc4:	34563823          	sd	t0,848(a2) # 1350 <.LBB80_4+0x450>
    3bc8:	00388283          	lb	t0,3(a7)
    3bcc:	00001637          	lui	a2,0x1
    3bd0:	40c40633          	sub	a2,s0,a2
    3bd4:	34563c23          	sd	t0,856(a2) # 1358 <.LBB80_4+0x458>
    3bd8:	00288283          	lb	t0,2(a7)
    3bdc:	00001637          	lui	a2,0x1
    3be0:	40c40633          	sub	a2,s0,a2
    3be4:	36563023          	sd	t0,864(a2) # 1360 <.LBB80_4+0x460>
    3be8:	00188283          	lb	t0,1(a7)
    3bec:	00001637          	lui	a2,0x1
    3bf0:	40c40633          	sub	a2,s0,a2
    3bf4:	36563423          	sd	t0,872(a2) # 1368 <.LBB80_4+0x468>
    3bf8:	00088883          	lb	a7,0(a7)
    3bfc:	00001637          	lui	a2,0x1
    3c00:	40c40633          	sub	a2,s0,a2
    3c04:	37163823          	sd	a7,880(a2) # 1370 <.LBB80_4+0x470>
    3c08:	01f70883          	lb	a7,31(a4)
    3c0c:	00001637          	lui	a2,0x1
    3c10:	40c40633          	sub	a2,s0,a2
    3c14:	37163c23          	sd	a7,888(a2) # 1378 <.LBB80_4+0x478>
    3c18:	01e70883          	lb	a7,30(a4)
    3c1c:	00001637          	lui	a2,0x1
    3c20:	40c40633          	sub	a2,s0,a2
    3c24:	39163023          	sd	a7,896(a2) # 1380 <.LBB80_4+0x480>
    3c28:	01d70883          	lb	a7,29(a4)
    3c2c:	00001637          	lui	a2,0x1
    3c30:	40c40633          	sub	a2,s0,a2
    3c34:	39163423          	sd	a7,904(a2) # 1388 <.LBB80_4+0x488>
    3c38:	01c70883          	lb	a7,28(a4)
    3c3c:	00001637          	lui	a2,0x1
    3c40:	40c40633          	sub	a2,s0,a2
    3c44:	39163823          	sd	a7,912(a2) # 1390 <.LBB80_4+0x490>
    3c48:	01b70883          	lb	a7,27(a4)
    3c4c:	00001637          	lui	a2,0x1
    3c50:	40c40633          	sub	a2,s0,a2
    3c54:	39163c23          	sd	a7,920(a2) # 1398 <.LBB80_4+0x498>
    3c58:	01a70883          	lb	a7,26(a4)
    3c5c:	00001637          	lui	a2,0x1
    3c60:	40c40633          	sub	a2,s0,a2
    3c64:	3b163023          	sd	a7,928(a2) # 13a0 <.LBB80_4+0x4a0>
    3c68:	01970883          	lb	a7,25(a4)
    3c6c:	00001637          	lui	a2,0x1
    3c70:	40c40633          	sub	a2,s0,a2
    3c74:	3b163423          	sd	a7,936(a2) # 13a8 <.LBB80_4+0x4a8>
    3c78:	01870883          	lb	a7,24(a4)
    3c7c:	00001637          	lui	a2,0x1
    3c80:	40c40633          	sub	a2,s0,a2
    3c84:	3b163823          	sd	a7,944(a2) # 13b0 <.LBB80_4+0x4b0>
    3c88:	01770883          	lb	a7,23(a4)
    3c8c:	00001637          	lui	a2,0x1
    3c90:	40c40633          	sub	a2,s0,a2
    3c94:	3b163c23          	sd	a7,952(a2) # 13b8 <.LBB80_4+0x4b8>
    3c98:	01670883          	lb	a7,22(a4)
    3c9c:	00001637          	lui	a2,0x1
    3ca0:	40c40633          	sub	a2,s0,a2
    3ca4:	3d163023          	sd	a7,960(a2) # 13c0 <.LBB80_4+0x4c0>
    3ca8:	01570883          	lb	a7,21(a4)
    3cac:	00001637          	lui	a2,0x1
    3cb0:	40c40633          	sub	a2,s0,a2
    3cb4:	3d163423          	sd	a7,968(a2) # 13c8 <.LBB80_4+0x4c8>
    3cb8:	01470883          	lb	a7,20(a4)
    3cbc:	00001637          	lui	a2,0x1
    3cc0:	40c40633          	sub	a2,s0,a2
    3cc4:	3d163823          	sd	a7,976(a2) # 13d0 <.LBB80_4+0x4d0>
    3cc8:	01370883          	lb	a7,19(a4)
    3ccc:	00001637          	lui	a2,0x1
    3cd0:	40c40633          	sub	a2,s0,a2
    3cd4:	3d163c23          	sd	a7,984(a2) # 13d8 <.LBB80_4+0x4d8>
    3cd8:	01270883          	lb	a7,18(a4)
    3cdc:	00001637          	lui	a2,0x1
    3ce0:	40c40633          	sub	a2,s0,a2
    3ce4:	3f163023          	sd	a7,992(a2) # 13e0 <.LBB80_4+0x4e0>
    3ce8:	01170883          	lb	a7,17(a4)
    3cec:	00001637          	lui	a2,0x1
    3cf0:	40c40633          	sub	a2,s0,a2
    3cf4:	3f163423          	sd	a7,1000(a2) # 13e8 <.LBB80_4+0x4e8>
    3cf8:	01070883          	lb	a7,16(a4)
    3cfc:	00001637          	lui	a2,0x1
    3d00:	40c40633          	sub	a2,s0,a2
    3d04:	3f163823          	sd	a7,1008(a2) # 13f0 <.LBB80_4+0x4f0>
    3d08:	00f70883          	lb	a7,15(a4)
    3d0c:	00001637          	lui	a2,0x1
    3d10:	40c40633          	sub	a2,s0,a2
    3d14:	3f163c23          	sd	a7,1016(a2) # 13f8 <.LBB80_4+0x4f8>
    3d18:	00e70883          	lb	a7,14(a4)
    3d1c:	00001637          	lui	a2,0x1
    3d20:	40c40633          	sub	a2,s0,a2
    3d24:	41163023          	sd	a7,1024(a2) # 1400 <.LBB80_4+0x500>
    3d28:	00d70883          	lb	a7,13(a4)
    3d2c:	00001637          	lui	a2,0x1
    3d30:	40c40633          	sub	a2,s0,a2
    3d34:	41163423          	sd	a7,1032(a2) # 1408 <.LBB80_4+0x508>
    3d38:	00c70883          	lb	a7,12(a4)
    3d3c:	00001637          	lui	a2,0x1
    3d40:	40c40633          	sub	a2,s0,a2
    3d44:	41163823          	sd	a7,1040(a2) # 1410 <.LBB80_4+0x510>
    3d48:	00b70883          	lb	a7,11(a4)
    3d4c:	00001637          	lui	a2,0x1
    3d50:	40c40633          	sub	a2,s0,a2
    3d54:	41163c23          	sd	a7,1048(a2) # 1418 <.LBB80_4+0x518>
    3d58:	00a70883          	lb	a7,10(a4)
    3d5c:	00001637          	lui	a2,0x1
    3d60:	40c40633          	sub	a2,s0,a2
    3d64:	43163023          	sd	a7,1056(a2) # 1420 <.LBB80_4+0x520>
    3d68:	00970883          	lb	a7,9(a4)
    3d6c:	00001637          	lui	a2,0x1
    3d70:	40c40633          	sub	a2,s0,a2
    3d74:	43163423          	sd	a7,1064(a2) # 1428 <.LBB80_4+0x528>
    3d78:	00870883          	lb	a7,8(a4)
    3d7c:	00001637          	lui	a2,0x1
    3d80:	40c40633          	sub	a2,s0,a2
    3d84:	43163823          	sd	a7,1072(a2) # 1430 <.LBB80_4+0x530>
    3d88:	00770883          	lb	a7,7(a4)
    3d8c:	00001637          	lui	a2,0x1
    3d90:	40c40633          	sub	a2,s0,a2
    3d94:	43163c23          	sd	a7,1080(a2) # 1438 <.LBB80_4+0x538>
    3d98:	00670883          	lb	a7,6(a4)
    3d9c:	00001637          	lui	a2,0x1
    3da0:	40c40633          	sub	a2,s0,a2
    3da4:	45163023          	sd	a7,1088(a2) # 1440 <.LBB80_4+0x540>
    3da8:	00570883          	lb	a7,5(a4)
    3dac:	00001637          	lui	a2,0x1
    3db0:	40c40633          	sub	a2,s0,a2
    3db4:	45163423          	sd	a7,1096(a2) # 1448 <.LBB80_4+0x548>
    3db8:	00470883          	lb	a7,4(a4)
    3dbc:	00001637          	lui	a2,0x1
    3dc0:	40c40633          	sub	a2,s0,a2
    3dc4:	45163823          	sd	a7,1104(a2) # 1450 <.LBB80_4+0x550>
    3dc8:	00370883          	lb	a7,3(a4)
    3dcc:	00001637          	lui	a2,0x1
    3dd0:	40c40633          	sub	a2,s0,a2
    3dd4:	45163c23          	sd	a7,1112(a2) # 1458 <.LBB80_4+0x558>
    3dd8:	00270883          	lb	a7,2(a4)
    3ddc:	00001637          	lui	a2,0x1
    3de0:	40c40633          	sub	a2,s0,a2
    3de4:	47163023          	sd	a7,1120(a2) # 1460 <.LBB80_4+0x560>
    3de8:	00170883          	lb	a7,1(a4)
    3dec:	00001637          	lui	a2,0x1
    3df0:	40c40633          	sub	a2,s0,a2
    3df4:	47163423          	sd	a7,1128(a2) # 1468 <.LBB80_4+0x568>
    3df8:	00070703          	lb	a4,0(a4)
    3dfc:	00001637          	lui	a2,0x1
    3e00:	40c40633          	sub	a2,s0,a2
    3e04:	46e63823          	sd	a4,1136(a2) # 1470 <.LBB80_4+0x570>
    3e08:	01f50703          	lb	a4,31(a0)
    3e0c:	00001637          	lui	a2,0x1
    3e10:	40c40633          	sub	a2,s0,a2
    3e14:	46e63c23          	sd	a4,1144(a2) # 1478 <.LBB80_4+0x578>
    3e18:	01e50703          	lb	a4,30(a0)
    3e1c:	00001637          	lui	a2,0x1
    3e20:	40c40633          	sub	a2,s0,a2
    3e24:	48e63023          	sd	a4,1152(a2) # 1480 <.LBB80_4+0x580>
    3e28:	01d50703          	lb	a4,29(a0)
    3e2c:	00001637          	lui	a2,0x1
    3e30:	40c40633          	sub	a2,s0,a2
    3e34:	48e63423          	sd	a4,1160(a2) # 1488 <.LBB80_4+0x588>
    3e38:	01c50703          	lb	a4,28(a0)
    3e3c:	00001637          	lui	a2,0x1
    3e40:	40c40633          	sub	a2,s0,a2
    3e44:	48e63823          	sd	a4,1168(a2) # 1490 <.LBB80_4+0x590>
    3e48:	01b50703          	lb	a4,27(a0)
    3e4c:	00001637          	lui	a2,0x1
    3e50:	40c40633          	sub	a2,s0,a2
    3e54:	48e63c23          	sd	a4,1176(a2) # 1498 <.LBB80_4+0x598>
    3e58:	01a50703          	lb	a4,26(a0)
    3e5c:	00001637          	lui	a2,0x1
    3e60:	40c40633          	sub	a2,s0,a2
    3e64:	4ae63023          	sd	a4,1184(a2) # 14a0 <.LBB80_4+0x5a0>
    3e68:	01950703          	lb	a4,25(a0)
    3e6c:	00001637          	lui	a2,0x1
    3e70:	40c40633          	sub	a2,s0,a2
    3e74:	4ae63423          	sd	a4,1192(a2) # 14a8 <.LBB80_4+0x5a8>
    3e78:	01850703          	lb	a4,24(a0)
    3e7c:	00001637          	lui	a2,0x1
    3e80:	40c40633          	sub	a2,s0,a2
    3e84:	4ae63823          	sd	a4,1200(a2) # 14b0 <.LBB80_4+0x5b0>
    3e88:	01750703          	lb	a4,23(a0)
    3e8c:	00001637          	lui	a2,0x1
    3e90:	40c40633          	sub	a2,s0,a2
    3e94:	4ae63c23          	sd	a4,1208(a2) # 14b8 <.LBB80_5+0x4>
    3e98:	01650703          	lb	a4,22(a0)
    3e9c:	00001637          	lui	a2,0x1
    3ea0:	40c40633          	sub	a2,s0,a2
    3ea4:	4ce63023          	sd	a4,1216(a2) # 14c0 <.LBB80_5+0xc>
    3ea8:	01550703          	lb	a4,21(a0)
    3eac:	00001637          	lui	a2,0x1
    3eb0:	40c40633          	sub	a2,s0,a2
    3eb4:	4ce63423          	sd	a4,1224(a2) # 14c8 <.LBB80_5+0x14>
    3eb8:	01450703          	lb	a4,20(a0)
    3ebc:	00001637          	lui	a2,0x1
    3ec0:	40c40633          	sub	a2,s0,a2
    3ec4:	4ce63823          	sd	a4,1232(a2) # 14d0 <.LBB80_5+0x1c>
    3ec8:	01350703          	lb	a4,19(a0)
    3ecc:	00001637          	lui	a2,0x1
    3ed0:	40c40633          	sub	a2,s0,a2
    3ed4:	4ce63c23          	sd	a4,1240(a2) # 14d8 <.LBB80_5+0x24>
    3ed8:	01250703          	lb	a4,18(a0)
    3edc:	00001637          	lui	a2,0x1
    3ee0:	40c40633          	sub	a2,s0,a2
    3ee4:	4ee63023          	sd	a4,1248(a2) # 14e0 <.LBB80_5+0x2c>
    3ee8:	01150703          	lb	a4,17(a0)
    3eec:	00001637          	lui	a2,0x1
    3ef0:	40c40633          	sub	a2,s0,a2
    3ef4:	4ee63823          	sd	a4,1264(a2) # 14f0 <.LBB80_5+0x3c>
    3ef8:	01050703          	lb	a4,16(a0)
    3efc:	00001637          	lui	a2,0x1
    3f00:	40c40633          	sub	a2,s0,a2
    3f04:	50e63023          	sd	a4,1280(a2) # 1500 <.LBB80_5+0x4c>
    3f08:	00f50703          	lb	a4,15(a0)
    3f0c:	00001637          	lui	a2,0x1
    3f10:	40c40633          	sub	a2,s0,a2
    3f14:	50e63823          	sd	a4,1296(a2) # 1510 <.LBB80_5+0x5c>
    3f18:	00e50703          	lb	a4,14(a0)
    3f1c:	00001637          	lui	a2,0x1
    3f20:	40c40633          	sub	a2,s0,a2
    3f24:	52e63023          	sd	a4,1312(a2) # 1520 <.LBB80_5+0x6c>
    3f28:	00d50703          	lb	a4,13(a0)
    3f2c:	00001637          	lui	a2,0x1
    3f30:	40c40633          	sub	a2,s0,a2
    3f34:	52e63823          	sd	a4,1328(a2) # 1530 <.LBB80_5+0x7c>
    3f38:	00168703          	lb	a4,1(a3)
    3f3c:	00001637          	lui	a2,0x1
    3f40:	40c40633          	sub	a2,s0,a2
    3f44:	68e63023          	sd	a4,1664(a2) # 1680 <.LBB80_5+0x1cc>
    3f48:	00268703          	lb	a4,2(a3)
    3f4c:	00001637          	lui	a2,0x1
    3f50:	40c40633          	sub	a2,s0,a2
    3f54:	66e63c23          	sd	a4,1656(a2) # 1678 <.LBB80_5+0x1c4>
    3f58:	00368703          	lb	a4,3(a3)
    3f5c:	00001637          	lui	a2,0x1
    3f60:	40c40633          	sub	a2,s0,a2
    3f64:	64e63c23          	sd	a4,1624(a2) # 1658 <.LBB80_5+0x1a4>
    3f68:	00468703          	lb	a4,4(a3)
    3f6c:	00001637          	lui	a2,0x1
    3f70:	40c40633          	sub	a2,s0,a2
    3f74:	64e63823          	sd	a4,1616(a2) # 1650 <.LBB80_5+0x19c>
    3f78:	00568703          	lb	a4,5(a3)
    3f7c:	00001637          	lui	a2,0x1
    3f80:	40c40633          	sub	a2,s0,a2
    3f84:	64e63423          	sd	a4,1608(a2) # 1648 <.LBB80_5+0x194>
    3f88:	00668703          	lb	a4,6(a3)
    3f8c:	00001637          	lui	a2,0x1
    3f90:	40c40633          	sub	a2,s0,a2
    3f94:	64e63023          	sd	a4,1600(a2) # 1640 <.LBB80_5+0x18c>
    3f98:	00768703          	lb	a4,7(a3)
    3f9c:	00001637          	lui	a2,0x1
    3fa0:	40c40633          	sub	a2,s0,a2
    3fa4:	62e63c23          	sd	a4,1592(a2) # 1638 <.LBB80_5+0x184>
    3fa8:	00868703          	lb	a4,8(a3)
    3fac:	00001637          	lui	a2,0x1
    3fb0:	40c40633          	sub	a2,s0,a2
    3fb4:	62e63823          	sd	a4,1584(a2) # 1630 <.LBB80_5+0x17c>
    3fb8:	00968703          	lb	a4,9(a3)
    3fbc:	00001637          	lui	a2,0x1
    3fc0:	40c40633          	sub	a2,s0,a2
    3fc4:	62e63423          	sd	a4,1576(a2) # 1628 <.LBB80_5+0x174>
    3fc8:	00a68703          	lb	a4,10(a3)
    3fcc:	00001637          	lui	a2,0x1
    3fd0:	40c40633          	sub	a2,s0,a2
    3fd4:	62e63023          	sd	a4,1568(a2) # 1620 <.LBB80_5+0x16c>
    3fd8:	00b68703          	lb	a4,11(a3)
    3fdc:	00001637          	lui	a2,0x1
    3fe0:	40c40633          	sub	a2,s0,a2
    3fe4:	60e63c23          	sd	a4,1560(a2) # 1618 <.LBB80_5+0x164>
    3fe8:	00c68703          	lb	a4,12(a3)
    3fec:	00001637          	lui	a2,0x1
    3ff0:	40c40633          	sub	a2,s0,a2
    3ff4:	60e63823          	sd	a4,1552(a2) # 1610 <.LBB80_5+0x15c>
    3ff8:	00d68703          	lb	a4,13(a3)
    3ffc:	00001637          	lui	a2,0x1
    4000:	40c40633          	sub	a2,s0,a2
    4004:	60e63423          	sd	a4,1544(a2) # 1608 <.LBB80_5+0x154>
    4008:	00e68703          	lb	a4,14(a3)
    400c:	00001637          	lui	a2,0x1
    4010:	40c40633          	sub	a2,s0,a2
    4014:	60e63023          	sd	a4,1536(a2) # 1600 <.LBB80_5+0x14c>
    4018:	00f68703          	lb	a4,15(a3)
    401c:	00001637          	lui	a2,0x1
    4020:	40c40633          	sub	a2,s0,a2
    4024:	5ee63c23          	sd	a4,1528(a2) # 15f8 <.LBB80_5+0x144>
    4028:	01068703          	lb	a4,16(a3)
    402c:	00001637          	lui	a2,0x1
    4030:	40c40633          	sub	a2,s0,a2
    4034:	5ee63823          	sd	a4,1520(a2) # 15f0 <.LBB80_5+0x13c>
    4038:	01168703          	lb	a4,17(a3)
    403c:	00001637          	lui	a2,0x1
    4040:	40c40633          	sub	a2,s0,a2
    4044:	5ee63423          	sd	a4,1512(a2) # 15e8 <.LBB80_5+0x134>
    4048:	01268703          	lb	a4,18(a3)
    404c:	00001637          	lui	a2,0x1
    4050:	40c40633          	sub	a2,s0,a2
    4054:	5ee63023          	sd	a4,1504(a2) # 15e0 <.LBB80_5+0x12c>
    4058:	01368703          	lb	a4,19(a3)
    405c:	00001637          	lui	a2,0x1
    4060:	40c40633          	sub	a2,s0,a2
    4064:	5ce63c23          	sd	a4,1496(a2) # 15d8 <.LBB80_5+0x124>
    4068:	01468703          	lb	a4,20(a3)
    406c:	00001637          	lui	a2,0x1
    4070:	40c40633          	sub	a2,s0,a2
    4074:	5ce63823          	sd	a4,1488(a2) # 15d0 <.LBB80_5+0x11c>
    4078:	01568703          	lb	a4,21(a3)
    407c:	00001637          	lui	a2,0x1
    4080:	40c40633          	sub	a2,s0,a2
    4084:	5ce63423          	sd	a4,1480(a2) # 15c8 <.LBB80_5+0x114>
    4088:	01668703          	lb	a4,22(a3)
    408c:	00001637          	lui	a2,0x1
    4090:	40c40633          	sub	a2,s0,a2
    4094:	5ce63023          	sd	a4,1472(a2) # 15c0 <.LBB80_5+0x10c>
    4098:	01768703          	lb	a4,23(a3)
    409c:	00001637          	lui	a2,0x1
    40a0:	40c40633          	sub	a2,s0,a2
    40a4:	5ae63c23          	sd	a4,1464(a2) # 15b8 <.LBB80_5+0x104>
    40a8:	01868703          	lb	a4,24(a3)
    40ac:	00001637          	lui	a2,0x1
    40b0:	40c40633          	sub	a2,s0,a2
    40b4:	5ae63823          	sd	a4,1456(a2) # 15b0 <.LBB80_5+0xfc>
    40b8:	01968703          	lb	a4,25(a3)
    40bc:	00001637          	lui	a2,0x1
    40c0:	40c40633          	sub	a2,s0,a2
    40c4:	5ae63423          	sd	a4,1448(a2) # 15a8 <.LBB80_5+0xf4>
    40c8:	01a68703          	lb	a4,26(a3)
    40cc:	00001637          	lui	a2,0x1
    40d0:	40c40633          	sub	a2,s0,a2
    40d4:	5ae63023          	sd	a4,1440(a2) # 15a0 <.LBB80_5+0xec>
    40d8:	01b68703          	lb	a4,27(a3)
    40dc:	00001637          	lui	a2,0x1
    40e0:	40c40633          	sub	a2,s0,a2
    40e4:	58e63c23          	sd	a4,1432(a2) # 1598 <.LBB80_5+0xe4>
    40e8:	01c68703          	lb	a4,28(a3)
    40ec:	00001637          	lui	a2,0x1
    40f0:	40c40633          	sub	a2,s0,a2
    40f4:	58e63823          	sd	a4,1424(a2) # 1590 <.LBB80_5+0xdc>
    40f8:	01d68703          	lb	a4,29(a3)
    40fc:	00001637          	lui	a2,0x1
    4100:	40c40633          	sub	a2,s0,a2
    4104:	58e63423          	sd	a4,1416(a2) # 1588 <.LBB80_5+0xd4>
    4108:	01e68703          	lb	a4,30(a3)
    410c:	00001637          	lui	a2,0x1
    4110:	40c40633          	sub	a2,s0,a2
    4114:	58e63023          	sd	a4,1408(a2) # 1580 <.LBB80_5+0xcc>
    4118:	01f68703          	lb	a4,31(a3)
    411c:	00001637          	lui	a2,0x1
    4120:	40c40633          	sub	a2,s0,a2
    4124:	56e63c23          	sd	a4,1400(a2) # 1578 <.LBB80_5+0xc4>
    4128:	00050703          	lb	a4,0(a0)
    412c:	00001637          	lui	a2,0x1
    4130:	40c40633          	sub	a2,s0,a2
    4134:	56e63823          	sd	a4,1392(a2) # 1570 <.LBB80_5+0xbc>
    4138:	00150703          	lb	a4,1(a0)
    413c:	00001637          	lui	a2,0x1
    4140:	40c40633          	sub	a2,s0,a2
    4144:	56e63423          	sd	a4,1384(a2) # 1568 <.LBB80_5+0xb4>
    4148:	00250703          	lb	a4,2(a0)
    414c:	00001637          	lui	a2,0x1
    4150:	40c40633          	sub	a2,s0,a2
    4154:	56e63023          	sd	a4,1376(a2) # 1560 <.LBB80_5+0xac>
    4158:	00350703          	lb	a4,3(a0)
    415c:	00001637          	lui	a2,0x1
    4160:	40c40633          	sub	a2,s0,a2
    4164:	54e63c23          	sd	a4,1368(a2) # 1558 <.LBB80_5+0xa4>
    4168:	00450703          	lb	a4,4(a0)
    416c:	00001637          	lui	a2,0x1
    4170:	40c40633          	sub	a2,s0,a2
    4174:	54e63823          	sd	a4,1360(a2) # 1550 <.LBB80_5+0x9c>
    4178:	00550703          	lb	a4,5(a0)
    417c:	00001637          	lui	a2,0x1
    4180:	40c40633          	sub	a2,s0,a2
    4184:	54e63423          	sd	a4,1352(a2) # 1548 <.LBB80_5+0x94>
    4188:	00650703          	lb	a4,6(a0)
    418c:	00001637          	lui	a2,0x1
    4190:	40c40633          	sub	a2,s0,a2
    4194:	54e63023          	sd	a4,1344(a2) # 1540 <.LBB80_5+0x8c>
    4198:	00750703          	lb	a4,7(a0)
    419c:	00001637          	lui	a2,0x1
    41a0:	40c40633          	sub	a2,s0,a2
    41a4:	52e63c23          	sd	a4,1336(a2) # 1538 <.LBB80_5+0x84>
    41a8:	00850703          	lb	a4,8(a0)
    41ac:	00001637          	lui	a2,0x1
    41b0:	40c40633          	sub	a2,s0,a2
    41b4:	52e63423          	sd	a4,1320(a2) # 1528 <.LBB80_5+0x74>
    41b8:	00950703          	lb	a4,9(a0)
    41bc:	00001637          	lui	a2,0x1
    41c0:	40c40633          	sub	a2,s0,a2
    41c4:	50e63c23          	sd	a4,1304(a2) # 1518 <.LBB80_5+0x64>
    41c8:	00a50703          	lb	a4,10(a0)
    41cc:	00001637          	lui	a2,0x1
    41d0:	40c40633          	sub	a2,s0,a2
    41d4:	50e63423          	sd	a4,1288(a2) # 1508 <.LBB80_5+0x54>
    41d8:	00b50703          	lb	a4,11(a0)
    41dc:	00001637          	lui	a2,0x1
    41e0:	40c40633          	sub	a2,s0,a2
    41e4:	4ee63c23          	sd	a4,1272(a2) # 14f8 <.LBB80_5+0x44>
    41e8:	00c50503          	lb	a0,12(a0)
    41ec:	00001637          	lui	a2,0x1
    41f0:	40c40633          	sub	a2,s0,a2
    41f4:	4ea63423          	sd	a0,1256(a2) # 14e8 <.LBB80_5+0x34>
    41f8:	00068503          	lb	a0,0(a3)
    41fc:	00001637          	lui	a2,0x1
    4200:	40c40633          	sub	a2,s0,a2
    4204:	66a63823          	sd	a0,1648(a2) # 1670 <.LBB80_5+0x1bc>
    4208:	00001537          	lui	a0,0x1
    420c:	40a40533          	sub	a0,s0,a0
    4210:	8d053283          	ld	t0,-1840(a0) # 8d0 <.LBB80_3+0x628>
    4214:	0042a703          	lw	a4,4(t0)
    4218:	0082a503          	lw	a0,8(t0)
    421c:	00c2a683          	lw	a3,12(t0)
    4220:	0102a883          	lw	a7,16(t0)
    4224:	0142a603          	lw	a2,20(t0)
    4228:	000013b7          	lui	t2,0x1
    422c:	407403b3          	sub	t2,s0,t2
    4230:	dcc3b823          	sd	a2,-560(t2) # dd0 <.LBB80_3+0xb28>
    4234:	0182a603          	lw	a2,24(t0)
    4238:	000013b7          	lui	t2,0x1
    423c:	407403b3          	sub	t2,s0,t2
    4240:	dcc3b023          	sd	a2,-576(t2) # dc0 <.LBB80_3+0xb18>
    4244:	01c2a603          	lw	a2,28(t0)
    4248:	000012b7          	lui	t0,0x1
    424c:	405402b3          	sub	t0,s0,t0
    4250:	dac2b823          	sd	a2,-592(t0) # db0 <.LBB80_3+0xb08>
    4254:	400002b7          	lui	t0,0x40000
    4258:	00001637          	lui	a2,0x1
    425c:	40c40633          	sub	a2,s0,a2
    4260:	e7063603          	ld	a2,-400(a2) # e70 <.LBB80_3+0xbc8>
    4264:	00065463          	bgez	a2,426c <.LBB80_26>
    4268:	c00002b7          	lui	t0,0xc0000

000000000000426c <.LBB80_26>:
    426c:	00001637          	lui	a2,0x1
    4270:	40c40633          	sub	a2,s0,a2
    4274:	b6563823          	sd	t0,-1168(a2) # b70 <.LBB80_3+0x8c8>
    4278:	007c9c93          	slli	s9,s9,0x7
    427c:	f8043283          	ld	t0,-128(s0)
    4280:	00001637          	lui	a2,0x1
    4284:	40c40633          	sub	a2,s0,a2
    4288:	6e063603          	ld	a2,1760(a2) # 16e0 <.LBB80_5+0x22c>
    428c:	005602b3          	add	t0,a2,t0
    4290:	00001637          	lui	a2,0x1
    4294:	40c40633          	sub	a2,s0,a2
    4298:	6f963023          	sd	s9,1760(a2) # 16e0 <.LBB80_5+0x22c>
    429c:	019282b3          	add	t0,t0,s9
    42a0:	41db83bb          	subw	t2,s7,t4
    42a4:	4072863b          	subw	a2,t0,t2
    42a8:	400002b7          	lui	t0,0x40000
    42ac:	000013b7          	lui	t2,0x1
    42b0:	407403b3          	sub	t2,s0,t2
    42b4:	aec3bc23          	sd	a2,-1288(t2) # af8 <.LBB80_3+0x850>
    42b8:	000013b7          	lui	t2,0x1
    42bc:	407403b3          	sub	t2,s0,t2
    42c0:	7683bf03          	ld	t5,1896(t2) # 1768 <.LBB80_5+0x2b4>
    42c4:	000013b7          	lui	t2,0x1
    42c8:	407403b3          	sub	t2,s0,t2
    42cc:	7603ba83          	ld	s5,1888(t2) # 1760 <.LBB80_5+0x2ac>
    42d0:	00065463          	bgez	a2,42d8 <.LBB80_28>
    42d4:	c00002b7          	lui	t0,0xc0000

00000000000042d8 <.LBB80_28>:
    42d8:	00001637          	lui	a2,0x1
    42dc:	40c40633          	sub	a2,s0,a2
    42e0:	ae563823          	sd	t0,-1296(a2) # af0 <.LBB80_3+0x848>
    42e4:	007d1d13          	slli	s10,s10,0x7
    42e8:	f7843283          	ld	t0,-136(s0)
    42ec:	00001637          	lui	a2,0x1
    42f0:	40c40633          	sub	a2,s0,a2
    42f4:	6e863603          	ld	a2,1768(a2) # 16e8 <.LBB80_5+0x234>
    42f8:	005602b3          	add	t0,a2,t0
    42fc:	00001637          	lui	a2,0x1
    4300:	40c40633          	sub	a2,s0,a2
    4304:	6fa63423          	sd	s10,1768(a2) # 16e8 <.LBB80_5+0x234>
    4308:	01a282b3          	add	t0,t0,s10
    430c:	41db83bb          	subw	t2,s7,t4
    4310:	4072863b          	subw	a2,t0,t2
    4314:	400002b7          	lui	t0,0x40000
    4318:	000013b7          	lui	t2,0x1
    431c:	407403b3          	sub	t2,s0,t2
    4320:	a6c3bc23          	sd	a2,-1416(t2) # a78 <.LBB80_3+0x7d0>
    4324:	000013b7          	lui	t2,0x1
    4328:	407403b3          	sub	t2,s0,t2
    432c:	7383bc83          	ld	s9,1848(t2) # 1738 <.LBB80_5+0x284>
    4330:	00065463          	bgez	a2,4338 <.LBB80_30>
    4334:	c00002b7          	lui	t0,0xc0000

0000000000004338 <.LBB80_30>:
    4338:	00001637          	lui	a2,0x1
    433c:	40c40633          	sub	a2,s0,a2
    4340:	a6563423          	sd	t0,-1432(a2) # a68 <.LBB80_3+0x7c0>
    4344:	007c1613          	slli	a2,s8,0x7
    4348:	f7043283          	ld	t0,-144(s0)
    434c:	000013b7          	lui	t2,0x1
    4350:	407403b3          	sub	t2,s0,t2
    4354:	6f03b383          	ld	t2,1776(t2) # 16f0 <.LBB80_5+0x23c>
    4358:	005382b3          	add	t0,t2,t0
    435c:	000013b7          	lui	t2,0x1
    4360:	407403b3          	sub	t2,s0,t2
    4364:	6ec3b823          	sd	a2,1776(t2) # 16f0 <.LBB80_5+0x23c>
    4368:	00c282b3          	add	t0,t0,a2
    436c:	41db83bb          	subw	t2,s7,t4
    4370:	4072863b          	subw	a2,t0,t2
    4374:	400002b7          	lui	t0,0x40000
    4378:	000013b7          	lui	t2,0x1
    437c:	407403b3          	sub	t2,s0,t2
    4380:	9ec3bc23          	sd	a2,-1544(t2) # 9f8 <.LBB80_3+0x750>
    4384:	88043d03          	ld	s10,-1920(s0)
    4388:	00065463          	bgez	a2,4390 <.LBB80_32>
    438c:	c00002b7          	lui	t0,0xc0000

0000000000004390 <.LBB80_32>:
    4390:	00001637          	lui	a2,0x1
    4394:	40c40633          	sub	a2,s0,a2
    4398:	9e563023          	sd	t0,-1568(a2) # 9e0 <.LBB80_3+0x738>
    439c:	007a1613          	slli	a2,s4,0x7
    43a0:	f6843283          	ld	t0,-152(s0)
    43a4:	000013b7          	lui	t2,0x1
    43a8:	407403b3          	sub	t2,s0,t2
    43ac:	6f83b383          	ld	t2,1784(t2) # 16f8 <.LBB80_5+0x244>
    43b0:	005382b3          	add	t0,t2,t0
    43b4:	000013b7          	lui	t2,0x1
    43b8:	407403b3          	sub	t2,s0,t2
    43bc:	6ec3bc23          	sd	a2,1784(t2) # 16f8 <.LBB80_5+0x244>
    43c0:	00c282b3          	add	t0,t0,a2
    43c4:	41db83bb          	subw	t2,s7,t4
    43c8:	4072863b          	subw	a2,t0,t2
    43cc:	400002b7          	lui	t0,0x40000
    43d0:	000013b7          	lui	t2,0x1
    43d4:	407403b3          	sub	t2,s0,t2
    43d8:	96c3b823          	sd	a2,-1680(t2) # 970 <.LBB80_3+0x6c8>
    43dc:	000013b7          	lui	t2,0x1
    43e0:	407403b3          	sub	t2,s0,t2
    43e4:	7203bc03          	ld	s8,1824(t2) # 1720 <.LBB80_5+0x26c>
    43e8:	00065463          	bgez	a2,43f0 <.LBB80_34>
    43ec:	c00002b7          	lui	t0,0xc0000

00000000000043f0 <.LBB80_34>:
    43f0:	00001637          	lui	a2,0x1
    43f4:	40c40633          	sub	a2,s0,a2
    43f8:	94563823          	sd	t0,-1712(a2) # 950 <.LBB80_3+0x6a8>
    43fc:	00791913          	slli	s2,s2,0x7
    4400:	f6043283          	ld	t0,-160(s0)
    4404:	00001637          	lui	a2,0x1
    4408:	40c40633          	sub	a2,s0,a2
    440c:	70063603          	ld	a2,1792(a2) # 1700 <.LBB80_5+0x24c>
    4410:	005602b3          	add	t0,a2,t0
    4414:	00001637          	lui	a2,0x1
    4418:	40c40633          	sub	a2,s0,a2
    441c:	71263023          	sd	s2,1792(a2) # 1700 <.LBB80_5+0x24c>
    4420:	012282b3          	add	t0,t0,s2
    4424:	41db83bb          	subw	t2,s7,t4
    4428:	4072863b          	subw	a2,t0,t2
    442c:	400002b7          	lui	t0,0x40000
    4430:	000013b7          	lui	t2,0x1
    4434:	407403b3          	sub	t2,s0,t2
    4438:	8ec3b023          	sd	a2,-1824(t2) # 8e0 <.LBB80_3+0x638>
    443c:	000013b7          	lui	t2,0x1
    4440:	407403b3          	sub	t2,s0,t2
    4444:	7283ba03          	ld	s4,1832(t2) # 1728 <.LBB80_5+0x274>
    4448:	00065463          	bgez	a2,4450 <.LBB80_36>
    444c:	c00002b7          	lui	t0,0xc0000

0000000000004450 <.LBB80_36>:
    4450:	00001637          	lui	a2,0x1
    4454:	40c40633          	sub	a2,s0,a2
    4458:	86563823          	sd	t0,-1936(a2) # 870 <.LBB80_3+0x5c8>
    445c:	00749493          	slli	s1,s1,0x7
    4460:	f5843283          	ld	t0,-168(s0)
    4464:	00001637          	lui	a2,0x1
    4468:	40c40633          	sub	a2,s0,a2
    446c:	70863603          	ld	a2,1800(a2) # 1708 <.LBB80_5+0x254>
    4470:	005602b3          	add	t0,a2,t0
    4474:	00001637          	lui	a2,0x1
    4478:	40c40633          	sub	a2,s0,a2
    447c:	70963423          	sd	s1,1800(a2) # 1708 <.LBB80_5+0x254>
    4480:	009282b3          	add	t0,t0,s1
    4484:	41db83bb          	subw	t2,s7,t4
    4488:	4072863b          	subw	a2,t0,t2
    448c:	400002b7          	lui	t0,0x40000
    4490:	a7843903          	ld	s2,-1416(s0)
    4494:	000013b7          	lui	t2,0x1
    4498:	407403b3          	sub	t2,s0,t2
    449c:	80c3b023          	sd	a2,-2048(t2) # 800 <.LBB80_3+0x558>
    44a0:	00065463          	bgez	a2,44a8 <.LBB80_38>
    44a4:	c00002b7          	lui	t0,0xc0000

00000000000044a8 <.LBB80_38>:
    44a8:	00002637          	lui	a2,0x2
    44ac:	40c40633          	sub	a2,s0,a2
    44b0:	7e563023          	sd	t0,2016(a2) # 27e0 <.LBB80_5+0x132c>
    44b4:	007f9f93          	slli	t6,t6,0x7
    44b8:	f5043283          	ld	t0,-176(s0)
    44bc:	00001637          	lui	a2,0x1
    44c0:	40c40633          	sub	a2,s0,a2
    44c4:	71063603          	ld	a2,1808(a2) # 1710 <.LBB80_5+0x25c>
    44c8:	005602b3          	add	t0,a2,t0
    44cc:	00001637          	lui	a2,0x1
    44d0:	40c40633          	sub	a2,s0,a2
    44d4:	71f63823          	sd	t6,1808(a2) # 1710 <.LBB80_5+0x25c>
    44d8:	01f282b3          	add	t0,t0,t6
    44dc:	41db83bb          	subw	t2,s7,t4
    44e0:	4072863b          	subw	a2,t0,t2
    44e4:	400002b7          	lui	t0,0x40000
    44e8:	b7843483          	ld	s1,-1160(s0)
    44ec:	000023b7          	lui	t2,0x2
    44f0:	407403b3          	sub	t2,s0,t2
    44f4:	76c3bc23          	sd	a2,1912(t2) # 2778 <.LBB80_5+0x12c4>
    44f8:	00065463          	bgez	a2,4500 <.LBB80_40>
    44fc:	c00002b7          	lui	t0,0xc0000

0000000000004500 <.LBB80_40>:
    4500:	00002637          	lui	a2,0x2
    4504:	40c40633          	sub	a2,s0,a2
    4508:	74563c23          	sd	t0,1880(a2) # 2758 <.LBB80_5+0x12a4>
    450c:	00731313          	slli	t1,t1,0x7
    4510:	f4843283          	ld	t0,-184(s0)
    4514:	00001637          	lui	a2,0x1
    4518:	40c40633          	sub	a2,s0,a2
    451c:	71863603          	ld	a2,1816(a2) # 1718 <.LBB80_5+0x264>
    4520:	005602b3          	add	t0,a2,t0
    4524:	00001637          	lui	a2,0x1
    4528:	40c40633          	sub	a2,s0,a2
    452c:	70663c23          	sd	t1,1816(a2) # 1718 <.LBB80_5+0x264>
    4530:	006282b3          	add	t0,t0,t1
    4534:	41db833b          	subw	t1,s7,t4
    4538:	4062863b          	subw	a2,t0,t1
    453c:	400002b7          	lui	t0,0x40000
    4540:	01a00f93          	li	t6,26
    4544:	00002337          	lui	t1,0x2
    4548:	40640333          	sub	t1,s0,t1
    454c:	6ec33c23          	sd	a2,1784(t1) # 26f8 <.LBB80_5+0x1244>
    4550:	00001337          	lui	t1,0x1
    4554:	40640333          	sub	t1,s0,t1
    4558:	77033383          	ld	t2,1904(t1) # 1770 <.LBB80_5+0x2bc>
    455c:	00065463          	bgez	a2,4564 <.LBB80_42>
    4560:	c00002b7          	lui	t0,0xc0000

0000000000004564 <.LBB80_42>:
    4564:	00002637          	lui	a2,0x2
    4568:	40c40633          	sub	a2,s0,a2
    456c:	6e563023          	sd	t0,1760(a2) # 26e0 <.LBB80_5+0x122c>
    4570:	00781613          	slli	a2,a6,0x7
    4574:	f4043803          	ld	a6,-192(s0)
    4578:	010c0833          	add	a6,s8,a6
    457c:	00060c13          	mv	s8,a2
    4580:	00c80833          	add	a6,a6,a2
    4584:	41db82bb          	subw	t0,s7,t4
    4588:	4058063b          	subw	a2,a6,t0
    458c:	40000837          	lui	a6,0x40000
    4590:	000022b7          	lui	t0,0x2
    4594:	405402b3          	sub	t0,s0,t0
    4598:	66c2b823          	sd	a2,1648(t0) # 2670 <.LBB80_5+0x11bc>
    459c:	000012b7          	lui	t0,0x1
    45a0:	405402b3          	sub	t0,s0,t0
    45a4:	7982b303          	ld	t1,1944(t0) # 1798 <.LBB80_5+0x2e4>
    45a8:	00065463          	bgez	a2,45b0 <.LBB80_44>
    45ac:	c0000837          	lui	a6,0xc0000

00000000000045b0 <.LBB80_44>:
    45b0:	00002637          	lui	a2,0x2
    45b4:	40c40633          	sub	a2,s0,a2
    45b8:	67063023          	sd	a6,1632(a2) # 2660 <.LBB80_5+0x11ac>
    45bc:	00779613          	slli	a2,a5,0x7
    45c0:	f3843783          	ld	a5,-200(s0)
    45c4:	00fa07b3          	add	a5,s4,a5
    45c8:	00060a13          	mv	s4,a2
    45cc:	00c787b3          	add	a5,a5,a2
    45d0:	41db883b          	subw	a6,s7,t4
    45d4:	4107863b          	subw	a2,a5,a6
    45d8:	400007b7          	lui	a5,0x40000
    45dc:	00002837          	lui	a6,0x2
    45e0:	41040833          	sub	a6,s0,a6
    45e4:	5ec83823          	sd	a2,1520(a6) # 25f0 <.LBB80_5+0x113c>
    45e8:	00001837          	lui	a6,0x1
    45ec:	41040833          	sub	a6,s0,a6
    45f0:	78083283          	ld	t0,1920(a6) # 1780 <.LBB80_5+0x2cc>
    45f4:	00065463          	bgez	a2,45fc <.LBB80_46>
    45f8:	c00007b7          	lui	a5,0xc0000

00000000000045fc <.LBB80_46>:
    45fc:	00002637          	lui	a2,0x2
    4600:	40c40633          	sub	a2,s0,a2
    4604:	5ef63423          	sd	a5,1512(a2) # 25e8 <.LBB80_5+0x1134>
    4608:	007e1e13          	slli	t3,t3,0x7
    460c:	f3043783          	ld	a5,-208(s0)
    4610:	00001637          	lui	a2,0x1
    4614:	40c40633          	sub	a2,s0,a2
    4618:	73063603          	ld	a2,1840(a2) # 1730 <.LBB80_5+0x27c>
    461c:	00f607b3          	add	a5,a2,a5
    4620:	01c787b3          	add	a5,a5,t3
    4624:	41db883b          	subw	a6,s7,t4
    4628:	4107863b          	subw	a2,a5,a6
    462c:	400007b7          	lui	a5,0x40000
    4630:	00002837          	lui	a6,0x2
    4634:	41040833          	sub	a6,s0,a6
    4638:	56c83c23          	sd	a2,1400(a6) # 2578 <.LBB80_5+0x10c4>
    463c:	00065463          	bgez	a2,4644 <.LBB80_48>
    4640:	c00007b7          	lui	a5,0xc0000

0000000000004644 <.LBB80_48>:
    4644:	00002637          	lui	a2,0x2
    4648:	40c40633          	sub	a2,s0,a2
    464c:	56f63823          	sd	a5,1392(a2) # 2570 <.LBB80_5+0x10bc>
    4650:	00799993          	slli	s3,s3,0x7
    4654:	f2843783          	ld	a5,-216(s0)
    4658:	00fc87b3          	add	a5,s9,a5
    465c:	013787b3          	add	a5,a5,s3
    4660:	41db883b          	subw	a6,s7,t4
    4664:	4107863b          	subw	a2,a5,a6
    4668:	400007b7          	lui	a5,0x40000
    466c:	00002837          	lui	a6,0x2
    4670:	41040833          	sub	a6,s0,a6
    4674:	50c83423          	sd	a2,1288(a6) # 2508 <.LBB80_5+0x1054>
    4678:	00065463          	bgez	a2,4680 <.LBB80_50>
    467c:	c00007b7          	lui	a5,0xc0000

0000000000004680 <.LBB80_50>:
    4680:	00002637          	lui	a2,0x2
    4684:	40c40633          	sub	a2,s0,a2
    4688:	50f63023          	sd	a5,1280(a2) # 2500 <.LBB80_5+0x104c>
    468c:	007b1c93          	slli	s9,s6,0x7
    4690:	f2043783          	ld	a5,-224(s0)
    4694:	00001637          	lui	a2,0x1
    4698:	40c40633          	sub	a2,s0,a2
    469c:	74063603          	ld	a2,1856(a2) # 1740 <.LBB80_5+0x28c>
    46a0:	00f607b3          	add	a5,a2,a5
    46a4:	019787b3          	add	a5,a5,s9
    46a8:	41db883b          	subw	a6,s7,t4
    46ac:	4107863b          	subw	a2,a5,a6
    46b0:	400007b7          	lui	a5,0x40000
    46b4:	00002837          	lui	a6,0x2
    46b8:	41040833          	sub	a6,s0,a6
    46bc:	48c83c23          	sd	a2,1176(a6) # 2498 <.LBB80_5+0xfe4>
    46c0:	00065463          	bgez	a2,46c8 <.LBB80_52>
    46c4:	c00007b7          	lui	a5,0xc0000

00000000000046c8 <.LBB80_52>:
    46c8:	00002637          	lui	a2,0x2
    46cc:	40c40633          	sub	a2,s0,a2
    46d0:	48f63823          	sd	a5,1168(a2) # 2490 <.LBB80_5+0xfdc>
    46d4:	00709093          	slli	ra,ra,0x7
    46d8:	ef043783          	ld	a5,-272(s0)
    46dc:	00001637          	lui	a2,0x1
    46e0:	40c40633          	sub	a2,s0,a2
    46e4:	74863603          	ld	a2,1864(a2) # 1748 <.LBB80_5+0x294>
    46e8:	00f607b3          	add	a5,a2,a5
    46ec:	001787b3          	add	a5,a5,ra
    46f0:	41db883b          	subw	a6,s7,t4
    46f4:	4107863b          	subw	a2,a5,a6
    46f8:	400007b7          	lui	a5,0x40000
    46fc:	00002837          	lui	a6,0x2
    4700:	41040833          	sub	a6,s0,a6
    4704:	42c83423          	sd	a2,1064(a6) # 2428 <.LBB80_5+0xf74>
    4708:	00001837          	lui	a6,0x1
    470c:	41040833          	sub	a6,s0,a6
    4710:	68883b03          	ld	s6,1672(a6) # 1688 <.LBB80_5+0x1d4>
    4714:	00065463          	bgez	a2,471c <.LBB80_54>
    4718:	c00007b7          	lui	a5,0xc0000

000000000000471c <.LBB80_54>:
    471c:	00002637          	lui	a2,0x2
    4720:	40c40633          	sub	a2,s0,a2
    4724:	42f63023          	sd	a5,1056(a2) # 2420 <.LBB80_5+0xf6c>
    4728:	007d9d93          	slli	s11,s11,0x7
    472c:	ee843783          	ld	a5,-280(s0)
    4730:	00001637          	lui	a2,0x1
    4734:	40c40633          	sub	a2,s0,a2
    4738:	75063603          	ld	a2,1872(a2) # 1750 <.LBB80_5+0x29c>
    473c:	00f607b3          	add	a5,a2,a5
    4740:	01b787b3          	add	a5,a5,s11
    4744:	41db883b          	subw	a6,s7,t4
    4748:	4107863b          	subw	a2,a5,a6
    474c:	400007b7          	lui	a5,0x40000
    4750:	00002837          	lui	a6,0x2
    4754:	41040833          	sub	a6,s0,a6
    4758:	3ac83c23          	sd	a2,952(a6) # 23b8 <.LBB80_5+0xf04>
    475c:	00065463          	bgez	a2,4764 <.LBB80_56>
    4760:	c00007b7          	lui	a5,0xc0000

0000000000004764 <.LBB80_56>:
    4764:	00002637          	lui	a2,0x2
    4768:	40c40633          	sub	a2,s0,a2
    476c:	3af63823          	sd	a5,944(a2) # 23b0 <.LBB80_5+0xefc>
    4770:	00759593          	slli	a1,a1,0x7
    4774:	ee043783          	ld	a5,-288(s0)
    4778:	00001637          	lui	a2,0x1
    477c:	40c40633          	sub	a2,s0,a2
    4780:	75863603          	ld	a2,1880(a2) # 1758 <.LBB80_5+0x2a4>
    4784:	00f607b3          	add	a5,a2,a5
    4788:	00b787b3          	add	a5,a5,a1
    478c:	41db883b          	subw	a6,s7,t4
    4790:	4107863b          	subw	a2,a5,a6
    4794:	400007b7          	lui	a5,0x40000
    4798:	00002837          	lui	a6,0x2
    479c:	41040833          	sub	a6,s0,a6
    47a0:	34c83423          	sd	a2,840(a6) # 2348 <.LBB80_5+0xe94>
    47a4:	00065463          	bgez	a2,47ac <.LBB80_58>
    47a8:	c00007b7          	lui	a5,0xc0000

00000000000047ac <.LBB80_58>:
    47ac:	00002637          	lui	a2,0x2
    47b0:	40c40633          	sub	a2,s0,a2
    47b4:	34f63023          	sd	a5,832(a2) # 2340 <.LBB80_5+0xe8c>
    47b8:	00001637          	lui	a2,0x1
    47bc:	40c40633          	sub	a2,s0,a2
    47c0:	d9063603          	ld	a2,-624(a2) # d90 <.LBB80_3+0xae8>
    47c4:	00761613          	slli	a2,a2,0x7
    47c8:	ed843783          	ld	a5,-296(s0)
    47cc:	00fb07b3          	add	a5,s6,a5
    47d0:	00c787b3          	add	a5,a5,a2
    47d4:	41db883b          	subw	a6,s7,t4
    47d8:	410787bb          	subw	a5,a5,a6
    47dc:	40000837          	lui	a6,0x40000
    47e0:	00002b37          	lui	s6,0x2
    47e4:	41640b33          	sub	s6,s0,s6
    47e8:	2cfb3c23          	sd	a5,728(s6) # 22d8 <.LBB80_5+0xe24>
    47ec:	0007d463          	bgez	a5,47f4 <.LBB80_60>
    47f0:	c0000837          	lui	a6,0xc0000

00000000000047f4 <.LBB80_60>:
    47f4:	000027b7          	lui	a5,0x2
    47f8:	40f407b3          	sub	a5,s0,a5
    47fc:	2d07b823          	sd	a6,720(a5) # 22d0 <.LBB80_5+0xe1c>
    4800:	000017b7          	lui	a5,0x1
    4804:	40f407b3          	sub	a5,s0,a5
    4808:	d987bb03          	ld	s6,-616(a5) # d98 <.LBB80_3+0xaf0>
    480c:	007b1b13          	slli	s6,s6,0x7
    4810:	ed043783          	ld	a5,-304(s0)
    4814:	00fa87b3          	add	a5,s5,a5
    4818:	016787b3          	add	a5,a5,s6
    481c:	41db883b          	subw	a6,s7,t4
    4820:	410787bb          	subw	a5,a5,a6
    4824:	40000837          	lui	a6,0x40000
    4828:	00002ab7          	lui	s5,0x2
    482c:	41540ab3          	sub	s5,s0,s5
    4830:	26fab423          	sd	a5,616(s5) # 2268 <.LBB80_5+0xdb4>
    4834:	0007d463          	bgez	a5,483c <.LBB80_62>
    4838:	c0000837          	lui	a6,0xc0000

000000000000483c <.LBB80_62>:
    483c:	000027b7          	lui	a5,0x2
    4840:	40f407b3          	sub	a5,s0,a5
    4844:	2707b023          	sd	a6,608(a5) # 2260 <.LBB80_5+0xdac>
    4848:	000017b7          	lui	a5,0x1
    484c:	40f407b3          	sub	a5,s0,a5
    4850:	da07ba83          	ld	s5,-608(a5) # da0 <.LBB80_3+0xaf8>
    4854:	007a9a93          	slli	s5,s5,0x7
    4858:	eb043783          	ld	a5,-336(s0)
    485c:	00ff07b3          	add	a5,t5,a5
    4860:	015787b3          	add	a5,a5,s5
    4864:	41db883b          	subw	a6,s7,t4
    4868:	410787bb          	subw	a5,a5,a6
    486c:	40000837          	lui	a6,0x40000
    4870:	00002f37          	lui	t5,0x2
    4874:	41e40f33          	sub	t5,s0,t5
    4878:	1eff3c23          	sd	a5,504(t5) # 21f8 <.LBB80_5+0xd44>
    487c:	0007d463          	bgez	a5,4884 <.LBB80_64>
    4880:	c0000837          	lui	a6,0xc0000

0000000000004884 <.LBB80_64>:
    4884:	000027b7          	lui	a5,0x2
    4888:	40f407b3          	sub	a5,s0,a5
    488c:	1f07b823          	sd	a6,496(a5) # 21f0 <.LBB80_5+0xd3c>
    4890:	000017b7          	lui	a5,0x1
    4894:	40f407b3          	sub	a5,s0,a5
    4898:	da87bf03          	ld	t5,-600(a5) # da8 <.LBB80_3+0xb00>
    489c:	007f1f13          	slli	t5,t5,0x7
    48a0:	eb843783          	ld	a5,-328(s0)
    48a4:	00f387b3          	add	a5,t2,a5
    48a8:	01e787b3          	add	a5,a5,t5
    48ac:	41db883b          	subw	a6,s7,t4
    48b0:	410787bb          	subw	a5,a5,a6
    48b4:	40000837          	lui	a6,0x40000
    48b8:	000023b7          	lui	t2,0x2
    48bc:	407403b3          	sub	t2,s0,t2
    48c0:	18f3b823          	sd	a5,400(t2) # 2190 <.LBB80_5+0xcdc>
    48c4:	0007d463          	bgez	a5,48cc <.LBB80_66>
    48c8:	c0000837          	lui	a6,0xc0000

00000000000048cc <.LBB80_66>:
    48cc:	000027b7          	lui	a5,0x2
    48d0:	40f407b3          	sub	a5,s0,a5
    48d4:	1907b423          	sd	a6,392(a5) # 2188 <.LBB80_5+0xcd4>
    48d8:	000017b7          	lui	a5,0x1
    48dc:	40f407b3          	sub	a5,s0,a5
    48e0:	db87b383          	ld	t2,-584(a5) # db8 <.LBB80_3+0xb10>
    48e4:	00739393          	slli	t2,t2,0x7
    48e8:	ec043783          	ld	a5,-320(s0)
    48ec:	00f287b3          	add	a5,t0,a5
    48f0:	007787b3          	add	a5,a5,t2
    48f4:	41db883b          	subw	a6,s7,t4
    48f8:	410787bb          	subw	a5,a5,a6
    48fc:	40000837          	lui	a6,0x40000
    4900:	000022b7          	lui	t0,0x2
    4904:	405402b3          	sub	t0,s0,t0
    4908:	12f2b023          	sd	a5,288(t0) # 2120 <.LBB80_5+0xc6c>
    490c:	0007d463          	bgez	a5,4914 <.LBB80_68>
    4910:	c0000837          	lui	a6,0xc0000

0000000000004914 <.LBB80_68>:
    4914:	000027b7          	lui	a5,0x2
    4918:	40f407b3          	sub	a5,s0,a5
    491c:	1107bc23          	sd	a6,280(a5) # 2118 <.LBB80_5+0xc64>
    4920:	000017b7          	lui	a5,0x1
    4924:	40f407b3          	sub	a5,s0,a5
    4928:	dc87b283          	ld	t0,-568(a5) # dc8 <.LBB80_3+0xb20>
    492c:	00729293          	slli	t0,t0,0x7
    4930:	ec843783          	ld	a5,-312(s0)
    4934:	00f307b3          	add	a5,t1,a5
    4938:	005787b3          	add	a5,a5,t0
    493c:	41db883b          	subw	a6,s7,t4
    4940:	410787bb          	subw	a5,a5,a6
    4944:	40000837          	lui	a6,0x40000
    4948:	0007d463          	bgez	a5,4950 <.LBB80_70>
    494c:	c0000837          	lui	a6,0xc0000

0000000000004950 <.LBB80_70>:
    4950:	00002337          	lui	t1,0x2
    4954:	40640333          	sub	t1,s0,t1
    4958:	0b033823          	sd	a6,176(t1) # 20b0 <.LBB80_5+0xbfc>
    495c:	eb043803          	ld	a6,-336(s0)
    4960:	00001337          	lui	t1,0x1
    4964:	40640333          	sub	t1,s0,t1
    4968:	77833303          	ld	t1,1912(t1) # 1778 <.LBB80_5+0x2c4>
    496c:	01030833          	add	a6,t1,a6
    4970:	03f70333          	mul	t1,a4,t6
    4974:	01580833          	add	a6,a6,s5
    4978:	41d3073b          	subw	a4,t1,t4
    497c:	40e8073b          	subw	a4,a6,a4
    4980:	40000837          	lui	a6,0x40000
    4984:	00001bb7          	lui	s7,0x1
    4988:	41740bb3          	sub	s7,s0,s7
    498c:	78ebbc23          	sd	a4,1944(s7) # 1798 <.LBB80_5+0x2e4>
    4990:	00001bb7          	lui	s7,0x1
    4994:	41740bb3          	sub	s7,s0,s7
    4998:	7a8bbb83          	ld	s7,1960(s7) # 17a8 <.LBB80_5+0x2f4>
    499c:	00075463          	bgez	a4,49a4 <.LBB80_72>
    49a0:	c0000837          	lui	a6,0xc0000

00000000000049a4 <.LBB80_72>:
    49a4:	f8a43823          	sd	a0,-112(s0)
    49a8:	00001537          	lui	a0,0x1
    49ac:	40a40533          	sub	a0,s0,a0
    49b0:	79053023          	sd	a6,1920(a0) # 1780 <.LBB80_5+0x2cc>
    49b4:	eb843703          	ld	a4,-328(s0)
    49b8:	00001537          	lui	a0,0x1
    49bc:	40a40533          	sub	a0,s0,a0
    49c0:	78853803          	ld	a6,1928(a0) # 1788 <.LBB80_5+0x2d4>
    49c4:	00e80733          	add	a4,a6,a4
    49c8:	01e70733          	add	a4,a4,t5
    49cc:	41d3083b          	subw	a6,t1,t4
    49d0:	4107073b          	subw	a4,a4,a6
    49d4:	40000837          	lui	a6,0x40000
    49d8:	00001537          	lui	a0,0x1
    49dc:	40a40533          	sub	a0,s0,a0
    49e0:	78e53423          	sd	a4,1928(a0) # 1788 <.LBB80_5+0x2d4>
    49e4:	f9043503          	ld	a0,-112(s0)
    49e8:	00075463          	bgez	a4,49f0 <.LBB80_74>
    49ec:	c0000837          	lui	a6,0xc0000

00000000000049f0 <.LBB80_74>:
    49f0:	f8a43823          	sd	a0,-112(s0)
    49f4:	00001537          	lui	a0,0x1
    49f8:	40a40533          	sub	a0,s0,a0
    49fc:	77053c23          	sd	a6,1912(a0) # 1778 <.LBB80_5+0x2c4>
    4a00:	ec043703          	ld	a4,-320(s0)
    4a04:	00001537          	lui	a0,0x1
    4a08:	40a40533          	sub	a0,s0,a0
    4a0c:	79053803          	ld	a6,1936(a0) # 1790 <.LBB80_5+0x2dc>
    4a10:	00e80733          	add	a4,a6,a4
    4a14:	00770733          	add	a4,a4,t2
    4a18:	41d3083b          	subw	a6,t1,t4
    4a1c:	4107073b          	subw	a4,a4,a6
    4a20:	40000837          	lui	a6,0x40000
    4a24:	00001537          	lui	a0,0x1
    4a28:	40a40533          	sub	a0,s0,a0
    4a2c:	74e53423          	sd	a4,1864(a0) # 1748 <.LBB80_5+0x294>
    4a30:	f9043503          	ld	a0,-112(s0)
    4a34:	00075463          	bgez	a4,4a3c <.LBB80_76>
    4a38:	c0000837          	lui	a6,0xc0000

0000000000004a3c <.LBB80_76>:
    4a3c:	f8a43823          	sd	a0,-112(s0)
    4a40:	00001537          	lui	a0,0x1
    4a44:	40a40533          	sub	a0,s0,a0
    4a48:	73053c23          	sd	a6,1848(a0) # 1738 <.LBB80_5+0x284>
    4a4c:	ec843703          	ld	a4,-312(s0)
    4a50:	00001537          	lui	a0,0x1
    4a54:	40a40533          	sub	a0,s0,a0
    4a58:	7a053803          	ld	a6,1952(a0) # 17a0 <.LBB80_5+0x2ec>
    4a5c:	00e80733          	add	a4,a6,a4
    4a60:	00570733          	add	a4,a4,t0
    4a64:	41d3083b          	subw	a6,t1,t4
    4a68:	4107073b          	subw	a4,a4,a6
    4a6c:	40000837          	lui	a6,0x40000
    4a70:	00001537          	lui	a0,0x1
    4a74:	40a40533          	sub	a0,s0,a0
    4a78:	d8e53c23          	sd	a4,-616(a0) # d98 <.LBB80_3+0xaf0>
    4a7c:	f9043503          	ld	a0,-112(s0)
    4a80:	00075463          	bgez	a4,4a88 <.LBB80_78>
    4a84:	c0000837          	lui	a6,0xc0000

0000000000004a88 <.LBB80_78>:
    4a88:	00001737          	lui	a4,0x1
    4a8c:	40e40733          	sub	a4,s0,a4
    4a90:	d9073423          	sd	a6,-632(a4) # d88 <.LBB80_3+0xae0>
    4a94:	ed043703          	ld	a4,-304(s0)
    4a98:	00eb8733          	add	a4,s7,a4
    4a9c:	01670733          	add	a4,a4,s6
    4aa0:	41d3083b          	subw	a6,t1,t4
    4aa4:	4107073b          	subw	a4,a4,a6
    4aa8:	40000837          	lui	a6,0x40000
    4aac:	00001bb7          	lui	s7,0x1
    4ab0:	41740bb3          	sub	s7,s0,s7
    4ab4:	d2ebb423          	sd	a4,-728(s7) # d28 <.LBB80_3+0xa80>
    4ab8:	00075463          	bgez	a4,4ac0 <.LBB80_80>
    4abc:	c0000837          	lui	a6,0xc0000

0000000000004ac0 <.LBB80_80>:
    4ac0:	00001737          	lui	a4,0x1
    4ac4:	40e40733          	sub	a4,s0,a4
    4ac8:	d1073c23          	sd	a6,-744(a4) # d18 <.LBB80_3+0xa70>
    4acc:	ed843703          	ld	a4,-296(s0)
    4ad0:	00001837          	lui	a6,0x1
    4ad4:	41040833          	sub	a6,s0,a6
    4ad8:	7b083803          	ld	a6,1968(a6) # 17b0 <.LBB80_5+0x2fc>
    4adc:	00e80733          	add	a4,a6,a4
    4ae0:	00c70733          	add	a4,a4,a2
    4ae4:	41d3083b          	subw	a6,t1,t4
    4ae8:	4107073b          	subw	a4,a4,a6
    4aec:	40000837          	lui	a6,0x40000
    4af0:	00001bb7          	lui	s7,0x1
    4af4:	41740bb3          	sub	s7,s0,s7
    4af8:	caebbc23          	sd	a4,-840(s7) # cb8 <.LBB80_3+0xa10>
    4afc:	00075463          	bgez	a4,4b04 <.LBB80_82>
    4b00:	c0000837          	lui	a6,0xc0000

0000000000004b04 <.LBB80_82>:
    4b04:	00001737          	lui	a4,0x1
    4b08:	40e40733          	sub	a4,s0,a4
    4b0c:	cb073423          	sd	a6,-856(a4) # ca8 <.LBB80_3+0xa00>
    4b10:	ee043703          	ld	a4,-288(s0)
    4b14:	00001837          	lui	a6,0x1
    4b18:	41040833          	sub	a6,s0,a6
    4b1c:	7b883803          	ld	a6,1976(a6) # 17b8 <.LBB80_5+0x304>
    4b20:	00e80733          	add	a4,a6,a4
    4b24:	00b70733          	add	a4,a4,a1
    4b28:	41d3083b          	subw	a6,t1,t4
    4b2c:	4107073b          	subw	a4,a4,a6
    4b30:	40000837          	lui	a6,0x40000
    4b34:	00001bb7          	lui	s7,0x1
    4b38:	41740bb3          	sub	s7,s0,s7
    4b3c:	c4ebb823          	sd	a4,-944(s7) # c50 <.LBB80_3+0x9a8>
    4b40:	00075463          	bgez	a4,4b48 <.LBB80_84>
    4b44:	c0000837          	lui	a6,0xc0000

0000000000004b48 <.LBB80_84>:
    4b48:	00001737          	lui	a4,0x1
    4b4c:	40e40733          	sub	a4,s0,a4
    4b50:	c5073023          	sd	a6,-960(a4) # c40 <.LBB80_3+0x998>
    4b54:	ee843703          	ld	a4,-280(s0)
    4b58:	00001837          	lui	a6,0x1
    4b5c:	41040833          	sub	a6,s0,a6
    4b60:	7c083803          	ld	a6,1984(a6) # 17c0 <.LBB80_5+0x30c>
    4b64:	00e80733          	add	a4,a6,a4
    4b68:	01b70733          	add	a4,a4,s11
    4b6c:	41d3083b          	subw	a6,t1,t4
    4b70:	4107073b          	subw	a4,a4,a6
    4b74:	40000837          	lui	a6,0x40000
    4b78:	00001bb7          	lui	s7,0x1
    4b7c:	41740bb3          	sub	s7,s0,s7
    4b80:	beebb023          	sd	a4,-1056(s7) # be0 <.LBB80_3+0x938>
    4b84:	00075463          	bgez	a4,4b8c <.LBB80_86>
    4b88:	c0000837          	lui	a6,0xc0000

0000000000004b8c <.LBB80_86>:
    4b8c:	00001737          	lui	a4,0x1
    4b90:	40e40733          	sub	a4,s0,a4
    4b94:	bd073823          	sd	a6,-1072(a4) # bd0 <.LBB80_3+0x928>
    4b98:	ef043703          	ld	a4,-272(s0)
    4b9c:	00001837          	lui	a6,0x1
    4ba0:	41040833          	sub	a6,s0,a6
    4ba4:	7c883803          	ld	a6,1992(a6) # 17c8 <.LBB80_5+0x314>
    4ba8:	00e80733          	add	a4,a6,a4
    4bac:	00170733          	add	a4,a4,ra
    4bb0:	41d3083b          	subw	a6,t1,t4
    4bb4:	4107073b          	subw	a4,a4,a6
    4bb8:	40000837          	lui	a6,0x40000
    4bbc:	00001bb7          	lui	s7,0x1
    4bc0:	41740bb3          	sub	s7,s0,s7
    4bc4:	b6ebb423          	sd	a4,-1176(s7) # b68 <.LBB80_3+0x8c0>
    4bc8:	00075463          	bgez	a4,4bd0 <.LBB80_88>
    4bcc:	c0000837          	lui	a6,0xc0000

0000000000004bd0 <.LBB80_88>:
    4bd0:	00001737          	lui	a4,0x1
    4bd4:	40e40733          	sub	a4,s0,a4
    4bd8:	b5073c23          	sd	a6,-1192(a4) # b58 <.LBB80_3+0x8b0>
    4bdc:	f2043703          	ld	a4,-224(s0)
    4be0:	00001837          	lui	a6,0x1
    4be4:	41040833          	sub	a6,s0,a6
    4be8:	7d083803          	ld	a6,2000(a6) # 17d0 <.LBB80_5+0x31c>
    4bec:	00e80733          	add	a4,a6,a4
    4bf0:	01970733          	add	a4,a4,s9
    4bf4:	41d3083b          	subw	a6,t1,t4
    4bf8:	4107073b          	subw	a4,a4,a6
    4bfc:	40000837          	lui	a6,0x40000
    4c00:	00001bb7          	lui	s7,0x1
    4c04:	41740bb3          	sub	s7,s0,s7
    4c08:	aeebb423          	sd	a4,-1304(s7) # ae8 <.LBB80_3+0x840>
    4c0c:	00075463          	bgez	a4,4c14 <.LBB80_90>
    4c10:	c0000837          	lui	a6,0xc0000

0000000000004c14 <.LBB80_90>:
    4c14:	00001737          	lui	a4,0x1
    4c18:	40e40733          	sub	a4,s0,a4
    4c1c:	ad073c23          	sd	a6,-1320(a4) # ad8 <.LBB80_3+0x830>
    4c20:	f2843703          	ld	a4,-216(s0)
    4c24:	00001837          	lui	a6,0x1
    4c28:	41040833          	sub	a6,s0,a6
    4c2c:	7d883803          	ld	a6,2008(a6) # 17d8 <.LBB80_5+0x324>
    4c30:	00e80733          	add	a4,a6,a4
    4c34:	01370733          	add	a4,a4,s3
    4c38:	41d3083b          	subw	a6,t1,t4
    4c3c:	4107073b          	subw	a4,a4,a6
    4c40:	40000837          	lui	a6,0x40000
    4c44:	00001bb7          	lui	s7,0x1
    4c48:	41740bb3          	sub	s7,s0,s7
    4c4c:	a6ebb823          	sd	a4,-1424(s7) # a70 <.LBB80_3+0x7c8>
    4c50:	00075463          	bgez	a4,4c58 <.LBB80_92>
    4c54:	c0000837          	lui	a6,0xc0000

0000000000004c58 <.LBB80_92>:
    4c58:	00001737          	lui	a4,0x1
    4c5c:	40e40733          	sub	a4,s0,a4
    4c60:	a5073c23          	sd	a6,-1448(a4) # a58 <.LBB80_3+0x7b0>
    4c64:	f3043703          	ld	a4,-208(s0)
    4c68:	00001837          	lui	a6,0x1
    4c6c:	41040833          	sub	a6,s0,a6
    4c70:	7e083803          	ld	a6,2016(a6) # 17e0 <.LBB80_5+0x32c>
    4c74:	00e80733          	add	a4,a6,a4
    4c78:	01c70733          	add	a4,a4,t3
    4c7c:	41d3083b          	subw	a6,t1,t4
    4c80:	4107073b          	subw	a4,a4,a6
    4c84:	40000837          	lui	a6,0x40000
    4c88:	00001bb7          	lui	s7,0x1
    4c8c:	41740bb3          	sub	s7,s0,s7
    4c90:	9eebb823          	sd	a4,-1552(s7) # 9f0 <.LBB80_3+0x748>
    4c94:	00075463          	bgez	a4,4c9c <.LBB80_94>
    4c98:	c0000837          	lui	a6,0xc0000

0000000000004c9c <.LBB80_94>:
    4c9c:	00001737          	lui	a4,0x1
    4ca0:	40e40733          	sub	a4,s0,a4
    4ca4:	9d073c23          	sd	a6,-1576(a4) # 9d8 <.LBB80_3+0x730>
    4ca8:	f3843703          	ld	a4,-200(s0)
    4cac:	00001837          	lui	a6,0x1
    4cb0:	41040833          	sub	a6,s0,a6
    4cb4:	7e883803          	ld	a6,2024(a6) # 17e8 <.LBB80_5+0x334>
    4cb8:	00e80733          	add	a4,a6,a4
    4cbc:	01470733          	add	a4,a4,s4
    4cc0:	41d3083b          	subw	a6,t1,t4
    4cc4:	4107073b          	subw	a4,a4,a6
    4cc8:	40000837          	lui	a6,0x40000
    4ccc:	00001bb7          	lui	s7,0x1
    4cd0:	41740bb3          	sub	s7,s0,s7
    4cd4:	96ebbc23          	sd	a4,-1672(s7) # 978 <.LBB80_3+0x6d0>
    4cd8:	00075463          	bgez	a4,4ce0 <.LBB80_96>
    4cdc:	c0000837          	lui	a6,0xc0000

0000000000004ce0 <.LBB80_96>:
    4ce0:	00001737          	lui	a4,0x1
    4ce4:	40e40733          	sub	a4,s0,a4
    4ce8:	97073023          	sd	a6,-1696(a4) # 960 <.LBB80_3+0x6b8>
    4cec:	f4043703          	ld	a4,-192(s0)
    4cf0:	00001837          	lui	a6,0x1
    4cf4:	41040833          	sub	a6,s0,a6
    4cf8:	7f083803          	ld	a6,2032(a6) # 17f0 <.LBB80_5+0x33c>
    4cfc:	00e80733          	add	a4,a6,a4
    4d00:	01870733          	add	a4,a4,s8
    4d04:	41d3083b          	subw	a6,t1,t4
    4d08:	4107073b          	subw	a4,a4,a6
    4d0c:	40000837          	lui	a6,0x40000
    4d10:	00001bb7          	lui	s7,0x1
    4d14:	41740bb3          	sub	s7,s0,s7
    4d18:	8eebbc23          	sd	a4,-1800(s7) # 8f8 <.LBB80_3+0x650>
    4d1c:	00075463          	bgez	a4,4d24 <.LBB80_98>
    4d20:	c0000837          	lui	a6,0xc0000

0000000000004d24 <.LBB80_98>:
    4d24:	00001737          	lui	a4,0x1
    4d28:	40e40733          	sub	a4,s0,a4
    4d2c:	8f073423          	sd	a6,-1816(a4) # 8e8 <.LBB80_3+0x640>
    4d30:	f4843703          	ld	a4,-184(s0)
    4d34:	00001837          	lui	a6,0x1
    4d38:	41040833          	sub	a6,s0,a6
    4d3c:	7f883803          	ld	a6,2040(a6) # 17f8 <.LBB80_5+0x344>
    4d40:	00e80733          	add	a4,a6,a4
    4d44:	00001837          	lui	a6,0x1
    4d48:	41040833          	sub	a6,s0,a6
    4d4c:	71883803          	ld	a6,1816(a6) # 1718 <.LBB80_5+0x264>
    4d50:	01070733          	add	a4,a4,a6
    4d54:	41d3083b          	subw	a6,t1,t4
    4d58:	4107073b          	subw	a4,a4,a6
    4d5c:	40000837          	lui	a6,0x40000
    4d60:	00001bb7          	lui	s7,0x1
    4d64:	41740bb3          	sub	s7,s0,s7
    4d68:	82ebb423          	sd	a4,-2008(s7) # 828 <.LBB80_3+0x580>
    4d6c:	00075463          	bgez	a4,4d74 <.LBB80_100>
    4d70:	c0000837          	lui	a6,0xc0000

0000000000004d74 <.LBB80_100>:
    4d74:	00001737          	lui	a4,0x1
    4d78:	40e40733          	sub	a4,s0,a4
    4d7c:	81073c23          	sd	a6,-2024(a4) # 818 <.LBB80_3+0x570>
    4d80:	f5043703          	ld	a4,-176(s0)
    4d84:	80043803          	ld	a6,-2048(s0)
    4d88:	00e80733          	add	a4,a6,a4
    4d8c:	00001837          	lui	a6,0x1
    4d90:	41040833          	sub	a6,s0,a6
    4d94:	71083803          	ld	a6,1808(a6) # 1710 <.LBB80_5+0x25c>
    4d98:	01070733          	add	a4,a4,a6
    4d9c:	41d3083b          	subw	a6,t1,t4
    4da0:	4107073b          	subw	a4,a4,a6
    4da4:	40000837          	lui	a6,0x40000
    4da8:	00002bb7          	lui	s7,0x2
    4dac:	41740bb3          	sub	s7,s0,s7
    4db0:	7aebb823          	sd	a4,1968(s7) # 27b0 <.LBB80_5+0x12fc>
    4db4:	00075463          	bgez	a4,4dbc <.LBB80_102>
    4db8:	c0000837          	lui	a6,0xc0000

0000000000004dbc <.LBB80_102>:
    4dbc:	00002737          	lui	a4,0x2
    4dc0:	40e40733          	sub	a4,s0,a4
    4dc4:	7b073023          	sd	a6,1952(a4) # 27a0 <.LBB80_5+0x12ec>
    4dc8:	f5843703          	ld	a4,-168(s0)
    4dcc:	80843803          	ld	a6,-2040(s0)
    4dd0:	00e80733          	add	a4,a6,a4
    4dd4:	00001837          	lui	a6,0x1
    4dd8:	41040833          	sub	a6,s0,a6
    4ddc:	70883803          	ld	a6,1800(a6) # 1708 <.LBB80_5+0x254>
    4de0:	01070733          	add	a4,a4,a6
    4de4:	41d3083b          	subw	a6,t1,t4
    4de8:	4107073b          	subw	a4,a4,a6
    4dec:	40000837          	lui	a6,0x40000
    4df0:	00002bb7          	lui	s7,0x2
    4df4:	41740bb3          	sub	s7,s0,s7
    4df8:	74ebb023          	sd	a4,1856(s7) # 2740 <.LBB80_5+0x128c>
    4dfc:	00075463          	bgez	a4,4e04 <.LBB80_104>
    4e00:	c0000837          	lui	a6,0xc0000

0000000000004e04 <.LBB80_104>:
    4e04:	00002737          	lui	a4,0x2
    4e08:	40e40733          	sub	a4,s0,a4
    4e0c:	73073823          	sd	a6,1840(a4) # 2730 <.LBB80_5+0x127c>
    4e10:	f6043703          	ld	a4,-160(s0)
    4e14:	81043803          	ld	a6,-2032(s0)
    4e18:	00e80733          	add	a4,a6,a4
    4e1c:	00001837          	lui	a6,0x1
    4e20:	41040833          	sub	a6,s0,a6
    4e24:	70083803          	ld	a6,1792(a6) # 1700 <.LBB80_5+0x24c>
    4e28:	01070733          	add	a4,a4,a6
    4e2c:	41d3083b          	subw	a6,t1,t4
    4e30:	4107073b          	subw	a4,a4,a6
    4e34:	40000837          	lui	a6,0x40000
    4e38:	00002bb7          	lui	s7,0x2
    4e3c:	41740bb3          	sub	s7,s0,s7
    4e40:	6cebb423          	sd	a4,1736(s7) # 26c8 <.LBB80_5+0x1214>
    4e44:	00075463          	bgez	a4,4e4c <.LBB80_106>
    4e48:	c0000837          	lui	a6,0xc0000

0000000000004e4c <.LBB80_106>:
    4e4c:	00002737          	lui	a4,0x2
    4e50:	40e40733          	sub	a4,s0,a4
    4e54:	6b073c23          	sd	a6,1720(a4) # 26b8 <.LBB80_5+0x1204>
    4e58:	f6843703          	ld	a4,-152(s0)
    4e5c:	81843803          	ld	a6,-2024(s0)
    4e60:	00e80733          	add	a4,a6,a4
    4e64:	00001837          	lui	a6,0x1
    4e68:	41040833          	sub	a6,s0,a6
    4e6c:	6f883803          	ld	a6,1784(a6) # 16f8 <.LBB80_5+0x244>
    4e70:	01070733          	add	a4,a4,a6
    4e74:	41d3083b          	subw	a6,t1,t4
    4e78:	4107073b          	subw	a4,a4,a6
    4e7c:	40000837          	lui	a6,0x40000
    4e80:	00002bb7          	lui	s7,0x2
    4e84:	41740bb3          	sub	s7,s0,s7
    4e88:	64ebb823          	sd	a4,1616(s7) # 2650 <.LBB80_5+0x119c>
    4e8c:	00075463          	bgez	a4,4e94 <.LBB80_108>
    4e90:	c0000837          	lui	a6,0xc0000

0000000000004e94 <.LBB80_108>:
    4e94:	00002737          	lui	a4,0x2
    4e98:	40e40733          	sub	a4,s0,a4
    4e9c:	65073023          	sd	a6,1600(a4) # 2640 <.LBB80_5+0x118c>
    4ea0:	f7043703          	ld	a4,-144(s0)
    4ea4:	82043803          	ld	a6,-2016(s0)
    4ea8:	00e80733          	add	a4,a6,a4
    4eac:	00001837          	lui	a6,0x1
    4eb0:	41040833          	sub	a6,s0,a6
    4eb4:	6f083803          	ld	a6,1776(a6) # 16f0 <.LBB80_5+0x23c>
    4eb8:	01070733          	add	a4,a4,a6
    4ebc:	41d3083b          	subw	a6,t1,t4
    4ec0:	4107073b          	subw	a4,a4,a6
    4ec4:	40000837          	lui	a6,0x40000
    4ec8:	00002bb7          	lui	s7,0x2
    4ecc:	41740bb3          	sub	s7,s0,s7
    4ed0:	5eebb023          	sd	a4,1504(s7) # 25e0 <.LBB80_5+0x112c>
    4ed4:	00075463          	bgez	a4,4edc <.LBB80_110>
    4ed8:	c0000837          	lui	a6,0xc0000

0000000000004edc <.LBB80_110>:
    4edc:	00002737          	lui	a4,0x2
    4ee0:	40e40733          	sub	a4,s0,a4
    4ee4:	5d073823          	sd	a6,1488(a4) # 25d0 <.LBB80_5+0x111c>
    4ee8:	f7843703          	ld	a4,-136(s0)
    4eec:	82843803          	ld	a6,-2008(s0)
    4ef0:	00e80733          	add	a4,a6,a4
    4ef4:	00001837          	lui	a6,0x1
    4ef8:	41040833          	sub	a6,s0,a6
    4efc:	6e883803          	ld	a6,1768(a6) # 16e8 <.LBB80_5+0x234>
    4f00:	01070733          	add	a4,a4,a6
    4f04:	41d3083b          	subw	a6,t1,t4
    4f08:	4107073b          	subw	a4,a4,a6
    4f0c:	40000837          	lui	a6,0x40000
    4f10:	00002bb7          	lui	s7,0x2
    4f14:	41740bb3          	sub	s7,s0,s7
    4f18:	56ebb423          	sd	a4,1384(s7) # 2568 <.LBB80_5+0x10b4>
    4f1c:	00075463          	bgez	a4,4f24 <.LBB80_112>
    4f20:	c0000837          	lui	a6,0xc0000

0000000000004f24 <.LBB80_112>:
    4f24:	00002737          	lui	a4,0x2
    4f28:	40e40733          	sub	a4,s0,a4
    4f2c:	55073c23          	sd	a6,1368(a4) # 2558 <.LBB80_5+0x10a4>
    4f30:	f8043703          	ld	a4,-128(s0)
    4f34:	83043803          	ld	a6,-2000(s0)
    4f38:	00e80733          	add	a4,a6,a4
    4f3c:	00001837          	lui	a6,0x1
    4f40:	41040833          	sub	a6,s0,a6
    4f44:	6e083803          	ld	a6,1760(a6) # 16e0 <.LBB80_5+0x22c>
    4f48:	01070733          	add	a4,a4,a6
    4f4c:	41d3083b          	subw	a6,t1,t4
    4f50:	4107073b          	subw	a4,a4,a6
    4f54:	40000837          	lui	a6,0x40000
    4f58:	00002bb7          	lui	s7,0x2
    4f5c:	41740bb3          	sub	s7,s0,s7
    4f60:	4eebbc23          	sd	a4,1272(s7) # 24f8 <.LBB80_5+0x1044>
    4f64:	00075463          	bgez	a4,4f6c <.LBB80_114>
    4f68:	c0000837          	lui	a6,0xc0000

0000000000004f6c <.LBB80_114>:
    4f6c:	00002737          	lui	a4,0x2
    4f70:	40e40733          	sub	a4,s0,a4
    4f74:	4f073423          	sd	a6,1256(a4) # 24e8 <.LBB80_5+0x1034>
    4f78:	00001737          	lui	a4,0x1
    4f7c:	40e40733          	sub	a4,s0,a4
    4f80:	69873703          	ld	a4,1688(a4) # 1698 <.LBB80_5+0x1e4>
    4f84:	83843803          	ld	a6,-1992(s0)
    4f88:	00e80733          	add	a4,a6,a4
    4f8c:	00001837          	lui	a6,0x1
    4f90:	41040833          	sub	a6,s0,a6
    4f94:	69083803          	ld	a6,1680(a6) # 1690 <.LBB80_5+0x1dc>
    4f98:	01070733          	add	a4,a4,a6
    4f9c:	41d3083b          	subw	a6,t1,t4
    4fa0:	4107073b          	subw	a4,a4,a6
    4fa4:	40000837          	lui	a6,0x40000
    4fa8:	00002bb7          	lui	s7,0x2
    4fac:	41740bb3          	sub	s7,s0,s7
    4fb0:	48ebb423          	sd	a4,1160(s7) # 2488 <.LBB80_5+0xfd4>
    4fb4:	00075463          	bgez	a4,4fbc <.LBB80_116>
    4fb8:	c0000837          	lui	a6,0xc0000

0000000000004fbc <.LBB80_116>:
    4fbc:	00002737          	lui	a4,0x2
    4fc0:	40e40733          	sub	a4,s0,a4
    4fc4:	47073c23          	sd	a6,1144(a4) # 2478 <.LBB80_5+0xfc4>
    4fc8:	00001737          	lui	a4,0x1
    4fcc:	40e40733          	sub	a4,s0,a4
    4fd0:	6a873703          	ld	a4,1704(a4) # 16a8 <.LBB80_5+0x1f4>
    4fd4:	84043803          	ld	a6,-1984(s0)
    4fd8:	00e80733          	add	a4,a6,a4
    4fdc:	00001837          	lui	a6,0x1
    4fe0:	41040833          	sub	a6,s0,a6
    4fe4:	6a083803          	ld	a6,1696(a6) # 16a0 <.LBB80_5+0x1ec>
    4fe8:	01070733          	add	a4,a4,a6
    4fec:	41d3083b          	subw	a6,t1,t4
    4ff0:	4107073b          	subw	a4,a4,a6
    4ff4:	40000837          	lui	a6,0x40000
    4ff8:	00002bb7          	lui	s7,0x2
    4ffc:	41740bb3          	sub	s7,s0,s7
    5000:	40ebbc23          	sd	a4,1048(s7) # 2418 <.LBB80_5+0xf64>
    5004:	00075463          	bgez	a4,500c <.LBB80_118>
    5008:	c0000837          	lui	a6,0xc0000

000000000000500c <.LBB80_118>:
    500c:	00002737          	lui	a4,0x2
    5010:	40e40733          	sub	a4,s0,a4
    5014:	41073423          	sd	a6,1032(a4) # 2408 <.LBB80_5+0xf54>
    5018:	00001737          	lui	a4,0x1
    501c:	40e40733          	sub	a4,s0,a4
    5020:	6b073703          	ld	a4,1712(a4) # 16b0 <.LBB80_5+0x1fc>
    5024:	84843803          	ld	a6,-1976(s0)
    5028:	00e80733          	add	a4,a6,a4
    502c:	00001837          	lui	a6,0x1
    5030:	41040833          	sub	a6,s0,a6
    5034:	6d883803          	ld	a6,1752(a6) # 16d8 <.LBB80_5+0x224>
    5038:	01070733          	add	a4,a4,a6
    503c:	41d3083b          	subw	a6,t1,t4
    5040:	4107073b          	subw	a4,a4,a6
    5044:	40000837          	lui	a6,0x40000
    5048:	00002bb7          	lui	s7,0x2
    504c:	41740bb3          	sub	s7,s0,s7
    5050:	3aebb423          	sd	a4,936(s7) # 23a8 <.LBB80_5+0xef4>
    5054:	00075463          	bgez	a4,505c <.LBB80_120>
    5058:	c0000837          	lui	a6,0xc0000

000000000000505c <.LBB80_120>:
    505c:	00002737          	lui	a4,0x2
    5060:	40e40733          	sub	a4,s0,a4
    5064:	39073c23          	sd	a6,920(a4) # 2398 <.LBB80_5+0xee4>
    5068:	00001737          	lui	a4,0x1
    506c:	40e40733          	sub	a4,s0,a4
    5070:	6b873703          	ld	a4,1720(a4) # 16b8 <.LBB80_5+0x204>
    5074:	85043803          	ld	a6,-1968(s0)
    5078:	00e80733          	add	a4,a6,a4
    507c:	00001837          	lui	a6,0x1
    5080:	41040833          	sub	a6,s0,a6
    5084:	6d083803          	ld	a6,1744(a6) # 16d0 <.LBB80_5+0x21c>
    5088:	01070733          	add	a4,a4,a6
    508c:	41d3083b          	subw	a6,t1,t4
    5090:	4107073b          	subw	a4,a4,a6
    5094:	40000837          	lui	a6,0x40000
    5098:	00002bb7          	lui	s7,0x2
    509c:	41740bb3          	sub	s7,s0,s7
    50a0:	32ebbc23          	sd	a4,824(s7) # 2338 <.LBB80_5+0xe84>
    50a4:	00075463          	bgez	a4,50ac <.LBB80_122>
    50a8:	c0000837          	lui	a6,0xc0000

00000000000050ac <.LBB80_122>:
    50ac:	00002737          	lui	a4,0x2
    50b0:	40e40733          	sub	a4,s0,a4
    50b4:	33073423          	sd	a6,808(a4) # 2328 <.LBB80_5+0xe74>
    50b8:	00001737          	lui	a4,0x1
    50bc:	40e40733          	sub	a4,s0,a4
    50c0:	6c073703          	ld	a4,1728(a4) # 16c0 <.LBB80_5+0x20c>
    50c4:	85843803          	ld	a6,-1960(s0)
    50c8:	00e80733          	add	a4,a6,a4
    50cc:	00001837          	lui	a6,0x1
    50d0:	41040833          	sub	a6,s0,a6
    50d4:	6c883803          	ld	a6,1736(a6) # 16c8 <.LBB80_5+0x214>
    50d8:	01070733          	add	a4,a4,a6
    50dc:	41d3083b          	subw	a6,t1,t4
    50e0:	4107073b          	subw	a4,a4,a6
    50e4:	40000837          	lui	a6,0x40000
    50e8:	00002bb7          	lui	s7,0x2
    50ec:	41740bb3          	sub	s7,s0,s7
    50f0:	2cebb423          	sd	a4,712(s7) # 22c8 <.LBB80_5+0xe14>
    50f4:	00075463          	bgez	a4,50fc <.LBB80_124>
    50f8:	c0000837          	lui	a6,0xc0000

00000000000050fc <.LBB80_124>:
    50fc:	00002737          	lui	a4,0x2
    5100:	40e40733          	sub	a4,s0,a4
    5104:	2b073c23          	sd	a6,696(a4) # 22b8 <.LBB80_5+0xe04>
    5108:	e6843703          	ld	a4,-408(s0)
    510c:	86043803          	ld	a6,-1952(s0)
    5110:	00e80733          	add	a4,a6,a4
    5114:	e6043803          	ld	a6,-416(s0)
    5118:	01070733          	add	a4,a4,a6
    511c:	41d3083b          	subw	a6,t1,t4
    5120:	4107073b          	subw	a4,a4,a6
    5124:	40000837          	lui	a6,0x40000
    5128:	00002bb7          	lui	s7,0x2
    512c:	41740bb3          	sub	s7,s0,s7
    5130:	24ebbc23          	sd	a4,600(s7) # 2258 <.LBB80_5+0xda4>
    5134:	00075463          	bgez	a4,513c <.LBB80_126>
    5138:	c0000837          	lui	a6,0xc0000

000000000000513c <.LBB80_126>:
    513c:	00002737          	lui	a4,0x2
    5140:	40e40733          	sub	a4,s0,a4
    5144:	25073423          	sd	a6,584(a4) # 2248 <.LBB80_5+0xd94>
    5148:	e7843703          	ld	a4,-392(s0)
    514c:	86843803          	ld	a6,-1944(s0)
    5150:	00e80733          	add	a4,a6,a4
    5154:	e7043803          	ld	a6,-400(s0)
    5158:	01070733          	add	a4,a4,a6
    515c:	41d3083b          	subw	a6,t1,t4
    5160:	4107073b          	subw	a4,a4,a6
    5164:	40000837          	lui	a6,0x40000
    5168:	00002bb7          	lui	s7,0x2
    516c:	41740bb3          	sub	s7,s0,s7
    5170:	1eebb423          	sd	a4,488(s7) # 21e8 <.LBB80_5+0xd34>
    5174:	00075463          	bgez	a4,517c <.LBB80_128>
    5178:	c0000837          	lui	a6,0xc0000

000000000000517c <.LBB80_128>:
    517c:	00002737          	lui	a4,0x2
    5180:	40e40733          	sub	a4,s0,a4
    5184:	1d073c23          	sd	a6,472(a4) # 21d8 <.LBB80_5+0xd24>
    5188:	e8843703          	ld	a4,-376(s0)
    518c:	87043803          	ld	a6,-1936(s0)
    5190:	00e80733          	add	a4,a6,a4
    5194:	e8043803          	ld	a6,-384(s0)
    5198:	01070733          	add	a4,a4,a6
    519c:	41d3083b          	subw	a6,t1,t4
    51a0:	4107073b          	subw	a4,a4,a6
    51a4:	40000837          	lui	a6,0x40000
    51a8:	00002bb7          	lui	s7,0x2
    51ac:	41740bb3          	sub	s7,s0,s7
    51b0:	18ebb023          	sd	a4,384(s7) # 2180 <.LBB80_5+0xccc>
    51b4:	00075463          	bgez	a4,51bc <.LBB80_130>
    51b8:	c0000837          	lui	a6,0xc0000

00000000000051bc <.LBB80_130>:
    51bc:	00002737          	lui	a4,0x2
    51c0:	40e40733          	sub	a4,s0,a4
    51c4:	17073823          	sd	a6,368(a4) # 2170 <.LBB80_5+0xcbc>
    51c8:	e9843703          	ld	a4,-360(s0)
    51cc:	87843803          	ld	a6,-1928(s0)
    51d0:	00e80733          	add	a4,a6,a4
    51d4:	e9043803          	ld	a6,-368(s0)
    51d8:	01070733          	add	a4,a4,a6
    51dc:	41d3083b          	subw	a6,t1,t4
    51e0:	4107073b          	subw	a4,a4,a6
    51e4:	40000837          	lui	a6,0x40000
    51e8:	00002eb7          	lui	t4,0x2
    51ec:	41d40eb3          	sub	t4,s0,t4
    51f0:	10eeb823          	sd	a4,272(t4) # 2110 <.LBB80_5+0xc5c>
    51f4:	00075463          	bgez	a4,51fc <.LBB80_132>
    51f8:	c0000837          	lui	a6,0xc0000

00000000000051fc <.LBB80_132>:
    51fc:	00002737          	lui	a4,0x2
    5200:	40e40733          	sub	a4,s0,a4
    5204:	11073023          	sd	a6,256(a4) # 2100 <.LBB80_5+0xc4c>
    5208:	ea843703          	ld	a4,-344(s0)
    520c:	00ed0733          	add	a4,s10,a4
    5210:	ea043803          	ld	a6,-352(s0)
    5214:	01070733          	add	a4,a4,a6
    5218:	ffe2c837          	lui	a6,0xffe2c
    521c:	4103033b          	subw	t1,t1,a6
    5220:	4067073b          	subw	a4,a4,t1
    5224:	40000337          	lui	t1,0x40000
    5228:	d6843e83          	ld	t4,-664(s0)
    522c:	00002bb7          	lui	s7,0x2
    5230:	41740bb3          	sub	s7,s0,s7
    5234:	0aebbc23          	sd	a4,184(s7) # 20b8 <.LBB80_5+0xc04>
    5238:	00075463          	bgez	a4,5240 <.LBB80_134>
    523c:	c0000337          	lui	t1,0xc0000

0000000000005240 <.LBB80_134>:
    5240:	00002737          	lui	a4,0x2
    5244:	40e40733          	sub	a4,s0,a4
    5248:	0a673423          	sd	t1,168(a4) # 20a8 <.LBB80_5+0xbf4>
    524c:	88843703          	ld	a4,-1912(s0)
    5250:	eb043303          	ld	t1,-336(s0)
    5254:	00670733          	add	a4,a4,t1
    5258:	03f50533          	mul	a0,a0,t6
    525c:	01570733          	add	a4,a4,s5
    5260:	4105033b          	subw	t1,a0,a6
    5264:	4067073b          	subw	a4,a4,t1
    5268:	40000337          	lui	t1,0x40000
    526c:	82e43023          	sd	a4,-2016(s0)
    5270:	00075463          	bgez	a4,5278 <.LBB80_136>
    5274:	c0000337          	lui	t1,0xc0000

0000000000005278 <.LBB80_136>:
    5278:	80643823          	sd	t1,-2032(s0)
    527c:	89043703          	ld	a4,-1904(s0)
    5280:	eb843303          	ld	t1,-328(s0)
    5284:	00670733          	add	a4,a4,t1
    5288:	01e70733          	add	a4,a4,t5
    528c:	4105033b          	subw	t1,a0,a6
    5290:	4067073b          	subw	a4,a4,t1
    5294:	40000337          	lui	t1,0x40000
    5298:	00001bb7          	lui	s7,0x1
    529c:	41740bb3          	sub	s7,s0,s7
    52a0:	7cebb423          	sd	a4,1992(s7) # 17c8 <.LBB80_5+0x314>
    52a4:	00075463          	bgez	a4,52ac <.LBB80_138>
    52a8:	c0000337          	lui	t1,0xc0000

00000000000052ac <.LBB80_138>:
    52ac:	00001737          	lui	a4,0x1
    52b0:	40e40733          	sub	a4,s0,a4
    52b4:	7a673c23          	sd	t1,1976(a4) # 17b8 <.LBB80_5+0x304>
    52b8:	89843703          	ld	a4,-1896(s0)
    52bc:	ec043303          	ld	t1,-320(s0)
    52c0:	00670733          	add	a4,a4,t1
    52c4:	00770733          	add	a4,a4,t2
    52c8:	4105033b          	subw	t1,a0,a6
    52cc:	4067073b          	subw	a4,a4,t1
    52d0:	40000337          	lui	t1,0x40000
    52d4:	00001bb7          	lui	s7,0x1
    52d8:	41740bb3          	sub	s7,s0,s7
    52dc:	74ebb023          	sd	a4,1856(s7) # 1740 <.LBB80_5+0x28c>
    52e0:	00075463          	bgez	a4,52e8 <.LBB80_140>
    52e4:	c0000337          	lui	t1,0xc0000

00000000000052e8 <.LBB80_140>:
    52e8:	00001737          	lui	a4,0x1
    52ec:	40e40733          	sub	a4,s0,a4
    52f0:	72673423          	sd	t1,1832(a4) # 1728 <.LBB80_5+0x274>
    52f4:	8a043703          	ld	a4,-1888(s0)
    52f8:	ec843303          	ld	t1,-312(s0)
    52fc:	00670733          	add	a4,a4,t1
    5300:	00570733          	add	a4,a4,t0
    5304:	4105033b          	subw	t1,a0,a6
    5308:	4067073b          	subw	a4,a4,t1
    530c:	40000337          	lui	t1,0x40000
    5310:	00001bb7          	lui	s7,0x1
    5314:	41740bb3          	sub	s7,s0,s7
    5318:	d8ebb823          	sd	a4,-624(s7) # d90 <.LBB80_3+0xae8>
    531c:	00075463          	bgez	a4,5324 <.LBB80_142>
    5320:	c0000337          	lui	t1,0xc0000

0000000000005324 <.LBB80_142>:
    5324:	00001737          	lui	a4,0x1
    5328:	40e40733          	sub	a4,s0,a4
    532c:	d6673c23          	sd	t1,-648(a4) # d78 <.LBB80_3+0xad0>
    5330:	8a843703          	ld	a4,-1880(s0)
    5334:	ed043303          	ld	t1,-304(s0)
    5338:	00670733          	add	a4,a4,t1
    533c:	01670733          	add	a4,a4,s6
    5340:	4105033b          	subw	t1,a0,a6
    5344:	4067073b          	subw	a4,a4,t1
    5348:	40000337          	lui	t1,0x40000
    534c:	00001bb7          	lui	s7,0x1
    5350:	41740bb3          	sub	s7,s0,s7
    5354:	d2ebb023          	sd	a4,-736(s7) # d20 <.LBB80_3+0xa78>
    5358:	00075463          	bgez	a4,5360 <.LBB80_144>
    535c:	c0000337          	lui	t1,0xc0000

0000000000005360 <.LBB80_144>:
    5360:	00001737          	lui	a4,0x1
    5364:	40e40733          	sub	a4,s0,a4
    5368:	d0673423          	sd	t1,-760(a4) # d08 <.LBB80_3+0xa60>
    536c:	8b043703          	ld	a4,-1872(s0)
    5370:	ed843303          	ld	t1,-296(s0)
    5374:	00670733          	add	a4,a4,t1
    5378:	00c70733          	add	a4,a4,a2
    537c:	4105033b          	subw	t1,a0,a6
    5380:	4067073b          	subw	a4,a4,t1
    5384:	40000337          	lui	t1,0x40000
    5388:	00001bb7          	lui	s7,0x1
    538c:	41740bb3          	sub	s7,s0,s7
    5390:	caebb823          	sd	a4,-848(s7) # cb0 <.LBB80_3+0xa08>
    5394:	00075463          	bgez	a4,539c <.LBB80_146>
    5398:	c0000337          	lui	t1,0xc0000

000000000000539c <.LBB80_146>:
    539c:	00001737          	lui	a4,0x1
    53a0:	40e40733          	sub	a4,s0,a4
    53a4:	c8673c23          	sd	t1,-872(a4) # c98 <.LBB80_3+0x9f0>
    53a8:	8b843703          	ld	a4,-1864(s0)
    53ac:	ee043303          	ld	t1,-288(s0)
    53b0:	00670733          	add	a4,a4,t1
    53b4:	00b70733          	add	a4,a4,a1
    53b8:	4105033b          	subw	t1,a0,a6
    53bc:	4067073b          	subw	a4,a4,t1
    53c0:	40000337          	lui	t1,0x40000
    53c4:	00001bb7          	lui	s7,0x1
    53c8:	41740bb3          	sub	s7,s0,s7
    53cc:	c4ebb423          	sd	a4,-952(s7) # c48 <.LBB80_3+0x9a0>
    53d0:	00075463          	bgez	a4,53d8 <.LBB80_148>
    53d4:	c0000337          	lui	t1,0xc0000

00000000000053d8 <.LBB80_148>:
    53d8:	00001737          	lui	a4,0x1
    53dc:	40e40733          	sub	a4,s0,a4
    53e0:	c2673823          	sd	t1,-976(a4) # c30 <.LBB80_3+0x988>
    53e4:	8c043703          	ld	a4,-1856(s0)
    53e8:	ee843303          	ld	t1,-280(s0)
    53ec:	00670733          	add	a4,a4,t1
