
code.o:     file format elf64-littleriscv


Disassembly of section .text.main_dispatch_140_pooling_nhwc_sum_1x1x1x1280x7x7_i8xi32xi32:

0000000000000000 <main_dispatch_140_pooling_nhwc_sum_1x1x1x1280x7x7_i8xi32xi32>:
   0:	f1501173          	csrrw	sp,0xf15,zero

0000000000000004 <.Lfunc_begin104>:
   4:	f7010113          	addi	sp,sp,-144
   8:	08113423          	sd	ra,136(sp)
   c:	08813023          	sd	s0,128(sp)
  10:	06913c23          	sd	s1,120(sp)
  14:	07213823          	sd	s2,112(sp)
  18:	07313423          	sd	s3,104(sp)
  1c:	07413023          	sd	s4,96(sp)
  20:	05513c23          	sd	s5,88(sp)
  24:	05613823          	sd	s6,80(sp)
  28:	05713423          	sd	s7,72(sp)
  2c:	05813023          	sd	s8,64(sp)
  30:	03913c23          	sd	s9,56(sp)
  34:	03a13823          	sd	s10,48(sp)
  38:	03b13423          	sd	s11,40(sp)
  3c:	09010413          	addi	s0,sp,144
  40:	0205b583          	ld	a1,32(a1)
  44:	0005b783          	ld	a5,0(a1)
  48:	00000293          	li	t0,0
  4c:	0000f8b7          	lui	a7,0xf
  50:	6008851b          	addiw	a0,a7,1536 # f600 <.LBB63_1843>
  54:	00a78c33          	add	s8,a5,a0
  58:	0085b503          	ld	a0,8(a1)
  5c:	f6a43823          	sd	a0,-144(s0)
  60:	00011837          	lui	a6,0x11
  64:	4008061b          	addiw	a2,a6,1024 # 11400 <.LBB41_1927+0x8>
  68:	00c786b3          	add	a3,a5,a2
  6c:	00010737          	lui	a4,0x10
  70:	00e78633          	add	a2,a5,a4
  74:	5007071b          	addiw	a4,a4,1280 # 10500 <.LBB52_2154>
  78:	00e78733          	add	a4,a5,a4
  7c:	a008081b          	addiw	a6,a6,-1536
  80:	01078db3          	add	s11,a5,a6
  84:	00002837          	lui	a6,0x2
  88:	3008079b          	addiw	a5,a6,768 # 2300 <.LBB28_4+0x5e8>
  8c:	5008881b          	addiw	a6,a7,1280
  90:	f8f43423          	sd	a5,-120(s0)
  94:	f9043023          	sd	a6,-128(s0)

0000000000000098 <.LBB104_1>:
  98:	00000393          	li	t2,0
  9c:	00000e93          	li	t4,0
  a0:	00000493          	li	s1,0
  a4:	00000b13          	li	s6,0
  a8:	00000913          	li	s2,0
  ac:	00000993          	li	s3,0
  b0:	00000a13          	li	s4,0
  b4:	00000f13          	li	t5,0
  b8:	00000a93          	li	s5,0
  bc:	f6543c23          	sd	t0,-136(s0)
  c0:	f8e43823          	sd	a4,-112(s0)

00000000000000c4 <.LBB104_2>:
  c4:	00770fb3          	add	t6,a4,t2
  c8:	00060713          	mv	a4,a2
  cc:	00760bb3          	add	s7,a2,t2
  d0:	000c0613          	mv	a2,s8
  d4:	007c0c33          	add	s8,s8,t2
  d8:	00068793          	mv	a5,a3
  dc:	00768e33          	add	t3,a3,t2
  e0:	007c0c83          	lb	s9,7(s8)
  e4:	006c0d03          	lb	s10,6(s8)
  e8:	000d8693          	mv	a3,s11
  ec:	005c0d83          	lb	s11,5(s8)
  f0:	004c0083          	lb	ra,4(s8)
  f4:	002c0583          	lb	a1,2(s8)
  f8:	003c0283          	lb	t0,3(s8)
  fc:	001c0303          	lb	t1,1(s8)
 100:	000c0803          	lb	a6,0(s8)
 104:	00bb05b3          	add	a1,s6,a1
 108:	502c0b03          	lb	s6,1282(s8)
 10c:	00648333          	add	t1,s1,t1
 110:	501c0483          	lb	s1,1281(s8)
 114:	010e8833          	add	a6,t4,a6
 118:	500c0883          	lb	a7,1280(s8)
 11c:	00590933          	add	s2,s2,t0
 120:	503c0503          	lb	a0,1283(s8)
 124:	001989b3          	add	s3,s3,ra
 128:	504c0083          	lb	ra,1284(s8)
 12c:	01ba0a33          	add	s4,s4,s11
 130:	002b8283          	lb	t0,2(s7)
 134:	01af0d33          	add	s10,t5,s10
 138:	505c0d83          	lb	s11,1285(s8)
 13c:	019a8ab3          	add	s5,s5,s9
 140:	506c0c83          	lb	s9,1286(s8)
 144:	005b02b3          	add	t0,s6,t0
 148:	001b8f03          	lb	t5,1(s7)
 14c:	507c0b03          	lb	s6,1287(s8)
 150:	00558eb3          	add	t4,a1,t0
 154:	000b8583          	lb	a1,0(s7)
 158:	01e48f33          	add	t5,s1,t5
 15c:	007b8483          	lb	s1,7(s7)
 160:	01e30f33          	add	t5,t1,t5
 164:	006b8303          	lb	t1,6(s7)
 168:	00b885b3          	add	a1,a7,a1
 16c:	003b8883          	lb	a7,3(s7)
 170:	00b802b3          	add	t0,a6,a1
 174:	005b8583          	lb	a1,5(s7)
 178:	004b8803          	lb	a6,4(s7)
 17c:	01150533          	add	a0,a0,a7
 180:	002f8883          	lb	a7,2(t6)
 184:	00a90533          	add	a0,s2,a0
 188:	001f8903          	lb	s2,1(t6)
 18c:	01008833          	add	a6,ra,a6
 190:	000f8b83          	lb	s7,0(t6)
 194:	01098833          	add	a6,s3,a6
 198:	003f8983          	lb	s3,3(t6)
 19c:	00bd85b3          	add	a1,s11,a1
 1a0:	00068d93          	mv	s11,a3
 1a4:	004f8c03          	lb	s8,4(t6)
 1a8:	00ba05b3          	add	a1,s4,a1
 1ac:	005f8a03          	lb	s4,5(t6)
 1b0:	006c8333          	add	t1,s9,t1
 1b4:	00768cb3          	add	s9,a3,t2
 1b8:	006d0333          	add	t1,s10,t1
 1bc:	002c8d03          	lb	s10,2(s9)
 1c0:	009b04b3          	add	s1,s6,s1
 1c4:	001c8b03          	lb	s6,1(s9)
 1c8:	009a84b3          	add	s1,s5,s1
 1cc:	000c8a83          	lb	s5,0(s9)
 1d0:	01a888b3          	add	a7,a7,s10
 1d4:	006f8d03          	lb	s10,6(t6)
 1d8:	01690933          	add	s2,s2,s6
 1dc:	003c8b03          	lb	s6,3(s9)
 1e0:	015b8ab3          	add	s5,s7,s5
 1e4:	004c8b83          	lb	s7,4(s9)
 1e8:	007f8f83          	lb	t6,7(t6)
 1ec:	016989b3          	add	s3,s3,s6
 1f0:	005c8b03          	lb	s6,5(s9)
 1f4:	017c0bb3          	add	s7,s8,s7
 1f8:	006c8c03          	lb	s8,6(s9)
 1fc:	007c8c83          	lb	s9,7(s9)
 200:	016a0a33          	add	s4,s4,s6
 204:	b07e0b03          	lb	s6,-1273(t3)
 208:	018d0c33          	add	s8,s10,s8
 20c:	019f8fb3          	add	t6,t6,s9
 210:	b06e0c83          	lb	s9,-1274(t3)
 214:	016f8fb3          	add	t6,t6,s6
 218:	01f48fb3          	add	t6,s1,t6
 21c:	b05e0483          	lb	s1,-1275(t3)
 220:	019c0c33          	add	s8,s8,s9
 224:	01830333          	add	t1,t1,s8
 228:	00060c13          	mv	s8,a2
 22c:	b04e0b03          	lb	s6,-1276(t3)
 230:	009a04b3          	add	s1,s4,s1
 234:	009585b3          	add	a1,a1,s1
 238:	b03e0483          	lb	s1,-1277(t3)
 23c:	016b8b33          	add	s6,s7,s6
 240:	00070613          	mv	a2,a4
 244:	f9043703          	ld	a4,-112(s0)
 248:	01680833          	add	a6,a6,s6
 24c:	b00e0a03          	lb	s4,-1280(t3)
 250:	009984b3          	add	s1,s3,s1
 254:	00950533          	add	a0,a0,s1
 258:	b01e0483          	lb	s1,-1279(t3)
 25c:	014a8a33          	add	s4,s5,s4
 260:	014282b3          	add	t0,t0,s4
 264:	b02e0983          	lb	s3,-1278(t3)
 268:	009904b3          	add	s1,s2,s1
 26c:	009f0f33          	add	t5,t5,s1
 270:	002e0b03          	lb	s6,2(t3)
 274:	013888b3          	add	a7,a7,s3
 278:	001e0483          	lb	s1,1(t3)
 27c:	011e88b3          	add	a7,t4,a7
 280:	000e0e83          	lb	t4,0(t3)
 284:	01688b33          	add	s6,a7,s6
 288:	003e0903          	lb	s2,3(t3)
 28c:	009f04b3          	add	s1,t5,s1
 290:	004e0983          	lb	s3,4(t3)
 294:	01d28eb3          	add	t4,t0,t4
 298:	005e0a03          	lb	s4,5(t3)
 29c:	01250933          	add	s2,a0,s2
 2a0:	006e0f03          	lb	t5,6(t3)
 2a4:	013809b3          	add	s3,a6,s3
 2a8:	f8043803          	ld	a6,-128(s0)
 2ac:	007e0a83          	lb	s5,7(t3)
 2b0:	00078693          	mv	a3,a5
 2b4:	f8843783          	ld	a5,-120(s0)
 2b8:	01458a33          	add	s4,a1,s4
 2bc:	01e30f33          	add	t5,t1,t5
 2c0:	00f383b3          	add	t2,t2,a5
 2c4:	015f8ab3          	add	s5,t6,s5
 2c8:	df039ee3          	bne	t2,a6,c4 <.LBB104_2>
 2cc:	f7843883          	ld	a7,-136(s0)
 2d0:	00289513          	slli	a0,a7,0x2
 2d4:	f7043583          	ld	a1,-144(s0)
 2d8:	00a58533          	add	a0,a1,a0
 2dc:	01652423          	sw	s6,8(a0)
 2e0:	00952223          	sw	s1,4(a0)
 2e4:	01d52023          	sw	t4,0(a0)
 2e8:	01252623          	sw	s2,12(a0)
 2ec:	01352823          	sw	s3,16(a0)
 2f0:	01452a23          	sw	s4,20(a0)
 2f4:	01e52c23          	sw	t5,24(a0)
 2f8:	01552e23          	sw	s5,28(a0)
 2fc:	00888293          	addi	t0,a7,8
 300:	00868693          	addi	a3,a3,8
 304:	008c0c13          	addi	s8,s8,8
 308:	00860613          	addi	a2,a2,8
 30c:	00870713          	addi	a4,a4,8
 310:	008d8d93          	addi	s11,s11,8
 314:	4f800513          	li	a0,1272
 318:	d8a8e0e3          	bltu	a7,a0,98 <.LBB104_1>
 31c:	00000513          	li	a0,0
 320:	08813083          	ld	ra,136(sp)
 324:	08013403          	ld	s0,128(sp)
 328:	07813483          	ld	s1,120(sp)
 32c:	07013903          	ld	s2,112(sp)
 330:	06813983          	ld	s3,104(sp)
 334:	06013a03          	ld	s4,96(sp)
 338:	05813a83          	ld	s5,88(sp)
 33c:	05013b03          	ld	s6,80(sp)
 340:	04813b83          	ld	s7,72(sp)
 344:	04013c03          	ld	s8,64(sp)
 348:	03813c83          	ld	s9,56(sp)
 34c:	03013d03          	ld	s10,48(sp)
 350:	02813d83          	ld	s11,40(sp)
 354:	09010113          	addi	sp,sp,144
 358:	00008067          	ret
