
code.o:     file format elf64-littleriscv


Disassembly of section .text.main_dispatch_139_matmul_49x1280x320_i8xi8xi32:

0000000000000000 <main_dispatch_139_matmul_49x1280x320_i8xi8xi32>:
       0:	81010113          	addi	sp,sp,-2032
       4:	7e113423          	sd	ra,2024(sp)
       8:	7e813023          	sd	s0,2016(sp)
       c:	7c913c23          	sd	s1,2008(sp)
      10:	7d213823          	sd	s2,2000(sp)
      14:	7d313423          	sd	s3,1992(sp)
      18:	7d413023          	sd	s4,1984(sp)
      1c:	7b513c23          	sd	s5,1976(sp)
      20:	7b613823          	sd	s6,1968(sp)
      24:	7b713423          	sd	s7,1960(sp)
      28:	7b813023          	sd	s8,1952(sp)
      2c:	79913c23          	sd	s9,1944(sp)
      30:	79a13823          	sd	s10,1936(sp)
      34:	79b13423          	sd	s11,1928(sp)
      38:	7f010413          	addi	s0,sp,2032
      3c:	80010113          	addi	sp,sp,-2048
      40:	cd010113          	addi	sp,sp,-816
      44:	0205b583          	ld	a1,32(a1)
      48:	00000513          	li	a0,0
      4c:	0005b783          	ld	a5,0(a1)
      50:	0000c637          	lui	a2,0xc
      54:	8c06069b          	addiw	a3,a2,-1856 # b8c0 <.LBB103_1050+0x30>
      58:	0085b703          	ld	a4,8(a1)
      5c:	00d786b3          	add	a3,a5,a3
      60:	00001837          	lui	a6,0x1
      64:	41040833          	sub	a6,s0,a6
      68:	d8d83023          	sd	a3,-640(a6) # d80 <.LBB103_3+0xaac>
      6c:	001d36b7          	lui	a3,0x1d3
      70:	3806869b          	addiw	a3,a3,896 # 1d3380 <.Lfunc_end80+0x1aa9b8>
      74:	00d70fb3          	add	t6,a4,a3
      78:	000106b7          	lui	a3,0x10
      7c:	b806869b          	addiw	a3,a3,-1152 # fb80 <.LBB77_1873+0xc>
      80:	00d706b3          	add	a3,a4,a3
      84:	00001837          	lui	a6,0x1
      88:	41040833          	sub	a6,s0,a6
      8c:	d6d83823          	sd	a3,-656(a6) # d70 <.LBB103_3+0xa9c>
      90:	002376b7          	lui	a3,0x237
      94:	3806869b          	addiw	a3,a3,896 # 237380 <.Lfunc_end80+0x20e9b8>
      98:	0105b583          	ld	a1,16(a1)
      9c:	00d706b3          	add	a3,a4,a3
      a0:	00001737          	lui	a4,0x1
      a4:	40e40733          	sub	a4,s0,a4
      a8:	d6d73423          	sd	a3,-664(a4) # d68 <.LBB103_3+0xa94>
      ac:	0000f6b7          	lui	a3,0xf
      b0:	6006869b          	addiw	a3,a3,1536 # f600 <.LBB63_1843+0x4>
      b4:	00d585b3          	add	a1,a1,a3
      b8:	000016b7          	lui	a3,0x1
      bc:	40d406b3          	sub	a3,s0,a3
      c0:	d0b6b423          	sd	a1,-760(a3) # d08 <.LBB103_3+0xa34>
      c4:	1806059b          	addiw	a1,a2,384
      c8:	00001637          	lui	a2,0x1
      cc:	40c40633          	sub	a2,s0,a2
      d0:	d0f63823          	sd	a5,-752(a2) # d10 <.LBB103_3+0xa3c>
      d4:	00b785b3          	add	a1,a5,a1
      d8:	00001637          	lui	a2,0x1
      dc:	40c40633          	sub	a2,s0,a2
      e0:	d6b63c23          	sd	a1,-648(a2) # d78 <.LBB103_3+0xaa4>
      e4:	00500593          	li	a1,5
      e8:	00a59593          	slli	a1,a1,0xa
      ec:	00001637          	lui	a2,0x1
      f0:	40c40633          	sub	a2,s0,a2
      f4:	ceb63c23          	sd	a1,-776(a2) # cf8 <.LBB103_3+0xa24>
      f8:	01900593          	li	a1,25
      fc:	00859593          	slli	a1,a1,0x8
     100:	00001637          	lui	a2,0x1
     104:	40c40633          	sub	a2,s0,a2
     108:	ceb63823          	sd	a1,-784(a2) # cf0 <.LBB103_3+0xa1c>
     10c:	00f00593          	li	a1,15
     110:	00959593          	slli	a1,a1,0x9
     114:	00001637          	lui	a2,0x1
     118:	40c40633          	sub	a2,s0,a2
     11c:	ceb63423          	sd	a1,-792(a2) # ce8 <.LBB103_3+0xa14>
     120:	000025b7          	lui	a1,0x2
     124:	3005859b          	addiw	a1,a1,768 # 2300 <.LBB103_5+0xb04>
     128:	00001637          	lui	a2,0x1
     12c:	40c40633          	sub	a2,s0,a2
     130:	ceb63023          	sd	a1,-800(a2) # ce0 <.LBB103_3+0xa0c>
     134:	6931c5b7          	lui	a1,0x6931c
     138:	8985859b          	addiw	a1,a1,-1896 # 6931b898 <.Lfunc_end80+0x692f2ed0>
     13c:	00001637          	lui	a2,0x1
     140:	40c40633          	sub	a2,s0,a2
     144:	d2b63023          	sd	a1,-736(a2) # d20 <.LBB103_3+0xa4c>
     148:	00100593          	li	a1,1
     14c:	02359593          	slli	a1,a1,0x23
     150:	00001637          	lui	a2,0x1
     154:	40c40633          	sub	a2,s0,a2
     158:	64b63823          	sd	a1,1616(a2) # 1650 <.LBB103_4+0x410>
     15c:	000015b7          	lui	a1,0x1
     160:	40b405b3          	sub	a1,s0,a1
     164:	d1f5bc23          	sd	t6,-744(a1) # d18 <.LBB103_3+0xa44>
     168:	06c0006f          	j	1d4 <.LBB103_2>

000000000000016c <.LBB103_1>:
     16c:	00001537          	lui	a0,0x1
     170:	40a40533          	sub	a0,s0,a0
     174:	d0053683          	ld	a3,-768(a0) # d00 <.LBB103_3+0xa2c>
     178:	00868513          	addi	a0,a3,8
     17c:	00500593          	li	a1,5
     180:	00959593          	slli	a1,a1,0x9
     184:	00001637          	lui	a2,0x1
     188:	40c40633          	sub	a2,s0,a2
     18c:	d8063603          	ld	a2,-640(a2) # d80 <.LBB103_3+0xaac>
     190:	00b60633          	add	a2,a2,a1
     194:	00001737          	lui	a4,0x1
     198:	40e40733          	sub	a4,s0,a4
     19c:	d8c73023          	sd	a2,-640(a4) # d80 <.LBB103_3+0xaac>
     1a0:	00001637          	lui	a2,0x1
     1a4:	40c40633          	sub	a2,s0,a2
     1a8:	d7863603          	ld	a2,-648(a2) # d78 <.LBB103_3+0xaa4>
     1ac:	00b60633          	add	a2,a2,a1
     1b0:	000015b7          	lui	a1,0x1
     1b4:	40b405b3          	sub	a1,s0,a1
     1b8:	d6c5bc23          	sd	a2,-648(a1) # d78 <.LBB103_3+0xaa4>
     1bc:	000015b7          	lui	a1,0x1
     1c0:	40b405b3          	sub	a1,s0,a1
     1c4:	d185bf83          	ld	t6,-744(a1) # d18 <.LBB103_3+0xa44>
     1c8:	02800593          	li	a1,40
     1cc:	00b6e463          	bltu	a3,a1,1d4 <.LBB103_2>
     1d0:	75d0a06f          	j	b12c <.LBB103_1030>

00000000000001d4 <.LBB103_2>:
     1d4:	00000593          	li	a1,0
     1d8:	00050693          	mv	a3,a0
     1dc:	00251513          	slli	a0,a0,0x2
     1e0:	00001637          	lui	a2,0x1
     1e4:	40c40633          	sub	a2,s0,a2
     1e8:	d1063603          	ld	a2,-752(a2) # d10 <.LBB103_3+0xa3c>
     1ec:	00a60533          	add	a0,a2,a0
     1f0:	00001637          	lui	a2,0x1
     1f4:	40c40633          	sub	a2,s0,a2
     1f8:	64a63c23          	sd	a0,1624(a2) # 1658 <.LBB103_4+0x418>
     1fc:	50000513          	li	a0,1280
     200:	00001637          	lui	a2,0x1
     204:	40c40633          	sub	a2,s0,a2
     208:	d0d63023          	sd	a3,-768(a2) # d00 <.LBB103_3+0xa2c>
     20c:	02a68533          	mul	a0,a3,a0
     210:	00001637          	lui	a2,0x1
     214:	40c40633          	sub	a2,s0,a2
     218:	d0863603          	ld	a2,-760(a2) # d08 <.LBB103_3+0xa34>
     21c:	00a60633          	add	a2,a2,a0
     220:	50060513          	addi	a0,a2,1280
     224:	000016b7          	lui	a3,0x1
     228:	40d406b3          	sub	a3,s0,a3
     22c:	d4a6bc23          	sd	a0,-680(a3) # d58 <.LBB103_3+0xa84>
     230:	7ff60513          	addi	a0,a2,2047
     234:	20150693          	addi	a3,a0,513
     238:	00001737          	lui	a4,0x1
     23c:	40e40733          	sub	a4,s0,a4
     240:	d4d73823          	sd	a3,-688(a4) # d50 <.LBB103_3+0xa7c>
     244:	70150513          	addi	a0,a0,1793
     248:	000016b7          	lui	a3,0x1
     24c:	40d406b3          	sub	a3,s0,a3
     250:	d4a6b423          	sd	a0,-696(a3) # d48 <.LBB103_3+0xa74>
     254:	00001537          	lui	a0,0x1
     258:	40a40533          	sub	a0,s0,a0
     25c:	cf853503          	ld	a0,-776(a0) # cf8 <.LBB103_3+0xa24>
     260:	00a60533          	add	a0,a2,a0
     264:	000016b7          	lui	a3,0x1
     268:	40d406b3          	sub	a3,s0,a3
     26c:	d4a6b023          	sd	a0,-704(a3) # d40 <.LBB103_3+0xa6c>
     270:	00001537          	lui	a0,0x1
     274:	40a40533          	sub	a0,s0,a0
     278:	cf053503          	ld	a0,-784(a0) # cf0 <.LBB103_3+0xa1c>
     27c:	00a60533          	add	a0,a2,a0
     280:	000016b7          	lui	a3,0x1
     284:	40d406b3          	sub	a3,s0,a3
     288:	d2a6bc23          	sd	a0,-712(a3) # d38 <.LBB103_3+0xa64>
     28c:	00001537          	lui	a0,0x1
     290:	40a40533          	sub	a0,s0,a0
     294:	ce853503          	ld	a0,-792(a0) # ce8 <.LBB103_3+0xa14>
     298:	00a60533          	add	a0,a2,a0
     29c:	000016b7          	lui	a3,0x1
     2a0:	40d406b3          	sub	a3,s0,a3
     2a4:	d2a6b823          	sd	a0,-720(a3) # d30 <.LBB103_3+0xa5c>
     2a8:	00001537          	lui	a0,0x1
     2ac:	40a40533          	sub	a0,s0,a0
     2b0:	ce053503          	ld	a0,-800(a0) # ce0 <.LBB103_3+0xa0c>
     2b4:	000016b7          	lui	a3,0x1
     2b8:	40d406b3          	sub	a3,s0,a3
     2bc:	d6c6b023          	sd	a2,-672(a3) # d60 <.LBB103_3+0xa8c>
     2c0:	00a60533          	add	a0,a2,a0
     2c4:	00001637          	lui	a2,0x1
     2c8:	40c40633          	sub	a2,s0,a2
     2cc:	d2a63423          	sd	a0,-728(a2) # d28 <.LBB103_3+0xa54>
     2d0:	7710006f          	j	1240 <.LBB103_4>

00000000000002d4 <.LBB103_3>:
     2d4:	080d4c93          	xori	s9,s10,128
     2d8:	00001c37          	lui	s8,0x1
     2dc:	41840c33          	sub	s8,s0,s8
     2e0:	d60c3c03          	ld	s8,-672(s8) # d60 <.LBB103_3+0xa8c>
     2e4:	00001d37          	lui	s10,0x1
     2e8:	41a40d33          	sub	s10,s0,s10
     2ec:	660d3d03          	ld	s10,1632(s10) # 1660 <.LBB103_4+0x420>
     2f0:	01ac0c33          	add	s8,s8,s10
     2f4:	019c01a3          	sb	s9,3(s8)
     2f8:	f8843c83          	ld	s9,-120(s0)
     2fc:	080ccc93          	xori	s9,s9,128
     300:	019c0123          	sb	s9,2(s8)
     304:	f8043c83          	ld	s9,-128(s0)
     308:	080ccc93          	xori	s9,s9,128
     30c:	019c00a3          	sb	s9,1(s8)
     310:	f7843c83          	ld	s9,-136(s0)
     314:	080ccc93          	xori	s9,s9,128
     318:	019c0023          	sb	s9,0(s8)
     31c:	f7043c83          	ld	s9,-144(s0)
     320:	080ccc93          	xori	s9,s9,128
     324:	019c0223          	sb	s9,4(s8)
     328:	f6843c83          	ld	s9,-152(s0)
     32c:	080ccc93          	xori	s9,s9,128
     330:	019c02a3          	sb	s9,5(s8)
     334:	f6043c83          	ld	s9,-160(s0)
     338:	080ccc93          	xori	s9,s9,128
     33c:	019c0323          	sb	s9,6(s8)
     340:	f5843c83          	ld	s9,-168(s0)
     344:	080ccc93          	xori	s9,s9,128
     348:	019c03a3          	sb	s9,7(s8)
     34c:	f5043c83          	ld	s9,-176(s0)
     350:	080ccc93          	xori	s9,s9,128
     354:	019c0423          	sb	s9,8(s8)
     358:	f4843c83          	ld	s9,-184(s0)
     35c:	080ccc93          	xori	s9,s9,128
     360:	019c04a3          	sb	s9,9(s8)
     364:	f4043c83          	ld	s9,-192(s0)
     368:	080ccc93          	xori	s9,s9,128
     36c:	019c0523          	sb	s9,10(s8)
     370:	f3843c83          	ld	s9,-200(s0)
     374:	080ccc93          	xori	s9,s9,128
     378:	019c05a3          	sb	s9,11(s8)
     37c:	f3043c83          	ld	s9,-208(s0)
     380:	080ccc93          	xori	s9,s9,128
     384:	019c0623          	sb	s9,12(s8)
     388:	f2843c83          	ld	s9,-216(s0)
     38c:	080ccc93          	xori	s9,s9,128
     390:	019c06a3          	sb	s9,13(s8)
     394:	f2043c83          	ld	s9,-224(s0)
     398:	080ccc93          	xori	s9,s9,128
     39c:	019c0723          	sb	s9,14(s8)
     3a0:	f1843c83          	ld	s9,-232(s0)
     3a4:	080ccc93          	xori	s9,s9,128
     3a8:	019c07a3          	sb	s9,15(s8)
     3ac:	f1043c83          	ld	s9,-240(s0)
     3b0:	080ccc93          	xori	s9,s9,128
     3b4:	019c0823          	sb	s9,16(s8)
     3b8:	f0843c83          	ld	s9,-248(s0)
     3bc:	080ccc93          	xori	s9,s9,128
     3c0:	019c08a3          	sb	s9,17(s8)
     3c4:	f0043c83          	ld	s9,-256(s0)
     3c8:	080ccc93          	xori	s9,s9,128
     3cc:	019c0923          	sb	s9,18(s8)
     3d0:	ef843c83          	ld	s9,-264(s0)
     3d4:	080ccc93          	xori	s9,s9,128
     3d8:	019c09a3          	sb	s9,19(s8)
     3dc:	ef043c83          	ld	s9,-272(s0)
     3e0:	080ccc93          	xori	s9,s9,128
     3e4:	019c0a23          	sb	s9,20(s8)
     3e8:	ee043c83          	ld	s9,-288(s0)
     3ec:	080ccc93          	xori	s9,s9,128
     3f0:	019c0aa3          	sb	s9,21(s8)
     3f4:	ed843c83          	ld	s9,-296(s0)
     3f8:	080ccc93          	xori	s9,s9,128
     3fc:	019c0b23          	sb	s9,22(s8)
     400:	ed043c83          	ld	s9,-304(s0)
     404:	080ccc93          	xori	s9,s9,128
     408:	019c0ba3          	sb	s9,23(s8)
     40c:	ea843c83          	ld	s9,-344(s0)
     410:	080ccc93          	xori	s9,s9,128
     414:	019c0c23          	sb	s9,24(s8)
     418:	e7843c83          	ld	s9,-392(s0)
     41c:	080ccc93          	xori	s9,s9,128
     420:	019c0ca3          	sb	s9,25(s8)
     424:	e5843c83          	ld	s9,-424(s0)
     428:	080ccc93          	xori	s9,s9,128
     42c:	019c0d23          	sb	s9,26(s8)
     430:	e2843c83          	ld	s9,-472(s0)
     434:	080ccc93          	xori	s9,s9,128
     438:	019c0da3          	sb	s9,27(s8)
     43c:	e2043c83          	ld	s9,-480(s0)
     440:	080ccc93          	xori	s9,s9,128
     444:	019c0e23          	sb	s9,28(s8)
     448:	e1843c83          	ld	s9,-488(s0)
     44c:	080ccc93          	xori	s9,s9,128
     450:	019c0ea3          	sb	s9,29(s8)
     454:	e1043c83          	ld	s9,-496(s0)
     458:	080ccc93          	xori	s9,s9,128
     45c:	019c0f23          	sb	s9,30(s8)
     460:	e0843c83          	ld	s9,-504(s0)
     464:	080ccc93          	xori	s9,s9,128
     468:	019c0fa3          	sb	s9,31(s8)
     46c:	e0043c03          	ld	s8,-512(s0)
     470:	080c4c93          	xori	s9,s8,128
     474:	00001c37          	lui	s8,0x1
     478:	41840c33          	sub	s8,s0,s8
     47c:	d58c3c03          	ld	s8,-680(s8) # d58 <.LBB103_3+0xa84>
     480:	01ac0c33          	add	s8,s8,s10
     484:	019c01a3          	sb	s9,3(s8)
     488:	df843c83          	ld	s9,-520(s0)
     48c:	080ccc93          	xori	s9,s9,128
     490:	019c0123          	sb	s9,2(s8)
     494:	c7043c83          	ld	s9,-912(s0)
     498:	080ccc93          	xori	s9,s9,128
     49c:	019c00a3          	sb	s9,1(s8)
     4a0:	c2843c83          	ld	s9,-984(s0)
     4a4:	080ccc93          	xori	s9,s9,128
     4a8:	019c0023          	sb	s9,0(s8)
     4ac:	be843c83          	ld	s9,-1048(s0)
     4b0:	080ccc93          	xori	s9,s9,128
     4b4:	019c0223          	sb	s9,4(s8)
     4b8:	ba043c83          	ld	s9,-1120(s0)
     4bc:	080ccc93          	xori	s9,s9,128
     4c0:	019c02a3          	sb	s9,5(s8)
     4c4:	b5843c83          	ld	s9,-1192(s0)
     4c8:	080ccc93          	xori	s9,s9,128
     4cc:	019c0323          	sb	s9,6(s8)
     4d0:	b1843c83          	ld	s9,-1256(s0)
     4d4:	080ccc93          	xori	s9,s9,128
     4d8:	019c03a3          	sb	s9,7(s8)
     4dc:	ad043c83          	ld	s9,-1328(s0)
     4e0:	080ccc93          	xori	s9,s9,128
     4e4:	019c0423          	sb	s9,8(s8)
     4e8:	a8043c83          	ld	s9,-1408(s0)
     4ec:	080ccc93          	xori	s9,s9,128
     4f0:	019c04a3          	sb	s9,9(s8)
     4f4:	a4043c83          	ld	s9,-1472(s0)
     4f8:	080ccc93          	xori	s9,s9,128
     4fc:	019c0523          	sb	s9,10(s8)
     500:	9f843c83          	ld	s9,-1544(s0)
     504:	080ccc93          	xori	s9,s9,128
     508:	019c05a3          	sb	s9,11(s8)
     50c:	9b843c83          	ld	s9,-1608(s0)
     510:	080ccc93          	xori	s9,s9,128
     514:	019c0623          	sb	s9,12(s8)
     518:	97843c83          	ld	s9,-1672(s0)
     51c:	080ccc93          	xori	s9,s9,128
     520:	019c06a3          	sb	s9,13(s8)
     524:	93043c83          	ld	s9,-1744(s0)
     528:	080ccc93          	xori	s9,s9,128
     52c:	019c0723          	sb	s9,14(s8)
     530:	8f843c83          	ld	s9,-1800(s0)
     534:	080ccc93          	xori	s9,s9,128
     538:	019c07a3          	sb	s9,15(s8)
     53c:	8b843c83          	ld	s9,-1864(s0)
     540:	080ccc93          	xori	s9,s9,128
     544:	019c0823          	sb	s9,16(s8)
     548:	87043c83          	ld	s9,-1936(s0)
     54c:	080ccc93          	xori	s9,s9,128
     550:	019c08a3          	sb	s9,17(s8)
     554:	83043c83          	ld	s9,-2000(s0)
     558:	080ccc93          	xori	s9,s9,128
     55c:	019c0923          	sb	s9,18(s8)
     560:	00001cb7          	lui	s9,0x1
     564:	41940cb3          	sub	s9,s0,s9
     568:	7e8cbc83          	ld	s9,2024(s9) # 17e8 <.LBB103_4+0x5a8>
     56c:	080ccc93          	xori	s9,s9,128
     570:	019c09a3          	sb	s9,19(s8)
     574:	00001cb7          	lui	s9,0x1
     578:	41940cb3          	sub	s9,s0,s9
     57c:	7a8cbc83          	ld	s9,1960(s9) # 17a8 <.LBB103_4+0x568>
     580:	080ccc93          	xori	s9,s9,128
     584:	019c0a23          	sb	s9,20(s8)
     588:	00001cb7          	lui	s9,0x1
     58c:	41940cb3          	sub	s9,s0,s9
     590:	778cbc83          	ld	s9,1912(s9) # 1778 <.LBB103_4+0x538>
     594:	080ccc93          	xori	s9,s9,128
     598:	019c0aa3          	sb	s9,21(s8)
     59c:	00001cb7          	lui	s9,0x1
     5a0:	41940cb3          	sub	s9,s0,s9
     5a4:	770cbc83          	ld	s9,1904(s9) # 1770 <.LBB103_4+0x530>
     5a8:	080ccc93          	xori	s9,s9,128
     5ac:	019c0b23          	sb	s9,22(s8)
     5b0:	00001cb7          	lui	s9,0x1
     5b4:	41940cb3          	sub	s9,s0,s9
     5b8:	768cbc83          	ld	s9,1896(s9) # 1768 <.LBB103_4+0x528>
     5bc:	080ccc93          	xori	s9,s9,128
     5c0:	019c0ba3          	sb	s9,23(s8)
     5c4:	00001cb7          	lui	s9,0x1
     5c8:	41940cb3          	sub	s9,s0,s9
     5cc:	760cbc83          	ld	s9,1888(s9) # 1760 <.LBB103_4+0x520>
     5d0:	080ccc93          	xori	s9,s9,128
     5d4:	019c0c23          	sb	s9,24(s8)
     5d8:	00001cb7          	lui	s9,0x1
     5dc:	41940cb3          	sub	s9,s0,s9
     5e0:	758cbc83          	ld	s9,1880(s9) # 1758 <.LBB103_4+0x518>
     5e4:	080ccc93          	xori	s9,s9,128
     5e8:	019c0ca3          	sb	s9,25(s8)
     5ec:	00001cb7          	lui	s9,0x1
     5f0:	41940cb3          	sub	s9,s0,s9
     5f4:	750cbc83          	ld	s9,1872(s9) # 1750 <.LBB103_4+0x510>
     5f8:	080ccc93          	xori	s9,s9,128
     5fc:	019c0d23          	sb	s9,26(s8)
     600:	00001cb7          	lui	s9,0x1
     604:	41940cb3          	sub	s9,s0,s9
     608:	748cbc83          	ld	s9,1864(s9) # 1748 <.LBB103_4+0x508>
     60c:	080ccc93          	xori	s9,s9,128
     610:	019c0da3          	sb	s9,27(s8)
     614:	00001cb7          	lui	s9,0x1
     618:	41940cb3          	sub	s9,s0,s9
     61c:	740cbc83          	ld	s9,1856(s9) # 1740 <.LBB103_4+0x500>
     620:	080ccc93          	xori	s9,s9,128
     624:	019c0e23          	sb	s9,28(s8)
     628:	00001cb7          	lui	s9,0x1
     62c:	41940cb3          	sub	s9,s0,s9
     630:	738cbc83          	ld	s9,1848(s9) # 1738 <.LBB103_4+0x4f8>
     634:	080ccc93          	xori	s9,s9,128
     638:	019c0ea3          	sb	s9,29(s8)
     63c:	00001cb7          	lui	s9,0x1
     640:	41940cb3          	sub	s9,s0,s9
     644:	730cbc83          	ld	s9,1840(s9) # 1730 <.LBB103_4+0x4f0>
     648:	080ccc93          	xori	s9,s9,128
     64c:	019c0f23          	sb	s9,30(s8)
     650:	00001cb7          	lui	s9,0x1
     654:	41940cb3          	sub	s9,s0,s9
     658:	728cbc83          	ld	s9,1832(s9) # 1728 <.LBB103_4+0x4e8>
     65c:	080ccc93          	xori	s9,s9,128
     660:	019c0fa3          	sb	s9,31(s8)
     664:	00001c37          	lui	s8,0x1
     668:	41840c33          	sub	s8,s0,s8
     66c:	720c3c03          	ld	s8,1824(s8) # 1720 <.LBB103_4+0x4e0>
     670:	080c4c93          	xori	s9,s8,128
     674:	00001c37          	lui	s8,0x1
     678:	41840c33          	sub	s8,s0,s8
     67c:	d50c3c03          	ld	s8,-688(s8) # d50 <.LBB103_3+0xa7c>
     680:	01ac0c33          	add	s8,s8,s10
     684:	019c01a3          	sb	s9,3(s8)
     688:	00001cb7          	lui	s9,0x1
     68c:	41940cb3          	sub	s9,s0,s9
     690:	718cbc83          	ld	s9,1816(s9) # 1718 <.LBB103_4+0x4d8>
     694:	080ccc93          	xori	s9,s9,128
     698:	019c0123          	sb	s9,2(s8)
     69c:	00001cb7          	lui	s9,0x1
     6a0:	41940cb3          	sub	s9,s0,s9
     6a4:	710cbc83          	ld	s9,1808(s9) # 1710 <.LBB103_4+0x4d0>
     6a8:	080ccc93          	xori	s9,s9,128
     6ac:	019c00a3          	sb	s9,1(s8)
     6b0:	00001cb7          	lui	s9,0x1
     6b4:	41940cb3          	sub	s9,s0,s9
     6b8:	708cbc83          	ld	s9,1800(s9) # 1708 <.LBB103_4+0x4c8>
     6bc:	080ccc93          	xori	s9,s9,128
     6c0:	019c0023          	sb	s9,0(s8)
     6c4:	00001cb7          	lui	s9,0x1
     6c8:	41940cb3          	sub	s9,s0,s9
     6cc:	700cbc83          	ld	s9,1792(s9) # 1700 <.LBB103_4+0x4c0>
     6d0:	080ccc93          	xori	s9,s9,128
     6d4:	019c0223          	sb	s9,4(s8)
     6d8:	00001cb7          	lui	s9,0x1
     6dc:	41940cb3          	sub	s9,s0,s9
     6e0:	6f8cbc83          	ld	s9,1784(s9) # 16f8 <.LBB103_4+0x4b8>
     6e4:	080ccc93          	xori	s9,s9,128
     6e8:	019c02a3          	sb	s9,5(s8)
     6ec:	00001cb7          	lui	s9,0x1
     6f0:	41940cb3          	sub	s9,s0,s9
     6f4:	6f0cbc83          	ld	s9,1776(s9) # 16f0 <.LBB103_4+0x4b0>
     6f8:	080ccc93          	xori	s9,s9,128
     6fc:	019c0323          	sb	s9,6(s8)
     700:	00001cb7          	lui	s9,0x1
     704:	41940cb3          	sub	s9,s0,s9
     708:	6d8cbc83          	ld	s9,1752(s9) # 16d8 <.LBB103_4+0x498>
     70c:	080ccc93          	xori	s9,s9,128
     710:	019c03a3          	sb	s9,7(s8)
     714:	00001cb7          	lui	s9,0x1
     718:	41940cb3          	sub	s9,s0,s9
     71c:	6d0cbc83          	ld	s9,1744(s9) # 16d0 <.LBB103_4+0x490>
     720:	080ccc93          	xori	s9,s9,128
     724:	019c0423          	sb	s9,8(s8)
     728:	00001cb7          	lui	s9,0x1
     72c:	41940cb3          	sub	s9,s0,s9
     730:	6c8cbc83          	ld	s9,1736(s9) # 16c8 <.LBB103_4+0x488>
     734:	080ccc93          	xori	s9,s9,128
     738:	019c04a3          	sb	s9,9(s8)
     73c:	00001cb7          	lui	s9,0x1
     740:	41940cb3          	sub	s9,s0,s9
     744:	6c0cbc83          	ld	s9,1728(s9) # 16c0 <.LBB103_4+0x480>
     748:	080ccc93          	xori	s9,s9,128
     74c:	019c0523          	sb	s9,10(s8)
     750:	00001cb7          	lui	s9,0x1
     754:	41940cb3          	sub	s9,s0,s9
     758:	6b8cbc83          	ld	s9,1720(s9) # 16b8 <.LBB103_4+0x478>
     75c:	080ccc93          	xori	s9,s9,128
     760:	019c05a3          	sb	s9,11(s8)
     764:	00001cb7          	lui	s9,0x1
     768:	41940cb3          	sub	s9,s0,s9
     76c:	6b0cbc83          	ld	s9,1712(s9) # 16b0 <.LBB103_4+0x470>
     770:	080ccc93          	xori	s9,s9,128
     774:	019c0623          	sb	s9,12(s8)
     778:	00001cb7          	lui	s9,0x1
     77c:	41940cb3          	sub	s9,s0,s9
     780:	6a8cbc83          	ld	s9,1704(s9) # 16a8 <.LBB103_4+0x468>
     784:	080ccc93          	xori	s9,s9,128
     788:	019c06a3          	sb	s9,13(s8)
     78c:	00001cb7          	lui	s9,0x1
     790:	41940cb3          	sub	s9,s0,s9
     794:	6a0cbc83          	ld	s9,1696(s9) # 16a0 <.LBB103_4+0x460>
     798:	080ccc93          	xori	s9,s9,128
     79c:	019c0723          	sb	s9,14(s8)
     7a0:	00001cb7          	lui	s9,0x1
     7a4:	41940cb3          	sub	s9,s0,s9
     7a8:	698cbc83          	ld	s9,1688(s9) # 1698 <.LBB103_4+0x458>
     7ac:	080ccc93          	xori	s9,s9,128
     7b0:	019c07a3          	sb	s9,15(s8)
     7b4:	00001cb7          	lui	s9,0x1
     7b8:	41940cb3          	sub	s9,s0,s9
     7bc:	690cbc83          	ld	s9,1680(s9) # 1690 <.LBB103_4+0x450>
     7c0:	080ccc93          	xori	s9,s9,128
     7c4:	019c0823          	sb	s9,16(s8)
     7c8:	00001cb7          	lui	s9,0x1
     7cc:	41940cb3          	sub	s9,s0,s9
     7d0:	298cbc83          	ld	s9,664(s9) # 1298 <.LBB103_4+0x58>
     7d4:	080ccc93          	xori	s9,s9,128
     7d8:	019c08a3          	sb	s9,17(s8)
     7dc:	00001cb7          	lui	s9,0x1
     7e0:	41940cb3          	sub	s9,s0,s9
     7e4:	2a8cbc83          	ld	s9,680(s9) # 12a8 <.LBB103_4+0x68>
     7e8:	080ccc93          	xori	s9,s9,128
     7ec:	019c0923          	sb	s9,18(s8)
     7f0:	00001cb7          	lui	s9,0x1
     7f4:	41940cb3          	sub	s9,s0,s9
     7f8:	2b8cbc83          	ld	s9,696(s9) # 12b8 <.LBB103_4+0x78>
     7fc:	080ccc93          	xori	s9,s9,128
     800:	019c09a3          	sb	s9,19(s8)
     804:	00001cb7          	lui	s9,0x1
     808:	41940cb3          	sub	s9,s0,s9
     80c:	2c8cbc83          	ld	s9,712(s9) # 12c8 <.LBB103_4+0x88>
     810:	080ccc93          	xori	s9,s9,128
     814:	019c0a23          	sb	s9,20(s8)
     818:	00001cb7          	lui	s9,0x1
     81c:	41940cb3          	sub	s9,s0,s9
     820:	2d8cbc83          	ld	s9,728(s9) # 12d8 <.LBB103_4+0x98>
     824:	080ccc93          	xori	s9,s9,128
     828:	019c0aa3          	sb	s9,21(s8)
     82c:	00001cb7          	lui	s9,0x1
     830:	41940cb3          	sub	s9,s0,s9
     834:	2e8cbc83          	ld	s9,744(s9) # 12e8 <.LBB103_4+0xa8>
     838:	080ccc93          	xori	s9,s9,128
     83c:	019c0b23          	sb	s9,22(s8)
     840:	00001cb7          	lui	s9,0x1
     844:	41940cb3          	sub	s9,s0,s9
     848:	2f8cbc83          	ld	s9,760(s9) # 12f8 <.LBB103_4+0xb8>
     84c:	080ccc93          	xori	s9,s9,128
     850:	019c0ba3          	sb	s9,23(s8)
     854:	00001cb7          	lui	s9,0x1
     858:	41940cb3          	sub	s9,s0,s9
     85c:	308cbc83          	ld	s9,776(s9) # 1308 <.LBB103_4+0xc8>
     860:	080ccc93          	xori	s9,s9,128
     864:	019c0c23          	sb	s9,24(s8)
     868:	00001cb7          	lui	s9,0x1
     86c:	41940cb3          	sub	s9,s0,s9
     870:	318cbc83          	ld	s9,792(s9) # 1318 <.LBB103_4+0xd8>
     874:	080ccc93          	xori	s9,s9,128
     878:	019c0ca3          	sb	s9,25(s8)
     87c:	00001cb7          	lui	s9,0x1
     880:	41940cb3          	sub	s9,s0,s9
     884:	328cbc83          	ld	s9,808(s9) # 1328 <.LBB103_4+0xe8>
     888:	080ccc93          	xori	s9,s9,128
     88c:	019c0d23          	sb	s9,26(s8)
     890:	00001cb7          	lui	s9,0x1
     894:	41940cb3          	sub	s9,s0,s9
     898:	338cbc83          	ld	s9,824(s9) # 1338 <.LBB103_4+0xf8>
     89c:	080ccc93          	xori	s9,s9,128
     8a0:	019c0da3          	sb	s9,27(s8)
     8a4:	00001cb7          	lui	s9,0x1
     8a8:	41940cb3          	sub	s9,s0,s9
     8ac:	348cbc83          	ld	s9,840(s9) # 1348 <.LBB103_4+0x108>
     8b0:	080ccc93          	xori	s9,s9,128
     8b4:	019c0e23          	sb	s9,28(s8)
     8b8:	00001cb7          	lui	s9,0x1
     8bc:	41940cb3          	sub	s9,s0,s9
     8c0:	358cbc83          	ld	s9,856(s9) # 1358 <.LBB103_4+0x118>
     8c4:	080ccc93          	xori	s9,s9,128
     8c8:	019c0ea3          	sb	s9,29(s8)
     8cc:	00001cb7          	lui	s9,0x1
     8d0:	41940cb3          	sub	s9,s0,s9
     8d4:	368cbc83          	ld	s9,872(s9) # 1368 <.LBB103_4+0x128>
     8d8:	080ccc93          	xori	s9,s9,128
     8dc:	019c0f23          	sb	s9,30(s8)
     8e0:	00001cb7          	lui	s9,0x1
     8e4:	41940cb3          	sub	s9,s0,s9
     8e8:	380cbc83          	ld	s9,896(s9) # 1380 <.LBB103_4+0x140>
     8ec:	080ccc93          	xori	s9,s9,128
     8f0:	019c0fa3          	sb	s9,31(s8)
     8f4:	00001c37          	lui	s8,0x1
     8f8:	41840c33          	sub	s8,s0,s8
     8fc:	388c3c03          	ld	s8,904(s8) # 1388 <.LBB103_4+0x148>
     900:	080c4c93          	xori	s9,s8,128
     904:	00001c37          	lui	s8,0x1
     908:	41840c33          	sub	s8,s0,s8
     90c:	d48c3c03          	ld	s8,-696(s8) # d48 <.LBB103_3+0xa74>
     910:	01ac0c33          	add	s8,s8,s10
     914:	019c01a3          	sb	s9,3(s8)
     918:	00001cb7          	lui	s9,0x1
     91c:	41940cb3          	sub	s9,s0,s9
     920:	398cbc83          	ld	s9,920(s9) # 1398 <.LBB103_4+0x158>
     924:	080ccc93          	xori	s9,s9,128
     928:	019c0123          	sb	s9,2(s8)
     92c:	00001cb7          	lui	s9,0x1
     930:	41940cb3          	sub	s9,s0,s9
     934:	3a8cbc83          	ld	s9,936(s9) # 13a8 <.LBB103_4+0x168>
     938:	080ccc93          	xori	s9,s9,128
     93c:	019c00a3          	sb	s9,1(s8)
     940:	00001cb7          	lui	s9,0x1
     944:	41940cb3          	sub	s9,s0,s9
     948:	3b8cbc83          	ld	s9,952(s9) # 13b8 <.LBB103_4+0x178>
     94c:	080ccc93          	xori	s9,s9,128
     950:	019c0023          	sb	s9,0(s8)
     954:	00001cb7          	lui	s9,0x1
     958:	41940cb3          	sub	s9,s0,s9
     95c:	3c8cbc83          	ld	s9,968(s9) # 13c8 <.LBB103_4+0x188>
     960:	080ccc93          	xori	s9,s9,128
     964:	019c0223          	sb	s9,4(s8)
     968:	00001cb7          	lui	s9,0x1
     96c:	41940cb3          	sub	s9,s0,s9
     970:	3d8cbc83          	ld	s9,984(s9) # 13d8 <.LBB103_4+0x198>
     974:	080ccc93          	xori	s9,s9,128
     978:	019c02a3          	sb	s9,5(s8)
     97c:	00001cb7          	lui	s9,0x1
     980:	41940cb3          	sub	s9,s0,s9
     984:	3e8cbc83          	ld	s9,1000(s9) # 13e8 <.LBB103_4+0x1a8>
     988:	080ccc93          	xori	s9,s9,128
     98c:	019c0323          	sb	s9,6(s8)
     990:	00001cb7          	lui	s9,0x1
     994:	41940cb3          	sub	s9,s0,s9
     998:	3f8cbc83          	ld	s9,1016(s9) # 13f8 <.LBB103_4+0x1b8>
     99c:	080ccc93          	xori	s9,s9,128
     9a0:	019c03a3          	sb	s9,7(s8)
     9a4:	00001cb7          	lui	s9,0x1
     9a8:	41940cb3          	sub	s9,s0,s9
     9ac:	408cbc83          	ld	s9,1032(s9) # 1408 <.LBB103_4+0x1c8>
     9b0:	080ccc93          	xori	s9,s9,128
     9b4:	019c0423          	sb	s9,8(s8)
     9b8:	00001cb7          	lui	s9,0x1
     9bc:	41940cb3          	sub	s9,s0,s9
     9c0:	418cbc83          	ld	s9,1048(s9) # 1418 <.LBB103_4+0x1d8>
     9c4:	080ccc93          	xori	s9,s9,128
     9c8:	019c04a3          	sb	s9,9(s8)
     9cc:	00001cb7          	lui	s9,0x1
     9d0:	41940cb3          	sub	s9,s0,s9
     9d4:	428cbc83          	ld	s9,1064(s9) # 1428 <.LBB103_4+0x1e8>
     9d8:	080ccc93          	xori	s9,s9,128
     9dc:	019c0523          	sb	s9,10(s8)
     9e0:	00001cb7          	lui	s9,0x1
     9e4:	41940cb3          	sub	s9,s0,s9
     9e8:	438cbc83          	ld	s9,1080(s9) # 1438 <.LBB103_4+0x1f8>
     9ec:	080ccc93          	xori	s9,s9,128
     9f0:	019c05a3          	sb	s9,11(s8)
     9f4:	00001cb7          	lui	s9,0x1
     9f8:	41940cb3          	sub	s9,s0,s9
     9fc:	448cbc83          	ld	s9,1096(s9) # 1448 <.LBB103_4+0x208>
     a00:	080ccc93          	xori	s9,s9,128
     a04:	019c0623          	sb	s9,12(s8)
     a08:	00001cb7          	lui	s9,0x1
     a0c:	41940cb3          	sub	s9,s0,s9
     a10:	458cbc83          	ld	s9,1112(s9) # 1458 <.LBB103_4+0x218>
     a14:	080ccc93          	xori	s9,s9,128
     a18:	019c06a3          	sb	s9,13(s8)
     a1c:	00001cb7          	lui	s9,0x1
     a20:	41940cb3          	sub	s9,s0,s9
     a24:	468cbc83          	ld	s9,1128(s9) # 1468 <.LBB103_4+0x228>
     a28:	080ccc93          	xori	s9,s9,128
     a2c:	019c0723          	sb	s9,14(s8)
     a30:	00001cb7          	lui	s9,0x1
     a34:	41940cb3          	sub	s9,s0,s9
     a38:	478cbc83          	ld	s9,1144(s9) # 1478 <.LBB103_4+0x238>
     a3c:	080ccc93          	xori	s9,s9,128
     a40:	019c07a3          	sb	s9,15(s8)
     a44:	00001cb7          	lui	s9,0x1
     a48:	41940cb3          	sub	s9,s0,s9
     a4c:	488cbc83          	ld	s9,1160(s9) # 1488 <.LBB103_4+0x248>
     a50:	080ccc93          	xori	s9,s9,128
     a54:	019c0823          	sb	s9,16(s8)
     a58:	00001cb7          	lui	s9,0x1
     a5c:	41940cb3          	sub	s9,s0,s9
     a60:	498cbc83          	ld	s9,1176(s9) # 1498 <.LBB103_4+0x258>
     a64:	080ccc93          	xori	s9,s9,128
     a68:	019c08a3          	sb	s9,17(s8)
     a6c:	00001cb7          	lui	s9,0x1
     a70:	41940cb3          	sub	s9,s0,s9
     a74:	4a8cbc83          	ld	s9,1192(s9) # 14a8 <.LBB103_4+0x268>
     a78:	080ccc93          	xori	s9,s9,128
     a7c:	019c0923          	sb	s9,18(s8)
     a80:	00001cb7          	lui	s9,0x1
     a84:	41940cb3          	sub	s9,s0,s9
     a88:	4b8cbc83          	ld	s9,1208(s9) # 14b8 <.LBB103_4+0x278>
     a8c:	080ccc93          	xori	s9,s9,128
     a90:	019c09a3          	sb	s9,19(s8)
     a94:	00001cb7          	lui	s9,0x1
     a98:	41940cb3          	sub	s9,s0,s9
     a9c:	4c8cbc83          	ld	s9,1224(s9) # 14c8 <.LBB103_4+0x288>
     aa0:	080ccc93          	xori	s9,s9,128
     aa4:	019c0a23          	sb	s9,20(s8)
     aa8:	00001cb7          	lui	s9,0x1
     aac:	41940cb3          	sub	s9,s0,s9
     ab0:	4d8cbc83          	ld	s9,1240(s9) # 14d8 <.LBB103_4+0x298>
     ab4:	080ccc93          	xori	s9,s9,128
     ab8:	019c0aa3          	sb	s9,21(s8)
     abc:	00001cb7          	lui	s9,0x1
     ac0:	41940cb3          	sub	s9,s0,s9
     ac4:	4e8cbc83          	ld	s9,1256(s9) # 14e8 <.LBB103_4+0x2a8>
     ac8:	080ccc93          	xori	s9,s9,128
     acc:	019c0b23          	sb	s9,22(s8)
     ad0:	00001cb7          	lui	s9,0x1
     ad4:	41940cb3          	sub	s9,s0,s9
     ad8:	4f8cbc83          	ld	s9,1272(s9) # 14f8 <.LBB103_4+0x2b8>
     adc:	080ccc93          	xori	s9,s9,128
     ae0:	019c0ba3          	sb	s9,23(s8)
     ae4:	00001cb7          	lui	s9,0x1
     ae8:	41940cb3          	sub	s9,s0,s9
     aec:	508cbc83          	ld	s9,1288(s9) # 1508 <.LBB103_4+0x2c8>
     af0:	080ccc93          	xori	s9,s9,128
     af4:	019c0c23          	sb	s9,24(s8)
     af8:	00001cb7          	lui	s9,0x1
     afc:	41940cb3          	sub	s9,s0,s9
     b00:	518cbc83          	ld	s9,1304(s9) # 1518 <.LBB103_4+0x2d8>
     b04:	080ccc93          	xori	s9,s9,128
     b08:	019c0ca3          	sb	s9,25(s8)
     b0c:	00001cb7          	lui	s9,0x1
     b10:	41940cb3          	sub	s9,s0,s9
     b14:	528cbc83          	ld	s9,1320(s9) # 1528 <.LBB103_4+0x2e8>
     b18:	080ccc93          	xori	s9,s9,128
     b1c:	019c0d23          	sb	s9,26(s8)
     b20:	00001cb7          	lui	s9,0x1
     b24:	41940cb3          	sub	s9,s0,s9
     b28:	538cbc83          	ld	s9,1336(s9) # 1538 <.LBB103_4+0x2f8>
     b2c:	080ccc93          	xori	s9,s9,128
     b30:	019c0da3          	sb	s9,27(s8)
     b34:	00001cb7          	lui	s9,0x1
     b38:	41940cb3          	sub	s9,s0,s9
     b3c:	548cbc83          	ld	s9,1352(s9) # 1548 <.LBB103_4+0x308>
     b40:	080ccc93          	xori	s9,s9,128
     b44:	019c0e23          	sb	s9,28(s8)
     b48:	00001cb7          	lui	s9,0x1
     b4c:	41940cb3          	sub	s9,s0,s9
     b50:	558cbc83          	ld	s9,1368(s9) # 1558 <.LBB103_4+0x318>
     b54:	080ccc93          	xori	s9,s9,128
     b58:	019c0ea3          	sb	s9,29(s8)
     b5c:	00001cb7          	lui	s9,0x1
     b60:	41940cb3          	sub	s9,s0,s9
     b64:	568cbc83          	ld	s9,1384(s9) # 1568 <.LBB103_4+0x328>
     b68:	080ccc93          	xori	s9,s9,128
     b6c:	019c0f23          	sb	s9,30(s8)
     b70:	00001cb7          	lui	s9,0x1
     b74:	41940cb3          	sub	s9,s0,s9
     b78:	580cbc83          	ld	s9,1408(s9) # 1580 <.LBB103_4+0x340>
     b7c:	080ccc93          	xori	s9,s9,128
     b80:	019c0fa3          	sb	s9,31(s8)
     b84:	00001c37          	lui	s8,0x1
     b88:	41840c33          	sub	s8,s0,s8
     b8c:	588c3c03          	ld	s8,1416(s8) # 1588 <.LBB103_4+0x348>
     b90:	080c4c93          	xori	s9,s8,128
     b94:	00001c37          	lui	s8,0x1
     b98:	41840c33          	sub	s8,s0,s8
     b9c:	d40c3c03          	ld	s8,-704(s8) # d40 <.LBB103_3+0xa6c>
     ba0:	01ac0c33          	add	s8,s8,s10
     ba4:	019c01a3          	sb	s9,3(s8)
     ba8:	00001cb7          	lui	s9,0x1
     bac:	41940cb3          	sub	s9,s0,s9
     bb0:	598cbc83          	ld	s9,1432(s9) # 1598 <.LBB103_4+0x358>
     bb4:	080ccc93          	xori	s9,s9,128
     bb8:	019c0123          	sb	s9,2(s8)
     bbc:	00001cb7          	lui	s9,0x1
     bc0:	41940cb3          	sub	s9,s0,s9
     bc4:	5a8cbc83          	ld	s9,1448(s9) # 15a8 <.LBB103_4+0x368>
     bc8:	080ccc93          	xori	s9,s9,128
     bcc:	019c00a3          	sb	s9,1(s8)
     bd0:	00001cb7          	lui	s9,0x1
     bd4:	41940cb3          	sub	s9,s0,s9
     bd8:	5b8cbc83          	ld	s9,1464(s9) # 15b8 <.LBB103_4+0x378>
     bdc:	080ccc93          	xori	s9,s9,128
     be0:	019c0023          	sb	s9,0(s8)
     be4:	00001cb7          	lui	s9,0x1
     be8:	41940cb3          	sub	s9,s0,s9
     bec:	5c8cbc83          	ld	s9,1480(s9) # 15c8 <.LBB103_4+0x388>
     bf0:	080ccc93          	xori	s9,s9,128
     bf4:	019c0223          	sb	s9,4(s8)
     bf8:	00001cb7          	lui	s9,0x1
     bfc:	41940cb3          	sub	s9,s0,s9
     c00:	5d8cbc83          	ld	s9,1496(s9) # 15d8 <.LBB103_4+0x398>
     c04:	080ccc93          	xori	s9,s9,128
     c08:	019c02a3          	sb	s9,5(s8)
     c0c:	00001cb7          	lui	s9,0x1
     c10:	41940cb3          	sub	s9,s0,s9
     c14:	5e8cbc83          	ld	s9,1512(s9) # 15e8 <.LBB103_4+0x3a8>
     c18:	080ccc93          	xori	s9,s9,128
     c1c:	019c0323          	sb	s9,6(s8)
     c20:	00001cb7          	lui	s9,0x1
     c24:	41940cb3          	sub	s9,s0,s9
     c28:	5f8cbc83          	ld	s9,1528(s9) # 15f8 <.LBB103_4+0x3b8>
     c2c:	080ccc93          	xori	s9,s9,128
     c30:	019c03a3          	sb	s9,7(s8)
     c34:	00001cb7          	lui	s9,0x1
     c38:	41940cb3          	sub	s9,s0,s9
     c3c:	608cbc83          	ld	s9,1544(s9) # 1608 <.LBB103_4+0x3c8>
     c40:	080ccc93          	xori	s9,s9,128
     c44:	019c0423          	sb	s9,8(s8)
     c48:	00001cb7          	lui	s9,0x1
     c4c:	41940cb3          	sub	s9,s0,s9
     c50:	618cbc83          	ld	s9,1560(s9) # 1618 <.LBB103_4+0x3d8>
     c54:	080ccc93          	xori	s9,s9,128
     c58:	019c04a3          	sb	s9,9(s8)
     c5c:	00001cb7          	lui	s9,0x1
     c60:	41940cb3          	sub	s9,s0,s9
     c64:	628cbc83          	ld	s9,1576(s9) # 1628 <.LBB103_4+0x3e8>
     c68:	080ccc93          	xori	s9,s9,128
     c6c:	019c0523          	sb	s9,10(s8)
     c70:	00001cb7          	lui	s9,0x1
     c74:	41940cb3          	sub	s9,s0,s9
     c78:	638cbc83          	ld	s9,1592(s9) # 1638 <.LBB103_4+0x3f8>
     c7c:	080ccc93          	xori	s9,s9,128
     c80:	019c05a3          	sb	s9,11(s8)
     c84:	00001cb7          	lui	s9,0x1
     c88:	41940cb3          	sub	s9,s0,s9
     c8c:	668cbc83          	ld	s9,1640(s9) # 1668 <.LBB103_4+0x428>
     c90:	080ccc93          	xori	s9,s9,128
     c94:	019c0623          	sb	s9,12(s8)
     c98:	00001cb7          	lui	s9,0x1
     c9c:	41940cb3          	sub	s9,s0,s9
     ca0:	678cbc83          	ld	s9,1656(s9) # 1678 <.LBB103_4+0x438>
     ca4:	080ccc93          	xori	s9,s9,128
     ca8:	019c06a3          	sb	s9,13(s8)
     cac:	00001cb7          	lui	s9,0x1
     cb0:	41940cb3          	sub	s9,s0,s9
     cb4:	688cbc83          	ld	s9,1672(s9) # 1688 <.LBB103_4+0x448>
     cb8:	080ccc93          	xori	s9,s9,128
     cbc:	019c0723          	sb	s9,14(s8)
     cc0:	00001cb7          	lui	s9,0x1
     cc4:	41940cb3          	sub	s9,s0,s9
     cc8:	6e8cbc83          	ld	s9,1768(s9) # 16e8 <.LBB103_4+0x4a8>
     ccc:	080ccc93          	xori	s9,s9,128
     cd0:	019c07a3          	sb	s9,15(s8)
     cd4:	00001cb7          	lui	s9,0x1
     cd8:	41940cb3          	sub	s9,s0,s9
     cdc:	788cbc83          	ld	s9,1928(s9) # 1788 <.LBB103_4+0x548>
     ce0:	080ccc93          	xori	s9,s9,128
     ce4:	019c0823          	sb	s9,16(s8)
     ce8:	00001cb7          	lui	s9,0x1
     cec:	41940cb3          	sub	s9,s0,s9
     cf0:	790cbc83          	ld	s9,1936(s9) # 1790 <.LBB103_4+0x550>
     cf4:	080ccc93          	xori	s9,s9,128
     cf8:	019c08a3          	sb	s9,17(s8)
     cfc:	b1043c83          	ld	s9,-1264(s0)
     d00:	080ccc93          	xori	s9,s9,128
     d04:	019c0923          	sb	s9,18(s8)
     d08:	00001cb7          	lui	s9,0x1
     d0c:	41940cb3          	sub	s9,s0,s9
     d10:	7b0cbc83          	ld	s9,1968(s9) # 17b0 <.LBB103_4+0x570>
     d14:	080ccc93          	xori	s9,s9,128
     d18:	019c09a3          	sb	s9,19(s8)
     d1c:	00001cb7          	lui	s9,0x1
     d20:	41940cb3          	sub	s9,s0,s9
     d24:	7c0cbc83          	ld	s9,1984(s9) # 17c0 <.LBB103_4+0x580>
     d28:	080ccc93          	xori	s9,s9,128
     d2c:	019c0a23          	sb	s9,20(s8)
     d30:	00001cb7          	lui	s9,0x1
     d34:	41940cb3          	sub	s9,s0,s9
     d38:	7d0cbc83          	ld	s9,2000(s9) # 17d0 <.LBB103_4+0x590>
     d3c:	080ccc93          	xori	s9,s9,128
     d40:	019c0aa3          	sb	s9,21(s8)
     d44:	00001cb7          	lui	s9,0x1
     d48:	41940cb3          	sub	s9,s0,s9
     d4c:	7e0cbc83          	ld	s9,2016(s9) # 17e0 <.LBB103_4+0x5a0>
     d50:	080ccc93          	xori	s9,s9,128
     d54:	019c0b23          	sb	s9,22(s8)
     d58:	00001cb7          	lui	s9,0x1
     d5c:	41940cb3          	sub	s9,s0,s9
     d60:	7f8cbc83          	ld	s9,2040(s9) # 17f8 <.LBB103_4+0x5b8>
     d64:	080ccc93          	xori	s9,s9,128
     d68:	019c0ba3          	sb	s9,23(s8)
     d6c:	80843c83          	ld	s9,-2040(s0)
     d70:	080ccc93          	xori	s9,s9,128
     d74:	019c0c23          	sb	s9,24(s8)
     d78:	81843c83          	ld	s9,-2024(s0)
     d7c:	080ccc93          	xori	s9,s9,128
     d80:	019c0ca3          	sb	s9,25(s8)
     d84:	82843c83          	ld	s9,-2008(s0)
     d88:	080ccc93          	xori	s9,s9,128
     d8c:	019c0d23          	sb	s9,26(s8)
     d90:	84043c83          	ld	s9,-1984(s0)
     d94:	080ccc93          	xori	s9,s9,128
     d98:	019c0da3          	sb	s9,27(s8)
     d9c:	85043c83          	ld	s9,-1968(s0)
     da0:	080ccc93          	xori	s9,s9,128
     da4:	019c0e23          	sb	s9,28(s8)
     da8:	86043c83          	ld	s9,-1952(s0)
     dac:	080ccc93          	xori	s9,s9,128
     db0:	019c0ea3          	sb	s9,29(s8)
     db4:	87843c83          	ld	s9,-1928(s0)
     db8:	080ccc93          	xori	s9,s9,128
     dbc:	019c0f23          	sb	s9,30(s8)
     dc0:	88843c83          	ld	s9,-1912(s0)
     dc4:	080ccc93          	xori	s9,s9,128
     dc8:	019c0fa3          	sb	s9,31(s8)
     dcc:	89043c03          	ld	s8,-1904(s0)
     dd0:	080c4c93          	xori	s9,s8,128
     dd4:	00001c37          	lui	s8,0x1
     dd8:	41840c33          	sub	s8,s0,s8
     ddc:	d38c3c03          	ld	s8,-712(s8) # d38 <.LBB103_3+0xa64>
     de0:	01ac0c33          	add	s8,s8,s10
     de4:	019c01a3          	sb	s9,3(s8)
     de8:	8a043c83          	ld	s9,-1888(s0)
     dec:	080ccc93          	xori	s9,s9,128
     df0:	019c0123          	sb	s9,2(s8)
     df4:	8b043c83          	ld	s9,-1872(s0)
     df8:	080ccc93          	xori	s9,s9,128
     dfc:	019c00a3          	sb	s9,1(s8)
     e00:	8c843c83          	ld	s9,-1848(s0)
     e04:	080ccc93          	xori	s9,s9,128
     e08:	019c0023          	sb	s9,0(s8)
     e0c:	8d843c83          	ld	s9,-1832(s0)
     e10:	080ccc93          	xori	s9,s9,128
     e14:	019c0223          	sb	s9,4(s8)
     e18:	8e843c83          	ld	s9,-1816(s0)
     e1c:	080ccc93          	xori	s9,s9,128
     e20:	019c02a3          	sb	s9,5(s8)
     e24:	90043c83          	ld	s9,-1792(s0)
     e28:	080ccc93          	xori	s9,s9,128
     e2c:	019c0323          	sb	s9,6(s8)
     e30:	91043c83          	ld	s9,-1776(s0)
     e34:	080ccc93          	xori	s9,s9,128
     e38:	019c03a3          	sb	s9,7(s8)
     e3c:	92043c83          	ld	s9,-1760(s0)
     e40:	080ccc93          	xori	s9,s9,128
     e44:	019c0423          	sb	s9,8(s8)
     e48:	bc843c83          	ld	s9,-1080(s0)
     e4c:	080ccc93          	xori	s9,s9,128
     e50:	019c04a3          	sb	s9,9(s8)
     e54:	94043c83          	ld	s9,-1728(s0)
     e58:	080ccc93          	xori	s9,s9,128
     e5c:	019c0523          	sb	s9,10(s8)
     e60:	95043c83          	ld	s9,-1712(s0)
     e64:	080ccc93          	xori	s9,s9,128
     e68:	019c05a3          	sb	s9,11(s8)
     e6c:	96043c83          	ld	s9,-1696(s0)
     e70:	080ccc93          	xori	s9,s9,128
     e74:	019c0623          	sb	s9,12(s8)
     e78:	97043c83          	ld	s9,-1680(s0)
     e7c:	080ccc93          	xori	s9,s9,128
     e80:	019c06a3          	sb	s9,13(s8)
     e84:	98843c83          	ld	s9,-1656(s0)
     e88:	080ccc93          	xori	s9,s9,128
     e8c:	019c0723          	sb	s9,14(s8)
     e90:	99843c83          	ld	s9,-1640(s0)
     e94:	080ccc93          	xori	s9,s9,128
     e98:	019c07a3          	sb	s9,15(s8)
     e9c:	9a843c83          	ld	s9,-1624(s0)
     ea0:	080ccc93          	xori	s9,s9,128
     ea4:	019c0823          	sb	s9,16(s8)
     ea8:	9c043c83          	ld	s9,-1600(s0)
     eac:	080ccc93          	xori	s9,s9,128
     eb0:	019c08a3          	sb	s9,17(s8)
     eb4:	9d043c83          	ld	s9,-1584(s0)
     eb8:	080ccc93          	xori	s9,s9,128
     ebc:	019c0923          	sb	s9,18(s8)
     ec0:	9e043c83          	ld	s9,-1568(s0)
     ec4:	080ccc93          	xori	s9,s9,128
     ec8:	019c09a3          	sb	s9,19(s8)
     ecc:	9f043c83          	ld	s9,-1552(s0)
     ed0:	080ccc93          	xori	s9,s9,128
     ed4:	019c0a23          	sb	s9,20(s8)
     ed8:	a0843c83          	ld	s9,-1528(s0)
     edc:	080ccc93          	xori	s9,s9,128
     ee0:	019c0aa3          	sb	s9,21(s8)
     ee4:	a1843c83          	ld	s9,-1512(s0)
     ee8:	080ccc93          	xori	s9,s9,128
     eec:	019c0b23          	sb	s9,22(s8)
     ef0:	a2843c83          	ld	s9,-1496(s0)
     ef4:	080ccc93          	xori	s9,s9,128
     ef8:	019c0ba3          	sb	s9,23(s8)
     efc:	a3843c83          	ld	s9,-1480(s0)
     f00:	080ccc93          	xori	s9,s9,128
     f04:	019c0c23          	sb	s9,24(s8)
     f08:	a5043c83          	ld	s9,-1456(s0)
     f0c:	080ccc93          	xori	s9,s9,128
     f10:	019c0ca3          	sb	s9,25(s8)
     f14:	a6043c83          	ld	s9,-1440(s0)
     f18:	080ccc93          	xori	s9,s9,128
     f1c:	019c0d23          	sb	s9,26(s8)
     f20:	a7043c83          	ld	s9,-1424(s0)
     f24:	080ccc93          	xori	s9,s9,128
     f28:	019c0da3          	sb	s9,27(s8)
     f2c:	a8843c83          	ld	s9,-1400(s0)
     f30:	080ccc93          	xori	s9,s9,128
     f34:	019c0e23          	sb	s9,28(s8)
     f38:	a9843c83          	ld	s9,-1384(s0)
     f3c:	080ccc93          	xori	s9,s9,128
     f40:	019c0ea3          	sb	s9,29(s8)
     f44:	aa843c83          	ld	s9,-1368(s0)
     f48:	080ccc93          	xori	s9,s9,128
     f4c:	019c0f23          	sb	s9,30(s8)
     f50:	ac043c83          	ld	s9,-1344(s0)
     f54:	080ccc93          	xori	s9,s9,128
     f58:	019c0fa3          	sb	s9,31(s8)
     f5c:	ac843c03          	ld	s8,-1336(s0)
     f60:	080c4c93          	xori	s9,s8,128
     f64:	00001c37          	lui	s8,0x1
     f68:	41840c33          	sub	s8,s0,s8
     f6c:	d30c3c03          	ld	s8,-720(s8) # d30 <.LBB103_3+0xa5c>
     f70:	01ac0c33          	add	s8,s8,s10
     f74:	019c01a3          	sb	s9,3(s8)
     f78:	ae043c83          	ld	s9,-1312(s0)
     f7c:	080ccc93          	xori	s9,s9,128
     f80:	019c0123          	sb	s9,2(s8)
     f84:	af043c83          	ld	s9,-1296(s0)
     f88:	080ccc93          	xori	s9,s9,128
     f8c:	019c00a3          	sb	s9,1(s8)
     f90:	b0043c83          	ld	s9,-1280(s0)
     f94:	080ccc93          	xori	s9,s9,128
     f98:	019c0023          	sb	s9,0(s8)
     f9c:	b2043c83          	ld	s9,-1248(s0)
     fa0:	080ccc93          	xori	s9,s9,128
     fa4:	019c0223          	sb	s9,4(s8)
     fa8:	b3043c83          	ld	s9,-1232(s0)
     fac:	080ccc93          	xori	s9,s9,128
     fb0:	019c02a3          	sb	s9,5(s8)
     fb4:	b4043c83          	ld	s9,-1216(s0)
     fb8:	080ccc93          	xori	s9,s9,128
     fbc:	019c0323          	sb	s9,6(s8)
     fc0:	b5043c83          	ld	s9,-1200(s0)
     fc4:	080ccc93          	xori	s9,s9,128
     fc8:	019c03a3          	sb	s9,7(s8)
     fcc:	b6843c83          	ld	s9,-1176(s0)
     fd0:	080ccc93          	xori	s9,s9,128
     fd4:	019c0423          	sb	s9,8(s8)
     fd8:	b7843c83          	ld	s9,-1160(s0)
     fdc:	080ccc93          	xori	s9,s9,128
     fe0:	019c04a3          	sb	s9,9(s8)
     fe4:	b8843c83          	ld	s9,-1144(s0)
     fe8:	080ccc93          	xori	s9,s9,128
     fec:	019c0523          	sb	s9,10(s8)
     ff0:	b9843c83          	ld	s9,-1128(s0)
     ff4:	080ccc93          	xori	s9,s9,128
     ff8:	019c05a3          	sb	s9,11(s8)
     ffc:	bb043c83          	ld	s9,-1104(s0)
    1000:	080ccc93          	xori	s9,s9,128
    1004:	019c0623          	sb	s9,12(s8)
    1008:	bc043c83          	ld	s9,-1088(s0)
    100c:	080ccc93          	xori	s9,s9,128
    1010:	019c06a3          	sb	s9,13(s8)
    1014:	bd843c83          	ld	s9,-1064(s0)
    1018:	080ccc93          	xori	s9,s9,128
    101c:	019c0723          	sb	s9,14(s8)
    1020:	bf043c83          	ld	s9,-1040(s0)
    1024:	080ccc93          	xori	s9,s9,128
    1028:	019c07a3          	sb	s9,15(s8)
    102c:	c0043c83          	ld	s9,-1024(s0)
    1030:	080ccc93          	xori	s9,s9,128
    1034:	019c0823          	sb	s9,16(s8)
    1038:	c1043c83          	ld	s9,-1008(s0)
    103c:	080ccc93          	xori	s9,s9,128
    1040:	019c08a3          	sb	s9,17(s8)
    1044:	c2043c83          	ld	s9,-992(s0)
    1048:	080ccc93          	xori	s9,s9,128
    104c:	019c0923          	sb	s9,18(s8)
    1050:	c3843c83          	ld	s9,-968(s0)
    1054:	080ccc93          	xori	s9,s9,128
    1058:	019c09a3          	sb	s9,19(s8)
    105c:	c4843c83          	ld	s9,-952(s0)
    1060:	080ccc93          	xori	s9,s9,128
    1064:	019c0a23          	sb	s9,20(s8)
    1068:	c5843c83          	ld	s9,-936(s0)
    106c:	080ccc93          	xori	s9,s9,128
    1070:	019c0aa3          	sb	s9,21(s8)
    1074:	c6843c83          	ld	s9,-920(s0)
    1078:	080ccc93          	xori	s9,s9,128
    107c:	019c0b23          	sb	s9,22(s8)
    1080:	c8043c83          	ld	s9,-896(s0)
    1084:	080ccc93          	xori	s9,s9,128
    1088:	019c0ba3          	sb	s9,23(s8)
    108c:	c9043c83          	ld	s9,-880(s0)
    1090:	080ccc93          	xori	s9,s9,128
    1094:	019c0c23          	sb	s9,24(s8)
    1098:	ca043c83          	ld	s9,-864(s0)
    109c:	080ccc93          	xori	s9,s9,128
    10a0:	019c0ca3          	sb	s9,25(s8)
    10a4:	cb043c83          	ld	s9,-848(s0)
    10a8:	080ccc93          	xori	s9,s9,128
    10ac:	019c0d23          	sb	s9,26(s8)
    10b0:	cc043c83          	ld	s9,-832(s0)
    10b4:	080ccc93          	xori	s9,s9,128
    10b8:	019c0da3          	sb	s9,27(s8)
    10bc:	cd043c83          	ld	s9,-816(s0)
    10c0:	080ccc93          	xori	s9,s9,128
    10c4:	019c0e23          	sb	s9,28(s8)
    10c8:	ce043c83          	ld	s9,-800(s0)
    10cc:	080ccc93          	xori	s9,s9,128
    10d0:	019c0ea3          	sb	s9,29(s8)
    10d4:	cf043c83          	ld	s9,-784(s0)
    10d8:	080ccc93          	xori	s9,s9,128
    10dc:	019c0f23          	sb	s9,30(s8)
    10e0:	d0843c83          	ld	s9,-760(s0)
    10e4:	080ccc93          	xori	s9,s9,128
    10e8:	019c0fa3          	sb	s9,31(s8)
    10ec:	d1043c03          	ld	s8,-752(s0)
    10f0:	080c4c93          	xori	s9,s8,128
    10f4:	00001c37          	lui	s8,0x1
    10f8:	41840c33          	sub	s8,s0,s8
    10fc:	d28c3c03          	ld	s8,-728(s8) # d28 <.LBB103_3+0xa54>
    1100:	01ac0c33          	add	s8,s8,s10
    1104:	019c01a3          	sb	s9,3(s8)
    1108:	d2043c83          	ld	s9,-736(s0)
    110c:	080ccc93          	xori	s9,s9,128
    1110:	019c0123          	sb	s9,2(s8)
    1114:	d3043c83          	ld	s9,-720(s0)
    1118:	080ccc93          	xori	s9,s9,128
    111c:	019c00a3          	sb	s9,1(s8)
    1120:	d4043c83          	ld	s9,-704(s0)
    1124:	080ccc93          	xori	s9,s9,128
    1128:	019c0023          	sb	s9,0(s8)
    112c:	e8843c83          	ld	s9,-376(s0)
    1130:	080ccc93          	xori	s9,s9,128
    1134:	019c0223          	sb	s9,4(s8)
    1138:	d5843c83          	ld	s9,-680(s0)
    113c:	080ccc93          	xori	s9,s9,128
    1140:	019c02a3          	sb	s9,5(s8)
    1144:	d6843c83          	ld	s9,-664(s0)
    1148:	080ccc93          	xori	s9,s9,128
    114c:	019c0323          	sb	s9,6(s8)
    1150:	d7843c83          	ld	s9,-648(s0)
    1154:	080ccc93          	xori	s9,s9,128
    1158:	019c03a3          	sb	s9,7(s8)
    115c:	d8043c83          	ld	s9,-640(s0)
    1160:	080ccc93          	xori	s9,s9,128
    1164:	019c0423          	sb	s9,8(s8)
    1168:	080dcc93          	xori	s9,s11,128
    116c:	019c04a3          	sb	s9,9(s8)
    1170:	08054513          	xori	a0,a0,128
    1174:	00ac0523          	sb	a0,10(s8)
    1178:	0805c513          	xori	a0,a1,128
    117c:	00ac05a3          	sb	a0,11(s8)
    1180:	08064513          	xori	a0,a2,128
    1184:	00ac0623          	sb	a0,12(s8)
    1188:	0806c513          	xori	a0,a3,128
    118c:	00ac06a3          	sb	a0,13(s8)
    1190:	08074513          	xori	a0,a4,128
    1194:	00ac0723          	sb	a0,14(s8)
    1198:	0807c513          	xori	a0,a5,128
    119c:	00ac07a3          	sb	a0,15(s8)
    11a0:	08084513          	xori	a0,a6,128
    11a4:	00ac0823          	sb	a0,16(s8)
    11a8:	0808c513          	xori	a0,a7,128
    11ac:	00ac08a3          	sb	a0,17(s8)
    11b0:	0802c513          	xori	a0,t0,128
    11b4:	00ac0923          	sb	a0,18(s8)
    11b8:	08034513          	xori	a0,t1,128
    11bc:	00ac09a3          	sb	a0,19(s8)
    11c0:	0803c513          	xori	a0,t2,128
    11c4:	00ac0a23          	sb	a0,20(s8)
    11c8:	080e4513          	xori	a0,t3,128
    11cc:	00ac0aa3          	sb	a0,21(s8)
    11d0:	080ec513          	xori	a0,t4,128
    11d4:	00ac0b23          	sb	a0,22(s8)
    11d8:	080f4513          	xori	a0,t5,128
    11dc:	00ac0ba3          	sb	a0,23(s8)
    11e0:	080fc513          	xori	a0,t6,128
    11e4:	00ac0c23          	sb	a0,24(s8)
    11e8:	0804c513          	xori	a0,s1,128
    11ec:	00ac0ca3          	sb	a0,25(s8)
    11f0:	08094513          	xori	a0,s2,128
    11f4:	00ac0d23          	sb	a0,26(s8)
    11f8:	0809c513          	xori	a0,s3,128
    11fc:	00ac0da3          	sb	a0,27(s8)
    1200:	080a4513          	xori	a0,s4,128
    1204:	00ac0e23          	sb	a0,28(s8)
    1208:	080ac513          	xori	a0,s5,128
    120c:	00ac0ea3          	sb	a0,29(s8)
    1210:	080b4513          	xori	a0,s6,128
    1214:	00ac0f23          	sb	a0,30(s8)
    1218:	080bc513          	xori	a0,s7,128
    121c:	00ac0fa3          	sb	a0,31(s8)
    1220:	020d0593          	addi	a1,s10,32
    1224:	00001537          	lui	a0,0x1
    1228:	40a40533          	sub	a0,s0,a0
    122c:	64853f83          	ld	t6,1608(a0) # 1648 <.LBB103_4+0x408>
    1230:	020f8f93          	addi	t6,t6,32
    1234:	4e000513          	li	a0,1248
    1238:	00ad6463          	bltu	s10,a0,1240 <.LBB103_4>
    123c:	f31fe06f          	j	16c <.LBB103_1>

0000000000001240 <.LBB103_4>:
    1240:	00001537          	lui	a0,0x1
    1244:	40a40533          	sub	a0,s0,a0
    1248:	66b53023          	sd	a1,1632(a0) # 1660 <.LBB103_4+0x420>
    124c:	000644b7          	lui	s1,0x64
    1250:	00001537          	lui	a0,0x1
    1254:	40a40533          	sub	a0,s0,a0
    1258:	d7853503          	ld	a0,-648(a0) # d78 <.LBB103_3+0xaa4>
    125c:	f8a43023          	sd	a0,-128(s0)
    1260:	00001537          	lui	a0,0x1
    1264:	40a40533          	sub	a0,s0,a0
    1268:	d8053983          	ld	s3,-640(a0) # d80 <.LBB103_3+0xaac>
    126c:	00001537          	lui	a0,0x1
    1270:	40a40533          	sub	a0,s0,a0
    1274:	65f53423          	sd	t6,1608(a0) # 1648 <.LBB103_4+0x408>
    1278:	000f8b13          	mv	s6,t6
    127c:	00001537          	lui	a0,0x1
    1280:	40a40533          	sub	a0,s0,a0
    1284:	6a053c23          	sd	zero,1720(a0) # 16b8 <.LBB103_4+0x478>
    1288:	00001537          	lui	a0,0x1
    128c:	40a40533          	sub	a0,s0,a0
    1290:	6a053823          	sd	zero,1712(a0) # 16b0 <.LBB103_4+0x470>
    1294:	00001537          	lui	a0,0x1
    1298:	40a40533          	sub	a0,s0,a0
    129c:	6a053423          	sd	zero,1704(a0) # 16a8 <.LBB103_4+0x468>
    12a0:	00001537          	lui	a0,0x1
    12a4:	40a40533          	sub	a0,s0,a0
    12a8:	6c053023          	sd	zero,1728(a0) # 16c0 <.LBB103_4+0x480>
    12ac:	00001537          	lui	a0,0x1
    12b0:	40a40533          	sub	a0,s0,a0
    12b4:	6a053023          	sd	zero,1696(a0) # 16a0 <.LBB103_4+0x460>
    12b8:	00001537          	lui	a0,0x1
    12bc:	40a40533          	sub	a0,s0,a0
    12c0:	68053c23          	sd	zero,1688(a0) # 1698 <.LBB103_4+0x458>
    12c4:	00001537          	lui	a0,0x1
    12c8:	40a40533          	sub	a0,s0,a0
    12cc:	68053823          	sd	zero,1680(a0) # 1690 <.LBB103_4+0x450>
    12d0:	00001537          	lui	a0,0x1
    12d4:	40a40533          	sub	a0,s0,a0
    12d8:	68053423          	sd	zero,1672(a0) # 1688 <.LBB103_4+0x448>
    12dc:	00001537          	lui	a0,0x1
    12e0:	40a40533          	sub	a0,s0,a0
    12e4:	68053023          	sd	zero,1664(a0) # 1680 <.LBB103_4+0x440>
    12e8:	00001537          	lui	a0,0x1
    12ec:	40a40533          	sub	a0,s0,a0
    12f0:	6c053423          	sd	zero,1736(a0) # 16c8 <.LBB103_4+0x488>
    12f4:	00001537          	lui	a0,0x1
    12f8:	40a40533          	sub	a0,s0,a0
    12fc:	6c053823          	sd	zero,1744(a0) # 16d0 <.LBB103_4+0x490>
    1300:	00001537          	lui	a0,0x1
    1304:	40a40533          	sub	a0,s0,a0
    1308:	6c053c23          	sd	zero,1752(a0) # 16d8 <.LBB103_4+0x498>
    130c:	00001537          	lui	a0,0x1
    1310:	40a40533          	sub	a0,s0,a0
    1314:	6e053023          	sd	zero,1760(a0) # 16e0 <.LBB103_4+0x4a0>
    1318:	00001537          	lui	a0,0x1
    131c:	40a40533          	sub	a0,s0,a0
    1320:	6e053423          	sd	zero,1768(a0) # 16e8 <.LBB103_4+0x4a8>
    1324:	00001537          	lui	a0,0x1
    1328:	40a40533          	sub	a0,s0,a0
    132c:	6e053823          	sd	zero,1776(a0) # 16f0 <.LBB103_4+0x4b0>
    1330:	00001537          	lui	a0,0x1
    1334:	40a40533          	sub	a0,s0,a0
    1338:	6e053c23          	sd	zero,1784(a0) # 16f8 <.LBB103_4+0x4b8>
    133c:	00001537          	lui	a0,0x1
    1340:	40a40533          	sub	a0,s0,a0
    1344:	70053023          	sd	zero,1792(a0) # 1700 <.LBB103_4+0x4c0>
    1348:	00001537          	lui	a0,0x1
    134c:	40a40533          	sub	a0,s0,a0
    1350:	70053423          	sd	zero,1800(a0) # 1708 <.LBB103_4+0x4c8>
    1354:	00001537          	lui	a0,0x1
    1358:	40a40533          	sub	a0,s0,a0
    135c:	70053823          	sd	zero,1808(a0) # 1710 <.LBB103_4+0x4d0>
    1360:	00001537          	lui	a0,0x1
    1364:	40a40533          	sub	a0,s0,a0
    1368:	70053c23          	sd	zero,1816(a0) # 1718 <.LBB103_4+0x4d8>
    136c:	00001537          	lui	a0,0x1
    1370:	40a40533          	sub	a0,s0,a0
    1374:	72053023          	sd	zero,1824(a0) # 1720 <.LBB103_4+0x4e0>
    1378:	00001537          	lui	a0,0x1
    137c:	40a40533          	sub	a0,s0,a0
    1380:	72053423          	sd	zero,1832(a0) # 1728 <.LBB103_4+0x4e8>
    1384:	00001537          	lui	a0,0x1
    1388:	40a40533          	sub	a0,s0,a0
    138c:	72053823          	sd	zero,1840(a0) # 1730 <.LBB103_4+0x4f0>
    1390:	00001537          	lui	a0,0x1
    1394:	40a40533          	sub	a0,s0,a0
    1398:	72053c23          	sd	zero,1848(a0) # 1738 <.LBB103_4+0x4f8>
    139c:	00001537          	lui	a0,0x1
    13a0:	40a40533          	sub	a0,s0,a0
    13a4:	74053023          	sd	zero,1856(a0) # 1740 <.LBB103_4+0x500>
    13a8:	00001537          	lui	a0,0x1
    13ac:	40a40533          	sub	a0,s0,a0
    13b0:	74053423          	sd	zero,1864(a0) # 1748 <.LBB103_4+0x508>
    13b4:	00001537          	lui	a0,0x1
    13b8:	40a40533          	sub	a0,s0,a0
    13bc:	74053823          	sd	zero,1872(a0) # 1750 <.LBB103_4+0x510>
    13c0:	00001537          	lui	a0,0x1
    13c4:	40a40533          	sub	a0,s0,a0
    13c8:	74053c23          	sd	zero,1880(a0) # 1758 <.LBB103_4+0x518>
    13cc:	00001537          	lui	a0,0x1
    13d0:	40a40533          	sub	a0,s0,a0
    13d4:	76053023          	sd	zero,1888(a0) # 1760 <.LBB103_4+0x520>
    13d8:	00001537          	lui	a0,0x1
    13dc:	40a40533          	sub	a0,s0,a0
    13e0:	76053423          	sd	zero,1896(a0) # 1768 <.LBB103_4+0x528>
    13e4:	00001537          	lui	a0,0x1
    13e8:	40a40533          	sub	a0,s0,a0
    13ec:	76053823          	sd	zero,1904(a0) # 1770 <.LBB103_4+0x530>
    13f0:	00001537          	lui	a0,0x1
    13f4:	40a40533          	sub	a0,s0,a0
    13f8:	76053c23          	sd	zero,1912(a0) # 1778 <.LBB103_4+0x538>
    13fc:	00001537          	lui	a0,0x1
    1400:	40a40533          	sub	a0,s0,a0
    1404:	78053c23          	sd	zero,1944(a0) # 1798 <.LBB103_4+0x558>
    1408:	00001537          	lui	a0,0x1
    140c:	40a40533          	sub	a0,s0,a0
    1410:	78053823          	sd	zero,1936(a0) # 1790 <.LBB103_4+0x550>
    1414:	00001537          	lui	a0,0x1
    1418:	40a40533          	sub	a0,s0,a0
    141c:	78053423          	sd	zero,1928(a0) # 1788 <.LBB103_4+0x548>
    1420:	00001537          	lui	a0,0x1
    1424:	40a40533          	sub	a0,s0,a0
    1428:	78053023          	sd	zero,1920(a0) # 1780 <.LBB103_4+0x540>
    142c:	00001537          	lui	a0,0x1
    1430:	40a40533          	sub	a0,s0,a0
    1434:	7a053023          	sd	zero,1952(a0) # 17a0 <.LBB103_4+0x560>
    1438:	00001537          	lui	a0,0x1
    143c:	40a40533          	sub	a0,s0,a0
    1440:	7a053423          	sd	zero,1960(a0) # 17a8 <.LBB103_4+0x568>
    1444:	00001537          	lui	a0,0x1
    1448:	40a40533          	sub	a0,s0,a0
    144c:	7a053823          	sd	zero,1968(a0) # 17b0 <.LBB103_4+0x570>
    1450:	00001537          	lui	a0,0x1
    1454:	40a40533          	sub	a0,s0,a0
    1458:	7a053c23          	sd	zero,1976(a0) # 17b8 <.LBB103_4+0x578>
    145c:	00001537          	lui	a0,0x1
    1460:	40a40533          	sub	a0,s0,a0
    1464:	7c053023          	sd	zero,1984(a0) # 17c0 <.LBB103_4+0x580>
    1468:	00001537          	lui	a0,0x1
    146c:	40a40533          	sub	a0,s0,a0
    1470:	7c053423          	sd	zero,1992(a0) # 17c8 <.LBB103_4+0x588>
    1474:	00001537          	lui	a0,0x1
    1478:	40a40533          	sub	a0,s0,a0
    147c:	7c053823          	sd	zero,2000(a0) # 17d0 <.LBB103_4+0x590>
    1480:	00001537          	lui	a0,0x1
    1484:	40a40533          	sub	a0,s0,a0
    1488:	7c053c23          	sd	zero,2008(a0) # 17d8 <.LBB103_4+0x598>
    148c:	00001537          	lui	a0,0x1
    1490:	40a40533          	sub	a0,s0,a0
    1494:	7e053023          	sd	zero,2016(a0) # 17e0 <.LBB103_4+0x5a0>
    1498:	00001537          	lui	a0,0x1
    149c:	40a40533          	sub	a0,s0,a0
    14a0:	7e053423          	sd	zero,2024(a0) # 17e8 <.LBB103_4+0x5a8>
    14a4:	00001537          	lui	a0,0x1
    14a8:	40a40533          	sub	a0,s0,a0
    14ac:	7e053823          	sd	zero,2032(a0) # 17f0 <.LBB103_4+0x5b0>
    14b0:	00001537          	lui	a0,0x1
    14b4:	40a40533          	sub	a0,s0,a0
    14b8:	7e053c23          	sd	zero,2040(a0) # 17f8 <.LBB103_4+0x5b8>
    14bc:	80043023          	sd	zero,-2048(s0)
    14c0:	80043423          	sd	zero,-2040(s0)
    14c4:	80043823          	sd	zero,-2032(s0)
    14c8:	80043c23          	sd	zero,-2024(s0)
    14cc:	82043023          	sd	zero,-2016(s0)
    14d0:	82043423          	sd	zero,-2008(s0)
    14d4:	82043823          	sd	zero,-2000(s0)
    14d8:	82043c23          	sd	zero,-1992(s0)
    14dc:	84043023          	sd	zero,-1984(s0)
    14e0:	84043423          	sd	zero,-1976(s0)
    14e4:	84043823          	sd	zero,-1968(s0)
    14e8:	84043c23          	sd	zero,-1960(s0)
    14ec:	86043023          	sd	zero,-1952(s0)
    14f0:	86043423          	sd	zero,-1944(s0)
    14f4:	86043823          	sd	zero,-1936(s0)
    14f8:	86043c23          	sd	zero,-1928(s0)
    14fc:	88043c23          	sd	zero,-1896(s0)
    1500:	88043823          	sd	zero,-1904(s0)
    1504:	88043423          	sd	zero,-1912(s0)
    1508:	88043023          	sd	zero,-1920(s0)
    150c:	8a043023          	sd	zero,-1888(s0)
    1510:	8a043423          	sd	zero,-1880(s0)
    1514:	8a043823          	sd	zero,-1872(s0)
    1518:	8a043c23          	sd	zero,-1864(s0)
    151c:	8c043023          	sd	zero,-1856(s0)
    1520:	8c043423          	sd	zero,-1848(s0)
    1524:	8c043823          	sd	zero,-1840(s0)
    1528:	8c043c23          	sd	zero,-1832(s0)
    152c:	8e043023          	sd	zero,-1824(s0)
    1530:	8e043423          	sd	zero,-1816(s0)
    1534:	8e043823          	sd	zero,-1808(s0)
    1538:	8e043c23          	sd	zero,-1800(s0)
    153c:	90043023          	sd	zero,-1792(s0)
    1540:	90043423          	sd	zero,-1784(s0)
    1544:	90043823          	sd	zero,-1776(s0)
    1548:	90043c23          	sd	zero,-1768(s0)
    154c:	92043023          	sd	zero,-1760(s0)
    1550:	92043423          	sd	zero,-1752(s0)
    1554:	92043823          	sd	zero,-1744(s0)
    1558:	92043c23          	sd	zero,-1736(s0)
    155c:	94043023          	sd	zero,-1728(s0)
    1560:	94043423          	sd	zero,-1720(s0)
    1564:	94043823          	sd	zero,-1712(s0)
    1568:	94043c23          	sd	zero,-1704(s0)
    156c:	96043023          	sd	zero,-1696(s0)
    1570:	96043423          	sd	zero,-1688(s0)
    1574:	96043823          	sd	zero,-1680(s0)
    1578:	96043c23          	sd	zero,-1672(s0)
    157c:	98043c23          	sd	zero,-1640(s0)
    1580:	98043823          	sd	zero,-1648(s0)
    1584:	98043423          	sd	zero,-1656(s0)
    1588:	98043023          	sd	zero,-1664(s0)
    158c:	9a043023          	sd	zero,-1632(s0)
    1590:	9a043423          	sd	zero,-1624(s0)
    1594:	9a043823          	sd	zero,-1616(s0)
    1598:	9a043c23          	sd	zero,-1608(s0)
    159c:	9c043023          	sd	zero,-1600(s0)
    15a0:	9c043423          	sd	zero,-1592(s0)
    15a4:	9c043823          	sd	zero,-1584(s0)
    15a8:	9c043c23          	sd	zero,-1576(s0)
    15ac:	9e043023          	sd	zero,-1568(s0)
    15b0:	9e043423          	sd	zero,-1560(s0)
    15b4:	9e043823          	sd	zero,-1552(s0)
    15b8:	9e043c23          	sd	zero,-1544(s0)
    15bc:	a0043023          	sd	zero,-1536(s0)
    15c0:	a0043423          	sd	zero,-1528(s0)
    15c4:	a0043823          	sd	zero,-1520(s0)
    15c8:	a0043c23          	sd	zero,-1512(s0)
    15cc:	a2043023          	sd	zero,-1504(s0)
    15d0:	a2043423          	sd	zero,-1496(s0)
    15d4:	a2043823          	sd	zero,-1488(s0)
    15d8:	a2043c23          	sd	zero,-1480(s0)
    15dc:	a4043023          	sd	zero,-1472(s0)
    15e0:	a4043423          	sd	zero,-1464(s0)
    15e4:	a4043823          	sd	zero,-1456(s0)
    15e8:	a4043c23          	sd	zero,-1448(s0)
    15ec:	a6043023          	sd	zero,-1440(s0)
    15f0:	a6043423          	sd	zero,-1432(s0)
    15f4:	a6043823          	sd	zero,-1424(s0)
    15f8:	a6043c23          	sd	zero,-1416(s0)
    15fc:	a8043c23          	sd	zero,-1384(s0)
    1600:	a8043823          	sd	zero,-1392(s0)
    1604:	a8043423          	sd	zero,-1400(s0)
    1608:	a8043023          	sd	zero,-1408(s0)
    160c:	aa043023          	sd	zero,-1376(s0)
    1610:	aa043423          	sd	zero,-1368(s0)
    1614:	aa043823          	sd	zero,-1360(s0)
    1618:	aa043c23          	sd	zero,-1352(s0)
    161c:	ac043023          	sd	zero,-1344(s0)
    1620:	ac043423          	sd	zero,-1336(s0)
    1624:	ac043823          	sd	zero,-1328(s0)
    1628:	ac043c23          	sd	zero,-1320(s0)
    162c:	ae043023          	sd	zero,-1312(s0)
    1630:	ae043423          	sd	zero,-1304(s0)
    1634:	ae043823          	sd	zero,-1296(s0)
    1638:	ae043c23          	sd	zero,-1288(s0)
    163c:	b0043023          	sd	zero,-1280(s0)
    1640:	b0043423          	sd	zero,-1272(s0)
    1644:	b0043823          	sd	zero,-1264(s0)
    1648:	b0043c23          	sd	zero,-1256(s0)
    164c:	b2043023          	sd	zero,-1248(s0)
    1650:	b2043423          	sd	zero,-1240(s0)
    1654:	b2043823          	sd	zero,-1232(s0)
    1658:	b2043c23          	sd	zero,-1224(s0)
    165c:	b4043023          	sd	zero,-1216(s0)
    1660:	b4043423          	sd	zero,-1208(s0)
    1664:	b4043823          	sd	zero,-1200(s0)
    1668:	b4043c23          	sd	zero,-1192(s0)
    166c:	b6043023          	sd	zero,-1184(s0)
    1670:	b6043423          	sd	zero,-1176(s0)
    1674:	b6043823          	sd	zero,-1168(s0)
    1678:	b6043c23          	sd	zero,-1160(s0)
    167c:	b8043c23          	sd	zero,-1128(s0)
    1680:	b8043823          	sd	zero,-1136(s0)
    1684:	b8043423          	sd	zero,-1144(s0)
    1688:	b8043023          	sd	zero,-1152(s0)
    168c:	ba043023          	sd	zero,-1120(s0)
    1690:	ba043423          	sd	zero,-1112(s0)
    1694:	ba043823          	sd	zero,-1104(s0)
    1698:	ba043c23          	sd	zero,-1096(s0)
    169c:	bc043023          	sd	zero,-1088(s0)
    16a0:	bc043423          	sd	zero,-1080(s0)
    16a4:	bc043823          	sd	zero,-1072(s0)
    16a8:	bc043c23          	sd	zero,-1064(s0)
    16ac:	be043023          	sd	zero,-1056(s0)
    16b0:	be043423          	sd	zero,-1048(s0)
    16b4:	be043823          	sd	zero,-1040(s0)
    16b8:	be043c23          	sd	zero,-1032(s0)
    16bc:	c0043023          	sd	zero,-1024(s0)
    16c0:	c0043423          	sd	zero,-1016(s0)
    16c4:	c0043823          	sd	zero,-1008(s0)
    16c8:	c0043c23          	sd	zero,-1000(s0)
    16cc:	c2043023          	sd	zero,-992(s0)
    16d0:	c2043423          	sd	zero,-984(s0)
    16d4:	c2043823          	sd	zero,-976(s0)
    16d8:	c2043c23          	sd	zero,-968(s0)
    16dc:	c4043023          	sd	zero,-960(s0)
    16e0:	c4043423          	sd	zero,-952(s0)
    16e4:	c4043823          	sd	zero,-944(s0)
    16e8:	c4043c23          	sd	zero,-936(s0)
    16ec:	c6043023          	sd	zero,-928(s0)
    16f0:	c6043423          	sd	zero,-920(s0)
    16f4:	c6043823          	sd	zero,-912(s0)
    16f8:	c6043c23          	sd	zero,-904(s0)
    16fc:	c8043c23          	sd	zero,-872(s0)
    1700:	c8043823          	sd	zero,-880(s0)
    1704:	c8043423          	sd	zero,-888(s0)
    1708:	c8043023          	sd	zero,-896(s0)
    170c:	ca043023          	sd	zero,-864(s0)
    1710:	ca043423          	sd	zero,-856(s0)
    1714:	ca043823          	sd	zero,-848(s0)
    1718:	ca043c23          	sd	zero,-840(s0)
    171c:	cc043023          	sd	zero,-832(s0)
    1720:	cc043423          	sd	zero,-824(s0)
    1724:	cc043823          	sd	zero,-816(s0)
    1728:	cc043c23          	sd	zero,-808(s0)
    172c:	ce043023          	sd	zero,-800(s0)
    1730:	ce043423          	sd	zero,-792(s0)
    1734:	ce043823          	sd	zero,-784(s0)
    1738:	ce043c23          	sd	zero,-776(s0)
    173c:	d0043023          	sd	zero,-768(s0)
    1740:	d0043423          	sd	zero,-760(s0)
    1744:	d0043823          	sd	zero,-752(s0)
    1748:	d0043c23          	sd	zero,-744(s0)
    174c:	d2043023          	sd	zero,-736(s0)
    1750:	d2043423          	sd	zero,-728(s0)
    1754:	d2043823          	sd	zero,-720(s0)
    1758:	d2043c23          	sd	zero,-712(s0)
    175c:	d4043023          	sd	zero,-704(s0)
    1760:	d4043423          	sd	zero,-696(s0)
    1764:	d4043823          	sd	zero,-688(s0)
    1768:	d4043c23          	sd	zero,-680(s0)
    176c:	d6043023          	sd	zero,-672(s0)
    1770:	d6043423          	sd	zero,-664(s0)
    1774:	d6043823          	sd	zero,-656(s0)
    1778:	d6043c23          	sd	zero,-648(s0)
    177c:	d8043c23          	sd	zero,-616(s0)
    1780:	d8043823          	sd	zero,-624(s0)
    1784:	d8043423          	sd	zero,-632(s0)
    1788:	d8043023          	sd	zero,-640(s0)
    178c:	da043023          	sd	zero,-608(s0)
    1790:	00000a93          	li	s5,0
    1794:	da043423          	sd	zero,-600(s0)
    1798:	00000093          	li	ra,0
    179c:	00000713          	li	a4,0
    17a0:	00000a13          	li	s4,0
    17a4:	da043823          	sd	zero,-592(s0)
    17a8:	00000913          	li	s2,0
    17ac:	dc043023          	sd	zero,-576(s0)
    17b0:	00000f93          	li	t6,0
    17b4:	00000f13          	li	t5,0
    17b8:	dc043c23          	sd	zero,-552(s0)
    17bc:	00000e93          	li	t4,0
    17c0:	00000e13          	li	t3,0
    17c4:	00000693          	li	a3,0
    17c8:	00000393          	li	t2,0
    17cc:	00000313          	li	t1,0
    17d0:	00000613          	li	a2,0
    17d4:	00000593          	li	a1,0
    17d8:	00000c93          	li	s9,0
    17dc:	00000513          	li	a0,0
    17e0:	00000293          	li	t0,0
    17e4:	00000893          	li	a7,0
    17e8:	00000813          	li	a6,0
    17ec:	00000793          	li	a5,0
    17f0:	00000b93          	li	s7,0
    17f4:	00000c13          	li	s8,0
    17f8:	e2043423          	sd	zero,-472(s0)

00000000000017fc <.LBB103_5>:
    17fc:	e3843023          	sd	s8,-480(s0)
    1800:	e1743c23          	sd	s7,-488(s0)
    1804:	f9643423          	sd	s6,-120(s0)
    1808:	00001bb7          	lui	s7,0x1
    180c:	41740bb3          	sub	s7,s0,s7
    1810:	673bb823          	sd	s3,1648(s7) # 1670 <.LBB103_4+0x430>
    1814:	00001bb7          	lui	s7,0x1
    1818:	41740bb3          	sub	s7,s0,s7
    181c:	669bbc23          	sd	s1,1656(s7) # 1678 <.LBB103_4+0x438>
    1820:	ed543823          	sd	s5,-304(s0)
    1824:	ec143c23          	sd	ra,-296(s0)
    1828:	eee43023          	sd	a4,-288(s0)
    182c:	ef443423          	sd	s4,-280(s0)
    1830:	db243c23          	sd	s2,-584(s0)
    1834:	ddf43423          	sd	t6,-568(s0)
    1838:	dde43823          	sd	t5,-560(s0)
    183c:	efd43823          	sd	t4,-272(s0)
    1840:	dfc43023          	sd	t3,-544(s0)
    1844:	eed43c23          	sd	a3,-264(s0)
    1848:	de743423          	sd	t2,-536(s0)
    184c:	de643823          	sd	t1,-528(s0)
    1850:	f0c43023          	sd	a2,-256(s0)
    1854:	f0b43423          	sd	a1,-248(s0)
    1858:	f1943823          	sd	s9,-240(s0)
    185c:	f0a43c23          	sd	a0,-232(s0)
    1860:	de543c23          	sd	t0,-520(s0)
    1864:	e1143023          	sd	a7,-512(s0)
    1868:	e1043423          	sd	a6,-504(s0)
    186c:	e0f43823          	sd	a5,-496(s0)
    1870:	00098503          	lb	a0,0(s3)
    1874:	002b0603          	lb	a2,2(s6)
    1878:	f2c43c23          	sd	a2,-200(s0)
    187c:	001b0683          	lb	a3,1(s6)
    1880:	f2d43823          	sd	a3,-208(s0)
    1884:	000b0d03          	lb	s10,0(s6)
    1888:	003b0783          	lb	a5,3(s6)
    188c:	004b0803          	lb	a6,4(s6)
    1890:	eb043823          	sd	a6,-336(s0)
    1894:	005b0a83          	lb	s5,5(s6)
    1898:	f3543423          	sd	s5,-216(s0)
    189c:	006b0d83          	lb	s11,6(s6)
    18a0:	f3b43023          	sd	s11,-224(s0)
    18a4:	007b0083          	lb	ra,7(s6)
    18a8:	f4143023          	sd	ra,-192(s0)
    18ac:	008b0883          	lb	a7,8(s6)
    18b0:	eb143423          	sd	a7,-344(s0)
    18b4:	009b0303          	lb	t1,9(s6)
    18b8:	00ab0903          	lb	s2,10(s6)
    18bc:	00bb0283          	lb	t0,11(s6)
    18c0:	00cb0f03          	lb	t5,12(s6)
    18c4:	00db0e83          	lb	t4,13(s6)
    18c8:	00eb0e03          	lb	t3,14(s6)
    18cc:	00fb0383          	lb	t2,15(s6)
    18d0:	010b0583          	lb	a1,16(s6)
    18d4:	f6b43c23          	sd	a1,-136(s0)
    18d8:	011b0f83          	lb	t6,17(s6)
    18dc:	e9f43c23          	sd	t6,-360(s0)
    18e0:	012b0983          	lb	s3,18(s6)
    18e4:	f5343823          	sd	s3,-176(s0)
    18e8:	013b0583          	lb	a1,19(s6)
    18ec:	e8b43423          	sd	a1,-376(s0)
    18f0:	014b0a03          	lb	s4,20(s6)
    18f4:	eb443c23          	sd	s4,-328(s0)
    18f8:	f8843583          	ld	a1,-120(s0)
    18fc:	01558b03          	lb	s6,21(a1)
    1900:	e5643823          	sd	s6,-432(s0)
    1904:	f8843583          	ld	a1,-120(s0)
    1908:	01658483          	lb	s1,22(a1)
    190c:	f4943423          	sd	s1,-184(s0)
    1910:	f8843583          	ld	a1,-120(s0)
    1914:	01758c03          	lb	s8,23(a1)
    1918:	eb843023          	sd	s8,-352(s0)
    191c:	f8843583          	ld	a1,-120(s0)
    1920:	01858b83          	lb	s7,24(a1)
    1924:	02c505b3          	mul	a1,a0,a2
    1928:	00001637          	lui	a2,0x1
    192c:	40c40633          	sub	a2,s0,a2
    1930:	6a863603          	ld	a2,1704(a2) # 16a8 <.LBB103_4+0x468>
    1934:	00c58633          	add	a2,a1,a2
    1938:	000015b7          	lui	a1,0x1
    193c:	40b405b3          	sub	a1,s0,a1
    1940:	6ac5b423          	sd	a2,1704(a1) # 16a8 <.LBB103_4+0x468>
    1944:	02d505b3          	mul	a1,a0,a3
    1948:	00001637          	lui	a2,0x1
    194c:	40c40633          	sub	a2,s0,a2
    1950:	6b063603          	ld	a2,1712(a2) # 16b0 <.LBB103_4+0x470>
    1954:	00c58633          	add	a2,a1,a2
    1958:	000015b7          	lui	a1,0x1
    195c:	40b405b3          	sub	a1,s0,a1
    1960:	6ac5b823          	sd	a2,1712(a1) # 16b0 <.LBB103_4+0x470>
    1964:	03a505b3          	mul	a1,a0,s10
    1968:	e9a43823          	sd	s10,-368(s0)
    196c:	00001637          	lui	a2,0x1
    1970:	40c40633          	sub	a2,s0,a2
    1974:	6b863603          	ld	a2,1720(a2) # 16b8 <.LBB103_4+0x478>
    1978:	00c58633          	add	a2,a1,a2
    197c:	000015b7          	lui	a1,0x1
    1980:	40b405b3          	sub	a1,s0,a1
    1984:	6ac5bc23          	sd	a2,1720(a1) # 16b8 <.LBB103_4+0x478>
    1988:	02f505b3          	mul	a1,a0,a5
    198c:	e6f43823          	sd	a5,-400(s0)
    1990:	00001637          	lui	a2,0x1
    1994:	40c40633          	sub	a2,s0,a2
    1998:	6c063603          	ld	a2,1728(a2) # 16c0 <.LBB103_4+0x480>
    199c:	00c58633          	add	a2,a1,a2
    19a0:	000015b7          	lui	a1,0x1
    19a4:	40b405b3          	sub	a1,s0,a1
    19a8:	6cc5b023          	sd	a2,1728(a1) # 16c0 <.LBB103_4+0x480>
    19ac:	030505b3          	mul	a1,a0,a6
    19b0:	00001637          	lui	a2,0x1
    19b4:	40c40633          	sub	a2,s0,a2
    19b8:	6a063603          	ld	a2,1696(a2) # 16a0 <.LBB103_4+0x460>
    19bc:	00c58633          	add	a2,a1,a2
    19c0:	000015b7          	lui	a1,0x1
    19c4:	40b405b3          	sub	a1,s0,a1
    19c8:	6ac5b023          	sd	a2,1696(a1) # 16a0 <.LBB103_4+0x460>
    19cc:	035505b3          	mul	a1,a0,s5
    19d0:	00001637          	lui	a2,0x1
    19d4:	40c40633          	sub	a2,s0,a2
    19d8:	69863603          	ld	a2,1688(a2) # 1698 <.LBB103_4+0x458>
    19dc:	00c58633          	add	a2,a1,a2
    19e0:	000015b7          	lui	a1,0x1
    19e4:	40b405b3          	sub	a1,s0,a1
    19e8:	68c5bc23          	sd	a2,1688(a1) # 1698 <.LBB103_4+0x458>
    19ec:	03b505b3          	mul	a1,a0,s11
    19f0:	00001637          	lui	a2,0x1
    19f4:	40c40633          	sub	a2,s0,a2
    19f8:	69063603          	ld	a2,1680(a2) # 1690 <.LBB103_4+0x450>
    19fc:	00c58633          	add	a2,a1,a2
    1a00:	000015b7          	lui	a1,0x1
    1a04:	40b405b3          	sub	a1,s0,a1
    1a08:	68c5b823          	sd	a2,1680(a1) # 1690 <.LBB103_4+0x450>
    1a0c:	021505b3          	mul	a1,a0,ra
    1a10:	00001637          	lui	a2,0x1
    1a14:	40c40633          	sub	a2,s0,a2
    1a18:	68863603          	ld	a2,1672(a2) # 1688 <.LBB103_4+0x448>
    1a1c:	00c58633          	add	a2,a1,a2
    1a20:	000015b7          	lui	a1,0x1
    1a24:	40b405b3          	sub	a1,s0,a1
    1a28:	68c5b423          	sd	a2,1672(a1) # 1688 <.LBB103_4+0x448>
    1a2c:	031505b3          	mul	a1,a0,a7
    1a30:	00001637          	lui	a2,0x1
    1a34:	40c40633          	sub	a2,s0,a2
    1a38:	68063603          	ld	a2,1664(a2) # 1680 <.LBB103_4+0x440>
    1a3c:	00c58633          	add	a2,a1,a2
    1a40:	000015b7          	lui	a1,0x1
    1a44:	40b405b3          	sub	a1,s0,a1
    1a48:	68c5b023          	sd	a2,1664(a1) # 1680 <.LBB103_4+0x440>
    1a4c:	e2643823          	sd	t1,-464(s0)
    1a50:	026505b3          	mul	a1,a0,t1
    1a54:	00001637          	lui	a2,0x1
    1a58:	40c40633          	sub	a2,s0,a2
    1a5c:	6c863603          	ld	a2,1736(a2) # 16c8 <.LBB103_4+0x488>
    1a60:	00c58633          	add	a2,a1,a2
    1a64:	000015b7          	lui	a1,0x1
    1a68:	40b405b3          	sub	a1,s0,a1
    1a6c:	6cc5b423          	sd	a2,1736(a1) # 16c8 <.LBB103_4+0x488>
    1a70:	e7243c23          	sd	s2,-392(s0)
    1a74:	032505b3          	mul	a1,a0,s2
    1a78:	00001637          	lui	a2,0x1
    1a7c:	40c40633          	sub	a2,s0,a2
    1a80:	6d063603          	ld	a2,1744(a2) # 16d0 <.LBB103_4+0x490>
    1a84:	00c58633          	add	a2,a1,a2
    1a88:	000015b7          	lui	a1,0x1
    1a8c:	40b405b3          	sub	a1,s0,a1
    1a90:	6cc5b823          	sd	a2,1744(a1) # 16d0 <.LBB103_4+0x490>
    1a94:	ec543423          	sd	t0,-312(s0)
    1a98:	025505b3          	mul	a1,a0,t0
    1a9c:	00001637          	lui	a2,0x1
    1aa0:	40c40633          	sub	a2,s0,a2
    1aa4:	6d863603          	ld	a2,1752(a2) # 16d8 <.LBB103_4+0x498>
    1aa8:	00c58633          	add	a2,a1,a2
    1aac:	000015b7          	lui	a1,0x1
    1ab0:	40b405b3          	sub	a1,s0,a1
    1ab4:	6cc5bc23          	sd	a2,1752(a1) # 16d8 <.LBB103_4+0x498>
    1ab8:	f7e43423          	sd	t5,-152(s0)
    1abc:	03e505b3          	mul	a1,a0,t5
    1ac0:	00001637          	lui	a2,0x1
    1ac4:	40c40633          	sub	a2,s0,a2
    1ac8:	6e063603          	ld	a2,1760(a2) # 16e0 <.LBB103_4+0x4a0>
    1acc:	00c58633          	add	a2,a1,a2
    1ad0:	000015b7          	lui	a1,0x1
    1ad4:	40b405b3          	sub	a1,s0,a1
    1ad8:	6ec5b023          	sd	a2,1760(a1) # 16e0 <.LBB103_4+0x4a0>
    1adc:	f7d43023          	sd	t4,-160(s0)
    1ae0:	03d505b3          	mul	a1,a0,t4
    1ae4:	00001637          	lui	a2,0x1
    1ae8:	40c40633          	sub	a2,s0,a2
    1aec:	6e863603          	ld	a2,1768(a2) # 16e8 <.LBB103_4+0x4a8>
    1af0:	00c58633          	add	a2,a1,a2
    1af4:	000015b7          	lui	a1,0x1
    1af8:	40b405b3          	sub	a1,s0,a1
    1afc:	6ec5b423          	sd	a2,1768(a1) # 16e8 <.LBB103_4+0x4a8>
    1b00:	edc43023          	sd	t3,-320(s0)
    1b04:	03c505b3          	mul	a1,a0,t3
    1b08:	00001637          	lui	a2,0x1
    1b0c:	40c40633          	sub	a2,s0,a2
    1b10:	6f063603          	ld	a2,1776(a2) # 16f0 <.LBB103_4+0x4b0>
    1b14:	00c58633          	add	a2,a1,a2
    1b18:	000015b7          	lui	a1,0x1
    1b1c:	40b405b3          	sub	a1,s0,a1
    1b20:	6ec5b823          	sd	a2,1776(a1) # 16f0 <.LBB103_4+0x4b0>
    1b24:	027505b3          	mul	a1,a0,t2
    1b28:	00001637          	lui	a2,0x1
    1b2c:	40c40633          	sub	a2,s0,a2
    1b30:	6f863603          	ld	a2,1784(a2) # 16f8 <.LBB103_4+0x4b8>
    1b34:	00c58633          	add	a2,a1,a2
    1b38:	000015b7          	lui	a1,0x1
    1b3c:	40b405b3          	sub	a1,s0,a1
    1b40:	6ec5bc23          	sd	a2,1784(a1) # 16f8 <.LBB103_4+0x4b8>
    1b44:	f7843883          	ld	a7,-136(s0)
    1b48:	031505b3          	mul	a1,a0,a7
    1b4c:	00001637          	lui	a2,0x1
    1b50:	40c40633          	sub	a2,s0,a2
    1b54:	70063603          	ld	a2,1792(a2) # 1700 <.LBB103_4+0x4c0>
    1b58:	00c58633          	add	a2,a1,a2
    1b5c:	000015b7          	lui	a1,0x1
    1b60:	40b405b3          	sub	a1,s0,a1
    1b64:	70c5b023          	sd	a2,1792(a1) # 1700 <.LBB103_4+0x4c0>
    1b68:	03f505b3          	mul	a1,a0,t6
    1b6c:	00001637          	lui	a2,0x1
    1b70:	40c40633          	sub	a2,s0,a2
    1b74:	70863603          	ld	a2,1800(a2) # 1708 <.LBB103_4+0x4c8>
    1b78:	00c58633          	add	a2,a1,a2
    1b7c:	000015b7          	lui	a1,0x1
    1b80:	40b405b3          	sub	a1,s0,a1
    1b84:	70c5b423          	sd	a2,1800(a1) # 1708 <.LBB103_4+0x4c8>
    1b88:	033505b3          	mul	a1,a0,s3
    1b8c:	00001637          	lui	a2,0x1
    1b90:	40c40633          	sub	a2,s0,a2
    1b94:	71063603          	ld	a2,1808(a2) # 1710 <.LBB103_4+0x4d0>
    1b98:	00c58633          	add	a2,a1,a2
    1b9c:	000015b7          	lui	a1,0x1
    1ba0:	40b405b3          	sub	a1,s0,a1
    1ba4:	70c5b823          	sd	a2,1808(a1) # 1710 <.LBB103_4+0x4d0>
    1ba8:	e8843983          	ld	s3,-376(s0)
    1bac:	033505b3          	mul	a1,a0,s3
    1bb0:	00001637          	lui	a2,0x1
    1bb4:	40c40633          	sub	a2,s0,a2
    1bb8:	71863603          	ld	a2,1816(a2) # 1718 <.LBB103_4+0x4d8>
    1bbc:	00c58633          	add	a2,a1,a2
    1bc0:	000015b7          	lui	a1,0x1
    1bc4:	40b405b3          	sub	a1,s0,a1
    1bc8:	70c5bc23          	sd	a2,1816(a1) # 1718 <.LBB103_4+0x4d8>
    1bcc:	034505b3          	mul	a1,a0,s4
    1bd0:	00001637          	lui	a2,0x1
    1bd4:	40c40633          	sub	a2,s0,a2
    1bd8:	72063603          	ld	a2,1824(a2) # 1720 <.LBB103_4+0x4e0>
    1bdc:	00c58633          	add	a2,a1,a2
    1be0:	000015b7          	lui	a1,0x1
    1be4:	40b405b3          	sub	a1,s0,a1
    1be8:	72c5b023          	sd	a2,1824(a1) # 1720 <.LBB103_4+0x4e0>
    1bec:	036505b3          	mul	a1,a0,s6
    1bf0:	00001637          	lui	a2,0x1
    1bf4:	40c40633          	sub	a2,s0,a2
    1bf8:	72863603          	ld	a2,1832(a2) # 1728 <.LBB103_4+0x4e8>
    1bfc:	00c58633          	add	a2,a1,a2
    1c00:	000015b7          	lui	a1,0x1
    1c04:	40b405b3          	sub	a1,s0,a1
    1c08:	72c5b423          	sd	a2,1832(a1) # 1728 <.LBB103_4+0x4e8>
    1c0c:	029505b3          	mul	a1,a0,s1
    1c10:	00001637          	lui	a2,0x1
    1c14:	40c40633          	sub	a2,s0,a2
    1c18:	73063603          	ld	a2,1840(a2) # 1730 <.LBB103_4+0x4f0>
    1c1c:	00c58633          	add	a2,a1,a2
    1c20:	000015b7          	lui	a1,0x1
    1c24:	40b405b3          	sub	a1,s0,a1
    1c28:	72c5b823          	sd	a2,1840(a1) # 1730 <.LBB103_4+0x4f0>
    1c2c:	038505b3          	mul	a1,a0,s8
    1c30:	00001637          	lui	a2,0x1
    1c34:	40c40633          	sub	a2,s0,a2
    1c38:	73863603          	ld	a2,1848(a2) # 1738 <.LBB103_4+0x4f8>
    1c3c:	00c58633          	add	a2,a1,a2
    1c40:	000015b7          	lui	a1,0x1
    1c44:	40b405b3          	sub	a1,s0,a1
    1c48:	72c5bc23          	sd	a2,1848(a1) # 1738 <.LBB103_4+0x4f8>
    1c4c:	f8843583          	ld	a1,-120(s0)
    1c50:	01958683          	lb	a3,25(a1)
    1c54:	f6d43823          	sd	a3,-144(s0)
    1c58:	037505b3          	mul	a1,a0,s7
    1c5c:	00001637          	lui	a2,0x1
    1c60:	40c40633          	sub	a2,s0,a2
    1c64:	74063603          	ld	a2,1856(a2) # 1740 <.LBB103_4+0x500>
    1c68:	00c58633          	add	a2,a1,a2
    1c6c:	000015b7          	lui	a1,0x1
    1c70:	40b405b3          	sub	a1,s0,a1
    1c74:	74c5b023          	sd	a2,1856(a1) # 1740 <.LBB103_4+0x500>
    1c78:	f8843583          	ld	a1,-120(s0)
    1c7c:	01a58703          	lb	a4,26(a1)
    1c80:	f4e43c23          	sd	a4,-168(s0)
    1c84:	02d505b3          	mul	a1,a0,a3
    1c88:	00001637          	lui	a2,0x1
    1c8c:	40c40633          	sub	a2,s0,a2
    1c90:	74863603          	ld	a2,1864(a2) # 1748 <.LBB103_4+0x508>
    1c94:	00c58633          	add	a2,a1,a2
    1c98:	000015b7          	lui	a1,0x1
    1c9c:	40b405b3          	sub	a1,s0,a1
    1ca0:	74c5b423          	sd	a2,1864(a1) # 1748 <.LBB103_4+0x508>
    1ca4:	f8843583          	ld	a1,-120(s0)
    1ca8:	01b58683          	lb	a3,27(a1)
    1cac:	02e505b3          	mul	a1,a0,a4
    1cb0:	00001637          	lui	a2,0x1
    1cb4:	40c40633          	sub	a2,s0,a2
    1cb8:	75063603          	ld	a2,1872(a2) # 1750 <.LBB103_4+0x510>
    1cbc:	00c58633          	add	a2,a1,a2
    1cc0:	000015b7          	lui	a1,0x1
    1cc4:	40b405b3          	sub	a1,s0,a1
    1cc8:	74c5b823          	sd	a2,1872(a1) # 1750 <.LBB103_4+0x510>
    1ccc:	f8843583          	ld	a1,-120(s0)
    1cd0:	01c58c03          	lb	s8,28(a1)
    1cd4:	02d505b3          	mul	a1,a0,a3
    1cd8:	00068093          	mv	ra,a3
    1cdc:	00001637          	lui	a2,0x1
    1ce0:	40c40633          	sub	a2,s0,a2
    1ce4:	75863603          	ld	a2,1880(a2) # 1758 <.LBB103_4+0x518>
    1ce8:	00c58633          	add	a2,a1,a2
    1cec:	000015b7          	lui	a1,0x1
    1cf0:	40b405b3          	sub	a1,s0,a1
    1cf4:	74c5bc23          	sd	a2,1880(a1) # 1758 <.LBB103_4+0x518>
    1cf8:	f8843583          	ld	a1,-120(s0)
    1cfc:	01d58683          	lb	a3,29(a1)
    1d00:	038505b3          	mul	a1,a0,s8
    1d04:	e3843c23          	sd	s8,-456(s0)
    1d08:	00001637          	lui	a2,0x1
    1d0c:	40c40633          	sub	a2,s0,a2
    1d10:	76063603          	ld	a2,1888(a2) # 1760 <.LBB103_4+0x520>
    1d14:	00c58633          	add	a2,a1,a2
    1d18:	000015b7          	lui	a1,0x1
    1d1c:	40b405b3          	sub	a1,s0,a1
    1d20:	76c5b023          	sd	a2,1888(a1) # 1760 <.LBB103_4+0x520>
    1d24:	f8843583          	ld	a1,-120(s0)
    1d28:	01e58f83          	lb	t6,30(a1)
    1d2c:	e9f43023          	sd	t6,-384(s0)
    1d30:	02d505b3          	mul	a1,a0,a3
    1d34:	00068813          	mv	a6,a3
    1d38:	00001637          	lui	a2,0x1
    1d3c:	40c40633          	sub	a2,s0,a2
    1d40:	76863603          	ld	a2,1896(a2) # 1768 <.LBB103_4+0x528>
    1d44:	00c58633          	add	a2,a1,a2
    1d48:	000015b7          	lui	a1,0x1
    1d4c:	40b405b3          	sub	a1,s0,a1
    1d50:	76c5b423          	sd	a2,1896(a1) # 1768 <.LBB103_4+0x528>
    1d54:	f8843583          	ld	a1,-120(s0)
    1d58:	01f58683          	lb	a3,31(a1)
    1d5c:	f8043703          	ld	a4,-128(s0)
    1d60:	88070d83          	lb	s11,-1920(a4)
    1d64:	03f50ab3          	mul	s5,a0,t6
    1d68:	000015b7          	lui	a1,0x1
    1d6c:	40b405b3          	sub	a1,s0,a1
    1d70:	7705b603          	ld	a2,1904(a1) # 1770 <.LBB103_4+0x530>
    1d74:	00ca8633          	add	a2,s5,a2
    1d78:	000015b7          	lui	a1,0x1
    1d7c:	40b405b3          	sub	a1,s0,a1
    1d80:	76c5b823          	sd	a2,1904(a1) # 1770 <.LBB103_4+0x530>
    1d84:	02d50533          	mul	a0,a0,a3
    1d88:	00068c93          	mv	s9,a3
    1d8c:	000015b7          	lui	a1,0x1
    1d90:	40b405b3          	sub	a1,s0,a1
    1d94:	7785b603          	ld	a2,1912(a1) # 1778 <.LBB103_4+0x538>
    1d98:	00c50633          	add	a2,a0,a2
    1d9c:	00001537          	lui	a0,0x1
    1da0:	40a40533          	sub	a0,s0,a0
    1da4:	76c53c23          	sd	a2,1912(a0) # 1778 <.LBB103_4+0x538>
    1da8:	03ad8533          	mul	a0,s11,s10
    1dac:	000015b7          	lui	a1,0x1
    1db0:	40b405b3          	sub	a1,s0,a1
    1db4:	7985b603          	ld	a2,1944(a1) # 1798 <.LBB103_4+0x558>
    1db8:	00c50633          	add	a2,a0,a2
    1dbc:	00001537          	lui	a0,0x1
    1dc0:	40a40533          	sub	a0,s0,a0
    1dc4:	78c53c23          	sd	a2,1944(a0) # 1798 <.LBB103_4+0x558>
    1dc8:	f3043683          	ld	a3,-208(s0)
    1dcc:	02dd8533          	mul	a0,s11,a3
    1dd0:	000015b7          	lui	a1,0x1
    1dd4:	40b405b3          	sub	a1,s0,a1
    1dd8:	7905b603          	ld	a2,1936(a1) # 1790 <.LBB103_4+0x550>
    1ddc:	00c50633          	add	a2,a0,a2
    1de0:	00001537          	lui	a0,0x1
    1de4:	40a40533          	sub	a0,s0,a0
    1de8:	78c53823          	sd	a2,1936(a0) # 1790 <.LBB103_4+0x550>
    1dec:	f3843583          	ld	a1,-200(s0)
    1df0:	02bd8533          	mul	a0,s11,a1
    1df4:	00001637          	lui	a2,0x1
    1df8:	40c40633          	sub	a2,s0,a2
    1dfc:	78863603          	ld	a2,1928(a2) # 1788 <.LBB103_4+0x548>
    1e00:	00c50633          	add	a2,a0,a2
    1e04:	00001537          	lui	a0,0x1
    1e08:	40a40533          	sub	a0,s0,a0
    1e0c:	78c53423          	sd	a2,1928(a0) # 1788 <.LBB103_4+0x548>
    1e10:	02fd8533          	mul	a0,s11,a5
    1e14:	00001637          	lui	a2,0x1
    1e18:	40c40633          	sub	a2,s0,a2
    1e1c:	78063603          	ld	a2,1920(a2) # 1780 <.LBB103_4+0x540>
    1e20:	00c50633          	add	a2,a0,a2
    1e24:	00001537          	lui	a0,0x1
    1e28:	40a40533          	sub	a0,s0,a0
    1e2c:	78c53023          	sd	a2,1920(a0) # 1780 <.LBB103_4+0x540>
    1e30:	eb043503          	ld	a0,-336(s0)
    1e34:	02ad8533          	mul	a0,s11,a0
    1e38:	00001637          	lui	a2,0x1
    1e3c:	40c40633          	sub	a2,s0,a2
    1e40:	7a063603          	ld	a2,1952(a2) # 17a0 <.LBB103_4+0x560>
    1e44:	00c50633          	add	a2,a0,a2
    1e48:	00001537          	lui	a0,0x1
    1e4c:	40a40533          	sub	a0,s0,a0
    1e50:	7ac53023          	sd	a2,1952(a0) # 17a0 <.LBB103_4+0x560>
    1e54:	f2843783          	ld	a5,-216(s0)
    1e58:	02fd8533          	mul	a0,s11,a5
    1e5c:	00001637          	lui	a2,0x1
    1e60:	40c40633          	sub	a2,s0,a2
    1e64:	7a863603          	ld	a2,1960(a2) # 17a8 <.LBB103_4+0x568>
    1e68:	00c50633          	add	a2,a0,a2
    1e6c:	00001537          	lui	a0,0x1
    1e70:	40a40533          	sub	a0,s0,a0
    1e74:	7ac53423          	sd	a2,1960(a0) # 17a8 <.LBB103_4+0x568>
    1e78:	f2043f83          	ld	t6,-224(s0)
    1e7c:	03fd8533          	mul	a0,s11,t6
    1e80:	00001637          	lui	a2,0x1
    1e84:	40c40633          	sub	a2,s0,a2
    1e88:	7b063603          	ld	a2,1968(a2) # 17b0 <.LBB103_4+0x570>
    1e8c:	00c50633          	add	a2,a0,a2
    1e90:	00001537          	lui	a0,0x1
    1e94:	40a40533          	sub	a0,s0,a0
    1e98:	7ac53823          	sd	a2,1968(a0) # 17b0 <.LBB103_4+0x570>
    1e9c:	f4043a03          	ld	s4,-192(s0)
    1ea0:	034d8533          	mul	a0,s11,s4
    1ea4:	00001637          	lui	a2,0x1
    1ea8:	40c40633          	sub	a2,s0,a2
    1eac:	7b863603          	ld	a2,1976(a2) # 17b8 <.LBB103_4+0x578>
    1eb0:	00c50633          	add	a2,a0,a2
    1eb4:	00001537          	lui	a0,0x1
    1eb8:	40a40533          	sub	a0,s0,a0
    1ebc:	7ac53c23          	sd	a2,1976(a0) # 17b8 <.LBB103_4+0x578>
    1ec0:	ea843503          	ld	a0,-344(s0)
    1ec4:	02ad8533          	mul	a0,s11,a0
    1ec8:	00001637          	lui	a2,0x1
    1ecc:	40c40633          	sub	a2,s0,a2
    1ed0:	7c063603          	ld	a2,1984(a2) # 17c0 <.LBB103_4+0x580>
    1ed4:	00c50633          	add	a2,a0,a2
    1ed8:	00001537          	lui	a0,0x1
    1edc:	40a40533          	sub	a0,s0,a0
    1ee0:	7cc53023          	sd	a2,1984(a0) # 17c0 <.LBB103_4+0x580>
    1ee4:	026d8533          	mul	a0,s11,t1
    1ee8:	00001637          	lui	a2,0x1
    1eec:	40c40633          	sub	a2,s0,a2
    1ef0:	7c863603          	ld	a2,1992(a2) # 17c8 <.LBB103_4+0x588>
    1ef4:	00c50633          	add	a2,a0,a2
    1ef8:	00001537          	lui	a0,0x1
    1efc:	40a40533          	sub	a0,s0,a0
    1f00:	7cc53423          	sd	a2,1992(a0) # 17c8 <.LBB103_4+0x588>
    1f04:	032d8533          	mul	a0,s11,s2
    1f08:	00001637          	lui	a2,0x1
    1f0c:	40c40633          	sub	a2,s0,a2
    1f10:	7d063603          	ld	a2,2000(a2) # 17d0 <.LBB103_4+0x590>
    1f14:	00c50633          	add	a2,a0,a2
    1f18:	00001537          	lui	a0,0x1
    1f1c:	40a40533          	sub	a0,s0,a0
    1f20:	7cc53823          	sd	a2,2000(a0) # 17d0 <.LBB103_4+0x590>
    1f24:	025d8533          	mul	a0,s11,t0
    1f28:	00001637          	lui	a2,0x1
    1f2c:	40c40633          	sub	a2,s0,a2
    1f30:	7d863603          	ld	a2,2008(a2) # 17d8 <.LBB103_4+0x598>
    1f34:	00c50633          	add	a2,a0,a2
    1f38:	00001537          	lui	a0,0x1
    1f3c:	40a40533          	sub	a0,s0,a0
    1f40:	7cc53c23          	sd	a2,2008(a0) # 17d8 <.LBB103_4+0x598>
    1f44:	03ed8533          	mul	a0,s11,t5
    1f48:	00001637          	lui	a2,0x1
    1f4c:	40c40633          	sub	a2,s0,a2
    1f50:	7e063603          	ld	a2,2016(a2) # 17e0 <.LBB103_4+0x5a0>
    1f54:	00c50633          	add	a2,a0,a2
    1f58:	00001537          	lui	a0,0x1
    1f5c:	40a40533          	sub	a0,s0,a0
    1f60:	7ec53023          	sd	a2,2016(a0) # 17e0 <.LBB103_4+0x5a0>
    1f64:	03dd8533          	mul	a0,s11,t4
    1f68:	00001637          	lui	a2,0x1
    1f6c:	40c40633          	sub	a2,s0,a2
    1f70:	7e863603          	ld	a2,2024(a2) # 17e8 <.LBB103_4+0x5a8>
    1f74:	00c50633          	add	a2,a0,a2
    1f78:	00001537          	lui	a0,0x1
    1f7c:	40a40533          	sub	a0,s0,a0
    1f80:	7ec53423          	sd	a2,2024(a0) # 17e8 <.LBB103_4+0x5a8>
    1f84:	03cd8533          	mul	a0,s11,t3
    1f88:	00001637          	lui	a2,0x1
    1f8c:	40c40633          	sub	a2,s0,a2
    1f90:	7f063603          	ld	a2,2032(a2) # 17f0 <.LBB103_4+0x5b0>
    1f94:	00c50633          	add	a2,a0,a2
    1f98:	00001537          	lui	a0,0x1
    1f9c:	40a40533          	sub	a0,s0,a0
    1fa0:	7ec53823          	sd	a2,2032(a0) # 17f0 <.LBB103_4+0x5b0>
    1fa4:	027d8533          	mul	a0,s11,t2
    1fa8:	e6743423          	sd	t2,-408(s0)
    1fac:	00001637          	lui	a2,0x1
    1fb0:	40c40633          	sub	a2,s0,a2
    1fb4:	7f863603          	ld	a2,2040(a2) # 17f8 <.LBB103_4+0x5b8>
    1fb8:	00c50633          	add	a2,a0,a2
    1fbc:	00001537          	lui	a0,0x1
    1fc0:	40a40533          	sub	a0,s0,a0
    1fc4:	7ec53c23          	sd	a2,2040(a0) # 17f8 <.LBB103_4+0x5b8>
    1fc8:	031d8533          	mul	a0,s11,a7
    1fcc:	80043603          	ld	a2,-2048(s0)
    1fd0:	00c50633          	add	a2,a0,a2
    1fd4:	80c43023          	sd	a2,-2048(s0)
    1fd8:	e9843303          	ld	t1,-360(s0)
    1fdc:	026d8533          	mul	a0,s11,t1
    1fe0:	80843603          	ld	a2,-2040(s0)
    1fe4:	00c50633          	add	a2,a0,a2
    1fe8:	80c43423          	sd	a2,-2040(s0)
    1fec:	f5043483          	ld	s1,-176(s0)
    1ff0:	029d8533          	mul	a0,s11,s1
    1ff4:	81043603          	ld	a2,-2032(s0)
    1ff8:	00c50633          	add	a2,a0,a2
    1ffc:	80c43823          	sd	a2,-2032(s0)
    2000:	033d8533          	mul	a0,s11,s3
    2004:	81843603          	ld	a2,-2024(s0)
    2008:	00c50633          	add	a2,a0,a2
    200c:	80c43c23          	sd	a2,-2024(s0)
    2010:	eb843b03          	ld	s6,-328(s0)
    2014:	036d8533          	mul	a0,s11,s6
    2018:	82043603          	ld	a2,-2016(s0)
    201c:	00c50633          	add	a2,a0,a2
    2020:	82c43023          	sd	a2,-2016(s0)
    2024:	e5043e83          	ld	t4,-432(s0)
    2028:	03dd8533          	mul	a0,s11,t4
    202c:	82843603          	ld	a2,-2008(s0)
    2030:	00c50633          	add	a2,a0,a2
    2034:	82c43423          	sd	a2,-2008(s0)
    2038:	f4843503          	ld	a0,-184(s0)
    203c:	02ad8533          	mul	a0,s11,a0
    2040:	83043603          	ld	a2,-2000(s0)
    2044:	00c50633          	add	a2,a0,a2
    2048:	82c43823          	sd	a2,-2000(s0)
    204c:	ea043d03          	ld	s10,-352(s0)
    2050:	03ad8533          	mul	a0,s11,s10
    2054:	83843603          	ld	a2,-1992(s0)
    2058:	00c50633          	add	a2,a0,a2
    205c:	82c43c23          	sd	a2,-1992(s0)
    2060:	e5743423          	sd	s7,-440(s0)
    2064:	037d8533          	mul	a0,s11,s7
    2068:	84043603          	ld	a2,-1984(s0)
    206c:	00c50633          	add	a2,a0,a2
    2070:	84c43023          	sd	a2,-1984(s0)
    2074:	f7043503          	ld	a0,-144(s0)
    2078:	02ad8533          	mul	a0,s11,a0
    207c:	84843603          	ld	a2,-1976(s0)
    2080:	00c50633          	add	a2,a0,a2
    2084:	84c43423          	sd	a2,-1976(s0)
    2088:	f5843f03          	ld	t5,-168(s0)
    208c:	03ed8533          	mul	a0,s11,t5
    2090:	85043603          	ld	a2,-1968(s0)
    2094:	00c50633          	add	a2,a0,a2
    2098:	84c43823          	sd	a2,-1968(s0)
    209c:	021d8533          	mul	a0,s11,ra
    20a0:	e6143023          	sd	ra,-416(s0)
    20a4:	85843603          	ld	a2,-1960(s0)
    20a8:	00c50633          	add	a2,a0,a2
    20ac:	84c43c23          	sd	a2,-1960(s0)
    20b0:	038d8533          	mul	a0,s11,s8
    20b4:	86043603          	ld	a2,-1952(s0)
    20b8:	00c50633          	add	a2,a0,a2
    20bc:	86c43023          	sd	a2,-1952(s0)
    20c0:	030d8533          	mul	a0,s11,a6
    20c4:	00080293          	mv	t0,a6
    20c8:	86843603          	ld	a2,-1944(s0)
    20cc:	00c50633          	add	a2,a0,a2
    20d0:	86c43423          	sd	a2,-1944(s0)
    20d4:	9c070503          	lb	a0,-1600(a4)
    20d8:	00070893          	mv	a7,a4
    20dc:	f8e43023          	sd	a4,-128(s0)
    20e0:	e8043e03          	ld	t3,-384(s0)
    20e4:	03cd8ab3          	mul	s5,s11,t3
    20e8:	87043603          	ld	a2,-1936(s0)
    20ec:	00ca8633          	add	a2,s5,a2
    20f0:	86c43823          	sd	a2,-1936(s0)
    20f4:	039d8ab3          	mul	s5,s11,s9
    20f8:	e5943023          	sd	s9,-448(s0)
    20fc:	87843603          	ld	a2,-1928(s0)
    2100:	00ca8633          	add	a2,s5,a2
    2104:	86c43c23          	sd	a2,-1928(s0)
    2108:	e9043903          	ld	s2,-368(s0)
    210c:	03250ab3          	mul	s5,a0,s2
    2110:	89843603          	ld	a2,-1896(s0)
    2114:	00ca8633          	add	a2,s5,a2
    2118:	88c43c23          	sd	a2,-1896(s0)
    211c:	02d50ab3          	mul	s5,a0,a3
    2120:	89043603          	ld	a2,-1904(s0)
    2124:	00ca8633          	add	a2,s5,a2
    2128:	88c43823          	sd	a2,-1904(s0)
    212c:	02b50ab3          	mul	s5,a0,a1
    2130:	88843603          	ld	a2,-1912(s0)
    2134:	00ca8633          	add	a2,s5,a2
    2138:	88c43423          	sd	a2,-1912(s0)
    213c:	e7043c03          	ld	s8,-400(s0)
    2140:	03850ab3          	mul	s5,a0,s8
    2144:	88043603          	ld	a2,-1920(s0)
    2148:	00ca8633          	add	a2,s5,a2
    214c:	88c43023          	sd	a2,-1920(s0)
    2150:	eb043583          	ld	a1,-336(s0)
    2154:	02b50ab3          	mul	s5,a0,a1
    2158:	8a043603          	ld	a2,-1888(s0)
    215c:	00ca8633          	add	a2,s5,a2
    2160:	8ac43023          	sd	a2,-1888(s0)
    2164:	02f50ab3          	mul	s5,a0,a5
    2168:	8a843603          	ld	a2,-1880(s0)
    216c:	00ca8633          	add	a2,s5,a2
    2170:	8ac43423          	sd	a2,-1880(s0)
    2174:	03f50ab3          	mul	s5,a0,t6
    2178:	8b043603          	ld	a2,-1872(s0)
    217c:	00ca8633          	add	a2,s5,a2
    2180:	8ac43823          	sd	a2,-1872(s0)
    2184:	03450ab3          	mul	s5,a0,s4
    2188:	8b843603          	ld	a2,-1864(s0)
    218c:	00ca8633          	add	a2,s5,a2
    2190:	8ac43c23          	sd	a2,-1864(s0)
    2194:	ea843803          	ld	a6,-344(s0)
    2198:	03050ab3          	mul	s5,a0,a6
    219c:	8c043603          	ld	a2,-1856(s0)
    21a0:	00ca8633          	add	a2,s5,a2
    21a4:	8cc43023          	sd	a2,-1856(s0)
    21a8:	e3043a03          	ld	s4,-464(s0)
    21ac:	03450ab3          	mul	s5,a0,s4
    21b0:	8c843603          	ld	a2,-1848(s0)
    21b4:	00ca8633          	add	a2,s5,a2
    21b8:	8cc43423          	sd	a2,-1848(s0)
    21bc:	e7843f83          	ld	t6,-392(s0)
    21c0:	03f50ab3          	mul	s5,a0,t6
    21c4:	8d043603          	ld	a2,-1840(s0)
    21c8:	00ca8633          	add	a2,s5,a2
    21cc:	8cc43823          	sd	a2,-1840(s0)
    21d0:	ec843603          	ld	a2,-312(s0)
    21d4:	02c50ab3          	mul	s5,a0,a2
    21d8:	8d843603          	ld	a2,-1832(s0)
    21dc:	00ca8633          	add	a2,s5,a2
    21e0:	8cc43c23          	sd	a2,-1832(s0)
    21e4:	f6843603          	ld	a2,-152(s0)
    21e8:	02c50ab3          	mul	s5,a0,a2
    21ec:	8e043603          	ld	a2,-1824(s0)
    21f0:	00ca8633          	add	a2,s5,a2
    21f4:	8ec43023          	sd	a2,-1824(s0)
    21f8:	f6043603          	ld	a2,-160(s0)
    21fc:	02c50ab3          	mul	s5,a0,a2
    2200:	8e843603          	ld	a2,-1816(s0)
    2204:	00ca8633          	add	a2,s5,a2
    2208:	8ec43423          	sd	a2,-1816(s0)
    220c:	ec043603          	ld	a2,-320(s0)
    2210:	02c50ab3          	mul	s5,a0,a2
    2214:	8f043603          	ld	a2,-1808(s0)
    2218:	00ca8633          	add	a2,s5,a2
    221c:	8ec43823          	sd	a2,-1808(s0)
    2220:	02750ab3          	mul	s5,a0,t2
    2224:	8f843603          	ld	a2,-1800(s0)
    2228:	00ca8633          	add	a2,s5,a2
    222c:	8ec43c23          	sd	a2,-1800(s0)
    2230:	f7843603          	ld	a2,-136(s0)
    2234:	02c50ab3          	mul	s5,a0,a2
    2238:	90043603          	ld	a2,-1792(s0)
    223c:	00ca8633          	add	a2,s5,a2
    2240:	90c43023          	sd	a2,-1792(s0)
    2244:	02650ab3          	mul	s5,a0,t1
    2248:	90843603          	ld	a2,-1784(s0)
    224c:	00ca8633          	add	a2,s5,a2
    2250:	90c43423          	sd	a2,-1784(s0)
    2254:	02950ab3          	mul	s5,a0,s1
    2258:	91043603          	ld	a2,-1776(s0)
    225c:	00ca8633          	add	a2,s5,a2
    2260:	90c43823          	sd	a2,-1776(s0)
    2264:	03350ab3          	mul	s5,a0,s3
    2268:	91843603          	ld	a2,-1768(s0)
    226c:	00ca8633          	add	a2,s5,a2
    2270:	90c43c23          	sd	a2,-1768(s0)
    2274:	03650ab3          	mul	s5,a0,s6
    2278:	92043603          	ld	a2,-1760(s0)
    227c:	00ca8633          	add	a2,s5,a2
    2280:	92c43023          	sd	a2,-1760(s0)
    2284:	03d50ab3          	mul	s5,a0,t4
    2288:	92843603          	ld	a2,-1752(s0)
    228c:	00ca8633          	add	a2,s5,a2
    2290:	92c43423          	sd	a2,-1752(s0)
    2294:	f4843e83          	ld	t4,-184(s0)
    2298:	03d50ab3          	mul	s5,a0,t4
    229c:	93043603          	ld	a2,-1744(s0)
    22a0:	00ca8633          	add	a2,s5,a2
    22a4:	92c43823          	sd	a2,-1744(s0)
    22a8:	03a50ab3          	mul	s5,a0,s10
    22ac:	93843603          	ld	a2,-1736(s0)
    22b0:	00ca8633          	add	a2,s5,a2
    22b4:	92c43c23          	sd	a2,-1736(s0)
    22b8:	03750ab3          	mul	s5,a0,s7
    22bc:	94043603          	ld	a2,-1728(s0)
    22c0:	00ca8633          	add	a2,s5,a2
    22c4:	94c43023          	sd	a2,-1728(s0)
    22c8:	f7043683          	ld	a3,-144(s0)
    22cc:	02d50ab3          	mul	s5,a0,a3
    22d0:	94843603          	ld	a2,-1720(s0)
    22d4:	00ca8633          	add	a2,s5,a2
    22d8:	94c43423          	sd	a2,-1720(s0)
    22dc:	03e50ab3          	mul	s5,a0,t5
    22e0:	95043603          	ld	a2,-1712(s0)
    22e4:	00ca8633          	add	a2,s5,a2
    22e8:	94c43823          	sd	a2,-1712(s0)
    22ec:	02150ab3          	mul	s5,a0,ra
    22f0:	95843603          	ld	a2,-1704(s0)
    22f4:	00ca8633          	add	a2,s5,a2
    22f8:	94c43c23          	sd	a2,-1704(s0)
    22fc:	e3843703          	ld	a4,-456(s0)
    2300:	02e50ab3          	mul	s5,a0,a4
    2304:	96043603          	ld	a2,-1696(s0)
    2308:	00ca8633          	add	a2,s5,a2
    230c:	96c43023          	sd	a2,-1696(s0)
    2310:	02550ab3          	mul	s5,a0,t0
    2314:	00028b93          	mv	s7,t0
    2318:	e4543c23          	sd	t0,-424(s0)
    231c:	96843603          	ld	a2,-1688(s0)
    2320:	00ca8633          	add	a2,s5,a2
    2324:	96c43423          	sd	a2,-1688(s0)
    2328:	b0088d83          	lb	s11,-1280(a7)
    232c:	03c50ab3          	mul	s5,a0,t3
    2330:	97043603          	ld	a2,-1680(s0)
    2334:	00ca8633          	add	a2,s5,a2
    2338:	96c43823          	sd	a2,-1680(s0)
    233c:	03950533          	mul	a0,a0,s9
    2340:	97843603          	ld	a2,-1672(s0)
    2344:	00c50633          	add	a2,a0,a2
    2348:	96c43c23          	sd	a2,-1672(s0)
    234c:	00090393          	mv	t2,s2
    2350:	032d8533          	mul	a0,s11,s2
    2354:	99843603          	ld	a2,-1640(s0)
    2358:	00c50633          	add	a2,a0,a2
    235c:	98c43c23          	sd	a2,-1640(s0)
    2360:	f3043283          	ld	t0,-208(s0)
    2364:	025d8533          	mul	a0,s11,t0
    2368:	99043603          	ld	a2,-1648(s0)
    236c:	00c50633          	add	a2,a0,a2
    2370:	98c43823          	sd	a2,-1648(s0)
    2374:	f3843f03          	ld	t5,-200(s0)
    2378:	03ed8533          	mul	a0,s11,t5
    237c:	98843603          	ld	a2,-1656(s0)
    2380:	00c50633          	add	a2,a0,a2
    2384:	98c43423          	sd	a2,-1656(s0)
    2388:	038d8533          	mul	a0,s11,s8
    238c:	000c0c93          	mv	s9,s8
    2390:	98043603          	ld	a2,-1664(s0)
    2394:	00c50633          	add	a2,a0,a2
    2398:	98c43023          	sd	a2,-1664(s0)
    239c:	00058793          	mv	a5,a1
    23a0:	02bd8533          	mul	a0,s11,a1
    23a4:	9a043603          	ld	a2,-1632(s0)
    23a8:	00c50633          	add	a2,a0,a2
    23ac:	9ac43023          	sd	a2,-1632(s0)
    23b0:	f2843583          	ld	a1,-216(s0)
    23b4:	02bd8533          	mul	a0,s11,a1
    23b8:	9a843603          	ld	a2,-1624(s0)
    23bc:	00c50633          	add	a2,a0,a2
    23c0:	9ac43423          	sd	a2,-1624(s0)
    23c4:	f2043d03          	ld	s10,-224(s0)
    23c8:	03ad8533          	mul	a0,s11,s10
    23cc:	9b043603          	ld	a2,-1616(s0)
    23d0:	00c50633          	add	a2,a0,a2
    23d4:	9ac43823          	sd	a2,-1616(s0)
    23d8:	f4043083          	ld	ra,-192(s0)
    23dc:	021d8533          	mul	a0,s11,ra
    23e0:	9b843603          	ld	a2,-1608(s0)
    23e4:	00c50633          	add	a2,a0,a2
    23e8:	9ac43c23          	sd	a2,-1608(s0)
    23ec:	030d8533          	mul	a0,s11,a6
    23f0:	9c043603          	ld	a2,-1600(s0)
    23f4:	00c50633          	add	a2,a0,a2
    23f8:	9cc43023          	sd	a2,-1600(s0)
    23fc:	034d8533          	mul	a0,s11,s4
    2400:	9c843603          	ld	a2,-1592(s0)
    2404:	00c50633          	add	a2,a0,a2
    2408:	9cc43423          	sd	a2,-1592(s0)
    240c:	000f8913          	mv	s2,t6
    2410:	03fd8533          	mul	a0,s11,t6
    2414:	9d043603          	ld	a2,-1584(s0)
    2418:	00c50633          	add	a2,a0,a2
    241c:	9cc43823          	sd	a2,-1584(s0)
    2420:	ec843f83          	ld	t6,-312(s0)
    2424:	03fd8533          	mul	a0,s11,t6
    2428:	9d843603          	ld	a2,-1576(s0)
    242c:	00c50633          	add	a2,a0,a2
    2430:	9cc43c23          	sd	a2,-1576(s0)
    2434:	f6843883          	ld	a7,-152(s0)
    2438:	031d8533          	mul	a0,s11,a7
    243c:	9e043603          	ld	a2,-1568(s0)
    2440:	00c50633          	add	a2,a0,a2
    2444:	9ec43023          	sd	a2,-1568(s0)
    2448:	f6043483          	ld	s1,-160(s0)
    244c:	029d8533          	mul	a0,s11,s1
    2450:	9e843603          	ld	a2,-1560(s0)
    2454:	00c50633          	add	a2,a0,a2
    2458:	9ec43423          	sd	a2,-1560(s0)
    245c:	ec043503          	ld	a0,-320(s0)
    2460:	02ad8533          	mul	a0,s11,a0
    2464:	9f043603          	ld	a2,-1552(s0)
    2468:	00c50633          	add	a2,a0,a2
    246c:	9ec43823          	sd	a2,-1552(s0)
    2470:	e6843503          	ld	a0,-408(s0)
    2474:	02ad8533          	mul	a0,s11,a0
    2478:	9f843603          	ld	a2,-1544(s0)
    247c:	00c50633          	add	a2,a0,a2
    2480:	9ec43c23          	sd	a2,-1544(s0)
    2484:	f7843503          	ld	a0,-136(s0)
    2488:	02ad8533          	mul	a0,s11,a0
    248c:	a0043603          	ld	a2,-1536(s0)
    2490:	00c50633          	add	a2,a0,a2
    2494:	a0c43023          	sd	a2,-1536(s0)
    2498:	026d8533          	mul	a0,s11,t1
    249c:	a0843603          	ld	a2,-1528(s0)
    24a0:	00c50633          	add	a2,a0,a2
    24a4:	a0c43423          	sd	a2,-1528(s0)
    24a8:	f5043303          	ld	t1,-176(s0)
    24ac:	026d8533          	mul	a0,s11,t1
    24b0:	a1043603          	ld	a2,-1520(s0)
    24b4:	00c50633          	add	a2,a0,a2
    24b8:	a0c43823          	sd	a2,-1520(s0)
    24bc:	033d8533          	mul	a0,s11,s3
    24c0:	a1843603          	ld	a2,-1512(s0)
    24c4:	00c50633          	add	a2,a0,a2
    24c8:	a0c43c23          	sd	a2,-1512(s0)
    24cc:	036d8533          	mul	a0,s11,s6
    24d0:	a2043603          	ld	a2,-1504(s0)
    24d4:	00c50633          	add	a2,a0,a2
    24d8:	a2c43023          	sd	a2,-1504(s0)
    24dc:	e5043803          	ld	a6,-432(s0)
    24e0:	030d8533          	mul	a0,s11,a6
    24e4:	a2843603          	ld	a2,-1496(s0)
    24e8:	00c50633          	add	a2,a0,a2
    24ec:	a2c43423          	sd	a2,-1496(s0)
    24f0:	03dd8533          	mul	a0,s11,t4
    24f4:	a3043603          	ld	a2,-1488(s0)
    24f8:	00c50633          	add	a2,a0,a2
    24fc:	a2c43823          	sd	a2,-1488(s0)
    2500:	ea043e83          	ld	t4,-352(s0)
    2504:	03dd8533          	mul	a0,s11,t4
    2508:	a3843603          	ld	a2,-1480(s0)
    250c:	00c50633          	add	a2,a0,a2
    2510:	a2c43c23          	sd	a2,-1480(s0)
    2514:	e4843c03          	ld	s8,-440(s0)
    2518:	038d8533          	mul	a0,s11,s8
    251c:	a4043603          	ld	a2,-1472(s0)
    2520:	00c50633          	add	a2,a0,a2
    2524:	a4c43023          	sd	a2,-1472(s0)
    2528:	02dd8533          	mul	a0,s11,a3
    252c:	a4843603          	ld	a2,-1464(s0)
    2530:	00c50633          	add	a2,a0,a2
    2534:	a4c43423          	sd	a2,-1464(s0)
    2538:	f5843503          	ld	a0,-168(s0)
    253c:	02ad8533          	mul	a0,s11,a0
    2540:	a5043603          	ld	a2,-1456(s0)
    2544:	00c50633          	add	a2,a0,a2
    2548:	a4c43823          	sd	a2,-1456(s0)
    254c:	e6043503          	ld	a0,-416(s0)
    2550:	02ad8533          	mul	a0,s11,a0
    2554:	a5843603          	ld	a2,-1448(s0)
    2558:	00c50633          	add	a2,a0,a2
    255c:	a4c43c23          	sd	a2,-1448(s0)
    2560:	02ed8533          	mul	a0,s11,a4
    2564:	a6043603          	ld	a2,-1440(s0)
    2568:	00c50633          	add	a2,a0,a2
    256c:	a6c43023          	sd	a2,-1440(s0)
    2570:	037d8533          	mul	a0,s11,s7
    2574:	a6843603          	ld	a2,-1432(s0)
    2578:	00c50633          	add	a2,a0,a2
    257c:	a6c43423          	sd	a2,-1432(s0)
    2580:	f8043983          	ld	s3,-128(s0)
    2584:	c4098503          	lb	a0,-960(s3)
    2588:	03cd8ab3          	mul	s5,s11,t3
    258c:	a7043603          	ld	a2,-1424(s0)
    2590:	00ca8633          	add	a2,s5,a2
    2594:	a6c43823          	sd	a2,-1424(s0)
    2598:	e4043703          	ld	a4,-448(s0)
    259c:	02ed8ab3          	mul	s5,s11,a4
    25a0:	a7843603          	ld	a2,-1416(s0)
    25a4:	00ca8633          	add	a2,s5,a2
    25a8:	a6c43c23          	sd	a2,-1416(s0)
    25ac:	02750ab3          	mul	s5,a0,t2
    25b0:	a9843603          	ld	a2,-1384(s0)
    25b4:	00ca8633          	add	a2,s5,a2
    25b8:	a8c43c23          	sd	a2,-1384(s0)
    25bc:	02550ab3          	mul	s5,a0,t0
    25c0:	a9043603          	ld	a2,-1392(s0)
    25c4:	00ca8633          	add	a2,s5,a2
    25c8:	a8c43823          	sd	a2,-1392(s0)
    25cc:	03e50ab3          	mul	s5,a0,t5
    25d0:	a8843603          	ld	a2,-1400(s0)
    25d4:	00ca8633          	add	a2,s5,a2
    25d8:	a8c43423          	sd	a2,-1400(s0)
    25dc:	03950ab3          	mul	s5,a0,s9
    25e0:	a8043603          	ld	a2,-1408(s0)
    25e4:	00ca8633          	add	a2,s5,a2
    25e8:	a8c43023          	sd	a2,-1408(s0)
    25ec:	02f50ab3          	mul	s5,a0,a5
    25f0:	aa043603          	ld	a2,-1376(s0)
    25f4:	00ca8633          	add	a2,s5,a2
    25f8:	aac43023          	sd	a2,-1376(s0)
    25fc:	02b50ab3          	mul	s5,a0,a1
    2600:	aa843603          	ld	a2,-1368(s0)
    2604:	00ca8633          	add	a2,s5,a2
    2608:	aac43423          	sd	a2,-1368(s0)
    260c:	03a50ab3          	mul	s5,a0,s10
    2610:	ab043603          	ld	a2,-1360(s0)
    2614:	00ca8633          	add	a2,s5,a2
    2618:	aac43823          	sd	a2,-1360(s0)
    261c:	00008693          	mv	a3,ra
    2620:	02150ab3          	mul	s5,a0,ra
    2624:	ab843603          	ld	a2,-1352(s0)
    2628:	00ca8633          	add	a2,s5,a2
    262c:	aac43c23          	sd	a2,-1352(s0)
    2630:	ea843d03          	ld	s10,-344(s0)
    2634:	03a50ab3          	mul	s5,a0,s10
    2638:	ac043603          	ld	a2,-1344(s0)
    263c:	00ca8633          	add	a2,s5,a2
    2640:	acc43023          	sd	a2,-1344(s0)
    2644:	03450ab3          	mul	s5,a0,s4
    2648:	ac843603          	ld	a2,-1336(s0)
    264c:	00ca8633          	add	a2,s5,a2
    2650:	acc43423          	sd	a2,-1336(s0)
    2654:	03250ab3          	mul	s5,a0,s2
    2658:	ad043603          	ld	a2,-1328(s0)
    265c:	00ca8633          	add	a2,s5,a2
    2660:	acc43823          	sd	a2,-1328(s0)
    2664:	03f50ab3          	mul	s5,a0,t6
    2668:	ad843603          	ld	a2,-1320(s0)
    266c:	00ca8633          	add	a2,s5,a2
    2670:	acc43c23          	sd	a2,-1320(s0)
    2674:	03150ab3          	mul	s5,a0,a7
    2678:	ae043603          	ld	a2,-1312(s0)
    267c:	00ca8633          	add	a2,s5,a2
    2680:	aec43023          	sd	a2,-1312(s0)
    2684:	02950ab3          	mul	s5,a0,s1
    2688:	ae843603          	ld	a2,-1304(s0)
    268c:	00ca8633          	add	a2,s5,a2
    2690:	aec43423          	sd	a2,-1304(s0)
    2694:	ec043903          	ld	s2,-320(s0)
    2698:	03250ab3          	mul	s5,a0,s2
    269c:	af043603          	ld	a2,-1296(s0)
    26a0:	00ca8633          	add	a2,s5,a2
    26a4:	aec43823          	sd	a2,-1296(s0)
    26a8:	e6843383          	ld	t2,-408(s0)
    26ac:	02750ab3          	mul	s5,a0,t2
    26b0:	af843603          	ld	a2,-1288(s0)
    26b4:	00ca8633          	add	a2,s5,a2
    26b8:	aec43c23          	sd	a2,-1288(s0)
    26bc:	f7843f03          	ld	t5,-136(s0)
    26c0:	03e50ab3          	mul	s5,a0,t5
    26c4:	b0043603          	ld	a2,-1280(s0)
    26c8:	00ca8633          	add	a2,s5,a2
    26cc:	b0c43023          	sd	a2,-1280(s0)
    26d0:	e9843883          	ld	a7,-360(s0)
    26d4:	03150ab3          	mul	s5,a0,a7
    26d8:	b0843603          	ld	a2,-1272(s0)
    26dc:	00ca8633          	add	a2,s5,a2
    26e0:	b0c43423          	sd	a2,-1272(s0)
    26e4:	02650ab3          	mul	s5,a0,t1
    26e8:	b1043603          	ld	a2,-1264(s0)
    26ec:	00ca8633          	add	a2,s5,a2
    26f0:	b0c43823          	sd	a2,-1264(s0)
    26f4:	e8843303          	ld	t1,-376(s0)
    26f8:	02650ab3          	mul	s5,a0,t1
    26fc:	b1843603          	ld	a2,-1256(s0)
    2700:	00ca8633          	add	a2,s5,a2
    2704:	b0c43c23          	sd	a2,-1256(s0)
    2708:	03650ab3          	mul	s5,a0,s6
    270c:	b2043603          	ld	a2,-1248(s0)
    2710:	00ca8633          	add	a2,s5,a2
    2714:	b2c43023          	sd	a2,-1248(s0)
    2718:	00080493          	mv	s1,a6
    271c:	03050ab3          	mul	s5,a0,a6
    2720:	b2843603          	ld	a2,-1240(s0)
    2724:	00ca8633          	add	a2,s5,a2
    2728:	b2c43423          	sd	a2,-1240(s0)
    272c:	f4843c83          	ld	s9,-184(s0)
    2730:	03950ab3          	mul	s5,a0,s9
    2734:	b3043603          	ld	a2,-1232(s0)
    2738:	00ca8633          	add	a2,s5,a2
    273c:	b2c43823          	sd	a2,-1232(s0)
    2740:	03d50ab3          	mul	s5,a0,t4
    2744:	b3843603          	ld	a2,-1224(s0)
    2748:	00ca8633          	add	a2,s5,a2
    274c:	b2c43c23          	sd	a2,-1224(s0)
    2750:	03850ab3          	mul	s5,a0,s8
    2754:	b4043603          	ld	a2,-1216(s0)
    2758:	00ca8633          	add	a2,s5,a2
    275c:	b4c43023          	sd	a2,-1216(s0)
    2760:	f7043b83          	ld	s7,-144(s0)
    2764:	03750ab3          	mul	s5,a0,s7
    2768:	b4843603          	ld	a2,-1208(s0)
    276c:	00ca8633          	add	a2,s5,a2
    2770:	b4c43423          	sd	a2,-1208(s0)
    2774:	f5843e03          	ld	t3,-168(s0)
    2778:	03c50ab3          	mul	s5,a0,t3
    277c:	b5043603          	ld	a2,-1200(s0)
    2780:	00ca8633          	add	a2,s5,a2
    2784:	b4c43823          	sd	a2,-1200(s0)
    2788:	e6043c03          	ld	s8,-416(s0)
    278c:	03850ab3          	mul	s5,a0,s8
    2790:	b5843603          	ld	a2,-1192(s0)
    2794:	00ca8633          	add	a2,s5,a2
    2798:	b4c43c23          	sd	a2,-1192(s0)
    279c:	e3843803          	ld	a6,-456(s0)
    27a0:	03050ab3          	mul	s5,a0,a6
    27a4:	b6043603          	ld	a2,-1184(s0)
    27a8:	00ca8633          	add	a2,s5,a2
    27ac:	b6c43023          	sd	a2,-1184(s0)
    27b0:	e5843583          	ld	a1,-424(s0)
    27b4:	02b50ab3          	mul	s5,a0,a1
    27b8:	b6843603          	ld	a2,-1176(s0)
    27bc:	00ca8633          	add	a2,s5,a2
    27c0:	b6c43423          	sd	a2,-1176(s0)
    27c4:	d8098d83          	lb	s11,-640(s3)
    27c8:	e8043283          	ld	t0,-384(s0)
    27cc:	02550ab3          	mul	s5,a0,t0
    27d0:	b7043603          	ld	a2,-1168(s0)
    27d4:	00ca8633          	add	a2,s5,a2
    27d8:	b6c43823          	sd	a2,-1168(s0)
    27dc:	02e50533          	mul	a0,a0,a4
    27e0:	b7843603          	ld	a2,-1160(s0)
    27e4:	00c50633          	add	a2,a0,a2
    27e8:	b6c43c23          	sd	a2,-1160(s0)
    27ec:	e9043083          	ld	ra,-368(s0)
    27f0:	021d8533          	mul	a0,s11,ra
    27f4:	b9843603          	ld	a2,-1128(s0)
    27f8:	00c50633          	add	a2,a0,a2
    27fc:	b8c43c23          	sd	a2,-1128(s0)
    2800:	f3043583          	ld	a1,-208(s0)
    2804:	02bd8533          	mul	a0,s11,a1
    2808:	b9043603          	ld	a2,-1136(s0)
    280c:	00c50633          	add	a2,a0,a2
    2810:	b8c43823          	sd	a2,-1136(s0)
    2814:	f3843983          	ld	s3,-200(s0)
    2818:	033d8533          	mul	a0,s11,s3
    281c:	b8843603          	ld	a2,-1144(s0)
    2820:	00c50633          	add	a2,a0,a2
    2824:	b8c43423          	sd	a2,-1144(s0)
    2828:	e7043b03          	ld	s6,-400(s0)
    282c:	036d8533          	mul	a0,s11,s6
    2830:	b8043603          	ld	a2,-1152(s0)
    2834:	00c50633          	add	a2,a0,a2
    2838:	b8c43023          	sd	a2,-1152(s0)
    283c:	00078713          	mv	a4,a5
    2840:	02fd8533          	mul	a0,s11,a5
    2844:	ba043603          	ld	a2,-1120(s0)
    2848:	00c50633          	add	a2,a0,a2
    284c:	bac43023          	sd	a2,-1120(s0)
    2850:	f2843783          	ld	a5,-216(s0)
    2854:	02fd8533          	mul	a0,s11,a5
    2858:	ba843603          	ld	a2,-1112(s0)
    285c:	00c50633          	add	a2,a0,a2
    2860:	bac43423          	sd	a2,-1112(s0)
    2864:	f2043e83          	ld	t4,-224(s0)
    2868:	03dd8533          	mul	a0,s11,t4
    286c:	bb043603          	ld	a2,-1104(s0)
    2870:	00c50633          	add	a2,a0,a2
    2874:	bac43823          	sd	a2,-1104(s0)
    2878:	02dd8533          	mul	a0,s11,a3
    287c:	bb843603          	ld	a2,-1096(s0)
    2880:	00c50633          	add	a2,a0,a2
    2884:	bac43c23          	sd	a2,-1096(s0)
    2888:	03ad8533          	mul	a0,s11,s10
    288c:	bc043603          	ld	a2,-1088(s0)
    2890:	00c50633          	add	a2,a0,a2
    2894:	bcc43023          	sd	a2,-1088(s0)
    2898:	034d8533          	mul	a0,s11,s4
    289c:	bc843603          	ld	a2,-1080(s0)
    28a0:	00c50633          	add	a2,a0,a2
    28a4:	bcc43423          	sd	a2,-1080(s0)
    28a8:	e7843683          	ld	a3,-392(s0)
    28ac:	02dd8533          	mul	a0,s11,a3
    28b0:	bd043603          	ld	a2,-1072(s0)
    28b4:	00c50633          	add	a2,a0,a2
    28b8:	bcc43823          	sd	a2,-1072(s0)
    28bc:	03fd8533          	mul	a0,s11,t6
    28c0:	bd843603          	ld	a2,-1064(s0)
    28c4:	00c50633          	add	a2,a0,a2
    28c8:	bcc43c23          	sd	a2,-1064(s0)
    28cc:	f6843503          	ld	a0,-152(s0)
    28d0:	02ad8533          	mul	a0,s11,a0
    28d4:	be043603          	ld	a2,-1056(s0)
    28d8:	00c50633          	add	a2,a0,a2
    28dc:	bec43023          	sd	a2,-1056(s0)
    28e0:	f6043503          	ld	a0,-160(s0)
    28e4:	02ad8533          	mul	a0,s11,a0
    28e8:	be843603          	ld	a2,-1048(s0)
    28ec:	00c50633          	add	a2,a0,a2
    28f0:	bec43423          	sd	a2,-1048(s0)
    28f4:	00090a13          	mv	s4,s2
    28f8:	032d8533          	mul	a0,s11,s2
    28fc:	bf043603          	ld	a2,-1040(s0)
    2900:	00c50633          	add	a2,a0,a2
    2904:	bec43823          	sd	a2,-1040(s0)
    2908:	027d8533          	mul	a0,s11,t2
    290c:	bf843603          	ld	a2,-1032(s0)
    2910:	00c50633          	add	a2,a0,a2
    2914:	bec43c23          	sd	a2,-1032(s0)
    2918:	03ed8533          	mul	a0,s11,t5
    291c:	c0043603          	ld	a2,-1024(s0)
    2920:	00c50633          	add	a2,a0,a2
    2924:	c0c43023          	sd	a2,-1024(s0)
    2928:	031d8533          	mul	a0,s11,a7
    292c:	c0843603          	ld	a2,-1016(s0)
    2930:	00c50633          	add	a2,a0,a2
    2934:	c0c43423          	sd	a2,-1016(s0)
    2938:	f5043503          	ld	a0,-176(s0)
    293c:	02ad8533          	mul	a0,s11,a0
    2940:	c1043603          	ld	a2,-1008(s0)
    2944:	00c50633          	add	a2,a0,a2
    2948:	c0c43823          	sd	a2,-1008(s0)
    294c:	026d8533          	mul	a0,s11,t1
    2950:	c1843603          	ld	a2,-1000(s0)
    2954:	00c50633          	add	a2,a0,a2
    2958:	c0c43c23          	sd	a2,-1000(s0)
    295c:	eb843503          	ld	a0,-328(s0)
    2960:	02ad8533          	mul	a0,s11,a0
    2964:	c2043603          	ld	a2,-992(s0)
    2968:	00c50633          	add	a2,a0,a2
    296c:	c2c43023          	sd	a2,-992(s0)
    2970:	029d8533          	mul	a0,s11,s1
    2974:	c2843603          	ld	a2,-984(s0)
    2978:	00c50633          	add	a2,a0,a2
    297c:	c2c43423          	sd	a2,-984(s0)
    2980:	039d8533          	mul	a0,s11,s9
    2984:	c3043603          	ld	a2,-976(s0)
    2988:	00c50633          	add	a2,a0,a2
    298c:	c2c43823          	sd	a2,-976(s0)
    2990:	ea043f03          	ld	t5,-352(s0)
    2994:	03ed8533          	mul	a0,s11,t5
    2998:	c3843603          	ld	a2,-968(s0)
    299c:	00c50633          	add	a2,a0,a2
    29a0:	c2c43c23          	sd	a2,-968(s0)
    29a4:	e4843883          	ld	a7,-440(s0)
    29a8:	031d8533          	mul	a0,s11,a7
    29ac:	c4043603          	ld	a2,-960(s0)
    29b0:	00c50633          	add	a2,a0,a2
    29b4:	c4c43023          	sd	a2,-960(s0)
    29b8:	037d8533          	mul	a0,s11,s7
    29bc:	c4843603          	ld	a2,-952(s0)
    29c0:	00c50633          	add	a2,a0,a2
    29c4:	c4c43423          	sd	a2,-952(s0)
    29c8:	03cd8533          	mul	a0,s11,t3
    29cc:	c5043603          	ld	a2,-944(s0)
    29d0:	00c50633          	add	a2,a0,a2
    29d4:	c4c43823          	sd	a2,-944(s0)
    29d8:	038d8533          	mul	a0,s11,s8
    29dc:	c5843603          	ld	a2,-936(s0)
    29e0:	00c50633          	add	a2,a0,a2
    29e4:	c4c43c23          	sd	a2,-936(s0)
    29e8:	030d8533          	mul	a0,s11,a6
    29ec:	c6043603          	ld	a2,-928(s0)
    29f0:	00c50633          	add	a2,a0,a2
    29f4:	c6c43023          	sd	a2,-928(s0)
    29f8:	e5843b83          	ld	s7,-424(s0)
    29fc:	037d8533          	mul	a0,s11,s7
    2a00:	c6843603          	ld	a2,-920(s0)
    2a04:	00c50633          	add	a2,a0,a2
    2a08:	c6c43423          	sd	a2,-920(s0)
    2a0c:	f8043903          	ld	s2,-128(s0)
    2a10:	ec090503          	lb	a0,-320(s2)
    2a14:	025d8ab3          	mul	s5,s11,t0
    2a18:	c7043603          	ld	a2,-912(s0)
    2a1c:	00ca8633          	add	a2,s5,a2
    2a20:	c6c43823          	sd	a2,-912(s0)
    2a24:	e4043c83          	ld	s9,-448(s0)
    2a28:	039d8ab3          	mul	s5,s11,s9
    2a2c:	c7843603          	ld	a2,-904(s0)
    2a30:	00ca8633          	add	a2,s5,a2
    2a34:	c6c43c23          	sd	a2,-904(s0)
    2a38:	02150ab3          	mul	s5,a0,ra
    2a3c:	c9843603          	ld	a2,-872(s0)
    2a40:	00ca8633          	add	a2,s5,a2
    2a44:	c8c43c23          	sd	a2,-872(s0)
    2a48:	02b50ab3          	mul	s5,a0,a1
    2a4c:	c9043603          	ld	a2,-880(s0)
    2a50:	00ca8633          	add	a2,s5,a2
    2a54:	c8c43823          	sd	a2,-880(s0)
    2a58:	03350ab3          	mul	s5,a0,s3
    2a5c:	c8843603          	ld	a2,-888(s0)
    2a60:	00ca8633          	add	a2,s5,a2
    2a64:	c8c43423          	sd	a2,-888(s0)
    2a68:	03650ab3          	mul	s5,a0,s6
    2a6c:	c8043603          	ld	a2,-896(s0)
    2a70:	00ca8633          	add	a2,s5,a2
    2a74:	c8c43023          	sd	a2,-896(s0)
    2a78:	02e50ab3          	mul	s5,a0,a4
    2a7c:	ca043603          	ld	a2,-864(s0)
    2a80:	00ca8633          	add	a2,s5,a2
    2a84:	cac43023          	sd	a2,-864(s0)
    2a88:	02f50ab3          	mul	s5,a0,a5
    2a8c:	ca843603          	ld	a2,-856(s0)
    2a90:	00ca8633          	add	a2,s5,a2
    2a94:	cac43423          	sd	a2,-856(s0)
    2a98:	03d50ab3          	mul	s5,a0,t4
    2a9c:	cb043603          	ld	a2,-848(s0)
    2aa0:	00ca8633          	add	a2,s5,a2
    2aa4:	cac43823          	sd	a2,-848(s0)
    2aa8:	f4043583          	ld	a1,-192(s0)
    2aac:	02b50ab3          	mul	s5,a0,a1
    2ab0:	cb843603          	ld	a2,-840(s0)
    2ab4:	00ca8633          	add	a2,s5,a2
    2ab8:	cac43c23          	sd	a2,-840(s0)
    2abc:	000d0093          	mv	ra,s10
    2ac0:	03a50ab3          	mul	s5,a0,s10
    2ac4:	cc043603          	ld	a2,-832(s0)
    2ac8:	00ca8633          	add	a2,s5,a2
    2acc:	ccc43023          	sd	a2,-832(s0)
    2ad0:	e3043d03          	ld	s10,-464(s0)
    2ad4:	03a50ab3          	mul	s5,a0,s10
    2ad8:	cc843603          	ld	a2,-824(s0)
    2adc:	00ca8633          	add	a2,s5,a2
    2ae0:	ccc43423          	sd	a2,-824(s0)
    2ae4:	02d50ab3          	mul	s5,a0,a3
    2ae8:	cd043603          	ld	a2,-816(s0)
    2aec:	00ca8633          	add	a2,s5,a2
    2af0:	ccc43823          	sd	a2,-816(s0)
    2af4:	03f50ab3          	mul	s5,a0,t6
    2af8:	cd843603          	ld	a2,-808(s0)
    2afc:	00ca8633          	add	a2,s5,a2
    2b00:	ccc43c23          	sd	a2,-808(s0)
    2b04:	f6843f83          	ld	t6,-152(s0)
    2b08:	03f50ab3          	mul	s5,a0,t6
    2b0c:	ce043603          	ld	a2,-800(s0)
    2b10:	00ca8633          	add	a2,s5,a2
    2b14:	cec43023          	sd	a2,-800(s0)
    2b18:	f6043303          	ld	t1,-160(s0)
    2b1c:	02650ab3          	mul	s5,a0,t1
    2b20:	ce843603          	ld	a2,-792(s0)
    2b24:	00ca8633          	add	a2,s5,a2
    2b28:	cec43423          	sd	a2,-792(s0)
    2b2c:	000a0e13          	mv	t3,s4
    2b30:	03450ab3          	mul	s5,a0,s4
    2b34:	cf043603          	ld	a2,-784(s0)
    2b38:	00ca8633          	add	a2,s5,a2
    2b3c:	cec43823          	sd	a2,-784(s0)
    2b40:	02750ab3          	mul	s5,a0,t2
    2b44:	cf843603          	ld	a2,-776(s0)
    2b48:	00ca8633          	add	a2,s5,a2
    2b4c:	cec43c23          	sd	a2,-776(s0)
    2b50:	f7843283          	ld	t0,-136(s0)
    2b54:	02550ab3          	mul	s5,a0,t0
    2b58:	d0043603          	ld	a2,-768(s0)
    2b5c:	00ca8633          	add	a2,s5,a2
    2b60:	d0c43023          	sd	a2,-768(s0)
    2b64:	e9843783          	ld	a5,-360(s0)
    2b68:	02f50ab3          	mul	s5,a0,a5
    2b6c:	d0843603          	ld	a2,-760(s0)
    2b70:	00ca8633          	add	a2,s5,a2
    2b74:	d0c43423          	sd	a2,-760(s0)
    2b78:	f5043a03          	ld	s4,-176(s0)
    2b7c:	03450ab3          	mul	s5,a0,s4
    2b80:	d1043603          	ld	a2,-752(s0)
    2b84:	00ca8633          	add	a2,s5,a2
    2b88:	d0c43823          	sd	a2,-752(s0)
    2b8c:	e8843683          	ld	a3,-376(s0)
    2b90:	02d50ab3          	mul	s5,a0,a3
    2b94:	d1843603          	ld	a2,-744(s0)
    2b98:	00ca8633          	add	a2,s5,a2
    2b9c:	d0c43c23          	sd	a2,-744(s0)
    2ba0:	eb843583          	ld	a1,-328(s0)
    2ba4:	02b50ab3          	mul	s5,a0,a1
    2ba8:	d2043603          	ld	a2,-736(s0)
    2bac:	00ca8633          	add	a2,s5,a2
    2bb0:	d2c43023          	sd	a2,-736(s0)
    2bb4:	02950ab3          	mul	s5,a0,s1
    2bb8:	d2843603          	ld	a2,-728(s0)
    2bbc:	00ca8633          	add	a2,s5,a2
    2bc0:	d2c43423          	sd	a2,-728(s0)
    2bc4:	f4843983          	ld	s3,-184(s0)
    2bc8:	03350ab3          	mul	s5,a0,s3
    2bcc:	d3043603          	ld	a2,-720(s0)
    2bd0:	00ca8633          	add	a2,s5,a2
    2bd4:	d2c43823          	sd	a2,-720(s0)
    2bd8:	000f0e93          	mv	t4,t5
    2bdc:	03e50ab3          	mul	s5,a0,t5
    2be0:	d3843603          	ld	a2,-712(s0)
    2be4:	00ca8633          	add	a2,s5,a2
    2be8:	d2c43c23          	sd	a2,-712(s0)
    2bec:	00088b13          	mv	s6,a7
    2bf0:	03150ab3          	mul	s5,a0,a7
    2bf4:	d4043603          	ld	a2,-704(s0)
    2bf8:	00ca8633          	add	a2,s5,a2
    2bfc:	d4c43023          	sd	a2,-704(s0)
    2c00:	f7043f03          	ld	t5,-144(s0)
    2c04:	03e50ab3          	mul	s5,a0,t5
    2c08:	d4843603          	ld	a2,-696(s0)
    2c0c:	00ca8633          	add	a2,s5,a2
    2c10:	d4c43423          	sd	a2,-696(s0)
    2c14:	f5843703          	ld	a4,-168(s0)
    2c18:	02e50ab3          	mul	s5,a0,a4
    2c1c:	d5043603          	ld	a2,-688(s0)
    2c20:	00ca8633          	add	a2,s5,a2
    2c24:	d4c43823          	sd	a2,-688(s0)
    2c28:	03850ab3          	mul	s5,a0,s8
    2c2c:	d5843603          	ld	a2,-680(s0)
    2c30:	00ca8633          	add	a2,s5,a2
    2c34:	d4c43c23          	sd	a2,-680(s0)
    2c38:	03050ab3          	mul	s5,a0,a6
    2c3c:	d6043603          	ld	a2,-672(s0)
    2c40:	00ca8633          	add	a2,s5,a2
    2c44:	d6c43023          	sd	a2,-672(s0)
    2c48:	000b8893          	mv	a7,s7
    2c4c:	03750ab3          	mul	s5,a0,s7
    2c50:	d6843603          	ld	a2,-664(s0)
    2c54:	00ca8633          	add	a2,s5,a2
    2c58:	d6c43423          	sd	a2,-664(s0)
    2c5c:	00090a83          	lb	s5,0(s2)
    2c60:	e8043b83          	ld	s7,-384(s0)
    2c64:	03750db3          	mul	s11,a0,s7
    2c68:	d7043603          	ld	a2,-656(s0)
    2c6c:	00cd8633          	add	a2,s11,a2
    2c70:	d6c43823          	sd	a2,-656(s0)
    2c74:	03950533          	mul	a0,a0,s9
    2c78:	d7843603          	ld	a2,-648(s0)
    2c7c:	00c50633          	add	a2,a0,a2
    2c80:	d6c43c23          	sd	a2,-648(s0)
    2c84:	039a8533          	mul	a0,s5,s9
    2c88:	e4a43023          	sd	a0,-448(s0)
    2c8c:	037a8533          	mul	a0,s5,s7
    2c90:	e8a43023          	sd	a0,-384(s0)
    2c94:	031a8533          	mul	a0,s5,a7
    2c98:	e4a43c23          	sd	a0,-424(s0)
    2c9c:	030a8533          	mul	a0,s5,a6
    2ca0:	e2a43c23          	sd	a0,-456(s0)
    2ca4:	038a8533          	mul	a0,s5,s8
    2ca8:	00001637          	lui	a2,0x1
    2cac:	40c40633          	sub	a2,s0,a2
    2cb0:	66a63423          	sd	a0,1640(a2) # 1668 <.LBB103_4+0x428>
    2cb4:	02ea8533          	mul	a0,s5,a4
    2cb8:	f4a43c23          	sd	a0,-168(s0)
    2cbc:	03ea8533          	mul	a0,s5,t5
    2cc0:	f6a43823          	sd	a0,-144(s0)
    2cc4:	036a8533          	mul	a0,s5,s6
    2cc8:	e6a43023          	sd	a0,-416(s0)
    2ccc:	03da8cb3          	mul	s9,s5,t4
    2cd0:	033a8c33          	mul	s8,s5,s3
    2cd4:	029a8bb3          	mul	s7,s5,s1
    2cd8:	02ba8b33          	mul	s6,s5,a1
    2cdc:	02da88b3          	mul	a7,s5,a3
    2ce0:	034a84b3          	mul	s1,s5,s4
    2ce4:	02fa8833          	mul	a6,s5,a5
    2ce8:	025a89b3          	mul	s3,s5,t0
    2cec:	027a83b3          	mul	t2,s5,t2
    2cf0:	03ca8e33          	mul	t3,s5,t3
    2cf4:	026a8eb3          	mul	t4,s5,t1
    2cf8:	03fa8f33          	mul	t5,s5,t6
    2cfc:	ec843503          	ld	a0,-312(s0)
    2d00:	02aa8fb3          	mul	t6,s5,a0
    2d04:	e7843503          	ld	a0,-392(s0)
    2d08:	02aa8933          	mul	s2,s5,a0
    2d0c:	03aa8a33          	mul	s4,s5,s10
    2d10:	021a8d33          	mul	s10,s5,ra
    2d14:	f4043503          	ld	a0,-192(s0)
    2d18:	02aa8db3          	mul	s11,s5,a0
    2d1c:	f2043503          	ld	a0,-224(s0)
    2d20:	02aa8733          	mul	a4,s5,a0
    2d24:	f2843503          	ld	a0,-216(s0)
    2d28:	02aa80b3          	mul	ra,s5,a0
    2d2c:	eb043503          	ld	a0,-336(s0)
    2d30:	02aa86b3          	mul	a3,s5,a0
    2d34:	e7043503          	ld	a0,-400(s0)
    2d38:	02aa8633          	mul	a2,s5,a0
    2d3c:	f3843503          	ld	a0,-200(s0)
    2d40:	02aa85b3          	mul	a1,s5,a0
    2d44:	f3043503          	ld	a0,-208(s0)
    2d48:	02aa8533          	mul	a0,s5,a0
    2d4c:	e9043783          	ld	a5,-368(s0)
    2d50:	02fa8ab3          	mul	s5,s5,a5
    2d54:	d9843783          	ld	a5,-616(s0)
    2d58:	00fa87b3          	add	a5,s5,a5
    2d5c:	d8f43c23          	sd	a5,-616(s0)
    2d60:	d9043783          	ld	a5,-624(s0)
    2d64:	00f507b3          	add	a5,a0,a5
    2d68:	d8f43823          	sd	a5,-624(s0)
    2d6c:	d8843503          	ld	a0,-632(s0)
    2d70:	00a58533          	add	a0,a1,a0
    2d74:	d8a43423          	sd	a0,-632(s0)
    2d78:	d8043503          	ld	a0,-640(s0)
    2d7c:	00a60533          	add	a0,a2,a0
    2d80:	d8a43023          	sd	a0,-640(s0)
    2d84:	da043503          	ld	a0,-608(s0)
    2d88:	00a68533          	add	a0,a3,a0
    2d8c:	daa43023          	sd	a0,-608(s0)
    2d90:	ed043503          	ld	a0,-304(s0)
    2d94:	00a08533          	add	a0,ra,a0
    2d98:	eca43823          	sd	a0,-304(s0)
    2d9c:	ed043a83          	ld	s5,-304(s0)
    2da0:	da843503          	ld	a0,-600(s0)
    2da4:	00a70533          	add	a0,a4,a0
    2da8:	daa43423          	sd	a0,-600(s0)
    2dac:	ed843503          	ld	a0,-296(s0)
    2db0:	00ad8533          	add	a0,s11,a0
    2db4:	eca43c23          	sd	a0,-296(s0)
    2db8:	ed843083          	ld	ra,-296(s0)
    2dbc:	ee043503          	ld	a0,-288(s0)
    2dc0:	00ad0533          	add	a0,s10,a0
    2dc4:	eea43023          	sd	a0,-288(s0)
    2dc8:	ee043703          	ld	a4,-288(s0)
    2dcc:	ee843503          	ld	a0,-280(s0)
    2dd0:	00aa0533          	add	a0,s4,a0
    2dd4:	eea43423          	sd	a0,-280(s0)
    2dd8:	ee843a03          	ld	s4,-280(s0)
    2ddc:	db043503          	ld	a0,-592(s0)
    2de0:	00a90533          	add	a0,s2,a0
    2de4:	daa43823          	sd	a0,-592(s0)
    2de8:	db843903          	ld	s2,-584(s0)
    2dec:	012f8933          	add	s2,t6,s2
    2df0:	dc843f83          	ld	t6,-568(s0)
    2df4:	dc043503          	ld	a0,-576(s0)
    2df8:	00af0533          	add	a0,t5,a0
    2dfc:	dca43023          	sd	a0,-576(s0)
    2e00:	dd043f03          	ld	t5,-560(s0)
    2e04:	01fe8fb3          	add	t6,t4,t6
    2e08:	01ee0f33          	add	t5,t3,t5
    2e0c:	de043e03          	ld	t3,-544(s0)
    2e10:	dd843503          	ld	a0,-552(s0)
    2e14:	00a38533          	add	a0,t2,a0
    2e18:	dca43c23          	sd	a0,-552(s0)
    2e1c:	de843383          	ld	t2,-536(s0)
    2e20:	ef043503          	ld	a0,-272(s0)
    2e24:	00a98533          	add	a0,s3,a0
    2e28:	000015b7          	lui	a1,0x1
    2e2c:	40b405b3          	sub	a1,s0,a1
    2e30:	6705b983          	ld	s3,1648(a1) # 1670 <.LBB103_4+0x430>
    2e34:	eea43823          	sd	a0,-272(s0)
    2e38:	ef043e83          	ld	t4,-272(s0)
    2e3c:	01c80e33          	add	t3,a6,t3
    2e40:	df043303          	ld	t1,-528(s0)
    2e44:	ef843503          	ld	a0,-264(s0)
    2e48:	00a48533          	add	a0,s1,a0
    2e4c:	000015b7          	lui	a1,0x1
    2e50:	40b405b3          	sub	a1,s0,a1
    2e54:	6785b483          	ld	s1,1656(a1) # 1678 <.LBB103_4+0x438>
    2e58:	eea43c23          	sd	a0,-264(s0)
    2e5c:	ef843683          	ld	a3,-264(s0)
    2e60:	007883b3          	add	t2,a7,t2
    2e64:	df843283          	ld	t0,-520(s0)
    2e68:	006b0333          	add	t1,s6,t1
    2e6c:	e0043883          	ld	a7,-512(s0)
    2e70:	f0043503          	ld	a0,-256(s0)
    2e74:	00ab8533          	add	a0,s7,a0
    2e78:	f8843b03          	ld	s6,-120(s0)
    2e7c:	f0a43023          	sd	a0,-256(s0)
    2e80:	f0043603          	ld	a2,-256(s0)
    2e84:	f0843503          	ld	a0,-248(s0)
    2e88:	00ac0533          	add	a0,s8,a0
    2e8c:	e1843b83          	ld	s7,-488(s0)
    2e90:	f0a43423          	sd	a0,-248(s0)
    2e94:	f0843583          	ld	a1,-248(s0)
    2e98:	f1043503          	ld	a0,-240(s0)
    2e9c:	00ac8533          	add	a0,s9,a0
    2ea0:	e2043c03          	ld	s8,-480(s0)
    2ea4:	f0a43823          	sd	a0,-240(s0)
    2ea8:	f1043c83          	ld	s9,-240(s0)
    2eac:	f1843503          	ld	a0,-232(s0)
    2eb0:	e6043783          	ld	a5,-416(s0)
    2eb4:	00a78533          	add	a0,a5,a0
    2eb8:	f0a43c23          	sd	a0,-232(s0)
    2ebc:	f1843503          	ld	a0,-232(s0)
    2ec0:	f7043783          	ld	a5,-144(s0)
    2ec4:	005782b3          	add	t0,a5,t0
    2ec8:	e0843803          	ld	a6,-504(s0)
    2ecc:	f5843783          	ld	a5,-168(s0)
    2ed0:	011788b3          	add	a7,a5,a7
    2ed4:	e1043783          	ld	a5,-496(s0)
    2ed8:	00001d37          	lui	s10,0x1
    2edc:	41a40d33          	sub	s10,s0,s10
    2ee0:	668d3d03          	ld	s10,1640(s10) # 1668 <.LBB103_4+0x428>
    2ee4:	010d0833          	add	a6,s10,a6
    2ee8:	e3843d03          	ld	s10,-456(s0)
    2eec:	00fd07b3          	add	a5,s10,a5
    2ef0:	e5843d03          	ld	s10,-424(s0)
    2ef4:	017d0bb3          	add	s7,s10,s7
    2ef8:	e8043d03          	ld	s10,-384(s0)
    2efc:	018d0c33          	add	s8,s10,s8
    2f00:	e2843d03          	ld	s10,-472(s0)
    2f04:	e4043d83          	ld	s11,-448(s0)
    2f08:	01ad8d33          	add	s10,s11,s10
    2f0c:	e3a43423          	sd	s10,-472(s0)
    2f10:	500b0b13          	addi	s6,s6,1280
    2f14:	b0048493          	addi	s1,s1,-1280 # 63b00 <.Lfunc_end80+0x3b138>
    2f18:	00198993          	addi	s3,s3,1
    2f1c:	f8043d03          	ld	s10,-128(s0)
    2f20:	001d0d13          	addi	s10,s10,1
    2f24:	f9a43023          	sd	s10,-128(s0)
    2f28:	00048463          	beqz	s1,2f30 <.LBB103_6>
    2f2c:	8d1fe06f          	j	17fc <.LBB103_5>

0000000000002f30 <.LBB103_6>:
    2f30:	00001537          	lui	a0,0x1
    2f34:	40a40533          	sub	a0,s0,a0
    2f38:	6a853b03          	ld	s6,1704(a0) # 16a8 <.LBB103_4+0x468>
    2f3c:	00001537          	lui	a0,0x1
    2f40:	40a40533          	sub	a0,s0,a0
    2f44:	6b053083          	ld	ra,1712(a0) # 16b0 <.LBB103_4+0x470>
    2f48:	00001537          	lui	a0,0x1
    2f4c:	40a40533          	sub	a0,s0,a0
    2f50:	6b853d83          	ld	s11,1720(a0) # 16b8 <.LBB103_4+0x478>
    2f54:	00001537          	lui	a0,0x1
    2f58:	40a40533          	sub	a0,s0,a0
    2f5c:	6a053d03          	ld	s10,1696(a0) # 16a0 <.LBB103_4+0x460>
    2f60:	00001537          	lui	a0,0x1
    2f64:	40a40533          	sub	a0,s0,a0
    2f68:	69853a83          	ld	s5,1688(a0) # 1698 <.LBB103_4+0x458>
    2f6c:	00001537          	lui	a0,0x1
    2f70:	40a40533          	sub	a0,s0,a0
    2f74:	69053a03          	ld	s4,1680(a0) # 1690 <.LBB103_4+0x450>
    2f78:	00001537          	lui	a0,0x1
    2f7c:	40a40533          	sub	a0,s0,a0
    2f80:	68853983          	ld	s3,1672(a0) # 1688 <.LBB103_4+0x448>
    2f84:	00001537          	lui	a0,0x1
    2f88:	40a40533          	sub	a0,s0,a0
    2f8c:	68053483          	ld	s1,1664(a0) # 1680 <.LBB103_4+0x440>
    2f90:	e1743c23          	sd	s7,-488(s0)
    2f94:	e3843023          	sd	s8,-480(s0)
    2f98:	00001537          	lui	a0,0x1
    2f9c:	40a40533          	sub	a0,s0,a0
    2fa0:	66053503          	ld	a0,1632(a0) # 1660 <.LBB103_4+0x420>
    2fa4:	00251513          	slli	a0,a0,0x2
    2fa8:	000015b7          	lui	a1,0x1
    2fac:	40b405b3          	sub	a1,s0,a1
    2fb0:	d705b583          	ld	a1,-656(a1) # d70 <.LBB103_3+0xa9c>
    2fb4:	00a585b3          	add	a1,a1,a0
    2fb8:	00001637          	lui	a2,0x1
    2fbc:	40c40633          	sub	a2,s0,a2
    2fc0:	65863603          	ld	a2,1624(a2) # 1658 <.LBB103_4+0x418>
    2fc4:	00062703          	lw	a4,0(a2)
    2fc8:	00001637          	lui	a2,0x1
    2fcc:	40c40633          	sub	a2,s0,a2
    2fd0:	d6863603          	ld	a2,-664(a2) # d68 <.LBB103_3+0xa94>
    2fd4:	00a60533          	add	a0,a2,a0
    2fd8:	00c52603          	lw	a2,12(a0)
    2fdc:	00c5ae83          	lw	t4,12(a1)
    2fe0:	00171693          	slli	a3,a4,0x1
    2fe4:	00e68733          	add	a4,a3,a4
    2fe8:	00161693          	slli	a3,a2,0x1
    2fec:	e9d43423          	sd	t4,-376(s0)
    2ff0:	00001637          	lui	a2,0x1
    2ff4:	40c40633          	sub	a2,s0,a2
    2ff8:	6c063603          	ld	a2,1728(a2) # 16c0 <.LBB103_4+0x480>
    2ffc:	01d60633          	add	a2,a2,t4
    3000:	e8d43023          	sd	a3,-384(s0)
    3004:	40d6063b          	subw	a2,a2,a3
    3008:	00e60633          	add	a2,a2,a4
    300c:	8806061b          	addiw	a2,a2,-1920
    3010:	400006b7          	lui	a3,0x40000
    3014:	00001eb7          	lui	t4,0x1
    3018:	41d40eb3          	sub	t4,s0,t4
    301c:	02ceb023          	sd	a2,32(t4) # 1020 <.LBB103_3+0xd4c>
    3020:	00065463          	bgez	a2,3028 <.LBB103_8>
    3024:	c00006b7          	lui	a3,0xc0000

0000000000003028 <.LBB103_8>:
    3028:	00001637          	lui	a2,0x1
    302c:	40c40633          	sub	a2,s0,a2
    3030:	fed63023          	sd	a3,-32(a2) # fe0 <.LBB103_3+0xd0c>
    3034:	00852603          	lw	a2,8(a0)
    3038:	0085a683          	lw	a3,8(a1)
    303c:	00161e93          	slli	t4,a2,0x1
    3040:	e6d43c23          	sd	a3,-392(s0)
    3044:	00db0633          	add	a2,s6,a3
    3048:	e7d43823          	sd	t4,-400(s0)
    304c:	41d6063b          	subw	a2,a2,t4
    3050:	00e60633          	add	a2,a2,a4
    3054:	8806061b          	addiw	a2,a2,-1920
    3058:	400006b7          	lui	a3,0x40000
    305c:	00001eb7          	lui	t4,0x1
    3060:	41d40eb3          	sub	t4,s0,t4
    3064:	00ceb823          	sd	a2,16(t4) # 1010 <.LBB103_3+0xd3c>
    3068:	00048c13          	mv	s8,s1
    306c:	00098c93          	mv	s9,s3
    3070:	000a0b93          	mv	s7,s4
    3074:	000a8b13          	mv	s6,s5
    3078:	00065463          	bgez	a2,3080 <.LBB103_10>
    307c:	c00006b7          	lui	a3,0xc0000

0000000000003080 <.LBB103_10>:
    3080:	00452603          	lw	a2,4(a0)
    3084:	0045ae83          	lw	t4,4(a1)
    3088:	00161493          	slli	s1,a2,0x1
    308c:	e7d43423          	sd	t4,-408(s0)
    3090:	01d08633          	add	a2,ra,t4
    3094:	e6943023          	sd	s1,-416(s0)
    3098:	4096063b          	subw	a2,a2,s1
    309c:	00e60633          	add	a2,a2,a4
    30a0:	8806061b          	addiw	a2,a2,-1920
    30a4:	40000eb7          	lui	t4,0x40000
    30a8:	000014b7          	lui	s1,0x1
    30ac:	409404b3          	sub	s1,s0,s1
    30b0:	00c4b023          	sd	a2,0(s1) # 1000 <.LBB103_3+0xd2c>
    30b4:	00065463          	bgez	a2,30bc <.LBB103_12>
    30b8:	c0000eb7          	lui	t4,0xc0000

00000000000030bc <.LBB103_12>:
    30bc:	00052603          	lw	a2,0(a0)
    30c0:	0005a483          	lw	s1,0(a1)
    30c4:	00161993          	slli	s3,a2,0x1
    30c8:	e4943c23          	sd	s1,-424(s0)
    30cc:	009d8633          	add	a2,s11,s1
    30d0:	e5343823          	sd	s3,-432(s0)
    30d4:	4136063b          	subw	a2,a2,s3
    30d8:	00e60633          	add	a2,a2,a4
    30dc:	8806061b          	addiw	a2,a2,-1920
    30e0:	400004b7          	lui	s1,0x40000
    30e4:	000019b7          	lui	s3,0x1
    30e8:	413409b3          	sub	s3,s0,s3
    30ec:	fec9b823          	sd	a2,-16(s3) # ff0 <.LBB103_3+0xd1c>
    30f0:	00065463          	bgez	a2,30f8 <.LBB103_14>
    30f4:	c00004b7          	lui	s1,0xc0000

00000000000030f8 <.LBB103_14>:
    30f8:	01052603          	lw	a2,16(a0)
    30fc:	0105a983          	lw	s3,16(a1)
    3100:	00161a13          	slli	s4,a2,0x1
    3104:	e5343423          	sd	s3,-440(s0)
    3108:	013d0633          	add	a2,s10,s3
    310c:	e5443023          	sd	s4,-448(s0)
    3110:	4146063b          	subw	a2,a2,s4
    3114:	00e60633          	add	a2,a2,a4
    3118:	8806061b          	addiw	a2,a2,-1920
    311c:	400009b7          	lui	s3,0x40000
    3120:	00001a37          	lui	s4,0x1
    3124:	41440a33          	sub	s4,s0,s4
    3128:	fcca3823          	sd	a2,-48(s4) # fd0 <.LBB103_3+0xcfc>
    312c:	00065463          	bgez	a2,3134 <.LBB103_16>
    3130:	c00009b7          	lui	s3,0xc0000

0000000000003134 <.LBB103_16>:
    3134:	01452603          	lw	a2,20(a0)
    3138:	0145aa03          	lw	s4,20(a1)
    313c:	00161a93          	slli	s5,a2,0x1
    3140:	e3443c23          	sd	s4,-456(s0)
    3144:	014b0633          	add	a2,s6,s4
    3148:	e3543823          	sd	s5,-464(s0)
    314c:	4156063b          	subw	a2,a2,s5
    3150:	00e60633          	add	a2,a2,a4
    3154:	8806061b          	addiw	a2,a2,-1920
    3158:	40000a37          	lui	s4,0x40000
    315c:	00001ab7          	lui	s5,0x1
    3160:	41540ab3          	sub	s5,s0,s5
    3164:	facabc23          	sd	a2,-72(s5) # fb8 <.LBB103_3+0xce4>
    3168:	00065463          	bgez	a2,3170 <.LBB103_18>
    316c:	c0000a37          	lui	s4,0xc0000

0000000000003170 <.LBB103_18>:
    3170:	01852603          	lw	a2,24(a0)
    3174:	0185aa83          	lw	s5,24(a1)
    3178:	00161b13          	slli	s6,a2,0x1
    317c:	00001637          	lui	a2,0x1
    3180:	40c40633          	sub	a2,s0,a2
    3184:	6d563023          	sd	s5,1728(a2) # 16c0 <.LBB103_4+0x480>
    3188:	015b8633          	add	a2,s7,s5
    318c:	00001ab7          	lui	s5,0x1
    3190:	41540ab3          	sub	s5,s0,s5
    3194:	6b6abc23          	sd	s6,1720(s5) # 16b8 <.LBB103_4+0x478>
    3198:	4166063b          	subw	a2,a2,s6
    319c:	00e60633          	add	a2,a2,a4
    31a0:	8806061b          	addiw	a2,a2,-1920
    31a4:	40000ab7          	lui	s5,0x40000
    31a8:	00001b37          	lui	s6,0x1
    31ac:	41640b33          	sub	s6,s0,s6
    31b0:	facb3423          	sd	a2,-88(s6) # fa8 <.LBB103_3+0xcd4>
    31b4:	00065463          	bgez	a2,31bc <.LBB103_20>
    31b8:	c0000ab7          	lui	s5,0xc0000

00000000000031bc <.LBB103_20>:
    31bc:	01c52603          	lw	a2,28(a0)
    31c0:	01c5ab03          	lw	s6,28(a1)
    31c4:	00161b93          	slli	s7,a2,0x1
    31c8:	00001637          	lui	a2,0x1
    31cc:	40c40633          	sub	a2,s0,a2
    31d0:	6b663823          	sd	s6,1712(a2) # 16b0 <.LBB103_4+0x470>
    31d4:	016c8633          	add	a2,s9,s6
    31d8:	00001b37          	lui	s6,0x1
    31dc:	41640b33          	sub	s6,s0,s6
    31e0:	6b7b3423          	sd	s7,1704(s6) # 16a8 <.LBB103_4+0x468>
    31e4:	4176063b          	subw	a2,a2,s7
    31e8:	00e60633          	add	a2,a2,a4
    31ec:	8806061b          	addiw	a2,a2,-1920
    31f0:	40000b37          	lui	s6,0x40000
    31f4:	00001bb7          	lui	s7,0x1
    31f8:	41740bb3          	sub	s7,s0,s7
    31fc:	f8cbb823          	sd	a2,-112(s7) # f90 <.LBB103_3+0xcbc>
    3200:	00065463          	bgez	a2,3208 <.LBB103_22>
    3204:	c0000b37          	lui	s6,0xc0000

0000000000003208 <.LBB103_22>:
    3208:	00001637          	lui	a2,0x1
    320c:	40c40633          	sub	a2,s0,a2
    3210:	f7663823          	sd	s6,-144(a2) # f70 <.LBB103_3+0xc9c>
    3214:	00001637          	lui	a2,0x1
    3218:	40c40633          	sub	a2,s0,a2
    321c:	f9563423          	sd	s5,-120(a2) # f88 <.LBB103_3+0xcb4>
    3220:	00001637          	lui	a2,0x1
    3224:	40c40633          	sub	a2,s0,a2
    3228:	f9463c23          	sd	s4,-104(a2) # f98 <.LBB103_3+0xcc4>
    322c:	00001637          	lui	a2,0x1
    3230:	40c40633          	sub	a2,s0,a2
    3234:	fb363823          	sd	s3,-80(a2) # fb0 <.LBB103_3+0xcdc>
    3238:	00001637          	lui	a2,0x1
    323c:	40c40633          	sub	a2,s0,a2
    3240:	fc963423          	sd	s1,-56(a2) # fc8 <.LBB103_3+0xcf4>
    3244:	00001637          	lui	a2,0x1
    3248:	40c40633          	sub	a2,s0,a2
    324c:	fdd63c23          	sd	t4,-40(a2) # fd8 <.LBB103_3+0xd04>
    3250:	00001637          	lui	a2,0x1
    3254:	40c40633          	sub	a2,s0,a2
    3258:	fed63c23          	sd	a3,-8(a2) # ff8 <.LBB103_3+0xd24>
    325c:	db243c23          	sd	s2,-584(s0)
    3260:	ddf43423          	sd	t6,-568(s0)
    3264:	dde43823          	sd	t5,-560(s0)
    3268:	dfc43023          	sd	t3,-544(s0)
    326c:	de743423          	sd	t2,-536(s0)
    3270:	de643823          	sd	t1,-528(s0)
    3274:	de543c23          	sd	t0,-520(s0)
    3278:	e1143023          	sd	a7,-512(s0)
    327c:	e1043423          	sd	a6,-504(s0)
    3280:	e0f43823          	sd	a5,-496(s0)
    3284:	02052603          	lw	a2,32(a0)
    3288:	0205a683          	lw	a3,32(a1)
    328c:	00161793          	slli	a5,a2,0x1
    3290:	00001637          	lui	a2,0x1
    3294:	40c40633          	sub	a2,s0,a2
    3298:	6ad63023          	sd	a3,1696(a2) # 16a0 <.LBB103_4+0x460>
    329c:	00dc0633          	add	a2,s8,a3
    32a0:	000016b7          	lui	a3,0x1
    32a4:	40d406b3          	sub	a3,s0,a3
    32a8:	68f6bc23          	sd	a5,1688(a3) # 1698 <.LBB103_4+0x458>
    32ac:	40f6063b          	subw	a2,a2,a5
    32b0:	00e60633          	add	a2,a2,a4
    32b4:	8806061b          	addiw	a2,a2,-1920
    32b8:	400006b7          	lui	a3,0x40000
    32bc:	000017b7          	lui	a5,0x1
    32c0:	40f407b3          	sub	a5,s0,a5
    32c4:	f6c7bc23          	sd	a2,-136(a5) # f78 <.LBB103_3+0xca4>
    32c8:	00065463          	bgez	a2,32d0 <.LBB103_24>
    32cc:	c00006b7          	lui	a3,0xc0000

00000000000032d0 <.LBB103_24>:
    32d0:	00001637          	lui	a2,0x1
    32d4:	40c40633          	sub	a2,s0,a2
    32d8:	f6d63023          	sd	a3,-160(a2) # f60 <.LBB103_3+0xc8c>
    32dc:	07c5a603          	lw	a2,124(a1)
    32e0:	f8c43423          	sd	a2,-120(s0)
    32e4:	0785a603          	lw	a2,120(a1)
    32e8:	f8c43023          	sd	a2,-128(s0)
    32ec:	0745a603          	lw	a2,116(a1)
    32f0:	f6c43c23          	sd	a2,-136(s0)
    32f4:	0705a603          	lw	a2,112(a1)
    32f8:	f6c43823          	sd	a2,-144(s0)
    32fc:	06c5a603          	lw	a2,108(a1)
    3300:	f6c43423          	sd	a2,-152(s0)
    3304:	0685a603          	lw	a2,104(a1)
    3308:	f6c43023          	sd	a2,-160(s0)
    330c:	0645a603          	lw	a2,100(a1)
    3310:	f4c43c23          	sd	a2,-168(s0)
    3314:	0605a603          	lw	a2,96(a1)
    3318:	f4c43823          	sd	a2,-176(s0)
    331c:	05c5a603          	lw	a2,92(a1)
    3320:	f4c43423          	sd	a2,-184(s0)
    3324:	0585a603          	lw	a2,88(a1)
    3328:	f4c43023          	sd	a2,-192(s0)
    332c:	0545a603          	lw	a2,84(a1)
    3330:	f2c43c23          	sd	a2,-200(s0)
    3334:	0505a603          	lw	a2,80(a1)
    3338:	f2c43823          	sd	a2,-208(s0)
    333c:	04c5a603          	lw	a2,76(a1)
    3340:	f2c43423          	sd	a2,-216(s0)
    3344:	0485a603          	lw	a2,72(a1)
    3348:	f2c43023          	sd	a2,-224(s0)
    334c:	0445a603          	lw	a2,68(a1)
    3350:	ecc43423          	sd	a2,-312(s0)
    3354:	0405a603          	lw	a2,64(a1)
    3358:	ecc43023          	sd	a2,-320(s0)
    335c:	03c5a603          	lw	a2,60(a1)
    3360:	eac43c23          	sd	a2,-328(s0)
    3364:	0385a603          	lw	a2,56(a1)
    3368:	eac43823          	sd	a2,-336(s0)
    336c:	0345a603          	lw	a2,52(a1)
    3370:	eac43423          	sd	a2,-344(s0)
    3374:	0305a603          	lw	a2,48(a1)
    3378:	eac43023          	sd	a2,-352(s0)
    337c:	02c5a603          	lw	a2,44(a1)
    3380:	e8c43c23          	sd	a2,-360(s0)
    3384:	0285a603          	lw	a2,40(a1)
    3388:	e8c43823          	sd	a2,-368(s0)
    338c:	0245a603          	lw	a2,36(a1)
    3390:	07c52783          	lw	a5,124(a0)
    3394:	07852803          	lw	a6,120(a0)
    3398:	07452283          	lw	t0,116(a0)
    339c:	07052303          	lw	t1,112(a0)
    33a0:	06c52383          	lw	t2,108(a0)
    33a4:	06852e03          	lw	t3,104(a0)
    33a8:	06452e83          	lw	t4,100(a0)
    33ac:	06052f03          	lw	t5,96(a0)
    33b0:	05c52f83          	lw	t6,92(a0)
    33b4:	05852483          	lw	s1,88(a0)
    33b8:	05452903          	lw	s2,84(a0)
    33bc:	05052983          	lw	s3,80(a0)
    33c0:	04c52a03          	lw	s4,76(a0)
    33c4:	04852a83          	lw	s5,72(a0)
    33c8:	04452b03          	lw	s6,68(a0)
    33cc:	04052b83          	lw	s7,64(a0)
    33d0:	03c52c03          	lw	s8,60(a0)
    33d4:	03852c83          	lw	s9,56(a0)
    33d8:	03452d03          	lw	s10,52(a0)
    33dc:	02452583          	lw	a1,36(a0)
    33e0:	03052d83          	lw	s11,48(a0)
    33e4:	02c52083          	lw	ra,44(a0)
    33e8:	02852503          	lw	a0,40(a0)
    33ec:	00159693          	slli	a3,a1,0x1
    33f0:	f8e43823          	sd	a4,-112(s0)
    33f4:	000015b7          	lui	a1,0x1
    33f8:	40b405b3          	sub	a1,s0,a1
    33fc:	68c5b823          	sd	a2,1680(a1) # 1690 <.LBB103_4+0x450>
    3400:	000015b7          	lui	a1,0x1
    3404:	40b405b3          	sub	a1,s0,a1
    3408:	6c85b583          	ld	a1,1736(a1) # 16c8 <.LBB103_4+0x488>
    340c:	00c585b3          	add	a1,a1,a2
    3410:	00001637          	lui	a2,0x1
    3414:	40c40633          	sub	a2,s0,a2
    3418:	6cd63423          	sd	a3,1736(a2) # 16c8 <.LBB103_4+0x488>
    341c:	40d5863b          	subw	a2,a1,a3
    3420:	000015b7          	lui	a1,0x1
    3424:	40b405b3          	sub	a1,s0,a1
    3428:	6585b683          	ld	a3,1624(a1) # 1658 <.LBB103_4+0x418>
    342c:	0046a883          	lw	a7,4(a3) # ffffffffc0000004 <.Lfunc_end80+0xffffffffbffd763c>
    3430:	0086a583          	lw	a1,8(a3)
    3434:	00001737          	lui	a4,0x1
    3438:	40e40733          	sub	a4,s0,a4
    343c:	66b73c23          	sd	a1,1656(a4) # 1678 <.LBB103_4+0x438>
    3440:	00c6a583          	lw	a1,12(a3)
    3444:	00001737          	lui	a4,0x1
    3448:	40e40733          	sub	a4,s0,a4
    344c:	68b73023          	sd	a1,1664(a4) # 1680 <.LBB103_4+0x440>
    3450:	0106a583          	lw	a1,16(a3)
    3454:	00001737          	lui	a4,0x1
    3458:	40e40733          	sub	a4,s0,a4
    345c:	68b73423          	sd	a1,1672(a4) # 1688 <.LBB103_4+0x448>
    3460:	0146a583          	lw	a1,20(a3)
    3464:	00001737          	lui	a4,0x1
    3468:	40e40733          	sub	a4,s0,a4
    346c:	d8b73423          	sd	a1,-632(a4) # d88 <.LBB103_3+0xab4>
    3470:	0186a583          	lw	a1,24(a3)
    3474:	00001737          	lui	a4,0x1
    3478:	40e40733          	sub	a4,s0,a4
    347c:	d8b73823          	sd	a1,-624(a4) # d90 <.LBB103_3+0xabc>
    3480:	f9043703          	ld	a4,-112(s0)
    3484:	01c6a683          	lw	a3,28(a3)
    3488:	000015b7          	lui	a1,0x1
    348c:	40b405b3          	sub	a1,s0,a1
    3490:	d8d5bc23          	sd	a3,-616(a1) # d98 <.LBB103_3+0xac4>
    3494:	00e60633          	add	a2,a2,a4
    3498:	8806061b          	addiw	a2,a2,-1920
    349c:	400006b7          	lui	a3,0x40000
    34a0:	000015b7          	lui	a1,0x1
    34a4:	40b405b3          	sub	a1,s0,a1
    34a8:	dac5b023          	sd	a2,-608(a1) # da0 <.LBB103_3+0xacc>
    34ac:	00065463          	bgez	a2,34b4 <.LBB103_26>
    34b0:	c00006b7          	lui	a3,0xc0000

00000000000034b4 <.LBB103_26>:
    34b4:	00151613          	slli	a2,a0,0x1
    34b8:	e9043503          	ld	a0,-368(s0)
    34bc:	000015b7          	lui	a1,0x1
    34c0:	40b405b3          	sub	a1,s0,a1
    34c4:	6d05b583          	ld	a1,1744(a1) # 16d0 <.LBB103_4+0x490>
    34c8:	00a58533          	add	a0,a1,a0
    34cc:	000015b7          	lui	a1,0x1
    34d0:	40b405b3          	sub	a1,s0,a1
    34d4:	6cc5b823          	sd	a2,1744(a1) # 16d0 <.LBB103_4+0x490>
    34d8:	40c5053b          	subw	a0,a0,a2
    34dc:	00e50533          	add	a0,a0,a4
    34e0:	8805051b          	addiw	a0,a0,-1920
    34e4:	40000637          	lui	a2,0x40000
    34e8:	000015b7          	lui	a1,0x1
    34ec:	40b405b3          	sub	a1,s0,a1
    34f0:	daa5b823          	sd	a0,-592(a1) # db0 <.LBB103_3+0xadc>
    34f4:	000015b7          	lui	a1,0x1
    34f8:	40b405b3          	sub	a1,s0,a1
    34fc:	7185b583          	ld	a1,1816(a1) # 1718 <.LBB103_4+0x4d8>
    3500:	00055463          	bgez	a0,3508 <.LBB103_28>
    3504:	c0000637          	lui	a2,0xc0000

0000000000003508 <.LBB103_28>:
    3508:	00001537          	lui	a0,0x1
    350c:	40a40533          	sub	a0,s0,a0
    3510:	dac53423          	sd	a2,-600(a0) # da8 <.LBB103_3+0xad4>
    3514:	00109093          	slli	ra,ra,0x1
    3518:	e9843503          	ld	a0,-360(s0)
    351c:	00001637          	lui	a2,0x1
    3520:	40c40633          	sub	a2,s0,a2
    3524:	6d863603          	ld	a2,1752(a2) # 16d8 <.LBB103_4+0x498>
    3528:	00a60533          	add	a0,a2,a0
    352c:	00001637          	lui	a2,0x1
    3530:	40c40633          	sub	a2,s0,a2
    3534:	6c163c23          	sd	ra,1752(a2) # 16d8 <.LBB103_4+0x498>
    3538:	4015053b          	subw	a0,a0,ra
    353c:	00e50533          	add	a0,a0,a4
    3540:	8805051b          	addiw	a0,a0,-1920
    3544:	40000637          	lui	a2,0x40000
    3548:	000010b7          	lui	ra,0x1
    354c:	401400b3          	sub	ra,s0,ra
    3550:	dca0b023          	sd	a0,-576(ra) # dc0 <.LBB103_3+0xaec>
    3554:	00055463          	bgez	a0,355c <.LBB103_30>
    3558:	c0000637          	lui	a2,0xc0000

000000000000355c <.LBB103_30>:
    355c:	00001537          	lui	a0,0x1
    3560:	40a40533          	sub	a0,s0,a0
    3564:	dac53c23          	sd	a2,-584(a0) # db8 <.LBB103_3+0xae4>
    3568:	001d9613          	slli	a2,s11,0x1
    356c:	ea043503          	ld	a0,-352(s0)
    3570:	00001db7          	lui	s11,0x1
    3574:	41b40db3          	sub	s11,s0,s11
    3578:	6e0dbd83          	ld	s11,1760(s11) # 16e0 <.LBB103_4+0x4a0>
    357c:	00ad8533          	add	a0,s11,a0
    3580:	00060d93          	mv	s11,a2
    3584:	40c5053b          	subw	a0,a0,a2
    3588:	00e50533          	add	a0,a0,a4
    358c:	8805051b          	addiw	a0,a0,-1920
    3590:	40000637          	lui	a2,0x40000
    3594:	000010b7          	lui	ra,0x1
    3598:	401400b3          	sub	ra,s0,ra
    359c:	dca0b823          	sd	a0,-560(ra) # dd0 <.LBB103_3+0xafc>
    35a0:	000010b7          	lui	ra,0x1
    35a4:	401400b3          	sub	ra,s0,ra
    35a8:	6e80b083          	ld	ra,1768(ra) # 16e8 <.LBB103_4+0x4a8>
    35ac:	00055463          	bgez	a0,35b4 <.LBB103_32>
    35b0:	c0000637          	lui	a2,0xc0000

00000000000035b4 <.LBB103_32>:
    35b4:	00001537          	lui	a0,0x1
    35b8:	40a40533          	sub	a0,s0,a0
    35bc:	dcc53423          	sd	a2,-568(a0) # dc8 <.LBB103_3+0xaf4>
    35c0:	001d1613          	slli	a2,s10,0x1
    35c4:	ea843503          	ld	a0,-344(s0)
    35c8:	00a08533          	add	a0,ra,a0
    35cc:	00060d13          	mv	s10,a2
    35d0:	40c5053b          	subw	a0,a0,a2
    35d4:	00e50533          	add	a0,a0,a4
    35d8:	8805051b          	addiw	a0,a0,-1920
    35dc:	40000637          	lui	a2,0x40000
    35e0:	000010b7          	lui	ra,0x1
    35e4:	401400b3          	sub	ra,s0,ra
    35e8:	dea0b023          	sd	a0,-544(ra) # de0 <.LBB103_3+0xb0c>
    35ec:	97043083          	ld	ra,-1680(s0)
    35f0:	00055463          	bgez	a0,35f8 <.LBB103_34>
    35f4:	c0000637          	lui	a2,0xc0000

00000000000035f8 <.LBB103_34>:
    35f8:	00001537          	lui	a0,0x1
    35fc:	40a40533          	sub	a0,s0,a0
    3600:	dcc53c23          	sd	a2,-552(a0) # dd8 <.LBB103_3+0xb04>
    3604:	001c9c93          	slli	s9,s9,0x1
    3608:	eb043503          	ld	a0,-336(s0)
    360c:	00001637          	lui	a2,0x1
    3610:	40c40633          	sub	a2,s0,a2
    3614:	6f063603          	ld	a2,1776(a2) # 16f0 <.LBB103_4+0x4b0>
    3618:	00a60533          	add	a0,a2,a0
    361c:	00001637          	lui	a2,0x1
    3620:	40c40633          	sub	a2,s0,a2
    3624:	6f963823          	sd	s9,1776(a2) # 16f0 <.LBB103_4+0x4b0>
    3628:	4195053b          	subw	a0,a0,s9
    362c:	00e50533          	add	a0,a0,a4
    3630:	8805051b          	addiw	a0,a0,-1920
    3634:	40000637          	lui	a2,0x40000
    3638:	00001cb7          	lui	s9,0x1
    363c:	41940cb3          	sub	s9,s0,s9
    3640:	deacb823          	sd	a0,-528(s9) # df0 <.LBB103_3+0xb1c>
    3644:	00055463          	bgez	a0,364c <.LBB103_36>
    3648:	c0000637          	lui	a2,0xc0000

000000000000364c <.LBB103_36>:
    364c:	00001537          	lui	a0,0x1
    3650:	40a40533          	sub	a0,s0,a0
    3654:	dec53423          	sd	a2,-536(a0) # de8 <.LBB103_3+0xb14>
    3658:	001c1c13          	slli	s8,s8,0x1
    365c:	eb843503          	ld	a0,-328(s0)
    3660:	00001637          	lui	a2,0x1
    3664:	40c40633          	sub	a2,s0,a2
    3668:	6f863603          	ld	a2,1784(a2) # 16f8 <.LBB103_4+0x4b8>
    366c:	00a60533          	add	a0,a2,a0
    3670:	00001637          	lui	a2,0x1
    3674:	40c40633          	sub	a2,s0,a2
    3678:	6f863c23          	sd	s8,1784(a2) # 16f8 <.LBB103_4+0x4b8>
    367c:	4185053b          	subw	a0,a0,s8
    3680:	00e50533          	add	a0,a0,a4
    3684:	8805051b          	addiw	a0,a0,-1920
    3688:	40000637          	lui	a2,0x40000
    368c:	bd043c83          	ld	s9,-1072(s0)
    3690:	00001c37          	lui	s8,0x1
    3694:	41840c33          	sub	s8,s0,s8
    3698:	e0ac3023          	sd	a0,-512(s8) # e00 <.LBB103_3+0xb2c>
    369c:	00055463          	bgez	a0,36a4 <.LBB103_38>
    36a0:	c0000637          	lui	a2,0xc0000

00000000000036a4 <.LBB103_38>:
    36a4:	00001537          	lui	a0,0x1
    36a8:	40a40533          	sub	a0,s0,a0
    36ac:	dec53c23          	sd	a2,-520(a0) # df8 <.LBB103_3+0xb24>
    36b0:	001b9b93          	slli	s7,s7,0x1
    36b4:	ec043503          	ld	a0,-320(s0)
    36b8:	00001637          	lui	a2,0x1
    36bc:	40c40633          	sub	a2,s0,a2
    36c0:	70063603          	ld	a2,1792(a2) # 1700 <.LBB103_4+0x4c0>
    36c4:	00a60533          	add	a0,a2,a0
    36c8:	00001637          	lui	a2,0x1
    36cc:	40c40633          	sub	a2,s0,a2
    36d0:	71763023          	sd	s7,1792(a2) # 1700 <.LBB103_4+0x4c0>
    36d4:	4175053b          	subw	a0,a0,s7
    36d8:	00e50533          	add	a0,a0,a4
    36dc:	8805051b          	addiw	a0,a0,-1920
    36e0:	40000637          	lui	a2,0x40000
    36e4:	00001bb7          	lui	s7,0x1
    36e8:	41740bb3          	sub	s7,s0,s7
    36ec:	d20bbc03          	ld	s8,-736(s7) # d20 <.LBB103_3+0xa4c>
    36f0:	00001bb7          	lui	s7,0x1
    36f4:	41740bb3          	sub	s7,s0,s7
    36f8:	e0abb823          	sd	a0,-496(s7) # e10 <.LBB103_3+0xb3c>
    36fc:	00055463          	bgez	a0,3704 <.LBB103_40>
    3700:	c0000637          	lui	a2,0xc0000

0000000000003704 <.LBB103_40>:
    3704:	00001537          	lui	a0,0x1
    3708:	40a40533          	sub	a0,s0,a0
    370c:	e0c53423          	sd	a2,-504(a0) # e08 <.LBB103_3+0xb34>
    3710:	001b1b13          	slli	s6,s6,0x1
    3714:	ec843503          	ld	a0,-312(s0)
    3718:	00001637          	lui	a2,0x1
    371c:	40c40633          	sub	a2,s0,a2
    3720:	70863603          	ld	a2,1800(a2) # 1708 <.LBB103_4+0x4c8>
    3724:	00a60533          	add	a0,a2,a0
    3728:	00001637          	lui	a2,0x1
    372c:	40c40633          	sub	a2,s0,a2
    3730:	71663423          	sd	s6,1800(a2) # 1708 <.LBB103_4+0x4c8>
    3734:	4165053b          	subw	a0,a0,s6
    3738:	00e50533          	add	a0,a0,a4
    373c:	8805051b          	addiw	a0,a0,-1920
    3740:	40000637          	lui	a2,0x40000
    3744:	00001b37          	lui	s6,0x1
    3748:	41640b33          	sub	s6,s0,s6
    374c:	650b3b83          	ld	s7,1616(s6) # 1650 <.LBB103_4+0x410>
    3750:	00001b37          	lui	s6,0x1
    3754:	41640b33          	sub	s6,s0,s6
    3758:	e2ab3023          	sd	a0,-480(s6) # e20 <.LBB103_3+0xb4c>
    375c:	00055463          	bgez	a0,3764 <.LBB103_42>
    3760:	c0000637          	lui	a2,0xc0000

0000000000003764 <.LBB103_42>:
    3764:	00001537          	lui	a0,0x1
    3768:	40a40533          	sub	a0,s0,a0
    376c:	e0c53c23          	sd	a2,-488(a0) # e18 <.LBB103_3+0xb44>
    3770:	001a9a93          	slli	s5,s5,0x1
    3774:	f2043503          	ld	a0,-224(s0)
    3778:	00001637          	lui	a2,0x1
    377c:	40c40633          	sub	a2,s0,a2
    3780:	71063603          	ld	a2,1808(a2) # 1710 <.LBB103_4+0x4d0>
    3784:	00a60533          	add	a0,a2,a0
    3788:	00001637          	lui	a2,0x1
    378c:	40c40633          	sub	a2,s0,a2
    3790:	71563823          	sd	s5,1808(a2) # 1710 <.LBB103_4+0x4d0>
    3794:	4155053b          	subw	a0,a0,s5
    3798:	00e50533          	add	a0,a0,a4
    379c:	8805051b          	addiw	a0,a0,-1920
    37a0:	40000637          	lui	a2,0x40000
    37a4:	da843b03          	ld	s6,-600(s0)
    37a8:	00001ab7          	lui	s5,0x1
    37ac:	41540ab3          	sub	s5,s0,s5
    37b0:	e2aab823          	sd	a0,-464(s5) # e30 <.LBB103_3+0xb5c>
    37b4:	00055463          	bgez	a0,37bc <.LBB103_44>
    37b8:	c0000637          	lui	a2,0xc0000

00000000000037bc <.LBB103_44>:
    37bc:	00001537          	lui	a0,0x1
    37c0:	40a40533          	sub	a0,s0,a0
    37c4:	e2c53423          	sd	a2,-472(a0) # e28 <.LBB103_3+0xb54>
    37c8:	001a1613          	slli	a2,s4,0x1
    37cc:	f2843503          	ld	a0,-216(s0)
    37d0:	00a58533          	add	a0,a1,a0
    37d4:	000015b7          	lui	a1,0x1
    37d8:	40b405b3          	sub	a1,s0,a1
    37dc:	70c5bc23          	sd	a2,1816(a1) # 1718 <.LBB103_4+0x4d8>
    37e0:	40c5053b          	subw	a0,a0,a2
    37e4:	00e50533          	add	a0,a0,a4
    37e8:	8805051b          	addiw	a0,a0,-1920
    37ec:	40000637          	lui	a2,0x40000
    37f0:	b3843a83          	ld	s5,-1224(s0)
    37f4:	000015b7          	lui	a1,0x1
    37f8:	40b405b3          	sub	a1,s0,a1
    37fc:	e4a5b023          	sd	a0,-448(a1) # e40 <.LBB103_3+0xb6c>
    3800:	00055463          	bgez	a0,3808 <.LBB103_46>
    3804:	c0000637          	lui	a2,0xc0000

0000000000003808 <.LBB103_46>:
    3808:	00001537          	lui	a0,0x1
    380c:	40a40533          	sub	a0,s0,a0
    3810:	e2c53c23          	sd	a2,-456(a0) # e38 <.LBB103_3+0xb64>
    3814:	00199993          	slli	s3,s3,0x1
    3818:	f3043503          	ld	a0,-208(s0)
    381c:	000015b7          	lui	a1,0x1
    3820:	40b405b3          	sub	a1,s0,a1
    3824:	7205b603          	ld	a2,1824(a1) # 1720 <.LBB103_4+0x4e0>
    3828:	00a60533          	add	a0,a2,a0
    382c:	000015b7          	lui	a1,0x1
    3830:	40b405b3          	sub	a1,s0,a1
    3834:	7335b023          	sd	s3,1824(a1) # 1720 <.LBB103_4+0x4e0>
    3838:	4135053b          	subw	a0,a0,s3
    383c:	00e50533          	add	a0,a0,a4
    3840:	8805051b          	addiw	a0,a0,-1920
    3844:	40000637          	lui	a2,0x40000
    3848:	000015b7          	lui	a1,0x1
    384c:	40b405b3          	sub	a1,s0,a1
    3850:	e4a5b823          	sd	a0,-432(a1) # e50 <.LBB103_3+0xb7c>
    3854:	000015b7          	lui	a1,0x1
    3858:	40b405b3          	sub	a1,s0,a1
    385c:	7785ba03          	ld	s4,1912(a1) # 1778 <.LBB103_4+0x538>
    3860:	00055463          	bgez	a0,3868 <.LBB103_48>
    3864:	c0000637          	lui	a2,0xc0000

0000000000003868 <.LBB103_48>:
    3868:	00001537          	lui	a0,0x1
    386c:	40a40533          	sub	a0,s0,a0
    3870:	e4c53423          	sd	a2,-440(a0) # e48 <.LBB103_3+0xb74>
    3874:	00191913          	slli	s2,s2,0x1
    3878:	f3843503          	ld	a0,-200(s0)
    387c:	000015b7          	lui	a1,0x1
    3880:	40b405b3          	sub	a1,s0,a1
    3884:	7285b603          	ld	a2,1832(a1) # 1728 <.LBB103_4+0x4e8>
    3888:	00a60533          	add	a0,a2,a0
    388c:	000015b7          	lui	a1,0x1
    3890:	40b405b3          	sub	a1,s0,a1
    3894:	7325b423          	sd	s2,1832(a1) # 1728 <.LBB103_4+0x4e8>
    3898:	4125053b          	subw	a0,a0,s2
    389c:	00e50533          	add	a0,a0,a4
    38a0:	8805051b          	addiw	a0,a0,-1920
    38a4:	40000637          	lui	a2,0x40000
    38a8:	db043983          	ld	s3,-592(s0)
    38ac:	000015b7          	lui	a1,0x1
    38b0:	40b405b3          	sub	a1,s0,a1
    38b4:	e6a5b023          	sd	a0,-416(a1) # e60 <.LBB103_3+0xb8c>
    38b8:	00055463          	bgez	a0,38c0 <.LBB103_50>
    38bc:	c0000637          	lui	a2,0xc0000

00000000000038c0 <.LBB103_50>:
    38c0:	00001537          	lui	a0,0x1
    38c4:	40a40533          	sub	a0,s0,a0
    38c8:	e4c53c23          	sd	a2,-424(a0) # e58 <.LBB103_3+0xb84>
    38cc:	00149493          	slli	s1,s1,0x1
    38d0:	f4043503          	ld	a0,-192(s0)
    38d4:	000015b7          	lui	a1,0x1
    38d8:	40b405b3          	sub	a1,s0,a1
    38dc:	7305b603          	ld	a2,1840(a1) # 1730 <.LBB103_4+0x4f0>
    38e0:	00a60533          	add	a0,a2,a0
    38e4:	000015b7          	lui	a1,0x1
    38e8:	40b405b3          	sub	a1,s0,a1
    38ec:	7295b823          	sd	s1,1840(a1) # 1730 <.LBB103_4+0x4f0>
    38f0:	4095053b          	subw	a0,a0,s1
    38f4:	00e50533          	add	a0,a0,a4
    38f8:	8805051b          	addiw	a0,a0,-1920
    38fc:	40000637          	lui	a2,0x40000
    3900:	000015b7          	lui	a1,0x1
    3904:	40b405b3          	sub	a1,s0,a1
    3908:	e6a5b823          	sd	a0,-400(a1) # e70 <.LBB103_3+0xb9c>
    390c:	87843903          	ld	s2,-1928(s0)
    3910:	00055463          	bgez	a0,3918 <.LBB103_52>
    3914:	c0000637          	lui	a2,0xc0000

0000000000003918 <.LBB103_52>:
    3918:	00001537          	lui	a0,0x1
    391c:	40a40533          	sub	a0,s0,a0
    3920:	e6c53423          	sd	a2,-408(a0) # e68 <.LBB103_3+0xb94>
    3924:	001f9f93          	slli	t6,t6,0x1
    3928:	f4843503          	ld	a0,-184(s0)
    392c:	000015b7          	lui	a1,0x1
    3930:	40b405b3          	sub	a1,s0,a1
    3934:	7385b603          	ld	a2,1848(a1) # 1738 <.LBB103_4+0x4f8>
    3938:	00a60533          	add	a0,a2,a0
    393c:	000015b7          	lui	a1,0x1
    3940:	40b405b3          	sub	a1,s0,a1
    3944:	73f5bc23          	sd	t6,1848(a1) # 1738 <.LBB103_4+0x4f8>
    3948:	41f5053b          	subw	a0,a0,t6
    394c:	00e50533          	add	a0,a0,a4
    3950:	8805051b          	addiw	a0,a0,-1920
    3954:	40000637          	lui	a2,0x40000
    3958:	dc043483          	ld	s1,-576(s0)
    395c:	000015b7          	lui	a1,0x1
    3960:	40b405b3          	sub	a1,s0,a1
    3964:	e8a5b023          	sd	a0,-384(a1) # e80 <.LBB103_3+0xbac>
    3968:	00055463          	bgez	a0,3970 <.LBB103_54>
    396c:	c0000637          	lui	a2,0xc0000

0000000000003970 <.LBB103_54>:
    3970:	00001537          	lui	a0,0x1
    3974:	40a40533          	sub	a0,s0,a0
    3978:	e6c53c23          	sd	a2,-392(a0) # e78 <.LBB103_3+0xba4>
    397c:	001f1f13          	slli	t5,t5,0x1
    3980:	f5043503          	ld	a0,-176(s0)
    3984:	000015b7          	lui	a1,0x1
    3988:	40b405b3          	sub	a1,s0,a1
    398c:	7405b603          	ld	a2,1856(a1) # 1740 <.LBB103_4+0x500>
    3990:	00a60533          	add	a0,a2,a0
    3994:	000015b7          	lui	a1,0x1
    3998:	40b405b3          	sub	a1,s0,a1
    399c:	75e5b023          	sd	t5,1856(a1) # 1740 <.LBB103_4+0x500>
    39a0:	41e5053b          	subw	a0,a0,t5
    39a4:	00e50533          	add	a0,a0,a4
    39a8:	8805051b          	addiw	a0,a0,-1920
    39ac:	40000637          	lui	a2,0x40000
    39b0:	a8043f83          	ld	t6,-1408(s0)
    39b4:	000015b7          	lui	a1,0x1
    39b8:	40b405b3          	sub	a1,s0,a1
    39bc:	e8a5b823          	sd	a0,-368(a1) # e90 <.LBB103_3+0xbbc>
    39c0:	00055463          	bgez	a0,39c8 <.LBB103_56>
    39c4:	c0000637          	lui	a2,0xc0000

00000000000039c8 <.LBB103_56>:
    39c8:	00001537          	lui	a0,0x1
    39cc:	40a40533          	sub	a0,s0,a0
    39d0:	e8c53423          	sd	a2,-376(a0) # e88 <.LBB103_3+0xbb4>
    39d4:	001e9e93          	slli	t4,t4,0x1
    39d8:	f5843503          	ld	a0,-168(s0)
    39dc:	000015b7          	lui	a1,0x1
    39e0:	40b405b3          	sub	a1,s0,a1
    39e4:	7485b603          	ld	a2,1864(a1) # 1748 <.LBB103_4+0x508>
    39e8:	00a60533          	add	a0,a2,a0
    39ec:	000015b7          	lui	a1,0x1
    39f0:	40b405b3          	sub	a1,s0,a1
    39f4:	75d5b423          	sd	t4,1864(a1) # 1748 <.LBB103_4+0x508>
    39f8:	41d5053b          	subw	a0,a0,t4
    39fc:	00e50533          	add	a0,a0,a4
    3a00:	8805051b          	addiw	a0,a0,-1920
    3a04:	40000637          	lui	a2,0x40000
    3a08:	dd043f03          	ld	t5,-560(s0)
    3a0c:	000015b7          	lui	a1,0x1
    3a10:	40b405b3          	sub	a1,s0,a1
    3a14:	eaa5b023          	sd	a0,-352(a1) # ea0 <.LBB103_3+0xbcc>
    3a18:	00055463          	bgez	a0,3a20 <.LBB103_58>
    3a1c:	c0000637          	lui	a2,0xc0000

0000000000003a20 <.LBB103_58>:
    3a20:	00001537          	lui	a0,0x1
    3a24:	40a40533          	sub	a0,s0,a0
    3a28:	e8c53c23          	sd	a2,-360(a0) # e98 <.LBB103_3+0xbc4>
    3a2c:	001e1e13          	slli	t3,t3,0x1
    3a30:	f6043503          	ld	a0,-160(s0)
    3a34:	000015b7          	lui	a1,0x1
    3a38:	40b405b3          	sub	a1,s0,a1
    3a3c:	7505b603          	ld	a2,1872(a1) # 1750 <.LBB103_4+0x510>
    3a40:	00a60533          	add	a0,a2,a0
    3a44:	000015b7          	lui	a1,0x1
    3a48:	40b405b3          	sub	a1,s0,a1
    3a4c:	75c5b823          	sd	t3,1872(a1) # 1750 <.LBB103_4+0x510>
    3a50:	41c5053b          	subw	a0,a0,t3
    3a54:	00e50533          	add	a0,a0,a4
    3a58:	8805051b          	addiw	a0,a0,-1920
    3a5c:	40000637          	lui	a2,0x40000
    3a60:	dd843e83          	ld	t4,-552(s0)
    3a64:	000015b7          	lui	a1,0x1
    3a68:	40b405b3          	sub	a1,s0,a1
    3a6c:	eaa5b823          	sd	a0,-336(a1) # eb0 <.LBB103_3+0xbdc>
    3a70:	00055463          	bgez	a0,3a78 <.LBB103_60>
    3a74:	c0000637          	lui	a2,0xc0000

0000000000003a78 <.LBB103_60>:
    3a78:	00001537          	lui	a0,0x1
    3a7c:	40a40533          	sub	a0,s0,a0
    3a80:	eac53423          	sd	a2,-344(a0) # ea8 <.LBB103_3+0xbd4>
    3a84:	00139393          	slli	t2,t2,0x1
    3a88:	f6843503          	ld	a0,-152(s0)
    3a8c:	000015b7          	lui	a1,0x1
    3a90:	40b405b3          	sub	a1,s0,a1
    3a94:	7585b603          	ld	a2,1880(a1) # 1758 <.LBB103_4+0x518>
    3a98:	00a60533          	add	a0,a2,a0
    3a9c:	000015b7          	lui	a1,0x1
    3aa0:	40b405b3          	sub	a1,s0,a1
    3aa4:	7475bc23          	sd	t2,1880(a1) # 1758 <.LBB103_4+0x518>
    3aa8:	4075053b          	subw	a0,a0,t2
    3aac:	00e50533          	add	a0,a0,a4
    3ab0:	8805051b          	addiw	a0,a0,-1920
    3ab4:	40000637          	lui	a2,0x40000
    3ab8:	de043e03          	ld	t3,-544(s0)
    3abc:	000015b7          	lui	a1,0x1
    3ac0:	40b405b3          	sub	a1,s0,a1
    3ac4:	eca5b023          	sd	a0,-320(a1) # ec0 <.LBB103_3+0xbec>
    3ac8:	00055463          	bgez	a0,3ad0 <.LBB103_62>
    3acc:	c0000637          	lui	a2,0xc0000

0000000000003ad0 <.LBB103_62>:
    3ad0:	00001537          	lui	a0,0x1
    3ad4:	40a40533          	sub	a0,s0,a0
    3ad8:	eac53c23          	sd	a2,-328(a0) # eb8 <.LBB103_3+0xbe4>
    3adc:	00131313          	slli	t1,t1,0x1
    3ae0:	f7043503          	ld	a0,-144(s0)
    3ae4:	000015b7          	lui	a1,0x1
    3ae8:	40b405b3          	sub	a1,s0,a1
    3aec:	7605b603          	ld	a2,1888(a1) # 1760 <.LBB103_4+0x520>
    3af0:	00a60533          	add	a0,a2,a0
    3af4:	000015b7          	lui	a1,0x1
    3af8:	40b405b3          	sub	a1,s0,a1
    3afc:	7665b023          	sd	t1,1888(a1) # 1760 <.LBB103_4+0x520>
    3b00:	4065053b          	subw	a0,a0,t1
    3b04:	00e50533          	add	a0,a0,a4
    3b08:	8805051b          	addiw	a0,a0,-1920
    3b0c:	40000637          	lui	a2,0x40000
    3b10:	de843383          	ld	t2,-536(s0)
    3b14:	000015b7          	lui	a1,0x1
    3b18:	40b405b3          	sub	a1,s0,a1
    3b1c:	eca5b823          	sd	a0,-304(a1) # ed0 <.LBB103_3+0xbfc>
    3b20:	00055463          	bgez	a0,3b28 <.LBB103_64>
    3b24:	c0000637          	lui	a2,0xc0000

0000000000003b28 <.LBB103_64>:
    3b28:	00001537          	lui	a0,0x1
    3b2c:	40a40533          	sub	a0,s0,a0
    3b30:	ecc53423          	sd	a2,-312(a0) # ec8 <.LBB103_3+0xbf4>
    3b34:	00129293          	slli	t0,t0,0x1
    3b38:	f7843503          	ld	a0,-136(s0)
    3b3c:	000015b7          	lui	a1,0x1
    3b40:	40b405b3          	sub	a1,s0,a1
    3b44:	7685b603          	ld	a2,1896(a1) # 1768 <.LBB103_4+0x528>
    3b48:	00a60533          	add	a0,a2,a0
    3b4c:	000015b7          	lui	a1,0x1
    3b50:	40b405b3          	sub	a1,s0,a1
    3b54:	7655b423          	sd	t0,1896(a1) # 1768 <.LBB103_4+0x528>
    3b58:	4055053b          	subw	a0,a0,t0
    3b5c:	00e50533          	add	a0,a0,a4
    3b60:	8805051b          	addiw	a0,a0,-1920
    3b64:	40000637          	lui	a2,0x40000
    3b68:	df043303          	ld	t1,-528(s0)
    3b6c:	000015b7          	lui	a1,0x1
    3b70:	40b405b3          	sub	a1,s0,a1
    3b74:	eea5b023          	sd	a0,-288(a1) # ee0 <.LBB103_3+0xc0c>
    3b78:	00055463          	bgez	a0,3b80 <.LBB103_66>
    3b7c:	c0000637          	lui	a2,0xc0000

0000000000003b80 <.LBB103_66>:
    3b80:	00001537          	lui	a0,0x1
    3b84:	40a40533          	sub	a0,s0,a0
    3b88:	ecc53c23          	sd	a2,-296(a0) # ed8 <.LBB103_3+0xc04>
    3b8c:	00181813          	slli	a6,a6,0x1
    3b90:	f8043503          	ld	a0,-128(s0)
    3b94:	000015b7          	lui	a1,0x1
    3b98:	40b405b3          	sub	a1,s0,a1
    3b9c:	7705b603          	ld	a2,1904(a1) # 1770 <.LBB103_4+0x530>
    3ba0:	00a60533          	add	a0,a2,a0
    3ba4:	000015b7          	lui	a1,0x1
    3ba8:	40b405b3          	sub	a1,s0,a1
    3bac:	7705b823          	sd	a6,1904(a1) # 1770 <.LBB103_4+0x530>
    3bb0:	4105053b          	subw	a0,a0,a6
    3bb4:	00e50533          	add	a0,a0,a4
    3bb8:	8805051b          	addiw	a0,a0,-1920
    3bbc:	40000637          	lui	a2,0x40000
    3bc0:	df843283          	ld	t0,-520(s0)
    3bc4:	000015b7          	lui	a1,0x1
    3bc8:	40b405b3          	sub	a1,s0,a1
    3bcc:	eea5b823          	sd	a0,-272(a1) # ef0 <.LBB103_3+0xc1c>
    3bd0:	00055463          	bgez	a0,3bd8 <.LBB103_68>
    3bd4:	c0000637          	lui	a2,0xc0000

0000000000003bd8 <.LBB103_68>:
    3bd8:	00001537          	lui	a0,0x1
    3bdc:	40a40533          	sub	a0,s0,a0
    3be0:	eec53423          	sd	a2,-280(a0) # ee8 <.LBB103_3+0xc14>
    3be4:	00179793          	slli	a5,a5,0x1
    3be8:	f8843503          	ld	a0,-120(s0)
    3bec:	00aa0533          	add	a0,s4,a0
    3bf0:	00078a13          	mv	s4,a5
    3bf4:	40f5053b          	subw	a0,a0,a5
    3bf8:	00e50533          	add	a0,a0,a4
    3bfc:	8805051b          	addiw	a0,a0,-1920
    3c00:	40000637          	lui	a2,0x40000
    3c04:	b2043803          	ld	a6,-1248(s0)
    3c08:	000015b7          	lui	a1,0x1
    3c0c:	40b405b3          	sub	a1,s0,a1
    3c10:	f0a5b423          	sd	a0,-248(a1) # f08 <.LBB103_3+0xc34>
    3c14:	00055463          	bgez	a0,3c1c <.LBB103_70>
    3c18:	c0000637          	lui	a2,0xc0000

0000000000003c1c <.LBB103_70>:
    3c1c:	00001537          	lui	a0,0x1
    3c20:	40a40533          	sub	a0,s0,a0
    3c24:	eec53c23          	sd	a2,-264(a0) # ef8 <.LBB103_3+0xc24>
    3c28:	00189713          	slli	a4,a7,0x1
    3c2c:	e8843503          	ld	a0,-376(s0)
    3c30:	000015b7          	lui	a1,0x1
    3c34:	40b405b3          	sub	a1,s0,a1
    3c38:	7805b603          	ld	a2,1920(a1) # 1780 <.LBB103_4+0x540>
    3c3c:	00a60533          	add	a0,a2,a0
    3c40:	01170733          	add	a4,a4,a7
    3c44:	e8043603          	ld	a2,-384(s0)
    3c48:	40c5053b          	subw	a0,a0,a2
    3c4c:	00e50533          	add	a0,a0,a4
    3c50:	8805051b          	addiw	a0,a0,-1920
    3c54:	40000637          	lui	a2,0x40000
    3c58:	af843783          	ld	a5,-1288(s0)
    3c5c:	000015b7          	lui	a1,0x1
    3c60:	40b405b3          	sub	a1,s0,a1
    3c64:	f0a5b823          	sd	a0,-240(a1) # f10 <.LBB103_3+0xc3c>
    3c68:	00055463          	bgez	a0,3c70 <.LBB103_72>
    3c6c:	c0000637          	lui	a2,0xc0000

0000000000003c70 <.LBB103_72>:
    3c70:	00001537          	lui	a0,0x1
    3c74:	40a40533          	sub	a0,s0,a0
    3c78:	f0c53023          	sd	a2,-256(a0) # f00 <.LBB103_3+0xc2c>
    3c7c:	e7843503          	ld	a0,-392(s0)
    3c80:	000015b7          	lui	a1,0x1
    3c84:	40b405b3          	sub	a1,s0,a1
    3c88:	7885b603          	ld	a2,1928(a1) # 1788 <.LBB103_4+0x548>
    3c8c:	00a60533          	add	a0,a2,a0
    3c90:	e7043603          	ld	a2,-400(s0)
    3c94:	40c5053b          	subw	a0,a0,a2
    3c98:	00e50533          	add	a0,a0,a4
    3c9c:	8805051b          	addiw	a0,a0,-1920
    3ca0:	40000637          	lui	a2,0x40000
    3ca4:	000015b7          	lui	a1,0x1
    3ca8:	40b405b3          	sub	a1,s0,a1
    3cac:	f2a5b023          	sd	a0,-224(a1) # f20 <.LBB103_3+0xc4c>
    3cb0:	88043883          	ld	a7,-1920(s0)
    3cb4:	00055463          	bgez	a0,3cbc <.LBB103_74>
    3cb8:	c0000637          	lui	a2,0xc0000

0000000000003cbc <.LBB103_74>:
    3cbc:	00001537          	lui	a0,0x1
    3cc0:	40a40533          	sub	a0,s0,a0
    3cc4:	f0c53c23          	sd	a2,-232(a0) # f18 <.LBB103_3+0xc44>
    3cc8:	e6843503          	ld	a0,-408(s0)
    3ccc:	000015b7          	lui	a1,0x1
    3cd0:	40b405b3          	sub	a1,s0,a1
    3cd4:	7905b603          	ld	a2,1936(a1) # 1790 <.LBB103_4+0x550>
    3cd8:	00a60533          	add	a0,a2,a0
    3cdc:	e6043603          	ld	a2,-416(s0)
    3ce0:	40c5053b          	subw	a0,a0,a2
    3ce4:	00e50533          	add	a0,a0,a4
    3ce8:	8805051b          	addiw	a0,a0,-1920
    3cec:	40000637          	lui	a2,0x40000
    3cf0:	000015b7          	lui	a1,0x1
    3cf4:	40b405b3          	sub	a1,s0,a1
    3cf8:	f2a5b823          	sd	a0,-208(a1) # f30 <.LBB103_3+0xc5c>
    3cfc:	00055463          	bgez	a0,3d04 <.LBB103_76>
    3d00:	c0000637          	lui	a2,0xc0000

0000000000003d04 <.LBB103_76>:
    3d04:	00001537          	lui	a0,0x1
    3d08:	40a40533          	sub	a0,s0,a0
    3d0c:	f2c53423          	sd	a2,-216(a0) # f28 <.LBB103_3+0xc54>
    3d10:	e5843503          	ld	a0,-424(s0)
    3d14:	000015b7          	lui	a1,0x1
    3d18:	40b405b3          	sub	a1,s0,a1
    3d1c:	7985b603          	ld	a2,1944(a1) # 1798 <.LBB103_4+0x558>
    3d20:	00a60533          	add	a0,a2,a0
    3d24:	e5043603          	ld	a2,-432(s0)
    3d28:	40c5053b          	subw	a0,a0,a2
    3d2c:	00e50533          	add	a0,a0,a4
    3d30:	8805051b          	addiw	a0,a0,-1920
    3d34:	40000637          	lui	a2,0x40000
    3d38:	000015b7          	lui	a1,0x1
    3d3c:	40b405b3          	sub	a1,s0,a1
    3d40:	f4a5b023          	sd	a0,-192(a1) # f40 <.LBB103_3+0xc6c>
    3d44:	00055463          	bgez	a0,3d4c <.LBB103_78>
    3d48:	c0000637          	lui	a2,0xc0000

0000000000003d4c <.LBB103_78>:
    3d4c:	00001537          	lui	a0,0x1
    3d50:	40a40533          	sub	a0,s0,a0
    3d54:	f2c53c23          	sd	a2,-200(a0) # f38 <.LBB103_3+0xc64>
    3d58:	e4843503          	ld	a0,-440(s0)
    3d5c:	000015b7          	lui	a1,0x1
    3d60:	40b405b3          	sub	a1,s0,a1
    3d64:	7a05b603          	ld	a2,1952(a1) # 17a0 <.LBB103_4+0x560>
    3d68:	00a60533          	add	a0,a2,a0
    3d6c:	e4043603          	ld	a2,-448(s0)
    3d70:	40c5053b          	subw	a0,a0,a2
    3d74:	00e50533          	add	a0,a0,a4
    3d78:	8805051b          	addiw	a0,a0,-1920
    3d7c:	40000637          	lui	a2,0x40000
    3d80:	000015b7          	lui	a1,0x1
    3d84:	40b405b3          	sub	a1,s0,a1
    3d88:	f4a5b823          	sd	a0,-176(a1) # f50 <.LBB103_3+0xc7c>
    3d8c:	00055463          	bgez	a0,3d94 <.LBB103_80>
    3d90:	c0000637          	lui	a2,0xc0000

0000000000003d94 <.LBB103_80>:
    3d94:	00001537          	lui	a0,0x1
    3d98:	40a40533          	sub	a0,s0,a0
    3d9c:	f4c53423          	sd	a2,-184(a0) # f48 <.LBB103_3+0xc74>
    3da0:	e3843503          	ld	a0,-456(s0)
    3da4:	000015b7          	lui	a1,0x1
    3da8:	40b405b3          	sub	a1,s0,a1
    3dac:	7a85b603          	ld	a2,1960(a1) # 17a8 <.LBB103_4+0x568>
    3db0:	00a60533          	add	a0,a2,a0
    3db4:	e3043603          	ld	a2,-464(s0)
    3db8:	40c5053b          	subw	a0,a0,a2
    3dbc:	00e50533          	add	a0,a0,a4
    3dc0:	8805051b          	addiw	a0,a0,-1920
    3dc4:	40000637          	lui	a2,0x40000
    3dc8:	000015b7          	lui	a1,0x1
    3dcc:	40b405b3          	sub	a1,s0,a1
    3dd0:	f6a5b423          	sd	a0,-152(a1) # f68 <.LBB103_3+0xc94>
    3dd4:	00055463          	bgez	a0,3ddc <.LBB103_82>
    3dd8:	c0000637          	lui	a2,0xc0000

0000000000003ddc <.LBB103_82>:
    3ddc:	00001537          	lui	a0,0x1
    3de0:	40a40533          	sub	a0,s0,a0
    3de4:	f4c53c23          	sd	a2,-168(a0) # f58 <.LBB103_3+0xc84>
    3de8:	00001537          	lui	a0,0x1
    3dec:	40a40533          	sub	a0,s0,a0
    3df0:	6c053503          	ld	a0,1728(a0) # 16c0 <.LBB103_4+0x480>
    3df4:	000015b7          	lui	a1,0x1
    3df8:	40b405b3          	sub	a1,s0,a1
    3dfc:	7b05b603          	ld	a2,1968(a1) # 17b0 <.LBB103_4+0x570>
    3e00:	00a60533          	add	a0,a2,a0
    3e04:	000015b7          	lui	a1,0x1
    3e08:	40b405b3          	sub	a1,s0,a1
    3e0c:	6b85b603          	ld	a2,1720(a1) # 16b8 <.LBB103_4+0x478>
    3e10:	40c5053b          	subw	a0,a0,a2
    3e14:	00e50533          	add	a0,a0,a4
    3e18:	8805051b          	addiw	a0,a0,-1920
    3e1c:	40000637          	lui	a2,0x40000
    3e20:	000015b7          	lui	a1,0x1
    3e24:	40b405b3          	sub	a1,s0,a1
    3e28:	faa5b023          	sd	a0,-96(a1) # fa0 <.LBB103_3+0xccc>
    3e2c:	00055463          	bgez	a0,3e34 <.LBB103_84>
    3e30:	c0000637          	lui	a2,0xc0000

0000000000003e34 <.LBB103_84>:
    3e34:	00001537          	lui	a0,0x1
    3e38:	40a40533          	sub	a0,s0,a0
    3e3c:	f8c53023          	sd	a2,-128(a0) # f80 <.LBB103_3+0xcac>
    3e40:	00001537          	lui	a0,0x1
    3e44:	40a40533          	sub	a0,s0,a0
    3e48:	6b053503          	ld	a0,1712(a0) # 16b0 <.LBB103_4+0x470>
    3e4c:	000015b7          	lui	a1,0x1
    3e50:	40b405b3          	sub	a1,s0,a1
    3e54:	7b85b603          	ld	a2,1976(a1) # 17b8 <.LBB103_4+0x578>
    3e58:	00a60533          	add	a0,a2,a0
    3e5c:	000015b7          	lui	a1,0x1
    3e60:	40b405b3          	sub	a1,s0,a1
    3e64:	6a85b603          	ld	a2,1704(a1) # 16a8 <.LBB103_4+0x468>
    3e68:	40c5053b          	subw	a0,a0,a2
    3e6c:	00e50533          	add	a0,a0,a4
    3e70:	8805051b          	addiw	a0,a0,-1920
    3e74:	40000637          	lui	a2,0x40000
    3e78:	000015b7          	lui	a1,0x1
    3e7c:	40b405b3          	sub	a1,s0,a1
    3e80:	fea5b423          	sd	a0,-24(a1) # fe8 <.LBB103_3+0xd14>
    3e84:	00055463          	bgez	a0,3e8c <.LBB103_86>
    3e88:	c0000637          	lui	a2,0xc0000

0000000000003e8c <.LBB103_86>:
    3e8c:	00001537          	lui	a0,0x1
    3e90:	40a40533          	sub	a0,s0,a0
    3e94:	fcc53023          	sd	a2,-64(a0) # fc0 <.LBB103_3+0xcec>
    3e98:	00001537          	lui	a0,0x1
    3e9c:	40a40533          	sub	a0,s0,a0
    3ea0:	6a053503          	ld	a0,1696(a0) # 16a0 <.LBB103_4+0x460>
    3ea4:	000015b7          	lui	a1,0x1
    3ea8:	40b405b3          	sub	a1,s0,a1
    3eac:	7c05b603          	ld	a2,1984(a1) # 17c0 <.LBB103_4+0x580>
    3eb0:	00a60533          	add	a0,a2,a0
    3eb4:	000015b7          	lui	a1,0x1
    3eb8:	40b405b3          	sub	a1,s0,a1
    3ebc:	6985b603          	ld	a2,1688(a1) # 1698 <.LBB103_4+0x458>
    3ec0:	40c5053b          	subw	a0,a0,a2
    3ec4:	00e50533          	add	a0,a0,a4
    3ec8:	8805051b          	addiw	a0,a0,-1920
    3ecc:	40000637          	lui	a2,0x40000
    3ed0:	000015b7          	lui	a1,0x1
    3ed4:	40b405b3          	sub	a1,s0,a1
    3ed8:	00a5bc23          	sd	a0,24(a1) # 1018 <.LBB103_3+0xd44>
    3edc:	00055463          	bgez	a0,3ee4 <.LBB103_88>
    3ee0:	c0000637          	lui	a2,0xc0000

0000000000003ee4 <.LBB103_88>:
    3ee4:	00001537          	lui	a0,0x1
    3ee8:	40a40533          	sub	a0,s0,a0
    3eec:	00c53423          	sd	a2,8(a0) # 1008 <.LBB103_3+0xd34>
    3ef0:	00001537          	lui	a0,0x1
    3ef4:	40a40533          	sub	a0,s0,a0
    3ef8:	69053503          	ld	a0,1680(a0) # 1690 <.LBB103_4+0x450>
    3efc:	000015b7          	lui	a1,0x1
    3f00:	40b405b3          	sub	a1,s0,a1
    3f04:	7c85b603          	ld	a2,1992(a1) # 17c8 <.LBB103_4+0x588>
    3f08:	00a60533          	add	a0,a2,a0
    3f0c:	000015b7          	lui	a1,0x1
    3f10:	40b405b3          	sub	a1,s0,a1
    3f14:	6c85b603          	ld	a2,1736(a1) # 16c8 <.LBB103_4+0x488>
    3f18:	40c5053b          	subw	a0,a0,a2
    3f1c:	00e50533          	add	a0,a0,a4
    3f20:	8805051b          	addiw	a0,a0,-1920
    3f24:	40000637          	lui	a2,0x40000
    3f28:	000015b7          	lui	a1,0x1
    3f2c:	40b405b3          	sub	a1,s0,a1
    3f30:	02a5b823          	sd	a0,48(a1) # 1030 <.LBB103_3+0xd5c>
    3f34:	00055463          	bgez	a0,3f3c <.LBB103_90>
    3f38:	c0000637          	lui	a2,0xc0000

0000000000003f3c <.LBB103_90>:
    3f3c:	00001537          	lui	a0,0x1
    3f40:	40a40533          	sub	a0,s0,a0
    3f44:	02c53423          	sd	a2,40(a0) # 1028 <.LBB103_3+0xd54>
    3f48:	e9043503          	ld	a0,-368(s0)
    3f4c:	000015b7          	lui	a1,0x1
    3f50:	40b405b3          	sub	a1,s0,a1
    3f54:	7d05b603          	ld	a2,2000(a1) # 17d0 <.LBB103_4+0x590>
    3f58:	00a60533          	add	a0,a2,a0
    3f5c:	000015b7          	lui	a1,0x1
    3f60:	40b405b3          	sub	a1,s0,a1
    3f64:	6d05b603          	ld	a2,1744(a1) # 16d0 <.LBB103_4+0x490>
    3f68:	40c5053b          	subw	a0,a0,a2
    3f6c:	00e50533          	add	a0,a0,a4
    3f70:	8805051b          	addiw	a0,a0,-1920
    3f74:	40000637          	lui	a2,0x40000
    3f78:	000015b7          	lui	a1,0x1
    3f7c:	40b405b3          	sub	a1,s0,a1
    3f80:	04a5b023          	sd	a0,64(a1) # 1040 <.LBB103_3+0xd6c>
    3f84:	00055463          	bgez	a0,3f8c <.LBB103_92>
    3f88:	c0000637          	lui	a2,0xc0000

0000000000003f8c <.LBB103_92>:
    3f8c:	00001537          	lui	a0,0x1
    3f90:	40a40533          	sub	a0,s0,a0
    3f94:	02c53c23          	sd	a2,56(a0) # 1038 <.LBB103_3+0xd64>
    3f98:	e9843503          	ld	a0,-360(s0)
    3f9c:	000015b7          	lui	a1,0x1
    3fa0:	40b405b3          	sub	a1,s0,a1
    3fa4:	7d85b603          	ld	a2,2008(a1) # 17d8 <.LBB103_4+0x598>
    3fa8:	00a60533          	add	a0,a2,a0
    3fac:	000015b7          	lui	a1,0x1
    3fb0:	40b405b3          	sub	a1,s0,a1
    3fb4:	6d85b603          	ld	a2,1752(a1) # 16d8 <.LBB103_4+0x498>
    3fb8:	40c5053b          	subw	a0,a0,a2
    3fbc:	00e50533          	add	a0,a0,a4
    3fc0:	8805051b          	addiw	a0,a0,-1920
    3fc4:	40000637          	lui	a2,0x40000
    3fc8:	000015b7          	lui	a1,0x1
    3fcc:	40b405b3          	sub	a1,s0,a1
    3fd0:	04a5b823          	sd	a0,80(a1) # 1050 <.LBB103_3+0xd7c>
    3fd4:	00055463          	bgez	a0,3fdc <.LBB103_94>
    3fd8:	c0000637          	lui	a2,0xc0000

0000000000003fdc <.LBB103_94>:
    3fdc:	00001537          	lui	a0,0x1
    3fe0:	40a40533          	sub	a0,s0,a0
    3fe4:	04c53423          	sd	a2,72(a0) # 1048 <.LBB103_3+0xd74>
    3fe8:	ea043503          	ld	a0,-352(s0)
    3fec:	000015b7          	lui	a1,0x1
    3ff0:	40b405b3          	sub	a1,s0,a1
    3ff4:	7e05b603          	ld	a2,2016(a1) # 17e0 <.LBB103_4+0x5a0>
    3ff8:	00a60533          	add	a0,a2,a0
    3ffc:	41b5053b          	subw	a0,a0,s11
    4000:	00e50533          	add	a0,a0,a4
    4004:	8805051b          	addiw	a0,a0,-1920
    4008:	40000637          	lui	a2,0x40000
    400c:	000015b7          	lui	a1,0x1
    4010:	40b405b3          	sub	a1,s0,a1
    4014:	06a5b023          	sd	a0,96(a1) # 1060 <.LBB103_3+0xd8c>
    4018:	00055463          	bgez	a0,4020 <.LBB103_96>
    401c:	c0000637          	lui	a2,0xc0000

0000000000004020 <.LBB103_96>:
    4020:	00001537          	lui	a0,0x1
    4024:	40a40533          	sub	a0,s0,a0
    4028:	04c53c23          	sd	a2,88(a0) # 1058 <.LBB103_3+0xd84>
    402c:	ea843503          	ld	a0,-344(s0)
    4030:	000015b7          	lui	a1,0x1
    4034:	40b405b3          	sub	a1,s0,a1
    4038:	7e85b603          	ld	a2,2024(a1) # 17e8 <.LBB103_4+0x5a8>
    403c:	00a60533          	add	a0,a2,a0
    4040:	41a5053b          	subw	a0,a0,s10
    4044:	00e50533          	add	a0,a0,a4
    4048:	8805051b          	addiw	a0,a0,-1920
    404c:	40000637          	lui	a2,0x40000
    4050:	000015b7          	lui	a1,0x1
    4054:	40b405b3          	sub	a1,s0,a1
    4058:	06a5b823          	sd	a0,112(a1) # 1070 <.LBB103_3+0xd9c>
    405c:	00055463          	bgez	a0,4064 <.LBB103_98>
    4060:	c0000637          	lui	a2,0xc0000

0000000000004064 <.LBB103_98>:
    4064:	00001537          	lui	a0,0x1
    4068:	40a40533          	sub	a0,s0,a0
    406c:	06c53423          	sd	a2,104(a0) # 1068 <.LBB103_3+0xd94>
    4070:	eb043503          	ld	a0,-336(s0)
    4074:	000015b7          	lui	a1,0x1
    4078:	40b405b3          	sub	a1,s0,a1
    407c:	7f05b603          	ld	a2,2032(a1) # 17f0 <.LBB103_4+0x5b0>
    4080:	00a60533          	add	a0,a2,a0
    4084:	000015b7          	lui	a1,0x1
    4088:	40b405b3          	sub	a1,s0,a1
    408c:	6f05b603          	ld	a2,1776(a1) # 16f0 <.LBB103_4+0x4b0>
    4090:	40c5053b          	subw	a0,a0,a2
    4094:	00e50533          	add	a0,a0,a4
    4098:	8805051b          	addiw	a0,a0,-1920
    409c:	40000637          	lui	a2,0x40000
    40a0:	000015b7          	lui	a1,0x1
    40a4:	40b405b3          	sub	a1,s0,a1
    40a8:	08a5b023          	sd	a0,128(a1) # 1080 <.LBB103_3+0xdac>
    40ac:	00055463          	bgez	a0,40b4 <.LBB103_100>
    40b0:	c0000637          	lui	a2,0xc0000

00000000000040b4 <.LBB103_100>:
    40b4:	00001537          	lui	a0,0x1
    40b8:	40a40533          	sub	a0,s0,a0
    40bc:	06c53c23          	sd	a2,120(a0) # 1078 <.LBB103_3+0xda4>
    40c0:	eb843503          	ld	a0,-328(s0)
    40c4:	000015b7          	lui	a1,0x1
    40c8:	40b405b3          	sub	a1,s0,a1
    40cc:	7f85b603          	ld	a2,2040(a1) # 17f8 <.LBB103_4+0x5b8>
    40d0:	00a60533          	add	a0,a2,a0
    40d4:	000015b7          	lui	a1,0x1
    40d8:	40b405b3          	sub	a1,s0,a1
    40dc:	6f85b603          	ld	a2,1784(a1) # 16f8 <.LBB103_4+0x4b8>
    40e0:	40c5053b          	subw	a0,a0,a2
    40e4:	00e50533          	add	a0,a0,a4
    40e8:	8805051b          	addiw	a0,a0,-1920
    40ec:	40000637          	lui	a2,0x40000
    40f0:	000015b7          	lui	a1,0x1
    40f4:	40b405b3          	sub	a1,s0,a1
    40f8:	08a5b823          	sd	a0,144(a1) # 1090 <.LBB103_3+0xdbc>
    40fc:	00055463          	bgez	a0,4104 <.LBB103_102>
    4100:	c0000637          	lui	a2,0xc0000

0000000000004104 <.LBB103_102>:
    4104:	00001537          	lui	a0,0x1
    4108:	40a40533          	sub	a0,s0,a0
    410c:	08c53423          	sd	a2,136(a0) # 1088 <.LBB103_3+0xdb4>
    4110:	ec043503          	ld	a0,-320(s0)
    4114:	80043603          	ld	a2,-2048(s0)
    4118:	00a60533          	add	a0,a2,a0
    411c:	000015b7          	lui	a1,0x1
    4120:	40b405b3          	sub	a1,s0,a1
    4124:	7005b603          	ld	a2,1792(a1) # 1700 <.LBB103_4+0x4c0>
    4128:	40c5053b          	subw	a0,a0,a2
    412c:	00e50533          	add	a0,a0,a4
    4130:	8805051b          	addiw	a0,a0,-1920
    4134:	40000637          	lui	a2,0x40000
    4138:	000015b7          	lui	a1,0x1
    413c:	40b405b3          	sub	a1,s0,a1
    4140:	0aa5b023          	sd	a0,160(a1) # 10a0 <.LBB103_3+0xdcc>
    4144:	00055463          	bgez	a0,414c <.LBB103_104>
    4148:	c0000637          	lui	a2,0xc0000

000000000000414c <.LBB103_104>:
    414c:	00001537          	lui	a0,0x1
    4150:	40a40533          	sub	a0,s0,a0
    4154:	08c53c23          	sd	a2,152(a0) # 1098 <.LBB103_3+0xdc4>
    4158:	ec843503          	ld	a0,-312(s0)
    415c:	80843603          	ld	a2,-2040(s0)
    4160:	00a60533          	add	a0,a2,a0
    4164:	000015b7          	lui	a1,0x1
    4168:	40b405b3          	sub	a1,s0,a1
    416c:	7085b603          	ld	a2,1800(a1) # 1708 <.LBB103_4+0x4c8>
    4170:	40c5053b          	subw	a0,a0,a2
    4174:	00e50533          	add	a0,a0,a4
    4178:	8805051b          	addiw	a0,a0,-1920
    417c:	40000637          	lui	a2,0x40000
    4180:	000015b7          	lui	a1,0x1
    4184:	40b405b3          	sub	a1,s0,a1
    4188:	0aa5b823          	sd	a0,176(a1) # 10b0 <.LBB103_3+0xddc>
    418c:	00055463          	bgez	a0,4194 <.LBB103_106>
    4190:	c0000637          	lui	a2,0xc0000

0000000000004194 <.LBB103_106>:
    4194:	00001537          	lui	a0,0x1
    4198:	40a40533          	sub	a0,s0,a0
    419c:	0ac53423          	sd	a2,168(a0) # 10a8 <.LBB103_3+0xdd4>
    41a0:	f2043503          	ld	a0,-224(s0)
    41a4:	81043603          	ld	a2,-2032(s0)
    41a8:	00a60533          	add	a0,a2,a0
    41ac:	000015b7          	lui	a1,0x1
    41b0:	40b405b3          	sub	a1,s0,a1
    41b4:	7105b603          	ld	a2,1808(a1) # 1710 <.LBB103_4+0x4d0>
    41b8:	40c5053b          	subw	a0,a0,a2
    41bc:	00e50533          	add	a0,a0,a4
    41c0:	8805051b          	addiw	a0,a0,-1920
    41c4:	40000637          	lui	a2,0x40000
    41c8:	000015b7          	lui	a1,0x1
    41cc:	40b405b3          	sub	a1,s0,a1
    41d0:	0ca5b023          	sd	a0,192(a1) # 10c0 <.LBB103_3+0xdec>
    41d4:	00055463          	bgez	a0,41dc <.LBB103_108>
    41d8:	c0000637          	lui	a2,0xc0000

00000000000041dc <.LBB103_108>:
    41dc:	00001537          	lui	a0,0x1
    41e0:	40a40533          	sub	a0,s0,a0
    41e4:	0ac53c23          	sd	a2,184(a0) # 10b8 <.LBB103_3+0xde4>
    41e8:	f2843503          	ld	a0,-216(s0)
    41ec:	81843603          	ld	a2,-2024(s0)
    41f0:	00a60533          	add	a0,a2,a0
    41f4:	000015b7          	lui	a1,0x1
    41f8:	40b405b3          	sub	a1,s0,a1
    41fc:	7185b603          	ld	a2,1816(a1) # 1718 <.LBB103_4+0x4d8>
    4200:	40c5053b          	subw	a0,a0,a2
    4204:	00e50533          	add	a0,a0,a4
    4208:	8805051b          	addiw	a0,a0,-1920
    420c:	40000637          	lui	a2,0x40000
    4210:	000015b7          	lui	a1,0x1
    4214:	40b405b3          	sub	a1,s0,a1
    4218:	7ea5b423          	sd	a0,2024(a1) # 17e8 <.LBB103_4+0x5a8>
    421c:	00055463          	bgez	a0,4224 <.LBB103_110>
    4220:	c0000637          	lui	a2,0xc0000

0000000000004224 <.LBB103_110>:
    4224:	00001537          	lui	a0,0x1
    4228:	40a40533          	sub	a0,s0,a0
    422c:	0cc53423          	sd	a2,200(a0) # 10c8 <.LBB103_3+0xdf4>
    4230:	f3043503          	ld	a0,-208(s0)
    4234:	82043603          	ld	a2,-2016(s0)
    4238:	00a60533          	add	a0,a2,a0
    423c:	000015b7          	lui	a1,0x1
    4240:	40b405b3          	sub	a1,s0,a1
    4244:	7205b603          	ld	a2,1824(a1) # 1720 <.LBB103_4+0x4e0>
    4248:	40c5053b          	subw	a0,a0,a2
    424c:	00e50533          	add	a0,a0,a4
    4250:	8805051b          	addiw	a0,a0,-1920
    4254:	40000637          	lui	a2,0x40000
    4258:	000015b7          	lui	a1,0x1
    425c:	40b405b3          	sub	a1,s0,a1
    4260:	7aa5b423          	sd	a0,1960(a1) # 17a8 <.LBB103_4+0x568>
    4264:	00055463          	bgez	a0,426c <.LBB103_112>
    4268:	c0000637          	lui	a2,0xc0000

000000000000426c <.LBB103_112>:
    426c:	00001537          	lui	a0,0x1
    4270:	40a40533          	sub	a0,s0,a0
    4274:	0cc53823          	sd	a2,208(a0) # 10d0 <.LBB103_3+0xdfc>
    4278:	f3843503          	ld	a0,-200(s0)
    427c:	82843603          	ld	a2,-2008(s0)
    4280:	00a60533          	add	a0,a2,a0
    4284:	000015b7          	lui	a1,0x1
    4288:	40b405b3          	sub	a1,s0,a1
    428c:	7285b603          	ld	a2,1832(a1) # 1728 <.LBB103_4+0x4e8>
    4290:	40c5053b          	subw	a0,a0,a2
    4294:	00e50533          	add	a0,a0,a4
    4298:	8805051b          	addiw	a0,a0,-1920
    429c:	40000637          	lui	a2,0x40000
    42a0:	000015b7          	lui	a1,0x1
    42a4:	40b405b3          	sub	a1,s0,a1
    42a8:	76a5bc23          	sd	a0,1912(a1) # 1778 <.LBB103_4+0x538>
    42ac:	00055463          	bgez	a0,42b4 <.LBB103_114>
    42b0:	c0000637          	lui	a2,0xc0000

00000000000042b4 <.LBB103_114>:
    42b4:	00001537          	lui	a0,0x1
    42b8:	40a40533          	sub	a0,s0,a0
    42bc:	0cc53c23          	sd	a2,216(a0) # 10d8 <.LBB103_3+0xe04>
    42c0:	f4043503          	ld	a0,-192(s0)
    42c4:	83043603          	ld	a2,-2000(s0)
    42c8:	00a60533          	add	a0,a2,a0
    42cc:	000015b7          	lui	a1,0x1
    42d0:	40b405b3          	sub	a1,s0,a1
    42d4:	7305b603          	ld	a2,1840(a1) # 1730 <.LBB103_4+0x4f0>
    42d8:	40c5053b          	subw	a0,a0,a2
    42dc:	00e50533          	add	a0,a0,a4
    42e0:	8805051b          	addiw	a0,a0,-1920
    42e4:	40000637          	lui	a2,0x40000
    42e8:	000015b7          	lui	a1,0x1
    42ec:	40b405b3          	sub	a1,s0,a1
    42f0:	0ea5b423          	sd	a0,232(a1) # 10e8 <.LBB103_3+0xe14>
    42f4:	00055463          	bgez	a0,42fc <.LBB103_116>
    42f8:	c0000637          	lui	a2,0xc0000

00000000000042fc <.LBB103_116>:
    42fc:	00001537          	lui	a0,0x1
    4300:	40a40533          	sub	a0,s0,a0
    4304:	0ec53023          	sd	a2,224(a0) # 10e0 <.LBB103_3+0xe0c>
    4308:	f4843503          	ld	a0,-184(s0)
    430c:	83843603          	ld	a2,-1992(s0)
    4310:	00a60533          	add	a0,a2,a0
    4314:	000015b7          	lui	a1,0x1
    4318:	40b405b3          	sub	a1,s0,a1
    431c:	7385b603          	ld	a2,1848(a1) # 1738 <.LBB103_4+0x4f8>
    4320:	40c5053b          	subw	a0,a0,a2
    4324:	00e50533          	add	a0,a0,a4
    4328:	8805051b          	addiw	a0,a0,-1920
    432c:	40000637          	lui	a2,0x40000
    4330:	000015b7          	lui	a1,0x1
    4334:	40b405b3          	sub	a1,s0,a1
    4338:	0ea5bc23          	sd	a0,248(a1) # 10f8 <.LBB103_3+0xe24>
    433c:	00055463          	bgez	a0,4344 <.LBB103_118>
    4340:	c0000637          	lui	a2,0xc0000

0000000000004344 <.LBB103_118>:
    4344:	00001537          	lui	a0,0x1
    4348:	40a40533          	sub	a0,s0,a0
    434c:	0ec53823          	sd	a2,240(a0) # 10f0 <.LBB103_3+0xe1c>
    4350:	f5043503          	ld	a0,-176(s0)
    4354:	84043603          	ld	a2,-1984(s0)
    4358:	00a60533          	add	a0,a2,a0
    435c:	000015b7          	lui	a1,0x1
    4360:	40b405b3          	sub	a1,s0,a1
    4364:	7405b603          	ld	a2,1856(a1) # 1740 <.LBB103_4+0x500>
    4368:	40c5053b          	subw	a0,a0,a2
    436c:	00e50533          	add	a0,a0,a4
    4370:	8805051b          	addiw	a0,a0,-1920
    4374:	40000637          	lui	a2,0x40000
    4378:	000015b7          	lui	a1,0x1
    437c:	40b405b3          	sub	a1,s0,a1
    4380:	10a5b423          	sd	a0,264(a1) # 1108 <.LBB103_3+0xe34>
    4384:	00055463          	bgez	a0,438c <.LBB103_120>
    4388:	c0000637          	lui	a2,0xc0000

000000000000438c <.LBB103_120>:
    438c:	00001537          	lui	a0,0x1
    4390:	40a40533          	sub	a0,s0,a0
    4394:	10c53023          	sd	a2,256(a0) # 1100 <.LBB103_3+0xe2c>
    4398:	f5843503          	ld	a0,-168(s0)
    439c:	84843603          	ld	a2,-1976(s0)
    43a0:	00a60533          	add	a0,a2,a0
    43a4:	000015b7          	lui	a1,0x1
    43a8:	40b405b3          	sub	a1,s0,a1
    43ac:	7485b603          	ld	a2,1864(a1) # 1748 <.LBB103_4+0x508>
    43b0:	40c5053b          	subw	a0,a0,a2
    43b4:	00e50533          	add	a0,a0,a4
    43b8:	8805051b          	addiw	a0,a0,-1920
    43bc:	40000637          	lui	a2,0x40000
    43c0:	000015b7          	lui	a1,0x1
    43c4:	40b405b3          	sub	a1,s0,a1
    43c8:	10a5bc23          	sd	a0,280(a1) # 1118 <.LBB103_3+0xe44>
    43cc:	00055463          	bgez	a0,43d4 <.LBB103_122>
    43d0:	c0000637          	lui	a2,0xc0000

00000000000043d4 <.LBB103_122>:
    43d4:	00001537          	lui	a0,0x1
    43d8:	40a40533          	sub	a0,s0,a0
    43dc:	10c53823          	sd	a2,272(a0) # 1110 <.LBB103_3+0xe3c>
    43e0:	f6043503          	ld	a0,-160(s0)
    43e4:	85043603          	ld	a2,-1968(s0)
    43e8:	00a60533          	add	a0,a2,a0
    43ec:	000015b7          	lui	a1,0x1
    43f0:	40b405b3          	sub	a1,s0,a1
    43f4:	7505b603          	ld	a2,1872(a1) # 1750 <.LBB103_4+0x510>
    43f8:	40c5053b          	subw	a0,a0,a2
    43fc:	00e50533          	add	a0,a0,a4
    4400:	8805051b          	addiw	a0,a0,-1920
    4404:	40000637          	lui	a2,0x40000
    4408:	000015b7          	lui	a1,0x1
    440c:	40b405b3          	sub	a1,s0,a1
    4410:	12a5b423          	sd	a0,296(a1) # 1128 <.LBB103_3+0xe54>
    4414:	00055463          	bgez	a0,441c <.LBB103_124>
    4418:	c0000637          	lui	a2,0xc0000

000000000000441c <.LBB103_124>:
    441c:	00001537          	lui	a0,0x1
    4420:	40a40533          	sub	a0,s0,a0
    4424:	12c53023          	sd	a2,288(a0) # 1120 <.LBB103_3+0xe4c>
    4428:	f6843503          	ld	a0,-152(s0)
    442c:	85843603          	ld	a2,-1960(s0)
    4430:	00a60533          	add	a0,a2,a0
    4434:	000015b7          	lui	a1,0x1
    4438:	40b405b3          	sub	a1,s0,a1
    443c:	7585b603          	ld	a2,1880(a1) # 1758 <.LBB103_4+0x518>
    4440:	40c5053b          	subw	a0,a0,a2
    4444:	00e50533          	add	a0,a0,a4
    4448:	8805051b          	addiw	a0,a0,-1920
    444c:	40000637          	lui	a2,0x40000
    4450:	000015b7          	lui	a1,0x1
    4454:	40b405b3          	sub	a1,s0,a1
    4458:	12a5bc23          	sd	a0,312(a1) # 1138 <.LBB103_3+0xe64>
    445c:	00055463          	bgez	a0,4464 <.LBB103_126>
    4460:	c0000637          	lui	a2,0xc0000

0000000000004464 <.LBB103_126>:
    4464:	00001537          	lui	a0,0x1
    4468:	40a40533          	sub	a0,s0,a0
    446c:	12c53823          	sd	a2,304(a0) # 1130 <.LBB103_3+0xe5c>
    4470:	f7043503          	ld	a0,-144(s0)
    4474:	86043603          	ld	a2,-1952(s0)
    4478:	00a60533          	add	a0,a2,a0
    447c:	000015b7          	lui	a1,0x1
    4480:	40b405b3          	sub	a1,s0,a1
    4484:	7605b603          	ld	a2,1888(a1) # 1760 <.LBB103_4+0x520>
    4488:	40c5053b          	subw	a0,a0,a2
    448c:	00e50533          	add	a0,a0,a4
    4490:	8805051b          	addiw	a0,a0,-1920
    4494:	40000637          	lui	a2,0x40000
    4498:	000015b7          	lui	a1,0x1
    449c:	40b405b3          	sub	a1,s0,a1
    44a0:	14a5b423          	sd	a0,328(a1) # 1148 <.LBB103_3+0xe74>
    44a4:	00055463          	bgez	a0,44ac <.LBB103_128>
    44a8:	c0000637          	lui	a2,0xc0000

00000000000044ac <.LBB103_128>:
    44ac:	00001537          	lui	a0,0x1
    44b0:	40a40533          	sub	a0,s0,a0
    44b4:	14c53023          	sd	a2,320(a0) # 1140 <.LBB103_3+0xe6c>
    44b8:	f7843503          	ld	a0,-136(s0)
    44bc:	86843603          	ld	a2,-1944(s0)
    44c0:	00a60533          	add	a0,a2,a0
    44c4:	000015b7          	lui	a1,0x1
    44c8:	40b405b3          	sub	a1,s0,a1
    44cc:	7685b603          	ld	a2,1896(a1) # 1768 <.LBB103_4+0x528>
    44d0:	40c5053b          	subw	a0,a0,a2
    44d4:	00e50533          	add	a0,a0,a4
    44d8:	8805051b          	addiw	a0,a0,-1920
    44dc:	40000637          	lui	a2,0x40000
    44e0:	000015b7          	lui	a1,0x1
    44e4:	40b405b3          	sub	a1,s0,a1
    44e8:	14a5bc23          	sd	a0,344(a1) # 1158 <.LBB103_3+0xe84>
    44ec:	00055463          	bgez	a0,44f4 <.LBB103_130>
    44f0:	c0000637          	lui	a2,0xc0000

00000000000044f4 <.LBB103_130>:
    44f4:	00001537          	lui	a0,0x1
    44f8:	40a40533          	sub	a0,s0,a0
    44fc:	14c53823          	sd	a2,336(a0) # 1150 <.LBB103_3+0xe7c>
    4500:	f8043503          	ld	a0,-128(s0)
    4504:	87043603          	ld	a2,-1936(s0)
    4508:	00a60533          	add	a0,a2,a0
    450c:	000015b7          	lui	a1,0x1
    4510:	40b405b3          	sub	a1,s0,a1
    4514:	7705b603          	ld	a2,1904(a1) # 1770 <.LBB103_4+0x530>
    4518:	40c5053b          	subw	a0,a0,a2
    451c:	00e50533          	add	a0,a0,a4
    4520:	8805051b          	addiw	a0,a0,-1920
    4524:	40000637          	lui	a2,0x40000
    4528:	000015b7          	lui	a1,0x1
    452c:	40b405b3          	sub	a1,s0,a1
    4530:	16a5b423          	sd	a0,360(a1) # 1168 <.LBB103_3+0xe94>
    4534:	00055463          	bgez	a0,453c <.LBB103_132>
    4538:	c0000637          	lui	a2,0xc0000

000000000000453c <.LBB103_132>:
    453c:	00001537          	lui	a0,0x1
    4540:	40a40533          	sub	a0,s0,a0
    4544:	16c53023          	sd	a2,352(a0) # 1160 <.LBB103_3+0xe8c>
    4548:	f8843503          	ld	a0,-120(s0)
    454c:	00a90533          	add	a0,s2,a0
    4550:	4145053b          	subw	a0,a0,s4
    4554:	00e50533          	add	a0,a0,a4
    4558:	8805051b          	addiw	a0,a0,-1920
    455c:	40000637          	lui	a2,0x40000
    4560:	000015b7          	lui	a1,0x1
    4564:	40b405b3          	sub	a1,s0,a1
    4568:	18a5b023          	sd	a0,384(a1) # 1180 <.LBB103_3+0xeac>
    456c:	00055463          	bgez	a0,4574 <.LBB103_134>
    4570:	c0000637          	lui	a2,0xc0000

0000000000004574 <.LBB103_134>:
    4574:	00001537          	lui	a0,0x1
    4578:	40a40533          	sub	a0,s0,a0
    457c:	16c53823          	sd	a2,368(a0) # 1170 <.LBB103_3+0xe9c>
    4580:	00001537          	lui	a0,0x1
    4584:	40a40533          	sub	a0,s0,a0
    4588:	67853583          	ld	a1,1656(a0) # 1678 <.LBB103_4+0x438>
    458c:	00159513          	slli	a0,a1,0x1
    4590:	e8843603          	ld	a2,-376(s0)
    4594:	00c88633          	add	a2,a7,a2
    4598:	00b505b3          	add	a1,a0,a1
    459c:	e8043503          	ld	a0,-384(s0)
    45a0:	40a6053b          	subw	a0,a2,a0
    45a4:	00b50533          	add	a0,a0,a1
    45a8:	8805051b          	addiw	a0,a0,-1920
    45ac:	40000637          	lui	a2,0x40000
    45b0:	e1843903          	ld	s2,-488(s0)
    45b4:	b1843703          	ld	a4,-1256(s0)
    45b8:	000018b7          	lui	a7,0x1
    45bc:	411408b3          	sub	a7,s0,a7
    45c0:	18a8b423          	sd	a0,392(a7) # 1188 <.LBB103_3+0xeb4>
    45c4:	00055463          	bgez	a0,45cc <.LBB103_136>
    45c8:	c0000637          	lui	a2,0xc0000

00000000000045cc <.LBB103_136>:
    45cc:	00001537          	lui	a0,0x1
    45d0:	40a40533          	sub	a0,s0,a0
    45d4:	16c53c23          	sd	a2,376(a0) # 1178 <.LBB103_3+0xea4>
    45d8:	e7843503          	ld	a0,-392(s0)
    45dc:	88843603          	ld	a2,-1912(s0)
    45e0:	00a60533          	add	a0,a2,a0
    45e4:	e7043603          	ld	a2,-400(s0)
    45e8:	40c5053b          	subw	a0,a0,a2
    45ec:	00b50533          	add	a0,a0,a1
    45f0:	8805051b          	addiw	a0,a0,-1920
    45f4:	40000637          	lui	a2,0x40000
    45f8:	000018b7          	lui	a7,0x1
    45fc:	411408b3          	sub	a7,s0,a7
    4600:	18a8bc23          	sd	a0,408(a7) # 1198 <.LBB103_3+0xec4>
    4604:	00055463          	bgez	a0,460c <.LBB103_138>
    4608:	c0000637          	lui	a2,0xc0000

000000000000460c <.LBB103_138>:
    460c:	00001537          	lui	a0,0x1
    4610:	40a40533          	sub	a0,s0,a0
    4614:	18c53823          	sd	a2,400(a0) # 1190 <.LBB103_3+0xebc>
    4618:	e6843503          	ld	a0,-408(s0)
    461c:	89043603          	ld	a2,-1904(s0)
    4620:	00a60533          	add	a0,a2,a0
    4624:	e6043603          	ld	a2,-416(s0)
    4628:	40c5053b          	subw	a0,a0,a2
    462c:	00b50533          	add	a0,a0,a1
    4630:	8805051b          	addiw	a0,a0,-1920
    4634:	40000637          	lui	a2,0x40000
    4638:	000018b7          	lui	a7,0x1
    463c:	411408b3          	sub	a7,s0,a7
    4640:	1aa8b423          	sd	a0,424(a7) # 11a8 <.LBB103_3+0xed4>
    4644:	00055463          	bgez	a0,464c <.LBB103_140>
    4648:	c0000637          	lui	a2,0xc0000

000000000000464c <.LBB103_140>:
    464c:	00001537          	lui	a0,0x1
    4650:	40a40533          	sub	a0,s0,a0
    4654:	1ac53023          	sd	a2,416(a0) # 11a0 <.LBB103_3+0xecc>
    4658:	e5843503          	ld	a0,-424(s0)
    465c:	89843603          	ld	a2,-1896(s0)
    4660:	00a60533          	add	a0,a2,a0
    4664:	e5043603          	ld	a2,-432(s0)
    4668:	40c5053b          	subw	a0,a0,a2
    466c:	00b50533          	add	a0,a0,a1
    4670:	8805051b          	addiw	a0,a0,-1920
    4674:	40000637          	lui	a2,0x40000
    4678:	000018b7          	lui	a7,0x1
    467c:	411408b3          	sub	a7,s0,a7
    4680:	1aa8bc23          	sd	a0,440(a7) # 11b8 <.LBB103_3+0xee4>
    4684:	00055463          	bgez	a0,468c <.LBB103_142>
    4688:	c0000637          	lui	a2,0xc0000

000000000000468c <.LBB103_142>:
    468c:	00001537          	lui	a0,0x1
    4690:	40a40533          	sub	a0,s0,a0
    4694:	1ac53823          	sd	a2,432(a0) # 11b0 <.LBB103_3+0xedc>
    4698:	e4843503          	ld	a0,-440(s0)
    469c:	8a043603          	ld	a2,-1888(s0)
    46a0:	00a60533          	add	a0,a2,a0
    46a4:	e4043603          	ld	a2,-448(s0)
    46a8:	40c5053b          	subw	a0,a0,a2
    46ac:	00b50533          	add	a0,a0,a1
    46b0:	8805051b          	addiw	a0,a0,-1920
    46b4:	40000637          	lui	a2,0x40000
    46b8:	000018b7          	lui	a7,0x1
    46bc:	411408b3          	sub	a7,s0,a7
    46c0:	1ca8b423          	sd	a0,456(a7) # 11c8 <.LBB103_3+0xef4>
    46c4:	00055463          	bgez	a0,46cc <.LBB103_144>
    46c8:	c0000637          	lui	a2,0xc0000

00000000000046cc <.LBB103_144>:
    46cc:	00001537          	lui	a0,0x1
    46d0:	40a40533          	sub	a0,s0,a0
    46d4:	1cc53023          	sd	a2,448(a0) # 11c0 <.LBB103_3+0xeec>
    46d8:	e3843503          	ld	a0,-456(s0)
    46dc:	8a843603          	ld	a2,-1880(s0)
    46e0:	00a60533          	add	a0,a2,a0
    46e4:	e3043603          	ld	a2,-464(s0)
    46e8:	40c5053b          	subw	a0,a0,a2
    46ec:	00b50533          	add	a0,a0,a1
    46f0:	8805051b          	addiw	a0,a0,-1920
    46f4:	40000637          	lui	a2,0x40000
    46f8:	000018b7          	lui	a7,0x1
    46fc:	411408b3          	sub	a7,s0,a7
    4700:	1ca8bc23          	sd	a0,472(a7) # 11d8 <.LBB103_3+0xf04>
    4704:	00055463          	bgez	a0,470c <.LBB103_146>
    4708:	c0000637          	lui	a2,0xc0000

000000000000470c <.LBB103_146>:
    470c:	00001537          	lui	a0,0x1
    4710:	40a40533          	sub	a0,s0,a0
    4714:	1cc53823          	sd	a2,464(a0) # 11d0 <.LBB103_3+0xefc>
    4718:	00001537          	lui	a0,0x1
    471c:	40a40533          	sub	a0,s0,a0
    4720:	6c053503          	ld	a0,1728(a0) # 16c0 <.LBB103_4+0x480>
    4724:	8b043603          	ld	a2,-1872(s0)
    4728:	00a60533          	add	a0,a2,a0
    472c:	00001637          	lui	a2,0x1
    4730:	40c40633          	sub	a2,s0,a2
    4734:	6b863603          	ld	a2,1720(a2) # 16b8 <.LBB103_4+0x478>
    4738:	40c5053b          	subw	a0,a0,a2
    473c:	00b50533          	add	a0,a0,a1
    4740:	8805051b          	addiw	a0,a0,-1920
    4744:	40000637          	lui	a2,0x40000
    4748:	000018b7          	lui	a7,0x1
    474c:	411408b3          	sub	a7,s0,a7
    4750:	1ea8b423          	sd	a0,488(a7) # 11e8 <.LBB103_3+0xf14>
    4754:	00055463          	bgez	a0,475c <.LBB103_148>
    4758:	c0000637          	lui	a2,0xc0000

000000000000475c <.LBB103_148>:
    475c:	00001537          	lui	a0,0x1
    4760:	40a40533          	sub	a0,s0,a0
    4764:	1ec53023          	sd	a2,480(a0) # 11e0 <.LBB103_3+0xf0c>
    4768:	00001537          	lui	a0,0x1
    476c:	40a40533          	sub	a0,s0,a0
    4770:	6b053503          	ld	a0,1712(a0) # 16b0 <.LBB103_4+0x470>
    4774:	8b843603          	ld	a2,-1864(s0)
    4778:	00a60533          	add	a0,a2,a0
    477c:	00001637          	lui	a2,0x1
    4780:	40c40633          	sub	a2,s0,a2
    4784:	6a863603          	ld	a2,1704(a2) # 16a8 <.LBB103_4+0x468>
    4788:	40c5053b          	subw	a0,a0,a2
    478c:	00b50533          	add	a0,a0,a1
    4790:	8805051b          	addiw	a0,a0,-1920
    4794:	40000637          	lui	a2,0x40000
    4798:	000018b7          	lui	a7,0x1
    479c:	411408b3          	sub	a7,s0,a7
    47a0:	1ea8bc23          	sd	a0,504(a7) # 11f8 <.LBB103_3+0xf24>
    47a4:	00055463          	bgez	a0,47ac <.LBB103_150>
    47a8:	c0000637          	lui	a2,0xc0000

00000000000047ac <.LBB103_150>:
    47ac:	00001537          	lui	a0,0x1
    47b0:	40a40533          	sub	a0,s0,a0
    47b4:	1ec53823          	sd	a2,496(a0) # 11f0 <.LBB103_3+0xf1c>
    47b8:	8c043503          	ld	a0,-1856(s0)
    47bc:	00001637          	lui	a2,0x1
    47c0:	40c40633          	sub	a2,s0,a2
    47c4:	6a063603          	ld	a2,1696(a2) # 16a0 <.LBB103_4+0x460>
    47c8:	00c50533          	add	a0,a0,a2
    47cc:	00001637          	lui	a2,0x1
    47d0:	40c40633          	sub	a2,s0,a2
    47d4:	69863603          	ld	a2,1688(a2) # 1698 <.LBB103_4+0x458>
    47d8:	40c5053b          	subw	a0,a0,a2
    47dc:	00b50533          	add	a0,a0,a1
    47e0:	8805051b          	addiw	a0,a0,-1920
    47e4:	40000637          	lui	a2,0x40000
    47e8:	000018b7          	lui	a7,0x1
    47ec:	411408b3          	sub	a7,s0,a7
    47f0:	20a8b423          	sd	a0,520(a7) # 1208 <.LBB103_3+0xf34>
    47f4:	00055463          	bgez	a0,47fc <.LBB103_152>
    47f8:	c0000637          	lui	a2,0xc0000

00000000000047fc <.LBB103_152>:
    47fc:	00001537          	lui	a0,0x1
    4800:	40a40533          	sub	a0,s0,a0
    4804:	20c53023          	sd	a2,512(a0) # 1200 <.LBB103_3+0xf2c>
    4808:	8c843503          	ld	a0,-1848(s0)
    480c:	00001637          	lui	a2,0x1
    4810:	40c40633          	sub	a2,s0,a2
    4814:	69063603          	ld	a2,1680(a2) # 1690 <.LBB103_4+0x450>
    4818:	00c50533          	add	a0,a0,a2
    481c:	00001637          	lui	a2,0x1
    4820:	40c40633          	sub	a2,s0,a2
    4824:	6c863603          	ld	a2,1736(a2) # 16c8 <.LBB103_4+0x488>
    4828:	40c5053b          	subw	a0,a0,a2
    482c:	00b50533          	add	a0,a0,a1
    4830:	8805051b          	addiw	a0,a0,-1920
    4834:	40000637          	lui	a2,0x40000
    4838:	000018b7          	lui	a7,0x1
    483c:	411408b3          	sub	a7,s0,a7
    4840:	20a8bc23          	sd	a0,536(a7) # 1218 <.LBB103_3+0xf44>
    4844:	00055463          	bgez	a0,484c <.LBB103_154>
    4848:	c0000637          	lui	a2,0xc0000

000000000000484c <.LBB103_154>:
    484c:	00001537          	lui	a0,0x1
    4850:	40a40533          	sub	a0,s0,a0
    4854:	20c53823          	sd	a2,528(a0) # 1210 <.LBB103_3+0xf3c>
    4858:	8d043503          	ld	a0,-1840(s0)
    485c:	e9043603          	ld	a2,-368(s0)
    4860:	00c50533          	add	a0,a0,a2
    4864:	00001637          	lui	a2,0x1
    4868:	40c40633          	sub	a2,s0,a2
    486c:	6d063603          	ld	a2,1744(a2) # 16d0 <.LBB103_4+0x490>
    4870:	40c5053b          	subw	a0,a0,a2
    4874:	00b50533          	add	a0,a0,a1
    4878:	8805051b          	addiw	a0,a0,-1920
    487c:	40000637          	lui	a2,0x40000
    4880:	000018b7          	lui	a7,0x1
    4884:	411408b3          	sub	a7,s0,a7
    4888:	22a8b423          	sd	a0,552(a7) # 1228 <.LBB103_3+0xf54>
    488c:	00055463          	bgez	a0,4894 <.LBB103_156>
    4890:	c0000637          	lui	a2,0xc0000

0000000000004894 <.LBB103_156>:
    4894:	00001537          	lui	a0,0x1
    4898:	40a40533          	sub	a0,s0,a0
    489c:	22c53023          	sd	a2,544(a0) # 1220 <.LBB103_3+0xf4c>
    48a0:	8d843503          	ld	a0,-1832(s0)
    48a4:	e9843603          	ld	a2,-360(s0)
    48a8:	00c50533          	add	a0,a0,a2
    48ac:	00001637          	lui	a2,0x1
    48b0:	40c40633          	sub	a2,s0,a2
    48b4:	6d863603          	ld	a2,1752(a2) # 16d8 <.LBB103_4+0x498>
    48b8:	40c5053b          	subw	a0,a0,a2
    48bc:	00b50533          	add	a0,a0,a1
    48c0:	8805051b          	addiw	a0,a0,-1920
    48c4:	40000637          	lui	a2,0x40000
    48c8:	000018b7          	lui	a7,0x1
    48cc:	411408b3          	sub	a7,s0,a7
    48d0:	22a8bc23          	sd	a0,568(a7) # 1238 <.LBB103_3+0xf64>
    48d4:	00055463          	bgez	a0,48dc <.LBB103_158>
    48d8:	c0000637          	lui	a2,0xc0000

00000000000048dc <.LBB103_158>:
    48dc:	00001537          	lui	a0,0x1
    48e0:	40a40533          	sub	a0,s0,a0
    48e4:	22c53823          	sd	a2,560(a0) # 1230 <.LBB103_3+0xf5c>
    48e8:	8e043503          	ld	a0,-1824(s0)
    48ec:	ea043603          	ld	a2,-352(s0)
    48f0:	00c50533          	add	a0,a0,a2
    48f4:	41b5053b          	subw	a0,a0,s11
    48f8:	00b50533          	add	a0,a0,a1
    48fc:	8805051b          	addiw	a0,a0,-1920
    4900:	40000637          	lui	a2,0x40000
    4904:	000018b7          	lui	a7,0x1
    4908:	411408b3          	sub	a7,s0,a7
    490c:	24a8b423          	sd	a0,584(a7) # 1248 <.LBB103_4+0x8>
    4910:	00055463          	bgez	a0,4918 <.LBB103_160>
    4914:	c0000637          	lui	a2,0xc0000

0000000000004918 <.LBB103_160>:
    4918:	00001537          	lui	a0,0x1
    491c:	40a40533          	sub	a0,s0,a0
    4920:	24c53023          	sd	a2,576(a0) # 1240 <.LBB103_4>
    4924:	8e843503          	ld	a0,-1816(s0)
    4928:	ea843603          	ld	a2,-344(s0)
    492c:	00c50533          	add	a0,a0,a2
    4930:	41a5053b          	subw	a0,a0,s10
    4934:	00b50533          	add	a0,a0,a1
    4938:	8805051b          	addiw	a0,a0,-1920
    493c:	40000637          	lui	a2,0x40000
    4940:	000018b7          	lui	a7,0x1
    4944:	411408b3          	sub	a7,s0,a7
    4948:	24a8bc23          	sd	a0,600(a7) # 1258 <.LBB103_4+0x18>
    494c:	00055463          	bgez	a0,4954 <.LBB103_162>
    4950:	c0000637          	lui	a2,0xc0000

0000000000004954 <.LBB103_162>:
    4954:	00001537          	lui	a0,0x1
    4958:	40a40533          	sub	a0,s0,a0
    495c:	24c53823          	sd	a2,592(a0) # 1250 <.LBB103_4+0x10>
    4960:	8f043503          	ld	a0,-1808(s0)
    4964:	eb043603          	ld	a2,-336(s0)
    4968:	00c50533          	add	a0,a0,a2
    496c:	00001637          	lui	a2,0x1
    4970:	40c40633          	sub	a2,s0,a2
    4974:	6f063603          	ld	a2,1776(a2) # 16f0 <.LBB103_4+0x4b0>
    4978:	40c5053b          	subw	a0,a0,a2
    497c:	00b50533          	add	a0,a0,a1
    4980:	8805051b          	addiw	a0,a0,-1920
    4984:	40000637          	lui	a2,0x40000
    4988:	000018b7          	lui	a7,0x1
    498c:	411408b3          	sub	a7,s0,a7
    4990:	26a8b423          	sd	a0,616(a7) # 1268 <.LBB103_4+0x28>
    4994:	00055463          	bgez	a0,499c <.LBB103_164>
    4998:	c0000637          	lui	a2,0xc0000

000000000000499c <.LBB103_164>:
    499c:	00001537          	lui	a0,0x1
    49a0:	40a40533          	sub	a0,s0,a0
    49a4:	26c53023          	sd	a2,608(a0) # 1260 <.LBB103_4+0x20>
    49a8:	8f843503          	ld	a0,-1800(s0)
    49ac:	eb843603          	ld	a2,-328(s0)
    49b0:	00c50533          	add	a0,a0,a2
    49b4:	00001637          	lui	a2,0x1
    49b8:	40c40633          	sub	a2,s0,a2
    49bc:	6f863603          	ld	a2,1784(a2) # 16f8 <.LBB103_4+0x4b8>
    49c0:	40c5053b          	subw	a0,a0,a2
    49c4:	00b50533          	add	a0,a0,a1
    49c8:	8805051b          	addiw	a0,a0,-1920
    49cc:	40000637          	lui	a2,0x40000
    49d0:	000018b7          	lui	a7,0x1
    49d4:	411408b3          	sub	a7,s0,a7
    49d8:	26a8bc23          	sd	a0,632(a7) # 1278 <.LBB103_4+0x38>
    49dc:	00055463          	bgez	a0,49e4 <.LBB103_166>
    49e0:	c0000637          	lui	a2,0xc0000

00000000000049e4 <.LBB103_166>:
    49e4:	00001537          	lui	a0,0x1
    49e8:	40a40533          	sub	a0,s0,a0
    49ec:	26c53823          	sd	a2,624(a0) # 1270 <.LBB103_4+0x30>
    49f0:	90043503          	ld	a0,-1792(s0)
    49f4:	ec043603          	ld	a2,-320(s0)
    49f8:	00c50533          	add	a0,a0,a2
    49fc:	00001637          	lui	a2,0x1
    4a00:	40c40633          	sub	a2,s0,a2
    4a04:	70063603          	ld	a2,1792(a2) # 1700 <.LBB103_4+0x4c0>
    4a08:	40c5053b          	subw	a0,a0,a2
    4a0c:	00b50533          	add	a0,a0,a1
    4a10:	8805051b          	addiw	a0,a0,-1920
    4a14:	40000637          	lui	a2,0x40000
    4a18:	000018b7          	lui	a7,0x1
    4a1c:	411408b3          	sub	a7,s0,a7
    4a20:	28a8b423          	sd	a0,648(a7) # 1288 <.LBB103_4+0x48>
    4a24:	00055463          	bgez	a0,4a2c <.LBB103_168>
    4a28:	c0000637          	lui	a2,0xc0000

0000000000004a2c <.LBB103_168>:
    4a2c:	00001537          	lui	a0,0x1
    4a30:	40a40533          	sub	a0,s0,a0
    4a34:	28c53023          	sd	a2,640(a0) # 1280 <.LBB103_4+0x40>
    4a38:	90843503          	ld	a0,-1784(s0)
    4a3c:	ec843603          	ld	a2,-312(s0)
    4a40:	00c50533          	add	a0,a0,a2
    4a44:	00001637          	lui	a2,0x1
    4a48:	40c40633          	sub	a2,s0,a2
    4a4c:	70863603          	ld	a2,1800(a2) # 1708 <.LBB103_4+0x4c8>
    4a50:	40c5053b          	subw	a0,a0,a2
    4a54:	00b50533          	add	a0,a0,a1
    4a58:	8805051b          	addiw	a0,a0,-1920
    4a5c:	40000637          	lui	a2,0x40000
    4a60:	000018b7          	lui	a7,0x1
    4a64:	411408b3          	sub	a7,s0,a7
    4a68:	28a8bc23          	sd	a0,664(a7) # 1298 <.LBB103_4+0x58>
    4a6c:	00055463          	bgez	a0,4a74 <.LBB103_170>
    4a70:	c0000637          	lui	a2,0xc0000

0000000000004a74 <.LBB103_170>:
    4a74:	00001537          	lui	a0,0x1
    4a78:	40a40533          	sub	a0,s0,a0
    4a7c:	28c53823          	sd	a2,656(a0) # 1290 <.LBB103_4+0x50>
    4a80:	91043503          	ld	a0,-1776(s0)
    4a84:	f2043603          	ld	a2,-224(s0)
    4a88:	00c50533          	add	a0,a0,a2
    4a8c:	00001637          	lui	a2,0x1
    4a90:	40c40633          	sub	a2,s0,a2
    4a94:	71063603          	ld	a2,1808(a2) # 1710 <.LBB103_4+0x4d0>
    4a98:	40c5053b          	subw	a0,a0,a2
    4a9c:	00b50533          	add	a0,a0,a1
    4aa0:	8805051b          	addiw	a0,a0,-1920
    4aa4:	40000637          	lui	a2,0x40000
    4aa8:	000018b7          	lui	a7,0x1
    4aac:	411408b3          	sub	a7,s0,a7
    4ab0:	2aa8b423          	sd	a0,680(a7) # 12a8 <.LBB103_4+0x68>
    4ab4:	00055463          	bgez	a0,4abc <.LBB103_172>
    4ab8:	c0000637          	lui	a2,0xc0000

0000000000004abc <.LBB103_172>:
    4abc:	00001537          	lui	a0,0x1
    4ac0:	40a40533          	sub	a0,s0,a0
    4ac4:	2ac53023          	sd	a2,672(a0) # 12a0 <.LBB103_4+0x60>
    4ac8:	91843503          	ld	a0,-1768(s0)
    4acc:	f2843603          	ld	a2,-216(s0)
    4ad0:	00c50533          	add	a0,a0,a2
    4ad4:	00001637          	lui	a2,0x1
    4ad8:	40c40633          	sub	a2,s0,a2
    4adc:	71863603          	ld	a2,1816(a2) # 1718 <.LBB103_4+0x4d8>
    4ae0:	40c5053b          	subw	a0,a0,a2
    4ae4:	00b50533          	add	a0,a0,a1
    4ae8:	8805051b          	addiw	a0,a0,-1920
    4aec:	40000637          	lui	a2,0x40000
    4af0:	000018b7          	lui	a7,0x1
    4af4:	411408b3          	sub	a7,s0,a7
    4af8:	2aa8bc23          	sd	a0,696(a7) # 12b8 <.LBB103_4+0x78>
    4afc:	00055463          	bgez	a0,4b04 <.LBB103_174>
    4b00:	c0000637          	lui	a2,0xc0000

0000000000004b04 <.LBB103_174>:
    4b04:	00001537          	lui	a0,0x1
    4b08:	40a40533          	sub	a0,s0,a0
    4b0c:	2ac53823          	sd	a2,688(a0) # 12b0 <.LBB103_4+0x70>
    4b10:	92043503          	ld	a0,-1760(s0)
    4b14:	f3043603          	ld	a2,-208(s0)
    4b18:	00c50533          	add	a0,a0,a2
    4b1c:	00001637          	lui	a2,0x1
    4b20:	40c40633          	sub	a2,s0,a2
    4b24:	72063603          	ld	a2,1824(a2) # 1720 <.LBB103_4+0x4e0>
    4b28:	40c5053b          	subw	a0,a0,a2
    4b2c:	00b50533          	add	a0,a0,a1
    4b30:	8805051b          	addiw	a0,a0,-1920
    4b34:	40000637          	lui	a2,0x40000
    4b38:	000018b7          	lui	a7,0x1
    4b3c:	411408b3          	sub	a7,s0,a7
    4b40:	2ca8b423          	sd	a0,712(a7) # 12c8 <.LBB103_4+0x88>
    4b44:	00055463          	bgez	a0,4b4c <.LBB103_176>
    4b48:	c0000637          	lui	a2,0xc0000

0000000000004b4c <.LBB103_176>:
    4b4c:	00001537          	lui	a0,0x1
    4b50:	40a40533          	sub	a0,s0,a0
    4b54:	2cc53023          	sd	a2,704(a0) # 12c0 <.LBB103_4+0x80>
    4b58:	92843503          	ld	a0,-1752(s0)
    4b5c:	f3843603          	ld	a2,-200(s0)
    4b60:	00c50533          	add	a0,a0,a2
    4b64:	00001637          	lui	a2,0x1
    4b68:	40c40633          	sub	a2,s0,a2
    4b6c:	72863603          	ld	a2,1832(a2) # 1728 <.LBB103_4+0x4e8>
    4b70:	40c5053b          	subw	a0,a0,a2
    4b74:	00b50533          	add	a0,a0,a1
    4b78:	8805051b          	addiw	a0,a0,-1920
    4b7c:	40000637          	lui	a2,0x40000
    4b80:	000018b7          	lui	a7,0x1
    4b84:	411408b3          	sub	a7,s0,a7
    4b88:	2ca8bc23          	sd	a0,728(a7) # 12d8 <.LBB103_4+0x98>
    4b8c:	00055463          	bgez	a0,4b94 <.LBB103_178>
    4b90:	c0000637          	lui	a2,0xc0000

0000000000004b94 <.LBB103_178>:
    4b94:	00001537          	lui	a0,0x1
    4b98:	40a40533          	sub	a0,s0,a0
    4b9c:	2cc53823          	sd	a2,720(a0) # 12d0 <.LBB103_4+0x90>
    4ba0:	93043503          	ld	a0,-1744(s0)
    4ba4:	f4043603          	ld	a2,-192(s0)
    4ba8:	00c50533          	add	a0,a0,a2
    4bac:	00001637          	lui	a2,0x1
    4bb0:	40c40633          	sub	a2,s0,a2
    4bb4:	73063603          	ld	a2,1840(a2) # 1730 <.LBB103_4+0x4f0>
    4bb8:	40c5053b          	subw	a0,a0,a2
    4bbc:	00b50533          	add	a0,a0,a1
    4bc0:	8805051b          	addiw	a0,a0,-1920
    4bc4:	40000637          	lui	a2,0x40000
    4bc8:	000018b7          	lui	a7,0x1
    4bcc:	411408b3          	sub	a7,s0,a7
    4bd0:	2ea8b423          	sd	a0,744(a7) # 12e8 <.LBB103_4+0xa8>
    4bd4:	00055463          	bgez	a0,4bdc <.LBB103_180>
    4bd8:	c0000637          	lui	a2,0xc0000

0000000000004bdc <.LBB103_180>:
    4bdc:	00001537          	lui	a0,0x1
    4be0:	40a40533          	sub	a0,s0,a0
    4be4:	2ec53023          	sd	a2,736(a0) # 12e0 <.LBB103_4+0xa0>
    4be8:	93843503          	ld	a0,-1736(s0)
    4bec:	f4843603          	ld	a2,-184(s0)
    4bf0:	00c50533          	add	a0,a0,a2
    4bf4:	00001637          	lui	a2,0x1
    4bf8:	40c40633          	sub	a2,s0,a2
    4bfc:	73863603          	ld	a2,1848(a2) # 1738 <.LBB103_4+0x4f8>
    4c00:	40c5053b          	subw	a0,a0,a2
    4c04:	00b50533          	add	a0,a0,a1
    4c08:	8805051b          	addiw	a0,a0,-1920
    4c0c:	40000637          	lui	a2,0x40000
    4c10:	000018b7          	lui	a7,0x1
    4c14:	411408b3          	sub	a7,s0,a7
    4c18:	2ea8bc23          	sd	a0,760(a7) # 12f8 <.LBB103_4+0xb8>
    4c1c:	00055463          	bgez	a0,4c24 <.LBB103_182>
    4c20:	c0000637          	lui	a2,0xc0000

0000000000004c24 <.LBB103_182>:
    4c24:	00001537          	lui	a0,0x1
    4c28:	40a40533          	sub	a0,s0,a0
    4c2c:	2ec53823          	sd	a2,752(a0) # 12f0 <.LBB103_4+0xb0>
    4c30:	94043503          	ld	a0,-1728(s0)
    4c34:	f5043603          	ld	a2,-176(s0)
    4c38:	00c50533          	add	a0,a0,a2
    4c3c:	00001637          	lui	a2,0x1
    4c40:	40c40633          	sub	a2,s0,a2
    4c44:	74063603          	ld	a2,1856(a2) # 1740 <.LBB103_4+0x500>
    4c48:	40c5053b          	subw	a0,a0,a2
    4c4c:	00b50533          	add	a0,a0,a1
    4c50:	8805051b          	addiw	a0,a0,-1920
    4c54:	40000637          	lui	a2,0x40000
    4c58:	000018b7          	lui	a7,0x1
    4c5c:	411408b3          	sub	a7,s0,a7
    4c60:	30a8b423          	sd	a0,776(a7) # 1308 <.LBB103_4+0xc8>
    4c64:	00055463          	bgez	a0,4c6c <.LBB103_184>
    4c68:	c0000637          	lui	a2,0xc0000

0000000000004c6c <.LBB103_184>:
    4c6c:	00001537          	lui	a0,0x1
    4c70:	40a40533          	sub	a0,s0,a0
    4c74:	30c53023          	sd	a2,768(a0) # 1300 <.LBB103_4+0xc0>
    4c78:	94843503          	ld	a0,-1720(s0)
    4c7c:	f5843603          	ld	a2,-168(s0)
    4c80:	00c50533          	add	a0,a0,a2
    4c84:	00001637          	lui	a2,0x1
    4c88:	40c40633          	sub	a2,s0,a2
    4c8c:	74863603          	ld	a2,1864(a2) # 1748 <.LBB103_4+0x508>
    4c90:	40c5053b          	subw	a0,a0,a2
    4c94:	00b50533          	add	a0,a0,a1
    4c98:	8805051b          	addiw	a0,a0,-1920
    4c9c:	40000637          	lui	a2,0x40000
    4ca0:	000018b7          	lui	a7,0x1
    4ca4:	411408b3          	sub	a7,s0,a7
    4ca8:	30a8bc23          	sd	a0,792(a7) # 1318 <.LBB103_4+0xd8>
    4cac:	00055463          	bgez	a0,4cb4 <.LBB103_186>
    4cb0:	c0000637          	lui	a2,0xc0000

0000000000004cb4 <.LBB103_186>:
    4cb4:	00001537          	lui	a0,0x1
    4cb8:	40a40533          	sub	a0,s0,a0
    4cbc:	30c53823          	sd	a2,784(a0) # 1310 <.LBB103_4+0xd0>
    4cc0:	95043503          	ld	a0,-1712(s0)
    4cc4:	f6043603          	ld	a2,-160(s0)
    4cc8:	00c50533          	add	a0,a0,a2
    4ccc:	00001637          	lui	a2,0x1
    4cd0:	40c40633          	sub	a2,s0,a2
    4cd4:	75063603          	ld	a2,1872(a2) # 1750 <.LBB103_4+0x510>
    4cd8:	40c5053b          	subw	a0,a0,a2
    4cdc:	00b50533          	add	a0,a0,a1
    4ce0:	8805051b          	addiw	a0,a0,-1920
    4ce4:	40000637          	lui	a2,0x40000
    4ce8:	000018b7          	lui	a7,0x1
    4cec:	411408b3          	sub	a7,s0,a7
    4cf0:	32a8b423          	sd	a0,808(a7) # 1328 <.LBB103_4+0xe8>
    4cf4:	00055463          	bgez	a0,4cfc <.LBB103_188>
    4cf8:	c0000637          	lui	a2,0xc0000

0000000000004cfc <.LBB103_188>:
    4cfc:	00001537          	lui	a0,0x1
    4d00:	40a40533          	sub	a0,s0,a0
    4d04:	32c53023          	sd	a2,800(a0) # 1320 <.LBB103_4+0xe0>
    4d08:	95843503          	ld	a0,-1704(s0)
    4d0c:	f6843603          	ld	a2,-152(s0)
    4d10:	00c50533          	add	a0,a0,a2
    4d14:	00001637          	lui	a2,0x1
    4d18:	40c40633          	sub	a2,s0,a2
    4d1c:	75863603          	ld	a2,1880(a2) # 1758 <.LBB103_4+0x518>
    4d20:	40c5053b          	subw	a0,a0,a2
    4d24:	00b50533          	add	a0,a0,a1
    4d28:	8805051b          	addiw	a0,a0,-1920
    4d2c:	40000637          	lui	a2,0x40000
    4d30:	000018b7          	lui	a7,0x1
    4d34:	411408b3          	sub	a7,s0,a7
    4d38:	32a8bc23          	sd	a0,824(a7) # 1338 <.LBB103_4+0xf8>
    4d3c:	00055463          	bgez	a0,4d44 <.LBB103_190>
    4d40:	c0000637          	lui	a2,0xc0000

0000000000004d44 <.LBB103_190>:
    4d44:	00001537          	lui	a0,0x1
    4d48:	40a40533          	sub	a0,s0,a0
    4d4c:	32c53823          	sd	a2,816(a0) # 1330 <.LBB103_4+0xf0>
    4d50:	96043503          	ld	a0,-1696(s0)
    4d54:	f7043603          	ld	a2,-144(s0)
    4d58:	00c50533          	add	a0,a0,a2
    4d5c:	00001637          	lui	a2,0x1
    4d60:	40c40633          	sub	a2,s0,a2
    4d64:	76063603          	ld	a2,1888(a2) # 1760 <.LBB103_4+0x520>
    4d68:	40c5053b          	subw	a0,a0,a2
    4d6c:	00b50533          	add	a0,a0,a1
    4d70:	8805051b          	addiw	a0,a0,-1920
    4d74:	40000637          	lui	a2,0x40000
    4d78:	000018b7          	lui	a7,0x1
    4d7c:	411408b3          	sub	a7,s0,a7
    4d80:	34a8b423          	sd	a0,840(a7) # 1348 <.LBB103_4+0x108>
    4d84:	00055463          	bgez	a0,4d8c <.LBB103_192>
    4d88:	c0000637          	lui	a2,0xc0000

0000000000004d8c <.LBB103_192>:
    4d8c:	00001537          	lui	a0,0x1
    4d90:	40a40533          	sub	a0,s0,a0
    4d94:	34c53023          	sd	a2,832(a0) # 1340 <.LBB103_4+0x100>
    4d98:	96843503          	ld	a0,-1688(s0)
    4d9c:	f7843603          	ld	a2,-136(s0)
    4da0:	00c50533          	add	a0,a0,a2
    4da4:	00001637          	lui	a2,0x1
    4da8:	40c40633          	sub	a2,s0,a2
    4dac:	76863603          	ld	a2,1896(a2) # 1768 <.LBB103_4+0x528>
    4db0:	40c5053b          	subw	a0,a0,a2
    4db4:	00b50533          	add	a0,a0,a1
    4db8:	8805051b          	addiw	a0,a0,-1920
    4dbc:	40000637          	lui	a2,0x40000
    4dc0:	000018b7          	lui	a7,0x1
    4dc4:	411408b3          	sub	a7,s0,a7
    4dc8:	34a8bc23          	sd	a0,856(a7) # 1358 <.LBB103_4+0x118>
    4dcc:	00055463          	bgez	a0,4dd4 <.LBB103_194>
    4dd0:	c0000637          	lui	a2,0xc0000

0000000000004dd4 <.LBB103_194>:
    4dd4:	00001537          	lui	a0,0x1
    4dd8:	40a40533          	sub	a0,s0,a0
    4ddc:	34c53823          	sd	a2,848(a0) # 1350 <.LBB103_4+0x110>
    4de0:	f8043503          	ld	a0,-128(s0)
    4de4:	00a08533          	add	a0,ra,a0
    4de8:	00001637          	lui	a2,0x1
    4dec:	40c40633          	sub	a2,s0,a2
    4df0:	77063083          	ld	ra,1904(a2) # 1770 <.LBB103_4+0x530>
    4df4:	4015053b          	subw	a0,a0,ra
    4df8:	00b50533          	add	a0,a0,a1
    4dfc:	8805051b          	addiw	a0,a0,-1920
    4e00:	40000637          	lui	a2,0x40000
    4e04:	000018b7          	lui	a7,0x1
    4e08:	411408b3          	sub	a7,s0,a7
    4e0c:	36a8b423          	sd	a0,872(a7) # 1368 <.LBB103_4+0x128>
    4e10:	00055463          	bgez	a0,4e18 <.LBB103_196>
    4e14:	c0000637          	lui	a2,0xc0000

0000000000004e18 <.LBB103_196>:
    4e18:	00068893          	mv	a7,a3
    4e1c:	f8843503          	ld	a0,-120(s0)
    4e20:	97843683          	ld	a3,-1672(s0)
    4e24:	00a68533          	add	a0,a3,a0
    4e28:	4145053b          	subw	a0,a0,s4
    4e2c:	00b50533          	add	a0,a0,a1
    4e30:	8805051b          	addiw	a0,a0,-1920
    4e34:	400005b7          	lui	a1,0x40000
    4e38:	000016b7          	lui	a3,0x1
    4e3c:	40d406b3          	sub	a3,s0,a3
    4e40:	38a6b023          	sd	a0,896(a3) # 1380 <.LBB103_4+0x140>
    4e44:	00055463          	bgez	a0,4e4c <.LBB103_198>
    4e48:	c00005b7          	lui	a1,0xc0000

0000000000004e4c <.LBB103_198>:
    4e4c:	00001537          	lui	a0,0x1
    4e50:	40a40533          	sub	a0,s0,a0
    4e54:	36c53023          	sd	a2,864(a0) # 1360 <.LBB103_4+0x120>
    4e58:	00001537          	lui	a0,0x1
    4e5c:	40a40533          	sub	a0,s0,a0
    4e60:	36b53823          	sd	a1,880(a0) # 1370 <.LBB103_4+0x130>
    4e64:	00001537          	lui	a0,0x1
    4e68:	40a40533          	sub	a0,s0,a0
    4e6c:	68053683          	ld	a3,1664(a0) # 1680 <.LBB103_4+0x440>
    4e70:	00169513          	slli	a0,a3,0x1
    4e74:	98043583          	ld	a1,-1664(s0)
    4e78:	e8843603          	ld	a2,-376(s0)
    4e7c:	00c585b3          	add	a1,a1,a2
    4e80:	00d506b3          	add	a3,a0,a3
    4e84:	e8043503          	ld	a0,-384(s0)
    4e88:	40a5853b          	subw	a0,a1,a0
    4e8c:	00d50533          	add	a0,a0,a3
    4e90:	8805051b          	addiw	a0,a0,-1920
    4e94:	400005b7          	lui	a1,0x40000
    4e98:	00001637          	lui	a2,0x1
    4e9c:	40c40633          	sub	a2,s0,a2
    4ea0:	38a63423          	sd	a0,904(a2) # 1388 <.LBB103_4+0x148>
    4ea4:	00055463          	bgez	a0,4eac <.LBB103_200>
    4ea8:	c00005b7          	lui	a1,0xc0000

0000000000004eac <.LBB103_200>:
    4eac:	f8e43823          	sd	a4,-112(s0)
    4eb0:	00001537          	lui	a0,0x1
    4eb4:	40a40533          	sub	a0,s0,a0
    4eb8:	36b53c23          	sd	a1,888(a0) # 1378 <.LBB103_4+0x138>
    4ebc:	98843503          	ld	a0,-1656(s0)
    4ec0:	e7843583          	ld	a1,-392(s0)
    4ec4:	00b50533          	add	a0,a0,a1
    4ec8:	e7043583          	ld	a1,-400(s0)
    4ecc:	40b5053b          	subw	a0,a0,a1
    4ed0:	00d50533          	add	a0,a0,a3
    4ed4:	8805051b          	addiw	a0,a0,-1920
    4ed8:	40000637          	lui	a2,0x40000
    4edc:	b8043583          	ld	a1,-1152(s0)
    4ee0:	00001737          	lui	a4,0x1
    4ee4:	40e40733          	sub	a4,s0,a4
    4ee8:	38a73c23          	sd	a0,920(a4) # 1398 <.LBB103_4+0x158>
    4eec:	f9043703          	ld	a4,-112(s0)
    4ef0:	00055463          	bgez	a0,4ef8 <.LBB103_202>
    4ef4:	c0000637          	lui	a2,0xc0000

0000000000004ef8 <.LBB103_202>:
    4ef8:	f8b43823          	sd	a1,-112(s0)
    4efc:	00001537          	lui	a0,0x1
    4f00:	40a40533          	sub	a0,s0,a0
    4f04:	38c53823          	sd	a2,912(a0) # 1390 <.LBB103_4+0x150>
    4f08:	99043503          	ld	a0,-1648(s0)
    4f0c:	e6843603          	ld	a2,-408(s0)
    4f10:	00c50533          	add	a0,a0,a2
    4f14:	e6043603          	ld	a2,-416(s0)
    4f18:	40c5053b          	subw	a0,a0,a2
    4f1c:	00d50533          	add	a0,a0,a3
    4f20:	8805051b          	addiw	a0,a0,-1920
    4f24:	40000637          	lui	a2,0x40000
    4f28:	000015b7          	lui	a1,0x1
    4f2c:	40b405b3          	sub	a1,s0,a1
    4f30:	3aa5b423          	sd	a0,936(a1) # 13a8 <.LBB103_4+0x168>
    4f34:	f9043583          	ld	a1,-112(s0)
    4f38:	00055463          	bgez	a0,4f40 <.LBB103_204>
    4f3c:	c0000637          	lui	a2,0xc0000

0000000000004f40 <.LBB103_204>:
    4f40:	f8b43823          	sd	a1,-112(s0)
    4f44:	00001537          	lui	a0,0x1
    4f48:	40a40533          	sub	a0,s0,a0
    4f4c:	3ac53023          	sd	a2,928(a0) # 13a0 <.LBB103_4+0x160>
    4f50:	99843503          	ld	a0,-1640(s0)
    4f54:	e5843603          	ld	a2,-424(s0)
    4f58:	00c50533          	add	a0,a0,a2
    4f5c:	e5043603          	ld	a2,-432(s0)
    4f60:	40c5053b          	subw	a0,a0,a2
    4f64:	00d50533          	add	a0,a0,a3
    4f68:	8805051b          	addiw	a0,a0,-1920
    4f6c:	40000637          	lui	a2,0x40000
    4f70:	000015b7          	lui	a1,0x1
    4f74:	40b405b3          	sub	a1,s0,a1
    4f78:	3aa5bc23          	sd	a0,952(a1) # 13b8 <.LBB103_4+0x178>
    4f7c:	f9043583          	ld	a1,-112(s0)
    4f80:	00055463          	bgez	a0,4f88 <.LBB103_206>
    4f84:	c0000637          	lui	a2,0xc0000

0000000000004f88 <.LBB103_206>:
    4f88:	f8b43823          	sd	a1,-112(s0)
    4f8c:	00001537          	lui	a0,0x1
    4f90:	40a40533          	sub	a0,s0,a0
    4f94:	3ac53823          	sd	a2,944(a0) # 13b0 <.LBB103_4+0x170>
    4f98:	9a043503          	ld	a0,-1632(s0)
    4f9c:	e4843603          	ld	a2,-440(s0)
    4fa0:	00c50533          	add	a0,a0,a2
    4fa4:	e4043603          	ld	a2,-448(s0)
    4fa8:	40c5053b          	subw	a0,a0,a2
    4fac:	00d50533          	add	a0,a0,a3
    4fb0:	8805051b          	addiw	a0,a0,-1920
    4fb4:	40000637          	lui	a2,0x40000
    4fb8:	000015b7          	lui	a1,0x1
    4fbc:	40b405b3          	sub	a1,s0,a1
    4fc0:	3ca5b423          	sd	a0,968(a1) # 13c8 <.LBB103_4+0x188>
    4fc4:	f9043583          	ld	a1,-112(s0)
    4fc8:	00055463          	bgez	a0,4fd0 <.LBB103_208>
    4fcc:	c0000637          	lui	a2,0xc0000

0000000000004fd0 <.LBB103_208>:
    4fd0:	f8b43823          	sd	a1,-112(s0)
    4fd4:	00001537          	lui	a0,0x1
    4fd8:	40a40533          	sub	a0,s0,a0
    4fdc:	3cc53023          	sd	a2,960(a0) # 13c0 <.LBB103_4+0x180>
    4fe0:	9a843503          	ld	a0,-1624(s0)
    4fe4:	e3843603          	ld	a2,-456(s0)
    4fe8:	00c50533          	add	a0,a0,a2
    4fec:	e3043603          	ld	a2,-464(s0)
    4ff0:	40c5053b          	subw	a0,a0,a2
    4ff4:	00d50533          	add	a0,a0,a3
    4ff8:	8805051b          	addiw	a0,a0,-1920
    4ffc:	40000637          	lui	a2,0x40000
    5000:	000015b7          	lui	a1,0x1
    5004:	40b405b3          	sub	a1,s0,a1
    5008:	3ca5bc23          	sd	a0,984(a1) # 13d8 <.LBB103_4+0x198>
    500c:	f9043583          	ld	a1,-112(s0)
    5010:	00055463          	bgez	a0,5018 <.LBB103_210>
    5014:	c0000637          	lui	a2,0xc0000

0000000000005018 <.LBB103_210>:
    5018:	f8b43823          	sd	a1,-112(s0)
    501c:	00001537          	lui	a0,0x1
    5020:	40a40533          	sub	a0,s0,a0
    5024:	3cc53823          	sd	a2,976(a0) # 13d0 <.LBB103_4+0x190>
    5028:	9b043503          	ld	a0,-1616(s0)
    502c:	000015b7          	lui	a1,0x1
    5030:	40b405b3          	sub	a1,s0,a1
    5034:	6c05b603          	ld	a2,1728(a1) # 16c0 <.LBB103_4+0x480>
    5038:	00c50533          	add	a0,a0,a2
    503c:	000015b7          	lui	a1,0x1
    5040:	40b405b3          	sub	a1,s0,a1
    5044:	6b85b603          	ld	a2,1720(a1) # 16b8 <.LBB103_4+0x478>
    5048:	40c5053b          	subw	a0,a0,a2
    504c:	00d50533          	add	a0,a0,a3
    5050:	8805051b          	addiw	a0,a0,-1920
    5054:	40000637          	lui	a2,0x40000
    5058:	000015b7          	lui	a1,0x1
    505c:	40b405b3          	sub	a1,s0,a1
    5060:	3ea5b423          	sd	a0,1000(a1) # 13e8 <.LBB103_4+0x1a8>
    5064:	f9043583          	ld	a1,-112(s0)
    5068:	00055463          	bgez	a0,5070 <.LBB103_212>
    506c:	c0000637          	lui	a2,0xc0000

0000000000005070 <.LBB103_212>:
    5070:	f8b43823          	sd	a1,-112(s0)
    5074:	00001537          	lui	a0,0x1
    5078:	40a40533          	sub	a0,s0,a0
    507c:	3ec53023          	sd	a2,992(a0) # 13e0 <.LBB103_4+0x1a0>
    5080:	9b843503          	ld	a0,-1608(s0)
    5084:	000015b7          	lui	a1,0x1
    5088:	40b405b3          	sub	a1,s0,a1
    508c:	6b05b603          	ld	a2,1712(a1) # 16b0 <.LBB103_4+0x470>
    5090:	00c50533          	add	a0,a0,a2
    5094:	000015b7          	lui	a1,0x1
    5098:	40b405b3          	sub	a1,s0,a1
    509c:	6a85b603          	ld	a2,1704(a1) # 16a8 <.LBB103_4+0x468>
    50a0:	40c5053b          	subw	a0,a0,a2
    50a4:	00d50533          	add	a0,a0,a3
    50a8:	8805051b          	addiw	a0,a0,-1920
    50ac:	40000637          	lui	a2,0x40000
    50b0:	000015b7          	lui	a1,0x1
    50b4:	40b405b3          	sub	a1,s0,a1
    50b8:	3ea5bc23          	sd	a0,1016(a1) # 13f8 <.LBB103_4+0x1b8>
    50bc:	f9043583          	ld	a1,-112(s0)
    50c0:	00055463          	bgez	a0,50c8 <.LBB103_214>
    50c4:	c0000637          	lui	a2,0xc0000

00000000000050c8 <.LBB103_214>:
    50c8:	f8b43823          	sd	a1,-112(s0)
    50cc:	00001537          	lui	a0,0x1
    50d0:	40a40533          	sub	a0,s0,a0
    50d4:	3ec53823          	sd	a2,1008(a0) # 13f0 <.LBB103_4+0x1b0>
    50d8:	9c043503          	ld	a0,-1600(s0)
    50dc:	000015b7          	lui	a1,0x1
    50e0:	40b405b3          	sub	a1,s0,a1
    50e4:	6a05b603          	ld	a2,1696(a1) # 16a0 <.LBB103_4+0x460>
    50e8:	00c50533          	add	a0,a0,a2
    50ec:	000015b7          	lui	a1,0x1
    50f0:	40b405b3          	sub	a1,s0,a1
    50f4:	6985b603          	ld	a2,1688(a1) # 1698 <.LBB103_4+0x458>
    50f8:	40c5053b          	subw	a0,a0,a2
    50fc:	00d50533          	add	a0,a0,a3
    5100:	8805051b          	addiw	a0,a0,-1920
    5104:	40000637          	lui	a2,0x40000
    5108:	000015b7          	lui	a1,0x1
    510c:	40b405b3          	sub	a1,s0,a1
    5110:	40a5b423          	sd	a0,1032(a1) # 1408 <.LBB103_4+0x1c8>
    5114:	f9043583          	ld	a1,-112(s0)
    5118:	00055463          	bgez	a0,5120 <.LBB103_216>
    511c:	c0000637          	lui	a2,0xc0000

0000000000005120 <.LBB103_216>:
    5120:	f8b43823          	sd	a1,-112(s0)
    5124:	00001537          	lui	a0,0x1
    5128:	40a40533          	sub	a0,s0,a0
    512c:	40c53023          	sd	a2,1024(a0) # 1400 <.LBB103_4+0x1c0>
    5130:	9c843503          	ld	a0,-1592(s0)
    5134:	000015b7          	lui	a1,0x1
    5138:	40b405b3          	sub	a1,s0,a1
    513c:	6905b603          	ld	a2,1680(a1) # 1690 <.LBB103_4+0x450>
    5140:	00c50533          	add	a0,a0,a2
    5144:	000015b7          	lui	a1,0x1
    5148:	40b405b3          	sub	a1,s0,a1
    514c:	6c85b603          	ld	a2,1736(a1) # 16c8 <.LBB103_4+0x488>
    5150:	40c5053b          	subw	a0,a0,a2
    5154:	00d50533          	add	a0,a0,a3
    5158:	8805051b          	addiw	a0,a0,-1920
    515c:	40000637          	lui	a2,0x40000
    5160:	000015b7          	lui	a1,0x1
    5164:	40b405b3          	sub	a1,s0,a1
    5168:	40a5bc23          	sd	a0,1048(a1) # 1418 <.LBB103_4+0x1d8>
    516c:	f9043583          	ld	a1,-112(s0)
    5170:	00055463          	bgez	a0,5178 <.LBB103_218>
    5174:	c0000637          	lui	a2,0xc0000

0000000000005178 <.LBB103_218>:
    5178:	f8b43823          	sd	a1,-112(s0)
    517c:	00001537          	lui	a0,0x1
    5180:	40a40533          	sub	a0,s0,a0
    5184:	40c53823          	sd	a2,1040(a0) # 1410 <.LBB103_4+0x1d0>
    5188:	9d043503          	ld	a0,-1584(s0)
    518c:	e9043603          	ld	a2,-368(s0)
    5190:	00c50533          	add	a0,a0,a2
    5194:	000015b7          	lui	a1,0x1
    5198:	40b405b3          	sub	a1,s0,a1
    519c:	6d05b603          	ld	a2,1744(a1) # 16d0 <.LBB103_4+0x490>
    51a0:	40c5053b          	subw	a0,a0,a2
    51a4:	00d50533          	add	a0,a0,a3
    51a8:	8805051b          	addiw	a0,a0,-1920
    51ac:	40000637          	lui	a2,0x40000
    51b0:	000015b7          	lui	a1,0x1
    51b4:	40b405b3          	sub	a1,s0,a1
    51b8:	42a5b423          	sd	a0,1064(a1) # 1428 <.LBB103_4+0x1e8>
    51bc:	f9043583          	ld	a1,-112(s0)
    51c0:	00055463          	bgez	a0,51c8 <.LBB103_220>
    51c4:	c0000637          	lui	a2,0xc0000

00000000000051c8 <.LBB103_220>:
    51c8:	f8b43823          	sd	a1,-112(s0)
    51cc:	00001537          	lui	a0,0x1
    51d0:	40a40533          	sub	a0,s0,a0
    51d4:	42c53023          	sd	a2,1056(a0) # 1420 <.LBB103_4+0x1e0>
    51d8:	9d843503          	ld	a0,-1576(s0)
    51dc:	e9843603          	ld	a2,-360(s0)
    51e0:	00c50533          	add	a0,a0,a2
    51e4:	000015b7          	lui	a1,0x1
    51e8:	40b405b3          	sub	a1,s0,a1
    51ec:	6d85b603          	ld	a2,1752(a1) # 16d8 <.LBB103_4+0x498>
    51f0:	40c5053b          	subw	a0,a0,a2
    51f4:	00d50533          	add	a0,a0,a3
    51f8:	8805051b          	addiw	a0,a0,-1920
    51fc:	40000637          	lui	a2,0x40000
    5200:	000015b7          	lui	a1,0x1
    5204:	40b405b3          	sub	a1,s0,a1
    5208:	42a5bc23          	sd	a0,1080(a1) # 1438 <.LBB103_4+0x1f8>
    520c:	f9043583          	ld	a1,-112(s0)
    5210:	00055463          	bgez	a0,5218 <.LBB103_222>
    5214:	c0000637          	lui	a2,0xc0000

0000000000005218 <.LBB103_222>:
    5218:	f8b43823          	sd	a1,-112(s0)
    521c:	00001537          	lui	a0,0x1
    5220:	40a40533          	sub	a0,s0,a0
    5224:	42c53823          	sd	a2,1072(a0) # 1430 <.LBB103_4+0x1f0>
    5228:	9e043503          	ld	a0,-1568(s0)
    522c:	ea043603          	ld	a2,-352(s0)
    5230:	00c50533          	add	a0,a0,a2
    5234:	41b5053b          	subw	a0,a0,s11
    5238:	00d50533          	add	a0,a0,a3
    523c:	8805051b          	addiw	a0,a0,-1920
    5240:	40000637          	lui	a2,0x40000
    5244:	000015b7          	lui	a1,0x1
    5248:	40b405b3          	sub	a1,s0,a1
    524c:	44a5b423          	sd	a0,1096(a1) # 1448 <.LBB103_4+0x208>
    5250:	f9043583          	ld	a1,-112(s0)
    5254:	00055463          	bgez	a0,525c <.LBB103_224>
    5258:	c0000637          	lui	a2,0xc0000

000000000000525c <.LBB103_224>:
    525c:	f8b43823          	sd	a1,-112(s0)
    5260:	00001537          	lui	a0,0x1
    5264:	40a40533          	sub	a0,s0,a0
    5268:	44c53023          	sd	a2,1088(a0) # 1440 <.LBB103_4+0x200>
    526c:	9e843503          	ld	a0,-1560(s0)
    5270:	ea843603          	ld	a2,-344(s0)
    5274:	00c50533          	add	a0,a0,a2
    5278:	41a5053b          	subw	a0,a0,s10
    527c:	00d50533          	add	a0,a0,a3
    5280:	8805051b          	addiw	a0,a0,-1920
    5284:	40000637          	lui	a2,0x40000
    5288:	000015b7          	lui	a1,0x1
    528c:	40b405b3          	sub	a1,s0,a1
    5290:	44a5bc23          	sd	a0,1112(a1) # 1458 <.LBB103_4+0x218>
    5294:	f9043583          	ld	a1,-112(s0)
    5298:	00055463          	bgez	a0,52a0 <.LBB103_226>
    529c:	c0000637          	lui	a2,0xc0000

00000000000052a0 <.LBB103_226>:
    52a0:	f8b43823          	sd	a1,-112(s0)
    52a4:	00001537          	lui	a0,0x1
    52a8:	40a40533          	sub	a0,s0,a0
    52ac:	44c53823          	sd	a2,1104(a0) # 1450 <.LBB103_4+0x210>
    52b0:	9f043503          	ld	a0,-1552(s0)
    52b4:	eb043603          	ld	a2,-336(s0)
    52b8:	00c50533          	add	a0,a0,a2
    52bc:	000015b7          	lui	a1,0x1
    52c0:	40b405b3          	sub	a1,s0,a1
    52c4:	6f05b603          	ld	a2,1776(a1) # 16f0 <.LBB103_4+0x4b0>
    52c8:	40c5053b          	subw	a0,a0,a2
    52cc:	00d50533          	add	a0,a0,a3
    52d0:	8805051b          	addiw	a0,a0,-1920
    52d4:	40000637          	lui	a2,0x40000
    52d8:	000015b7          	lui	a1,0x1
    52dc:	40b405b3          	sub	a1,s0,a1
    52e0:	46a5b423          	sd	a0,1128(a1) # 1468 <.LBB103_4+0x228>
    52e4:	f9043583          	ld	a1,-112(s0)
    52e8:	00055463          	bgez	a0,52f0 <.LBB103_228>
    52ec:	c0000637          	lui	a2,0xc0000

00000000000052f0 <.LBB103_228>:
    52f0:	f8b43823          	sd	a1,-112(s0)
    52f4:	00001537          	lui	a0,0x1
    52f8:	40a40533          	sub	a0,s0,a0
    52fc:	46c53023          	sd	a2,1120(a0) # 1460 <.LBB103_4+0x220>
    5300:	9f843503          	ld	a0,-1544(s0)
    5304:	eb843603          	ld	a2,-328(s0)
    5308:	00c50533          	add	a0,a0,a2
    530c:	000015b7          	lui	a1,0x1
    5310:	40b405b3          	sub	a1,s0,a1
    5314:	6f85b603          	ld	a2,1784(a1) # 16f8 <.LBB103_4+0x4b8>
    5318:	40c5053b          	subw	a0,a0,a2
    531c:	00d50533          	add	a0,a0,a3
    5320:	8805051b          	addiw	a0,a0,-1920
    5324:	40000637          	lui	a2,0x40000
    5328:	000015b7          	lui	a1,0x1
    532c:	40b405b3          	sub	a1,s0,a1
    5330:	46a5bc23          	sd	a0,1144(a1) # 1478 <.LBB103_4+0x238>
    5334:	f9043583          	ld	a1,-112(s0)
    5338:	00055463          	bgez	a0,5340 <.LBB103_230>
    533c:	c0000637          	lui	a2,0xc0000

0000000000005340 <.LBB103_230>:
    5340:	f8b43823          	sd	a1,-112(s0)
    5344:	00001537          	lui	a0,0x1
    5348:	40a40533          	sub	a0,s0,a0
    534c:	46c53823          	sd	a2,1136(a0) # 1470 <.LBB103_4+0x230>
    5350:	a0043503          	ld	a0,-1536(s0)
    5354:	ec043603          	ld	a2,-320(s0)
    5358:	00c50533          	add	a0,a0,a2
    535c:	000015b7          	lui	a1,0x1
    5360:	40b405b3          	sub	a1,s0,a1
    5364:	7005b603          	ld	a2,1792(a1) # 1700 <.LBB103_4+0x4c0>
    5368:	40c5053b          	subw	a0,a0,a2
    536c:	00d50533          	add	a0,a0,a3
    5370:	8805051b          	addiw	a0,a0,-1920
    5374:	40000637          	lui	a2,0x40000
    5378:	000015b7          	lui	a1,0x1
    537c:	40b405b3          	sub	a1,s0,a1
    5380:	48a5b423          	sd	a0,1160(a1) # 1488 <.LBB103_4+0x248>
    5384:	f9043583          	ld	a1,-112(s0)
    5388:	00055463          	bgez	a0,5390 <.LBB103_232>
    538c:	c0000637          	lui	a2,0xc0000

0000000000005390 <.LBB103_232>:
    5390:	f8b43823          	sd	a1,-112(s0)
    5394:	00001537          	lui	a0,0x1
    5398:	40a40533          	sub	a0,s0,a0
    539c:	48c53023          	sd	a2,1152(a0) # 1480 <.LBB103_4+0x240>
    53a0:	a0843503          	ld	a0,-1528(s0)
    53a4:	ec843603          	ld	a2,-312(s0)
    53a8:	00c50533          	add	a0,a0,a2
    53ac:	000015b7          	lui	a1,0x1
    53b0:	40b405b3          	sub	a1,s0,a1
    53b4:	7085b603          	ld	a2,1800(a1) # 1708 <.LBB103_4+0x4c8>
    53b8:	40c5053b          	subw	a0,a0,a2
    53bc:	00d50533          	add	a0,a0,a3
    53c0:	8805051b          	addiw	a0,a0,-1920
    53c4:	40000637          	lui	a2,0x40000
    53c8:	000015b7          	lui	a1,0x1
    53cc:	40b405b3          	sub	a1,s0,a1
    53d0:	48a5bc23          	sd	a0,1176(a1) # 1498 <.LBB103_4+0x258>
    53d4:	f9043583          	ld	a1,-112(s0)
    53d8:	00055463          	bgez	a0,53e0 <.LBB103_234>
    53dc:	c0000637          	lui	a2,0xc0000

00000000000053e0 <.LBB103_234>:
    53e0:	f8b43823          	sd	a1,-112(s0)
    53e4:	00001537          	lui	a0,0x1
    53e8:	40a40533          	sub	a0,s0,a0
    53ec:	48c53823          	sd	a2,1168(a0) # 1490 <.LBB103_4+0x250>
    53f0:	a1043503          	ld	a0,-1520(s0)
    53f4:	f2043603          	ld	a2,-224(s0)
    53f8:	00c50533          	add	a0,a0,a2
    53fc:	000015b7          	lui	a1,0x1
    5400:	40b405b3          	sub	a1,s0,a1
    5404:	7105b603          	ld	a2,1808(a1) # 1710 <.LBB103_4+0x4d0>
    5408:	40c5053b          	subw	a0,a0,a2
    540c:	00d50533          	add	a0,a0,a3
    5410:	8805051b          	addiw	a0,a0,-1920
    5414:	40000637          	lui	a2,0x40000
    5418:	000015b7          	lui	a1,0x1
    541c:	40b405b3          	sub	a1,s0,a1
    5420:	4aa5b423          	sd	a0,1192(a1) # 14a8 <.LBB103_4+0x268>
    5424:	f9043583          	ld	a1,-112(s0)
    5428:	00055463          	bgez	a0,5430 <.LBB103_236>
    542c:	c0000637          	lui	a2,0xc0000

0000000000005430 <.LBB103_236>:
    5430:	f8b43823          	sd	a1,-112(s0)
    5434:	00001537          	lui	a0,0x1
    5438:	40a40533          	sub	a0,s0,a0
    543c:	4ac53023          	sd	a2,1184(a0) # 14a0 <.LBB103_4+0x260>
    5440:	a1843503          	ld	a0,-1512(s0)
    5444:	f2843603          	ld	a2,-216(s0)
    5448:	00c50533          	add	a0,a0,a2
    544c:	000015b7          	lui	a1,0x1
    5450:	40b405b3          	sub	a1,s0,a1
    5454:	7185b603          	ld	a2,1816(a1) # 1718 <.LBB103_4+0x4d8>
    5458:	40c5053b          	subw	a0,a0,a2
    545c:	00d50533          	add	a0,a0,a3
    5460:	8805051b          	addiw	a0,a0,-1920
    5464:	40000637          	lui	a2,0x40000
    5468:	000015b7          	lui	a1,0x1
    546c:	40b405b3          	sub	a1,s0,a1
    5470:	4aa5bc23          	sd	a0,1208(a1) # 14b8 <.LBB103_4+0x278>
    5474:	f9043583          	ld	a1,-112(s0)
    5478:	00055463          	bgez	a0,5480 <.LBB103_238>
    547c:	c0000637          	lui	a2,0xc0000

0000000000005480 <.LBB103_238>:
    5480:	f8b43823          	sd	a1,-112(s0)
    5484:	00001537          	lui	a0,0x1
    5488:	40a40533          	sub	a0,s0,a0
    548c:	4ac53823          	sd	a2,1200(a0) # 14b0 <.LBB103_4+0x270>
    5490:	a2043503          	ld	a0,-1504(s0)
    5494:	f3043603          	ld	a2,-208(s0)
    5498:	00c50533          	add	a0,a0,a2
    549c:	000015b7          	lui	a1,0x1
    54a0:	40b405b3          	sub	a1,s0,a1
    54a4:	7205b603          	ld	a2,1824(a1) # 1720 <.LBB103_4+0x4e0>
    54a8:	40c5053b          	subw	a0,a0,a2
    54ac:	00d50533          	add	a0,a0,a3
    54b0:	8805051b          	addiw	a0,a0,-1920
    54b4:	40000637          	lui	a2,0x40000
    54b8:	000015b7          	lui	a1,0x1
    54bc:	40b405b3          	sub	a1,s0,a1
    54c0:	4ca5b423          	sd	a0,1224(a1) # 14c8 <.LBB103_4+0x288>
    54c4:	f9043583          	ld	a1,-112(s0)
    54c8:	00055463          	bgez	a0,54d0 <.LBB103_240>
    54cc:	c0000637          	lui	a2,0xc0000

00000000000054d0 <.LBB103_240>:
    54d0:	f8b43823          	sd	a1,-112(s0)
    54d4:	00001537          	lui	a0,0x1
    54d8:	40a40533          	sub	a0,s0,a0
    54dc:	4cc53023          	sd	a2,1216(a0) # 14c0 <.LBB103_4+0x280>
    54e0:	a2843503          	ld	a0,-1496(s0)
    54e4:	f3843603          	ld	a2,-200(s0)
    54e8:	00c50533          	add	a0,a0,a2
    54ec:	000015b7          	lui	a1,0x1
    54f0:	40b405b3          	sub	a1,s0,a1
    54f4:	7285b603          	ld	a2,1832(a1) # 1728 <.LBB103_4+0x4e8>
    54f8:	40c5053b          	subw	a0,a0,a2
    54fc:	00d50533          	add	a0,a0,a3
    5500:	8805051b          	addiw	a0,a0,-1920
    5504:	40000637          	lui	a2,0x40000
    5508:	000015b7          	lui	a1,0x1
    550c:	40b405b3          	sub	a1,s0,a1
    5510:	4ca5bc23          	sd	a0,1240(a1) # 14d8 <.LBB103_4+0x298>
    5514:	f9043583          	ld	a1,-112(s0)
    5518:	00055463          	bgez	a0,5520 <.LBB103_242>
    551c:	c0000637          	lui	a2,0xc0000

0000000000005520 <.LBB103_242>:
    5520:	f8b43823          	sd	a1,-112(s0)
    5524:	00001537          	lui	a0,0x1
    5528:	40a40533          	sub	a0,s0,a0
    552c:	4cc53823          	sd	a2,1232(a0) # 14d0 <.LBB103_4+0x290>
    5530:	a3043503          	ld	a0,-1488(s0)
    5534:	f4043603          	ld	a2,-192(s0)
    5538:	00c50533          	add	a0,a0,a2
    553c:	000015b7          	lui	a1,0x1
    5540:	40b405b3          	sub	a1,s0,a1
    5544:	7305b603          	ld	a2,1840(a1) # 1730 <.LBB103_4+0x4f0>
    5548:	40c5053b          	subw	a0,a0,a2
    554c:	00d50533          	add	a0,a0,a3
    5550:	8805051b          	addiw	a0,a0,-1920
    5554:	40000637          	lui	a2,0x40000
    5558:	000015b7          	lui	a1,0x1
    555c:	40b405b3          	sub	a1,s0,a1
    5560:	4ea5b423          	sd	a0,1256(a1) # 14e8 <.LBB103_4+0x2a8>
    5564:	f9043583          	ld	a1,-112(s0)
    5568:	00055463          	bgez	a0,5570 <.LBB103_244>
    556c:	c0000637          	lui	a2,0xc0000

0000000000005570 <.LBB103_244>:
    5570:	f8b43823          	sd	a1,-112(s0)
    5574:	00001537          	lui	a0,0x1
    5578:	40a40533          	sub	a0,s0,a0
    557c:	4ec53023          	sd	a2,1248(a0) # 14e0 <.LBB103_4+0x2a0>
    5580:	a3843503          	ld	a0,-1480(s0)
    5584:	f4843603          	ld	a2,-184(s0)
    5588:	00c50533          	add	a0,a0,a2
    558c:	000015b7          	lui	a1,0x1
    5590:	40b405b3          	sub	a1,s0,a1
    5594:	7385b603          	ld	a2,1848(a1) # 1738 <.LBB103_4+0x4f8>
    5598:	40c5053b          	subw	a0,a0,a2
    559c:	00d50533          	add	a0,a0,a3
    55a0:	8805051b          	addiw	a0,a0,-1920
    55a4:	40000637          	lui	a2,0x40000
    55a8:	000015b7          	lui	a1,0x1
    55ac:	40b405b3          	sub	a1,s0,a1
    55b0:	4ea5bc23          	sd	a0,1272(a1) # 14f8 <.LBB103_4+0x2b8>
    55b4:	f9043583          	ld	a1,-112(s0)
    55b8:	00055463          	bgez	a0,55c0 <.LBB103_246>
    55bc:	c0000637          	lui	a2,0xc0000

00000000000055c0 <.LBB103_246>:
    55c0:	f8b43823          	sd	a1,-112(s0)
    55c4:	00001537          	lui	a0,0x1
    55c8:	40a40533          	sub	a0,s0,a0
    55cc:	4ec53823          	sd	a2,1264(a0) # 14f0 <.LBB103_4+0x2b0>
    55d0:	a4043503          	ld	a0,-1472(s0)
    55d4:	f5043603          	ld	a2,-176(s0)
    55d8:	00c50533          	add	a0,a0,a2
    55dc:	000015b7          	lui	a1,0x1
    55e0:	40b405b3          	sub	a1,s0,a1
    55e4:	7405b603          	ld	a2,1856(a1) # 1740 <.LBB103_4+0x500>
    55e8:	40c5053b          	subw	a0,a0,a2
    55ec:	00d50533          	add	a0,a0,a3
    55f0:	8805051b          	addiw	a0,a0,-1920
    55f4:	40000637          	lui	a2,0x40000
    55f8:	000015b7          	lui	a1,0x1
    55fc:	40b405b3          	sub	a1,s0,a1
    5600:	50a5b423          	sd	a0,1288(a1) # 1508 <.LBB103_4+0x2c8>
    5604:	f9043583          	ld	a1,-112(s0)
    5608:	00055463          	bgez	a0,5610 <.LBB103_248>
    560c:	c0000637          	lui	a2,0xc0000

0000000000005610 <.LBB103_248>:
    5610:	f8b43823          	sd	a1,-112(s0)
    5614:	00001537          	lui	a0,0x1
    5618:	40a40533          	sub	a0,s0,a0
    561c:	50c53023          	sd	a2,1280(a0) # 1500 <.LBB103_4+0x2c0>
    5620:	a4843503          	ld	a0,-1464(s0)
    5624:	f5843603          	ld	a2,-168(s0)
    5628:	00c50533          	add	a0,a0,a2
    562c:	000015b7          	lui	a1,0x1
    5630:	40b405b3          	sub	a1,s0,a1
    5634:	7485b603          	ld	a2,1864(a1) # 1748 <.LBB103_4+0x508>
    5638:	40c5053b          	subw	a0,a0,a2
    563c:	00d50533          	add	a0,a0,a3
    5640:	8805051b          	addiw	a0,a0,-1920
    5644:	40000637          	lui	a2,0x40000
    5648:	000015b7          	lui	a1,0x1
    564c:	40b405b3          	sub	a1,s0,a1
    5650:	50a5bc23          	sd	a0,1304(a1) # 1518 <.LBB103_4+0x2d8>
    5654:	f9043583          	ld	a1,-112(s0)
    5658:	00055463          	bgez	a0,5660 <.LBB103_250>
    565c:	c0000637          	lui	a2,0xc0000

0000000000005660 <.LBB103_250>:
    5660:	f8b43823          	sd	a1,-112(s0)
    5664:	00001537          	lui	a0,0x1
    5668:	40a40533          	sub	a0,s0,a0
    566c:	50c53823          	sd	a2,1296(a0) # 1510 <.LBB103_4+0x2d0>
    5670:	a5043503          	ld	a0,-1456(s0)
    5674:	f6043603          	ld	a2,-160(s0)
    5678:	00c50533          	add	a0,a0,a2
    567c:	000015b7          	lui	a1,0x1
    5680:	40b405b3          	sub	a1,s0,a1
    5684:	7505b603          	ld	a2,1872(a1) # 1750 <.LBB103_4+0x510>
    5688:	40c5053b          	subw	a0,a0,a2
    568c:	00d50533          	add	a0,a0,a3
    5690:	8805051b          	addiw	a0,a0,-1920
    5694:	40000637          	lui	a2,0x40000
    5698:	000015b7          	lui	a1,0x1
    569c:	40b405b3          	sub	a1,s0,a1
    56a0:	52a5b423          	sd	a0,1320(a1) # 1528 <.LBB103_4+0x2e8>
    56a4:	f9043583          	ld	a1,-112(s0)
    56a8:	00055463          	bgez	a0,56b0 <.LBB103_252>
    56ac:	c0000637          	lui	a2,0xc0000

00000000000056b0 <.LBB103_252>:
    56b0:	f8b43823          	sd	a1,-112(s0)
    56b4:	00001537          	lui	a0,0x1
    56b8:	40a40533          	sub	a0,s0,a0
    56bc:	52c53023          	sd	a2,1312(a0) # 1520 <.LBB103_4+0x2e0>
    56c0:	a5843503          	ld	a0,-1448(s0)
    56c4:	f6843603          	ld	a2,-152(s0)
    56c8:	00c50533          	add	a0,a0,a2
    56cc:	000015b7          	lui	a1,0x1
    56d0:	40b405b3          	sub	a1,s0,a1
    56d4:	7585b603          	ld	a2,1880(a1) # 1758 <.LBB103_4+0x518>
    56d8:	40c5053b          	subw	a0,a0,a2
    56dc:	00d50533          	add	a0,a0,a3
    56e0:	8805051b          	addiw	a0,a0,-1920
    56e4:	40000637          	lui	a2,0x40000
    56e8:	000015b7          	lui	a1,0x1
    56ec:	40b405b3          	sub	a1,s0,a1
    56f0:	52a5bc23          	sd	a0,1336(a1) # 1538 <.LBB103_4+0x2f8>
    56f4:	f9043583          	ld	a1,-112(s0)
    56f8:	00055463          	bgez	a0,5700 <.LBB103_254>
    56fc:	c0000637          	lui	a2,0xc0000

0000000000005700 <.LBB103_254>:
    5700:	f8b43823          	sd	a1,-112(s0)
    5704:	00001537          	lui	a0,0x1
    5708:	40a40533          	sub	a0,s0,a0
    570c:	52c53823          	sd	a2,1328(a0) # 1530 <.LBB103_4+0x2f0>
    5710:	a6043503          	ld	a0,-1440(s0)
    5714:	f7043603          	ld	a2,-144(s0)
    5718:	00c50533          	add	a0,a0,a2
    571c:	000015b7          	lui	a1,0x1
    5720:	40b405b3          	sub	a1,s0,a1
    5724:	7605b603          	ld	a2,1888(a1) # 1760 <.LBB103_4+0x520>
    5728:	40c5053b          	subw	a0,a0,a2
    572c:	00d50533          	add	a0,a0,a3
    5730:	8805051b          	addiw	a0,a0,-1920
    5734:	40000637          	lui	a2,0x40000
    5738:	000015b7          	lui	a1,0x1
    573c:	40b405b3          	sub	a1,s0,a1
    5740:	54a5b423          	sd	a0,1352(a1) # 1548 <.LBB103_4+0x308>
    5744:	f9043583          	ld	a1,-112(s0)
    5748:	00055463          	bgez	a0,5750 <.LBB103_256>
    574c:	c0000637          	lui	a2,0xc0000

0000000000005750 <.LBB103_256>:
    5750:	f8b43823          	sd	a1,-112(s0)
    5754:	00001537          	lui	a0,0x1
    5758:	40a40533          	sub	a0,s0,a0
    575c:	54c53023          	sd	a2,1344(a0) # 1540 <.LBB103_4+0x300>
    5760:	a6843503          	ld	a0,-1432(s0)
    5764:	f7843603          	ld	a2,-136(s0)
    5768:	00c50533          	add	a0,a0,a2
    576c:	000015b7          	lui	a1,0x1
    5770:	40b405b3          	sub	a1,s0,a1
    5774:	7685b603          	ld	a2,1896(a1) # 1768 <.LBB103_4+0x528>
    5778:	40c5053b          	subw	a0,a0,a2
    577c:	00d50533          	add	a0,a0,a3
    5780:	8805051b          	addiw	a0,a0,-1920
    5784:	40000637          	lui	a2,0x40000
    5788:	000015b7          	lui	a1,0x1
    578c:	40b405b3          	sub	a1,s0,a1
    5790:	54a5bc23          	sd	a0,1368(a1) # 1558 <.LBB103_4+0x318>
    5794:	f9043583          	ld	a1,-112(s0)
    5798:	00055463          	bgez	a0,57a0 <.LBB103_258>
    579c:	c0000637          	lui	a2,0xc0000

00000000000057a0 <.LBB103_258>:
    57a0:	f8b43823          	sd	a1,-112(s0)
    57a4:	00001537          	lui	a0,0x1
    57a8:	40a40533          	sub	a0,s0,a0
    57ac:	54c53823          	sd	a2,1360(a0) # 1550 <.LBB103_4+0x310>
    57b0:	a7043503          	ld	a0,-1424(s0)
    57b4:	f8043603          	ld	a2,-128(s0)
    57b8:	00c50533          	add	a0,a0,a2
    57bc:	4015053b          	subw	a0,a0,ra
    57c0:	00d50533          	add	a0,a0,a3
    57c4:	8805051b          	addiw	a0,a0,-1920
    57c8:	40000637          	lui	a2,0x40000
    57cc:	000015b7          	lui	a1,0x1
    57d0:	40b405b3          	sub	a1,s0,a1
    57d4:	56a5b423          	sd	a0,1384(a1) # 1568 <.LBB103_4+0x328>
    57d8:	f9043583          	ld	a1,-112(s0)
    57dc:	00055463          	bgez	a0,57e4 <.LBB103_260>
    57e0:	c0000637          	lui	a2,0xc0000

00000000000057e4 <.LBB103_260>:
    57e4:	00001537          	lui	a0,0x1
    57e8:	40a40533          	sub	a0,s0,a0
    57ec:	56c53023          	sd	a2,1376(a0) # 1560 <.LBB103_4+0x320>
    57f0:	a7843503          	ld	a0,-1416(s0)
    57f4:	f8843603          	ld	a2,-120(s0)
    57f8:	00c50533          	add	a0,a0,a2
    57fc:	4145053b          	subw	a0,a0,s4
    5800:	00d50533          	add	a0,a0,a3
    5804:	8805051b          	addiw	a0,a0,-1920
    5808:	40000637          	lui	a2,0x40000
    580c:	000016b7          	lui	a3,0x1
    5810:	40d406b3          	sub	a3,s0,a3
    5814:	58a6b023          	sd	a0,1408(a3) # 1580 <.LBB103_4+0x340>
    5818:	00055463          	bgez	a0,5820 <.LBB103_262>
    581c:	c0000637          	lui	a2,0xc0000

0000000000005820 <.LBB103_262>:
    5820:	f8b43823          	sd	a1,-112(s0)
    5824:	00001537          	lui	a0,0x1
    5828:	40a40533          	sub	a0,s0,a0
    582c:	56c53823          	sd	a2,1392(a0) # 1570 <.LBB103_4+0x330>
    5830:	00001537          	lui	a0,0x1
    5834:	40a40533          	sub	a0,s0,a0
    5838:	68853683          	ld	a3,1672(a0) # 1688 <.LBB103_4+0x448>
    583c:	00169613          	slli	a2,a3,0x1
    5840:	e8843503          	ld	a0,-376(s0)
    5844:	00af8533          	add	a0,t6,a0
    5848:	00d60633          	add	a2,a2,a3
    584c:	e8043683          	ld	a3,-384(s0)
    5850:	40d5053b          	subw	a0,a0,a3
    5854:	00c50533          	add	a0,a0,a2
    5858:	8805051b          	addiw	a0,a0,-1920
    585c:	40000fb7          	lui	t6,0x40000
    5860:	e2043683          	ld	a3,-480(s0)
    5864:	000015b7          	lui	a1,0x1
    5868:	40b405b3          	sub	a1,s0,a1
    586c:	58a5b423          	sd	a0,1416(a1) # 1588 <.LBB103_4+0x348>
    5870:	f9043583          	ld	a1,-112(s0)
    5874:	00055463          	bgez	a0,587c <.LBB103_264>
    5878:	c0000fb7          	lui	t6,0xc0000

000000000000587c <.LBB103_264>:
    587c:	f8b43823          	sd	a1,-112(s0)
    5880:	00001537          	lui	a0,0x1
    5884:	40a40533          	sub	a0,s0,a0
    5888:	57f53c23          	sd	t6,1400(a0) # 1578 <.LBB103_4+0x338>
    588c:	a8843503          	ld	a0,-1400(s0)
    5890:	e7843f83          	ld	t6,-392(s0)
    5894:	01f50533          	add	a0,a0,t6
    5898:	e7043f83          	ld	t6,-400(s0)
    589c:	41f5053b          	subw	a0,a0,t6
    58a0:	00c50533          	add	a0,a0,a2
    58a4:	8805051b          	addiw	a0,a0,-1920
    58a8:	40000fb7          	lui	t6,0x40000
    58ac:	000015b7          	lui	a1,0x1
    58b0:	40b405b3          	sub	a1,s0,a1
    58b4:	58a5bc23          	sd	a0,1432(a1) # 1598 <.LBB103_4+0x358>
    58b8:	f9043583          	ld	a1,-112(s0)
    58bc:	00055463          	bgez	a0,58c4 <.LBB103_266>
    58c0:	c0000fb7          	lui	t6,0xc0000

00000000000058c4 <.LBB103_266>:
    58c4:	f8b43823          	sd	a1,-112(s0)
    58c8:	00001537          	lui	a0,0x1
    58cc:	40a40533          	sub	a0,s0,a0
    58d0:	59f53823          	sd	t6,1424(a0) # 1590 <.LBB103_4+0x350>
    58d4:	a9043503          	ld	a0,-1392(s0)
    58d8:	e6843f83          	ld	t6,-408(s0)
    58dc:	01f50533          	add	a0,a0,t6
    58e0:	e6043f83          	ld	t6,-416(s0)
    58e4:	41f5053b          	subw	a0,a0,t6
    58e8:	00c50533          	add	a0,a0,a2
    58ec:	8805051b          	addiw	a0,a0,-1920
    58f0:	40000fb7          	lui	t6,0x40000
    58f4:	000015b7          	lui	a1,0x1
    58f8:	40b405b3          	sub	a1,s0,a1
    58fc:	5aa5b423          	sd	a0,1448(a1) # 15a8 <.LBB103_4+0x368>
    5900:	f9043583          	ld	a1,-112(s0)
    5904:	00055463          	bgez	a0,590c <.LBB103_268>
    5908:	c0000fb7          	lui	t6,0xc0000

000000000000590c <.LBB103_268>:
    590c:	f8b43823          	sd	a1,-112(s0)
    5910:	00001537          	lui	a0,0x1
    5914:	40a40533          	sub	a0,s0,a0
    5918:	5bf53023          	sd	t6,1440(a0) # 15a0 <.LBB103_4+0x360>
    591c:	a9843503          	ld	a0,-1384(s0)
    5920:	e5843f83          	ld	t6,-424(s0)
    5924:	01f50533          	add	a0,a0,t6
    5928:	e5043f83          	ld	t6,-432(s0)
    592c:	41f5053b          	subw	a0,a0,t6
    5930:	00c50533          	add	a0,a0,a2
    5934:	8805051b          	addiw	a0,a0,-1920
    5938:	40000fb7          	lui	t6,0x40000
    593c:	000015b7          	lui	a1,0x1
    5940:	40b405b3          	sub	a1,s0,a1
    5944:	5aa5bc23          	sd	a0,1464(a1) # 15b8 <.LBB103_4+0x378>
    5948:	f9043583          	ld	a1,-112(s0)
    594c:	00055463          	bgez	a0,5954 <.LBB103_270>
    5950:	c0000fb7          	lui	t6,0xc0000

0000000000005954 <.LBB103_270>:
    5954:	f8b43823          	sd	a1,-112(s0)
    5958:	00001537          	lui	a0,0x1
    595c:	40a40533          	sub	a0,s0,a0
    5960:	5bf53823          	sd	t6,1456(a0) # 15b0 <.LBB103_4+0x370>
    5964:	aa043503          	ld	a0,-1376(s0)
    5968:	e4843f83          	ld	t6,-440(s0)
    596c:	01f50533          	add	a0,a0,t6
    5970:	e4043f83          	ld	t6,-448(s0)
    5974:	41f5053b          	subw	a0,a0,t6
    5978:	00c50533          	add	a0,a0,a2
    597c:	8805051b          	addiw	a0,a0,-1920
    5980:	40000fb7          	lui	t6,0x40000
    5984:	000015b7          	lui	a1,0x1
    5988:	40b405b3          	sub	a1,s0,a1
    598c:	5ca5b423          	sd	a0,1480(a1) # 15c8 <.LBB103_4+0x388>
    5990:	f9043583          	ld	a1,-112(s0)
    5994:	00055463          	bgez	a0,599c <.LBB103_272>
    5998:	c0000fb7          	lui	t6,0xc0000

000000000000599c <.LBB103_272>:
    599c:	f8b43823          	sd	a1,-112(s0)
    59a0:	00001537          	lui	a0,0x1
    59a4:	40a40533          	sub	a0,s0,a0
    59a8:	5df53023          	sd	t6,1472(a0) # 15c0 <.LBB103_4+0x380>
    59ac:	aa843503          	ld	a0,-1368(s0)
    59b0:	e3843f83          	ld	t6,-456(s0)
    59b4:	01f50533          	add	a0,a0,t6
    59b8:	e3043f83          	ld	t6,-464(s0)
    59bc:	41f5053b          	subw	a0,a0,t6
    59c0:	00c50533          	add	a0,a0,a2
    59c4:	8805051b          	addiw	a0,a0,-1920
    59c8:	40000fb7          	lui	t6,0x40000
    59cc:	000015b7          	lui	a1,0x1
    59d0:	40b405b3          	sub	a1,s0,a1
    59d4:	5ca5bc23          	sd	a0,1496(a1) # 15d8 <.LBB103_4+0x398>
    59d8:	f9043583          	ld	a1,-112(s0)
    59dc:	00055463          	bgez	a0,59e4 <.LBB103_274>
    59e0:	c0000fb7          	lui	t6,0xc0000

00000000000059e4 <.LBB103_274>:
    59e4:	f8b43823          	sd	a1,-112(s0)
    59e8:	00001537          	lui	a0,0x1
    59ec:	40a40533          	sub	a0,s0,a0
    59f0:	5df53823          	sd	t6,1488(a0) # 15d0 <.LBB103_4+0x390>
    59f4:	ab043503          	ld	a0,-1360(s0)
    59f8:	000015b7          	lui	a1,0x1
    59fc:	40b405b3          	sub	a1,s0,a1
    5a00:	6c05bf83          	ld	t6,1728(a1) # 16c0 <.LBB103_4+0x480>
    5a04:	01f50533          	add	a0,a0,t6
    5a08:	000015b7          	lui	a1,0x1
    5a0c:	40b405b3          	sub	a1,s0,a1
    5a10:	6b85bf83          	ld	t6,1720(a1) # 16b8 <.LBB103_4+0x478>
    5a14:	41f5053b          	subw	a0,a0,t6
    5a18:	00c50533          	add	a0,a0,a2
    5a1c:	8805051b          	addiw	a0,a0,-1920
    5a20:	40000fb7          	lui	t6,0x40000
    5a24:	000015b7          	lui	a1,0x1
    5a28:	40b405b3          	sub	a1,s0,a1
    5a2c:	5ea5b423          	sd	a0,1512(a1) # 15e8 <.LBB103_4+0x3a8>
    5a30:	f9043583          	ld	a1,-112(s0)
    5a34:	00055463          	bgez	a0,5a3c <.LBB103_276>
    5a38:	c0000fb7          	lui	t6,0xc0000

0000000000005a3c <.LBB103_276>:
    5a3c:	f8b43823          	sd	a1,-112(s0)
    5a40:	00001537          	lui	a0,0x1
    5a44:	40a40533          	sub	a0,s0,a0
    5a48:	5ff53023          	sd	t6,1504(a0) # 15e0 <.LBB103_4+0x3a0>
    5a4c:	ab843503          	ld	a0,-1352(s0)
    5a50:	000015b7          	lui	a1,0x1
    5a54:	40b405b3          	sub	a1,s0,a1
    5a58:	6b05bf83          	ld	t6,1712(a1) # 16b0 <.LBB103_4+0x470>
    5a5c:	01f50533          	add	a0,a0,t6
    5a60:	000015b7          	lui	a1,0x1
    5a64:	40b405b3          	sub	a1,s0,a1
    5a68:	6a85bf83          	ld	t6,1704(a1) # 16a8 <.LBB103_4+0x468>
    5a6c:	41f5053b          	subw	a0,a0,t6
    5a70:	00c50533          	add	a0,a0,a2
    5a74:	8805051b          	addiw	a0,a0,-1920
    5a78:	40000fb7          	lui	t6,0x40000
    5a7c:	000015b7          	lui	a1,0x1
    5a80:	40b405b3          	sub	a1,s0,a1
    5a84:	5ea5bc23          	sd	a0,1528(a1) # 15f8 <.LBB103_4+0x3b8>
    5a88:	f9043583          	ld	a1,-112(s0)
    5a8c:	00055463          	bgez	a0,5a94 <.LBB103_278>
    5a90:	c0000fb7          	lui	t6,0xc0000

0000000000005a94 <.LBB103_278>:
    5a94:	f8b43823          	sd	a1,-112(s0)
    5a98:	00001537          	lui	a0,0x1
    5a9c:	40a40533          	sub	a0,s0,a0
    5aa0:	5ff53823          	sd	t6,1520(a0) # 15f0 <.LBB103_4+0x3b0>
    5aa4:	ac043503          	ld	a0,-1344(s0)
    5aa8:	000015b7          	lui	a1,0x1
    5aac:	40b405b3          	sub	a1,s0,a1
    5ab0:	6a05bf83          	ld	t6,1696(a1) # 16a0 <.LBB103_4+0x460>
    5ab4:	01f50533          	add	a0,a0,t6
    5ab8:	000015b7          	lui	a1,0x1
    5abc:	40b405b3          	sub	a1,s0,a1
    5ac0:	6985bf83          	ld	t6,1688(a1) # 1698 <.LBB103_4+0x458>
    5ac4:	41f5053b          	subw	a0,a0,t6
    5ac8:	00c50533          	add	a0,a0,a2
    5acc:	8805051b          	addiw	a0,a0,-1920
    5ad0:	40000fb7          	lui	t6,0x40000
    5ad4:	000015b7          	lui	a1,0x1
    5ad8:	40b405b3          	sub	a1,s0,a1
    5adc:	60a5b423          	sd	a0,1544(a1) # 1608 <.LBB103_4+0x3c8>
    5ae0:	f9043583          	ld	a1,-112(s0)
    5ae4:	00055463          	bgez	a0,5aec <.LBB103_280>
    5ae8:	c0000fb7          	lui	t6,0xc0000

0000000000005aec <.LBB103_280>:
    5aec:	f8b43823          	sd	a1,-112(s0)
    5af0:	00001537          	lui	a0,0x1
    5af4:	40a40533          	sub	a0,s0,a0
    5af8:	61f53023          	sd	t6,1536(a0) # 1600 <.LBB103_4+0x3c0>
    5afc:	ac843503          	ld	a0,-1336(s0)
    5b00:	000015b7          	lui	a1,0x1
    5b04:	40b405b3          	sub	a1,s0,a1
    5b08:	6905bf83          	ld	t6,1680(a1) # 1690 <.LBB103_4+0x450>
    5b0c:	01f50533          	add	a0,a0,t6
    5b10:	000015b7          	lui	a1,0x1
    5b14:	40b405b3          	sub	a1,s0,a1
    5b18:	6c85bf83          	ld	t6,1736(a1) # 16c8 <.LBB103_4+0x488>
    5b1c:	41f5053b          	subw	a0,a0,t6
    5b20:	00c50533          	add	a0,a0,a2
    5b24:	8805051b          	addiw	a0,a0,-1920
    5b28:	40000fb7          	lui	t6,0x40000
    5b2c:	000015b7          	lui	a1,0x1
    5b30:	40b405b3          	sub	a1,s0,a1
    5b34:	60a5bc23          	sd	a0,1560(a1) # 1618 <.LBB103_4+0x3d8>
    5b38:	f9043583          	ld	a1,-112(s0)
    5b3c:	00055463          	bgez	a0,5b44 <.LBB103_282>
    5b40:	c0000fb7          	lui	t6,0xc0000

0000000000005b44 <.LBB103_282>:
    5b44:	f8b43823          	sd	a1,-112(s0)
    5b48:	00001537          	lui	a0,0x1
    5b4c:	40a40533          	sub	a0,s0,a0
    5b50:	61f53823          	sd	t6,1552(a0) # 1610 <.LBB103_4+0x3d0>
    5b54:	ad043503          	ld	a0,-1328(s0)
    5b58:	e9043f83          	ld	t6,-368(s0)
    5b5c:	01f50533          	add	a0,a0,t6
    5b60:	000015b7          	lui	a1,0x1
    5b64:	40b405b3          	sub	a1,s0,a1
    5b68:	6d05bf83          	ld	t6,1744(a1) # 16d0 <.LBB103_4+0x490>
    5b6c:	41f5053b          	subw	a0,a0,t6
    5b70:	00c50533          	add	a0,a0,a2
    5b74:	8805051b          	addiw	a0,a0,-1920
    5b78:	40000fb7          	lui	t6,0x40000
    5b7c:	000015b7          	lui	a1,0x1
    5b80:	40b405b3          	sub	a1,s0,a1
    5b84:	62a5b423          	sd	a0,1576(a1) # 1628 <.LBB103_4+0x3e8>
    5b88:	f9043583          	ld	a1,-112(s0)
    5b8c:	00055463          	bgez	a0,5b94 <.LBB103_284>
    5b90:	c0000fb7          	lui	t6,0xc0000

0000000000005b94 <.LBB103_284>:
    5b94:	f8b43823          	sd	a1,-112(s0)
    5b98:	00001537          	lui	a0,0x1
    5b9c:	40a40533          	sub	a0,s0,a0
    5ba0:	63f53023          	sd	t6,1568(a0) # 1620 <.LBB103_4+0x3e0>
    5ba4:	ad843503          	ld	a0,-1320(s0)
    5ba8:	e9843f83          	ld	t6,-360(s0)
    5bac:	01f50533          	add	a0,a0,t6
    5bb0:	000015b7          	lui	a1,0x1
    5bb4:	40b405b3          	sub	a1,s0,a1
    5bb8:	6d85bf83          	ld	t6,1752(a1) # 16d8 <.LBB103_4+0x498>
    5bbc:	41f5053b          	subw	a0,a0,t6
    5bc0:	00c50533          	add	a0,a0,a2
    5bc4:	8805051b          	addiw	a0,a0,-1920
    5bc8:	40000fb7          	lui	t6,0x40000
    5bcc:	000015b7          	lui	a1,0x1
    5bd0:	40b405b3          	sub	a1,s0,a1
    5bd4:	62a5bc23          	sd	a0,1592(a1) # 1638 <.LBB103_4+0x3f8>
    5bd8:	f9043583          	ld	a1,-112(s0)
    5bdc:	00055463          	bgez	a0,5be4 <.LBB103_286>
    5be0:	c0000fb7          	lui	t6,0xc0000

0000000000005be4 <.LBB103_286>:
    5be4:	f8b43823          	sd	a1,-112(s0)
    5be8:	00001537          	lui	a0,0x1
    5bec:	40a40533          	sub	a0,s0,a0
    5bf0:	63f53823          	sd	t6,1584(a0) # 1630 <.LBB103_4+0x3f0>
    5bf4:	ae043503          	ld	a0,-1312(s0)
    5bf8:	ea043f83          	ld	t6,-352(s0)
    5bfc:	01f50533          	add	a0,a0,t6
    5c00:	41b5053b          	subw	a0,a0,s11
    5c04:	00c50533          	add	a0,a0,a2
    5c08:	8805051b          	addiw	a0,a0,-1920
    5c0c:	40000fb7          	lui	t6,0x40000
    5c10:	000015b7          	lui	a1,0x1
    5c14:	40b405b3          	sub	a1,s0,a1
    5c18:	66a5b423          	sd	a0,1640(a1) # 1668 <.LBB103_4+0x428>
    5c1c:	f9043583          	ld	a1,-112(s0)
    5c20:	00055463          	bgez	a0,5c28 <.LBB103_288>
    5c24:	c0000fb7          	lui	t6,0xc0000

0000000000005c28 <.LBB103_288>:
    5c28:	f8b43823          	sd	a1,-112(s0)
    5c2c:	00001537          	lui	a0,0x1
    5c30:	40a40533          	sub	a0,s0,a0
    5c34:	65f53023          	sd	t6,1600(a0) # 1640 <.LBB103_4+0x400>
    5c38:	ae843503          	ld	a0,-1304(s0)
    5c3c:	ea843f83          	ld	t6,-344(s0)
    5c40:	01f50533          	add	a0,a0,t6
    5c44:	41a5053b          	subw	a0,a0,s10
    5c48:	00c50533          	add	a0,a0,a2
    5c4c:	8805051b          	addiw	a0,a0,-1920
    5c50:	40000fb7          	lui	t6,0x40000
    5c54:	000015b7          	lui	a1,0x1
    5c58:	40b405b3          	sub	a1,s0,a1
    5c5c:	66a5bc23          	sd	a0,1656(a1) # 1678 <.LBB103_4+0x438>
    5c60:	f9043583          	ld	a1,-112(s0)
    5c64:	00055463          	bgez	a0,5c6c <.LBB103_290>
    5c68:	c0000fb7          	lui	t6,0xc0000

0000000000005c6c <.LBB103_290>:
    5c6c:	f8b43823          	sd	a1,-112(s0)
    5c70:	00001537          	lui	a0,0x1
    5c74:	40a40533          	sub	a0,s0,a0
    5c78:	67f53823          	sd	t6,1648(a0) # 1670 <.LBB103_4+0x430>
    5c7c:	af043503          	ld	a0,-1296(s0)
    5c80:	eb043f83          	ld	t6,-336(s0)
    5c84:	01f50533          	add	a0,a0,t6
    5c88:	000015b7          	lui	a1,0x1
    5c8c:	40b405b3          	sub	a1,s0,a1
    5c90:	6f05bf83          	ld	t6,1776(a1) # 16f0 <.LBB103_4+0x4b0>
    5c94:	41f5053b          	subw	a0,a0,t6
    5c98:	00c50533          	add	a0,a0,a2
    5c9c:	8805051b          	addiw	a0,a0,-1920
    5ca0:	40000fb7          	lui	t6,0x40000
    5ca4:	000015b7          	lui	a1,0x1
    5ca8:	40b405b3          	sub	a1,s0,a1
    5cac:	68a5b423          	sd	a0,1672(a1) # 1688 <.LBB103_4+0x448>
    5cb0:	f9043583          	ld	a1,-112(s0)
    5cb4:	00055463          	bgez	a0,5cbc <.LBB103_292>
    5cb8:	c0000fb7          	lui	t6,0xc0000

0000000000005cbc <.LBB103_292>:
    5cbc:	eb843503          	ld	a0,-328(s0)
    5cc0:	00a78533          	add	a0,a5,a0
    5cc4:	f8b43823          	sd	a1,-112(s0)
    5cc8:	000015b7          	lui	a1,0x1
    5ccc:	40b405b3          	sub	a1,s0,a1
    5cd0:	6f85b783          	ld	a5,1784(a1) # 16f8 <.LBB103_4+0x4b8>
    5cd4:	40f5053b          	subw	a0,a0,a5
    5cd8:	00c50533          	add	a0,a0,a2
    5cdc:	8805051b          	addiw	a0,a0,-1920
    5ce0:	400007b7          	lui	a5,0x40000
    5ce4:	000015b7          	lui	a1,0x1
    5ce8:	40b405b3          	sub	a1,s0,a1
    5cec:	6ea5b423          	sd	a0,1768(a1) # 16e8 <.LBB103_4+0x4a8>
    5cf0:	f9043583          	ld	a1,-112(s0)
    5cf4:	00055463          	bgez	a0,5cfc <.LBB103_294>
    5cf8:	c00007b7          	lui	a5,0xc0000

0000000000005cfc <.LBB103_294>:
    5cfc:	00001537          	lui	a0,0x1
    5d00:	40a40533          	sub	a0,s0,a0
    5d04:	69f53023          	sd	t6,1664(a0) # 1680 <.LBB103_4+0x440>
    5d08:	00001537          	lui	a0,0x1
    5d0c:	40a40533          	sub	a0,s0,a0
    5d10:	6ef53023          	sd	a5,1760(a0) # 16e0 <.LBB103_4+0x4a0>
    5d14:	b0043503          	ld	a0,-1280(s0)
    5d18:	ec043783          	ld	a5,-320(s0)
    5d1c:	00f50533          	add	a0,a0,a5
    5d20:	000017b7          	lui	a5,0x1
    5d24:	40f407b3          	sub	a5,s0,a5
    5d28:	7007b783          	ld	a5,1792(a5) # 1700 <.LBB103_4+0x4c0>
    5d2c:	40f5053b          	subw	a0,a0,a5
    5d30:	00c50533          	add	a0,a0,a2
    5d34:	8805051b          	addiw	a0,a0,-1920
    5d38:	400007b7          	lui	a5,0x40000
    5d3c:	00001fb7          	lui	t6,0x1
    5d40:	41f40fb3          	sub	t6,s0,t6
    5d44:	78afb423          	sd	a0,1928(t6) # 1788 <.LBB103_4+0x548>
    5d48:	00055463          	bgez	a0,5d50 <.LBB103_296>
    5d4c:	c00007b7          	lui	a5,0xc0000

0000000000005d50 <.LBB103_296>:
    5d50:	00001537          	lui	a0,0x1
    5d54:	40a40533          	sub	a0,s0,a0
    5d58:	78f53023          	sd	a5,1920(a0) # 1780 <.LBB103_4+0x540>
    5d5c:	b0843503          	ld	a0,-1272(s0)
    5d60:	ec843783          	ld	a5,-312(s0)
    5d64:	00f50533          	add	a0,a0,a5
    5d68:	000017b7          	lui	a5,0x1
    5d6c:	40f407b3          	sub	a5,s0,a5
    5d70:	7087b783          	ld	a5,1800(a5) # 1708 <.LBB103_4+0x4c8>
    5d74:	40f5053b          	subw	a0,a0,a5
    5d78:	00c50533          	add	a0,a0,a2
    5d7c:	8805051b          	addiw	a0,a0,-1920
    5d80:	40000fb7          	lui	t6,0x40000
    5d84:	000017b7          	lui	a5,0x1
    5d88:	40f407b3          	sub	a5,s0,a5
    5d8c:	78a7b823          	sd	a0,1936(a5) # 1790 <.LBB103_4+0x550>
    5d90:	00055463          	bgez	a0,5d98 <.LBB103_298>
    5d94:	c0000fb7          	lui	t6,0xc0000

0000000000005d98 <.LBB103_298>:
    5d98:	b1043503          	ld	a0,-1264(s0)
    5d9c:	f2043783          	ld	a5,-224(s0)
    5da0:	00f50533          	add	a0,a0,a5
    5da4:	000017b7          	lui	a5,0x1
    5da8:	40f407b3          	sub	a5,s0,a5
    5dac:	7107b783          	ld	a5,1808(a5) # 1710 <.LBB103_4+0x4d0>
    5db0:	40f5053b          	subw	a0,a0,a5
    5db4:	00c50533          	add	a0,a0,a2
    5db8:	8805051b          	addiw	a0,a0,-1920
    5dbc:	400007b7          	lui	a5,0x40000
    5dc0:	b0f43823          	sd	a5,-1264(s0)
    5dc4:	000017b7          	lui	a5,0x1
    5dc8:	40f407b3          	sub	a5,s0,a5
    5dcc:	78a7bc23          	sd	a0,1944(a5) # 1798 <.LBB103_4+0x558>
    5dd0:	00055663          	bgez	a0,5ddc <.LBB103_300>
    5dd4:	c0000537          	lui	a0,0xc0000
    5dd8:	b0a43823          	sd	a0,-1264(s0)

0000000000005ddc <.LBB103_300>:
    5ddc:	f2843503          	ld	a0,-216(s0)
    5de0:	00a70533          	add	a0,a4,a0
    5de4:	00001737          	lui	a4,0x1
    5de8:	40e40733          	sub	a4,s0,a4
    5dec:	71873703          	ld	a4,1816(a4) # 1718 <.LBB103_4+0x4d8>
    5df0:	40e5053b          	subw	a0,a0,a4
    5df4:	00c50533          	add	a0,a0,a2
    5df8:	8805051b          	addiw	a0,a0,-1920 # ffffffffbffff880 <.Lfunc_end80+0xffffffffbffd6eb8>
    5dfc:	40000737          	lui	a4,0x40000
    5e00:	000017b7          	lui	a5,0x1
    5e04:	40f407b3          	sub	a5,s0,a5
    5e08:	7aa7b823          	sd	a0,1968(a5) # 17b0 <.LBB103_4+0x570>
    5e0c:	00055463          	bgez	a0,5e14 <.LBB103_302>
    5e10:	c0000737          	lui	a4,0xc0000

0000000000005e14 <.LBB103_302>:
    5e14:	00001537          	lui	a0,0x1
    5e18:	40a40533          	sub	a0,s0,a0
    5e1c:	7ae53023          	sd	a4,1952(a0) # 17a0 <.LBB103_4+0x560>
    5e20:	f3043503          	ld	a0,-208(s0)
    5e24:	00a80533          	add	a0,a6,a0
    5e28:	00001737          	lui	a4,0x1
    5e2c:	40e40733          	sub	a4,s0,a4
    5e30:	72073703          	ld	a4,1824(a4) # 1720 <.LBB103_4+0x4e0>
    5e34:	40e5053b          	subw	a0,a0,a4
    5e38:	00c50533          	add	a0,a0,a2
    5e3c:	8805051b          	addiw	a0,a0,-1920
    5e40:	40000737          	lui	a4,0x40000
    5e44:	000017b7          	lui	a5,0x1
    5e48:	40f407b3          	sub	a5,s0,a5
    5e4c:	7ca7b023          	sd	a0,1984(a5) # 17c0 <.LBB103_4+0x580>
    5e50:	000f8793          	mv	a5,t6
    5e54:	00055463          	bgez	a0,5e5c <.LBB103_304>
    5e58:	c0000737          	lui	a4,0xc0000

0000000000005e5c <.LBB103_304>:
    5e5c:	00001537          	lui	a0,0x1
    5e60:	40a40533          	sub	a0,s0,a0
    5e64:	7ae53c23          	sd	a4,1976(a0) # 17b8 <.LBB103_4+0x578>
    5e68:	b2843503          	ld	a0,-1240(s0)
    5e6c:	f3843703          	ld	a4,-200(s0)
    5e70:	00e50533          	add	a0,a0,a4
    5e74:	00001737          	lui	a4,0x1
    5e78:	40e40733          	sub	a4,s0,a4
    5e7c:	72873703          	ld	a4,1832(a4) # 1728 <.LBB103_4+0x4e8>
    5e80:	40e5053b          	subw	a0,a0,a4
    5e84:	00c50533          	add	a0,a0,a2
    5e88:	8805051b          	addiw	a0,a0,-1920
    5e8c:	40000737          	lui	a4,0x40000
    5e90:	00001837          	lui	a6,0x1
    5e94:	41040833          	sub	a6,s0,a6
    5e98:	7ca83823          	sd	a0,2000(a6) # 17d0 <.LBB103_4+0x590>
    5e9c:	00055463          	bgez	a0,5ea4 <.LBB103_306>
    5ea0:	c0000737          	lui	a4,0xc0000

0000000000005ea4 <.LBB103_306>:
    5ea4:	00001537          	lui	a0,0x1
    5ea8:	40a40533          	sub	a0,s0,a0
    5eac:	7ce53423          	sd	a4,1992(a0) # 17c8 <.LBB103_4+0x588>
    5eb0:	b3043503          	ld	a0,-1232(s0)
    5eb4:	f4043703          	ld	a4,-192(s0)
    5eb8:	00e50533          	add	a0,a0,a4
    5ebc:	00001737          	lui	a4,0x1
    5ec0:	40e40733          	sub	a4,s0,a4
    5ec4:	73073703          	ld	a4,1840(a4) # 1730 <.LBB103_4+0x4f0>
    5ec8:	40e5053b          	subw	a0,a0,a4
    5ecc:	00c50533          	add	a0,a0,a2
    5ed0:	8805051b          	addiw	a0,a0,-1920
    5ed4:	40000737          	lui	a4,0x40000
    5ed8:	00001837          	lui	a6,0x1
    5edc:	41040833          	sub	a6,s0,a6
    5ee0:	7ea83023          	sd	a0,2016(a6) # 17e0 <.LBB103_4+0x5a0>
    5ee4:	00055463          	bgez	a0,5eec <.LBB103_308>
    5ee8:	c0000737          	lui	a4,0xc0000

0000000000005eec <.LBB103_308>:
    5eec:	00001537          	lui	a0,0x1
    5ef0:	40a40533          	sub	a0,s0,a0
    5ef4:	7ce53c23          	sd	a4,2008(a0) # 17d8 <.LBB103_4+0x598>
    5ef8:	f4843503          	ld	a0,-184(s0)
    5efc:	00aa8533          	add	a0,s5,a0
    5f00:	00001737          	lui	a4,0x1
    5f04:	40e40733          	sub	a4,s0,a4
    5f08:	73873703          	ld	a4,1848(a4) # 1738 <.LBB103_4+0x4f8>
    5f0c:	40e5053b          	subw	a0,a0,a4
    5f10:	00c50533          	add	a0,a0,a2
    5f14:	8805051b          	addiw	a0,a0,-1920
    5f18:	40000737          	lui	a4,0x40000
    5f1c:	00001837          	lui	a6,0x1
    5f20:	41040833          	sub	a6,s0,a6
    5f24:	7ea83c23          	sd	a0,2040(a6) # 17f8 <.LBB103_4+0x5b8>
    5f28:	00055463          	bgez	a0,5f30 <.LBB103_310>
    5f2c:	c0000737          	lui	a4,0xc0000

0000000000005f30 <.LBB103_310>:
    5f30:	00001537          	lui	a0,0x1
    5f34:	40a40533          	sub	a0,s0,a0
    5f38:	7ee53823          	sd	a4,2032(a0) # 17f0 <.LBB103_4+0x5b0>
    5f3c:	b4043503          	ld	a0,-1216(s0)
    5f40:	f5043703          	ld	a4,-176(s0)
    5f44:	00e50533          	add	a0,a0,a4
    5f48:	00001737          	lui	a4,0x1
    5f4c:	40e40733          	sub	a4,s0,a4
    5f50:	74073703          	ld	a4,1856(a4) # 1740 <.LBB103_4+0x500>
    5f54:	40e5053b          	subw	a0,a0,a4
    5f58:	00c50533          	add	a0,a0,a2
    5f5c:	8805051b          	addiw	a0,a0,-1920
    5f60:	40000737          	lui	a4,0x40000
    5f64:	80a43423          	sd	a0,-2040(s0)
    5f68:	00055463          	bgez	a0,5f70 <.LBB103_312>
    5f6c:	c0000737          	lui	a4,0xc0000

0000000000005f70 <.LBB103_312>:
    5f70:	80e43023          	sd	a4,-2048(s0)
    5f74:	b4843503          	ld	a0,-1208(s0)
    5f78:	f5843703          	ld	a4,-168(s0)
    5f7c:	00e50533          	add	a0,a0,a4
    5f80:	00001737          	lui	a4,0x1
    5f84:	40e40733          	sub	a4,s0,a4
    5f88:	74873703          	ld	a4,1864(a4) # 1748 <.LBB103_4+0x508>
    5f8c:	40e5053b          	subw	a0,a0,a4
    5f90:	00c50533          	add	a0,a0,a2
    5f94:	8805051b          	addiw	a0,a0,-1920
    5f98:	40000737          	lui	a4,0x40000
    5f9c:	80a43c23          	sd	a0,-2024(s0)
    5fa0:	00055463          	bgez	a0,5fa8 <.LBB103_314>
    5fa4:	c0000737          	lui	a4,0xc0000

0000000000005fa8 <.LBB103_314>:
    5fa8:	80e43823          	sd	a4,-2032(s0)
    5fac:	b5043503          	ld	a0,-1200(s0)
    5fb0:	f6043703          	ld	a4,-160(s0)
    5fb4:	00e50533          	add	a0,a0,a4
    5fb8:	00001737          	lui	a4,0x1
    5fbc:	40e40733          	sub	a4,s0,a4
    5fc0:	75073703          	ld	a4,1872(a4) # 1750 <.LBB103_4+0x510>
    5fc4:	40e5053b          	subw	a0,a0,a4
    5fc8:	00c50533          	add	a0,a0,a2
    5fcc:	8805051b          	addiw	a0,a0,-1920
    5fd0:	40000737          	lui	a4,0x40000
    5fd4:	82a43423          	sd	a0,-2008(s0)
    5fd8:	00055463          	bgez	a0,5fe0 <.LBB103_316>
    5fdc:	c0000737          	lui	a4,0xc0000

0000000000005fe0 <.LBB103_316>:
    5fe0:	82e43023          	sd	a4,-2016(s0)
    5fe4:	b5843503          	ld	a0,-1192(s0)
    5fe8:	f6843703          	ld	a4,-152(s0)
    5fec:	00e50533          	add	a0,a0,a4
    5ff0:	00001737          	lui	a4,0x1
    5ff4:	40e40733          	sub	a4,s0,a4
    5ff8:	75873703          	ld	a4,1880(a4) # 1758 <.LBB103_4+0x518>
    5ffc:	40e5053b          	subw	a0,a0,a4
    6000:	00c50533          	add	a0,a0,a2
    6004:	8805051b          	addiw	a0,a0,-1920
    6008:	40000737          	lui	a4,0x40000
    600c:	84a43023          	sd	a0,-1984(s0)
    6010:	00055463          	bgez	a0,6018 <.LBB103_318>
    6014:	c0000737          	lui	a4,0xc0000

0000000000006018 <.LBB103_318>:
    6018:	82e43c23          	sd	a4,-1992(s0)
    601c:	b6043503          	ld	a0,-1184(s0)
    6020:	f7043703          	ld	a4,-144(s0)
    6024:	00e50533          	add	a0,a0,a4
    6028:	00001737          	lui	a4,0x1
    602c:	40e40733          	sub	a4,s0,a4
    6030:	76073703          	ld	a4,1888(a4) # 1760 <.LBB103_4+0x520>
    6034:	40e5053b          	subw	a0,a0,a4
    6038:	00c50533          	add	a0,a0,a2
    603c:	8805051b          	addiw	a0,a0,-1920
    6040:	40000737          	lui	a4,0x40000
    6044:	84a43823          	sd	a0,-1968(s0)
    6048:	00055463          	bgez	a0,6050 <.LBB103_320>
    604c:	c0000737          	lui	a4,0xc0000

0000000000006050 <.LBB103_320>:
    6050:	84e43423          	sd	a4,-1976(s0)
    6054:	b6843503          	ld	a0,-1176(s0)
    6058:	f7843703          	ld	a4,-136(s0)
    605c:	00e50533          	add	a0,a0,a4
    6060:	00001737          	lui	a4,0x1
    6064:	40e40733          	sub	a4,s0,a4
    6068:	76873703          	ld	a4,1896(a4) # 1768 <.LBB103_4+0x528>
    606c:	40e5053b          	subw	a0,a0,a4
    6070:	00c50533          	add	a0,a0,a2
    6074:	8805051b          	addiw	a0,a0,-1920
    6078:	40000737          	lui	a4,0x40000
    607c:	86a43023          	sd	a0,-1952(s0)
    6080:	00055463          	bgez	a0,6088 <.LBB103_322>
    6084:	c0000737          	lui	a4,0xc0000

0000000000006088 <.LBB103_322>:
    6088:	84e43c23          	sd	a4,-1960(s0)
    608c:	b7043503          	ld	a0,-1168(s0)
    6090:	f8043703          	ld	a4,-128(s0)
    6094:	00e50533          	add	a0,a0,a4
    6098:	4015053b          	subw	a0,a0,ra
    609c:	00c50533          	add	a0,a0,a2
    60a0:	8805051b          	addiw	a0,a0,-1920
    60a4:	40000737          	lui	a4,0x40000
    60a8:	86a43c23          	sd	a0,-1928(s0)
    60ac:	00055463          	bgez	a0,60b4 <.LBB103_324>
    60b0:	c0000737          	lui	a4,0xc0000

00000000000060b4 <.LBB103_324>:
    60b4:	b7843503          	ld	a0,-1160(s0)
    60b8:	f8843803          	ld	a6,-120(s0)
    60bc:	01050533          	add	a0,a0,a6
    60c0:	4145053b          	subw	a0,a0,s4
    60c4:	00c50533          	add	a0,a0,a2
    60c8:	8805051b          	addiw	a0,a0,-1920
    60cc:	40000837          	lui	a6,0x40000
    60d0:	88a43423          	sd	a0,-1912(s0)
    60d4:	00055463          	bgez	a0,60dc <.LBB103_326>
    60d8:	c0000837          	lui	a6,0xc0000

00000000000060dc <.LBB103_326>:
    60dc:	00001537          	lui	a0,0x1
    60e0:	40a40533          	sub	a0,s0,a0
    60e4:	d8853f83          	ld	t6,-632(a0) # d88 <.LBB103_3+0xab4>
    60e8:	001f9513          	slli	a0,t6,0x1
    60ec:	e8843603          	ld	a2,-376(s0)
    60f0:	00c585b3          	add	a1,a1,a2
    60f4:	01f50533          	add	a0,a0,t6
    60f8:	e8043603          	ld	a2,-384(s0)
    60fc:	40c585bb          	subw	a1,a1,a2
    6100:	00a585b3          	add	a1,a1,a0
    6104:	8805859b          	addiw	a1,a1,-1920
    6108:	40000ab7          	lui	s5,0x40000
    610c:	e2843603          	ld	a2,-472(s0)
    6110:	88b43823          	sd	a1,-1904(s0)
    6114:	0005d463          	bgez	a1,611c <.LBB103_328>
    6118:	c0000ab7          	lui	s5,0xc0000

000000000000611c <.LBB103_328>:
    611c:	89543023          	sd	s5,-1920(s0)
    6120:	b8843583          	ld	a1,-1144(s0)
    6124:	e7843f83          	ld	t6,-392(s0)
    6128:	01f585b3          	add	a1,a1,t6
    612c:	e7043f83          	ld	t6,-400(s0)
    6130:	41f585bb          	subw	a1,a1,t6
    6134:	00a585b3          	add	a1,a1,a0
    6138:	8805859b          	addiw	a1,a1,-1920
    613c:	40000ab7          	lui	s5,0x40000
    6140:	8ab43023          	sd	a1,-1888(s0)
    6144:	0005d463          	bgez	a1,614c <.LBB103_330>
    6148:	c0000ab7          	lui	s5,0xc0000

000000000000614c <.LBB103_330>:
    614c:	89543c23          	sd	s5,-1896(s0)
    6150:	b9043583          	ld	a1,-1136(s0)
    6154:	e6843f83          	ld	t6,-408(s0)
    6158:	01f585b3          	add	a1,a1,t6
    615c:	e6043f83          	ld	t6,-416(s0)
    6160:	41f585bb          	subw	a1,a1,t6
    6164:	00a585b3          	add	a1,a1,a0
    6168:	8805859b          	addiw	a1,a1,-1920
    616c:	40000ab7          	lui	s5,0x40000
    6170:	8ab43823          	sd	a1,-1872(s0)
    6174:	0005d463          	bgez	a1,617c <.LBB103_332>
    6178:	c0000ab7          	lui	s5,0xc0000

000000000000617c <.LBB103_332>:
    617c:	8b543423          	sd	s5,-1880(s0)
    6180:	b9843583          	ld	a1,-1128(s0)
    6184:	e5843f83          	ld	t6,-424(s0)
    6188:	01f585b3          	add	a1,a1,t6
    618c:	e5043f83          	ld	t6,-432(s0)
    6190:	41f585bb          	subw	a1,a1,t6
    6194:	00a585b3          	add	a1,a1,a0
    6198:	8805859b          	addiw	a1,a1,-1920
    619c:	40000ab7          	lui	s5,0x40000
    61a0:	8cb43423          	sd	a1,-1848(s0)
    61a4:	0005d463          	bgez	a1,61ac <.LBB103_334>
    61a8:	c0000ab7          	lui	s5,0xc0000

00000000000061ac <.LBB103_334>:
    61ac:	8d543023          	sd	s5,-1856(s0)
    61b0:	ba043583          	ld	a1,-1120(s0)
    61b4:	e4843f83          	ld	t6,-440(s0)
    61b8:	01f585b3          	add	a1,a1,t6
    61bc:	e4043f83          	ld	t6,-448(s0)
    61c0:	41f585bb          	subw	a1,a1,t6
    61c4:	00a585b3          	add	a1,a1,a0
    61c8:	8805859b          	addiw	a1,a1,-1920
    61cc:	40000ab7          	lui	s5,0x40000
    61d0:	8cb43c23          	sd	a1,-1832(s0)
    61d4:	0005d463          	bgez	a1,61dc <.LBB103_336>
    61d8:	c0000ab7          	lui	s5,0xc0000

00000000000061dc <.LBB103_336>:
    61dc:	8d543823          	sd	s5,-1840(s0)
    61e0:	ba843583          	ld	a1,-1112(s0)
    61e4:	e3843f83          	ld	t6,-456(s0)
    61e8:	01f585b3          	add	a1,a1,t6
    61ec:	e3043f83          	ld	t6,-464(s0)
    61f0:	41f585bb          	subw	a1,a1,t6
    61f4:	00a585b3          	add	a1,a1,a0
    61f8:	8805859b          	addiw	a1,a1,-1920
    61fc:	40000ab7          	lui	s5,0x40000
    6200:	8eb43423          	sd	a1,-1816(s0)
    6204:	0005d463          	bgez	a1,620c <.LBB103_338>
    6208:	c0000ab7          	lui	s5,0xc0000

000000000000620c <.LBB103_338>:
    620c:	8f543023          	sd	s5,-1824(s0)
    6210:	bb043583          	ld	a1,-1104(s0)
    6214:	00001fb7          	lui	t6,0x1
    6218:	41f40fb3          	sub	t6,s0,t6
    621c:	6c0fbf83          	ld	t6,1728(t6) # 16c0 <.LBB103_4+0x480>
    6220:	01f585b3          	add	a1,a1,t6
    6224:	00001fb7          	lui	t6,0x1
    6228:	41f40fb3          	sub	t6,s0,t6
    622c:	6b8fbf83          	ld	t6,1720(t6) # 16b8 <.LBB103_4+0x478>
    6230:	41f585bb          	subw	a1,a1,t6
    6234:	00a585b3          	add	a1,a1,a0
    6238:	8805859b          	addiw	a1,a1,-1920
    623c:	40000ab7          	lui	s5,0x40000
    6240:	90b43023          	sd	a1,-1792(s0)
    6244:	0005d463          	bgez	a1,624c <.LBB103_340>
    6248:	c0000ab7          	lui	s5,0xc0000

000000000000624c <.LBB103_340>:
    624c:	8f543823          	sd	s5,-1808(s0)
    6250:	bb843583          	ld	a1,-1096(s0)
    6254:	00001fb7          	lui	t6,0x1
    6258:	41f40fb3          	sub	t6,s0,t6
    625c:	6b0fbf83          	ld	t6,1712(t6) # 16b0 <.LBB103_4+0x470>
    6260:	01f585b3          	add	a1,a1,t6
    6264:	00001fb7          	lui	t6,0x1
    6268:	41f40fb3          	sub	t6,s0,t6
    626c:	6a8fbf83          	ld	t6,1704(t6) # 16a8 <.LBB103_4+0x468>
    6270:	41f585bb          	subw	a1,a1,t6
    6274:	00a585b3          	add	a1,a1,a0
    6278:	8805859b          	addiw	a1,a1,-1920
    627c:	40000ab7          	lui	s5,0x40000
    6280:	90b43823          	sd	a1,-1776(s0)
    6284:	0005d463          	bgez	a1,628c <.LBB103_342>
    6288:	c0000ab7          	lui	s5,0xc0000

000000000000628c <.LBB103_342>:
    628c:	91543423          	sd	s5,-1784(s0)
    6290:	bc043583          	ld	a1,-1088(s0)
    6294:	00001fb7          	lui	t6,0x1
    6298:	41f40fb3          	sub	t6,s0,t6
    629c:	6a0fbf83          	ld	t6,1696(t6) # 16a0 <.LBB103_4+0x460>
    62a0:	01f585b3          	add	a1,a1,t6
    62a4:	00001fb7          	lui	t6,0x1
    62a8:	41f40fb3          	sub	t6,s0,t6
    62ac:	698fbf83          	ld	t6,1688(t6) # 1698 <.LBB103_4+0x458>
    62b0:	41f585bb          	subw	a1,a1,t6
    62b4:	00a585b3          	add	a1,a1,a0
    62b8:	8805859b          	addiw	a1,a1,-1920
    62bc:	40000ab7          	lui	s5,0x40000
    62c0:	92b43023          	sd	a1,-1760(s0)
    62c4:	0005d463          	bgez	a1,62cc <.LBB103_344>
    62c8:	c0000ab7          	lui	s5,0xc0000

00000000000062cc <.LBB103_344>:
    62cc:	91543c23          	sd	s5,-1768(s0)
    62d0:	bc843583          	ld	a1,-1080(s0)
    62d4:	00001fb7          	lui	t6,0x1
    62d8:	41f40fb3          	sub	t6,s0,t6
    62dc:	690fbf83          	ld	t6,1680(t6) # 1690 <.LBB103_4+0x450>
    62e0:	01f585b3          	add	a1,a1,t6
    62e4:	00001fb7          	lui	t6,0x1
    62e8:	41f40fb3          	sub	t6,s0,t6
    62ec:	6c8fbf83          	ld	t6,1736(t6) # 16c8 <.LBB103_4+0x488>
    62f0:	41f585bb          	subw	a1,a1,t6
    62f4:	00a585b3          	add	a1,a1,a0
    62f8:	8805859b          	addiw	a1,a1,-1920
    62fc:	40000ab7          	lui	s5,0x40000
    6300:	bd543423          	sd	s5,-1080(s0)
    6304:	92b43423          	sd	a1,-1752(s0)
    6308:	0005d663          	bgez	a1,6314 <.LBB103_346>
    630c:	c00005b7          	lui	a1,0xc0000
    6310:	bcb43423          	sd	a1,-1080(s0)

0000000000006314 <.LBB103_346>:
    6314:	e9043583          	ld	a1,-368(s0)
    6318:	00bc85b3          	add	a1,s9,a1
    631c:	00001fb7          	lui	t6,0x1
    6320:	41f40fb3          	sub	t6,s0,t6
    6324:	6d0fbf83          	ld	t6,1744(t6) # 16d0 <.LBB103_4+0x490>
    6328:	41f585bb          	subw	a1,a1,t6
    632c:	00a585b3          	add	a1,a1,a0
    6330:	8805859b          	addiw	a1,a1,-1920 # ffffffffbffff880 <.Lfunc_end80+0xffffffffbffd6eb8>
    6334:	40000cb7          	lui	s9,0x40000
    6338:	94b43023          	sd	a1,-1728(s0)
    633c:	0005d463          	bgez	a1,6344 <.LBB103_348>
    6340:	c0000cb7          	lui	s9,0xc0000

0000000000006344 <.LBB103_348>:
    6344:	93943c23          	sd	s9,-1736(s0)
    6348:	bd843583          	ld	a1,-1064(s0)
    634c:	e9843f83          	ld	t6,-360(s0)
    6350:	01f585b3          	add	a1,a1,t6
    6354:	00001fb7          	lui	t6,0x1
    6358:	41f40fb3          	sub	t6,s0,t6
    635c:	6d8fbf83          	ld	t6,1752(t6) # 16d8 <.LBB103_4+0x498>
    6360:	41f585bb          	subw	a1,a1,t6
    6364:	00a585b3          	add	a1,a1,a0
    6368:	8805859b          	addiw	a1,a1,-1920
    636c:	40000cb7          	lui	s9,0x40000
    6370:	94b43823          	sd	a1,-1712(s0)
    6374:	0005d463          	bgez	a1,637c <.LBB103_350>
    6378:	c0000cb7          	lui	s9,0xc0000

000000000000637c <.LBB103_350>:
    637c:	95943423          	sd	s9,-1720(s0)
    6380:	be043583          	ld	a1,-1056(s0)
    6384:	ea043f83          	ld	t6,-352(s0)
    6388:	01f585b3          	add	a1,a1,t6
    638c:	41b585bb          	subw	a1,a1,s11
    6390:	00a585b3          	add	a1,a1,a0
    6394:	8805859b          	addiw	a1,a1,-1920
    6398:	40000cb7          	lui	s9,0x40000
    639c:	96b43023          	sd	a1,-1696(s0)
    63a0:	0005d463          	bgez	a1,63a8 <.LBB103_352>
    63a4:	c0000cb7          	lui	s9,0xc0000

00000000000063a8 <.LBB103_352>:
    63a8:	95943c23          	sd	s9,-1704(s0)
    63ac:	be843583          	ld	a1,-1048(s0)
    63b0:	ea843f83          	ld	t6,-344(s0)
    63b4:	01f585b3          	add	a1,a1,t6
    63b8:	41a585bb          	subw	a1,a1,s10
    63bc:	00a585b3          	add	a1,a1,a0
    63c0:	8805859b          	addiw	a1,a1,-1920
    63c4:	40000cb7          	lui	s9,0x40000
    63c8:	96b43823          	sd	a1,-1680(s0)
    63cc:	0005d463          	bgez	a1,63d4 <.LBB103_354>
    63d0:	c0000cb7          	lui	s9,0xc0000

00000000000063d4 <.LBB103_354>:
    63d4:	97943423          	sd	s9,-1688(s0)
    63d8:	bf043583          	ld	a1,-1040(s0)
    63dc:	eb043f83          	ld	t6,-336(s0)
    63e0:	01f585b3          	add	a1,a1,t6
    63e4:	00001fb7          	lui	t6,0x1
    63e8:	41f40fb3          	sub	t6,s0,t6
    63ec:	6f0fbf83          	ld	t6,1776(t6) # 16f0 <.LBB103_4+0x4b0>
    63f0:	41f585bb          	subw	a1,a1,t6
    63f4:	00a585b3          	add	a1,a1,a0
    63f8:	8805859b          	addiw	a1,a1,-1920
    63fc:	40000cb7          	lui	s9,0x40000
    6400:	98b43423          	sd	a1,-1656(s0)
    6404:	0005d463          	bgez	a1,640c <.LBB103_356>
    6408:	c0000cb7          	lui	s9,0xc0000

000000000000640c <.LBB103_356>:
    640c:	99943023          	sd	s9,-1664(s0)
    6410:	bf843583          	ld	a1,-1032(s0)
    6414:	eb843f83          	ld	t6,-328(s0)
    6418:	01f585b3          	add	a1,a1,t6
    641c:	00001fb7          	lui	t6,0x1
    6420:	41f40fb3          	sub	t6,s0,t6
    6424:	6f8fbf83          	ld	t6,1784(t6) # 16f8 <.LBB103_4+0x4b8>
    6428:	41f585bb          	subw	a1,a1,t6
    642c:	00a585b3          	add	a1,a1,a0
    6430:	8805859b          	addiw	a1,a1,-1920
    6434:	40000cb7          	lui	s9,0x40000
    6438:	98b43c23          	sd	a1,-1640(s0)
    643c:	0005d463          	bgez	a1,6444 <.LBB103_358>
    6440:	c0000cb7          	lui	s9,0xc0000

0000000000006444 <.LBB103_358>:
    6444:	99943823          	sd	s9,-1648(s0)
    6448:	c0043583          	ld	a1,-1024(s0)
    644c:	ec043f83          	ld	t6,-320(s0)
    6450:	01f585b3          	add	a1,a1,t6
    6454:	00001fb7          	lui	t6,0x1
    6458:	41f40fb3          	sub	t6,s0,t6
    645c:	700fbf83          	ld	t6,1792(t6) # 1700 <.LBB103_4+0x4c0>
    6460:	41f585bb          	subw	a1,a1,t6
    6464:	00a585b3          	add	a1,a1,a0
    6468:	8805859b          	addiw	a1,a1,-1920
    646c:	40000cb7          	lui	s9,0x40000
    6470:	9ab43423          	sd	a1,-1624(s0)
    6474:	0005d463          	bgez	a1,647c <.LBB103_360>
    6478:	c0000cb7          	lui	s9,0xc0000

000000000000647c <.LBB103_360>:
    647c:	9b943023          	sd	s9,-1632(s0)
    6480:	c0843583          	ld	a1,-1016(s0)
    6484:	ec843f83          	ld	t6,-312(s0)
    6488:	01f585b3          	add	a1,a1,t6
    648c:	00001fb7          	lui	t6,0x1
    6490:	41f40fb3          	sub	t6,s0,t6
    6494:	708fbf83          	ld	t6,1800(t6) # 1708 <.LBB103_4+0x4c8>
    6498:	41f585bb          	subw	a1,a1,t6
    649c:	00a585b3          	add	a1,a1,a0
    64a0:	8805859b          	addiw	a1,a1,-1920
    64a4:	40000cb7          	lui	s9,0x40000
    64a8:	9cb43023          	sd	a1,-1600(s0)
    64ac:	0005d463          	bgez	a1,64b4 <.LBB103_362>
    64b0:	c0000cb7          	lui	s9,0xc0000

00000000000064b4 <.LBB103_362>:
    64b4:	9b943823          	sd	s9,-1616(s0)
    64b8:	c1043583          	ld	a1,-1008(s0)
    64bc:	f2043f83          	ld	t6,-224(s0)
    64c0:	01f585b3          	add	a1,a1,t6
    64c4:	00001fb7          	lui	t6,0x1
    64c8:	41f40fb3          	sub	t6,s0,t6
    64cc:	710fbf83          	ld	t6,1808(t6) # 1710 <.LBB103_4+0x4d0>
    64d0:	41f585bb          	subw	a1,a1,t6
    64d4:	00a585b3          	add	a1,a1,a0
    64d8:	8805859b          	addiw	a1,a1,-1920
    64dc:	40000cb7          	lui	s9,0x40000
    64e0:	9cb43823          	sd	a1,-1584(s0)
    64e4:	0005d463          	bgez	a1,64ec <.LBB103_364>
    64e8:	c0000cb7          	lui	s9,0xc0000

00000000000064ec <.LBB103_364>:
    64ec:	9d943423          	sd	s9,-1592(s0)
    64f0:	c1843583          	ld	a1,-1000(s0)
    64f4:	f2843f83          	ld	t6,-216(s0)
    64f8:	01f585b3          	add	a1,a1,t6
    64fc:	00001fb7          	lui	t6,0x1
    6500:	41f40fb3          	sub	t6,s0,t6
    6504:	718fbf83          	ld	t6,1816(t6) # 1718 <.LBB103_4+0x4d8>
    6508:	41f585bb          	subw	a1,a1,t6
    650c:	00a585b3          	add	a1,a1,a0
    6510:	8805859b          	addiw	a1,a1,-1920
    6514:	40000cb7          	lui	s9,0x40000
    6518:	9eb43023          	sd	a1,-1568(s0)
    651c:	0005d463          	bgez	a1,6524 <.LBB103_366>
    6520:	c0000cb7          	lui	s9,0xc0000

0000000000006524 <.LBB103_366>:
    6524:	9d943c23          	sd	s9,-1576(s0)
    6528:	c2043583          	ld	a1,-992(s0)
    652c:	f3043f83          	ld	t6,-208(s0)
    6530:	01f585b3          	add	a1,a1,t6
    6534:	00001fb7          	lui	t6,0x1
    6538:	41f40fb3          	sub	t6,s0,t6
    653c:	720fbf83          	ld	t6,1824(t6) # 1720 <.LBB103_4+0x4e0>
    6540:	41f585bb          	subw	a1,a1,t6
    6544:	00a585b3          	add	a1,a1,a0
    6548:	8805859b          	addiw	a1,a1,-1920
    654c:	40000cb7          	lui	s9,0x40000
    6550:	9eb43823          	sd	a1,-1552(s0)
    6554:	0005d463          	bgez	a1,655c <.LBB103_368>
    6558:	c0000cb7          	lui	s9,0xc0000

000000000000655c <.LBB103_368>:
    655c:	9f943423          	sd	s9,-1560(s0)
    6560:	c2843583          	ld	a1,-984(s0)
    6564:	f3843f83          	ld	t6,-200(s0)
    6568:	01f585b3          	add	a1,a1,t6
    656c:	00001fb7          	lui	t6,0x1
    6570:	41f40fb3          	sub	t6,s0,t6
    6574:	728fbf83          	ld	t6,1832(t6) # 1728 <.LBB103_4+0x4e8>
    6578:	41f585bb          	subw	a1,a1,t6
    657c:	00a585b3          	add	a1,a1,a0
    6580:	8805859b          	addiw	a1,a1,-1920
    6584:	40000cb7          	lui	s9,0x40000
    6588:	a0b43423          	sd	a1,-1528(s0)
    658c:	0005d463          	bgez	a1,6594 <.LBB103_370>
    6590:	c0000cb7          	lui	s9,0xc0000

0000000000006594 <.LBB103_370>:
    6594:	a1943023          	sd	s9,-1536(s0)
    6598:	c3043583          	ld	a1,-976(s0)
    659c:	f4043f83          	ld	t6,-192(s0)
    65a0:	01f585b3          	add	a1,a1,t6
    65a4:	00001fb7          	lui	t6,0x1
    65a8:	41f40fb3          	sub	t6,s0,t6
    65ac:	730fbf83          	ld	t6,1840(t6) # 1730 <.LBB103_4+0x4f0>
    65b0:	41f585bb          	subw	a1,a1,t6
    65b4:	00a585b3          	add	a1,a1,a0
    65b8:	8805859b          	addiw	a1,a1,-1920
    65bc:	40000cb7          	lui	s9,0x40000
    65c0:	a0b43c23          	sd	a1,-1512(s0)
    65c4:	0005d463          	bgez	a1,65cc <.LBB103_372>
    65c8:	c0000cb7          	lui	s9,0xc0000

00000000000065cc <.LBB103_372>:
    65cc:	a1943823          	sd	s9,-1520(s0)
    65d0:	c3843583          	ld	a1,-968(s0)
    65d4:	f4843f83          	ld	t6,-184(s0)
    65d8:	01f585b3          	add	a1,a1,t6
    65dc:	00001fb7          	lui	t6,0x1
    65e0:	41f40fb3          	sub	t6,s0,t6
    65e4:	738fbf83          	ld	t6,1848(t6) # 1738 <.LBB103_4+0x4f8>
    65e8:	41f585bb          	subw	a1,a1,t6
    65ec:	00a585b3          	add	a1,a1,a0
    65f0:	8805859b          	addiw	a1,a1,-1920
    65f4:	40000cb7          	lui	s9,0x40000
    65f8:	a2b43423          	sd	a1,-1496(s0)
    65fc:	0005d463          	bgez	a1,6604 <.LBB103_374>
    6600:	c0000cb7          	lui	s9,0xc0000

0000000000006604 <.LBB103_374>:
    6604:	a3943023          	sd	s9,-1504(s0)
    6608:	c4043583          	ld	a1,-960(s0)
    660c:	f5043f83          	ld	t6,-176(s0)
    6610:	01f585b3          	add	a1,a1,t6
    6614:	00001fb7          	lui	t6,0x1
    6618:	41f40fb3          	sub	t6,s0,t6
    661c:	740fbf83          	ld	t6,1856(t6) # 1740 <.LBB103_4+0x500>
    6620:	41f585bb          	subw	a1,a1,t6
    6624:	00a585b3          	add	a1,a1,a0
    6628:	8805859b          	addiw	a1,a1,-1920
    662c:	40000cb7          	lui	s9,0x40000
    6630:	a2b43c23          	sd	a1,-1480(s0)
    6634:	0005d463          	bgez	a1,663c <.LBB103_376>
    6638:	c0000cb7          	lui	s9,0xc0000

000000000000663c <.LBB103_376>:
    663c:	a3943823          	sd	s9,-1488(s0)
    6640:	c4843583          	ld	a1,-952(s0)
    6644:	f5843f83          	ld	t6,-168(s0)
    6648:	01f585b3          	add	a1,a1,t6
    664c:	00001fb7          	lui	t6,0x1
    6650:	41f40fb3          	sub	t6,s0,t6
    6654:	748fbf83          	ld	t6,1864(t6) # 1748 <.LBB103_4+0x508>
    6658:	41f585bb          	subw	a1,a1,t6
    665c:	00a585b3          	add	a1,a1,a0
    6660:	8805859b          	addiw	a1,a1,-1920
    6664:	40000cb7          	lui	s9,0x40000
    6668:	a4b43823          	sd	a1,-1456(s0)
    666c:	0005d463          	bgez	a1,6674 <.LBB103_378>
    6670:	c0000cb7          	lui	s9,0xc0000

0000000000006674 <.LBB103_378>:
    6674:	a5943423          	sd	s9,-1464(s0)
    6678:	c5043583          	ld	a1,-944(s0)
    667c:	f6043f83          	ld	t6,-160(s0)
    6680:	01f585b3          	add	a1,a1,t6
    6684:	00001fb7          	lui	t6,0x1
    6688:	41f40fb3          	sub	t6,s0,t6
    668c:	750fbf83          	ld	t6,1872(t6) # 1750 <.LBB103_4+0x510>
    6690:	41f585bb          	subw	a1,a1,t6
    6694:	00a585b3          	add	a1,a1,a0
    6698:	8805859b          	addiw	a1,a1,-1920
    669c:	40000cb7          	lui	s9,0x40000
    66a0:	a6b43023          	sd	a1,-1440(s0)
    66a4:	0005d463          	bgez	a1,66ac <.LBB103_380>
    66a8:	c0000cb7          	lui	s9,0xc0000

00000000000066ac <.LBB103_380>:
    66ac:	a5943c23          	sd	s9,-1448(s0)
    66b0:	c5843583          	ld	a1,-936(s0)
    66b4:	f6843f83          	ld	t6,-152(s0)
    66b8:	01f585b3          	add	a1,a1,t6
    66bc:	00001fb7          	lui	t6,0x1
    66c0:	41f40fb3          	sub	t6,s0,t6
    66c4:	758fbf83          	ld	t6,1880(t6) # 1758 <.LBB103_4+0x518>
    66c8:	41f585bb          	subw	a1,a1,t6
    66cc:	00a585b3          	add	a1,a1,a0
    66d0:	8805859b          	addiw	a1,a1,-1920
    66d4:	40000cb7          	lui	s9,0x40000
    66d8:	a6b43823          	sd	a1,-1424(s0)
    66dc:	0005d463          	bgez	a1,66e4 <.LBB103_382>
    66e0:	c0000cb7          	lui	s9,0xc0000

00000000000066e4 <.LBB103_382>:
    66e4:	a7943423          	sd	s9,-1432(s0)
    66e8:	c6043583          	ld	a1,-928(s0)
    66ec:	f7043f83          	ld	t6,-144(s0)
    66f0:	01f585b3          	add	a1,a1,t6
    66f4:	00001fb7          	lui	t6,0x1
    66f8:	41f40fb3          	sub	t6,s0,t6
    66fc:	760fbf83          	ld	t6,1888(t6) # 1760 <.LBB103_4+0x520>
    6700:	41f585bb          	subw	a1,a1,t6
    6704:	00a585b3          	add	a1,a1,a0
    6708:	8805859b          	addiw	a1,a1,-1920
    670c:	40000cb7          	lui	s9,0x40000
    6710:	a8b43423          	sd	a1,-1400(s0)
    6714:	0005d463          	bgez	a1,671c <.LBB103_384>
    6718:	c0000cb7          	lui	s9,0xc0000

000000000000671c <.LBB103_384>:
    671c:	a7943c23          	sd	s9,-1416(s0)
    6720:	c6843583          	ld	a1,-920(s0)
    6724:	f7843f83          	ld	t6,-136(s0)
    6728:	01f585b3          	add	a1,a1,t6
    672c:	00001fb7          	lui	t6,0x1
    6730:	41f40fb3          	sub	t6,s0,t6
    6734:	768fbf83          	ld	t6,1896(t6) # 1768 <.LBB103_4+0x528>
    6738:	41f585bb          	subw	a1,a1,t6
    673c:	00a585b3          	add	a1,a1,a0
    6740:	8805859b          	addiw	a1,a1,-1920
    6744:	40000cb7          	lui	s9,0x40000
    6748:	a8b43c23          	sd	a1,-1384(s0)
    674c:	0005d463          	bgez	a1,6754 <.LBB103_386>
    6750:	c0000cb7          	lui	s9,0xc0000

0000000000006754 <.LBB103_386>:
    6754:	a9943823          	sd	s9,-1392(s0)
    6758:	c7043583          	ld	a1,-912(s0)
    675c:	f8043f83          	ld	t6,-128(s0)
    6760:	01f585b3          	add	a1,a1,t6
    6764:	401585bb          	subw	a1,a1,ra
    6768:	00a585b3          	add	a1,a1,a0
    676c:	8805859b          	addiw	a1,a1,-1920
    6770:	40000cb7          	lui	s9,0x40000
    6774:	aab43423          	sd	a1,-1368(s0)
    6778:	0005d463          	bgez	a1,6780 <.LBB103_388>
    677c:	c0000cb7          	lui	s9,0xc0000

0000000000006780 <.LBB103_388>:
    6780:	ab943023          	sd	s9,-1376(s0)
    6784:	c7843583          	ld	a1,-904(s0)
    6788:	f8843f83          	ld	t6,-120(s0)
    678c:	01f585b3          	add	a1,a1,t6
    6790:	414585bb          	subw	a1,a1,s4
    6794:	00a58533          	add	a0,a1,a0
    6798:	8805051b          	addiw	a0,a0,-1920
    679c:	400005b7          	lui	a1,0x40000
    67a0:	aca43023          	sd	a0,-1344(s0)
    67a4:	00055463          	bgez	a0,67ac <.LBB103_390>
    67a8:	c00005b7          	lui	a1,0xc0000

00000000000067ac <.LBB103_390>:
    67ac:	aab43823          	sd	a1,-1360(s0)
    67b0:	00001537          	lui	a0,0x1
    67b4:	40a40533          	sub	a0,s0,a0
    67b8:	d9053a83          	ld	s5,-624(a0) # d90 <.LBB103_3+0xabc>
    67bc:	001a9513          	slli	a0,s5,0x1
    67c0:	c8043583          	ld	a1,-896(s0)
    67c4:	e8843f83          	ld	t6,-376(s0)
    67c8:	01f585b3          	add	a1,a1,t6
    67cc:	01550533          	add	a0,a0,s5
    67d0:	e8043f83          	ld	t6,-384(s0)
    67d4:	41f585bb          	subw	a1,a1,t6
    67d8:	00a585b3          	add	a1,a1,a0
    67dc:	8805859b          	addiw	a1,a1,-1920 # ffffffffbffff880 <.Lfunc_end80+0xffffffffbffd6eb8>
    67e0:	40000cb7          	lui	s9,0x40000
    67e4:	acb43423          	sd	a1,-1336(s0)
    67e8:	0005d463          	bgez	a1,67f0 <.LBB103_392>
    67ec:	c0000cb7          	lui	s9,0xc0000

00000000000067f0 <.LBB103_392>:
    67f0:	ab943c23          	sd	s9,-1352(s0)
    67f4:	c8843583          	ld	a1,-888(s0)
    67f8:	e7843f83          	ld	t6,-392(s0)
    67fc:	01f585b3          	add	a1,a1,t6
    6800:	e7043f83          	ld	t6,-400(s0)
    6804:	41f585bb          	subw	a1,a1,t6
    6808:	00a585b3          	add	a1,a1,a0
    680c:	8805859b          	addiw	a1,a1,-1920
    6810:	40000cb7          	lui	s9,0x40000
    6814:	aeb43023          	sd	a1,-1312(s0)
    6818:	0005d463          	bgez	a1,6820 <.LBB103_394>
    681c:	c0000cb7          	lui	s9,0xc0000

0000000000006820 <.LBB103_394>:
    6820:	ad943c23          	sd	s9,-1320(s0)
    6824:	c9043583          	ld	a1,-880(s0)
    6828:	e6843f83          	ld	t6,-408(s0)
    682c:	01f585b3          	add	a1,a1,t6
    6830:	e6043f83          	ld	t6,-416(s0)
    6834:	41f585bb          	subw	a1,a1,t6
    6838:	00a585b3          	add	a1,a1,a0
    683c:	8805859b          	addiw	a1,a1,-1920
    6840:	40000cb7          	lui	s9,0x40000
    6844:	aeb43823          	sd	a1,-1296(s0)
    6848:	0005d463          	bgez	a1,6850 <.LBB103_396>
    684c:	c0000cb7          	lui	s9,0xc0000

0000000000006850 <.LBB103_396>:
    6850:	af943423          	sd	s9,-1304(s0)
    6854:	c9843583          	ld	a1,-872(s0)
    6858:	e5843f83          	ld	t6,-424(s0)
    685c:	01f585b3          	add	a1,a1,t6
    6860:	e5043f83          	ld	t6,-432(s0)
    6864:	41f585bb          	subw	a1,a1,t6
    6868:	00a585b3          	add	a1,a1,a0
    686c:	8805859b          	addiw	a1,a1,-1920
    6870:	40000cb7          	lui	s9,0x40000
    6874:	b0b43023          	sd	a1,-1280(s0)
    6878:	0005d463          	bgez	a1,6880 <.LBB103_398>
    687c:	c0000cb7          	lui	s9,0xc0000

0000000000006880 <.LBB103_398>:
    6880:	af943c23          	sd	s9,-1288(s0)
    6884:	ca043583          	ld	a1,-864(s0)
    6888:	e4843f83          	ld	t6,-440(s0)
    688c:	01f585b3          	add	a1,a1,t6
    6890:	e4043f83          	ld	t6,-448(s0)
    6894:	41f585bb          	subw	a1,a1,t6
    6898:	00a585b3          	add	a1,a1,a0
    689c:	8805859b          	addiw	a1,a1,-1920
    68a0:	40000cb7          	lui	s9,0x40000
    68a4:	b2b43023          	sd	a1,-1248(s0)
    68a8:	0005d463          	bgez	a1,68b0 <.LBB103_400>
    68ac:	c0000cb7          	lui	s9,0xc0000

00000000000068b0 <.LBB103_400>:
    68b0:	b1943423          	sd	s9,-1272(s0)
    68b4:	ca843583          	ld	a1,-856(s0)
    68b8:	e3843f83          	ld	t6,-456(s0)
    68bc:	01f585b3          	add	a1,a1,t6
    68c0:	e3043f83          	ld	t6,-464(s0)
    68c4:	41f585bb          	subw	a1,a1,t6
    68c8:	00a585b3          	add	a1,a1,a0
    68cc:	8805859b          	addiw	a1,a1,-1920
    68d0:	40000cb7          	lui	s9,0x40000
    68d4:	b2b43823          	sd	a1,-1232(s0)
    68d8:	0005d463          	bgez	a1,68e0 <.LBB103_402>
    68dc:	c0000cb7          	lui	s9,0xc0000

00000000000068e0 <.LBB103_402>:
    68e0:	b3943423          	sd	s9,-1240(s0)
    68e4:	cb043583          	ld	a1,-848(s0)
    68e8:	00001fb7          	lui	t6,0x1
    68ec:	41f40fb3          	sub	t6,s0,t6
    68f0:	6c0fbf83          	ld	t6,1728(t6) # 16c0 <.LBB103_4+0x480>
    68f4:	01f585b3          	add	a1,a1,t6
    68f8:	00001fb7          	lui	t6,0x1
    68fc:	41f40fb3          	sub	t6,s0,t6
    6900:	6b8fbf83          	ld	t6,1720(t6) # 16b8 <.LBB103_4+0x478>
    6904:	41f585bb          	subw	a1,a1,t6
    6908:	00a585b3          	add	a1,a1,a0
    690c:	8805859b          	addiw	a1,a1,-1920
    6910:	40000cb7          	lui	s9,0x40000
    6914:	b4b43023          	sd	a1,-1216(s0)
    6918:	0005d463          	bgez	a1,6920 <.LBB103_404>
    691c:	c0000cb7          	lui	s9,0xc0000

0000000000006920 <.LBB103_404>:
    6920:	b3943c23          	sd	s9,-1224(s0)
    6924:	cb843583          	ld	a1,-840(s0)
    6928:	00001fb7          	lui	t6,0x1
    692c:	41f40fb3          	sub	t6,s0,t6
    6930:	6b0fbf83          	ld	t6,1712(t6) # 16b0 <.LBB103_4+0x470>
    6934:	01f585b3          	add	a1,a1,t6
    6938:	00001fb7          	lui	t6,0x1
    693c:	41f40fb3          	sub	t6,s0,t6
    6940:	6a8fbf83          	ld	t6,1704(t6) # 16a8 <.LBB103_4+0x468>
    6944:	41f585bb          	subw	a1,a1,t6
    6948:	00a585b3          	add	a1,a1,a0
    694c:	8805859b          	addiw	a1,a1,-1920
    6950:	40000cb7          	lui	s9,0x40000
    6954:	b4b43823          	sd	a1,-1200(s0)
    6958:	0005d463          	bgez	a1,6960 <.LBB103_406>
    695c:	c0000cb7          	lui	s9,0xc0000

0000000000006960 <.LBB103_406>:
    6960:	b5943423          	sd	s9,-1208(s0)
    6964:	cc043583          	ld	a1,-832(s0)
    6968:	00001fb7          	lui	t6,0x1
    696c:	41f40fb3          	sub	t6,s0,t6
    6970:	6a0fbf83          	ld	t6,1696(t6) # 16a0 <.LBB103_4+0x460>
    6974:	01f585b3          	add	a1,a1,t6
    6978:	00001fb7          	lui	t6,0x1
    697c:	41f40fb3          	sub	t6,s0,t6
    6980:	698fbf83          	ld	t6,1688(t6) # 1698 <.LBB103_4+0x458>
    6984:	41f585bb          	subw	a1,a1,t6
    6988:	00a585b3          	add	a1,a1,a0
    698c:	8805859b          	addiw	a1,a1,-1920
    6990:	40000cb7          	lui	s9,0x40000
    6994:	b6b43423          	sd	a1,-1176(s0)
    6998:	0005d463          	bgez	a1,69a0 <.LBB103_408>
    699c:	c0000cb7          	lui	s9,0xc0000

00000000000069a0 <.LBB103_408>:
    69a0:	b7943023          	sd	s9,-1184(s0)
    69a4:	cc843583          	ld	a1,-824(s0)
    69a8:	00001fb7          	lui	t6,0x1
    69ac:	41f40fb3          	sub	t6,s0,t6
    69b0:	690fbf83          	ld	t6,1680(t6) # 1690 <.LBB103_4+0x450>
    69b4:	01f585b3          	add	a1,a1,t6
    69b8:	00001fb7          	lui	t6,0x1
    69bc:	41f40fb3          	sub	t6,s0,t6
    69c0:	6c8fbf83          	ld	t6,1736(t6) # 16c8 <.LBB103_4+0x488>
    69c4:	41f585bb          	subw	a1,a1,t6
    69c8:	00a585b3          	add	a1,a1,a0
    69cc:	8805859b          	addiw	a1,a1,-1920
    69d0:	40000cb7          	lui	s9,0x40000
    69d4:	b6b43c23          	sd	a1,-1160(s0)
    69d8:	0005d463          	bgez	a1,69e0 <.LBB103_410>
    69dc:	c0000cb7          	lui	s9,0xc0000

00000000000069e0 <.LBB103_410>:
    69e0:	b7943823          	sd	s9,-1168(s0)
    69e4:	cd043583          	ld	a1,-816(s0)
    69e8:	e9043f83          	ld	t6,-368(s0)
    69ec:	01f585b3          	add	a1,a1,t6
    69f0:	00001fb7          	lui	t6,0x1
    69f4:	41f40fb3          	sub	t6,s0,t6
    69f8:	6d0fbf83          	ld	t6,1744(t6) # 16d0 <.LBB103_4+0x490>
    69fc:	41f585bb          	subw	a1,a1,t6
    6a00:	00a585b3          	add	a1,a1,a0
    6a04:	8805859b          	addiw	a1,a1,-1920
    6a08:	40000cb7          	lui	s9,0x40000
    6a0c:	b8b43423          	sd	a1,-1144(s0)
    6a10:	0005d463          	bgez	a1,6a18 <.LBB103_412>
    6a14:	c0000cb7          	lui	s9,0xc0000

0000000000006a18 <.LBB103_412>:
    6a18:	b9943023          	sd	s9,-1152(s0)
    6a1c:	cd843583          	ld	a1,-808(s0)
    6a20:	e9843f83          	ld	t6,-360(s0)
    6a24:	01f585b3          	add	a1,a1,t6
    6a28:	00001fb7          	lui	t6,0x1
    6a2c:	41f40fb3          	sub	t6,s0,t6
    6a30:	6d8fbf83          	ld	t6,1752(t6) # 16d8 <.LBB103_4+0x498>
    6a34:	41f585bb          	subw	a1,a1,t6
    6a38:	00a585b3          	add	a1,a1,a0
    6a3c:	8805859b          	addiw	a1,a1,-1920
    6a40:	40000cb7          	lui	s9,0x40000
    6a44:	b8b43c23          	sd	a1,-1128(s0)
    6a48:	0005d463          	bgez	a1,6a50 <.LBB103_414>
    6a4c:	c0000cb7          	lui	s9,0xc0000

0000000000006a50 <.LBB103_414>:
    6a50:	b9943823          	sd	s9,-1136(s0)
    6a54:	ce043583          	ld	a1,-800(s0)
    6a58:	ea043f83          	ld	t6,-352(s0)
    6a5c:	01f585b3          	add	a1,a1,t6
    6a60:	41b585bb          	subw	a1,a1,s11
    6a64:	00a585b3          	add	a1,a1,a0
    6a68:	8805859b          	addiw	a1,a1,-1920
    6a6c:	40000cb7          	lui	s9,0x40000
    6a70:	bab43823          	sd	a1,-1104(s0)
    6a74:	0005d463          	bgez	a1,6a7c <.LBB103_416>
    6a78:	c0000cb7          	lui	s9,0xc0000

0000000000006a7c <.LBB103_416>:
    6a7c:	bb943423          	sd	s9,-1112(s0)
    6a80:	ce843583          	ld	a1,-792(s0)
    6a84:	ea843f83          	ld	t6,-344(s0)
    6a88:	01f585b3          	add	a1,a1,t6
    6a8c:	41a585bb          	subw	a1,a1,s10
    6a90:	00a585b3          	add	a1,a1,a0
    6a94:	8805859b          	addiw	a1,a1,-1920
    6a98:	40000cb7          	lui	s9,0x40000
    6a9c:	bcb43023          	sd	a1,-1088(s0)
    6aa0:	0005d463          	bgez	a1,6aa8 <.LBB103_418>
    6aa4:	c0000cb7          	lui	s9,0xc0000

0000000000006aa8 <.LBB103_418>:
    6aa8:	bb943c23          	sd	s9,-1096(s0)
    6aac:	cf043583          	ld	a1,-784(s0)
    6ab0:	eb043f83          	ld	t6,-336(s0)
    6ab4:	01f585b3          	add	a1,a1,t6
    6ab8:	00001fb7          	lui	t6,0x1
    6abc:	41f40fb3          	sub	t6,s0,t6
    6ac0:	6f0fbf83          	ld	t6,1776(t6) # 16f0 <.LBB103_4+0x4b0>
    6ac4:	41f585bb          	subw	a1,a1,t6
    6ac8:	00a585b3          	add	a1,a1,a0
    6acc:	8805859b          	addiw	a1,a1,-1920
    6ad0:	40000cb7          	lui	s9,0x40000
    6ad4:	bcb43c23          	sd	a1,-1064(s0)
    6ad8:	0005d463          	bgez	a1,6ae0 <.LBB103_420>
    6adc:	c0000cb7          	lui	s9,0xc0000

0000000000006ae0 <.LBB103_420>:
    6ae0:	bd943823          	sd	s9,-1072(s0)
    6ae4:	cf843583          	ld	a1,-776(s0)
    6ae8:	eb843f83          	ld	t6,-328(s0)
    6aec:	01f585b3          	add	a1,a1,t6
    6af0:	00001fb7          	lui	t6,0x1
    6af4:	41f40fb3          	sub	t6,s0,t6
    6af8:	6f8fbf83          	ld	t6,1784(t6) # 16f8 <.LBB103_4+0x4b8>
    6afc:	41f585bb          	subw	a1,a1,t6
    6b00:	00a585b3          	add	a1,a1,a0
    6b04:	8805859b          	addiw	a1,a1,-1920
    6b08:	40000cb7          	lui	s9,0x40000
    6b0c:	beb43823          	sd	a1,-1040(s0)
    6b10:	0005d463          	bgez	a1,6b18 <.LBB103_422>
    6b14:	c0000cb7          	lui	s9,0xc0000

0000000000006b18 <.LBB103_422>:
    6b18:	bf943023          	sd	s9,-1056(s0)
    6b1c:	d0043583          	ld	a1,-768(s0)
    6b20:	ec043f83          	ld	t6,-320(s0)
    6b24:	01f585b3          	add	a1,a1,t6
    6b28:	00001fb7          	lui	t6,0x1
    6b2c:	41f40fb3          	sub	t6,s0,t6
    6b30:	700fbf83          	ld	t6,1792(t6) # 1700 <.LBB103_4+0x4c0>
    6b34:	41f585bb          	subw	a1,a1,t6
    6b38:	00a585b3          	add	a1,a1,a0
    6b3c:	8805859b          	addiw	a1,a1,-1920
    6b40:	40000cb7          	lui	s9,0x40000
    6b44:	c0b43023          	sd	a1,-1024(s0)
    6b48:	0005d463          	bgez	a1,6b50 <.LBB103_424>
    6b4c:	c0000cb7          	lui	s9,0xc0000

0000000000006b50 <.LBB103_424>:
    6b50:	bf943c23          	sd	s9,-1032(s0)
    6b54:	d0843583          	ld	a1,-760(s0)
    6b58:	ec843f83          	ld	t6,-312(s0)
    6b5c:	01f585b3          	add	a1,a1,t6
    6b60:	00001fb7          	lui	t6,0x1
    6b64:	41f40fb3          	sub	t6,s0,t6
    6b68:	708fbf83          	ld	t6,1800(t6) # 1708 <.LBB103_4+0x4c8>
    6b6c:	41f585bb          	subw	a1,a1,t6
    6b70:	00a585b3          	add	a1,a1,a0
    6b74:	8805859b          	addiw	a1,a1,-1920
    6b78:	40000cb7          	lui	s9,0x40000
    6b7c:	c0b43823          	sd	a1,-1008(s0)
    6b80:	0005d463          	bgez	a1,6b88 <.LBB103_426>
    6b84:	c0000cb7          	lui	s9,0xc0000

0000000000006b88 <.LBB103_426>:
    6b88:	c1943423          	sd	s9,-1016(s0)
    6b8c:	d1043583          	ld	a1,-752(s0)
    6b90:	f2043f83          	ld	t6,-224(s0)
    6b94:	01f585b3          	add	a1,a1,t6
    6b98:	00001fb7          	lui	t6,0x1
    6b9c:	41f40fb3          	sub	t6,s0,t6
    6ba0:	710fbf83          	ld	t6,1808(t6) # 1710 <.LBB103_4+0x4d0>
    6ba4:	41f585bb          	subw	a1,a1,t6
    6ba8:	00a585b3          	add	a1,a1,a0
    6bac:	8805859b          	addiw	a1,a1,-1920
    6bb0:	40000cb7          	lui	s9,0x40000
    6bb4:	c2b43023          	sd	a1,-992(s0)
    6bb8:	0005d463          	bgez	a1,6bc0 <.LBB103_428>
    6bbc:	c0000cb7          	lui	s9,0xc0000

0000000000006bc0 <.LBB103_428>:
    6bc0:	c1943c23          	sd	s9,-1000(s0)
    6bc4:	d1843583          	ld	a1,-744(s0)
    6bc8:	f2843f83          	ld	t6,-216(s0)
    6bcc:	01f585b3          	add	a1,a1,t6
    6bd0:	00001fb7          	lui	t6,0x1
    6bd4:	41f40fb3          	sub	t6,s0,t6
    6bd8:	718fbf83          	ld	t6,1816(t6) # 1718 <.LBB103_4+0x4d8>
    6bdc:	41f585bb          	subw	a1,a1,t6
    6be0:	00a585b3          	add	a1,a1,a0
    6be4:	8805859b          	addiw	a1,a1,-1920
    6be8:	40000cb7          	lui	s9,0x40000
    6bec:	c2b43c23          	sd	a1,-968(s0)
    6bf0:	0005d463          	bgez	a1,6bf8 <.LBB103_430>
    6bf4:	c0000cb7          	lui	s9,0xc0000

0000000000006bf8 <.LBB103_430>:
    6bf8:	c3943823          	sd	s9,-976(s0)
    6bfc:	d2043583          	ld	a1,-736(s0)
    6c00:	f3043f83          	ld	t6,-208(s0)
    6c04:	01f585b3          	add	a1,a1,t6
    6c08:	00001fb7          	lui	t6,0x1
    6c0c:	41f40fb3          	sub	t6,s0,t6
    6c10:	720fbf83          	ld	t6,1824(t6) # 1720 <.LBB103_4+0x4e0>
    6c14:	41f585bb          	subw	a1,a1,t6
    6c18:	00a585b3          	add	a1,a1,a0
    6c1c:	8805859b          	addiw	a1,a1,-1920
    6c20:	40000cb7          	lui	s9,0x40000
    6c24:	c4b43423          	sd	a1,-952(s0)
    6c28:	0005d463          	bgez	a1,6c30 <.LBB103_432>
    6c2c:	c0000cb7          	lui	s9,0xc0000

0000000000006c30 <.LBB103_432>:
    6c30:	c5943023          	sd	s9,-960(s0)
    6c34:	d2843583          	ld	a1,-728(s0)
    6c38:	f3843f83          	ld	t6,-200(s0)
    6c3c:	01f585b3          	add	a1,a1,t6
    6c40:	00001fb7          	lui	t6,0x1
    6c44:	41f40fb3          	sub	t6,s0,t6
    6c48:	728fbf83          	ld	t6,1832(t6) # 1728 <.LBB103_4+0x4e8>
    6c4c:	41f585bb          	subw	a1,a1,t6
    6c50:	00a585b3          	add	a1,a1,a0
    6c54:	8805859b          	addiw	a1,a1,-1920
    6c58:	40000cb7          	lui	s9,0x40000
    6c5c:	c4b43c23          	sd	a1,-936(s0)
    6c60:	0005d463          	bgez	a1,6c68 <.LBB103_434>
    6c64:	c0000cb7          	lui	s9,0xc0000

0000000000006c68 <.LBB103_434>:
    6c68:	c5943823          	sd	s9,-944(s0)
    6c6c:	d3043583          	ld	a1,-720(s0)
    6c70:	f4043f83          	ld	t6,-192(s0)
    6c74:	01f585b3          	add	a1,a1,t6
    6c78:	00001fb7          	lui	t6,0x1
    6c7c:	41f40fb3          	sub	t6,s0,t6
    6c80:	730fbf83          	ld	t6,1840(t6) # 1730 <.LBB103_4+0x4f0>
    6c84:	41f585bb          	subw	a1,a1,t6
    6c88:	00a585b3          	add	a1,a1,a0
    6c8c:	8805859b          	addiw	a1,a1,-1920
    6c90:	40000cb7          	lui	s9,0x40000
    6c94:	c6b43423          	sd	a1,-920(s0)
    6c98:	0005d463          	bgez	a1,6ca0 <.LBB103_436>
    6c9c:	c0000cb7          	lui	s9,0xc0000

0000000000006ca0 <.LBB103_436>:
    6ca0:	c7943023          	sd	s9,-928(s0)
    6ca4:	d3843583          	ld	a1,-712(s0)
    6ca8:	f4843f83          	ld	t6,-184(s0)
    6cac:	01f585b3          	add	a1,a1,t6
    6cb0:	00001fb7          	lui	t6,0x1
    6cb4:	41f40fb3          	sub	t6,s0,t6
    6cb8:	738fbf83          	ld	t6,1848(t6) # 1738 <.LBB103_4+0x4f8>
    6cbc:	41f585bb          	subw	a1,a1,t6
    6cc0:	00a585b3          	add	a1,a1,a0
    6cc4:	8805859b          	addiw	a1,a1,-1920
    6cc8:	40000cb7          	lui	s9,0x40000
    6ccc:	c8b43023          	sd	a1,-896(s0)
    6cd0:	0005d463          	bgez	a1,6cd8 <.LBB103_438>
    6cd4:	c0000cb7          	lui	s9,0xc0000

0000000000006cd8 <.LBB103_438>:
    6cd8:	c7943c23          	sd	s9,-904(s0)
    6cdc:	d4043583          	ld	a1,-704(s0)
    6ce0:	f5043f83          	ld	t6,-176(s0)
    6ce4:	01f585b3          	add	a1,a1,t6
    6ce8:	00001fb7          	lui	t6,0x1
    6cec:	41f40fb3          	sub	t6,s0,t6
    6cf0:	740fbf83          	ld	t6,1856(t6) # 1740 <.LBB103_4+0x500>
    6cf4:	41f585bb          	subw	a1,a1,t6
    6cf8:	00a585b3          	add	a1,a1,a0
    6cfc:	8805859b          	addiw	a1,a1,-1920
    6d00:	40000cb7          	lui	s9,0x40000
    6d04:	c8b43823          	sd	a1,-880(s0)
    6d08:	0005d463          	bgez	a1,6d10 <.LBB103_440>
    6d0c:	c0000cb7          	lui	s9,0xc0000

0000000000006d10 <.LBB103_440>:
    6d10:	c9943423          	sd	s9,-888(s0)
    6d14:	d4843583          	ld	a1,-696(s0)
    6d18:	f5843f83          	ld	t6,-168(s0)
    6d1c:	01f585b3          	add	a1,a1,t6
    6d20:	00001fb7          	lui	t6,0x1
    6d24:	41f40fb3          	sub	t6,s0,t6
    6d28:	748fbf83          	ld	t6,1864(t6) # 1748 <.LBB103_4+0x508>
    6d2c:	41f585bb          	subw	a1,a1,t6
    6d30:	00a585b3          	add	a1,a1,a0
    6d34:	8805859b          	addiw	a1,a1,-1920
    6d38:	40000cb7          	lui	s9,0x40000
    6d3c:	cab43023          	sd	a1,-864(s0)
    6d40:	0005d463          	bgez	a1,6d48 <.LBB103_442>
    6d44:	c0000cb7          	lui	s9,0xc0000

0000000000006d48 <.LBB103_442>:
    6d48:	c9943c23          	sd	s9,-872(s0)
    6d4c:	d5043583          	ld	a1,-688(s0)
    6d50:	f6043f83          	ld	t6,-160(s0)
    6d54:	01f585b3          	add	a1,a1,t6
    6d58:	00001fb7          	lui	t6,0x1
    6d5c:	41f40fb3          	sub	t6,s0,t6
    6d60:	750fbf83          	ld	t6,1872(t6) # 1750 <.LBB103_4+0x510>
    6d64:	41f585bb          	subw	a1,a1,t6
    6d68:	00a585b3          	add	a1,a1,a0
    6d6c:	8805859b          	addiw	a1,a1,-1920
    6d70:	40000cb7          	lui	s9,0x40000
    6d74:	cab43823          	sd	a1,-848(s0)
    6d78:	0005d463          	bgez	a1,6d80 <.LBB103_444>
    6d7c:	c0000cb7          	lui	s9,0xc0000

0000000000006d80 <.LBB103_444>:
    6d80:	cb943423          	sd	s9,-856(s0)
    6d84:	d5843583          	ld	a1,-680(s0)
    6d88:	f6843f83          	ld	t6,-152(s0)
    6d8c:	01f585b3          	add	a1,a1,t6
    6d90:	00001fb7          	lui	t6,0x1
    6d94:	41f40fb3          	sub	t6,s0,t6
    6d98:	758fbf83          	ld	t6,1880(t6) # 1758 <.LBB103_4+0x518>
    6d9c:	41f585bb          	subw	a1,a1,t6
    6da0:	00a585b3          	add	a1,a1,a0
    6da4:	8805859b          	addiw	a1,a1,-1920
    6da8:	40000cb7          	lui	s9,0x40000
    6dac:	ccb43023          	sd	a1,-832(s0)
    6db0:	0005d463          	bgez	a1,6db8 <.LBB103_446>
    6db4:	c0000cb7          	lui	s9,0xc0000

0000000000006db8 <.LBB103_446>:
    6db8:	cb943c23          	sd	s9,-840(s0)
    6dbc:	d6043583          	ld	a1,-672(s0)
    6dc0:	f7043f83          	ld	t6,-144(s0)
    6dc4:	01f585b3          	add	a1,a1,t6
    6dc8:	00001fb7          	lui	t6,0x1
    6dcc:	41f40fb3          	sub	t6,s0,t6
    6dd0:	760fbf83          	ld	t6,1888(t6) # 1760 <.LBB103_4+0x520>
    6dd4:	41f585bb          	subw	a1,a1,t6
    6dd8:	00a585b3          	add	a1,a1,a0
    6ddc:	8805859b          	addiw	a1,a1,-1920
    6de0:	40000cb7          	lui	s9,0x40000
    6de4:	ccb43823          	sd	a1,-816(s0)
    6de8:	0005d463          	bgez	a1,6df0 <.LBB103_448>
    6dec:	c0000cb7          	lui	s9,0xc0000

0000000000006df0 <.LBB103_448>:
    6df0:	cd943423          	sd	s9,-824(s0)
    6df4:	d6843583          	ld	a1,-664(s0)
    6df8:	f7843f83          	ld	t6,-136(s0)
    6dfc:	01f585b3          	add	a1,a1,t6
    6e00:	00001fb7          	lui	t6,0x1
    6e04:	41f40fb3          	sub	t6,s0,t6
    6e08:	768fbf83          	ld	t6,1896(t6) # 1768 <.LBB103_4+0x528>
    6e0c:	41f585bb          	subw	a1,a1,t6
    6e10:	00a585b3          	add	a1,a1,a0
    6e14:	8805859b          	addiw	a1,a1,-1920
    6e18:	40000cb7          	lui	s9,0x40000
    6e1c:	ceb43023          	sd	a1,-800(s0)
    6e20:	0005d463          	bgez	a1,6e28 <.LBB103_450>
    6e24:	c0000cb7          	lui	s9,0xc0000

0000000000006e28 <.LBB103_450>:
    6e28:	cd943c23          	sd	s9,-808(s0)
    6e2c:	d7043583          	ld	a1,-656(s0)
    6e30:	f8043f83          	ld	t6,-128(s0)
    6e34:	01f585b3          	add	a1,a1,t6
    6e38:	401585bb          	subw	a1,a1,ra
    6e3c:	00a585b3          	add	a1,a1,a0
    6e40:	8805859b          	addiw	a1,a1,-1920
    6e44:	40000cb7          	lui	s9,0x40000
    6e48:	ceb43823          	sd	a1,-784(s0)
    6e4c:	0005d463          	bgez	a1,6e54 <.LBB103_452>
    6e50:	c0000cb7          	lui	s9,0xc0000

0000000000006e54 <.LBB103_452>:
    6e54:	cf943423          	sd	s9,-792(s0)
    6e58:	d7843583          	ld	a1,-648(s0)
    6e5c:	f8843f83          	ld	t6,-120(s0)
    6e60:	01f585b3          	add	a1,a1,t6
    6e64:	414585bb          	subw	a1,a1,s4
    6e68:	00a58533          	add	a0,a1,a0
    6e6c:	8805051b          	addiw	a0,a0,-1920
    6e70:	400005b7          	lui	a1,0x40000
    6e74:	d0a43423          	sd	a0,-760(s0)
    6e78:	00055463          	bgez	a0,6e80 <.LBB103_454>
    6e7c:	c00005b7          	lui	a1,0xc0000

0000000000006e80 <.LBB103_454>:
    6e80:	ceb43c23          	sd	a1,-776(s0)
    6e84:	00001537          	lui	a0,0x1
    6e88:	40a40533          	sub	a0,s0,a0
    6e8c:	d9853a83          	ld	s5,-616(a0) # d98 <.LBB103_3+0xac4>
    6e90:	001a9513          	slli	a0,s5,0x1
    6e94:	d8043583          	ld	a1,-640(s0)
    6e98:	e8843f83          	ld	t6,-376(s0)
    6e9c:	01f585b3          	add	a1,a1,t6
    6ea0:	01550533          	add	a0,a0,s5
    6ea4:	e8043f83          	ld	t6,-384(s0)
    6ea8:	41f585bb          	subw	a1,a1,t6
    6eac:	00a585b3          	add	a1,a1,a0
    6eb0:	8805859b          	addiw	a1,a1,-1920 # ffffffffbffff880 <.Lfunc_end80+0xffffffffbffd6eb8>
    6eb4:	40000cb7          	lui	s9,0x40000
    6eb8:	d0b43823          	sd	a1,-752(s0)
    6ebc:	0005d463          	bgez	a1,6ec4 <.LBB103_456>
    6ec0:	c0000cb7          	lui	s9,0xc0000

0000000000006ec4 <.LBB103_456>:
    6ec4:	d1943023          	sd	s9,-768(s0)
    6ec8:	d8843583          	ld	a1,-632(s0)
    6ecc:	e7843f83          	ld	t6,-392(s0)
    6ed0:	01f585b3          	add	a1,a1,t6
    6ed4:	e7043f83          	ld	t6,-400(s0)
    6ed8:	41f585bb          	subw	a1,a1,t6
    6edc:	00a585b3          	add	a1,a1,a0
    6ee0:	8805859b          	addiw	a1,a1,-1920
    6ee4:	40000cb7          	lui	s9,0x40000
    6ee8:	d2b43023          	sd	a1,-736(s0)
    6eec:	0005d463          	bgez	a1,6ef4 <.LBB103_458>
    6ef0:	c0000cb7          	lui	s9,0xc0000

0000000000006ef4 <.LBB103_458>:
    6ef4:	d1943c23          	sd	s9,-744(s0)
    6ef8:	d9043583          	ld	a1,-624(s0)
    6efc:	e6843f83          	ld	t6,-408(s0)
    6f00:	01f585b3          	add	a1,a1,t6
    6f04:	e6043f83          	ld	t6,-416(s0)
    6f08:	41f585bb          	subw	a1,a1,t6
    6f0c:	00a585b3          	add	a1,a1,a0
    6f10:	8805859b          	addiw	a1,a1,-1920
    6f14:	40000cb7          	lui	s9,0x40000
    6f18:	d2b43823          	sd	a1,-720(s0)
    6f1c:	0005d463          	bgez	a1,6f24 <.LBB103_460>
    6f20:	c0000cb7          	lui	s9,0xc0000

0000000000006f24 <.LBB103_460>:
    6f24:	d3943423          	sd	s9,-728(s0)
    6f28:	d9843583          	ld	a1,-616(s0)
    6f2c:	e5843f83          	ld	t6,-424(s0)
    6f30:	01f585b3          	add	a1,a1,t6
    6f34:	e5043f83          	ld	t6,-432(s0)
    6f38:	41f585bb          	subw	a1,a1,t6
    6f3c:	00a585b3          	add	a1,a1,a0
    6f40:	8805859b          	addiw	a1,a1,-1920
    6f44:	40000cb7          	lui	s9,0x40000
    6f48:	d4b43023          	sd	a1,-704(s0)
    6f4c:	0005d463          	bgez	a1,6f54 <.LBB103_462>
    6f50:	c0000cb7          	lui	s9,0xc0000

0000000000006f54 <.LBB103_462>:
    6f54:	d3943c23          	sd	s9,-712(s0)
    6f58:	da043583          	ld	a1,-608(s0)
    6f5c:	e4843f83          	ld	t6,-440(s0)
    6f60:	01f585b3          	add	a1,a1,t6
    6f64:	e4043f83          	ld	t6,-448(s0)
    6f68:	41f585bb          	subw	a1,a1,t6
    6f6c:	00a585b3          	add	a1,a1,a0
    6f70:	8805859b          	addiw	a1,a1,-1920
    6f74:	40000cb7          	lui	s9,0x40000
    6f78:	e9943423          	sd	s9,-376(s0)
    6f7c:	d4b43423          	sd	a1,-696(s0)
    6f80:	0005d663          	bgez	a1,6f8c <.LBB103_464>
    6f84:	c00005b7          	lui	a1,0xc0000
    6f88:	e8b43423          	sd	a1,-376(s0)

0000000000006f8c <.LBB103_464>:
    6f8c:	e3843583          	ld	a1,-456(s0)
    6f90:	ed043f83          	ld	t6,-304(s0)
    6f94:	00bf85b3          	add	a1,t6,a1
    6f98:	e3043f83          	ld	t6,-464(s0)
    6f9c:	41f585bb          	subw	a1,a1,t6
    6fa0:	00a585b3          	add	a1,a1,a0
    6fa4:	8805859b          	addiw	a1,a1,-1920 # ffffffffbffff880 <.Lfunc_end80+0xffffffffbffd6eb8>
    6fa8:	400000b7          	lui	ra,0x40000
    6fac:	d4b43c23          	sd	a1,-680(s0)
    6fb0:	0005d463          	bgez	a1,6fb8 <.LBB103_466>
    6fb4:	c00000b7          	lui	ra,0xc0000

0000000000006fb8 <.LBB103_466>:
    6fb8:	000015b7          	lui	a1,0x1
    6fbc:	40b405b3          	sub	a1,s0,a1
    6fc0:	6c05b583          	ld	a1,1728(a1) # 16c0 <.LBB103_4+0x480>
    6fc4:	00bb05b3          	add	a1,s6,a1
    6fc8:	00001fb7          	lui	t6,0x1
    6fcc:	41f40fb3          	sub	t6,s0,t6
    6fd0:	6b8fbf83          	ld	t6,1720(t6) # 16b8 <.LBB103_4+0x478>
    6fd4:	41f585bb          	subw	a1,a1,t6
    6fd8:	00a585b3          	add	a1,a1,a0
    6fdc:	8805859b          	addiw	a1,a1,-1920
    6fe0:	40000b37          	lui	s6,0x40000
    6fe4:	d6b43423          	sd	a1,-664(s0)
    6fe8:	0005d463          	bgez	a1,6ff0 <.LBB103_468>
    6fec:	c0000b37          	lui	s6,0xc0000

0000000000006ff0 <.LBB103_468>:
    6ff0:	d7643023          	sd	s6,-672(s0)
    6ff4:	000015b7          	lui	a1,0x1
    6ff8:	40b405b3          	sub	a1,s0,a1
    6ffc:	6b05b583          	ld	a1,1712(a1) # 16b0 <.LBB103_4+0x470>
    7000:	ed843f83          	ld	t6,-296(s0)
    7004:	00bf85b3          	add	a1,t6,a1
    7008:	00001fb7          	lui	t6,0x1
    700c:	41f40fb3          	sub	t6,s0,t6
    7010:	6a8fbf83          	ld	t6,1704(t6) # 16a8 <.LBB103_4+0x468>
    7014:	41f585bb          	subw	a1,a1,t6
    7018:	00a585b3          	add	a1,a1,a0
    701c:	8805859b          	addiw	a1,a1,-1920
    7020:	40000b37          	lui	s6,0x40000
    7024:	d6b43c23          	sd	a1,-648(s0)
    7028:	0005d463          	bgez	a1,7030 <.LBB103_470>
    702c:	c0000b37          	lui	s6,0xc0000

0000000000007030 <.LBB103_470>:
    7030:	d7643823          	sd	s6,-656(s0)
    7034:	ee043583          	ld	a1,-288(s0)
    7038:	00001fb7          	lui	t6,0x1
    703c:	41f40fb3          	sub	t6,s0,t6
    7040:	6a0fbf83          	ld	t6,1696(t6) # 16a0 <.LBB103_4+0x460>
    7044:	01f585b3          	add	a1,a1,t6
    7048:	00001fb7          	lui	t6,0x1
    704c:	41f40fb3          	sub	t6,s0,t6
    7050:	698fbf83          	ld	t6,1688(t6) # 1698 <.LBB103_4+0x458>
    7054:	41f585bb          	subw	a1,a1,t6
    7058:	00a585b3          	add	a1,a1,a0
    705c:	8805859b          	addiw	a1,a1,-1920
    7060:	40000b37          	lui	s6,0x40000
    7064:	d8b43023          	sd	a1,-640(s0)
    7068:	0005d463          	bgez	a1,7070 <.LBB103_472>
    706c:	c0000b37          	lui	s6,0xc0000

0000000000007070 <.LBB103_472>:
    7070:	d4143823          	sd	ra,-688(s0)
    7074:	000015b7          	lui	a1,0x1
    7078:	40b405b3          	sub	a1,s0,a1
    707c:	6905b583          	ld	a1,1680(a1) # 1690 <.LBB103_4+0x450>
    7080:	ee843f83          	ld	t6,-280(s0)
    7084:	00bf85b3          	add	a1,t6,a1
    7088:	00001fb7          	lui	t6,0x1
    708c:	41f40fb3          	sub	t6,s0,t6
    7090:	6c8fbf83          	ld	t6,1736(t6) # 16c8 <.LBB103_4+0x488>
    7094:	41f585bb          	subw	a1,a1,t6
    7098:	00a585b3          	add	a1,a1,a0
    709c:	88058f9b          	addiw	t6,a1,-1920
    70a0:	400005b7          	lui	a1,0x40000
    70a4:	00001ab7          	lui	s5,0x1
    70a8:	41540ab3          	sub	s5,s0,s5
    70ac:	d9fabc23          	sd	t6,-616(s5) # d98 <.LBB103_3+0xac4>
    70b0:	000fd463          	bgez	t6,70b8 <.LBB103_474>
    70b4:	c00005b7          	lui	a1,0xc0000

00000000000070b8 <.LBB103_474>:
    70b8:	d8b43423          	sd	a1,-632(s0)
    70bc:	e9043583          	ld	a1,-368(s0)
    70c0:	00b985b3          	add	a1,s3,a1
    70c4:	00001fb7          	lui	t6,0x1
    70c8:	41f40fb3          	sub	t6,s0,t6
    70cc:	6d0fbf83          	ld	t6,1744(t6) # 16d0 <.LBB103_4+0x490>
    70d0:	41f585bb          	subw	a1,a1,t6
    70d4:	00a585b3          	add	a1,a1,a0
    70d8:	8805809b          	addiw	ra,a1,-1920 # ffffffffbffff880 <.Lfunc_end80+0xffffffffbffd6eb8>
    70dc:	400005b7          	lui	a1,0x40000
    70e0:	0000d463          	bgez	ra,70e8 <.LBB103_476>
    70e4:	c00005b7          	lui	a1,0xc0000

00000000000070e8 <.LBB103_476>:
    70e8:	d8b43823          	sd	a1,-624(s0)
    70ec:	db843583          	ld	a1,-584(s0)
    70f0:	e9843f83          	ld	t6,-360(s0)
    70f4:	01f585b3          	add	a1,a1,t6
    70f8:	00001fb7          	lui	t6,0x1
    70fc:	41f40fb3          	sub	t6,s0,t6
    7100:	6d8fbf83          	ld	t6,1752(t6) # 16d8 <.LBB103_4+0x498>
    7104:	41f585bb          	subw	a1,a1,t6
    7108:	00a585b3          	add	a1,a1,a0
    710c:	8805859b          	addiw	a1,a1,-1920 # ffffffffbffff880 <.Lfunc_end80+0xffffffffbffd6eb8>
    7110:	400009b7          	lui	s3,0x40000
    7114:	dab43023          	sd	a1,-608(s0)
    7118:	0005d463          	bgez	a1,7120 <.LBB103_478>
    711c:	c00009b7          	lui	s3,0xc0000

0000000000007120 <.LBB103_478>:
    7120:	ea043583          	ld	a1,-352(s0)
    7124:	00b485b3          	add	a1,s1,a1
    7128:	41b585bb          	subw	a1,a1,s11
    712c:	00a585b3          	add	a1,a1,a0
    7130:	8805859b          	addiw	a1,a1,-1920
    7134:	400004b7          	lui	s1,0x40000
    7138:	dab43823          	sd	a1,-592(s0)
    713c:	0005d463          	bgez	a1,7144 <.LBB103_480>
    7140:	c00004b7          	lui	s1,0xc0000

0000000000007144 <.LBB103_480>:
    7144:	da943423          	sd	s1,-600(s0)
    7148:	dc843583          	ld	a1,-568(s0)
    714c:	ea843f83          	ld	t6,-344(s0)
    7150:	01f585b3          	add	a1,a1,t6
    7154:	41a585bb          	subw	a1,a1,s10
    7158:	00a585b3          	add	a1,a1,a0
    715c:	8805859b          	addiw	a1,a1,-1920
    7160:	400004b7          	lui	s1,0x40000
    7164:	dab43c23          	sd	a1,-584(s0)
    7168:	0005d463          	bgez	a1,7170 <.LBB103_482>
    716c:	c00004b7          	lui	s1,0xc0000

0000000000007170 <.LBB103_482>:
    7170:	eb043583          	ld	a1,-336(s0)
    7174:	00bf05b3          	add	a1,t5,a1
    7178:	00001f37          	lui	t5,0x1
    717c:	41e40f33          	sub	t5,s0,t5
    7180:	6f0f3f03          	ld	t5,1776(t5) # 16f0 <.LBB103_4+0x4b0>
    7184:	41e585bb          	subw	a1,a1,t5
    7188:	00a585b3          	add	a1,a1,a0
    718c:	8805859b          	addiw	a1,a1,-1920
    7190:	40000f37          	lui	t5,0x40000
    7194:	dcb43023          	sd	a1,-576(s0)
    7198:	0005d463          	bgez	a1,71a0 <.LBB103_484>
    719c:	c0000f37          	lui	t5,0xc0000

00000000000071a0 <.LBB103_484>:
    71a0:	eb843583          	ld	a1,-328(s0)
    71a4:	00be85b3          	add	a1,t4,a1
    71a8:	00001eb7          	lui	t4,0x1
    71ac:	41d40eb3          	sub	t4,s0,t4
    71b0:	6f8ebe83          	ld	t4,1784(t4) # 16f8 <.LBB103_4+0x4b8>
    71b4:	41d585bb          	subw	a1,a1,t4
    71b8:	00a585b3          	add	a1,a1,a0
    71bc:	8805859b          	addiw	a1,a1,-1920
    71c0:	40000eb7          	lui	t4,0x40000
    71c4:	dcb43823          	sd	a1,-560(s0)
    71c8:	0005d463          	bgez	a1,71d0 <.LBB103_486>
    71cc:	c0000eb7          	lui	t4,0xc0000

00000000000071d0 <.LBB103_486>:
    71d0:	ddd43423          	sd	t4,-568(s0)
    71d4:	ec043583          	ld	a1,-320(s0)
    71d8:	ef043e83          	ld	t4,-272(s0)
    71dc:	00be85b3          	add	a1,t4,a1
    71e0:	00001eb7          	lui	t4,0x1
    71e4:	41d40eb3          	sub	t4,s0,t4
    71e8:	700ebe83          	ld	t4,1792(t4) # 1700 <.LBB103_4+0x4c0>
    71ec:	41d585bb          	subw	a1,a1,t4
    71f0:	00a585b3          	add	a1,a1,a0
    71f4:	8805859b          	addiw	a1,a1,-1920
    71f8:	40000eb7          	lui	t4,0x40000
    71fc:	dcb43c23          	sd	a1,-552(s0)
    7200:	0005d463          	bgez	a1,7208 <.LBB103_488>
    7204:	c0000eb7          	lui	t4,0xc0000

0000000000007208 <.LBB103_488>:
    7208:	ec843583          	ld	a1,-312(s0)
    720c:	00be05b3          	add	a1,t3,a1
    7210:	00001e37          	lui	t3,0x1
    7214:	41c40e33          	sub	t3,s0,t3
    7218:	708e3e03          	ld	t3,1800(t3) # 1708 <.LBB103_4+0x4c8>
    721c:	41c585bb          	subw	a1,a1,t3
    7220:	00a585b3          	add	a1,a1,a0
    7224:	8805859b          	addiw	a1,a1,-1920
    7228:	40000e37          	lui	t3,0x40000
    722c:	e2b43823          	sd	a1,-464(s0)
    7230:	0005d463          	bgez	a1,7238 <.LBB103_490>
    7234:	c0000e37          	lui	t3,0xc0000

0000000000007238 <.LBB103_490>:
    7238:	dfc43023          	sd	t3,-544(s0)
    723c:	f2043583          	ld	a1,-224(s0)
    7240:	ef843e03          	ld	t3,-264(s0)
    7244:	00be05b3          	add	a1,t3,a1
    7248:	00001e37          	lui	t3,0x1
    724c:	41c40e33          	sub	t3,s0,t3
    7250:	710e3e03          	ld	t3,1808(t3) # 1710 <.LBB103_4+0x4d0>
    7254:	41c585bb          	subw	a1,a1,t3
    7258:	00a585b3          	add	a1,a1,a0
    725c:	8805859b          	addiw	a1,a1,-1920
    7260:	40000e37          	lui	t3,0x40000
    7264:	e4b43023          	sd	a1,-448(s0)
    7268:	0005d463          	bgez	a1,7270 <.LBB103_492>
    726c:	c0000e37          	lui	t3,0xc0000

0000000000007270 <.LBB103_492>:
    7270:	e3c43c23          	sd	t3,-456(s0)
    7274:	f2843583          	ld	a1,-216(s0)
    7278:	00b385b3          	add	a1,t2,a1
    727c:	000013b7          	lui	t2,0x1
    7280:	407403b3          	sub	t2,s0,t2
    7284:	7183b383          	ld	t2,1816(t2) # 1718 <.LBB103_4+0x4d8>
    7288:	407585bb          	subw	a1,a1,t2
    728c:	00a585b3          	add	a1,a1,a0
    7290:	8805839b          	addiw	t2,a1,-1920
    7294:	400005b7          	lui	a1,0x40000
    7298:	0003d463          	bgez	t2,72a0 <.LBB103_494>
    729c:	c00005b7          	lui	a1,0xc0000

00000000000072a0 <.LBB103_494>:
    72a0:	dfd43423          	sd	t4,-536(s0)
    72a4:	e4b43423          	sd	a1,-440(s0)
    72a8:	f3043583          	ld	a1,-208(s0)
    72ac:	00b305b3          	add	a1,t1,a1
    72b0:	00001337          	lui	t1,0x1
    72b4:	40640333          	sub	t1,s0,t1
    72b8:	72033303          	ld	t1,1824(t1) # 1720 <.LBB103_4+0x4e0>
    72bc:	406585bb          	subw	a1,a1,t1
    72c0:	00a585b3          	add	a1,a1,a0
    72c4:	88058e1b          	addiw	t3,a1,-1920 # ffffffffbffff880 <.Lfunc_end80+0xffffffffbffd6eb8>
    72c8:	400005b7          	lui	a1,0x40000
    72cc:	000e5463          	bgez	t3,72d4 <.LBB103_496>
    72d0:	c00005b7          	lui	a1,0xc0000

00000000000072d4 <.LBB103_496>:
    72d4:	dfe43823          	sd	t5,-528(s0)
    72d8:	e4b43823          	sd	a1,-432(s0)
    72dc:	f3843583          	ld	a1,-200(s0)
    72e0:	f0043303          	ld	t1,-256(s0)
    72e4:	00b305b3          	add	a1,t1,a1
    72e8:	00001337          	lui	t1,0x1
    72ec:	40640333          	sub	t1,s0,t1
    72f0:	72833303          	ld	t1,1832(t1) # 1728 <.LBB103_4+0x4e8>
    72f4:	406585bb          	subw	a1,a1,t1
    72f8:	00a585b3          	add	a1,a1,a0
    72fc:	88058e9b          	addiw	t4,a1,-1920 # ffffffffbffff880 <.Lfunc_end80+0xffffffffbffd6eb8>
    7300:	400005b7          	lui	a1,0x40000
    7304:	000ed463          	bgez	t4,730c <.LBB103_498>
    7308:	c00005b7          	lui	a1,0xc0000

000000000000730c <.LBB103_498>:
    730c:	e6b43023          	sd	a1,-416(s0)
    7310:	f0843583          	ld	a1,-248(s0)
    7314:	f4043303          	ld	t1,-192(s0)
    7318:	006585b3          	add	a1,a1,t1
    731c:	00001337          	lui	t1,0x1
    7320:	40640333          	sub	t1,s0,t1
    7324:	73033303          	ld	t1,1840(t1) # 1730 <.LBB103_4+0x4f0>
    7328:	406585bb          	subw	a1,a1,t1
    732c:	00a585b3          	add	a1,a1,a0
    7330:	88058f1b          	addiw	t5,a1,-1920 # ffffffffbffff880 <.Lfunc_end80+0xffffffffbffd6eb8>
    7334:	400005b7          	lui	a1,0x40000
    7338:	000f5463          	bgez	t5,7340 <.LBB103_500>
    733c:	c00005b7          	lui	a1,0xc0000

0000000000007340 <.LBB103_500>:
    7340:	d8943c23          	sd	s1,-616(s0)
    7344:	e6b43423          	sd	a1,-408(s0)
    7348:	f1043583          	ld	a1,-240(s0)
    734c:	f4843303          	ld	t1,-184(s0)
    7350:	006585b3          	add	a1,a1,t1
    7354:	00001337          	lui	t1,0x1
    7358:	40640333          	sub	t1,s0,t1
    735c:	73833303          	ld	t1,1848(t1) # 1738 <.LBB103_4+0x4f8>
    7360:	406585bb          	subw	a1,a1,t1
    7364:	00a585b3          	add	a1,a1,a0
    7368:	88058f9b          	addiw	t6,a1,-1920 # ffffffffbffff880 <.Lfunc_end80+0xffffffffbffd6eb8>
    736c:	400005b7          	lui	a1,0x40000
    7370:	000fd463          	bgez	t6,7378 <.LBB103_502>
    7374:	c00005b7          	lui	a1,0xc0000

0000000000007378 <.LBB103_502>:
    7378:	e6b43823          	sd	a1,-400(s0)
    737c:	f5043583          	ld	a1,-176(s0)
    7380:	f1843303          	ld	t1,-232(s0)
    7384:	00b305b3          	add	a1,t1,a1
    7388:	00001337          	lui	t1,0x1
    738c:	40640333          	sub	t1,s0,t1
    7390:	74033303          	ld	t1,1856(t1) # 1740 <.LBB103_4+0x500>
    7394:	406585bb          	subw	a1,a1,t1
    7398:	00a585b3          	add	a1,a1,a0
    739c:	8805849b          	addiw	s1,a1,-1920 # ffffffffbffff880 <.Lfunc_end80+0xffffffffbffd6eb8>
    73a0:	400005b7          	lui	a1,0x40000
    73a4:	0004d463          	bgez	s1,73ac <.LBB103_504>
    73a8:	c00005b7          	lui	a1,0xc0000

00000000000073ac <.LBB103_504>:
    73ac:	00098313          	mv	t1,s3
    73b0:	e8b43023          	sd	a1,-384(s0)
    73b4:	f5843583          	ld	a1,-168(s0)
    73b8:	00b285b3          	add	a1,t0,a1
    73bc:	000012b7          	lui	t0,0x1
    73c0:	405402b3          	sub	t0,s0,t0
    73c4:	7482b283          	ld	t0,1864(t0) # 1748 <.LBB103_4+0x508>
    73c8:	405585bb          	subw	a1,a1,t0
    73cc:	00a585b3          	add	a1,a1,a0
    73d0:	8805829b          	addiw	t0,a1,-1920 # ffffffffbffff880 <.Lfunc_end80+0xffffffffbffd6eb8>
    73d4:	400005b7          	lui	a1,0x40000
    73d8:	86543423          	sd	t0,-1944(s0)
    73dc:	0002d463          	bgez	t0,73e4 <.LBB103_506>
    73e0:	c00005b7          	lui	a1,0xc0000

00000000000073e4 <.LBB103_506>:
    73e4:	e8b43823          	sd	a1,-368(s0)
    73e8:	f6043583          	ld	a1,-160(s0)
    73ec:	e0043283          	ld	t0,-512(s0)
    73f0:	00b285b3          	add	a1,t0,a1
    73f4:	000012b7          	lui	t0,0x1
    73f8:	405402b3          	sub	t0,s0,t0
    73fc:	7502b283          	ld	t0,1872(t0) # 1750 <.LBB103_4+0x510>
    7400:	405585bb          	subw	a1,a1,t0
    7404:	00a585b3          	add	a1,a1,a0
    7408:	8805899b          	addiw	s3,a1,-1920 # ffffffffbffff880 <.Lfunc_end80+0xffffffffbffd6eb8>
    740c:	400005b7          	lui	a1,0x40000
    7410:	0009d463          	bgez	s3,7418 <.LBB103_508>
    7414:	c00005b7          	lui	a1,0xc0000

0000000000007418 <.LBB103_508>:
    7418:	e8b43c23          	sd	a1,-360(s0)
    741c:	f6843583          	ld	a1,-152(s0)
    7420:	e0843283          	ld	t0,-504(s0)
    7424:	00b285b3          	add	a1,t0,a1
    7428:	000012b7          	lui	t0,0x1
    742c:	405402b3          	sub	t0,s0,t0
    7430:	7582b283          	ld	t0,1880(t0) # 1758 <.LBB103_4+0x518>
    7434:	405585bb          	subw	a1,a1,t0
    7438:	00a585b3          	add	a1,a1,a0
    743c:	8805829b          	addiw	t0,a1,-1920 # ffffffffbffff880 <.Lfunc_end80+0xffffffffbffd6eb8>
    7440:	400005b7          	lui	a1,0x40000
    7444:	00001ab7          	lui	s5,0x1
    7448:	41540ab3          	sub	s5,s0,s5
    744c:	d85ab823          	sd	t0,-624(s5) # d90 <.LBB103_3+0xabc>
    7450:	0002d463          	bgez	t0,7458 <.LBB103_510>
    7454:	c00005b7          	lui	a1,0xc0000

0000000000007458 <.LBB103_510>:
    7458:	000b0293          	mv	t0,s6
    745c:	eab43023          	sd	a1,-352(s0)
    7460:	f7043583          	ld	a1,-144(s0)
    7464:	e1043a83          	ld	s5,-496(s0)
    7468:	00ba85b3          	add	a1,s5,a1
    746c:	00001ab7          	lui	s5,0x1
    7470:	41540ab3          	sub	s5,s0,s5
    7474:	760aba83          	ld	s5,1888(s5) # 1760 <.LBB103_4+0x520>
    7478:	415585bb          	subw	a1,a1,s5
    747c:	00a585b3          	add	a1,a1,a0
    7480:	88058a9b          	addiw	s5,a1,-1920 # ffffffffbffff880 <.Lfunc_end80+0xffffffffbffd6eb8>
    7484:	400005b7          	lui	a1,0x40000
    7488:	000ad463          	bgez	s5,7490 <.LBB103_512>
    748c:	c00005b7          	lui	a1,0xc0000

0000000000007490 <.LBB103_512>:
    7490:	eab43823          	sd	a1,-336(s0)
    7494:	f7843583          	ld	a1,-136(s0)
    7498:	00b905b3          	add	a1,s2,a1
    749c:	00001937          	lui	s2,0x1
    74a0:	41240933          	sub	s2,s0,s2
    74a4:	76893903          	ld	s2,1896(s2) # 1768 <.LBB103_4+0x528>
    74a8:	412585bb          	subw	a1,a1,s2
    74ac:	00a585b3          	add	a1,a1,a0
    74b0:	88058b1b          	addiw	s6,a1,-1920 # ffffffffbffff880 <.Lfunc_end80+0xffffffffbffd6eb8>
    74b4:	400005b7          	lui	a1,0x40000
    74b8:	000b5463          	bgez	s6,74c0 <.LBB103_514>
    74bc:	c00005b7          	lui	a1,0xc0000

00000000000074c0 <.LBB103_514>:
    74c0:	eab43c23          	sd	a1,-328(s0)
    74c4:	f8043583          	ld	a1,-128(s0)
    74c8:	00b685b3          	add	a1,a3,a1
    74cc:	000016b7          	lui	a3,0x1
    74d0:	40d406b3          	sub	a3,s0,a3
    74d4:	7706b683          	ld	a3,1904(a3) # 1770 <.LBB103_4+0x530>
    74d8:	40d585bb          	subw	a1,a1,a3
    74dc:	00a585b3          	add	a1,a1,a0
    74e0:	8805859b          	addiw	a1,a1,-1920 # ffffffffbffff880 <.Lfunc_end80+0xffffffffbffd6eb8>
    74e4:	400006b7          	lui	a3,0x40000
    74e8:	ecb43423          	sd	a1,-312(s0)
    74ec:	0005d463          	bgez	a1,74f4 <.LBB103_516>
    74f0:	c00006b7          	lui	a3,0xc0000

00000000000074f4 <.LBB103_516>:
    74f4:	f8843583          	ld	a1,-120(s0)
    74f8:	00b605b3          	add	a1,a2,a1
    74fc:	414585bb          	subw	a1,a1,s4
    7500:	00a58533          	add	a0,a1,a0
    7504:	8805051b          	addiw	a0,a0,-1920
    7508:	eca43023          	sd	a0,-320(s0)
    750c:	400005b7          	lui	a1,0x40000
    7510:	00055463          	bgez	a0,7518 <.LBB103_518>
    7514:	c00005b7          	lui	a1,0xc0000

0000000000007518 <.LBB103_518>:
    7518:	eeb43423          	sd	a1,-280(s0)
    751c:	00001537          	lui	a0,0x1
    7520:	40a40533          	sub	a0,s0,a0
    7524:	02053503          	ld	a0,32(a0) # 1020 <.LBB103_3+0xd4c>
    7528:	03850533          	mul	a0,a0,s8
    752c:	000015b7          	lui	a1,0x1
    7530:	40b405b3          	sub	a1,s0,a1
    7534:	fe05b583          	ld	a1,-32(a1) # fe0 <.LBB103_3+0xd0c>
    7538:	017585b3          	add	a1,a1,s7
    753c:	00b50533          	add	a0,a0,a1
    7540:	42455513          	srai	a0,a0,0x24
    7544:	00a025b3          	sgtz	a1,a0
    7548:	40b005b3          	neg	a1,a1
    754c:	00a5fd33          	and	s10,a1,a0
    7550:	0ff00c93          	li	s9,255
    7554:	019d4463          	blt	s10,s9,755c <.LBB103_520>
    7558:	0ff00d13          	li	s10,255

000000000000755c <.LBB103_520>:
    755c:	00001537          	lui	a0,0x1
    7560:	40a40533          	sub	a0,s0,a0
    7564:	01053503          	ld	a0,16(a0) # 1010 <.LBB103_3+0xd3c>
    7568:	03850533          	mul	a0,a0,s8
    756c:	000015b7          	lui	a1,0x1
    7570:	40b405b3          	sub	a1,s0,a1
    7574:	ff85b583          	ld	a1,-8(a1) # ff8 <.LBB103_3+0xd24>
    7578:	017585b3          	add	a1,a1,s7
    757c:	00b50533          	add	a0,a0,a1
    7580:	42455513          	srai	a0,a0,0x24
    7584:	00a025b3          	sgtz	a1,a0
    7588:	40b005b3          	neg	a1,a1
    758c:	00a5f533          	and	a0,a1,a0
    7590:	01954463          	blt	a0,s9,7598 <.LBB103_522>
    7594:	0ff00513          	li	a0,255

0000000000007598 <.LBB103_522>:
    7598:	f8a43423          	sd	a0,-120(s0)
    759c:	00001537          	lui	a0,0x1
    75a0:	40a40533          	sub	a0,s0,a0
    75a4:	00053503          	ld	a0,0(a0) # 1000 <.LBB103_3+0xd2c>
    75a8:	03850533          	mul	a0,a0,s8
    75ac:	000015b7          	lui	a1,0x1
    75b0:	40b405b3          	sub	a1,s0,a1
    75b4:	fd85b583          	ld	a1,-40(a1) # fd8 <.LBB103_3+0xd04>
    75b8:	017585b3          	add	a1,a1,s7
    75bc:	00b50533          	add	a0,a0,a1
    75c0:	42455513          	srai	a0,a0,0x24
    75c4:	00a025b3          	sgtz	a1,a0
    75c8:	40b005b3          	neg	a1,a1
    75cc:	00a5f533          	and	a0,a1,a0
    75d0:	01954463          	blt	a0,s9,75d8 <.LBB103_524>
    75d4:	0ff00513          	li	a0,255

00000000000075d8 <.LBB103_524>:
    75d8:	f8a43023          	sd	a0,-128(s0)
    75dc:	00001537          	lui	a0,0x1
    75e0:	40a40533          	sub	a0,s0,a0
    75e4:	ff053503          	ld	a0,-16(a0) # ff0 <.LBB103_3+0xd1c>
    75e8:	03850533          	mul	a0,a0,s8
    75ec:	000015b7          	lui	a1,0x1
    75f0:	40b405b3          	sub	a1,s0,a1
    75f4:	fc85b583          	ld	a1,-56(a1) # fc8 <.LBB103_3+0xcf4>
    75f8:	017585b3          	add	a1,a1,s7
    75fc:	00b50533          	add	a0,a0,a1
    7600:	42455513          	srai	a0,a0,0x24
    7604:	00a025b3          	sgtz	a1,a0
    7608:	40b005b3          	neg	a1,a1
    760c:	00a5f533          	and	a0,a1,a0
    7610:	01954463          	blt	a0,s9,7618 <.LBB103_526>
    7614:	0ff00513          	li	a0,255

0000000000007618 <.LBB103_526>:
    7618:	f6a43c23          	sd	a0,-136(s0)
    761c:	00001537          	lui	a0,0x1
    7620:	40a40533          	sub	a0,s0,a0
    7624:	fd053503          	ld	a0,-48(a0) # fd0 <.LBB103_3+0xcfc>
    7628:	03850533          	mul	a0,a0,s8
    762c:	000015b7          	lui	a1,0x1
    7630:	40b405b3          	sub	a1,s0,a1
    7634:	fb05b583          	ld	a1,-80(a1) # fb0 <.LBB103_3+0xcdc>
    7638:	017585b3          	add	a1,a1,s7
    763c:	00b50533          	add	a0,a0,a1
    7640:	42455513          	srai	a0,a0,0x24
    7644:	00a025b3          	sgtz	a1,a0
    7648:	40b005b3          	neg	a1,a1
    764c:	00a5f533          	and	a0,a1,a0
    7650:	01954463          	blt	a0,s9,7658 <.LBB103_528>
    7654:	0ff00513          	li	a0,255

0000000000007658 <.LBB103_528>:
    7658:	f6a43823          	sd	a0,-144(s0)
    765c:	00001537          	lui	a0,0x1
    7660:	40a40533          	sub	a0,s0,a0
    7664:	fb853503          	ld	a0,-72(a0) # fb8 <.LBB103_3+0xce4>
    7668:	03850533          	mul	a0,a0,s8
    766c:	000015b7          	lui	a1,0x1
    7670:	40b405b3          	sub	a1,s0,a1
    7674:	f985b583          	ld	a1,-104(a1) # f98 <.LBB103_3+0xcc4>
    7678:	017585b3          	add	a1,a1,s7
    767c:	00b50533          	add	a0,a0,a1
    7680:	42455513          	srai	a0,a0,0x24
    7684:	00a025b3          	sgtz	a1,a0
    7688:	40b005b3          	neg	a1,a1
    768c:	00a5f533          	and	a0,a1,a0
    7690:	01954463          	blt	a0,s9,7698 <.LBB103_530>
    7694:	0ff00513          	li	a0,255

0000000000007698 <.LBB103_530>:
    7698:	f6a43423          	sd	a0,-152(s0)
    769c:	00001537          	lui	a0,0x1
    76a0:	40a40533          	sub	a0,s0,a0
    76a4:	fa853503          	ld	a0,-88(a0) # fa8 <.LBB103_3+0xcd4>
    76a8:	03850533          	mul	a0,a0,s8
    76ac:	000015b7          	lui	a1,0x1
    76b0:	40b405b3          	sub	a1,s0,a1
    76b4:	f885b583          	ld	a1,-120(a1) # f88 <.LBB103_3+0xcb4>
    76b8:	017585b3          	add	a1,a1,s7
    76bc:	00b50533          	add	a0,a0,a1
    76c0:	42455513          	srai	a0,a0,0x24
    76c4:	00a025b3          	sgtz	a1,a0
    76c8:	40b005b3          	neg	a1,a1
    76cc:	00a5f533          	and	a0,a1,a0
    76d0:	01954463          	blt	a0,s9,76d8 <.LBB103_532>
    76d4:	0ff00513          	li	a0,255

00000000000076d8 <.LBB103_532>:
    76d8:	f6a43023          	sd	a0,-160(s0)
    76dc:	00001537          	lui	a0,0x1
    76e0:	40a40533          	sub	a0,s0,a0
    76e4:	f9053503          	ld	a0,-112(a0) # f90 <.LBB103_3+0xcbc>
    76e8:	03850533          	mul	a0,a0,s8
    76ec:	000015b7          	lui	a1,0x1
    76f0:	40b405b3          	sub	a1,s0,a1
    76f4:	f705b583          	ld	a1,-144(a1) # f70 <.LBB103_3+0xc9c>
    76f8:	017585b3          	add	a1,a1,s7
    76fc:	00b50533          	add	a0,a0,a1
    7700:	42455513          	srai	a0,a0,0x24
    7704:	00a025b3          	sgtz	a1,a0
    7708:	40b005b3          	neg	a1,a1
    770c:	00a5f533          	and	a0,a1,a0
    7710:	01954463          	blt	a0,s9,7718 <.LBB103_534>
    7714:	0ff00513          	li	a0,255

0000000000007718 <.LBB103_534>:
    7718:	f4a43c23          	sd	a0,-168(s0)
    771c:	00001537          	lui	a0,0x1
    7720:	40a40533          	sub	a0,s0,a0
    7724:	f7853503          	ld	a0,-136(a0) # f78 <.LBB103_3+0xca4>
    7728:	03850533          	mul	a0,a0,s8
    772c:	000015b7          	lui	a1,0x1
    7730:	40b405b3          	sub	a1,s0,a1
    7734:	f605b583          	ld	a1,-160(a1) # f60 <.LBB103_3+0xc8c>
    7738:	017585b3          	add	a1,a1,s7
    773c:	00b50533          	add	a0,a0,a1
    7740:	42455513          	srai	a0,a0,0x24
    7744:	00a025b3          	sgtz	a1,a0
    7748:	40b005b3          	neg	a1,a1
    774c:	00a5f533          	and	a0,a1,a0
    7750:	01954463          	blt	a0,s9,7758 <.LBB103_536>
    7754:	0ff00513          	li	a0,255

0000000000007758 <.LBB103_536>:
    7758:	f4a43823          	sd	a0,-176(s0)
    775c:	00001537          	lui	a0,0x1
    7760:	40a40533          	sub	a0,s0,a0
    7764:	da053503          	ld	a0,-608(a0) # da0 <.LBB103_3+0xacc>
    7768:	03850533          	mul	a0,a0,s8
    776c:	017885b3          	add	a1,a7,s7
    7770:	00b50533          	add	a0,a0,a1
    7774:	42455513          	srai	a0,a0,0x24
    7778:	00a025b3          	sgtz	a1,a0
    777c:	40b005b3          	neg	a1,a1
    7780:	00a5f533          	and	a0,a1,a0
    7784:	01954463          	blt	a0,s9,778c <.LBB103_538>
    7788:	0ff00513          	li	a0,255

000000000000778c <.LBB103_538>:
    778c:	f4a43423          	sd	a0,-184(s0)
    7790:	00001537          	lui	a0,0x1
    7794:	40a40533          	sub	a0,s0,a0
    7798:	db053503          	ld	a0,-592(a0) # db0 <.LBB103_3+0xadc>
    779c:	03850533          	mul	a0,a0,s8
    77a0:	000015b7          	lui	a1,0x1
    77a4:	40b405b3          	sub	a1,s0,a1
    77a8:	da85b583          	ld	a1,-600(a1) # da8 <.LBB103_3+0xad4>
    77ac:	017585b3          	add	a1,a1,s7
    77b0:	00b50533          	add	a0,a0,a1
    77b4:	42455513          	srai	a0,a0,0x24
    77b8:	00a025b3          	sgtz	a1,a0
    77bc:	40b005b3          	neg	a1,a1
    77c0:	00a5f533          	and	a0,a1,a0
    77c4:	01954463          	blt	a0,s9,77cc <.LBB103_540>
    77c8:	0ff00513          	li	a0,255

00000000000077cc <.LBB103_540>:
    77cc:	f4a43023          	sd	a0,-192(s0)
    77d0:	00001537          	lui	a0,0x1
    77d4:	40a40533          	sub	a0,s0,a0
    77d8:	dc053503          	ld	a0,-576(a0) # dc0 <.LBB103_3+0xaec>
    77dc:	03850533          	mul	a0,a0,s8
    77e0:	000015b7          	lui	a1,0x1
    77e4:	40b405b3          	sub	a1,s0,a1
    77e8:	db85b583          	ld	a1,-584(a1) # db8 <.LBB103_3+0xae4>
    77ec:	017585b3          	add	a1,a1,s7
    77f0:	00b50533          	add	a0,a0,a1
    77f4:	42455513          	srai	a0,a0,0x24
    77f8:	00a025b3          	sgtz	a1,a0
    77fc:	40b005b3          	neg	a1,a1
    7800:	00a5f533          	and	a0,a1,a0
    7804:	01954463          	blt	a0,s9,780c <.LBB103_542>
    7808:	0ff00513          	li	a0,255

000000000000780c <.LBB103_542>:
    780c:	f2a43c23          	sd	a0,-200(s0)
    7810:	00001537          	lui	a0,0x1
    7814:	40a40533          	sub	a0,s0,a0
    7818:	dd053503          	ld	a0,-560(a0) # dd0 <.LBB103_3+0xafc>
    781c:	03850533          	mul	a0,a0,s8
    7820:	000015b7          	lui	a1,0x1
    7824:	40b405b3          	sub	a1,s0,a1
    7828:	dc85b583          	ld	a1,-568(a1) # dc8 <.LBB103_3+0xaf4>
    782c:	017585b3          	add	a1,a1,s7
    7830:	00b50533          	add	a0,a0,a1
    7834:	42455513          	srai	a0,a0,0x24
    7838:	00a025b3          	sgtz	a1,a0
    783c:	40b005b3          	neg	a1,a1
    7840:	00a5f533          	and	a0,a1,a0
    7844:	01954463          	blt	a0,s9,784c <.LBB103_544>
    7848:	0ff00513          	li	a0,255

000000000000784c <.LBB103_544>:
    784c:	f2a43823          	sd	a0,-208(s0)
    7850:	00001537          	lui	a0,0x1
    7854:	40a40533          	sub	a0,s0,a0
    7858:	de053503          	ld	a0,-544(a0) # de0 <.LBB103_3+0xb0c>
    785c:	03850533          	mul	a0,a0,s8
    7860:	000015b7          	lui	a1,0x1
    7864:	40b405b3          	sub	a1,s0,a1
    7868:	dd85b583          	ld	a1,-552(a1) # dd8 <.LBB103_3+0xb04>
    786c:	017585b3          	add	a1,a1,s7
    7870:	00b50533          	add	a0,a0,a1
    7874:	42455513          	srai	a0,a0,0x24
    7878:	00a025b3          	sgtz	a1,a0
    787c:	40b005b3          	neg	a1,a1
    7880:	00a5f533          	and	a0,a1,a0
    7884:	01954463          	blt	a0,s9,788c <.LBB103_546>
    7888:	0ff00513          	li	a0,255

000000000000788c <.LBB103_546>:
    788c:	f2a43423          	sd	a0,-216(s0)
    7890:	00001537          	lui	a0,0x1
    7894:	40a40533          	sub	a0,s0,a0
    7898:	df053503          	ld	a0,-528(a0) # df0 <.LBB103_3+0xb1c>
    789c:	03850533          	mul	a0,a0,s8
    78a0:	000015b7          	lui	a1,0x1
    78a4:	40b405b3          	sub	a1,s0,a1
    78a8:	de85b583          	ld	a1,-536(a1) # de8 <.LBB103_3+0xb14>
    78ac:	017585b3          	add	a1,a1,s7
    78b0:	00b50533          	add	a0,a0,a1
    78b4:	42455513          	srai	a0,a0,0x24
    78b8:	00a025b3          	sgtz	a1,a0
    78bc:	40b005b3          	neg	a1,a1
    78c0:	00a5f533          	and	a0,a1,a0
    78c4:	01954463          	blt	a0,s9,78cc <.LBB103_548>
    78c8:	0ff00513          	li	a0,255

00000000000078cc <.LBB103_548>:
    78cc:	f2a43023          	sd	a0,-224(s0)
    78d0:	00001537          	lui	a0,0x1
    78d4:	40a40533          	sub	a0,s0,a0
    78d8:	e0053503          	ld	a0,-512(a0) # e00 <.LBB103_3+0xb2c>
    78dc:	03850533          	mul	a0,a0,s8
    78e0:	000015b7          	lui	a1,0x1
    78e4:	40b405b3          	sub	a1,s0,a1
    78e8:	df85b583          	ld	a1,-520(a1) # df8 <.LBB103_3+0xb24>
    78ec:	017585b3          	add	a1,a1,s7
    78f0:	00b50533          	add	a0,a0,a1
    78f4:	42455513          	srai	a0,a0,0x24
    78f8:	00a025b3          	sgtz	a1,a0
    78fc:	40b005b3          	neg	a1,a1
    7900:	00a5f533          	and	a0,a1,a0
    7904:	01954463          	blt	a0,s9,790c <.LBB103_550>
    7908:	0ff00513          	li	a0,255

000000000000790c <.LBB103_550>:
    790c:	f0a43c23          	sd	a0,-232(s0)
    7910:	00001537          	lui	a0,0x1
    7914:	40a40533          	sub	a0,s0,a0
    7918:	e1053503          	ld	a0,-496(a0) # e10 <.LBB103_3+0xb3c>
    791c:	03850533          	mul	a0,a0,s8
    7920:	000015b7          	lui	a1,0x1
    7924:	40b405b3          	sub	a1,s0,a1
    7928:	e085b583          	ld	a1,-504(a1) # e08 <.LBB103_3+0xb34>
    792c:	017585b3          	add	a1,a1,s7
    7930:	00b50533          	add	a0,a0,a1
    7934:	42455513          	srai	a0,a0,0x24
    7938:	00a025b3          	sgtz	a1,a0
    793c:	40b005b3          	neg	a1,a1
    7940:	00a5f533          	and	a0,a1,a0
    7944:	01954463          	blt	a0,s9,794c <.LBB103_552>
    7948:	0ff00513          	li	a0,255

000000000000794c <.LBB103_552>:
    794c:	f0a43823          	sd	a0,-240(s0)
    7950:	00001537          	lui	a0,0x1
    7954:	40a40533          	sub	a0,s0,a0
    7958:	e2053503          	ld	a0,-480(a0) # e20 <.LBB103_3+0xb4c>
    795c:	03850533          	mul	a0,a0,s8
    7960:	000015b7          	lui	a1,0x1
    7964:	40b405b3          	sub	a1,s0,a1
    7968:	e185b583          	ld	a1,-488(a1) # e18 <.LBB103_3+0xb44>
    796c:	017585b3          	add	a1,a1,s7
    7970:	00b50533          	add	a0,a0,a1
    7974:	42455513          	srai	a0,a0,0x24
    7978:	00a025b3          	sgtz	a1,a0
    797c:	40b005b3          	neg	a1,a1
    7980:	00a5f533          	and	a0,a1,a0
    7984:	01954463          	blt	a0,s9,798c <.LBB103_554>
    7988:	0ff00513          	li	a0,255

000000000000798c <.LBB103_554>:
    798c:	f0a43423          	sd	a0,-248(s0)
    7990:	00001537          	lui	a0,0x1
    7994:	40a40533          	sub	a0,s0,a0
    7998:	e3053503          	ld	a0,-464(a0) # e30 <.LBB103_3+0xb5c>
    799c:	03850533          	mul	a0,a0,s8
    79a0:	000015b7          	lui	a1,0x1
    79a4:	40b405b3          	sub	a1,s0,a1
    79a8:	e285b583          	ld	a1,-472(a1) # e28 <.LBB103_3+0xb54>
    79ac:	017585b3          	add	a1,a1,s7
    79b0:	00b50533          	add	a0,a0,a1
    79b4:	42455513          	srai	a0,a0,0x24
    79b8:	00a025b3          	sgtz	a1,a0
    79bc:	40b005b3          	neg	a1,a1
    79c0:	00a5f533          	and	a0,a1,a0
    79c4:	01954463          	blt	a0,s9,79cc <.LBB103_556>
    79c8:	0ff00513          	li	a0,255

00000000000079cc <.LBB103_556>:
    79cc:	f0a43023          	sd	a0,-256(s0)
    79d0:	00001537          	lui	a0,0x1
    79d4:	40a40533          	sub	a0,s0,a0
    79d8:	e4053503          	ld	a0,-448(a0) # e40 <.LBB103_3+0xb6c>
    79dc:	03850533          	mul	a0,a0,s8
    79e0:	000015b7          	lui	a1,0x1
    79e4:	40b405b3          	sub	a1,s0,a1
    79e8:	e385b583          	ld	a1,-456(a1) # e38 <.LBB103_3+0xb64>
    79ec:	017585b3          	add	a1,a1,s7
    79f0:	00b50533          	add	a0,a0,a1
    79f4:	42455513          	srai	a0,a0,0x24
    79f8:	00a025b3          	sgtz	a1,a0
    79fc:	40b005b3          	neg	a1,a1
    7a00:	00a5f533          	and	a0,a1,a0
    7a04:	01954463          	blt	a0,s9,7a0c <.LBB103_558>
    7a08:	0ff00513          	li	a0,255

0000000000007a0c <.LBB103_558>:
    7a0c:	eea43c23          	sd	a0,-264(s0)
    7a10:	00001537          	lui	a0,0x1
    7a14:	40a40533          	sub	a0,s0,a0
    7a18:	e5053503          	ld	a0,-432(a0) # e50 <.LBB103_3+0xb7c>
    7a1c:	03850533          	mul	a0,a0,s8
    7a20:	000015b7          	lui	a1,0x1
    7a24:	40b405b3          	sub	a1,s0,a1
    7a28:	e485b583          	ld	a1,-440(a1) # e48 <.LBB103_3+0xb74>
    7a2c:	017585b3          	add	a1,a1,s7
    7a30:	00b50533          	add	a0,a0,a1
    7a34:	42455513          	srai	a0,a0,0x24
    7a38:	00a025b3          	sgtz	a1,a0
    7a3c:	40b005b3          	neg	a1,a1
    7a40:	00a5f533          	and	a0,a1,a0
    7a44:	01954463          	blt	a0,s9,7a4c <.LBB103_560>
    7a48:	0ff00513          	li	a0,255

0000000000007a4c <.LBB103_560>:
    7a4c:	eea43823          	sd	a0,-272(s0)
    7a50:	00001537          	lui	a0,0x1
    7a54:	40a40533          	sub	a0,s0,a0
    7a58:	e6053503          	ld	a0,-416(a0) # e60 <.LBB103_3+0xb8c>
    7a5c:	03850533          	mul	a0,a0,s8
    7a60:	000015b7          	lui	a1,0x1
    7a64:	40b405b3          	sub	a1,s0,a1
    7a68:	e585b583          	ld	a1,-424(a1) # e58 <.LBB103_3+0xb84>
    7a6c:	017585b3          	add	a1,a1,s7
    7a70:	00b50533          	add	a0,a0,a1
    7a74:	42455513          	srai	a0,a0,0x24
    7a78:	00a025b3          	sgtz	a1,a0
    7a7c:	40b005b3          	neg	a1,a1
    7a80:	00a5f533          	and	a0,a1,a0
    7a84:	01954463          	blt	a0,s9,7a8c <.LBB103_562>
    7a88:	0ff00513          	li	a0,255

0000000000007a8c <.LBB103_562>:
    7a8c:	eea43023          	sd	a0,-288(s0)
    7a90:	00001537          	lui	a0,0x1
    7a94:	40a40533          	sub	a0,s0,a0
    7a98:	e7053503          	ld	a0,-400(a0) # e70 <.LBB103_3+0xb9c>
    7a9c:	03850533          	mul	a0,a0,s8
    7aa0:	000015b7          	lui	a1,0x1
    7aa4:	40b405b3          	sub	a1,s0,a1
    7aa8:	e685b583          	ld	a1,-408(a1) # e68 <.LBB103_3+0xb94>
    7aac:	017585b3          	add	a1,a1,s7
    7ab0:	00b50533          	add	a0,a0,a1
    7ab4:	42455513          	srai	a0,a0,0x24
    7ab8:	00a025b3          	sgtz	a1,a0
    7abc:	40b005b3          	neg	a1,a1
    7ac0:	00a5f533          	and	a0,a1,a0
    7ac4:	01954463          	blt	a0,s9,7acc <.LBB103_564>
    7ac8:	0ff00513          	li	a0,255

0000000000007acc <.LBB103_564>:
    7acc:	eca43c23          	sd	a0,-296(s0)
    7ad0:	00001537          	lui	a0,0x1
    7ad4:	40a40533          	sub	a0,s0,a0
    7ad8:	e8053503          	ld	a0,-384(a0) # e80 <.LBB103_3+0xbac>
    7adc:	03850533          	mul	a0,a0,s8
    7ae0:	000015b7          	lui	a1,0x1
    7ae4:	40b405b3          	sub	a1,s0,a1
    7ae8:	e785b583          	ld	a1,-392(a1) # e78 <.LBB103_3+0xba4>
    7aec:	017585b3          	add	a1,a1,s7
    7af0:	00b50533          	add	a0,a0,a1
    7af4:	42455513          	srai	a0,a0,0x24
    7af8:	00a025b3          	sgtz	a1,a0
    7afc:	40b005b3          	neg	a1,a1
    7b00:	00a5f533          	and	a0,a1,a0
    7b04:	01954463          	blt	a0,s9,7b0c <.LBB103_566>
    7b08:	0ff00513          	li	a0,255

0000000000007b0c <.LBB103_566>:
    7b0c:	eca43823          	sd	a0,-304(s0)
    7b10:	00001537          	lui	a0,0x1
    7b14:	40a40533          	sub	a0,s0,a0
    7b18:	e9053503          	ld	a0,-368(a0) # e90 <.LBB103_3+0xbbc>
    7b1c:	03850533          	mul	a0,a0,s8
    7b20:	000015b7          	lui	a1,0x1
    7b24:	40b405b3          	sub	a1,s0,a1
    7b28:	e885b583          	ld	a1,-376(a1) # e88 <.LBB103_3+0xbb4>
    7b2c:	017585b3          	add	a1,a1,s7
    7b30:	00b50533          	add	a0,a0,a1
    7b34:	42455513          	srai	a0,a0,0x24
    7b38:	00a025b3          	sgtz	a1,a0
    7b3c:	40b005b3          	neg	a1,a1
    7b40:	00a5f533          	and	a0,a1,a0
    7b44:	01954463          	blt	a0,s9,7b4c <.LBB103_568>
    7b48:	0ff00513          	li	a0,255

0000000000007b4c <.LBB103_568>:
    7b4c:	eaa43423          	sd	a0,-344(s0)
    7b50:	00001537          	lui	a0,0x1
    7b54:	40a40533          	sub	a0,s0,a0
    7b58:	ea053503          	ld	a0,-352(a0) # ea0 <.LBB103_3+0xbcc>
    7b5c:	03850533          	mul	a0,a0,s8
    7b60:	000015b7          	lui	a1,0x1
    7b64:	40b405b3          	sub	a1,s0,a1
    7b68:	e985b583          	ld	a1,-360(a1) # e98 <.LBB103_3+0xbc4>
    7b6c:	017585b3          	add	a1,a1,s7
    7b70:	00b50533          	add	a0,a0,a1
    7b74:	42455513          	srai	a0,a0,0x24
    7b78:	00a025b3          	sgtz	a1,a0
    7b7c:	40b005b3          	neg	a1,a1
    7b80:	00a5f533          	and	a0,a1,a0
    7b84:	01954463          	blt	a0,s9,7b8c <.LBB103_570>
    7b88:	0ff00513          	li	a0,255

0000000000007b8c <.LBB103_570>:
    7b8c:	e6a43c23          	sd	a0,-392(s0)
    7b90:	00001537          	lui	a0,0x1
    7b94:	40a40533          	sub	a0,s0,a0
    7b98:	eb053503          	ld	a0,-336(a0) # eb0 <.LBB103_3+0xbdc>
    7b9c:	03850533          	mul	a0,a0,s8
    7ba0:	000015b7          	lui	a1,0x1
    7ba4:	40b405b3          	sub	a1,s0,a1
    7ba8:	ea85b583          	ld	a1,-344(a1) # ea8 <.LBB103_3+0xbd4>
    7bac:	017585b3          	add	a1,a1,s7
    7bb0:	00b50533          	add	a0,a0,a1
    7bb4:	42455513          	srai	a0,a0,0x24
    7bb8:	00a025b3          	sgtz	a1,a0
    7bbc:	40b005b3          	neg	a1,a1
    7bc0:	00a5f533          	and	a0,a1,a0
    7bc4:	01954463          	blt	a0,s9,7bcc <.LBB103_572>
    7bc8:	0ff00513          	li	a0,255

0000000000007bcc <.LBB103_572>:
    7bcc:	e4a43c23          	sd	a0,-424(s0)
    7bd0:	00001537          	lui	a0,0x1
    7bd4:	40a40533          	sub	a0,s0,a0
    7bd8:	ec053503          	ld	a0,-320(a0) # ec0 <.LBB103_3+0xbec>
    7bdc:	03850533          	mul	a0,a0,s8
    7be0:	000015b7          	lui	a1,0x1
    7be4:	40b405b3          	sub	a1,s0,a1
    7be8:	eb85b583          	ld	a1,-328(a1) # eb8 <.LBB103_3+0xbe4>
    7bec:	017585b3          	add	a1,a1,s7
    7bf0:	00b50533          	add	a0,a0,a1
    7bf4:	42455513          	srai	a0,a0,0x24
    7bf8:	00a025b3          	sgtz	a1,a0
    7bfc:	40b005b3          	neg	a1,a1
    7c00:	00a5f533          	and	a0,a1,a0
    7c04:	01954463          	blt	a0,s9,7c0c <.LBB103_574>
    7c08:	0ff00513          	li	a0,255

0000000000007c0c <.LBB103_574>:
    7c0c:	e2a43423          	sd	a0,-472(s0)
    7c10:	00001537          	lui	a0,0x1
    7c14:	40a40533          	sub	a0,s0,a0
    7c18:	ed053503          	ld	a0,-304(a0) # ed0 <.LBB103_3+0xbfc>
    7c1c:	03850533          	mul	a0,a0,s8
    7c20:	000015b7          	lui	a1,0x1
    7c24:	40b405b3          	sub	a1,s0,a1
    7c28:	ec85b583          	ld	a1,-312(a1) # ec8 <.LBB103_3+0xbf4>
    7c2c:	017585b3          	add	a1,a1,s7
    7c30:	00b50533          	add	a0,a0,a1
    7c34:	42455513          	srai	a0,a0,0x24
    7c38:	00a025b3          	sgtz	a1,a0
    7c3c:	40b005b3          	neg	a1,a1
    7c40:	00a5f533          	and	a0,a1,a0
    7c44:	01954463          	blt	a0,s9,7c4c <.LBB103_576>
    7c48:	0ff00513          	li	a0,255

0000000000007c4c <.LBB103_576>:
    7c4c:	e2a43023          	sd	a0,-480(s0)
    7c50:	00001537          	lui	a0,0x1
    7c54:	40a40533          	sub	a0,s0,a0
    7c58:	ee053503          	ld	a0,-288(a0) # ee0 <.LBB103_3+0xc0c>
    7c5c:	03850533          	mul	a0,a0,s8
    7c60:	000015b7          	lui	a1,0x1
    7c64:	40b405b3          	sub	a1,s0,a1
    7c68:	ed85b583          	ld	a1,-296(a1) # ed8 <.LBB103_3+0xc04>
    7c6c:	017585b3          	add	a1,a1,s7
    7c70:	00b50533          	add	a0,a0,a1
    7c74:	42455513          	srai	a0,a0,0x24
    7c78:	00a025b3          	sgtz	a1,a0
    7c7c:	40b005b3          	neg	a1,a1
    7c80:	00a5f533          	and	a0,a1,a0
    7c84:	01954463          	blt	a0,s9,7c8c <.LBB103_578>
    7c88:	0ff00513          	li	a0,255

0000000000007c8c <.LBB103_578>:
    7c8c:	e0a43c23          	sd	a0,-488(s0)
    7c90:	00001537          	lui	a0,0x1
    7c94:	40a40533          	sub	a0,s0,a0
    7c98:	ef053503          	ld	a0,-272(a0) # ef0 <.LBB103_3+0xc1c>
    7c9c:	03850533          	mul	a0,a0,s8
    7ca0:	000015b7          	lui	a1,0x1
    7ca4:	40b405b3          	sub	a1,s0,a1
    7ca8:	ee85b583          	ld	a1,-280(a1) # ee8 <.LBB103_3+0xc14>
    7cac:	017585b3          	add	a1,a1,s7
    7cb0:	00b50533          	add	a0,a0,a1
    7cb4:	42455513          	srai	a0,a0,0x24
    7cb8:	00a025b3          	sgtz	a1,a0
    7cbc:	40b005b3          	neg	a1,a1
    7cc0:	00a5f533          	and	a0,a1,a0
    7cc4:	01954463          	blt	a0,s9,7ccc <.LBB103_580>
    7cc8:	0ff00513          	li	a0,255

0000000000007ccc <.LBB103_580>:
    7ccc:	e0a43823          	sd	a0,-496(s0)
    7cd0:	00001537          	lui	a0,0x1
    7cd4:	40a40533          	sub	a0,s0,a0
    7cd8:	f0853503          	ld	a0,-248(a0) # f08 <.LBB103_3+0xc34>
    7cdc:	03850533          	mul	a0,a0,s8
    7ce0:	000015b7          	lui	a1,0x1
    7ce4:	40b405b3          	sub	a1,s0,a1
    7ce8:	ef85b583          	ld	a1,-264(a1) # ef8 <.LBB103_3+0xc24>
    7cec:	017585b3          	add	a1,a1,s7
    7cf0:	00b50533          	add	a0,a0,a1
    7cf4:	42455513          	srai	a0,a0,0x24
    7cf8:	00a025b3          	sgtz	a1,a0
    7cfc:	40b005b3          	neg	a1,a1
    7d00:	00a5f533          	and	a0,a1,a0
    7d04:	01954463          	blt	a0,s9,7d0c <.LBB103_582>
    7d08:	0ff00513          	li	a0,255

0000000000007d0c <.LBB103_582>:
    7d0c:	e0a43423          	sd	a0,-504(s0)
    7d10:	00001537          	lui	a0,0x1
    7d14:	40a40533          	sub	a0,s0,a0
    7d18:	f1053503          	ld	a0,-240(a0) # f10 <.LBB103_3+0xc3c>
    7d1c:	03850533          	mul	a0,a0,s8
    7d20:	000015b7          	lui	a1,0x1
    7d24:	40b405b3          	sub	a1,s0,a1
    7d28:	f005b583          	ld	a1,-256(a1) # f00 <.LBB103_3+0xc2c>
    7d2c:	017585b3          	add	a1,a1,s7
    7d30:	00b50533          	add	a0,a0,a1
    7d34:	42455513          	srai	a0,a0,0x24
    7d38:	00a025b3          	sgtz	a1,a0
    7d3c:	40b005b3          	neg	a1,a1
    7d40:	00a5f533          	and	a0,a1,a0
    7d44:	01954463          	blt	a0,s9,7d4c <.LBB103_584>
    7d48:	0ff00513          	li	a0,255

0000000000007d4c <.LBB103_584>:
    7d4c:	e0a43023          	sd	a0,-512(s0)
    7d50:	00001537          	lui	a0,0x1
    7d54:	40a40533          	sub	a0,s0,a0
    7d58:	f2053503          	ld	a0,-224(a0) # f20 <.LBB103_3+0xc4c>
    7d5c:	03850533          	mul	a0,a0,s8
    7d60:	000015b7          	lui	a1,0x1
    7d64:	40b405b3          	sub	a1,s0,a1
    7d68:	f185b583          	ld	a1,-232(a1) # f18 <.LBB103_3+0xc44>
    7d6c:	017585b3          	add	a1,a1,s7
    7d70:	00b50533          	add	a0,a0,a1
    7d74:	42455513          	srai	a0,a0,0x24
    7d78:	00a025b3          	sgtz	a1,a0
    7d7c:	40b005b3          	neg	a1,a1
    7d80:	00a5f533          	and	a0,a1,a0
    7d84:	01954463          	blt	a0,s9,7d8c <.LBB103_586>
    7d88:	0ff00513          	li	a0,255

0000000000007d8c <.LBB103_586>:
    7d8c:	dea43c23          	sd	a0,-520(s0)
    7d90:	00001537          	lui	a0,0x1
    7d94:	40a40533          	sub	a0,s0,a0
    7d98:	f3053503          	ld	a0,-208(a0) # f30 <.LBB103_3+0xc5c>
    7d9c:	03850533          	mul	a0,a0,s8
    7da0:	000015b7          	lui	a1,0x1
    7da4:	40b405b3          	sub	a1,s0,a1
    7da8:	f285b583          	ld	a1,-216(a1) # f28 <.LBB103_3+0xc54>
    7dac:	017585b3          	add	a1,a1,s7
    7db0:	00b50533          	add	a0,a0,a1
    7db4:	42455513          	srai	a0,a0,0x24
    7db8:	00a025b3          	sgtz	a1,a0
    7dbc:	40b005b3          	neg	a1,a1
    7dc0:	00a5f533          	and	a0,a1,a0
    7dc4:	01954463          	blt	a0,s9,7dcc <.LBB103_588>
    7dc8:	0ff00513          	li	a0,255

0000000000007dcc <.LBB103_588>:
    7dcc:	c6a43823          	sd	a0,-912(s0)
    7dd0:	00001537          	lui	a0,0x1
    7dd4:	40a40533          	sub	a0,s0,a0
    7dd8:	f4053503          	ld	a0,-192(a0) # f40 <.LBB103_3+0xc6c>
    7ddc:	03850533          	mul	a0,a0,s8
    7de0:	000015b7          	lui	a1,0x1
    7de4:	40b405b3          	sub	a1,s0,a1
    7de8:	f385b583          	ld	a1,-200(a1) # f38 <.LBB103_3+0xc64>
    7dec:	017585b3          	add	a1,a1,s7
    7df0:	00b50533          	add	a0,a0,a1
    7df4:	42455513          	srai	a0,a0,0x24
    7df8:	00a025b3          	sgtz	a1,a0
    7dfc:	40b005b3          	neg	a1,a1
    7e00:	00a5f533          	and	a0,a1,a0
    7e04:	01954463          	blt	a0,s9,7e0c <.LBB103_590>
    7e08:	0ff00513          	li	a0,255

0000000000007e0c <.LBB103_590>:
    7e0c:	c2a43423          	sd	a0,-984(s0)
    7e10:	00001537          	lui	a0,0x1
    7e14:	40a40533          	sub	a0,s0,a0
    7e18:	f5053503          	ld	a0,-176(a0) # f50 <.LBB103_3+0xc7c>
    7e1c:	03850533          	mul	a0,a0,s8
    7e20:	000015b7          	lui	a1,0x1
    7e24:	40b405b3          	sub	a1,s0,a1
    7e28:	f485b583          	ld	a1,-184(a1) # f48 <.LBB103_3+0xc74>
    7e2c:	017585b3          	add	a1,a1,s7
    7e30:	00b50533          	add	a0,a0,a1
    7e34:	42455513          	srai	a0,a0,0x24
    7e38:	00a025b3          	sgtz	a1,a0
    7e3c:	40b005b3          	neg	a1,a1
    7e40:	00a5f533          	and	a0,a1,a0
    7e44:	01954463          	blt	a0,s9,7e4c <.LBB103_592>
    7e48:	0ff00513          	li	a0,255

0000000000007e4c <.LBB103_592>:
    7e4c:	bea43423          	sd	a0,-1048(s0)
    7e50:	00001537          	lui	a0,0x1
    7e54:	40a40533          	sub	a0,s0,a0
    7e58:	f6853503          	ld	a0,-152(a0) # f68 <.LBB103_3+0xc94>
    7e5c:	03850533          	mul	a0,a0,s8
    7e60:	000015b7          	lui	a1,0x1
    7e64:	40b405b3          	sub	a1,s0,a1
    7e68:	f585b583          	ld	a1,-168(a1) # f58 <.LBB103_3+0xc84>
    7e6c:	017585b3          	add	a1,a1,s7
    7e70:	00b50533          	add	a0,a0,a1
    7e74:	42455513          	srai	a0,a0,0x24
    7e78:	00a025b3          	sgtz	a1,a0
    7e7c:	40b005b3          	neg	a1,a1
    7e80:	00a5f533          	and	a0,a1,a0
    7e84:	01954463          	blt	a0,s9,7e8c <.LBB103_594>
    7e88:	0ff00513          	li	a0,255

0000000000007e8c <.LBB103_594>:
    7e8c:	baa43023          	sd	a0,-1120(s0)
    7e90:	00001537          	lui	a0,0x1
    7e94:	40a40533          	sub	a0,s0,a0
    7e98:	fa053503          	ld	a0,-96(a0) # fa0 <.LBB103_3+0xccc>
    7e9c:	03850533          	mul	a0,a0,s8
    7ea0:	000015b7          	lui	a1,0x1
    7ea4:	40b405b3          	sub	a1,s0,a1
    7ea8:	f805b583          	ld	a1,-128(a1) # f80 <.LBB103_3+0xcac>
    7eac:	017585b3          	add	a1,a1,s7
    7eb0:	00b50533          	add	a0,a0,a1
    7eb4:	42455513          	srai	a0,a0,0x24
    7eb8:	00a025b3          	sgtz	a1,a0
    7ebc:	40b005b3          	neg	a1,a1
    7ec0:	00a5f533          	and	a0,a1,a0
    7ec4:	01954463          	blt	a0,s9,7ecc <.LBB103_596>
    7ec8:	0ff00513          	li	a0,255

0000000000007ecc <.LBB103_596>:
    7ecc:	b4a43c23          	sd	a0,-1192(s0)
    7ed0:	00001537          	lui	a0,0x1
    7ed4:	40a40533          	sub	a0,s0,a0
    7ed8:	fe853503          	ld	a0,-24(a0) # fe8 <.LBB103_3+0xd14>
    7edc:	03850533          	mul	a0,a0,s8
    7ee0:	000015b7          	lui	a1,0x1
    7ee4:	40b405b3          	sub	a1,s0,a1
    7ee8:	fc05b583          	ld	a1,-64(a1) # fc0 <.LBB103_3+0xcec>
    7eec:	017585b3          	add	a1,a1,s7
    7ef0:	00b50533          	add	a0,a0,a1
    7ef4:	42455513          	srai	a0,a0,0x24
    7ef8:	00a025b3          	sgtz	a1,a0
    7efc:	40b005b3          	neg	a1,a1
    7f00:	00a5f533          	and	a0,a1,a0
    7f04:	01954463          	blt	a0,s9,7f0c <.LBB103_598>
    7f08:	0ff00513          	li	a0,255

0000000000007f0c <.LBB103_598>:
    7f0c:	b0a43c23          	sd	a0,-1256(s0)
    7f10:	00001537          	lui	a0,0x1
    7f14:	40a40533          	sub	a0,s0,a0
    7f18:	01853503          	ld	a0,24(a0) # 1018 <.LBB103_3+0xd44>
    7f1c:	03850533          	mul	a0,a0,s8
    7f20:	000015b7          	lui	a1,0x1
    7f24:	40b405b3          	sub	a1,s0,a1
    7f28:	0085b583          	ld	a1,8(a1) # 1008 <.LBB103_3+0xd34>
    7f2c:	017585b3          	add	a1,a1,s7
    7f30:	00b50533          	add	a0,a0,a1
    7f34:	42455513          	srai	a0,a0,0x24
    7f38:	00a025b3          	sgtz	a1,a0
    7f3c:	40b005b3          	neg	a1,a1
    7f40:	00a5f533          	and	a0,a1,a0
    7f44:	01954463          	blt	a0,s9,7f4c <.LBB103_600>
    7f48:	0ff00513          	li	a0,255

0000000000007f4c <.LBB103_600>:
    7f4c:	aca43823          	sd	a0,-1328(s0)
    7f50:	00001537          	lui	a0,0x1
    7f54:	40a40533          	sub	a0,s0,a0
    7f58:	03053503          	ld	a0,48(a0) # 1030 <.LBB103_3+0xd5c>
    7f5c:	03850533          	mul	a0,a0,s8
    7f60:	000015b7          	lui	a1,0x1
    7f64:	40b405b3          	sub	a1,s0,a1
    7f68:	0285b583          	ld	a1,40(a1) # 1028 <.LBB103_3+0xd54>
    7f6c:	017585b3          	add	a1,a1,s7
    7f70:	00b50533          	add	a0,a0,a1
    7f74:	42455513          	srai	a0,a0,0x24
    7f78:	00a025b3          	sgtz	a1,a0
    7f7c:	40b005b3          	neg	a1,a1
    7f80:	00a5f533          	and	a0,a1,a0
    7f84:	01954463          	blt	a0,s9,7f8c <.LBB103_602>
    7f88:	0ff00513          	li	a0,255

0000000000007f8c <.LBB103_602>:
    7f8c:	a8a43023          	sd	a0,-1408(s0)
    7f90:	00001537          	lui	a0,0x1
    7f94:	40a40533          	sub	a0,s0,a0
    7f98:	04053503          	ld	a0,64(a0) # 1040 <.LBB103_3+0xd6c>
    7f9c:	03850533          	mul	a0,a0,s8
    7fa0:	000015b7          	lui	a1,0x1
    7fa4:	40b405b3          	sub	a1,s0,a1
    7fa8:	0385b583          	ld	a1,56(a1) # 1038 <.LBB103_3+0xd64>
    7fac:	017585b3          	add	a1,a1,s7
    7fb0:	00b50533          	add	a0,a0,a1
    7fb4:	42455513          	srai	a0,a0,0x24
    7fb8:	00a025b3          	sgtz	a1,a0
    7fbc:	40b005b3          	neg	a1,a1
    7fc0:	00a5f533          	and	a0,a1,a0
    7fc4:	01954463          	blt	a0,s9,7fcc <.LBB103_604>
    7fc8:	0ff00513          	li	a0,255

0000000000007fcc <.LBB103_604>:
    7fcc:	a4a43023          	sd	a0,-1472(s0)
    7fd0:	00001537          	lui	a0,0x1
    7fd4:	40a40533          	sub	a0,s0,a0
    7fd8:	05053503          	ld	a0,80(a0) # 1050 <.LBB103_3+0xd7c>
    7fdc:	03850533          	mul	a0,a0,s8
    7fe0:	000015b7          	lui	a1,0x1
    7fe4:	40b405b3          	sub	a1,s0,a1
    7fe8:	0485b583          	ld	a1,72(a1) # 1048 <.LBB103_3+0xd74>
    7fec:	017585b3          	add	a1,a1,s7
    7ff0:	00b50533          	add	a0,a0,a1
    7ff4:	42455513          	srai	a0,a0,0x24
    7ff8:	00a025b3          	sgtz	a1,a0
    7ffc:	40b005b3          	neg	a1,a1
    8000:	00a5f533          	and	a0,a1,a0
    8004:	01954463          	blt	a0,s9,800c <.LBB103_606>
    8008:	0ff00513          	li	a0,255

000000000000800c <.LBB103_606>:
    800c:	9ea43c23          	sd	a0,-1544(s0)
    8010:	00001537          	lui	a0,0x1
    8014:	40a40533          	sub	a0,s0,a0
    8018:	06053503          	ld	a0,96(a0) # 1060 <.LBB103_3+0xd8c>
    801c:	03850533          	mul	a0,a0,s8
    8020:	000015b7          	lui	a1,0x1
    8024:	40b405b3          	sub	a1,s0,a1
    8028:	0585b583          	ld	a1,88(a1) # 1058 <.LBB103_3+0xd84>
    802c:	017585b3          	add	a1,a1,s7
    8030:	00b50533          	add	a0,a0,a1
    8034:	42455513          	srai	a0,a0,0x24
    8038:	00a025b3          	sgtz	a1,a0
    803c:	40b005b3          	neg	a1,a1
    8040:	00a5f533          	and	a0,a1,a0
    8044:	01954463          	blt	a0,s9,804c <.LBB103_608>
    8048:	0ff00513          	li	a0,255

000000000000804c <.LBB103_608>:
    804c:	9aa43c23          	sd	a0,-1608(s0)
    8050:	00001537          	lui	a0,0x1
    8054:	40a40533          	sub	a0,s0,a0
    8058:	07053503          	ld	a0,112(a0) # 1070 <.LBB103_3+0xd9c>
    805c:	03850533          	mul	a0,a0,s8
    8060:	000015b7          	lui	a1,0x1
    8064:	40b405b3          	sub	a1,s0,a1
    8068:	0685b583          	ld	a1,104(a1) # 1068 <.LBB103_3+0xd94>
    806c:	017585b3          	add	a1,a1,s7
    8070:	00b50533          	add	a0,a0,a1
    8074:	42455513          	srai	a0,a0,0x24
    8078:	00a025b3          	sgtz	a1,a0
    807c:	40b005b3          	neg	a1,a1
    8080:	00a5f533          	and	a0,a1,a0
    8084:	01954463          	blt	a0,s9,808c <.LBB103_610>
    8088:	0ff00513          	li	a0,255

000000000000808c <.LBB103_610>:
    808c:	96a43c23          	sd	a0,-1672(s0)
    8090:	00001537          	lui	a0,0x1
    8094:	40a40533          	sub	a0,s0,a0
    8098:	08053503          	ld	a0,128(a0) # 1080 <.LBB103_3+0xdac>
    809c:	03850533          	mul	a0,a0,s8
    80a0:	000015b7          	lui	a1,0x1
    80a4:	40b405b3          	sub	a1,s0,a1
    80a8:	0785b583          	ld	a1,120(a1) # 1078 <.LBB103_3+0xda4>
    80ac:	017585b3          	add	a1,a1,s7
    80b0:	00b50533          	add	a0,a0,a1
    80b4:	42455513          	srai	a0,a0,0x24
    80b8:	00a025b3          	sgtz	a1,a0
    80bc:	40b005b3          	neg	a1,a1
    80c0:	00a5f533          	and	a0,a1,a0
    80c4:	01954463          	blt	a0,s9,80cc <.LBB103_612>
    80c8:	0ff00513          	li	a0,255

00000000000080cc <.LBB103_612>:
    80cc:	92a43823          	sd	a0,-1744(s0)
    80d0:	00001537          	lui	a0,0x1
    80d4:	40a40533          	sub	a0,s0,a0
    80d8:	09053503          	ld	a0,144(a0) # 1090 <.LBB103_3+0xdbc>
    80dc:	03850533          	mul	a0,a0,s8
    80e0:	000015b7          	lui	a1,0x1
    80e4:	40b405b3          	sub	a1,s0,a1
    80e8:	0885b583          	ld	a1,136(a1) # 1088 <.LBB103_3+0xdb4>
    80ec:	017585b3          	add	a1,a1,s7
    80f0:	00b50533          	add	a0,a0,a1
    80f4:	42455513          	srai	a0,a0,0x24
    80f8:	00a025b3          	sgtz	a1,a0
    80fc:	40b005b3          	neg	a1,a1
    8100:	00a5f533          	and	a0,a1,a0
    8104:	01954463          	blt	a0,s9,810c <.LBB103_614>
    8108:	0ff00513          	li	a0,255

000000000000810c <.LBB103_614>:
    810c:	8ea43c23          	sd	a0,-1800(s0)
    8110:	00001537          	lui	a0,0x1
    8114:	40a40533          	sub	a0,s0,a0
    8118:	0a053503          	ld	a0,160(a0) # 10a0 <.LBB103_3+0xdcc>
    811c:	03850533          	mul	a0,a0,s8
    8120:	000015b7          	lui	a1,0x1
    8124:	40b405b3          	sub	a1,s0,a1
    8128:	0985b583          	ld	a1,152(a1) # 1098 <.LBB103_3+0xdc4>
    812c:	017585b3          	add	a1,a1,s7
    8130:	00b50533          	add	a0,a0,a1
    8134:	42455513          	srai	a0,a0,0x24
    8138:	00a025b3          	sgtz	a1,a0
    813c:	40b005b3          	neg	a1,a1
    8140:	00a5f533          	and	a0,a1,a0
    8144:	01954463          	blt	a0,s9,814c <.LBB103_616>
    8148:	0ff00513          	li	a0,255

000000000000814c <.LBB103_616>:
    814c:	8aa43c23          	sd	a0,-1864(s0)
    8150:	00001537          	lui	a0,0x1
    8154:	40a40533          	sub	a0,s0,a0
    8158:	0b053503          	ld	a0,176(a0) # 10b0 <.LBB103_3+0xddc>
    815c:	03850533          	mul	a0,a0,s8
    8160:	000015b7          	lui	a1,0x1
    8164:	40b405b3          	sub	a1,s0,a1
    8168:	0a85b583          	ld	a1,168(a1) # 10a8 <.LBB103_3+0xdd4>
    816c:	017585b3          	add	a1,a1,s7
    8170:	00b50533          	add	a0,a0,a1
    8174:	42455513          	srai	a0,a0,0x24
    8178:	00a025b3          	sgtz	a1,a0
    817c:	40b005b3          	neg	a1,a1
    8180:	00a5f533          	and	a0,a1,a0
    8184:	01954463          	blt	a0,s9,818c <.LBB103_618>
    8188:	0ff00513          	li	a0,255

000000000000818c <.LBB103_618>:
    818c:	86a43823          	sd	a0,-1936(s0)
    8190:	00001537          	lui	a0,0x1
    8194:	40a40533          	sub	a0,s0,a0
    8198:	0c053503          	ld	a0,192(a0) # 10c0 <.LBB103_3+0xdec>
    819c:	03850533          	mul	a0,a0,s8
    81a0:	000015b7          	lui	a1,0x1
    81a4:	40b405b3          	sub	a1,s0,a1
    81a8:	0b85b583          	ld	a1,184(a1) # 10b8 <.LBB103_3+0xde4>
    81ac:	017585b3          	add	a1,a1,s7
    81b0:	00b50533          	add	a0,a0,a1
    81b4:	42455513          	srai	a0,a0,0x24
    81b8:	00a025b3          	sgtz	a1,a0
    81bc:	40b005b3          	neg	a1,a1
    81c0:	00a5f533          	and	a0,a1,a0
    81c4:	01954463          	blt	a0,s9,81cc <.LBB103_620>
    81c8:	0ff00513          	li	a0,255

00000000000081cc <.LBB103_620>:
    81cc:	82a43823          	sd	a0,-2000(s0)
    81d0:	00001537          	lui	a0,0x1
    81d4:	40a40533          	sub	a0,s0,a0
    81d8:	7e853503          	ld	a0,2024(a0) # 17e8 <.LBB103_4+0x5a8>
    81dc:	03850533          	mul	a0,a0,s8
    81e0:	000015b7          	lui	a1,0x1
    81e4:	40b405b3          	sub	a1,s0,a1
    81e8:	0c85b583          	ld	a1,200(a1) # 10c8 <.LBB103_3+0xdf4>
    81ec:	017585b3          	add	a1,a1,s7
    81f0:	00b50533          	add	a0,a0,a1
    81f4:	42455513          	srai	a0,a0,0x24
    81f8:	00a025b3          	sgtz	a1,a0
    81fc:	40b005b3          	neg	a1,a1
    8200:	00a5f533          	and	a0,a1,a0
    8204:	01954463          	blt	a0,s9,820c <.LBB103_622>
    8208:	0ff00513          	li	a0,255

000000000000820c <.LBB103_622>:
    820c:	000015b7          	lui	a1,0x1
    8210:	40b405b3          	sub	a1,s0,a1
    8214:	7ea5b423          	sd	a0,2024(a1) # 17e8 <.LBB103_4+0x5a8>
    8218:	00001537          	lui	a0,0x1
    821c:	40a40533          	sub	a0,s0,a0
    8220:	7a853503          	ld	a0,1960(a0) # 17a8 <.LBB103_4+0x568>
    8224:	03850533          	mul	a0,a0,s8
    8228:	000015b7          	lui	a1,0x1
    822c:	40b405b3          	sub	a1,s0,a1
    8230:	0d05b583          	ld	a1,208(a1) # 10d0 <.LBB103_3+0xdfc>
    8234:	017585b3          	add	a1,a1,s7
    8238:	00b50533          	add	a0,a0,a1
    823c:	42455513          	srai	a0,a0,0x24
    8240:	00a025b3          	sgtz	a1,a0
    8244:	40b005b3          	neg	a1,a1
    8248:	00a5f533          	and	a0,a1,a0
    824c:	01954463          	blt	a0,s9,8254 <.LBB103_624>
    8250:	0ff00513          	li	a0,255

0000000000008254 <.LBB103_624>:
    8254:	000015b7          	lui	a1,0x1
    8258:	40b405b3          	sub	a1,s0,a1
    825c:	7aa5b423          	sd	a0,1960(a1) # 17a8 <.LBB103_4+0x568>
    8260:	00001537          	lui	a0,0x1
    8264:	40a40533          	sub	a0,s0,a0
    8268:	77853503          	ld	a0,1912(a0) # 1778 <.LBB103_4+0x538>
    826c:	03850533          	mul	a0,a0,s8
    8270:	000015b7          	lui	a1,0x1
    8274:	40b405b3          	sub	a1,s0,a1
    8278:	0d85b583          	ld	a1,216(a1) # 10d8 <.LBB103_3+0xe04>
    827c:	017585b3          	add	a1,a1,s7
    8280:	00b50533          	add	a0,a0,a1
    8284:	42455513          	srai	a0,a0,0x24
    8288:	00a025b3          	sgtz	a1,a0
    828c:	40b005b3          	neg	a1,a1
    8290:	00a5f533          	and	a0,a1,a0
    8294:	01954463          	blt	a0,s9,829c <.LBB103_626>
    8298:	0ff00513          	li	a0,255

000000000000829c <.LBB103_626>:
    829c:	000015b7          	lui	a1,0x1
    82a0:	40b405b3          	sub	a1,s0,a1
    82a4:	76a5bc23          	sd	a0,1912(a1) # 1778 <.LBB103_4+0x538>
    82a8:	00001537          	lui	a0,0x1
    82ac:	40a40533          	sub	a0,s0,a0
    82b0:	0e853503          	ld	a0,232(a0) # 10e8 <.LBB103_3+0xe14>
    82b4:	03850533          	mul	a0,a0,s8
    82b8:	000015b7          	lui	a1,0x1
    82bc:	40b405b3          	sub	a1,s0,a1
    82c0:	0e05b583          	ld	a1,224(a1) # 10e0 <.LBB103_3+0xe0c>
    82c4:	017585b3          	add	a1,a1,s7
    82c8:	00b50533          	add	a0,a0,a1
    82cc:	42455513          	srai	a0,a0,0x24
    82d0:	00a025b3          	sgtz	a1,a0
    82d4:	40b005b3          	neg	a1,a1
    82d8:	00a5f533          	and	a0,a1,a0
    82dc:	01954463          	blt	a0,s9,82e4 <.LBB103_628>
    82e0:	0ff00513          	li	a0,255

00000000000082e4 <.LBB103_628>:
    82e4:	000015b7          	lui	a1,0x1
    82e8:	40b405b3          	sub	a1,s0,a1
    82ec:	76a5b823          	sd	a0,1904(a1) # 1770 <.LBB103_4+0x530>
    82f0:	00001537          	lui	a0,0x1
    82f4:	40a40533          	sub	a0,s0,a0
    82f8:	0f853503          	ld	a0,248(a0) # 10f8 <.LBB103_3+0xe24>
    82fc:	03850533          	mul	a0,a0,s8
    8300:	000015b7          	lui	a1,0x1
    8304:	40b405b3          	sub	a1,s0,a1
    8308:	0f05b583          	ld	a1,240(a1) # 10f0 <.LBB103_3+0xe1c>
    830c:	017585b3          	add	a1,a1,s7
    8310:	00b50533          	add	a0,a0,a1
    8314:	42455513          	srai	a0,a0,0x24
    8318:	00a025b3          	sgtz	a1,a0
    831c:	40b005b3          	neg	a1,a1
    8320:	00a5f533          	and	a0,a1,a0
    8324:	01954463          	blt	a0,s9,832c <.LBB103_630>
    8328:	0ff00513          	li	a0,255

000000000000832c <.LBB103_630>:
    832c:	000015b7          	lui	a1,0x1
    8330:	40b405b3          	sub	a1,s0,a1
    8334:	76a5b423          	sd	a0,1896(a1) # 1768 <.LBB103_4+0x528>
    8338:	00001537          	lui	a0,0x1
    833c:	40a40533          	sub	a0,s0,a0
    8340:	10853503          	ld	a0,264(a0) # 1108 <.LBB103_3+0xe34>
    8344:	03850533          	mul	a0,a0,s8
    8348:	000015b7          	lui	a1,0x1
    834c:	40b405b3          	sub	a1,s0,a1
    8350:	1005b583          	ld	a1,256(a1) # 1100 <.LBB103_3+0xe2c>
    8354:	017585b3          	add	a1,a1,s7
    8358:	00b50533          	add	a0,a0,a1
    835c:	42455513          	srai	a0,a0,0x24
    8360:	00a025b3          	sgtz	a1,a0
    8364:	40b005b3          	neg	a1,a1
    8368:	00a5f533          	and	a0,a1,a0
    836c:	01954463          	blt	a0,s9,8374 <.LBB103_632>
    8370:	0ff00513          	li	a0,255

0000000000008374 <.LBB103_632>:
    8374:	000015b7          	lui	a1,0x1
    8378:	40b405b3          	sub	a1,s0,a1
    837c:	76a5b023          	sd	a0,1888(a1) # 1760 <.LBB103_4+0x520>
    8380:	00001537          	lui	a0,0x1
    8384:	40a40533          	sub	a0,s0,a0
    8388:	11853503          	ld	a0,280(a0) # 1118 <.LBB103_3+0xe44>
    838c:	03850533          	mul	a0,a0,s8
    8390:	000015b7          	lui	a1,0x1
    8394:	40b405b3          	sub	a1,s0,a1
    8398:	1105b583          	ld	a1,272(a1) # 1110 <.LBB103_3+0xe3c>
    839c:	017585b3          	add	a1,a1,s7
    83a0:	00b50533          	add	a0,a0,a1
    83a4:	42455513          	srai	a0,a0,0x24
    83a8:	00a025b3          	sgtz	a1,a0
    83ac:	40b005b3          	neg	a1,a1
    83b0:	00a5f533          	and	a0,a1,a0
    83b4:	01954463          	blt	a0,s9,83bc <.LBB103_634>
    83b8:	0ff00513          	li	a0,255

00000000000083bc <.LBB103_634>:
    83bc:	000015b7          	lui	a1,0x1
    83c0:	40b405b3          	sub	a1,s0,a1
    83c4:	74a5bc23          	sd	a0,1880(a1) # 1758 <.LBB103_4+0x518>
    83c8:	00001537          	lui	a0,0x1
    83cc:	40a40533          	sub	a0,s0,a0
    83d0:	12853503          	ld	a0,296(a0) # 1128 <.LBB103_3+0xe54>
    83d4:	03850533          	mul	a0,a0,s8
    83d8:	000015b7          	lui	a1,0x1
    83dc:	40b405b3          	sub	a1,s0,a1
    83e0:	1205b583          	ld	a1,288(a1) # 1120 <.LBB103_3+0xe4c>
    83e4:	017585b3          	add	a1,a1,s7
    83e8:	00b50533          	add	a0,a0,a1
    83ec:	42455513          	srai	a0,a0,0x24
    83f0:	00a025b3          	sgtz	a1,a0
    83f4:	40b005b3          	neg	a1,a1
    83f8:	00a5f533          	and	a0,a1,a0
    83fc:	01954463          	blt	a0,s9,8404 <.LBB103_636>
    8400:	0ff00513          	li	a0,255

0000000000008404 <.LBB103_636>:
    8404:	000015b7          	lui	a1,0x1
    8408:	40b405b3          	sub	a1,s0,a1
    840c:	74a5b823          	sd	a0,1872(a1) # 1750 <.LBB103_4+0x510>
    8410:	00001537          	lui	a0,0x1
    8414:	40a40533          	sub	a0,s0,a0
    8418:	13853503          	ld	a0,312(a0) # 1138 <.LBB103_3+0xe64>
    841c:	03850533          	mul	a0,a0,s8
    8420:	000015b7          	lui	a1,0x1
    8424:	40b405b3          	sub	a1,s0,a1
    8428:	1305b583          	ld	a1,304(a1) # 1130 <.LBB103_3+0xe5c>
    842c:	017585b3          	add	a1,a1,s7
    8430:	00b50533          	add	a0,a0,a1
    8434:	42455513          	srai	a0,a0,0x24
    8438:	00a025b3          	sgtz	a1,a0
    843c:	40b005b3          	neg	a1,a1
    8440:	00a5f533          	and	a0,a1,a0
    8444:	01954463          	blt	a0,s9,844c <.LBB103_638>
    8448:	0ff00513          	li	a0,255

000000000000844c <.LBB103_638>:
    844c:	000015b7          	lui	a1,0x1
    8450:	40b405b3          	sub	a1,s0,a1
    8454:	74a5b423          	sd	a0,1864(a1) # 1748 <.LBB103_4+0x508>
    8458:	00001537          	lui	a0,0x1
    845c:	40a40533          	sub	a0,s0,a0
    8460:	14853503          	ld	a0,328(a0) # 1148 <.LBB103_3+0xe74>
    8464:	03850533          	mul	a0,a0,s8
    8468:	000015b7          	lui	a1,0x1
    846c:	40b405b3          	sub	a1,s0,a1
    8470:	1405b583          	ld	a1,320(a1) # 1140 <.LBB103_3+0xe6c>
    8474:	017585b3          	add	a1,a1,s7
    8478:	00b50533          	add	a0,a0,a1
    847c:	42455513          	srai	a0,a0,0x24
    8480:	00a025b3          	sgtz	a1,a0
    8484:	40b005b3          	neg	a1,a1
    8488:	00a5f533          	and	a0,a1,a0
    848c:	01954463          	blt	a0,s9,8494 <.LBB103_640>
    8490:	0ff00513          	li	a0,255

0000000000008494 <.LBB103_640>:
    8494:	000015b7          	lui	a1,0x1
    8498:	40b405b3          	sub	a1,s0,a1
    849c:	74a5b023          	sd	a0,1856(a1) # 1740 <.LBB103_4+0x500>
    84a0:	00001537          	lui	a0,0x1
    84a4:	40a40533          	sub	a0,s0,a0
    84a8:	15853503          	ld	a0,344(a0) # 1158 <.LBB103_3+0xe84>
    84ac:	03850533          	mul	a0,a0,s8
    84b0:	000015b7          	lui	a1,0x1
    84b4:	40b405b3          	sub	a1,s0,a1
    84b8:	1505b583          	ld	a1,336(a1) # 1150 <.LBB103_3+0xe7c>
    84bc:	017585b3          	add	a1,a1,s7
    84c0:	00b50533          	add	a0,a0,a1
    84c4:	42455513          	srai	a0,a0,0x24
    84c8:	00a025b3          	sgtz	a1,a0
    84cc:	40b005b3          	neg	a1,a1
    84d0:	00a5f533          	and	a0,a1,a0
    84d4:	01954463          	blt	a0,s9,84dc <.LBB103_642>
    84d8:	0ff00513          	li	a0,255

00000000000084dc <.LBB103_642>:
    84dc:	000015b7          	lui	a1,0x1
    84e0:	40b405b3          	sub	a1,s0,a1
    84e4:	72a5bc23          	sd	a0,1848(a1) # 1738 <.LBB103_4+0x4f8>
    84e8:	00001537          	lui	a0,0x1
    84ec:	40a40533          	sub	a0,s0,a0
    84f0:	16853503          	ld	a0,360(a0) # 1168 <.LBB103_3+0xe94>
    84f4:	03850533          	mul	a0,a0,s8
    84f8:	000015b7          	lui	a1,0x1
    84fc:	40b405b3          	sub	a1,s0,a1
    8500:	1605b583          	ld	a1,352(a1) # 1160 <.LBB103_3+0xe8c>
    8504:	017585b3          	add	a1,a1,s7
    8508:	00b50533          	add	a0,a0,a1
    850c:	42455513          	srai	a0,a0,0x24
    8510:	00a025b3          	sgtz	a1,a0
    8514:	40b005b3          	neg	a1,a1
    8518:	00a5f533          	and	a0,a1,a0
    851c:	01954463          	blt	a0,s9,8524 <.LBB103_644>
    8520:	0ff00513          	li	a0,255

0000000000008524 <.LBB103_644>:
    8524:	000015b7          	lui	a1,0x1
    8528:	40b405b3          	sub	a1,s0,a1
    852c:	72a5b823          	sd	a0,1840(a1) # 1730 <.LBB103_4+0x4f0>
    8530:	00001537          	lui	a0,0x1
    8534:	40a40533          	sub	a0,s0,a0
    8538:	18053503          	ld	a0,384(a0) # 1180 <.LBB103_3+0xeac>
    853c:	03850533          	mul	a0,a0,s8
    8540:	000015b7          	lui	a1,0x1
    8544:	40b405b3          	sub	a1,s0,a1
    8548:	1705b583          	ld	a1,368(a1) # 1170 <.LBB103_3+0xe9c>
    854c:	017585b3          	add	a1,a1,s7
    8550:	00b50533          	add	a0,a0,a1
    8554:	42455513          	srai	a0,a0,0x24
    8558:	00a025b3          	sgtz	a1,a0
    855c:	40b005b3          	neg	a1,a1
    8560:	00a5f533          	and	a0,a1,a0
    8564:	01954463          	blt	a0,s9,856c <.LBB103_646>
    8568:	0ff00513          	li	a0,255

000000000000856c <.LBB103_646>:
    856c:	000015b7          	lui	a1,0x1
    8570:	40b405b3          	sub	a1,s0,a1
    8574:	72a5b423          	sd	a0,1832(a1) # 1728 <.LBB103_4+0x4e8>
    8578:	00001537          	lui	a0,0x1
    857c:	40a40533          	sub	a0,s0,a0
    8580:	18853503          	ld	a0,392(a0) # 1188 <.LBB103_3+0xeb4>
    8584:	03850533          	mul	a0,a0,s8
    8588:	000015b7          	lui	a1,0x1
    858c:	40b405b3          	sub	a1,s0,a1
    8590:	1785b583          	ld	a1,376(a1) # 1178 <.LBB103_3+0xea4>
    8594:	017585b3          	add	a1,a1,s7
    8598:	00b50533          	add	a0,a0,a1
    859c:	42455513          	srai	a0,a0,0x24
    85a0:	00a025b3          	sgtz	a1,a0
    85a4:	40b005b3          	neg	a1,a1
    85a8:	00a5f533          	and	a0,a1,a0
    85ac:	01954463          	blt	a0,s9,85b4 <.LBB103_648>
    85b0:	0ff00513          	li	a0,255

00000000000085b4 <.LBB103_648>:
    85b4:	000015b7          	lui	a1,0x1
    85b8:	40b405b3          	sub	a1,s0,a1
    85bc:	72a5b023          	sd	a0,1824(a1) # 1720 <.LBB103_4+0x4e0>
    85c0:	00001537          	lui	a0,0x1
    85c4:	40a40533          	sub	a0,s0,a0
    85c8:	19853503          	ld	a0,408(a0) # 1198 <.LBB103_3+0xec4>
    85cc:	03850533          	mul	a0,a0,s8
    85d0:	000015b7          	lui	a1,0x1
    85d4:	40b405b3          	sub	a1,s0,a1
    85d8:	1905b583          	ld	a1,400(a1) # 1190 <.LBB103_3+0xebc>
    85dc:	017585b3          	add	a1,a1,s7
    85e0:	00b50533          	add	a0,a0,a1
    85e4:	42455513          	srai	a0,a0,0x24
    85e8:	00a025b3          	sgtz	a1,a0
    85ec:	40b005b3          	neg	a1,a1
    85f0:	00a5f533          	and	a0,a1,a0
    85f4:	01954463          	blt	a0,s9,85fc <.LBB103_650>
    85f8:	0ff00513          	li	a0,255

00000000000085fc <.LBB103_650>:
    85fc:	000015b7          	lui	a1,0x1
    8600:	40b405b3          	sub	a1,s0,a1
    8604:	70a5bc23          	sd	a0,1816(a1) # 1718 <.LBB103_4+0x4d8>
    8608:	00001537          	lui	a0,0x1
    860c:	40a40533          	sub	a0,s0,a0
    8610:	1a853503          	ld	a0,424(a0) # 11a8 <.LBB103_3+0xed4>
    8614:	03850533          	mul	a0,a0,s8
    8618:	000015b7          	lui	a1,0x1
    861c:	40b405b3          	sub	a1,s0,a1
    8620:	1a05b583          	ld	a1,416(a1) # 11a0 <.LBB103_3+0xecc>
    8624:	017585b3          	add	a1,a1,s7
    8628:	00b50533          	add	a0,a0,a1
    862c:	42455513          	srai	a0,a0,0x24
    8630:	00a025b3          	sgtz	a1,a0
    8634:	40b005b3          	neg	a1,a1
    8638:	00a5f533          	and	a0,a1,a0
    863c:	01954463          	blt	a0,s9,8644 <.LBB103_652>
    8640:	0ff00513          	li	a0,255

0000000000008644 <.LBB103_652>:
    8644:	000015b7          	lui	a1,0x1
    8648:	40b405b3          	sub	a1,s0,a1
    864c:	70a5b823          	sd	a0,1808(a1) # 1710 <.LBB103_4+0x4d0>
    8650:	00001537          	lui	a0,0x1
    8654:	40a40533          	sub	a0,s0,a0
    8658:	1b853503          	ld	a0,440(a0) # 11b8 <.LBB103_3+0xee4>
    865c:	03850533          	mul	a0,a0,s8
    8660:	000015b7          	lui	a1,0x1
    8664:	40b405b3          	sub	a1,s0,a1
    8668:	1b05b583          	ld	a1,432(a1) # 11b0 <.LBB103_3+0xedc>
    866c:	017585b3          	add	a1,a1,s7
    8670:	00b50533          	add	a0,a0,a1
    8674:	42455513          	srai	a0,a0,0x24
    8678:	00a025b3          	sgtz	a1,a0
    867c:	40b005b3          	neg	a1,a1
    8680:	00a5f533          	and	a0,a1,a0
    8684:	01954463          	blt	a0,s9,868c <.LBB103_654>
    8688:	0ff00513          	li	a0,255

000000000000868c <.LBB103_654>:
    868c:	000015b7          	lui	a1,0x1
    8690:	40b405b3          	sub	a1,s0,a1
    8694:	70a5b423          	sd	a0,1800(a1) # 1708 <.LBB103_4+0x4c8>
    8698:	00001537          	lui	a0,0x1
    869c:	40a40533          	sub	a0,s0,a0
    86a0:	1c853503          	ld	a0,456(a0) # 11c8 <.LBB103_3+0xef4>
    86a4:	03850533          	mul	a0,a0,s8
    86a8:	000015b7          	lui	a1,0x1
    86ac:	40b405b3          	sub	a1,s0,a1
    86b0:	1c05b583          	ld	a1,448(a1) # 11c0 <.LBB103_3+0xeec>
    86b4:	017585b3          	add	a1,a1,s7
    86b8:	00b50533          	add	a0,a0,a1
    86bc:	42455513          	srai	a0,a0,0x24
    86c0:	00a025b3          	sgtz	a1,a0
    86c4:	40b005b3          	neg	a1,a1
    86c8:	00a5f533          	and	a0,a1,a0
    86cc:	01954463          	blt	a0,s9,86d4 <.LBB103_656>
    86d0:	0ff00513          	li	a0,255

00000000000086d4 <.LBB103_656>:
    86d4:	000015b7          	lui	a1,0x1
    86d8:	40b405b3          	sub	a1,s0,a1
    86dc:	70a5b023          	sd	a0,1792(a1) # 1700 <.LBB103_4+0x4c0>
    86e0:	00001537          	lui	a0,0x1
    86e4:	40a40533          	sub	a0,s0,a0
    86e8:	1d853503          	ld	a0,472(a0) # 11d8 <.LBB103_3+0xf04>
    86ec:	03850533          	mul	a0,a0,s8
    86f0:	000015b7          	lui	a1,0x1
    86f4:	40b405b3          	sub	a1,s0,a1
    86f8:	1d05b583          	ld	a1,464(a1) # 11d0 <.LBB103_3+0xefc>
    86fc:	017585b3          	add	a1,a1,s7
    8700:	00b50533          	add	a0,a0,a1
    8704:	42455513          	srai	a0,a0,0x24
    8708:	00a025b3          	sgtz	a1,a0
    870c:	40b005b3          	neg	a1,a1
    8710:	00a5f533          	and	a0,a1,a0
    8714:	01954463          	blt	a0,s9,871c <.LBB103_658>
    8718:	0ff00513          	li	a0,255

000000000000871c <.LBB103_658>:
    871c:	000015b7          	lui	a1,0x1
    8720:	40b405b3          	sub	a1,s0,a1
    8724:	6ea5bc23          	sd	a0,1784(a1) # 16f8 <.LBB103_4+0x4b8>
    8728:	00001537          	lui	a0,0x1
    872c:	40a40533          	sub	a0,s0,a0
    8730:	1e853503          	ld	a0,488(a0) # 11e8 <.LBB103_3+0xf14>
    8734:	03850533          	mul	a0,a0,s8
    8738:	000015b7          	lui	a1,0x1
    873c:	40b405b3          	sub	a1,s0,a1
    8740:	1e05b583          	ld	a1,480(a1) # 11e0 <.LBB103_3+0xf0c>
    8744:	017585b3          	add	a1,a1,s7
    8748:	00b50533          	add	a0,a0,a1
    874c:	42455513          	srai	a0,a0,0x24
    8750:	00a025b3          	sgtz	a1,a0
    8754:	40b005b3          	neg	a1,a1
    8758:	00a5f533          	and	a0,a1,a0
    875c:	01954463          	blt	a0,s9,8764 <.LBB103_660>
    8760:	0ff00513          	li	a0,255

0000000000008764 <.LBB103_660>:
    8764:	000015b7          	lui	a1,0x1
    8768:	40b405b3          	sub	a1,s0,a1
    876c:	6ea5b823          	sd	a0,1776(a1) # 16f0 <.LBB103_4+0x4b0>
    8770:	00001537          	lui	a0,0x1
    8774:	40a40533          	sub	a0,s0,a0
    8778:	1f853503          	ld	a0,504(a0) # 11f8 <.LBB103_3+0xf24>
    877c:	03850533          	mul	a0,a0,s8
    8780:	000015b7          	lui	a1,0x1
    8784:	40b405b3          	sub	a1,s0,a1
    8788:	1f05b583          	ld	a1,496(a1) # 11f0 <.LBB103_3+0xf1c>
    878c:	017585b3          	add	a1,a1,s7
    8790:	00b50533          	add	a0,a0,a1
    8794:	42455513          	srai	a0,a0,0x24
    8798:	00a025b3          	sgtz	a1,a0
    879c:	40b005b3          	neg	a1,a1
    87a0:	00a5f533          	and	a0,a1,a0
    87a4:	01954463          	blt	a0,s9,87ac <.LBB103_662>
    87a8:	0ff00513          	li	a0,255

00000000000087ac <.LBB103_662>:
    87ac:	000015b7          	lui	a1,0x1
    87b0:	40b405b3          	sub	a1,s0,a1
    87b4:	6ca5bc23          	sd	a0,1752(a1) # 16d8 <.LBB103_4+0x498>
    87b8:	00001537          	lui	a0,0x1
    87bc:	40a40533          	sub	a0,s0,a0
    87c0:	20853503          	ld	a0,520(a0) # 1208 <.LBB103_3+0xf34>
    87c4:	03850533          	mul	a0,a0,s8
    87c8:	000015b7          	lui	a1,0x1
    87cc:	40b405b3          	sub	a1,s0,a1
    87d0:	2005b583          	ld	a1,512(a1) # 1200 <.LBB103_3+0xf2c>
    87d4:	017585b3          	add	a1,a1,s7
    87d8:	00b50533          	add	a0,a0,a1
    87dc:	42455513          	srai	a0,a0,0x24
    87e0:	00a025b3          	sgtz	a1,a0
    87e4:	40b005b3          	neg	a1,a1
    87e8:	00a5f533          	and	a0,a1,a0
    87ec:	01954463          	blt	a0,s9,87f4 <.LBB103_664>
    87f0:	0ff00513          	li	a0,255

00000000000087f4 <.LBB103_664>:
    87f4:	000015b7          	lui	a1,0x1
    87f8:	40b405b3          	sub	a1,s0,a1
    87fc:	6ca5b823          	sd	a0,1744(a1) # 16d0 <.LBB103_4+0x490>
    8800:	00001537          	lui	a0,0x1
    8804:	40a40533          	sub	a0,s0,a0
    8808:	21853503          	ld	a0,536(a0) # 1218 <.LBB103_3+0xf44>
    880c:	03850533          	mul	a0,a0,s8
    8810:	000015b7          	lui	a1,0x1
    8814:	40b405b3          	sub	a1,s0,a1
    8818:	2105b583          	ld	a1,528(a1) # 1210 <.LBB103_3+0xf3c>
    881c:	017585b3          	add	a1,a1,s7
    8820:	00b50533          	add	a0,a0,a1
    8824:	42455513          	srai	a0,a0,0x24
    8828:	00a025b3          	sgtz	a1,a0
    882c:	40b005b3          	neg	a1,a1
    8830:	00a5f533          	and	a0,a1,a0
    8834:	01954463          	blt	a0,s9,883c <.LBB103_666>
    8838:	0ff00513          	li	a0,255

000000000000883c <.LBB103_666>:
    883c:	000015b7          	lui	a1,0x1
    8840:	40b405b3          	sub	a1,s0,a1
    8844:	6ca5b423          	sd	a0,1736(a1) # 16c8 <.LBB103_4+0x488>
    8848:	00001537          	lui	a0,0x1
    884c:	40a40533          	sub	a0,s0,a0
    8850:	22853503          	ld	a0,552(a0) # 1228 <.LBB103_3+0xf54>
    8854:	03850533          	mul	a0,a0,s8
    8858:	000015b7          	lui	a1,0x1
    885c:	40b405b3          	sub	a1,s0,a1
    8860:	2205b583          	ld	a1,544(a1) # 1220 <.LBB103_3+0xf4c>
    8864:	017585b3          	add	a1,a1,s7
    8868:	00b50533          	add	a0,a0,a1
    886c:	42455513          	srai	a0,a0,0x24
    8870:	00a025b3          	sgtz	a1,a0
    8874:	40b005b3          	neg	a1,a1
    8878:	00a5f533          	and	a0,a1,a0
    887c:	01954463          	blt	a0,s9,8884 <.LBB103_668>
    8880:	0ff00513          	li	a0,255

0000000000008884 <.LBB103_668>:
    8884:	000015b7          	lui	a1,0x1
    8888:	40b405b3          	sub	a1,s0,a1
    888c:	6ca5b023          	sd	a0,1728(a1) # 16c0 <.LBB103_4+0x480>
    8890:	00001537          	lui	a0,0x1
    8894:	40a40533          	sub	a0,s0,a0
    8898:	23853503          	ld	a0,568(a0) # 1238 <.LBB103_3+0xf64>
    889c:	03850533          	mul	a0,a0,s8
    88a0:	000015b7          	lui	a1,0x1
    88a4:	40b405b3          	sub	a1,s0,a1
    88a8:	2305b583          	ld	a1,560(a1) # 1230 <.LBB103_3+0xf5c>
    88ac:	017585b3          	add	a1,a1,s7
    88b0:	00b50533          	add	a0,a0,a1
    88b4:	42455513          	srai	a0,a0,0x24
    88b8:	00a025b3          	sgtz	a1,a0
    88bc:	40b005b3          	neg	a1,a1
    88c0:	00a5f533          	and	a0,a1,a0
    88c4:	01954463          	blt	a0,s9,88cc <.LBB103_670>
    88c8:	0ff00513          	li	a0,255

00000000000088cc <.LBB103_670>:
    88cc:	000015b7          	lui	a1,0x1
    88d0:	40b405b3          	sub	a1,s0,a1
    88d4:	6aa5bc23          	sd	a0,1720(a1) # 16b8 <.LBB103_4+0x478>
    88d8:	00001537          	lui	a0,0x1
    88dc:	40a40533          	sub	a0,s0,a0
    88e0:	24853503          	ld	a0,584(a0) # 1248 <.LBB103_4+0x8>
    88e4:	03850533          	mul	a0,a0,s8
    88e8:	000015b7          	lui	a1,0x1
    88ec:	40b405b3          	sub	a1,s0,a1
    88f0:	2405b583          	ld	a1,576(a1) # 1240 <.LBB103_4>
    88f4:	017585b3          	add	a1,a1,s7
    88f8:	00b50533          	add	a0,a0,a1
    88fc:	42455513          	srai	a0,a0,0x24
    8900:	00a025b3          	sgtz	a1,a0
    8904:	40b005b3          	neg	a1,a1
    8908:	00a5f533          	and	a0,a1,a0
    890c:	01954463          	blt	a0,s9,8914 <.LBB103_672>
    8910:	0ff00513          	li	a0,255

0000000000008914 <.LBB103_672>:
    8914:	000015b7          	lui	a1,0x1
    8918:	40b405b3          	sub	a1,s0,a1
    891c:	6aa5b823          	sd	a0,1712(a1) # 16b0 <.LBB103_4+0x470>
    8920:	00001537          	lui	a0,0x1
    8924:	40a40533          	sub	a0,s0,a0
    8928:	25853503          	ld	a0,600(a0) # 1258 <.LBB103_4+0x18>
    892c:	03850533          	mul	a0,a0,s8
    8930:	000015b7          	lui	a1,0x1
    8934:	40b405b3          	sub	a1,s0,a1
    8938:	2505b583          	ld	a1,592(a1) # 1250 <.LBB103_4+0x10>
    893c:	017585b3          	add	a1,a1,s7
    8940:	00b50533          	add	a0,a0,a1
    8944:	42455513          	srai	a0,a0,0x24
    8948:	00a025b3          	sgtz	a1,a0
    894c:	40b005b3          	neg	a1,a1
    8950:	00a5f533          	and	a0,a1,a0
    8954:	01954463          	blt	a0,s9,895c <.LBB103_674>
    8958:	0ff00513          	li	a0,255

000000000000895c <.LBB103_674>:
    895c:	000015b7          	lui	a1,0x1
    8960:	40b405b3          	sub	a1,s0,a1
    8964:	6aa5b423          	sd	a0,1704(a1) # 16a8 <.LBB103_4+0x468>
    8968:	00001537          	lui	a0,0x1
    896c:	40a40533          	sub	a0,s0,a0
    8970:	26853503          	ld	a0,616(a0) # 1268 <.LBB103_4+0x28>
    8974:	03850533          	mul	a0,a0,s8
    8978:	000015b7          	lui	a1,0x1
    897c:	40b405b3          	sub	a1,s0,a1
    8980:	2605b583          	ld	a1,608(a1) # 1260 <.LBB103_4+0x20>
    8984:	017585b3          	add	a1,a1,s7
    8988:	00b50533          	add	a0,a0,a1
    898c:	42455513          	srai	a0,a0,0x24
    8990:	00a025b3          	sgtz	a1,a0
    8994:	40b005b3          	neg	a1,a1
    8998:	00a5f533          	and	a0,a1,a0
    899c:	01954463          	blt	a0,s9,89a4 <.LBB103_676>
    89a0:	0ff00513          	li	a0,255

00000000000089a4 <.LBB103_676>:
    89a4:	000015b7          	lui	a1,0x1
    89a8:	40b405b3          	sub	a1,s0,a1
    89ac:	6aa5b023          	sd	a0,1696(a1) # 16a0 <.LBB103_4+0x460>
    89b0:	00001537          	lui	a0,0x1
    89b4:	40a40533          	sub	a0,s0,a0
    89b8:	27853503          	ld	a0,632(a0) # 1278 <.LBB103_4+0x38>
    89bc:	03850533          	mul	a0,a0,s8
    89c0:	000015b7          	lui	a1,0x1
    89c4:	40b405b3          	sub	a1,s0,a1
    89c8:	2705b583          	ld	a1,624(a1) # 1270 <.LBB103_4+0x30>
    89cc:	017585b3          	add	a1,a1,s7
    89d0:	00b50533          	add	a0,a0,a1
    89d4:	42455513          	srai	a0,a0,0x24
    89d8:	00a025b3          	sgtz	a1,a0
    89dc:	40b005b3          	neg	a1,a1
    89e0:	00a5f533          	and	a0,a1,a0
    89e4:	01954463          	blt	a0,s9,89ec <.LBB103_678>
    89e8:	0ff00513          	li	a0,255

00000000000089ec <.LBB103_678>:
    89ec:	000015b7          	lui	a1,0x1
    89f0:	40b405b3          	sub	a1,s0,a1
    89f4:	68a5bc23          	sd	a0,1688(a1) # 1698 <.LBB103_4+0x458>
    89f8:	00001537          	lui	a0,0x1
    89fc:	40a40533          	sub	a0,s0,a0
    8a00:	28853503          	ld	a0,648(a0) # 1288 <.LBB103_4+0x48>
    8a04:	03850533          	mul	a0,a0,s8
    8a08:	000015b7          	lui	a1,0x1
    8a0c:	40b405b3          	sub	a1,s0,a1
    8a10:	2805b583          	ld	a1,640(a1) # 1280 <.LBB103_4+0x40>
    8a14:	017585b3          	add	a1,a1,s7
    8a18:	00b50533          	add	a0,a0,a1
    8a1c:	42455513          	srai	a0,a0,0x24
    8a20:	00a025b3          	sgtz	a1,a0
    8a24:	40b005b3          	neg	a1,a1
    8a28:	00a5f533          	and	a0,a1,a0
    8a2c:	01954463          	blt	a0,s9,8a34 <.LBB103_680>
    8a30:	0ff00513          	li	a0,255

0000000000008a34 <.LBB103_680>:
    8a34:	000015b7          	lui	a1,0x1
    8a38:	40b405b3          	sub	a1,s0,a1
    8a3c:	68a5b823          	sd	a0,1680(a1) # 1690 <.LBB103_4+0x450>
    8a40:	00001537          	lui	a0,0x1
    8a44:	40a40533          	sub	a0,s0,a0
    8a48:	29853503          	ld	a0,664(a0) # 1298 <.LBB103_4+0x58>
    8a4c:	03850533          	mul	a0,a0,s8
    8a50:	000015b7          	lui	a1,0x1
    8a54:	40b405b3          	sub	a1,s0,a1
    8a58:	2905b583          	ld	a1,656(a1) # 1290 <.LBB103_4+0x50>
    8a5c:	017585b3          	add	a1,a1,s7
    8a60:	00b50533          	add	a0,a0,a1
    8a64:	42455513          	srai	a0,a0,0x24
    8a68:	00a025b3          	sgtz	a1,a0
    8a6c:	40b005b3          	neg	a1,a1
    8a70:	00a5f533          	and	a0,a1,a0
    8a74:	01954463          	blt	a0,s9,8a7c <.LBB103_682>
    8a78:	0ff00513          	li	a0,255

0000000000008a7c <.LBB103_682>:
    8a7c:	000015b7          	lui	a1,0x1
    8a80:	40b405b3          	sub	a1,s0,a1
    8a84:	28a5bc23          	sd	a0,664(a1) # 1298 <.LBB103_4+0x58>
    8a88:	00001537          	lui	a0,0x1
    8a8c:	40a40533          	sub	a0,s0,a0
    8a90:	2a853503          	ld	a0,680(a0) # 12a8 <.LBB103_4+0x68>
    8a94:	03850533          	mul	a0,a0,s8
    8a98:	000015b7          	lui	a1,0x1
    8a9c:	40b405b3          	sub	a1,s0,a1
    8aa0:	2a05b583          	ld	a1,672(a1) # 12a0 <.LBB103_4+0x60>
    8aa4:	017585b3          	add	a1,a1,s7
    8aa8:	00b50533          	add	a0,a0,a1
    8aac:	42455513          	srai	a0,a0,0x24
    8ab0:	00a025b3          	sgtz	a1,a0
    8ab4:	40b005b3          	neg	a1,a1
    8ab8:	00a5f533          	and	a0,a1,a0
    8abc:	01954463          	blt	a0,s9,8ac4 <.LBB103_684>
    8ac0:	0ff00513          	li	a0,255

0000000000008ac4 <.LBB103_684>:
    8ac4:	000015b7          	lui	a1,0x1
    8ac8:	40b405b3          	sub	a1,s0,a1
    8acc:	2aa5b423          	sd	a0,680(a1) # 12a8 <.LBB103_4+0x68>
    8ad0:	00001537          	lui	a0,0x1
    8ad4:	40a40533          	sub	a0,s0,a0
    8ad8:	2b853503          	ld	a0,696(a0) # 12b8 <.LBB103_4+0x78>
    8adc:	03850533          	mul	a0,a0,s8
    8ae0:	000015b7          	lui	a1,0x1
    8ae4:	40b405b3          	sub	a1,s0,a1
    8ae8:	2b05b583          	ld	a1,688(a1) # 12b0 <.LBB103_4+0x70>
    8aec:	017585b3          	add	a1,a1,s7
    8af0:	00b50533          	add	a0,a0,a1
    8af4:	42455513          	srai	a0,a0,0x24
    8af8:	00a025b3          	sgtz	a1,a0
    8afc:	40b005b3          	neg	a1,a1
    8b00:	00a5f533          	and	a0,a1,a0
    8b04:	01954463          	blt	a0,s9,8b0c <.LBB103_686>
    8b08:	0ff00513          	li	a0,255

0000000000008b0c <.LBB103_686>:
    8b0c:	000015b7          	lui	a1,0x1
    8b10:	40b405b3          	sub	a1,s0,a1
    8b14:	2aa5bc23          	sd	a0,696(a1) # 12b8 <.LBB103_4+0x78>
    8b18:	00001537          	lui	a0,0x1
    8b1c:	40a40533          	sub	a0,s0,a0
    8b20:	2c853503          	ld	a0,712(a0) # 12c8 <.LBB103_4+0x88>
    8b24:	03850533          	mul	a0,a0,s8
    8b28:	000015b7          	lui	a1,0x1
    8b2c:	40b405b3          	sub	a1,s0,a1
    8b30:	2c05b583          	ld	a1,704(a1) # 12c0 <.LBB103_4+0x80>
    8b34:	017585b3          	add	a1,a1,s7
    8b38:	00b50533          	add	a0,a0,a1
    8b3c:	42455513          	srai	a0,a0,0x24
    8b40:	00a025b3          	sgtz	a1,a0
    8b44:	40b005b3          	neg	a1,a1
    8b48:	00a5f533          	and	a0,a1,a0
    8b4c:	01954463          	blt	a0,s9,8b54 <.LBB103_688>
    8b50:	0ff00513          	li	a0,255

0000000000008b54 <.LBB103_688>:
    8b54:	000015b7          	lui	a1,0x1
    8b58:	40b405b3          	sub	a1,s0,a1
    8b5c:	2ca5b423          	sd	a0,712(a1) # 12c8 <.LBB103_4+0x88>
    8b60:	00001537          	lui	a0,0x1
    8b64:	40a40533          	sub	a0,s0,a0
    8b68:	2d853503          	ld	a0,728(a0) # 12d8 <.LBB103_4+0x98>
    8b6c:	03850533          	mul	a0,a0,s8
    8b70:	000015b7          	lui	a1,0x1
    8b74:	40b405b3          	sub	a1,s0,a1
    8b78:	2d05b583          	ld	a1,720(a1) # 12d0 <.LBB103_4+0x90>
    8b7c:	017585b3          	add	a1,a1,s7
    8b80:	00b50533          	add	a0,a0,a1
    8b84:	42455513          	srai	a0,a0,0x24
    8b88:	00a025b3          	sgtz	a1,a0
    8b8c:	40b005b3          	neg	a1,a1
    8b90:	00a5f533          	and	a0,a1,a0
    8b94:	01954463          	blt	a0,s9,8b9c <.LBB103_690>
    8b98:	0ff00513          	li	a0,255

0000000000008b9c <.LBB103_690>:
    8b9c:	000015b7          	lui	a1,0x1
    8ba0:	40b405b3          	sub	a1,s0,a1
    8ba4:	2ca5bc23          	sd	a0,728(a1) # 12d8 <.LBB103_4+0x98>
    8ba8:	00001537          	lui	a0,0x1
    8bac:	40a40533          	sub	a0,s0,a0
    8bb0:	2e853503          	ld	a0,744(a0) # 12e8 <.LBB103_4+0xa8>
    8bb4:	03850533          	mul	a0,a0,s8
    8bb8:	000015b7          	lui	a1,0x1
    8bbc:	40b405b3          	sub	a1,s0,a1
    8bc0:	2e05b583          	ld	a1,736(a1) # 12e0 <.LBB103_4+0xa0>
    8bc4:	017585b3          	add	a1,a1,s7
    8bc8:	00b50533          	add	a0,a0,a1
    8bcc:	42455513          	srai	a0,a0,0x24
    8bd0:	00a025b3          	sgtz	a1,a0
    8bd4:	40b005b3          	neg	a1,a1
    8bd8:	00a5f533          	and	a0,a1,a0
    8bdc:	01954463          	blt	a0,s9,8be4 <.LBB103_692>
    8be0:	0ff00513          	li	a0,255

0000000000008be4 <.LBB103_692>:
    8be4:	000015b7          	lui	a1,0x1
    8be8:	40b405b3          	sub	a1,s0,a1
    8bec:	2ea5b423          	sd	a0,744(a1) # 12e8 <.LBB103_4+0xa8>
    8bf0:	00001537          	lui	a0,0x1
    8bf4:	40a40533          	sub	a0,s0,a0
    8bf8:	2f853503          	ld	a0,760(a0) # 12f8 <.LBB103_4+0xb8>
    8bfc:	03850533          	mul	a0,a0,s8
    8c00:	000015b7          	lui	a1,0x1
    8c04:	40b405b3          	sub	a1,s0,a1
    8c08:	2f05b583          	ld	a1,752(a1) # 12f0 <.LBB103_4+0xb0>
    8c0c:	017585b3          	add	a1,a1,s7
    8c10:	00b50533          	add	a0,a0,a1
    8c14:	42455513          	srai	a0,a0,0x24
    8c18:	00a025b3          	sgtz	a1,a0
    8c1c:	40b005b3          	neg	a1,a1
    8c20:	00a5f533          	and	a0,a1,a0
    8c24:	01954463          	blt	a0,s9,8c2c <.LBB103_694>
    8c28:	0ff00513          	li	a0,255

0000000000008c2c <.LBB103_694>:
    8c2c:	000015b7          	lui	a1,0x1
    8c30:	40b405b3          	sub	a1,s0,a1
    8c34:	2ea5bc23          	sd	a0,760(a1) # 12f8 <.LBB103_4+0xb8>
    8c38:	00001537          	lui	a0,0x1
    8c3c:	40a40533          	sub	a0,s0,a0
    8c40:	30853503          	ld	a0,776(a0) # 1308 <.LBB103_4+0xc8>
    8c44:	03850533          	mul	a0,a0,s8
    8c48:	000015b7          	lui	a1,0x1
    8c4c:	40b405b3          	sub	a1,s0,a1
    8c50:	3005b583          	ld	a1,768(a1) # 1300 <.LBB103_4+0xc0>
    8c54:	017585b3          	add	a1,a1,s7
    8c58:	00b50533          	add	a0,a0,a1
    8c5c:	42455513          	srai	a0,a0,0x24
    8c60:	00a025b3          	sgtz	a1,a0
    8c64:	40b005b3          	neg	a1,a1
    8c68:	00a5f533          	and	a0,a1,a0
    8c6c:	01954463          	blt	a0,s9,8c74 <.LBB103_696>
    8c70:	0ff00513          	li	a0,255

0000000000008c74 <.LBB103_696>:
    8c74:	000015b7          	lui	a1,0x1
    8c78:	40b405b3          	sub	a1,s0,a1
    8c7c:	30a5b423          	sd	a0,776(a1) # 1308 <.LBB103_4+0xc8>
    8c80:	00001537          	lui	a0,0x1
    8c84:	40a40533          	sub	a0,s0,a0
    8c88:	31853503          	ld	a0,792(a0) # 1318 <.LBB103_4+0xd8>
    8c8c:	03850533          	mul	a0,a0,s8
    8c90:	000015b7          	lui	a1,0x1
    8c94:	40b405b3          	sub	a1,s0,a1
    8c98:	3105b583          	ld	a1,784(a1) # 1310 <.LBB103_4+0xd0>
    8c9c:	017585b3          	add	a1,a1,s7
    8ca0:	00b50533          	add	a0,a0,a1
    8ca4:	42455513          	srai	a0,a0,0x24
    8ca8:	00a025b3          	sgtz	a1,a0
    8cac:	40b005b3          	neg	a1,a1
    8cb0:	00a5f533          	and	a0,a1,a0
    8cb4:	01954463          	blt	a0,s9,8cbc <.LBB103_698>
    8cb8:	0ff00513          	li	a0,255

0000000000008cbc <.LBB103_698>:
    8cbc:	000015b7          	lui	a1,0x1
    8cc0:	40b405b3          	sub	a1,s0,a1
    8cc4:	30a5bc23          	sd	a0,792(a1) # 1318 <.LBB103_4+0xd8>
    8cc8:	00001537          	lui	a0,0x1
    8ccc:	40a40533          	sub	a0,s0,a0
    8cd0:	32853503          	ld	a0,808(a0) # 1328 <.LBB103_4+0xe8>
    8cd4:	03850533          	mul	a0,a0,s8
    8cd8:	000015b7          	lui	a1,0x1
    8cdc:	40b405b3          	sub	a1,s0,a1
    8ce0:	3205b583          	ld	a1,800(a1) # 1320 <.LBB103_4+0xe0>
    8ce4:	017585b3          	add	a1,a1,s7
    8ce8:	00b50533          	add	a0,a0,a1
    8cec:	42455513          	srai	a0,a0,0x24
    8cf0:	00a025b3          	sgtz	a1,a0
    8cf4:	40b005b3          	neg	a1,a1
    8cf8:	00a5f533          	and	a0,a1,a0
    8cfc:	01954463          	blt	a0,s9,8d04 <.LBB103_700>
    8d00:	0ff00513          	li	a0,255

0000000000008d04 <.LBB103_700>:
    8d04:	000015b7          	lui	a1,0x1
    8d08:	40b405b3          	sub	a1,s0,a1
    8d0c:	32a5b423          	sd	a0,808(a1) # 1328 <.LBB103_4+0xe8>
    8d10:	00001537          	lui	a0,0x1
    8d14:	40a40533          	sub	a0,s0,a0
    8d18:	33853503          	ld	a0,824(a0) # 1338 <.LBB103_4+0xf8>
    8d1c:	03850533          	mul	a0,a0,s8
    8d20:	000015b7          	lui	a1,0x1
    8d24:	40b405b3          	sub	a1,s0,a1
    8d28:	3305b583          	ld	a1,816(a1) # 1330 <.LBB103_4+0xf0>
    8d2c:	017585b3          	add	a1,a1,s7
    8d30:	00b50533          	add	a0,a0,a1
    8d34:	42455513          	srai	a0,a0,0x24
    8d38:	00a025b3          	sgtz	a1,a0
    8d3c:	40b005b3          	neg	a1,a1
    8d40:	00a5f533          	and	a0,a1,a0
    8d44:	01954463          	blt	a0,s9,8d4c <.LBB103_702>
    8d48:	0ff00513          	li	a0,255

0000000000008d4c <.LBB103_702>:
    8d4c:	000015b7          	lui	a1,0x1
    8d50:	40b405b3          	sub	a1,s0,a1
    8d54:	32a5bc23          	sd	a0,824(a1) # 1338 <.LBB103_4+0xf8>
    8d58:	00001537          	lui	a0,0x1
    8d5c:	40a40533          	sub	a0,s0,a0
    8d60:	34853503          	ld	a0,840(a0) # 1348 <.LBB103_4+0x108>
    8d64:	03850533          	mul	a0,a0,s8
    8d68:	000015b7          	lui	a1,0x1
    8d6c:	40b405b3          	sub	a1,s0,a1
    8d70:	3405b583          	ld	a1,832(a1) # 1340 <.LBB103_4+0x100>
    8d74:	017585b3          	add	a1,a1,s7
    8d78:	00b50533          	add	a0,a0,a1
    8d7c:	42455513          	srai	a0,a0,0x24
    8d80:	00a025b3          	sgtz	a1,a0
    8d84:	40b005b3          	neg	a1,a1
    8d88:	00a5f533          	and	a0,a1,a0
    8d8c:	01954463          	blt	a0,s9,8d94 <.LBB103_704>
    8d90:	0ff00513          	li	a0,255

0000000000008d94 <.LBB103_704>:
    8d94:	000015b7          	lui	a1,0x1
    8d98:	40b405b3          	sub	a1,s0,a1
    8d9c:	34a5b423          	sd	a0,840(a1) # 1348 <.LBB103_4+0x108>
    8da0:	00001537          	lui	a0,0x1
    8da4:	40a40533          	sub	a0,s0,a0
    8da8:	35853503          	ld	a0,856(a0) # 1358 <.LBB103_4+0x118>
    8dac:	03850533          	mul	a0,a0,s8
    8db0:	000015b7          	lui	a1,0x1
    8db4:	40b405b3          	sub	a1,s0,a1
    8db8:	3505b583          	ld	a1,848(a1) # 1350 <.LBB103_4+0x110>
    8dbc:	017585b3          	add	a1,a1,s7
    8dc0:	00b50533          	add	a0,a0,a1
    8dc4:	42455513          	srai	a0,a0,0x24
    8dc8:	00a025b3          	sgtz	a1,a0
    8dcc:	40b005b3          	neg	a1,a1
    8dd0:	00a5f533          	and	a0,a1,a0
    8dd4:	01954463          	blt	a0,s9,8ddc <.LBB103_706>
    8dd8:	0ff00513          	li	a0,255

0000000000008ddc <.LBB103_706>:
    8ddc:	000015b7          	lui	a1,0x1
    8de0:	40b405b3          	sub	a1,s0,a1
    8de4:	34a5bc23          	sd	a0,856(a1) # 1358 <.LBB103_4+0x118>
    8de8:	00001537          	lui	a0,0x1
    8dec:	40a40533          	sub	a0,s0,a0
    8df0:	36853503          	ld	a0,872(a0) # 1368 <.LBB103_4+0x128>
    8df4:	03850533          	mul	a0,a0,s8
    8df8:	000015b7          	lui	a1,0x1
    8dfc:	40b405b3          	sub	a1,s0,a1
    8e00:	3605b583          	ld	a1,864(a1) # 1360 <.LBB103_4+0x120>
    8e04:	017585b3          	add	a1,a1,s7
    8e08:	00b50533          	add	a0,a0,a1
    8e0c:	42455513          	srai	a0,a0,0x24
    8e10:	00a025b3          	sgtz	a1,a0
    8e14:	40b005b3          	neg	a1,a1
    8e18:	00a5f533          	and	a0,a1,a0
    8e1c:	01954463          	blt	a0,s9,8e24 <.LBB103_708>
    8e20:	0ff00513          	li	a0,255

0000000000008e24 <.LBB103_708>:
    8e24:	000015b7          	lui	a1,0x1
    8e28:	40b405b3          	sub	a1,s0,a1
    8e2c:	36a5b423          	sd	a0,872(a1) # 1368 <.LBB103_4+0x128>
    8e30:	00001537          	lui	a0,0x1
    8e34:	40a40533          	sub	a0,s0,a0
    8e38:	38053503          	ld	a0,896(a0) # 1380 <.LBB103_4+0x140>
    8e3c:	03850533          	mul	a0,a0,s8
    8e40:	000015b7          	lui	a1,0x1
    8e44:	40b405b3          	sub	a1,s0,a1
    8e48:	3705b583          	ld	a1,880(a1) # 1370 <.LBB103_4+0x130>
    8e4c:	017585b3          	add	a1,a1,s7
    8e50:	00b50533          	add	a0,a0,a1
    8e54:	42455513          	srai	a0,a0,0x24
    8e58:	00a025b3          	sgtz	a1,a0
    8e5c:	40b005b3          	neg	a1,a1
    8e60:	00a5f533          	and	a0,a1,a0
    8e64:	01954463          	blt	a0,s9,8e6c <.LBB103_710>
    8e68:	0ff00513          	li	a0,255

0000000000008e6c <.LBB103_710>:
    8e6c:	000015b7          	lui	a1,0x1
    8e70:	40b405b3          	sub	a1,s0,a1
    8e74:	38a5b023          	sd	a0,896(a1) # 1380 <.LBB103_4+0x140>
    8e78:	00001537          	lui	a0,0x1
    8e7c:	40a40533          	sub	a0,s0,a0
    8e80:	38853503          	ld	a0,904(a0) # 1388 <.LBB103_4+0x148>
    8e84:	03850533          	mul	a0,a0,s8
    8e88:	000015b7          	lui	a1,0x1
    8e8c:	40b405b3          	sub	a1,s0,a1
    8e90:	3785b583          	ld	a1,888(a1) # 1378 <.LBB103_4+0x138>
    8e94:	017585b3          	add	a1,a1,s7
    8e98:	00b50533          	add	a0,a0,a1
    8e9c:	42455513          	srai	a0,a0,0x24
    8ea0:	00a025b3          	sgtz	a1,a0
    8ea4:	40b005b3          	neg	a1,a1
    8ea8:	00a5f533          	and	a0,a1,a0
    8eac:	01954463          	blt	a0,s9,8eb4 <.LBB103_712>
    8eb0:	0ff00513          	li	a0,255

0000000000008eb4 <.LBB103_712>:
    8eb4:	000015b7          	lui	a1,0x1
    8eb8:	40b405b3          	sub	a1,s0,a1
    8ebc:	38a5b423          	sd	a0,904(a1) # 1388 <.LBB103_4+0x148>
    8ec0:	00001537          	lui	a0,0x1
    8ec4:	40a40533          	sub	a0,s0,a0
    8ec8:	39853503          	ld	a0,920(a0) # 1398 <.LBB103_4+0x158>
    8ecc:	03850533          	mul	a0,a0,s8
    8ed0:	000015b7          	lui	a1,0x1
    8ed4:	40b405b3          	sub	a1,s0,a1
    8ed8:	3905b583          	ld	a1,912(a1) # 1390 <.LBB103_4+0x150>
    8edc:	017585b3          	add	a1,a1,s7
    8ee0:	00b50533          	add	a0,a0,a1
    8ee4:	42455513          	srai	a0,a0,0x24
    8ee8:	00a025b3          	sgtz	a1,a0
    8eec:	40b005b3          	neg	a1,a1
    8ef0:	00a5f533          	and	a0,a1,a0
    8ef4:	01954463          	blt	a0,s9,8efc <.LBB103_714>
    8ef8:	0ff00513          	li	a0,255

0000000000008efc <.LBB103_714>:
    8efc:	000015b7          	lui	a1,0x1
    8f00:	40b405b3          	sub	a1,s0,a1
    8f04:	38a5bc23          	sd	a0,920(a1) # 1398 <.LBB103_4+0x158>
    8f08:	00001537          	lui	a0,0x1
    8f0c:	40a40533          	sub	a0,s0,a0
    8f10:	3a853503          	ld	a0,936(a0) # 13a8 <.LBB103_4+0x168>
    8f14:	03850533          	mul	a0,a0,s8
    8f18:	000015b7          	lui	a1,0x1
    8f1c:	40b405b3          	sub	a1,s0,a1
    8f20:	3a05b583          	ld	a1,928(a1) # 13a0 <.LBB103_4+0x160>
    8f24:	017585b3          	add	a1,a1,s7
    8f28:	00b50533          	add	a0,a0,a1
    8f2c:	42455513          	srai	a0,a0,0x24
    8f30:	00a025b3          	sgtz	a1,a0
    8f34:	40b005b3          	neg	a1,a1
    8f38:	00a5f533          	and	a0,a1,a0
    8f3c:	01954463          	blt	a0,s9,8f44 <.LBB103_716>
    8f40:	0ff00513          	li	a0,255

0000000000008f44 <.LBB103_716>:
    8f44:	000015b7          	lui	a1,0x1
    8f48:	40b405b3          	sub	a1,s0,a1
    8f4c:	3aa5b423          	sd	a0,936(a1) # 13a8 <.LBB103_4+0x168>
    8f50:	00001537          	lui	a0,0x1
    8f54:	40a40533          	sub	a0,s0,a0
    8f58:	3b853503          	ld	a0,952(a0) # 13b8 <.LBB103_4+0x178>
    8f5c:	03850533          	mul	a0,a0,s8
    8f60:	000015b7          	lui	a1,0x1
    8f64:	40b405b3          	sub	a1,s0,a1
    8f68:	3b05b583          	ld	a1,944(a1) # 13b0 <.LBB103_4+0x170>
    8f6c:	017585b3          	add	a1,a1,s7
    8f70:	00b50533          	add	a0,a0,a1
    8f74:	42455513          	srai	a0,a0,0x24
    8f78:	00a025b3          	sgtz	a1,a0
    8f7c:	40b005b3          	neg	a1,a1
    8f80:	00a5f533          	and	a0,a1,a0
    8f84:	01954463          	blt	a0,s9,8f8c <.LBB103_718>
    8f88:	0ff00513          	li	a0,255

0000000000008f8c <.LBB103_718>:
    8f8c:	000015b7          	lui	a1,0x1
    8f90:	40b405b3          	sub	a1,s0,a1
    8f94:	3aa5bc23          	sd	a0,952(a1) # 13b8 <.LBB103_4+0x178>
    8f98:	00001537          	lui	a0,0x1
    8f9c:	40a40533          	sub	a0,s0,a0
    8fa0:	3c853503          	ld	a0,968(a0) # 13c8 <.LBB103_4+0x188>
    8fa4:	03850533          	mul	a0,a0,s8
    8fa8:	000015b7          	lui	a1,0x1
    8fac:	40b405b3          	sub	a1,s0,a1
    8fb0:	3c05b583          	ld	a1,960(a1) # 13c0 <.LBB103_4+0x180>
    8fb4:	017585b3          	add	a1,a1,s7
    8fb8:	00b50533          	add	a0,a0,a1
    8fbc:	42455513          	srai	a0,a0,0x24
    8fc0:	00a025b3          	sgtz	a1,a0
    8fc4:	40b005b3          	neg	a1,a1
    8fc8:	00a5f533          	and	a0,a1,a0
    8fcc:	01954463          	blt	a0,s9,8fd4 <.LBB103_720>
    8fd0:	0ff00513          	li	a0,255

0000000000008fd4 <.LBB103_720>:
    8fd4:	000015b7          	lui	a1,0x1
    8fd8:	40b405b3          	sub	a1,s0,a1
    8fdc:	3ca5b423          	sd	a0,968(a1) # 13c8 <.LBB103_4+0x188>
    8fe0:	00001537          	lui	a0,0x1
    8fe4:	40a40533          	sub	a0,s0,a0
    8fe8:	3d853503          	ld	a0,984(a0) # 13d8 <.LBB103_4+0x198>
    8fec:	03850533          	mul	a0,a0,s8
    8ff0:	000015b7          	lui	a1,0x1
    8ff4:	40b405b3          	sub	a1,s0,a1
    8ff8:	3d05b583          	ld	a1,976(a1) # 13d0 <.LBB103_4+0x190>
    8ffc:	017585b3          	add	a1,a1,s7
    9000:	00b50533          	add	a0,a0,a1
    9004:	42455513          	srai	a0,a0,0x24
    9008:	00a025b3          	sgtz	a1,a0
    900c:	40b005b3          	neg	a1,a1
    9010:	00a5f533          	and	a0,a1,a0
    9014:	01954463          	blt	a0,s9,901c <.LBB103_722>
    9018:	0ff00513          	li	a0,255

000000000000901c <.LBB103_722>:
    901c:	000015b7          	lui	a1,0x1
    9020:	40b405b3          	sub	a1,s0,a1
    9024:	3ca5bc23          	sd	a0,984(a1) # 13d8 <.LBB103_4+0x198>
    9028:	00001537          	lui	a0,0x1
    902c:	40a40533          	sub	a0,s0,a0
    9030:	3e853503          	ld	a0,1000(a0) # 13e8 <.LBB103_4+0x1a8>
    9034:	03850533          	mul	a0,a0,s8
    9038:	000015b7          	lui	a1,0x1
    903c:	40b405b3          	sub	a1,s0,a1
    9040:	3e05b583          	ld	a1,992(a1) # 13e0 <.LBB103_4+0x1a0>
    9044:	017585b3          	add	a1,a1,s7
    9048:	00b50533          	add	a0,a0,a1
    904c:	42455513          	srai	a0,a0,0x24
    9050:	00a025b3          	sgtz	a1,a0
    9054:	40b005b3          	neg	a1,a1
    9058:	00a5f533          	and	a0,a1,a0
    905c:	01954463          	blt	a0,s9,9064 <.LBB103_724>
    9060:	0ff00513          	li	a0,255

0000000000009064 <.LBB103_724>:
    9064:	000015b7          	lui	a1,0x1
    9068:	40b405b3          	sub	a1,s0,a1
    906c:	3ea5b423          	sd	a0,1000(a1) # 13e8 <.LBB103_4+0x1a8>
    9070:	00001537          	lui	a0,0x1
    9074:	40a40533          	sub	a0,s0,a0
    9078:	3f853503          	ld	a0,1016(a0) # 13f8 <.LBB103_4+0x1b8>
    907c:	03850533          	mul	a0,a0,s8
    9080:	000015b7          	lui	a1,0x1
    9084:	40b405b3          	sub	a1,s0,a1
    9088:	3f05b583          	ld	a1,1008(a1) # 13f0 <.LBB103_4+0x1b0>
    908c:	017585b3          	add	a1,a1,s7
    9090:	00b50533          	add	a0,a0,a1
    9094:	42455513          	srai	a0,a0,0x24
    9098:	00a025b3          	sgtz	a1,a0
    909c:	40b005b3          	neg	a1,a1
    90a0:	00a5f533          	and	a0,a1,a0
    90a4:	01954463          	blt	a0,s9,90ac <.LBB103_726>
    90a8:	0ff00513          	li	a0,255

00000000000090ac <.LBB103_726>:
    90ac:	000015b7          	lui	a1,0x1
    90b0:	40b405b3          	sub	a1,s0,a1
    90b4:	3ea5bc23          	sd	a0,1016(a1) # 13f8 <.LBB103_4+0x1b8>
    90b8:	00001537          	lui	a0,0x1
    90bc:	40a40533          	sub	a0,s0,a0
    90c0:	40853503          	ld	a0,1032(a0) # 1408 <.LBB103_4+0x1c8>
    90c4:	03850533          	mul	a0,a0,s8
    90c8:	000015b7          	lui	a1,0x1
    90cc:	40b405b3          	sub	a1,s0,a1
    90d0:	4005b583          	ld	a1,1024(a1) # 1400 <.LBB103_4+0x1c0>
    90d4:	017585b3          	add	a1,a1,s7
    90d8:	00b50533          	add	a0,a0,a1
    90dc:	42455513          	srai	a0,a0,0x24
    90e0:	00a025b3          	sgtz	a1,a0
    90e4:	40b005b3          	neg	a1,a1
    90e8:	00a5f533          	and	a0,a1,a0
    90ec:	01954463          	blt	a0,s9,90f4 <.LBB103_728>
    90f0:	0ff00513          	li	a0,255

00000000000090f4 <.LBB103_728>:
    90f4:	000015b7          	lui	a1,0x1
    90f8:	40b405b3          	sub	a1,s0,a1
    90fc:	40a5b423          	sd	a0,1032(a1) # 1408 <.LBB103_4+0x1c8>
    9100:	00001537          	lui	a0,0x1
    9104:	40a40533          	sub	a0,s0,a0
    9108:	41853503          	ld	a0,1048(a0) # 1418 <.LBB103_4+0x1d8>
    910c:	03850533          	mul	a0,a0,s8
    9110:	000015b7          	lui	a1,0x1
    9114:	40b405b3          	sub	a1,s0,a1
    9118:	4105b583          	ld	a1,1040(a1) # 1410 <.LBB103_4+0x1d0>
    911c:	017585b3          	add	a1,a1,s7
    9120:	00b50533          	add	a0,a0,a1
    9124:	42455513          	srai	a0,a0,0x24
    9128:	00a025b3          	sgtz	a1,a0
    912c:	40b005b3          	neg	a1,a1
    9130:	00a5f533          	and	a0,a1,a0
    9134:	01954463          	blt	a0,s9,913c <.LBB103_730>
    9138:	0ff00513          	li	a0,255

000000000000913c <.LBB103_730>:
    913c:	000015b7          	lui	a1,0x1
    9140:	40b405b3          	sub	a1,s0,a1
    9144:	40a5bc23          	sd	a0,1048(a1) # 1418 <.LBB103_4+0x1d8>
    9148:	00001537          	lui	a0,0x1
    914c:	40a40533          	sub	a0,s0,a0
    9150:	42853503          	ld	a0,1064(a0) # 1428 <.LBB103_4+0x1e8>
    9154:	03850533          	mul	a0,a0,s8
    9158:	000015b7          	lui	a1,0x1
    915c:	40b405b3          	sub	a1,s0,a1
    9160:	4205b583          	ld	a1,1056(a1) # 1420 <.LBB103_4+0x1e0>
    9164:	017585b3          	add	a1,a1,s7
    9168:	00b50533          	add	a0,a0,a1
    916c:	42455513          	srai	a0,a0,0x24
    9170:	00a025b3          	sgtz	a1,a0
    9174:	40b005b3          	neg	a1,a1
    9178:	00a5f533          	and	a0,a1,a0
    917c:	01954463          	blt	a0,s9,9184 <.LBB103_732>
    9180:	0ff00513          	li	a0,255

0000000000009184 <.LBB103_732>:
    9184:	000015b7          	lui	a1,0x1
    9188:	40b405b3          	sub	a1,s0,a1
    918c:	42a5b423          	sd	a0,1064(a1) # 1428 <.LBB103_4+0x1e8>
    9190:	00001537          	lui	a0,0x1
    9194:	40a40533          	sub	a0,s0,a0
    9198:	43853503          	ld	a0,1080(a0) # 1438 <.LBB103_4+0x1f8>
    919c:	03850533          	mul	a0,a0,s8
    91a0:	000015b7          	lui	a1,0x1
    91a4:	40b405b3          	sub	a1,s0,a1
    91a8:	4305b583          	ld	a1,1072(a1) # 1430 <.LBB103_4+0x1f0>
    91ac:	017585b3          	add	a1,a1,s7
    91b0:	00b50533          	add	a0,a0,a1
    91b4:	42455513          	srai	a0,a0,0x24
    91b8:	00a025b3          	sgtz	a1,a0
    91bc:	40b005b3          	neg	a1,a1
    91c0:	00a5f533          	and	a0,a1,a0
    91c4:	01954463          	blt	a0,s9,91cc <.LBB103_734>
    91c8:	0ff00513          	li	a0,255

00000000000091cc <.LBB103_734>:
    91cc:	000015b7          	lui	a1,0x1
    91d0:	40b405b3          	sub	a1,s0,a1
    91d4:	42a5bc23          	sd	a0,1080(a1) # 1438 <.LBB103_4+0x1f8>
    91d8:	00001537          	lui	a0,0x1
    91dc:	40a40533          	sub	a0,s0,a0
    91e0:	44853503          	ld	a0,1096(a0) # 1448 <.LBB103_4+0x208>
    91e4:	03850533          	mul	a0,a0,s8
    91e8:	000015b7          	lui	a1,0x1
    91ec:	40b405b3          	sub	a1,s0,a1
    91f0:	4405b583          	ld	a1,1088(a1) # 1440 <.LBB103_4+0x200>
    91f4:	017585b3          	add	a1,a1,s7
    91f8:	00b50533          	add	a0,a0,a1
    91fc:	42455513          	srai	a0,a0,0x24
    9200:	00a025b3          	sgtz	a1,a0
    9204:	40b005b3          	neg	a1,a1
    9208:	00a5f533          	and	a0,a1,a0
    920c:	01954463          	blt	a0,s9,9214 <.LBB103_736>
    9210:	0ff00513          	li	a0,255

0000000000009214 <.LBB103_736>:
    9214:	000015b7          	lui	a1,0x1
    9218:	40b405b3          	sub	a1,s0,a1
    921c:	44a5b423          	sd	a0,1096(a1) # 1448 <.LBB103_4+0x208>
    9220:	00001537          	lui	a0,0x1
    9224:	40a40533          	sub	a0,s0,a0
    9228:	45853503          	ld	a0,1112(a0) # 1458 <.LBB103_4+0x218>
    922c:	03850533          	mul	a0,a0,s8
    9230:	000015b7          	lui	a1,0x1
    9234:	40b405b3          	sub	a1,s0,a1
    9238:	4505b583          	ld	a1,1104(a1) # 1450 <.LBB103_4+0x210>
    923c:	017585b3          	add	a1,a1,s7
    9240:	00b50533          	add	a0,a0,a1
    9244:	42455513          	srai	a0,a0,0x24
    9248:	00a025b3          	sgtz	a1,a0
    924c:	40b005b3          	neg	a1,a1
    9250:	00a5f533          	and	a0,a1,a0
    9254:	01954463          	blt	a0,s9,925c <.LBB103_738>
    9258:	0ff00513          	li	a0,255

000000000000925c <.LBB103_738>:
    925c:	000015b7          	lui	a1,0x1
    9260:	40b405b3          	sub	a1,s0,a1
    9264:	44a5bc23          	sd	a0,1112(a1) # 1458 <.LBB103_4+0x218>
    9268:	00001537          	lui	a0,0x1
    926c:	40a40533          	sub	a0,s0,a0
    9270:	46853503          	ld	a0,1128(a0) # 1468 <.LBB103_4+0x228>
    9274:	03850533          	mul	a0,a0,s8
    9278:	000015b7          	lui	a1,0x1
    927c:	40b405b3          	sub	a1,s0,a1
    9280:	4605b583          	ld	a1,1120(a1) # 1460 <.LBB103_4+0x220>
    9284:	017585b3          	add	a1,a1,s7
    9288:	00b50533          	add	a0,a0,a1
    928c:	42455513          	srai	a0,a0,0x24
    9290:	00a025b3          	sgtz	a1,a0
    9294:	40b005b3          	neg	a1,a1
    9298:	00a5f533          	and	a0,a1,a0
    929c:	01954463          	blt	a0,s9,92a4 <.LBB103_740>
    92a0:	0ff00513          	li	a0,255

00000000000092a4 <.LBB103_740>:
    92a4:	000015b7          	lui	a1,0x1
    92a8:	40b405b3          	sub	a1,s0,a1
    92ac:	46a5b423          	sd	a0,1128(a1) # 1468 <.LBB103_4+0x228>
    92b0:	00001537          	lui	a0,0x1
    92b4:	40a40533          	sub	a0,s0,a0
    92b8:	47853503          	ld	a0,1144(a0) # 1478 <.LBB103_4+0x238>
    92bc:	03850533          	mul	a0,a0,s8
    92c0:	000015b7          	lui	a1,0x1
    92c4:	40b405b3          	sub	a1,s0,a1
    92c8:	4705b583          	ld	a1,1136(a1) # 1470 <.LBB103_4+0x230>
    92cc:	017585b3          	add	a1,a1,s7
    92d0:	00b50533          	add	a0,a0,a1
    92d4:	42455513          	srai	a0,a0,0x24
    92d8:	00a025b3          	sgtz	a1,a0
    92dc:	40b005b3          	neg	a1,a1
    92e0:	00a5f533          	and	a0,a1,a0
    92e4:	01954463          	blt	a0,s9,92ec <.LBB103_742>
    92e8:	0ff00513          	li	a0,255

00000000000092ec <.LBB103_742>:
    92ec:	000015b7          	lui	a1,0x1
    92f0:	40b405b3          	sub	a1,s0,a1
    92f4:	46a5bc23          	sd	a0,1144(a1) # 1478 <.LBB103_4+0x238>
    92f8:	00001537          	lui	a0,0x1
    92fc:	40a40533          	sub	a0,s0,a0
    9300:	48853503          	ld	a0,1160(a0) # 1488 <.LBB103_4+0x248>
    9304:	03850533          	mul	a0,a0,s8
    9308:	000015b7          	lui	a1,0x1
    930c:	40b405b3          	sub	a1,s0,a1
    9310:	4805b583          	ld	a1,1152(a1) # 1480 <.LBB103_4+0x240>
    9314:	017585b3          	add	a1,a1,s7
    9318:	00b50533          	add	a0,a0,a1
    931c:	42455513          	srai	a0,a0,0x24
    9320:	00a025b3          	sgtz	a1,a0
    9324:	40b005b3          	neg	a1,a1
    9328:	00a5f533          	and	a0,a1,a0
    932c:	01954463          	blt	a0,s9,9334 <.LBB103_744>
    9330:	0ff00513          	li	a0,255

0000000000009334 <.LBB103_744>:
    9334:	000015b7          	lui	a1,0x1
    9338:	40b405b3          	sub	a1,s0,a1
    933c:	48a5b423          	sd	a0,1160(a1) # 1488 <.LBB103_4+0x248>
    9340:	00001537          	lui	a0,0x1
    9344:	40a40533          	sub	a0,s0,a0
    9348:	49853503          	ld	a0,1176(a0) # 1498 <.LBB103_4+0x258>
    934c:	03850533          	mul	a0,a0,s8
    9350:	000015b7          	lui	a1,0x1
    9354:	40b405b3          	sub	a1,s0,a1
    9358:	4905b583          	ld	a1,1168(a1) # 1490 <.LBB103_4+0x250>
    935c:	017585b3          	add	a1,a1,s7
    9360:	00b50533          	add	a0,a0,a1
    9364:	42455513          	srai	a0,a0,0x24
    9368:	00a025b3          	sgtz	a1,a0
    936c:	40b005b3          	neg	a1,a1
    9370:	00a5f533          	and	a0,a1,a0
    9374:	01954463          	blt	a0,s9,937c <.LBB103_746>
    9378:	0ff00513          	li	a0,255

000000000000937c <.LBB103_746>:
    937c:	000015b7          	lui	a1,0x1
    9380:	40b405b3          	sub	a1,s0,a1
    9384:	48a5bc23          	sd	a0,1176(a1) # 1498 <.LBB103_4+0x258>
    9388:	00001537          	lui	a0,0x1
    938c:	40a40533          	sub	a0,s0,a0
    9390:	4a853503          	ld	a0,1192(a0) # 14a8 <.LBB103_4+0x268>
    9394:	03850533          	mul	a0,a0,s8
    9398:	000015b7          	lui	a1,0x1
    939c:	40b405b3          	sub	a1,s0,a1
    93a0:	4a05b583          	ld	a1,1184(a1) # 14a0 <.LBB103_4+0x260>
    93a4:	017585b3          	add	a1,a1,s7
    93a8:	00b50533          	add	a0,a0,a1
    93ac:	42455513          	srai	a0,a0,0x24
    93b0:	00a025b3          	sgtz	a1,a0
    93b4:	40b005b3          	neg	a1,a1
    93b8:	00a5f533          	and	a0,a1,a0
    93bc:	01954463          	blt	a0,s9,93c4 <.LBB103_748>
    93c0:	0ff00513          	li	a0,255

00000000000093c4 <.LBB103_748>:
    93c4:	000015b7          	lui	a1,0x1
    93c8:	40b405b3          	sub	a1,s0,a1
    93cc:	4aa5b423          	sd	a0,1192(a1) # 14a8 <.LBB103_4+0x268>
    93d0:	00001537          	lui	a0,0x1
    93d4:	40a40533          	sub	a0,s0,a0
    93d8:	4b853503          	ld	a0,1208(a0) # 14b8 <.LBB103_4+0x278>
    93dc:	03850533          	mul	a0,a0,s8
    93e0:	000015b7          	lui	a1,0x1
    93e4:	40b405b3          	sub	a1,s0,a1
    93e8:	4b05b583          	ld	a1,1200(a1) # 14b0 <.LBB103_4+0x270>
    93ec:	017585b3          	add	a1,a1,s7
    93f0:	00b50533          	add	a0,a0,a1
    93f4:	42455513          	srai	a0,a0,0x24
    93f8:	00a025b3          	sgtz	a1,a0
    93fc:	40b005b3          	neg	a1,a1
    9400:	00a5f533          	and	a0,a1,a0
    9404:	01954463          	blt	a0,s9,940c <.LBB103_750>
    9408:	0ff00513          	li	a0,255

000000000000940c <.LBB103_750>:
    940c:	000015b7          	lui	a1,0x1
    9410:	40b405b3          	sub	a1,s0,a1
    9414:	4aa5bc23          	sd	a0,1208(a1) # 14b8 <.LBB103_4+0x278>
    9418:	00001537          	lui	a0,0x1
    941c:	40a40533          	sub	a0,s0,a0
    9420:	4c853503          	ld	a0,1224(a0) # 14c8 <.LBB103_4+0x288>
    9424:	03850533          	mul	a0,a0,s8
    9428:	000015b7          	lui	a1,0x1
    942c:	40b405b3          	sub	a1,s0,a1
    9430:	4c05b583          	ld	a1,1216(a1) # 14c0 <.LBB103_4+0x280>
    9434:	017585b3          	add	a1,a1,s7
    9438:	00b50533          	add	a0,a0,a1
    943c:	42455513          	srai	a0,a0,0x24
    9440:	00a025b3          	sgtz	a1,a0
    9444:	40b005b3          	neg	a1,a1
    9448:	00a5f533          	and	a0,a1,a0
    944c:	01954463          	blt	a0,s9,9454 <.LBB103_752>
    9450:	0ff00513          	li	a0,255

0000000000009454 <.LBB103_752>:
    9454:	000015b7          	lui	a1,0x1
    9458:	40b405b3          	sub	a1,s0,a1
    945c:	4ca5b423          	sd	a0,1224(a1) # 14c8 <.LBB103_4+0x288>
    9460:	00001537          	lui	a0,0x1
    9464:	40a40533          	sub	a0,s0,a0
    9468:	4d853503          	ld	a0,1240(a0) # 14d8 <.LBB103_4+0x298>
    946c:	03850533          	mul	a0,a0,s8
    9470:	000015b7          	lui	a1,0x1
    9474:	40b405b3          	sub	a1,s0,a1
    9478:	4d05b583          	ld	a1,1232(a1) # 14d0 <.LBB103_4+0x290>
    947c:	017585b3          	add	a1,a1,s7
    9480:	00b50533          	add	a0,a0,a1
    9484:	42455513          	srai	a0,a0,0x24
    9488:	00a025b3          	sgtz	a1,a0
    948c:	40b005b3          	neg	a1,a1
    9490:	00a5f533          	and	a0,a1,a0
    9494:	01954463          	blt	a0,s9,949c <.LBB103_754>
    9498:	0ff00513          	li	a0,255

000000000000949c <.LBB103_754>:
    949c:	000015b7          	lui	a1,0x1
    94a0:	40b405b3          	sub	a1,s0,a1
    94a4:	4ca5bc23          	sd	a0,1240(a1) # 14d8 <.LBB103_4+0x298>
    94a8:	00001537          	lui	a0,0x1
    94ac:	40a40533          	sub	a0,s0,a0
    94b0:	4e853503          	ld	a0,1256(a0) # 14e8 <.LBB103_4+0x2a8>
    94b4:	03850533          	mul	a0,a0,s8
    94b8:	000015b7          	lui	a1,0x1
    94bc:	40b405b3          	sub	a1,s0,a1
    94c0:	4e05b583          	ld	a1,1248(a1) # 14e0 <.LBB103_4+0x2a0>
    94c4:	017585b3          	add	a1,a1,s7
    94c8:	00b50533          	add	a0,a0,a1
    94cc:	42455513          	srai	a0,a0,0x24
    94d0:	00a025b3          	sgtz	a1,a0
    94d4:	40b005b3          	neg	a1,a1
    94d8:	00a5f533          	and	a0,a1,a0
    94dc:	01954463          	blt	a0,s9,94e4 <.LBB103_756>
    94e0:	0ff00513          	li	a0,255

00000000000094e4 <.LBB103_756>:
    94e4:	000015b7          	lui	a1,0x1
    94e8:	40b405b3          	sub	a1,s0,a1
    94ec:	4ea5b423          	sd	a0,1256(a1) # 14e8 <.LBB103_4+0x2a8>
    94f0:	00001537          	lui	a0,0x1
    94f4:	40a40533          	sub	a0,s0,a0
    94f8:	4f853503          	ld	a0,1272(a0) # 14f8 <.LBB103_4+0x2b8>
    94fc:	03850533          	mul	a0,a0,s8
    9500:	000015b7          	lui	a1,0x1
    9504:	40b405b3          	sub	a1,s0,a1
    9508:	4f05b583          	ld	a1,1264(a1) # 14f0 <.LBB103_4+0x2b0>
    950c:	017585b3          	add	a1,a1,s7
    9510:	00b50533          	add	a0,a0,a1
    9514:	42455513          	srai	a0,a0,0x24
    9518:	00a025b3          	sgtz	a1,a0
    951c:	40b005b3          	neg	a1,a1
    9520:	00a5f533          	and	a0,a1,a0
    9524:	01954463          	blt	a0,s9,952c <.LBB103_758>
    9528:	0ff00513          	li	a0,255

000000000000952c <.LBB103_758>:
    952c:	000015b7          	lui	a1,0x1
    9530:	40b405b3          	sub	a1,s0,a1
    9534:	4ea5bc23          	sd	a0,1272(a1) # 14f8 <.LBB103_4+0x2b8>
    9538:	00001537          	lui	a0,0x1
    953c:	40a40533          	sub	a0,s0,a0
    9540:	50853503          	ld	a0,1288(a0) # 1508 <.LBB103_4+0x2c8>
    9544:	03850533          	mul	a0,a0,s8
    9548:	000015b7          	lui	a1,0x1
    954c:	40b405b3          	sub	a1,s0,a1
    9550:	5005b583          	ld	a1,1280(a1) # 1500 <.LBB103_4+0x2c0>
    9554:	017585b3          	add	a1,a1,s7
    9558:	00b50533          	add	a0,a0,a1
    955c:	42455513          	srai	a0,a0,0x24
    9560:	00a025b3          	sgtz	a1,a0
    9564:	40b005b3          	neg	a1,a1
    9568:	00a5f533          	and	a0,a1,a0
    956c:	01954463          	blt	a0,s9,9574 <.LBB103_760>
    9570:	0ff00513          	li	a0,255

0000000000009574 <.LBB103_760>:
    9574:	000015b7          	lui	a1,0x1
    9578:	40b405b3          	sub	a1,s0,a1
    957c:	50a5b423          	sd	a0,1288(a1) # 1508 <.LBB103_4+0x2c8>
    9580:	00001537          	lui	a0,0x1
    9584:	40a40533          	sub	a0,s0,a0
    9588:	51853503          	ld	a0,1304(a0) # 1518 <.LBB103_4+0x2d8>
    958c:	03850533          	mul	a0,a0,s8
    9590:	000015b7          	lui	a1,0x1
    9594:	40b405b3          	sub	a1,s0,a1
    9598:	5105b583          	ld	a1,1296(a1) # 1510 <.LBB103_4+0x2d0>
    959c:	017585b3          	add	a1,a1,s7
    95a0:	00b50533          	add	a0,a0,a1
    95a4:	42455513          	srai	a0,a0,0x24
    95a8:	00a025b3          	sgtz	a1,a0
    95ac:	40b005b3          	neg	a1,a1
    95b0:	00a5f533          	and	a0,a1,a0
    95b4:	01954463          	blt	a0,s9,95bc <.LBB103_762>
    95b8:	0ff00513          	li	a0,255

00000000000095bc <.LBB103_762>:
    95bc:	000015b7          	lui	a1,0x1
    95c0:	40b405b3          	sub	a1,s0,a1
    95c4:	50a5bc23          	sd	a0,1304(a1) # 1518 <.LBB103_4+0x2d8>
    95c8:	00001537          	lui	a0,0x1
    95cc:	40a40533          	sub	a0,s0,a0
    95d0:	52853503          	ld	a0,1320(a0) # 1528 <.LBB103_4+0x2e8>
    95d4:	03850533          	mul	a0,a0,s8
    95d8:	000015b7          	lui	a1,0x1
    95dc:	40b405b3          	sub	a1,s0,a1
    95e0:	5205b583          	ld	a1,1312(a1) # 1520 <.LBB103_4+0x2e0>
    95e4:	017585b3          	add	a1,a1,s7
    95e8:	00b50533          	add	a0,a0,a1
    95ec:	42455513          	srai	a0,a0,0x24
    95f0:	00a025b3          	sgtz	a1,a0
    95f4:	40b005b3          	neg	a1,a1
    95f8:	00a5f533          	and	a0,a1,a0
    95fc:	01954463          	blt	a0,s9,9604 <.LBB103_764>
    9600:	0ff00513          	li	a0,255

0000000000009604 <.LBB103_764>:
    9604:	000015b7          	lui	a1,0x1
    9608:	40b405b3          	sub	a1,s0,a1
    960c:	52a5b423          	sd	a0,1320(a1) # 1528 <.LBB103_4+0x2e8>
    9610:	00001537          	lui	a0,0x1
    9614:	40a40533          	sub	a0,s0,a0
    9618:	53853503          	ld	a0,1336(a0) # 1538 <.LBB103_4+0x2f8>
    961c:	03850533          	mul	a0,a0,s8
    9620:	000015b7          	lui	a1,0x1
    9624:	40b405b3          	sub	a1,s0,a1
    9628:	5305b583          	ld	a1,1328(a1) # 1530 <.LBB103_4+0x2f0>
    962c:	017585b3          	add	a1,a1,s7
    9630:	00b50533          	add	a0,a0,a1
    9634:	42455513          	srai	a0,a0,0x24
    9638:	00a025b3          	sgtz	a1,a0
    963c:	40b005b3          	neg	a1,a1
    9640:	00a5f533          	and	a0,a1,a0
    9644:	01954463          	blt	a0,s9,964c <.LBB103_766>
    9648:	0ff00513          	li	a0,255

000000000000964c <.LBB103_766>:
    964c:	000015b7          	lui	a1,0x1
    9650:	40b405b3          	sub	a1,s0,a1
    9654:	52a5bc23          	sd	a0,1336(a1) # 1538 <.LBB103_4+0x2f8>
    9658:	00001537          	lui	a0,0x1
    965c:	40a40533          	sub	a0,s0,a0
    9660:	54853503          	ld	a0,1352(a0) # 1548 <.LBB103_4+0x308>
    9664:	03850533          	mul	a0,a0,s8
    9668:	000015b7          	lui	a1,0x1
    966c:	40b405b3          	sub	a1,s0,a1
    9670:	5405b583          	ld	a1,1344(a1) # 1540 <.LBB103_4+0x300>
    9674:	017585b3          	add	a1,a1,s7
    9678:	00b50533          	add	a0,a0,a1
    967c:	42455513          	srai	a0,a0,0x24
    9680:	00a025b3          	sgtz	a1,a0
    9684:	40b005b3          	neg	a1,a1
    9688:	00a5f533          	and	a0,a1,a0
    968c:	01954463          	blt	a0,s9,9694 <.LBB103_768>
    9690:	0ff00513          	li	a0,255

0000000000009694 <.LBB103_768>:
    9694:	000015b7          	lui	a1,0x1
    9698:	40b405b3          	sub	a1,s0,a1
    969c:	54a5b423          	sd	a0,1352(a1) # 1548 <.LBB103_4+0x308>
    96a0:	00001537          	lui	a0,0x1
    96a4:	40a40533          	sub	a0,s0,a0
    96a8:	55853503          	ld	a0,1368(a0) # 1558 <.LBB103_4+0x318>
    96ac:	03850533          	mul	a0,a0,s8
    96b0:	000015b7          	lui	a1,0x1
    96b4:	40b405b3          	sub	a1,s0,a1
    96b8:	5505b583          	ld	a1,1360(a1) # 1550 <.LBB103_4+0x310>
    96bc:	017585b3          	add	a1,a1,s7
    96c0:	00b50533          	add	a0,a0,a1
    96c4:	42455513          	srai	a0,a0,0x24
    96c8:	00a025b3          	sgtz	a1,a0
    96cc:	40b005b3          	neg	a1,a1
    96d0:	00a5f533          	and	a0,a1,a0
    96d4:	01954463          	blt	a0,s9,96dc <.LBB103_770>
    96d8:	0ff00513          	li	a0,255

00000000000096dc <.LBB103_770>:
    96dc:	000015b7          	lui	a1,0x1
    96e0:	40b405b3          	sub	a1,s0,a1
    96e4:	54a5bc23          	sd	a0,1368(a1) # 1558 <.LBB103_4+0x318>
    96e8:	00001537          	lui	a0,0x1
    96ec:	40a40533          	sub	a0,s0,a0
    96f0:	56853503          	ld	a0,1384(a0) # 1568 <.LBB103_4+0x328>
    96f4:	03850533          	mul	a0,a0,s8
    96f8:	000015b7          	lui	a1,0x1
    96fc:	40b405b3          	sub	a1,s0,a1
    9700:	5605b583          	ld	a1,1376(a1) # 1560 <.LBB103_4+0x320>
    9704:	017585b3          	add	a1,a1,s7
    9708:	00b50533          	add	a0,a0,a1
    970c:	42455513          	srai	a0,a0,0x24
    9710:	00a025b3          	sgtz	a1,a0
    9714:	40b005b3          	neg	a1,a1
    9718:	00a5f533          	and	a0,a1,a0
    971c:	01954463          	blt	a0,s9,9724 <.LBB103_772>
    9720:	0ff00513          	li	a0,255

0000000000009724 <.LBB103_772>:
    9724:	000015b7          	lui	a1,0x1
    9728:	40b405b3          	sub	a1,s0,a1
    972c:	56a5b423          	sd	a0,1384(a1) # 1568 <.LBB103_4+0x328>
    9730:	00001537          	lui	a0,0x1
    9734:	40a40533          	sub	a0,s0,a0
    9738:	58053503          	ld	a0,1408(a0) # 1580 <.LBB103_4+0x340>
    973c:	03850533          	mul	a0,a0,s8
    9740:	000015b7          	lui	a1,0x1
    9744:	40b405b3          	sub	a1,s0,a1
    9748:	5705b583          	ld	a1,1392(a1) # 1570 <.LBB103_4+0x330>
    974c:	017585b3          	add	a1,a1,s7
    9750:	00b50533          	add	a0,a0,a1
    9754:	42455513          	srai	a0,a0,0x24
    9758:	00a025b3          	sgtz	a1,a0
    975c:	40b005b3          	neg	a1,a1
    9760:	00a5f533          	and	a0,a1,a0
    9764:	01954463          	blt	a0,s9,976c <.LBB103_774>
    9768:	0ff00513          	li	a0,255

000000000000976c <.LBB103_774>:
    976c:	000015b7          	lui	a1,0x1
    9770:	40b405b3          	sub	a1,s0,a1
    9774:	58a5b023          	sd	a0,1408(a1) # 1580 <.LBB103_4+0x340>
    9778:	00001537          	lui	a0,0x1
    977c:	40a40533          	sub	a0,s0,a0
    9780:	58853503          	ld	a0,1416(a0) # 1588 <.LBB103_4+0x348>
    9784:	03850533          	mul	a0,a0,s8
    9788:	000015b7          	lui	a1,0x1
    978c:	40b405b3          	sub	a1,s0,a1
    9790:	5785b583          	ld	a1,1400(a1) # 1578 <.LBB103_4+0x338>
    9794:	017585b3          	add	a1,a1,s7
    9798:	00b50533          	add	a0,a0,a1
    979c:	42455513          	srai	a0,a0,0x24
    97a0:	00a025b3          	sgtz	a1,a0
    97a4:	40b005b3          	neg	a1,a1
    97a8:	00a5f533          	and	a0,a1,a0
    97ac:	01954463          	blt	a0,s9,97b4 <.LBB103_776>
    97b0:	0ff00513          	li	a0,255

00000000000097b4 <.LBB103_776>:
    97b4:	000015b7          	lui	a1,0x1
    97b8:	40b405b3          	sub	a1,s0,a1
    97bc:	58a5b423          	sd	a0,1416(a1) # 1588 <.LBB103_4+0x348>
    97c0:	00001537          	lui	a0,0x1
    97c4:	40a40533          	sub	a0,s0,a0
    97c8:	59853503          	ld	a0,1432(a0) # 1598 <.LBB103_4+0x358>
    97cc:	03850533          	mul	a0,a0,s8
    97d0:	000015b7          	lui	a1,0x1
    97d4:	40b405b3          	sub	a1,s0,a1
    97d8:	5905b583          	ld	a1,1424(a1) # 1590 <.LBB103_4+0x350>
    97dc:	017585b3          	add	a1,a1,s7
    97e0:	00b50533          	add	a0,a0,a1
    97e4:	42455513          	srai	a0,a0,0x24
    97e8:	00a025b3          	sgtz	a1,a0
    97ec:	40b005b3          	neg	a1,a1
    97f0:	00a5f533          	and	a0,a1,a0
    97f4:	01954463          	blt	a0,s9,97fc <.LBB103_778>
    97f8:	0ff00513          	li	a0,255

00000000000097fc <.LBB103_778>:
    97fc:	000015b7          	lui	a1,0x1
    9800:	40b405b3          	sub	a1,s0,a1
    9804:	58a5bc23          	sd	a0,1432(a1) # 1598 <.LBB103_4+0x358>
    9808:	00001537          	lui	a0,0x1
    980c:	40a40533          	sub	a0,s0,a0
    9810:	5a853503          	ld	a0,1448(a0) # 15a8 <.LBB103_4+0x368>
    9814:	03850533          	mul	a0,a0,s8
    9818:	000015b7          	lui	a1,0x1
    981c:	40b405b3          	sub	a1,s0,a1
    9820:	5a05b583          	ld	a1,1440(a1) # 15a0 <.LBB103_4+0x360>
    9824:	017585b3          	add	a1,a1,s7
    9828:	00b50533          	add	a0,a0,a1
    982c:	42455513          	srai	a0,a0,0x24
    9830:	00a025b3          	sgtz	a1,a0
    9834:	40b005b3          	neg	a1,a1
    9838:	00a5f533          	and	a0,a1,a0
    983c:	01954463          	blt	a0,s9,9844 <.LBB103_780>
    9840:	0ff00513          	li	a0,255

0000000000009844 <.LBB103_780>:
    9844:	000015b7          	lui	a1,0x1
    9848:	40b405b3          	sub	a1,s0,a1
    984c:	5aa5b423          	sd	a0,1448(a1) # 15a8 <.LBB103_4+0x368>
    9850:	00001537          	lui	a0,0x1
    9854:	40a40533          	sub	a0,s0,a0
    9858:	5b853503          	ld	a0,1464(a0) # 15b8 <.LBB103_4+0x378>
    985c:	03850533          	mul	a0,a0,s8
    9860:	000015b7          	lui	a1,0x1
    9864:	40b405b3          	sub	a1,s0,a1
    9868:	5b05b583          	ld	a1,1456(a1) # 15b0 <.LBB103_4+0x370>
    986c:	017585b3          	add	a1,a1,s7
    9870:	00b50533          	add	a0,a0,a1
    9874:	42455513          	srai	a0,a0,0x24
    9878:	00a025b3          	sgtz	a1,a0
    987c:	40b005b3          	neg	a1,a1
    9880:	00a5f533          	and	a0,a1,a0
    9884:	01954463          	blt	a0,s9,988c <.LBB103_782>
    9888:	0ff00513          	li	a0,255

000000000000988c <.LBB103_782>:
    988c:	000015b7          	lui	a1,0x1
    9890:	40b405b3          	sub	a1,s0,a1
    9894:	5aa5bc23          	sd	a0,1464(a1) # 15b8 <.LBB103_4+0x378>
    9898:	00001537          	lui	a0,0x1
    989c:	40a40533          	sub	a0,s0,a0
    98a0:	5c853503          	ld	a0,1480(a0) # 15c8 <.LBB103_4+0x388>
    98a4:	03850533          	mul	a0,a0,s8
    98a8:	000015b7          	lui	a1,0x1
    98ac:	40b405b3          	sub	a1,s0,a1
    98b0:	5c05b583          	ld	a1,1472(a1) # 15c0 <.LBB103_4+0x380>
    98b4:	017585b3          	add	a1,a1,s7
    98b8:	00b50533          	add	a0,a0,a1
    98bc:	42455513          	srai	a0,a0,0x24
    98c0:	00a025b3          	sgtz	a1,a0
    98c4:	40b005b3          	neg	a1,a1
    98c8:	00a5f533          	and	a0,a1,a0
    98cc:	01954463          	blt	a0,s9,98d4 <.LBB103_784>
    98d0:	0ff00513          	li	a0,255

00000000000098d4 <.LBB103_784>:
    98d4:	000015b7          	lui	a1,0x1
    98d8:	40b405b3          	sub	a1,s0,a1
    98dc:	5ca5b423          	sd	a0,1480(a1) # 15c8 <.LBB103_4+0x388>
    98e0:	00001537          	lui	a0,0x1
    98e4:	40a40533          	sub	a0,s0,a0
    98e8:	5d853503          	ld	a0,1496(a0) # 15d8 <.LBB103_4+0x398>
    98ec:	03850533          	mul	a0,a0,s8
    98f0:	000015b7          	lui	a1,0x1
    98f4:	40b405b3          	sub	a1,s0,a1
    98f8:	5d05b583          	ld	a1,1488(a1) # 15d0 <.LBB103_4+0x390>
    98fc:	017585b3          	add	a1,a1,s7
    9900:	00b50533          	add	a0,a0,a1
    9904:	42455513          	srai	a0,a0,0x24
    9908:	00a025b3          	sgtz	a1,a0
    990c:	40b005b3          	neg	a1,a1
    9910:	00a5f533          	and	a0,a1,a0
    9914:	01954463          	blt	a0,s9,991c <.LBB103_786>
    9918:	0ff00513          	li	a0,255

000000000000991c <.LBB103_786>:
    991c:	000015b7          	lui	a1,0x1
    9920:	40b405b3          	sub	a1,s0,a1
    9924:	5ca5bc23          	sd	a0,1496(a1) # 15d8 <.LBB103_4+0x398>
    9928:	00001537          	lui	a0,0x1
    992c:	40a40533          	sub	a0,s0,a0
    9930:	5e853503          	ld	a0,1512(a0) # 15e8 <.LBB103_4+0x3a8>
    9934:	03850533          	mul	a0,a0,s8
    9938:	000015b7          	lui	a1,0x1
    993c:	40b405b3          	sub	a1,s0,a1
    9940:	5e05b583          	ld	a1,1504(a1) # 15e0 <.LBB103_4+0x3a0>
    9944:	017585b3          	add	a1,a1,s7
    9948:	00b50533          	add	a0,a0,a1
    994c:	42455513          	srai	a0,a0,0x24
    9950:	00a025b3          	sgtz	a1,a0
    9954:	40b005b3          	neg	a1,a1
    9958:	00a5f533          	and	a0,a1,a0
    995c:	01954463          	blt	a0,s9,9964 <.LBB103_788>
    9960:	0ff00513          	li	a0,255

0000000000009964 <.LBB103_788>:
    9964:	000015b7          	lui	a1,0x1
    9968:	40b405b3          	sub	a1,s0,a1
    996c:	5ea5b423          	sd	a0,1512(a1) # 15e8 <.LBB103_4+0x3a8>
    9970:	00001537          	lui	a0,0x1
    9974:	40a40533          	sub	a0,s0,a0
    9978:	5f853503          	ld	a0,1528(a0) # 15f8 <.LBB103_4+0x3b8>
    997c:	03850533          	mul	a0,a0,s8
    9980:	000015b7          	lui	a1,0x1
    9984:	40b405b3          	sub	a1,s0,a1
    9988:	5f05b583          	ld	a1,1520(a1) # 15f0 <.LBB103_4+0x3b0>
    998c:	017585b3          	add	a1,a1,s7
    9990:	00b50533          	add	a0,a0,a1
    9994:	42455513          	srai	a0,a0,0x24
    9998:	00a025b3          	sgtz	a1,a0
    999c:	40b005b3          	neg	a1,a1
    99a0:	00a5f533          	and	a0,a1,a0
    99a4:	01954463          	blt	a0,s9,99ac <.LBB103_790>
    99a8:	0ff00513          	li	a0,255

00000000000099ac <.LBB103_790>:
    99ac:	000015b7          	lui	a1,0x1
    99b0:	40b405b3          	sub	a1,s0,a1
    99b4:	5ea5bc23          	sd	a0,1528(a1) # 15f8 <.LBB103_4+0x3b8>
    99b8:	00001537          	lui	a0,0x1
    99bc:	40a40533          	sub	a0,s0,a0
    99c0:	60853503          	ld	a0,1544(a0) # 1608 <.LBB103_4+0x3c8>
    99c4:	03850533          	mul	a0,a0,s8
    99c8:	000015b7          	lui	a1,0x1
    99cc:	40b405b3          	sub	a1,s0,a1
    99d0:	6005b583          	ld	a1,1536(a1) # 1600 <.LBB103_4+0x3c0>
    99d4:	017585b3          	add	a1,a1,s7
    99d8:	00b50533          	add	a0,a0,a1
    99dc:	42455513          	srai	a0,a0,0x24
    99e0:	00a025b3          	sgtz	a1,a0
    99e4:	40b005b3          	neg	a1,a1
    99e8:	00a5f533          	and	a0,a1,a0
    99ec:	01954463          	blt	a0,s9,99f4 <.LBB103_792>
    99f0:	0ff00513          	li	a0,255

00000000000099f4 <.LBB103_792>:
    99f4:	000015b7          	lui	a1,0x1
    99f8:	40b405b3          	sub	a1,s0,a1
    99fc:	60a5b423          	sd	a0,1544(a1) # 1608 <.LBB103_4+0x3c8>
    9a00:	00001537          	lui	a0,0x1
    9a04:	40a40533          	sub	a0,s0,a0
    9a08:	61853503          	ld	a0,1560(a0) # 1618 <.LBB103_4+0x3d8>
    9a0c:	03850533          	mul	a0,a0,s8
    9a10:	000015b7          	lui	a1,0x1
    9a14:	40b405b3          	sub	a1,s0,a1
    9a18:	6105b583          	ld	a1,1552(a1) # 1610 <.LBB103_4+0x3d0>
    9a1c:	017585b3          	add	a1,a1,s7
    9a20:	00b50533          	add	a0,a0,a1
    9a24:	42455513          	srai	a0,a0,0x24
    9a28:	00a025b3          	sgtz	a1,a0
    9a2c:	40b005b3          	neg	a1,a1
    9a30:	00a5f533          	and	a0,a1,a0
    9a34:	01954463          	blt	a0,s9,9a3c <.LBB103_794>
    9a38:	0ff00513          	li	a0,255

0000000000009a3c <.LBB103_794>:
    9a3c:	000015b7          	lui	a1,0x1
    9a40:	40b405b3          	sub	a1,s0,a1
    9a44:	60a5bc23          	sd	a0,1560(a1) # 1618 <.LBB103_4+0x3d8>
    9a48:	00001537          	lui	a0,0x1
    9a4c:	40a40533          	sub	a0,s0,a0
    9a50:	62853503          	ld	a0,1576(a0) # 1628 <.LBB103_4+0x3e8>
    9a54:	03850533          	mul	a0,a0,s8
    9a58:	000015b7          	lui	a1,0x1
    9a5c:	40b405b3          	sub	a1,s0,a1
    9a60:	6205b583          	ld	a1,1568(a1) # 1620 <.LBB103_4+0x3e0>
    9a64:	017585b3          	add	a1,a1,s7
    9a68:	00b50533          	add	a0,a0,a1
    9a6c:	42455513          	srai	a0,a0,0x24
    9a70:	00a025b3          	sgtz	a1,a0
    9a74:	40b005b3          	neg	a1,a1
    9a78:	00a5f533          	and	a0,a1,a0
    9a7c:	01954463          	blt	a0,s9,9a84 <.LBB103_796>
    9a80:	0ff00513          	li	a0,255

0000000000009a84 <.LBB103_796>:
    9a84:	000015b7          	lui	a1,0x1
    9a88:	40b405b3          	sub	a1,s0,a1
    9a8c:	62a5b423          	sd	a0,1576(a1) # 1628 <.LBB103_4+0x3e8>
    9a90:	00001537          	lui	a0,0x1
    9a94:	40a40533          	sub	a0,s0,a0
    9a98:	63853503          	ld	a0,1592(a0) # 1638 <.LBB103_4+0x3f8>
    9a9c:	03850533          	mul	a0,a0,s8
    9aa0:	000015b7          	lui	a1,0x1
    9aa4:	40b405b3          	sub	a1,s0,a1
    9aa8:	6305b583          	ld	a1,1584(a1) # 1630 <.LBB103_4+0x3f0>
    9aac:	017585b3          	add	a1,a1,s7
    9ab0:	00b50533          	add	a0,a0,a1
    9ab4:	42455513          	srai	a0,a0,0x24
    9ab8:	00a025b3          	sgtz	a1,a0
    9abc:	40b005b3          	neg	a1,a1
    9ac0:	00a5f533          	and	a0,a1,a0
    9ac4:	01954463          	blt	a0,s9,9acc <.LBB103_798>
    9ac8:	0ff00513          	li	a0,255

0000000000009acc <.LBB103_798>:
    9acc:	000015b7          	lui	a1,0x1
    9ad0:	40b405b3          	sub	a1,s0,a1
    9ad4:	62a5bc23          	sd	a0,1592(a1) # 1638 <.LBB103_4+0x3f8>
    9ad8:	00001537          	lui	a0,0x1
    9adc:	40a40533          	sub	a0,s0,a0
    9ae0:	66853503          	ld	a0,1640(a0) # 1668 <.LBB103_4+0x428>
    9ae4:	03850533          	mul	a0,a0,s8
    9ae8:	000015b7          	lui	a1,0x1
    9aec:	40b405b3          	sub	a1,s0,a1
    9af0:	6405b583          	ld	a1,1600(a1) # 1640 <.LBB103_4+0x400>
    9af4:	017585b3          	add	a1,a1,s7
    9af8:	00b50533          	add	a0,a0,a1
    9afc:	42455513          	srai	a0,a0,0x24
    9b00:	00a025b3          	sgtz	a1,a0
    9b04:	40b005b3          	neg	a1,a1
    9b08:	00a5f533          	and	a0,a1,a0
    9b0c:	01954463          	blt	a0,s9,9b14 <.LBB103_800>
    9b10:	0ff00513          	li	a0,255

0000000000009b14 <.LBB103_800>:
    9b14:	000015b7          	lui	a1,0x1
    9b18:	40b405b3          	sub	a1,s0,a1
    9b1c:	66a5b423          	sd	a0,1640(a1) # 1668 <.LBB103_4+0x428>
    9b20:	00001537          	lui	a0,0x1
    9b24:	40a40533          	sub	a0,s0,a0
    9b28:	67853503          	ld	a0,1656(a0) # 1678 <.LBB103_4+0x438>
    9b2c:	03850533          	mul	a0,a0,s8
    9b30:	000015b7          	lui	a1,0x1
    9b34:	40b405b3          	sub	a1,s0,a1
    9b38:	6705b583          	ld	a1,1648(a1) # 1670 <.LBB103_4+0x430>
    9b3c:	017585b3          	add	a1,a1,s7
    9b40:	00b50533          	add	a0,a0,a1
    9b44:	42455513          	srai	a0,a0,0x24
    9b48:	00a025b3          	sgtz	a1,a0
    9b4c:	40b005b3          	neg	a1,a1
    9b50:	00a5f533          	and	a0,a1,a0
    9b54:	01954463          	blt	a0,s9,9b5c <.LBB103_802>
    9b58:	0ff00513          	li	a0,255

0000000000009b5c <.LBB103_802>:
    9b5c:	000015b7          	lui	a1,0x1
    9b60:	40b405b3          	sub	a1,s0,a1
    9b64:	66a5bc23          	sd	a0,1656(a1) # 1678 <.LBB103_4+0x438>
    9b68:	00001537          	lui	a0,0x1
    9b6c:	40a40533          	sub	a0,s0,a0
    9b70:	68853503          	ld	a0,1672(a0) # 1688 <.LBB103_4+0x448>
    9b74:	03850533          	mul	a0,a0,s8
    9b78:	000015b7          	lui	a1,0x1
    9b7c:	40b405b3          	sub	a1,s0,a1
    9b80:	6805b583          	ld	a1,1664(a1) # 1680 <.LBB103_4+0x440>
    9b84:	017585b3          	add	a1,a1,s7
    9b88:	00b50533          	add	a0,a0,a1
    9b8c:	42455513          	srai	a0,a0,0x24
    9b90:	00a025b3          	sgtz	a1,a0
    9b94:	40b005b3          	neg	a1,a1
    9b98:	00a5f533          	and	a0,a1,a0
    9b9c:	01954463          	blt	a0,s9,9ba4 <.LBB103_804>
    9ba0:	0ff00513          	li	a0,255

0000000000009ba4 <.LBB103_804>:
    9ba4:	000015b7          	lui	a1,0x1
    9ba8:	40b405b3          	sub	a1,s0,a1
    9bac:	68a5b423          	sd	a0,1672(a1) # 1688 <.LBB103_4+0x448>
    9bb0:	00001537          	lui	a0,0x1
    9bb4:	40a40533          	sub	a0,s0,a0
    9bb8:	6e853503          	ld	a0,1768(a0) # 16e8 <.LBB103_4+0x4a8>
    9bbc:	03850533          	mul	a0,a0,s8
    9bc0:	000015b7          	lui	a1,0x1
    9bc4:	40b405b3          	sub	a1,s0,a1
    9bc8:	6e05b583          	ld	a1,1760(a1) # 16e0 <.LBB103_4+0x4a0>
    9bcc:	017585b3          	add	a1,a1,s7
    9bd0:	00b50533          	add	a0,a0,a1
    9bd4:	42455513          	srai	a0,a0,0x24
    9bd8:	00a025b3          	sgtz	a1,a0
    9bdc:	40b005b3          	neg	a1,a1
    9be0:	00a5f533          	and	a0,a1,a0
    9be4:	01954463          	blt	a0,s9,9bec <.LBB103_806>
    9be8:	0ff00513          	li	a0,255

0000000000009bec <.LBB103_806>:
    9bec:	000015b7          	lui	a1,0x1
    9bf0:	40b405b3          	sub	a1,s0,a1
    9bf4:	6ea5b423          	sd	a0,1768(a1) # 16e8 <.LBB103_4+0x4a8>
    9bf8:	00001537          	lui	a0,0x1
    9bfc:	40a40533          	sub	a0,s0,a0
    9c00:	78853503          	ld	a0,1928(a0) # 1788 <.LBB103_4+0x548>
    9c04:	03850533          	mul	a0,a0,s8
    9c08:	000015b7          	lui	a1,0x1
    9c0c:	40b405b3          	sub	a1,s0,a1
    9c10:	7805b583          	ld	a1,1920(a1) # 1780 <.LBB103_4+0x540>
    9c14:	017585b3          	add	a1,a1,s7
    9c18:	00b50533          	add	a0,a0,a1
    9c1c:	42455513          	srai	a0,a0,0x24
    9c20:	00a025b3          	sgtz	a1,a0
    9c24:	40b005b3          	neg	a1,a1
    9c28:	00a5f533          	and	a0,a1,a0
    9c2c:	01954463          	blt	a0,s9,9c34 <.LBB103_808>
    9c30:	0ff00513          	li	a0,255

0000000000009c34 <.LBB103_808>:
    9c34:	000015b7          	lui	a1,0x1
    9c38:	40b405b3          	sub	a1,s0,a1
    9c3c:	78a5b423          	sd	a0,1928(a1) # 1788 <.LBB103_4+0x548>
    9c40:	00001537          	lui	a0,0x1
    9c44:	40a40533          	sub	a0,s0,a0
    9c48:	79053503          	ld	a0,1936(a0) # 1790 <.LBB103_4+0x550>
    9c4c:	03850533          	mul	a0,a0,s8
    9c50:	017785b3          	add	a1,a5,s7
    9c54:	00b50533          	add	a0,a0,a1
    9c58:	42455513          	srai	a0,a0,0x24
    9c5c:	00a025b3          	sgtz	a1,a0
    9c60:	40b005b3          	neg	a1,a1
    9c64:	00a5f533          	and	a0,a1,a0
    9c68:	01954463          	blt	a0,s9,9c70 <.LBB103_810>
    9c6c:	0ff00513          	li	a0,255

0000000000009c70 <.LBB103_810>:
    9c70:	000015b7          	lui	a1,0x1
    9c74:	40b405b3          	sub	a1,s0,a1
    9c78:	78a5b823          	sd	a0,1936(a1) # 1790 <.LBB103_4+0x550>
    9c7c:	00001537          	lui	a0,0x1
    9c80:	40a40533          	sub	a0,s0,a0
    9c84:	79853503          	ld	a0,1944(a0) # 1798 <.LBB103_4+0x558>
    9c88:	03850533          	mul	a0,a0,s8
    9c8c:	b1043583          	ld	a1,-1264(s0)
    9c90:	017585b3          	add	a1,a1,s7
    9c94:	00b50533          	add	a0,a0,a1
    9c98:	42455513          	srai	a0,a0,0x24
    9c9c:	00a025b3          	sgtz	a1,a0
    9ca0:	40b005b3          	neg	a1,a1
    9ca4:	00a5f533          	and	a0,a1,a0
    9ca8:	01954463          	blt	a0,s9,9cb0 <.LBB103_812>
    9cac:	0ff00513          	li	a0,255

0000000000009cb0 <.LBB103_812>:
    9cb0:	b0a43823          	sd	a0,-1264(s0)
    9cb4:	00001537          	lui	a0,0x1
    9cb8:	40a40533          	sub	a0,s0,a0
    9cbc:	7b053503          	ld	a0,1968(a0) # 17b0 <.LBB103_4+0x570>
    9cc0:	03850533          	mul	a0,a0,s8
    9cc4:	000015b7          	lui	a1,0x1
    9cc8:	40b405b3          	sub	a1,s0,a1
    9ccc:	7a05b583          	ld	a1,1952(a1) # 17a0 <.LBB103_4+0x560>
    9cd0:	017585b3          	add	a1,a1,s7
    9cd4:	00b50533          	add	a0,a0,a1
    9cd8:	42455513          	srai	a0,a0,0x24
    9cdc:	00a025b3          	sgtz	a1,a0
    9ce0:	40b005b3          	neg	a1,a1
    9ce4:	00a5f533          	and	a0,a1,a0
    9ce8:	01954463          	blt	a0,s9,9cf0 <.LBB103_814>
    9cec:	0ff00513          	li	a0,255

0000000000009cf0 <.LBB103_814>:
    9cf0:	000015b7          	lui	a1,0x1
    9cf4:	40b405b3          	sub	a1,s0,a1
    9cf8:	7aa5b823          	sd	a0,1968(a1) # 17b0 <.LBB103_4+0x570>
    9cfc:	00001537          	lui	a0,0x1
    9d00:	40a40533          	sub	a0,s0,a0
    9d04:	7c053503          	ld	a0,1984(a0) # 17c0 <.LBB103_4+0x580>
    9d08:	03850533          	mul	a0,a0,s8
    9d0c:	000015b7          	lui	a1,0x1
    9d10:	40b405b3          	sub	a1,s0,a1
    9d14:	7b85b583          	ld	a1,1976(a1) # 17b8 <.LBB103_4+0x578>
    9d18:	017585b3          	add	a1,a1,s7
    9d1c:	00b50533          	add	a0,a0,a1
    9d20:	42455513          	srai	a0,a0,0x24
    9d24:	00a025b3          	sgtz	a1,a0
    9d28:	40b005b3          	neg	a1,a1
    9d2c:	00a5f533          	and	a0,a1,a0
    9d30:	01954463          	blt	a0,s9,9d38 <.LBB103_816>
    9d34:	0ff00513          	li	a0,255

0000000000009d38 <.LBB103_816>:
    9d38:	000015b7          	lui	a1,0x1
    9d3c:	40b405b3          	sub	a1,s0,a1
    9d40:	7ca5b023          	sd	a0,1984(a1) # 17c0 <.LBB103_4+0x580>
    9d44:	00001537          	lui	a0,0x1
    9d48:	40a40533          	sub	a0,s0,a0
    9d4c:	7d053503          	ld	a0,2000(a0) # 17d0 <.LBB103_4+0x590>
    9d50:	03850533          	mul	a0,a0,s8
    9d54:	000015b7          	lui	a1,0x1
    9d58:	40b405b3          	sub	a1,s0,a1
    9d5c:	7c85b583          	ld	a1,1992(a1) # 17c8 <.LBB103_4+0x588>
    9d60:	017585b3          	add	a1,a1,s7
    9d64:	00b50533          	add	a0,a0,a1
    9d68:	42455513          	srai	a0,a0,0x24
    9d6c:	00a025b3          	sgtz	a1,a0
    9d70:	40b005b3          	neg	a1,a1
    9d74:	00a5f533          	and	a0,a1,a0
    9d78:	01954463          	blt	a0,s9,9d80 <.LBB103_818>
    9d7c:	0ff00513          	li	a0,255

0000000000009d80 <.LBB103_818>:
    9d80:	000015b7          	lui	a1,0x1
    9d84:	40b405b3          	sub	a1,s0,a1
    9d88:	7ca5b823          	sd	a0,2000(a1) # 17d0 <.LBB103_4+0x590>
    9d8c:	00001537          	lui	a0,0x1
    9d90:	40a40533          	sub	a0,s0,a0
    9d94:	7e053503          	ld	a0,2016(a0) # 17e0 <.LBB103_4+0x5a0>
    9d98:	03850533          	mul	a0,a0,s8
    9d9c:	000015b7          	lui	a1,0x1
    9da0:	40b405b3          	sub	a1,s0,a1
    9da4:	7d85b583          	ld	a1,2008(a1) # 17d8 <.LBB103_4+0x598>
    9da8:	017585b3          	add	a1,a1,s7
    9dac:	00b50533          	add	a0,a0,a1
    9db0:	42455513          	srai	a0,a0,0x24
    9db4:	00a025b3          	sgtz	a1,a0
    9db8:	40b005b3          	neg	a1,a1
    9dbc:	00a5f533          	and	a0,a1,a0
    9dc0:	01954463          	blt	a0,s9,9dc8 <.LBB103_820>
    9dc4:	0ff00513          	li	a0,255

0000000000009dc8 <.LBB103_820>:
    9dc8:	000015b7          	lui	a1,0x1
    9dcc:	40b405b3          	sub	a1,s0,a1
    9dd0:	7ea5b023          	sd	a0,2016(a1) # 17e0 <.LBB103_4+0x5a0>
    9dd4:	00001537          	lui	a0,0x1
    9dd8:	40a40533          	sub	a0,s0,a0
    9ddc:	7f853503          	ld	a0,2040(a0) # 17f8 <.LBB103_4+0x5b8>
    9de0:	03850533          	mul	a0,a0,s8
    9de4:	000015b7          	lui	a1,0x1
    9de8:	40b405b3          	sub	a1,s0,a1
    9dec:	7f05b583          	ld	a1,2032(a1) # 17f0 <.LBB103_4+0x5b0>
    9df0:	017585b3          	add	a1,a1,s7
    9df4:	00b50533          	add	a0,a0,a1
    9df8:	42455513          	srai	a0,a0,0x24
    9dfc:	00a025b3          	sgtz	a1,a0
    9e00:	40b005b3          	neg	a1,a1
    9e04:	00a5f533          	and	a0,a1,a0
    9e08:	01954463          	blt	a0,s9,9e10 <.LBB103_822>
    9e0c:	0ff00513          	li	a0,255

0000000000009e10 <.LBB103_822>:
    9e10:	000015b7          	lui	a1,0x1
    9e14:	40b405b3          	sub	a1,s0,a1
    9e18:	7ea5bc23          	sd	a0,2040(a1) # 17f8 <.LBB103_4+0x5b8>
    9e1c:	80843503          	ld	a0,-2040(s0)
    9e20:	03850533          	mul	a0,a0,s8
    9e24:	80043583          	ld	a1,-2048(s0)
    9e28:	017585b3          	add	a1,a1,s7
    9e2c:	00b50533          	add	a0,a0,a1
    9e30:	42455513          	srai	a0,a0,0x24
    9e34:	00a025b3          	sgtz	a1,a0
    9e38:	40b005b3          	neg	a1,a1
    9e3c:	00a5f533          	and	a0,a1,a0
    9e40:	01954463          	blt	a0,s9,9e48 <.LBB103_824>
    9e44:	0ff00513          	li	a0,255

0000000000009e48 <.LBB103_824>:
    9e48:	80a43423          	sd	a0,-2040(s0)
    9e4c:	81843503          	ld	a0,-2024(s0)
    9e50:	03850533          	mul	a0,a0,s8
    9e54:	81043583          	ld	a1,-2032(s0)
    9e58:	017585b3          	add	a1,a1,s7
    9e5c:	00b50533          	add	a0,a0,a1
    9e60:	42455513          	srai	a0,a0,0x24
    9e64:	00a025b3          	sgtz	a1,a0
    9e68:	40b005b3          	neg	a1,a1
    9e6c:	00a5f533          	and	a0,a1,a0
    9e70:	01954463          	blt	a0,s9,9e78 <.LBB103_826>
    9e74:	0ff00513          	li	a0,255

0000000000009e78 <.LBB103_826>:
    9e78:	80a43c23          	sd	a0,-2024(s0)
    9e7c:	82843503          	ld	a0,-2008(s0)
    9e80:	03850533          	mul	a0,a0,s8
    9e84:	82043583          	ld	a1,-2016(s0)
    9e88:	017585b3          	add	a1,a1,s7
    9e8c:	00b50533          	add	a0,a0,a1
    9e90:	42455513          	srai	a0,a0,0x24
    9e94:	00a025b3          	sgtz	a1,a0
    9e98:	40b005b3          	neg	a1,a1
    9e9c:	00a5f533          	and	a0,a1,a0
    9ea0:	01954463          	blt	a0,s9,9ea8 <.LBB103_828>
    9ea4:	0ff00513          	li	a0,255

0000000000009ea8 <.LBB103_828>:
    9ea8:	82a43423          	sd	a0,-2008(s0)
    9eac:	84043503          	ld	a0,-1984(s0)
    9eb0:	03850533          	mul	a0,a0,s8
    9eb4:	83843583          	ld	a1,-1992(s0)
    9eb8:	017585b3          	add	a1,a1,s7
    9ebc:	00b50533          	add	a0,a0,a1
    9ec0:	42455513          	srai	a0,a0,0x24
    9ec4:	00a025b3          	sgtz	a1,a0
    9ec8:	40b005b3          	neg	a1,a1
    9ecc:	00a5f533          	and	a0,a1,a0
    9ed0:	01954463          	blt	a0,s9,9ed8 <.LBB103_830>
    9ed4:	0ff00513          	li	a0,255

0000000000009ed8 <.LBB103_830>:
    9ed8:	84a43023          	sd	a0,-1984(s0)
    9edc:	85043503          	ld	a0,-1968(s0)
    9ee0:	03850533          	mul	a0,a0,s8
    9ee4:	84843583          	ld	a1,-1976(s0)
    9ee8:	017585b3          	add	a1,a1,s7
    9eec:	00b50533          	add	a0,a0,a1
    9ef0:	42455513          	srai	a0,a0,0x24
    9ef4:	00a025b3          	sgtz	a1,a0
    9ef8:	40b005b3          	neg	a1,a1
    9efc:	00a5f533          	and	a0,a1,a0
    9f00:	01954463          	blt	a0,s9,9f08 <.LBB103_832>
    9f04:	0ff00513          	li	a0,255

0000000000009f08 <.LBB103_832>:
    9f08:	84a43823          	sd	a0,-1968(s0)
    9f0c:	86043503          	ld	a0,-1952(s0)
    9f10:	03850533          	mul	a0,a0,s8
    9f14:	85843583          	ld	a1,-1960(s0)
    9f18:	017585b3          	add	a1,a1,s7
    9f1c:	00b50533          	add	a0,a0,a1
    9f20:	42455513          	srai	a0,a0,0x24
    9f24:	00a025b3          	sgtz	a1,a0
    9f28:	40b005b3          	neg	a1,a1
    9f2c:	00a5f533          	and	a0,a1,a0
    9f30:	01954463          	blt	a0,s9,9f38 <.LBB103_834>
    9f34:	0ff00513          	li	a0,255

0000000000009f38 <.LBB103_834>:
    9f38:	86a43023          	sd	a0,-1952(s0)
    9f3c:	87843503          	ld	a0,-1928(s0)
    9f40:	03850533          	mul	a0,a0,s8
    9f44:	017705b3          	add	a1,a4,s7
    9f48:	00b50533          	add	a0,a0,a1
    9f4c:	42455513          	srai	a0,a0,0x24
    9f50:	00a025b3          	sgtz	a1,a0
    9f54:	40b005b3          	neg	a1,a1
    9f58:	00a5f533          	and	a0,a1,a0
    9f5c:	01954463          	blt	a0,s9,9f64 <.LBB103_836>
    9f60:	0ff00513          	li	a0,255

0000000000009f64 <.LBB103_836>:
    9f64:	86a43c23          	sd	a0,-1928(s0)
    9f68:	88843503          	ld	a0,-1912(s0)
    9f6c:	03850533          	mul	a0,a0,s8
    9f70:	017805b3          	add	a1,a6,s7
    9f74:	00b50533          	add	a0,a0,a1
    9f78:	42455513          	srai	a0,a0,0x24
    9f7c:	00a025b3          	sgtz	a1,a0
    9f80:	40b005b3          	neg	a1,a1
    9f84:	00a5f533          	and	a0,a1,a0
    9f88:	01954463          	blt	a0,s9,9f90 <.LBB103_838>
    9f8c:	0ff00513          	li	a0,255

0000000000009f90 <.LBB103_838>:
    9f90:	88a43423          	sd	a0,-1912(s0)
    9f94:	89043503          	ld	a0,-1904(s0)
    9f98:	03850533          	mul	a0,a0,s8
    9f9c:	88043583          	ld	a1,-1920(s0)
    9fa0:	017585b3          	add	a1,a1,s7
    9fa4:	00b50533          	add	a0,a0,a1
    9fa8:	42455513          	srai	a0,a0,0x24
    9fac:	00a025b3          	sgtz	a1,a0
    9fb0:	40b005b3          	neg	a1,a1
    9fb4:	00a5f533          	and	a0,a1,a0
    9fb8:	01954463          	blt	a0,s9,9fc0 <.LBB103_840>
    9fbc:	0ff00513          	li	a0,255

0000000000009fc0 <.LBB103_840>:
    9fc0:	88a43823          	sd	a0,-1904(s0)
    9fc4:	8a043503          	ld	a0,-1888(s0)
    9fc8:	03850533          	mul	a0,a0,s8
    9fcc:	89843583          	ld	a1,-1896(s0)
    9fd0:	017585b3          	add	a1,a1,s7
    9fd4:	00b50533          	add	a0,a0,a1
    9fd8:	42455513          	srai	a0,a0,0x24
    9fdc:	00a025b3          	sgtz	a1,a0
    9fe0:	40b005b3          	neg	a1,a1
    9fe4:	00a5f533          	and	a0,a1,a0
    9fe8:	01954463          	blt	a0,s9,9ff0 <.LBB103_842>
    9fec:	0ff00513          	li	a0,255

0000000000009ff0 <.LBB103_842>:
    9ff0:	8aa43023          	sd	a0,-1888(s0)
    9ff4:	8b043503          	ld	a0,-1872(s0)
    9ff8:	03850533          	mul	a0,a0,s8
    9ffc:	8a843583          	ld	a1,-1880(s0)
    a000:	017585b3          	add	a1,a1,s7
    a004:	00b50533          	add	a0,a0,a1
    a008:	42455513          	srai	a0,a0,0x24
    a00c:	00a025b3          	sgtz	a1,a0
    a010:	40b005b3          	neg	a1,a1
    a014:	00a5f533          	and	a0,a1,a0
    a018:	01954463          	blt	a0,s9,a020 <.LBB103_844>
    a01c:	0ff00513          	li	a0,255

000000000000a020 <.LBB103_844>:
    a020:	8aa43823          	sd	a0,-1872(s0)
    a024:	8c843503          	ld	a0,-1848(s0)
    a028:	03850533          	mul	a0,a0,s8
    a02c:	8c043583          	ld	a1,-1856(s0)
    a030:	017585b3          	add	a1,a1,s7
    a034:	00b50533          	add	a0,a0,a1
    a038:	42455513          	srai	a0,a0,0x24
    a03c:	00a025b3          	sgtz	a1,a0
    a040:	40b005b3          	neg	a1,a1
    a044:	00a5f533          	and	a0,a1,a0
    a048:	01954463          	blt	a0,s9,a050 <.LBB103_846>
    a04c:	0ff00513          	li	a0,255

000000000000a050 <.LBB103_846>:
    a050:	8ca43423          	sd	a0,-1848(s0)
    a054:	8d843503          	ld	a0,-1832(s0)
    a058:	03850533          	mul	a0,a0,s8
    a05c:	8d043583          	ld	a1,-1840(s0)
    a060:	017585b3          	add	a1,a1,s7
    a064:	00b50533          	add	a0,a0,a1
    a068:	42455513          	srai	a0,a0,0x24
    a06c:	00a025b3          	sgtz	a1,a0
    a070:	40b005b3          	neg	a1,a1
    a074:	00a5f533          	and	a0,a1,a0
    a078:	01954463          	blt	a0,s9,a080 <.LBB103_848>
    a07c:	0ff00513          	li	a0,255

000000000000a080 <.LBB103_848>:
    a080:	8ca43c23          	sd	a0,-1832(s0)
    a084:	8e843503          	ld	a0,-1816(s0)
    a088:	03850533          	mul	a0,a0,s8
    a08c:	8e043583          	ld	a1,-1824(s0)
    a090:	017585b3          	add	a1,a1,s7
    a094:	00b50533          	add	a0,a0,a1
    a098:	42455513          	srai	a0,a0,0x24
    a09c:	00a025b3          	sgtz	a1,a0
    a0a0:	40b005b3          	neg	a1,a1
    a0a4:	00a5f533          	and	a0,a1,a0
    a0a8:	01954463          	blt	a0,s9,a0b0 <.LBB103_850>
    a0ac:	0ff00513          	li	a0,255

000000000000a0b0 <.LBB103_850>:
    a0b0:	8ea43423          	sd	a0,-1816(s0)
    a0b4:	90043503          	ld	a0,-1792(s0)
    a0b8:	03850533          	mul	a0,a0,s8
    a0bc:	8f043583          	ld	a1,-1808(s0)
    a0c0:	017585b3          	add	a1,a1,s7
    a0c4:	00b50533          	add	a0,a0,a1
    a0c8:	42455513          	srai	a0,a0,0x24
    a0cc:	00a025b3          	sgtz	a1,a0
    a0d0:	40b005b3          	neg	a1,a1
    a0d4:	00a5f533          	and	a0,a1,a0
    a0d8:	01954463          	blt	a0,s9,a0e0 <.LBB103_852>
    a0dc:	0ff00513          	li	a0,255

000000000000a0e0 <.LBB103_852>:
    a0e0:	90a43023          	sd	a0,-1792(s0)
    a0e4:	91043503          	ld	a0,-1776(s0)
    a0e8:	03850533          	mul	a0,a0,s8
    a0ec:	90843583          	ld	a1,-1784(s0)
    a0f0:	017585b3          	add	a1,a1,s7
    a0f4:	00b50533          	add	a0,a0,a1
    a0f8:	42455513          	srai	a0,a0,0x24
    a0fc:	00a025b3          	sgtz	a1,a0
    a100:	40b005b3          	neg	a1,a1
    a104:	00a5f533          	and	a0,a1,a0
    a108:	01954463          	blt	a0,s9,a110 <.LBB103_854>
    a10c:	0ff00513          	li	a0,255

000000000000a110 <.LBB103_854>:
    a110:	90a43823          	sd	a0,-1776(s0)
    a114:	92043503          	ld	a0,-1760(s0)
    a118:	03850533          	mul	a0,a0,s8
    a11c:	91843583          	ld	a1,-1768(s0)
    a120:	017585b3          	add	a1,a1,s7
    a124:	00b50533          	add	a0,a0,a1
    a128:	42455513          	srai	a0,a0,0x24
    a12c:	00a025b3          	sgtz	a1,a0
    a130:	40b005b3          	neg	a1,a1
    a134:	00a5f533          	and	a0,a1,a0
    a138:	01954463          	blt	a0,s9,a140 <.LBB103_856>
    a13c:	0ff00513          	li	a0,255

000000000000a140 <.LBB103_856>:
    a140:	92a43023          	sd	a0,-1760(s0)
    a144:	92843503          	ld	a0,-1752(s0)
    a148:	03850533          	mul	a0,a0,s8
    a14c:	bc843583          	ld	a1,-1080(s0)
    a150:	017585b3          	add	a1,a1,s7
    a154:	00b50533          	add	a0,a0,a1
    a158:	42455513          	srai	a0,a0,0x24
    a15c:	00a025b3          	sgtz	a1,a0
    a160:	40b005b3          	neg	a1,a1
    a164:	00a5f533          	and	a0,a1,a0
    a168:	01954463          	blt	a0,s9,a170 <.LBB103_858>
    a16c:	0ff00513          	li	a0,255

000000000000a170 <.LBB103_858>:
    a170:	bca43423          	sd	a0,-1080(s0)
    a174:	94043503          	ld	a0,-1728(s0)
    a178:	03850533          	mul	a0,a0,s8
    a17c:	93843583          	ld	a1,-1736(s0)
    a180:	017585b3          	add	a1,a1,s7
    a184:	00b50533          	add	a0,a0,a1
    a188:	42455513          	srai	a0,a0,0x24
    a18c:	00a025b3          	sgtz	a1,a0
    a190:	40b005b3          	neg	a1,a1
    a194:	00a5f533          	and	a0,a1,a0
    a198:	01954463          	blt	a0,s9,a1a0 <.LBB103_860>
    a19c:	0ff00513          	li	a0,255

000000000000a1a0 <.LBB103_860>:
    a1a0:	94a43023          	sd	a0,-1728(s0)
    a1a4:	95043503          	ld	a0,-1712(s0)
    a1a8:	03850533          	mul	a0,a0,s8
    a1ac:	94843583          	ld	a1,-1720(s0)
    a1b0:	017585b3          	add	a1,a1,s7
    a1b4:	00b50533          	add	a0,a0,a1
    a1b8:	42455513          	srai	a0,a0,0x24
    a1bc:	00a025b3          	sgtz	a1,a0
    a1c0:	40b005b3          	neg	a1,a1
    a1c4:	00a5f533          	and	a0,a1,a0
    a1c8:	01954463          	blt	a0,s9,a1d0 <.LBB103_862>
    a1cc:	0ff00513          	li	a0,255

000000000000a1d0 <.LBB103_862>:
    a1d0:	94a43823          	sd	a0,-1712(s0)
    a1d4:	96043503          	ld	a0,-1696(s0)
    a1d8:	03850533          	mul	a0,a0,s8
    a1dc:	95843583          	ld	a1,-1704(s0)
    a1e0:	017585b3          	add	a1,a1,s7
    a1e4:	00b50533          	add	a0,a0,a1
    a1e8:	42455513          	srai	a0,a0,0x24
    a1ec:	00a025b3          	sgtz	a1,a0
    a1f0:	40b005b3          	neg	a1,a1
    a1f4:	00a5f533          	and	a0,a1,a0
    a1f8:	01954463          	blt	a0,s9,a200 <.LBB103_864>
    a1fc:	0ff00513          	li	a0,255

000000000000a200 <.LBB103_864>:
    a200:	96a43023          	sd	a0,-1696(s0)
    a204:	97043503          	ld	a0,-1680(s0)
    a208:	03850533          	mul	a0,a0,s8
    a20c:	96843583          	ld	a1,-1688(s0)
    a210:	017585b3          	add	a1,a1,s7
    a214:	00b50533          	add	a0,a0,a1
    a218:	42455513          	srai	a0,a0,0x24
    a21c:	00a025b3          	sgtz	a1,a0
    a220:	40b005b3          	neg	a1,a1
    a224:	00a5f533          	and	a0,a1,a0
    a228:	01954463          	blt	a0,s9,a230 <.LBB103_866>
    a22c:	0ff00513          	li	a0,255

000000000000a230 <.LBB103_866>:
    a230:	96a43823          	sd	a0,-1680(s0)
    a234:	98843503          	ld	a0,-1656(s0)
    a238:	03850533          	mul	a0,a0,s8
    a23c:	98043583          	ld	a1,-1664(s0)
    a240:	017585b3          	add	a1,a1,s7
    a244:	00b50533          	add	a0,a0,a1
    a248:	42455513          	srai	a0,a0,0x24
    a24c:	00a025b3          	sgtz	a1,a0
    a250:	40b005b3          	neg	a1,a1
    a254:	00a5f533          	and	a0,a1,a0
    a258:	01954463          	blt	a0,s9,a260 <.LBB103_868>
    a25c:	0ff00513          	li	a0,255

000000000000a260 <.LBB103_868>:
    a260:	98a43423          	sd	a0,-1656(s0)
    a264:	99843503          	ld	a0,-1640(s0)
    a268:	03850533          	mul	a0,a0,s8
    a26c:	99043583          	ld	a1,-1648(s0)
    a270:	017585b3          	add	a1,a1,s7
    a274:	00b50533          	add	a0,a0,a1
    a278:	42455513          	srai	a0,a0,0x24
    a27c:	00a025b3          	sgtz	a1,a0
    a280:	40b005b3          	neg	a1,a1
    a284:	00a5f533          	and	a0,a1,a0
    a288:	01954463          	blt	a0,s9,a290 <.LBB103_870>
    a28c:	0ff00513          	li	a0,255

000000000000a290 <.LBB103_870>:
    a290:	98a43c23          	sd	a0,-1640(s0)
    a294:	9a843503          	ld	a0,-1624(s0)
    a298:	03850533          	mul	a0,a0,s8
    a29c:	9a043583          	ld	a1,-1632(s0)
    a2a0:	017585b3          	add	a1,a1,s7
    a2a4:	00b50533          	add	a0,a0,a1
    a2a8:	42455513          	srai	a0,a0,0x24
    a2ac:	00a025b3          	sgtz	a1,a0
    a2b0:	40b005b3          	neg	a1,a1
    a2b4:	00a5f533          	and	a0,a1,a0
    a2b8:	01954463          	blt	a0,s9,a2c0 <.LBB103_872>
    a2bc:	0ff00513          	li	a0,255

000000000000a2c0 <.LBB103_872>:
    a2c0:	9aa43423          	sd	a0,-1624(s0)
    a2c4:	9c043503          	ld	a0,-1600(s0)
    a2c8:	03850533          	mul	a0,a0,s8
    a2cc:	9b043583          	ld	a1,-1616(s0)
    a2d0:	017585b3          	add	a1,a1,s7
    a2d4:	00b50533          	add	a0,a0,a1
    a2d8:	42455513          	srai	a0,a0,0x24
    a2dc:	00a025b3          	sgtz	a1,a0
    a2e0:	40b005b3          	neg	a1,a1
    a2e4:	00a5f533          	and	a0,a1,a0
    a2e8:	01954463          	blt	a0,s9,a2f0 <.LBB103_874>
    a2ec:	0ff00513          	li	a0,255

000000000000a2f0 <.LBB103_874>:
    a2f0:	9ca43023          	sd	a0,-1600(s0)
    a2f4:	9d043503          	ld	a0,-1584(s0)
    a2f8:	03850533          	mul	a0,a0,s8
    a2fc:	9c843583          	ld	a1,-1592(s0)
    a300:	017585b3          	add	a1,a1,s7
    a304:	00b50533          	add	a0,a0,a1
    a308:	42455513          	srai	a0,a0,0x24
    a30c:	00a025b3          	sgtz	a1,a0
    a310:	40b005b3          	neg	a1,a1
    a314:	00a5f533          	and	a0,a1,a0
    a318:	01954463          	blt	a0,s9,a320 <.LBB103_876>
    a31c:	0ff00513          	li	a0,255

000000000000a320 <.LBB103_876>:
    a320:	9ca43823          	sd	a0,-1584(s0)
    a324:	9e043503          	ld	a0,-1568(s0)
    a328:	03850533          	mul	a0,a0,s8
    a32c:	9d843583          	ld	a1,-1576(s0)
    a330:	017585b3          	add	a1,a1,s7
    a334:	00b50533          	add	a0,a0,a1
    a338:	42455513          	srai	a0,a0,0x24
    a33c:	00a025b3          	sgtz	a1,a0
    a340:	40b005b3          	neg	a1,a1
    a344:	00a5f533          	and	a0,a1,a0
    a348:	01954463          	blt	a0,s9,a350 <.LBB103_878>
    a34c:	0ff00513          	li	a0,255

000000000000a350 <.LBB103_878>:
    a350:	9ea43023          	sd	a0,-1568(s0)
    a354:	9f043503          	ld	a0,-1552(s0)
    a358:	03850533          	mul	a0,a0,s8
    a35c:	9e843583          	ld	a1,-1560(s0)
    a360:	017585b3          	add	a1,a1,s7
    a364:	00b50533          	add	a0,a0,a1
    a368:	42455513          	srai	a0,a0,0x24
    a36c:	00a025b3          	sgtz	a1,a0
    a370:	40b005b3          	neg	a1,a1
    a374:	00a5f533          	and	a0,a1,a0
    a378:	01954463          	blt	a0,s9,a380 <.LBB103_880>
    a37c:	0ff00513          	li	a0,255

000000000000a380 <.LBB103_880>:
    a380:	9ea43823          	sd	a0,-1552(s0)
    a384:	a0843503          	ld	a0,-1528(s0)
    a388:	03850533          	mul	a0,a0,s8
    a38c:	a0043583          	ld	a1,-1536(s0)
    a390:	017585b3          	add	a1,a1,s7
    a394:	00b50533          	add	a0,a0,a1
    a398:	42455513          	srai	a0,a0,0x24
    a39c:	00a025b3          	sgtz	a1,a0
    a3a0:	40b005b3          	neg	a1,a1
    a3a4:	00a5f533          	and	a0,a1,a0
    a3a8:	01954463          	blt	a0,s9,a3b0 <.LBB103_882>
    a3ac:	0ff00513          	li	a0,255

000000000000a3b0 <.LBB103_882>:
    a3b0:	a0a43423          	sd	a0,-1528(s0)
    a3b4:	a1843503          	ld	a0,-1512(s0)
    a3b8:	03850533          	mul	a0,a0,s8
    a3bc:	a1043583          	ld	a1,-1520(s0)
    a3c0:	017585b3          	add	a1,a1,s7
    a3c4:	00b50533          	add	a0,a0,a1
    a3c8:	42455513          	srai	a0,a0,0x24
    a3cc:	00a025b3          	sgtz	a1,a0
    a3d0:	40b005b3          	neg	a1,a1
    a3d4:	00a5f533          	and	a0,a1,a0
    a3d8:	01954463          	blt	a0,s9,a3e0 <.LBB103_884>
    a3dc:	0ff00513          	li	a0,255

000000000000a3e0 <.LBB103_884>:
    a3e0:	a0a43c23          	sd	a0,-1512(s0)
    a3e4:	a2843503          	ld	a0,-1496(s0)
    a3e8:	03850533          	mul	a0,a0,s8
    a3ec:	a2043583          	ld	a1,-1504(s0)
    a3f0:	017585b3          	add	a1,a1,s7
    a3f4:	00b50533          	add	a0,a0,a1
    a3f8:	42455513          	srai	a0,a0,0x24
    a3fc:	00a025b3          	sgtz	a1,a0
    a400:	40b005b3          	neg	a1,a1
    a404:	00a5f533          	and	a0,a1,a0
    a408:	01954463          	blt	a0,s9,a410 <.LBB103_886>
    a40c:	0ff00513          	li	a0,255

000000000000a410 <.LBB103_886>:
    a410:	a2a43423          	sd	a0,-1496(s0)
    a414:	a3843503          	ld	a0,-1480(s0)
    a418:	03850533          	mul	a0,a0,s8
    a41c:	a3043583          	ld	a1,-1488(s0)
    a420:	017585b3          	add	a1,a1,s7
    a424:	00b50533          	add	a0,a0,a1
    a428:	42455513          	srai	a0,a0,0x24
    a42c:	00a025b3          	sgtz	a1,a0
    a430:	40b005b3          	neg	a1,a1
    a434:	00a5f533          	and	a0,a1,a0
    a438:	01954463          	blt	a0,s9,a440 <.LBB103_888>
    a43c:	0ff00513          	li	a0,255

000000000000a440 <.LBB103_888>:
    a440:	a2a43c23          	sd	a0,-1480(s0)
    a444:	a5043503          	ld	a0,-1456(s0)
    a448:	03850533          	mul	a0,a0,s8
    a44c:	a4843583          	ld	a1,-1464(s0)
    a450:	017585b3          	add	a1,a1,s7
    a454:	00b50533          	add	a0,a0,a1
    a458:	42455513          	srai	a0,a0,0x24
    a45c:	00a025b3          	sgtz	a1,a0
    a460:	40b005b3          	neg	a1,a1
    a464:	00a5f533          	and	a0,a1,a0
    a468:	01954463          	blt	a0,s9,a470 <.LBB103_890>
    a46c:	0ff00513          	li	a0,255

000000000000a470 <.LBB103_890>:
    a470:	a4a43823          	sd	a0,-1456(s0)
    a474:	a6043503          	ld	a0,-1440(s0)
    a478:	03850533          	mul	a0,a0,s8
    a47c:	a5843583          	ld	a1,-1448(s0)
    a480:	017585b3          	add	a1,a1,s7
    a484:	00b50533          	add	a0,a0,a1
    a488:	42455513          	srai	a0,a0,0x24
    a48c:	00a025b3          	sgtz	a1,a0
    a490:	40b005b3          	neg	a1,a1
    a494:	00a5f533          	and	a0,a1,a0
    a498:	01954463          	blt	a0,s9,a4a0 <.LBB103_892>
    a49c:	0ff00513          	li	a0,255

000000000000a4a0 <.LBB103_892>:
    a4a0:	a6a43023          	sd	a0,-1440(s0)
    a4a4:	a7043503          	ld	a0,-1424(s0)
    a4a8:	03850533          	mul	a0,a0,s8
    a4ac:	a6843583          	ld	a1,-1432(s0)
    a4b0:	017585b3          	add	a1,a1,s7
    a4b4:	00b50533          	add	a0,a0,a1
    a4b8:	42455513          	srai	a0,a0,0x24
    a4bc:	00a025b3          	sgtz	a1,a0
    a4c0:	40b005b3          	neg	a1,a1
    a4c4:	00a5f533          	and	a0,a1,a0
    a4c8:	01954463          	blt	a0,s9,a4d0 <.LBB103_894>
    a4cc:	0ff00513          	li	a0,255

000000000000a4d0 <.LBB103_894>:
    a4d0:	a6a43823          	sd	a0,-1424(s0)
    a4d4:	a8843503          	ld	a0,-1400(s0)
    a4d8:	03850533          	mul	a0,a0,s8
    a4dc:	a7843583          	ld	a1,-1416(s0)
    a4e0:	017585b3          	add	a1,a1,s7
    a4e4:	00b50533          	add	a0,a0,a1
    a4e8:	42455513          	srai	a0,a0,0x24
    a4ec:	00a025b3          	sgtz	a1,a0
    a4f0:	40b005b3          	neg	a1,a1
    a4f4:	00a5f533          	and	a0,a1,a0
    a4f8:	01954463          	blt	a0,s9,a500 <.LBB103_896>
    a4fc:	0ff00513          	li	a0,255

000000000000a500 <.LBB103_896>:
    a500:	a8a43423          	sd	a0,-1400(s0)
    a504:	a9843503          	ld	a0,-1384(s0)
    a508:	03850533          	mul	a0,a0,s8
    a50c:	a9043583          	ld	a1,-1392(s0)
    a510:	017585b3          	add	a1,a1,s7
    a514:	00b50533          	add	a0,a0,a1
    a518:	42455513          	srai	a0,a0,0x24
    a51c:	00a025b3          	sgtz	a1,a0
    a520:	40b005b3          	neg	a1,a1
    a524:	00a5f533          	and	a0,a1,a0
    a528:	01954463          	blt	a0,s9,a530 <.LBB103_898>
    a52c:	0ff00513          	li	a0,255

000000000000a530 <.LBB103_898>:
    a530:	a8a43c23          	sd	a0,-1384(s0)
    a534:	aa843503          	ld	a0,-1368(s0)
    a538:	03850533          	mul	a0,a0,s8
    a53c:	aa043583          	ld	a1,-1376(s0)
    a540:	017585b3          	add	a1,a1,s7
    a544:	00b50533          	add	a0,a0,a1
    a548:	42455513          	srai	a0,a0,0x24
    a54c:	00a025b3          	sgtz	a1,a0
    a550:	40b005b3          	neg	a1,a1
    a554:	00a5f533          	and	a0,a1,a0
    a558:	01954463          	blt	a0,s9,a560 <.LBB103_900>
    a55c:	0ff00513          	li	a0,255

000000000000a560 <.LBB103_900>:
    a560:	aaa43423          	sd	a0,-1368(s0)
    a564:	ac043503          	ld	a0,-1344(s0)
    a568:	03850533          	mul	a0,a0,s8
    a56c:	ab043583          	ld	a1,-1360(s0)
    a570:	017585b3          	add	a1,a1,s7
    a574:	00b50533          	add	a0,a0,a1
    a578:	42455513          	srai	a0,a0,0x24
    a57c:	00a025b3          	sgtz	a1,a0
    a580:	40b005b3          	neg	a1,a1
    a584:	00a5f533          	and	a0,a1,a0
    a588:	01954463          	blt	a0,s9,a590 <.LBB103_902>
    a58c:	0ff00513          	li	a0,255

000000000000a590 <.LBB103_902>:
    a590:	aca43023          	sd	a0,-1344(s0)
    a594:	ac843503          	ld	a0,-1336(s0)
    a598:	03850533          	mul	a0,a0,s8
    a59c:	ab843583          	ld	a1,-1352(s0)
    a5a0:	017585b3          	add	a1,a1,s7
    a5a4:	00b50533          	add	a0,a0,a1
    a5a8:	42455513          	srai	a0,a0,0x24
    a5ac:	00a025b3          	sgtz	a1,a0
    a5b0:	40b005b3          	neg	a1,a1
    a5b4:	00a5f533          	and	a0,a1,a0
    a5b8:	01954463          	blt	a0,s9,a5c0 <.LBB103_904>
    a5bc:	0ff00513          	li	a0,255

000000000000a5c0 <.LBB103_904>:
    a5c0:	aca43423          	sd	a0,-1336(s0)
    a5c4:	ae043503          	ld	a0,-1312(s0)
    a5c8:	03850533          	mul	a0,a0,s8
    a5cc:	ad843583          	ld	a1,-1320(s0)
    a5d0:	017585b3          	add	a1,a1,s7
    a5d4:	00b50533          	add	a0,a0,a1
    a5d8:	42455513          	srai	a0,a0,0x24
    a5dc:	00a025b3          	sgtz	a1,a0
    a5e0:	40b005b3          	neg	a1,a1
    a5e4:	00a5f533          	and	a0,a1,a0
    a5e8:	01954463          	blt	a0,s9,a5f0 <.LBB103_906>
    a5ec:	0ff00513          	li	a0,255

000000000000a5f0 <.LBB103_906>:
    a5f0:	aea43023          	sd	a0,-1312(s0)
    a5f4:	af043503          	ld	a0,-1296(s0)
    a5f8:	03850533          	mul	a0,a0,s8
    a5fc:	ae843583          	ld	a1,-1304(s0)
    a600:	017585b3          	add	a1,a1,s7
    a604:	00b50533          	add	a0,a0,a1
    a608:	42455513          	srai	a0,a0,0x24
    a60c:	00a025b3          	sgtz	a1,a0
    a610:	40b005b3          	neg	a1,a1
    a614:	00a5f533          	and	a0,a1,a0
    a618:	01954463          	blt	a0,s9,a620 <.LBB103_908>
    a61c:	0ff00513          	li	a0,255

000000000000a620 <.LBB103_908>:
    a620:	aea43823          	sd	a0,-1296(s0)
    a624:	b0043503          	ld	a0,-1280(s0)
    a628:	03850533          	mul	a0,a0,s8
    a62c:	af843583          	ld	a1,-1288(s0)
    a630:	017585b3          	add	a1,a1,s7
    a634:	00b50533          	add	a0,a0,a1
    a638:	42455513          	srai	a0,a0,0x24
    a63c:	00a025b3          	sgtz	a1,a0
    a640:	40b005b3          	neg	a1,a1
    a644:	00a5f533          	and	a0,a1,a0
    a648:	01954463          	blt	a0,s9,a650 <.LBB103_910>
    a64c:	0ff00513          	li	a0,255

000000000000a650 <.LBB103_910>:
    a650:	b0a43023          	sd	a0,-1280(s0)
    a654:	b2043503          	ld	a0,-1248(s0)
    a658:	03850533          	mul	a0,a0,s8
    a65c:	b0843583          	ld	a1,-1272(s0)
    a660:	017585b3          	add	a1,a1,s7
    a664:	00b50533          	add	a0,a0,a1
    a668:	42455513          	srai	a0,a0,0x24
    a66c:	00a025b3          	sgtz	a1,a0
    a670:	40b005b3          	neg	a1,a1
    a674:	00a5f533          	and	a0,a1,a0
    a678:	01954463          	blt	a0,s9,a680 <.LBB103_912>
    a67c:	0ff00513          	li	a0,255

000000000000a680 <.LBB103_912>:
    a680:	b2a43023          	sd	a0,-1248(s0)
    a684:	b3043503          	ld	a0,-1232(s0)
    a688:	03850533          	mul	a0,a0,s8
    a68c:	b2843583          	ld	a1,-1240(s0)
    a690:	017585b3          	add	a1,a1,s7
    a694:	00b50533          	add	a0,a0,a1
    a698:	42455513          	srai	a0,a0,0x24
    a69c:	00a025b3          	sgtz	a1,a0
    a6a0:	40b005b3          	neg	a1,a1
    a6a4:	00a5f533          	and	a0,a1,a0
    a6a8:	01954463          	blt	a0,s9,a6b0 <.LBB103_914>
    a6ac:	0ff00513          	li	a0,255

000000000000a6b0 <.LBB103_914>:
    a6b0:	b2a43823          	sd	a0,-1232(s0)
    a6b4:	b4043503          	ld	a0,-1216(s0)
    a6b8:	03850533          	mul	a0,a0,s8
    a6bc:	b3843583          	ld	a1,-1224(s0)
    a6c0:	017585b3          	add	a1,a1,s7
    a6c4:	00b50533          	add	a0,a0,a1
    a6c8:	42455513          	srai	a0,a0,0x24
    a6cc:	00a025b3          	sgtz	a1,a0
    a6d0:	40b005b3          	neg	a1,a1
    a6d4:	00a5f533          	and	a0,a1,a0
    a6d8:	01954463          	blt	a0,s9,a6e0 <.LBB103_916>
    a6dc:	0ff00513          	li	a0,255

000000000000a6e0 <.LBB103_916>:
    a6e0:	b4a43023          	sd	a0,-1216(s0)
    a6e4:	b5043503          	ld	a0,-1200(s0)
    a6e8:	03850533          	mul	a0,a0,s8
    a6ec:	b4843583          	ld	a1,-1208(s0)
    a6f0:	017585b3          	add	a1,a1,s7
    a6f4:	00b50533          	add	a0,a0,a1
    a6f8:	42455513          	srai	a0,a0,0x24
    a6fc:	00a025b3          	sgtz	a1,a0
    a700:	40b005b3          	neg	a1,a1
    a704:	00a5f533          	and	a0,a1,a0
    a708:	01954463          	blt	a0,s9,a710 <.LBB103_918>
    a70c:	0ff00513          	li	a0,255

000000000000a710 <.LBB103_918>:
    a710:	b4a43823          	sd	a0,-1200(s0)
    a714:	b6843503          	ld	a0,-1176(s0)
    a718:	03850533          	mul	a0,a0,s8
    a71c:	b6043583          	ld	a1,-1184(s0)
    a720:	017585b3          	add	a1,a1,s7
    a724:	00b50533          	add	a0,a0,a1
    a728:	42455513          	srai	a0,a0,0x24
    a72c:	00a025b3          	sgtz	a1,a0
    a730:	40b005b3          	neg	a1,a1
    a734:	00a5f533          	and	a0,a1,a0
    a738:	01954463          	blt	a0,s9,a740 <.LBB103_920>
    a73c:	0ff00513          	li	a0,255

000000000000a740 <.LBB103_920>:
    a740:	b6a43423          	sd	a0,-1176(s0)
    a744:	b7843503          	ld	a0,-1160(s0)
    a748:	03850533          	mul	a0,a0,s8
    a74c:	b7043583          	ld	a1,-1168(s0)
    a750:	017585b3          	add	a1,a1,s7
    a754:	00b50533          	add	a0,a0,a1
    a758:	42455513          	srai	a0,a0,0x24
    a75c:	00a025b3          	sgtz	a1,a0
    a760:	40b005b3          	neg	a1,a1
    a764:	00a5f533          	and	a0,a1,a0
    a768:	01954463          	blt	a0,s9,a770 <.LBB103_922>
    a76c:	0ff00513          	li	a0,255

000000000000a770 <.LBB103_922>:
    a770:	b6a43c23          	sd	a0,-1160(s0)
    a774:	b8843503          	ld	a0,-1144(s0)
    a778:	03850533          	mul	a0,a0,s8
    a77c:	b8043583          	ld	a1,-1152(s0)
    a780:	017585b3          	add	a1,a1,s7
    a784:	00b50533          	add	a0,a0,a1
    a788:	42455513          	srai	a0,a0,0x24
    a78c:	00a025b3          	sgtz	a1,a0
    a790:	40b005b3          	neg	a1,a1
    a794:	00a5f533          	and	a0,a1,a0
    a798:	01954463          	blt	a0,s9,a7a0 <.LBB103_924>
    a79c:	0ff00513          	li	a0,255

000000000000a7a0 <.LBB103_924>:
    a7a0:	b8a43423          	sd	a0,-1144(s0)
    a7a4:	b9843503          	ld	a0,-1128(s0)
    a7a8:	03850533          	mul	a0,a0,s8
    a7ac:	b9043583          	ld	a1,-1136(s0)
    a7b0:	017585b3          	add	a1,a1,s7
    a7b4:	00b50533          	add	a0,a0,a1
    a7b8:	42455513          	srai	a0,a0,0x24
    a7bc:	00a025b3          	sgtz	a1,a0
    a7c0:	40b005b3          	neg	a1,a1
    a7c4:	00a5f533          	and	a0,a1,a0
    a7c8:	01954463          	blt	a0,s9,a7d0 <.LBB103_926>
    a7cc:	0ff00513          	li	a0,255

000000000000a7d0 <.LBB103_926>:
    a7d0:	b8a43c23          	sd	a0,-1128(s0)
    a7d4:	bb043503          	ld	a0,-1104(s0)
    a7d8:	03850533          	mul	a0,a0,s8
    a7dc:	ba843583          	ld	a1,-1112(s0)
    a7e0:	017585b3          	add	a1,a1,s7
    a7e4:	00b50533          	add	a0,a0,a1
    a7e8:	42455513          	srai	a0,a0,0x24
    a7ec:	00a025b3          	sgtz	a1,a0
    a7f0:	40b005b3          	neg	a1,a1
    a7f4:	00a5f533          	and	a0,a1,a0
    a7f8:	01954463          	blt	a0,s9,a800 <.LBB103_928>
    a7fc:	0ff00513          	li	a0,255

000000000000a800 <.LBB103_928>:
    a800:	baa43823          	sd	a0,-1104(s0)
    a804:	bc043503          	ld	a0,-1088(s0)
    a808:	03850533          	mul	a0,a0,s8
    a80c:	bb843583          	ld	a1,-1096(s0)
    a810:	017585b3          	add	a1,a1,s7
    a814:	00b50533          	add	a0,a0,a1
    a818:	42455513          	srai	a0,a0,0x24
    a81c:	00a025b3          	sgtz	a1,a0
    a820:	40b005b3          	neg	a1,a1
    a824:	00a5f533          	and	a0,a1,a0
    a828:	01954463          	blt	a0,s9,a830 <.LBB103_930>
    a82c:	0ff00513          	li	a0,255

000000000000a830 <.LBB103_930>:
    a830:	bca43023          	sd	a0,-1088(s0)
    a834:	bd843503          	ld	a0,-1064(s0)
    a838:	03850533          	mul	a0,a0,s8
    a83c:	bd043583          	ld	a1,-1072(s0)
    a840:	017585b3          	add	a1,a1,s7
    a844:	00b50533          	add	a0,a0,a1
    a848:	42455513          	srai	a0,a0,0x24
    a84c:	00a025b3          	sgtz	a1,a0
    a850:	40b005b3          	neg	a1,a1
    a854:	00a5f533          	and	a0,a1,a0
    a858:	01954463          	blt	a0,s9,a860 <.LBB103_932>
    a85c:	0ff00513          	li	a0,255

000000000000a860 <.LBB103_932>:
    a860:	bca43c23          	sd	a0,-1064(s0)
    a864:	bf043503          	ld	a0,-1040(s0)
    a868:	03850533          	mul	a0,a0,s8
    a86c:	be043583          	ld	a1,-1056(s0)
    a870:	017585b3          	add	a1,a1,s7
    a874:	00b50533          	add	a0,a0,a1
    a878:	42455513          	srai	a0,a0,0x24
    a87c:	00a025b3          	sgtz	a1,a0
    a880:	40b005b3          	neg	a1,a1
    a884:	00a5f533          	and	a0,a1,a0
    a888:	01954463          	blt	a0,s9,a890 <.LBB103_934>
    a88c:	0ff00513          	li	a0,255

000000000000a890 <.LBB103_934>:
    a890:	bea43823          	sd	a0,-1040(s0)
    a894:	c0043503          	ld	a0,-1024(s0)
    a898:	03850533          	mul	a0,a0,s8
    a89c:	bf843583          	ld	a1,-1032(s0)
    a8a0:	017585b3          	add	a1,a1,s7
    a8a4:	00b50533          	add	a0,a0,a1
    a8a8:	42455513          	srai	a0,a0,0x24
    a8ac:	00a025b3          	sgtz	a1,a0
    a8b0:	40b005b3          	neg	a1,a1
    a8b4:	00a5f533          	and	a0,a1,a0
    a8b8:	01954463          	blt	a0,s9,a8c0 <.LBB103_936>
    a8bc:	0ff00513          	li	a0,255

000000000000a8c0 <.LBB103_936>:
    a8c0:	c0a43023          	sd	a0,-1024(s0)
    a8c4:	c1043503          	ld	a0,-1008(s0)
    a8c8:	03850533          	mul	a0,a0,s8
    a8cc:	c0843583          	ld	a1,-1016(s0)
    a8d0:	017585b3          	add	a1,a1,s7
    a8d4:	00b50533          	add	a0,a0,a1
    a8d8:	42455513          	srai	a0,a0,0x24
    a8dc:	00a025b3          	sgtz	a1,a0
    a8e0:	40b005b3          	neg	a1,a1
    a8e4:	00a5f533          	and	a0,a1,a0
    a8e8:	01954463          	blt	a0,s9,a8f0 <.LBB103_938>
    a8ec:	0ff00513          	li	a0,255

000000000000a8f0 <.LBB103_938>:
    a8f0:	c0a43823          	sd	a0,-1008(s0)
    a8f4:	c2043503          	ld	a0,-992(s0)
    a8f8:	03850533          	mul	a0,a0,s8
    a8fc:	c1843583          	ld	a1,-1000(s0)
    a900:	017585b3          	add	a1,a1,s7
    a904:	00b50533          	add	a0,a0,a1
    a908:	42455513          	srai	a0,a0,0x24
    a90c:	00a025b3          	sgtz	a1,a0
    a910:	40b005b3          	neg	a1,a1
    a914:	00a5f533          	and	a0,a1,a0
    a918:	01954463          	blt	a0,s9,a920 <.LBB103_940>
    a91c:	0ff00513          	li	a0,255

000000000000a920 <.LBB103_940>:
    a920:	c2a43023          	sd	a0,-992(s0)
    a924:	c3843503          	ld	a0,-968(s0)
    a928:	03850533          	mul	a0,a0,s8
    a92c:	c3043583          	ld	a1,-976(s0)
    a930:	017585b3          	add	a1,a1,s7
    a934:	00b50533          	add	a0,a0,a1
    a938:	42455513          	srai	a0,a0,0x24
    a93c:	00a025b3          	sgtz	a1,a0
    a940:	40b005b3          	neg	a1,a1
    a944:	00a5f533          	and	a0,a1,a0
    a948:	01954463          	blt	a0,s9,a950 <.LBB103_942>
    a94c:	0ff00513          	li	a0,255

000000000000a950 <.LBB103_942>:
    a950:	c2a43c23          	sd	a0,-968(s0)
    a954:	c4843503          	ld	a0,-952(s0)
    a958:	03850533          	mul	a0,a0,s8
    a95c:	c4043583          	ld	a1,-960(s0)
    a960:	017585b3          	add	a1,a1,s7
    a964:	00b50533          	add	a0,a0,a1
    a968:	42455513          	srai	a0,a0,0x24
    a96c:	00a025b3          	sgtz	a1,a0
    a970:	40b005b3          	neg	a1,a1
    a974:	00a5f533          	and	a0,a1,a0
    a978:	01954463          	blt	a0,s9,a980 <.LBB103_944>
    a97c:	0ff00513          	li	a0,255

000000000000a980 <.LBB103_944>:
    a980:	c4a43423          	sd	a0,-952(s0)
    a984:	c5843503          	ld	a0,-936(s0)
    a988:	03850533          	mul	a0,a0,s8
    a98c:	c5043583          	ld	a1,-944(s0)
    a990:	017585b3          	add	a1,a1,s7
    a994:	00b50533          	add	a0,a0,a1
    a998:	42455513          	srai	a0,a0,0x24
    a99c:	00a025b3          	sgtz	a1,a0
    a9a0:	40b005b3          	neg	a1,a1
    a9a4:	00a5f533          	and	a0,a1,a0
    a9a8:	01954463          	blt	a0,s9,a9b0 <.LBB103_946>
    a9ac:	0ff00513          	li	a0,255

000000000000a9b0 <.LBB103_946>:
    a9b0:	c4a43c23          	sd	a0,-936(s0)
    a9b4:	c6843503          	ld	a0,-920(s0)
    a9b8:	03850533          	mul	a0,a0,s8
    a9bc:	c6043583          	ld	a1,-928(s0)
    a9c0:	017585b3          	add	a1,a1,s7
    a9c4:	00b50533          	add	a0,a0,a1
    a9c8:	42455513          	srai	a0,a0,0x24
    a9cc:	00a025b3          	sgtz	a1,a0
    a9d0:	40b005b3          	neg	a1,a1
    a9d4:	00a5f533          	and	a0,a1,a0
    a9d8:	01954463          	blt	a0,s9,a9e0 <.LBB103_948>
    a9dc:	0ff00513          	li	a0,255

000000000000a9e0 <.LBB103_948>:
    a9e0:	c6a43423          	sd	a0,-920(s0)
    a9e4:	c8043503          	ld	a0,-896(s0)
    a9e8:	03850533          	mul	a0,a0,s8
    a9ec:	c7843583          	ld	a1,-904(s0)
    a9f0:	017585b3          	add	a1,a1,s7
    a9f4:	00b50533          	add	a0,a0,a1
    a9f8:	42455513          	srai	a0,a0,0x24
    a9fc:	00a025b3          	sgtz	a1,a0
    aa00:	40b005b3          	neg	a1,a1
    aa04:	00a5f533          	and	a0,a1,a0
    aa08:	01954463          	blt	a0,s9,aa10 <.LBB103_950>
    aa0c:	0ff00513          	li	a0,255

000000000000aa10 <.LBB103_950>:
    aa10:	c8a43023          	sd	a0,-896(s0)
    aa14:	c9043503          	ld	a0,-880(s0)
    aa18:	03850533          	mul	a0,a0,s8
    aa1c:	c8843583          	ld	a1,-888(s0)
    aa20:	017585b3          	add	a1,a1,s7
    aa24:	00b50533          	add	a0,a0,a1
    aa28:	42455513          	srai	a0,a0,0x24
    aa2c:	00a025b3          	sgtz	a1,a0
    aa30:	40b005b3          	neg	a1,a1
    aa34:	00a5f533          	and	a0,a1,a0
    aa38:	01954463          	blt	a0,s9,aa40 <.LBB103_952>
    aa3c:	0ff00513          	li	a0,255

000000000000aa40 <.LBB103_952>:
    aa40:	c8a43823          	sd	a0,-880(s0)
    aa44:	ca043503          	ld	a0,-864(s0)
    aa48:	03850533          	mul	a0,a0,s8
    aa4c:	c9843583          	ld	a1,-872(s0)
    aa50:	017585b3          	add	a1,a1,s7
    aa54:	00b50533          	add	a0,a0,a1
    aa58:	42455513          	srai	a0,a0,0x24
    aa5c:	00a025b3          	sgtz	a1,a0
    aa60:	40b005b3          	neg	a1,a1
    aa64:	00a5f533          	and	a0,a1,a0
    aa68:	01954463          	blt	a0,s9,aa70 <.LBB103_954>
    aa6c:	0ff00513          	li	a0,255

000000000000aa70 <.LBB103_954>:
    aa70:	caa43023          	sd	a0,-864(s0)
    aa74:	cb043503          	ld	a0,-848(s0)
    aa78:	03850533          	mul	a0,a0,s8
    aa7c:	ca843583          	ld	a1,-856(s0)
    aa80:	017585b3          	add	a1,a1,s7
    aa84:	00b50533          	add	a0,a0,a1
    aa88:	42455513          	srai	a0,a0,0x24
    aa8c:	00a025b3          	sgtz	a1,a0
    aa90:	40b005b3          	neg	a1,a1
    aa94:	00a5f533          	and	a0,a1,a0
    aa98:	01954463          	blt	a0,s9,aaa0 <.LBB103_956>
    aa9c:	0ff00513          	li	a0,255

000000000000aaa0 <.LBB103_956>:
    aaa0:	caa43823          	sd	a0,-848(s0)
    aaa4:	cc043503          	ld	a0,-832(s0)
    aaa8:	03850533          	mul	a0,a0,s8
    aaac:	cb843583          	ld	a1,-840(s0)
    aab0:	017585b3          	add	a1,a1,s7
    aab4:	00b50533          	add	a0,a0,a1
    aab8:	42455513          	srai	a0,a0,0x24
    aabc:	00a025b3          	sgtz	a1,a0
    aac0:	40b005b3          	neg	a1,a1
    aac4:	00a5f533          	and	a0,a1,a0
    aac8:	01954463          	blt	a0,s9,aad0 <.LBB103_958>
    aacc:	0ff00513          	li	a0,255

000000000000aad0 <.LBB103_958>:
    aad0:	cca43023          	sd	a0,-832(s0)
    aad4:	cd043503          	ld	a0,-816(s0)
    aad8:	03850533          	mul	a0,a0,s8
    aadc:	cc843583          	ld	a1,-824(s0)
    aae0:	017585b3          	add	a1,a1,s7
    aae4:	00b50533          	add	a0,a0,a1
    aae8:	42455513          	srai	a0,a0,0x24
    aaec:	00a025b3          	sgtz	a1,a0
    aaf0:	40b005b3          	neg	a1,a1
    aaf4:	00a5f533          	and	a0,a1,a0
    aaf8:	01954463          	blt	a0,s9,ab00 <.LBB103_960>
    aafc:	0ff00513          	li	a0,255

000000000000ab00 <.LBB103_960>:
    ab00:	cca43823          	sd	a0,-816(s0)
    ab04:	ce043503          	ld	a0,-800(s0)
    ab08:	03850533          	mul	a0,a0,s8
    ab0c:	cd843583          	ld	a1,-808(s0)
    ab10:	017585b3          	add	a1,a1,s7
    ab14:	00b50533          	add	a0,a0,a1
    ab18:	42455513          	srai	a0,a0,0x24
    ab1c:	00a025b3          	sgtz	a1,a0
    ab20:	40b005b3          	neg	a1,a1
    ab24:	00a5f533          	and	a0,a1,a0
    ab28:	01954463          	blt	a0,s9,ab30 <.LBB103_962>
    ab2c:	0ff00513          	li	a0,255

000000000000ab30 <.LBB103_962>:
    ab30:	cea43023          	sd	a0,-800(s0)
    ab34:	cf043503          	ld	a0,-784(s0)
    ab38:	03850533          	mul	a0,a0,s8
    ab3c:	ce843583          	ld	a1,-792(s0)
    ab40:	017585b3          	add	a1,a1,s7
    ab44:	00b50533          	add	a0,a0,a1
    ab48:	42455513          	srai	a0,a0,0x24
    ab4c:	00a025b3          	sgtz	a1,a0
    ab50:	40b005b3          	neg	a1,a1
    ab54:	00a5f533          	and	a0,a1,a0
    ab58:	01954463          	blt	a0,s9,ab60 <.LBB103_964>
    ab5c:	0ff00513          	li	a0,255

000000000000ab60 <.LBB103_964>:
    ab60:	cea43823          	sd	a0,-784(s0)
    ab64:	d0843503          	ld	a0,-760(s0)
    ab68:	03850533          	mul	a0,a0,s8
    ab6c:	cf843583          	ld	a1,-776(s0)
    ab70:	017585b3          	add	a1,a1,s7
    ab74:	00b50533          	add	a0,a0,a1
    ab78:	42455513          	srai	a0,a0,0x24
    ab7c:	00a025b3          	sgtz	a1,a0
    ab80:	40b005b3          	neg	a1,a1
    ab84:	00a5f533          	and	a0,a1,a0
    ab88:	01954463          	blt	a0,s9,ab90 <.LBB103_966>
    ab8c:	0ff00513          	li	a0,255

000000000000ab90 <.LBB103_966>:
    ab90:	d0a43423          	sd	a0,-760(s0)
    ab94:	d1043503          	ld	a0,-752(s0)
    ab98:	03850533          	mul	a0,a0,s8
    ab9c:	d0043583          	ld	a1,-768(s0)
    aba0:	017585b3          	add	a1,a1,s7
    aba4:	00b50533          	add	a0,a0,a1
    aba8:	42455513          	srai	a0,a0,0x24
    abac:	00a025b3          	sgtz	a1,a0
    abb0:	40b005b3          	neg	a1,a1
    abb4:	00a5f533          	and	a0,a1,a0
    abb8:	01954463          	blt	a0,s9,abc0 <.LBB103_968>
    abbc:	0ff00513          	li	a0,255

000000000000abc0 <.LBB103_968>:
    abc0:	d0a43823          	sd	a0,-752(s0)
    abc4:	d2043503          	ld	a0,-736(s0)
    abc8:	03850533          	mul	a0,a0,s8
    abcc:	d1843583          	ld	a1,-744(s0)
    abd0:	017585b3          	add	a1,a1,s7
    abd4:	00b50533          	add	a0,a0,a1
    abd8:	42455513          	srai	a0,a0,0x24
    abdc:	00a025b3          	sgtz	a1,a0
    abe0:	40b005b3          	neg	a1,a1
    abe4:	00a5f533          	and	a0,a1,a0
    abe8:	01954463          	blt	a0,s9,abf0 <.LBB103_970>
    abec:	0ff00513          	li	a0,255

000000000000abf0 <.LBB103_970>:
    abf0:	d2a43023          	sd	a0,-736(s0)
    abf4:	d3043503          	ld	a0,-720(s0)
    abf8:	03850533          	mul	a0,a0,s8
    abfc:	d2843583          	ld	a1,-728(s0)
    ac00:	017585b3          	add	a1,a1,s7
    ac04:	00b50533          	add	a0,a0,a1
    ac08:	42455513          	srai	a0,a0,0x24
    ac0c:	00a025b3          	sgtz	a1,a0
    ac10:	40b005b3          	neg	a1,a1
    ac14:	00a5f533          	and	a0,a1,a0
    ac18:	01954463          	blt	a0,s9,ac20 <.LBB103_972>
    ac1c:	0ff00513          	li	a0,255

000000000000ac20 <.LBB103_972>:
    ac20:	d2a43823          	sd	a0,-720(s0)
    ac24:	d4043503          	ld	a0,-704(s0)
    ac28:	03850533          	mul	a0,a0,s8
    ac2c:	d3843583          	ld	a1,-712(s0)
    ac30:	017585b3          	add	a1,a1,s7
    ac34:	00b50533          	add	a0,a0,a1
    ac38:	42455513          	srai	a0,a0,0x24
    ac3c:	00a025b3          	sgtz	a1,a0
    ac40:	40b005b3          	neg	a1,a1
    ac44:	00a5f533          	and	a0,a1,a0
    ac48:	01954463          	blt	a0,s9,ac50 <.LBB103_974>
    ac4c:	0ff00513          	li	a0,255

000000000000ac50 <.LBB103_974>:
    ac50:	d4a43023          	sd	a0,-704(s0)
    ac54:	d4843503          	ld	a0,-696(s0)
    ac58:	03850533          	mul	a0,a0,s8
    ac5c:	e8843583          	ld	a1,-376(s0)
    ac60:	017585b3          	add	a1,a1,s7
    ac64:	00b50533          	add	a0,a0,a1
    ac68:	42455513          	srai	a0,a0,0x24
    ac6c:	00a025b3          	sgtz	a1,a0
    ac70:	40b005b3          	neg	a1,a1
    ac74:	00a5f533          	and	a0,a1,a0
    ac78:	01954463          	blt	a0,s9,ac80 <.LBB103_976>
    ac7c:	0ff00513          	li	a0,255

000000000000ac80 <.LBB103_976>:
    ac80:	e8a43423          	sd	a0,-376(s0)
    ac84:	d5843503          	ld	a0,-680(s0)
    ac88:	03850533          	mul	a0,a0,s8
    ac8c:	d5043583          	ld	a1,-688(s0)
    ac90:	017585b3          	add	a1,a1,s7
    ac94:	00b50533          	add	a0,a0,a1
    ac98:	42455513          	srai	a0,a0,0x24
    ac9c:	00a025b3          	sgtz	a1,a0
    aca0:	40b005b3          	neg	a1,a1
    aca4:	00a5f533          	and	a0,a1,a0
    aca8:	01954463          	blt	a0,s9,acb0 <.LBB103_978>
    acac:	0ff00513          	li	a0,255

000000000000acb0 <.LBB103_978>:
    acb0:	d4a43c23          	sd	a0,-680(s0)
    acb4:	d6843503          	ld	a0,-664(s0)
    acb8:	03850533          	mul	a0,a0,s8
    acbc:	d6043583          	ld	a1,-672(s0)
    acc0:	017585b3          	add	a1,a1,s7
    acc4:	00b50533          	add	a0,a0,a1
    acc8:	42455513          	srai	a0,a0,0x24
    accc:	00a025b3          	sgtz	a1,a0
    acd0:	40b005b3          	neg	a1,a1
    acd4:	00a5f533          	and	a0,a1,a0
    acd8:	01954463          	blt	a0,s9,ace0 <.LBB103_980>
    acdc:	0ff00513          	li	a0,255

000000000000ace0 <.LBB103_980>:
    ace0:	d6a43423          	sd	a0,-664(s0)
    ace4:	d7843503          	ld	a0,-648(s0)
    ace8:	03850533          	mul	a0,a0,s8
    acec:	d7043583          	ld	a1,-656(s0)
    acf0:	017585b3          	add	a1,a1,s7
    acf4:	00b50533          	add	a0,a0,a1
    acf8:	42455513          	srai	a0,a0,0x24
    acfc:	00a025b3          	sgtz	a1,a0
    ad00:	40b005b3          	neg	a1,a1
    ad04:	00a5f533          	and	a0,a1,a0
    ad08:	01954463          	blt	a0,s9,ad10 <.LBB103_982>
    ad0c:	0ff00513          	li	a0,255

000000000000ad10 <.LBB103_982>:
    ad10:	d6a43c23          	sd	a0,-648(s0)
    ad14:	d8043503          	ld	a0,-640(s0)
    ad18:	03850533          	mul	a0,a0,s8
    ad1c:	017285b3          	add	a1,t0,s7
    ad20:	00b50533          	add	a0,a0,a1
    ad24:	42455513          	srai	a0,a0,0x24
    ad28:	00a025b3          	sgtz	a1,a0
    ad2c:	40b005b3          	neg	a1,a1
    ad30:	00a5f533          	and	a0,a1,a0
    ad34:	01954463          	blt	a0,s9,ad3c <.LBB103_984>
    ad38:	0ff00513          	li	a0,255

000000000000ad3c <.LBB103_984>:
    ad3c:	d8a43023          	sd	a0,-640(s0)
    ad40:	00001537          	lui	a0,0x1
    ad44:	40a40533          	sub	a0,s0,a0
    ad48:	d9853503          	ld	a0,-616(a0) # d98 <.LBB103_3+0xac4>
    ad4c:	03850533          	mul	a0,a0,s8
    ad50:	d8843583          	ld	a1,-632(s0)
    ad54:	017585b3          	add	a1,a1,s7
    ad58:	00b50533          	add	a0,a0,a1
    ad5c:	42455513          	srai	a0,a0,0x24
    ad60:	00a025b3          	sgtz	a1,a0
    ad64:	40b005b3          	neg	a1,a1
    ad68:	00a5fdb3          	and	s11,a1,a0
    ad6c:	019dc463          	blt	s11,s9,ad74 <.LBB103_986>
    ad70:	0ff00d93          	li	s11,255

000000000000ad74 <.LBB103_986>:
    ad74:	03808533          	mul	a0,ra,s8
    ad78:	d9043583          	ld	a1,-624(s0)
    ad7c:	017585b3          	add	a1,a1,s7
    ad80:	00b50533          	add	a0,a0,a1
    ad84:	42455513          	srai	a0,a0,0x24
    ad88:	00a025b3          	sgtz	a1,a0
    ad8c:	40b005b3          	neg	a1,a1
    ad90:	00a5f533          	and	a0,a1,a0
    ad94:	01954463          	blt	a0,s9,ad9c <.LBB103_988>
    ad98:	0ff00513          	li	a0,255

000000000000ad9c <.LBB103_988>:
    ad9c:	00068093          	mv	ra,a3
    ada0:	da043583          	ld	a1,-608(s0)
    ada4:	038585b3          	mul	a1,a1,s8
    ada8:	01730633          	add	a2,t1,s7
    adac:	00c585b3          	add	a1,a1,a2
    adb0:	4245d593          	srai	a1,a1,0x24
    adb4:	00b02633          	sgtz	a2,a1
    adb8:	40c00633          	neg	a2,a2
    adbc:	00b675b3          	and	a1,a2,a1
    adc0:	0195c463          	blt	a1,s9,adc8 <.LBB103_990>
    adc4:	0ff00593          	li	a1,255

000000000000adc8 <.LBB103_990>:
    adc8:	db043603          	ld	a2,-592(s0)
    adcc:	03860633          	mul	a2,a2,s8
    add0:	da843683          	ld	a3,-600(s0)
    add4:	017686b3          	add	a3,a3,s7
    add8:	00d60633          	add	a2,a2,a3
    addc:	42465613          	srai	a2,a2,0x24
    ade0:	00c026b3          	sgtz	a3,a2
    ade4:	40d006b3          	neg	a3,a3
    ade8:	00c6f633          	and	a2,a3,a2
    adec:	01964463          	blt	a2,s9,adf4 <.LBB103_992>
    adf0:	0ff00613          	li	a2,255

000000000000adf4 <.LBB103_992>:
    adf4:	db843683          	ld	a3,-584(s0)
    adf8:	038686b3          	mul	a3,a3,s8
    adfc:	d9843703          	ld	a4,-616(s0)
    ae00:	01770733          	add	a4,a4,s7
    ae04:	00e686b3          	add	a3,a3,a4
    ae08:	4246d693          	srai	a3,a3,0x24
    ae0c:	00d02733          	sgtz	a4,a3
    ae10:	40e00733          	neg	a4,a4
    ae14:	00d776b3          	and	a3,a4,a3
    ae18:	0196c463          	blt	a3,s9,ae20 <.LBB103_994>
    ae1c:	0ff00693          	li	a3,255

000000000000ae20 <.LBB103_994>:
    ae20:	dc043703          	ld	a4,-576(s0)
    ae24:	03870733          	mul	a4,a4,s8
    ae28:	df043783          	ld	a5,-528(s0)
    ae2c:	017787b3          	add	a5,a5,s7
    ae30:	00f70733          	add	a4,a4,a5
    ae34:	42475713          	srai	a4,a4,0x24
    ae38:	00e027b3          	sgtz	a5,a4
    ae3c:	40f007b3          	neg	a5,a5
    ae40:	00e7f733          	and	a4,a5,a4
    ae44:	01974463          	blt	a4,s9,ae4c <.LBB103_996>
    ae48:	0ff00713          	li	a4,255

000000000000ae4c <.LBB103_996>:
    ae4c:	dd043783          	ld	a5,-560(s0)
    ae50:	038787b3          	mul	a5,a5,s8
    ae54:	dc843803          	ld	a6,-568(s0)
    ae58:	01780833          	add	a6,a6,s7
    ae5c:	010787b3          	add	a5,a5,a6
    ae60:	4247d793          	srai	a5,a5,0x24
    ae64:	00f02833          	sgtz	a6,a5
    ae68:	41000833          	neg	a6,a6
    ae6c:	00f877b3          	and	a5,a6,a5
    ae70:	0197c463          	blt	a5,s9,ae78 <.LBB103_998>
    ae74:	0ff00793          	li	a5,255

000000000000ae78 <.LBB103_998>:
    ae78:	dd843803          	ld	a6,-552(s0)
    ae7c:	03880833          	mul	a6,a6,s8
    ae80:	de843883          	ld	a7,-536(s0)
    ae84:	017888b3          	add	a7,a7,s7
    ae88:	01180833          	add	a6,a6,a7
    ae8c:	42485813          	srai	a6,a6,0x24
    ae90:	010028b3          	sgtz	a7,a6
    ae94:	411008b3          	neg	a7,a7
    ae98:	0108f833          	and	a6,a7,a6
    ae9c:	01984463          	blt	a6,s9,aea4 <.LBB103_1000>
    aea0:	0ff00813          	li	a6,255

000000000000aea4 <.LBB103_1000>:
    aea4:	e3043883          	ld	a7,-464(s0)
    aea8:	038888b3          	mul	a7,a7,s8
    aeac:	de043283          	ld	t0,-544(s0)
    aeb0:	017282b3          	add	t0,t0,s7
    aeb4:	005888b3          	add	a7,a7,t0
    aeb8:	4248d893          	srai	a7,a7,0x24
    aebc:	011022b3          	sgtz	t0,a7
    aec0:	405002b3          	neg	t0,t0
    aec4:	0112f8b3          	and	a7,t0,a7
    aec8:	0198c463          	blt	a7,s9,aed0 <.LBB103_1002>
    aecc:	0ff00893          	li	a7,255

000000000000aed0 <.LBB103_1002>:
    aed0:	e4043283          	ld	t0,-448(s0)
    aed4:	038282b3          	mul	t0,t0,s8
    aed8:	e3843303          	ld	t1,-456(s0)
    aedc:	01730333          	add	t1,t1,s7
    aee0:	006282b3          	add	t0,t0,t1
    aee4:	4242d293          	srai	t0,t0,0x24
    aee8:	00502333          	sgtz	t1,t0
    aeec:	40600333          	neg	t1,t1
    aef0:	005372b3          	and	t0,t1,t0
    aef4:	0192c463          	blt	t0,s9,aefc <.LBB103_1004>
    aef8:	0ff00293          	li	t0,255

000000000000aefc <.LBB103_1004>:
    aefc:	03838333          	mul	t1,t2,s8
    af00:	e4843383          	ld	t2,-440(s0)
    af04:	017383b3          	add	t2,t2,s7
    af08:	00730333          	add	t1,t1,t2
    af0c:	42435313          	srai	t1,t1,0x24
    af10:	006023b3          	sgtz	t2,t1
    af14:	407003b3          	neg	t2,t2
    af18:	0063f333          	and	t1,t2,t1
    af1c:	01934463          	blt	t1,s9,af24 <.LBB103_1006>
    af20:	0ff00313          	li	t1,255

000000000000af24 <.LBB103_1006>:
    af24:	038e03b3          	mul	t2,t3,s8
    af28:	e5043e03          	ld	t3,-432(s0)
    af2c:	017e0e33          	add	t3,t3,s7
    af30:	01c383b3          	add	t2,t2,t3
    af34:	4243d393          	srai	t2,t2,0x24
    af38:	00702e33          	sgtz	t3,t2
    af3c:	41c00e33          	neg	t3,t3
    af40:	007e73b3          	and	t2,t3,t2
    af44:	0193c463          	blt	t2,s9,af4c <.LBB103_1008>
    af48:	0ff00393          	li	t2,255

000000000000af4c <.LBB103_1008>:
    af4c:	038e8e33          	mul	t3,t4,s8
    af50:	e6043e83          	ld	t4,-416(s0)
    af54:	017e8eb3          	add	t4,t4,s7
    af58:	01de0e33          	add	t3,t3,t4
    af5c:	424e5e13          	srai	t3,t3,0x24
    af60:	01c02eb3          	sgtz	t4,t3
    af64:	41d00eb3          	neg	t4,t4
    af68:	01cefe33          	and	t3,t4,t3
    af6c:	019e4463          	blt	t3,s9,af74 <.LBB103_1010>
    af70:	0ff00e13          	li	t3,255

000000000000af74 <.LBB103_1010>:
    af74:	038f0eb3          	mul	t4,t5,s8
    af78:	e6843f03          	ld	t5,-408(s0)
    af7c:	017f0f33          	add	t5,t5,s7
    af80:	01ee8eb3          	add	t4,t4,t5
    af84:	424ede93          	srai	t4,t4,0x24
    af88:	01d02f33          	sgtz	t5,t4
    af8c:	41e00f33          	neg	t5,t5
    af90:	01df7eb3          	and	t4,t5,t4
    af94:	019ec463          	blt	t4,s9,af9c <.LBB103_1012>
    af98:	0ff00e93          	li	t4,255

000000000000af9c <.LBB103_1012>:
    af9c:	038f8f33          	mul	t5,t6,s8
    afa0:	e7043f83          	ld	t6,-400(s0)
    afa4:	017f8fb3          	add	t6,t6,s7
    afa8:	01ff0f33          	add	t5,t5,t6
    afac:	424f5f13          	srai	t5,t5,0x24
    afb0:	01e02fb3          	sgtz	t6,t5
    afb4:	41f00fb3          	neg	t6,t6
    afb8:	01efff33          	and	t5,t6,t5
    afbc:	019f4463          	blt	t5,s9,afc4 <.LBB103_1014>
    afc0:	0ff00f13          	li	t5,255

000000000000afc4 <.LBB103_1014>:
    afc4:	03848fb3          	mul	t6,s1,s8
    afc8:	e8043483          	ld	s1,-384(s0)
    afcc:	017484b3          	add	s1,s1,s7
    afd0:	009f8fb3          	add	t6,t6,s1
    afd4:	424fdf93          	srai	t6,t6,0x24
    afd8:	01f024b3          	sgtz	s1,t6
    afdc:	409004b3          	neg	s1,s1
    afe0:	01f4ffb3          	and	t6,s1,t6
    afe4:	019fc463          	blt	t6,s9,afec <.LBB103_1016>
    afe8:	0ff00f93          	li	t6,255

000000000000afec <.LBB103_1016>:
    afec:	86843483          	ld	s1,-1944(s0)
    aff0:	038484b3          	mul	s1,s1,s8
    aff4:	e9043903          	ld	s2,-368(s0)
    aff8:	01790933          	add	s2,s2,s7
    affc:	012484b3          	add	s1,s1,s2
    b000:	4244d493          	srai	s1,s1,0x24
    b004:	00902933          	sgtz	s2,s1
    b008:	41200933          	neg	s2,s2
    b00c:	009974b3          	and	s1,s2,s1
    b010:	0194c463          	blt	s1,s9,b018 <.LBB103_1018>
    b014:	0ff00493          	li	s1,255

000000000000b018 <.LBB103_1018>:
    b018:	03898933          	mul	s2,s3,s8
    b01c:	e9843983          	ld	s3,-360(s0)
    b020:	017989b3          	add	s3,s3,s7
    b024:	01390933          	add	s2,s2,s3
    b028:	42495913          	srai	s2,s2,0x24
    b02c:	012029b3          	sgtz	s3,s2
    b030:	413009b3          	neg	s3,s3
    b034:	0129f933          	and	s2,s3,s2
    b038:	01994463          	blt	s2,s9,b040 <.LBB103_1020>
    b03c:	0ff00913          	li	s2,255

000000000000b040 <.LBB103_1020>:
    b040:	000019b7          	lui	s3,0x1
    b044:	413409b3          	sub	s3,s0,s3
    b048:	d909b983          	ld	s3,-624(s3) # d90 <.LBB103_3+0xabc>
    b04c:	038989b3          	mul	s3,s3,s8
    b050:	ea043a03          	ld	s4,-352(s0)
    b054:	017a0a33          	add	s4,s4,s7
    b058:	014989b3          	add	s3,s3,s4
    b05c:	4249d993          	srai	s3,s3,0x24
    b060:	01302a33          	sgtz	s4,s3
    b064:	41400a33          	neg	s4,s4
    b068:	013a79b3          	and	s3,s4,s3
    b06c:	0199c463          	blt	s3,s9,b074 <.LBB103_1022>
    b070:	0ff00993          	li	s3,255

000000000000b074 <.LBB103_1022>:
    b074:	038a8a33          	mul	s4,s5,s8
    b078:	eb043a83          	ld	s5,-336(s0)
    b07c:	017a8ab3          	add	s5,s5,s7
    b080:	015a0a33          	add	s4,s4,s5
    b084:	424a5a13          	srai	s4,s4,0x24
    b088:	01402ab3          	sgtz	s5,s4
    b08c:	41500ab3          	neg	s5,s5
    b090:	014afa33          	and	s4,s5,s4
    b094:	019a4463          	blt	s4,s9,b09c <.LBB103_1024>
    b098:	0ff00a13          	li	s4,255

000000000000b09c <.LBB103_1024>:
    b09c:	038b0ab3          	mul	s5,s6,s8
    b0a0:	eb843b03          	ld	s6,-328(s0)
    b0a4:	017b0b33          	add	s6,s6,s7
    b0a8:	016a8ab3          	add	s5,s5,s6
    b0ac:	424ada93          	srai	s5,s5,0x24
    b0b0:	01502b33          	sgtz	s6,s5
    b0b4:	41600b33          	neg	s6,s6
    b0b8:	015b7ab3          	and	s5,s6,s5
    b0bc:	019ac463          	blt	s5,s9,b0c4 <.LBB103_1026>
    b0c0:	0ff00a93          	li	s5,255

000000000000b0c4 <.LBB103_1026>:
    b0c4:	ec843b03          	ld	s6,-312(s0)
    b0c8:	038b0b33          	mul	s6,s6,s8
    b0cc:	01708bb3          	add	s7,ra,s7
    b0d0:	017b0b33          	add	s6,s6,s7
    b0d4:	424b5b13          	srai	s6,s6,0x24
    b0d8:	01602bb3          	sgtz	s7,s6
    b0dc:	41700bb3          	neg	s7,s7
    b0e0:	016bfb33          	and	s6,s7,s6
    b0e4:	019b4463          	blt	s6,s9,b0ec <.LBB103_1028>
    b0e8:	0ff00b13          	li	s6,255

000000000000b0ec <.LBB103_1028>:
    b0ec:	ec043b83          	ld	s7,-320(s0)
    b0f0:	038b8bb3          	mul	s7,s7,s8
    b0f4:	00001c37          	lui	s8,0x1
    b0f8:	41840c33          	sub	s8,s0,s8
    b0fc:	650c3c03          	ld	s8,1616(s8) # 1650 <.LBB103_4+0x410>
    b100:	ee843083          	ld	ra,-280(s0)
    b104:	01808c33          	add	s8,ra,s8
    b108:	018b8bb3          	add	s7,s7,s8
    b10c:	424bdb93          	srai	s7,s7,0x24
    b110:	01702c33          	sgtz	s8,s7
    b114:	41800c33          	neg	s8,s8
    b118:	017c7bb3          	and	s7,s8,s7
    b11c:	019bd463          	bge	s7,s9,b124 <.LBB103_1029>
    b120:	9b4f506f          	j	2d4 <.LBB103_3>

000000000000b124 <.LBB103_1029>:
    b124:	0ff00b93          	li	s7,255
    b128:	9acf506f          	j	2d4 <.LBB103_3>

000000000000b12c <.LBB103_1030>:
    b12c:	00000e93          	li	t4,0
    b130:	0000f537          	lui	a0,0xf
    b134:	4c05051b          	addiw	a0,a0,1216 # f4c0 <.LBB45_1808>
    b138:	000015b7          	lui	a1,0x1
    b13c:	40b405b3          	sub	a1,s0,a1
    b140:	d105b583          	ld	a1,-752(a1) # d10 <.LBB103_3+0xa3c>
    b144:	00a58533          	add	a0,a1,a0
    b148:	d4a43423          	sd	a0,-696(s0)
    b14c:	6931c537          	lui	a0,0x6931c
    b150:	8985051b          	addiw	a0,a0,-1896 # 6931b898 <.Lfunc_end80+0x692f2ed0>
    b154:	d4a43023          	sd	a0,-704(s0)
    b158:	00100513          	li	a0,1
    b15c:	02351513          	slli	a0,a0,0x23
    b160:	d2a43c23          	sd	a0,-712(s0)
    b164:	1640006f          	j	b2c8 <.LBB103_1032>

000000000000b168 <.LBB103_1031>:
    b168:	f8843283          	ld	t0,-120(s0)
    b16c:	0802c293          	xori	t0,t0,128
    b170:	000013b7          	lui	t2,0x1
    b174:	407403b3          	sub	t2,s0,t2
    b178:	d083bf03          	ld	t5,-760(t2) # d08 <.LBB103_3+0xa34>
    b17c:	e2043e03          	ld	t3,-480(s0)
    b180:	01cf0f33          	add	t5,t5,t3
    b184:	0000f3b7          	lui	t2,0xf
    b188:	007f0f33          	add	t5,t5,t2
    b18c:	005f01a3          	sb	t0,3(t5) # ffffffffc0000003 <.Lfunc_end80+0xffffffffbffd763b>
    b190:	f8043283          	ld	t0,-128(s0)
    b194:	0802c293          	xori	t0,t0,128
    b198:	005f0123          	sb	t0,2(t5)
    b19c:	f7843283          	ld	t0,-136(s0)
    b1a0:	0802c293          	xori	t0,t0,128
    b1a4:	005f00a3          	sb	t0,1(t5)
    b1a8:	f5843283          	ld	t0,-168(s0)
    b1ac:	0802c293          	xori	t0,t0,128
    b1b0:	005f0023          	sb	t0,0(t5)
    b1b4:	f5043283          	ld	t0,-176(s0)
    b1b8:	0802c293          	xori	t0,t0,128
    b1bc:	005f0223          	sb	t0,4(t5)
    b1c0:	f0043283          	ld	t0,-256(s0)
    b1c4:	0802c293          	xori	t0,t0,128
    b1c8:	005f02a3          	sb	t0,5(t5)
    b1cc:	ef843283          	ld	t0,-264(s0)
    b1d0:	0802c293          	xori	t0,t0,128
    b1d4:	005f0323          	sb	t0,6(t5)
    b1d8:	ef043283          	ld	t0,-272(s0)
    b1dc:	0802c293          	xori	t0,t0,128
    b1e0:	005f03a3          	sb	t0,7(t5)
    b1e4:	ee843283          	ld	t0,-280(s0)
    b1e8:	0802c293          	xori	t0,t0,128
    b1ec:	005f0423          	sb	t0,8(t5)
    b1f0:	080ec293          	xori	t0,t4,128
    b1f4:	005f04a3          	sb	t0,9(t5)
    b1f8:	08074713          	xori	a4,a4,128
    b1fc:	00ef0523          	sb	a4,10(t5)
    b200:	080fc713          	xori	a4,t6,128
    b204:	00ef05a3          	sb	a4,11(t5)
    b208:	08064613          	xori	a2,a2,128
    b20c:	00cf0623          	sb	a2,12(t5)
    b210:	0806c613          	xori	a2,a3,128
    b214:	00cf06a3          	sb	a2,13(t5)
    b218:	080d4613          	xori	a2,s10,128
    b21c:	00cf0723          	sb	a2,14(t5)
    b220:	080cc613          	xori	a2,s9,128
    b224:	00cf07a3          	sb	a2,15(t5)
    b228:	080c4613          	xori	a2,s8,128
    b22c:	00cf0823          	sb	a2,16(t5)
    b230:	080bc613          	xori	a2,s7,128
    b234:	00cf08a3          	sb	a2,17(t5)
    b238:	080b4613          	xori	a2,s6,128
    b23c:	00cf0923          	sb	a2,18(t5)
    b240:	080ac613          	xori	a2,s5,128
    b244:	00cf09a3          	sb	a2,19(t5)
    b248:	080a4613          	xori	a2,s4,128
    b24c:	00cf0a23          	sb	a2,20(t5)
    b250:	0809c613          	xori	a2,s3,128
    b254:	00cf0aa3          	sb	a2,21(t5)
    b258:	08094613          	xori	a2,s2,128
    b25c:	00cf0b23          	sb	a2,22(t5)
    b260:	0804c613          	xori	a2,s1,128
    b264:	00cf0ba3          	sb	a2,23(t5)
    b268:	080dc613          	xori	a2,s11,128
    b26c:	00cf0c23          	sb	a2,24(t5)
    b270:	0800c613          	xori	a2,ra,128
    b274:	00cf0ca3          	sb	a2,25(t5)
    b278:	0808c613          	xori	a2,a7,128
    b27c:	00cf0d23          	sb	a2,26(t5)
    b280:	08054513          	xori	a0,a0,128
    b284:	00af0da3          	sb	a0,27(t5)
    b288:	0805c513          	xori	a0,a1,128
    b28c:	00af0e23          	sb	a0,28(t5)
    b290:	08084513          	xori	a0,a6,128
    b294:	00af0ea3          	sb	a0,29(t5)
    b298:	0807c513          	xori	a0,a5,128
    b29c:	00af0f23          	sb	a0,30(t5)
    b2a0:	08034513          	xori	a0,t1,128
    b2a4:	00af0fa3          	sb	a0,31(t5)
    b2a8:	020e0e93          	addi	t4,t3,32 # ffffffffc0000020 <.Lfunc_end80+0xffffffffbffd7658>
    b2ac:	00001537          	lui	a0,0x1
    b2b0:	40a40533          	sub	a0,s0,a0
    b2b4:	d1853f83          	ld	t6,-744(a0) # d18 <.LBB103_3+0xa44>
    b2b8:	020f8f93          	addi	t6,t6,32
    b2bc:	4e000513          	li	a0,1248
    b2c0:	00ae6463          	bltu	t3,a0,b2c8 <.LBB103_1032>
    b2c4:	0d40106f          	j	c398 <.LBB103_1162>

000000000000b2c8 <.LBB103_1032>:
    b2c8:	00000f13          	li	t5,0
    b2cc:	f0043023          	sd	zero,-256(s0)
    b2d0:	ee043c23          	sd	zero,-264(s0)
    b2d4:	f0043423          	sd	zero,-248(s0)
    b2d8:	00000d13          	li	s10,0
    b2dc:	ee043823          	sd	zero,-272(s0)
    b2e0:	ee043423          	sd	zero,-280(s0)
    b2e4:	ee043023          	sd	zero,-288(s0)
    b2e8:	ec043c23          	sd	zero,-296(s0)
    b2ec:	00000a93          	li	s5,0
    b2f0:	00000a13          	li	s4,0
    b2f4:	00000993          	li	s3,0
    b2f8:	00000913          	li	s2,0
    b2fc:	00000093          	li	ra,0
    b300:	00000d93          	li	s11,0
    b304:	00000493          	li	s1,0
    b308:	f0043c23          	sd	zero,-232(s0)
    b30c:	f2043023          	sd	zero,-224(s0)
    b310:	00000313          	li	t1,0
    b314:	00000293          	li	t0,0
    b318:	00000693          	li	a3,0
    b31c:	00000613          	li	a2,0
    b320:	00000593          	li	a1,0
    b324:	00000513          	li	a0,0
    b328:	00000893          	li	a7,0
    b32c:	00000c93          	li	s9,0
    b330:	00000813          	li	a6,0
    b334:	00000c13          	li	s8,0
    b338:	00000793          	li	a5,0
    b33c:	00000713          	li	a4,0
    b340:	f4043823          	sd	zero,-176(s0)
    b344:	f4043c23          	sd	zero,-168(s0)
    b348:	e3d43023          	sd	t4,-480(s0)
    b34c:	000643b7          	lui	t2,0x64
    b350:	d4843e03          	ld	t3,-696(s0)
    b354:	00001eb7          	lui	t4,0x1
    b358:	41d40eb3          	sub	t4,s0,t4
    b35c:	d1febc23          	sd	t6,-744(t4) # d18 <.LBB103_3+0xa44>

000000000000b360 <.LBB103_1033>:
    b360:	e9c43823          	sd	t3,-368(s0)
    b364:	e8743c23          	sd	t2,-360(s0)
    b368:	f5843023          	sd	s8,-192(s0)
    b36c:	eba43023          	sd	s10,-352(s0)
    b370:	eb543423          	sd	s5,-344(s0)
    b374:	eb443823          	sd	s4,-336(s0)
    b378:	eb343c23          	sd	s3,-328(s0)
    b37c:	ed243023          	sd	s2,-320(s0)
    b380:	ec143423          	sd	ra,-312(s0)
    b384:	f1b43823          	sd	s11,-240(s0)
    b388:	ec943823          	sd	s1,-304(s0)
    b38c:	f6643023          	sd	t1,-160(s0)
    b390:	f6543423          	sd	t0,-152(s0)
    b394:	f6d43823          	sd	a3,-144(s0)
    b398:	f6c43c23          	sd	a2,-136(s0)
    b39c:	f8b43023          	sd	a1,-128(s0)
    b3a0:	f8a43423          	sd	a0,-120(s0)
    b3a4:	f3143423          	sd	a7,-216(s0)
    b3a8:	f3943823          	sd	s9,-208(s0)
    b3ac:	f3043c23          	sd	a6,-200(s0)
    b3b0:	f4f43423          	sd	a5,-184(s0)
    b3b4:	000e0483          	lb	s1,0(t3)
    b3b8:	006f8503          	lb	a0,6(t6)
    b3bc:	e4a43423          	sd	a0,-440(s0)
    b3c0:	007f8503          	lb	a0,7(t6)
    b3c4:	e2a43823          	sd	a0,-464(s0)
    b3c8:	008f8503          	lb	a0,8(t6)
    b3cc:	e2a43423          	sd	a0,-472(s0)
    b3d0:	009f8083          	lb	ra,9(t6)
    b3d4:	00af8d83          	lb	s11,10(t6)
    b3d8:	00bf8c83          	lb	s9,11(t6)
    b3dc:	00cf8803          	lb	a6,12(t6)
    b3e0:	00df8783          	lb	a5,13(t6)
    b3e4:	00ef8683          	lb	a3,14(t6)
    b3e8:	00ff8e83          	lb	t4,15(t6)
    b3ec:	010f8883          	lb	a7,16(t6)
    b3f0:	011f8283          	lb	t0,17(t6)
    b3f4:	012f8303          	lb	t1,18(t6)
    b3f8:	013f8903          	lb	s2,19(t6)
    b3fc:	014f8383          	lb	t2,20(t6)
    b400:	015f8983          	lb	s3,21(t6)
    b404:	016f8a03          	lb	s4,22(t6)
    b408:	017f8e03          	lb	t3,23(t6)
    b40c:	018f8d03          	lb	s10,24(t6)
    b410:	019f8c03          	lb	s8,25(t6)
    b414:	01af8b83          	lb	s7,26(t6)
    b418:	01bf8b03          	lb	s6,27(t6)
    b41c:	01ff8a83          	lb	s5,31(t6)
    b420:	01ef8503          	lb	a0,30(t6)
    b424:	01df8583          	lb	a1,29(t6)
    b428:	01cf8603          	lb	a2,28(t6)
    b42c:	03548ab3          	mul	s5,s1,s5
    b430:	e9543423          	sd	s5,-376(s0)
    b434:	02a48533          	mul	a0,s1,a0
    b438:	e8a43023          	sd	a0,-384(s0)
    b43c:	02b48533          	mul	a0,s1,a1
    b440:	e6a43c23          	sd	a0,-392(s0)
    b444:	02c48533          	mul	a0,s1,a2
    b448:	e6a43823          	sd	a0,-400(s0)
    b44c:	03648533          	mul	a0,s1,s6
    b450:	e6a43423          	sd	a0,-408(s0)
    b454:	03748533          	mul	a0,s1,s7
    b458:	e6a43023          	sd	a0,-416(s0)
    b45c:	03848533          	mul	a0,s1,s8
    b460:	e4a43823          	sd	a0,-432(s0)
    b464:	03a48533          	mul	a0,s1,s10
    b468:	e2a43c23          	sd	a0,-456(s0)
    b46c:	03c48533          	mul	a0,s1,t3
    b470:	e4a43c23          	sd	a0,-424(s0)
    b474:	03448533          	mul	a0,s1,s4
    b478:	e4a43023          	sd	a0,-448(s0)
    b47c:	03348c33          	mul	s8,s1,s3
    b480:	02748bb3          	mul	s7,s1,t2
    b484:	03248b33          	mul	s6,s1,s2
    b488:	02648e33          	mul	t3,s1,t1
    b48c:	025483b3          	mul	t2,s1,t0
    b490:	03148333          	mul	t1,s1,a7
    b494:	03d482b3          	mul	t0,s1,t4
    b498:	02d488b3          	mul	a7,s1,a3
    b49c:	02f487b3          	mul	a5,s1,a5
    b4a0:	03048833          	mul	a6,s1,a6
    b4a4:	03948933          	mul	s2,s1,s9
    b4a8:	03b489b3          	mul	s3,s1,s11
    b4ac:	02148a33          	mul	s4,s1,ra
    b4b0:	e2843503          	ld	a0,-472(s0)
    b4b4:	02a48ab3          	mul	s5,s1,a0
    b4b8:	005f8c83          	lb	s9,5(t6)
    b4bc:	004f8d83          	lb	s11,4(t6)
    b4c0:	e3043503          	ld	a0,-464(s0)
    b4c4:	02a480b3          	mul	ra,s1,a0
    b4c8:	e4843503          	ld	a0,-440(s0)
    b4cc:	02a48633          	mul	a2,s1,a0
    b4d0:	03948cb3          	mul	s9,s1,s9
    b4d4:	03b48db3          	mul	s11,s1,s11
    b4d8:	003f8e83          	lb	t4,3(t6)
    b4dc:	000f8683          	lb	a3,0(t6)
    b4e0:	00070593          	mv	a1,a4
    b4e4:	001f8703          	lb	a4,1(t6)
    b4e8:	000f0513          	mv	a0,t5
    b4ec:	002f8f03          	lb	t5,2(t6)
    b4f0:	03d48eb3          	mul	t4,s1,t4
    b4f4:	02d486b3          	mul	a3,s1,a3
    b4f8:	02e48733          	mul	a4,s1,a4
    b4fc:	03e48f33          	mul	t5,s1,t5
    b500:	ed043483          	ld	s1,-304(s0)
    b504:	ef843d03          	ld	s10,-264(s0)
    b508:	01af0d33          	add	s10,t5,s10
    b50c:	efa43c23          	sd	s10,-264(s0)
    b510:	ea043d03          	ld	s10,-352(s0)
    b514:	00050f13          	mv	t5,a0
    b518:	f0043503          	ld	a0,-256(s0)
    b51c:	00a70533          	add	a0,a4,a0
    b520:	f0a43023          	sd	a0,-256(s0)
    b524:	00058713          	mv	a4,a1
    b528:	01e68f33          	add	t5,a3,t5
    b52c:	f0843503          	ld	a0,-248(s0)
    b530:	00ae8533          	add	a0,t4,a0
    b534:	f0a43423          	sd	a0,-248(s0)
    b538:	01ad8d33          	add	s10,s11,s10
    b53c:	ef043503          	ld	a0,-272(s0)
    b540:	00ac8533          	add	a0,s9,a0
    b544:	eea43823          	sd	a0,-272(s0)
    b548:	ee843503          	ld	a0,-280(s0)
    b54c:	00a60533          	add	a0,a2,a0
    b550:	eea43423          	sd	a0,-280(s0)
    b554:	ee043503          	ld	a0,-288(s0)
    b558:	00a08533          	add	a0,ra,a0
    b55c:	eea43023          	sd	a0,-288(s0)
    b560:	ed843503          	ld	a0,-296(s0)
    b564:	00aa8533          	add	a0,s5,a0
    b568:	eca43c23          	sd	a0,-296(s0)
    b56c:	ea843a83          	ld	s5,-344(s0)
    b570:	015a0ab3          	add	s5,s4,s5
    b574:	eb043a03          	ld	s4,-336(s0)
    b578:	01498a33          	add	s4,s3,s4
    b57c:	eb843983          	ld	s3,-328(s0)
    b580:	013909b3          	add	s3,s2,s3
    b584:	ec043903          	ld	s2,-320(s0)
    b588:	ec843083          	ld	ra,-312(s0)
    b58c:	f1043d83          	ld	s11,-240(s0)
    b590:	01280933          	add	s2,a6,s2
    b594:	f3843803          	ld	a6,-200(s0)
    b598:	001780b3          	add	ra,a5,ra
    b59c:	f4843783          	ld	a5,-184(s0)
    b5a0:	01b88db3          	add	s11,a7,s11
    b5a4:	009284b3          	add	s1,t0,s1
    b5a8:	f2843883          	ld	a7,-216(s0)
    b5ac:	f3043c83          	ld	s9,-208(s0)
    b5b0:	f1843503          	ld	a0,-232(s0)
    b5b4:	00a30533          	add	a0,t1,a0
    b5b8:	f0a43c23          	sd	a0,-232(s0)
    b5bc:	f2043503          	ld	a0,-224(s0)
    b5c0:	00a38533          	add	a0,t2,a0
    b5c4:	f2a43023          	sd	a0,-224(s0)
    b5c8:	f6043503          	ld	a0,-160(s0)
    b5cc:	00ae0533          	add	a0,t3,a0
    b5d0:	e9043e03          	ld	t3,-368(s0)
    b5d4:	f6a43023          	sd	a0,-160(s0)
    b5d8:	f6043303          	ld	t1,-160(s0)
    b5dc:	f6843503          	ld	a0,-152(s0)
    b5e0:	00ab0533          	add	a0,s6,a0
    b5e4:	f6a43423          	sd	a0,-152(s0)
    b5e8:	f6843283          	ld	t0,-152(s0)
    b5ec:	f7043503          	ld	a0,-144(s0)
    b5f0:	00ab8533          	add	a0,s7,a0
    b5f4:	f6a43823          	sd	a0,-144(s0)
    b5f8:	f7043683          	ld	a3,-144(s0)
    b5fc:	f7843503          	ld	a0,-136(s0)
    b600:	00ac0533          	add	a0,s8,a0
    b604:	f4043c03          	ld	s8,-192(s0)
    b608:	f6a43c23          	sd	a0,-136(s0)
    b60c:	f7843603          	ld	a2,-136(s0)
    b610:	f8043503          	ld	a0,-128(s0)
    b614:	e4043583          	ld	a1,-448(s0)
    b618:	00a58533          	add	a0,a1,a0
    b61c:	f8a43023          	sd	a0,-128(s0)
    b620:	f8043583          	ld	a1,-128(s0)
    b624:	f8843503          	ld	a0,-120(s0)
    b628:	e5843383          	ld	t2,-424(s0)
    b62c:	00a38533          	add	a0,t2,a0
    b630:	f8a43423          	sd	a0,-120(s0)
    b634:	f8843503          	ld	a0,-120(s0)
    b638:	e3843383          	ld	t2,-456(s0)
    b63c:	011388b3          	add	a7,t2,a7
    b640:	e5043383          	ld	t2,-432(s0)
    b644:	01938cb3          	add	s9,t2,s9
    b648:	e6043383          	ld	t2,-416(s0)
    b64c:	01038833          	add	a6,t2,a6
    b650:	e6843383          	ld	t2,-408(s0)
    b654:	01838c33          	add	s8,t2,s8
    b658:	e7043383          	ld	t2,-400(s0)
    b65c:	00f387b3          	add	a5,t2,a5
    b660:	e7843383          	ld	t2,-392(s0)
    b664:	00e38733          	add	a4,t2,a4
    b668:	f5043383          	ld	t2,-176(s0)
    b66c:	e8043e83          	ld	t4,-384(s0)
    b670:	007e83b3          	add	t2,t4,t2
    b674:	f4743823          	sd	t2,-176(s0)
    b678:	f5843383          	ld	t2,-168(s0)
    b67c:	e8843e83          	ld	t4,-376(s0)
    b680:	007e83b3          	add	t2,t4,t2
    b684:	f4743c23          	sd	t2,-168(s0)
    b688:	e9843383          	ld	t2,-360(s0)
    b68c:	500f8f93          	addi	t6,t6,1280
    b690:	b0038393          	addi	t2,t2,-1280 # 63b00 <.Lfunc_end80+0x3b138>
    b694:	001e0e13          	addi	t3,t3,1
    b698:	cc0394e3          	bnez	t2,b360 <.LBB103_1033>
    b69c:	ef843b83          	ld	s7,-264(s0)
    b6a0:	f0043b03          	ld	s6,-256(s0)
    b6a4:	000f0f93          	mv	t6,t5
    b6a8:	000d0e93          	mv	t4,s10
    b6ac:	ef043e03          	ld	t3,-272(s0)
    b6b0:	ee843383          	ld	t2,-280(s0)
    b6b4:	ee043303          	ld	t1,-288(s0)
    b6b8:	ed843283          	ld	t0,-296(s0)
    b6bc:	f5843023          	sd	s8,-192(s0)
    b6c0:	e2043503          	ld	a0,-480(s0)
    b6c4:	00251513          	slli	a0,a0,0x2
    b6c8:	000015b7          	lui	a1,0x1
    b6cc:	40b405b3          	sub	a1,s0,a1
    b6d0:	d705bf03          	ld	t5,-656(a1) # d70 <.LBB103_3+0xa9c>
    b6d4:	00af0f33          	add	t5,t5,a0
    b6d8:	000015b7          	lui	a1,0x1
    b6dc:	40b405b3          	sub	a1,s0,a1
    b6e0:	d105b583          	ld	a1,-752(a1) # d10 <.LBB103_3+0xa3c>
    b6e4:	0c05a583          	lw	a1,192(a1)
    b6e8:	00cf2603          	lw	a2,12(t5)
    b6ec:	000016b7          	lui	a3,0x1
    b6f0:	40d406b3          	sub	a3,s0,a3
    b6f4:	d686b683          	ld	a3,-664(a3) # d68 <.LBB103_3+0xa94>
    b6f8:	00a68533          	add	a0,a3,a0
    b6fc:	00050c13          	mv	s8,a0
    b700:	00c52503          	lw	a0,12(a0)
    b704:	00159693          	slli	a3,a1,0x1
    b708:	00b686b3          	add	a3,a3,a1
    b70c:	f0843583          	ld	a1,-248(s0)
    b710:	00c58633          	add	a2,a1,a2
    b714:	00151513          	slli	a0,a0,0x1
    b718:	40a6063b          	subw	a2,a2,a0
    b71c:	00d60633          	add	a2,a2,a3
    b720:	8806051b          	addiw	a0,a2,-1920 # ffffffffbffff880 <.Lfunc_end80+0xffffffffbffd6eb8>
    b724:	400005b7          	lui	a1,0x40000
    b728:	eca43823          	sd	a0,-304(s0)
    b72c:	00055463          	bgez	a0,b734 <.LBB103_1036>
    b730:	c00005b7          	lui	a1,0xc0000

000000000000b734 <.LBB103_1036>:
    b734:	e6b43823          	sd	a1,-400(s0)
    b738:	008f2503          	lw	a0,8(t5)
    b73c:	008c2583          	lw	a1,8(s8)
    b740:	00ab8533          	add	a0,s7,a0
    b744:	00159593          	slli	a1,a1,0x1
    b748:	40b5053b          	subw	a0,a0,a1
    b74c:	00d50533          	add	a0,a0,a3
    b750:	8805051b          	addiw	a0,a0,-1920
    b754:	400005b7          	lui	a1,0x40000
    b758:	eea43c23          	sd	a0,-264(s0)
    b75c:	00028613          	mv	a2,t0
    b760:	00055463          	bgez	a0,b768 <.LBB103_1038>
    b764:	c00005b7          	lui	a1,0xc0000

000000000000b768 <.LBB103_1038>:
    b768:	eab43823          	sd	a1,-336(s0)
    b76c:	004f2503          	lw	a0,4(t5)
    b770:	000c0b93          	mv	s7,s8
    b774:	004c2583          	lw	a1,4(s8)
    b778:	00ab0533          	add	a0,s6,a0
    b77c:	00159593          	slli	a1,a1,0x1
    b780:	40b5053b          	subw	a0,a0,a1
    b784:	00d50533          	add	a0,a0,a3
    b788:	8805051b          	addiw	a0,a0,-1920
    b78c:	400005b7          	lui	a1,0x40000
    b790:	eca43423          	sd	a0,-312(s0)
    b794:	00030293          	mv	t0,t1
    b798:	00055463          	bgez	a0,b7a0 <.LBB103_1040>
    b79c:	c00005b7          	lui	a1,0xc0000

000000000000b7a0 <.LBB103_1040>:
    b7a0:	eab43423          	sd	a1,-344(s0)
    b7a4:	000f2503          	lw	a0,0(t5)
    b7a8:	000ba583          	lw	a1,0(s7)
    b7ac:	00af8533          	add	a0,t6,a0
    b7b0:	00159593          	slli	a1,a1,0x1
    b7b4:	40b5053b          	subw	a0,a0,a1
    b7b8:	00d50533          	add	a0,a0,a3
    b7bc:	8805051b          	addiw	a0,a0,-1920
    b7c0:	400005b7          	lui	a1,0x40000
    b7c4:	eca43023          	sd	a0,-320(s0)
    b7c8:	00055463          	bgez	a0,b7d0 <.LBB103_1042>
    b7cc:	c00005b7          	lui	a1,0xc0000

000000000000b7d0 <.LBB103_1042>:
    b7d0:	eab43023          	sd	a1,-352(s0)
    b7d4:	010f2503          	lw	a0,16(t5)
    b7d8:	010ba583          	lw	a1,16(s7)
    b7dc:	00ae8533          	add	a0,t4,a0
    b7e0:	00159593          	slli	a1,a1,0x1
    b7e4:	40b5053b          	subw	a0,a0,a1
    b7e8:	00d50533          	add	a0,a0,a3
    b7ec:	8805051b          	addiw	a0,a0,-1920
    b7f0:	400005b7          	lui	a1,0x40000
    b7f4:	eaa43c23          	sd	a0,-328(s0)
    b7f8:	00055463          	bgez	a0,b800 <.LBB103_1044>
    b7fc:	c00005b7          	lui	a1,0xc0000

000000000000b800 <.LBB103_1044>:
    b800:	e8b43c23          	sd	a1,-360(s0)
    b804:	014f2503          	lw	a0,20(t5)
    b808:	014ba583          	lw	a1,20(s7)
    b80c:	00ae0533          	add	a0,t3,a0
    b810:	00159593          	slli	a1,a1,0x1
    b814:	40b5053b          	subw	a0,a0,a1
    b818:	00d50533          	add	a0,a0,a3
    b81c:	8805051b          	addiw	a0,a0,-1920
    b820:	400005b7          	lui	a1,0x40000
    b824:	eea43823          	sd	a0,-272(s0)
    b828:	00055463          	bgez	a0,b830 <.LBB103_1046>
    b82c:	c00005b7          	lui	a1,0xc0000

000000000000b830 <.LBB103_1046>:
    b830:	e8b43823          	sd	a1,-368(s0)
    b834:	018f2503          	lw	a0,24(t5)
    b838:	018ba583          	lw	a1,24(s7)
    b83c:	00a38533          	add	a0,t2,a0
    b840:	00159593          	slli	a1,a1,0x1
    b844:	40b5053b          	subw	a0,a0,a1
    b848:	00d50533          	add	a0,a0,a3
    b84c:	8805051b          	addiw	a0,a0,-1920
    b850:	400005b7          	lui	a1,0x40000
    b854:	eea43423          	sd	a0,-280(s0)
    b858:	00055463          	bgez	a0,b860 <.LBB103_1048>
    b85c:	c00005b7          	lui	a1,0xc0000

000000000000b860 <.LBB103_1048>:
    b860:	e8b43423          	sd	a1,-376(s0)
    b864:	01cf2503          	lw	a0,28(t5)
    b868:	01cba583          	lw	a1,28(s7)
    b86c:	00a28533          	add	a0,t0,a0
    b870:	00159593          	slli	a1,a1,0x1
    b874:	40b5053b          	subw	a0,a0,a1
    b878:	00d50533          	add	a0,a0,a3
    b87c:	8805051b          	addiw	a0,a0,-1920
    b880:	400005b7          	lui	a1,0x40000
    b884:	eea43023          	sd	a0,-288(s0)
    b888:	00055463          	bgez	a0,b890 <.LBB103_1050>
    b88c:	c00005b7          	lui	a1,0xc0000

000000000000b890 <.LBB103_1050>:
    b890:	000a0d13          	mv	s10,s4
    b894:	00098e13          	mv	t3,s3
    b898:	e8b43023          	sd	a1,-384(s0)
    b89c:	00090c13          	mv	s8,s2
    b8a0:	f1b43823          	sd	s11,-240(s0)
    b8a4:	00048d93          	mv	s11,s1
    b8a8:	f3143423          	sd	a7,-216(s0)
    b8ac:	f3943823          	sd	s9,-208(s0)
    b8b0:	f3043c23          	sd	a6,-200(s0)
    b8b4:	f4f43423          	sd	a5,-184(s0)
    b8b8:	020f2503          	lw	a0,32(t5)
    b8bc:	020ba583          	lw	a1,32(s7)
    b8c0:	00a60533          	add	a0,a2,a0
    b8c4:	00159593          	slli	a1,a1,0x1
    b8c8:	40b5053b          	subw	a0,a0,a1
    b8cc:	00068c93          	mv	s9,a3
    b8d0:	00d50533          	add	a0,a0,a3
    b8d4:	8805051b          	addiw	a0,a0,-1920
    b8d8:	400005b7          	lui	a1,0x40000
    b8dc:	eca43c23          	sd	a0,-296(s0)
    b8e0:	00055463          	bgez	a0,b8e8 <.LBB103_1052>
    b8e4:	c00005b7          	lui	a1,0xc0000

000000000000b8e8 <.LBB103_1052>:
    b8e8:	e6b43c23          	sd	a1,-392(s0)
    b8ec:	f0e43023          	sd	a4,-256(s0)
    b8f0:	07cf2503          	lw	a0,124(t5)
    b8f4:	dca43423          	sd	a0,-568(s0)
    b8f8:	078f2503          	lw	a0,120(t5)
    b8fc:	dca43023          	sd	a0,-576(s0)
    b900:	074f2503          	lw	a0,116(t5)
    b904:	daa43c23          	sd	a0,-584(s0)
    b908:	070f2503          	lw	a0,112(t5)
    b90c:	daa43823          	sd	a0,-592(s0)
    b910:	06cf2503          	lw	a0,108(t5)
    b914:	daa43023          	sd	a0,-608(s0)
    b918:	068f2503          	lw	a0,104(t5)
    b91c:	d8a43823          	sd	a0,-624(s0)
    b920:	064f2503          	lw	a0,100(t5)
    b924:	e6a43423          	sd	a0,-408(s0)
    b928:	060f2503          	lw	a0,96(t5)
    b92c:	e6a43023          	sd	a0,-416(s0)
    b930:	05cf2503          	lw	a0,92(t5)
    b934:	e4a43c23          	sd	a0,-424(s0)
    b938:	058f2503          	lw	a0,88(t5)
    b93c:	e4a43823          	sd	a0,-432(s0)
    b940:	054f2503          	lw	a0,84(t5)
    b944:	e4a43423          	sd	a0,-440(s0)
    b948:	050f2503          	lw	a0,80(t5)
    b94c:	e4a43023          	sd	a0,-448(s0)
    b950:	04cf2503          	lw	a0,76(t5)
    b954:	e2a43c23          	sd	a0,-456(s0)
    b958:	048f2503          	lw	a0,72(t5)
    b95c:	e2a43823          	sd	a0,-464(s0)
    b960:	044f2503          	lw	a0,68(t5)
    b964:	e2a43423          	sd	a0,-472(s0)
    b968:	040f2803          	lw	a6,64(t5)
    b96c:	03cf2283          	lw	t0,60(t5)
    b970:	038f2e83          	lw	t4,56(t5)
    b974:	034f2f83          	lw	t6,52(t5)
    b978:	030f2383          	lw	t2,48(t5)
    b97c:	02cf2483          	lw	s1,44(t5)
    b980:	024f2583          	lw	a1,36(t5)
    b984:	028f2983          	lw	s3,40(t5)
    b988:	024ba603          	lw	a2,36(s7)
    b98c:	07cba503          	lw	a0,124(s7)
    b990:	daa43423          	sd	a0,-600(s0)
    b994:	00ba85b3          	add	a1,s5,a1
    b998:	078ba503          	lw	a0,120(s7)
    b99c:	d8a43c23          	sd	a0,-616(s0)
    b9a0:	00161613          	slli	a2,a2,0x1
    b9a4:	40c585bb          	subw	a1,a1,a2
    b9a8:	074ba503          	lw	a0,116(s7)
    b9ac:	d8a43423          	sd	a0,-632(s0)
    b9b0:	070ba503          	lw	a0,112(s7)
    b9b4:	d8a43023          	sd	a0,-640(s0)
    b9b8:	06cba503          	lw	a0,108(s7)
    b9bc:	d6a43c23          	sd	a0,-648(s0)
    b9c0:	068ba503          	lw	a0,104(s7)
    b9c4:	d6a43823          	sd	a0,-656(s0)
    b9c8:	064ba503          	lw	a0,100(s7)
    b9cc:	d6a43423          	sd	a0,-664(s0)
    b9d0:	060ba503          	lw	a0,96(s7)
    b9d4:	d6a43023          	sd	a0,-672(s0)
    b9d8:	05cba503          	lw	a0,92(s7)
    b9dc:	d4a43c23          	sd	a0,-680(s0)
    b9e0:	058ba503          	lw	a0,88(s7)
    b9e4:	d4a43823          	sd	a0,-688(s0)
    b9e8:	054ba703          	lw	a4,84(s7)
    b9ec:	050ba883          	lw	a7,80(s7)
    b9f0:	04cba303          	lw	t1,76(s7)
    b9f4:	048ba783          	lw	a5,72(s7)
    b9f8:	044baf03          	lw	t5,68(s7)
    b9fc:	040ba603          	lw	a2,64(s7)
    ba00:	03cba683          	lw	a3,60(s7)
    ba04:	038ba903          	lw	s2,56(s7)
    ba08:	034baa03          	lw	s4,52(s7)
    ba0c:	030baa83          	lw	s5,48(s7)
    ba10:	02cbab03          	lw	s6,44(s7)
    ba14:	028bab83          	lw	s7,40(s7)
    ba18:	019585b3          	add	a1,a1,s9
    ba1c:	8805859b          	addiw	a1,a1,-1920 # ffffffffbffff880 <.Lfunc_end80+0xffffffffbffd6eb8>
    ba20:	40000537          	lui	a0,0x40000
    ba24:	f0a43423          	sd	a0,-248(s0)
    ba28:	dcb43823          	sd	a1,-560(s0)
    ba2c:	0005d663          	bgez	a1,ba38 <.LBB103_1054>
    ba30:	c00005b7          	lui	a1,0xc0000
    ba34:	f0b43423          	sd	a1,-248(s0)

000000000000ba38 <.LBB103_1054>:
    ba38:	013d09b3          	add	s3,s10,s3
    ba3c:	001b9b93          	slli	s7,s7,0x1
    ba40:	417985bb          	subw	a1,s3,s7
    ba44:	019585b3          	add	a1,a1,s9
    ba48:	88058b9b          	addiw	s7,a1,-1920 # ffffffffbffff880 <.Lfunc_end80+0xffffffffbffd6eb8>
    ba4c:	400005b7          	lui	a1,0x40000
    ba50:	000bd463          	bgez	s7,ba58 <.LBB103_1056>
    ba54:	c00005b7          	lui	a1,0xc0000

000000000000ba58 <.LBB103_1056>:
    ba58:	dcb43c23          	sd	a1,-552(s0)
    ba5c:	009e04b3          	add	s1,t3,s1
    ba60:	001b1b13          	slli	s6,s6,0x1
    ba64:	416485bb          	subw	a1,s1,s6
    ba68:	019585b3          	add	a1,a1,s9
    ba6c:	8805859b          	addiw	a1,a1,-1920 # ffffffffbffff880 <.Lfunc_end80+0xffffffffbffd6eb8>
    ba70:	40000e37          	lui	t3,0x40000
    ba74:	deb43423          	sd	a1,-536(s0)
    ba78:	0005d463          	bgez	a1,ba80 <.LBB103_1058>
    ba7c:	c0000e37          	lui	t3,0xc0000

000000000000ba80 <.LBB103_1058>:
    ba80:	007c03b3          	add	t2,s8,t2
    ba84:	001a9a93          	slli	s5,s5,0x1
    ba88:	415385bb          	subw	a1,t2,s5
    ba8c:	019585b3          	add	a1,a1,s9
    ba90:	88058a9b          	addiw	s5,a1,-1920
    ba94:	400005b7          	lui	a1,0x40000
    ba98:	000ad463          	bgez	s5,baa0 <.LBB103_1060>
    ba9c:	c00005b7          	lui	a1,0xc0000

000000000000baa0 <.LBB103_1060>:
    baa0:	deb43823          	sd	a1,-528(s0)
    baa4:	01f08fb3          	add	t6,ra,t6
    baa8:	001a1a13          	slli	s4,s4,0x1
    baac:	414f85bb          	subw	a1,t6,s4
    bab0:	000c8f93          	mv	t6,s9
    bab4:	019585b3          	add	a1,a1,s9
    bab8:	8805899b          	addiw	s3,a1,-1920 # ffffffffbffff880 <.Lfunc_end80+0xffffffffbffd6eb8>
    babc:	400005b7          	lui	a1,0x40000
    bac0:	d3843383          	ld	t2,-712(s0)
    bac4:	0009d463          	bgez	s3,bacc <.LBB103_1062>
    bac8:	c00005b7          	lui	a1,0xc0000

000000000000bacc <.LBB103_1062>:
    bacc:	deb43c23          	sd	a1,-520(s0)
    bad0:	f1043583          	ld	a1,-240(s0)
    bad4:	01d58eb3          	add	t4,a1,t4
    bad8:	00191913          	slli	s2,s2,0x1
    badc:	412e85bb          	subw	a1,t4,s2
    bae0:	01f585b3          	add	a1,a1,t6
    bae4:	88058d1b          	addiw	s10,a1,-1920 # ffffffffbffff880 <.Lfunc_end80+0xffffffffbffd6eb8>
    bae8:	400005b7          	lui	a1,0x40000
    baec:	f1843f83          	ld	t6,-232(s0)
    baf0:	000d5463          	bgez	s10,baf8 <.LBB103_1064>
    baf4:	c00005b7          	lui	a1,0xc0000

000000000000baf8 <.LBB103_1064>:
    baf8:	e0b43023          	sd	a1,-512(s0)
    bafc:	005d82b3          	add	t0,s11,t0
    bb00:	00169693          	slli	a3,a3,0x1
    bb04:	40d285bb          	subw	a1,t0,a3
    bb08:	019585b3          	add	a1,a1,s9
    bb0c:	8805849b          	addiw	s1,a1,-1920 # ffffffffbffff880 <.Lfunc_end80+0xffffffffbffd6eb8>
    bb10:	400005b7          	lui	a1,0x40000
    bb14:	f2043e83          	ld	t4,-224(s0)
    bb18:	0004d463          	bgez	s1,bb20 <.LBB103_1066>
    bb1c:	c00005b7          	lui	a1,0xc0000

000000000000bb20 <.LBB103_1066>:
    bb20:	e0b43423          	sd	a1,-504(s0)
    bb24:	010f8833          	add	a6,t6,a6
    bb28:	00161613          	slli	a2,a2,0x1
    bb2c:	40c805bb          	subw	a1,a6,a2
    bb30:	000c8f93          	mv	t6,s9
    bb34:	019585b3          	add	a1,a1,s9
    bb38:	8805881b          	addiw	a6,a1,-1920 # ffffffffbffff880 <.Lfunc_end80+0xffffffffbffd6eb8>
    bb3c:	400005b7          	lui	a1,0x40000
    bb40:	d4043283          	ld	t0,-704(s0)
    bb44:	f5043683          	ld	a3,-176(s0)
    bb48:	00085463          	bgez	a6,bb50 <.LBB103_1068>
    bb4c:	c00005b7          	lui	a1,0xc0000

000000000000bb50 <.LBB103_1068>:
    bb50:	e2843503          	ld	a0,-472(s0)
    bb54:	00ae8533          	add	a0,t4,a0
    bb58:	001f1f13          	slli	t5,t5,0x1
    bb5c:	41e5053b          	subw	a0,a0,t5
    bb60:	01f50533          	add	a0,a0,t6
    bb64:	8805009b          	addiw	ra,a0,-1920 # 3ffff880 <.Lfunc_end80+0x3ffd6eb8>
    bb68:	40000537          	lui	a0,0x40000
    bb6c:	f5843603          	ld	a2,-168(s0)
    bb70:	0000d463          	bgez	ra,bb78 <.LBB103_1070>
    bb74:	c0000537          	lui	a0,0xc0000

000000000000bb78 <.LBB103_1070>:
    bb78:	e0b43823          	sd	a1,-496(s0)
    bb7c:	e0a43c23          	sd	a0,-488(s0)
    bb80:	f6043503          	ld	a0,-160(s0)
    bb84:	e3043583          	ld	a1,-464(s0)
    bb88:	00b50533          	add	a0,a0,a1
    bb8c:	00179793          	slli	a5,a5,0x1
    bb90:	40f5053b          	subw	a0,a0,a5
    bb94:	01f50533          	add	a0,a0,t6
    bb98:	88050b1b          	addiw	s6,a0,-1920 # ffffffffbffff880 <.Lfunc_end80+0xffffffffbffd6eb8>
    bb9c:	40000537          	lui	a0,0x40000
    bba0:	000b5463          	bgez	s6,bba8 <.LBB103_1072>
    bba4:	c0000537          	lui	a0,0xc0000

000000000000bba8 <.LBB103_1072>:
    bba8:	e2a43423          	sd	a0,-472(s0)
    bbac:	f6843503          	ld	a0,-152(s0)
    bbb0:	e3843583          	ld	a1,-456(s0)
    bbb4:	00b50533          	add	a0,a0,a1
    bbb8:	00131313          	slli	t1,t1,0x1
    bbbc:	4065053b          	subw	a0,a0,t1
    bbc0:	01f50533          	add	a0,a0,t6
    bbc4:	88050d9b          	addiw	s11,a0,-1920 # ffffffffbffff880 <.Lfunc_end80+0xffffffffbffd6eb8>
    bbc8:	400005b7          	lui	a1,0x40000
    bbcc:	f4843c03          	ld	s8,-184(s0)
    bbd0:	f4043783          	ld	a5,-192(s0)
    bbd4:	000dd463          	bgez	s11,bbdc <.LBB103_1074>
    bbd8:	c00005b7          	lui	a1,0xc0000

000000000000bbdc <.LBB103_1074>:
    bbdc:	dfc43023          	sd	t3,-544(s0)
    bbe0:	f7043503          	ld	a0,-144(s0)
    bbe4:	e4043303          	ld	t1,-448(s0)
    bbe8:	00650533          	add	a0,a0,t1
    bbec:	00189893          	slli	a7,a7,0x1
    bbf0:	4115053b          	subw	a0,a0,a7
    bbf4:	01f50533          	add	a0,a0,t6
    bbf8:	88050a1b          	addiw	s4,a0,-1920
    bbfc:	40000537          	lui	a0,0x40000
    bc00:	000a5463          	bgez	s4,bc08 <.LBB103_1076>
    bc04:	c0000537          	lui	a0,0xc0000

000000000000bc08 <.LBB103_1076>:
    bc08:	e2b43823          	sd	a1,-464(s0)
    bc0c:	e2a43c23          	sd	a0,-456(s0)
    bc10:	f7843503          	ld	a0,-136(s0)
    bc14:	e4843583          	ld	a1,-440(s0)
    bc18:	00b50533          	add	a0,a0,a1
    bc1c:	00171e13          	slli	t3,a4,0x1
    bc20:	41c5053b          	subw	a0,a0,t3
    bc24:	01f50533          	add	a0,a0,t6
    bc28:	8805031b          	addiw	t1,a0,-1920 # ffffffffbffff880 <.Lfunc_end80+0xffffffffbffd6eb8>
    bc2c:	40000537          	lui	a0,0x40000
    bc30:	f3043c83          	ld	s9,-208(s0)
    bc34:	00035463          	bgez	t1,bc3c <.LBB103_1078>
    bc38:	c0000537          	lui	a0,0xc0000

000000000000bc3c <.LBB103_1078>:
    bc3c:	e4a43023          	sd	a0,-448(s0)
    bc40:	f8043503          	ld	a0,-128(s0)
    bc44:	e5043583          	ld	a1,-432(s0)
    bc48:	00b50533          	add	a0,a0,a1
    bc4c:	d5043583          	ld	a1,-688(s0)
    bc50:	00159593          	slli	a1,a1,0x1
    bc54:	40b5053b          	subw	a0,a0,a1
    bc58:	01f50533          	add	a0,a0,t6
    bc5c:	8805091b          	addiw	s2,a0,-1920 # ffffffffbffff880 <.Lfunc_end80+0xffffffffbffd6eb8>
    bc60:	40000537          	lui	a0,0x40000
    bc64:	40000e37          	lui	t3,0x40000
    bc68:	00095463          	bgez	s2,bc70 <.LBB103_1080>
    bc6c:	c0000537          	lui	a0,0xc0000

000000000000bc70 <.LBB103_1080>:
    bc70:	e4a43423          	sd	a0,-440(s0)
    bc74:	f8843503          	ld	a0,-120(s0)
    bc78:	e5843583          	ld	a1,-424(s0)
    bc7c:	00b50533          	add	a0,a0,a1
    bc80:	d5843583          	ld	a1,-680(s0)
    bc84:	00159593          	slli	a1,a1,0x1
    bc88:	40b5053b          	subw	a0,a0,a1
    bc8c:	01f50533          	add	a0,a0,t6
    bc90:	8805089b          	addiw	a7,a0,-1920 # ffffffffbffff880 <.Lfunc_end80+0xffffffffbffd6eb8>
    bc94:	40000537          	lui	a0,0x40000
    bc98:	0008d463          	bgez	a7,bca0 <.LBB103_1082>
    bc9c:	c0000537          	lui	a0,0xc0000

000000000000bca0 <.LBB103_1082>:
    bca0:	e4a43823          	sd	a0,-432(s0)
    bca4:	f2843503          	ld	a0,-216(s0)
    bca8:	e6043583          	ld	a1,-416(s0)
    bcac:	00b50533          	add	a0,a0,a1
    bcb0:	d6043583          	ld	a1,-672(s0)
    bcb4:	00159593          	slli	a1,a1,0x1
    bcb8:	40b5053b          	subw	a0,a0,a1
    bcbc:	01f50533          	add	a0,a0,t6
    bcc0:	8805051b          	addiw	a0,a0,-1920 # ffffffffbffff880 <.Lfunc_end80+0xffffffffbffd6eb8>
    bcc4:	400005b7          	lui	a1,0x40000
    bcc8:	e6a43023          	sd	a0,-416(s0)
    bccc:	00055463          	bgez	a0,bcd4 <.LBB103_1084>
    bcd0:	c00005b7          	lui	a1,0xc0000

000000000000bcd4 <.LBB103_1084>:
    bcd4:	e4b43c23          	sd	a1,-424(s0)
    bcd8:	e6843503          	ld	a0,-408(s0)
    bcdc:	00ac8533          	add	a0,s9,a0
    bce0:	d6843583          	ld	a1,-664(s0)
    bce4:	00159593          	slli	a1,a1,0x1
    bce8:	40b5053b          	subw	a0,a0,a1
    bcec:	01f50533          	add	a0,a0,t6
    bcf0:	8805051b          	addiw	a0,a0,-1920
    bcf4:	400005b7          	lui	a1,0x40000
    bcf8:	f0a43823          	sd	a0,-240(s0)
    bcfc:	00055463          	bgez	a0,bd04 <.LBB103_1086>
    bd00:	c00005b7          	lui	a1,0xc0000

000000000000bd04 <.LBB103_1086>:
    bd04:	e6b43423          	sd	a1,-408(s0)
    bd08:	f3843503          	ld	a0,-200(s0)
    bd0c:	d9043583          	ld	a1,-624(s0)
    bd10:	00b50533          	add	a0,a0,a1
    bd14:	d7043583          	ld	a1,-656(s0)
    bd18:	00159593          	slli	a1,a1,0x1
    bd1c:	40b5053b          	subw	a0,a0,a1
    bd20:	01f50533          	add	a0,a0,t6
    bd24:	8805051b          	addiw	a0,a0,-1920
    bd28:	400005b7          	lui	a1,0x40000
    bd2c:	f2a43023          	sd	a0,-224(s0)
    bd30:	00055463          	bgez	a0,bd38 <.LBB103_1088>
    bd34:	c00005b7          	lui	a1,0xc0000

000000000000bd38 <.LBB103_1088>:
    bd38:	f0b43c23          	sd	a1,-232(s0)
    bd3c:	da043503          	ld	a0,-608(s0)
    bd40:	00a78533          	add	a0,a5,a0
    bd44:	d7843583          	ld	a1,-648(s0)
    bd48:	00159593          	slli	a1,a1,0x1
    bd4c:	40b5053b          	subw	a0,a0,a1
    bd50:	01f50533          	add	a0,a0,t6
    bd54:	8805051b          	addiw	a0,a0,-1920
    bd58:	400005b7          	lui	a1,0x40000
    bd5c:	f2a43823          	sd	a0,-208(s0)
    bd60:	00055463          	bgez	a0,bd68 <.LBB103_1090>
    bd64:	c00005b7          	lui	a1,0xc0000

000000000000bd68 <.LBB103_1090>:
    bd68:	f2b43423          	sd	a1,-216(s0)
    bd6c:	db043503          	ld	a0,-592(s0)
    bd70:	00ac0533          	add	a0,s8,a0
    bd74:	d8043583          	ld	a1,-640(s0)
    bd78:	00159593          	slli	a1,a1,0x1
    bd7c:	40b5053b          	subw	a0,a0,a1
    bd80:	01f50533          	add	a0,a0,t6
    bd84:	8805079b          	addiw	a5,a0,-1920
    bd88:	40000537          	lui	a0,0x40000
    bd8c:	0007d463          	bgez	a5,bd94 <.LBB103_1092>
    bd90:	c0000537          	lui	a0,0xc0000

000000000000bd94 <.LBB103_1092>:
    bd94:	f2a43c23          	sd	a0,-200(s0)
    bd98:	f0043503          	ld	a0,-256(s0)
    bd9c:	db843583          	ld	a1,-584(s0)
    bda0:	00b50533          	add	a0,a0,a1
    bda4:	d8843583          	ld	a1,-632(s0)
    bda8:	00159593          	slli	a1,a1,0x1
    bdac:	40b5053b          	subw	a0,a0,a1
    bdb0:	01f50533          	add	a0,a0,t6
    bdb4:	8805051b          	addiw	a0,a0,-1920 # ffffffffbffff880 <.Lfunc_end80+0xffffffffbffd6eb8>
    bdb8:	400005b7          	lui	a1,0x40000
    bdbc:	f4a43423          	sd	a0,-184(s0)
    bdc0:	00055463          	bgez	a0,bdc8 <.LBB103_1094>
    bdc4:	c00005b7          	lui	a1,0xc0000

000000000000bdc8 <.LBB103_1094>:
    bdc8:	f4b43023          	sd	a1,-192(s0)
    bdcc:	dc043503          	ld	a0,-576(s0)
    bdd0:	00a68533          	add	a0,a3,a0
    bdd4:	d9843583          	ld	a1,-616(s0)
    bdd8:	00159593          	slli	a1,a1,0x1
    bddc:	40b5053b          	subw	a0,a0,a1
    bde0:	01f50533          	add	a0,a0,t6
    bde4:	8805051b          	addiw	a0,a0,-1920
    bde8:	400005b7          	lui	a1,0x40000
    bdec:	f6a43423          	sd	a0,-152(s0)
    bdf0:	00055463          	bgez	a0,bdf8 <.LBB103_1096>
    bdf4:	c00005b7          	lui	a1,0xc0000

000000000000bdf8 <.LBB103_1096>:
    bdf8:	f6b43023          	sd	a1,-160(s0)
    bdfc:	dc843503          	ld	a0,-568(s0)
    be00:	00a60533          	add	a0,a2,a0
    be04:	da843583          	ld	a1,-600(s0)
    be08:	00159593          	slli	a1,a1,0x1
    be0c:	40b5053b          	subw	a0,a0,a1
    be10:	01f50533          	add	a0,a0,t6
    be14:	8805051b          	addiw	a0,a0,-1920
    be18:	f6a43823          	sd	a0,-144(s0)
    be1c:	00055463          	bgez	a0,be24 <.LBB103_1098>
    be20:	c0000e37          	lui	t3,0xc0000

000000000000be24 <.LBB103_1098>:
    be24:	ed043503          	ld	a0,-304(s0)
    be28:	02550533          	mul	a0,a0,t0
    be2c:	e7043583          	ld	a1,-400(s0)
    be30:	007585b3          	add	a1,a1,t2
    be34:	00b50533          	add	a0,a0,a1
    be38:	42455513          	srai	a0,a0,0x24
    be3c:	00a025b3          	sgtz	a1,a0
    be40:	40b005b3          	neg	a1,a1
    be44:	00a5f533          	and	a0,a1,a0
    be48:	0ff00f13          	li	t5,255
    be4c:	01e54463          	blt	a0,t5,be54 <.LBB103_1100>
    be50:	0ff00513          	li	a0,255

000000000000be54 <.LBB103_1100>:
    be54:	f8a43423          	sd	a0,-120(s0)
    be58:	ef843503          	ld	a0,-264(s0)
    be5c:	02550533          	mul	a0,a0,t0
    be60:	eb043583          	ld	a1,-336(s0)
    be64:	007585b3          	add	a1,a1,t2
    be68:	00b50533          	add	a0,a0,a1
    be6c:	42455513          	srai	a0,a0,0x24
    be70:	00a025b3          	sgtz	a1,a0
    be74:	40b005b3          	neg	a1,a1
    be78:	00a5f533          	and	a0,a1,a0
    be7c:	01e54463          	blt	a0,t5,be84 <.LBB103_1102>
    be80:	0ff00513          	li	a0,255

000000000000be84 <.LBB103_1102>:
    be84:	f8a43023          	sd	a0,-128(s0)
    be88:	ec843503          	ld	a0,-312(s0)
    be8c:	02550533          	mul	a0,a0,t0
    be90:	ea843583          	ld	a1,-344(s0)
    be94:	007585b3          	add	a1,a1,t2
    be98:	00b50533          	add	a0,a0,a1
    be9c:	42455513          	srai	a0,a0,0x24
    bea0:	00a025b3          	sgtz	a1,a0
    bea4:	40b005b3          	neg	a1,a1
    bea8:	00a5f533          	and	a0,a1,a0
    beac:	01e54463          	blt	a0,t5,beb4 <.LBB103_1104>
    beb0:	0ff00513          	li	a0,255

000000000000beb4 <.LBB103_1104>:
    beb4:	f6a43c23          	sd	a0,-136(s0)
    beb8:	ec043503          	ld	a0,-320(s0)
    bebc:	02550533          	mul	a0,a0,t0
    bec0:	ea043583          	ld	a1,-352(s0)
    bec4:	007585b3          	add	a1,a1,t2
    bec8:	00b50533          	add	a0,a0,a1
    becc:	42455513          	srai	a0,a0,0x24
    bed0:	00a025b3          	sgtz	a1,a0
    bed4:	40b005b3          	neg	a1,a1
    bed8:	00a5f533          	and	a0,a1,a0
    bedc:	01e54463          	blt	a0,t5,bee4 <.LBB103_1106>
    bee0:	0ff00513          	li	a0,255

000000000000bee4 <.LBB103_1106>:
    bee4:	f4a43c23          	sd	a0,-168(s0)
    bee8:	eb843503          	ld	a0,-328(s0)
    beec:	02550533          	mul	a0,a0,t0
    bef0:	e9843583          	ld	a1,-360(s0)
    bef4:	007585b3          	add	a1,a1,t2
    bef8:	00b50533          	add	a0,a0,a1
    befc:	42455513          	srai	a0,a0,0x24
    bf00:	00a025b3          	sgtz	a1,a0
    bf04:	40b005b3          	neg	a1,a1
    bf08:	00a5f533          	and	a0,a1,a0
    bf0c:	01e54463          	blt	a0,t5,bf14 <.LBB103_1108>
    bf10:	0ff00513          	li	a0,255

000000000000bf14 <.LBB103_1108>:
    bf14:	f4a43823          	sd	a0,-176(s0)
    bf18:	ef043503          	ld	a0,-272(s0)
    bf1c:	02550533          	mul	a0,a0,t0
    bf20:	e9043583          	ld	a1,-368(s0)
    bf24:	007585b3          	add	a1,a1,t2
    bf28:	00b50533          	add	a0,a0,a1
    bf2c:	42455513          	srai	a0,a0,0x24
    bf30:	00a025b3          	sgtz	a1,a0
    bf34:	40b005b3          	neg	a1,a1
    bf38:	00a5f533          	and	a0,a1,a0
    bf3c:	01e54463          	blt	a0,t5,bf44 <.LBB103_1110>
    bf40:	0ff00513          	li	a0,255

000000000000bf44 <.LBB103_1110>:
    bf44:	f0a43023          	sd	a0,-256(s0)
    bf48:	ee843503          	ld	a0,-280(s0)
    bf4c:	02550533          	mul	a0,a0,t0
    bf50:	e8843583          	ld	a1,-376(s0)
    bf54:	007585b3          	add	a1,a1,t2
    bf58:	00b50533          	add	a0,a0,a1
    bf5c:	42455513          	srai	a0,a0,0x24
    bf60:	00a025b3          	sgtz	a1,a0
    bf64:	40b005b3          	neg	a1,a1
    bf68:	00a5f533          	and	a0,a1,a0
    bf6c:	01e54463          	blt	a0,t5,bf74 <.LBB103_1112>
    bf70:	0ff00513          	li	a0,255

000000000000bf74 <.LBB103_1112>:
    bf74:	eea43c23          	sd	a0,-264(s0)
    bf78:	ee043503          	ld	a0,-288(s0)
    bf7c:	02550533          	mul	a0,a0,t0
    bf80:	e8043583          	ld	a1,-384(s0)
    bf84:	007585b3          	add	a1,a1,t2
    bf88:	00b50533          	add	a0,a0,a1
    bf8c:	42455513          	srai	a0,a0,0x24
    bf90:	00a025b3          	sgtz	a1,a0
    bf94:	40b005b3          	neg	a1,a1
    bf98:	00a5f533          	and	a0,a1,a0
    bf9c:	01e54463          	blt	a0,t5,bfa4 <.LBB103_1114>
    bfa0:	0ff00513          	li	a0,255

000000000000bfa4 <.LBB103_1114>:
    bfa4:	eea43823          	sd	a0,-272(s0)
    bfa8:	ed843503          	ld	a0,-296(s0)
    bfac:	02550533          	mul	a0,a0,t0
    bfb0:	e7843583          	ld	a1,-392(s0)
    bfb4:	007585b3          	add	a1,a1,t2
    bfb8:	00b50533          	add	a0,a0,a1
    bfbc:	42455513          	srai	a0,a0,0x24
    bfc0:	00a025b3          	sgtz	a1,a0
    bfc4:	40b005b3          	neg	a1,a1
    bfc8:	00a5f533          	and	a0,a1,a0
    bfcc:	01e54463          	blt	a0,t5,bfd4 <.LBB103_1116>
    bfd0:	0ff00513          	li	a0,255

000000000000bfd4 <.LBB103_1116>:
    bfd4:	eea43423          	sd	a0,-280(s0)
    bfd8:	dd043503          	ld	a0,-560(s0)
    bfdc:	02550533          	mul	a0,a0,t0
    bfe0:	f0843583          	ld	a1,-248(s0)
    bfe4:	007585b3          	add	a1,a1,t2
    bfe8:	00b50533          	add	a0,a0,a1
    bfec:	42455513          	srai	a0,a0,0x24
    bff0:	00a025b3          	sgtz	a1,a0
    bff4:	40b005b3          	neg	a1,a1
    bff8:	00a5feb3          	and	t4,a1,a0
    bffc:	01eec463          	blt	t4,t5,c004 <.LBB103_1118>
    c000:	0ff00e93          	li	t4,255

000000000000c004 <.LBB103_1118>:
    c004:	025b8533          	mul	a0,s7,t0
    c008:	dd843583          	ld	a1,-552(s0)
    c00c:	007585b3          	add	a1,a1,t2
    c010:	00b50533          	add	a0,a0,a1
    c014:	42455513          	srai	a0,a0,0x24
    c018:	00a025b3          	sgtz	a1,a0
    c01c:	40b00733          	neg	a4,a1
    c020:	00a77733          	and	a4,a4,a0
    c024:	01e74463          	blt	a4,t5,c02c <.LBB103_1120>
    c028:	0ff00713          	li	a4,255

000000000000c02c <.LBB103_1120>:
    c02c:	de843503          	ld	a0,-536(s0)
    c030:	02550533          	mul	a0,a0,t0
    c034:	de043583          	ld	a1,-544(s0)
    c038:	007585b3          	add	a1,a1,t2
    c03c:	00b50533          	add	a0,a0,a1
    c040:	42455513          	srai	a0,a0,0x24
    c044:	00a025b3          	sgtz	a1,a0
    c048:	40b005b3          	neg	a1,a1
    c04c:	00a5ffb3          	and	t6,a1,a0
    c050:	01efc463          	blt	t6,t5,c058 <.LBB103_1122>
    c054:	0ff00f93          	li	t6,255

000000000000c058 <.LBB103_1122>:
    c058:	025a8533          	mul	a0,s5,t0
    c05c:	df043583          	ld	a1,-528(s0)
    c060:	007585b3          	add	a1,a1,t2
    c064:	00b50533          	add	a0,a0,a1
    c068:	42455513          	srai	a0,a0,0x24
    c06c:	00a025b3          	sgtz	a1,a0
    c070:	40b00633          	neg	a2,a1
    c074:	00a67633          	and	a2,a2,a0
    c078:	01e64463          	blt	a2,t5,c080 <.LBB103_1124>
    c07c:	0ff00613          	li	a2,255

000000000000c080 <.LBB103_1124>:
    c080:	02598533          	mul	a0,s3,t0
    c084:	df843583          	ld	a1,-520(s0)
    c088:	007585b3          	add	a1,a1,t2
    c08c:	00b50533          	add	a0,a0,a1
    c090:	42455513          	srai	a0,a0,0x24
    c094:	00a025b3          	sgtz	a1,a0
    c098:	40b006b3          	neg	a3,a1
    c09c:	00a6f6b3          	and	a3,a3,a0
    c0a0:	01e6c463          	blt	a3,t5,c0a8 <.LBB103_1126>
    c0a4:	0ff00693          	li	a3,255

000000000000c0a8 <.LBB103_1126>:
    c0a8:	025d0533          	mul	a0,s10,t0
    c0ac:	e0043583          	ld	a1,-512(s0)
    c0b0:	007585b3          	add	a1,a1,t2
    c0b4:	00b50533          	add	a0,a0,a1
    c0b8:	42455513          	srai	a0,a0,0x24
    c0bc:	00a025b3          	sgtz	a1,a0
    c0c0:	40b005b3          	neg	a1,a1
    c0c4:	00a5fd33          	and	s10,a1,a0
    c0c8:	01ed4463          	blt	s10,t5,c0d0 <.LBB103_1128>
    c0cc:	0ff00d13          	li	s10,255

000000000000c0d0 <.LBB103_1128>:
    c0d0:	02548533          	mul	a0,s1,t0
    c0d4:	e0843583          	ld	a1,-504(s0)
    c0d8:	007585b3          	add	a1,a1,t2
    c0dc:	00b50533          	add	a0,a0,a1
    c0e0:	42455513          	srai	a0,a0,0x24
    c0e4:	00a025b3          	sgtz	a1,a0
    c0e8:	40b005b3          	neg	a1,a1
    c0ec:	00a5fcb3          	and	s9,a1,a0
    c0f0:	01ecc463          	blt	s9,t5,c0f8 <.LBB103_1130>
    c0f4:	0ff00c93          	li	s9,255

000000000000c0f8 <.LBB103_1130>:
    c0f8:	02580533          	mul	a0,a6,t0
    c0fc:	e1043583          	ld	a1,-496(s0)
    c100:	007585b3          	add	a1,a1,t2
    c104:	00b50533          	add	a0,a0,a1
    c108:	42455513          	srai	a0,a0,0x24
    c10c:	00a025b3          	sgtz	a1,a0
    c110:	40b005b3          	neg	a1,a1
    c114:	00a5fc33          	and	s8,a1,a0
    c118:	01ec4463          	blt	s8,t5,c120 <.LBB103_1132>
    c11c:	0ff00c13          	li	s8,255

000000000000c120 <.LBB103_1132>:
    c120:	02508533          	mul	a0,ra,t0
    c124:	e1843583          	ld	a1,-488(s0)
    c128:	007585b3          	add	a1,a1,t2
    c12c:	00b50533          	add	a0,a0,a1
    c130:	42455513          	srai	a0,a0,0x24
    c134:	00a025b3          	sgtz	a1,a0
    c138:	40b005b3          	neg	a1,a1
    c13c:	00a5fbb3          	and	s7,a1,a0
    c140:	01ebc463          	blt	s7,t5,c148 <.LBB103_1134>
    c144:	0ff00b93          	li	s7,255

000000000000c148 <.LBB103_1134>:
    c148:	025b0533          	mul	a0,s6,t0
    c14c:	e2843583          	ld	a1,-472(s0)
    c150:	007585b3          	add	a1,a1,t2
    c154:	00b50533          	add	a0,a0,a1
    c158:	42455513          	srai	a0,a0,0x24
    c15c:	00a025b3          	sgtz	a1,a0
    c160:	40b005b3          	neg	a1,a1
    c164:	00a5fb33          	and	s6,a1,a0
    c168:	01eb4463          	blt	s6,t5,c170 <.LBB103_1136>
    c16c:	0ff00b13          	li	s6,255

000000000000c170 <.LBB103_1136>:
    c170:	025d8533          	mul	a0,s11,t0
    c174:	e3043583          	ld	a1,-464(s0)
    c178:	007585b3          	add	a1,a1,t2
    c17c:	00b50533          	add	a0,a0,a1
    c180:	42455513          	srai	a0,a0,0x24
    c184:	00a025b3          	sgtz	a1,a0
    c188:	40b005b3          	neg	a1,a1
    c18c:	00a5fab3          	and	s5,a1,a0
    c190:	01eac463          	blt	s5,t5,c198 <.LBB103_1138>
    c194:	0ff00a93          	li	s5,255

000000000000c198 <.LBB103_1138>:
    c198:	025a0533          	mul	a0,s4,t0
    c19c:	e3843583          	ld	a1,-456(s0)
    c1a0:	007585b3          	add	a1,a1,t2
    c1a4:	00b50533          	add	a0,a0,a1
    c1a8:	42455513          	srai	a0,a0,0x24
    c1ac:	00a025b3          	sgtz	a1,a0
    c1b0:	40b005b3          	neg	a1,a1
    c1b4:	00a5fa33          	and	s4,a1,a0
    c1b8:	01ea4463          	blt	s4,t5,c1c0 <.LBB103_1140>
    c1bc:	0ff00a13          	li	s4,255

000000000000c1c0 <.LBB103_1140>:
    c1c0:	02530533          	mul	a0,t1,t0
    c1c4:	e4043583          	ld	a1,-448(s0)
    c1c8:	007585b3          	add	a1,a1,t2
    c1cc:	00b50533          	add	a0,a0,a1
    c1d0:	42455513          	srai	a0,a0,0x24
    c1d4:	00a025b3          	sgtz	a1,a0
    c1d8:	40b005b3          	neg	a1,a1
    c1dc:	00a5f9b3          	and	s3,a1,a0
    c1e0:	01e9c463          	blt	s3,t5,c1e8 <.LBB103_1142>
    c1e4:	0ff00993          	li	s3,255

000000000000c1e8 <.LBB103_1142>:
    c1e8:	02590533          	mul	a0,s2,t0
    c1ec:	e4843583          	ld	a1,-440(s0)
    c1f0:	007585b3          	add	a1,a1,t2
    c1f4:	00b50533          	add	a0,a0,a1
    c1f8:	42455513          	srai	a0,a0,0x24
    c1fc:	00a025b3          	sgtz	a1,a0
    c200:	40b005b3          	neg	a1,a1
    c204:	00a5f933          	and	s2,a1,a0
    c208:	01e94463          	blt	s2,t5,c210 <.LBB103_1144>
    c20c:	0ff00913          	li	s2,255

000000000000c210 <.LBB103_1144>:
    c210:	02588533          	mul	a0,a7,t0
    c214:	e5043583          	ld	a1,-432(s0)
    c218:	007585b3          	add	a1,a1,t2
    c21c:	00b50533          	add	a0,a0,a1
    c220:	42455513          	srai	a0,a0,0x24
    c224:	00a025b3          	sgtz	a1,a0
    c228:	40b004b3          	neg	s1,a1
    c22c:	00a4f4b3          	and	s1,s1,a0
    c230:	01e4c463          	blt	s1,t5,c238 <.LBB103_1146>
    c234:	0ff00493          	li	s1,255

000000000000c238 <.LBB103_1146>:
    c238:	e6043503          	ld	a0,-416(s0)
    c23c:	02550533          	mul	a0,a0,t0
    c240:	e5843583          	ld	a1,-424(s0)
    c244:	007585b3          	add	a1,a1,t2
    c248:	00b50533          	add	a0,a0,a1
    c24c:	42455513          	srai	a0,a0,0x24
    c250:	00a025b3          	sgtz	a1,a0
    c254:	40b005b3          	neg	a1,a1
    c258:	00a5fdb3          	and	s11,a1,a0
    c25c:	01edc463          	blt	s11,t5,c264 <.LBB103_1148>
    c260:	0ff00d93          	li	s11,255

000000000000c264 <.LBB103_1148>:
    c264:	f1043503          	ld	a0,-240(s0)
    c268:	02550533          	mul	a0,a0,t0
    c26c:	e6843583          	ld	a1,-408(s0)
    c270:	007585b3          	add	a1,a1,t2
    c274:	00b50533          	add	a0,a0,a1
    c278:	42455513          	srai	a0,a0,0x24
    c27c:	00a025b3          	sgtz	a1,a0
    c280:	40b005b3          	neg	a1,a1
    c284:	00a5f0b3          	and	ra,a1,a0
    c288:	01e0c463          	blt	ra,t5,c290 <.LBB103_1150>
    c28c:	0ff00093          	li	ra,255

000000000000c290 <.LBB103_1150>:
    c290:	f2043503          	ld	a0,-224(s0)
    c294:	02550533          	mul	a0,a0,t0
    c298:	f1843583          	ld	a1,-232(s0)
    c29c:	007585b3          	add	a1,a1,t2
    c2a0:	00b50533          	add	a0,a0,a1
    c2a4:	42455513          	srai	a0,a0,0x24
    c2a8:	00a025b3          	sgtz	a1,a0
    c2ac:	40b005b3          	neg	a1,a1
    c2b0:	00a5f8b3          	and	a7,a1,a0
    c2b4:	01e8c463          	blt	a7,t5,c2bc <.LBB103_1152>
    c2b8:	0ff00893          	li	a7,255

000000000000c2bc <.LBB103_1152>:
    c2bc:	f3043503          	ld	a0,-208(s0)
    c2c0:	02550533          	mul	a0,a0,t0
    c2c4:	f2843583          	ld	a1,-216(s0)
    c2c8:	007585b3          	add	a1,a1,t2
    c2cc:	00b50533          	add	a0,a0,a1
    c2d0:	42455513          	srai	a0,a0,0x24
    c2d4:	00a025b3          	sgtz	a1,a0
    c2d8:	40b005b3          	neg	a1,a1
    c2dc:	00a5f533          	and	a0,a1,a0
    c2e0:	01e54463          	blt	a0,t5,c2e8 <.LBB103_1154>
    c2e4:	0ff00513          	li	a0,255

000000000000c2e8 <.LBB103_1154>:
    c2e8:	025785b3          	mul	a1,a5,t0
    c2ec:	f3843783          	ld	a5,-200(s0)
    c2f0:	007787b3          	add	a5,a5,t2
    c2f4:	00f585b3          	add	a1,a1,a5
    c2f8:	4245d593          	srai	a1,a1,0x24
    c2fc:	00b027b3          	sgtz	a5,a1
    c300:	40f007b3          	neg	a5,a5
    c304:	00b7f5b3          	and	a1,a5,a1
    c308:	01e5c463          	blt	a1,t5,c310 <.LBB103_1156>
    c30c:	0ff00593          	li	a1,255

000000000000c310 <.LBB103_1156>:
    c310:	f4843783          	ld	a5,-184(s0)
    c314:	025787b3          	mul	a5,a5,t0
    c318:	f4043803          	ld	a6,-192(s0)
    c31c:	00780833          	add	a6,a6,t2
    c320:	010787b3          	add	a5,a5,a6
    c324:	4247d793          	srai	a5,a5,0x24
    c328:	00f02833          	sgtz	a6,a5
    c32c:	41000833          	neg	a6,a6
    c330:	00f87833          	and	a6,a6,a5
    c334:	01e84463          	blt	a6,t5,c33c <.LBB103_1158>
    c338:	0ff00813          	li	a6,255

000000000000c33c <.LBB103_1158>:
    c33c:	f6843783          	ld	a5,-152(s0)
    c340:	025787b3          	mul	a5,a5,t0
    c344:	f6043303          	ld	t1,-160(s0)
    c348:	00730333          	add	t1,t1,t2
    c34c:	006787b3          	add	a5,a5,t1
    c350:	4247d793          	srai	a5,a5,0x24
    c354:	00f02333          	sgtz	t1,a5
    c358:	40600333          	neg	t1,t1
    c35c:	00f377b3          	and	a5,t1,a5
    c360:	01e7c463          	blt	a5,t5,c368 <.LBB103_1160>
    c364:	0ff00793          	li	a5,255

000000000000c368 <.LBB103_1160>:
    c368:	f7043303          	ld	t1,-144(s0)
    c36c:	02530333          	mul	t1,t1,t0
    c370:	007e02b3          	add	t0,t3,t2
    c374:	005302b3          	add	t0,t1,t0
    c378:	4242d293          	srai	t0,t0,0x24
    c37c:	00502333          	sgtz	t1,t0
    c380:	40600333          	neg	t1,t1
    c384:	00537333          	and	t1,t1,t0
    c388:	01e35463          	bge	t1,t5,c390 <.LBB103_1161>
    c38c:	dddfe06f          	j	b168 <.LBB103_1031>

000000000000c390 <.LBB103_1161>:
    c390:	0ff00313          	li	t1,255
    c394:	dd5fe06f          	j	b168 <.LBB103_1031>

000000000000c398 <.LBB103_1162>:
    c398:	00000513          	li	a0,0
    c39c:	7f010113          	addi	sp,sp,2032
    c3a0:	34010113          	addi	sp,sp,832
    c3a4:	7e813083          	ld	ra,2024(sp)
    c3a8:	7e013403          	ld	s0,2016(sp)
    c3ac:	7d813483          	ld	s1,2008(sp)
    c3b0:	7d013903          	ld	s2,2000(sp)
    c3b4:	7c813983          	ld	s3,1992(sp)
    c3b8:	7c013a03          	ld	s4,1984(sp)
    c3bc:	7b813a83          	ld	s5,1976(sp)
    c3c0:	7b013b03          	ld	s6,1968(sp)
    c3c4:	7a813b83          	ld	s7,1960(sp)
    c3c8:	7a013c03          	ld	s8,1952(sp)
    c3cc:	79813c83          	ld	s9,1944(sp)
    c3d0:	79013d03          	ld	s10,1936(sp)
    c3d4:	78813d83          	ld	s11,1928(sp)
    c3d8:	7f010113          	addi	sp,sp,2032
    c3dc:	00008067          	ret
